ARM GAS  C:\Users\DNIEL~1\AppData\Local\Temp\ccj8eOdI.s 			page 1


   1              		.syntax unified
   2              		.cpu cortex-m4
   3              		.fpu softvfp
   4              		.eabi_attribute 20, 1
   5              		.eabi_attribute 21, 1
   6              		.eabi_attribute 23, 3
   7              		.eabi_attribute 24, 1
   8              		.eabi_attribute 25, 1
   9              		.eabi_attribute 26, 1
  10              		.eabi_attribute 30, 2
  11              		.eabi_attribute 18, 4
  12              		.thumb
  13              		.file	"adc.c"
  20 0000 C6030000 		.text
  20      02008802 
  20      00000201 
  20      FB0E0D00 
  20      01010101 
  21              	.Ltext0:
  22              		.cfi_sections	.debug_frame
  23              		.section	.text.adcInit,"ax",%progbits
  24              		.align	2
  25              		.p2align 4,,15
  26              		.global	adcInit
  27              		.thumb
  28              		.thumb_func
  29              		.type	adcInit, %function
  30              	adcInit:
  31              	.LFB118:
  32              		.file 1 "../../../ChibiOS/os/hal/src/adc.c"
  33              		.loc 1 68 0
  34              		.cfi_startproc
  35              		@ args = 0, pretend = 0, frame = 0
  36              		@ frame_needed = 0, uses_anonymous_args = 0
  37              		@ link register save eliminated.
  38              		.loc 1 71 0
  39              		.loc 1 70 0
  40 0000 FFF7FEBF 		b	adc_lld_init
  41              		.cfi_endproc
  42              	.LFE118:
  43              		.size	adcInit, .-adcInit
  44 0004 AFF30080 		.section	.text.adcObjectInit,"ax",%progbits
  44      AFF30080 
  44      AFF30080 
  45              		.align	2
  46              		.p2align 4,,15
  47              		.global	adcObjectInit
  48              		.thumb
  49              		.thumb_func
  50              		.type	adcObjectInit, %function
  51              	adcObjectInit:
ARM GAS  C:\Users\DNIEL~1\AppData\Local\Temp\ccj8eOdI.s 			page 2


  52              	.LFB119:
  53              		.loc 1 80 0
  54              		.cfi_startproc
  55              		@ args = 0, pretend = 0, frame = 0
  56              		@ frame_needed = 0, uses_anonymous_args = 0
  57              		@ link register save eliminated.
  58              	.LVL0:
  59              		.loc 1 83 0
  60 0000 0023     		movs	r3, #0
  61              		.loc 1 82 0
  62 0002 0122     		movs	r2, #1
  63 0004 0270     		strb	r2, [r0, #0]
  64              		.loc 1 83 0
  65 0006 4360     		str	r3, [r0, #4]
  66              		.loc 1 84 0
  67 0008 8360     		str	r3, [r0, #8]
  68              		.loc 1 85 0
  69 000a C360     		str	r3, [r0, #12]
  70              		.loc 1 86 0
  71 000c 0361     		str	r3, [r0, #16]
  72              		.loc 1 88 0
  73 000e 4361     		str	r3, [r0, #20]
  74              		.loc 1 92 0
  75 0010 1830     		adds	r0, r0, #24
  76              	.LVL1:
  77              		.loc 1 100 0
  78              		.loc 1 92 0
  79 0012 FFF7FEBF 		b	chMtxInit
  80              		.cfi_endproc
  81              	.LFE119:
  82              		.size	adcObjectInit, .-adcObjectInit
  83 0016 00BFAFF3 		.section	.text.adcStart,"ax",%progbits
  83      0080AFF3 
  83      0080
  84              		.align	2
  85              		.p2align 4,,15
  86              		.global	adcStart
  87              		.thumb
  88              		.thumb_func
  89              		.type	adcStart, %function
  90              	adcStart:
  91              	.LFB120:
  92              		.loc 1 111 0
  93              		.cfi_startproc
  94              		@ args = 0, pretend = 0, frame = 0
  95              		@ frame_needed = 0, uses_anonymous_args = 0
  96              	.LVL2:
  97 0000 10B5     		push	{r4, lr}
  98              	.LCFI0:
  99              		.cfi_def_cfa_offset 8
 100              	.LBB10:
 101              		.loc 1 115 0
 102 0002 2023     		movs	r3, #32
 103              	.LVL3:
 104              	.LBE10:
 105              		.loc 1 111 0
 106 0004 0446     		mov	r4, r0
ARM GAS  C:\Users\DNIEL~1\AppData\Local\Temp\ccj8eOdI.s 			page 3


 107              		.cfi_offset 14, -4
 108              		.cfi_offset 4, -8
 109              	.LBB11:
 110              		.loc 1 115 0
 111              	@ 115 "../../../ChibiOS/os/hal/src/adc.c" 1
 112 0006 83F31188 		msr     BASEPRI, r3
 113              	@ 0 "" 2
 114              	.LVL4:
 115              		.thumb
 116              	.LBE11:
 117              		.loc 1 118 0
 118 000a 4160     		str	r1, [r0, #4]
 119              		.loc 1 119 0
 120 000c FFF7FEFF 		bl	adc_lld_start
 121              	.LVL5:
 122              		.loc 1 120 0
 123 0010 0223     		movs	r3, #2
 124 0012 2370     		strb	r3, [r4, #0]
 125              	.LBB12:
 126              		.loc 1 121 0
 127 0014 0023     		movs	r3, #0
 128              	.LVL6:
 129              	@ 121 "../../../ChibiOS/os/hal/src/adc.c" 1
 130 0016 83F31188 		msr     BASEPRI, r3
 131              	@ 0 "" 2
 132              	.LVL7:
 133              		.thumb
 134              	.LBE12:
 135              		.loc 1 122 0
 136 001a 10BD     		pop	{r4, pc}
 137              		.cfi_endproc
 138              	.LFE120:
 139              		.size	adcStart, .-adcStart
 140 001c AFF30080 		.section	.text.adcStop,"ax",%progbits
 141              		.align	2
 142              		.p2align 4,,15
 143              		.global	adcStop
 144              		.thumb
 145              		.thumb_func
 146              		.type	adcStop, %function
 147              	adcStop:
 148              	.LFB121:
 149              		.loc 1 131 0
 150              		.cfi_startproc
 151              		@ args = 0, pretend = 0, frame = 0
 152              		@ frame_needed = 0, uses_anonymous_args = 0
 153              	.LVL8:
 154 0000 10B5     		push	{r4, lr}
 155              	.LCFI1:
 156              		.cfi_def_cfa_offset 8
 157              	.LBB13:
 158              		.loc 1 135 0
 159 0002 2023     		movs	r3, #32
 160              	.LVL9:
 161              	.LBE13:
 162              		.loc 1 131 0
 163 0004 0446     		mov	r4, r0
ARM GAS  C:\Users\DNIEL~1\AppData\Local\Temp\ccj8eOdI.s 			page 4


 164              		.cfi_offset 14, -4
 165              		.cfi_offset 4, -8
 166              	.LBB14:
 167              		.loc 1 135 0
 168              	@ 135 "../../../ChibiOS/os/hal/src/adc.c" 1
 169 0006 83F31188 		msr     BASEPRI, r3
 170              	@ 0 "" 2
 171              	.LVL10:
 172              		.thumb
 173              	.LBE14:
 174              		.loc 1 138 0
 175 000a FFF7FEFF 		bl	adc_lld_stop
 176              	.LVL11:
 177              		.loc 1 139 0
 178 000e 0123     		movs	r3, #1
 179 0010 2370     		strb	r3, [r4, #0]
 180              	.LBB15:
 181              		.loc 1 140 0
 182 0012 0023     		movs	r3, #0
 183              	.LVL12:
 184              	@ 140 "../../../ChibiOS/os/hal/src/adc.c" 1
 185 0014 83F31188 		msr     BASEPRI, r3
 186              	@ 0 "" 2
 187              	.LVL13:
 188              		.thumb
 189              	.LBE15:
 190              		.loc 1 141 0
 191 0018 10BD     		pop	{r4, pc}
 192              		.cfi_endproc
 193              	.LFE121:
 194              		.size	adcStop, .-adcStop
 195 001a 00BFAFF3 		.section	.text.adcStartConversion,"ax",%progbits
 195      0080
 196              		.align	2
 197              		.p2align 4,,15
 198              		.global	adcStartConversion
 199              		.thumb
 200              		.thumb_func
 201              		.type	adcStartConversion, %function
 202              	adcStartConversion:
 203              	.LFB122:
 204              		.loc 1 162 0
 205              		.cfi_startproc
 206              		@ args = 0, pretend = 0, frame = 0
 207              		@ frame_needed = 0, uses_anonymous_args = 0
 208              	.LVL14:
 209 0000 38B5     		push	{r3, r4, r5, lr}
 210              	.LCFI2:
 211              		.cfi_def_cfa_offset 16
 212              		.loc 1 162 0
 213 0002 1D46     		mov	r5, r3
 214              		.cfi_offset 14, -4
 215              		.cfi_offset 5, -8
 216              		.cfi_offset 4, -12
 217              		.cfi_offset 3, -16
 218              	.LBB16:
 219              		.loc 1 164 0
ARM GAS  C:\Users\DNIEL~1\AppData\Local\Temp\ccj8eOdI.s 			page 5


 220 0004 2023     		movs	r3, #32
 221              	.LVL15:
 222              	@ 164 "../../../ChibiOS/os/hal/src/adc.c" 1
 223 0006 83F31188 		msr     BASEPRI, r3
 224              	@ 0 "" 2
 225              	.LVL16:
 226              		.thumb
 227              	.LBE16:
 228              	.LBB17:
 229              	.LBB18:
 230              		.loc 1 204 0
 231 000a 0323     		movs	r3, #3
 232              	.LVL17:
 233 000c 0370     		strb	r3, [r0, #0]
 234              		.loc 1 201 0
 235 000e 8260     		str	r2, [r0, #8]
 236              		.loc 1 202 0
 237 0010 C560     		str	r5, [r0, #12]
 238              		.loc 1 203 0
 239 0012 0161     		str	r1, [r0, #16]
 240              		.loc 1 205 0
 241 0014 FFF7FEFF 		bl	adc_lld_start_conversion
 242              	.LVL18:
 243              	.LBE18:
 244              	.LBE17:
 245              	.LBB19:
 246              		.loc 1 166 0
 247 0018 0023     		movs	r3, #0
 248              	.LVL19:
 249              	@ 166 "../../../ChibiOS/os/hal/src/adc.c" 1
 250 001a 83F31188 		msr     BASEPRI, r3
 251              	@ 0 "" 2
 252              	.LVL20:
 253              		.thumb
 254              	.LBE19:
 255              		.loc 1 167 0
 256 001e 38BD     		pop	{r3, r4, r5, pc}
 257              		.cfi_endproc
 258              	.LFE122:
 259              		.size	adcStartConversion, .-adcStartConversion
 260              		.section	.text.adcStartConversionI,"ax",%progbits
 261              		.align	2
 262              		.p2align 4,,15
 263              		.global	adcStartConversionI
 264              		.thumb
 265              		.thumb_func
 266              		.type	adcStartConversionI, %function
 267              	adcStartConversionI:
 268              	.LFB123:
 269              		.loc 1 190 0
 270              		.cfi_startproc
 271              		@ args = 0, pretend = 0, frame = 0
 272              		@ frame_needed = 0, uses_anonymous_args = 0
 273              		@ link register save eliminated.
 274              	.LVL21:
 275 0000 10B4     		push	{r4}
 276              	.LCFI3:
ARM GAS  C:\Users\DNIEL~1\AppData\Local\Temp\ccj8eOdI.s 			page 6


 277              		.cfi_def_cfa_offset 4
 278              		.loc 1 202 0
 279 0002 C360     		str	r3, [r0, #12]
 280              		.loc 1 204 0
 281 0004 0323     		movs	r3, #3
 282              	.LVL22:
 283              		.loc 1 201 0
 284 0006 8260     		str	r2, [r0, #8]
 285              		.loc 1 203 0
 286 0008 0161     		str	r1, [r0, #16]
 287              		.loc 1 204 0
 288 000a 0370     		strb	r3, [r0, #0]
 289              		.loc 1 206 0
 290 000c 10BC     		pop	{r4}
 291              		.loc 1 205 0
 292              		.cfi_offset 4, -4
 293 000e FFF7FEBF 		b	adc_lld_start_conversion
 294              		.cfi_endproc
 295              	.LFE123:
 296              		.size	adcStartConversionI, .-adcStartConversionI
 297 0012 00BFAFF3 		.section	.text.adcStopConversion,"ax",%progbits
 297      0080AFF3 
 297      0080AFF3 
 297      0080
 298              		.align	2
 299              		.p2align 4,,15
 300              		.global	adcStopConversion
 301              		.thumb
 302              		.thumb_func
 303              		.type	adcStopConversion, %function
 304              	adcStopConversion:
 305              	.LFB124:
 306              		.loc 1 218 0
 307              		.cfi_startproc
 308              		@ args = 0, pretend = 0, frame = 0
 309              		@ frame_needed = 0, uses_anonymous_args = 0
 310              	.LVL23:
 311 0000 10B5     		push	{r4, lr}
 312              	.LCFI4:
 313              		.cfi_def_cfa_offset 8
 314              	.LBB20:
 315              		.loc 1 222 0
 316 0002 2023     		movs	r3, #32
 317              	.LVL24:
 318              	.LBE20:
 319              		.loc 1 218 0
 320 0004 0446     		mov	r4, r0
 321              		.cfi_offset 14, -4
 322              		.cfi_offset 4, -8
 323              	.LBB21:
 324              		.loc 1 222 0
 325              	@ 222 "../../../ChibiOS/os/hal/src/adc.c" 1
 326 0006 83F31188 		msr     BASEPRI, r3
 327              	@ 0 "" 2
 328              	.LVL25:
 329              		.thumb
 330              	.LBE21:
ARM GAS  C:\Users\DNIEL~1\AppData\Local\Temp\ccj8eOdI.s 			page 7


 331              		.loc 1 226 0
 332 000a 0378     		ldrb	r3, [r0, #0]	@ zero_extendqisi2
 333              	.LVL26:
 334 000c 022B     		cmp	r3, #2
 335 000e 0CD0     		beq	.L8
 336              		.loc 1 227 0
 337 0010 FFF7FEFF 		bl	adc_lld_stop_conversion
 338              	.LVL27:
 339              		.loc 1 230 0
 340 0014 6069     		ldr	r0, [r4, #20]
 341              		.loc 1 228 0
 342 0016 0023     		movs	r3, #0
 343              		.loc 1 229 0
 344 0018 0222     		movs	r2, #2
 345              		.loc 1 228 0
 346 001a 2361     		str	r3, [r4, #16]
 347              		.loc 1 229 0
 348 001c 2270     		strb	r2, [r4, #0]
 349              		.loc 1 230 0
 350 001e 20B1     		cbz	r0, .L8
 351              	.LVL28:
 352              	.LBB22:
 353              		.loc 1 230 0 is_stmt 0 discriminator 1
 354 0020 6361     		str	r3, [r4, #20]
 355 0022 6FF00101 		mvn	r1, #1
 356 0026 FFF7FEFF 		bl	chSchWakeupS
 357              	.LVL29:
 358              	.L8:
 359              	.LBE22:
 360              	.LBB23:
 361              		.loc 1 232 0 is_stmt 1
 362 002a 0023     		movs	r3, #0
 363              	.LVL30:
 364              	@ 232 "../../../ChibiOS/os/hal/src/adc.c" 1
 365 002c 83F31188 		msr     BASEPRI, r3
 366              	@ 0 "" 2
 367              	.LVL31:
 368              		.thumb
 369              	.LBE23:
 370              		.loc 1 233 0
 371 0030 10BD     		pop	{r4, pc}
 372              		.cfi_endproc
 373              	.LFE124:
 374              		.size	adcStopConversion, .-adcStopConversion
 375 0032 00BFAFF3 		.section	.text.adcStopConversionI,"ax",%progbits
 375      0080AFF3 
 375      0080AFF3 
 375      0080
 376              		.align	2
 377              		.p2align 4,,15
 378              		.global	adcStopConversionI
 379              		.thumb
 380              		.thumb_func
 381              		.type	adcStopConversionI, %function
 382              	adcStopConversionI:
 383              	.LFB125:
 384              		.loc 1 245 0
ARM GAS  C:\Users\DNIEL~1\AppData\Local\Temp\ccj8eOdI.s 			page 8


 385              		.cfi_startproc
 386              		@ args = 0, pretend = 0, frame = 0
 387              		@ frame_needed = 0, uses_anonymous_args = 0
 388              	.LVL32:
 389              		.loc 1 254 0
 390 0000 0378     		ldrb	r3, [r0, #0]	@ zero_extendqisi2
 391 0002 022B     		cmp	r3, #2
 392              		.loc 1 245 0
 393 0004 10B5     		push	{r4, lr}
 394              	.LCFI5:
 395              		.cfi_def_cfa_offset 8
 396              		.loc 1 245 0
 397 0006 0446     		mov	r4, r0
 398              		.cfi_offset 14, -4
 399              		.cfi_offset 4, -8
 400              		.loc 1 254 0
 401 0008 10D0     		beq	.L10
 402              		.loc 1 255 0
 403 000a FFF7FEFF 		bl	adc_lld_stop_conversion
 404              	.LVL33:
 405              		.loc 1 258 0
 406 000e 6369     		ldr	r3, [r4, #20]
 407              		.loc 1 256 0
 408 0010 0022     		movs	r2, #0
 409              		.loc 1 257 0
 410 0012 0221     		movs	r1, #2
 411              		.loc 1 256 0
 412 0014 2261     		str	r2, [r4, #16]
 413              		.loc 1 257 0
 414 0016 2170     		strb	r1, [r4, #0]
 415              		.loc 1 258 0
 416 0018 43B1     		cbz	r3, .L10
 417              	.LVL34:
 418              	.LBB24:
 419              		.loc 1 258 0 is_stmt 0 discriminator 1
 420 001a 6261     		str	r2, [r4, #20]
 421 001c 1846     		mov	r0, r3
 422 001e 6FF00102 		mvn	r2, #1
 423 0022 5A62     		str	r2, [r3, #36]
 424              	.LBE24:
 425              		.loc 1 260 0 is_stmt 1 discriminator 1
 426 0024 BDE81040 		pop	{r4, lr}
 427              	.LBB25:
 428              		.loc 1 258 0 discriminator 1
 429 0028 FFF7FEBF 		b	chSchReadyI
 430              	.LVL35:
 431              	.L10:
 432 002c 10BD     		pop	{r4, pc}
 433              	.LBE25:
 434              		.cfi_endproc
 435              	.LFE125:
 436              		.size	adcStopConversionI, .-adcStopConversionI
 437 002e 00BF     		.section	.text.adcConvert,"ax",%progbits
 438              		.align	2
 439              		.p2align 4,,15
 440              		.global	adcConvert
 441              		.thumb
ARM GAS  C:\Users\DNIEL~1\AppData\Local\Temp\ccj8eOdI.s 			page 9


 442              		.thumb_func
 443              		.type	adcConvert, %function
 444              	adcConvert:
 445              	.LFB126:
 446              		.loc 1 289 0
 447              		.cfi_startproc
 448              		@ args = 0, pretend = 0, frame = 0
 449              		@ frame_needed = 0, uses_anonymous_args = 0
 450              	.LVL36:
 451 0000 70B5     		push	{r4, r5, r6, lr}
 452              	.LCFI6:
 453              		.cfi_def_cfa_offset 16
 454              		.loc 1 289 0
 455 0002 1D46     		mov	r5, r3
 456              		.cfi_offset 14, -4
 457              		.cfi_offset 6, -8
 458              		.cfi_offset 5, -12
 459              		.cfi_offset 4, -16
 460 0004 0446     		mov	r4, r0
 461              	.LBB26:
 462              		.loc 1 292 0
 463 0006 2023     		movs	r3, #32
 464              	.LVL37:
 465              	@ 292 "../../../ChibiOS/os/hal/src/adc.c" 1
 466 0008 83F31188 		msr     BASEPRI, r3
 467              	@ 0 "" 2
 468              	.LVL38:
 469              		.thumb
 470              	.LBE26:
 471              		.loc 1 295 0
 472 000c 094E     		ldr	r6, .L13
 473              	.LBB27:
 474              	.LBB28:
 475              		.loc 1 203 0
 476 000e 0161     		str	r1, [r0, #16]
 477              		.loc 1 204 0
 478 0010 0321     		movs	r1, #3
 479              	.LVL39:
 480              		.loc 1 201 0
 481 0012 8260     		str	r2, [r0, #8]
 482              		.loc 1 204 0
 483 0014 0170     		strb	r1, [r0, #0]
 484              		.loc 1 202 0
 485 0016 C560     		str	r5, [r0, #12]
 486              		.loc 1 205 0
 487 0018 FFF7FEFF 		bl	adc_lld_start_conversion
 488              	.LVL40:
 489              	.LBE28:
 490              	.LBE27:
 491              		.loc 1 295 0
 492 001c B369     		ldr	r3, [r6, #24]
 493              		.loc 1 296 0
 494 001e 0220     		movs	r0, #2
 495              		.loc 1 295 0
 496 0020 6361     		str	r3, [r4, #20]
 497              		.loc 1 296 0
 498 0022 FFF7FEFF 		bl	chSchGoSleepS
ARM GAS  C:\Users\DNIEL~1\AppData\Local\Temp\ccj8eOdI.s 			page 10


 499              		.loc 1 297 0
 500 0026 B269     		ldr	r2, [r6, #24]
 501              	.LBB29:
 502              		.loc 1 298 0
 503 0028 0023     		movs	r3, #0
 504              	.LVL41:
 505              	.LBE29:
 506              		.loc 1 297 0
 507 002a 506A     		ldr	r0, [r2, #36]
 508              	.LVL42:
 509              	.LBB30:
 510              		.loc 1 298 0
 511              	@ 298 "../../../ChibiOS/os/hal/src/adc.c" 1
 512 002c 83F31188 		msr     BASEPRI, r3
 513              	@ 0 "" 2
 514              	.LVL43:
 515              		.thumb
 516              	.LBE30:
 517              		.loc 1 300 0
 518 0030 70BD     		pop	{r4, r5, r6, pc}
 519              	.L14:
 520 0032 00BF     		.align	2
 521              	.L13:
 522 0034 00000000 		.word	rlist
 523              		.cfi_endproc
 524              	.LFE126:
 525              		.size	adcConvert, .-adcConvert
 526              		.section	.text.adcAcquireBus,"ax",%progbits
 527              		.align	2
 528              		.p2align 4,,15
 529              		.global	adcAcquireBus
 530              		.thumb
 531              		.thumb_func
 532              		.type	adcAcquireBus, %function
 533              	adcAcquireBus:
 534              	.LFB127:
 535              		.loc 1 315 0
 536              		.cfi_startproc
 537              		@ args = 0, pretend = 0, frame = 0
 538              		@ frame_needed = 0, uses_anonymous_args = 0
 539              		@ link register save eliminated.
 540              	.LVL44:
 541              		.loc 1 320 0
 542 0000 1830     		adds	r0, r0, #24
 543              	.LVL45:
 544              		.loc 1 324 0
 545              		.loc 1 320 0
 546 0002 FFF7FEBF 		b	chMtxLock
 547              		.cfi_endproc
 548              	.LFE127:
 549              		.size	adcAcquireBus, .-adcAcquireBus
 550 0006 00BFAFF3 		.section	.text.adcReleaseBus,"ax",%progbits
 550      0080AFF3 
 550      0080
 551              		.align	2
 552              		.p2align 4,,15
 553              		.global	adcReleaseBus
ARM GAS  C:\Users\DNIEL~1\AppData\Local\Temp\ccj8eOdI.s 			page 11


 554              		.thumb
 555              		.thumb_func
 556              		.type	adcReleaseBus, %function
 557              	adcReleaseBus:
 558              	.LFB128:
 559              		.loc 1 335 0
 560              		.cfi_startproc
 561              		@ args = 0, pretend = 0, frame = 0
 562              		@ frame_needed = 0, uses_anonymous_args = 0
 563              		@ link register save eliminated.
 564              	.LVL46:
 565              		.loc 1 345 0
 566              		.loc 1 341 0
 567 0000 FFF7FEBF 		b	chMtxUnlock
 568              		.cfi_endproc
 569              	.LFE128:
 570              		.size	adcReleaseBus, .-adcReleaseBus
 571 0004 AFF30080 		.text
 571      AFF30080 
 571      AFF30080 
 572              	.Letext0: