ARM GAS  C:\Users\DNIEL~1\AppData\Local\Temp\ccj8eOdI.s 			page 1


   1              		.syntax unified
   2              		.cpu cortex-m4
   3              		.fpu softvfp
   4              		.eabi_attribute 20, 1
   5              		.eabi_attribute 21, 1
   6              		.eabi_attribute 23, 3
   7              		.eabi_attribute 24, 1
   8              		.eabi_attribute 25, 1
   9              		.eabi_attribute 26, 1
  10              		.eabi_attribute 30, 2
  11              		.eabi_attribute 18, 4
  12              		.thumb
  13              		.file	"adc.c"
  14              		.section	.debug_abbrev,"",%progbits
  15              	.Ldebug_abbrev0:
  16              		.section	.debug_info,"",%progbits
  17              	.Ldebug_info0:
  18              		.section	.debug_line,"",%progbits
  19              	.Ldebug_line0:
  20 0000 C6030000 		.text
  20      02008802 
  20      00000201 
  20      FB0E0D00 
  20      01010101 
  21              	.Ltext0:
  22              		.cfi_sections	.debug_frame
  23              		.section	.text.adcInit,"ax",%progbits
  24              		.align	2
  25              		.p2align 4,,15
  26              		.global	adcInit
  27              		.thumb
  28              		.thumb_func
  29              		.type	adcInit, %function
  30              	adcInit:
  31              	.LFB118:
  32              		.file 1 "../../../ChibiOS/os/hal/src/adc.c"
  33              		.loc 1 68 0
  34              		.cfi_startproc
  35              		@ args = 0, pretend = 0, frame = 0
  36              		@ frame_needed = 0, uses_anonymous_args = 0
  37              		@ link register save eliminated.
  38              		.loc 1 71 0
  39              		.loc 1 70 0
  40 0000 FFF7FEBF 		b	adc_lld_init
  41              		.cfi_endproc
  42              	.LFE118:
  43              		.size	adcInit, .-adcInit
  44 0004 AFF30080 		.section	.text.adcObjectInit,"ax",%progbits
  44      AFF30080 
  44      AFF30080 
  45              		.align	2
  46              		.p2align 4,,15
  47              		.global	adcObjectInit
  48              		.thumb
  49              		.thumb_func
  50              		.type	adcObjectInit, %function
  51              	adcObjectInit:
ARM GAS  C:\Users\DNIEL~1\AppData\Local\Temp\ccj8eOdI.s 			page 2


  52              	.LFB119:
  53              		.loc 1 80 0
  54              		.cfi_startproc
  55              		@ args = 0, pretend = 0, frame = 0
  56              		@ frame_needed = 0, uses_anonymous_args = 0
  57              		@ link register save eliminated.
  58              	.LVL0:
  59              		.loc 1 83 0
  60 0000 0023     		movs	r3, #0
  61              		.loc 1 82 0
  62 0002 0122     		movs	r2, #1
  63 0004 0270     		strb	r2, [r0, #0]
  64              		.loc 1 83 0
  65 0006 4360     		str	r3, [r0, #4]
  66              		.loc 1 84 0
  67 0008 8360     		str	r3, [r0, #8]
  68              		.loc 1 85 0
  69 000a C360     		str	r3, [r0, #12]
  70              		.loc 1 86 0
  71 000c 0361     		str	r3, [r0, #16]
  72              		.loc 1 88 0
  73 000e 4361     		str	r3, [r0, #20]
  74              		.loc 1 92 0
  75 0010 1830     		adds	r0, r0, #24
  76              	.LVL1:
  77              		.loc 1 100 0
  78              		.loc 1 92 0
  79 0012 FFF7FEBF 		b	chMtxInit
  80              		.cfi_endproc
  81              	.LFE119:
  82              		.size	adcObjectInit, .-adcObjectInit
  83 0016 00BFAFF3 		.section	.text.adcStart,"ax",%progbits
  83      0080AFF3 
  83      0080
  84              		.align	2
  85              		.p2align 4,,15
  86              		.global	adcStart
  87              		.thumb
  88              		.thumb_func
  89              		.type	adcStart, %function
  90              	adcStart:
  91              	.LFB120:
  92              		.loc 1 111 0
  93              		.cfi_startproc
  94              		@ args = 0, pretend = 0, frame = 0
  95              		@ frame_needed = 0, uses_anonymous_args = 0
  96              	.LVL2:
  97 0000 10B5     		push	{r4, lr}
  98              	.LCFI0:
  99              		.cfi_def_cfa_offset 8
 100              	.LBB10:
 101              		.loc 1 115 0
 102 0002 2023     		movs	r3, #32
 103              	.LVL3:
 104              	.LBE10:
 105              		.loc 1 111 0
 106 0004 0446     		mov	r4, r0
ARM GAS  C:\Users\DNIEL~1\AppData\Local\Temp\ccj8eOdI.s 			page 3


 107              		.cfi_offset 14, -4
 108              		.cfi_offset 4, -8
 109              	.LBB11:
 110              		.loc 1 115 0
 111              	@ 115 "../../../ChibiOS/os/hal/src/adc.c" 1
 112 0006 83F31188 		msr     BASEPRI, r3
 113              	@ 0 "" 2
 114              	.LVL4:
 115              		.thumb
 116              	.LBE11:
 117              		.loc 1 118 0
 118 000a 4160     		str	r1, [r0, #4]
 119              		.loc 1 119 0
 120 000c FFF7FEFF 		bl	adc_lld_start
 121              	.LVL5:
 122              		.loc 1 120 0
 123 0010 0223     		movs	r3, #2
 124 0012 2370     		strb	r3, [r4, #0]
 125              	.LBB12:
 126              		.loc 1 121 0
 127 0014 0023     		movs	r3, #0
 128              	.LVL6:
 129              	@ 121 "../../../ChibiOS/os/hal/src/adc.c" 1
 130 0016 83F31188 		msr     BASEPRI, r3
 131              	@ 0 "" 2
 132              	.LVL7:
 133              		.thumb
 134              	.LBE12:
 135              		.loc 1 122 0
 136 001a 10BD     		pop	{r4, pc}
 137              		.cfi_endproc
 138              	.LFE120:
 139              		.size	adcStart, .-adcStart
 140 001c AFF30080 		.section	.text.adcStop,"ax",%progbits
 141              		.align	2
 142              		.p2align 4,,15
 143              		.global	adcStop
 144              		.thumb
 145              		.thumb_func
 146              		.type	adcStop, %function
 147              	adcStop:
 148              	.LFB121:
 149              		.loc 1 131 0
 150              		.cfi_startproc
 151              		@ args = 0, pretend = 0, frame = 0
 152              		@ frame_needed = 0, uses_anonymous_args = 0
 153              	.LVL8:
 154 0000 10B5     		push	{r4, lr}
 155              	.LCFI1:
 156              		.cfi_def_cfa_offset 8
 157              	.LBB13:
 158              		.loc 1 135 0
 159 0002 2023     		movs	r3, #32
 160              	.LVL9:
 161              	.LBE13:
 162              		.loc 1 131 0
 163 0004 0446     		mov	r4, r0
ARM GAS  C:\Users\DNIEL~1\AppData\Local\Temp\ccj8eOdI.s 			page 4


 164              		.cfi_offset 14, -4
 165              		.cfi_offset 4, -8
 166              	.LBB14:
 167              		.loc 1 135 0
 168              	@ 135 "../../../ChibiOS/os/hal/src/adc.c" 1
 169 0006 83F31188 		msr     BASEPRI, r3
 170              	@ 0 "" 2
 171              	.LVL10:
 172              		.thumb
 173              	.LBE14:
 174              		.loc 1 138 0
 175 000a FFF7FEFF 		bl	adc_lld_stop
 176              	.LVL11:
 177              		.loc 1 139 0
 178 000e 0123     		movs	r3, #1
 179 0010 2370     		strb	r3, [r4, #0]
 180              	.LBB15:
 181              		.loc 1 140 0
 182 0012 0023     		movs	r3, #0
 183              	.LVL12:
 184              	@ 140 "../../../ChibiOS/os/hal/src/adc.c" 1
 185 0014 83F31188 		msr     BASEPRI, r3
 186              	@ 0 "" 2
 187              	.LVL13:
 188              		.thumb
 189              	.LBE15:
 190              		.loc 1 141 0
 191 0018 10BD     		pop	{r4, pc}
 192              		.cfi_endproc
 193              	.LFE121:
 194              		.size	adcStop, .-adcStop
 195 001a 00BFAFF3 		.section	.text.adcStartConversion,"ax",%progbits
 195      0080
 196              		.align	2
 197              		.p2align 4,,15
 198              		.global	adcStartConversion
 199              		.thumb
 200              		.thumb_func
 201              		.type	adcStartConversion, %function
 202              	adcStartConversion:
 203              	.LFB122:
 204              		.loc 1 162 0
 205              		.cfi_startproc
 206              		@ args = 0, pretend = 0, frame = 0
 207              		@ frame_needed = 0, uses_anonymous_args = 0
 208              	.LVL14:
 209 0000 38B5     		push	{r3, r4, r5, lr}
 210              	.LCFI2:
 211              		.cfi_def_cfa_offset 16
 212              		.loc 1 162 0
 213 0002 1D46     		mov	r5, r3
 214              		.cfi_offset 14, -4
 215              		.cfi_offset 5, -8
 216              		.cfi_offset 4, -12
 217              		.cfi_offset 3, -16
 218              	.LBB16:
 219              		.loc 1 164 0
ARM GAS  C:\Users\DNIEL~1\AppData\Local\Temp\ccj8eOdI.s 			page 5


 220 0004 2023     		movs	r3, #32
 221              	.LVL15:
 222              	@ 164 "../../../ChibiOS/os/hal/src/adc.c" 1
 223 0006 83F31188 		msr     BASEPRI, r3
 224              	@ 0 "" 2
 225              	.LVL16:
 226              		.thumb
 227              	.LBE16:
 228              	.LBB17:
 229              	.LBB18:
 230              		.loc 1 204 0
 231 000a 0323     		movs	r3, #3
 232              	.LVL17:
 233 000c 0370     		strb	r3, [r0, #0]
 234              		.loc 1 201 0
 235 000e 8260     		str	r2, [r0, #8]
 236              		.loc 1 202 0
 237 0010 C560     		str	r5, [r0, #12]
 238              		.loc 1 203 0
 239 0012 0161     		str	r1, [r0, #16]
 240              		.loc 1 205 0
 241 0014 FFF7FEFF 		bl	adc_lld_start_conversion
 242              	.LVL18:
 243              	.LBE18:
 244              	.LBE17:
 245              	.LBB19:
 246              		.loc 1 166 0
 247 0018 0023     		movs	r3, #0
 248              	.LVL19:
 249              	@ 166 "../../../ChibiOS/os/hal/src/adc.c" 1
 250 001a 83F31188 		msr     BASEPRI, r3
 251              	@ 0 "" 2
 252              	.LVL20:
 253              		.thumb
 254              	.LBE19:
 255              		.loc 1 167 0
 256 001e 38BD     		pop	{r3, r4, r5, pc}
 257              		.cfi_endproc
 258              	.LFE122:
 259              		.size	adcStartConversion, .-adcStartConversion
 260              		.section	.text.adcStartConversionI,"ax",%progbits
 261              		.align	2
 262              		.p2align 4,,15
 263              		.global	adcStartConversionI
 264              		.thumb
 265              		.thumb_func
 266              		.type	adcStartConversionI, %function
 267              	adcStartConversionI:
 268              	.LFB123:
 269              		.loc 1 190 0
 270              		.cfi_startproc
 271              		@ args = 0, pretend = 0, frame = 0
 272              		@ frame_needed = 0, uses_anonymous_args = 0
 273              		@ link register save eliminated.
 274              	.LVL21:
 275 0000 10B4     		push	{r4}
 276              	.LCFI3:
ARM GAS  C:\Users\DNIEL~1\AppData\Local\Temp\ccj8eOdI.s 			page 6


 277              		.cfi_def_cfa_offset 4
 278              		.loc 1 202 0
 279 0002 C360     		str	r3, [r0, #12]
 280              		.loc 1 204 0
 281 0004 0323     		movs	r3, #3
 282              	.LVL22:
 283              		.loc 1 201 0
 284 0006 8260     		str	r2, [r0, #8]
 285              		.loc 1 203 0
 286 0008 0161     		str	r1, [r0, #16]
 287              		.loc 1 204 0
 288 000a 0370     		strb	r3, [r0, #0]
 289              		.loc 1 206 0
 290 000c 10BC     		pop	{r4}
 291              		.loc 1 205 0
 292              		.cfi_offset 4, -4
 293 000e FFF7FEBF 		b	adc_lld_start_conversion
 294              		.cfi_endproc
 295              	.LFE123:
 296              		.size	adcStartConversionI, .-adcStartConversionI
 297 0012 00BFAFF3 		.section	.text.adcStopConversion,"ax",%progbits
 297      0080AFF3 
 297      0080AFF3 
 297      0080
 298              		.align	2
 299              		.p2align 4,,15
 300              		.global	adcStopConversion
 301              		.thumb
 302              		.thumb_func
 303              		.type	adcStopConversion, %function
 304              	adcStopConversion:
 305              	.LFB124:
 306              		.loc 1 218 0
 307              		.cfi_startproc
 308              		@ args = 0, pretend = 0, frame = 0
 309              		@ frame_needed = 0, uses_anonymous_args = 0
 310              	.LVL23:
 311 0000 10B5     		push	{r4, lr}
 312              	.LCFI4:
 313              		.cfi_def_cfa_offset 8
 314              	.LBB20:
 315              		.loc 1 222 0
 316 0002 2023     		movs	r3, #32
 317              	.LVL24:
 318              	.LBE20:
 319              		.loc 1 218 0
 320 0004 0446     		mov	r4, r0
 321              		.cfi_offset 14, -4
 322              		.cfi_offset 4, -8
 323              	.LBB21:
 324              		.loc 1 222 0
 325              	@ 222 "../../../ChibiOS/os/hal/src/adc.c" 1
 326 0006 83F31188 		msr     BASEPRI, r3
 327              	@ 0 "" 2
 328              	.LVL25:
 329              		.thumb
 330              	.LBE21:
ARM GAS  C:\Users\DNIEL~1\AppData\Local\Temp\ccj8eOdI.s 			page 7


 331              		.loc 1 226 0
 332 000a 0378     		ldrb	r3, [r0, #0]	@ zero_extendqisi2
 333              	.LVL26:
 334 000c 022B     		cmp	r3, #2
 335 000e 0CD0     		beq	.L8
 336              		.loc 1 227 0
 337 0010 FFF7FEFF 		bl	adc_lld_stop_conversion
 338              	.LVL27:
 339              		.loc 1 230 0
 340 0014 6069     		ldr	r0, [r4, #20]
 341              		.loc 1 228 0
 342 0016 0023     		movs	r3, #0
 343              		.loc 1 229 0
 344 0018 0222     		movs	r2, #2
 345              		.loc 1 228 0
 346 001a 2361     		str	r3, [r4, #16]
 347              		.loc 1 229 0
 348 001c 2270     		strb	r2, [r4, #0]
 349              		.loc 1 230 0
 350 001e 20B1     		cbz	r0, .L8
 351              	.LVL28:
 352              	.LBB22:
 353              		.loc 1 230 0 is_stmt 0 discriminator 1
 354 0020 6361     		str	r3, [r4, #20]
 355 0022 6FF00101 		mvn	r1, #1
 356 0026 FFF7FEFF 		bl	chSchWakeupS
 357              	.LVL29:
 358              	.L8:
 359              	.LBE22:
 360              	.LBB23:
 361              		.loc 1 232 0 is_stmt 1
 362 002a 0023     		movs	r3, #0
 363              	.LVL30:
 364              	@ 232 "../../../ChibiOS/os/hal/src/adc.c" 1
 365 002c 83F31188 		msr     BASEPRI, r3
 366              	@ 0 "" 2
 367              	.LVL31:
 368              		.thumb
 369              	.LBE23:
 370              		.loc 1 233 0
 371 0030 10BD     		pop	{r4, pc}
 372              		.cfi_endproc
 373              	.LFE124:
 374              		.size	adcStopConversion, .-adcStopConversion
 375 0032 00BFAFF3 		.section	.text.adcStopConversionI,"ax",%progbits
 375      0080AFF3 
 375      0080AFF3 
 375      0080
 376              		.align	2
 377              		.p2align 4,,15
 378              		.global	adcStopConversionI
 379              		.thumb
 380              		.thumb_func
 381              		.type	adcStopConversionI, %function
 382              	adcStopConversionI:
 383              	.LFB125:
 384              		.loc 1 245 0
ARM GAS  C:\Users\DNIEL~1\AppData\Local\Temp\ccj8eOdI.s 			page 8


 385              		.cfi_startproc
 386              		@ args = 0, pretend = 0, frame = 0
 387              		@ frame_needed = 0, uses_anonymous_args = 0
 388              	.LVL32:
 389              		.loc 1 254 0
 390 0000 0378     		ldrb	r3, [r0, #0]	@ zero_extendqisi2
 391 0002 022B     		cmp	r3, #2
 392              		.loc 1 245 0
 393 0004 10B5     		push	{r4, lr}
 394              	.LCFI5:
 395              		.cfi_def_cfa_offset 8
 396              		.loc 1 245 0
 397 0006 0446     		mov	r4, r0
 398              		.cfi_offset 14, -4
 399              		.cfi_offset 4, -8
 400              		.loc 1 254 0
 401 0008 10D0     		beq	.L10
 402              		.loc 1 255 0
 403 000a FFF7FEFF 		bl	adc_lld_stop_conversion
 404              	.LVL33:
 405              		.loc 1 258 0
 406 000e 6369     		ldr	r3, [r4, #20]
 407              		.loc 1 256 0
 408 0010 0022     		movs	r2, #0
 409              		.loc 1 257 0
 410 0012 0221     		movs	r1, #2
 411              		.loc 1 256 0
 412 0014 2261     		str	r2, [r4, #16]
 413              		.loc 1 257 0
 414 0016 2170     		strb	r1, [r4, #0]
 415              		.loc 1 258 0
 416 0018 43B1     		cbz	r3, .L10
 417              	.LVL34:
 418              	.LBB24:
 419              		.loc 1 258 0 is_stmt 0 discriminator 1
 420 001a 6261     		str	r2, [r4, #20]
 421 001c 1846     		mov	r0, r3
 422 001e 6FF00102 		mvn	r2, #1
 423 0022 5A62     		str	r2, [r3, #36]
 424              	.LBE24:
 425              		.loc 1 260 0 is_stmt 1 discriminator 1
 426 0024 BDE81040 		pop	{r4, lr}
 427              	.LBB25:
 428              		.loc 1 258 0 discriminator 1
 429 0028 FFF7FEBF 		b	chSchReadyI
 430              	.LVL35:
 431              	.L10:
 432 002c 10BD     		pop	{r4, pc}
 433              	.LBE25:
 434              		.cfi_endproc
 435              	.LFE125:
 436              		.size	adcStopConversionI, .-adcStopConversionI
 437 002e 00BF     		.section	.text.adcConvert,"ax",%progbits
 438              		.align	2
 439              		.p2align 4,,15
 440              		.global	adcConvert
 441              		.thumb
ARM GAS  C:\Users\DNIEL~1\AppData\Local\Temp\ccj8eOdI.s 			page 9


 442              		.thumb_func
 443              		.type	adcConvert, %function
 444              	adcConvert:
 445              	.LFB126:
 446              		.loc 1 289 0
 447              		.cfi_startproc
 448              		@ args = 0, pretend = 0, frame = 0
 449              		@ frame_needed = 0, uses_anonymous_args = 0
 450              	.LVL36:
 451 0000 70B5     		push	{r4, r5, r6, lr}
 452              	.LCFI6:
 453              		.cfi_def_cfa_offset 16
 454              		.loc 1 289 0
 455 0002 1D46     		mov	r5, r3
 456              		.cfi_offset 14, -4
 457              		.cfi_offset 6, -8
 458              		.cfi_offset 5, -12
 459              		.cfi_offset 4, -16
 460 0004 0446     		mov	r4, r0
 461              	.LBB26:
 462              		.loc 1 292 0
 463 0006 2023     		movs	r3, #32
 464              	.LVL37:
 465              	@ 292 "../../../ChibiOS/os/hal/src/adc.c" 1
 466 0008 83F31188 		msr     BASEPRI, r3
 467              	@ 0 "" 2
 468              	.LVL38:
 469              		.thumb
 470              	.LBE26:
 471              		.loc 1 295 0
 472 000c 094E     		ldr	r6, .L13
 473              	.LBB27:
 474              	.LBB28:
 475              		.loc 1 203 0
 476 000e 0161     		str	r1, [r0, #16]
 477              		.loc 1 204 0
 478 0010 0321     		movs	r1, #3
 479              	.LVL39:
 480              		.loc 1 201 0
 481 0012 8260     		str	r2, [r0, #8]
 482              		.loc 1 204 0
 483 0014 0170     		strb	r1, [r0, #0]
 484              		.loc 1 202 0
 485 0016 C560     		str	r5, [r0, #12]
 486              		.loc 1 205 0
 487 0018 FFF7FEFF 		bl	adc_lld_start_conversion
 488              	.LVL40:
 489              	.LBE28:
 490              	.LBE27:
 491              		.loc 1 295 0
 492 001c B369     		ldr	r3, [r6, #24]
 493              		.loc 1 296 0
 494 001e 0220     		movs	r0, #2
 495              		.loc 1 295 0
 496 0020 6361     		str	r3, [r4, #20]
 497              		.loc 1 296 0
 498 0022 FFF7FEFF 		bl	chSchGoSleepS
ARM GAS  C:\Users\DNIEL~1\AppData\Local\Temp\ccj8eOdI.s 			page 10


 499              		.loc 1 297 0
 500 0026 B269     		ldr	r2, [r6, #24]
 501              	.LBB29:
 502              		.loc 1 298 0
 503 0028 0023     		movs	r3, #0
 504              	.LVL41:
 505              	.LBE29:
 506              		.loc 1 297 0
 507 002a 506A     		ldr	r0, [r2, #36]
 508              	.LVL42:
 509              	.LBB30:
 510              		.loc 1 298 0
 511              	@ 298 "../../../ChibiOS/os/hal/src/adc.c" 1
 512 002c 83F31188 		msr     BASEPRI, r3
 513              	@ 0 "" 2
 514              	.LVL43:
 515              		.thumb
 516              	.LBE30:
 517              		.loc 1 300 0
 518 0030 70BD     		pop	{r4, r5, r6, pc}
 519              	.L14:
 520 0032 00BF     		.align	2
 521              	.L13:
 522 0034 00000000 		.word	rlist
 523              		.cfi_endproc
 524              	.LFE126:
 525              		.size	adcConvert, .-adcConvert
 526              		.section	.text.adcAcquireBus,"ax",%progbits
 527              		.align	2
 528              		.p2align 4,,15
 529              		.global	adcAcquireBus
 530              		.thumb
 531              		.thumb_func
 532              		.type	adcAcquireBus, %function
 533              	adcAcquireBus:
 534              	.LFB127:
 535              		.loc 1 315 0
 536              		.cfi_startproc
 537              		@ args = 0, pretend = 0, frame = 0
 538              		@ frame_needed = 0, uses_anonymous_args = 0
 539              		@ link register save eliminated.
 540              	.LVL44:
 541              		.loc 1 320 0
 542 0000 1830     		adds	r0, r0, #24
 543              	.LVL45:
 544              		.loc 1 324 0
 545              		.loc 1 320 0
 546 0002 FFF7FEBF 		b	chMtxLock
 547              		.cfi_endproc
 548              	.LFE127:
 549              		.size	adcAcquireBus, .-adcAcquireBus
 550 0006 00BFAFF3 		.section	.text.adcReleaseBus,"ax",%progbits
 550      0080AFF3 
 550      0080
 551              		.align	2
 552              		.p2align 4,,15
 553              		.global	adcReleaseBus
ARM GAS  C:\Users\DNIEL~1\AppData\Local\Temp\ccj8eOdI.s 			page 11


 554              		.thumb
 555              		.thumb_func
 556              		.type	adcReleaseBus, %function
 557              	adcReleaseBus:
 558              	.LFB128:
 559              		.loc 1 335 0
 560              		.cfi_startproc
 561              		@ args = 0, pretend = 0, frame = 0
 562              		@ frame_needed = 0, uses_anonymous_args = 0
 563              		@ link register save eliminated.
 564              	.LVL46:
 565              		.loc 1 345 0
 566              		.loc 1 341 0
 567 0000 FFF7FEBF 		b	chMtxUnlock
 568              		.cfi_endproc
 569              	.LFE128:
 570              		.size	adcReleaseBus, .-adcReleaseBus
 571 0004 AFF30080 		.text
 571      AFF30080 
 571      AFF30080 
 572              	.Letext0:
 573              		.section	.debug_loc,"",%progbits
 574              	.Ldebug_loc0:
 575              	.LLST0:
 576 0000 00000000 		.4byte	.LVL0
 577 0004 12000000 		.4byte	.LVL1
 578 0008 0100     		.2byte	0x1
 579 000a 50       		.byte	0x50
 580 000b 12000000 		.4byte	.LVL1
 581 000f 16000000 		.4byte	.LFE119
 582 0013 0300     		.2byte	0x3
 583 0015 70       		.byte	0x70
 584 0016 68       		.sleb128 -24
 585 0017 9F       		.byte	0x9f
 586 0018 00000000 		.4byte	0x0
 587 001c 00000000 		.4byte	0x0
 588              	.LLST1:
 589 0020 00000000 		.4byte	.LFB120
 590 0024 02000000 		.4byte	.LCFI0
 591 0028 0200     		.2byte	0x2
 592 002a 7D       		.byte	0x7d
 593 002b 00       		.sleb128 0
 594 002c 02000000 		.4byte	.LCFI0
 595 0030 1C000000 		.4byte	.LFE120
 596 0034 0200     		.2byte	0x2
 597 0036 7D       		.byte	0x7d
 598 0037 08       		.sleb128 8
 599 0038 00000000 		.4byte	0x0
 600 003c 00000000 		.4byte	0x0
 601              	.LLST2:
 602 0040 00000000 		.4byte	.LVL2
 603 0044 0F000000 		.4byte	.LVL5-1
 604 0048 0100     		.2byte	0x1
 605 004a 50       		.byte	0x50
 606 004b 0F000000 		.4byte	.LVL5-1
 607 004f 1C000000 		.4byte	.LFE120
 608 0053 0100     		.2byte	0x1
ARM GAS  C:\Users\DNIEL~1\AppData\Local\Temp\ccj8eOdI.s 			page 12


 609 0055 54       		.byte	0x54
 610 0056 00000000 		.4byte	0x0
 611 005a 00000000 		.4byte	0x0
 612              	.LLST3:
 613 005e 00000000 		.4byte	.LVL2
 614 0062 0F000000 		.4byte	.LVL5-1
 615 0066 0100     		.2byte	0x1
 616 0068 51       		.byte	0x51
 617 0069 00000000 		.4byte	0x0
 618 006d 00000000 		.4byte	0x0
 619              	.LLST4:
 620 0071 0A000000 		.4byte	.LVL4
 621 0075 0F000000 		.4byte	.LVL5-1
 622 0079 0100     		.2byte	0x1
 623 007b 53       		.byte	0x53
 624 007c 00000000 		.4byte	0x0
 625 0080 00000000 		.4byte	0x0
 626              	.LLST5:
 627 0084 1A000000 		.4byte	.LVL7
 628 0088 1C000000 		.4byte	.LFE120
 629 008c 0100     		.2byte	0x1
 630 008e 53       		.byte	0x53
 631 008f 00000000 		.4byte	0x0
 632 0093 00000000 		.4byte	0x0
 633              	.LLST6:
 634 0097 00000000 		.4byte	.LFB121
 635 009b 02000000 		.4byte	.LCFI1
 636 009f 0200     		.2byte	0x2
 637 00a1 7D       		.byte	0x7d
 638 00a2 00       		.sleb128 0
 639 00a3 02000000 		.4byte	.LCFI1
 640 00a7 1A000000 		.4byte	.LFE121
 641 00ab 0200     		.2byte	0x2
 642 00ad 7D       		.byte	0x7d
 643 00ae 08       		.sleb128 8
 644 00af 00000000 		.4byte	0x0
 645 00b3 00000000 		.4byte	0x0
 646              	.LLST7:
 647 00b7 00000000 		.4byte	.LVL8
 648 00bb 0D000000 		.4byte	.LVL11-1
 649 00bf 0100     		.2byte	0x1
 650 00c1 50       		.byte	0x50
 651 00c2 0D000000 		.4byte	.LVL11-1
 652 00c6 1A000000 		.4byte	.LFE121
 653 00ca 0100     		.2byte	0x1
 654 00cc 54       		.byte	0x54
 655 00cd 00000000 		.4byte	0x0
 656 00d1 00000000 		.4byte	0x0
 657              	.LLST8:
 658 00d5 0A000000 		.4byte	.LVL10
 659 00d9 0D000000 		.4byte	.LVL11-1
 660 00dd 0100     		.2byte	0x1
 661 00df 53       		.byte	0x53
 662 00e0 00000000 		.4byte	0x0
 663 00e4 00000000 		.4byte	0x0
 664              	.LLST9:
 665 00e8 18000000 		.4byte	.LVL13
ARM GAS  C:\Users\DNIEL~1\AppData\Local\Temp\ccj8eOdI.s 			page 13


 666 00ec 1A000000 		.4byte	.LFE121
 667 00f0 0100     		.2byte	0x1
 668 00f2 53       		.byte	0x53
 669 00f3 00000000 		.4byte	0x0
 670 00f7 00000000 		.4byte	0x0
 671              	.LLST10:
 672 00fb 00000000 		.4byte	.LFB122
 673 00ff 02000000 		.4byte	.LCFI2
 674 0103 0200     		.2byte	0x2
 675 0105 7D       		.byte	0x7d
 676 0106 00       		.sleb128 0
 677 0107 02000000 		.4byte	.LCFI2
 678 010b 20000000 		.4byte	.LFE122
 679 010f 0200     		.2byte	0x2
 680 0111 7D       		.byte	0x7d
 681 0112 10       		.sleb128 16
 682 0113 00000000 		.4byte	0x0
 683 0117 00000000 		.4byte	0x0
 684              	.LLST11:
 685 011b 00000000 		.4byte	.LVL14
 686 011f 17000000 		.4byte	.LVL18-1
 687 0123 0100     		.2byte	0x1
 688 0125 50       		.byte	0x50
 689 0126 00000000 		.4byte	0x0
 690 012a 00000000 		.4byte	0x0
 691              	.LLST12:
 692 012e 00000000 		.4byte	.LVL14
 693 0132 17000000 		.4byte	.LVL18-1
 694 0136 0100     		.2byte	0x1
 695 0138 51       		.byte	0x51
 696 0139 00000000 		.4byte	0x0
 697 013d 00000000 		.4byte	0x0
 698              	.LLST13:
 699 0141 00000000 		.4byte	.LVL14
 700 0145 17000000 		.4byte	.LVL18-1
 701 0149 0100     		.2byte	0x1
 702 014b 52       		.byte	0x52
 703 014c 00000000 		.4byte	0x0
 704 0150 00000000 		.4byte	0x0
 705              	.LLST14:
 706 0154 00000000 		.4byte	.LVL14
 707 0158 06000000 		.4byte	.LVL15
 708 015c 0100     		.2byte	0x1
 709 015e 53       		.byte	0x53
 710 015f 06000000 		.4byte	.LVL15
 711 0163 20000000 		.4byte	.LFE122
 712 0167 0100     		.2byte	0x1
 713 0169 55       		.byte	0x55
 714 016a 00000000 		.4byte	0x0
 715 016e 00000000 		.4byte	0x0
 716              	.LLST15:
 717 0172 0A000000 		.4byte	.LVL16
 718 0176 0C000000 		.4byte	.LVL17
 719 017a 0100     		.2byte	0x1
 720 017c 53       		.byte	0x53
 721 017d 00000000 		.4byte	0x0
 722 0181 00000000 		.4byte	0x0
ARM GAS  C:\Users\DNIEL~1\AppData\Local\Temp\ccj8eOdI.s 			page 14


 723              	.LLST16:
 724 0185 0A000000 		.4byte	.LVL16
 725 0189 17000000 		.4byte	.LVL18-1
 726 018d 0100     		.2byte	0x1
 727 018f 52       		.byte	0x52
 728 0190 00000000 		.4byte	0x0
 729 0194 00000000 		.4byte	0x0
 730              	.LLST17:
 731 0198 0A000000 		.4byte	.LVL16
 732 019c 17000000 		.4byte	.LVL18-1
 733 01a0 0100     		.2byte	0x1
 734 01a2 51       		.byte	0x51
 735 01a3 00000000 		.4byte	0x0
 736 01a7 00000000 		.4byte	0x0
 737              	.LLST18:
 738 01ab 1E000000 		.4byte	.LVL20
 739 01af 20000000 		.4byte	.LFE122
 740 01b3 0100     		.2byte	0x1
 741 01b5 53       		.byte	0x53
 742 01b6 00000000 		.4byte	0x0
 743 01ba 00000000 		.4byte	0x0
 744              	.LLST19:
 745 01be 00000000 		.4byte	.LFB123
 746 01c2 02000000 		.4byte	.LCFI3
 747 01c6 0200     		.2byte	0x2
 748 01c8 7D       		.byte	0x7d
 749 01c9 00       		.sleb128 0
 750 01ca 02000000 		.4byte	.LCFI3
 751 01ce 12000000 		.4byte	.LFE123
 752 01d2 0200     		.2byte	0x2
 753 01d4 7D       		.byte	0x7d
 754 01d5 04       		.sleb128 4
 755 01d6 00000000 		.4byte	0x0
 756 01da 00000000 		.4byte	0x0
 757              	.LLST20:
 758 01de 00000000 		.4byte	.LVL21
 759 01e2 06000000 		.4byte	.LVL22
 760 01e6 0100     		.2byte	0x1
 761 01e8 53       		.byte	0x53
 762 01e9 06000000 		.4byte	.LVL22
 763 01ed 12000000 		.4byte	.LFE123
 764 01f1 0200     		.2byte	0x2
 765 01f3 70       		.byte	0x70
 766 01f4 0C       		.sleb128 12
 767 01f5 00000000 		.4byte	0x0
 768 01f9 00000000 		.4byte	0x0
 769              	.LLST21:
 770 01fd 00000000 		.4byte	.LFB124
 771 0201 02000000 		.4byte	.LCFI4
 772 0205 0200     		.2byte	0x2
 773 0207 7D       		.byte	0x7d
 774 0208 00       		.sleb128 0
 775 0209 02000000 		.4byte	.LCFI4
 776 020d 32000000 		.4byte	.LFE124
 777 0211 0200     		.2byte	0x2
 778 0213 7D       		.byte	0x7d
 779 0214 08       		.sleb128 8
ARM GAS  C:\Users\DNIEL~1\AppData\Local\Temp\ccj8eOdI.s 			page 15


 780 0215 00000000 		.4byte	0x0
 781 0219 00000000 		.4byte	0x0
 782              	.LLST22:
 783 021d 00000000 		.4byte	.LVL23
 784 0221 13000000 		.4byte	.LVL27-1
 785 0225 0100     		.2byte	0x1
 786 0227 50       		.byte	0x50
 787 0228 13000000 		.4byte	.LVL27-1
 788 022c 32000000 		.4byte	.LFE124
 789 0230 0100     		.2byte	0x1
 790 0232 54       		.byte	0x54
 791 0233 00000000 		.4byte	0x0
 792 0237 00000000 		.4byte	0x0
 793              	.LLST23:
 794 023b 0A000000 		.4byte	.LVL25
 795 023f 0C000000 		.4byte	.LVL26
 796 0243 0100     		.2byte	0x1
 797 0245 53       		.byte	0x53
 798 0246 00000000 		.4byte	0x0
 799 024a 00000000 		.4byte	0x0
 800              	.LLST24:
 801 024e 20000000 		.4byte	.LVL28
 802 0252 29000000 		.4byte	.LVL29-1
 803 0256 0200     		.2byte	0x2
 804 0258 74       		.byte	0x74
 805 0259 14       		.sleb128 20
 806 025a 00000000 		.4byte	0x0
 807 025e 00000000 		.4byte	0x0
 808              	.LLST25:
 809 0262 30000000 		.4byte	.LVL31
 810 0266 32000000 		.4byte	.LFE124
 811 026a 0100     		.2byte	0x1
 812 026c 53       		.byte	0x53
 813 026d 00000000 		.4byte	0x0
 814 0271 00000000 		.4byte	0x0
 815              	.LLST26:
 816 0275 00000000 		.4byte	.LFB125
 817 0279 06000000 		.4byte	.LCFI5
 818 027d 0200     		.2byte	0x2
 819 027f 7D       		.byte	0x7d
 820 0280 00       		.sleb128 0
 821 0281 06000000 		.4byte	.LCFI5
 822 0285 2E000000 		.4byte	.LFE125
 823 0289 0200     		.2byte	0x2
 824 028b 7D       		.byte	0x7d
 825 028c 08       		.sleb128 8
 826 028d 00000000 		.4byte	0x0
 827 0291 00000000 		.4byte	0x0
 828              	.LLST27:
 829 0295 00000000 		.4byte	.LVL32
 830 0299 0D000000 		.4byte	.LVL33-1
 831 029d 0100     		.2byte	0x1
 832 029f 50       		.byte	0x50
 833 02a0 0D000000 		.4byte	.LVL33-1
 834 02a4 2E000000 		.4byte	.LFE125
 835 02a8 0100     		.2byte	0x1
 836 02aa 54       		.byte	0x54
ARM GAS  C:\Users\DNIEL~1\AppData\Local\Temp\ccj8eOdI.s 			page 16


 837 02ab 00000000 		.4byte	0x0
 838 02af 00000000 		.4byte	0x0
 839              	.LLST28:
 840 02b3 1A000000 		.4byte	.LVL34
 841 02b7 2B000000 		.4byte	.LVL35-1
 842 02bb 0200     		.2byte	0x2
 843 02bd 74       		.byte	0x74
 844 02be 14       		.sleb128 20
 845 02bf 00000000 		.4byte	0x0
 846 02c3 00000000 		.4byte	0x0
 847              	.LLST29:
 848 02c7 00000000 		.4byte	.LFB126
 849 02cb 02000000 		.4byte	.LCFI6
 850 02cf 0200     		.2byte	0x2
 851 02d1 7D       		.byte	0x7d
 852 02d2 00       		.sleb128 0
 853 02d3 02000000 		.4byte	.LCFI6
 854 02d7 38000000 		.4byte	.LFE126
 855 02db 0200     		.2byte	0x2
 856 02dd 7D       		.byte	0x7d
 857 02de 10       		.sleb128 16
 858 02df 00000000 		.4byte	0x0
 859 02e3 00000000 		.4byte	0x0
 860              	.LLST30:
 861 02e7 00000000 		.4byte	.LVL36
 862 02eb 1B000000 		.4byte	.LVL40-1
 863 02ef 0100     		.2byte	0x1
 864 02f1 50       		.byte	0x50
 865 02f2 00000000 		.4byte	0x0
 866 02f6 00000000 		.4byte	0x0
 867              	.LLST31:
 868 02fa 00000000 		.4byte	.LVL36
 869 02fe 12000000 		.4byte	.LVL39
 870 0302 0100     		.2byte	0x1
 871 0304 51       		.byte	0x51
 872 0305 12000000 		.4byte	.LVL39
 873 0309 1B000000 		.4byte	.LVL40-1
 874 030d 0200     		.2byte	0x2
 875 030f 70       		.byte	0x70
 876 0310 10       		.sleb128 16
 877 0311 00000000 		.4byte	0x0
 878 0315 00000000 		.4byte	0x0
 879              	.LLST32:
 880 0319 00000000 		.4byte	.LVL36
 881 031d 1B000000 		.4byte	.LVL40-1
 882 0321 0100     		.2byte	0x1
 883 0323 52       		.byte	0x52
 884 0324 00000000 		.4byte	0x0
 885 0328 00000000 		.4byte	0x0
 886              	.LLST33:
 887 032c 00000000 		.4byte	.LVL36
 888 0330 08000000 		.4byte	.LVL37
 889 0334 0100     		.2byte	0x1
 890 0336 53       		.byte	0x53
 891 0337 08000000 		.4byte	.LVL37
 892 033b 38000000 		.4byte	.LFE126
 893 033f 0100     		.2byte	0x1
ARM GAS  C:\Users\DNIEL~1\AppData\Local\Temp\ccj8eOdI.s 			page 17


 894 0341 55       		.byte	0x55
 895 0342 00000000 		.4byte	0x0
 896 0346 00000000 		.4byte	0x0
 897              	.LLST34:
 898 034a 0C000000 		.4byte	.LVL38
 899 034e 1B000000 		.4byte	.LVL40-1
 900 0352 0100     		.2byte	0x1
 901 0354 53       		.byte	0x53
 902 0355 00000000 		.4byte	0x0
 903 0359 00000000 		.4byte	0x0
 904              	.LLST35:
 905 035d 0C000000 		.4byte	.LVL38
 906 0361 1B000000 		.4byte	.LVL40-1
 907 0365 0100     		.2byte	0x1
 908 0367 52       		.byte	0x52
 909 0368 00000000 		.4byte	0x0
 910 036c 00000000 		.4byte	0x0
 911              	.LLST36:
 912 0370 0C000000 		.4byte	.LVL38
 913 0374 12000000 		.4byte	.LVL39
 914 0378 0100     		.2byte	0x1
 915 037a 51       		.byte	0x51
 916 037b 12000000 		.4byte	.LVL39
 917 037f 1B000000 		.4byte	.LVL40-1
 918 0383 0200     		.2byte	0x2
 919 0385 70       		.byte	0x70
 920 0386 10       		.sleb128 16
 921 0387 00000000 		.4byte	0x0
 922 038b 00000000 		.4byte	0x0
 923              	.LLST37:
 924 038f 0C000000 		.4byte	.LVL38
 925 0393 1B000000 		.4byte	.LVL40-1
 926 0397 0100     		.2byte	0x1
 927 0399 50       		.byte	0x50
 928 039a 1B000000 		.4byte	.LVL40-1
 929 039e 38000000 		.4byte	.LFE126
 930 03a2 0100     		.2byte	0x1
 931 03a4 54       		.byte	0x54
 932 03a5 00000000 		.4byte	0x0
 933 03a9 00000000 		.4byte	0x0
 934              	.LLST38:
 935 03ad 30000000 		.4byte	.LVL43
 936 03b1 38000000 		.4byte	.LFE126
 937 03b5 0100     		.2byte	0x1
 938 03b7 53       		.byte	0x53
 939 03b8 00000000 		.4byte	0x0
 940 03bc 00000000 		.4byte	0x0
 941              	.LLST39:
 942 03c0 00000000 		.4byte	.LVL44
 943 03c4 02000000 		.4byte	.LVL45
 944 03c8 0100     		.2byte	0x1
 945 03ca 50       		.byte	0x50
 946 03cb 02000000 		.4byte	.LVL45
 947 03cf 06000000 		.4byte	.LFE127
 948 03d3 0300     		.2byte	0x3
 949 03d5 70       		.byte	0x70
 950 03d6 68       		.sleb128 -24
ARM GAS  C:\Users\DNIEL~1\AppData\Local\Temp\ccj8eOdI.s 			page 18


 951 03d7 9F       		.byte	0x9f
 952 03d8 00000000 		.4byte	0x0
 953 03dc 00000000 		.4byte	0x0
 954              		.file 2 "c:\\program files (x86)\\codesourcery\\sourcery g++ lite\\bin\\../lib/gcc/arm-none-eabi/4
 955              		.file 3 "c:\\program files (x86)\\codesourcery\\sourcery g++ lite\\bin\\../lib/gcc/arm-none-eabi/4
 956              		.file 4 "../../../ChibiOS/os/ports/GCC/ARMCMx/chtypes.h"
 957              		.file 5 "../../../ChibiOS/os/kernel/include/chlists.h"
 958              		.file 6 "../../../ChibiOS/os/kernel/include/chthreads.h"
 959              		.file 7 "../../../ChibiOS/os/ports/GCC/ARMCMx/chcore_v7m.h"
 960              		.file 8 "../../../ChibiOS/os/kernel/include/chschd.h"
 961              		.file 9 "../../../ChibiOS/os/kernel/include/chmtx.h"
 962              		.file 10 "../../../ChibiOS/os/hal/platforms/STM32F4xx/stm32f4xx.h"
 963              		.file 11 "../../../ChibiOS/os/hal/platforms/STM32F4xx/stm32_dma.h"
 964              		.file 12 "../../../ChibiOS/os/hal/include/adc.h"
 965              		.file 13 "../../../ChibiOS/os/hal/platforms/STM32F4xx/adc_lld.h"
 966              		.file 14 "../../../ChibiOS/os/ports/common/ARMCMx/CMSIS/include/core_cm4.h"
 967              		.section	.debug_info
 968 0000 3D0D0000 		.4byte	0xd3d
 969 0004 0200     		.2byte	0x2
 970 0006 00000000 		.4byte	.Ldebug_abbrev0
 971 000a 04       		.byte	0x4
 972 000b 01       		.uleb128 0x1
 973 000c 24020000 		.4byte	.LASF137
 974 0010 01       		.byte	0x1
 975 0011 66010000 		.4byte	.LASF138
 976 0015 50030000 		.4byte	.LASF139
 977 0019 00000000 		.4byte	0x0
 978 001d 00000000 		.4byte	0x0
 979 0021 78000000 		.4byte	.Ldebug_ranges0+0x78
 980 0025 00000000 		.4byte	.Ldebug_line0
 981 0029 02       		.uleb128 0x2
 982 002a 04       		.byte	0x4
 983 002b 05       		.byte	0x5
 984 002c 696E7400 		.ascii	"int\000"
 985 0030 03       		.uleb128 0x3
 986 0031 05000000 		.4byte	.LASF2
 987 0035 02       		.byte	0x2
 988 0036 D3       		.byte	0xd3
 989 0037 3B000000 		.4byte	0x3b
 990 003b 04       		.uleb128 0x4
 991 003c 04       		.byte	0x4
 992 003d 07       		.byte	0x7
 993 003e B5010000 		.4byte	.LASF0
 994 0042 04       		.uleb128 0x4
 995 0043 01       		.byte	0x1
 996 0044 06       		.byte	0x6
 997 0045 83000000 		.4byte	.LASF1
 998 0049 03       		.uleb128 0x3
 999 004a BE040000 		.4byte	.LASF3
 1000 004e 03       		.byte	0x3
 1001 004f 2A       		.byte	0x2a
 1002 0050 54000000 		.4byte	0x54
 1003 0054 04       		.uleb128 0x4
 1004 0055 01       		.byte	0x1
 1005 0056 08       		.byte	0x8
 1006 0057 42030000 		.4byte	.LASF4
 1007 005b 04       		.uleb128 0x4
ARM GAS  C:\Users\DNIEL~1\AppData\Local\Temp\ccj8eOdI.s 			page 19


 1008 005c 02       		.byte	0x2
 1009 005d 05       		.byte	0x5
 1010 005e 8D030000 		.4byte	.LASF5
 1011 0062 03       		.uleb128 0x3
 1012 0063 06010000 		.4byte	.LASF6
 1013 0067 03       		.byte	0x3
 1014 0068 36       		.byte	0x36
 1015 0069 6D000000 		.4byte	0x6d
 1016 006d 04       		.uleb128 0x4
 1017 006e 02       		.byte	0x2
 1018 006f 07       		.byte	0x7
 1019 0070 F1010000 		.4byte	.LASF7
 1020 0074 03       		.uleb128 0x3
 1021 0075 3A030000 		.4byte	.LASF8
 1022 0079 03       		.byte	0x3
 1023 007a 4F       		.byte	0x4f
 1024 007b 7F000000 		.4byte	0x7f
 1025 007f 04       		.uleb128 0x4
 1026 0080 04       		.byte	0x4
 1027 0081 05       		.byte	0x5
 1028 0082 C7000000 		.4byte	.LASF9
 1029 0086 03       		.uleb128 0x3
 1030 0087 EC030000 		.4byte	.LASF10
 1031 008b 03       		.byte	0x3
 1032 008c 50       		.byte	0x50
 1033 008d 91000000 		.4byte	0x91
 1034 0091 04       		.uleb128 0x4
 1035 0092 04       		.byte	0x4
 1036 0093 07       		.byte	0x7
 1037 0094 07040000 		.4byte	.LASF11
 1038 0098 04       		.uleb128 0x4
 1039 0099 08       		.byte	0x8
 1040 009a 05       		.byte	0x5
 1041 009b 75000000 		.4byte	.LASF12
 1042 009f 04       		.uleb128 0x4
 1043 00a0 08       		.byte	0x8
 1044 00a1 07       		.byte	0x7
 1045 00a2 35000000 		.4byte	.LASF13
 1046 00a6 03       		.uleb128 0x3
 1047 00a7 97000000 		.4byte	.LASF14
 1048 00ab 04       		.byte	0x4
 1049 00ac 2B       		.byte	0x2b
 1050 00ad B1000000 		.4byte	0xb1
 1051 00b1 04       		.uleb128 0x4
 1052 00b2 01       		.byte	0x1
 1053 00b3 02       		.byte	0x2
 1054 00b4 34030000 		.4byte	.LASF15
 1055 00b8 03       		.uleb128 0x3
 1056 00b9 30020000 		.4byte	.LASF16
 1057 00bd 04       		.byte	0x4
 1058 00be 2C       		.byte	0x2c
 1059 00bf 49000000 		.4byte	0x49
 1060 00c3 03       		.uleb128 0x3
 1061 00c4 F6000000 		.4byte	.LASF17
 1062 00c8 04       		.byte	0x4
 1063 00c9 2D       		.byte	0x2d
 1064 00ca 49000000 		.4byte	0x49
ARM GAS  C:\Users\DNIEL~1\AppData\Local\Temp\ccj8eOdI.s 			page 20


 1065 00ce 03       		.uleb128 0x3
 1066 00cf 04030000 		.4byte	.LASF18
 1067 00d3 04       		.byte	0x4
 1068 00d4 2E       		.byte	0x2e
 1069 00d5 49000000 		.4byte	0x49
 1070 00d9 03       		.uleb128 0x3
 1071 00da FD030000 		.4byte	.LASF19
 1072 00de 04       		.byte	0x4
 1073 00df 2F       		.byte	0x2f
 1074 00e0 49000000 		.4byte	0x49
 1075 00e4 03       		.uleb128 0x3
 1076 00e5 26030000 		.4byte	.LASF20
 1077 00e9 04       		.byte	0x4
 1078 00ea 30       		.byte	0x30
 1079 00eb 86000000 		.4byte	0x86
 1080 00ef 03       		.uleb128 0x3
 1081 00f0 14020000 		.4byte	.LASF21
 1082 00f4 04       		.byte	0x4
 1083 00f5 31       		.byte	0x31
 1084 00f6 74000000 		.4byte	0x74
 1085 00fa 03       		.uleb128 0x3
 1086 00fb 51020000 		.4byte	.LASF22
 1087 00ff 04       		.byte	0x4
 1088 0100 33       		.byte	0x33
 1089 0101 86000000 		.4byte	0x86
 1090 0105 03       		.uleb128 0x3
 1091 0106 34040000 		.4byte	.LASF23
 1092 010a 04       		.byte	0x4
 1093 010b 35       		.byte	0x35
 1094 010c 86000000 		.4byte	0x86
 1095 0110 03       		.uleb128 0x3
 1096 0111 D5030000 		.4byte	.LASF24
 1097 0115 05       		.byte	0x5
 1098 0116 2A       		.byte	0x2a
 1099 0117 1B010000 		.4byte	0x11b
 1100 011b 05       		.uleb128 0x5
 1101 011c D5030000 		.4byte	.LASF24
 1102 0120 48       		.byte	0x48
 1103 0121 06       		.byte	0x6
 1104 0122 5E       		.byte	0x5e
 1105 0123 40020000 		.4byte	0x240
 1106 0127 06       		.uleb128 0x6
 1107 0128 C0030000 		.4byte	.LASF25
 1108 012c 06       		.byte	0x6
 1109 012d 5F       		.byte	0x5f
 1110 012e 65020000 		.4byte	0x265
 1111 0132 02       		.byte	0x2
 1112 0133 23       		.byte	0x23
 1113 0134 00       		.uleb128 0x0
 1114 0135 06       		.uleb128 0x6
 1115 0136 0C030000 		.4byte	.LASF26
 1116 013a 06       		.byte	0x6
 1117 013b 61       		.byte	0x61
 1118 013c 65020000 		.4byte	0x265
 1119 0140 02       		.byte	0x2
 1120 0141 23       		.byte	0x23
 1121 0142 04       		.uleb128 0x4
ARM GAS  C:\Users\DNIEL~1\AppData\Local\Temp\ccj8eOdI.s 			page 21


 1122 0143 06       		.uleb128 0x6
 1123 0144 69000000 		.4byte	.LASF27
 1124 0148 06       		.byte	0x6
 1125 0149 63       		.byte	0x63
 1126 014a E4000000 		.4byte	0xe4
 1127 014e 02       		.byte	0x2
 1128 014f 23       		.byte	0x23
 1129 0150 08       		.uleb128 0x8
 1130 0151 06       		.uleb128 0x6
 1131 0152 67050000 		.4byte	.LASF28
 1132 0156 06       		.byte	0x6
 1133 0157 64       		.byte	0x64
 1134 0158 33030000 		.4byte	0x333
 1135 015c 02       		.byte	0x2
 1136 015d 23       		.byte	0x23
 1137 015e 0C       		.uleb128 0xc
 1138 015f 06       		.uleb128 0x6
 1139 0160 22010000 		.4byte	.LASF29
 1140 0164 06       		.byte	0x6
 1141 0165 66       		.byte	0x66
 1142 0166 65020000 		.4byte	0x265
 1143 016a 02       		.byte	0x2
 1144 016b 23       		.byte	0x23
 1145 016c 10       		.uleb128 0x10
 1146 016d 06       		.uleb128 0x6
 1147 016e A1020000 		.4byte	.LASF30
 1148 0172 06       		.byte	0x6
 1149 0173 67       		.byte	0x67
 1150 0174 65020000 		.4byte	0x265
 1151 0178 02       		.byte	0x2
 1152 0179 23       		.byte	0x23
 1153 017a 14       		.uleb128 0x14
 1154 017b 06       		.uleb128 0x6
 1155 017c 14050000 		.4byte	.LASF31
 1156 0180 06       		.byte	0x6
 1157 0181 6E       		.byte	0x6e
 1158 0182 45040000 		.4byte	0x445
 1159 0186 02       		.byte	0x2
 1160 0187 23       		.byte	0x23
 1161 0188 18       		.uleb128 0x18
 1162 0189 06       		.uleb128 0x6
 1163 018a 97030000 		.4byte	.LASF32
 1164 018e 06       		.byte	0x6
 1165 018f 79       		.byte	0x79
 1166 0190 C3000000 		.4byte	0xc3
 1167 0194 02       		.byte	0x2
 1168 0195 23       		.byte	0x23
 1169 0196 1C       		.uleb128 0x1c
 1170 0197 06       		.uleb128 0x6
 1171 0198 C7030000 		.4byte	.LASF33
 1172 019c 06       		.byte	0x6
 1173 019d 7D       		.byte	0x7d
 1174 019e B8000000 		.4byte	0xb8
 1175 01a2 02       		.byte	0x2
 1176 01a3 23       		.byte	0x23
 1177 01a4 1D       		.uleb128 0x1d
 1178 01a5 06       		.uleb128 0x6
ARM GAS  C:\Users\DNIEL~1\AppData\Local\Temp\ccj8eOdI.s 			page 22


 1179 01a6 9B040000 		.4byte	.LASF34
 1180 01aa 06       		.byte	0x6
 1181 01ab 82       		.byte	0x82
 1182 01ac CE000000 		.4byte	0xce
 1183 01b0 02       		.byte	0x2
 1184 01b1 23       		.byte	0x23
 1185 01b2 1E       		.uleb128 0x1e
 1186 01b3 06       		.uleb128 0x6
 1187 01b4 9F030000 		.4byte	.LASF35
 1188 01b8 06       		.byte	0x6
 1189 01b9 88       		.byte	0x88
 1190 01ba D9000000 		.4byte	0xd9
 1191 01be 02       		.byte	0x2
 1192 01bf 23       		.byte	0x23
 1193 01c0 1F       		.uleb128 0x1f
 1194 01c1 06       		.uleb128 0x6
 1195 01c2 0F010000 		.4byte	.LASF36
 1196 01c6 06       		.byte	0x6
 1197 01c7 8F       		.byte	0x8f
 1198 01c8 5B030000 		.4byte	0x35b
 1199 01cc 02       		.byte	0x2
 1200 01cd 23       		.byte	0x23
 1201 01ce 20       		.uleb128 0x20
 1202 01cf 07       		.uleb128 0x7
 1203 01d0 705F7500 		.ascii	"p_u\000"
 1204 01d4 06       		.byte	0x6
 1205 01d5 B4       		.byte	0xb4
 1206 01d6 10040000 		.4byte	0x410
 1207 01da 02       		.byte	0x2
 1208 01db 23       		.byte	0x23
 1209 01dc 24       		.uleb128 0x24
 1210 01dd 06       		.uleb128 0x6
 1211 01de 6D050000 		.4byte	.LASF37
 1212 01e2 06       		.byte	0x6
 1213 01e3 B9       		.byte	0xb9
 1214 01e4 8D020000 		.4byte	0x28d
 1215 01e8 02       		.byte	0x2
 1216 01e9 23       		.byte	0x23
 1217 01ea 28       		.uleb128 0x28
 1218 01eb 06       		.uleb128 0x6
 1219 01ec D0010000 		.4byte	.LASF38
 1220 01f0 06       		.byte	0x6
 1221 01f1 BF       		.byte	0xbf
 1222 01f2 6B020000 		.4byte	0x26b
 1223 01f6 02       		.byte	0x2
 1224 01f7 23       		.byte	0x23
 1225 01f8 2C       		.uleb128 0x2c
 1226 01f9 06       		.uleb128 0x6
 1227 01fa 2E050000 		.4byte	.LASF39
 1228 01fe 06       		.byte	0x6
 1229 01ff C3       		.byte	0xc3
 1230 0200 EF000000 		.4byte	0xef
 1231 0204 02       		.byte	0x2
 1232 0205 23       		.byte	0x23
 1233 0206 34       		.uleb128 0x34
 1234 0207 06       		.uleb128 0x6
 1235 0208 DC030000 		.4byte	.LASF40
ARM GAS  C:\Users\DNIEL~1\AppData\Local\Temp\ccj8eOdI.s 			page 23


 1236 020c 06       		.byte	0x6
 1237 020d C9       		.byte	0xc9
 1238 020e FA000000 		.4byte	0xfa
 1239 0212 02       		.byte	0x2
 1240 0213 23       		.byte	0x23
 1241 0214 38       		.uleb128 0x38
 1242 0215 06       		.uleb128 0x6
 1243 0216 83030000 		.4byte	.LASF41
 1244 021a 06       		.byte	0x6
 1245 021b D0       		.byte	0xd0
 1246 021c 57040000 		.4byte	0x457
 1247 0220 02       		.byte	0x2
 1248 0221 23       		.byte	0x23
 1249 0222 3C       		.uleb128 0x3c
 1250 0223 06       		.uleb128 0x6
 1251 0224 3E040000 		.4byte	.LASF42
 1252 0228 06       		.byte	0x6
 1253 0229 D4       		.byte	0xd4
 1254 022a E4000000 		.4byte	0xe4
 1255 022e 02       		.byte	0x2
 1256 022f 23       		.byte	0x23
 1257 0230 40       		.uleb128 0x40
 1258 0231 06       		.uleb128 0x6
 1259 0232 8F000000 		.4byte	.LASF43
 1260 0236 06       		.byte	0x6
 1261 0237 DA       		.byte	0xda
 1262 0238 A3020000 		.4byte	0x2a3
 1263 023c 02       		.byte	0x2
 1264 023d 23       		.byte	0x23
 1265 023e 44       		.uleb128 0x44
 1266 023f 00       		.byte	0x0
 1267 0240 08       		.uleb128 0x8
 1268 0241 08       		.byte	0x8
 1269 0242 05       		.byte	0x5
 1270 0243 61       		.byte	0x61
 1271 0244 65020000 		.4byte	0x265
 1272 0248 06       		.uleb128 0x6
 1273 0249 C0030000 		.4byte	.LASF25
 1274 024d 05       		.byte	0x5
 1275 024e 62       		.byte	0x62
 1276 024f 65020000 		.4byte	0x265
 1277 0253 02       		.byte	0x2
 1278 0254 23       		.byte	0x23
 1279 0255 00       		.uleb128 0x0
 1280 0256 06       		.uleb128 0x6
 1281 0257 0C030000 		.4byte	.LASF26
 1282 025b 05       		.byte	0x5
 1283 025c 64       		.byte	0x64
 1284 025d 65020000 		.4byte	0x265
 1285 0261 02       		.byte	0x2
 1286 0262 23       		.byte	0x23
 1287 0263 04       		.uleb128 0x4
 1288 0264 00       		.byte	0x0
 1289 0265 09       		.uleb128 0x9
 1290 0266 04       		.byte	0x4
 1291 0267 10010000 		.4byte	0x110
 1292 026b 03       		.uleb128 0x3
ARM GAS  C:\Users\DNIEL~1\AppData\Local\Temp\ccj8eOdI.s 			page 24


 1293 026c AF020000 		.4byte	.LASF44
 1294 0270 05       		.byte	0x5
 1295 0271 66       		.byte	0x66
 1296 0272 40020000 		.4byte	0x240
 1297 0276 08       		.uleb128 0x8
 1298 0277 04       		.byte	0x4
 1299 0278 05       		.byte	0x5
 1300 0279 6B       		.byte	0x6b
 1301 027a 8D020000 		.4byte	0x28d
 1302 027e 06       		.uleb128 0x6
 1303 027f C0030000 		.4byte	.LASF25
 1304 0283 05       		.byte	0x5
 1305 0284 6D       		.byte	0x6d
 1306 0285 65020000 		.4byte	0x265
 1307 0289 02       		.byte	0x2
 1308 028a 23       		.byte	0x23
 1309 028b 00       		.uleb128 0x0
 1310 028c 00       		.byte	0x0
 1311 028d 03       		.uleb128 0x3
 1312 028e 45020000 		.4byte	.LASF45
 1313 0292 05       		.byte	0x5
 1314 0293 70       		.byte	0x70
 1315 0294 76020000 		.4byte	0x276
 1316 0298 03       		.uleb128 0x3
 1317 0299 5D010000 		.4byte	.LASF46
 1318 029d 07       		.byte	0x7
 1319 029e E5       		.byte	0xe5
 1320 029f A3020000 		.4byte	0x2a3
 1321 02a3 0A       		.uleb128 0xa
 1322 02a4 04       		.byte	0x4
 1323 02a5 0B       		.uleb128 0xb
 1324 02a6 7C040000 		.4byte	.LASF47
 1325 02aa 24       		.byte	0x24
 1326 02ab 07       		.byte	0x7
 1327 02ac 0C01     		.2byte	0x10c
 1328 02ae 33030000 		.4byte	0x333
 1329 02b2 0C       		.uleb128 0xc
 1330 02b3 723400   		.ascii	"r4\000"
 1331 02b6 07       		.byte	0x7
 1332 02b7 1F01     		.2byte	0x11f
 1333 02b9 98020000 		.4byte	0x298
 1334 02bd 02       		.byte	0x2
 1335 02be 23       		.byte	0x23
 1336 02bf 00       		.uleb128 0x0
 1337 02c0 0C       		.uleb128 0xc
 1338 02c1 723500   		.ascii	"r5\000"
 1339 02c4 07       		.byte	0x7
 1340 02c5 2001     		.2byte	0x120
 1341 02c7 98020000 		.4byte	0x298
 1342 02cb 02       		.byte	0x2
 1343 02cc 23       		.byte	0x23
 1344 02cd 04       		.uleb128 0x4
 1345 02ce 0C       		.uleb128 0xc
 1346 02cf 723600   		.ascii	"r6\000"
 1347 02d2 07       		.byte	0x7
 1348 02d3 2101     		.2byte	0x121
 1349 02d5 98020000 		.4byte	0x298
ARM GAS  C:\Users\DNIEL~1\AppData\Local\Temp\ccj8eOdI.s 			page 25


 1350 02d9 02       		.byte	0x2
 1351 02da 23       		.byte	0x23
 1352 02db 08       		.uleb128 0x8
 1353 02dc 0C       		.uleb128 0xc
 1354 02dd 723700   		.ascii	"r7\000"
 1355 02e0 07       		.byte	0x7
 1356 02e1 2201     		.2byte	0x122
 1357 02e3 98020000 		.4byte	0x298
 1358 02e7 02       		.byte	0x2
 1359 02e8 23       		.byte	0x23
 1360 02e9 0C       		.uleb128 0xc
 1361 02ea 0C       		.uleb128 0xc
 1362 02eb 723800   		.ascii	"r8\000"
 1363 02ee 07       		.byte	0x7
 1364 02ef 2301     		.2byte	0x123
 1365 02f1 98020000 		.4byte	0x298
 1366 02f5 02       		.byte	0x2
 1367 02f6 23       		.byte	0x23
 1368 02f7 10       		.uleb128 0x10
 1369 02f8 0C       		.uleb128 0xc
 1370 02f9 723900   		.ascii	"r9\000"
 1371 02fc 07       		.byte	0x7
 1372 02fd 2401     		.2byte	0x124
 1373 02ff 98020000 		.4byte	0x298
 1374 0303 02       		.byte	0x2
 1375 0304 23       		.byte	0x23
 1376 0305 14       		.uleb128 0x14
 1377 0306 0C       		.uleb128 0xc
 1378 0307 72313000 		.ascii	"r10\000"
 1379 030b 07       		.byte	0x7
 1380 030c 2501     		.2byte	0x125
 1381 030e 98020000 		.4byte	0x298
 1382 0312 02       		.byte	0x2
 1383 0313 23       		.byte	0x23
 1384 0314 18       		.uleb128 0x18
 1385 0315 0C       		.uleb128 0xc
 1386 0316 72313100 		.ascii	"r11\000"
 1387 031a 07       		.byte	0x7
 1388 031b 2601     		.2byte	0x126
 1389 031d 98020000 		.4byte	0x298
 1390 0321 02       		.byte	0x2
 1391 0322 23       		.byte	0x23
 1392 0323 1C       		.uleb128 0x1c
 1393 0324 0C       		.uleb128 0xc
 1394 0325 6C7200   		.ascii	"lr\000"
 1395 0328 07       		.byte	0x7
 1396 0329 2701     		.2byte	0x127
 1397 032b 98020000 		.4byte	0x298
 1398 032f 02       		.byte	0x2
 1399 0330 23       		.byte	0x23
 1400 0331 20       		.uleb128 0x20
 1401 0332 00       		.byte	0x0
 1402 0333 0B       		.uleb128 0xb
 1403 0334 61040000 		.4byte	.LASF48
 1404 0338 04       		.byte	0x4
 1405 0339 07       		.byte	0x7
 1406 033a 3101     		.2byte	0x131
ARM GAS  C:\Users\DNIEL~1\AppData\Local\Temp\ccj8eOdI.s 			page 26


 1407 033c 50030000 		.4byte	0x350
 1408 0340 0C       		.uleb128 0xc
 1409 0341 72313300 		.ascii	"r13\000"
 1410 0345 07       		.byte	0x7
 1411 0346 3201     		.2byte	0x132
 1412 0348 50030000 		.4byte	0x350
 1413 034c 02       		.byte	0x2
 1414 034d 23       		.byte	0x23
 1415 034e 00       		.uleb128 0x0
 1416 034f 00       		.byte	0x0
 1417 0350 09       		.uleb128 0x9
 1418 0351 04       		.byte	0x4
 1419 0352 A5020000 		.4byte	0x2a5
 1420 0356 0D       		.uleb128 0xd
 1421 0357 86000000 		.4byte	0x86
 1422 035b 0D       		.uleb128 0xd
 1423 035c 05010000 		.4byte	0x105
 1424 0360 08       		.uleb128 0x8
 1425 0361 1C       		.byte	0x1c
 1426 0362 08       		.byte	0x8
 1427 0363 5E       		.byte	0x5e
 1428 0364 BD030000 		.4byte	0x3bd
 1429 0368 06       		.uleb128 0x6
 1430 0369 F5030000 		.4byte	.LASF49
 1431 036d 08       		.byte	0x8
 1432 036e 5F       		.byte	0x5f
 1433 036f 6B020000 		.4byte	0x26b
 1434 0373 02       		.byte	0x2
 1435 0374 23       		.byte	0x23
 1436 0375 00       		.uleb128 0x0
 1437 0376 06       		.uleb128 0x6
 1438 0377 B2030000 		.4byte	.LASF50
 1439 037b 08       		.byte	0x8
 1440 037c 60       		.byte	0x60
 1441 037d E4000000 		.4byte	0xe4
 1442 0381 02       		.byte	0x2
 1443 0382 23       		.byte	0x23
 1444 0383 08       		.uleb128 0x8
 1445 0384 06       		.uleb128 0x6
 1446 0385 A9020000 		.4byte	.LASF51
 1447 0389 08       		.byte	0x8
 1448 038a 62       		.byte	0x62
 1449 038b 33030000 		.4byte	0x333
 1450 038f 02       		.byte	0x2
 1451 0390 23       		.byte	0x23
 1452 0391 0C       		.uleb128 0xc
 1453 0392 06       		.uleb128 0x6
 1454 0393 4B010000 		.4byte	.LASF52
 1455 0397 08       		.byte	0x8
 1456 0398 65       		.byte	0x65
 1457 0399 65020000 		.4byte	0x265
 1458 039d 02       		.byte	0x2
 1459 039e 23       		.byte	0x23
 1460 039f 10       		.uleb128 0x10
 1461 03a0 06       		.uleb128 0x6
 1462 03a1 D9020000 		.4byte	.LASF53
 1463 03a5 08       		.byte	0x8
ARM GAS  C:\Users\DNIEL~1\AppData\Local\Temp\ccj8eOdI.s 			page 27


 1464 03a6 66       		.byte	0x66
 1465 03a7 65020000 		.4byte	0x265
 1466 03ab 02       		.byte	0x2
 1467 03ac 23       		.byte	0x23
 1468 03ad 14       		.uleb128 0x14
 1469 03ae 06       		.uleb128 0x6
 1470 03af CF020000 		.4byte	.LASF54
 1471 03b3 08       		.byte	0x8
 1472 03b4 69       		.byte	0x69
 1473 03b5 65020000 		.4byte	0x265
 1474 03b9 02       		.byte	0x2
 1475 03ba 23       		.byte	0x23
 1476 03bb 18       		.uleb128 0x18
 1477 03bc 00       		.byte	0x0
 1478 03bd 03       		.uleb128 0x3
 1479 03be A2040000 		.4byte	.LASF55
 1480 03c2 08       		.byte	0x8
 1481 03c3 6B       		.byte	0x6b
 1482 03c4 60030000 		.4byte	0x360
 1483 03c8 05       		.uleb128 0x5
 1484 03c9 92020000 		.4byte	.LASF56
 1485 03cd 10       		.byte	0x10
 1486 03ce 09       		.byte	0x9
 1487 03cf 2C       		.byte	0x2c
 1488 03d0 FF030000 		.4byte	0x3ff
 1489 03d4 06       		.uleb128 0x6
 1490 03d5 9E000000 		.4byte	.LASF57
 1491 03d9 09       		.byte	0x9
 1492 03da 2D       		.byte	0x2d
 1493 03db 6B020000 		.4byte	0x26b
 1494 03df 02       		.byte	0x2
 1495 03e0 23       		.byte	0x23
 1496 03e1 00       		.uleb128 0x0
 1497 03e2 06       		.uleb128 0x6
 1498 03e3 51050000 		.4byte	.LASF58
 1499 03e7 09       		.byte	0x9
 1500 03e8 2F       		.byte	0x2f
 1501 03e9 65020000 		.4byte	0x265
 1502 03ed 02       		.byte	0x2
 1503 03ee 23       		.byte	0x23
 1504 03ef 08       		.uleb128 0x8
 1505 03f0 06       		.uleb128 0x6
 1506 03f1 C8020000 		.4byte	.LASF59
 1507 03f5 09       		.byte	0x9
 1508 03f6 31       		.byte	0x31
 1509 03f7 FF030000 		.4byte	0x3ff
 1510 03fb 02       		.byte	0x2
 1511 03fc 23       		.byte	0x23
 1512 03fd 0C       		.uleb128 0xc
 1513 03fe 00       		.byte	0x0
 1514 03ff 09       		.uleb128 0x9
 1515 0400 04       		.byte	0x4
 1516 0401 C8030000 		.4byte	0x3c8
 1517 0405 03       		.uleb128 0x3
 1518 0406 92020000 		.4byte	.LASF56
 1519 040a 09       		.byte	0x9
 1520 040b 33       		.byte	0x33
ARM GAS  C:\Users\DNIEL~1\AppData\Local\Temp\ccj8eOdI.s 			page 28


 1521 040c C8030000 		.4byte	0x3c8
 1522 0410 0E       		.uleb128 0xe
 1523 0411 04       		.byte	0x4
 1524 0412 06       		.byte	0x6
 1525 0413 96       		.byte	0x96
 1526 0414 45040000 		.4byte	0x445
 1527 0418 0F       		.uleb128 0xf
 1528 0419 0C000000 		.4byte	.LASF60
 1529 041d 06       		.byte	0x6
 1530 041e 9D       		.byte	0x9d
 1531 041f EF000000 		.4byte	0xef
 1532 0423 0F       		.uleb128 0xf
 1533 0424 4C000000 		.4byte	.LASF61
 1534 0428 06       		.byte	0x6
 1535 0429 A4       		.byte	0xa4
 1536 042a EF000000 		.4byte	0xef
 1537 042e 0F       		.uleb128 0xf
 1538 042f 00050000 		.4byte	.LASF62
 1539 0433 06       		.byte	0x6
 1540 0434 AB       		.byte	0xab
 1541 0435 A3020000 		.4byte	0x2a3
 1542 0439 0F       		.uleb128 0xf
 1543 043a B9030000 		.4byte	.LASF63
 1544 043e 06       		.byte	0x6
 1545 043f B2       		.byte	0xb2
 1546 0440 FA000000 		.4byte	0xfa
 1547 0444 00       		.byte	0x0
 1548 0445 09       		.uleb128 0x9
 1549 0446 04       		.byte	0x4
 1550 0447 4B040000 		.4byte	0x44b
 1551 044b 10       		.uleb128 0x10
 1552 044c 50040000 		.4byte	0x450
 1553 0450 04       		.uleb128 0x4
 1554 0451 01       		.byte	0x1
 1555 0452 08       		.byte	0x8
 1556 0453 19040000 		.4byte	.LASF64
 1557 0457 09       		.uleb128 0x9
 1558 0458 04       		.byte	0x4
 1559 0459 05040000 		.4byte	0x405
 1560 045d 0D       		.uleb128 0xd
 1561 045e 74000000 		.4byte	0x74
 1562 0462 11       		.uleb128 0x11
 1563 0463 50       		.byte	0x50
 1564 0464 0A       		.byte	0xa
 1565 0465 0A02     		.2byte	0x20a
 1566 0467 96050000 		.4byte	0x596
 1567 046b 0C       		.uleb128 0xc
 1568 046c 535200   		.ascii	"SR\000"
 1569 046f 0A       		.byte	0xa
 1570 0470 0C02     		.2byte	0x20c
 1571 0472 56030000 		.4byte	0x356
 1572 0476 02       		.byte	0x2
 1573 0477 23       		.byte	0x23
 1574 0478 00       		.uleb128 0x0
 1575 0479 0C       		.uleb128 0xc
 1576 047a 43523100 		.ascii	"CR1\000"
 1577 047e 0A       		.byte	0xa
ARM GAS  C:\Users\DNIEL~1\AppData\Local\Temp\ccj8eOdI.s 			page 29


 1578 047f 0D02     		.2byte	0x20d
 1579 0481 56030000 		.4byte	0x356
 1580 0485 02       		.byte	0x2
 1581 0486 23       		.byte	0x23
 1582 0487 04       		.uleb128 0x4
 1583 0488 0C       		.uleb128 0xc
 1584 0489 43523200 		.ascii	"CR2\000"
 1585 048d 0A       		.byte	0xa
 1586 048e 0E02     		.2byte	0x20e
 1587 0490 56030000 		.4byte	0x356
 1588 0494 02       		.byte	0x2
 1589 0495 23       		.byte	0x23
 1590 0496 08       		.uleb128 0x8
 1591 0497 12       		.uleb128 0x12
 1592 0498 BC020000 		.4byte	.LASF65
 1593 049c 0A       		.byte	0xa
 1594 049d 0F02     		.2byte	0x20f
 1595 049f 56030000 		.4byte	0x356
 1596 04a3 02       		.byte	0x2
 1597 04a4 23       		.byte	0x23
 1598 04a5 0C       		.uleb128 0xc
 1599 04a6 12       		.uleb128 0x12
 1600 04a7 C2020000 		.4byte	.LASF66
 1601 04ab 0A       		.byte	0xa
 1602 04ac 1002     		.2byte	0x210
 1603 04ae 56030000 		.4byte	0x356
 1604 04b2 02       		.byte	0x2
 1605 04b3 23       		.byte	0x23
 1606 04b4 10       		.uleb128 0x10
 1607 04b5 12       		.uleb128 0x12
 1608 04b6 78020000 		.4byte	.LASF67
 1609 04ba 0A       		.byte	0xa
 1610 04bb 1102     		.2byte	0x211
 1611 04bd 56030000 		.4byte	0x356
 1612 04c1 02       		.byte	0x2
 1613 04c2 23       		.byte	0x23
 1614 04c3 14       		.uleb128 0x14
 1615 04c4 12       		.uleb128 0x12
 1616 04c5 7E020000 		.4byte	.LASF68
 1617 04c9 0A       		.byte	0xa
 1618 04ca 1202     		.2byte	0x212
 1619 04cc 56030000 		.4byte	0x356
 1620 04d0 02       		.byte	0x2
 1621 04d1 23       		.byte	0x23
 1622 04d2 18       		.uleb128 0x18
 1623 04d3 12       		.uleb128 0x12
 1624 04d4 84020000 		.4byte	.LASF69
 1625 04d8 0A       		.byte	0xa
 1626 04d9 1302     		.2byte	0x213
 1627 04db 56030000 		.4byte	0x356
 1628 04df 02       		.byte	0x2
 1629 04e0 23       		.byte	0x23
 1630 04e1 1C       		.uleb128 0x1c
 1631 04e2 12       		.uleb128 0x12
 1632 04e3 CF030000 		.4byte	.LASF70
 1633 04e7 0A       		.byte	0xa
 1634 04e8 1402     		.2byte	0x214
ARM GAS  C:\Users\DNIEL~1\AppData\Local\Temp\ccj8eOdI.s 			page 30


 1635 04ea 56030000 		.4byte	0x356
 1636 04ee 02       		.byte	0x2
 1637 04ef 23       		.byte	0x23
 1638 04f0 20       		.uleb128 0x20
 1639 04f1 0C       		.uleb128 0xc
 1640 04f2 48545200 		.ascii	"HTR\000"
 1641 04f6 0A       		.byte	0xa
 1642 04f7 1502     		.2byte	0x215
 1643 04f9 56030000 		.4byte	0x356
 1644 04fd 02       		.byte	0x2
 1645 04fe 23       		.byte	0x23
 1646 04ff 24       		.uleb128 0x24
 1647 0500 0C       		.uleb128 0xc
 1648 0501 4C545200 		.ascii	"LTR\000"
 1649 0505 0A       		.byte	0xa
 1650 0506 1602     		.2byte	0x216
 1651 0508 56030000 		.4byte	0x356
 1652 050c 02       		.byte	0x2
 1653 050d 23       		.byte	0x23
 1654 050e 28       		.uleb128 0x28
 1655 050f 12       		.uleb128 0x12
 1656 0510 E1020000 		.4byte	.LASF71
 1657 0514 0A       		.byte	0xa
 1658 0515 1702     		.2byte	0x217
 1659 0517 56030000 		.4byte	0x356
 1660 051b 02       		.byte	0x2
 1661 051c 23       		.byte	0x23
 1662 051d 2C       		.uleb128 0x2c
 1663 051e 12       		.uleb128 0x12
 1664 051f E6020000 		.4byte	.LASF72
 1665 0523 0A       		.byte	0xa
 1666 0524 1802     		.2byte	0x218
 1667 0526 56030000 		.4byte	0x356
 1668 052a 02       		.byte	0x2
 1669 052b 23       		.byte	0x23
 1670 052c 30       		.uleb128 0x30
 1671 052d 12       		.uleb128 0x12
 1672 052e EB020000 		.4byte	.LASF73
 1673 0532 0A       		.byte	0xa
 1674 0533 1902     		.2byte	0x219
 1675 0535 56030000 		.4byte	0x356
 1676 0539 02       		.byte	0x2
 1677 053a 23       		.byte	0x23
 1678 053b 34       		.uleb128 0x34
 1679 053c 12       		.uleb128 0x12
 1680 053d 70000000 		.4byte	.LASF74
 1681 0541 0A       		.byte	0xa
 1682 0542 1A02     		.2byte	0x21a
 1683 0544 56030000 		.4byte	0x356
 1684 0548 02       		.byte	0x2
 1685 0549 23       		.byte	0x23
 1686 054a 38       		.uleb128 0x38
 1687 054b 12       		.uleb128 0x12
 1688 054c EC040000 		.4byte	.LASF75
 1689 0550 0A       		.byte	0xa
 1690 0551 1B02     		.2byte	0x21b
 1691 0553 56030000 		.4byte	0x356
ARM GAS  C:\Users\DNIEL~1\AppData\Local\Temp\ccj8eOdI.s 			page 31


 1692 0557 02       		.byte	0x2
 1693 0558 23       		.byte	0x23
 1694 0559 3C       		.uleb128 0x3c
 1695 055a 12       		.uleb128 0x12
 1696 055b F1040000 		.4byte	.LASF76
 1697 055f 0A       		.byte	0xa
 1698 0560 1C02     		.2byte	0x21c
 1699 0562 56030000 		.4byte	0x356
 1700 0566 02       		.byte	0x2
 1701 0567 23       		.byte	0x23
 1702 0568 40       		.uleb128 0x40
 1703 0569 12       		.uleb128 0x12
 1704 056a F6040000 		.4byte	.LASF77
 1705 056e 0A       		.byte	0xa
 1706 056f 1D02     		.2byte	0x21d
 1707 0571 56030000 		.4byte	0x356
 1708 0575 02       		.byte	0x2
 1709 0576 23       		.byte	0x23
 1710 0577 44       		.uleb128 0x44
 1711 0578 12       		.uleb128 0x12
 1712 0579 FB040000 		.4byte	.LASF78
 1713 057d 0A       		.byte	0xa
 1714 057e 1E02     		.2byte	0x21e
 1715 0580 56030000 		.4byte	0x356
 1716 0584 02       		.byte	0x2
 1717 0585 23       		.byte	0x23
 1718 0586 48       		.uleb128 0x48
 1719 0587 0C       		.uleb128 0xc
 1720 0588 445200   		.ascii	"DR\000"
 1721 058b 0A       		.byte	0xa
 1722 058c 1F02     		.2byte	0x21f
 1723 058e 56030000 		.4byte	0x356
 1724 0592 02       		.byte	0x2
 1725 0593 23       		.byte	0x23
 1726 0594 4C       		.uleb128 0x4c
 1727 0595 00       		.byte	0x0
 1728 0596 13       		.uleb128 0x13
 1729 0597 16010000 		.4byte	.LASF79
 1730 059b 0A       		.byte	0xa
 1731 059c 2002     		.2byte	0x220
 1732 059e 62040000 		.4byte	0x462
 1733 05a2 11       		.uleb128 0x11
 1734 05a3 18       		.byte	0x18
 1735 05a4 0A       		.byte	0xa
 1736 05a5 B102     		.2byte	0x2b1
 1737 05a7 05060000 		.4byte	0x605
 1738 05ab 0C       		.uleb128 0xc
 1739 05ac 435200   		.ascii	"CR\000"
 1740 05af 0A       		.byte	0xa
 1741 05b0 B302     		.2byte	0x2b3
 1742 05b2 56030000 		.4byte	0x356
 1743 05b6 02       		.byte	0x2
 1744 05b7 23       		.byte	0x23
 1745 05b8 00       		.uleb128 0x0
 1746 05b9 12       		.uleb128 0x12
 1747 05ba 49040000 		.4byte	.LASF80
 1748 05be 0A       		.byte	0xa
ARM GAS  C:\Users\DNIEL~1\AppData\Local\Temp\ccj8eOdI.s 			page 32


 1749 05bf B402     		.2byte	0x2b4
 1750 05c1 56030000 		.4byte	0x356
 1751 05c5 02       		.byte	0x2
 1752 05c6 23       		.byte	0x23
 1753 05c7 04       		.uleb128 0x4
 1754 05c8 0C       		.uleb128 0xc
 1755 05c9 50415200 		.ascii	"PAR\000"
 1756 05cd 0A       		.byte	0xa
 1757 05ce B502     		.2byte	0x2b5
 1758 05d0 56030000 		.4byte	0x356
 1759 05d4 02       		.byte	0x2
 1760 05d5 23       		.byte	0x23
 1761 05d6 08       		.uleb128 0x8
 1762 05d7 12       		.uleb128 0x12
 1763 05d8 00000000 		.4byte	.LASF81
 1764 05dc 0A       		.byte	0xa
 1765 05dd B602     		.2byte	0x2b6
 1766 05df 56030000 		.4byte	0x356
 1767 05e3 02       		.byte	0x2
 1768 05e4 23       		.byte	0x23
 1769 05e5 0C       		.uleb128 0xc
 1770 05e6 12       		.uleb128 0x12
 1771 05e7 83040000 		.4byte	.LASF82
 1772 05eb 0A       		.byte	0xa
 1773 05ec B702     		.2byte	0x2b7
 1774 05ee 56030000 		.4byte	0x356
 1775 05f2 02       		.byte	0x2
 1776 05f3 23       		.byte	0x23
 1777 05f4 10       		.uleb128 0x10
 1778 05f5 0C       		.uleb128 0xc
 1779 05f6 46435200 		.ascii	"FCR\000"
 1780 05fa 0A       		.byte	0xa
 1781 05fb B802     		.2byte	0x2b8
 1782 05fd 56030000 		.4byte	0x356
 1783 0601 02       		.byte	0x2
 1784 0602 23       		.byte	0x23
 1785 0603 14       		.uleb128 0x14
 1786 0604 00       		.byte	0x0
 1787 0605 13       		.uleb128 0x13
 1788 0606 4E040000 		.4byte	.LASF83
 1789 060a 0A       		.byte	0xa
 1790 060b B902     		.2byte	0x2b9
 1791 060d A2050000 		.4byte	0x5a2
 1792 0611 08       		.uleb128 0x8
 1793 0612 0C       		.byte	0xc
 1794 0613 0B       		.byte	0xb
 1795 0614 DA       		.byte	0xda
 1796 0615 60060000 		.4byte	0x660
 1797 0619 06       		.uleb128 0x6
 1798 061a 2E000000 		.4byte	.LASF84
 1799 061e 0B       		.byte	0xb
 1800 061f DB       		.byte	0xdb
 1801 0620 60060000 		.4byte	0x660
 1802 0624 02       		.byte	0x2
 1803 0625 23       		.byte	0x23
 1804 0626 00       		.uleb128 0x0
 1805 0627 06       		.uleb128 0x6
ARM GAS  C:\Users\DNIEL~1\AppData\Local\Temp\ccj8eOdI.s 			page 33


 1806 0628 E7030000 		.4byte	.LASF85
 1807 062c 0B       		.byte	0xb
 1808 062d DC       		.byte	0xdc
 1809 062e 66060000 		.4byte	0x666
 1810 0632 02       		.byte	0x2
 1811 0633 23       		.byte	0x23
 1812 0634 04       		.uleb128 0x4
 1813 0635 06       		.uleb128 0x6
 1814 0636 EA010000 		.4byte	.LASF86
 1815 063a 0B       		.byte	0xb
 1816 063b DD       		.byte	0xdd
 1817 063c 49000000 		.4byte	0x49
 1818 0640 02       		.byte	0x2
 1819 0641 23       		.byte	0x23
 1820 0642 08       		.uleb128 0x8
 1821 0643 06       		.uleb128 0x6
 1822 0644 1A020000 		.4byte	.LASF87
 1823 0648 0B       		.byte	0xb
 1824 0649 DF       		.byte	0xdf
 1825 064a 49000000 		.4byte	0x49
 1826 064e 02       		.byte	0x2
 1827 064f 23       		.byte	0x23
 1828 0650 09       		.uleb128 0x9
 1829 0651 06       		.uleb128 0x6
 1830 0652 55000000 		.4byte	.LASF88
 1831 0656 0B       		.byte	0xb
 1832 0657 E0       		.byte	0xe0
 1833 0658 49000000 		.4byte	0x49
 1834 065c 02       		.byte	0x2
 1835 065d 23       		.byte	0x23
 1836 065e 0A       		.uleb128 0xa
 1837 065f 00       		.byte	0x0
 1838 0660 09       		.uleb128 0x9
 1839 0661 04       		.byte	0x4
 1840 0662 05060000 		.4byte	0x605
 1841 0666 09       		.uleb128 0x9
 1842 0667 04       		.byte	0x4
 1843 0668 56030000 		.4byte	0x356
 1844 066c 03       		.uleb128 0x3
 1845 066d 13030000 		.4byte	.LASF89
 1846 0671 0B       		.byte	0xb
 1847 0672 E1       		.byte	0xe1
 1848 0673 11060000 		.4byte	0x611
 1849 0677 14       		.uleb128 0x14
 1850 0678 01       		.byte	0x1
 1851 0679 0C       		.byte	0xc
 1852 067a 55       		.byte	0x55
 1853 067b A4060000 		.4byte	0x6a4
 1854 067f 15       		.uleb128 0x15
 1855 0680 8E010000 		.4byte	.LASF90
 1856 0684 00       		.sleb128 0
 1857 0685 15       		.uleb128 0x15
 1858 0686 98020000 		.4byte	.LASF91
 1859 068a 01       		.sleb128 1
 1860 068b 15       		.uleb128 0x15
 1861 068c 04020000 		.4byte	.LASF92
 1862 0690 02       		.sleb128 2
ARM GAS  C:\Users\DNIEL~1\AppData\Local\Temp\ccj8eOdI.s 			page 34


 1863 0691 15       		.uleb128 0x15
 1864 0692 AA010000 		.4byte	.LASF93
 1865 0696 03       		.sleb128 3
 1866 0697 15       		.uleb128 0x15
 1867 0698 07050000 		.4byte	.LASF94
 1868 069c 04       		.sleb128 4
 1869 069d 15       		.uleb128 0x15
 1870 069e 88040000 		.4byte	.LASF95
 1871 06a2 05       		.sleb128 5
 1872 06a3 00       		.byte	0x0
 1873 06a4 03       		.uleb128 0x3
 1874 06a5 1B000000 		.4byte	.LASF96
 1875 06a9 0C       		.byte	0xc
 1876 06aa 5C       		.byte	0x5c
 1877 06ab 77060000 		.4byte	0x677
 1878 06af 13       		.uleb128 0x13
 1879 06b0 3F010000 		.4byte	.LASF97
 1880 06b4 0D       		.byte	0xd
 1881 06b5 2701     		.2byte	0x127
 1882 06b7 62000000 		.4byte	0x62
 1883 06bb 13       		.uleb128 0x13
 1884 06bc 1B050000 		.4byte	.LASF98
 1885 06c0 0D       		.byte	0xd
 1886 06c1 2C01     		.2byte	0x12c
 1887 06c3 62000000 		.4byte	0x62
 1888 06c7 16       		.uleb128 0x16
 1889 06c8 01       		.byte	0x1
 1890 06c9 0D       		.byte	0xd
 1891 06ca 3301     		.2byte	0x133
 1892 06cc DD060000 		.4byte	0x6dd
 1893 06d0 15       		.uleb128 0x15
 1894 06d1 D0000000 		.4byte	.LASF99
 1895 06d5 00       		.sleb128 0
 1896 06d6 15       		.uleb128 0x15
 1897 06d7 99010000 		.4byte	.LASF100
 1898 06db 01       		.sleb128 1
 1899 06dc 00       		.byte	0x0
 1900 06dd 13       		.uleb128 0x13
 1901 06de A6000000 		.4byte	.LASF101
 1902 06e2 0D       		.byte	0xd
 1903 06e3 3601     		.2byte	0x136
 1904 06e5 C7060000 		.4byte	0x6c7
 1905 06e9 13       		.uleb128 0x13
 1906 06ea DB010000 		.4byte	.LASF102
 1907 06ee 0D       		.byte	0xd
 1908 06ef 3B01     		.2byte	0x13b
 1909 06f1 F5060000 		.4byte	0x6f5
 1910 06f5 0B       		.uleb128 0xb
 1911 06f6 DB010000 		.4byte	.LASF102
 1912 06fa 34       		.byte	0x34
 1913 06fb 0D       		.byte	0xd
 1914 06fc 9F01     		.2byte	0x19f
 1915 06fe 99070000 		.4byte	0x799
 1916 0702 12       		.uleb128 0x12
 1917 0703 B8000000 		.4byte	.LASF103
 1918 0707 0D       		.byte	0xd
 1919 0708 A301     		.2byte	0x1a3
ARM GAS  C:\Users\DNIEL~1\AppData\Local\Temp\ccj8eOdI.s 			page 35


 1920 070a A4060000 		.4byte	0x6a4
 1921 070e 02       		.byte	0x2
 1922 070f 23       		.byte	0x23
 1923 0710 00       		.uleb128 0x0
 1924 0711 12       		.uleb128 0x12
 1925 0712 1E040000 		.4byte	.LASF104
 1926 0716 0D       		.byte	0xd
 1927 0717 A701     		.2byte	0x1a7
 1928 0719 D0080000 		.4byte	0x8d0
 1929 071d 02       		.byte	0x2
 1930 071e 23       		.byte	0x23
 1931 071f 04       		.uleb128 0x4
 1932 0720 12       		.uleb128 0x12
 1933 0721 8A020000 		.4byte	.LASF105
 1934 0725 0D       		.byte	0xd
 1935 0726 AB01     		.2byte	0x1ab
 1936 0728 C7070000 		.4byte	0x7c7
 1937 072c 02       		.byte	0x2
 1938 072d 23       		.byte	0x23
 1939 072e 08       		.uleb128 0x8
 1940 072f 12       		.uleb128 0x12
 1941 0730 0E020000 		.4byte	.LASF106
 1942 0734 0D       		.byte	0xd
 1943 0735 AF01     		.2byte	0x1af
 1944 0737 30000000 		.4byte	0x30
 1945 073b 02       		.byte	0x2
 1946 073c 23       		.byte	0x23
 1947 073d 0C       		.uleb128 0xc
 1948 073e 12       		.uleb128 0x12
 1949 073f 73020000 		.4byte	.LASF107
 1950 0743 0D       		.byte	0xd
 1951 0744 B301     		.2byte	0x1b3
 1952 0746 DB080000 		.4byte	0x8db
 1953 074a 02       		.byte	0x2
 1954 074b 23       		.byte	0x23
 1955 074c 10       		.uleb128 0x10
 1956 074d 12       		.uleb128 0x12
 1957 074e FF000000 		.4byte	.LASF108
 1958 0752 0D       		.byte	0xd
 1959 0753 B801     		.2byte	0x1b8
 1960 0755 65020000 		.4byte	0x265
 1961 0759 02       		.byte	0x2
 1962 075a 23       		.byte	0x23
 1963 075b 14       		.uleb128 0x14
 1964 075c 12       		.uleb128 0x12
 1965 075d 2E030000 		.4byte	.LASF109
 1966 0761 0D       		.byte	0xd
 1967 0762 BF01     		.2byte	0x1bf
 1968 0764 05040000 		.4byte	0x405
 1969 0768 02       		.byte	0x2
 1970 0769 23       		.byte	0x23
 1971 076a 18       		.uleb128 0x18
 1972 076b 0C       		.uleb128 0xc
 1973 076c 61646300 		.ascii	"adc\000"
 1974 0770 0D       		.byte	0xd
 1975 0771 CB01     		.2byte	0x1cb
 1976 0773 E6080000 		.4byte	0x8e6
ARM GAS  C:\Users\DNIEL~1\AppData\Local\Temp\ccj8eOdI.s 			page 36


 1977 0777 02       		.byte	0x2
 1978 0778 23       		.byte	0x23
 1979 0779 28       		.uleb128 0x28
 1980 077a 12       		.uleb128 0x12
 1981 077b B1000000 		.4byte	.LASF110
 1982 077f 0D       		.byte	0xd
 1983 0780 CF01     		.2byte	0x1cf
 1984 0782 EC080000 		.4byte	0x8ec
 1985 0786 02       		.byte	0x2
 1986 0787 23       		.byte	0x23
 1987 0788 2C       		.uleb128 0x2c
 1988 0789 12       		.uleb128 0x12
 1989 078a 13000000 		.4byte	.LASF111
 1990 078e 0D       		.byte	0xd
 1991 078f D301     		.2byte	0x1d3
 1992 0791 86000000 		.4byte	0x86
 1993 0795 02       		.byte	0x2
 1994 0796 23       		.byte	0x23
 1995 0797 30       		.uleb128 0x30
 1996 0798 00       		.byte	0x0
 1997 0799 13       		.uleb128 0x13
 1998 079a 31010000 		.4byte	.LASF112
 1999 079e 0D       		.byte	0xd
 2000 079f 4501     		.2byte	0x145
 2001 07a1 A5070000 		.4byte	0x7a5
 2002 07a5 09       		.uleb128 0x9
 2003 07a6 04       		.byte	0x4
 2004 07a7 AB070000 		.4byte	0x7ab
 2005 07ab 17       		.uleb128 0x17
 2006 07ac 01       		.byte	0x1
 2007 07ad C1070000 		.4byte	0x7c1
 2008 07b1 18       		.uleb128 0x18
 2009 07b2 C1070000 		.4byte	0x7c1
 2010 07b6 18       		.uleb128 0x18
 2011 07b7 C7070000 		.4byte	0x7c7
 2012 07bb 18       		.uleb128 0x18
 2013 07bc 30000000 		.4byte	0x30
 2014 07c0 00       		.byte	0x0
 2015 07c1 09       		.uleb128 0x9
 2016 07c2 04       		.byte	0x4
 2017 07c3 E9060000 		.4byte	0x6e9
 2018 07c7 09       		.uleb128 0x9
 2019 07c8 04       		.byte	0x4
 2020 07c9 AF060000 		.4byte	0x6af
 2021 07cd 13       		.uleb128 0x13
 2022 07ce E3000000 		.4byte	.LASF113
 2023 07d2 0D       		.byte	0xd
 2024 07d3 4E01     		.2byte	0x14e
 2025 07d5 D9070000 		.4byte	0x7d9
 2026 07d9 09       		.uleb128 0x9
 2027 07da 04       		.byte	0x4
 2028 07db DF070000 		.4byte	0x7df
 2029 07df 17       		.uleb128 0x17
 2030 07e0 01       		.byte	0x1
 2031 07e1 F0070000 		.4byte	0x7f0
 2032 07e5 18       		.uleb128 0x18
 2033 07e6 C1070000 		.4byte	0x7c1
ARM GAS  C:\Users\DNIEL~1\AppData\Local\Temp\ccj8eOdI.s 			page 37


 2034 07ea 18       		.uleb128 0x18
 2035 07eb DD060000 		.4byte	0x6dd
 2036 07ef 00       		.byte	0x0
 2037 07f0 11       		.uleb128 0x11
 2038 07f1 28       		.byte	0x28
 2039 07f2 0D       		.byte	0xd
 2040 07f3 5801     		.2byte	0x158
 2041 07f5 9F080000 		.4byte	0x89f
 2042 07f9 12       		.uleb128 0x12
 2043 07fa BE000000 		.4byte	.LASF114
 2044 07fe 0D       		.byte	0xd
 2045 07ff 5C01     		.2byte	0x15c
 2046 0801 A6000000 		.4byte	0xa6
 2047 0805 02       		.byte	0x2
 2048 0806 23       		.byte	0x23
 2049 0807 00       		.uleb128 0x0
 2050 0808 12       		.uleb128 0x12
 2051 0809 38020000 		.4byte	.LASF115
 2052 080d 0D       		.byte	0xd
 2053 080e 6001     		.2byte	0x160
 2054 0810 BB060000 		.4byte	0x6bb
 2055 0814 02       		.byte	0x2
 2056 0815 23       		.byte	0x23
 2057 0816 02       		.uleb128 0x2
 2058 0817 12       		.uleb128 0x12
 2059 0818 2A010000 		.4byte	.LASF116
 2060 081c 0D       		.byte	0xd
 2061 081d 6401     		.2byte	0x164
 2062 081f 99070000 		.4byte	0x799
 2063 0823 02       		.byte	0x2
 2064 0824 23       		.byte	0x23
 2065 0825 04       		.uleb128 0x4
 2066 0826 12       		.uleb128 0x12
 2067 0827 A9030000 		.4byte	.LASF117
 2068 082b 0D       		.byte	0xd
 2069 082c 6801     		.2byte	0x168
 2070 082e CD070000 		.4byte	0x7cd
 2071 0832 02       		.byte	0x2
 2072 0833 23       		.byte	0x23
 2073 0834 08       		.uleb128 0x8
 2074 0835 0C       		.uleb128 0xc
 2075 0836 63723100 		.ascii	"cr1\000"
 2076 083a 0D       		.byte	0xd
 2077 083b 6F01     		.2byte	0x16f
 2078 083d 86000000 		.4byte	0x86
 2079 0841 02       		.byte	0x2
 2080 0842 23       		.byte	0x23
 2081 0843 0C       		.uleb128 0xc
 2082 0844 0C       		.uleb128 0xc
 2083 0845 63723200 		.ascii	"cr2\000"
 2084 0849 0D       		.byte	0xd
 2085 084a 7601     		.2byte	0x176
 2086 084c 86000000 		.4byte	0x86
 2087 0850 02       		.byte	0x2
 2088 0851 23       		.byte	0x23
 2089 0852 10       		.uleb128 0x10
 2090 0853 12       		.uleb128 0x12
ARM GAS  C:\Users\DNIEL~1\AppData\Local\Temp\ccj8eOdI.s 			page 38


 2091 0854 AC040000 		.4byte	.LASF118
 2092 0858 0D       		.byte	0xd
 2093 0859 7C01     		.2byte	0x17c
 2094 085b 86000000 		.4byte	0x86
 2095 085f 02       		.byte	0x2
 2096 0860 23       		.byte	0x23
 2097 0861 14       		.uleb128 0x14
 2098 0862 12       		.uleb128 0x12
 2099 0863 B2040000 		.4byte	.LASF119
 2100 0867 0D       		.byte	0xd
 2101 0868 8201     		.2byte	0x182
 2102 086a 86000000 		.4byte	0x86
 2103 086e 02       		.byte	0x2
 2104 086f 23       		.byte	0x23
 2105 0870 18       		.uleb128 0x18
 2106 0871 12       		.uleb128 0x12
 2107 0872 25040000 		.4byte	.LASF120
 2108 0876 0D       		.byte	0xd
 2109 0877 8701     		.2byte	0x187
 2110 0879 86000000 		.4byte	0x86
 2111 087d 02       		.byte	0x2
 2112 087e 23       		.byte	0x23
 2113 087f 1C       		.uleb128 0x1c
 2114 0880 12       		.uleb128 0x12
 2115 0881 2A040000 		.4byte	.LASF121
 2116 0885 0D       		.byte	0xd
 2117 0886 8C01     		.2byte	0x18c
 2118 0888 86000000 		.4byte	0x86
 2119 088c 02       		.byte	0x2
 2120 088d 23       		.byte	0x23
 2121 088e 20       		.uleb128 0x20
 2122 088f 12       		.uleb128 0x12
 2123 0890 2F040000 		.4byte	.LASF122
 2124 0894 0D       		.byte	0xd
 2125 0895 9101     		.2byte	0x191
 2126 0897 86000000 		.4byte	0x86
 2127 089b 02       		.byte	0x2
 2128 089c 23       		.byte	0x23
 2129 089d 24       		.uleb128 0x24
 2130 089e 00       		.byte	0x0
 2131 089f 13       		.uleb128 0x13
 2132 08a0 D9040000 		.4byte	.LASF123
 2133 08a4 0D       		.byte	0xd
 2134 08a5 9201     		.2byte	0x192
 2135 08a7 F0070000 		.4byte	0x7f0
 2136 08ab 11       		.uleb128 0x11
 2137 08ac 04       		.byte	0x4
 2138 08ad 0D       		.byte	0xd
 2139 08ae 9801     		.2byte	0x198
 2140 08b0 C4080000 		.4byte	0x8c4
 2141 08b4 12       		.uleb128 0x12
 2142 08b5 88010000 		.4byte	.LASF124
 2143 08b9 0D       		.byte	0xd
 2144 08ba 9901     		.2byte	0x199
 2145 08bc 86000000 		.4byte	0x86
 2146 08c0 02       		.byte	0x2
 2147 08c1 23       		.byte	0x23
ARM GAS  C:\Users\DNIEL~1\AppData\Local\Temp\ccj8eOdI.s 			page 39


 2148 08c2 00       		.uleb128 0x0
 2149 08c3 00       		.byte	0x0
 2150 08c4 13       		.uleb128 0x13
 2151 08c5 53010000 		.4byte	.LASF125
 2152 08c9 0D       		.byte	0xd
 2153 08ca 9A01     		.2byte	0x19a
 2154 08cc AB080000 		.4byte	0x8ab
 2155 08d0 09       		.uleb128 0x9
 2156 08d1 04       		.byte	0x4
 2157 08d2 D6080000 		.4byte	0x8d6
 2158 08d6 10       		.uleb128 0x10
 2159 08d7 C4080000 		.4byte	0x8c4
 2160 08db 09       		.uleb128 0x9
 2161 08dc 04       		.byte	0x4
 2162 08dd E1080000 		.4byte	0x8e1
 2163 08e1 10       		.uleb128 0x10
 2164 08e2 9F080000 		.4byte	0x89f
 2165 08e6 09       		.uleb128 0x9
 2166 08e7 04       		.byte	0x4
 2167 08e8 96050000 		.4byte	0x596
 2168 08ec 09       		.uleb128 0x9
 2169 08ed 04       		.byte	0x4
 2170 08ee F2080000 		.4byte	0x8f2
 2171 08f2 10       		.uleb128 0x10
 2172 08f3 6C060000 		.4byte	0x66c
 2173 08f7 19       		.uleb128 0x19
 2174 08f8 01       		.byte	0x1
 2175 08f9 F0020000 		.4byte	.LASF140
 2176 08fd 01       		.byte	0x1
 2177 08fe BB       		.byte	0xbb
 2178 08ff 01       		.byte	0x1
 2179 0900 01       		.byte	0x1
 2180 0901 32090000 		.4byte	0x932
 2181 0905 1A       		.uleb128 0x1a
 2182 0906 E5010000 		.4byte	.LASF126
 2183 090a 01       		.byte	0x1
 2184 090b BB       		.byte	0xbb
 2185 090c C1070000 		.4byte	0x7c1
 2186 0910 1A       		.uleb128 0x1a
 2187 0911 73020000 		.4byte	.LASF107
 2188 0915 01       		.byte	0x1
 2189 0916 BC       		.byte	0xbc
 2190 0917 DB080000 		.4byte	0x8db
 2191 091b 1A       		.uleb128 0x1a
 2192 091c 8A020000 		.4byte	.LASF105
 2193 0920 01       		.byte	0x1
 2194 0921 BD       		.byte	0xbd
 2195 0922 C7070000 		.4byte	0x7c7
 2196 0926 1A       		.uleb128 0x1a
 2197 0927 0E020000 		.4byte	.LASF106
 2198 092b 01       		.byte	0x1
 2199 092c BE       		.byte	0xbe
 2200 092d 30000000 		.4byte	0x30
 2201 0931 00       		.byte	0x0
 2202 0932 1B       		.uleb128 0x1b
 2203 0933 01       		.byte	0x1
 2204 0934 5D020000 		.4byte	.LASF141
ARM GAS  C:\Users\DNIEL~1\AppData\Local\Temp\ccj8eOdI.s 			page 40


 2205 0938 01       		.byte	0x1
 2206 0939 44       		.byte	0x44
 2207 093a 01       		.byte	0x1
 2208 093b 00000000 		.4byte	.LFB118
 2209 093f 04000000 		.4byte	.LFE118
 2210 0943 02       		.byte	0x2
 2211 0944 7D       		.byte	0x7d
 2212 0945 00       		.sleb128 0
 2213 0946 1C       		.uleb128 0x1c
 2214 0947 01       		.byte	0x1
 2215 0948 C2010000 		.4byte	.LASF127
 2216 094c 01       		.byte	0x1
 2217 094d 50       		.byte	0x50
 2218 094e 01       		.byte	0x1
 2219 094f 00000000 		.4byte	.LFB119
 2220 0953 16000000 		.4byte	.LFE119
 2221 0957 02       		.byte	0x2
 2222 0958 7D       		.byte	0x7d
 2223 0959 00       		.sleb128 0
 2224 095a 6E090000 		.4byte	0x96e
 2225 095e 1D       		.uleb128 0x1d
 2226 095f E5010000 		.4byte	.LASF126
 2227 0963 01       		.byte	0x1
 2228 0964 50       		.byte	0x50
 2229 0965 C1070000 		.4byte	0x7c1
 2230 0969 00000000 		.4byte	.LLST0
 2231 096d 00       		.byte	0x0
 2232 096e 1E       		.uleb128 0x1e
 2233 096f 01       		.byte	0x1
 2234 0970 92040000 		.4byte	.LASF128
 2235 0974 01       		.byte	0x1
 2236 0975 6F       		.byte	0x6f
 2237 0976 01       		.byte	0x1
 2238 0977 00000000 		.4byte	.LFB120
 2239 097b 1C000000 		.4byte	.LFE120
 2240 097f 20000000 		.4byte	.LLST1
 2241 0983 D8090000 		.4byte	0x9d8
 2242 0987 1D       		.uleb128 0x1d
 2243 0988 E5010000 		.4byte	.LASF126
 2244 098c 01       		.byte	0x1
 2245 098d 6F       		.byte	0x6f
 2246 098e C1070000 		.4byte	0x7c1
 2247 0992 40000000 		.4byte	.LLST2
 2248 0996 1D       		.uleb128 0x1d
 2249 0997 1E040000 		.4byte	.LASF104
 2250 099b 01       		.byte	0x1
 2251 099c 6F       		.byte	0x6f
 2252 099d D0080000 		.4byte	0x8d0
 2253 09a1 5E000000 		.4byte	.LLST3
 2254 09a5 1F       		.uleb128 0x1f
 2255 09a6 00000000 		.4byte	.Ldebug_ranges0+0x0
 2256 09aa BE090000 		.4byte	0x9be
 2257 09ae 20       		.uleb128 0x20
 2258 09af 746D7000 		.ascii	"tmp\000"
 2259 09b3 01       		.byte	0x1
 2260 09b4 73       		.byte	0x73
 2261 09b5 86000000 		.4byte	0x86
ARM GAS  C:\Users\DNIEL~1\AppData\Local\Temp\ccj8eOdI.s 			page 41


 2262 09b9 71000000 		.4byte	.LLST4
 2263 09bd 00       		.byte	0x0
 2264 09be 21       		.uleb128 0x21
 2265 09bf 14000000 		.4byte	.LBB12
 2266 09c3 1A000000 		.4byte	.LBE12
 2267 09c7 20       		.uleb128 0x20
 2268 09c8 746D7000 		.ascii	"tmp\000"
 2269 09cc 01       		.byte	0x1
 2270 09cd 79       		.byte	0x79
 2271 09ce 86000000 		.4byte	0x86
 2272 09d2 84000000 		.4byte	.LLST5
 2273 09d6 00       		.byte	0x0
 2274 09d7 00       		.byte	0x0
 2275 09d8 1E       		.uleb128 0x1e
 2276 09d9 01       		.byte	0x1
 2277 09da 26000000 		.4byte	.LASF129
 2278 09de 01       		.byte	0x1
 2279 09df 83       		.byte	0x83
 2280 09e0 01       		.byte	0x1
 2281 09e1 00000000 		.4byte	.LFB121
 2282 09e5 1A000000 		.4byte	.LFE121
 2283 09e9 97000000 		.4byte	.LLST6
 2284 09ed 330A0000 		.4byte	0xa33
 2285 09f1 1D       		.uleb128 0x1d
 2286 09f2 E5010000 		.4byte	.LASF126
 2287 09f6 01       		.byte	0x1
 2288 09f7 83       		.byte	0x83
 2289 09f8 C1070000 		.4byte	0x7c1
 2290 09fc B7000000 		.4byte	.LLST7
 2291 0a00 1F       		.uleb128 0x1f
 2292 0a01 18000000 		.4byte	.Ldebug_ranges0+0x18
 2293 0a05 190A0000 		.4byte	0xa19
 2294 0a09 20       		.uleb128 0x20
 2295 0a0a 746D7000 		.ascii	"tmp\000"
 2296 0a0e 01       		.byte	0x1
 2297 0a0f 87       		.byte	0x87
 2298 0a10 86000000 		.4byte	0x86
 2299 0a14 D5000000 		.4byte	.LLST8
 2300 0a18 00       		.byte	0x0
 2301 0a19 21       		.uleb128 0x21
 2302 0a1a 12000000 		.4byte	.LBB15
 2303 0a1e 18000000 		.4byte	.LBE15
 2304 0a22 20       		.uleb128 0x20
 2305 0a23 746D7000 		.ascii	"tmp\000"
 2306 0a27 01       		.byte	0x1
 2307 0a28 8C       		.byte	0x8c
 2308 0a29 86000000 		.4byte	0x86
 2309 0a2d E8000000 		.4byte	.LLST9
 2310 0a31 00       		.byte	0x0
 2311 0a32 00       		.byte	0x0
 2312 0a33 1E       		.uleb128 0x1e
 2313 0a34 01       		.byte	0x1
 2314 0a35 69040000 		.4byte	.LASF130
 2315 0a39 01       		.byte	0x1
 2316 0a3a 9F       		.byte	0x9f
 2317 0a3b 01       		.byte	0x1
 2318 0a3c 00000000 		.4byte	.LFB122
ARM GAS  C:\Users\DNIEL~1\AppData\Local\Temp\ccj8eOdI.s 			page 42


 2319 0a40 20000000 		.4byte	.LFE122
 2320 0a44 FB000000 		.4byte	.LLST10
 2321 0a48 F30A0000 		.4byte	0xaf3
 2322 0a4c 1D       		.uleb128 0x1d
 2323 0a4d E5010000 		.4byte	.LASF126
 2324 0a51 01       		.byte	0x1
 2325 0a52 9F       		.byte	0x9f
 2326 0a53 C1070000 		.4byte	0x7c1
 2327 0a57 1B010000 		.4byte	.LLST11
 2328 0a5b 1D       		.uleb128 0x1d
 2329 0a5c 73020000 		.4byte	.LASF107
 2330 0a60 01       		.byte	0x1
 2331 0a61 A0       		.byte	0xa0
 2332 0a62 DB080000 		.4byte	0x8db
 2333 0a66 2E010000 		.4byte	.LLST12
 2334 0a6a 1D       		.uleb128 0x1d
 2335 0a6b 8A020000 		.4byte	.LASF105
 2336 0a6f 01       		.byte	0x1
 2337 0a70 A1       		.byte	0xa1
 2338 0a71 C7070000 		.4byte	0x7c7
 2339 0a75 41010000 		.4byte	.LLST13
 2340 0a79 1D       		.uleb128 0x1d
 2341 0a7a 0E020000 		.4byte	.LASF106
 2342 0a7e 01       		.byte	0x1
 2343 0a7f A2       		.byte	0xa2
 2344 0a80 30000000 		.4byte	0x30
 2345 0a84 54010000 		.4byte	.LLST14
 2346 0a88 22       		.uleb128 0x22
 2347 0a89 04000000 		.4byte	.LBB16
 2348 0a8d 0A000000 		.4byte	.LBE16
 2349 0a91 A50A0000 		.4byte	0xaa5
 2350 0a95 20       		.uleb128 0x20
 2351 0a96 746D7000 		.ascii	"tmp\000"
 2352 0a9a 01       		.byte	0x1
 2353 0a9b A4       		.byte	0xa4
 2354 0a9c 86000000 		.4byte	0x86
 2355 0aa0 72010000 		.4byte	.LLST15
 2356 0aa4 00       		.byte	0x0
 2357 0aa5 23       		.uleb128 0x23
 2358 0aa6 F7080000 		.4byte	0x8f7
 2359 0aaa 0A000000 		.4byte	.LBB17
 2360 0aae 18000000 		.4byte	.LBE17
 2361 0ab2 01       		.byte	0x1
 2362 0ab3 A5       		.byte	0xa5
 2363 0ab4 D90A0000 		.4byte	0xad9
 2364 0ab8 24       		.uleb128 0x24
 2365 0ab9 26090000 		.4byte	0x926
 2366 0abd 01       		.byte	0x1
 2367 0abe 55       		.byte	0x55
 2368 0abf 25       		.uleb128 0x25
 2369 0ac0 1B090000 		.4byte	0x91b
 2370 0ac4 85010000 		.4byte	.LLST16
 2371 0ac8 25       		.uleb128 0x25
 2372 0ac9 10090000 		.4byte	0x910
 2373 0acd 98010000 		.4byte	.LLST17
 2374 0ad1 24       		.uleb128 0x24
 2375 0ad2 05090000 		.4byte	0x905
ARM GAS  C:\Users\DNIEL~1\AppData\Local\Temp\ccj8eOdI.s 			page 43


 2376 0ad6 01       		.byte	0x1
 2377 0ad7 54       		.byte	0x54
 2378 0ad8 00       		.byte	0x0
 2379 0ad9 21       		.uleb128 0x21
 2380 0ada 18000000 		.4byte	.LBB19
 2381 0ade 1E000000 		.4byte	.LBE19
 2382 0ae2 20       		.uleb128 0x20
 2383 0ae3 746D7000 		.ascii	"tmp\000"
 2384 0ae7 01       		.byte	0x1
 2385 0ae8 A6       		.byte	0xa6
 2386 0ae9 86000000 		.4byte	0x86
 2387 0aed AB010000 		.4byte	.LLST18
 2388 0af1 00       		.byte	0x0
 2389 0af2 00       		.byte	0x0
 2390 0af3 26       		.uleb128 0x26
 2391 0af4 F7080000 		.4byte	0x8f7
 2392 0af8 00000000 		.4byte	.LFB123
 2393 0afc 12000000 		.4byte	.LFE123
 2394 0b00 BE010000 		.4byte	.LLST19
 2395 0b04 270B0000 		.4byte	0xb27
 2396 0b08 24       		.uleb128 0x24
 2397 0b09 05090000 		.4byte	0x905
 2398 0b0d 01       		.byte	0x1
 2399 0b0e 50       		.byte	0x50
 2400 0b0f 24       		.uleb128 0x24
 2401 0b10 10090000 		.4byte	0x910
 2402 0b14 01       		.byte	0x1
 2403 0b15 51       		.byte	0x51
 2404 0b16 24       		.uleb128 0x24
 2405 0b17 1B090000 		.4byte	0x91b
 2406 0b1b 01       		.byte	0x1
 2407 0b1c 52       		.byte	0x52
 2408 0b1d 25       		.uleb128 0x25
 2409 0b1e 26090000 		.4byte	0x926
 2410 0b22 DE010000 		.4byte	.LLST20
 2411 0b26 00       		.byte	0x0
 2412 0b27 1E       		.uleb128 0x1e
 2413 0b28 01       		.byte	0x1
 2414 0b29 3F050000 		.4byte	.LASF131
 2415 0b2d 01       		.byte	0x1
 2416 0b2e DA       		.byte	0xda
 2417 0b2f 01       		.byte	0x1
 2418 0b30 00000000 		.4byte	.LFB124
 2419 0b34 32000000 		.4byte	.LFE124
 2420 0b38 FD010000 		.4byte	.LLST21
 2421 0b3c 9E0B0000 		.4byte	0xb9e
 2422 0b40 1D       		.uleb128 0x1d
 2423 0b41 E5010000 		.4byte	.LASF126
 2424 0b45 01       		.byte	0x1
 2425 0b46 DA       		.byte	0xda
 2426 0b47 C1070000 		.4byte	0x7c1
 2427 0b4b 1D020000 		.4byte	.LLST22
 2428 0b4f 1F       		.uleb128 0x1f
 2429 0b50 30000000 		.4byte	.Ldebug_ranges0+0x30
 2430 0b54 680B0000 		.4byte	0xb68
 2431 0b58 20       		.uleb128 0x20
 2432 0b59 746D7000 		.ascii	"tmp\000"
ARM GAS  C:\Users\DNIEL~1\AppData\Local\Temp\ccj8eOdI.s 			page 44


 2433 0b5d 01       		.byte	0x1
 2434 0b5e DE       		.byte	0xde
 2435 0b5f 86000000 		.4byte	0x86
 2436 0b63 3B020000 		.4byte	.LLST23
 2437 0b67 00       		.byte	0x0
 2438 0b68 22       		.uleb128 0x22
 2439 0b69 20000000 		.4byte	.LBB22
 2440 0b6d 2A000000 		.4byte	.LBE22
 2441 0b71 840B0000 		.4byte	0xb84
 2442 0b75 20       		.uleb128 0x20
 2443 0b76 747000   		.ascii	"tp\000"
 2444 0b79 01       		.byte	0x1
 2445 0b7a E6       		.byte	0xe6
 2446 0b7b 65020000 		.4byte	0x265
 2447 0b7f 4E020000 		.4byte	.LLST24
 2448 0b83 00       		.byte	0x0
 2449 0b84 21       		.uleb128 0x21
 2450 0b85 2A000000 		.4byte	.LBB23
 2451 0b89 30000000 		.4byte	.LBE23
 2452 0b8d 20       		.uleb128 0x20
 2453 0b8e 746D7000 		.ascii	"tmp\000"
 2454 0b92 01       		.byte	0x1
 2455 0b93 E8       		.byte	0xe8
 2456 0b94 86000000 		.4byte	0x86
 2457 0b98 62020000 		.4byte	.LLST25
 2458 0b9c 00       		.byte	0x0
 2459 0b9d 00       		.byte	0x0
 2460 0b9e 1E       		.uleb128 0x1e
 2461 0b9f 01       		.byte	0x1
 2462 0ba0 C6040000 		.4byte	.LASF132
 2463 0ba4 01       		.byte	0x1
 2464 0ba5 F5       		.byte	0xf5
 2465 0ba6 01       		.byte	0x1
 2466 0ba7 00000000 		.4byte	.LFB125
 2467 0bab 2E000000 		.4byte	.LFE125
 2468 0baf 75020000 		.4byte	.LLST26
 2469 0bb3 DC0B0000 		.4byte	0xbdc
 2470 0bb7 1D       		.uleb128 0x1d
 2471 0bb8 E5010000 		.4byte	.LASF126
 2472 0bbc 01       		.byte	0x1
 2473 0bbd F5       		.byte	0xf5
 2474 0bbe C1070000 		.4byte	0x7c1
 2475 0bc2 95020000 		.4byte	.LLST27
 2476 0bc6 27       		.uleb128 0x27
 2477 0bc7 48000000 		.4byte	.Ldebug_ranges0+0x48
 2478 0bcb 28       		.uleb128 0x28
 2479 0bcc 747000   		.ascii	"tp\000"
 2480 0bcf 01       		.byte	0x1
 2481 0bd0 0201     		.2byte	0x102
 2482 0bd2 65020000 		.4byte	0x265
 2483 0bd6 B3020000 		.4byte	.LLST28
 2484 0bda 00       		.byte	0x0
 2485 0bdb 00       		.byte	0x0
 2486 0bdc 29       		.uleb128 0x29
 2487 0bdd 01       		.byte	0x1
 2488 0bde 34050000 		.4byte	.LASF142
 2489 0be2 01       		.byte	0x1
ARM GAS  C:\Users\DNIEL~1\AppData\Local\Temp\ccj8eOdI.s 			page 45


 2490 0be3 1E01     		.2byte	0x11e
 2491 0be5 01       		.byte	0x1
 2492 0be6 EF000000 		.4byte	0xef
 2493 0bea 00000000 		.4byte	.LFB126
 2494 0bee 38000000 		.4byte	.LFE126
 2495 0bf2 C7020000 		.4byte	.LLST29
 2496 0bf6 B80C0000 		.4byte	0xcb8
 2497 0bfa 2A       		.uleb128 0x2a
 2498 0bfb E5010000 		.4byte	.LASF126
 2499 0bff 01       		.byte	0x1
 2500 0c00 1E01     		.2byte	0x11e
 2501 0c02 C1070000 		.4byte	0x7c1
 2502 0c06 E7020000 		.4byte	.LLST30
 2503 0c0a 2A       		.uleb128 0x2a
 2504 0c0b 73020000 		.4byte	.LASF107
 2505 0c0f 01       		.byte	0x1
 2506 0c10 1F01     		.2byte	0x11f
 2507 0c12 DB080000 		.4byte	0x8db
 2508 0c16 FA020000 		.4byte	.LLST31
 2509 0c1a 2A       		.uleb128 0x2a
 2510 0c1b 8A020000 		.4byte	.LASF105
 2511 0c1f 01       		.byte	0x1
 2512 0c20 2001     		.2byte	0x120
 2513 0c22 C7070000 		.4byte	0x7c7
 2514 0c26 19030000 		.4byte	.LLST32
 2515 0c2a 2A       		.uleb128 0x2a
 2516 0c2b 0E020000 		.4byte	.LASF106
 2517 0c2f 01       		.byte	0x1
 2518 0c30 2101     		.2byte	0x121
 2519 0c32 30000000 		.4byte	0x30
 2520 0c36 2C030000 		.4byte	.LLST33
 2521 0c3a 2B       		.uleb128 0x2b
 2522 0c3b 6D736700 		.ascii	"msg\000"
 2523 0c3f 01       		.byte	0x1
 2524 0c40 2201     		.2byte	0x122
 2525 0c42 EF000000 		.4byte	0xef
 2526 0c46 05       		.byte	0x5
 2527 0c47 76       		.byte	0x76
 2528 0c48 18       		.sleb128 24
 2529 0c49 06       		.byte	0x6
 2530 0c4a 23       		.byte	0x23
 2531 0c4b 24       		.uleb128 0x24
 2532 0c4c 22       		.uleb128 0x22
 2533 0c4d 06000000 		.4byte	.LBB26
 2534 0c51 0C000000 		.4byte	.LBE26
 2535 0c55 6A0C0000 		.4byte	0xc6a
 2536 0c59 28       		.uleb128 0x28
 2537 0c5a 746D7000 		.ascii	"tmp\000"
 2538 0c5e 01       		.byte	0x1
 2539 0c5f 2401     		.2byte	0x124
 2540 0c61 86000000 		.4byte	0x86
 2541 0c65 4A030000 		.4byte	.LLST34
 2542 0c69 00       		.byte	0x0
 2543 0c6a 2C       		.uleb128 0x2c
 2544 0c6b F7080000 		.4byte	0x8f7
 2545 0c6f 0E000000 		.4byte	.LBB27
 2546 0c73 1C000000 		.4byte	.LBE27
ARM GAS  C:\Users\DNIEL~1\AppData\Local\Temp\ccj8eOdI.s 			page 46


 2547 0c77 01       		.byte	0x1
 2548 0c78 2601     		.2byte	0x126
 2549 0c7a A10C0000 		.4byte	0xca1
 2550 0c7e 24       		.uleb128 0x24
 2551 0c7f 26090000 		.4byte	0x926
 2552 0c83 01       		.byte	0x1
 2553 0c84 55       		.byte	0x55
 2554 0c85 25       		.uleb128 0x25
 2555 0c86 1B090000 		.4byte	0x91b
 2556 0c8a 5D030000 		.4byte	.LLST35
 2557 0c8e 25       		.uleb128 0x25
 2558 0c8f 10090000 		.4byte	0x910
 2559 0c93 70030000 		.4byte	.LLST36
 2560 0c97 25       		.uleb128 0x25
 2561 0c98 05090000 		.4byte	0x905
 2562 0c9c 8F030000 		.4byte	.LLST37
 2563 0ca0 00       		.byte	0x0
 2564 0ca1 27       		.uleb128 0x27
 2565 0ca2 60000000 		.4byte	.Ldebug_ranges0+0x60
 2566 0ca6 28       		.uleb128 0x28
 2567 0ca7 746D7000 		.ascii	"tmp\000"
 2568 0cab 01       		.byte	0x1
 2569 0cac 2A01     		.2byte	0x12a
 2570 0cae 86000000 		.4byte	0x86
 2571 0cb2 AD030000 		.4byte	.LLST38
 2572 0cb6 00       		.byte	0x0
 2573 0cb7 00       		.byte	0x0
 2574 0cb8 2D       		.uleb128 0x2d
 2575 0cb9 01       		.byte	0x1
 2576 0cba 59050000 		.4byte	.LASF133
 2577 0cbe 01       		.byte	0x1
 2578 0cbf 3B01     		.2byte	0x13b
 2579 0cc1 01       		.byte	0x1
 2580 0cc2 00000000 		.4byte	.LFB127
 2581 0cc6 06000000 		.4byte	.LFE127
 2582 0cca 02       		.byte	0x2
 2583 0ccb 7D       		.byte	0x7d
 2584 0ccc 00       		.sleb128 0
 2585 0ccd E20C0000 		.4byte	0xce2
 2586 0cd1 2A       		.uleb128 0x2a
 2587 0cd2 E5010000 		.4byte	.LASF126
 2588 0cd6 01       		.byte	0x1
 2589 0cd7 3B01     		.2byte	0x13b
 2590 0cd9 C1070000 		.4byte	0x7c1
 2591 0cdd C0030000 		.4byte	.LLST39
 2592 0ce1 00       		.byte	0x0
 2593 0ce2 2D       		.uleb128 0x2d
 2594 0ce3 01       		.byte	0x1
 2595 0ce4 65020000 		.4byte	.LASF134
 2596 0ce8 01       		.byte	0x1
 2597 0ce9 4F01     		.2byte	0x14f
 2598 0ceb 01       		.byte	0x1
 2599 0cec 00000000 		.4byte	.LFB128
 2600 0cf0 04000000 		.4byte	.LFE128
 2601 0cf4 02       		.byte	0x2
 2602 0cf5 7D       		.byte	0x7d
 2603 0cf6 00       		.sleb128 0
ARM GAS  C:\Users\DNIEL~1\AppData\Local\Temp\ccj8eOdI.s 			page 47


 2604 0cf7 0A0D0000 		.4byte	0xd0a
 2605 0cfb 2E       		.uleb128 0x2e
 2606 0cfc E5010000 		.4byte	.LASF126
 2607 0d00 01       		.byte	0x1
 2608 0d01 4F01     		.2byte	0x14f
 2609 0d03 C1070000 		.4byte	0x7c1
 2610 0d07 01       		.byte	0x1
 2611 0d08 50       		.byte	0x50
 2612 0d09 00       		.byte	0x0
 2613 0d0a 2F       		.uleb128 0x2f
 2614 0d0b B8040000 		.4byte	.LASF135
 2615 0d0f 08       		.byte	0x8
 2616 0d10 6F       		.byte	0x6f
 2617 0d11 BD030000 		.4byte	0x3bd
 2618 0d15 01       		.byte	0x1
 2619 0d16 01       		.byte	0x1
 2620 0d17 30       		.uleb128 0x30
 2621 0d18 5C000000 		.4byte	.LASF136
 2622 0d1c 0E       		.byte	0xe
 2623 0d1d 9806     		.2byte	0x698
 2624 0d1f 5D040000 		.4byte	0x45d
 2625 0d23 01       		.byte	0x1
 2626 0d24 01       		.byte	0x1
 2627 0d25 2F       		.uleb128 0x2f
 2628 0d26 B8040000 		.4byte	.LASF135
 2629 0d2a 08       		.byte	0x8
 2630 0d2b 6F       		.byte	0x6f
 2631 0d2c BD030000 		.4byte	0x3bd
 2632 0d30 01       		.byte	0x1
 2633 0d31 01       		.byte	0x1
 2634 0d32 30       		.uleb128 0x30
 2635 0d33 5C000000 		.4byte	.LASF136
 2636 0d37 0E       		.byte	0xe
 2637 0d38 9806     		.2byte	0x698
 2638 0d3a 5D040000 		.4byte	0x45d
 2639 0d3e 01       		.byte	0x1
 2640 0d3f 01       		.byte	0x1
 2641 0d40 00       		.byte	0x0
 2642              		.section	.debug_abbrev
 2643 0000 01       		.uleb128 0x1
 2644 0001 11       		.uleb128 0x11
 2645 0002 01       		.byte	0x1
 2646 0003 25       		.uleb128 0x25
 2647 0004 0E       		.uleb128 0xe
 2648 0005 13       		.uleb128 0x13
 2649 0006 0B       		.uleb128 0xb
 2650 0007 03       		.uleb128 0x3
 2651 0008 0E       		.uleb128 0xe
 2652 0009 1B       		.uleb128 0x1b
 2653 000a 0E       		.uleb128 0xe
 2654 000b 11       		.uleb128 0x11
 2655 000c 01       		.uleb128 0x1
 2656 000d 52       		.uleb128 0x52
 2657 000e 01       		.uleb128 0x1
 2658 000f 55       		.uleb128 0x55
 2659 0010 06       		.uleb128 0x6
 2660 0011 10       		.uleb128 0x10
ARM GAS  C:\Users\DNIEL~1\AppData\Local\Temp\ccj8eOdI.s 			page 48


 2661 0012 06       		.uleb128 0x6
 2662 0013 00       		.byte	0x0
 2663 0014 00       		.byte	0x0
 2664 0015 02       		.uleb128 0x2
 2665 0016 24       		.uleb128 0x24
 2666 0017 00       		.byte	0x0
 2667 0018 0B       		.uleb128 0xb
 2668 0019 0B       		.uleb128 0xb
 2669 001a 3E       		.uleb128 0x3e
 2670 001b 0B       		.uleb128 0xb
 2671 001c 03       		.uleb128 0x3
 2672 001d 08       		.uleb128 0x8
 2673 001e 00       		.byte	0x0
 2674 001f 00       		.byte	0x0
 2675 0020 03       		.uleb128 0x3
 2676 0021 16       		.uleb128 0x16
 2677 0022 00       		.byte	0x0
 2678 0023 03       		.uleb128 0x3
 2679 0024 0E       		.uleb128 0xe
 2680 0025 3A       		.uleb128 0x3a
 2681 0026 0B       		.uleb128 0xb
 2682 0027 3B       		.uleb128 0x3b
 2683 0028 0B       		.uleb128 0xb
 2684 0029 49       		.uleb128 0x49
 2685 002a 13       		.uleb128 0x13
 2686 002b 00       		.byte	0x0
 2687 002c 00       		.byte	0x0
 2688 002d 04       		.uleb128 0x4
 2689 002e 24       		.uleb128 0x24
 2690 002f 00       		.byte	0x0
 2691 0030 0B       		.uleb128 0xb
 2692 0031 0B       		.uleb128 0xb
 2693 0032 3E       		.uleb128 0x3e
 2694 0033 0B       		.uleb128 0xb
 2695 0034 03       		.uleb128 0x3
 2696 0035 0E       		.uleb128 0xe
 2697 0036 00       		.byte	0x0
 2698 0037 00       		.byte	0x0
 2699 0038 05       		.uleb128 0x5
 2700 0039 13       		.uleb128 0x13
 2701 003a 01       		.byte	0x1
 2702 003b 03       		.uleb128 0x3
 2703 003c 0E       		.uleb128 0xe
 2704 003d 0B       		.uleb128 0xb
 2705 003e 0B       		.uleb128 0xb
 2706 003f 3A       		.uleb128 0x3a
 2707 0040 0B       		.uleb128 0xb
 2708 0041 3B       		.uleb128 0x3b
 2709 0042 0B       		.uleb128 0xb
 2710 0043 01       		.uleb128 0x1
 2711 0044 13       		.uleb128 0x13
 2712 0045 00       		.byte	0x0
 2713 0046 00       		.byte	0x0
 2714 0047 06       		.uleb128 0x6
 2715 0048 0D       		.uleb128 0xd
 2716 0049 00       		.byte	0x0
 2717 004a 03       		.uleb128 0x3
ARM GAS  C:\Users\DNIEL~1\AppData\Local\Temp\ccj8eOdI.s 			page 49


 2718 004b 0E       		.uleb128 0xe
 2719 004c 3A       		.uleb128 0x3a
 2720 004d 0B       		.uleb128 0xb
 2721 004e 3B       		.uleb128 0x3b
 2722 004f 0B       		.uleb128 0xb
 2723 0050 49       		.uleb128 0x49
 2724 0051 13       		.uleb128 0x13
 2725 0052 38       		.uleb128 0x38
 2726 0053 0A       		.uleb128 0xa
 2727 0054 00       		.byte	0x0
 2728 0055 00       		.byte	0x0
 2729 0056 07       		.uleb128 0x7
 2730 0057 0D       		.uleb128 0xd
 2731 0058 00       		.byte	0x0
 2732 0059 03       		.uleb128 0x3
 2733 005a 08       		.uleb128 0x8
 2734 005b 3A       		.uleb128 0x3a
 2735 005c 0B       		.uleb128 0xb
 2736 005d 3B       		.uleb128 0x3b
 2737 005e 0B       		.uleb128 0xb
 2738 005f 49       		.uleb128 0x49
 2739 0060 13       		.uleb128 0x13
 2740 0061 38       		.uleb128 0x38
 2741 0062 0A       		.uleb128 0xa
 2742 0063 00       		.byte	0x0
 2743 0064 00       		.byte	0x0
 2744 0065 08       		.uleb128 0x8
 2745 0066 13       		.uleb128 0x13
 2746 0067 01       		.byte	0x1
 2747 0068 0B       		.uleb128 0xb
 2748 0069 0B       		.uleb128 0xb
 2749 006a 3A       		.uleb128 0x3a
 2750 006b 0B       		.uleb128 0xb
 2751 006c 3B       		.uleb128 0x3b
 2752 006d 0B       		.uleb128 0xb
 2753 006e 01       		.uleb128 0x1
 2754 006f 13       		.uleb128 0x13
 2755 0070 00       		.byte	0x0
 2756 0071 00       		.byte	0x0
 2757 0072 09       		.uleb128 0x9
 2758 0073 0F       		.uleb128 0xf
 2759 0074 00       		.byte	0x0
 2760 0075 0B       		.uleb128 0xb
 2761 0076 0B       		.uleb128 0xb
 2762 0077 49       		.uleb128 0x49
 2763 0078 13       		.uleb128 0x13
 2764 0079 00       		.byte	0x0
 2765 007a 00       		.byte	0x0
 2766 007b 0A       		.uleb128 0xa
 2767 007c 0F       		.uleb128 0xf
 2768 007d 00       		.byte	0x0
 2769 007e 0B       		.uleb128 0xb
 2770 007f 0B       		.uleb128 0xb
 2771 0080 00       		.byte	0x0
 2772 0081 00       		.byte	0x0
 2773 0082 0B       		.uleb128 0xb
 2774 0083 13       		.uleb128 0x13
ARM GAS  C:\Users\DNIEL~1\AppData\Local\Temp\ccj8eOdI.s 			page 50


 2775 0084 01       		.byte	0x1
 2776 0085 03       		.uleb128 0x3
 2777 0086 0E       		.uleb128 0xe
 2778 0087 0B       		.uleb128 0xb
 2779 0088 0B       		.uleb128 0xb
 2780 0089 3A       		.uleb128 0x3a
 2781 008a 0B       		.uleb128 0xb
 2782 008b 3B       		.uleb128 0x3b
 2783 008c 05       		.uleb128 0x5
 2784 008d 01       		.uleb128 0x1
 2785 008e 13       		.uleb128 0x13
 2786 008f 00       		.byte	0x0
 2787 0090 00       		.byte	0x0
 2788 0091 0C       		.uleb128 0xc
 2789 0092 0D       		.uleb128 0xd
 2790 0093 00       		.byte	0x0
 2791 0094 03       		.uleb128 0x3
 2792 0095 08       		.uleb128 0x8
 2793 0096 3A       		.uleb128 0x3a
 2794 0097 0B       		.uleb128 0xb
 2795 0098 3B       		.uleb128 0x3b
 2796 0099 05       		.uleb128 0x5
 2797 009a 49       		.uleb128 0x49
 2798 009b 13       		.uleb128 0x13
 2799 009c 38       		.uleb128 0x38
 2800 009d 0A       		.uleb128 0xa
 2801 009e 00       		.byte	0x0
 2802 009f 00       		.byte	0x0
 2803 00a0 0D       		.uleb128 0xd
 2804 00a1 35       		.uleb128 0x35
 2805 00a2 00       		.byte	0x0
 2806 00a3 49       		.uleb128 0x49
 2807 00a4 13       		.uleb128 0x13
 2808 00a5 00       		.byte	0x0
 2809 00a6 00       		.byte	0x0
 2810 00a7 0E       		.uleb128 0xe
 2811 00a8 17       		.uleb128 0x17
 2812 00a9 01       		.byte	0x1
 2813 00aa 0B       		.uleb128 0xb
 2814 00ab 0B       		.uleb128 0xb
 2815 00ac 3A       		.uleb128 0x3a
 2816 00ad 0B       		.uleb128 0xb
 2817 00ae 3B       		.uleb128 0x3b
 2818 00af 0B       		.uleb128 0xb
 2819 00b0 01       		.uleb128 0x1
 2820 00b1 13       		.uleb128 0x13
 2821 00b2 00       		.byte	0x0
 2822 00b3 00       		.byte	0x0
 2823 00b4 0F       		.uleb128 0xf
 2824 00b5 0D       		.uleb128 0xd
 2825 00b6 00       		.byte	0x0
 2826 00b7 03       		.uleb128 0x3
 2827 00b8 0E       		.uleb128 0xe
 2828 00b9 3A       		.uleb128 0x3a
 2829 00ba 0B       		.uleb128 0xb
 2830 00bb 3B       		.uleb128 0x3b
 2831 00bc 0B       		.uleb128 0xb
ARM GAS  C:\Users\DNIEL~1\AppData\Local\Temp\ccj8eOdI.s 			page 51


 2832 00bd 49       		.uleb128 0x49
 2833 00be 13       		.uleb128 0x13
 2834 00bf 00       		.byte	0x0
 2835 00c0 00       		.byte	0x0
 2836 00c1 10       		.uleb128 0x10
 2837 00c2 26       		.uleb128 0x26
 2838 00c3 00       		.byte	0x0
 2839 00c4 49       		.uleb128 0x49
 2840 00c5 13       		.uleb128 0x13
 2841 00c6 00       		.byte	0x0
 2842 00c7 00       		.byte	0x0
 2843 00c8 11       		.uleb128 0x11
 2844 00c9 13       		.uleb128 0x13
 2845 00ca 01       		.byte	0x1
 2846 00cb 0B       		.uleb128 0xb
 2847 00cc 0B       		.uleb128 0xb
 2848 00cd 3A       		.uleb128 0x3a
 2849 00ce 0B       		.uleb128 0xb
 2850 00cf 3B       		.uleb128 0x3b
 2851 00d0 05       		.uleb128 0x5
 2852 00d1 01       		.uleb128 0x1
 2853 00d2 13       		.uleb128 0x13
 2854 00d3 00       		.byte	0x0
 2855 00d4 00       		.byte	0x0
 2856 00d5 12       		.uleb128 0x12
 2857 00d6 0D       		.uleb128 0xd
 2858 00d7 00       		.byte	0x0
 2859 00d8 03       		.uleb128 0x3
 2860 00d9 0E       		.uleb128 0xe
 2861 00da 3A       		.uleb128 0x3a
 2862 00db 0B       		.uleb128 0xb
 2863 00dc 3B       		.uleb128 0x3b
 2864 00dd 05       		.uleb128 0x5
 2865 00de 49       		.uleb128 0x49
 2866 00df 13       		.uleb128 0x13
 2867 00e0 38       		.uleb128 0x38
 2868 00e1 0A       		.uleb128 0xa
 2869 00e2 00       		.byte	0x0
 2870 00e3 00       		.byte	0x0
 2871 00e4 13       		.uleb128 0x13
 2872 00e5 16       		.uleb128 0x16
 2873 00e6 00       		.byte	0x0
 2874 00e7 03       		.uleb128 0x3
 2875 00e8 0E       		.uleb128 0xe
 2876 00e9 3A       		.uleb128 0x3a
 2877 00ea 0B       		.uleb128 0xb
 2878 00eb 3B       		.uleb128 0x3b
 2879 00ec 05       		.uleb128 0x5
 2880 00ed 49       		.uleb128 0x49
 2881 00ee 13       		.uleb128 0x13
 2882 00ef 00       		.byte	0x0
 2883 00f0 00       		.byte	0x0
 2884 00f1 14       		.uleb128 0x14
 2885 00f2 04       		.uleb128 0x4
 2886 00f3 01       		.byte	0x1
 2887 00f4 0B       		.uleb128 0xb
 2888 00f5 0B       		.uleb128 0xb
ARM GAS  C:\Users\DNIEL~1\AppData\Local\Temp\ccj8eOdI.s 			page 52


 2889 00f6 3A       		.uleb128 0x3a
 2890 00f7 0B       		.uleb128 0xb
 2891 00f8 3B       		.uleb128 0x3b
 2892 00f9 0B       		.uleb128 0xb
 2893 00fa 01       		.uleb128 0x1
 2894 00fb 13       		.uleb128 0x13
 2895 00fc 00       		.byte	0x0
 2896 00fd 00       		.byte	0x0
 2897 00fe 15       		.uleb128 0x15
 2898 00ff 28       		.uleb128 0x28
 2899 0100 00       		.byte	0x0
 2900 0101 03       		.uleb128 0x3
 2901 0102 0E       		.uleb128 0xe
 2902 0103 1C       		.uleb128 0x1c
 2903 0104 0D       		.uleb128 0xd
 2904 0105 00       		.byte	0x0
 2905 0106 00       		.byte	0x0
 2906 0107 16       		.uleb128 0x16
 2907 0108 04       		.uleb128 0x4
 2908 0109 01       		.byte	0x1
 2909 010a 0B       		.uleb128 0xb
 2910 010b 0B       		.uleb128 0xb
 2911 010c 3A       		.uleb128 0x3a
 2912 010d 0B       		.uleb128 0xb
 2913 010e 3B       		.uleb128 0x3b
 2914 010f 05       		.uleb128 0x5
 2915 0110 01       		.uleb128 0x1
 2916 0111 13       		.uleb128 0x13
 2917 0112 00       		.byte	0x0
 2918 0113 00       		.byte	0x0
 2919 0114 17       		.uleb128 0x17
 2920 0115 15       		.uleb128 0x15
 2921 0116 01       		.byte	0x1
 2922 0117 27       		.uleb128 0x27
 2923 0118 0C       		.uleb128 0xc
 2924 0119 01       		.uleb128 0x1
 2925 011a 13       		.uleb128 0x13
 2926 011b 00       		.byte	0x0
 2927 011c 00       		.byte	0x0
 2928 011d 18       		.uleb128 0x18
 2929 011e 05       		.uleb128 0x5
 2930 011f 00       		.byte	0x0
 2931 0120 49       		.uleb128 0x49
 2932 0121 13       		.uleb128 0x13
 2933 0122 00       		.byte	0x0
 2934 0123 00       		.byte	0x0
 2935 0124 19       		.uleb128 0x19
 2936 0125 2E       		.uleb128 0x2e
 2937 0126 01       		.byte	0x1
 2938 0127 3F       		.uleb128 0x3f
 2939 0128 0C       		.uleb128 0xc
 2940 0129 03       		.uleb128 0x3
 2941 012a 0E       		.uleb128 0xe
 2942 012b 3A       		.uleb128 0x3a
 2943 012c 0B       		.uleb128 0xb
 2944 012d 3B       		.uleb128 0x3b
 2945 012e 0B       		.uleb128 0xb
ARM GAS  C:\Users\DNIEL~1\AppData\Local\Temp\ccj8eOdI.s 			page 53


 2946 012f 27       		.uleb128 0x27
 2947 0130 0C       		.uleb128 0xc
 2948 0131 20       		.uleb128 0x20
 2949 0132 0B       		.uleb128 0xb
 2950 0133 01       		.uleb128 0x1
 2951 0134 13       		.uleb128 0x13
 2952 0135 00       		.byte	0x0
 2953 0136 00       		.byte	0x0
 2954 0137 1A       		.uleb128 0x1a
 2955 0138 05       		.uleb128 0x5
 2956 0139 00       		.byte	0x0
 2957 013a 03       		.uleb128 0x3
 2958 013b 0E       		.uleb128 0xe
 2959 013c 3A       		.uleb128 0x3a
 2960 013d 0B       		.uleb128 0xb
 2961 013e 3B       		.uleb128 0x3b
 2962 013f 0B       		.uleb128 0xb
 2963 0140 49       		.uleb128 0x49
 2964 0141 13       		.uleb128 0x13
 2965 0142 00       		.byte	0x0
 2966 0143 00       		.byte	0x0
 2967 0144 1B       		.uleb128 0x1b
 2968 0145 2E       		.uleb128 0x2e
 2969 0146 00       		.byte	0x0
 2970 0147 3F       		.uleb128 0x3f
 2971 0148 0C       		.uleb128 0xc
 2972 0149 03       		.uleb128 0x3
 2973 014a 0E       		.uleb128 0xe
 2974 014b 3A       		.uleb128 0x3a
 2975 014c 0B       		.uleb128 0xb
 2976 014d 3B       		.uleb128 0x3b
 2977 014e 0B       		.uleb128 0xb
 2978 014f 27       		.uleb128 0x27
 2979 0150 0C       		.uleb128 0xc
 2980 0151 11       		.uleb128 0x11
 2981 0152 01       		.uleb128 0x1
 2982 0153 12       		.uleb128 0x12
 2983 0154 01       		.uleb128 0x1
 2984 0155 40       		.uleb128 0x40
 2985 0156 0A       		.uleb128 0xa
 2986 0157 00       		.byte	0x0
 2987 0158 00       		.byte	0x0
 2988 0159 1C       		.uleb128 0x1c
 2989 015a 2E       		.uleb128 0x2e
 2990 015b 01       		.byte	0x1
 2991 015c 3F       		.uleb128 0x3f
 2992 015d 0C       		.uleb128 0xc
 2993 015e 03       		.uleb128 0x3
 2994 015f 0E       		.uleb128 0xe
 2995 0160 3A       		.uleb128 0x3a
 2996 0161 0B       		.uleb128 0xb
 2997 0162 3B       		.uleb128 0x3b
 2998 0163 0B       		.uleb128 0xb
 2999 0164 27       		.uleb128 0x27
 3000 0165 0C       		.uleb128 0xc
 3001 0166 11       		.uleb128 0x11
 3002 0167 01       		.uleb128 0x1
ARM GAS  C:\Users\DNIEL~1\AppData\Local\Temp\ccj8eOdI.s 			page 54


 3003 0168 12       		.uleb128 0x12
 3004 0169 01       		.uleb128 0x1
 3005 016a 40       		.uleb128 0x40
 3006 016b 0A       		.uleb128 0xa
 3007 016c 01       		.uleb128 0x1
 3008 016d 13       		.uleb128 0x13
 3009 016e 00       		.byte	0x0
 3010 016f 00       		.byte	0x0
 3011 0170 1D       		.uleb128 0x1d
 3012 0171 05       		.uleb128 0x5
 3013 0172 00       		.byte	0x0
 3014 0173 03       		.uleb128 0x3
 3015 0174 0E       		.uleb128 0xe
 3016 0175 3A       		.uleb128 0x3a
 3017 0176 0B       		.uleb128 0xb
 3018 0177 3B       		.uleb128 0x3b
 3019 0178 0B       		.uleb128 0xb
 3020 0179 49       		.uleb128 0x49
 3021 017a 13       		.uleb128 0x13
 3022 017b 02       		.uleb128 0x2
 3023 017c 06       		.uleb128 0x6
 3024 017d 00       		.byte	0x0
 3025 017e 00       		.byte	0x0
 3026 017f 1E       		.uleb128 0x1e
 3027 0180 2E       		.uleb128 0x2e
 3028 0181 01       		.byte	0x1
 3029 0182 3F       		.uleb128 0x3f
 3030 0183 0C       		.uleb128 0xc
 3031 0184 03       		.uleb128 0x3
 3032 0185 0E       		.uleb128 0xe
 3033 0186 3A       		.uleb128 0x3a
 3034 0187 0B       		.uleb128 0xb
 3035 0188 3B       		.uleb128 0x3b
 3036 0189 0B       		.uleb128 0xb
 3037 018a 27       		.uleb128 0x27
 3038 018b 0C       		.uleb128 0xc
 3039 018c 11       		.uleb128 0x11
 3040 018d 01       		.uleb128 0x1
 3041 018e 12       		.uleb128 0x12
 3042 018f 01       		.uleb128 0x1
 3043 0190 40       		.uleb128 0x40
 3044 0191 06       		.uleb128 0x6
 3045 0192 01       		.uleb128 0x1
 3046 0193 13       		.uleb128 0x13
 3047 0194 00       		.byte	0x0
 3048 0195 00       		.byte	0x0
 3049 0196 1F       		.uleb128 0x1f
 3050 0197 0B       		.uleb128 0xb
 3051 0198 01       		.byte	0x1
 3052 0199 55       		.uleb128 0x55
 3053 019a 06       		.uleb128 0x6
 3054 019b 01       		.uleb128 0x1
 3055 019c 13       		.uleb128 0x13
 3056 019d 00       		.byte	0x0
 3057 019e 00       		.byte	0x0
 3058 019f 20       		.uleb128 0x20
 3059 01a0 34       		.uleb128 0x34
ARM GAS  C:\Users\DNIEL~1\AppData\Local\Temp\ccj8eOdI.s 			page 55


 3060 01a1 00       		.byte	0x0
 3061 01a2 03       		.uleb128 0x3
 3062 01a3 08       		.uleb128 0x8
 3063 01a4 3A       		.uleb128 0x3a
 3064 01a5 0B       		.uleb128 0xb
 3065 01a6 3B       		.uleb128 0x3b
 3066 01a7 0B       		.uleb128 0xb
 3067 01a8 49       		.uleb128 0x49
 3068 01a9 13       		.uleb128 0x13
 3069 01aa 02       		.uleb128 0x2
 3070 01ab 06       		.uleb128 0x6
 3071 01ac 00       		.byte	0x0
 3072 01ad 00       		.byte	0x0
 3073 01ae 21       		.uleb128 0x21
 3074 01af 0B       		.uleb128 0xb
 3075 01b0 01       		.byte	0x1
 3076 01b1 11       		.uleb128 0x11
 3077 01b2 01       		.uleb128 0x1
 3078 01b3 12       		.uleb128 0x12
 3079 01b4 01       		.uleb128 0x1
 3080 01b5 00       		.byte	0x0
 3081 01b6 00       		.byte	0x0
 3082 01b7 22       		.uleb128 0x22
 3083 01b8 0B       		.uleb128 0xb
 3084 01b9 01       		.byte	0x1
 3085 01ba 11       		.uleb128 0x11
 3086 01bb 01       		.uleb128 0x1
 3087 01bc 12       		.uleb128 0x12
 3088 01bd 01       		.uleb128 0x1
 3089 01be 01       		.uleb128 0x1
 3090 01bf 13       		.uleb128 0x13
 3091 01c0 00       		.byte	0x0
 3092 01c1 00       		.byte	0x0
 3093 01c2 23       		.uleb128 0x23
 3094 01c3 1D       		.uleb128 0x1d
 3095 01c4 01       		.byte	0x1
 3096 01c5 31       		.uleb128 0x31
 3097 01c6 13       		.uleb128 0x13
 3098 01c7 11       		.uleb128 0x11
 3099 01c8 01       		.uleb128 0x1
 3100 01c9 12       		.uleb128 0x12
 3101 01ca 01       		.uleb128 0x1
 3102 01cb 58       		.uleb128 0x58
 3103 01cc 0B       		.uleb128 0xb
 3104 01cd 59       		.uleb128 0x59
 3105 01ce 0B       		.uleb128 0xb
 3106 01cf 01       		.uleb128 0x1
 3107 01d0 13       		.uleb128 0x13
 3108 01d1 00       		.byte	0x0
 3109 01d2 00       		.byte	0x0
 3110 01d3 24       		.uleb128 0x24
 3111 01d4 05       		.uleb128 0x5
 3112 01d5 00       		.byte	0x0
 3113 01d6 31       		.uleb128 0x31
 3114 01d7 13       		.uleb128 0x13
 3115 01d8 02       		.uleb128 0x2
 3116 01d9 0A       		.uleb128 0xa
ARM GAS  C:\Users\DNIEL~1\AppData\Local\Temp\ccj8eOdI.s 			page 56


 3117 01da 00       		.byte	0x0
 3118 01db 00       		.byte	0x0
 3119 01dc 25       		.uleb128 0x25
 3120 01dd 05       		.uleb128 0x5
 3121 01de 00       		.byte	0x0
 3122 01df 31       		.uleb128 0x31
 3123 01e0 13       		.uleb128 0x13
 3124 01e1 02       		.uleb128 0x2
 3125 01e2 06       		.uleb128 0x6
 3126 01e3 00       		.byte	0x0
 3127 01e4 00       		.byte	0x0
 3128 01e5 26       		.uleb128 0x26
 3129 01e6 2E       		.uleb128 0x2e
 3130 01e7 01       		.byte	0x1
 3131 01e8 31       		.uleb128 0x31
 3132 01e9 13       		.uleb128 0x13
 3133 01ea 11       		.uleb128 0x11
 3134 01eb 01       		.uleb128 0x1
 3135 01ec 12       		.uleb128 0x12
 3136 01ed 01       		.uleb128 0x1
 3137 01ee 40       		.uleb128 0x40
 3138 01ef 06       		.uleb128 0x6
 3139 01f0 01       		.uleb128 0x1
 3140 01f1 13       		.uleb128 0x13
 3141 01f2 00       		.byte	0x0
 3142 01f3 00       		.byte	0x0
 3143 01f4 27       		.uleb128 0x27
 3144 01f5 0B       		.uleb128 0xb
 3145 01f6 01       		.byte	0x1
 3146 01f7 55       		.uleb128 0x55
 3147 01f8 06       		.uleb128 0x6
 3148 01f9 00       		.byte	0x0
 3149 01fa 00       		.byte	0x0
 3150 01fb 28       		.uleb128 0x28
 3151 01fc 34       		.uleb128 0x34
 3152 01fd 00       		.byte	0x0
 3153 01fe 03       		.uleb128 0x3
 3154 01ff 08       		.uleb128 0x8
 3155 0200 3A       		.uleb128 0x3a
 3156 0201 0B       		.uleb128 0xb
 3157 0202 3B       		.uleb128 0x3b
 3158 0203 05       		.uleb128 0x5
 3159 0204 49       		.uleb128 0x49
 3160 0205 13       		.uleb128 0x13
 3161 0206 02       		.uleb128 0x2
 3162 0207 06       		.uleb128 0x6
 3163 0208 00       		.byte	0x0
 3164 0209 00       		.byte	0x0
 3165 020a 29       		.uleb128 0x29
 3166 020b 2E       		.uleb128 0x2e
 3167 020c 01       		.byte	0x1
 3168 020d 3F       		.uleb128 0x3f
 3169 020e 0C       		.uleb128 0xc
 3170 020f 03       		.uleb128 0x3
 3171 0210 0E       		.uleb128 0xe
 3172 0211 3A       		.uleb128 0x3a
 3173 0212 0B       		.uleb128 0xb
ARM GAS  C:\Users\DNIEL~1\AppData\Local\Temp\ccj8eOdI.s 			page 57


 3174 0213 3B       		.uleb128 0x3b
 3175 0214 05       		.uleb128 0x5
 3176 0215 27       		.uleb128 0x27
 3177 0216 0C       		.uleb128 0xc
 3178 0217 49       		.uleb128 0x49
 3179 0218 13       		.uleb128 0x13
 3180 0219 11       		.uleb128 0x11
 3181 021a 01       		.uleb128 0x1
 3182 021b 12       		.uleb128 0x12
 3183 021c 01       		.uleb128 0x1
 3184 021d 40       		.uleb128 0x40
 3185 021e 06       		.uleb128 0x6
 3186 021f 01       		.uleb128 0x1
 3187 0220 13       		.uleb128 0x13
 3188 0221 00       		.byte	0x0
 3189 0222 00       		.byte	0x0
 3190 0223 2A       		.uleb128 0x2a
 3191 0224 05       		.uleb128 0x5
 3192 0225 00       		.byte	0x0
 3193 0226 03       		.uleb128 0x3
 3194 0227 0E       		.uleb128 0xe
 3195 0228 3A       		.uleb128 0x3a
 3196 0229 0B       		.uleb128 0xb
 3197 022a 3B       		.uleb128 0x3b
 3198 022b 05       		.uleb128 0x5
 3199 022c 49       		.uleb128 0x49
 3200 022d 13       		.uleb128 0x13
 3201 022e 02       		.uleb128 0x2
 3202 022f 06       		.uleb128 0x6
 3203 0230 00       		.byte	0x0
 3204 0231 00       		.byte	0x0
 3205 0232 2B       		.uleb128 0x2b
 3206 0233 34       		.uleb128 0x34
 3207 0234 00       		.byte	0x0
 3208 0235 03       		.uleb128 0x3
 3209 0236 08       		.uleb128 0x8
 3210 0237 3A       		.uleb128 0x3a
 3211 0238 0B       		.uleb128 0xb
 3212 0239 3B       		.uleb128 0x3b
 3213 023a 05       		.uleb128 0x5
 3214 023b 49       		.uleb128 0x49
 3215 023c 13       		.uleb128 0x13
 3216 023d 02       		.uleb128 0x2
 3217 023e 0A       		.uleb128 0xa
 3218 023f 00       		.byte	0x0
 3219 0240 00       		.byte	0x0
 3220 0241 2C       		.uleb128 0x2c
 3221 0242 1D       		.uleb128 0x1d
 3222 0243 01       		.byte	0x1
 3223 0244 31       		.uleb128 0x31
 3224 0245 13       		.uleb128 0x13
 3225 0246 11       		.uleb128 0x11
 3226 0247 01       		.uleb128 0x1
 3227 0248 12       		.uleb128 0x12
 3228 0249 01       		.uleb128 0x1
 3229 024a 58       		.uleb128 0x58
 3230 024b 0B       		.uleb128 0xb
ARM GAS  C:\Users\DNIEL~1\AppData\Local\Temp\ccj8eOdI.s 			page 58


 3231 024c 59       		.uleb128 0x59
 3232 024d 05       		.uleb128 0x5
 3233 024e 01       		.uleb128 0x1
 3234 024f 13       		.uleb128 0x13
 3235 0250 00       		.byte	0x0
 3236 0251 00       		.byte	0x0
 3237 0252 2D       		.uleb128 0x2d
 3238 0253 2E       		.uleb128 0x2e
 3239 0254 01       		.byte	0x1
 3240 0255 3F       		.uleb128 0x3f
 3241 0256 0C       		.uleb128 0xc
 3242 0257 03       		.uleb128 0x3
 3243 0258 0E       		.uleb128 0xe
 3244 0259 3A       		.uleb128 0x3a
 3245 025a 0B       		.uleb128 0xb
 3246 025b 3B       		.uleb128 0x3b
 3247 025c 05       		.uleb128 0x5
 3248 025d 27       		.uleb128 0x27
 3249 025e 0C       		.uleb128 0xc
 3250 025f 11       		.uleb128 0x11
 3251 0260 01       		.uleb128 0x1
 3252 0261 12       		.uleb128 0x12
 3253 0262 01       		.uleb128 0x1
 3254 0263 40       		.uleb128 0x40
 3255 0264 0A       		.uleb128 0xa
 3256 0265 01       		.uleb128 0x1
 3257 0266 13       		.uleb128 0x13
 3258 0267 00       		.byte	0x0
 3259 0268 00       		.byte	0x0
 3260 0269 2E       		.uleb128 0x2e
 3261 026a 05       		.uleb128 0x5
 3262 026b 00       		.byte	0x0
 3263 026c 03       		.uleb128 0x3
 3264 026d 0E       		.uleb128 0xe
 3265 026e 3A       		.uleb128 0x3a
 3266 026f 0B       		.uleb128 0xb
 3267 0270 3B       		.uleb128 0x3b
 3268 0271 05       		.uleb128 0x5
 3269 0272 49       		.uleb128 0x49
 3270 0273 13       		.uleb128 0x13
 3271 0274 02       		.uleb128 0x2
 3272 0275 0A       		.uleb128 0xa
 3273 0276 00       		.byte	0x0
 3274 0277 00       		.byte	0x0
 3275 0278 2F       		.uleb128 0x2f
 3276 0279 34       		.uleb128 0x34
 3277 027a 00       		.byte	0x0
 3278 027b 03       		.uleb128 0x3
 3279 027c 0E       		.uleb128 0xe
 3280 027d 3A       		.uleb128 0x3a
 3281 027e 0B       		.uleb128 0xb
 3282 027f 3B       		.uleb128 0x3b
 3283 0280 0B       		.uleb128 0xb
 3284 0281 49       		.uleb128 0x49
 3285 0282 13       		.uleb128 0x13
 3286 0283 3F       		.uleb128 0x3f
 3287 0284 0C       		.uleb128 0xc
ARM GAS  C:\Users\DNIEL~1\AppData\Local\Temp\ccj8eOdI.s 			page 59


 3288 0285 3C       		.uleb128 0x3c
 3289 0286 0C       		.uleb128 0xc
 3290 0287 00       		.byte	0x0
 3291 0288 00       		.byte	0x0
 3292 0289 30       		.uleb128 0x30
 3293 028a 34       		.uleb128 0x34
 3294 028b 00       		.byte	0x0
 3295 028c 03       		.uleb128 0x3
 3296 028d 0E       		.uleb128 0xe
 3297 028e 3A       		.uleb128 0x3a
 3298 028f 0B       		.uleb128 0xb
 3299 0290 3B       		.uleb128 0x3b
 3300 0291 05       		.uleb128 0x5
 3301 0292 49       		.uleb128 0x49
 3302 0293 13       		.uleb128 0x13
 3303 0294 3F       		.uleb128 0x3f
 3304 0295 0C       		.uleb128 0xc
 3305 0296 3C       		.uleb128 0x3c
 3306 0297 0C       		.uleb128 0xc
 3307 0298 00       		.byte	0x0
 3308 0299 00       		.byte	0x0
 3309 029a 00       		.byte	0x0
 3310              		.section	.debug_pubnames,"",%progbits
 3311 0000 D4000000 		.4byte	0xd4
 3312 0004 0200     		.2byte	0x2
 3313 0006 00000000 		.4byte	.Ldebug_info0
 3314 000a 410D0000 		.4byte	0xd41
 3315 000e 32090000 		.4byte	0x932
 3316 0012 61646349 		.ascii	"adcInit\000"
 3316      6E697400 
 3317 001a 46090000 		.4byte	0x946
 3318 001e 6164634F 		.ascii	"adcObjectInit\000"
 3318      626A6563 
 3318      74496E69 
 3318      7400
 3319 002c 6E090000 		.4byte	0x96e
 3320 0030 61646353 		.ascii	"adcStart\000"
 3320      74617274 
 3320      00
 3321 0039 D8090000 		.4byte	0x9d8
 3322 003d 61646353 		.ascii	"adcStop\000"
 3322      746F7000 
 3323 0045 330A0000 		.4byte	0xa33
 3324 0049 61646353 		.ascii	"adcStartConversion\000"
 3324      74617274 
 3324      436F6E76 
 3324      65727369 
 3324      6F6E00
 3325 005c F30A0000 		.4byte	0xaf3
 3326 0060 61646353 		.ascii	"adcStartConversionI\000"
 3326      74617274 
 3326      436F6E76 
 3326      65727369 
 3326      6F6E4900 
 3327 0074 270B0000 		.4byte	0xb27
 3328 0078 61646353 		.ascii	"adcStopConversion\000"
 3328      746F7043 
ARM GAS  C:\Users\DNIEL~1\AppData\Local\Temp\ccj8eOdI.s 			page 60


 3328      6F6E7665 
 3328      7273696F 
 3328      6E00
 3329 008a 9E0B0000 		.4byte	0xb9e
 3330 008e 61646353 		.ascii	"adcStopConversionI\000"
 3330      746F7043 
 3330      6F6E7665 
 3330      7273696F 
 3330      6E4900
 3331 00a1 DC0B0000 		.4byte	0xbdc
 3332 00a5 61646343 		.ascii	"adcConvert\000"
 3332      6F6E7665 
 3332      727400
 3333 00b0 B80C0000 		.4byte	0xcb8
 3334 00b4 61646341 		.ascii	"adcAcquireBus\000"
 3334      63717569 
 3334      72654275 
 3334      7300
 3335 00c2 E20C0000 		.4byte	0xce2
 3336 00c6 61646352 		.ascii	"adcReleaseBus\000"
 3336      656C6561 
 3336      73654275 
 3336      7300
 3337 00d4 00000000 		.4byte	0x0
 3338              		.section	.debug_pubtypes,"",%progbits
 3339 0000 27020000 		.4byte	0x227
 3340 0004 0200     		.2byte	0x2
 3341 0006 00000000 		.4byte	.Ldebug_info0
 3342 000a 410D0000 		.4byte	0xd41
 3343 000e 30000000 		.4byte	0x30
 3344 0012 73697A65 		.ascii	"size_t\000"
 3344      5F7400
 3345 0019 49000000 		.4byte	0x49
 3346 001d 75696E74 		.ascii	"uint8_t\000"
 3346      385F7400 
 3347 0025 62000000 		.4byte	0x62
 3348 0029 75696E74 		.ascii	"uint16_t\000"
 3348      31365F74 
 3348      00
 3349 0032 74000000 		.4byte	0x74
 3350 0036 696E7433 		.ascii	"int32_t\000"
 3350      325F7400 
 3351 003e 86000000 		.4byte	0x86
 3352 0042 75696E74 		.ascii	"uint32_t\000"
 3352      33325F74 
 3352      00
 3353 004b A6000000 		.4byte	0xa6
 3354 004f 626F6F6C 		.ascii	"bool_t\000"
 3354      5F7400
 3355 0056 B8000000 		.4byte	0xb8
 3356 005a 746D6F64 		.ascii	"tmode_t\000"
 3356      655F7400 
 3357 0062 C3000000 		.4byte	0xc3
 3358 0066 74737461 		.ascii	"tstate_t\000"
 3358      74655F74 
 3358      00
 3359 006f CE000000 		.4byte	0xce
ARM GAS  C:\Users\DNIEL~1\AppData\Local\Temp\ccj8eOdI.s 			page 61


 3360 0073 74726566 		.ascii	"trefs_t\000"
 3360      735F7400 
 3361 007b D9000000 		.4byte	0xd9
 3362 007f 74736C69 		.ascii	"tslices_t\000"
 3362      6365735F 
 3362      7400
 3363 0089 E4000000 		.4byte	0xe4
 3364 008d 74707269 		.ascii	"tprio_t\000"
 3364      6F5F7400 
 3365 0095 EF000000 		.4byte	0xef
 3366 0099 6D73675F 		.ascii	"msg_t\000"
 3366      7400
 3367 009f FA000000 		.4byte	0xfa
 3368 00a3 6576656E 		.ascii	"eventmask_t\000"
 3368      746D6173 
 3368      6B5F7400 
 3369 00af 05010000 		.4byte	0x105
 3370 00b3 73797374 		.ascii	"systime_t\000"
 3370      696D655F 
 3370      7400
 3371 00bd 10010000 		.4byte	0x110
 3372 00c1 54687265 		.ascii	"Thread\000"
 3372      616400
 3373 00c8 6B020000 		.4byte	0x26b
 3374 00cc 54687265 		.ascii	"ThreadsQueue\000"
 3374      61647351 
 3374      75657565 
 3374      00
 3375 00d9 8D020000 		.4byte	0x28d
 3376 00dd 54687265 		.ascii	"ThreadsList\000"
 3376      6164734C 
 3376      69737400 
 3377 00e9 98020000 		.4byte	0x298
 3378 00ed 72656761 		.ascii	"regarm_t\000"
 3378      726D5F74 
 3378      00
 3379 00f6 A5020000 		.4byte	0x2a5
 3380 00fa 696E7463 		.ascii	"intctx\000"
 3380      747800
 3381 0101 33030000 		.4byte	0x333
 3382 0105 636F6E74 		.ascii	"context\000"
 3382      65787400 
 3383 010d BD030000 		.4byte	0x3bd
 3384 0111 52656164 		.ascii	"ReadyList\000"
 3384      794C6973 
 3384      7400
 3385 011b C8030000 		.4byte	0x3c8
 3386 011f 4D757465 		.ascii	"Mutex\000"
 3386      7800
 3387 0125 05040000 		.4byte	0x405
 3388 0129 4D757465 		.ascii	"Mutex\000"
 3388      7800
 3389 012f 1B010000 		.4byte	0x11b
 3390 0133 54687265 		.ascii	"Thread\000"
 3390      616400
 3391 013a 96050000 		.4byte	0x596
 3392 013e 4144435F 		.ascii	"ADC_TypeDef\000"
ARM GAS  C:\Users\DNIEL~1\AppData\Local\Temp\ccj8eOdI.s 			page 62


 3392      54797065 
 3392      44656600 
 3393 014a 05060000 		.4byte	0x605
 3394 014e 444D415F 		.ascii	"DMA_Stream_TypeDef\000"
 3394      53747265 
 3394      616D5F54 
 3394      79706544 
 3394      656600
 3395 0161 6C060000 		.4byte	0x66c
 3396 0165 73746D33 		.ascii	"stm32_dma_stream_t\000"
 3396      325F646D 
 3396      615F7374 
 3396      7265616D 
 3396      5F7400
 3397 0178 A4060000 		.4byte	0x6a4
 3398 017c 61646373 		.ascii	"adcstate_t\000"
 3398      74617465 
 3398      5F7400
 3399 0187 AF060000 		.4byte	0x6af
 3400 018b 61646373 		.ascii	"adcsample_t\000"
 3400      616D706C 
 3400      655F7400 
 3401 0197 BB060000 		.4byte	0x6bb
 3402 019b 6164635F 		.ascii	"adc_channels_num_t\000"
 3402      6368616E 
 3402      6E656C73 
 3402      5F6E756D 
 3402      5F7400
 3403 01ae DD060000 		.4byte	0x6dd
 3404 01b2 61646365 		.ascii	"adcerror_t\000"
 3404      72726F72 
 3404      5F7400
 3405 01bd E9060000 		.4byte	0x6e9
 3406 01c1 41444344 		.ascii	"ADCDriver\000"
 3406      72697665 
 3406      7200
 3407 01cb 99070000 		.4byte	0x799
 3408 01cf 61646363 		.ascii	"adccallback_t\000"
 3408      616C6C62 
 3408      61636B5F 
 3408      7400
 3409 01dd CD070000 		.4byte	0x7cd
 3410 01e1 61646365 		.ascii	"adcerrorcallback_t\000"
 3410      72726F72 
 3410      63616C6C 
 3410      6261636B 
 3410      5F7400
 3411 01f4 9F080000 		.4byte	0x89f
 3412 01f8 41444343 		.ascii	"ADCConversionGroup\000"
 3412      6F6E7665 
 3412      7273696F 
 3412      6E47726F 
 3412      757000
 3413 020b C4080000 		.4byte	0x8c4
 3414 020f 41444343 		.ascii	"ADCConfig\000"
 3414      6F6E6669 
 3414      6700
ARM GAS  C:\Users\DNIEL~1\AppData\Local\Temp\ccj8eOdI.s 			page 63


 3415 0219 F5060000 		.4byte	0x6f5
 3416 021d 41444344 		.ascii	"ADCDriver\000"
 3416      72697665 
 3416      7200
 3417 0227 00000000 		.4byte	0x0
 3418              		.section	.debug_aranges,"",%progbits
 3419 0000 6C000000 		.4byte	0x6c
 3420 0004 0200     		.2byte	0x2
 3421 0006 00000000 		.4byte	.Ldebug_info0
 3422 000a 04       		.byte	0x4
 3423 000b 00       		.byte	0x0
 3424 000c 0000     		.2byte	0x0
 3425 000e 0000     		.2byte	0x0
 3426 0010 00000000 		.4byte	.LFB118
 3427 0014 04000000 		.4byte	.LFE118-.LFB118
 3428 0018 00000000 		.4byte	.LFB119
 3429 001c 16000000 		.4byte	.LFE119-.LFB119
 3430 0020 00000000 		.4byte	.LFB120
 3431 0024 1C000000 		.4byte	.LFE120-.LFB120
 3432 0028 00000000 		.4byte	.LFB121
 3433 002c 1A000000 		.4byte	.LFE121-.LFB121
 3434 0030 00000000 		.4byte	.LFB122
 3435 0034 20000000 		.4byte	.LFE122-.LFB122
 3436 0038 00000000 		.4byte	.LFB123
 3437 003c 12000000 		.4byte	.LFE123-.LFB123
 3438 0040 00000000 		.4byte	.LFB124
 3439 0044 32000000 		.4byte	.LFE124-.LFB124
 3440 0048 00000000 		.4byte	.LFB125
 3441 004c 2E000000 		.4byte	.LFE125-.LFB125
 3442 0050 00000000 		.4byte	.LFB126
 3443 0054 38000000 		.4byte	.LFE126-.LFB126
 3444 0058 00000000 		.4byte	.LFB127
 3445 005c 06000000 		.4byte	.LFE127-.LFB127
 3446 0060 00000000 		.4byte	.LFB128
 3447 0064 04000000 		.4byte	.LFE128-.LFB128
 3448 0068 00000000 		.4byte	0x0
 3449 006c 00000000 		.4byte	0x0
 3450              		.section	.debug_ranges,"",%progbits
 3451              	.Ldebug_ranges0:
 3452 0000 02000000 		.4byte	.LBB10
 3453 0004 04000000 		.4byte	.LBE10
 3454 0008 06000000 		.4byte	.LBB11
 3455 000c 0A000000 		.4byte	.LBE11
 3456 0010 00000000 		.4byte	0x0
 3457 0014 00000000 		.4byte	0x0
 3458 0018 02000000 		.4byte	.LBB13
 3459 001c 04000000 		.4byte	.LBE13
 3460 0020 06000000 		.4byte	.LBB14
 3461 0024 0A000000 		.4byte	.LBE14
 3462 0028 00000000 		.4byte	0x0
 3463 002c 00000000 		.4byte	0x0
 3464 0030 02000000 		.4byte	.LBB20
 3465 0034 04000000 		.4byte	.LBE20
 3466 0038 06000000 		.4byte	.LBB21
 3467 003c 0A000000 		.4byte	.LBE21
 3468 0040 00000000 		.4byte	0x0
 3469 0044 00000000 		.4byte	0x0
ARM GAS  C:\Users\DNIEL~1\AppData\Local\Temp\ccj8eOdI.s 			page 64


 3470 0048 1A000000 		.4byte	.LBB24
 3471 004c 24000000 		.4byte	.LBE24
 3472 0050 28000000 		.4byte	.LBB25
 3473 0054 2E000000 		.4byte	.LBE25
 3474 0058 00000000 		.4byte	0x0
 3475 005c 00000000 		.4byte	0x0
 3476 0060 28000000 		.4byte	.LBB29
 3477 0064 2A000000 		.4byte	.LBE29
 3478 0068 2C000000 		.4byte	.LBB30
 3479 006c 30000000 		.4byte	.LBE30
 3480 0070 00000000 		.4byte	0x0
 3481 0074 00000000 		.4byte	0x0
 3482 0078 00000000 		.4byte	.LFB118
 3483 007c 04000000 		.4byte	.LFE118
 3484 0080 00000000 		.4byte	.LFB119
 3485 0084 16000000 		.4byte	.LFE119
 3486 0088 00000000 		.4byte	.LFB120
 3487 008c 1C000000 		.4byte	.LFE120
 3488 0090 00000000 		.4byte	.LFB121
 3489 0094 1A000000 		.4byte	.LFE121
 3490 0098 00000000 		.4byte	.LFB122
 3491 009c 20000000 		.4byte	.LFE122
 3492 00a0 00000000 		.4byte	.LFB123
 3493 00a4 12000000 		.4byte	.LFE123
 3494 00a8 00000000 		.4byte	.LFB124
 3495 00ac 32000000 		.4byte	.LFE124
 3496 00b0 00000000 		.4byte	.LFB125
 3497 00b4 2E000000 		.4byte	.LFE125
 3498 00b8 00000000 		.4byte	.LFB126
 3499 00bc 38000000 		.4byte	.LFE126
 3500 00c0 00000000 		.4byte	.LFB127
 3501 00c4 06000000 		.4byte	.LFE127
 3502 00c8 00000000 		.4byte	.LFB128
 3503 00cc 04000000 		.4byte	.LFE128
 3504 00d0 00000000 		.4byte	0x0
 3505 00d4 00000000 		.4byte	0x0
 3506              		.section	.debug_str,"MS",%progbits,1
 3507              	.LASF81:
 3508 0000 4D304152 		.ascii	"M0AR\000"
 3508      00
 3509              	.LASF2:
 3510 0005 73697A65 		.ascii	"size_t\000"
 3510      5F7400
 3511              	.LASF60:
 3512 000c 7264796D 		.ascii	"rdymsg\000"
 3512      736700
 3513              	.LASF111:
 3514 0013 646D616D 		.ascii	"dmamode\000"
 3514      6F646500 
 3515              	.LASF96:
 3516 001b 61646373 		.ascii	"adcstate_t\000"
 3516      74617465 
 3516      5F7400
 3517              	.LASF129:
 3518 0026 61646353 		.ascii	"adcStop\000"
 3518      746F7000 
 3519              	.LASF84:
ARM GAS  C:\Users\DNIEL~1\AppData\Local\Temp\ccj8eOdI.s 			page 65


 3520 002e 73747265 		.ascii	"stream\000"
 3520      616D00
 3521              	.LASF13:
 3522 0035 6C6F6E67 		.ascii	"long long unsigned int\000"
 3522      206C6F6E 
 3522      6720756E 
 3522      7369676E 
 3522      65642069 
 3523              	.LASF61:
 3524 004c 65786974 		.ascii	"exitcode\000"
 3524      636F6465 
 3524      00
 3525              	.LASF88:
 3526 0055 76656374 		.ascii	"vector\000"
 3526      6F7200
 3527              	.LASF136:
 3528 005c 49544D5F 		.ascii	"ITM_RxBuffer\000"
 3528      52784275 
 3528      66666572 
 3528      00
 3529              	.LASF27:
 3530 0069 705F7072 		.ascii	"p_prio\000"
 3530      696F00
 3531              	.LASF74:
 3532 0070 4A535152 		.ascii	"JSQR\000"
 3532      00
 3533              	.LASF12:
 3534 0075 6C6F6E67 		.ascii	"long long int\000"
 3534      206C6F6E 
 3534      6720696E 
 3534      7400
 3535              	.LASF1:
 3536 0083 7369676E 		.ascii	"signed char\000"
 3536      65642063 
 3536      68617200 
 3537              	.LASF43:
 3538 008f 705F6D70 		.ascii	"p_mpool\000"
 3538      6F6F6C00 
 3539              	.LASF14:
 3540 0097 626F6F6C 		.ascii	"bool_t\000"
 3540      5F7400
 3541              	.LASF57:
 3542 009e 6D5F7175 		.ascii	"m_queue\000"
 3542      65756500 
 3543              	.LASF101:
 3544 00a6 61646365 		.ascii	"adcerror_t\000"
 3544      72726F72 
 3544      5F7400
 3545              	.LASF110:
 3546 00b1 646D6173 		.ascii	"dmastp\000"
 3546      747000
 3547              	.LASF103:
 3548 00b8 73746174 		.ascii	"state\000"
 3548      6500
 3549              	.LASF114:
 3550 00be 63697263 		.ascii	"circular\000"
 3550      756C6172 
ARM GAS  C:\Users\DNIEL~1\AppData\Local\Temp\ccj8eOdI.s 			page 66


 3550      00
 3551              	.LASF9:
 3552 00c7 6C6F6E67 		.ascii	"long int\000"
 3552      20696E74 
 3552      00
 3553              	.LASF99:
 3554 00d0 4144435F 		.ascii	"ADC_ERR_DMAFAILURE\000"
 3554      4552525F 
 3554      444D4146 
 3554      41494C55 
 3554      524500
 3555              	.LASF113:
 3556 00e3 61646365 		.ascii	"adcerrorcallback_t\000"
 3556      72726F72 
 3556      63616C6C 
 3556      6261636B 
 3556      5F7400
 3557              	.LASF17:
 3558 00f6 74737461 		.ascii	"tstate_t\000"
 3558      74655F74 
 3558      00
 3559              	.LASF108:
 3560 00ff 74687265 		.ascii	"thread\000"
 3560      616400
 3561              	.LASF6:
 3562 0106 75696E74 		.ascii	"uint16_t\000"
 3562      31365F74 
 3562      00
 3563              	.LASF36:
 3564 010f 705F7469 		.ascii	"p_time\000"
 3564      6D6500
 3565              	.LASF79:
 3566 0116 4144435F 		.ascii	"ADC_TypeDef\000"
 3566      54797065 
 3566      44656600 
 3567              	.LASF29:
 3568 0122 705F6E65 		.ascii	"p_newer\000"
 3568      77657200 
 3569              	.LASF116:
 3570 012a 656E645F 		.ascii	"end_cb\000"
 3570      636200
 3571              	.LASF112:
 3572 0131 61646363 		.ascii	"adccallback_t\000"
 3572      616C6C62 
 3572      61636B5F 
 3572      7400
 3573              	.LASF97:
 3574 013f 61646373 		.ascii	"adcsample_t\000"
 3574      616D706C 
 3574      655F7400 
 3575              	.LASF52:
 3576 014b 725F6E65 		.ascii	"r_newer\000"
 3576      77657200 
 3577              	.LASF125:
 3578 0153 41444343 		.ascii	"ADCConfig\000"
 3578      6F6E6669 
 3578      6700
ARM GAS  C:\Users\DNIEL~1\AppData\Local\Temp\ccj8eOdI.s 			page 67


 3579              	.LASF46:
 3580 015d 72656761 		.ascii	"regarm_t\000"
 3580      726D5F74 
 3580      00
 3581              	.LASF138:
 3582 0166 2E2E2F2E 		.ascii	"../../../ChibiOS/os/hal/src/adc.c\000"
 3582      2E2F2E2E 
 3582      2F436869 
 3582      62694F53 
 3582      2F6F732F 
 3583              	.LASF124:
 3584 0188 64756D6D 		.ascii	"dummy\000"
 3584      7900
 3585              	.LASF90:
 3586 018e 4144435F 		.ascii	"ADC_UNINIT\000"
 3586      554E494E 
 3586      495400
 3587              	.LASF100:
 3588 0199 4144435F 		.ascii	"ADC_ERR_OVERFLOW\000"
 3588      4552525F 
 3588      4F564552 
 3588      464C4F57 
 3588      00
 3589              	.LASF93:
 3590 01aa 4144435F 		.ascii	"ADC_ACTIVE\000"
 3590      41435449 
 3590      564500
 3591              	.LASF0:
 3592 01b5 756E7369 		.ascii	"unsigned int\000"
 3592      676E6564 
 3592      20696E74 
 3592      00
 3593              	.LASF127:
 3594 01c2 6164634F 		.ascii	"adcObjectInit\000"
 3594      626A6563 
 3594      74496E69 
 3594      7400
 3595              	.LASF38:
 3596 01d0 705F6D73 		.ascii	"p_msgqueue\000"
 3596      67717565 
 3596      756500
 3597              	.LASF102:
 3598 01db 41444344 		.ascii	"ADCDriver\000"
 3598      72697665 
 3598      7200
 3599              	.LASF126:
 3600 01e5 61646370 		.ascii	"adcp\000"
 3600      00
 3601              	.LASF86:
 3602 01ea 69736869 		.ascii	"ishift\000"
 3602      667400
 3603              	.LASF7:
 3604 01f1 73686F72 		.ascii	"short unsigned int\000"
 3604      7420756E 
 3604      7369676E 
 3604      65642069 
 3604      6E7400
ARM GAS  C:\Users\DNIEL~1\AppData\Local\Temp\ccj8eOdI.s 			page 68


 3605              	.LASF92:
 3606 0204 4144435F 		.ascii	"ADC_READY\000"
 3606      52454144 
 3606      5900
 3607              	.LASF106:
 3608 020e 64657074 		.ascii	"depth\000"
 3608      6800
 3609              	.LASF21:
 3610 0214 6D73675F 		.ascii	"msg_t\000"
 3610      7400
 3611              	.LASF87:
 3612 021a 73656C66 		.ascii	"selfindex\000"
 3612      696E6465 
 3612      7800
 3613              	.LASF137:
 3614 0224 474E5520 		.ascii	"GNU C 4.5.2\000"
 3614      4320342E 
 3614      352E3200 
 3615              	.LASF16:
 3616 0230 746D6F64 		.ascii	"tmode_t\000"
 3616      655F7400 
 3617              	.LASF115:
 3618 0238 6E756D5F 		.ascii	"num_channels\000"
 3618      6368616E 
 3618      6E656C73 
 3618      00
 3619              	.LASF45:
 3620 0245 54687265 		.ascii	"ThreadsList\000"
 3620      6164734C 
 3620      69737400 
 3621              	.LASF22:
 3622 0251 6576656E 		.ascii	"eventmask_t\000"
 3622      746D6173 
 3622      6B5F7400 
 3623              	.LASF141:
 3624 025d 61646349 		.ascii	"adcInit\000"
 3624      6E697400 
 3625              	.LASF134:
 3626 0265 61646352 		.ascii	"adcReleaseBus\000"
 3626      656C6561 
 3626      73654275 
 3626      7300
 3627              	.LASF107:
 3628 0273 67727070 		.ascii	"grpp\000"
 3628      00
 3629              	.LASF67:
 3630 0278 4A4F4652 		.ascii	"JOFR1\000"
 3630      3100
 3631              	.LASF68:
 3632 027e 4A4F4652 		.ascii	"JOFR2\000"
 3632      3200
 3633              	.LASF69:
 3634 0284 4A4F4652 		.ascii	"JOFR3\000"
 3634      3300
 3635              	.LASF105:
 3636 028a 73616D70 		.ascii	"samples\000"
 3636      6C657300 
ARM GAS  C:\Users\DNIEL~1\AppData\Local\Temp\ccj8eOdI.s 			page 69


 3637              	.LASF56:
 3638 0292 4D757465 		.ascii	"Mutex\000"
 3638      7800
 3639              	.LASF91:
 3640 0298 4144435F 		.ascii	"ADC_STOP\000"
 3640      53544F50 
 3640      00
 3641              	.LASF30:
 3642 02a1 705F6F6C 		.ascii	"p_older\000"
 3642      64657200 
 3643              	.LASF51:
 3644 02a9 725F6374 		.ascii	"r_ctx\000"
 3644      7800
 3645              	.LASF44:
 3646 02af 54687265 		.ascii	"ThreadsQueue\000"
 3646      61647351 
 3646      75657565 
 3646      00
 3647              	.LASF65:
 3648 02bc 534D5052 		.ascii	"SMPR1\000"
 3648      3100
 3649              	.LASF66:
 3650 02c2 534D5052 		.ascii	"SMPR2\000"
 3650      3200
 3651              	.LASF59:
 3652 02c8 6D5F6E65 		.ascii	"m_next\000"
 3652      787400
 3653              	.LASF54:
 3654 02cf 725F6375 		.ascii	"r_current\000"
 3654      7272656E 
 3654      7400
 3655              	.LASF53:
 3656 02d9 725F6F6C 		.ascii	"r_older\000"
 3656      64657200 
 3657              	.LASF71:
 3658 02e1 53515231 		.ascii	"SQR1\000"
 3658      00
 3659              	.LASF72:
 3660 02e6 53515232 		.ascii	"SQR2\000"
 3660      00
 3661              	.LASF73:
 3662 02eb 53515233 		.ascii	"SQR3\000"
 3662      00
 3663              	.LASF140:
 3664 02f0 61646353 		.ascii	"adcStartConversionI\000"
 3664      74617274 
 3664      436F6E76 
 3664      65727369 
 3664      6F6E4900 
 3665              	.LASF18:
 3666 0304 74726566 		.ascii	"trefs_t\000"
 3666      735F7400 
 3667              	.LASF26:
 3668 030c 705F7072 		.ascii	"p_prev\000"
 3668      657600
 3669              	.LASF89:
 3670 0313 73746D33 		.ascii	"stm32_dma_stream_t\000"
ARM GAS  C:\Users\DNIEL~1\AppData\Local\Temp\ccj8eOdI.s 			page 70


 3670      325F646D 
 3670      615F7374 
 3670      7265616D 
 3670      5F7400
 3671              	.LASF20:
 3672 0326 74707269 		.ascii	"tprio_t\000"
 3672      6F5F7400 
 3673              	.LASF109:
 3674 032e 6D757465 		.ascii	"mutex\000"
 3674      7800
 3675              	.LASF15:
 3676 0334 5F426F6F 		.ascii	"_Bool\000"
 3676      6C00
 3677              	.LASF8:
 3678 033a 696E7433 		.ascii	"int32_t\000"
 3678      325F7400 
 3679              	.LASF4:
 3680 0342 756E7369 		.ascii	"unsigned char\000"
 3680      676E6564 
 3680      20636861 
 3680      7200
 3681              	.LASF139:
 3682 0350 433A5C44 		.ascii	"C:\\Dani\\MegaLux\\Repo\\Smarty\\Smarty\\smarty\\fi"
 3682      616E695C 
 3682      4D656761 
 3682      4C75785C 
 3682      5265706F 
 3683 037c 726D7761 		.ascii	"rmware\000"
 3683      726500
 3684              	.LASF41:
 3685 0383 705F6D74 		.ascii	"p_mtxlist\000"
 3685      786C6973 
 3685      7400
 3686              	.LASF5:
 3687 038d 73686F72 		.ascii	"short int\000"
 3687      7420696E 
 3687      7400
 3688              	.LASF32:
 3689 0397 705F7374 		.ascii	"p_state\000"
 3689      61746500 
 3690              	.LASF35:
 3691 039f 705F7072 		.ascii	"p_preempt\000"
 3691      65656D70 
 3691      7400
 3692              	.LASF117:
 3693 03a9 6572726F 		.ascii	"error_cb\000"
 3693      725F6362 
 3693      00
 3694              	.LASF50:
 3695 03b2 725F7072 		.ascii	"r_prio\000"
 3695      696F00
 3696              	.LASF63:
 3697 03b9 65776D61 		.ascii	"ewmask\000"
 3697      736B00
 3698              	.LASF25:
 3699 03c0 705F6E65 		.ascii	"p_next\000"
 3699      787400
ARM GAS  C:\Users\DNIEL~1\AppData\Local\Temp\ccj8eOdI.s 			page 71


 3700              	.LASF33:
 3701 03c7 705F666C 		.ascii	"p_flags\000"
 3701      61677300 
 3702              	.LASF70:
 3703 03cf 4A4F4652 		.ascii	"JOFR4\000"
 3703      3400
 3704              	.LASF24:
 3705 03d5 54687265 		.ascii	"Thread\000"
 3705      616400
 3706              	.LASF40:
 3707 03dc 705F6570 		.ascii	"p_epending\000"
 3707      656E6469 
 3707      6E6700
 3708              	.LASF85:
 3709 03e7 69666372 		.ascii	"ifcr\000"
 3709      00
 3710              	.LASF10:
 3711 03ec 75696E74 		.ascii	"uint32_t\000"
 3711      33325F74 
 3711      00
 3712              	.LASF49:
 3713 03f5 725F7175 		.ascii	"r_queue\000"
 3713      65756500 
 3714              	.LASF19:
 3715 03fd 74736C69 		.ascii	"tslices_t\000"
 3715      6365735F 
 3715      7400
 3716              	.LASF11:
 3717 0407 6C6F6E67 		.ascii	"long unsigned int\000"
 3717      20756E73 
 3717      69676E65 
 3717      6420696E 
 3717      7400
 3718              	.LASF64:
 3719 0419 63686172 		.ascii	"char\000"
 3719      00
 3720              	.LASF104:
 3721 041e 636F6E66 		.ascii	"config\000"
 3721      696700
 3722              	.LASF120:
 3723 0425 73717231 		.ascii	"sqr1\000"
 3723      00
 3724              	.LASF121:
 3725 042a 73717232 		.ascii	"sqr2\000"
 3725      00
 3726              	.LASF122:
 3727 042f 73717233 		.ascii	"sqr3\000"
 3727      00
 3728              	.LASF23:
 3729 0434 73797374 		.ascii	"systime_t\000"
 3729      696D655F 
 3729      7400
 3730              	.LASF42:
 3731 043e 705F7265 		.ascii	"p_realprio\000"
 3731      616C7072 
 3731      696F00
 3732              	.LASF80:
ARM GAS  C:\Users\DNIEL~1\AppData\Local\Temp\ccj8eOdI.s 			page 72


 3733 0449 4E445452 		.ascii	"NDTR\000"
 3733      00
 3734              	.LASF83:
 3735 044e 444D415F 		.ascii	"DMA_Stream_TypeDef\000"
 3735      53747265 
 3735      616D5F54 
 3735      79706544 
 3735      656600
 3736              	.LASF48:
 3737 0461 636F6E74 		.ascii	"context\000"
 3737      65787400 
 3738              	.LASF130:
 3739 0469 61646353 		.ascii	"adcStartConversion\000"
 3739      74617274 
 3739      436F6E76 
 3739      65727369 
 3739      6F6E00
 3740              	.LASF47:
 3741 047c 696E7463 		.ascii	"intctx\000"
 3741      747800
 3742              	.LASF82:
 3743 0483 4D314152 		.ascii	"M1AR\000"
 3743      00
 3744              	.LASF95:
 3745 0488 4144435F 		.ascii	"ADC_ERROR\000"
 3745      4552524F 
 3745      5200
 3746              	.LASF128:
 3747 0492 61646353 		.ascii	"adcStart\000"
 3747      74617274 
 3747      00
 3748              	.LASF34:
 3749 049b 705F7265 		.ascii	"p_refs\000"
 3749      667300
 3750              	.LASF55:
 3751 04a2 52656164 		.ascii	"ReadyList\000"
 3751      794C6973 
 3751      7400
 3752              	.LASF118:
 3753 04ac 736D7072 		.ascii	"smpr1\000"
 3753      3100
 3754              	.LASF119:
 3755 04b2 736D7072 		.ascii	"smpr2\000"
 3755      3200
 3756              	.LASF135:
 3757 04b8 726C6973 		.ascii	"rlist\000"
 3757      7400
 3758              	.LASF3:
 3759 04be 75696E74 		.ascii	"uint8_t\000"
 3759      385F7400 
 3760              	.LASF132:
 3761 04c6 61646353 		.ascii	"adcStopConversionI\000"
 3761      746F7043 
 3761      6F6E7665 
 3761      7273696F 
 3761      6E4900
 3762              	.LASF123:
ARM GAS  C:\Users\DNIEL~1\AppData\Local\Temp\ccj8eOdI.s 			page 73


 3763 04d9 41444343 		.ascii	"ADCConversionGroup\000"
 3763      6F6E7665 
 3763      7273696F 
 3763      6E47726F 
 3763      757000
 3764              	.LASF75:
 3765 04ec 4A445231 		.ascii	"JDR1\000"
 3765      00
 3766              	.LASF76:
 3767 04f1 4A445232 		.ascii	"JDR2\000"
 3767      00
 3768              	.LASF77:
 3769 04f6 4A445233 		.ascii	"JDR3\000"
 3769      00
 3770              	.LASF78:
 3771 04fb 4A445234 		.ascii	"JDR4\000"
 3771      00
 3772              	.LASF62:
 3773 0500 77746F62 		.ascii	"wtobjp\000"
 3773      6A7000
 3774              	.LASF94:
 3775 0507 4144435F 		.ascii	"ADC_COMPLETE\000"
 3775      434F4D50 
 3775      4C455445 
 3775      00
 3776              	.LASF31:
 3777 0514 705F6E61 		.ascii	"p_name\000"
 3777      6D6500
 3778              	.LASF98:
 3779 051b 6164635F 		.ascii	"adc_channels_num_t\000"
 3779      6368616E 
 3779      6E656C73 
 3779      5F6E756D 
 3779      5F7400
 3780              	.LASF39:
 3781 052e 705F6D73 		.ascii	"p_msg\000"
 3781      6700
 3782              	.LASF142:
 3783 0534 61646343 		.ascii	"adcConvert\000"
 3783      6F6E7665 
 3783      727400
 3784              	.LASF131:
 3785 053f 61646353 		.ascii	"adcStopConversion\000"
 3785      746F7043 
 3785      6F6E7665 
 3785      7273696F 
 3785      6E00
 3786              	.LASF58:
 3787 0551 6D5F6F77 		.ascii	"m_owner\000"
 3787      6E657200 
 3788              	.LASF133:
 3789 0559 61646341 		.ascii	"adcAcquireBus\000"
 3789      63717569 
 3789      72654275 
 3789      7300
 3790              	.LASF28:
 3791 0567 705F6374 		.ascii	"p_ctx\000"
ARM GAS  C:\Users\DNIEL~1\AppData\Local\Temp\ccj8eOdI.s 			page 74


 3791      7800
 3792              	.LASF37:
 3793 056d 705F7761 		.ascii	"p_waiting\000"
 3793      6974696E 
 3793      6700
 3794              		.ident	"GCC: (Sourcery G++ Lite 2011.03-42) 4.5.2"
ARM GAS  C:\Users\DNIEL~1\AppData\Local\Temp\ccj8eOdI.s 			page 75


DEFINED SYMBOLS
                            *ABS*:00000000 adc.c
C:\Users\DNIEL~1\AppData\Local\Temp\ccj8eOdI.s:24     .text.adcInit:00000000 $t
C:\Users\DNIEL~1\AppData\Local\Temp\ccj8eOdI.s:30     .text.adcInit:00000000 adcInit
C:\Users\DNIEL~1\AppData\Local\Temp\ccj8eOdI.s:45     .text.adcObjectInit:00000000 $t
C:\Users\DNIEL~1\AppData\Local\Temp\ccj8eOdI.s:51     .text.adcObjectInit:00000000 adcObjectInit
C:\Users\DNIEL~1\AppData\Local\Temp\ccj8eOdI.s:84     .text.adcStart:00000000 $t
C:\Users\DNIEL~1\AppData\Local\Temp\ccj8eOdI.s:90     .text.adcStart:00000000 adcStart
C:\Users\DNIEL~1\AppData\Local\Temp\ccj8eOdI.s:141    .text.adcStop:00000000 $t
C:\Users\DNIEL~1\AppData\Local\Temp\ccj8eOdI.s:147    .text.adcStop:00000000 adcStop
C:\Users\DNIEL~1\AppData\Local\Temp\ccj8eOdI.s:196    .text.adcStartConversion:00000000 $t
C:\Users\DNIEL~1\AppData\Local\Temp\ccj8eOdI.s:202    .text.adcStartConversion:00000000 adcStartConversion
C:\Users\DNIEL~1\AppData\Local\Temp\ccj8eOdI.s:261    .text.adcStartConversionI:00000000 $t
C:\Users\DNIEL~1\AppData\Local\Temp\ccj8eOdI.s:267    .text.adcStartConversionI:00000000 adcStartConversionI
C:\Users\DNIEL~1\AppData\Local\Temp\ccj8eOdI.s:298    .text.adcStopConversion:00000000 $t
C:\Users\DNIEL~1\AppData\Local\Temp\ccj8eOdI.s:304    .text.adcStopConversion:00000000 adcStopConversion
C:\Users\DNIEL~1\AppData\Local\Temp\ccj8eOdI.s:376    .text.adcStopConversionI:00000000 $t
C:\Users\DNIEL~1\AppData\Local\Temp\ccj8eOdI.s:382    .text.adcStopConversionI:00000000 adcStopConversionI
C:\Users\DNIEL~1\AppData\Local\Temp\ccj8eOdI.s:438    .text.adcConvert:00000000 $t
C:\Users\DNIEL~1\AppData\Local\Temp\ccj8eOdI.s:444    .text.adcConvert:00000000 adcConvert
C:\Users\DNIEL~1\AppData\Local\Temp\ccj8eOdI.s:522    .text.adcConvert:00000034 $d
C:\Users\DNIEL~1\AppData\Local\Temp\ccj8eOdI.s:527    .text.adcAcquireBus:00000000 $t
C:\Users\DNIEL~1\AppData\Local\Temp\ccj8eOdI.s:533    .text.adcAcquireBus:00000000 adcAcquireBus
C:\Users\DNIEL~1\AppData\Local\Temp\ccj8eOdI.s:551    .text.adcReleaseBus:00000000 $t
C:\Users\DNIEL~1\AppData\Local\Temp\ccj8eOdI.s:557    .text.adcReleaseBus:00000000 adcReleaseBus
                     .debug_frame:00000010 $d
C:\Users\DNIEL~1\AppData\Local\Temp\ccj8eOdI.s:3794   .text.adcConvert:00000038 $t

UNDEFINED SYMBOLS
adc_lld_init
chMtxInit
adc_lld_start
adc_lld_stop
adc_lld_start_conversion
adc_lld_stop_conversion
chSchWakeupS
chSchReadyI
chSchGoSleepS
rlist
chMtxLock
chMtxUnlock
