ARM GAS  C:\Users\DNIEL~1\AppData\Local\Temp\cc2SpX71.s 			page 1


   1              		.syntax unified
   2              		.cpu cortex-m4
   3              		.fpu softvfp
   4              		.eabi_attribute 20, 1
   5              		.eabi_attribute 21, 1
   6              		.eabi_attribute 23, 3
   7              		.eabi_attribute 24, 1
   8              		.eabi_attribute 25, 1
   9              		.eabi_attribute 26, 1
  10              		.eabi_attribute 30, 2
  11              		.eabi_attribute 18, 4
  12              		.thumb
  13              		.file	"dsp.c"
  20 0000 1C060000 		.text
  20      02007D02 
  20      00000201 
  20      FB0E0D00 
  20      01010101 
  21              	.Ltext0:
  22              		.cfi_sections	.debug_frame
  23              		.section	.text.chprintf,"ax",%progbits
  24              		.align	2
  25              		.p2align 4,,15
  26              		.thumb
  27              		.thumb_func
  28              		.type	chprintf, %function
  29              	chprintf:
  30              	.LFB118:
  31              		.file 1 "../../../ChibiOS/os/various/chprintf.h"
  32              		.loc 1 69 0
  33              		.cfi_startproc
  34              		@ args = 4, pretend = 12, frame = 8
  35              		@ frame_needed = 0, uses_anonymous_args = 1
  36              	.LVL0:
  37 0000 0EB4     		push	{r1, r2, r3}
  38              	.LCFI0:
  39              		.cfi_def_cfa_offset 12
  40 0002 00B5     		push	{lr}
  41              	.LCFI1:
  42              		.cfi_def_cfa_offset 16
  43 0004 82B0     		sub	sp, sp, #8
  44              	.LCFI2:
  45              		.cfi_def_cfa_offset 24
  46              		.loc 1 69 0
  47 0006 03AB     		add	r3, sp, #12
  48              		.cfi_offset 14, -16
  49              		.cfi_offset 3, -4
  50              		.cfi_offset 2, -8
  51              		.cfi_offset 1, -12
  52 0008 53F8041B 		ldr	r1, [r3], #4
  53              		.loc 1 73 0
ARM GAS  C:\Users\DNIEL~1\AppData\Local\Temp\cc2SpX71.s 			page 2


  54 000c 1A46     		mov	r2, r3
  55              		.loc 1 72 0
  56 000e 0193     		str	r3, [sp, #4]
  57              		.loc 1 73 0
  58 0010 FFF7FEFF 		bl	chvprintf
  59              	.LVL1:
  60              		.loc 1 75 0
  61 0014 02B0     		add	sp, sp, #8
  62 0016 5DF804EB 		pop	{lr}
  63 001a 03B0     		add	sp, sp, #12
  64 001c 7047     		bx	lr
  65              		.cfi_endproc
  66              	.LFE118:
  67              		.size	chprintf, .-chprintf
  68 001e 00BF     		.section	.text.dspTask,"ax",%progbits
  69              		.align	2
  70              		.p2align 4,,15
  71              		.thumb
  72              		.thumb_func
  73              		.type	dspTask, %function
  74              	dspTask:
  75              	.LFB123:
  76              		.file 2 "src/dsp.c"
  77              		.loc 2 200 0
  78              		.cfi_startproc
  79              		@ args = 0, pretend = 0, frame = 8
  80              		@ frame_needed = 0, uses_anonymous_args = 0
  81              	.LVL2:
  82 0000 2DE9F04F 		push	{r4, r5, r6, r7, r8, r9, sl, fp, lr}
  83              	.LCFI3:
  84              		.cfi_def_cfa_offset 36
  85              		.loc 2 204 0
  86 0004 A949     		ldr	r1, .L115
  87              		.loc 2 205 0
  88 0006 AA48     		ldr	r0, .L115+4
  89              	.LVL3:
  90              		.loc 2 204 0
  91 0008 8B69     		ldr	r3, [r1, #24]
  92 000a AA4E     		ldr	r6, .L115+8
  93              		.cfi_offset 14, -4
  94              		.cfi_offset 11, -8
  95              		.cfi_offset 10, -12
  96              		.cfi_offset 9, -16
  97              		.cfi_offset 8, -20
  98              		.cfi_offset 7, -24
  99              		.cfi_offset 6, -28
 100              		.cfi_offset 5, -32
 101              		.cfi_offset 4, -36
 102              		.loc 2 205 0
 103 000c C268     		ldr	r2, [r0, #12]
 104              		.loc 2 204 0
 105 000e AA4A     		ldr	r2, .L115+12
 106 0010 AA4C     		ldr	r4, .L115+16
 107 0012 DFF8B8A2 		ldr	sl, .L115+32
 108 0016 AA4D     		ldr	r5, .L115+20
 109 0018 DFF8B482 		ldr	r8, .L115+36
 110 001c A94F     		ldr	r7, .L115+24
ARM GAS  C:\Users\DNIEL~1\AppData\Local\Temp\cc2SpX71.s 			page 3


 111 001e DFF8A892 		ldr	r9, .L115+28
 112 0022 9A61     		str	r2, [r3, #24]
 113              		.loc 2 200 0
 114 0024 83B0     		sub	sp, sp, #12
 115              	.LCFI4:
 116              		.cfi_def_cfa_offset 48
 117              	.LBB2:
 118              		.loc 2 651 0
 119 0026 B346     		mov	fp, r6
 120 0028 07E0     		b	.L91
 121              	.L3:
 122              		.loc 2 232 0
 123 002a 03F0030C 		and	ip, r3, #3
 124 002e BCF1020F 		cmp	ip, #2
 125 0032 3AD0     		beq	.L111
 126              	.L4:
 127              		.loc 2 658 0
 128 0034 0A20     		movs	r0, #10
 129 0036 FFF7FEFF 		bl	chThdSleep
 130              	.L91:
 131              		.loc 2 210 0
 132 003a 2268     		ldr	r2, [r4, #0]
 133 003c 531C     		adds	r3, r2, #1
 134              		.loc 2 212 0
 135 003e 13F0010F 		tst	r3, #1
 136              		.loc 2 210 0
 137 0042 2360     		str	r3, [r4, #0]
 138              		.loc 2 212 0
 139 0044 F1D0     		beq	.L3
 140              		.loc 2 215 0
 141 0046 0023     		movs	r3, #0
 142 0048 8AF80030 		strb	r3, [sl, #0]
 143              		.loc 2 216 0
 144 004c FFF7FEFF 		bl	bus_Read
 145              		.loc 2 217 0
 146 0050 0628     		cmp	r0, #6
 147              		.loc 2 216 0
 148 0052 8AF80000 		strb	r0, [sl, #0]
 149              		.loc 2 217 0
 150 0056 EDD9     		bls	.L4
 151              		.loc 2 221 0
 152 0058 10F00101 		ands	r1, r0, #1
 153              		.loc 2 223 0
 154 005c 18BF     		it	ne
 155 005e 0121     		movne	r1, #1
 156              		.loc 2 221 0
 157 0060 C0F34003 		ubfx	r3, r0, #1, #1
 158              		.loc 2 223 0
 159 0064 2970     		strb	r1, [r5, #0]
 160              	.LVL4:
 161              		.loc 2 221 0
 162 0066 03B1     		cbz	r3, .L96
 163              		.loc 2 223 0
 164 0068 0123     		movs	r3, #1
 165              	.L96:
 166 006a 6B70     		strb	r3, [r5, #1]
 167              	.LVL5:
ARM GAS  C:\Users\DNIEL~1\AppData\Local\Temp\cc2SpX71.s 			page 4


 168              		.loc 2 221 0
 169 006c C0F38003 		ubfx	r3, r0, #2, #1
 170 0070 03B1     		cbz	r3, .L97
 171              		.loc 2 223 0
 172 0072 0123     		movs	r3, #1
 173              	.L97:
 174 0074 AB70     		strb	r3, [r5, #2]
 175              	.LVL6:
 176              		.loc 2 221 0
 177 0076 C0F3C003 		ubfx	r3, r0, #3, #1
 178 007a 03B1     		cbz	r3, .L98
 179              		.loc 2 223 0
 180 007c 0123     		movs	r3, #1
 181              	.L98:
 182 007e EB70     		strb	r3, [r5, #3]
 183              	.LVL7:
 184              		.loc 2 221 0
 185 0080 C0F30013 		ubfx	r3, r0, #4, #1
 186 0084 03B1     		cbz	r3, .L99
 187              		.loc 2 223 0
 188 0086 0123     		movs	r3, #1
 189              	.L99:
 190 0088 2B71     		strb	r3, [r5, #4]
 191              	.LVL8:
 192              		.loc 2 221 0
 193 008a C0F34013 		ubfx	r3, r0, #5, #1
 194 008e 03B1     		cbz	r3, .L100
 195              		.loc 2 223 0
 196 0090 0123     		movs	r3, #1
 197              	.L100:
 198 0092 6B71     		strb	r3, [r5, #5]
 199              	.LVL9:
 200              		.loc 2 221 0
 201 0094 C0F38013 		ubfx	r3, r0, #6, #1
 202 0098 03B1     		cbz	r3, .L101
 203              		.loc 2 223 0
 204 009a 0123     		movs	r3, #1
 205              	.L101:
 206              		.loc 2 221 0
 207 009c C009     		lsrs	r0, r0, #7
 208              		.loc 2 223 0
 209 009e AB71     		strb	r3, [r5, #6]
 210              	.LVL10:
 211              		.loc 2 221 0
 212 00a0 00F08583 		beq	.L19
 213              		.loc 2 223 0
 214 00a4 0120     		movs	r0, #1
 215 00a6 E871     		strb	r0, [r5, #7]
 216 00a8 C4E7     		b	.L4
 217              	.LVL11:
 218              	.L111:
 219              		.loc 2 234 0
 220 00aa D8F80010 		ldr	r1, [r8, #0]
 221              		.loc 2 237 0
 222 00ae 3868     		ldr	r0, [r7, #0]
 223              		.loc 2 239 0
 224 00b0 3278     		ldrb	r2, [r6, #0]	@ zero_extendqisi2
ARM GAS  C:\Users\DNIEL~1\AppData\Local\Temp\cc2SpX71.s 			page 5


 225              		.loc 2 234 0
 226 00b2 4B1C     		adds	r3, r1, #1
 227              		.loc 2 235 0
 228 00b4 B3F57A7F 		cmp	r3, #1000
 229 00b8 A8BF     		it	ge
 230 00ba 0023     		movge	r3, #0
 231              		.loc 2 237 0
 232 00bc 411C     		adds	r1, r0, #1
 233              		.loc 2 235 0
 234 00be C8F80030 		str	r3, [r8, #0]
 235              		.loc 2 237 0
 236 00c2 3960     		str	r1, [r7, #0]
 237              		.loc 2 239 0
 238 00c4 1E2A     		cmp	r2, #30
 239 00c6 46D8     		bhi	.L22
 240 00c8 DFE812F0 		tbh	[pc, r2, lsl #1]
 241              	.L54:
 242 00cc 1F00     		.2byte	(.L23-.L54)/2
 243 00ce 3F03     		.2byte	(.L24-.L54)/2
 244 00d0 0003     		.2byte	(.L25-.L54)/2
 245 00d2 E002     		.2byte	(.L26-.L54)/2
 246 00d4 CC02     		.2byte	(.L27-.L54)/2
 247 00d6 B702     		.2byte	(.L28-.L54)/2
 248 00d8 9C02     		.2byte	(.L29-.L54)/2
 249 00da C001     		.2byte	(.L30-.L54)/2
 250 00dc 7502     		.2byte	(.L31-.L54)/2
 251 00de 4302     		.2byte	(.L32-.L54)/2
 252 00e0 6402     		.2byte	(.L33-.L54)/2
 253 00e2 DD01     		.2byte	(.L34-.L54)/2
 254 00e4 2302     		.2byte	(.L35-.L54)/2
 255 00e6 0002     		.2byte	(.L36-.L54)/2
 256 00e8 3202     		.2byte	(.L37-.L54)/2
 257 00ea AE01     		.2byte	(.L38-.L54)/2
 258 00ec 9B01     		.2byte	(.L39-.L54)/2
 259 00ee 4F01     		.2byte	(.L40-.L54)/2
 260 00f0 7501     		.2byte	(.L41-.L54)/2
 261 00f2 1601     		.2byte	(.L42-.L54)/2
 262 00f4 8801     		.2byte	(.L43-.L54)/2
 263 00f6 3C01     		.2byte	(.L44-.L54)/2
 264 00f8 6201     		.2byte	(.L45-.L54)/2
 265 00fa 0701     		.2byte	(.L46-.L54)/2
 266 00fc E400     		.2byte	(.L47-.L54)/2
 267 00fe A600     		.2byte	(.L48-.L54)/2
 268 0100 D500     		.2byte	(.L49-.L54)/2
 269 0102 9700     		.2byte	(.L50-.L54)/2
 270 0104 8800     		.2byte	(.L51-.L54)/2
 271 0106 7900     		.2byte	(.L52-.L54)/2
 272 0108 5500     		.2byte	(.L53-.L54)/2
 273              	.L23:
 274              	.LBB3:
 275              		.loc 2 242 0
 276 010a FFF7FEFF 		bl	speedGetSpeed
 277 010e 0028     		cmp	r0, #0
 278 0110 06DD     		ble	.L94
 279              		.loc 2 242 0 is_stmt 0 discriminator 1
 280 0112 FFF7FEFF 		bl	speedGetSpeed
 281 0116 40F2E632 		movw	r2, #998
ARM GAS  C:\Users\DNIEL~1\AppData\Local\Temp\cc2SpX71.s 			page 6


 282 011a 9042     		cmp	r0, r2
 283 011c 40F33F83 		ble	.L112
 284              	.L94:
 285              		.loc 2 246 0 is_stmt 1
 286 0120 0023     		movs	r3, #0
 287              	.L55:
 288              	.LVL12:
 289              		.loc 2 248 0
 290 0122 3278     		ldrb	r2, [r6, #0]	@ zero_extendqisi2
 291 0124 59F82200 		ldr	r0, [r9, r2, lsl #2]
 292 0128 9842     		cmp	r0, r3
 293 012a 00F00B83 		beq	.L56
 294              		.loc 2 249 0
 295 012e 002B     		cmp	r3, #0
 296 0130 00F04E83 		beq	.L57
 297              		.loc 2 250 0
 298 0134 0020     		movs	r0, #0
 299 0136 41F63111 		movw	r1, #6449
 300 013a 0193     		str	r3, [sp, #4]
 301 013c FFF7FEFF 		bl	media_SetSector
 302              	.LVL13:
 303              		.loc 2 251 0
 304 0140 BA20     		movs	r0, #186
 305 0142 3E21     		movs	r1, #62
 306 0144 019A     		ldr	r2, [sp, #4]
 307 0146 FFF7FEFF 		bl	media_VideoFrame
 308 014a 019B     		ldr	r3, [sp, #4]
 309              	.L58:
 310              		.loc 2 258 0
 311 014c 3178     		ldrb	r1, [r6, #0]	@ zero_extendqisi2
 312              		.loc 2 259 0
 313 014e 481C     		adds	r0, r1, #1
 314              		.loc 2 258 0
 315 0150 49F82130 		str	r3, [r9, r1, lsl #2]
 316              		.loc 2 259 0
 317 0154 C2B2     		uxtb	r2, r0
 318              	.L22:
 319              	.LBE3:
 320              		.loc 2 651 0
 321 0156 501C     		adds	r0, r2, #1
 322 0158 5FFA80FE 		uxtb	lr, r0
 323              		.loc 2 652 0
 324 015c 0021     		movs	r1, #0
 325              		.loc 2 653 0
 326 015e BEF11F0F 		cmp	lr, #31
 327              		.loc 2 651 0
 328 0162 86F800E0 		strb	lr, [r6, #0]
 329              		.loc 2 652 0
 330 0166 3960     		str	r1, [r7, #0]
 331              		.loc 2 654 0
 332 0168 88BF     		it	hi
 333 016a 8BF80010 		strbhi	r1, [fp, #0]
 334 016e 61E7     		b	.L4
 335              	.LVL14:
 336              	.L89:
 337              	.LBB4:
 338              		.loc 2 634 0
ARM GAS  C:\Users\DNIEL~1\AppData\Local\Temp\cc2SpX71.s 			page 7


 339 0170 501C     		adds	r0, r2, #1
 340 0172 C2B2     		uxtb	r2, r0
 341 0174 3270     		strb	r2, [r6, #0]
 342              	.LVL15:
 343              	.L53:
 344              		.loc 2 638 0
 345 0176 59F82210 		ldr	r1, [r9, r2, lsl #2]
 346 017a 0129     		cmp	r1, #1
 347 017c 00F01983 		beq	.L90
 348              		.loc 2 639 0
 349 0180 0020     		movs	r0, #0
 350 0182 0B21     		movs	r1, #11
 351 0184 FFF7FEFF 		bl	media_SetSector
 352              		.loc 2 640 0
 353 0188 40F27710 		movw	r0, #375
 354 018c 5021     		movs	r1, #80
 355              	.L105:
 356 018e 0122     		movs	r2, #1
 357 0190 FFF7FEFF 		bl	media_VideoFrame
 358              		.loc 2 642 0
 359 0194 3278     		ldrb	r2, [r6, #0]	@ zero_extendqisi2
 360 0196 4C4B     		ldr	r3, .L115+28
 361 0198 0120     		movs	r0, #1
 362 019a 43F82200 		str	r0, [r3, r2, lsl #2]
 363              	.LBE4:
 364              		.loc 2 651 0
 365 019e 501C     		adds	r0, r2, #1
 366 01a0 5FFA80FE 		uxtb	lr, r0
 367              		.loc 2 652 0
 368 01a4 0021     		movs	r1, #0
 369              		.loc 2 653 0
 370 01a6 BEF11F0F 		cmp	lr, #31
 371              		.loc 2 651 0
 372 01aa 86F800E0 		strb	lr, [r6, #0]
 373              		.loc 2 652 0
 374 01ae 3960     		str	r1, [r7, #0]
 375              		.loc 2 654 0
 376 01b0 88BF     		it	hi
 377 01b2 8BF80010 		strbhi	r1, [fp, #0]
 378 01b6 3DE7     		b	.L4
 379              	.L88:
 380              	.LBB5:
 381              		.loc 2 622 0
 382 01b8 0132     		adds	r2, r2, #1
 383 01ba D2B2     		uxtb	r2, r2
 384 01bc 3270     		strb	r2, [r6, #0]
 385              	.LVL16:
 386              	.L52:
 387              		.loc 2 626 0
 388 01be 59F82230 		ldr	r3, [r9, r2, lsl #2]
 389 01c2 012B     		cmp	r3, #1
 390 01c4 D4D0     		beq	.L89
 391              		.loc 2 627 0
 392 01c6 0020     		movs	r0, #0
 393 01c8 4C21     		movs	r1, #76
 394 01ca FFF7FEFF 		bl	media_SetSector
 395              		.loc 2 628 0
ARM GAS  C:\Users\DNIEL~1\AppData\Local\Temp\cc2SpX71.s 			page 8


 396 01ce 40F27710 		movw	r0, #375
 397 01d2 AA21     		movs	r1, #170
 398 01d4 DBE7     		b	.L105
 399              	.L87:
 400              		.loc 2 610 0
 401 01d6 501C     		adds	r0, r2, #1
 402 01d8 C2B2     		uxtb	r2, r0
 403 01da 3270     		strb	r2, [r6, #0]
 404              	.LVL17:
 405              	.L51:
 406              		.loc 2 614 0
 407 01dc 59F82210 		ldr	r1, [r9, r2, lsl #2]
 408 01e0 0129     		cmp	r1, #1
 409 01e2 E9D0     		beq	.L88
 410              		.loc 2 615 0
 411 01e4 0020     		movs	r0, #0
 412 01e6 0146     		mov	r1, r0
 413 01e8 FFF7FEFF 		bl	media_SetSector
 414              		.loc 2 616 0
 415 01ec 40F27710 		movw	r0, #375
 416 01f0 DB21     		movs	r1, #219
 417 01f2 CCE7     		b	.L105
 418              	.L86:
 419              		.loc 2 598 0
 420 01f4 0132     		adds	r2, r2, #1
 421 01f6 D2B2     		uxtb	r2, r2
 422 01f8 3270     		strb	r2, [r6, #0]
 423              	.LVL18:
 424              	.L50:
 425              		.loc 2 602 0
 426 01fa 59F82230 		ldr	r3, [r9, r2, lsl #2]
 427 01fe 012B     		cmp	r3, #1
 428 0200 E9D0     		beq	.L87
 429              		.loc 2 603 0
 430 0202 0020     		movs	r0, #0
 431 0204 41F6DF11 		movw	r1, #6623
 432 0208 FFF7FEFF 		bl	media_SetSector
 433              		.loc 2 604 0
 434 020c 40F27710 		movw	r0, #375
 435 0210 1A21     		movs	r1, #26
 436 0212 BCE7     		b	.L105
 437              	.L84:
 438              		.loc 2 568 0
 439 0214 0132     		adds	r2, r2, #1
 440 0216 3270     		strb	r2, [r6, #0]
 441              	.LVL19:
 442              	.L48:
 443              		.loc 2 571 0
 444 0218 FFF7FEFF 		bl	cruiseStatus
 445              		.loc 2 578 0
 446 021c 3278     		ldrb	r2, [r6, #0]	@ zero_extendqisi2
 447              		.loc 2 200 0
 448 021e 80F0010C 		eor	ip, r0, #1
 449              		.loc 2 578 0
 450 0222 59F82210 		ldr	r1, [r9, r2, lsl #2]
 451              		.loc 2 573 0
 452 0226 5FFA8CF3 		uxtb	r3, ip
ARM GAS  C:\Users\DNIEL~1\AppData\Local\Temp\cc2SpX71.s 			page 9


 453              	.LVL20:
 454              		.loc 2 578 0
 455 022a 8B42     		cmp	r3, r1
 456 022c 1FD0     		beq	.L85
 457              		.loc 2 579 0
 458 022e 0020     		movs	r0, #0
 459 0230 41F6CC11 		movw	r1, #6604
 460 0234 0193     		str	r3, [sp, #4]
 461 0236 FFF7FEFF 		bl	media_SetSector
 462              	.LVL21:
 463              		.loc 2 580 0
 464 023a 019B     		ldr	r3, [sp, #4]
 465 023c 40F2B110 		movw	r0, #433
 466 0240 3D21     		movs	r1, #61
 467 0242 1A46     		mov	r2, r3
 468              	.L103:
 469              		.loc 2 358 0
 470 0244 FFF7FEFF 		bl	media_VideoFrame
 471              		.loc 2 360 0
 472 0248 9BF80020 		ldrb	r2, [fp, #0]	@ zero_extendqisi2
 473 024c 019B     		ldr	r3, [sp, #4]
 474 024e 1E49     		ldr	r1, .L115+28
 475              	.LBE5:
 476              		.loc 2 651 0
 477 0250 501C     		adds	r0, r2, #1
 478 0252 5FFA80FE 		uxtb	lr, r0
 479              	.LBB6:
 480              		.loc 2 360 0
 481 0256 41F82230 		str	r3, [r1, r2, lsl #2]
 482              	.LBE6:
 483              		.loc 2 652 0
 484 025a 0021     		movs	r1, #0
 485              		.loc 2 653 0
 486 025c BEF11F0F 		cmp	lr, #31
 487              		.loc 2 651 0
 488 0260 86F800E0 		strb	lr, [r6, #0]
 489              		.loc 2 652 0
 490 0264 3960     		str	r1, [r7, #0]
 491              		.loc 2 654 0
 492 0266 88BF     		it	hi
 493 0268 8BF80010 		strbhi	r1, [fp, #0]
 494 026c E2E6     		b	.L4
 495              	.LVL22:
 496              	.L85:
 497              	.LBB7:
 498              		.loc 2 586 0
 499 026e 501C     		adds	r0, r2, #1
 500 0270 C2B2     		uxtb	r2, r0
 501 0272 8BF80020 		strb	r2, [fp, #0]
 502              	.LVL23:
 503              	.L49:
 504              		.loc 2 590 0
 505 0276 59F82210 		ldr	r1, [r9, r2, lsl #2]
 506 027a 0129     		cmp	r1, #1
 507 027c BAD0     		beq	.L86
 508              		.loc 2 591 0
 509 027e 0020     		movs	r0, #0
ARM GAS  C:\Users\DNIEL~1\AppData\Local\Temp\cc2SpX71.s 			page 10


 510 0280 4121     		movs	r1, #65
 511 0282 FFF7FEFF 		bl	media_SetSector
 512              		.loc 2 592 0
 513 0286 40F2B110 		movw	r0, #433
 514 028a 9A21     		movs	r1, #154
 515 028c 7FE7     		b	.L105
 516              	.L83:
 517              		.loc 2 556 0
 518 028e 531C     		adds	r3, r2, #1
 519 0290 DAB2     		uxtb	r2, r3
 520 0292 3270     		strb	r2, [r6, #0]
 521              	.LVL24:
 522              	.L47:
 523              		.loc 2 560 0
 524 0294 59F82210 		ldr	r1, [r9, r2, lsl #2]
 525 0298 0129     		cmp	r1, #1
 526 029a BBD0     		beq	.L84
 527              		.loc 2 561 0
 528 029c 0020     		movs	r0, #0
 529 029e 2721     		movs	r1, #39
 530 02a0 FFF7FEFF 		bl	media_SetSector
 531              		.loc 2 562 0
 532 02a4 40F2B110 		movw	r0, #433
 533 02a8 0721     		movs	r1, #7
 534 02aa 70E7     		b	.L105
 535              	.L116:
 536              		.align	2
 537              	.L115:
 538 02ac 00000000 		.word	rlist
 539 02b0 00000000 		.word	vtlist
 540 02b4 00000000 		.word	.LANCHOR5
 541 02b8 00000000 		.word	.LC0
 542 02bc 00000000 		.word	.LANCHOR0
 543 02c0 00000000 		.word	.LANCHOR2
 544 02c4 00000000 		.word	.LANCHOR4
 545 02c8 00000000 		.word	.LANCHOR6
 546 02cc 00000000 		.word	.LANCHOR1
 547 02d0 00000000 		.word	.LANCHOR3
 548              	.LVL25:
 549              	.L82:
 550              		.loc 2 544 0
 551 02d4 0132     		adds	r2, r2, #1
 552 02d6 D2B2     		uxtb	r2, r2
 553 02d8 3270     		strb	r2, [r6, #0]
 554              	.LVL26:
 555              	.L46:
 556              		.loc 2 548 0
 557 02da 59F82200 		ldr	r0, [r9, r2, lsl #2]
 558 02de 0128     		cmp	r0, #1
 559 02e0 D5D0     		beq	.L83
 560              		.loc 2 549 0
 561 02e2 0020     		movs	r0, #0
 562 02e4 3221     		movs	r1, #50
 563 02e6 FFF7FEFF 		bl	media_SetSector
 564              		.loc 2 550 0
 565 02ea 40F2B110 		movw	r0, #433
 566 02ee E621     		movs	r1, #230
ARM GAS  C:\Users\DNIEL~1\AppData\Local\Temp\cc2SpX71.s 			page 11


 567 02f0 4DE7     		b	.L105
 568              	.LVL27:
 569              	.L78:
 570              		.loc 2 496 0
 571 02f2 0132     		adds	r2, r2, #1
 572 02f4 D2B2     		uxtb	r2, r2
 573 02f6 3270     		strb	r2, [r6, #0]
 574              	.LVL28:
 575              	.L42:
 576              		.loc 2 500 0
 577 02f8 59F82200 		ldr	r0, [r9, r2, lsl #2]
 578 02fc 40F60813 		movw	r3, #2312
 579 0300 9842     		cmp	r0, r3
 580 0302 68D0     		beq	.L79
 581              		.loc 2 501 0
 582 0304 0020     		movs	r0, #0
 583 0306 41F61711 		movw	r1, #6423
 584 030a 0193     		str	r3, [sp, #4]
 585 030c FFF7FEFF 		bl	media_SetSector
 586              		.loc 2 502 0
 587 0310 4220     		movs	r0, #66
 588 0312 A821     		movs	r1, #168
 589 0314 0222     		movs	r2, #2
 590              	.LVL29:
 591              	.L106:
 592              		.loc 2 334 0
 593 0316 FFF7FEFF 		bl	media_VideoFrame
 594              		.loc 2 336 0
 595 031a 3278     		ldrb	r2, [r6, #0]	@ zero_extendqisi2
 596 031c 019B     		ldr	r3, [sp, #4]
 597 031e C248     		ldr	r0, .L117
 598 0320 40F82230 		str	r3, [r0, r2, lsl #2]
 599              	.LBE7:
 600              		.loc 2 651 0
 601 0324 501C     		adds	r0, r2, #1
 602 0326 5FFA80FE 		uxtb	lr, r0
 603              		.loc 2 652 0
 604 032a 0021     		movs	r1, #0
 605              		.loc 2 653 0
 606 032c BEF11F0F 		cmp	lr, #31
 607              		.loc 2 651 0
 608 0330 86F800E0 		strb	lr, [r6, #0]
 609              		.loc 2 652 0
 610 0334 3960     		str	r1, [r7, #0]
 611              		.loc 2 654 0
 612 0336 88BF     		it	hi
 613 0338 8BF80010 		strbhi	r1, [fp, #0]
 614 033c 7AE6     		b	.L4
 615              	.LVL30:
 616              	.L80:
 617              	.LBB8:
 618              		.loc 2 520 0
 619 033e 0132     		adds	r2, r2, #1
 620 0340 D2B2     		uxtb	r2, r2
 621 0342 3270     		strb	r2, [r6, #0]
 622              	.LVL31:
 623              	.L44:
ARM GAS  C:\Users\DNIEL~1\AppData\Local\Temp\cc2SpX71.s 			page 12


 624              		.loc 2 524 0
 625 0344 59F82200 		ldr	r0, [r9, r2, lsl #2]
 626 0348 40F60813 		movw	r3, #2312
 627 034c 9842     		cmp	r0, r3
 628 034e 1CD0     		beq	.L81
 629              		.loc 2 525 0
 630 0350 0020     		movs	r0, #0
 631 0352 41F61711 		movw	r1, #6423
 632 0356 0193     		str	r3, [sp, #4]
 633 0358 FFF7FEFF 		bl	media_SetSector
 634              		.loc 2 526 0
 635 035c 4220     		movs	r0, #66
 636 035e D021     		movs	r1, #208
 637 0360 0122     		movs	r2, #1
 638 0362 D8E7     		b	.L106
 639              	.LVL32:
 640              	.L76:
 641              		.loc 2 472 0
 642 0364 0132     		adds	r2, r2, #1
 643 0366 D2B2     		uxtb	r2, r2
 644 0368 3270     		strb	r2, [r6, #0]
 645              	.LVL33:
 646              	.L40:
 647              		.loc 2 476 0
 648 036a 59F82200 		ldr	r0, [r9, r2, lsl #2]
 649 036e 40F2D243 		movw	r3, #1234
 650 0372 9842     		cmp	r0, r3
 651 0374 1CD0     		beq	.L77
 652              		.loc 2 477 0
 653 0376 0020     		movs	r0, #0
 654 0378 41F61711 		movw	r1, #6423
 655 037c 0193     		str	r3, [sp, #4]
 656 037e FFF7FEFF 		bl	media_SetSector
 657              		.loc 2 478 0
 658 0382 6C20     		movs	r0, #108
 659 0384 D021     		movs	r1, #208
 660 0386 0322     		movs	r2, #3
 661 0388 C5E7     		b	.L106
 662              	.LVL34:
 663              	.L81:
 664              		.loc 2 532 0
 665 038a 531C     		adds	r3, r2, #1
 666 038c DAB2     		uxtb	r2, r3
 667 038e 3270     		strb	r2, [r6, #0]
 668              	.LVL35:
 669              	.L45:
 670              		.loc 2 536 0
 671 0390 59F82210 		ldr	r1, [r9, r2, lsl #2]
 672 0394 40F60813 		movw	r3, #2312
 673 0398 9942     		cmp	r1, r3
 674 039a 9BD0     		beq	.L82
 675              		.loc 2 537 0
 676 039c 0020     		movs	r0, #0
 677 039e 41F61711 		movw	r1, #6423
 678 03a2 0193     		str	r3, [sp, #4]
 679 03a4 FFF7FEFF 		bl	media_SetSector
 680              		.loc 2 538 0
ARM GAS  C:\Users\DNIEL~1\AppData\Local\Temp\cc2SpX71.s 			page 13


 681 03a8 4220     		movs	r0, #66
 682 03aa E421     		movs	r1, #228
 683 03ac 0222     		movs	r2, #2
 684 03ae B2E7     		b	.L106
 685              	.LVL36:
 686              	.L77:
 687              		.loc 2 484 0
 688 03b0 531C     		adds	r3, r2, #1
 689 03b2 DAB2     		uxtb	r2, r3
 690 03b4 3270     		strb	r2, [r6, #0]
 691              	.LVL37:
 692              	.L41:
 693              		.loc 2 488 0
 694 03b6 59F82210 		ldr	r1, [r9, r2, lsl #2]
 695 03ba 40F2D243 		movw	r3, #1234
 696 03be 9942     		cmp	r1, r3
 697 03c0 97D0     		beq	.L78
 698              		.loc 2 489 0
 699 03c2 0020     		movs	r0, #0
 700 03c4 41F61711 		movw	r1, #6423
 701 03c8 0193     		str	r3, [sp, #4]
 702 03ca FFF7FEFF 		bl	media_SetSector
 703              		.loc 2 490 0
 704 03ce 6C20     		movs	r0, #108
 705 03d0 E421     		movs	r1, #228
 706 03d2 0422     		movs	r2, #4
 707 03d4 9FE7     		b	.L106
 708              	.LVL38:
 709              	.L79:
 710              		.loc 2 508 0
 711 03d6 531C     		adds	r3, r2, #1
 712 03d8 DAB2     		uxtb	r2, r3
 713 03da 3270     		strb	r2, [r6, #0]
 714              	.LVL39:
 715              	.L43:
 716              		.loc 2 512 0
 717 03dc 59F82210 		ldr	r1, [r9, r2, lsl #2]
 718 03e0 40F60813 		movw	r3, #2312
 719 03e4 9942     		cmp	r1, r3
 720 03e6 AAD0     		beq	.L80
 721              		.loc 2 513 0
 722 03e8 0020     		movs	r0, #0
 723 03ea 41F61711 		movw	r1, #6423
 724 03ee 0193     		str	r3, [sp, #4]
 725 03f0 FFF7FEFF 		bl	media_SetSector
 726              		.loc 2 514 0
 727 03f4 4220     		movs	r0, #66
 728 03f6 BC21     		movs	r1, #188
 729 03f8 0322     		movs	r2, #3
 730 03fa 8CE7     		b	.L106
 731              	.LVL40:
 732              	.L75:
 733              		.loc 2 460 0
 734 03fc 531C     		adds	r3, r2, #1
 735 03fe DAB2     		uxtb	r2, r3
 736 0400 3270     		strb	r2, [r6, #0]
 737              	.LVL41:
ARM GAS  C:\Users\DNIEL~1\AppData\Local\Temp\cc2SpX71.s 			page 14


 738              	.L39:
 739              		.loc 2 464 0
 740 0402 59F82210 		ldr	r1, [r9, r2, lsl #2]
 741 0406 40F2D243 		movw	r3, #1234
 742 040a 9942     		cmp	r1, r3
 743 040c AAD0     		beq	.L76
 744              		.loc 2 465 0
 745 040e 0020     		movs	r0, #0
 746 0410 41F61711 		movw	r1, #6423
 747 0414 0193     		str	r3, [sp, #4]
 748 0416 FFF7FEFF 		bl	media_SetSector
 749              		.loc 2 466 0
 750 041a 6C20     		movs	r0, #108
 751 041c BC21     		movs	r1, #188
 752 041e 0222     		movs	r2, #2
 753 0420 79E7     		b	.L106
 754              	.LVL42:
 755              	.L74:
 756              		.loc 2 448 0
 757 0422 0132     		adds	r2, r2, #1
 758 0424 D2B2     		uxtb	r2, r2
 759 0426 3270     		strb	r2, [r6, #0]
 760              	.LVL43:
 761              	.L38:
 762              		.loc 2 452 0
 763 0428 59F82200 		ldr	r0, [r9, r2, lsl #2]
 764 042c 40F2D243 		movw	r3, #1234
 765 0430 9842     		cmp	r0, r3
 766 0432 E3D0     		beq	.L75
 767              		.loc 2 453 0
 768 0434 0020     		movs	r0, #0
 769 0436 41F61711 		movw	r1, #6423
 770 043a 0193     		str	r3, [sp, #4]
 771 043c FFF7FEFF 		bl	media_SetSector
 772              		.loc 2 454 0
 773 0440 6C20     		movs	r0, #108
 774 0442 A821     		movs	r1, #168
 775 0444 0122     		movs	r2, #1
 776 0446 66E7     		b	.L106
 777              	.LVL44:
 778              	.L66:
 779              		.loc 2 352 0
 780 0448 501C     		adds	r0, r2, #1
 781 044a 3070     		strb	r0, [r6, #0]
 782              	.LVL45:
 783              	.L30:
 784              		.loc 2 355 0
 785 044c FFF7FEFF 		bl	cruiseGet
 786              		.loc 2 356 0
 787 0450 3278     		ldrb	r2, [r6, #0]	@ zero_extendqisi2
 788 0452 59F82210 		ldr	r1, [r9, r2, lsl #2]
 789 0456 8142     		cmp	r1, r0
 790              		.loc 2 355 0
 791 0458 0346     		mov	r3, r0
 792              	.LVL46:
 793              		.loc 2 356 0
 794 045a 00F0A980 		beq	.L67
ARM GAS  C:\Users\DNIEL~1\AppData\Local\Temp\cc2SpX71.s 			page 15


 795              		.loc 2 357 0
 796 045e 0020     		movs	r0, #0
 797              	.LVL47:
 798 0460 41F60A11 		movw	r1, #6410
 799 0464 0193     		str	r3, [sp, #4]
 800 0466 FFF7FEFF 		bl	media_SetSector
 801              	.LVL48:
 802              		.loc 2 358 0
 803 046a 0198     		ldr	r0, [sp, #4]
 804 046c 6F4A     		ldr	r2, .L117+4
 805 046e C317     		asrs	r3, r0, #31
 806 0470 82FB002C 		smull	r2, ip, r2, r0
 807 0474 CD21     		movs	r1, #205
 808 0476 40F23B10 		movw	r0, #315
 809 047a C3EB6C12 		rsb	r2, r3, ip, asr #5
 810 047e E1E6     		b	.L103
 811              	.LVL49:
 812              	.L70:
 813              		.loc 2 400 0
 814 0480 511C     		adds	r1, r2, #1
 815 0482 CAB2     		uxtb	r2, r1
 816 0484 3270     		strb	r2, [r6, #0]
 817              	.LVL50:
 818              	.L34:
 819              		.loc 2 404 0
 820 0486 59F82230 		ldr	r3, [r9, r2, lsl #2]
 821 048a 642B     		cmp	r3, #100
 822 048c 3ED0     		beq	.L71
 823              		.loc 2 405 0
 824 048e 0020     		movs	r0, #0
 825 0490 41F61711 		movw	r1, #6423
 826 0494 FFF7FEFF 		bl	media_SetSector
 827              		.loc 2 406 0
 828 0498 6C20     		movs	r0, #108
 829 049a 3B21     		movs	r1, #59
 830              	.L108:
 831              		.loc 2 418 0
 832 049c 0022     		movs	r2, #0
 833              	.L109:
 834 049e FFF7FEFF 		bl	media_VideoFrame
 835              		.loc 2 420 0
 836 04a2 3278     		ldrb	r2, [r6, #0]	@ zero_extendqisi2
 837 04a4 604B     		ldr	r3, .L117
 838              	.LBE8:
 839              		.loc 2 651 0
 840 04a6 501C     		adds	r0, r2, #1
 841              	.LBB9:
 842              		.loc 2 420 0
 843 04a8 6421     		movs	r1, #100
 844              	.LBE9:
 845              		.loc 2 651 0
 846 04aa 5FFA80FE 		uxtb	lr, r0
 847              	.LBB10:
 848              		.loc 2 420 0
 849 04ae 43F82210 		str	r1, [r3, r2, lsl #2]
 850              	.LBE10:
 851              		.loc 2 652 0
ARM GAS  C:\Users\DNIEL~1\AppData\Local\Temp\cc2SpX71.s 			page 16


 852 04b2 0021     		movs	r1, #0
 853              		.loc 2 653 0
 854 04b4 BEF11F0F 		cmp	lr, #31
 855              		.loc 2 651 0
 856 04b8 86F800E0 		strb	lr, [r6, #0]
 857              		.loc 2 652 0
 858 04bc 3960     		str	r1, [r7, #0]
 859              		.loc 2 654 0
 860 04be 88BF     		it	hi
 861 04c0 8BF80010 		strbhi	r1, [fp, #0]
 862 04c4 B6E5     		b	.L4
 863              	.L72:
 864              	.LBB11:
 865              		.loc 2 424 0
 866 04c6 0132     		adds	r2, r2, #1
 867 04c8 D2B2     		uxtb	r2, r2
 868 04ca 3270     		strb	r2, [r6, #0]
 869              	.LVL51:
 870              	.L36:
 871              		.loc 2 428 0
 872 04cc 59F82200 		ldr	r0, [r9, r2, lsl #2]
 873 04d0 2F28     		cmp	r0, #47
 874 04d2 2AD0     		beq	.L73
 875              		.loc 2 429 0
 876 04d4 0020     		movs	r0, #0
 877 04d6 41F61711 		movw	r1, #6423
 878 04da FFF7FEFF 		bl	media_SetSector
 879              		.loc 2 430 0
 880 04de 4220     		movs	r0, #66
 881 04e0 3B21     		movs	r1, #59
 882 04e2 0422     		movs	r2, #4
 883              	.L107:
 884              		.loc 2 442 0
 885 04e4 FFF7FEFF 		bl	media_VideoFrame
 886              		.loc 2 444 0
 887 04e8 3278     		ldrb	r2, [r6, #0]	@ zero_extendqisi2
 888 04ea 4F49     		ldr	r1, .L117
 889 04ec 2F20     		movs	r0, #47
 890 04ee 41F82200 		str	r0, [r1, r2, lsl #2]
 891              	.LBE11:
 892              		.loc 2 651 0
 893 04f2 501C     		adds	r0, r2, #1
 894 04f4 5FFA80FE 		uxtb	lr, r0
 895              		.loc 2 652 0
 896 04f8 0021     		movs	r1, #0
 897              		.loc 2 653 0
 898 04fa BEF11F0F 		cmp	lr, #31
 899              		.loc 2 651 0
 900 04fe 86F800E0 		strb	lr, [r6, #0]
 901              		.loc 2 652 0
 902 0502 3960     		str	r1, [r7, #0]
 903              		.loc 2 654 0
 904 0504 88BF     		it	hi
 905 0506 8BF80010 		strbhi	r1, [fp, #0]
 906 050a 93E5     		b	.L4
 907              	.LVL52:
 908              	.L71:
ARM GAS  C:\Users\DNIEL~1\AppData\Local\Temp\cc2SpX71.s 			page 17


 909              	.LBB12:
 910              		.loc 2 412 0
 911 050c 0132     		adds	r2, r2, #1
 912 050e D2B2     		uxtb	r2, r2
 913 0510 3270     		strb	r2, [r6, #0]
 914              	.LVL53:
 915              	.L35:
 916              		.loc 2 416 0
 917 0512 59F82200 		ldr	r0, [r9, r2, lsl #2]
 918 0516 6428     		cmp	r0, #100
 919 0518 D5D0     		beq	.L72
 920              		.loc 2 417 0
 921 051a 0020     		movs	r0, #0
 922 051c 41F61711 		movw	r1, #6423
 923 0520 FFF7FEFF 		bl	media_SetSector
 924              		.loc 2 418 0
 925 0524 6C20     		movs	r0, #108
 926 0526 4F21     		movs	r1, #79
 927 0528 B8E7     		b	.L108
 928              	.LVL54:
 929              	.L73:
 930              		.loc 2 436 0
 931 052a 511C     		adds	r1, r2, #1
 932 052c CAB2     		uxtb	r2, r1
 933 052e 3270     		strb	r2, [r6, #0]
 934              	.LVL55:
 935              	.L37:
 936              		.loc 2 440 0
 937 0530 59F82230 		ldr	r3, [r9, r2, lsl #2]
 938 0534 2F2B     		cmp	r3, #47
 939 0536 3FF474AF 		beq	.L74
 940              		.loc 2 441 0
 941 053a 0020     		movs	r0, #0
 942 053c 41F61711 		movw	r1, #6423
 943 0540 FFF7FEFF 		bl	media_SetSector
 944              		.loc 2 442 0
 945 0544 4220     		movs	r0, #66
 946 0546 4F21     		movs	r1, #79
 947 0548 0722     		movs	r2, #7
 948 054a CBE7     		b	.L107
 949              	.LVL56:
 950              	.L68:
 951              		.loc 2 376 0
 952 054c 511C     		adds	r1, r2, #1
 953 054e 8BF80010 		strb	r1, [fp, #0]
 954              	.LVL57:
 955              	.L32:
 956              		.loc 2 379 0
 957 0552 FFF7FEFF 		bl	cruiseGet
 958              		.loc 2 380 0
 959 0556 3278     		ldrb	r2, [r6, #0]	@ zero_extendqisi2
 960 0558 59F82210 		ldr	r1, [r9, r2, lsl #2]
 961 055c 8142     		cmp	r1, r0
 962              		.loc 2 379 0
 963 055e 0346     		mov	r3, r0
 964              	.LVL58:
 965              		.loc 2 380 0
ARM GAS  C:\Users\DNIEL~1\AppData\Local\Temp\cc2SpX71.s 			page 18


 966 0560 14D0     		beq	.L69
 967              		.loc 2 381 0
 968 0562 0020     		movs	r0, #0
 969              	.LVL59:
 970 0564 41F60A11 		movw	r1, #6410
 971 0568 0193     		str	r3, [sp, #4]
 972 056a FFF7FEFF 		bl	media_SetSector
 973              	.LVL60:
 974              		.loc 2 382 0
 975 056e 019B     		ldr	r3, [sp, #4]
 976 0570 2F4A     		ldr	r2, .L117+8
 977 0572 D817     		asrs	r0, r3, #31
 978 0574 82FB0321 		smull	r2, r1, r2, r3
 979 0578 C0EBA102 		rsb	r2, r0, r1, asr #2
 980 057c 02EB820C 		add	ip, r2, r2, lsl #2
 981 0580 40F23B10 		movw	r0, #315
 982 0584 F521     		movs	r1, #245
 983 0586 A3EB4C02 		sub	r2, r3, ip, lsl #1
 984 058a 5BE6     		b	.L103
 985              	.LVL61:
 986              	.L69:
 987              		.loc 2 388 0
 988 058c 531C     		adds	r3, r2, #1
 989 058e DAB2     		uxtb	r2, r3
 990 0590 8BF80020 		strb	r2, [fp, #0]
 991              	.LVL62:
 992              	.L33:
 993              		.loc 2 392 0
 994 0594 59F82200 		ldr	r0, [r9, r2, lsl #2]
 995 0598 6428     		cmp	r0, #100
 996 059a 3FF471AF 		beq	.L70
 997              		.loc 2 393 0
 998 059e 0020     		movs	r0, #0
 999 05a0 41F61711 		movw	r1, #6423
 1000 05a4 FFF7FEFF 		bl	media_SetSector
 1001              		.loc 2 394 0
 1002 05a8 6C20     		movs	r0, #108
 1003 05aa 2721     		movs	r1, #39
 1004 05ac 0122     		movs	r2, #1
 1005 05ae 76E7     		b	.L109
 1006              	.LVL63:
 1007              	.L67:
 1008              		.loc 2 364 0
 1009 05b0 501C     		adds	r0, r2, #1
 1010              	.LVL64:
 1011 05b2 8BF80000 		strb	r0, [fp, #0]
 1012              	.LVL65:
 1013              	.L31:
 1014              		.loc 2 367 0
 1015 05b6 FFF7FEFF 		bl	cruiseGet
 1016              		.loc 2 368 0
 1017 05ba 3278     		ldrb	r2, [r6, #0]	@ zero_extendqisi2
 1018 05bc 59F82210 		ldr	r1, [r9, r2, lsl #2]
 1019 05c0 8142     		cmp	r1, r0
 1020              		.loc 2 367 0
 1021 05c2 0346     		mov	r3, r0
 1022              	.LVL66:
ARM GAS  C:\Users\DNIEL~1\AppData\Local\Temp\cc2SpX71.s 			page 19


 1023              		.loc 2 368 0
 1024 05c4 C2D0     		beq	.L68
 1025              		.loc 2 369 0
 1026 05c6 0020     		movs	r0, #0
 1027              	.LVL67:
 1028 05c8 41F60A11 		movw	r1, #6410
 1029 05cc 0193     		str	r3, [sp, #4]
 1030 05ce FFF7FEFF 		bl	media_SetSector
 1031              	.LVL68:
 1032              		.loc 2 370 0
 1033 05d2 019B     		ldr	r3, [sp, #4]
 1034 05d4 1648     		ldr	r0, .L117+8
 1035 05d6 1649     		ldr	r1, .L117+8
 1036 05d8 80FB032C 		smull	r2, ip, r0, r3
 1037 05dc DA17     		asrs	r2, r3, #31
 1038 05de C2EBAC0E 		rsb	lr, r2, ip, asr #2
 1039 05e2 81FB0E20 		smull	r2, r0, r1, lr
 1040 05e6 4FEAEE73 		asr	r3, lr, #31
 1041 05ea C3EBA002 		rsb	r2, r3, r0, asr #2
 1042 05ee 02EB820C 		add	ip, r2, r2, lsl #2
 1043 05f2 40F23B10 		movw	r0, #315
 1044 05f6 E121     		movs	r1, #225
 1045 05f8 AEEB4C02 		sub	r2, lr, ip, lsl #1
 1046 05fc 22E6     		b	.L103
 1047              	.LVL69:
 1048              	.L65:
 1049              		.loc 2 340 0
 1050 05fe 0132     		adds	r2, r2, #1
 1051 0600 D2B2     		uxtb	r2, r2
 1052 0602 3270     		strb	r2, [r6, #0]
 1053              	.LVL70:
 1054              	.L29:
 1055              		.loc 2 344 0
 1056 0604 59F82210 		ldr	r1, [r9, r2, lsl #2]
 1057 0608 40F2E333 		movw	r3, #995
 1058 060c 9942     		cmp	r1, r3
 1059 060e 3FF41BAF 		beq	.L66
 1060              		.loc 2 345 0
 1061 0612 0020     		movs	r0, #0
 1062 0614 41F60A11 		movw	r1, #6410
 1063 0618 0193     		str	r3, [sp, #4]
 1064 061a FFF7FEFF 		bl	media_SetSector
 1065              		.loc 2 346 0
 1066 061e 40F23B10 		movw	r0, #315
 1067 0622 2821     		movs	r1, #40
 1068 0624 0522     		movs	r2, #5
 1069 0626 76E6     		b	.L106
 1070              	.L118:
 1071              		.align	2
 1072              	.L117:
 1073 0628 00000000 		.word	.LANCHOR6
 1074 062c 1F85EB51 		.word	1374389535
 1075 0630 67666666 		.word	1717986919
 1076              	.L64:
 1077              		.loc 2 328 0
 1078 0634 531C     		adds	r3, r2, #1
 1079 0636 DAB2     		uxtb	r2, r3
ARM GAS  C:\Users\DNIEL~1\AppData\Local\Temp\cc2SpX71.s 			page 20


 1080 0638 3270     		strb	r2, [r6, #0]
 1081              	.LVL71:
 1082              	.L28:
 1083              		.loc 2 332 0
 1084 063a 59F82210 		ldr	r1, [r9, r2, lsl #2]
 1085 063e 40F2E333 		movw	r3, #995
 1086 0642 9942     		cmp	r1, r3
 1087 0644 DBD0     		beq	.L65
 1088              		.loc 2 333 0
 1089 0646 0020     		movs	r0, #0
 1090 0648 41F60A11 		movw	r1, #6410
 1091 064c 0193     		str	r3, [sp, #4]
 1092 064e FFF7FEFF 		bl	media_SetSector
 1093              		.loc 2 334 0
 1094 0652 40F23B10 		movw	r0, #315
 1095 0656 1421     		movs	r1, #20
 1096 0658 0922     		movs	r2, #9
 1097 065a 5CE6     		b	.L106
 1098              	.LVL72:
 1099              	.L63:
 1100              		.loc 2 316 0
 1101 065c 511C     		adds	r1, r2, #1
 1102 065e CAB2     		uxtb	r2, r1
 1103 0660 8BF80020 		strb	r2, [fp, #0]
 1104              	.LVL73:
 1105              	.L27:
 1106              		.loc 2 320 0
 1107 0664 59F82200 		ldr	r0, [r9, r2, lsl #2]
 1108 0668 40F2E333 		movw	r3, #995
 1109 066c 9842     		cmp	r0, r3
 1110 066e E1D0     		beq	.L64
 1111              		.loc 2 321 0
 1112 0670 0020     		movs	r0, #0
 1113 0672 41F60A11 		movw	r1, #6410
 1114 0676 0193     		str	r3, [sp, #4]
 1115 0678 FFF7FEFF 		bl	media_SetSector
 1116              		.loc 2 322 0
 1117 067c 40F23B10 		movw	r0, #315
 1118 0680 0021     		movs	r1, #0
 1119              		.loc 2 334 0
 1120 0682 0922     		movs	r2, #9
 1121 0684 47E6     		b	.L106
 1122              	.LVL74:
 1123              	.L62:
 1124              		.loc 2 302 0
 1125 0686 501C     		adds	r0, r2, #1
 1126 0688 8BF80000 		strb	r0, [fp, #0]
 1127              	.L26:
 1128              		.loc 2 305 0
 1129 068c FFF7FEFF 		bl	speedGetSpeed
 1130              		.loc 2 306 0
 1131 0690 3278     		ldrb	r2, [r6, #0]	@ zero_extendqisi2
 1132 0692 59F82210 		ldr	r1, [r9, r2, lsl #2]
 1133 0696 8142     		cmp	r1, r0
 1134              		.loc 2 305 0
 1135 0698 0346     		mov	r3, r0
 1136              	.LVL75:
ARM GAS  C:\Users\DNIEL~1\AppData\Local\Temp\cc2SpX71.s 			page 21


 1137              		.loc 2 306 0
 1138 069a DFD0     		beq	.L63
 1139              		.loc 2 307 0
 1140 069c 0120     		movs	r0, #1
 1141              	.LVL76:
 1142 069e 0193     		str	r3, [sp, #4]
 1143 06a0 FFF7FEFF 		bl	gfx_Transparency
 1144              	.LVL77:
 1145              		.loc 2 308 0
 1146 06a4 1F20     		movs	r0, #31
 1147 06a6 FFF7FEFF 		bl	gfx_TransparentColour
 1148              		.loc 2 309 0
 1149 06aa 0020     		movs	r0, #0
 1150 06ac 5721     		movs	r1, #87
 1151 06ae FFF7FEFF 		bl	media_SetSector
 1152              		.loc 2 310 0
 1153 06b2 0198     		ldr	r0, [sp, #4]
 1154 06b4 504A     		ldr	r2, .L119
 1155 06b6 C317     		asrs	r3, r0, #31
 1156 06b8 82FB002E 		smull	r2, lr, r2, r0
 1157 06bc 1521     		movs	r1, #21
 1158 06be 9420     		movs	r0, #148
 1159 06c0 C3EB6E02 		rsb	r2, r3, lr, asr #1
 1160 06c4 BEE5     		b	.L103
 1161              	.L60:
 1162              		.loc 2 283 0
 1163 06c6 0131     		adds	r1, r1, #1
 1164 06c8 8BF80010 		strb	r1, [fp, #0]
 1165              	.L25:
 1166              		.loc 2 286 0
 1167 06cc FFF7FEFF 		bl	speedGetSpeed
 1168 06d0 0028     		cmp	r0, #0
 1169 06d2 06DD     		ble	.L61
 1170              		.loc 2 286 0 is_stmt 0 discriminator 1
 1171 06d4 FFF7FEFF 		bl	speedGetSpeed
 1172 06d8 40F2E63C 		movw	ip, #998
 1173 06dc 6045     		cmp	r0, ip
 1174 06de 40F38480 		ble	.L113
 1175              	.L61:
 1176              		.loc 2 292 0 is_stmt 1
 1177 06e2 FFF7FEFF 		bl	speedGetSpeed
 1178 06e6 444A     		ldr	r2, .L119
 1179 06e8 C317     		asrs	r3, r0, #31
 1180 06ea 82FB002C 		smull	r2, ip, r2, r0
 1181              		.loc 2 293 0
 1182 06ee 3278     		ldrb	r2, [r6, #0]	@ zero_extendqisi2
 1183              		.loc 2 292 0
 1184 06f0 C3EBAC03 		rsb	r3, r3, ip, asr #2
 1185              		.loc 2 293 0
 1186 06f4 59F82210 		ldr	r1, [r9, r2, lsl #2]
 1187              		.loc 2 292 0
 1188 06f8 03EB830E 		add	lr, r3, r3, lsl #2
 1189 06fc A0EB4E03 		sub	r3, r0, lr, lsl #1
 1190              		.loc 2 293 0
 1191 0700 9942     		cmp	r1, r3
 1192 0702 C0D0     		beq	.L62
 1193              		.loc 2 294 0
ARM GAS  C:\Users\DNIEL~1\AppData\Local\Temp\cc2SpX71.s 			page 22


 1194 0704 0020     		movs	r0, #0
 1195 0706 41F63111 		movw	r1, #6449
 1196 070a 0193     		str	r3, [sp, #4]
 1197 070c FFF7FEFF 		bl	media_SetSector
 1198              		.loc 2 295 0
 1199 0710 BA20     		movs	r0, #186
 1200 0712 A221     		movs	r1, #162
 1201              	.L102:
 1202 0714 019A     		ldr	r2, [sp, #4]
 1203 0716 FFF7FEFF 		bl	media_VideoFrame
 1204              		.loc 2 297 0
 1205 071a 9BF80010 		ldrb	r1, [fp, #0]	@ zero_extendqisi2
 1206 071e 019B     		ldr	r3, [sp, #4]
 1207 0720 3648     		ldr	r0, .L119+4
 1208              		.loc 2 298 0
 1209 0722 4A1C     		adds	r2, r1, #1
 1210 0724 D2B2     		uxtb	r2, r2
 1211              		.loc 2 297 0
 1212 0726 40F82130 		str	r3, [r0, r1, lsl #2]
 1213              	.LBE12:
 1214              		.loc 2 651 0
 1215 072a 501C     		adds	r0, r2, #1
 1216 072c 5FFA80FE 		uxtb	lr, r0
 1217              		.loc 2 652 0
 1218 0730 0021     		movs	r1, #0
 1219              		.loc 2 653 0
 1220 0732 BEF11F0F 		cmp	lr, #31
 1221              		.loc 2 651 0
 1222 0736 86F800E0 		strb	lr, [r6, #0]
 1223              		.loc 2 652 0
 1224 073a 3960     		str	r1, [r7, #0]
 1225              		.loc 2 654 0
 1226 073c 88BF     		it	hi
 1227 073e 8BF80010 		strbhi	r1, [fp, #0]
 1228 0742 77E4     		b	.L4
 1229              	.LVL78:
 1230              	.L56:
 1231              	.LBB13:
 1232              		.loc 2 263 0
 1233 0744 531C     		adds	r3, r2, #1
 1234              	.LVL79:
 1235 0746 8BF80030 		strb	r3, [fp, #0]
 1236              	.L24:
 1237              		.loc 2 266 0
 1238 074a FFF7FEFF 		bl	speedGetSpeed
 1239 074e 0028     		cmp	r0, #0
 1240 0750 05DD     		ble	.L59
 1241              		.loc 2 266 0 is_stmt 0 discriminator 1
 1242 0752 FFF7FEFF 		bl	speedGetSpeed
 1243 0756 40F2E63C 		movw	ip, #998
 1244 075a 6045     		cmp	r0, ip
 1245 075c 48DD     		ble	.L114
 1246              	.L59:
 1247              		.loc 2 272 0 is_stmt 1
 1248 075e FFF7FEFF 		bl	speedGetSpeed
 1249 0762 254B     		ldr	r3, .L119
 1250 0764 2449     		ldr	r1, .L119
ARM GAS  C:\Users\DNIEL~1\AppData\Local\Temp\cc2SpX71.s 			page 23


 1251 0766 83FB0032 		smull	r3, r2, r3, r0
 1252 076a C017     		asrs	r0, r0, #31
 1253 076c C0EBA202 		rsb	r2, r0, r2, asr #2
 1254 0770 81FB023C 		smull	r3, ip, r1, r2
 1255 0774 D317     		asrs	r3, r2, #31
 1256              		.loc 2 273 0
 1257 0776 3178     		ldrb	r1, [r6, #0]	@ zero_extendqisi2
 1258              		.loc 2 272 0
 1259 0778 C3EBAC03 		rsb	r3, r3, ip, asr #2
 1260              		.loc 2 273 0
 1261 077c 59F82100 		ldr	r0, [r9, r1, lsl #2]
 1262              		.loc 2 272 0
 1263 0780 03EB830E 		add	lr, r3, r3, lsl #2
 1264 0784 A2EB4E03 		sub	r3, r2, lr, lsl #1
 1265              		.loc 2 273 0
 1266 0788 9842     		cmp	r0, r3
 1267 078a 9CD0     		beq	.L60
 1268              		.loc 2 275 0
 1269 078c 0020     		movs	r0, #0
 1270 078e 41F63111 		movw	r1, #6449
 1271 0792 0193     		str	r3, [sp, #4]
 1272 0794 FFF7FEFF 		bl	media_SetSector
 1273              		.loc 2 276 0
 1274 0798 BA20     		movs	r0, #186
 1275 079a 7021     		movs	r1, #112
 1276 079c BAE7     		b	.L102
 1277              	.L112:
 1278              		.loc 2 243 0
 1279 079e FFF7FEFF 		bl	speedGetSpeed
 1280 07a2 6423     		movs	r3, #100
 1281 07a4 90FBF3FC 		sdiv	ip, r0, r3
 1282 07a8 0FFA8CF3 		sxth	r3, ip
 1283              	.LVL80:
 1284 07ac B9E4     		b	.L55
 1285              	.LVL81:
 1286              	.L19:
 1287              	.LBE13:
 1288              		.loc 2 226 0
 1289 07ae E871     		strb	r0, [r5, #7]
 1290              	.LVL82:
 1291 07b0 40E4     		b	.L4
 1292              	.LVL83:
 1293              	.L90:
 1294              	.LBB14:
 1295              		.loc 2 646 0
 1296 07b2 0132     		adds	r2, r2, #1
 1297 07b4 D2B2     		uxtb	r2, r2
 1298              	.LBE14:
 1299              		.loc 2 651 0
 1300 07b6 501C     		adds	r0, r2, #1
 1301 07b8 5FFA80FE 		uxtb	lr, r0
 1302              		.loc 2 652 0
 1303 07bc 0021     		movs	r1, #0
 1304              		.loc 2 653 0
 1305 07be BEF11F0F 		cmp	lr, #31
 1306              		.loc 2 651 0
 1307 07c2 86F800E0 		strb	lr, [r6, #0]
ARM GAS  C:\Users\DNIEL~1\AppData\Local\Temp\cc2SpX71.s 			page 24


 1308              		.loc 2 652 0
 1309 07c6 3960     		str	r1, [r7, #0]
 1310              		.loc 2 654 0
 1311 07c8 88BF     		it	hi
 1312 07ca 8BF80010 		strbhi	r1, [fp, #0]
 1313 07ce 31E4     		b	.L4
 1314              	.LVL84:
 1315              	.L57:
 1316              	.LBB15:
 1317              		.loc 2 254 0
 1318 07d0 1846     		mov	r0, r3
 1319 07d2 41F63111 		movw	r1, #6449
 1320 07d6 0193     		str	r3, [sp, #4]
 1321 07d8 FFF7FEFF 		bl	media_SetSector
 1322              	.LVL85:
 1323              		.loc 2 255 0
 1324 07dc BA20     		movs	r0, #186
 1325 07de 3E21     		movs	r1, #62
 1326 07e0 0A22     		movs	r2, #10
 1327 07e2 FFF7FEFF 		bl	media_VideoFrame
 1328 07e6 019B     		ldr	r3, [sp, #4]
 1329 07e8 B0E4     		b	.L58
 1330              	.L113:
 1331              		.loc 2 287 0
 1332 07ea FFF7FEFF 		bl	speedGetSpeed
 1333 07ee 78E7     		b	.L61
 1334              	.L114:
 1335              		.loc 2 267 0
 1336 07f0 FFF7FEFF 		bl	speedGetSpeed
 1337 07f4 B3E7     		b	.L59
 1338              	.L120:
 1339 07f6 00BF     		.align	2
 1340              	.L119:
 1341 07f8 67666666 		.word	1717986919
 1342 07fc 00000000 		.word	.LANCHOR6
 1343              	.LBE15:
 1344              	.LBE2:
 1345              		.cfi_endproc
 1346              	.LFE123:
 1347              		.size	dspTask, .-dspTask
 1348              		.section	.text.dsp_LoadTop,"ax",%progbits
 1349              		.align	2
 1350              		.p2align 4,,15
 1351              		.global	dsp_LoadTop
 1352              		.thumb
 1353              		.thumb_func
 1354              		.type	dsp_LoadTop, %function
 1355              	dsp_LoadTop:
 1356              	.LFB119:
 1357              		.loc 2 74 0
 1358              		.cfi_startproc
 1359              		@ args = 0, pretend = 0, frame = 0
 1360              		@ frame_needed = 0, uses_anonymous_args = 0
 1361 0000 10B5     		push	{r4, lr}
 1362              	.LCFI5:
 1363              		.cfi_def_cfa_offset 8
 1364              		.loc 2 76 0
ARM GAS  C:\Users\DNIEL~1\AppData\Local\Temp\cc2SpX71.s 			page 25


 1365 0002 0020     		movs	r0, #0
 1366 0004 2721     		movs	r1, #39
 1367              		.cfi_offset 14, -4
 1368              		.cfi_offset 4, -8
 1369 0006 FFF7FEFF 		bl	media_SetSector
 1370              		.loc 2 77 0
 1371 000a 0022     		movs	r2, #0
 1372 000c 0721     		movs	r1, #7
 1373 000e 40F2B110 		movw	r0, #433
 1374 0012 FFF7FEFF 		bl	media_VideoFrame
 1375              		.loc 2 79 0
 1376 0016 0020     		movs	r0, #0
 1377 0018 41F6CC11 		movw	r1, #6604
 1378 001c FFF7FEFF 		bl	media_SetSector
 1379              		.loc 2 80 0
 1380 0020 0022     		movs	r2, #0
 1381 0022 3D21     		movs	r1, #61
 1382 0024 40F2B110 		movw	r0, #433
 1383 0028 FFF7FEFF 		bl	media_VideoFrame
 1384              		.loc 2 82 0
 1385 002c 0020     		movs	r0, #0
 1386 002e 4121     		movs	r1, #65
 1387 0030 FFF7FEFF 		bl	media_SetSector
 1388              		.loc 2 83 0
 1389 0034 0022     		movs	r2, #0
 1390 0036 9A21     		movs	r1, #154
 1391 0038 40F2B110 		movw	r0, #433
 1392 003c FFF7FEFF 		bl	media_VideoFrame
 1393              		.loc 2 85 0
 1394 0040 0020     		movs	r0, #0
 1395 0042 3221     		movs	r1, #50
 1396 0044 FFF7FEFF 		bl	media_SetSector
 1397              		.loc 2 86 0
 1398 0048 0022     		movs	r2, #0
 1399 004a E621     		movs	r1, #230
 1400 004c 40F2B110 		movw	r0, #433
 1401 0050 FFF7FEFF 		bl	media_VideoFrame
 1402              		.loc 2 88 0
 1403 0054 0020     		movs	r0, #0
 1404 0056 41F6DF11 		movw	r1, #6623
 1405 005a FFF7FEFF 		bl	media_SetSector
 1406              		.loc 2 89 0
 1407 005e 0022     		movs	r2, #0
 1408 0060 1A21     		movs	r1, #26
 1409 0062 40F27710 		movw	r0, #375
 1410 0066 FFF7FEFF 		bl	media_VideoFrame
 1411              		.loc 2 91 0
 1412 006a 0020     		movs	r0, #0
 1413 006c 0B21     		movs	r1, #11
 1414 006e FFF7FEFF 		bl	media_SetSector
 1415              		.loc 2 92 0
 1416 0072 0022     		movs	r2, #0
 1417 0074 40F27710 		movw	r0, #375
 1418 0078 5021     		movs	r1, #80
 1419 007a FFF7FEFF 		bl	media_VideoFrame
 1420              		.loc 2 94 0
 1421 007e 0020     		movs	r0, #0
ARM GAS  C:\Users\DNIEL~1\AppData\Local\Temp\cc2SpX71.s 			page 26


 1422 0080 4C21     		movs	r1, #76
 1423 0082 FFF7FEFF 		bl	media_SetSector
 1424              		.loc 2 95 0
 1425 0086 0022     		movs	r2, #0
 1426 0088 AA21     		movs	r1, #170
 1427 008a 40F27710 		movw	r0, #375
 1428 008e FFF7FEFF 		bl	media_VideoFrame
 1429              		.loc 2 97 0
 1430 0092 0020     		movs	r0, #0
 1431 0094 0146     		mov	r1, r0
 1432 0096 FFF7FEFF 		bl	media_SetSector
 1433              		.loc 2 98 0
 1434 009a 0022     		movs	r2, #0
 1435 009c DB21     		movs	r1, #219
 1436 009e 40F27710 		movw	r0, #375
 1437 00a2 FFF7FEFF 		bl	media_VideoFrame
 1438              		.loc 2 100 0
 1439 00a6 0020     		movs	r0, #0
 1440 00a8 41F60411 		movw	r1, #6404
 1441 00ac FFF7FEFF 		bl	media_SetSector
 1442              		.loc 2 101 0
 1443 00b0 0421     		movs	r1, #4
 1444 00b2 4FF4AA70 		mov	r0, #340
 1445 00b6 FFF7FEFF 		bl	media_Image
 1446              		.loc 2 103 0
 1447 00ba 0020     		movs	r0, #0
 1448 00bc 41F6D711 		movw	r1, #6615
 1449 00c0 FFF7FEFF 		bl	media_SetSector
 1450              		.loc 2 104 0
 1451 00c4 4FF4AA70 		mov	r0, #340
 1452 00c8 A621     		movs	r1, #166
 1453              		.loc 2 106 0
 1454 00ca BDE81040 		pop	{r4, lr}
 1455              		.loc 2 104 0
 1456 00ce FFF7FEBF 		b	media_Image
 1457              		.cfi_endproc
 1458              	.LFE119:
 1459              		.size	dsp_LoadTop, .-dsp_LoadTop
 1460 00d2 00BFAFF3 		.section	.text.dsp_LoadMidle,"ax",%progbits
 1460      0080AFF3 
 1460      0080AFF3 
 1460      0080
 1461              		.align	2
 1462              		.p2align 4,,15
 1463              		.global	dsp_LoadMidle
 1464              		.thumb
 1465              		.thumb_func
 1466              		.type	dsp_LoadMidle, %function
 1467              	dsp_LoadMidle:
 1468              	.LFB120:
 1469              		.loc 2 107 0
 1470              		.cfi_startproc
 1471              		@ args = 0, pretend = 0, frame = 0
 1472              		@ frame_needed = 0, uses_anonymous_args = 0
 1473 0000 10B5     		push	{r4, lr}
 1474              	.LCFI6:
 1475              		.cfi_def_cfa_offset 8
ARM GAS  C:\Users\DNIEL~1\AppData\Local\Temp\cc2SpX71.s 			page 27


 1476              		.loc 2 109 0
 1477 0002 0120     		movs	r0, #1
 1478              		.cfi_offset 14, -4
 1479              		.cfi_offset 4, -8
 1480 0004 FFF7FEFF 		bl	gfx_Transparency
 1481              		.loc 2 110 0
 1482 0008 1F20     		movs	r0, #31
 1483 000a FFF7FEFF 		bl	gfx_TransparentColour
 1484              		.loc 2 111 0
 1485 000e 0020     		movs	r0, #0
 1486 0010 5721     		movs	r1, #87
 1487 0012 FFF7FEFF 		bl	media_SetSector
 1488              		.loc 2 112 0
 1489 0016 0022     		movs	r2, #0
 1490 0018 9420     		movs	r0, #148
 1491 001a 1521     		movs	r1, #21
 1492 001c FFF7FEFF 		bl	media_VideoFrame
 1493              		.loc 2 114 0
 1494 0020 0020     		movs	r0, #0
 1495 0022 3D21     		movs	r1, #61
 1496 0024 FFF7FEFF 		bl	media_SetSector
 1497              		.loc 2 115 0
 1498 0028 A820     		movs	r0, #168
 1499 002a CC21     		movs	r1, #204
 1500 002c FFF7FEFF 		bl	media_Image
 1501              		.loc 2 117 0
 1502 0030 0020     		movs	r0, #0
 1503 0032 41F60A11 		movw	r1, #6410
 1504 0036 FFF7FEFF 		bl	media_SetSector
 1505              		.loc 2 118 0
 1506 003a 0022     		movs	r2, #0
 1507 003c F421     		movs	r1, #244
 1508 003e 40F23B10 		movw	r0, #315
 1509 0042 FFF7FEFF 		bl	media_VideoFrame
 1510              		.loc 2 119 0
 1511 0046 0020     		movs	r0, #0
 1512 0048 41F60A11 		movw	r1, #6410
 1513 004c FFF7FEFF 		bl	media_SetSector
 1514              		.loc 2 120 0
 1515 0050 0022     		movs	r2, #0
 1516 0052 2821     		movs	r1, #40
 1517 0054 40F23B10 		movw	r0, #315
 1518 0058 FFF7FEFF 		bl	media_VideoFrame
 1519              		.loc 2 122 0
 1520 005c 0020     		movs	r0, #0
 1521 005e 41F63111 		movw	r1, #6449
 1522 0062 FFF7FEFF 		bl	media_SetSector
 1523              		.loc 2 123 0
 1524 0066 BA20     		movs	r0, #186
 1525 0068 9B21     		movs	r1, #155
 1526 006a 0022     		movs	r2, #0
 1527              		.loc 2 125 0
 1528 006c BDE81040 		pop	{r4, lr}
 1529              		.loc 2 123 0
 1530 0070 FFF7FEBF 		b	media_VideoFrame
 1531              		.cfi_endproc
 1532              	.LFE120:
ARM GAS  C:\Users\DNIEL~1\AppData\Local\Temp\cc2SpX71.s 			page 28


 1533              		.size	dsp_LoadMidle, .-dsp_LoadMidle
 1534 0074 AFF30080 		.section	.text.dsp_LoadBottom,"ax",%progbits
 1534      AFF30080 
 1534      AFF30080 
 1535              		.align	2
 1536              		.p2align 4,,15
 1537              		.global	dsp_LoadBottom
 1538              		.thumb
 1539              		.thumb_func
 1540              		.type	dsp_LoadBottom, %function
 1541              	dsp_LoadBottom:
 1542              	.LFB121:
 1543              		.loc 2 126 0
 1544              		.cfi_startproc
 1545              		@ args = 0, pretend = 0, frame = 0
 1546              		@ frame_needed = 0, uses_anonymous_args = 0
 1547 0000 10B5     		push	{r4, lr}
 1548              	.LCFI7:
 1549              		.cfi_def_cfa_offset 8
 1550              		.loc 2 128 0
 1551 0002 4FF4B470 		mov	r0, #360
 1552              		.loc 2 126 0
 1553 0006 82B0     		sub	sp, sp, #8
 1554              	.LCFI8:
 1555              		.cfi_def_cfa_offset 16
 1556              		.loc 2 128 0
 1557 0008 4FF6FF74 		movw	r4, #65535
 1558              		.cfi_offset 14, -4
 1559              		.cfi_offset 4, -8
 1560 000c 0021     		movs	r1, #0
 1561 000e 0246     		mov	r2, r0
 1562 0010 4FF48873 		mov	r3, #272
 1563 0014 0094     		str	r4, [sp, #0]
 1564 0016 FFF7FEFF 		bl	draw_line
 1565              		.loc 2 129 0
 1566 001a 9120     		movs	r0, #145
 1567 001c 4FF48873 		mov	r3, #272
 1568 0020 0246     		mov	r2, r0
 1569 0022 0021     		movs	r1, #0
 1570 0024 0094     		str	r4, [sp, #0]
 1571 0026 FFF7FEFF 		bl	draw_line
 1572              		.loc 2 131 0
 1573 002a 0020     		movs	r0, #0
 1574 002c 1C21     		movs	r1, #28
 1575 002e FFF7FEFF 		bl	media_SetSector
 1576              		.loc 2 132 0
 1577 0032 0022     		movs	r2, #0
 1578 0034 6C20     		movs	r0, #108
 1579 0036 0521     		movs	r1, #5
 1580 0038 FFF7FEFF 		bl	media_VideoFrame
 1581              		.loc 2 134 0
 1582 003c 0020     		movs	r0, #0
 1583 003e 1C21     		movs	r1, #28
 1584 0040 FFF7FEFF 		bl	media_SetSector
 1585              		.loc 2 135 0
 1586 0044 0122     		movs	r2, #1
 1587 0046 6C20     		movs	r0, #108
ARM GAS  C:\Users\DNIEL~1\AppData\Local\Temp\cc2SpX71.s 			page 29


 1588 0048 8721     		movs	r1, #135
 1589 004a FFF7FEFF 		bl	media_VideoFrame
 1590              		.loc 2 137 0
 1591 004e 0020     		movs	r0, #0
 1592 0050 1C21     		movs	r1, #28
 1593 0052 FFF7FEFF 		bl	media_SetSector
 1594              		.loc 2 138 0
 1595 0056 0222     		movs	r2, #2
 1596 0058 4220     		movs	r0, #66
 1597 005a 8721     		movs	r1, #135
 1598 005c FFF7FEFF 		bl	media_VideoFrame
 1599              		.loc 2 140 0
 1600 0060 0020     		movs	r0, #0
 1601 0062 41F6EA11 		movw	r1, #6634
 1602 0066 FFF7FEFF 		bl	media_SetSector
 1603              		.loc 2 141 0
 1604 006a 4120     		movs	r0, #65
 1605 006c 0521     		movs	r1, #5
 1606 006e FFF7FEFF 		bl	media_Image
 1607              		.loc 2 143 0
 1608 0072 0020     		movs	r0, #0
 1609 0074 41F61711 		movw	r1, #6423
 1610 0078 FFF7FEFF 		bl	media_SetSector
 1611              		.loc 2 144 0
 1612 007c 0022     		movs	r2, #0
 1613 007e 6C20     		movs	r0, #108
 1614 0080 4F21     		movs	r1, #79
 1615 0082 FFF7FEFF 		bl	media_VideoFrame
 1616              		.loc 2 145 0
 1617 0086 0020     		movs	r0, #0
 1618 0088 41F61711 		movw	r1, #6423
 1619 008c FFF7FEFF 		bl	media_SetSector
 1620              		.loc 2 146 0
 1621 0090 0022     		movs	r2, #0
 1622 0092 6C20     		movs	r0, #108
 1623 0094 E421     		movs	r1, #228
 1624 0096 FFF7FEFF 		bl	media_VideoFrame
 1625              		.loc 2 147 0
 1626 009a 0020     		movs	r0, #0
 1627 009c 41F61711 		movw	r1, #6423
 1628 00a0 FFF7FEFF 		bl	media_SetSector
 1629              		.loc 2 148 0
 1630 00a4 0022     		movs	r2, #0
 1631 00a6 4220     		movs	r0, #66
 1632 00a8 4F21     		movs	r1, #79
 1633 00aa FFF7FEFF 		bl	media_VideoFrame
 1634              		.loc 2 149 0
 1635 00ae 0020     		movs	r0, #0
 1636 00b0 41F61711 		movw	r1, #6423
 1637 00b4 FFF7FEFF 		bl	media_SetSector
 1638              		.loc 2 150 0
 1639 00b8 0022     		movs	r2, #0
 1640 00ba 4220     		movs	r0, #66
 1641 00bc E421     		movs	r1, #228
 1642 00be FFF7FEFF 		bl	media_VideoFrame
 1643              		.loc 2 152 0
 1644 00c2 0020     		movs	r0, #0
ARM GAS  C:\Users\DNIEL~1\AppData\Local\Temp\cc2SpX71.s 			page 30


 1645 00c4 1621     		movs	r1, #22
 1646 00c6 FFF7FEFF 		bl	media_SetSector
 1647              		.loc 2 153 0
 1648 00ca 0222     		movs	r2, #2
 1649 00cc 6620     		movs	r0, #102
 1650 00ce 6921     		movs	r1, #105
 1651 00d0 FFF7FEFF 		bl	media_VideoFrame
 1652              		.loc 2 154 0
 1653 00d4 1621     		movs	r1, #22
 1654 00d6 0020     		movs	r0, #0
 1655 00d8 FFF7FEFF 		bl	media_SetSector
 1656              		.loc 2 155 0
 1657 00dc 0122     		movs	r2, #1
 1658 00de 4120     		movs	r0, #65
 1659 00e0 6921     		movs	r1, #105
 1660 00e2 FFF7FEFF 		bl	media_VideoFrame
 1661              		.loc 2 156 0
 1662 00e6 0020     		movs	r0, #0
 1663 00e8 1621     		movs	r1, #22
 1664 00ea FFF7FEFF 		bl	media_SetSector
 1665              		.loc 2 157 0
 1666 00ee 0022     		movs	r2, #0
 1667 00f0 6620     		movs	r0, #102
 1668 00f2 F921     		movs	r1, #249
 1669 00f4 FFF7FEFF 		bl	media_VideoFrame
 1670              		.loc 2 158 0
 1671 00f8 0020     		movs	r0, #0
 1672 00fa 1621     		movs	r1, #22
 1673 00fc FFF7FEFF 		bl	media_SetSector
 1674              		.loc 2 159 0
 1675 0100 4120     		movs	r0, #65
 1676 0102 F921     		movs	r1, #249
 1677 0104 0022     		movs	r2, #0
 1678              		.loc 2 161 0
 1679 0106 02B0     		add	sp, sp, #8
 1680 0108 BDE81040 		pop	{r4, lr}
 1681              		.loc 2 159 0
 1682 010c FFF7FEBF 		b	media_VideoFrame
 1683              		.cfi_endproc
 1684              	.LFE121:
 1685              		.size	dsp_LoadBottom, .-dsp_LoadBottom
 1686              		.section	.text.dsp_RefreshMidle,"ax",%progbits
 1687              		.align	2
 1688              		.p2align 4,,15
 1689              		.global	dsp_RefreshMidle
 1690              		.thumb
 1691              		.thumb_func
 1692              		.type	dsp_RefreshMidle, %function
 1693              	dsp_RefreshMidle:
 1694              	.LFB122:
 1695              		.loc 2 163 0
 1696              		.cfi_startproc
 1697              		@ args = 0, pretend = 0, frame = 0
 1698              		@ frame_needed = 0, uses_anonymous_args = 0
 1699              	.LVL86:
 1700 0000 70B5     		push	{r4, r5, r6, lr}
 1701              	.LCFI9:
ARM GAS  C:\Users\DNIEL~1\AppData\Local\Temp\cc2SpX71.s 			page 31


 1702              		.cfi_def_cfa_offset 16
 1703              		.loc 2 163 0
 1704 0002 0446     		mov	r4, r0
 1705              		.cfi_offset 14, -4
 1706              		.cfi_offset 6, -8
 1707              		.cfi_offset 5, -12
 1708              		.cfi_offset 4, -16
 1709              		.loc 2 165 0
 1710 0004 0120     		movs	r0, #1
 1711              	.LVL87:
 1712 0006 FFF7FEFF 		bl	gfx_Transparency
 1713              		.loc 2 166 0
 1714 000a 1F20     		movs	r0, #31
 1715 000c FFF7FEFF 		bl	gfx_TransparentColour
 1716              		.loc 2 167 0
 1717 0010 5721     		movs	r1, #87
 1718 0012 0020     		movs	r0, #0
 1719 0014 FFF7FEFF 		bl	media_SetSector
 1720              		.loc 2 168 0
 1721 0018 3548     		ldr	r0, .L128
 1722 001a E517     		asrs	r5, r4, #31
 1723 001c 80FB0412 		smull	r1, r2, r0, r4
 1724 0020 C5EB6202 		rsb	r2, r5, r2, asr #1
 1725 0024 9420     		movs	r0, #148
 1726 0026 1521     		movs	r1, #21
 1727 0028 FFF7FEFF 		bl	media_VideoFrame
 1728              		.loc 2 170 0
 1729 002c 0020     		movs	r0, #0
 1730 002e 3D21     		movs	r1, #61
 1731 0030 FFF7FEFF 		bl	media_SetSector
 1732              		.loc 2 171 0
 1733 0034 A820     		movs	r0, #168
 1734 0036 CC21     		movs	r1, #204
 1735 0038 FFF7FEFF 		bl	media_Image
 1736              		.loc 2 173 0
 1737 003c 0020     		movs	r0, #0
 1738 003e 41F60A11 		movw	r1, #6410
 1739 0042 FFF7FEFF 		bl	media_SetSector
 1740              		.loc 2 174 0
 1741 0046 0022     		movs	r2, #0
 1742 0048 F421     		movs	r1, #244
 1743 004a 40F23B10 		movw	r0, #315
 1744 004e FFF7FEFF 		bl	media_VideoFrame
 1745              		.loc 2 175 0
 1746 0052 0020     		movs	r0, #0
 1747 0054 41F60A11 		movw	r1, #6410
 1748 0058 FFF7FEFF 		bl	media_SetSector
 1749              		.loc 2 176 0
 1750 005c 2121     		movs	r1, #33
 1751 005e 0022     		movs	r2, #0
 1752 0060 40F23B10 		movw	r0, #315
 1753 0064 FFF7FEFF 		bl	media_VideoFrame
 1754              		.loc 2 178 0
 1755 0068 04F16303 		add	r3, r4, #99
 1756 006c C62B     		cmp	r3, #198
 1757 006e 2FD8     		bhi	.L127
 1758              		.loc 2 183 0
ARM GAS  C:\Users\DNIEL~1\AppData\Local\Temp\cc2SpX71.s 			page 32


 1759 0070 0020     		movs	r0, #0
 1760 0072 41F63111 		movw	r1, #6449
 1761 0076 FFF7FEFF 		bl	media_SetSector
 1762              		.loc 2 184 0
 1763 007a BA20     		movs	r0, #186
 1764 007c 3E21     		movs	r1, #62
 1765 007e 0A22     		movs	r2, #10
 1766 0080 FFF7FEFF 		bl	media_VideoFrame
 1767              	.L126:
 1768              		.loc 2 186 0
 1769 0084 0020     		movs	r0, #0
 1770 0086 41F63111 		movw	r1, #6449
 1771 008a FFF7FEFF 		bl	media_SetSector
 1772              		.loc 2 187 0
 1773 008e 184A     		ldr	r2, .L128
 1774 0090 82FB041C 		smull	r1, ip, r2, r4
 1775 0094 C5EBAC05 		rsb	r5, r5, ip, asr #2
 1776 0098 82FB0530 		smull	r3, r0, r2, r5
 1777 009c E917     		asrs	r1, r5, #31
 1778 009e C1EBA002 		rsb	r2, r1, r0, asr #2
 1779 00a2 02EB8203 		add	r3, r2, r2, lsl #2
 1780 00a6 A5EB4302 		sub	r2, r5, r3, lsl #1
 1781 00aa BA20     		movs	r0, #186
 1782 00ac 7021     		movs	r1, #112
 1783 00ae FFF7FEFF 		bl	media_VideoFrame
 1784              		.loc 2 188 0
 1785 00b2 0020     		movs	r0, #0
 1786 00b4 41F63111 		movw	r1, #6449
 1787 00b8 FFF7FEFF 		bl	media_SetSector
 1788              		.loc 2 189 0
 1789 00bc 05EB8505 		add	r5, r5, r5, lsl #2
 1790 00c0 BA20     		movs	r0, #186
 1791 00c2 A221     		movs	r1, #162
 1792 00c4 A4EB4502 		sub	r2, r4, r5, lsl #1
 1793              		.loc 2 190 0
 1794 00c8 BDE87040 		pop	{r4, r5, r6, lr}
 1795              		.loc 2 189 0
 1796 00cc FFF7FEBF 		b	media_VideoFrame
 1797              	.L127:
 1798              		.loc 2 179 0
 1799 00d0 0020     		movs	r0, #0
 1800 00d2 41F63111 		movw	r1, #6449
 1801 00d6 FFF7FEFF 		bl	media_SetSector
 1802              		.loc 2 180 0
 1803 00da 0649     		ldr	r1, .L128+4
 1804 00dc 81FB043C 		smull	r3, ip, r1, r4
 1805 00e0 BA20     		movs	r0, #186
 1806 00e2 3E21     		movs	r1, #62
 1807 00e4 C5EB6C12 		rsb	r2, r5, ip, asr #5
 1808 00e8 FFF7FEFF 		bl	media_VideoFrame
 1809 00ec CAE7     		b	.L126
 1810              	.L129:
 1811 00ee 00BF     		.align	2
 1812              	.L128:
 1813 00f0 67666666 		.word	1717986919
 1814 00f4 1F85EB51 		.word	1374389535
 1815              		.cfi_endproc
ARM GAS  C:\Users\DNIEL~1\AppData\Local\Temp\cc2SpX71.s 			page 33


 1816              	.LFE122:
 1817              		.size	dsp_RefreshMidle, .-dsp_RefreshMidle
 1818 00f8 AFF30080 		.section	.text.dspInit,"ax",%progbits
 1818      AFF30080 
 1819              		.align	2
 1820              		.p2align 4,,15
 1821              		.global	dspInit
 1822              		.thumb
 1823              		.thumb_func
 1824              		.type	dspInit, %function
 1825              	dspInit:
 1826              	.LFB124:
 1827              		.loc 2 664 0
 1828              		.cfi_startproc
 1829              		@ args = 0, pretend = 0, frame = 0
 1830              		@ frame_needed = 0, uses_anonymous_args = 0
 1831 0000 30B5     		push	{r4, r5, lr}
 1832              	.LCFI10:
 1833              		.cfi_def_cfa_offset 12
 1834              		.loc 2 672 0
 1835 0002 0D4D     		ldr	r5, .L131
 1836              		.cfi_offset 14, -4
 1837              		.cfi_offset 5, -8
 1838              		.cfi_offset 4, -12
 1839              		.loc 2 664 0
 1840 0004 83B0     		sub	sp, sp, #12
 1841              	.LCFI11:
 1842              		.cfi_def_cfa_offset 24
 1843              		.loc 2 666 0
 1844 0006 FFF7FEFF 		bl	gfx_Cls
 1845              		.loc 2 672 0
 1846 000a 0024     		movs	r4, #0
 1847              		.loc 2 667 0
 1848 000c FFF7FEFF 		bl	file_Mount
 1849              		.loc 2 668 0
 1850 0010 FFF7FEFF 		bl	dsp_LoadTop
 1851              		.loc 2 669 0
 1852 0014 FFF7FEFF 		bl	dsp_LoadMidle
 1853              		.loc 2 670 0
 1854 0018 FFF7FEFF 		bl	dsp_LoadBottom
 1855              		.loc 2 671 0
 1856 001c FFF7FEFF 		bl	bus_In
 1857              		.loc 2 673 0
 1858 0020 064B     		ldr	r3, .L131+4
 1859 0022 0748     		ldr	r0, .L131+8
 1860              		.loc 2 672 0
 1861 0024 2C70     		strb	r4, [r5, #0]
 1862              		.loc 2 673 0
 1863 0026 4FF4E871 		mov	r1, #464
 1864 002a 4722     		movs	r2, #71
 1865 002c 0094     		str	r4, [sp, #0]
 1866 002e FFF7FEFF 		bl	chThdCreateStatic
 1867              		.loc 2 674 0
 1868 0032 03B0     		add	sp, sp, #12
 1869 0034 30BD     		pop	{r4, r5, pc}
 1870              	.L132:
 1871 0036 00BF     		.align	2
ARM GAS  C:\Users\DNIEL~1\AppData\Local\Temp\cc2SpX71.s 			page 34


 1872              	.L131:
 1873 0038 00000000 		.word	.LANCHOR5
 1874 003c 00000000 		.word	dspTask
 1875 0040 00000000 		.word	.LANCHOR7
 1876              		.cfi_endproc
 1877              	.LFE124:
 1878              		.size	dspInit, .-dspInit
 1879 0044 AFF30080 		.section	.text.dspCalc,"ax",%progbits
 1879      AFF30080 
 1879      AFF30080 
 1880              		.align	2
 1881              		.p2align 4,,15
 1882              		.global	dspCalc
 1883              		.thumb
 1884              		.thumb_func
 1885              		.type	dspCalc, %function
 1886              	dspCalc:
 1887              	.LFB125:
 1888              		.loc 2 676 0
 1889              		.cfi_startproc
 1890              		@ args = 0, pretend = 0, frame = 0
 1891              		@ frame_needed = 0, uses_anonymous_args = 0
 1892              		@ link register save eliminated.
 1893              		.loc 2 678 0
 1894 0000 7047     		bx	lr
 1895              		.cfi_endproc
 1896              	.LFE125:
 1897              		.size	dspCalc, .-dspCalc
 1898 0002 00BFAFF3 		.section	.text.dspGetValue,"ax",%progbits
 1898      0080AFF3 
 1898      0080AFF3 
 1898      0080
 1899              		.align	2
 1900              		.p2align 4,,15
 1901              		.global	dspGetValue
 1902              		.thumb
 1903              		.thumb_func
 1904              		.type	dspGetValue, %function
 1905              	dspGetValue:
 1906              	.LFB126:
 1907              		.loc 2 680 0
 1908              		.cfi_startproc
 1909              		@ args = 0, pretend = 0, frame = 0
 1910              		@ frame_needed = 0, uses_anonymous_args = 0
 1911              		@ link register save eliminated.
 1912              	.LVL88:
 1913              		.loc 2 683 0
 1914 0000 034B     		ldr	r3, .L135
 1915 0002 0828     		cmp	r0, #8
 1916 0004 94BF     		ite	ls
 1917 0006 1B18     		addls	r3, r3, r0
 1918 0008 0833     		addhi	r3, r3, #8
 1919              		.loc 2 684 0
 1920 000a 13F8010C 		ldrb	r0, [r3, #-1]	@ zero_extendqisi2
 1921              	.LVL89:
 1922 000e 7047     		bx	lr
 1923              	.L136:
ARM GAS  C:\Users\DNIEL~1\AppData\Local\Temp\cc2SpX71.s 			page 35


 1924              		.align	2
 1925              	.L135:
 1926 0010 00000000 		.word	.LANCHOR2
 1927              		.cfi_endproc
 1928              	.LFE126:
 1929              		.size	dspGetValue, .-dspGetValue
 1930 0014 AFF30080 		.section	.text.cmd_dspvalues,"ax",%progbits
 1930      AFF30080 
 1930      AFF30080 
 1931              		.align	2
 1932              		.p2align 4,,15
 1933              		.global	cmd_dspvalues
 1934              		.thumb
 1935              		.thumb_func
 1936              		.type	cmd_dspvalues, %function
 1937              	cmd_dspvalues:
 1938              	.LFB127:
 1939              		.loc 2 686 0
 1940              		.cfi_startproc
 1941              		@ args = 0, pretend = 0, frame = 0
 1942              		@ frame_needed = 0, uses_anonymous_args = 0
 1943              	.LVL90:
 1944 0000 2DE9F041 		push	{r4, r5, r6, r7, r8, lr}
 1945              	.LCFI12:
 1946              		.cfi_def_cfa_offset 24
 1947              		.loc 2 691 0
 1948 0004 3F49     		ldr	r1, .L148
 1949              	.LVL91:
 1950              		.loc 2 695 0
 1951 0006 DFF83081 		ldr	r8, .L148+52
 1952              		.cfi_offset 14, -4
 1953              		.cfi_offset 8, -8
 1954              		.cfi_offset 7, -12
 1955              		.cfi_offset 6, -16
 1956              		.cfi_offset 5, -20
 1957              		.cfi_offset 4, -24
 1958              		.loc 2 686 0
 1959 000a 3F4E     		ldr	r6, .L148+4
 1960 000c 0546     		mov	r5, r0
 1961              		.loc 2 691 0
 1962 000e FFF7FEFF 		bl	chprintf
 1963              	.LVL92:
 1964              		.loc 2 692 0
 1965 0012 2846     		mov	r0, r5
 1966 0014 3D49     		ldr	r1, .L148+8
 1967 0016 FFF7FEFF 		bl	chprintf
 1968              		.loc 2 693 0
 1969 001a 2968     		ldr	r1, [r5, #0]
 1970 001c 2846     		mov	r0, r5
 1971 001e 4A69     		ldr	r2, [r1, #20]
 1972 0020 0021     		movs	r1, #0
 1973 0022 9047     		blx	r2
 1974 0024 B0F1FF3F 		cmp	r0, #-1
 1975 0028 69D1     		bne	.L147
 1976              	.L140:
 1977              		.loc 2 694 0
 1978 002a 0022     		movs	r2, #0
ARM GAS  C:\Users\DNIEL~1\AppData\Local\Temp\cc2SpX71.s 			page 36


 1979 002c 1346     		mov	r3, r2
 1980 002e 3849     		ldr	r1, .L148+12
 1981              		.loc 2 699 0
 1982 0030 384F     		ldr	r7, .L148+16
 1983              		.loc 2 686 0
 1984 0032 394C     		ldr	r4, .L148+20
 1985              		.loc 2 694 0
 1986 0034 2846     		mov	r0, r5
 1987 0036 FFF7FEFF 		bl	chprintf
 1988              		.loc 2 695 0
 1989 003a 98F80020 		ldrb	r2, [r8, #0]	@ zero_extendqisi2
 1990 003e 3749     		ldr	r1, .L148+24
 1991 0040 2846     		mov	r0, r5
 1992 0042 FFF7FEFF 		bl	chprintf
 1993              		.loc 2 696 0
 1994 0046 2846     		mov	r0, r5
 1995 0048 3549     		ldr	r1, .L148+28
 1996 004a FFF7FEFF 		bl	chprintf
 1997              	.LVL93:
 1998              		.loc 2 699 0
 1999 004e 3549     		ldr	r1, .L148+32
 2000 0050 3A78     		ldrb	r2, [r7, #0]	@ zero_extendqisi2
 2001 0052 2846     		mov	r0, r5
 2002 0054 FFF7FEFF 		bl	chprintf
 2003              	.LVL94:
 2004 0058 2846     		mov	r0, r5
 2005 005a 3249     		ldr	r1, .L148+32
 2006 005c 7A78     		ldrb	r2, [r7, #1]	@ zero_extendqisi2
 2007 005e FFF7FEFF 		bl	chprintf
 2008              	.LVL95:
 2009 0062 2846     		mov	r0, r5
 2010 0064 2F49     		ldr	r1, .L148+32
 2011 0066 BA78     		ldrb	r2, [r7, #2]	@ zero_extendqisi2
 2012 0068 FFF7FEFF 		bl	chprintf
 2013              	.LVL96:
 2014 006c 2846     		mov	r0, r5
 2015 006e 2D49     		ldr	r1, .L148+32
 2016 0070 FA78     		ldrb	r2, [r7, #3]	@ zero_extendqisi2
 2017 0072 FFF7FEFF 		bl	chprintf
 2018              	.LVL97:
 2019 0076 2846     		mov	r0, r5
 2020 0078 2A49     		ldr	r1, .L148+32
 2021 007a 3A79     		ldrb	r2, [r7, #4]	@ zero_extendqisi2
 2022 007c FFF7FEFF 		bl	chprintf
 2023              	.LVL98:
 2024 0080 2846     		mov	r0, r5
 2025 0082 2849     		ldr	r1, .L148+32
 2026 0084 7A79     		ldrb	r2, [r7, #5]	@ zero_extendqisi2
 2027 0086 FFF7FEFF 		bl	chprintf
 2028              	.LVL99:
 2029 008a 2846     		mov	r0, r5
 2030 008c 2549     		ldr	r1, .L148+32
 2031 008e BA79     		ldrb	r2, [r7, #6]	@ zero_extendqisi2
 2032 0090 FFF7FEFF 		bl	chprintf
 2033              	.LVL100:
 2034 0094 FA79     		ldrb	r2, [r7, #7]	@ zero_extendqisi2
 2035 0096 2349     		ldr	r1, .L148+32
ARM GAS  C:\Users\DNIEL~1\AppData\Local\Temp\cc2SpX71.s 			page 37


 2036 0098 2846     		mov	r0, r5
 2037 009a FFF7FEFF 		bl	chprintf
 2038              	.LVL101:
 2039              		.loc 2 701 0
 2040 009e 2846     		mov	r0, r5
 2041 00a0 2149     		ldr	r1, .L148+36
 2042 00a2 FFF7FEFF 		bl	chprintf
 2043              		.loc 2 702 0
 2044 00a6 2846     		mov	r0, r5
 2045 00a8 2049     		ldr	r1, .L148+40
 2046 00aa FFF7FEFF 		bl	chprintf
 2047              	.LVL102:
 2048              		.loc 2 705 0
 2049 00ae 2846     		mov	r0, r5
 2050 00b0 1C49     		ldr	r1, .L148+32
 2051 00b2 2268     		ldr	r2, [r4, #0]
 2052 00b4 FFF7FEFF 		bl	chprintf
 2053              	.LVL103:
 2054              	.L139:
 2055              		.loc 2 686 0 discriminator 2
 2056 00b8 271D     		adds	r7, r4, #4
 2057              		.loc 2 705 0 discriminator 2
 2058 00ba 6268     		ldr	r2, [r4, #4]
 2059 00bc 1949     		ldr	r1, .L148+32
 2060 00be 2846     		mov	r0, r5
 2061 00c0 FFF7FEFF 		bl	chprintf
 2062              		.loc 2 686 0 discriminator 2
 2063 00c4 0834     		adds	r4, r4, #8
 2064              		.loc 2 705 0 discriminator 2
 2065 00c6 2846     		mov	r0, r5
 2066 00c8 1649     		ldr	r1, .L148+32
 2067 00ca 7A68     		ldr	r2, [r7, #4]
 2068 00cc FFF7FEFF 		bl	chprintf
 2069              		.loc 2 703 0 discriminator 2
 2070 00d0 B442     		cmp	r4, r6
 2071 00d2 F1D1     		bne	.L139
 2072              		.loc 2 707 0
 2073 00d4 2846     		mov	r0, r5
 2074 00d6 1449     		ldr	r1, .L148+36
 2075 00d8 FFF7FEFF 		bl	chprintf
 2076              		.loc 2 708 0
 2077 00dc 144B     		ldr	r3, .L148+44
 2078 00de 1549     		ldr	r1, .L148+48
 2079 00e0 1A78     		ldrb	r2, [r3, #0]	@ zero_extendqisi2
 2080 00e2 2846     		mov	r0, r5
 2081 00e4 FFF7FEFF 		bl	chprintf
 2082              		.loc 2 709 0
 2083 00e8 9620     		movs	r0, #150
 2084 00ea FFF7FEFF 		bl	chThdSleep
 2085              		.loc 2 693 0
 2086 00ee 2968     		ldr	r1, [r5, #0]
 2087 00f0 2846     		mov	r0, r5
 2088 00f2 4A69     		ldr	r2, [r1, #20]
 2089 00f4 0021     		movs	r1, #0
 2090 00f6 9047     		blx	r2
 2091 00f8 B0F1FF3F 		cmp	r0, #-1
 2092 00fc 95D0     		beq	.L140
ARM GAS  C:\Users\DNIEL~1\AppData\Local\Temp\cc2SpX71.s 			page 38


 2093              	.L147:
 2094              		.loc 2 711 0
 2095 00fe BDE8F081 		pop	{r4, r5, r6, r7, r8, pc}
 2096              	.L149:
 2097 0102 00BF     		.align	2
 2098              	.L148:
 2099 0104 08000000 		.word	.LC1
 2100 0108 80000000 		.word	.LANCHOR6+128
 2101 010c 0C000000 		.word	.LC2
 2102 0110 14000000 		.word	.LC3
 2103 0114 00000000 		.word	.LANCHOR2
 2104 0118 00000000 		.word	.LANCHOR6
 2105 011c 20000000 		.word	.LC4
 2106 0120 34000000 		.word	.LC5
 2107 0124 40000000 		.word	.LC6
 2108 0128 44000000 		.word	.LC7
 2109 012c 48000000 		.word	.LC8
 2110 0130 00000000 		.word	.LANCHOR5
 2111 0134 58000000 		.word	.LC9
 2112 0138 00000000 		.word	.LANCHOR1
 2113              		.cfi_endproc
 2114              	.LFE127:
 2115              		.size	cmd_dspvalues, .-cmd_dspvalues
 2116 013c AFF30080 		.section	.text.cmdfrappans_dspmessages,"ax",%progbits
 2117              		.align	2
 2118              		.p2align 4,,15
 2119              		.global	cmdfrappans_dspmessages
 2120              		.thumb
 2121              		.thumb_func
 2122              		.type	cmdfrappans_dspmessages, %function
 2123              	cmdfrappans_dspmessages:
 2124              	.LFB128:
 2125              		.loc 2 713 0
 2126              		.cfi_startproc
 2127              		@ args = 0, pretend = 0, frame = 0
 2128              		@ frame_needed = 0, uses_anonymous_args = 0
 2129              	.LVL104:
 2130 0000 70B5     		push	{r4, r5, r6, lr}
 2131              	.LCFI13:
 2132              		.cfi_def_cfa_offset 16
 2133              		.loc 2 713 0
 2134 0002 0446     		mov	r4, r0
 2135              		.cfi_offset 14, -4
 2136              		.cfi_offset 6, -8
 2137              		.cfi_offset 5, -12
 2138              		.cfi_offset 4, -16
 2139 0004 0D46     		mov	r5, r1
 2140              		.loc 2 719 0
 2141 0006 4149     		ldr	r1, .L162
 2142              	.LVL105:
 2143              		.loc 2 713 0
 2144 0008 1646     		mov	r6, r2
 2145              		.loc 2 719 0
 2146 000a FFF7FEFF 		bl	chprintf
 2147              	.LVL106:
 2148              		.loc 2 720 0
 2149 000e 2046     		mov	r0, r4
ARM GAS  C:\Users\DNIEL~1\AppData\Local\Temp\cc2SpX71.s 			page 39


 2150 0010 3F49     		ldr	r1, .L162+4
 2151 0012 FFF7FEFF 		bl	chprintf
 2152              		.loc 2 721 0
 2153 0016 2168     		ldr	r1, [r4, #0]
 2154 0018 2046     		mov	r0, r4
 2155 001a 4B69     		ldr	r3, [r1, #20]
 2156 001c 0021     		movs	r1, #0
 2157 001e 9847     		blx	r3
 2158 0020 B0F1FF3F 		cmp	r0, #-1
 2159 0024 11D0     		beq	.L157
 2160              	.LVL107:
 2161              	.L151:
 2162              		.loc 2 766 0
 2163 0026 2046     		mov	r0, r4
 2164 0028 3A49     		ldr	r1, .L162+8
 2165 002a FFF7FEFF 		bl	chprintf
 2166              		.loc 2 767 0
 2167 002e 2046     		mov	r0, r4
 2168 0030 3949     		ldr	r1, .L162+12
 2169 0032 FFF7FEFF 		bl	chprintf
 2170              		.loc 2 768 0
 2171 0036 2046     		mov	r0, r4
 2172 0038 3849     		ldr	r1, .L162+16
 2173 003a FFF7FEFF 		bl	chprintf
 2174              		.loc 2 769 0
 2175 003e 3849     		ldr	r1, .L162+20
 2176 0040 2046     		mov	r0, r4
 2177              		.loc 2 773 0
 2178 0042 BDE87040 		pop	{r4, r5, r6, lr}
 2179              		.loc 2 769 0
 2180 0046 FFF7FEBF 		b	chprintf
 2181              	.LVL108:
 2182              	.L157:
 2183              	.LBB16:
 2184              		.loc 2 722 0
 2185 004a 0022     		movs	r2, #0
 2186 004c 2046     		mov	r0, r4
 2187 004e 3549     		ldr	r1, .L162+24
 2188 0050 1346     		mov	r3, r2
 2189 0052 FFF7FEFF 		bl	chprintf
 2190              		.loc 2 724 0
 2191 0056 012D     		cmp	r5, #1
 2192 0058 11D0     		beq	.L158
 2193              		.loc 2 754 0
 2194 005a 022D     		cmp	r5, #2
 2195 005c E3D1     		bne	.L151
 2196              		.loc 2 754 0 is_stmt 0 discriminator 1
 2197 005e 3068     		ldr	r0, [r6, #0]
 2198 0060 3149     		ldr	r1, .L162+28
 2199 0062 FFF7FEFF 		bl	strcmp
 2200 0066 0028     		cmp	r0, #0
 2201 0068 DDD1     		bne	.L151
 2202              	.LBB17:
 2203              		.loc 2 756 0 is_stmt 1
 2204 006a 2046     		mov	r0, r4
 2205 006c 2F49     		ldr	r1, .L162+32
 2206 006e FFF7FEFF 		bl	chprintf
ARM GAS  C:\Users\DNIEL~1\AppData\Local\Temp\cc2SpX71.s 			page 40


 2207              		.loc 2 757 0
 2208 0072 7068     		ldr	r0, [r6, #4]
 2209 0074 FFF7FEFF 		bl	atol
 2210 0078 2D4A     		ldr	r2, .L162+36
 2211 007a 1060     		str	r0, [r2, #0]
 2212              	.LBE17:
 2213              	.LBE16:
 2214              		.loc 2 773 0
 2215 007c 70BD     		pop	{r4, r5, r6, pc}
 2216              	.L158:
 2217              	.LBB18:
 2218              		.loc 2 724 0 discriminator 1
 2219 007e 3568     		ldr	r5, [r6, #0]
 2220              	.LVL109:
 2221 0080 2C49     		ldr	r1, .L162+40
 2222 0082 2846     		mov	r0, r5
 2223 0084 FFF7FEFF 		bl	strcmp
 2224 0088 0028     		cmp	r0, #0
 2225 008a 1DD0     		beq	.L159
 2226              		.loc 2 731 0 discriminator 1
 2227 008c 2846     		mov	r0, r5
 2228 008e 2A49     		ldr	r1, .L162+44
 2229 0090 FFF7FEFF 		bl	strcmp
 2230 0094 0646     		mov	r6, r0
 2231              	.LVL110:
 2232 0096 0028     		cmp	r0, #0
 2233 0098 1ED0     		beq	.L160
 2234              		.loc 2 739 0 discriminator 1
 2235 009a 2846     		mov	r0, r5
 2236 009c 2749     		ldr	r1, .L162+48
 2237 009e FFF7FEFF 		bl	strcmp
 2238 00a2 0646     		mov	r6, r0
 2239 00a4 0028     		cmp	r0, #0
 2240 00a6 22D0     		beq	.L161
 2241              		.loc 2 748 0 discriminator 1
 2242 00a8 2846     		mov	r0, r5
 2243 00aa 2549     		ldr	r1, .L162+52
 2244 00ac FFF7FEFF 		bl	strcmp
 2245 00b0 0028     		cmp	r0, #0
 2246 00b2 B8D1     		bne	.L151
 2247              		.loc 2 750 0
 2248 00b4 2046     		mov	r0, r4
 2249 00b6 1D49     		ldr	r1, .L162+32
 2250 00b8 FFF7FEFF 		bl	chprintf
 2251              		.loc 2 751 0
 2252 00bc 4FF47840 		mov	r0, #63488
 2253              	.LBE18:
 2254              		.loc 2 773 0
 2255 00c0 BDE87040 		pop	{r4, r5, r6, lr}
 2256              	.LBB19:
 2257              		.loc 2 751 0
 2258 00c4 FFF7FEBF 		b	gfx_BGcolour
 2259              	.LVL111:
 2260              	.L159:
 2261              		.loc 2 726 0
 2262 00c8 2046     		mov	r0, r4
 2263 00ca 1E49     		ldr	r1, .L162+56
ARM GAS  C:\Users\DNIEL~1\AppData\Local\Temp\cc2SpX71.s 			page 41


 2264 00cc FFF7FEFF 		bl	chprintf
 2265              	.LBE19:
 2266              		.loc 2 773 0
 2267 00d0 BDE87040 		pop	{r4, r5, r6, lr}
 2268              	.LBB20:
 2269              		.loc 2 727 0
 2270 00d4 FFF7FEBF 		b	gfx_Cls
 2271              	.LVL112:
 2272              	.L160:
 2273              		.loc 2 733 0
 2274 00d8 2046     		mov	r0, r4
 2275 00da 1B49     		ldr	r1, .L162+60
 2276 00dc FFF7FEFF 		bl	chprintf
 2277              		.loc 2 734 0
 2278 00e0 3046     		mov	r0, r6
 2279 00e2 41F6C111 		movw	r1, #6593
 2280              	.LBE20:
 2281              		.loc 2 773 0
 2282 00e6 BDE87040 		pop	{r4, r5, r6, lr}
 2283              	.LBB21:
 2284              		.loc 2 734 0
 2285 00ea FFF7FEBF 		b	media_SetSector
 2286              	.L161:
 2287              		.loc 2 741 0
 2288 00ee 2046     		mov	r0, r4
 2289 00f0 1649     		ldr	r1, .L162+64
 2290 00f2 FFF7FEFF 		bl	chprintf
 2291              		.loc 2 743 0
 2292 00f6 3046     		mov	r0, r6
 2293 00f8 41F6C111 		movw	r1, #6593
 2294 00fc FFF7FEFF 		bl	media_SetSector
 2295              		.loc 2 744 0
 2296 0100 3046     		mov	r0, r6
 2297 0102 3146     		mov	r1, r6
 2298              	.LBE21:
 2299              		.loc 2 773 0
 2300 0104 BDE87040 		pop	{r4, r5, r6, lr}
 2301              	.LBB22:
 2302              		.loc 2 744 0
 2303 0108 FFF7FEBF 		b	media_Image
 2304              	.L163:
 2305              		.align	2
 2306              	.L162:
 2307 010c 08000000 		.word	.LC1
 2308 0110 0C000000 		.word	.LC2
 2309 0114 48010000 		.word	.LC19
 2310 0118 58010000 		.word	.LC20
 2311 011c 68010000 		.word	.LC21
 2312 0120 78010000 		.word	.LC22
 2313 0124 14000000 		.word	.LC3
 2314 0128 40010000 		.word	.LC18
 2315 012c 14010000 		.word	.LC17
 2316 0130 00000000 		.word	.LANCHOR8
 2317 0134 6C000000 		.word	.LC10
 2318 0138 A0000000 		.word	.LC12
 2319 013c D4000000 		.word	.LC14
 2320 0140 08010000 		.word	.LC16
ARM GAS  C:\Users\DNIEL~1\AppData\Local\Temp\cc2SpX71.s 			page 42


 2321 0144 74000000 		.word	.LC11
 2322 0148 A8000000 		.word	.LC13
 2323 014c DC000000 		.word	.LC15
 2324              	.LBE22:
 2325              		.cfi_endproc
 2326              	.LFE128:
 2327              		.size	cmdfrappans_dspmessages, .-cmdfrappans_dspmessages
 2328              		.global	db
 2329              		.global	db2
 2330              		.global	cruise_assis
 2331              		.global	dspstate
 2332              		.global	dspmessages
 2333              		.global	dsp_activ
 2334              		.global	c
 2335              		.global	szamlalo
 2336              		.section	.bss.bus_status,"aw",%nobits
 2337              		.set	.LANCHOR1,. + 0
 2338              		.type	bus_status, %object
 2339              		.size	bus_status, 1
 2340              	bus_status:
 2341 0000 00       		.space	1
 2342              		.section	.bss.cruise_assis,"aw",%nobits
 2343              		.type	cruise_assis, %object
 2344              		.size	cruise_assis, 1
 2345              	cruise_assis:
 2346 0000 00       		.space	1
 2347              		.section	.bss.dspstate,"aw",%nobits
 2348              		.type	dspstate, %object
 2349              		.size	dspstate, 1
 2350              	dspstate:
 2351 0000 00       		.space	1
 2352              		.section	.bss.tasknumber,"aw",%nobits
 2353              		.align	2
 2354              		.set	.LANCHOR4,. + 0
 2355              		.type	tasknumber, %object
 2356              		.size	tasknumber, 4
 2357              	tasknumber:
 2358 0000 00000000 		.space	4
 2359              		.section	.bss.c,"aw",%nobits
 2360              		.type	c, %object
 2361              		.size	c, 1
 2362              	c:
 2363 0000 00       		.space	1
 2364              		.section	.bss.dsp_activ,"aw",%nobits
 2365              		.type	dsp_activ, %object
 2366              		.size	dsp_activ, 1
 2367              	dsp_activ:
 2368 0000 00       		.space	1
 2369              		.section	.bss.bus_read,"aw",%nobits
 2370              		.align	2
 2371              		.set	.LANCHOR0,. + 0
 2372              		.type	bus_read, %object
 2373              		.size	bus_read, 4
 2374              	bus_read:
 2375 0000 00000000 		.space	4
 2376              		.section	.rodata.str1.4,"aMS",%progbits,1
 2377              		.align	2
ARM GAS  C:\Users\DNIEL~1\AppData\Local\Temp\cc2SpX71.s 			page 43


 2378              	.LC0:
 2379 0000 64737054 		.ascii	"dspTask\000"
 2379      61736B00 
 2380              	.LC1:
 2381 0008 1B6300   		.ascii	"\033c\000"
 2382 000b 00       		.space	1
 2383              	.LC2:
 2384 000c 1B5B324A 		.ascii	"\033[2J\000"
 2384      00
 2385 0011 000000   		.space	3
 2386              	.LC3:
 2387 0014 1B5B2564 		.ascii	"\033[%d;%dH\000"
 2387      3B256448 
 2387      00
 2388 001d 000000   		.space	3
 2389              	.LC4:
 2390 0020 6275735F 		.ascii	"bus_status: %x\015\012\000"
 2390      73746174 
 2390      75733A20 
 2390      25780D0A 
 2390      00
 2391 0031 000000   		.space	3
 2392              	.LC5:
 2393 0034 6275735F 		.ascii	"bus_bit[]: \000"
 2393      6269745B 
 2393      5D3A2000 
 2394              	.LC6:
 2395 0040 25642000 		.ascii	"%d \000"
 2396              	.LC7:
 2397 0044 0D0A00   		.ascii	"\015\012\000"
 2398 0047 00       		.space	1
 2399              	.LC8:
 2400 0048 64737056 		.ascii	"dspValues[]: \000"
 2400      616C7565 
 2400      735B5D3A 
 2400      2000
 2401 0056 0000     		.space	2
 2402              	.LC9:
 2403 0058 6473706D 		.ascii	"dspmessages: %d\015\012\000"
 2403      65737361 
 2403      6765733A 
 2403      2025640D 
 2403      0A00
 2404 006a 0000     		.space	2
 2405              	.LC10:
 2406 006c 436C6561 		.ascii	"Clear\000"
 2406      7200
 2407 0072 0000     		.space	2
 2408              	.LC11:
 2409 0074 2D2D2D2D 		.ascii	"-------------- dps clear --------------\015\012\000"
 2409      2D2D2D2D 
 2409      2D2D2D2D 
 2409      2D2D2064 
 2409      70732063 
 2410 009e 0000     		.space	2
 2411              	.LC12:
 2412 00a0 53656374 		.ascii	"Sector\000"
ARM GAS  C:\Users\DNIEL~1\AppData\Local\Temp\cc2SpX71.s 			page 44


 2412      6F7200
 2413 00a7 00       		.space	1
 2414              	.LC13:
 2415 00a8 2D2D2D2D 		.ascii	"--------------Set sector --------------\015\012\000"
 2415      2D2D2D2D 
 2415      2D2D2D2D 
 2415      2D2D5365 
 2415      74207365 
 2416 00d2 0000     		.space	2
 2417              	.LC14:
 2418 00d4 496D6167 		.ascii	"Image\000"
 2418      6500
 2419 00da 0000     		.space	2
 2420              	.LC15:
 2421 00dc 2D2D2D2D 		.ascii	"-------------- media Image --------------\015\012\000"
 2421      2D2D2D2D 
 2421      2D2D2D2D 
 2421      2D2D206D 
 2421      65646961 
 2422              	.LC16:
 2423 0108 4261636B 		.ascii	"Background\000"
 2423      67726F75 
 2423      6E6400
 2424 0113 00       		.space	1
 2425              	.LC17:
 2426 0114 2D2D2D2D 		.ascii	"-------------- Background --------------\015\012\000"
 2426      2D2D2D2D 
 2426      2D2D2D2D 
 2426      2D2D2042 
 2426      61636B67 
 2427 013f 00       		.space	1
 2428              	.LC18:
 2429 0140 53706565 		.ascii	"Speed\000"
 2429      6400
 2430 0146 0000     		.space	2
 2431              	.LC19:
 2432 0148 55736167 		.ascii	"Usage: Clear\015\012\000"
 2432      653A2043 
 2432      6C656172 
 2432      0D0A00
 2433 0157 00       		.space	1
 2434              	.LC20:
 2435 0158 20202020 		.ascii	"       Sector\015\012\000"
 2435      20202053 
 2435      6563746F 
 2435      720D0A00 
 2436              	.LC21:
 2437 0168 20202020 		.ascii	"       Image\015\012\000"
 2437      20202049 
 2437      6D616765 
 2437      0D0A00
 2438 0177 00       		.space	1
 2439              	.LC22:
 2440 0178 20202020 		.ascii	"       Background\015\012\000"
 2440      20202042 
 2440      61636B67 
 2440      726F756E 
ARM GAS  C:\Users\DNIEL~1\AppData\Local\Temp\cc2SpX71.s 			page 45


 2440      640D0A00 
 2441              		.section	.data.db,"aw",%progbits
 2442              		.align	2
 2443              		.set	.LANCHOR8,. + 0
 2444              		.type	db, %object
 2445              		.size	db, 4
 2446              	db:
 2447 0000 7F000000 		.word	127
 2448              		.section	.bss.bus_bit,"aw",%nobits
 2449              		.align	2
 2450              		.set	.LANCHOR2,. + 0
 2451              		.type	bus_bit, %object
 2452              		.size	bus_bit, 8
 2453              	bus_bit:
 2454 0000 00000000 		.space	8
 2454      00000000 
 2455              		.section	.bss.szamlalo,"aw",%nobits
 2456              		.align	2
 2457              		.set	.LANCHOR3,. + 0
 2458              		.type	szamlalo, %object
 2459              		.size	szamlalo, 4
 2460              	szamlalo:
 2461 0000 00000000 		.space	4
 2462              		.section	.data.dspValue,"aw",%progbits
 2463              		.align	2
 2464              		.set	.LANCHOR6,. + 0
 2465              		.type	dspValue, %object
 2466              		.size	dspValue, 132
 2467              	dspValue:
 2468 0000 FFFFFFFF 		.word	-1
 2469 0004 00000000 		.space	128
 2469      00000000 
 2469      00000000 
 2469      00000000 
 2469      00000000 
 2470              		.section	.bss.dspmessages,"aw",%nobits
 2471              		.set	.LANCHOR5,. + 0
 2472              		.type	dspmessages, %object
 2473              		.size	dspmessages, 1
 2474              	dspmessages:
 2475 0000 00       		.space	1
 2476              		.section	.bss.db2,"aw",%nobits
 2477              		.align	2
 2478              		.type	db2, %object
 2479              		.size	db2, 4
 2480              	db2:
 2481 0000 00000000 		.space	4
 2482              		.section	.bss.wadspTask,"aw",%nobits
 2483              		.align	3
 2484              		.set	.LANCHOR7,. + 0
 2485              		.type	wadspTask, %object
 2486              		.size	wadspTask, 464
 2487              	wadspTask:
 2488 0000 00000000 		.space	464
 2488      00000000 
 2488      00000000 
 2488      00000000 
ARM GAS  C:\Users\DNIEL~1\AppData\Local\Temp\cc2SpX71.s 			page 46


 2488      00000000 
 2489              		.text
 2490              	.Letext0: