ARM GAS  C:\Users\DNIEL~1\AppData\Local\Temp\ccx0Yxub.s 			page 1


   1              		.syntax unified
   2              		.cpu cortex-m4
   3              		.fpu softvfp
   4              		.eabi_attribute 20, 1
   5              		.eabi_attribute 21, 1
   6              		.eabi_attribute 23, 3
   7              		.eabi_attribute 24, 1
   8              		.eabi_attribute 25, 1
   9              		.eabi_attribute 26, 1
  10              		.eabi_attribute 30, 2
  11              		.eabi_attribute 18, 4
  12              		.thumb
  13              		.file	"eeprom.c"
  14              		.section	.debug_abbrev,"",%progbits
  15              	.Ldebug_abbrev0:
  16              		.section	.debug_info,"",%progbits
  17              	.Ldebug_info0:
  18              		.section	.debug_line,"",%progbits
  19              	.Ldebug_line0:
  20 0000 FF030000 		.text
  20      02000103 
  20      00000201 
  20      FB0E0D00 
  20      01010101 
  21              	.Ltext0:
  22              		.cfi_sections	.debug_frame
  23              		.section	.text.chprintf,"ax",%progbits
  24              		.align	2
  25              		.p2align 4,,15
  26              		.thumb
  27              		.thumb_func
  28              		.type	chprintf, %function
  29              	chprintf:
  30              	.LFB118:
  31              		.file 1 "../../../ChibiOS/os/various/chprintf.h"
  32              		.loc 1 69 0
  33              		.cfi_startproc
  34              		@ args = 4, pretend = 12, frame = 8
  35              		@ frame_needed = 0, uses_anonymous_args = 1
  36              	.LVL0:
  37 0000 0EB4     		push	{r1, r2, r3}
  38              	.LCFI0:
  39              		.cfi_def_cfa_offset 12
  40 0002 00B5     		push	{lr}
  41              	.LCFI1:
  42              		.cfi_def_cfa_offset 16
  43 0004 82B0     		sub	sp, sp, #8
  44              	.LCFI2:
  45              		.cfi_def_cfa_offset 24
  46              		.loc 1 69 0
  47 0006 03AB     		add	r3, sp, #12
  48              		.cfi_offset 14, -16
  49              		.cfi_offset 3, -4
  50              		.cfi_offset 2, -8
  51              		.cfi_offset 1, -12
  52 0008 53F8041B 		ldr	r1, [r3], #4
  53              		.loc 1 73 0
ARM GAS  C:\Users\DNIEL~1\AppData\Local\Temp\ccx0Yxub.s 			page 2


  54 000c 1A46     		mov	r2, r3
  55              		.loc 1 72 0
  56 000e 0193     		str	r3, [sp, #4]
  57              		.loc 1 73 0
  58 0010 FFF7FEFF 		bl	chvprintf
  59              	.LVL1:
  60              		.loc 1 75 0
  61 0014 02B0     		add	sp, sp, #8
  62 0016 5DF804EB 		pop	{lr}
  63 001a 03B0     		add	sp, sp, #12
  64 001c 7047     		bx	lr
  65              		.cfi_endproc
  66              	.LFE118:
  67              		.size	chprintf, .-chprintf
  68 001e 00BF     		.section	.text.eepromInit,"ax",%progbits
  69              		.align	2
  70              		.p2align 4,,15
  71              		.global	eepromInit
  72              		.thumb
  73              		.thumb_func
  74              		.type	eepromInit, %function
  75              	eepromInit:
  76              	.LFB119:
  77              		.file 2 "src/eeprom.c"
  78              		.loc 2 27 0
  79              		.cfi_startproc
  80              		@ args = 0, pretend = 0, frame = 0
  81              		@ frame_needed = 0, uses_anonymous_args = 0
  82              		@ link register save eliminated.
  83              		.loc 2 28 0
  84 0000 0148     		ldr	r0, .L3
  85 0002 0249     		ldr	r1, .L3+4
  86              		.loc 2 29 0
  87              		.loc 2 28 0
  88 0004 FFF7FEBF 		b	i2cStart
  89              	.L4:
  90              		.align	2
  91              	.L3:
  92 0008 00000000 		.word	I2CD1
  93 000c 00000000 		.word	.LANCHOR0
  94              		.cfi_endproc
  95              	.LFE119:
  96              		.size	eepromInit, .-eepromInit
  97              		.section	.text.eepromGetItembyName,"ax",%progbits
  98              		.align	2
  99              		.p2align 4,,15
 100              		.global	eepromGetItembyName
 101              		.thumb
 102              		.thumb_func
 103              		.type	eepromGetItembyName, %function
 104              	eepromGetItembyName:
 105              	.LFB120:
 106              		.loc 2 31 0
 107              		.cfi_startproc
 108              		@ args = 0, pretend = 0, frame = 0
 109              		@ frame_needed = 0, uses_anonymous_args = 0
 110              		@ link register save eliminated.
ARM GAS  C:\Users\DNIEL~1\AppData\Local\Temp\ccx0Yxub.s 			page 3


 111              	.LVL2:
 112              		.loc 2 35 0
 113 0000 114B     		ldr	r3, .L18
 114 0002 5A79     		ldrb	r2, [r3, #5]	@ zero_extendqisi2
 115 0004 8242     		cmp	r2, r0
 116 0006 12D0     		beq	.L9
 117              		.loc 2 36 0
 118 0008 032A     		cmp	r2, #3
 119 000a 0ED0     		beq	.L14
 120              	.LVL3:
 121              		.loc 2 35 0
 122 000c DA7A     		ldrb	r2, [r3, #11]	@ zero_extendqisi2
 123 000e 8242     		cmp	r2, r0
 124 0010 13D0     		beq	.L11
 125              		.loc 2 36 0
 126 0012 032A     		cmp	r2, #3
 127 0014 09D0     		beq	.L14
 128              	.LVL4:
 129              		.loc 2 35 0
 130 0016 5A7C     		ldrb	r2, [r3, #17]	@ zero_extendqisi2
 131 0018 8242     		cmp	r2, r0
 132 001a 10D0     		beq	.L13
 133              		.loc 2 36 0
 134 001c 032A     		cmp	r2, #3
 135 001e 04D0     		beq	.L14
 136              	.LVL5:
 137              		.loc 2 35 0
 138 0020 DA7D     		ldrb	r2, [r3, #23]	@ zero_extendqisi2
 139 0022 8242     		cmp	r2, r0
 140 0024 0DD0     		beq	.L17
 141              		.loc 2 43 0
 142 0026 0020     		movs	r0, #0
 143              	.LVL6:
 144              		.loc 2 48 0
 145 0028 7047     		bx	lr
 146              	.LVL7:
 147              	.L14:
 148              		.loc 2 43 0
 149 002a 0020     		movs	r0, #0
 150              	.LVL8:
 151 002c 7047     		bx	lr
 152              	.LVL9:
 153              	.L9:
 154              		.loc 2 35 0
 155 002e 0020     		movs	r0, #0
 156              	.LVL10:
 157              	.L6:
 158              		.loc 2 46 0
 159 0030 00EB4000 		add	r0, r0, r0, lsl #1
 160 0034 03EB4000 		add	r0, r3, r0, lsl #1
 161 0038 7047     		bx	lr
 162              	.LVL11:
 163              	.L11:
 164              		.loc 2 40 0
 165 003a 0120     		movs	r0, #1
 166              	.LVL12:
 167 003c F8E7     		b	.L6
ARM GAS  C:\Users\DNIEL~1\AppData\Local\Temp\ccx0Yxub.s 			page 4


 168              	.LVL13:
 169              	.L13:
 170 003e 0220     		movs	r0, #2
 171              	.LVL14:
 172 0040 F6E7     		b	.L6
 173              	.LVL15:
 174              	.L17:
 175 0042 0320     		movs	r0, #3
 176              	.LVL16:
 177 0044 F4E7     		b	.L6
 178              	.L19:
 179 0046 00BF     		.align	2
 180              	.L18:
 181 0048 00000000 		.word	.LANCHOR1
 182              		.cfi_endproc
 183              	.LFE120:
 184              		.size	eepromGetItembyName, .-eepromGetItembyName
 185 004c AFF30080 		.section	.text.eepromWrite,"ax",%progbits
 186              		.align	2
 187              		.p2align 4,,15
 188              		.global	eepromWrite
 189              		.thumb
 190              		.thumb_func
 191              		.type	eepromWrite, %function
 192              	eepromWrite:
 193              	.LFB121:
 194              		.loc 2 50 0
 195              		.cfi_startproc
 196              		@ args = 0, pretend = 0, frame = 8
 197              		@ frame_needed = 0, uses_anonymous_args = 0
 198              	.LVL17:
 199 0000 F0B5     		push	{r4, r5, r6, r7, lr}
 200              	.LCFI3:
 201              		.cfi_def_cfa_offset 20
 202 0002 87B0     		sub	sp, sp, #28
 203              	.LCFI4:
 204              		.cfi_def_cfa_offset 48
 205              		.loc 2 50 0
 206 0004 0C46     		mov	r4, r1
 207              		.cfi_offset 14, -4
 208              		.cfi_offset 7, -8
 209              		.cfi_offset 6, -12
 210              		.cfi_offset 5, -16
 211              		.cfi_offset 4, -20
 212              		.loc 2 57 0
 213 0006 FFF7FEFF 		bl	eepromGetItembyName
 214              	.LVL18:
 215              		.loc 2 59 0
 216 000a 4388     		ldrh	r3, [r0, #2]
 217 000c 1A0A     		lsrs	r2, r3, #8
 218 000e 8DF81020 		strb	r2, [sp, #16]
 219              		.loc 2 60 0
 220 0012 8DF81130 		strb	r3, [sp, #17]
 221              		.loc 2 62 0
 222 0016 0279     		ldrb	r2, [r0, #4]	@ zero_extendqisi2
 223              		.loc 2 57 0
 224 0018 0646     		mov	r6, r0
ARM GAS  C:\Users\DNIEL~1\AppData\Local\Temp\ccx0Yxub.s 			page 5


 225              	.LVL19:
 226              		.loc 2 62 0
 227 001a 002A     		cmp	r2, #0
 228 001c 35D0     		beq	.L34
 229              		.loc 2 50 0
 230 001e 511C     		adds	r1, r2, #1
 231 0020 04AD     		add	r5, sp, #16
 232 0022 501E     		subs	r0, r2, #1
 233              	.LVL20:
 234 0024 6B18     		adds	r3, r5, r1
 235 0026 C200     		lsls	r2, r0, #3
 236              	.LVL21:
 237 0028 AF1C     		adds	r7, r5, #2
 238 002a 691C     		adds	r1, r5, #1
 239              	.LVL22:
 240 002c 13F0010F 		tst	r3, #1
 241 0030 06D0     		beq	.L23
 242              	.LVL23:
 243              	.L31:
 244              		.loc 2 63 0
 245 0032 013B     		subs	r3, r3, #1
 246              		.loc 2 64 0
 247 0034 34FA02F0 		lsrs	r0, r4, r2
 248 0038 083A     		subs	r2, r2, #8
 249              		.loc 2 62 0
 250 003a 8B42     		cmp	r3, r1
 251              		.loc 2 64 0
 252 003c 5870     		strb	r0, [r3, #1]
 253              		.loc 2 62 0
 254 003e 0BD0     		beq	.L21
 255              	.L23:
 256              		.loc 2 63 0
 257 0040 BB42     		cmp	r3, r7
 258 0042 07D0     		beq	.L22
 259 0044 013B     		subs	r3, r3, #1
 260              		.loc 2 64 0
 261 0046 34FA02F0 		lsrs	r0, r4, r2
 262 004a 083A     		subs	r2, r2, #8
 263              		.loc 2 62 0
 264 004c 8B42     		cmp	r3, r1
 265              		.loc 2 64 0
 266 004e 5870     		strb	r0, [r3, #1]
 267              		.loc 2 62 0
 268 0050 EFD1     		bne	.L31
 269 0052 01E0     		b	.L21
 270              	.L22:
 271              		.loc 2 67 0
 272 0054 8DF81240 		strb	r4, [sp, #18]
 273              	.L21:
 274              		.loc 2 70 0
 275 0058 0D48     		ldr	r0, .L35
 276 005a FFF7FEFF 		bl	i2cAcquireBus
 277              		.loc 2 71 0
 278 005e 3379     		ldrb	r3, [r6, #4]	@ zero_extendqisi2
 279 0060 0B48     		ldr	r0, .L35
 280 0062 0024     		movs	r4, #0
 281              	.LVL24:
ARM GAS  C:\Users\DNIEL~1\AppData\Local\Temp\ccx0Yxub.s 			page 6


 282 0064 5021     		movs	r1, #80
 283 0066 0233     		adds	r3, r3, #2
 284 0068 2A46     		mov	r2, r5
 285 006a 0094     		str	r4, [sp, #0]
 286 006c 0194     		str	r4, [sp, #4]
 287 006e 4FF0FF34 		mov	r4, #-1
 288 0072 0294     		str	r4, [sp, #8]
 289 0074 FFF7FEFF 		bl	i2cMasterTransmitTimeout
 290 0078 0446     		mov	r4, r0
 291              	.LVL25:
 292              		.loc 2 72 0
 293 007a 0548     		ldr	r0, .L35
 294              	.LVL26:
 295 007c FFF7FEFF 		bl	i2cReleaseBus
 296              		.loc 2 79 0
 297 0080 201E     		subs	r0, r4, #0
 298 0082 18BF     		it	ne
 299 0084 0120     		movne	r0, #1
 300 0086 07B0     		add	sp, sp, #28
 301 0088 F0BD     		pop	{r4, r5, r6, r7, pc}
 302              	.LVL27:
 303              	.L34:
 304 008a 04AD     		add	r5, sp, #16
 305 008c E4E7     		b	.L21
 306              	.L36:
 307 008e 00BF     		.align	2
 308              	.L35:
 309 0090 00000000 		.word	I2CD1
 310              		.cfi_endproc
 311              	.LFE121:
 312              		.size	eepromWrite, .-eepromWrite
 313 0094 AFF30080 		.section	.text.eepromRead,"ax",%progbits
 313      AFF30080 
 313      AFF30080 
 314              		.align	2
 315              		.p2align 4,,15
 316              		.global	eepromRead
 317              		.thumb
 318              		.thumb_func
 319              		.type	eepromRead, %function
 320              	eepromRead:
 321              	.LFB122:
 322              		.loc 2 81 0
 323              		.cfi_startproc
 324              		@ args = 0, pretend = 0, frame = 8
 325              		@ frame_needed = 0, uses_anonymous_args = 0
 326              	.LVL28:
 327 0000 70B5     		push	{r4, r5, r6, lr}
 328              	.LCFI5:
 329              		.cfi_def_cfa_offset 16
 330 0002 86B0     		sub	sp, sp, #24
 331              	.LCFI6:
 332              		.cfi_def_cfa_offset 40
 333              		.loc 2 81 0
 334 0004 0E46     		mov	r6, r1
 335              		.cfi_offset 14, -4
 336              		.cfi_offset 6, -8
ARM GAS  C:\Users\DNIEL~1\AppData\Local\Temp\ccx0Yxub.s 			page 7


 337              		.cfi_offset 5, -12
 338              		.cfi_offset 4, -16
 339              		.loc 2 82 0
 340 0006 0021     		movs	r1, #0
 341              	.LVL29:
 342 0008 ADF81410 		strh	r1, [sp, #20]	@ movhi
 343              	.LVL30:
 344              		.loc 2 86 0
 345 000c FFF7FEFF 		bl	eepromGetItembyName
 346              	.LVL31:
 347              		.loc 2 91 0
 348 0010 0F4C     		ldr	r4, .L38
 349              		.loc 2 88 0
 350 0012 4388     		ldrh	r3, [r0, #2]
 351              		.loc 2 86 0
 352 0014 0546     		mov	r5, r0
 353              	.LVL32:
 354              		.loc 2 88 0
 355 0016 1A0A     		lsrs	r2, r3, #8
 356              		.loc 2 91 0
 357 0018 2046     		mov	r0, r4
 358              	.LVL33:
 359              		.loc 2 88 0
 360 001a 8DF81420 		strb	r2, [sp, #20]
 361              		.loc 2 89 0
 362 001e 8DF81530 		strb	r3, [sp, #21]
 363              		.loc 2 91 0
 364 0022 FFF7FEFF 		bl	i2cAcquireBus
 365              		.loc 2 92 0
 366 0026 0096     		str	r6, [sp, #0]
 367 0028 2D79     		ldrb	r5, [r5, #4]	@ zero_extendqisi2
 368              	.LVL34:
 369 002a 5021     		movs	r1, #80
 370 002c 0223     		movs	r3, #2
 371 002e 05AA     		add	r2, sp, #20
 372 0030 0195     		str	r5, [sp, #4]
 373 0032 2046     		mov	r0, r4
 374 0034 4FF0FF35 		mov	r5, #-1
 375 0038 0295     		str	r5, [sp, #8]
 376 003a FFF7FEFF 		bl	i2cMasterTransmitTimeout
 377 003e 0546     		mov	r5, r0
 378              	.LVL35:
 379              		.loc 2 93 0
 380 0040 2046     		mov	r0, r4
 381              	.LVL36:
 382 0042 FFF7FEFF 		bl	i2cReleaseBus
 383              		.loc 2 100 0
 384 0046 281E     		subs	r0, r5, #0
 385 0048 18BF     		it	ne
 386 004a 0120     		movne	r0, #1
 387 004c 06B0     		add	sp, sp, #24
 388 004e 70BD     		pop	{r4, r5, r6, pc}
 389              	.L39:
 390              		.align	2
 391              	.L38:
 392 0050 00000000 		.word	I2CD1
 393              		.cfi_endproc
ARM GAS  C:\Users\DNIEL~1\AppData\Local\Temp\ccx0Yxub.s 			page 8


 394              	.LFE122:
 395              		.size	eepromRead, .-eepromRead
 396 0054 AFF30080 		.section	.text.cmd_eepromTest,"ax",%progbits
 396      AFF30080 
 396      AFF30080 
 397              		.align	2
 398              		.p2align 4,,15
 399              		.global	cmd_eepromTest
 400              		.thumb
 401              		.thumb_func
 402              		.type	cmd_eepromTest, %function
 403              	cmd_eepromTest:
 404              	.LFB123:
 405              		.loc 2 102 0
 406              		.cfi_startproc
 407              		@ args = 0, pretend = 0, frame = 8
 408              		@ frame_needed = 0, uses_anonymous_args = 0
 409              	.LVL37:
 410 0000 70B5     		push	{r4, r5, r6, lr}
 411              	.LCFI7:
 412              		.cfi_def_cfa_offset 16
 413 0002 82B0     		sub	sp, sp, #8
 414              	.LCFI8:
 415              		.cfi_def_cfa_offset 24
 416              		.loc 2 102 0
 417 0004 0446     		mov	r4, r0
 418              		.cfi_offset 14, -4
 419              		.cfi_offset 6, -8
 420              		.cfi_offset 5, -12
 421              		.cfi_offset 4, -16
 422              		.loc 2 105 0
 423 0006 FFF7FEFF 		bl	rand
 424              	.LVL38:
 425 000a 1E4D     		ldr	r5, .L44
 426              		.loc 2 108 0
 427 000c 1E49     		ldr	r1, .L44+4
 428              		.loc 2 105 0
 429 000e 0346     		mov	r3, r0
 430 0010 85FB0026 		smull	r2, r6, r5, r0
 431 0014 1D4A     		ldr	r2, .L44+8
 432 0016 C017     		asrs	r0, r0, #31
 433 0018 C0EB2675 		rsb	r5, r0, r6, asr #28
 434              		.loc 2 106 0
 435 001c 0026     		movs	r6, #0
 436              		.loc 2 108 0
 437 001e 2046     		mov	r0, r4
 438              		.loc 2 105 0
 439 0020 02FB1535 		mls	r5, r2, r5, r3
 440              		.loc 2 106 0
 441 0024 0196     		str	r6, [sp, #4]
 442              	.LVL39:
 443              		.loc 2 108 0
 444 0026 FFF7FEFF 		bl	chprintf
 445              		.loc 2 109 0
 446 002a 2046     		mov	r0, r4
 447 002c 1849     		ldr	r1, .L44+12
 448 002e FFF7FEFF 		bl	chprintf
ARM GAS  C:\Users\DNIEL~1\AppData\Local\Temp\ccx0Yxub.s 			page 9


 449              		.loc 2 111 0
 450 0032 2046     		mov	r0, r4
 451 0034 1749     		ldr	r1, .L44+16
 452 0036 1022     		movs	r2, #16
 453 0038 2B46     		mov	r3, r5
 454 003a FFF7FEFF 		bl	chprintf
 455              		.loc 2 114 0
 456 003e 3046     		mov	r0, r6
 457 0040 2946     		mov	r1, r5
 458 0042 FFF7FEFF 		bl	eepromWrite
 459 0046 C0B9     		cbnz	r0, .L43
 460              	.L41:
 461              		.loc 2 118 0
 462 0048 1349     		ldr	r1, .L44+20
 463 004a 2046     		mov	r0, r4
 464 004c FFF7FEFF 		bl	chprintf
 465              		.loc 2 119 0
 466 0050 2046     		mov	r0, r4
 467 0052 1249     		ldr	r1, .L44+24
 468 0054 FFF7FEFF 		bl	chprintf
 469              		.loc 2 121 0
 470 0058 0020     		movs	r0, #0
 471 005a 01A9     		add	r1, sp, #4
 472 005c FFF7FEFF 		bl	eepromRead
 473 0060 18B1     		cbz	r0, .L42
 474              		.loc 2 122 0
 475 0062 2046     		mov	r0, r4
 476 0064 0E49     		ldr	r1, .L44+28
 477 0066 FFF7FEFF 		bl	chprintf
 478              	.L42:
 479              		.loc 2 124 0
 480 006a 2046     		mov	r0, r4
 481 006c 0D49     		ldr	r1, .L44+32
 482 006e 019B     		ldr	r3, [sp, #4]
 483 0070 1022     		movs	r2, #16
 484 0072 FFF7FEFF 		bl	chprintf
 485              		.loc 2 125 0
 486 0076 02B0     		add	sp, sp, #8
 487 0078 70BD     		pop	{r4, r5, r6, pc}
 488              	.L43:
 489              		.loc 2 115 0
 490 007a 2046     		mov	r0, r4
 491 007c 0A49     		ldr	r1, .L44+36
 492 007e FFF7FEFF 		bl	chprintf
 493 0082 E1E7     		b	.L41
 494              	.L45:
 495              		.align	2
 496              	.L44:
 497 0084 A12FB844 		.word	1152921505
 498 0088 00000000 		.word	.LC0
 499 008c 00CA9A3B 		.word	1000000000
 500 0090 04000000 		.word	.LC1
 501 0094 0C000000 		.word	.LC2
 502 0098 58000000 		.word	.LC4
 503 009c 78000000 		.word	.LC5
 504 00a0 90000000 		.word	.LC6
 505 00a4 A8000000 		.word	.LC7
ARM GAS  C:\Users\DNIEL~1\AppData\Local\Temp\ccx0Yxub.s 			page 10


 506 00a8 40000000 		.word	.LC3
 507              		.cfi_endproc
 508              	.LFE123:
 509              		.size	cmd_eepromTest, .-cmd_eepromTest
 510 00ac AFF30080 		.section	.text.cmd_eepromAllData,"ax",%progbits
 511              		.align	2
 512              		.p2align 4,,15
 513              		.global	cmd_eepromAllData
 514              		.thumb
 515              		.thumb_func
 516              		.type	cmd_eepromAllData, %function
 517              	cmd_eepromAllData:
 518              	.LFB124:
 519              		.loc 2 127 0
 520              		.cfi_startproc
 521              		@ args = 0, pretend = 0, frame = 8
 522              		@ frame_needed = 0, uses_anonymous_args = 0
 523              	.LVL40:
 524 0000 70B5     		push	{r4, r5, r6, lr}
 525              	.LCFI9:
 526              		.cfi_def_cfa_offset 16
 527 0002 82B0     		sub	sp, sp, #8
 528              	.LCFI10:
 529              		.cfi_def_cfa_offset 24
 530              		.loc 2 129 0
 531 0004 02AD     		add	r5, sp, #8
 532              		.cfi_offset 14, -4
 533              		.cfi_offset 6, -8
 534              		.cfi_offset 5, -12
 535              		.cfi_offset 4, -16
 536 0006 0026     		movs	r6, #0
 537              		.loc 2 127 0
 538 0008 0446     		mov	r4, r0
 539              		.loc 2 141 0
 540 000a 2C49     		ldr	r1, .L55
 541              	.LVL41:
 542              		.loc 2 129 0
 543 000c 45F8046D 		str	r6, [r5, #-4]!
 544              	.LVL42:
 545              		.loc 2 141 0
 546 0010 FFF7FEFF 		bl	chprintf
 547              	.LVL43:
 548              		.loc 2 142 0
 549 0014 2046     		mov	r0, r4
 550 0016 2A49     		ldr	r1, .L55+4
 551 0018 FFF7FEFF 		bl	chprintf
 552              		.loc 2 144 0
 553 001c 3246     		mov	r2, r6
 554 001e 3346     		mov	r3, r6
 555 0020 2046     		mov	r0, r4
 556 0022 2849     		ldr	r1, .L55+8
 557 0024 FFF7FEFF 		bl	chprintf
 558              		.loc 2 145 0
 559 0028 2046     		mov	r0, r4
 560 002a 2749     		ldr	r1, .L55+12
 561 002c FFF7FEFF 		bl	chprintf
 562              	.LVL44:
ARM GAS  C:\Users\DNIEL~1\AppData\Local\Temp\ccx0Yxub.s 			page 11


 563              		.loc 2 148 0
 564 0030 3046     		mov	r0, r6
 565 0032 2946     		mov	r1, r5
 566 0034 FFF7FEFF 		bl	eepromRead
 567 0038 0646     		mov	r6, r0
 568 003a 0028     		cmp	r0, #0
 569 003c 31D1     		bne	.L47
 570              		.loc 2 153 0
 571 003e 2046     		mov	r0, r4
 572 0040 2249     		ldr	r1, .L55+16
 573 0042 234A     		ldr	r2, .L55+20
 574 0044 019B     		ldr	r3, [sp, #4]
 575 0046 FFF7FEFF 		bl	chprintf
 576              		.loc 2 148 0
 577 004a 0120     		movs	r0, #1
 578 004c 2946     		mov	r1, r5
 579              		.loc 2 154 0
 580 004e 0196     		str	r6, [sp, #4]
 581              	.LVL45:
 582              		.loc 2 148 0
 583 0050 FFF7FEFF 		bl	eepromRead
 584 0054 0646     		mov	r6, r0
 585 0056 90B9     		cbnz	r0, .L49
 586              	.L54:
 587              		.loc 2 153 0
 588 0058 2046     		mov	r0, r4
 589 005a 1C49     		ldr	r1, .L55+16
 590 005c 1D4A     		ldr	r2, .L55+24
 591 005e 019B     		ldr	r3, [sp, #4]
 592 0060 FFF7FEFF 		bl	chprintf
 593              		.loc 2 148 0
 594 0064 0220     		movs	r0, #2
 595 0066 2946     		mov	r1, r5
 596              		.loc 2 154 0
 597 0068 0196     		str	r6, [sp, #4]
 598              	.LVL46:
 599              		.loc 2 148 0
 600 006a FFF7FEFF 		bl	eepromRead
 601 006e 88B1     		cbz	r0, .L51
 602              	.L53:
 603              		.loc 2 149 0
 604 0070 2046     		mov	r0, r4
 605 0072 1949     		ldr	r1, .L55+28
 606 0074 194A     		ldr	r2, .L55+32
 607 0076 FFF7FEFF 		bl	chprintf
 608              	.LVL47:
 609              	.L46:
 610              		.loc 2 162 0
 611 007a 02B0     		add	sp, sp, #8
 612 007c 70BD     		pop	{r4, r5, r6, pc}
 613              	.LVL48:
 614              	.L49:
 615              		.loc 2 149 0
 616 007e 2046     		mov	r0, r4
 617 0080 1549     		ldr	r1, .L55+28
 618 0082 144A     		ldr	r2, .L55+24
 619 0084 FFF7FEFF 		bl	chprintf
ARM GAS  C:\Users\DNIEL~1\AppData\Local\Temp\ccx0Yxub.s 			page 12


 620              	.LVL49:
 621              		.loc 2 148 0
 622 0088 0220     		movs	r0, #2
 623 008a 2946     		mov	r1, r5
 624 008c FFF7FEFF 		bl	eepromRead
 625 0090 0028     		cmp	r0, #0
 626 0092 EDD1     		bne	.L53
 627              	.L51:
 628              		.loc 2 153 0
 629 0094 2046     		mov	r0, r4
 630 0096 0D49     		ldr	r1, .L55+16
 631 0098 104A     		ldr	r2, .L55+32
 632 009a 019B     		ldr	r3, [sp, #4]
 633 009c FFF7FEFF 		bl	chprintf
 634              	.LVL50:
 635 00a0 EBE7     		b	.L46
 636              	.LVL51:
 637              	.L47:
 638              		.loc 2 149 0
 639 00a2 2046     		mov	r0, r4
 640 00a4 0C49     		ldr	r1, .L55+28
 641 00a6 0A4A     		ldr	r2, .L55+20
 642 00a8 FFF7FEFF 		bl	chprintf
 643              	.LVL52:
 644              		.loc 2 148 0
 645 00ac 0120     		movs	r0, #1
 646 00ae 2946     		mov	r1, r5
 647 00b0 FFF7FEFF 		bl	eepromRead
 648 00b4 0646     		mov	r6, r0
 649 00b6 0028     		cmp	r0, #0
 650 00b8 E1D1     		bne	.L49
 651 00ba CDE7     		b	.L54
 652              	.L56:
 653              		.align	2
 654              	.L55:
 655 00bc 00000000 		.word	.LC0
 656 00c0 04000000 		.word	.LC1
 657 00c4 C8000000 		.word	.LC8
 658 00c8 D4000000 		.word	.LC9
 659 00cc F0000000 		.word	.LC10
 660 00d0 00010000 		.word	.LC11
 661 00d4 24010000 		.word	.LC13
 662 00d8 0C010000 		.word	.LC12
 663 00dc 30010000 		.word	.LC14
 664              		.cfi_endproc
 665              	.LFE124:
 666              		.size	cmd_eepromAllData, .-cmd_eepromAllData
 667              		.section	.rodata.str1.4,"aMS",%progbits,1
 668              		.align	2
 669              	.LC0:
 670 0000 1B6300   		.ascii	"\033c\000"
 671 0003 00       		.space	1
 672              	.LC1:
 673 0004 1B5B324A 		.ascii	"\033[2J\000"
 673      00
 674 0009 000000   		.space	3
 675              	.LC2:
ARM GAS  C:\Users\DNIEL~1\AppData\Local\Temp\ccx0Yxub.s 			page 13


 676 000c 45455052 		.ascii	"EEPROM write test !\015\012Address: 0x%02x, Value: "
 676      4F4D2077 
 676      72697465 
 676      20746573 
 676      7420210D 
 677 0039 25326400 		.ascii	"%2d\000"
 678 003d 000000   		.space	3
 679              	.LC3:
 680 0040 45455052 		.ascii	"EEPROM write error! \015\012\000"
 680      4F4D2077 
 680      72697465 
 680      20657272 
 680      6F722120 
 681 0057 00       		.space	1
 682              	.LC4:
 683 0058 0D0A2D2D 		.ascii	"\015\012----------------------- \015\012\000"
 683      2D2D2D2D 
 683      2D2D2D2D 
 683      2D2D2D2D 
 683      2D2D2D2D 
 684 0075 000000   		.space	3
 685              	.LC5:
 686 0078 45455052 		.ascii	"EEPROM read test ! \015\012\000"
 686      4F4D2072 
 686      65616420 
 686      74657374 
 686      2021200D 
 687 008e 0000     		.space	2
 688              	.LC6:
 689 0090 45455052 		.ascii	"EEPROM read error! \015\012\000"
 689      4F4D2072 
 689      65616420 
 689      6572726F 
 689      7221200D 
 690 00a6 0000     		.space	2
 691              	.LC7:
 692 00a8 41646472 		.ascii	"Address: 0x%02x, value: %2d\015\012\000"
 692      6573733A 
 692      20307825 
 692      3032782C 
 692      2076616C 
 693 00c6 0000     		.space	2
 694              	.LC8:
 695 00c8 1B5B2564 		.ascii	"\033[%d;%dH\000"
 695      3B256448 
 695      00
 696 00d1 000000   		.space	3
 697              	.LC9:
 698 00d4 20202020 		.ascii	"          NAME      DATA\015\012\000"
 698      20202020 
 698      20204E41 
 698      4D452020 
 698      20202020 
 699 00ef 00       		.space	1
 700              	.LC10:
 701 00f0 25313073 		.ascii	"%10s: %15d\015\012\000"
 701      3A202531 
ARM GAS  C:\Users\DNIEL~1\AppData\Local\Temp\ccx0Yxub.s 			page 14


 701      35640D0A 
 701      00
 702 00fd 000000   		.space	3
 703              	.LC11:
 704 0100 46495253 		.ascii	"FIRST_ITEM\000"
 704      545F4954 
 704      454D00
 705 010b 00       		.space	1
 706              	.LC12:
 707 010c 25732045 		.ascii	"%s EEPROM read error!\015\012\000"
 707      4550524F 
 707      4D207265 
 707      61642065 
 707      72726F72 
 708              	.LC13:
 709 0124 43454E54 		.ascii	"CENTER_ITEM\000"
 709      45525F49 
 709      54454D00 
 710              	.LC14:
 711 0130 4C415354 		.ascii	"LAST_ITEM\000"
 711      5F495445 
 711      4D00
 712 013a 0000     		.section	.data.eepromitems,"aw",%progbits
 713              		.align	2
 714              		.set	.LANCHOR1,. + 0
 715              		.type	eepromitems, %object
 716              		.size	eepromitems, 18
 717              	eepromitems:
 718 0000 10       		.byte	16
 719 0001 00       		.space	1
 720 0002 1000     		.short	16
 721 0004 04       		.byte	4
 722 0005 00       		.byte	0
 723 0006 11       		.byte	17
 724 0007 00       		.space	1
 725 0008 1400     		.short	20
 726 000a 04       		.byte	4
 727 000b 01       		.byte	1
 728 000c FB       		.byte	-5
 729 000d 00       		.space	1
 730 000e FBFF     		.short	-5
 731 0010 04       		.byte	4
 732 0011 02       		.byte	2
 733 0012 0000     		.section	.rodata.i2ccfg,"a",%progbits
 734              		.align	2
 735              		.set	.LANCHOR0,. + 0
 736              		.type	i2ccfg, %object
 737              		.size	i2ccfg, 12
 738              	i2ccfg:
 739 0000 01       		.byte	1
 740 0001 000000   		.space	3
 741 0004 801A0600 		.word	400000
 742 0008 02       		.byte	2
 743 0009 000000   		.space	3
 744              		.text
 745              	.Letext0:
 746              		.section	.debug_loc,"",%progbits
ARM GAS  C:\Users\DNIEL~1\AppData\Local\Temp\ccx0Yxub.s 			page 15


 747              	.Ldebug_loc0:
 748              	.LLST0:
 749 0000 00000000 		.4byte	.LFB118
 750 0004 02000000 		.4byte	.LCFI0
 751 0008 0200     		.2byte	0x2
 752 000a 7D       		.byte	0x7d
 753 000b 00       		.sleb128 0
 754 000c 02000000 		.4byte	.LCFI0
 755 0010 04000000 		.4byte	.LCFI1
 756 0014 0200     		.2byte	0x2
 757 0016 7D       		.byte	0x7d
 758 0017 0C       		.sleb128 12
 759 0018 04000000 		.4byte	.LCFI1
 760 001c 06000000 		.4byte	.LCFI2
 761 0020 0200     		.2byte	0x2
 762 0022 7D       		.byte	0x7d
 763 0023 10       		.sleb128 16
 764 0024 06000000 		.4byte	.LCFI2
 765 0028 1E000000 		.4byte	.LFE118
 766 002c 0200     		.2byte	0x2
 767 002e 7D       		.byte	0x7d
 768 002f 18       		.sleb128 24
 769 0030 00000000 		.4byte	0x0
 770 0034 00000000 		.4byte	0x0
 771              	.LLST1:
 772 0038 00000000 		.4byte	.LVL0
 773 003c 13000000 		.4byte	.LVL1-1
 774 0040 0100     		.2byte	0x1
 775 0042 50       		.byte	0x50
 776 0043 00000000 		.4byte	0x0
 777 0047 00000000 		.4byte	0x0
 778              	.LLST2:
 779 004b 00000000 		.4byte	.LVL2
 780 004f 28000000 		.4byte	.LVL6
 781 0053 0100     		.2byte	0x1
 782 0055 50       		.byte	0x50
 783 0056 2A000000 		.4byte	.LVL7
 784 005a 2C000000 		.4byte	.LVL8
 785 005e 0100     		.2byte	0x1
 786 0060 50       		.byte	0x50
 787 0061 2E000000 		.4byte	.LVL9
 788 0065 30000000 		.4byte	.LVL10
 789 0069 0100     		.2byte	0x1
 790 006b 50       		.byte	0x50
 791 006c 3A000000 		.4byte	.LVL11
 792 0070 3C000000 		.4byte	.LVL12
 793 0074 0100     		.2byte	0x1
 794 0076 50       		.byte	0x50
 795 0077 3E000000 		.4byte	.LVL13
 796 007b 40000000 		.4byte	.LVL14
 797 007f 0100     		.2byte	0x1
 798 0081 50       		.byte	0x50
 799 0082 42000000 		.4byte	.LVL15
 800 0086 44000000 		.4byte	.LVL16
 801 008a 0100     		.2byte	0x1
 802 008c 50       		.byte	0x50
 803 008d 00000000 		.4byte	0x0
ARM GAS  C:\Users\DNIEL~1\AppData\Local\Temp\ccx0Yxub.s 			page 16


 804 0091 00000000 		.4byte	0x0
 805              	.LLST3:
 806 0095 00000000 		.4byte	.LVL2
 807 0099 0C000000 		.4byte	.LVL3
 808 009d 0200     		.2byte	0x2
 809 009f 30       		.byte	0x30
 810 00a0 9F       		.byte	0x9f
 811 00a1 0C000000 		.4byte	.LVL3
 812 00a5 16000000 		.4byte	.LVL4
 813 00a9 0200     		.2byte	0x2
 814 00ab 31       		.byte	0x31
 815 00ac 9F       		.byte	0x9f
 816 00ad 16000000 		.4byte	.LVL4
 817 00b1 20000000 		.4byte	.LVL5
 818 00b5 0200     		.2byte	0x2
 819 00b7 32       		.byte	0x32
 820 00b8 9F       		.byte	0x9f
 821 00b9 20000000 		.4byte	.LVL5
 822 00bd 2A000000 		.4byte	.LVL7
 823 00c1 0200     		.2byte	0x2
 824 00c3 33       		.byte	0x33
 825 00c4 9F       		.byte	0x9f
 826 00c5 2E000000 		.4byte	.LVL9
 827 00c9 30000000 		.4byte	.LVL10
 828 00cd 0200     		.2byte	0x2
 829 00cf 30       		.byte	0x30
 830 00d0 9F       		.byte	0x9f
 831 00d1 3A000000 		.4byte	.LVL11
 832 00d5 3E000000 		.4byte	.LVL13
 833 00d9 0200     		.2byte	0x2
 834 00db 31       		.byte	0x31
 835 00dc 9F       		.byte	0x9f
 836 00dd 3E000000 		.4byte	.LVL13
 837 00e1 42000000 		.4byte	.LVL15
 838 00e5 0200     		.2byte	0x2
 839 00e7 32       		.byte	0x32
 840 00e8 9F       		.byte	0x9f
 841 00e9 42000000 		.4byte	.LVL15
 842 00ed 4C000000 		.4byte	.LFE120
 843 00f1 0200     		.2byte	0x2
 844 00f3 33       		.byte	0x33
 845 00f4 9F       		.byte	0x9f
 846 00f5 00000000 		.4byte	0x0
 847 00f9 00000000 		.4byte	0x0
 848              	.LLST4:
 849 00fd 00000000 		.4byte	.LFB121
 850 0101 02000000 		.4byte	.LCFI3
 851 0105 0200     		.2byte	0x2
 852 0107 7D       		.byte	0x7d
 853 0108 00       		.sleb128 0
 854 0109 02000000 		.4byte	.LCFI3
 855 010d 04000000 		.4byte	.LCFI4
 856 0111 0200     		.2byte	0x2
 857 0113 7D       		.byte	0x7d
 858 0114 14       		.sleb128 20
 859 0115 04000000 		.4byte	.LCFI4
 860 0119 94000000 		.4byte	.LFE121
ARM GAS  C:\Users\DNIEL~1\AppData\Local\Temp\ccx0Yxub.s 			page 17


 861 011d 0200     		.2byte	0x2
 862 011f 7D       		.byte	0x7d
 863 0120 30       		.sleb128 48
 864 0121 00000000 		.4byte	0x0
 865 0125 00000000 		.4byte	0x0
 866              	.LLST5:
 867 0129 00000000 		.4byte	.LVL17
 868 012d 09000000 		.4byte	.LVL18-1
 869 0131 0100     		.2byte	0x1
 870 0133 50       		.byte	0x50
 871 0134 00000000 		.4byte	0x0
 872 0138 00000000 		.4byte	0x0
 873              	.LLST6:
 874 013c 00000000 		.4byte	.LVL17
 875 0140 09000000 		.4byte	.LVL18-1
 876 0144 0100     		.2byte	0x1
 877 0146 51       		.byte	0x51
 878 0147 09000000 		.4byte	.LVL18-1
 879 014b 64000000 		.4byte	.LVL24
 880 014f 0100     		.2byte	0x1
 881 0151 54       		.byte	0x54
 882 0152 8A000000 		.4byte	.LVL27
 883 0156 94000000 		.4byte	.LFE121
 884 015a 0100     		.2byte	0x1
 885 015c 54       		.byte	0x54
 886 015d 00000000 		.4byte	0x0
 887 0161 00000000 		.4byte	0x0
 888              	.LLST7:
 889 0165 00000000 		.4byte	.LVL17
 890 0169 7A000000 		.4byte	.LVL25
 891 016d 0200     		.2byte	0x2
 892 016f 30       		.byte	0x30
 893 0170 9F       		.byte	0x9f
 894 0171 7A000000 		.4byte	.LVL25
 895 0175 7C000000 		.4byte	.LVL26
 896 0179 0100     		.2byte	0x1
 897 017b 50       		.byte	0x50
 898 017c 7C000000 		.4byte	.LVL26
 899 0180 8A000000 		.4byte	.LVL27
 900 0184 0100     		.2byte	0x1
 901 0186 54       		.byte	0x54
 902 0187 8A000000 		.4byte	.LVL27
 903 018b 94000000 		.4byte	.LFE121
 904 018f 0200     		.2byte	0x2
 905 0191 30       		.byte	0x30
 906 0192 9F       		.byte	0x9f
 907 0193 00000000 		.4byte	0x0
 908 0197 00000000 		.4byte	0x0
 909              	.LLST8:
 910 019b 1A000000 		.4byte	.LVL19
 911 019f 28000000 		.4byte	.LVL21
 912 01a3 0100     		.2byte	0x1
 913 01a5 52       		.byte	0x52
 914 01a6 28000000 		.4byte	.LVL21
 915 01aa 2C000000 		.4byte	.LVL22
 916 01ae 0300     		.2byte	0x3
 917 01b0 71       		.byte	0x71
ARM GAS  C:\Users\DNIEL~1\AppData\Local\Temp\ccx0Yxub.s 			page 18


 918 01b1 7F       		.sleb128 -1
 919 01b2 9F       		.byte	0x9f
 920 01b3 2C000000 		.4byte	.LVL22
 921 01b7 32000000 		.4byte	.LVL23
 922 01bb 0300     		.2byte	0x3
 923 01bd 70       		.byte	0x70
 924 01be 01       		.sleb128 1
 925 01bf 9F       		.byte	0x9f
 926 01c0 8A000000 		.4byte	.LVL27
 927 01c4 94000000 		.4byte	.LFE121
 928 01c8 0100     		.2byte	0x1
 929 01ca 52       		.byte	0x52
 930 01cb 00000000 		.4byte	0x0
 931 01cf 00000000 		.4byte	0x0
 932              	.LLST9:
 933 01d3 1A000000 		.4byte	.LVL19
 934 01d7 24000000 		.4byte	.LVL20
 935 01db 0100     		.2byte	0x1
 936 01dd 50       		.byte	0x50
 937 01de 24000000 		.4byte	.LVL20
 938 01e2 94000000 		.4byte	.LFE121
 939 01e6 0100     		.2byte	0x1
 940 01e8 56       		.byte	0x56
 941 01e9 00000000 		.4byte	0x0
 942 01ed 00000000 		.4byte	0x0
 943              	.LLST10:
 944 01f1 00000000 		.4byte	.LFB122
 945 01f5 02000000 		.4byte	.LCFI5
 946 01f9 0200     		.2byte	0x2
 947 01fb 7D       		.byte	0x7d
 948 01fc 00       		.sleb128 0
 949 01fd 02000000 		.4byte	.LCFI5
 950 0201 04000000 		.4byte	.LCFI6
 951 0205 0200     		.2byte	0x2
 952 0207 7D       		.byte	0x7d
 953 0208 10       		.sleb128 16
 954 0209 04000000 		.4byte	.LCFI6
 955 020d 54000000 		.4byte	.LFE122
 956 0211 0200     		.2byte	0x2
 957 0213 7D       		.byte	0x7d
 958 0214 28       		.sleb128 40
 959 0215 00000000 		.4byte	0x0
 960 0219 00000000 		.4byte	0x0
 961              	.LLST11:
 962 021d 00000000 		.4byte	.LVL28
 963 0221 0F000000 		.4byte	.LVL31-1
 964 0225 0100     		.2byte	0x1
 965 0227 50       		.byte	0x50
 966 0228 00000000 		.4byte	0x0
 967 022c 00000000 		.4byte	0x0
 968              	.LLST12:
 969 0230 00000000 		.4byte	.LVL28
 970 0234 08000000 		.4byte	.LVL29
 971 0238 0100     		.2byte	0x1
 972 023a 51       		.byte	0x51
 973 023b 08000000 		.4byte	.LVL29
 974 023f 54000000 		.4byte	.LFE122
ARM GAS  C:\Users\DNIEL~1\AppData\Local\Temp\ccx0Yxub.s 			page 19


 975 0243 0100     		.2byte	0x1
 976 0245 56       		.byte	0x56
 977 0246 00000000 		.4byte	0x0
 978 024a 00000000 		.4byte	0x0
 979              	.LLST13:
 980 024e 0C000000 		.4byte	.LVL30
 981 0252 40000000 		.4byte	.LVL35
 982 0256 0200     		.2byte	0x2
 983 0258 30       		.byte	0x30
 984 0259 9F       		.byte	0x9f
 985 025a 40000000 		.4byte	.LVL35
 986 025e 42000000 		.4byte	.LVL36
 987 0262 0100     		.2byte	0x1
 988 0264 50       		.byte	0x50
 989 0265 42000000 		.4byte	.LVL36
 990 0269 54000000 		.4byte	.LFE122
 991 026d 0100     		.2byte	0x1
 992 026f 55       		.byte	0x55
 993 0270 00000000 		.4byte	0x0
 994 0274 00000000 		.4byte	0x0
 995              	.LLST14:
 996 0278 16000000 		.4byte	.LVL32
 997 027c 1A000000 		.4byte	.LVL33
 998 0280 0100     		.2byte	0x1
 999 0282 50       		.byte	0x50
 1000 0283 1A000000 		.4byte	.LVL33
 1001 0287 2A000000 		.4byte	.LVL34
 1002 028b 0100     		.2byte	0x1
 1003 028d 55       		.byte	0x55
 1004 028e 00000000 		.4byte	0x0
 1005 0292 00000000 		.4byte	0x0
 1006              	.LLST15:
 1007 0296 00000000 		.4byte	.LFB123
 1008 029a 02000000 		.4byte	.LCFI7
 1009 029e 0200     		.2byte	0x2
 1010 02a0 7D       		.byte	0x7d
 1011 02a1 00       		.sleb128 0
 1012 02a2 02000000 		.4byte	.LCFI7
 1013 02a6 04000000 		.4byte	.LCFI8
 1014 02aa 0200     		.2byte	0x2
 1015 02ac 7D       		.byte	0x7d
 1016 02ad 10       		.sleb128 16
 1017 02ae 04000000 		.4byte	.LCFI8
 1018 02b2 AC000000 		.4byte	.LFE123
 1019 02b6 0200     		.2byte	0x2
 1020 02b8 7D       		.byte	0x7d
 1021 02b9 18       		.sleb128 24
 1022 02ba 00000000 		.4byte	0x0
 1023 02be 00000000 		.4byte	0x0
 1024              	.LLST16:
 1025 02c2 00000000 		.4byte	.LVL37
 1026 02c6 09000000 		.4byte	.LVL38-1
 1027 02ca 0100     		.2byte	0x1
 1028 02cc 50       		.byte	0x50
 1029 02cd 09000000 		.4byte	.LVL38-1
 1030 02d1 AC000000 		.4byte	.LFE123
 1031 02d5 0100     		.2byte	0x1
ARM GAS  C:\Users\DNIEL~1\AppData\Local\Temp\ccx0Yxub.s 			page 20


 1032 02d7 54       		.byte	0x54
 1033 02d8 00000000 		.4byte	0x0
 1034 02dc 00000000 		.4byte	0x0
 1035              	.LLST17:
 1036 02e0 00000000 		.4byte	.LVL37
 1037 02e4 09000000 		.4byte	.LVL38-1
 1038 02e8 0100     		.2byte	0x1
 1039 02ea 51       		.byte	0x51
 1040 02eb 00000000 		.4byte	0x0
 1041 02ef 00000000 		.4byte	0x0
 1042              	.LLST18:
 1043 02f3 00000000 		.4byte	.LVL37
 1044 02f7 09000000 		.4byte	.LVL38-1
 1045 02fb 0100     		.2byte	0x1
 1046 02fd 52       		.byte	0x52
 1047 02fe 00000000 		.4byte	0x0
 1048 0302 00000000 		.4byte	0x0
 1049              	.LLST19:
 1050 0306 00000000 		.4byte	.LFB124
 1051 030a 02000000 		.4byte	.LCFI9
 1052 030e 0200     		.2byte	0x2
 1053 0310 7D       		.byte	0x7d
 1054 0311 00       		.sleb128 0
 1055 0312 02000000 		.4byte	.LCFI9
 1056 0316 04000000 		.4byte	.LCFI10
 1057 031a 0200     		.2byte	0x2
 1058 031c 7D       		.byte	0x7d
 1059 031d 10       		.sleb128 16
 1060 031e 04000000 		.4byte	.LCFI10
 1061 0322 E0000000 		.4byte	.LFE124
 1062 0326 0200     		.2byte	0x2
 1063 0328 7D       		.byte	0x7d
 1064 0329 18       		.sleb128 24
 1065 032a 00000000 		.4byte	0x0
 1066 032e 00000000 		.4byte	0x0
 1067              	.LLST20:
 1068 0332 00000000 		.4byte	.LVL40
 1069 0336 13000000 		.4byte	.LVL43-1
 1070 033a 0100     		.2byte	0x1
 1071 033c 50       		.byte	0x50
 1072 033d 13000000 		.4byte	.LVL43-1
 1073 0341 E0000000 		.4byte	.LFE124
 1074 0345 0100     		.2byte	0x1
 1075 0347 54       		.byte	0x54
 1076 0348 00000000 		.4byte	0x0
 1077 034c 00000000 		.4byte	0x0
 1078              	.LLST21:
 1079 0350 00000000 		.4byte	.LVL40
 1080 0354 0C000000 		.4byte	.LVL41
 1081 0358 0100     		.2byte	0x1
 1082 035a 51       		.byte	0x51
 1083 035b 00000000 		.4byte	0x0
 1084 035f 00000000 		.4byte	0x0
 1085              	.LLST22:
 1086 0363 00000000 		.4byte	.LVL40
 1087 0367 13000000 		.4byte	.LVL43-1
 1088 036b 0100     		.2byte	0x1
ARM GAS  C:\Users\DNIEL~1\AppData\Local\Temp\ccx0Yxub.s 			page 21


 1089 036d 52       		.byte	0x52
 1090 036e 00000000 		.4byte	0x0
 1091 0372 00000000 		.4byte	0x0
 1092              	.LLST23:
 1093 0376 10000000 		.4byte	.LVL42
 1094 037a 50000000 		.4byte	.LVL45
 1095 037e 0200     		.2byte	0x2
 1096 0380 75       		.byte	0x75
 1097 0381 7C       		.sleb128 -4
 1098 0382 50000000 		.4byte	.LVL45
 1099 0386 A2000000 		.4byte	.LVL51
 1100 038a 0200     		.2byte	0x2
 1101 038c 91       		.byte	0x91
 1102 038d 6C       		.sleb128 -20
 1103 038e A2000000 		.4byte	.LVL51
 1104 0392 E0000000 		.4byte	.LFE124
 1105 0396 0200     		.2byte	0x2
 1106 0398 75       		.byte	0x75
 1107 0399 7C       		.sleb128 -4
 1108 039a 00000000 		.4byte	0x0
 1109 039e 00000000 		.4byte	0x0
 1110              	.LLST24:
 1111 03a2 30000000 		.4byte	.LVL44
 1112 03a6 50000000 		.4byte	.LVL45
 1113 03aa 0200     		.2byte	0x2
 1114 03ac 30       		.byte	0x30
 1115 03ad 9F       		.byte	0x9f
 1116 03ae 50000000 		.4byte	.LVL45
 1117 03b2 6A000000 		.4byte	.LVL46
 1118 03b6 0200     		.2byte	0x2
 1119 03b8 31       		.byte	0x31
 1120 03b9 9F       		.byte	0x9f
 1121 03ba 6A000000 		.4byte	.LVL46
 1122 03be 7A000000 		.4byte	.LVL47
 1123 03c2 0200     		.2byte	0x2
 1124 03c4 32       		.byte	0x32
 1125 03c5 9F       		.byte	0x9f
 1126 03c6 7E000000 		.4byte	.LVL48
 1127 03ca 88000000 		.4byte	.LVL49
 1128 03ce 0200     		.2byte	0x2
 1129 03d0 31       		.byte	0x31
 1130 03d1 9F       		.byte	0x9f
 1131 03d2 88000000 		.4byte	.LVL49
 1132 03d6 A0000000 		.4byte	.LVL50
 1133 03da 0200     		.2byte	0x2
 1134 03dc 32       		.byte	0x32
 1135 03dd 9F       		.byte	0x9f
 1136 03de A0000000 		.4byte	.LVL50
 1137 03e2 A2000000 		.4byte	.LVL51
 1138 03e6 0200     		.2byte	0x2
 1139 03e8 33       		.byte	0x33
 1140 03e9 9F       		.byte	0x9f
 1141 03ea A2000000 		.4byte	.LVL51
 1142 03ee AC000000 		.4byte	.LVL52
 1143 03f2 0200     		.2byte	0x2
 1144 03f4 30       		.byte	0x30
 1145 03f5 9F       		.byte	0x9f
ARM GAS  C:\Users\DNIEL~1\AppData\Local\Temp\ccx0Yxub.s 			page 22


 1146 03f6 AC000000 		.4byte	.LVL52
 1147 03fa E0000000 		.4byte	.LFE124
 1148 03fe 0200     		.2byte	0x2
 1149 0400 31       		.byte	0x31
 1150 0401 9F       		.byte	0x9f
 1151 0402 00000000 		.4byte	0x0
 1152 0406 00000000 		.4byte	0x0
 1153              		.file 3 "c:\\program files (x86)\\codesourcery\\sourcery g++ lite\\bin\\../lib/gcc/arm-none-eabi/4
 1154              		.file 4 "c:\\program files (x86)\\codesourcery\\sourcery g++ lite\\bin\\../lib/gcc/arm-none-eabi/4
 1155              		.file 5 "../../../ChibiOS/os/ports/GCC/ARMCMx/chtypes.h"
 1156              		.file 6 "../../../ChibiOS/os/kernel/include/chlists.h"
 1157              		.file 7 "../../../ChibiOS/os/kernel/include/chthreads.h"
 1158              		.file 8 "../../../ChibiOS/os/ports/GCC/ARMCMx/chcore_v7m.h"
 1159              		.file 9 "../../../ChibiOS/os/kernel/include/chmtx.h"
 1160              		.file 10 "../../../ChibiOS/os/kernel/include/chstreams.h"
 1161              		.file 11 "../../../ChibiOS/os/hal/platforms/STM32F4xx/stm32f4xx.h"
 1162              		.file 12 "../../../ChibiOS/os/hal/platforms/STM32F4xx/stm32_dma.h"
 1163              		.file 13 "../../../ChibiOS/os/hal/include/i2c.h"
 1164              		.file 14 "../../../ChibiOS/os/hal/platforms/STM32/I2Cv1/i2c_lld.h"
 1165              		.file 15 "c:\\program files (x86)\\codesourcery\\sourcery g++ lite\\bin\\../lib/gcc/arm-none-eabi/
 1166              		.file 16 "<built-in>"
 1167              		.file 17 "include/eepromItems.h"
 1168              		.file 18 "../../../ChibiOS/os/ports/common/ARMCMx/CMSIS/include/core_cm4.h"
 1169              		.section	.debug_info
 1170 0000 570C0000 		.4byte	0xc57
 1171 0004 0200     		.2byte	0x2
 1172 0006 00000000 		.4byte	.Ldebug_abbrev0
 1173 000a 04       		.byte	0x4
 1174 000b 01       		.uleb128 0x1
 1175 000c 9E050000 		.4byte	.LASF146
 1176 0010 01       		.byte	0x1
 1177 0011 89040000 		.4byte	.LASF147
 1178 0015 B4030000 		.4byte	.LASF148
 1179 0019 00000000 		.4byte	0x0
 1180 001d 00000000 		.4byte	0x0
 1181 0021 00000000 		.4byte	.Ldebug_ranges0+0x0
 1182 0025 00000000 		.4byte	.Ldebug_line0
 1183 0029 02       		.uleb128 0x2
 1184 002a 1A000000 		.4byte	.LASF10
 1185 002e 03       		.byte	0x3
 1186 002f D3       		.byte	0xd3
 1187 0030 34000000 		.4byte	0x34
 1188 0034 03       		.uleb128 0x3
 1189 0035 04       		.byte	0x4
 1190 0036 07       		.byte	0x7
 1191 0037 B3010000 		.4byte	.LASF0
 1192 003b 03       		.uleb128 0x3
 1193 003c 01       		.byte	0x1
 1194 003d 06       		.byte	0x6
 1195 003e 34000000 		.4byte	.LASF1
 1196 0042 03       		.uleb128 0x3
 1197 0043 01       		.byte	0x1
 1198 0044 08       		.byte	0x8
 1199 0045 9E030000 		.4byte	.LASF2
 1200 0049 03       		.uleb128 0x3
 1201 004a 02       		.byte	0x2
 1202 004b 05       		.byte	0x5
ARM GAS  C:\Users\DNIEL~1\AppData\Local\Temp\ccx0Yxub.s 			page 23


 1203 004c 52020000 		.4byte	.LASF3
 1204 0050 03       		.uleb128 0x3
 1205 0051 02       		.byte	0x2
 1206 0052 07       		.byte	0x7
 1207 0053 0C020000 		.4byte	.LASF4
 1208 0057 04       		.uleb128 0x4
 1209 0058 04       		.byte	0x4
 1210 0059 05       		.byte	0x5
 1211 005a 696E7400 		.ascii	"int\000"
 1212 005e 03       		.uleb128 0x3
 1213 005f 08       		.byte	0x8
 1214 0060 05       		.byte	0x5
 1215 0061 BE000000 		.4byte	.LASF5
 1216 0065 03       		.uleb128 0x3
 1217 0066 08       		.byte	0x8
 1218 0067 07       		.byte	0x7
 1219 0068 E4000000 		.4byte	.LASF6
 1220 006c 03       		.uleb128 0x3
 1221 006d 04       		.byte	0x4
 1222 006e 05       		.byte	0x5
 1223 006f 60000000 		.4byte	.LASF7
 1224 0073 05       		.uleb128 0x5
 1225 0074 04       		.byte	0x4
 1226 0075 03       		.uleb128 0x3
 1227 0076 04       		.byte	0x4
 1228 0077 07       		.byte	0x7
 1229 0078 F1040000 		.4byte	.LASF8
 1230 007c 06       		.uleb128 0x6
 1231 007d 04       		.byte	0x4
 1232 007e 82000000 		.4byte	0x82
 1233 0082 03       		.uleb128 0x3
 1234 0083 01       		.byte	0x1
 1235 0084 08       		.byte	0x8
 1236 0085 03050000 		.4byte	.LASF9
 1237 0089 06       		.uleb128 0x6
 1238 008a 04       		.byte	0x4
 1239 008b 8F000000 		.4byte	0x8f
 1240 008f 07       		.uleb128 0x7
 1241 0090 82000000 		.4byte	0x82
 1242 0094 02       		.uleb128 0x2
 1243 0095 80050000 		.4byte	.LASF11
 1244 0099 04       		.byte	0x4
 1245 009a 2A       		.byte	0x2a
 1246 009b 42000000 		.4byte	0x42
 1247 009f 02       		.uleb128 0x2
 1248 00a0 C0010000 		.4byte	.LASF12
 1249 00a4 04       		.byte	0x4
 1250 00a5 36       		.byte	0x36
 1251 00a6 50000000 		.4byte	0x50
 1252 00aa 02       		.uleb128 0x2
 1253 00ab 96030000 		.4byte	.LASF13
 1254 00af 04       		.byte	0x4
 1255 00b0 4F       		.byte	0x4f
 1256 00b1 6C000000 		.4byte	0x6c
 1257 00b5 02       		.uleb128 0x2
 1258 00b6 B0040000 		.4byte	.LASF14
 1259 00ba 04       		.byte	0x4
ARM GAS  C:\Users\DNIEL~1\AppData\Local\Temp\ccx0Yxub.s 			page 24


 1260 00bb 50       		.byte	0x50
 1261 00bc 75000000 		.4byte	0x75
 1262 00c0 03       		.uleb128 0x3
 1263 00c1 01       		.byte	0x1
 1264 00c2 02       		.byte	0x2
 1265 00c3 90030000 		.4byte	.LASF15
 1266 00c7 02       		.uleb128 0x2
 1267 00c8 2F020000 		.4byte	.LASF16
 1268 00cc 05       		.byte	0x5
 1269 00cd 2C       		.byte	0x2c
 1270 00ce 94000000 		.4byte	0x94
 1271 00d2 02       		.uleb128 0x2
 1272 00d3 22010000 		.4byte	.LASF17
 1273 00d7 05       		.byte	0x5
 1274 00d8 2D       		.byte	0x2d
 1275 00d9 94000000 		.4byte	0x94
 1276 00dd 02       		.uleb128 0x2
 1277 00de EE020000 		.4byte	.LASF18
 1278 00e2 05       		.byte	0x5
 1279 00e3 2E       		.byte	0x2e
 1280 00e4 94000000 		.4byte	0x94
 1281 00e8 02       		.uleb128 0x2
 1282 00e9 02010000 		.4byte	.LASF19
 1283 00ed 05       		.byte	0x5
 1284 00ee 2F       		.byte	0x2f
 1285 00ef 94000000 		.4byte	0x94
 1286 00f3 02       		.uleb128 0x2
 1287 00f4 68030000 		.4byte	.LASF20
 1288 00f8 05       		.byte	0x5
 1289 00f9 30       		.byte	0x30
 1290 00fa B5000000 		.4byte	0xb5
 1291 00fe 02       		.uleb128 0x2
 1292 00ff 29020000 		.4byte	.LASF21
 1293 0103 05       		.byte	0x5
 1294 0104 31       		.byte	0x31
 1295 0105 AA000000 		.4byte	0xaa
 1296 0109 02       		.uleb128 0x2
 1297 010a 46020000 		.4byte	.LASF22
 1298 010e 05       		.byte	0x5
 1299 010f 33       		.byte	0x33
 1300 0110 B5000000 		.4byte	0xb5
 1301 0114 02       		.uleb128 0x2
 1302 0115 16050000 		.4byte	.LASF23
 1303 0119 05       		.byte	0x5
 1304 011a 35       		.byte	0x35
 1305 011b B5000000 		.4byte	0xb5
 1306 011f 02       		.uleb128 0x2
 1307 0120 67040000 		.4byte	.LASF24
 1308 0124 06       		.byte	0x6
 1309 0125 2A       		.byte	0x2a
 1310 0126 2A010000 		.4byte	0x12a
 1311 012a 08       		.uleb128 0x8
 1312 012b 67040000 		.4byte	.LASF24
 1313 012f 48       		.byte	0x48
 1314 0130 07       		.byte	0x7
 1315 0131 5E       		.byte	0x5e
 1316 0132 4F020000 		.4byte	0x24f
ARM GAS  C:\Users\DNIEL~1\AppData\Local\Temp\ccx0Yxub.s 			page 25


 1317 0136 09       		.uleb128 0x9
 1318 0137 36040000 		.4byte	.LASF25
 1319 013b 07       		.byte	0x7
 1320 013c 5F       		.byte	0x5f
 1321 013d 74020000 		.4byte	0x274
 1322 0141 02       		.byte	0x2
 1323 0142 23       		.byte	0x23
 1324 0143 00       		.uleb128 0x0
 1325 0144 09       		.uleb128 0x9
 1326 0145 34030000 		.4byte	.LASF26
 1327 0149 07       		.byte	0x7
 1328 014a 61       		.byte	0x61
 1329 014b 74020000 		.4byte	0x274
 1330 014f 02       		.byte	0x2
 1331 0150 23       		.byte	0x23
 1332 0151 04       		.uleb128 0x4
 1333 0152 09       		.uleb128 0x9
 1334 0153 92050000 		.4byte	.LASF27
 1335 0157 07       		.byte	0x7
 1336 0158 63       		.byte	0x63
 1337 0159 F3000000 		.4byte	0xf3
 1338 015d 02       		.byte	0x2
 1339 015e 23       		.byte	0x23
 1340 015f 08       		.uleb128 0x8
 1341 0160 09       		.uleb128 0x9
 1342 0161 F4050000 		.4byte	.LASF28
 1343 0165 07       		.byte	0x7
 1344 0166 64       		.byte	0x64
 1345 0167 40030000 		.4byte	0x340
 1346 016b 02       		.byte	0x2
 1347 016c 23       		.byte	0x23
 1348 016d 0C       		.uleb128 0xc
 1349 016e 09       		.uleb128 0x9
 1350 016f 49010000 		.4byte	.LASF29
 1351 0173 07       		.byte	0x7
 1352 0174 66       		.byte	0x66
 1353 0175 74020000 		.4byte	0x274
 1354 0179 02       		.byte	0x2
 1355 017a 23       		.byte	0x23
 1356 017b 10       		.uleb128 0x10
 1357 017c 09       		.uleb128 0x9
 1358 017d 27040000 		.4byte	.LASF30
 1359 0181 07       		.byte	0x7
 1360 0182 67       		.byte	0x67
 1361 0183 74020000 		.4byte	0x274
 1362 0187 02       		.byte	0x2
 1363 0188 23       		.byte	0x23
 1364 0189 14       		.uleb128 0x14
 1365 018a 09       		.uleb128 0x9
 1366 018b 72050000 		.4byte	.LASF31
 1367 018f 07       		.byte	0x7
 1368 0190 6E       		.byte	0x6e
 1369 0191 89000000 		.4byte	0x89
 1370 0195 02       		.byte	0x2
 1371 0196 23       		.byte	0x23
 1372 0197 18       		.uleb128 0x18
 1373 0198 09       		.uleb128 0x9
ARM GAS  C:\Users\DNIEL~1\AppData\Local\Temp\ccx0Yxub.s 			page 26


 1374 0199 F4030000 		.4byte	.LASF32
 1375 019d 07       		.byte	0x7
 1376 019e 79       		.byte	0x79
 1377 019f D2000000 		.4byte	0xd2
 1378 01a3 02       		.byte	0x2
 1379 01a4 23       		.byte	0x23
 1380 01a5 1C       		.uleb128 0x1c
 1381 01a6 09       		.uleb128 0x9
 1382 01a7 55040000 		.4byte	.LASF33
 1383 01ab 07       		.byte	0x7
 1384 01ac 7D       		.byte	0x7d
 1385 01ad C7000000 		.4byte	0xc7
 1386 01b1 02       		.byte	0x2
 1387 01b2 23       		.byte	0x23
 1388 01b3 1D       		.uleb128 0x1d
 1389 01b4 09       		.uleb128 0x9
 1390 01b5 79050000 		.4byte	.LASF34
 1391 01b9 07       		.byte	0x7
 1392 01ba 82       		.byte	0x82
 1393 01bb DD000000 		.4byte	0xdd
 1394 01bf 02       		.byte	0x2
 1395 01c0 23       		.byte	0x23
 1396 01c1 1E       		.uleb128 0x1e
 1397 01c2 09       		.uleb128 0x9
 1398 01c3 1D040000 		.4byte	.LASF35
 1399 01c7 07       		.byte	0x7
 1400 01c8 88       		.byte	0x88
 1401 01c9 E8000000 		.4byte	0xe8
 1402 01cd 02       		.byte	0x2
 1403 01ce 23       		.byte	0x23
 1404 01cf 1F       		.uleb128 0x1f
 1405 01d0 09       		.uleb128 0x9
 1406 01d1 43050000 		.4byte	.LASF36
 1407 01d5 07       		.byte	0x7
 1408 01d6 8F       		.byte	0x8f
 1409 01d7 68030000 		.4byte	0x368
 1410 01db 02       		.byte	0x2
 1411 01dc 23       		.byte	0x23
 1412 01dd 20       		.uleb128 0x20
 1413 01de 0A       		.uleb128 0xa
 1414 01df 705F7500 		.ascii	"p_u\000"
 1415 01e3 07       		.byte	0x7
 1416 01e4 B4       		.byte	0xb4
 1417 01e5 B5030000 		.4byte	0x3b5
 1418 01e9 02       		.byte	0x2
 1419 01ea 23       		.byte	0x23
 1420 01eb 24       		.uleb128 0x24
 1421 01ec 09       		.uleb128 0x9
 1422 01ed FA050000 		.4byte	.LASF37
 1423 01f1 07       		.byte	0x7
 1424 01f2 B9       		.byte	0xb9
 1425 01f3 9C020000 		.4byte	0x29c
 1426 01f7 02       		.byte	0x2
 1427 01f8 23       		.byte	0x23
 1428 01f9 28       		.uleb128 0x28
 1429 01fa 09       		.uleb128 0x9
 1430 01fb D0010000 		.4byte	.LASF38
ARM GAS  C:\Users\DNIEL~1\AppData\Local\Temp\ccx0Yxub.s 			page 27


 1431 01ff 07       		.byte	0x7
 1432 0200 BF       		.byte	0xbf
 1433 0201 7A020000 		.4byte	0x27a
 1434 0205 02       		.byte	0x2
 1435 0206 23       		.byte	0x23
 1436 0207 2C       		.uleb128 0x2c
 1437 0208 09       		.uleb128 0x9
 1438 0209 B7050000 		.4byte	.LASF39
 1439 020d 07       		.byte	0x7
 1440 020e C3       		.byte	0xc3
 1441 020f FE000000 		.4byte	0xfe
 1442 0213 02       		.byte	0x2
 1443 0214 23       		.byte	0x23
 1444 0215 34       		.uleb128 0x34
 1445 0216 09       		.uleb128 0x9
 1446 0217 96040000 		.4byte	.LASF40
 1447 021b 07       		.byte	0x7
 1448 021c C9       		.byte	0xc9
 1449 021d 09010000 		.4byte	0x109
 1450 0221 02       		.byte	0x2
 1451 0222 23       		.byte	0x23
 1452 0223 38       		.uleb128 0x38
 1453 0224 09       		.uleb128 0x9
 1454 0225 FC030000 		.4byte	.LASF41
 1455 0229 07       		.byte	0x7
 1456 022a D0       		.byte	0xd0
 1457 022b EA030000 		.4byte	0x3ea
 1458 022f 02       		.byte	0x2
 1459 0230 23       		.byte	0x23
 1460 0231 3C       		.uleb128 0x3c
 1461 0232 09       		.uleb128 0x9
 1462 0233 20050000 		.4byte	.LASF42
 1463 0237 07       		.byte	0x7
 1464 0238 D4       		.byte	0xd4
 1465 0239 F3000000 		.4byte	0xf3
 1466 023d 02       		.byte	0x2
 1467 023e 23       		.byte	0x23
 1468 023f 40       		.uleb128 0x40
 1469 0240 09       		.uleb128 0x9
 1470 0241 DC000000 		.4byte	.LASF43
 1471 0245 07       		.byte	0x7
 1472 0246 DA       		.byte	0xda
 1473 0247 73000000 		.4byte	0x73
 1474 024b 02       		.byte	0x2
 1475 024c 23       		.byte	0x23
 1476 024d 44       		.uleb128 0x44
 1477 024e 00       		.byte	0x0
 1478 024f 0B       		.uleb128 0xb
 1479 0250 08       		.byte	0x8
 1480 0251 06       		.byte	0x6
 1481 0252 61       		.byte	0x61
 1482 0253 74020000 		.4byte	0x274
 1483 0257 09       		.uleb128 0x9
 1484 0258 36040000 		.4byte	.LASF25
 1485 025c 06       		.byte	0x6
 1486 025d 62       		.byte	0x62
 1487 025e 74020000 		.4byte	0x274
ARM GAS  C:\Users\DNIEL~1\AppData\Local\Temp\ccx0Yxub.s 			page 28


 1488 0262 02       		.byte	0x2
 1489 0263 23       		.byte	0x23
 1490 0264 00       		.uleb128 0x0
 1491 0265 09       		.uleb128 0x9
 1492 0266 34030000 		.4byte	.LASF26
 1493 026a 06       		.byte	0x6
 1494 026b 64       		.byte	0x64
 1495 026c 74020000 		.4byte	0x274
 1496 0270 02       		.byte	0x2
 1497 0271 23       		.byte	0x23
 1498 0272 04       		.uleb128 0x4
 1499 0273 00       		.byte	0x0
 1500 0274 06       		.uleb128 0x6
 1501 0275 04       		.byte	0x4
 1502 0276 1F010000 		.4byte	0x11f
 1503 027a 02       		.uleb128 0x2
 1504 027b 75000000 		.4byte	.LASF44
 1505 027f 06       		.byte	0x6
 1506 0280 66       		.byte	0x66
 1507 0281 4F020000 		.4byte	0x24f
 1508 0285 0B       		.uleb128 0xb
 1509 0286 04       		.byte	0x4
 1510 0287 06       		.byte	0x6
 1511 0288 6B       		.byte	0x6b
 1512 0289 9C020000 		.4byte	0x29c
 1513 028d 09       		.uleb128 0x9
 1514 028e 36040000 		.4byte	.LASF25
 1515 0292 06       		.byte	0x6
 1516 0293 6D       		.byte	0x6d
 1517 0294 74020000 		.4byte	0x274
 1518 0298 02       		.byte	0x2
 1519 0299 23       		.byte	0x23
 1520 029a 00       		.uleb128 0x0
 1521 029b 00       		.byte	0x0
 1522 029c 02       		.uleb128 0x2
 1523 029d 21000000 		.4byte	.LASF45
 1524 02a1 06       		.byte	0x6
 1525 02a2 70       		.byte	0x70
 1526 02a3 85020000 		.4byte	0x285
 1527 02a7 02       		.uleb128 0x2
 1528 02a8 B9040000 		.4byte	.LASF46
 1529 02ac 08       		.byte	0x8
 1530 02ad E5       		.byte	0xe5
 1531 02ae 73000000 		.4byte	0x73
 1532 02b2 0C       		.uleb128 0xc
 1533 02b3 4A050000 		.4byte	.LASF47
 1534 02b7 24       		.byte	0x24
 1535 02b8 08       		.byte	0x8
 1536 02b9 0C01     		.2byte	0x10c
 1537 02bb 40030000 		.4byte	0x340
 1538 02bf 0D       		.uleb128 0xd
 1539 02c0 723400   		.ascii	"r4\000"
 1540 02c3 08       		.byte	0x8
 1541 02c4 1F01     		.2byte	0x11f
 1542 02c6 A7020000 		.4byte	0x2a7
 1543 02ca 02       		.byte	0x2
 1544 02cb 23       		.byte	0x23
ARM GAS  C:\Users\DNIEL~1\AppData\Local\Temp\ccx0Yxub.s 			page 29


 1545 02cc 00       		.uleb128 0x0
 1546 02cd 0D       		.uleb128 0xd
 1547 02ce 723500   		.ascii	"r5\000"
 1548 02d1 08       		.byte	0x8
 1549 02d2 2001     		.2byte	0x120
 1550 02d4 A7020000 		.4byte	0x2a7
 1551 02d8 02       		.byte	0x2
 1552 02d9 23       		.byte	0x23
 1553 02da 04       		.uleb128 0x4
 1554 02db 0D       		.uleb128 0xd
 1555 02dc 723600   		.ascii	"r6\000"
 1556 02df 08       		.byte	0x8
 1557 02e0 2101     		.2byte	0x121
 1558 02e2 A7020000 		.4byte	0x2a7
 1559 02e6 02       		.byte	0x2
 1560 02e7 23       		.byte	0x23
 1561 02e8 08       		.uleb128 0x8
 1562 02e9 0D       		.uleb128 0xd
 1563 02ea 723700   		.ascii	"r7\000"
 1564 02ed 08       		.byte	0x8
 1565 02ee 2201     		.2byte	0x122
 1566 02f0 A7020000 		.4byte	0x2a7
 1567 02f4 02       		.byte	0x2
 1568 02f5 23       		.byte	0x23
 1569 02f6 0C       		.uleb128 0xc
 1570 02f7 0D       		.uleb128 0xd
 1571 02f8 723800   		.ascii	"r8\000"
 1572 02fb 08       		.byte	0x8
 1573 02fc 2301     		.2byte	0x123
 1574 02fe A7020000 		.4byte	0x2a7
 1575 0302 02       		.byte	0x2
 1576 0303 23       		.byte	0x23
 1577 0304 10       		.uleb128 0x10
 1578 0305 0D       		.uleb128 0xd
 1579 0306 723900   		.ascii	"r9\000"
 1580 0309 08       		.byte	0x8
 1581 030a 2401     		.2byte	0x124
 1582 030c A7020000 		.4byte	0x2a7
 1583 0310 02       		.byte	0x2
 1584 0311 23       		.byte	0x23
 1585 0312 14       		.uleb128 0x14
 1586 0313 0D       		.uleb128 0xd
 1587 0314 72313000 		.ascii	"r10\000"
 1588 0318 08       		.byte	0x8
 1589 0319 2501     		.2byte	0x125
 1590 031b A7020000 		.4byte	0x2a7
 1591 031f 02       		.byte	0x2
 1592 0320 23       		.byte	0x23
 1593 0321 18       		.uleb128 0x18
 1594 0322 0D       		.uleb128 0xd
 1595 0323 72313100 		.ascii	"r11\000"
 1596 0327 08       		.byte	0x8
 1597 0328 2601     		.2byte	0x126
 1598 032a A7020000 		.4byte	0x2a7
 1599 032e 02       		.byte	0x2
 1600 032f 23       		.byte	0x23
 1601 0330 1C       		.uleb128 0x1c
ARM GAS  C:\Users\DNIEL~1\AppData\Local\Temp\ccx0Yxub.s 			page 30


 1602 0331 0D       		.uleb128 0xd
 1603 0332 6C7200   		.ascii	"lr\000"
 1604 0335 08       		.byte	0x8
 1605 0336 2701     		.2byte	0x127
 1606 0338 A7020000 		.4byte	0x2a7
 1607 033c 02       		.byte	0x2
 1608 033d 23       		.byte	0x23
 1609 033e 20       		.uleb128 0x20
 1610 033f 00       		.byte	0x0
 1611 0340 0C       		.uleb128 0xc
 1612 0341 AF050000 		.4byte	.LASF48
 1613 0345 04       		.byte	0x4
 1614 0346 08       		.byte	0x8
 1615 0347 3101     		.2byte	0x131
 1616 0349 5D030000 		.4byte	0x35d
 1617 034d 0D       		.uleb128 0xd
 1618 034e 72313300 		.ascii	"r13\000"
 1619 0352 08       		.byte	0x8
 1620 0353 3201     		.2byte	0x132
 1621 0355 5D030000 		.4byte	0x35d
 1622 0359 02       		.byte	0x2
 1623 035a 23       		.byte	0x23
 1624 035b 00       		.uleb128 0x0
 1625 035c 00       		.byte	0x0
 1626 035d 06       		.uleb128 0x6
 1627 035e 04       		.byte	0x4
 1628 035f B2020000 		.4byte	0x2b2
 1629 0363 0E       		.uleb128 0xe
 1630 0364 B5000000 		.4byte	0xb5
 1631 0368 0E       		.uleb128 0xe
 1632 0369 14010000 		.4byte	0x114
 1633 036d 08       		.uleb128 0x8
 1634 036e 61020000 		.4byte	.LASF49
 1635 0372 10       		.byte	0x10
 1636 0373 09       		.byte	0x9
 1637 0374 2C       		.byte	0x2c
 1638 0375 A4030000 		.4byte	0x3a4
 1639 0379 09       		.uleb128 0x9
 1640 037a AC030000 		.4byte	.LASF50
 1641 037e 09       		.byte	0x9
 1642 037f 2D       		.byte	0x2d
 1643 0380 7A020000 		.4byte	0x27a
 1644 0384 02       		.byte	0x2
 1645 0385 23       		.byte	0x23
 1646 0386 00       		.uleb128 0x0
 1647 0387 09       		.uleb128 0x9
 1648 0388 E2050000 		.4byte	.LASF51
 1649 038c 09       		.byte	0x9
 1650 038d 2F       		.byte	0x2f
 1651 038e 74020000 		.4byte	0x274
 1652 0392 02       		.byte	0x2
 1653 0393 23       		.byte	0x23
 1654 0394 08       		.uleb128 0x8
 1655 0395 09       		.uleb128 0x9
 1656 0396 0F050000 		.4byte	.LASF52
 1657 039a 09       		.byte	0x9
 1658 039b 31       		.byte	0x31
ARM GAS  C:\Users\DNIEL~1\AppData\Local\Temp\ccx0Yxub.s 			page 31


 1659 039c A4030000 		.4byte	0x3a4
 1660 03a0 02       		.byte	0x2
 1661 03a1 23       		.byte	0x23
 1662 03a2 0C       		.uleb128 0xc
 1663 03a3 00       		.byte	0x0
 1664 03a4 06       		.uleb128 0x6
 1665 03a5 04       		.byte	0x4
 1666 03a6 6D030000 		.4byte	0x36d
 1667 03aa 02       		.uleb128 0x2
 1668 03ab 61020000 		.4byte	.LASF49
 1669 03af 09       		.byte	0x9
 1670 03b0 33       		.byte	0x33
 1671 03b1 6D030000 		.4byte	0x36d
 1672 03b5 0F       		.uleb128 0xf
 1673 03b6 04       		.byte	0x4
 1674 03b7 07       		.byte	0x7
 1675 03b8 96       		.byte	0x96
 1676 03b9 EA030000 		.4byte	0x3ea
 1677 03bd 10       		.uleb128 0x10
 1678 03be 2D000000 		.4byte	.LASF53
 1679 03c2 07       		.byte	0x7
 1680 03c3 9D       		.byte	0x9d
 1681 03c4 FE000000 		.4byte	0xfe
 1682 03c8 10       		.uleb128 0x10
 1683 03c9 92000000 		.4byte	.LASF54
 1684 03cd 07       		.byte	0x7
 1685 03ce A4       		.byte	0xa4
 1686 03cf FE000000 		.4byte	0xfe
 1687 03d3 10       		.uleb128 0x10
 1688 03d4 FB000000 		.4byte	.LASF55
 1689 03d8 07       		.byte	0x7
 1690 03d9 AB       		.byte	0xab
 1691 03da 73000000 		.4byte	0x73
 1692 03de 10       		.uleb128 0x10
 1693 03df 2F040000 		.4byte	.LASF56
 1694 03e3 07       		.byte	0x7
 1695 03e4 B2       		.byte	0xb2
 1696 03e5 09010000 		.4byte	0x109
 1697 03e9 00       		.byte	0x0
 1698 03ea 06       		.uleb128 0x6
 1699 03eb 04       		.byte	0x4
 1700 03ec AA030000 		.4byte	0x3aa
 1701 03f0 06       		.uleb128 0x6
 1702 03f1 04       		.byte	0x4
 1703 03f2 F6030000 		.4byte	0x3f6
 1704 03f6 11       		.uleb128 0x11
 1705 03f7 01       		.byte	0x1
 1706 03f8 FE000000 		.4byte	0xfe
 1707 03fc 06040000 		.4byte	0x406
 1708 0400 12       		.uleb128 0x12
 1709 0401 73000000 		.4byte	0x73
 1710 0405 00       		.byte	0x0
 1711 0406 06       		.uleb128 0x6
 1712 0407 04       		.byte	0x4
 1713 0408 94000000 		.4byte	0x94
 1714 040c 08       		.uleb128 0x8
 1715 040d 3D040000 		.4byte	.LASF57
ARM GAS  C:\Users\DNIEL~1\AppData\Local\Temp\ccx0Yxub.s 			page 32


 1716 0411 10       		.byte	0x10
 1717 0412 0A       		.byte	0xa
 1718 0413 48       		.byte	0x48
 1719 0414 51040000 		.4byte	0x451
 1720 0418 09       		.uleb128 0x9
 1721 0419 7D020000 		.4byte	.LASF58
 1722 041d 0A       		.byte	0xa
 1723 041e 49       		.byte	0x49
 1724 041f 76040000 		.4byte	0x476
 1725 0423 02       		.byte	0x2
 1726 0424 23       		.byte	0x23
 1727 0425 00       		.uleb128 0x0
 1728 0426 09       		.uleb128 0x9
 1729 0427 99050000 		.4byte	.LASF59
 1730 042b 0A       		.byte	0xa
 1731 042c 49       		.byte	0x49
 1732 042d 96040000 		.4byte	0x496
 1733 0431 02       		.byte	0x2
 1734 0432 23       		.byte	0x23
 1735 0433 04       		.uleb128 0x4
 1736 0434 0A       		.uleb128 0xa
 1737 0435 70757400 		.ascii	"put\000"
 1738 0439 0A       		.byte	0xa
 1739 043a 49       		.byte	0x49
 1740 043b B1040000 		.4byte	0x4b1
 1741 043f 02       		.byte	0x2
 1742 0440 23       		.byte	0x23
 1743 0441 08       		.uleb128 0x8
 1744 0442 0A       		.uleb128 0xa
 1745 0443 67657400 		.ascii	"get\000"
 1746 0447 0A       		.byte	0xa
 1747 0448 49       		.byte	0x49
 1748 0449 F0030000 		.4byte	0x3f0
 1749 044d 02       		.byte	0x2
 1750 044e 23       		.byte	0x23
 1751 044f 0C       		.uleb128 0xc
 1752 0450 00       		.byte	0x0
 1753 0451 11       		.uleb128 0x11
 1754 0452 01       		.byte	0x1
 1755 0453 29000000 		.4byte	0x29
 1756 0457 6B040000 		.4byte	0x46b
 1757 045b 12       		.uleb128 0x12
 1758 045c 73000000 		.4byte	0x73
 1759 0460 12       		.uleb128 0x12
 1760 0461 6B040000 		.4byte	0x46b
 1761 0465 12       		.uleb128 0x12
 1762 0466 29000000 		.4byte	0x29
 1763 046a 00       		.byte	0x0
 1764 046b 06       		.uleb128 0x6
 1765 046c 04       		.byte	0x4
 1766 046d 71040000 		.4byte	0x471
 1767 0471 07       		.uleb128 0x7
 1768 0472 94000000 		.4byte	0x94
 1769 0476 06       		.uleb128 0x6
 1770 0477 04       		.byte	0x4
 1771 0478 51040000 		.4byte	0x451
 1772 047c 11       		.uleb128 0x11
ARM GAS  C:\Users\DNIEL~1\AppData\Local\Temp\ccx0Yxub.s 			page 33


 1773 047d 01       		.byte	0x1
 1774 047e 29000000 		.4byte	0x29
 1775 0482 96040000 		.4byte	0x496
 1776 0486 12       		.uleb128 0x12
 1777 0487 73000000 		.4byte	0x73
 1778 048b 12       		.uleb128 0x12
 1779 048c 06040000 		.4byte	0x406
 1780 0490 12       		.uleb128 0x12
 1781 0491 29000000 		.4byte	0x29
 1782 0495 00       		.byte	0x0
 1783 0496 06       		.uleb128 0x6
 1784 0497 04       		.byte	0x4
 1785 0498 7C040000 		.4byte	0x47c
 1786 049c 11       		.uleb128 0x11
 1787 049d 01       		.byte	0x1
 1788 049e FE000000 		.4byte	0xfe
 1789 04a2 B1040000 		.4byte	0x4b1
 1790 04a6 12       		.uleb128 0x12
 1791 04a7 73000000 		.4byte	0x73
 1792 04ab 12       		.uleb128 0x12
 1793 04ac 94000000 		.4byte	0x94
 1794 04b0 00       		.byte	0x0
 1795 04b1 06       		.uleb128 0x6
 1796 04b2 04       		.byte	0x4
 1797 04b3 9C040000 		.4byte	0x49c
 1798 04b7 0B       		.uleb128 0xb
 1799 04b8 04       		.byte	0x4
 1800 04b9 0A       		.byte	0xa
 1801 04ba 51       		.byte	0x51
 1802 04bb CE040000 		.4byte	0x4ce
 1803 04bf 0A       		.uleb128 0xa
 1804 04c0 766D7400 		.ascii	"vmt\000"
 1805 04c4 0A       		.byte	0xa
 1806 04c5 53       		.byte	0x53
 1807 04c6 CE040000 		.4byte	0x4ce
 1808 04ca 02       		.byte	0x2
 1809 04cb 23       		.byte	0x23
 1810 04cc 00       		.uleb128 0x0
 1811 04cd 00       		.byte	0x0
 1812 04ce 06       		.uleb128 0x6
 1813 04cf 04       		.byte	0x4
 1814 04d0 D4040000 		.4byte	0x4d4
 1815 04d4 07       		.uleb128 0x7
 1816 04d5 0C040000 		.4byte	0x40c
 1817 04d9 02       		.uleb128 0x2
 1818 04da 9E010000 		.4byte	.LASF60
 1819 04de 0A       		.byte	0xa
 1820 04df 55       		.byte	0x55
 1821 04e0 B7040000 		.4byte	0x4b7
 1822 04e4 0E       		.uleb128 0xe
 1823 04e5 9F000000 		.4byte	0x9f
 1824 04e9 0E       		.uleb128 0xe
 1825 04ea AA000000 		.4byte	0xaa
 1826 04ee 13       		.uleb128 0x13
 1827 04ef 18       		.byte	0x18
 1828 04f0 0B       		.byte	0xb
 1829 04f1 B102     		.2byte	0x2b1
ARM GAS  C:\Users\DNIEL~1\AppData\Local\Temp\ccx0Yxub.s 			page 34


 1830 04f3 51050000 		.4byte	0x551
 1831 04f7 0D       		.uleb128 0xd
 1832 04f8 435200   		.ascii	"CR\000"
 1833 04fb 0B       		.byte	0xb
 1834 04fc B302     		.2byte	0x2b3
 1835 04fe 63030000 		.4byte	0x363
 1836 0502 02       		.byte	0x2
 1837 0503 23       		.byte	0x23
 1838 0504 00       		.uleb128 0x0
 1839 0505 14       		.uleb128 0x14
 1840 0506 2B050000 		.4byte	.LASF61
 1841 050a 0B       		.byte	0xb
 1842 050b B402     		.2byte	0x2b4
 1843 050d 63030000 		.4byte	0x363
 1844 0511 02       		.byte	0x2
 1845 0512 23       		.byte	0x23
 1846 0513 04       		.uleb128 0x4
 1847 0514 0D       		.uleb128 0xd
 1848 0515 50415200 		.ascii	"PAR\000"
 1849 0519 0B       		.byte	0xb
 1850 051a B502     		.2byte	0x2b5
 1851 051c 63030000 		.4byte	0x363
 1852 0520 02       		.byte	0x2
 1853 0521 23       		.byte	0x23
 1854 0522 08       		.uleb128 0x8
 1855 0523 14       		.uleb128 0x14
 1856 0524 15000000 		.4byte	.LASF62
 1857 0528 0B       		.byte	0xb
 1858 0529 B602     		.2byte	0x2b6
 1859 052b 63030000 		.4byte	0x363
 1860 052f 02       		.byte	0x2
 1861 0530 23       		.byte	0x23
 1862 0531 0C       		.uleb128 0xc
 1863 0532 14       		.uleb128 0x14
 1864 0533 51050000 		.4byte	.LASF63
 1865 0537 0B       		.byte	0xb
 1866 0538 B702     		.2byte	0x2b7
 1867 053a 63030000 		.4byte	0x363
 1868 053e 02       		.byte	0x2
 1869 053f 23       		.byte	0x23
 1870 0540 10       		.uleb128 0x10
 1871 0541 0D       		.uleb128 0xd
 1872 0542 46435200 		.ascii	"FCR\000"
 1873 0546 0B       		.byte	0xb
 1874 0547 B802     		.2byte	0x2b8
 1875 0549 63030000 		.4byte	0x363
 1876 054d 02       		.byte	0x2
 1877 054e 23       		.byte	0x23
 1878 054f 14       		.uleb128 0x14
 1879 0550 00       		.byte	0x0
 1880 0551 15       		.uleb128 0x15
 1881 0552 30050000 		.4byte	.LASF64
 1882 0556 0B       		.byte	0xb
 1883 0557 B902     		.2byte	0x2b9
 1884 0559 EE040000 		.4byte	0x4ee
 1885 055d 13       		.uleb128 0x13
 1886 055e 28       		.byte	0x28
ARM GAS  C:\Users\DNIEL~1\AppData\Local\Temp\ccx0Yxub.s 			page 35


 1887 055f 0B       		.byte	0xb
 1888 0560 F603     		.2byte	0x3f6
 1889 0562 92060000 		.4byte	0x692
 1890 0566 0D       		.uleb128 0xd
 1891 0567 43523100 		.ascii	"CR1\000"
 1892 056b 0B       		.byte	0xb
 1893 056c F803     		.2byte	0x3f8
 1894 056e E4040000 		.4byte	0x4e4
 1895 0572 02       		.byte	0x2
 1896 0573 23       		.byte	0x23
 1897 0574 00       		.uleb128 0x0
 1898 0575 14       		.uleb128 0x14
 1899 0576 5D040000 		.4byte	.LASF65
 1900 057a 0B       		.byte	0xb
 1901 057b F903     		.2byte	0x3f9
 1902 057d 9F000000 		.4byte	0x9f
 1903 0581 02       		.byte	0x2
 1904 0582 23       		.byte	0x23
 1905 0583 02       		.uleb128 0x2
 1906 0584 0D       		.uleb128 0xd
 1907 0585 43523200 		.ascii	"CR2\000"
 1908 0589 0B       		.byte	0xb
 1909 058a FA03     		.2byte	0x3fa
 1910 058c E4040000 		.4byte	0x4e4
 1911 0590 02       		.byte	0x2
 1912 0591 23       		.byte	0x23
 1913 0592 04       		.uleb128 0x4
 1914 0593 14       		.uleb128 0x14
 1915 0594 6E040000 		.4byte	.LASF66
 1916 0598 0B       		.byte	0xb
 1917 0599 FB03     		.2byte	0x3fb
 1918 059b 9F000000 		.4byte	0x9f
 1919 059f 02       		.byte	0x2
 1920 05a0 23       		.byte	0x23
 1921 05a1 06       		.uleb128 0x6
 1922 05a2 14       		.uleb128 0x14
 1923 05a3 88050000 		.4byte	.LASF67
 1924 05a7 0B       		.byte	0xb
 1925 05a8 FC03     		.2byte	0x3fc
 1926 05aa E4040000 		.4byte	0x4e4
 1927 05ae 02       		.byte	0x2
 1928 05af 23       		.byte	0x23
 1929 05b0 08       		.uleb128 0x8
 1930 05b1 14       		.uleb128 0x14
 1931 05b2 16030000 		.4byte	.LASF68
 1932 05b6 0B       		.byte	0xb
 1933 05b7 FD03     		.2byte	0x3fd
 1934 05b9 9F000000 		.4byte	0x9f
 1935 05bd 02       		.byte	0x2
 1936 05be 23       		.byte	0x23
 1937 05bf 0A       		.uleb128 0xa
 1938 05c0 14       		.uleb128 0x14
 1939 05c1 8D050000 		.4byte	.LASF69
 1940 05c5 0B       		.byte	0xb
 1941 05c6 FE03     		.2byte	0x3fe
 1942 05c8 E4040000 		.4byte	0x4e4
 1943 05cc 02       		.byte	0x2
ARM GAS  C:\Users\DNIEL~1\AppData\Local\Temp\ccx0Yxub.s 			page 36


 1944 05cd 23       		.byte	0x23
 1945 05ce 0C       		.uleb128 0xc
 1946 05cf 14       		.uleb128 0x14
 1947 05d0 20030000 		.4byte	.LASF70
 1948 05d4 0B       		.byte	0xb
 1949 05d5 FF03     		.2byte	0x3ff
 1950 05d7 9F000000 		.4byte	0x9f
 1951 05db 02       		.byte	0x2
 1952 05dc 23       		.byte	0x23
 1953 05dd 0E       		.uleb128 0xe
 1954 05de 0D       		.uleb128 0xd
 1955 05df 445200   		.ascii	"DR\000"
 1956 05e2 0B       		.byte	0xb
 1957 05e3 0004     		.2byte	0x400
 1958 05e5 E4040000 		.4byte	0x4e4
 1959 05e9 02       		.byte	0x2
 1960 05ea 23       		.byte	0x23
 1961 05eb 10       		.uleb128 0x10
 1962 05ec 14       		.uleb128 0x14
 1963 05ed 2A030000 		.4byte	.LASF71
 1964 05f1 0B       		.byte	0xb
 1965 05f2 0104     		.2byte	0x401
 1966 05f4 9F000000 		.4byte	0x9f
 1967 05f8 02       		.byte	0x2
 1968 05f9 23       		.byte	0x23
 1969 05fa 12       		.uleb128 0x12
 1970 05fb 0D       		.uleb128 0xd
 1971 05fc 53523100 		.ascii	"SR1\000"
 1972 0600 0B       		.byte	0xb
 1973 0601 0204     		.2byte	0x402
 1974 0603 E4040000 		.4byte	0x4e4
 1975 0607 02       		.byte	0x2
 1976 0608 23       		.byte	0x23
 1977 0609 14       		.uleb128 0x14
 1978 060a 14       		.uleb128 0x14
 1979 060b A6040000 		.4byte	.LASF72
 1980 060f 0B       		.byte	0xb
 1981 0610 0304     		.2byte	0x403
 1982 0612 9F000000 		.4byte	0x9f
 1983 0616 02       		.byte	0x2
 1984 0617 23       		.byte	0x23
 1985 0618 16       		.uleb128 0x16
 1986 0619 0D       		.uleb128 0xd
 1987 061a 53523200 		.ascii	"SR2\000"
 1988 061e 0B       		.byte	0xb
 1989 061f 0404     		.2byte	0x404
 1990 0621 E4040000 		.4byte	0x4e4
 1991 0625 02       		.byte	0x2
 1992 0626 23       		.byte	0x23
 1993 0627 18       		.uleb128 0x18
 1994 0628 14       		.uleb128 0x14
 1995 0629 3B030000 		.4byte	.LASF73
 1996 062d 0B       		.byte	0xb
 1997 062e 0504     		.2byte	0x405
 1998 0630 9F000000 		.4byte	0x9f
 1999 0634 02       		.byte	0x2
 2000 0635 23       		.byte	0x23
ARM GAS  C:\Users\DNIEL~1\AppData\Local\Temp\ccx0Yxub.s 			page 37


 2001 0636 1A       		.uleb128 0x1a
 2002 0637 0D       		.uleb128 0xd
 2003 0638 43435200 		.ascii	"CCR\000"
 2004 063c 0B       		.byte	0xb
 2005 063d 0604     		.2byte	0x406
 2006 063f E4040000 		.4byte	0x4e4
 2007 0643 02       		.byte	0x2
 2008 0644 23       		.byte	0x23
 2009 0645 1C       		.uleb128 0x1c
 2010 0646 14       		.uleb128 0x14
 2011 0647 56050000 		.4byte	.LASF74
 2012 064b 0B       		.byte	0xb
 2013 064c 0704     		.2byte	0x407
 2014 064e 9F000000 		.4byte	0x9f
 2015 0652 02       		.byte	0x2
 2016 0653 23       		.byte	0x23
 2017 0654 1E       		.uleb128 0x1e
 2018 0655 14       		.uleb128 0x14
 2019 0656 5A000000 		.4byte	.LASF75
 2020 065a 0B       		.byte	0xb
 2021 065b 0804     		.2byte	0x408
 2022 065d E4040000 		.4byte	0x4e4
 2023 0661 02       		.byte	0x2
 2024 0662 23       		.byte	0x23
 2025 0663 20       		.uleb128 0x20
 2026 0664 14       		.uleb128 0x14
 2027 0665 C2040000 		.4byte	.LASF76
 2028 0669 0B       		.byte	0xb
 2029 066a 0904     		.2byte	0x409
 2030 066c 9F000000 		.4byte	0x9f
 2031 0670 02       		.byte	0x2
 2032 0671 23       		.byte	0x23
 2033 0672 22       		.uleb128 0x22
 2034 0673 14       		.uleb128 0x14
 2035 0674 3F010000 		.4byte	.LASF77
 2036 0678 0B       		.byte	0xb
 2037 0679 0A04     		.2byte	0x40a
 2038 067b E4040000 		.4byte	0x4e4
 2039 067f 02       		.byte	0x2
 2040 0680 23       		.byte	0x23
 2041 0681 24       		.uleb128 0x24
 2042 0682 14       		.uleb128 0x14
 2043 0683 CC040000 		.4byte	.LASF78
 2044 0687 0B       		.byte	0xb
 2045 0688 0B04     		.2byte	0x40b
 2046 068a 9F000000 		.4byte	0x9f
 2047 068e 02       		.byte	0x2
 2048 068f 23       		.byte	0x23
 2049 0690 26       		.uleb128 0x26
 2050 0691 00       		.byte	0x0
 2051 0692 15       		.uleb128 0x15
 2052 0693 85010000 		.4byte	.LASF79
 2053 0697 0B       		.byte	0xb
 2054 0698 0C04     		.2byte	0x40c
 2055 069a 5D050000 		.4byte	0x55d
 2056 069e 0B       		.uleb128 0xb
 2057 069f 0C       		.byte	0xc
ARM GAS  C:\Users\DNIEL~1\AppData\Local\Temp\ccx0Yxub.s 			page 38


 2058 06a0 0C       		.byte	0xc
 2059 06a1 DA       		.byte	0xda
 2060 06a2 ED060000 		.4byte	0x6ed
 2061 06a6 09       		.uleb128 0x9
 2062 06a7 91010000 		.4byte	.LASF80
 2063 06ab 0C       		.byte	0xc
 2064 06ac DB       		.byte	0xdb
 2065 06ad ED060000 		.4byte	0x6ed
 2066 06b1 02       		.byte	0x2
 2067 06b2 23       		.byte	0x23
 2068 06b3 00       		.uleb128 0x0
 2069 06b4 09       		.uleb128 0x9
 2070 06b5 A1040000 		.4byte	.LASF81
 2071 06b9 0C       		.byte	0xc
 2072 06ba DC       		.byte	0xdc
 2073 06bb F3060000 		.4byte	0x6f3
 2074 06bf 02       		.byte	0x2
 2075 06c0 23       		.byte	0x23
 2076 06c1 04       		.uleb128 0x4
 2077 06c2 09       		.uleb128 0x9
 2078 06c3 DB010000 		.4byte	.LASF82
 2079 06c7 0C       		.byte	0xc
 2080 06c8 DD       		.byte	0xdd
 2081 06c9 94000000 		.4byte	0x94
 2082 06cd 02       		.byte	0x2
 2083 06ce 23       		.byte	0x23
 2084 06cf 08       		.uleb128 0x8
 2085 06d0 09       		.uleb128 0x9
 2086 06d1 73010000 		.4byte	.LASF83
 2087 06d5 0C       		.byte	0xc
 2088 06d6 DF       		.byte	0xdf
 2089 06d7 94000000 		.4byte	0x94
 2090 06db 02       		.byte	0x2
 2091 06dc 23       		.byte	0x23
 2092 06dd 09       		.uleb128 0x9
 2093 06de 09       		.uleb128 0x9
 2094 06df 9B000000 		.4byte	.LASF84
 2095 06e3 0C       		.byte	0xc
 2096 06e4 E0       		.byte	0xe0
 2097 06e5 94000000 		.4byte	0x94
 2098 06e9 02       		.byte	0x2
 2099 06ea 23       		.byte	0x23
 2100 06eb 0A       		.uleb128 0xa
 2101 06ec 00       		.byte	0x0
 2102 06ed 06       		.uleb128 0x6
 2103 06ee 04       		.byte	0x4
 2104 06ef 51050000 		.4byte	0x551
 2105 06f3 06       		.uleb128 0x6
 2106 06f4 04       		.byte	0x4
 2107 06f5 63030000 		.4byte	0x363
 2108 06f9 02       		.uleb128 0x2
 2109 06fa 45030000 		.4byte	.LASF85
 2110 06fe 0C       		.byte	0xc
 2111 06ff E1       		.byte	0xe1
 2112 0700 9E060000 		.4byte	0x69e
 2113 0704 06       		.uleb128 0x6
 2114 0705 04       		.byte	0x4
ARM GAS  C:\Users\DNIEL~1\AppData\Local\Temp\ccx0Yxub.s 			page 39


 2115 0706 0A070000 		.4byte	0x70a
 2116 070a 07       		.uleb128 0x7
 2117 070b F9060000 		.4byte	0x6f9
 2118 070f 16       		.uleb128 0x16
 2119 0710 01       		.byte	0x1
 2120 0711 0D       		.byte	0xd
 2121 0712 5A       		.byte	0x5a
 2122 0713 3C070000 		.4byte	0x73c
 2123 0717 17       		.uleb128 0x17
 2124 0718 CC000000 		.4byte	.LASF86
 2125 071c 00       		.sleb128 0
 2126 071d 17       		.uleb128 0x17
 2127 071e 8E020000 		.4byte	.LASF87
 2128 0722 01       		.sleb128 1
 2129 0723 17       		.uleb128 0x17
 2130 0724 B4000000 		.4byte	.LASF88
 2131 0728 02       		.sleb128 2
 2132 0729 17       		.uleb128 0x17
 2133 072a 70030000 		.4byte	.LASF89
 2134 072e 03       		.sleb128 3
 2135 072f 17       		.uleb128 0x17
 2136 0730 E3040000 		.4byte	.LASF90
 2137 0734 04       		.sleb128 4
 2138 0735 17       		.uleb128 0x17
 2139 0736 78040000 		.4byte	.LASF91
 2140 073a 05       		.sleb128 5
 2141 073b 00       		.byte	0x0
 2142 073c 02       		.uleb128 0x2
 2143 073d F6020000 		.4byte	.LASF92
 2144 0741 0D       		.byte	0xd
 2145 0742 61       		.byte	0x61
 2146 0743 0F070000 		.4byte	0x70f
 2147 0747 15       		.uleb128 0x15
 2148 0748 0C010000 		.4byte	.LASF93
 2149 074c 0E       		.byte	0xe
 2150 074d 3501     		.2byte	0x135
 2151 074f 9F000000 		.4byte	0x9f
 2152 0753 15       		.uleb128 0x15
 2153 0754 7E030000 		.4byte	.LASF94
 2154 0758 0E       		.byte	0xe
 2155 0759 3A01     		.2byte	0x13a
 2156 075b B5000000 		.4byte	0xb5
 2157 075f 18       		.uleb128 0x18
 2158 0760 01       		.byte	0x1
 2159 0761 0E       		.byte	0xe
 2160 0762 3F01     		.2byte	0x13f
 2161 0764 7B070000 		.4byte	0x77b
 2162 0768 17       		.uleb128 0x17
 2163 0769 D4020000 		.4byte	.LASF95
 2164 076d 01       		.sleb128 1
 2165 076e 17       		.uleb128 0x17
 2166 076f F3010000 		.4byte	.LASF96
 2167 0773 02       		.sleb128 2
 2168 0774 17       		.uleb128 0x17
 2169 0775 61010000 		.4byte	.LASF97
 2170 0779 03       		.sleb128 3
 2171 077a 00       		.byte	0x0
ARM GAS  C:\Users\DNIEL~1\AppData\Local\Temp\ccx0Yxub.s 			page 40


 2172 077b 15       		.uleb128 0x15
 2173 077c D1050000 		.4byte	.LASF98
 2174 0780 0E       		.byte	0xe
 2175 0781 4301     		.2byte	0x143
 2176 0783 5F070000 		.4byte	0x75f
 2177 0787 18       		.uleb128 0x18
 2178 0788 01       		.byte	0x1
 2179 0789 0E       		.byte	0xe
 2180 078a 4801     		.2byte	0x148
 2181 078c A3070000 		.4byte	0x7a3
 2182 0790 17       		.uleb128 0x17
 2183 0791 37020000 		.4byte	.LASF99
 2184 0795 01       		.sleb128 1
 2185 0796 17       		.uleb128 0x17
 2186 0797 48000000 		.4byte	.LASF100
 2187 079b 02       		.sleb128 2
 2188 079c 17       		.uleb128 0x17
 2189 079d 01030000 		.4byte	.LASF101
 2190 07a1 03       		.sleb128 3
 2191 07a2 00       		.byte	0x0
 2192 07a3 15       		.uleb128 0x15
 2193 07a4 06000000 		.4byte	.LASF102
 2194 07a8 0E       		.byte	0xe
 2195 07a9 4C01     		.2byte	0x14c
 2196 07ab 87070000 		.4byte	0x787
 2197 07af 13       		.uleb128 0x13
 2198 07b0 0C       		.byte	0xc
 2199 07b1 0E       		.byte	0xe
 2200 07b2 5101     		.2byte	0x151
 2201 07b4 E6070000 		.4byte	0x7e6
 2202 07b8 14       		.uleb128 0x14
 2203 07b9 7D010000 		.4byte	.LASF103
 2204 07bd 0E       		.byte	0xe
 2205 07be 5201     		.2byte	0x152
 2206 07c0 7B070000 		.4byte	0x77b
 2207 07c4 02       		.byte	0x2
 2208 07c5 23       		.byte	0x23
 2209 07c6 00       		.uleb128 0x0
 2210 07c7 14       		.uleb128 0x14
 2211 07c8 06040000 		.4byte	.LASF104
 2212 07cc 0E       		.byte	0xe
 2213 07cd 5301     		.2byte	0x153
 2214 07cf B5000000 		.4byte	0xb5
 2215 07d3 02       		.byte	0x2
 2216 07d4 23       		.byte	0x23
 2217 07d5 04       		.uleb128 0x4
 2218 07d6 14       		.uleb128 0x14
 2219 07d7 9F020000 		.4byte	.LASF105
 2220 07db 0E       		.byte	0xe
 2221 07dc 5601     		.2byte	0x156
 2222 07de A3070000 		.4byte	0x7a3
 2223 07e2 02       		.byte	0x2
 2224 07e3 23       		.byte	0x23
 2225 07e4 08       		.uleb128 0x8
 2226 07e5 00       		.byte	0x0
 2227 07e6 15       		.uleb128 0x15
 2228 07e7 35010000 		.4byte	.LASF106
ARM GAS  C:\Users\DNIEL~1\AppData\Local\Temp\ccx0Yxub.s 			page 41


 2229 07eb 0E       		.byte	0xe
 2230 07ec 5801     		.2byte	0x158
 2231 07ee AF070000 		.4byte	0x7af
 2232 07f2 15       		.uleb128 0x15
 2233 07f3 1F020000 		.4byte	.LASF107
 2234 07f7 0E       		.byte	0xe
 2235 07f8 5D01     		.2byte	0x15d
 2236 07fa FE070000 		.4byte	0x7fe
 2237 07fe 0C       		.uleb128 0xc
 2238 07ff 1F020000 		.4byte	.LASF107
 2239 0803 38       		.byte	0x38
 2240 0804 0E       		.byte	0xe
 2241 0805 6201     		.2byte	0x162
 2242 0807 B1080000 		.4byte	0x8b1
 2243 080b 14       		.uleb128 0x14
 2244 080c 16010000 		.4byte	.LASF108
 2245 0810 0E       		.byte	0xe
 2246 0811 6601     		.2byte	0x166
 2247 0813 3C070000 		.4byte	0x73c
 2248 0817 02       		.byte	0x2
 2249 0818 23       		.byte	0x23
 2250 0819 00       		.uleb128 0x0
 2251 081a 14       		.uleb128 0x14
 2252 081b 08050000 		.4byte	.LASF109
 2253 081f 0E       		.byte	0xe
 2254 0820 6A01     		.2byte	0x16a
 2255 0822 B1080000 		.4byte	0x8b1
 2256 0826 02       		.byte	0x2
 2257 0827 23       		.byte	0x23
 2258 0828 04       		.uleb128 0x4
 2259 0829 14       		.uleb128 0x14
 2260 082a C9010000 		.4byte	.LASF110
 2261 082e 0E       		.byte	0xe
 2262 082f 6E01     		.2byte	0x16e
 2263 0831 53070000 		.4byte	0x753
 2264 0835 02       		.byte	0x2
 2265 0836 23       		.byte	0x23
 2266 0837 08       		.uleb128 0x8
 2267 0838 14       		.uleb128 0x14
 2268 0839 1C010000 		.4byte	.LASF111
 2269 083d 0E       		.byte	0xe
 2270 083e 7401     		.2byte	0x174
 2271 0840 AA030000 		.4byte	0x3aa
 2272 0844 02       		.byte	0x2
 2273 0845 23       		.byte	0x23
 2274 0846 0C       		.uleb128 0xc
 2275 0847 14       		.uleb128 0x14
 2276 0848 89030000 		.4byte	.LASF112
 2277 084c 0E       		.byte	0xe
 2278 084d 8001     		.2byte	0x180
 2279 084f 74020000 		.4byte	0x274
 2280 0853 02       		.byte	0x2
 2281 0854 23       		.byte	0x23
 2282 0855 1C       		.uleb128 0x1c
 2283 0856 14       		.uleb128 0x14
 2284 0857 8D000000 		.4byte	.LASF113
 2285 085b 0E       		.byte	0xe
ARM GAS  C:\Users\DNIEL~1\AppData\Local\Temp\ccx0Yxub.s 			page 42


 2286 085c 8401     		.2byte	0x184
 2287 085e 47070000 		.4byte	0x747
 2288 0862 02       		.byte	0x2
 2289 0863 23       		.byte	0x23
 2290 0864 20       		.uleb128 0x20
 2291 0865 14       		.uleb128 0x14
 2292 0866 51010000 		.4byte	.LASF114
 2293 086a 0E       		.byte	0xe
 2294 086b 8801     		.2byte	0x188
 2295 086d B5000000 		.4byte	0xb5
 2296 0871 02       		.byte	0x2
 2297 0872 23       		.byte	0x23
 2298 0873 24       		.uleb128 0x24
 2299 0874 14       		.uleb128 0x14
 2300 0875 CA020000 		.4byte	.LASF115
 2301 0879 0E       		.byte	0xe
 2302 087a 8C01     		.2byte	0x18c
 2303 087c B5000000 		.4byte	0xb5
 2304 0880 02       		.byte	0x2
 2305 0881 23       		.byte	0x23
 2306 0882 28       		.uleb128 0x28
 2307 0883 14       		.uleb128 0x14
 2308 0884 00000000 		.4byte	.LASF116
 2309 0888 0E       		.byte	0xe
 2310 0889 9001     		.2byte	0x190
 2311 088b 04070000 		.4byte	0x704
 2312 088f 02       		.byte	0x2
 2313 0890 23       		.byte	0x23
 2314 0891 2C       		.uleb128 0x2c
 2315 0892 14       		.uleb128 0x14
 2316 0893 5B010000 		.4byte	.LASF117
 2317 0897 0E       		.byte	0xe
 2318 0898 9401     		.2byte	0x194
 2319 089a 04070000 		.4byte	0x704
 2320 089e 02       		.byte	0x2
 2321 089f 23       		.byte	0x23
 2322 08a0 30       		.uleb128 0x30
 2323 08a1 0D       		.uleb128 0xd
 2324 08a2 69326300 		.ascii	"i2c\000"
 2325 08a6 0E       		.byte	0xe
 2326 08a7 9801     		.2byte	0x198
 2327 08a9 BC080000 		.4byte	0x8bc
 2328 08ad 02       		.byte	0x2
 2329 08ae 23       		.byte	0x23
 2330 08af 34       		.uleb128 0x34
 2331 08b0 00       		.byte	0x0
 2332 08b1 06       		.uleb128 0x6
 2333 08b2 04       		.byte	0x4
 2334 08b3 B7080000 		.4byte	0x8b7
 2335 08b7 07       		.uleb128 0x7
 2336 08b8 E6070000 		.4byte	0x7e6
 2337 08bc 06       		.uleb128 0x6
 2338 08bd 04       		.byte	0x4
 2339 08be 92060000 		.4byte	0x692
 2340 08c2 06       		.uleb128 0x6
 2341 08c3 04       		.byte	0x4
 2342 08c4 D9040000 		.4byte	0x4d9
ARM GAS  C:\Users\DNIEL~1\AppData\Local\Temp\ccx0Yxub.s 			page 43


 2343 08c8 06       		.uleb128 0x6
 2344 08c9 04       		.byte	0x4
 2345 08ca 7C000000 		.4byte	0x7c
 2346 08ce 02       		.uleb128 0x2
 2347 08cf AA020000 		.4byte	.LASF118
 2348 08d3 0F       		.byte	0xf
 2349 08d4 28       		.byte	0x28
 2350 08d5 D9080000 		.4byte	0x8d9
 2351 08d9 08       		.uleb128 0x8
 2352 08da 2B010000 		.4byte	.LASF119
 2353 08de 04       		.byte	0x4
 2354 08df 10       		.byte	0x10
 2355 08e0 00       		.byte	0x0
 2356 08e1 F3080000 		.4byte	0x8f3
 2357 08e5 19       		.uleb128 0x19
 2358 08e6 44010000 		.4byte	.LASF120
 2359 08ea 73000000 		.4byte	0x73
 2360 08ee 02       		.byte	0x2
 2361 08ef 23       		.byte	0x23
 2362 08f0 00       		.uleb128 0x0
 2363 08f1 01       		.byte	0x1
 2364 08f2 00       		.byte	0x0
 2365 08f3 02       		.uleb128 0x2
 2366 08f4 40000000 		.4byte	.LASF121
 2367 08f8 0F       		.byte	0xf
 2368 08f9 66       		.byte	0x66
 2369 08fa CE080000 		.4byte	0x8ce
 2370 08fe 1A       		.uleb128 0x1a
 2371 08ff 58030000 		.4byte	.LASF149
 2372 0903 01       		.byte	0x1
 2373 0904 11       		.byte	0x11
 2374 0905 06       		.byte	0x6
 2375 0906 23090000 		.4byte	0x923
 2376 090a 17       		.uleb128 0x17
 2377 090b 82000000 		.4byte	.LASF122
 2378 090f 00       		.sleb128 0
 2379 0910 17       		.uleb128 0x17
 2380 0911 69000000 		.4byte	.LASF123
 2381 0915 01       		.sleb128 1
 2382 0916 17       		.uleb128 0x17
 2383 0917 73020000 		.4byte	.LASF124
 2384 091b 02       		.sleb128 2
 2385 091c 17       		.uleb128 0x17
 2386 091d B9020000 		.4byte	.LASF125
 2387 0921 03       		.sleb128 3
 2388 0922 00       		.byte	0x0
 2389 0923 08       		.uleb128 0x8
 2390 0924 83020000 		.4byte	.LASF126
 2391 0928 06       		.byte	0x6
 2392 0929 11       		.byte	0x11
 2393 092a 0E       		.byte	0xe
 2394 092b 67090000 		.4byte	0x967
 2395 092f 0A       		.uleb128 0xa
 2396 0930 696400   		.ascii	"id\000"
 2397 0933 11       		.byte	0x11
 2398 0934 10       		.byte	0x10
 2399 0935 94000000 		.4byte	0x94
ARM GAS  C:\Users\DNIEL~1\AppData\Local\Temp\ccx0Yxub.s 			page 44


 2400 0939 02       		.byte	0x2
 2401 093a 23       		.byte	0x23
 2402 093b 00       		.uleb128 0x0
 2403 093c 09       		.uleb128 0x9
 2404 093d 97020000 		.4byte	.LASF127
 2405 0941 11       		.byte	0x11
 2406 0942 11       		.byte	0x11
 2407 0943 9F000000 		.4byte	0x9f
 2408 0947 02       		.byte	0x2
 2409 0948 23       		.byte	0x23
 2410 0949 02       		.uleb128 0x2
 2411 094a 09       		.uleb128 0x9
 2412 094b 07020000 		.4byte	.LASF128
 2413 094f 11       		.byte	0x11
 2414 0950 12       		.byte	0x12
 2415 0951 94000000 		.4byte	0x94
 2416 0955 02       		.byte	0x2
 2417 0956 23       		.byte	0x23
 2418 0957 04       		.uleb128 0x4
 2419 0958 09       		.uleb128 0x9
 2420 0959 E2010000 		.4byte	.LASF129
 2421 095d 11       		.byte	0x11
 2422 095e 13       		.byte	0x13
 2423 095f FE080000 		.4byte	0x8fe
 2424 0963 02       		.byte	0x2
 2425 0964 23       		.byte	0x23
 2426 0965 05       		.uleb128 0x5
 2427 0966 00       		.byte	0x0
 2428 0967 1B       		.uleb128 0x1b
 2429 0968 04060000 		.4byte	.LASF150
 2430 096c 01       		.byte	0x1
 2431 096d 45       		.byte	0x45
 2432 096e 01       		.byte	0x1
 2433 096f 00000000 		.4byte	.LFB118
 2434 0973 1E000000 		.4byte	.LFE118
 2435 0977 00000000 		.4byte	.LLST0
 2436 097b AB090000 		.4byte	0x9ab
 2437 097f 1C       		.uleb128 0x1c
 2438 0980 63687000 		.ascii	"chp\000"
 2439 0984 01       		.byte	0x1
 2440 0985 45       		.byte	0x45
 2441 0986 C2080000 		.4byte	0x8c2
 2442 098a 38000000 		.4byte	.LLST1
 2443 098e 1D       		.uleb128 0x1d
 2444 098f 666D7400 		.ascii	"fmt\000"
 2445 0993 01       		.byte	0x1
 2446 0994 45       		.byte	0x45
 2447 0995 89000000 		.4byte	0x89
 2448 0999 02       		.byte	0x2
 2449 099a 91       		.byte	0x91
 2450 099b 74       		.sleb128 -12
 2451 099c 1E       		.uleb128 0x1e
 2452 099d 1F       		.uleb128 0x1f
 2453 099e 617000   		.ascii	"ap\000"
 2454 09a1 01       		.byte	0x1
 2455 09a2 46       		.byte	0x46
 2456 09a3 F3080000 		.4byte	0x8f3
ARM GAS  C:\Users\DNIEL~1\AppData\Local\Temp\ccx0Yxub.s 			page 45


 2457 09a7 02       		.byte	0x2
 2458 09a8 91       		.byte	0x91
 2459 09a9 6C       		.sleb128 -20
 2460 09aa 00       		.byte	0x0
 2461 09ab 20       		.uleb128 0x20
 2462 09ac 01       		.byte	0x1
 2463 09ad A9000000 		.4byte	.LASF151
 2464 09b1 02       		.byte	0x2
 2465 09b2 1B       		.byte	0x1b
 2466 09b3 01       		.byte	0x1
 2467 09b4 00000000 		.4byte	.LFB119
 2468 09b8 10000000 		.4byte	.LFE119
 2469 09bc 02       		.byte	0x2
 2470 09bd 7D       		.byte	0x7d
 2471 09be 00       		.sleb128 0
 2472 09bf 21       		.uleb128 0x21
 2473 09c0 01       		.byte	0x1
 2474 09c1 BD050000 		.4byte	.LASF131
 2475 09c5 02       		.byte	0x2
 2476 09c6 1F       		.byte	0x1f
 2477 09c7 01       		.byte	0x1
 2478 09c8 F8090000 		.4byte	0x9f8
 2479 09cc 00000000 		.4byte	.LFB120
 2480 09d0 4C000000 		.4byte	.LFE120
 2481 09d4 02       		.byte	0x2
 2482 09d5 7D       		.byte	0x7d
 2483 09d6 00       		.sleb128 0
 2484 09d7 F8090000 		.4byte	0x9f8
 2485 09db 22       		.uleb128 0x22
 2486 09dc EA050000 		.4byte	.LASF130
 2487 09e0 02       		.byte	0x2
 2488 09e1 1F       		.byte	0x1f
 2489 09e2 FE080000 		.4byte	0x8fe
 2490 09e6 4B000000 		.4byte	.LLST2
 2491 09ea 23       		.uleb128 0x23
 2492 09eb 6900     		.ascii	"i\000"
 2493 09ed 02       		.byte	0x2
 2494 09ee 20       		.byte	0x20
 2495 09ef 57000000 		.4byte	0x57
 2496 09f3 95000000 		.4byte	.LLST3
 2497 09f7 00       		.byte	0x0
 2498 09f8 06       		.uleb128 0x6
 2499 09f9 04       		.byte	0x4
 2500 09fa 23090000 		.4byte	0x923
 2501 09fe 24       		.uleb128 0x24
 2502 09ff 01       		.byte	0x1
 2503 0a00 67020000 		.4byte	.LASF132
 2504 0a04 02       		.byte	0x2
 2505 0a05 32       		.byte	0x32
 2506 0a06 01       		.byte	0x1
 2507 0a07 94000000 		.4byte	0x94
 2508 0a0b 00000000 		.4byte	.LFB121
 2509 0a0f 94000000 		.4byte	.LFE121
 2510 0a13 FD000000 		.4byte	.LLST4
 2511 0a17 720A0000 		.4byte	0xa72
 2512 0a1b 22       		.uleb128 0x22
 2513 0a1c E2010000 		.4byte	.LASF129
ARM GAS  C:\Users\DNIEL~1\AppData\Local\Temp\ccx0Yxub.s 			page 46


 2514 0a20 02       		.byte	0x2
 2515 0a21 32       		.byte	0x32
 2516 0a22 FE080000 		.4byte	0x8fe
 2517 0a26 29010000 		.4byte	.LLST5
 2518 0a2a 22       		.uleb128 0x22
 2519 0a2b 98010000 		.4byte	.LASF133
 2520 0a2f 02       		.byte	0x2
 2521 0a30 32       		.byte	0x32
 2522 0a31 B5000000 		.4byte	0xb5
 2523 0a35 3C010000 		.4byte	.LLST6
 2524 0a39 1F       		.uleb128 0x1f
 2525 0a3a 747800   		.ascii	"tx\000"
 2526 0a3d 02       		.byte	0x2
 2527 0a3e 33       		.byte	0x33
 2528 0a3f 720A0000 		.4byte	0xa72
 2529 0a43 02       		.byte	0x2
 2530 0a44 91       		.byte	0x91
 2531 0a45 60       		.sleb128 -32
 2532 0a46 25       		.uleb128 0x25
 2533 0a47 DC040000 		.4byte	.LASF134
 2534 0a4b 02       		.byte	0x2
 2535 0a4c 34       		.byte	0x34
 2536 0a4d FE000000 		.4byte	0xfe
 2537 0a51 65010000 		.4byte	.LLST7
 2538 0a55 23       		.uleb128 0x23
 2539 0a56 6900     		.ascii	"i\000"
 2540 0a58 02       		.byte	0x2
 2541 0a59 36       		.byte	0x36
 2542 0a5a 57000000 		.4byte	0x57
 2543 0a5e 9B010000 		.4byte	.LLST8
 2544 0a62 25       		.uleb128 0x25
 2545 0a63 5C020000 		.4byte	.LASF135
 2546 0a67 02       		.byte	0x2
 2547 0a68 38       		.byte	0x38
 2548 0a69 F8090000 		.4byte	0x9f8
 2549 0a6d D3010000 		.4byte	.LLST9
 2550 0a71 00       		.byte	0x0
 2551 0a72 26       		.uleb128 0x26
 2552 0a73 94000000 		.4byte	0x94
 2553 0a77 820A0000 		.4byte	0xa82
 2554 0a7b 27       		.uleb128 0x27
 2555 0a7c 34000000 		.4byte	0x34
 2556 0a80 05       		.byte	0x5
 2557 0a81 00       		.byte	0x0
 2558 0a82 24       		.uleb128 0x24
 2559 0a83 01       		.byte	0x1
 2560 0a84 12040000 		.4byte	.LASF136
 2561 0a88 02       		.byte	0x2
 2562 0a89 51       		.byte	0x51
 2563 0a8a 01       		.byte	0x1
 2564 0a8b 94000000 		.4byte	0x94
 2565 0a8f 00000000 		.4byte	.LFB122
 2566 0a93 54000000 		.4byte	.LFE122
 2567 0a97 F1010000 		.4byte	.LLST10
 2568 0a9b E90A0000 		.4byte	0xae9
 2569 0a9f 22       		.uleb128 0x22
 2570 0aa0 E2010000 		.4byte	.LASF129
ARM GAS  C:\Users\DNIEL~1\AppData\Local\Temp\ccx0Yxub.s 			page 47


 2571 0aa4 02       		.byte	0x2
 2572 0aa5 51       		.byte	0x51
 2573 0aa6 FE080000 		.4byte	0x8fe
 2574 0aaa 1D020000 		.4byte	.LLST11
 2575 0aae 22       		.uleb128 0x22
 2576 0aaf D7000000 		.4byte	.LASF137
 2577 0ab3 02       		.byte	0x2
 2578 0ab4 51       		.byte	0x51
 2579 0ab5 E90A0000 		.4byte	0xae9
 2580 0ab9 30020000 		.4byte	.LLST12
 2581 0abd 1F       		.uleb128 0x1f
 2582 0abe 747800   		.ascii	"tx\000"
 2583 0ac1 02       		.byte	0x2
 2584 0ac2 52       		.byte	0x52
 2585 0ac3 EF0A0000 		.4byte	0xaef
 2586 0ac7 02       		.byte	0x2
 2587 0ac8 91       		.byte	0x91
 2588 0ac9 6C       		.sleb128 -20
 2589 0aca 25       		.uleb128 0x25
 2590 0acb DC040000 		.4byte	.LASF134
 2591 0acf 02       		.byte	0x2
 2592 0ad0 53       		.byte	0x53
 2593 0ad1 FE000000 		.4byte	0xfe
 2594 0ad5 4E020000 		.4byte	.LLST13
 2595 0ad9 25       		.uleb128 0x25
 2596 0ada 5C020000 		.4byte	.LASF135
 2597 0ade 02       		.byte	0x2
 2598 0adf 55       		.byte	0x55
 2599 0ae0 F8090000 		.4byte	0x9f8
 2600 0ae4 78020000 		.4byte	.LLST14
 2601 0ae8 00       		.byte	0x0
 2602 0ae9 06       		.uleb128 0x6
 2603 0aea 04       		.byte	0x4
 2604 0aeb B5000000 		.4byte	0xb5
 2605 0aef 26       		.uleb128 0x26
 2606 0af0 94000000 		.4byte	0x94
 2607 0af4 FF0A0000 		.4byte	0xaff
 2608 0af8 27       		.uleb128 0x27
 2609 0af9 34000000 		.4byte	0x34
 2610 0afd 01       		.byte	0x1
 2611 0afe 00       		.byte	0x0
 2612 0aff 28       		.uleb128 0x28
 2613 0b00 01       		.byte	0x1
 2614 0b01 DF020000 		.4byte	.LASF140
 2615 0b05 02       		.byte	0x2
 2616 0b06 66       		.byte	0x66
 2617 0b07 01       		.byte	0x1
 2618 0b08 00000000 		.4byte	.LFB123
 2619 0b0c AC000000 		.4byte	.LFE123
 2620 0b10 96020000 		.4byte	.LLST15
 2621 0b14 6C0B0000 		.4byte	0xb6c
 2622 0b18 1C       		.uleb128 0x1c
 2623 0b19 63687000 		.ascii	"chp\000"
 2624 0b1d 02       		.byte	0x2
 2625 0b1e 66       		.byte	0x66
 2626 0b1f C2080000 		.4byte	0x8c2
 2627 0b23 C2020000 		.4byte	.LLST16
ARM GAS  C:\Users\DNIEL~1\AppData\Local\Temp\ccx0Yxub.s 			page 48


 2628 0b27 22       		.uleb128 0x22
 2629 0b28 AA050000 		.4byte	.LASF138
 2630 0b2c 02       		.byte	0x2
 2631 0b2d 66       		.byte	0x66
 2632 0b2e 57000000 		.4byte	0x57
 2633 0b32 E0020000 		.4byte	.LLST17
 2634 0b36 22       		.uleb128 0x22
 2635 0b37 DD050000 		.4byte	.LASF139
 2636 0b3b 02       		.byte	0x2
 2637 0b3c 66       		.byte	0x66
 2638 0b3d C8080000 		.4byte	0x8c8
 2639 0b41 F3020000 		.4byte	.LLST18
 2640 0b45 29       		.uleb128 0x29
 2641 0b46 8D000000 		.4byte	.LASF113
 2642 0b4a 02       		.byte	0x2
 2643 0b4b 68       		.byte	0x68
 2644 0b4c 57000000 		.4byte	0x57
 2645 0b50 10       		.byte	0x10
 2646 0b51 1F       		.uleb128 0x1f
 2647 0b52 747800   		.ascii	"tx\000"
 2648 0b55 02       		.byte	0x2
 2649 0b56 69       		.byte	0x69
 2650 0b57 B5000000 		.4byte	0xb5
 2651 0b5b 01       		.byte	0x1
 2652 0b5c 55       		.byte	0x55
 2653 0b5d 2A       		.uleb128 0x2a
 2654 0b5e 98010000 		.4byte	.LASF133
 2655 0b62 02       		.byte	0x2
 2656 0b63 6A       		.byte	0x6a
 2657 0b64 B5000000 		.4byte	0xb5
 2658 0b68 02       		.byte	0x2
 2659 0b69 91       		.byte	0x91
 2660 0b6a 6C       		.sleb128 -20
 2661 0b6b 00       		.byte	0x0
 2662 0b6c 28       		.uleb128 0x28
 2663 0b6d 01       		.byte	0x1
 2664 0b6e 60050000 		.4byte	.LASF141
 2665 0b72 02       		.byte	0x2
 2666 0b73 7F       		.byte	0x7f
 2667 0b74 01       		.byte	0x1
 2668 0b75 00000000 		.4byte	.LFB124
 2669 0b79 E0000000 		.4byte	.LFE124
 2670 0b7d 06030000 		.4byte	.LLST19
 2671 0b81 DB0B0000 		.4byte	0xbdb
 2672 0b85 1C       		.uleb128 0x1c
 2673 0b86 63687000 		.ascii	"chp\000"
 2674 0b8a 02       		.byte	0x2
 2675 0b8b 7F       		.byte	0x7f
 2676 0b8c C2080000 		.4byte	0x8c2
 2677 0b90 32030000 		.4byte	.LLST20
 2678 0b94 22       		.uleb128 0x22
 2679 0b95 AA050000 		.4byte	.LASF138
 2680 0b99 02       		.byte	0x2
 2681 0b9a 7F       		.byte	0x7f
 2682 0b9b 57000000 		.4byte	0x57
 2683 0b9f 50030000 		.4byte	.LLST21
 2684 0ba3 22       		.uleb128 0x22
ARM GAS  C:\Users\DNIEL~1\AppData\Local\Temp\ccx0Yxub.s 			page 49


 2685 0ba4 DD050000 		.4byte	.LASF139
 2686 0ba8 02       		.byte	0x2
 2687 0ba9 7F       		.byte	0x7f
 2688 0baa C8080000 		.4byte	0x8c8
 2689 0bae 63030000 		.4byte	.LLST22
 2690 0bb2 25       		.uleb128 0x25
 2691 0bb3 98010000 		.4byte	.LASF133
 2692 0bb7 02       		.byte	0x2
 2693 0bb8 81       		.byte	0x81
 2694 0bb9 B5000000 		.4byte	0xb5
 2695 0bbd 76030000 		.4byte	.LLST23
 2696 0bc1 23       		.uleb128 0x23
 2697 0bc2 636800   		.ascii	"ch\000"
 2698 0bc5 02       		.byte	0x2
 2699 0bc6 83       		.byte	0x83
 2700 0bc7 FE080000 		.4byte	0x8fe
 2701 0bcb A2030000 		.4byte	.LLST24
 2702 0bcf 2B       		.uleb128 0x2b
 2703 0bd0 83040000 		.4byte	.LASF152
 2704 0bd4 02       		.byte	0x2
 2705 0bd5 85       		.byte	0x85
 2706 0bd6 EB0B0000 		.4byte	0xbeb
 2707 0bda 00       		.byte	0x0
 2708 0bdb 26       		.uleb128 0x26
 2709 0bdc 89000000 		.4byte	0x89
 2710 0be0 EB0B0000 		.4byte	0xbeb
 2711 0be4 27       		.uleb128 0x27
 2712 0be5 34000000 		.4byte	0x34
 2713 0be9 02       		.byte	0x2
 2714 0bea 00       		.byte	0x0
 2715 0beb 07       		.uleb128 0x7
 2716 0bec DB0B0000 		.4byte	0xbdb
 2717 0bf0 2C       		.uleb128 0x2c
 2718 0bf1 E7030000 		.4byte	.LASF142
 2719 0bf5 12       		.byte	0x12
 2720 0bf6 9806     		.2byte	0x698
 2721 0bf8 E9040000 		.4byte	0x4e9
 2722 0bfc 01       		.byte	0x1
 2723 0bfd 01       		.byte	0x1
 2724 0bfe 2C       		.uleb128 0x2c
 2725 0bff D6040000 		.4byte	.LASF143
 2726 0c03 0E       		.byte	0xe
 2727 0c04 AE01     		.2byte	0x1ae
 2728 0c06 F2070000 		.4byte	0x7f2
 2729 0c0a 01       		.byte	0x1
 2730 0c0b 01       		.byte	0x1
 2731 0c0c 26       		.uleb128 0x26
 2732 0c0d 23090000 		.4byte	0x923
 2733 0c11 1C0C0000 		.4byte	0xc1c
 2734 0c15 27       		.uleb128 0x27
 2735 0c16 34000000 		.4byte	0x34
 2736 0c1a 02       		.byte	0x2
 2737 0c1b 00       		.byte	0x0
 2738 0c1c 2A       		.uleb128 0x2a
 2739 0c1d E7010000 		.4byte	.LASF144
 2740 0c21 11       		.byte	0x11
 2741 0c22 1B       		.byte	0x1b
ARM GAS  C:\Users\DNIEL~1\AppData\Local\Temp\ccx0Yxub.s 			page 50


 2742 0c23 0C0C0000 		.4byte	0xc0c
 2743 0c27 05       		.byte	0x5
 2744 0c28 03       		.byte	0x3
 2745 0c29 00000000 		.4byte	eepromitems
 2746 0c2d 2A       		.uleb128 0x2a
 2747 0c2e A2000000 		.4byte	.LASF145
 2748 0c32 02       		.byte	0x2
 2749 0c33 12       		.byte	0x12
 2750 0c34 B7080000 		.4byte	0x8b7
 2751 0c38 05       		.byte	0x5
 2752 0c39 03       		.byte	0x3
 2753 0c3a 00000000 		.4byte	i2ccfg
 2754 0c3e 2C       		.uleb128 0x2c
 2755 0c3f E7030000 		.4byte	.LASF142
 2756 0c43 12       		.byte	0x12
 2757 0c44 9806     		.2byte	0x698
 2758 0c46 E9040000 		.4byte	0x4e9
 2759 0c4a 01       		.byte	0x1
 2760 0c4b 01       		.byte	0x1
 2761 0c4c 2C       		.uleb128 0x2c
 2762 0c4d D6040000 		.4byte	.LASF143
 2763 0c51 0E       		.byte	0xe
 2764 0c52 AE01     		.2byte	0x1ae
 2765 0c54 F2070000 		.4byte	0x7f2
 2766 0c58 01       		.byte	0x1
 2767 0c59 01       		.byte	0x1
 2768 0c5a 00       		.byte	0x0
 2769              		.section	.debug_abbrev
 2770 0000 01       		.uleb128 0x1
 2771 0001 11       		.uleb128 0x11
 2772 0002 01       		.byte	0x1
 2773 0003 25       		.uleb128 0x25
 2774 0004 0E       		.uleb128 0xe
 2775 0005 13       		.uleb128 0x13
 2776 0006 0B       		.uleb128 0xb
 2777 0007 03       		.uleb128 0x3
 2778 0008 0E       		.uleb128 0xe
 2779 0009 1B       		.uleb128 0x1b
 2780 000a 0E       		.uleb128 0xe
 2781 000b 11       		.uleb128 0x11
 2782 000c 01       		.uleb128 0x1
 2783 000d 52       		.uleb128 0x52
 2784 000e 01       		.uleb128 0x1
 2785 000f 55       		.uleb128 0x55
 2786 0010 06       		.uleb128 0x6
 2787 0011 10       		.uleb128 0x10
 2788 0012 06       		.uleb128 0x6
 2789 0013 00       		.byte	0x0
 2790 0014 00       		.byte	0x0
 2791 0015 02       		.uleb128 0x2
 2792 0016 16       		.uleb128 0x16
 2793 0017 00       		.byte	0x0
 2794 0018 03       		.uleb128 0x3
 2795 0019 0E       		.uleb128 0xe
 2796 001a 3A       		.uleb128 0x3a
 2797 001b 0B       		.uleb128 0xb
 2798 001c 3B       		.uleb128 0x3b
ARM GAS  C:\Users\DNIEL~1\AppData\Local\Temp\ccx0Yxub.s 			page 51


 2799 001d 0B       		.uleb128 0xb
 2800 001e 49       		.uleb128 0x49
 2801 001f 13       		.uleb128 0x13
 2802 0020 00       		.byte	0x0
 2803 0021 00       		.byte	0x0
 2804 0022 03       		.uleb128 0x3
 2805 0023 24       		.uleb128 0x24
 2806 0024 00       		.byte	0x0
 2807 0025 0B       		.uleb128 0xb
 2808 0026 0B       		.uleb128 0xb
 2809 0027 3E       		.uleb128 0x3e
 2810 0028 0B       		.uleb128 0xb
 2811 0029 03       		.uleb128 0x3
 2812 002a 0E       		.uleb128 0xe
 2813 002b 00       		.byte	0x0
 2814 002c 00       		.byte	0x0
 2815 002d 04       		.uleb128 0x4
 2816 002e 24       		.uleb128 0x24
 2817 002f 00       		.byte	0x0
 2818 0030 0B       		.uleb128 0xb
 2819 0031 0B       		.uleb128 0xb
 2820 0032 3E       		.uleb128 0x3e
 2821 0033 0B       		.uleb128 0xb
 2822 0034 03       		.uleb128 0x3
 2823 0035 08       		.uleb128 0x8
 2824 0036 00       		.byte	0x0
 2825 0037 00       		.byte	0x0
 2826 0038 05       		.uleb128 0x5
 2827 0039 0F       		.uleb128 0xf
 2828 003a 00       		.byte	0x0
 2829 003b 0B       		.uleb128 0xb
 2830 003c 0B       		.uleb128 0xb
 2831 003d 00       		.byte	0x0
 2832 003e 00       		.byte	0x0
 2833 003f 06       		.uleb128 0x6
 2834 0040 0F       		.uleb128 0xf
 2835 0041 00       		.byte	0x0
 2836 0042 0B       		.uleb128 0xb
 2837 0043 0B       		.uleb128 0xb
 2838 0044 49       		.uleb128 0x49
 2839 0045 13       		.uleb128 0x13
 2840 0046 00       		.byte	0x0
 2841 0047 00       		.byte	0x0
 2842 0048 07       		.uleb128 0x7
 2843 0049 26       		.uleb128 0x26
 2844 004a 00       		.byte	0x0
 2845 004b 49       		.uleb128 0x49
 2846 004c 13       		.uleb128 0x13
 2847 004d 00       		.byte	0x0
 2848 004e 00       		.byte	0x0
 2849 004f 08       		.uleb128 0x8
 2850 0050 13       		.uleb128 0x13
 2851 0051 01       		.byte	0x1
 2852 0052 03       		.uleb128 0x3
 2853 0053 0E       		.uleb128 0xe
 2854 0054 0B       		.uleb128 0xb
 2855 0055 0B       		.uleb128 0xb
ARM GAS  C:\Users\DNIEL~1\AppData\Local\Temp\ccx0Yxub.s 			page 52


 2856 0056 3A       		.uleb128 0x3a
 2857 0057 0B       		.uleb128 0xb
 2858 0058 3B       		.uleb128 0x3b
 2859 0059 0B       		.uleb128 0xb
 2860 005a 01       		.uleb128 0x1
 2861 005b 13       		.uleb128 0x13
 2862 005c 00       		.byte	0x0
 2863 005d 00       		.byte	0x0
 2864 005e 09       		.uleb128 0x9
 2865 005f 0D       		.uleb128 0xd
 2866 0060 00       		.byte	0x0
 2867 0061 03       		.uleb128 0x3
 2868 0062 0E       		.uleb128 0xe
 2869 0063 3A       		.uleb128 0x3a
 2870 0064 0B       		.uleb128 0xb
 2871 0065 3B       		.uleb128 0x3b
 2872 0066 0B       		.uleb128 0xb
 2873 0067 49       		.uleb128 0x49
 2874 0068 13       		.uleb128 0x13
 2875 0069 38       		.uleb128 0x38
 2876 006a 0A       		.uleb128 0xa
 2877 006b 00       		.byte	0x0
 2878 006c 00       		.byte	0x0
 2879 006d 0A       		.uleb128 0xa
 2880 006e 0D       		.uleb128 0xd
 2881 006f 00       		.byte	0x0
 2882 0070 03       		.uleb128 0x3
 2883 0071 08       		.uleb128 0x8
 2884 0072 3A       		.uleb128 0x3a
 2885 0073 0B       		.uleb128 0xb
 2886 0074 3B       		.uleb128 0x3b
 2887 0075 0B       		.uleb128 0xb
 2888 0076 49       		.uleb128 0x49
 2889 0077 13       		.uleb128 0x13
 2890 0078 38       		.uleb128 0x38
 2891 0079 0A       		.uleb128 0xa
 2892 007a 00       		.byte	0x0
 2893 007b 00       		.byte	0x0
 2894 007c 0B       		.uleb128 0xb
 2895 007d 13       		.uleb128 0x13
 2896 007e 01       		.byte	0x1
 2897 007f 0B       		.uleb128 0xb
 2898 0080 0B       		.uleb128 0xb
 2899 0081 3A       		.uleb128 0x3a
 2900 0082 0B       		.uleb128 0xb
 2901 0083 3B       		.uleb128 0x3b
 2902 0084 0B       		.uleb128 0xb
 2903 0085 01       		.uleb128 0x1
 2904 0086 13       		.uleb128 0x13
 2905 0087 00       		.byte	0x0
 2906 0088 00       		.byte	0x0
 2907 0089 0C       		.uleb128 0xc
 2908 008a 13       		.uleb128 0x13
 2909 008b 01       		.byte	0x1
 2910 008c 03       		.uleb128 0x3
 2911 008d 0E       		.uleb128 0xe
 2912 008e 0B       		.uleb128 0xb
ARM GAS  C:\Users\DNIEL~1\AppData\Local\Temp\ccx0Yxub.s 			page 53


 2913 008f 0B       		.uleb128 0xb
 2914 0090 3A       		.uleb128 0x3a
 2915 0091 0B       		.uleb128 0xb
 2916 0092 3B       		.uleb128 0x3b
 2917 0093 05       		.uleb128 0x5
 2918 0094 01       		.uleb128 0x1
 2919 0095 13       		.uleb128 0x13
 2920 0096 00       		.byte	0x0
 2921 0097 00       		.byte	0x0
 2922 0098 0D       		.uleb128 0xd
 2923 0099 0D       		.uleb128 0xd
 2924 009a 00       		.byte	0x0
 2925 009b 03       		.uleb128 0x3
 2926 009c 08       		.uleb128 0x8
 2927 009d 3A       		.uleb128 0x3a
 2928 009e 0B       		.uleb128 0xb
 2929 009f 3B       		.uleb128 0x3b
 2930 00a0 05       		.uleb128 0x5
 2931 00a1 49       		.uleb128 0x49
 2932 00a2 13       		.uleb128 0x13
 2933 00a3 38       		.uleb128 0x38
 2934 00a4 0A       		.uleb128 0xa
 2935 00a5 00       		.byte	0x0
 2936 00a6 00       		.byte	0x0
 2937 00a7 0E       		.uleb128 0xe
 2938 00a8 35       		.uleb128 0x35
 2939 00a9 00       		.byte	0x0
 2940 00aa 49       		.uleb128 0x49
 2941 00ab 13       		.uleb128 0x13
 2942 00ac 00       		.byte	0x0
 2943 00ad 00       		.byte	0x0
 2944 00ae 0F       		.uleb128 0xf
 2945 00af 17       		.uleb128 0x17
 2946 00b0 01       		.byte	0x1
 2947 00b1 0B       		.uleb128 0xb
 2948 00b2 0B       		.uleb128 0xb
 2949 00b3 3A       		.uleb128 0x3a
 2950 00b4 0B       		.uleb128 0xb
 2951 00b5 3B       		.uleb128 0x3b
 2952 00b6 0B       		.uleb128 0xb
 2953 00b7 01       		.uleb128 0x1
 2954 00b8 13       		.uleb128 0x13
 2955 00b9 00       		.byte	0x0
 2956 00ba 00       		.byte	0x0
 2957 00bb 10       		.uleb128 0x10
 2958 00bc 0D       		.uleb128 0xd
 2959 00bd 00       		.byte	0x0
 2960 00be 03       		.uleb128 0x3
 2961 00bf 0E       		.uleb128 0xe
 2962 00c0 3A       		.uleb128 0x3a
 2963 00c1 0B       		.uleb128 0xb
 2964 00c2 3B       		.uleb128 0x3b
 2965 00c3 0B       		.uleb128 0xb
 2966 00c4 49       		.uleb128 0x49
 2967 00c5 13       		.uleb128 0x13
 2968 00c6 00       		.byte	0x0
 2969 00c7 00       		.byte	0x0
ARM GAS  C:\Users\DNIEL~1\AppData\Local\Temp\ccx0Yxub.s 			page 54


 2970 00c8 11       		.uleb128 0x11
 2971 00c9 15       		.uleb128 0x15
 2972 00ca 01       		.byte	0x1
 2973 00cb 27       		.uleb128 0x27
 2974 00cc 0C       		.uleb128 0xc
 2975 00cd 49       		.uleb128 0x49
 2976 00ce 13       		.uleb128 0x13
 2977 00cf 01       		.uleb128 0x1
 2978 00d0 13       		.uleb128 0x13
 2979 00d1 00       		.byte	0x0
 2980 00d2 00       		.byte	0x0
 2981 00d3 12       		.uleb128 0x12
 2982 00d4 05       		.uleb128 0x5
 2983 00d5 00       		.byte	0x0
 2984 00d6 49       		.uleb128 0x49
 2985 00d7 13       		.uleb128 0x13
 2986 00d8 00       		.byte	0x0
 2987 00d9 00       		.byte	0x0
 2988 00da 13       		.uleb128 0x13
 2989 00db 13       		.uleb128 0x13
 2990 00dc 01       		.byte	0x1
 2991 00dd 0B       		.uleb128 0xb
 2992 00de 0B       		.uleb128 0xb
 2993 00df 3A       		.uleb128 0x3a
 2994 00e0 0B       		.uleb128 0xb
 2995 00e1 3B       		.uleb128 0x3b
 2996 00e2 05       		.uleb128 0x5
 2997 00e3 01       		.uleb128 0x1
 2998 00e4 13       		.uleb128 0x13
 2999 00e5 00       		.byte	0x0
 3000 00e6 00       		.byte	0x0
 3001 00e7 14       		.uleb128 0x14
 3002 00e8 0D       		.uleb128 0xd
 3003 00e9 00       		.byte	0x0
 3004 00ea 03       		.uleb128 0x3
 3005 00eb 0E       		.uleb128 0xe
 3006 00ec 3A       		.uleb128 0x3a
 3007 00ed 0B       		.uleb128 0xb
 3008 00ee 3B       		.uleb128 0x3b
 3009 00ef 05       		.uleb128 0x5
 3010 00f0 49       		.uleb128 0x49
 3011 00f1 13       		.uleb128 0x13
 3012 00f2 38       		.uleb128 0x38
 3013 00f3 0A       		.uleb128 0xa
 3014 00f4 00       		.byte	0x0
 3015 00f5 00       		.byte	0x0
 3016 00f6 15       		.uleb128 0x15
 3017 00f7 16       		.uleb128 0x16
 3018 00f8 00       		.byte	0x0
 3019 00f9 03       		.uleb128 0x3
 3020 00fa 0E       		.uleb128 0xe
 3021 00fb 3A       		.uleb128 0x3a
 3022 00fc 0B       		.uleb128 0xb
 3023 00fd 3B       		.uleb128 0x3b
 3024 00fe 05       		.uleb128 0x5
 3025 00ff 49       		.uleb128 0x49
 3026 0100 13       		.uleb128 0x13
ARM GAS  C:\Users\DNIEL~1\AppData\Local\Temp\ccx0Yxub.s 			page 55


 3027 0101 00       		.byte	0x0
 3028 0102 00       		.byte	0x0
 3029 0103 16       		.uleb128 0x16
 3030 0104 04       		.uleb128 0x4
 3031 0105 01       		.byte	0x1
 3032 0106 0B       		.uleb128 0xb
 3033 0107 0B       		.uleb128 0xb
 3034 0108 3A       		.uleb128 0x3a
 3035 0109 0B       		.uleb128 0xb
 3036 010a 3B       		.uleb128 0x3b
 3037 010b 0B       		.uleb128 0xb
 3038 010c 01       		.uleb128 0x1
 3039 010d 13       		.uleb128 0x13
 3040 010e 00       		.byte	0x0
 3041 010f 00       		.byte	0x0
 3042 0110 17       		.uleb128 0x17
 3043 0111 28       		.uleb128 0x28
 3044 0112 00       		.byte	0x0
 3045 0113 03       		.uleb128 0x3
 3046 0114 0E       		.uleb128 0xe
 3047 0115 1C       		.uleb128 0x1c
 3048 0116 0D       		.uleb128 0xd
 3049 0117 00       		.byte	0x0
 3050 0118 00       		.byte	0x0
 3051 0119 18       		.uleb128 0x18
 3052 011a 04       		.uleb128 0x4
 3053 011b 01       		.byte	0x1
 3054 011c 0B       		.uleb128 0xb
 3055 011d 0B       		.uleb128 0xb
 3056 011e 3A       		.uleb128 0x3a
 3057 011f 0B       		.uleb128 0xb
 3058 0120 3B       		.uleb128 0x3b
 3059 0121 05       		.uleb128 0x5
 3060 0122 01       		.uleb128 0x1
 3061 0123 13       		.uleb128 0x13
 3062 0124 00       		.byte	0x0
 3063 0125 00       		.byte	0x0
 3064 0126 19       		.uleb128 0x19
 3065 0127 0D       		.uleb128 0xd
 3066 0128 00       		.byte	0x0
 3067 0129 03       		.uleb128 0x3
 3068 012a 0E       		.uleb128 0xe
 3069 012b 49       		.uleb128 0x49
 3070 012c 13       		.uleb128 0x13
 3071 012d 38       		.uleb128 0x38
 3072 012e 0A       		.uleb128 0xa
 3073 012f 34       		.uleb128 0x34
 3074 0130 0C       		.uleb128 0xc
 3075 0131 00       		.byte	0x0
 3076 0132 00       		.byte	0x0
 3077 0133 1A       		.uleb128 0x1a
 3078 0134 04       		.uleb128 0x4
 3079 0135 01       		.byte	0x1
 3080 0136 03       		.uleb128 0x3
 3081 0137 0E       		.uleb128 0xe
 3082 0138 0B       		.uleb128 0xb
 3083 0139 0B       		.uleb128 0xb
ARM GAS  C:\Users\DNIEL~1\AppData\Local\Temp\ccx0Yxub.s 			page 56


 3084 013a 3A       		.uleb128 0x3a
 3085 013b 0B       		.uleb128 0xb
 3086 013c 3B       		.uleb128 0x3b
 3087 013d 0B       		.uleb128 0xb
 3088 013e 01       		.uleb128 0x1
 3089 013f 13       		.uleb128 0x13
 3090 0140 00       		.byte	0x0
 3091 0141 00       		.byte	0x0
 3092 0142 1B       		.uleb128 0x1b
 3093 0143 2E       		.uleb128 0x2e
 3094 0144 01       		.byte	0x1
 3095 0145 03       		.uleb128 0x3
 3096 0146 0E       		.uleb128 0xe
 3097 0147 3A       		.uleb128 0x3a
 3098 0148 0B       		.uleb128 0xb
 3099 0149 3B       		.uleb128 0x3b
 3100 014a 0B       		.uleb128 0xb
 3101 014b 27       		.uleb128 0x27
 3102 014c 0C       		.uleb128 0xc
 3103 014d 11       		.uleb128 0x11
 3104 014e 01       		.uleb128 0x1
 3105 014f 12       		.uleb128 0x12
 3106 0150 01       		.uleb128 0x1
 3107 0151 40       		.uleb128 0x40
 3108 0152 06       		.uleb128 0x6
 3109 0153 01       		.uleb128 0x1
 3110 0154 13       		.uleb128 0x13
 3111 0155 00       		.byte	0x0
 3112 0156 00       		.byte	0x0
 3113 0157 1C       		.uleb128 0x1c
 3114 0158 05       		.uleb128 0x5
 3115 0159 00       		.byte	0x0
 3116 015a 03       		.uleb128 0x3
 3117 015b 08       		.uleb128 0x8
 3118 015c 3A       		.uleb128 0x3a
 3119 015d 0B       		.uleb128 0xb
 3120 015e 3B       		.uleb128 0x3b
 3121 015f 0B       		.uleb128 0xb
 3122 0160 49       		.uleb128 0x49
 3123 0161 13       		.uleb128 0x13
 3124 0162 02       		.uleb128 0x2
 3125 0163 06       		.uleb128 0x6
 3126 0164 00       		.byte	0x0
 3127 0165 00       		.byte	0x0
 3128 0166 1D       		.uleb128 0x1d
 3129 0167 05       		.uleb128 0x5
 3130 0168 00       		.byte	0x0
 3131 0169 03       		.uleb128 0x3
 3132 016a 08       		.uleb128 0x8
 3133 016b 3A       		.uleb128 0x3a
 3134 016c 0B       		.uleb128 0xb
 3135 016d 3B       		.uleb128 0x3b
 3136 016e 0B       		.uleb128 0xb
 3137 016f 49       		.uleb128 0x49
 3138 0170 13       		.uleb128 0x13
 3139 0171 02       		.uleb128 0x2
 3140 0172 0A       		.uleb128 0xa
ARM GAS  C:\Users\DNIEL~1\AppData\Local\Temp\ccx0Yxub.s 			page 57


 3141 0173 00       		.byte	0x0
 3142 0174 00       		.byte	0x0
 3143 0175 1E       		.uleb128 0x1e
 3144 0176 18       		.uleb128 0x18
 3145 0177 00       		.byte	0x0
 3146 0178 00       		.byte	0x0
 3147 0179 00       		.byte	0x0
 3148 017a 1F       		.uleb128 0x1f
 3149 017b 34       		.uleb128 0x34
 3150 017c 00       		.byte	0x0
 3151 017d 03       		.uleb128 0x3
 3152 017e 08       		.uleb128 0x8
 3153 017f 3A       		.uleb128 0x3a
 3154 0180 0B       		.uleb128 0xb
 3155 0181 3B       		.uleb128 0x3b
 3156 0182 0B       		.uleb128 0xb
 3157 0183 49       		.uleb128 0x49
 3158 0184 13       		.uleb128 0x13
 3159 0185 02       		.uleb128 0x2
 3160 0186 0A       		.uleb128 0xa
 3161 0187 00       		.byte	0x0
 3162 0188 00       		.byte	0x0
 3163 0189 20       		.uleb128 0x20
 3164 018a 2E       		.uleb128 0x2e
 3165 018b 00       		.byte	0x0
 3166 018c 3F       		.uleb128 0x3f
 3167 018d 0C       		.uleb128 0xc
 3168 018e 03       		.uleb128 0x3
 3169 018f 0E       		.uleb128 0xe
 3170 0190 3A       		.uleb128 0x3a
 3171 0191 0B       		.uleb128 0xb
 3172 0192 3B       		.uleb128 0x3b
 3173 0193 0B       		.uleb128 0xb
 3174 0194 27       		.uleb128 0x27
 3175 0195 0C       		.uleb128 0xc
 3176 0196 11       		.uleb128 0x11
 3177 0197 01       		.uleb128 0x1
 3178 0198 12       		.uleb128 0x12
 3179 0199 01       		.uleb128 0x1
 3180 019a 40       		.uleb128 0x40
 3181 019b 0A       		.uleb128 0xa
 3182 019c 00       		.byte	0x0
 3183 019d 00       		.byte	0x0
 3184 019e 21       		.uleb128 0x21
 3185 019f 2E       		.uleb128 0x2e
 3186 01a0 01       		.byte	0x1
 3187 01a1 3F       		.uleb128 0x3f
 3188 01a2 0C       		.uleb128 0xc
 3189 01a3 03       		.uleb128 0x3
 3190 01a4 0E       		.uleb128 0xe
 3191 01a5 3A       		.uleb128 0x3a
 3192 01a6 0B       		.uleb128 0xb
 3193 01a7 3B       		.uleb128 0x3b
 3194 01a8 0B       		.uleb128 0xb
 3195 01a9 27       		.uleb128 0x27
 3196 01aa 0C       		.uleb128 0xc
 3197 01ab 49       		.uleb128 0x49
ARM GAS  C:\Users\DNIEL~1\AppData\Local\Temp\ccx0Yxub.s 			page 58


 3198 01ac 13       		.uleb128 0x13
 3199 01ad 11       		.uleb128 0x11
 3200 01ae 01       		.uleb128 0x1
 3201 01af 12       		.uleb128 0x12
 3202 01b0 01       		.uleb128 0x1
 3203 01b1 40       		.uleb128 0x40
 3204 01b2 0A       		.uleb128 0xa
 3205 01b3 01       		.uleb128 0x1
 3206 01b4 13       		.uleb128 0x13
 3207 01b5 00       		.byte	0x0
 3208 01b6 00       		.byte	0x0
 3209 01b7 22       		.uleb128 0x22
 3210 01b8 05       		.uleb128 0x5
 3211 01b9 00       		.byte	0x0
 3212 01ba 03       		.uleb128 0x3
 3213 01bb 0E       		.uleb128 0xe
 3214 01bc 3A       		.uleb128 0x3a
 3215 01bd 0B       		.uleb128 0xb
 3216 01be 3B       		.uleb128 0x3b
 3217 01bf 0B       		.uleb128 0xb
 3218 01c0 49       		.uleb128 0x49
 3219 01c1 13       		.uleb128 0x13
 3220 01c2 02       		.uleb128 0x2
 3221 01c3 06       		.uleb128 0x6
 3222 01c4 00       		.byte	0x0
 3223 01c5 00       		.byte	0x0
 3224 01c6 23       		.uleb128 0x23
 3225 01c7 34       		.uleb128 0x34
 3226 01c8 00       		.byte	0x0
 3227 01c9 03       		.uleb128 0x3
 3228 01ca 08       		.uleb128 0x8
 3229 01cb 3A       		.uleb128 0x3a
 3230 01cc 0B       		.uleb128 0xb
 3231 01cd 3B       		.uleb128 0x3b
 3232 01ce 0B       		.uleb128 0xb
 3233 01cf 49       		.uleb128 0x49
 3234 01d0 13       		.uleb128 0x13
 3235 01d1 02       		.uleb128 0x2
 3236 01d2 06       		.uleb128 0x6
 3237 01d3 00       		.byte	0x0
 3238 01d4 00       		.byte	0x0
 3239 01d5 24       		.uleb128 0x24
 3240 01d6 2E       		.uleb128 0x2e
 3241 01d7 01       		.byte	0x1
 3242 01d8 3F       		.uleb128 0x3f
 3243 01d9 0C       		.uleb128 0xc
 3244 01da 03       		.uleb128 0x3
 3245 01db 0E       		.uleb128 0xe
 3246 01dc 3A       		.uleb128 0x3a
 3247 01dd 0B       		.uleb128 0xb
 3248 01de 3B       		.uleb128 0x3b
 3249 01df 0B       		.uleb128 0xb
 3250 01e0 27       		.uleb128 0x27
 3251 01e1 0C       		.uleb128 0xc
 3252 01e2 49       		.uleb128 0x49
 3253 01e3 13       		.uleb128 0x13
 3254 01e4 11       		.uleb128 0x11
ARM GAS  C:\Users\DNIEL~1\AppData\Local\Temp\ccx0Yxub.s 			page 59


 3255 01e5 01       		.uleb128 0x1
 3256 01e6 12       		.uleb128 0x12
 3257 01e7 01       		.uleb128 0x1
 3258 01e8 40       		.uleb128 0x40
 3259 01e9 06       		.uleb128 0x6
 3260 01ea 01       		.uleb128 0x1
 3261 01eb 13       		.uleb128 0x13
 3262 01ec 00       		.byte	0x0
 3263 01ed 00       		.byte	0x0
 3264 01ee 25       		.uleb128 0x25
 3265 01ef 34       		.uleb128 0x34
 3266 01f0 00       		.byte	0x0
 3267 01f1 03       		.uleb128 0x3
 3268 01f2 0E       		.uleb128 0xe
 3269 01f3 3A       		.uleb128 0x3a
 3270 01f4 0B       		.uleb128 0xb
 3271 01f5 3B       		.uleb128 0x3b
 3272 01f6 0B       		.uleb128 0xb
 3273 01f7 49       		.uleb128 0x49
 3274 01f8 13       		.uleb128 0x13
 3275 01f9 02       		.uleb128 0x2
 3276 01fa 06       		.uleb128 0x6
 3277 01fb 00       		.byte	0x0
 3278 01fc 00       		.byte	0x0
 3279 01fd 26       		.uleb128 0x26
 3280 01fe 01       		.uleb128 0x1
 3281 01ff 01       		.byte	0x1
 3282 0200 49       		.uleb128 0x49
 3283 0201 13       		.uleb128 0x13
 3284 0202 01       		.uleb128 0x1
 3285 0203 13       		.uleb128 0x13
 3286 0204 00       		.byte	0x0
 3287 0205 00       		.byte	0x0
 3288 0206 27       		.uleb128 0x27
 3289 0207 21       		.uleb128 0x21
 3290 0208 00       		.byte	0x0
 3291 0209 49       		.uleb128 0x49
 3292 020a 13       		.uleb128 0x13
 3293 020b 2F       		.uleb128 0x2f
 3294 020c 0B       		.uleb128 0xb
 3295 020d 00       		.byte	0x0
 3296 020e 00       		.byte	0x0
 3297 020f 28       		.uleb128 0x28
 3298 0210 2E       		.uleb128 0x2e
 3299 0211 01       		.byte	0x1
 3300 0212 3F       		.uleb128 0x3f
 3301 0213 0C       		.uleb128 0xc
 3302 0214 03       		.uleb128 0x3
 3303 0215 0E       		.uleb128 0xe
 3304 0216 3A       		.uleb128 0x3a
 3305 0217 0B       		.uleb128 0xb
 3306 0218 3B       		.uleb128 0x3b
 3307 0219 0B       		.uleb128 0xb
 3308 021a 27       		.uleb128 0x27
 3309 021b 0C       		.uleb128 0xc
 3310 021c 11       		.uleb128 0x11
 3311 021d 01       		.uleb128 0x1
ARM GAS  C:\Users\DNIEL~1\AppData\Local\Temp\ccx0Yxub.s 			page 60


 3312 021e 12       		.uleb128 0x12
 3313 021f 01       		.uleb128 0x1
 3314 0220 40       		.uleb128 0x40
 3315 0221 06       		.uleb128 0x6
 3316 0222 01       		.uleb128 0x1
 3317 0223 13       		.uleb128 0x13
 3318 0224 00       		.byte	0x0
 3319 0225 00       		.byte	0x0
 3320 0226 29       		.uleb128 0x29
 3321 0227 34       		.uleb128 0x34
 3322 0228 00       		.byte	0x0
 3323 0229 03       		.uleb128 0x3
 3324 022a 0E       		.uleb128 0xe
 3325 022b 3A       		.uleb128 0x3a
 3326 022c 0B       		.uleb128 0xb
 3327 022d 3B       		.uleb128 0x3b
 3328 022e 0B       		.uleb128 0xb
 3329 022f 49       		.uleb128 0x49
 3330 0230 13       		.uleb128 0x13
 3331 0231 1C       		.uleb128 0x1c
 3332 0232 0B       		.uleb128 0xb
 3333 0233 00       		.byte	0x0
 3334 0234 00       		.byte	0x0
 3335 0235 2A       		.uleb128 0x2a
 3336 0236 34       		.uleb128 0x34
 3337 0237 00       		.byte	0x0
 3338 0238 03       		.uleb128 0x3
 3339 0239 0E       		.uleb128 0xe
 3340 023a 3A       		.uleb128 0x3a
 3341 023b 0B       		.uleb128 0xb
 3342 023c 3B       		.uleb128 0x3b
 3343 023d 0B       		.uleb128 0xb
 3344 023e 49       		.uleb128 0x49
 3345 023f 13       		.uleb128 0x13
 3346 0240 02       		.uleb128 0x2
 3347 0241 0A       		.uleb128 0xa
 3348 0242 00       		.byte	0x0
 3349 0243 00       		.byte	0x0
 3350 0244 2B       		.uleb128 0x2b
 3351 0245 34       		.uleb128 0x34
 3352 0246 00       		.byte	0x0
 3353 0247 03       		.uleb128 0x3
 3354 0248 0E       		.uleb128 0xe
 3355 0249 3A       		.uleb128 0x3a
 3356 024a 0B       		.uleb128 0xb
 3357 024b 3B       		.uleb128 0x3b
 3358 024c 0B       		.uleb128 0xb
 3359 024d 49       		.uleb128 0x49
 3360 024e 13       		.uleb128 0x13
 3361 024f 00       		.byte	0x0
 3362 0250 00       		.byte	0x0
 3363 0251 2C       		.uleb128 0x2c
 3364 0252 34       		.uleb128 0x34
 3365 0253 00       		.byte	0x0
 3366 0254 03       		.uleb128 0x3
 3367 0255 0E       		.uleb128 0xe
 3368 0256 3A       		.uleb128 0x3a
ARM GAS  C:\Users\DNIEL~1\AppData\Local\Temp\ccx0Yxub.s 			page 61


 3369 0257 0B       		.uleb128 0xb
 3370 0258 3B       		.uleb128 0x3b
 3371 0259 05       		.uleb128 0x5
 3372 025a 49       		.uleb128 0x49
 3373 025b 13       		.uleb128 0x13
 3374 025c 3F       		.uleb128 0x3f
 3375 025d 0C       		.uleb128 0xc
 3376 025e 3C       		.uleb128 0x3c
 3377 025f 0C       		.uleb128 0xc
 3378 0260 00       		.byte	0x0
 3379 0261 00       		.byte	0x0
 3380 0262 00       		.byte	0x0
 3381              		.section	.debug_pubnames,"",%progbits
 3382 0000 7D000000 		.4byte	0x7d
 3383 0004 0200     		.2byte	0x2
 3384 0006 00000000 		.4byte	.Ldebug_info0
 3385 000a 5B0C0000 		.4byte	0xc5b
 3386 000e AB090000 		.4byte	0x9ab
 3387 0012 65657072 		.ascii	"eepromInit\000"
 3387      6F6D496E 
 3387      697400
 3388 001d BF090000 		.4byte	0x9bf
 3389 0021 65657072 		.ascii	"eepromGetItembyName\000"
 3389      6F6D4765 
 3389      74497465 
 3389      6D62794E 
 3389      616D6500 
 3390 0035 FE090000 		.4byte	0x9fe
 3391 0039 65657072 		.ascii	"eepromWrite\000"
 3391      6F6D5772 
 3391      69746500 
 3392 0045 820A0000 		.4byte	0xa82
 3393 0049 65657072 		.ascii	"eepromRead\000"
 3393      6F6D5265 
 3393      616400
 3394 0054 FF0A0000 		.4byte	0xaff
 3395 0058 636D645F 		.ascii	"cmd_eepromTest\000"
 3395      65657072 
 3395      6F6D5465 
 3395      737400
 3396 0067 6C0B0000 		.4byte	0xb6c
 3397 006b 636D645F 		.ascii	"cmd_eepromAllData\000"
 3397      65657072 
 3397      6F6D416C 
 3397      6C446174 
 3397      6100
 3398 007d 00000000 		.4byte	0x0
 3399              		.section	.debug_pubtypes,"",%progbits
 3400 0000 5D020000 		.4byte	0x25d
 3401 0004 0200     		.2byte	0x2
 3402 0006 00000000 		.4byte	.Ldebug_info0
 3403 000a 5B0C0000 		.4byte	0xc5b
 3404 000e 29000000 		.4byte	0x29
 3405 0012 73697A65 		.ascii	"size_t\000"
 3405      5F7400
 3406 0019 94000000 		.4byte	0x94
 3407 001d 75696E74 		.ascii	"uint8_t\000"
ARM GAS  C:\Users\DNIEL~1\AppData\Local\Temp\ccx0Yxub.s 			page 62


 3407      385F7400 
 3408 0025 9F000000 		.4byte	0x9f
 3409 0029 75696E74 		.ascii	"uint16_t\000"
 3409      31365F74 
 3409      00
 3410 0032 AA000000 		.4byte	0xaa
 3411 0036 696E7433 		.ascii	"int32_t\000"
 3411      325F7400 
 3412 003e B5000000 		.4byte	0xb5
 3413 0042 75696E74 		.ascii	"uint32_t\000"
 3413      33325F74 
 3413      00
 3414 004b C7000000 		.4byte	0xc7
 3415 004f 746D6F64 		.ascii	"tmode_t\000"
 3415      655F7400 
 3416 0057 D2000000 		.4byte	0xd2
 3417 005b 74737461 		.ascii	"tstate_t\000"
 3417      74655F74 
 3417      00
 3418 0064 DD000000 		.4byte	0xdd
 3419 0068 74726566 		.ascii	"trefs_t\000"
 3419      735F7400 
 3420 0070 E8000000 		.4byte	0xe8
 3421 0074 74736C69 		.ascii	"tslices_t\000"
 3421      6365735F 
 3421      7400
 3422 007e F3000000 		.4byte	0xf3
 3423 0082 74707269 		.ascii	"tprio_t\000"
 3423      6F5F7400 
 3424 008a FE000000 		.4byte	0xfe
 3425 008e 6D73675F 		.ascii	"msg_t\000"
 3425      7400
 3426 0094 09010000 		.4byte	0x109
 3427 0098 6576656E 		.ascii	"eventmask_t\000"
 3427      746D6173 
 3427      6B5F7400 
 3428 00a4 14010000 		.4byte	0x114
 3429 00a8 73797374 		.ascii	"systime_t\000"
 3429      696D655F 
 3429      7400
 3430 00b2 1F010000 		.4byte	0x11f
 3431 00b6 54687265 		.ascii	"Thread\000"
 3431      616400
 3432 00bd 7A020000 		.4byte	0x27a
 3433 00c1 54687265 		.ascii	"ThreadsQueue\000"
 3433      61647351 
 3433      75657565 
 3433      00
 3434 00ce 9C020000 		.4byte	0x29c
 3435 00d2 54687265 		.ascii	"ThreadsList\000"
 3435      6164734C 
 3435      69737400 
 3436 00de A7020000 		.4byte	0x2a7
 3437 00e2 72656761 		.ascii	"regarm_t\000"
 3437      726D5F74 
 3437      00
 3438 00eb B2020000 		.4byte	0x2b2
ARM GAS  C:\Users\DNIEL~1\AppData\Local\Temp\ccx0Yxub.s 			page 63


 3439 00ef 696E7463 		.ascii	"intctx\000"
 3439      747800
 3440 00f6 40030000 		.4byte	0x340
 3441 00fa 636F6E74 		.ascii	"context\000"
 3441      65787400 
 3442 0102 6D030000 		.4byte	0x36d
 3443 0106 4D757465 		.ascii	"Mutex\000"
 3443      7800
 3444 010c AA030000 		.4byte	0x3aa
 3445 0110 4D757465 		.ascii	"Mutex\000"
 3445      7800
 3446 0116 2A010000 		.4byte	0x12a
 3447 011a 54687265 		.ascii	"Thread\000"
 3447      616400
 3448 0121 0C040000 		.4byte	0x40c
 3449 0125 42617365 		.ascii	"BaseSequentialStreamVMT\000"
 3449      53657175 
 3449      656E7469 
 3449      616C5374 
 3449      7265616D 
 3450 013d D9040000 		.4byte	0x4d9
 3451 0141 42617365 		.ascii	"BaseSequentialStream\000"
 3451      53657175 
 3451      656E7469 
 3451      616C5374 
 3451      7265616D 
 3452 0156 51050000 		.4byte	0x551
 3453 015a 444D415F 		.ascii	"DMA_Stream_TypeDef\000"
 3453      53747265 
 3453      616D5F54 
 3453      79706544 
 3453      656600
 3454 016d 92060000 		.4byte	0x692
 3455 0171 4932435F 		.ascii	"I2C_TypeDef\000"
 3455      54797065 
 3455      44656600 
 3456 017d F9060000 		.4byte	0x6f9
 3457 0181 73746D33 		.ascii	"stm32_dma_stream_t\000"
 3457      325F646D 
 3457      615F7374 
 3457      7265616D 
 3457      5F7400
 3458 0194 3C070000 		.4byte	0x73c
 3459 0198 69326373 		.ascii	"i2cstate_t\000"
 3459      74617465 
 3459      5F7400
 3460 01a3 47070000 		.4byte	0x747
 3461 01a7 69326361 		.ascii	"i2caddr_t\000"
 3461      6464725F 
 3461      7400
 3462 01b1 53070000 		.4byte	0x753
 3463 01b5 69326366 		.ascii	"i2cflags_t\000"
 3463      6C616773 
 3463      5F7400
 3464 01c0 7B070000 		.4byte	0x77b
 3465 01c4 6932636F 		.ascii	"i2copmode_t\000"
 3465      706D6F64 
ARM GAS  C:\Users\DNIEL~1\AppData\Local\Temp\ccx0Yxub.s 			page 64


 3465      655F7400 
 3466 01d0 A3070000 		.4byte	0x7a3
 3467 01d4 69326364 		.ascii	"i2cdutycycle_t\000"
 3467      75747963 
 3467      79636C65 
 3467      5F7400
 3468 01e3 E6070000 		.4byte	0x7e6
 3469 01e7 49324343 		.ascii	"I2CConfig\000"
 3469      6F6E6669 
 3469      6700
 3470 01f1 F2070000 		.4byte	0x7f2
 3471 01f5 49324344 		.ascii	"I2CDriver\000"
 3471      72697665 
 3471      7200
 3472 01ff FE070000 		.4byte	0x7fe
 3473 0203 49324344 		.ascii	"I2CDriver\000"
 3473      72697665 
 3473      7200
 3474 020d D9080000 		.4byte	0x8d9
 3475 0211 5F5F7661 		.ascii	"__va_list\000"
 3475      5F6C6973 
 3475      7400
 3476 021b CE080000 		.4byte	0x8ce
 3477 021f 5F5F676E 		.ascii	"__gnuc_va_list\000"
 3477      75635F76 
 3477      615F6C69 
 3477      737400
 3478 022e F3080000 		.4byte	0x8f3
 3479 0232 76615F6C 		.ascii	"va_list\000"
 3479      69737400 
 3480 023a FE080000 		.4byte	0x8fe
 3481 023e 65657072 		.ascii	"eepromItemNames\000"
 3481      6F6D4974 
 3481      656D4E61 
 3481      6D657300 
 3482 024e 23090000 		.4byte	0x923
 3483 0252 65657072 		.ascii	"eepromItem\000"
 3483      6F6D4974 
 3483      656D00
 3484 025d 00000000 		.4byte	0x0
 3485              		.section	.debug_aranges,"",%progbits
 3486 0000 4C000000 		.4byte	0x4c
 3487 0004 0200     		.2byte	0x2
 3488 0006 00000000 		.4byte	.Ldebug_info0
 3489 000a 04       		.byte	0x4
 3490 000b 00       		.byte	0x0
 3491 000c 0000     		.2byte	0x0
 3492 000e 0000     		.2byte	0x0
 3493 0010 00000000 		.4byte	.LFB118
 3494 0014 1E000000 		.4byte	.LFE118-.LFB118
 3495 0018 00000000 		.4byte	.LFB119
 3496 001c 10000000 		.4byte	.LFE119-.LFB119
 3497 0020 00000000 		.4byte	.LFB120
 3498 0024 4C000000 		.4byte	.LFE120-.LFB120
 3499 0028 00000000 		.4byte	.LFB121
 3500 002c 94000000 		.4byte	.LFE121-.LFB121
 3501 0030 00000000 		.4byte	.LFB122
ARM GAS  C:\Users\DNIEL~1\AppData\Local\Temp\ccx0Yxub.s 			page 65


 3502 0034 54000000 		.4byte	.LFE122-.LFB122
 3503 0038 00000000 		.4byte	.LFB123
 3504 003c AC000000 		.4byte	.LFE123-.LFB123
 3505 0040 00000000 		.4byte	.LFB124
 3506 0044 E0000000 		.4byte	.LFE124-.LFB124
 3507 0048 00000000 		.4byte	0x0
 3508 004c 00000000 		.4byte	0x0
 3509              		.section	.debug_ranges,"",%progbits
 3510              	.Ldebug_ranges0:
 3511 0000 00000000 		.4byte	.LFB118
 3512 0004 1E000000 		.4byte	.LFE118
 3513 0008 00000000 		.4byte	.LFB119
 3514 000c 10000000 		.4byte	.LFE119
 3515 0010 00000000 		.4byte	.LFB120
 3516 0014 4C000000 		.4byte	.LFE120
 3517 0018 00000000 		.4byte	.LFB121
 3518 001c 94000000 		.4byte	.LFE121
 3519 0020 00000000 		.4byte	.LFB122
 3520 0024 54000000 		.4byte	.LFE122
 3521 0028 00000000 		.4byte	.LFB123
 3522 002c AC000000 		.4byte	.LFE123
 3523 0030 00000000 		.4byte	.LFB124
 3524 0034 E0000000 		.4byte	.LFE124
 3525 0038 00000000 		.4byte	0x0
 3526 003c 00000000 		.4byte	0x0
 3527              		.section	.debug_str,"MS",%progbits,1
 3528              	.LASF116:
 3529 0000 646D6172 		.ascii	"dmarx\000"
 3529      7800
 3530              	.LASF102:
 3531 0006 69326364 		.ascii	"i2cdutycycle_t\000"
 3531      75747963 
 3531      79636C65 
 3531      5F7400
 3532              	.LASF62:
 3533 0015 4D304152 		.ascii	"M0AR\000"
 3533      00
 3534              	.LASF10:
 3535 001a 73697A65 		.ascii	"size_t\000"
 3535      5F7400
 3536              	.LASF45:
 3537 0021 54687265 		.ascii	"ThreadsList\000"
 3537      6164734C 
 3537      69737400 
 3538              	.LASF53:
 3539 002d 7264796D 		.ascii	"rdymsg\000"
 3539      736700
 3540              	.LASF1:
 3541 0034 7369676E 		.ascii	"signed char\000"
 3541      65642063 
 3541      68617200 
 3542              	.LASF121:
 3543 0040 76615F6C 		.ascii	"va_list\000"
 3543      69737400 
 3544              	.LASF100:
 3545 0048 46415354 		.ascii	"FAST_DUTY_CYCLE_2\000"
 3545      5F445554 
ARM GAS  C:\Users\DNIEL~1\AppData\Local\Temp\ccx0Yxub.s 			page 66


 3545      595F4359 
 3545      434C455F 
 3545      3200
 3546              	.LASF75:
 3547 005a 54524953 		.ascii	"TRISE\000"
 3547      4500
 3548              	.LASF7:
 3549 0060 6C6F6E67 		.ascii	"long int\000"
 3549      20696E74 
 3549      00
 3550              	.LASF123:
 3551 0069 43454E54 		.ascii	"CENTER_ITEM\000"
 3551      45525F49 
 3551      54454D00 
 3552              	.LASF44:
 3553 0075 54687265 		.ascii	"ThreadsQueue\000"
 3553      61647351 
 3553      75657565 
 3553      00
 3554              	.LASF122:
 3555 0082 46495253 		.ascii	"FIRST_ITEM\000"
 3555      545F4954 
 3555      454D00
 3556              	.LASF113:
 3557 008d 61646472 		.ascii	"addr\000"
 3557      00
 3558              	.LASF54:
 3559 0092 65786974 		.ascii	"exitcode\000"
 3559      636F6465 
 3559      00
 3560              	.LASF84:
 3561 009b 76656374 		.ascii	"vector\000"
 3561      6F7200
 3562              	.LASF145:
 3563 00a2 69326363 		.ascii	"i2ccfg\000"
 3563      666700
 3564              	.LASF151:
 3565 00a9 65657072 		.ascii	"eepromInit\000"
 3565      6F6D496E 
 3565      697400
 3566              	.LASF88:
 3567 00b4 4932435F 		.ascii	"I2C_READY\000"
 3567      52454144 
 3567      5900
 3568              	.LASF5:
 3569 00be 6C6F6E67 		.ascii	"long long int\000"
 3569      206C6F6E 
 3569      6720696E 
 3569      7400
 3570              	.LASF86:
 3571 00cc 4932435F 		.ascii	"I2C_UNINIT\000"
 3571      554E494E 
 3571      495400
 3572              	.LASF137:
 3573 00d7 62756666 		.ascii	"buff\000"
 3573      00
 3574              	.LASF43:
ARM GAS  C:\Users\DNIEL~1\AppData\Local\Temp\ccx0Yxub.s 			page 67


 3575 00dc 705F6D70 		.ascii	"p_mpool\000"
 3575      6F6F6C00 
 3576              	.LASF6:
 3577 00e4 6C6F6E67 		.ascii	"long long unsigned int\000"
 3577      206C6F6E 
 3577      6720756E 
 3577      7369676E 
 3577      65642069 
 3578              	.LASF55:
 3579 00fb 77746F62 		.ascii	"wtobjp\000"
 3579      6A7000
 3580              	.LASF19:
 3581 0102 74736C69 		.ascii	"tslices_t\000"
 3581      6365735F 
 3581      7400
 3582              	.LASF93:
 3583 010c 69326361 		.ascii	"i2caddr_t\000"
 3583      6464725F 
 3583      7400
 3584              	.LASF108:
 3585 0116 73746174 		.ascii	"state\000"
 3585      6500
 3586              	.LASF111:
 3587 011c 6D757465 		.ascii	"mutex\000"
 3587      7800
 3588              	.LASF17:
 3589 0122 74737461 		.ascii	"tstate_t\000"
 3589      74655F74 
 3589      00
 3590              	.LASF119:
 3591 012b 5F5F7661 		.ascii	"__va_list\000"
 3591      5F6C6973 
 3591      7400
 3592              	.LASF106:
 3593 0135 49324343 		.ascii	"I2CConfig\000"
 3593      6F6E6669 
 3593      6700
 3594              	.LASF77:
 3595 013f 464C5452 		.ascii	"FLTR\000"
 3595      00
 3596              	.LASF120:
 3597 0144 5F5F6170 		.ascii	"__ap\000"
 3597      00
 3598              	.LASF29:
 3599 0149 705F6E65 		.ascii	"p_newer\000"
 3599      77657200 
 3600              	.LASF114:
 3601 0151 7278646D 		.ascii	"rxdmamode\000"
 3601      616D6F64 
 3601      6500
 3602              	.LASF117:
 3603 015b 646D6174 		.ascii	"dmatx\000"
 3603      7800
 3604              	.LASF97:
 3605 0161 4F504D4F 		.ascii	"OPMODE_SMBUS_HOST\000"
 3605      44455F53 
 3605      4D425553 
ARM GAS  C:\Users\DNIEL~1\AppData\Local\Temp\ccx0Yxub.s 			page 68


 3605      5F484F53 
 3605      5400
 3606              	.LASF83:
 3607 0173 73656C66 		.ascii	"selfindex\000"
 3607      696E6465 
 3607      7800
 3608              	.LASF103:
 3609 017d 6F705F6D 		.ascii	"op_mode\000"
 3609      6F646500 
 3610              	.LASF79:
 3611 0185 4932435F 		.ascii	"I2C_TypeDef\000"
 3611      54797065 
 3611      44656600 
 3612              	.LASF80:
 3613 0191 73747265 		.ascii	"stream\000"
 3613      616D00
 3614              	.LASF133:
 3615 0198 76616C75 		.ascii	"value\000"
 3615      6500
 3616              	.LASF60:
 3617 019e 42617365 		.ascii	"BaseSequentialStream\000"
 3617      53657175 
 3617      656E7469 
 3617      616C5374 
 3617      7265616D 
 3618              	.LASF0:
 3619 01b3 756E7369 		.ascii	"unsigned int\000"
 3619      676E6564 
 3619      20696E74 
 3619      00
 3620              	.LASF12:
 3621 01c0 75696E74 		.ascii	"uint16_t\000"
 3621      31365F74 
 3621      00
 3622              	.LASF110:
 3623 01c9 6572726F 		.ascii	"errors\000"
 3623      727300
 3624              	.LASF38:
 3625 01d0 705F6D73 		.ascii	"p_msgqueue\000"
 3625      67717565 
 3625      756500
 3626              	.LASF82:
 3627 01db 69736869 		.ascii	"ishift\000"
 3627      667400
 3628              	.LASF129:
 3629 01e2 6E616D65 		.ascii	"name\000"
 3629      00
 3630              	.LASF144:
 3631 01e7 65657072 		.ascii	"eepromitems\000"
 3631      6F6D6974 
 3631      656D7300 
 3632              	.LASF96:
 3633 01f3 4F504D4F 		.ascii	"OPMODE_SMBUS_DEVICE\000"
 3633      44455F53 
 3633      4D425553 
 3633      5F444556 
 3633      49434500 
ARM GAS  C:\Users\DNIEL~1\AppData\Local\Temp\ccx0Yxub.s 			page 69


 3634              	.LASF128:
 3635 0207 73697A65 		.ascii	"size\000"
 3635      00
 3636              	.LASF4:
 3637 020c 73686F72 		.ascii	"short unsigned int\000"
 3637      7420756E 
 3637      7369676E 
 3637      65642069 
 3637      6E7400
 3638              	.LASF107:
 3639 021f 49324344 		.ascii	"I2CDriver\000"
 3639      72697665 
 3639      7200
 3640              	.LASF21:
 3641 0229 6D73675F 		.ascii	"msg_t\000"
 3641      7400
 3642              	.LASF16:
 3643 022f 746D6F64 		.ascii	"tmode_t\000"
 3643      655F7400 
 3644              	.LASF99:
 3645 0237 5354445F 		.ascii	"STD_DUTY_CYCLE\000"
 3645      44555459 
 3645      5F435943 
 3645      4C4500
 3646              	.LASF22:
 3647 0246 6576656E 		.ascii	"eventmask_t\000"
 3647      746D6173 
 3647      6B5F7400 
 3648              	.LASF3:
 3649 0252 73686F72 		.ascii	"short int\000"
 3649      7420696E 
 3649      7400
 3650              	.LASF135:
 3651 025c 6974656D 		.ascii	"item\000"
 3651      00
 3652              	.LASF49:
 3653 0261 4D757465 		.ascii	"Mutex\000"
 3653      7800
 3654              	.LASF132:
 3655 0267 65657072 		.ascii	"eepromWrite\000"
 3655      6F6D5772 
 3655      69746500 
 3656              	.LASF124:
 3657 0273 4C415354 		.ascii	"LAST_ITEM\000"
 3657      5F495445 
 3657      4D00
 3658              	.LASF58:
 3659 027d 77726974 		.ascii	"write\000"
 3659      6500
 3660              	.LASF126:
 3661 0283 65657072 		.ascii	"eepromItem\000"
 3661      6F6D4974 
 3661      656D00
 3662              	.LASF87:
 3663 028e 4932435F 		.ascii	"I2C_STOP\000"
 3663      53544F50 
 3663      00
ARM GAS  C:\Users\DNIEL~1\AppData\Local\Temp\ccx0Yxub.s 			page 70


 3664              	.LASF127:
 3665 0297 61646472 		.ascii	"address\000"
 3665      65737300 
 3666              	.LASF105:
 3667 029f 64757479 		.ascii	"duty_cycle\000"
 3667      5F637963 
 3667      6C6500
 3668              	.LASF118:
 3669 02aa 5F5F676E 		.ascii	"__gnuc_va_list\000"
 3669      75635F76 
 3669      615F6C69 
 3669      737400
 3670              	.LASF125:
 3671 02b9 45455052 		.ascii	"EEPROM_ITEMS_NUM\000"
 3671      4F4D5F49 
 3671      54454D53 
 3671      5F4E554D 
 3671      00
 3672              	.LASF115:
 3673 02ca 7478646D 		.ascii	"txdmamode\000"
 3673      616D6F64 
 3673      6500
 3674              	.LASF95:
 3675 02d4 4F504D4F 		.ascii	"OPMODE_I2C\000"
 3675      44455F49 
 3675      324300
 3676              	.LASF140:
 3677 02df 636D645F 		.ascii	"cmd_eepromTest\000"
 3677      65657072 
 3677      6F6D5465 
 3677      737400
 3678              	.LASF18:
 3679 02ee 74726566 		.ascii	"trefs_t\000"
 3679      735F7400 
 3680              	.LASF92:
 3681 02f6 69326373 		.ascii	"i2cstate_t\000"
 3681      74617465 
 3681      5F7400
 3682              	.LASF101:
 3683 0301 46415354 		.ascii	"FAST_DUTY_CYCLE_16_9\000"
 3683      5F445554 
 3683      595F4359 
 3683      434C455F 
 3683      31365F39 
 3684              	.LASF68:
 3685 0316 52455345 		.ascii	"RESERVED2\000"
 3685      52564544 
 3685      3200
 3686              	.LASF70:
 3687 0320 52455345 		.ascii	"RESERVED3\000"
 3687      52564544 
 3687      3300
 3688              	.LASF71:
 3689 032a 52455345 		.ascii	"RESERVED4\000"
 3689      52564544 
 3689      3400
 3690              	.LASF26:
ARM GAS  C:\Users\DNIEL~1\AppData\Local\Temp\ccx0Yxub.s 			page 71


 3691 0334 705F7072 		.ascii	"p_prev\000"
 3691      657600
 3692              	.LASF73:
 3693 033b 52455345 		.ascii	"RESERVED6\000"
 3693      52564544 
 3693      3600
 3694              	.LASF85:
 3695 0345 73746D33 		.ascii	"stm32_dma_stream_t\000"
 3695      325F646D 
 3695      615F7374 
 3695      7265616D 
 3695      5F7400
 3696              	.LASF149:
 3697 0358 65657072 		.ascii	"eepromItemNames\000"
 3697      6F6D4974 
 3697      656D4E61 
 3697      6D657300 
 3698              	.LASF20:
 3699 0368 74707269 		.ascii	"tprio_t\000"
 3699      6F5F7400 
 3700              	.LASF89:
 3701 0370 4932435F 		.ascii	"I2C_ACTIVE_TX\000"
 3701      41435449 
 3701      56455F54 
 3701      5800
 3702              	.LASF94:
 3703 037e 69326366 		.ascii	"i2cflags_t\000"
 3703      6C616773 
 3703      5F7400
 3704              	.LASF112:
 3705 0389 74687265 		.ascii	"thread\000"
 3705      616400
 3706              	.LASF15:
 3707 0390 5F426F6F 		.ascii	"_Bool\000"
 3707      6C00
 3708              	.LASF13:
 3709 0396 696E7433 		.ascii	"int32_t\000"
 3709      325F7400 
 3710              	.LASF2:
 3711 039e 756E7369 		.ascii	"unsigned char\000"
 3711      676E6564 
 3711      20636861 
 3711      7200
 3712              	.LASF50:
 3713 03ac 6D5F7175 		.ascii	"m_queue\000"
 3713      65756500 
 3714              	.LASF148:
 3715 03b4 433A5C44 		.ascii	"C:\\Dani\\MegaLux\\Repo\\Smarty\\Smarty\\smarty\\fi"
 3715      616E695C 
 3715      4D656761 
 3715      4C75785C 
 3715      5265706F 
 3716 03e0 726D7761 		.ascii	"rmware\000"
 3716      726500
 3717              	.LASF142:
 3718 03e7 49544D5F 		.ascii	"ITM_RxBuffer\000"
 3718      52784275 
ARM GAS  C:\Users\DNIEL~1\AppData\Local\Temp\ccx0Yxub.s 			page 72


 3718      66666572 
 3718      00
 3719              	.LASF32:
 3720 03f4 705F7374 		.ascii	"p_state\000"
 3720      61746500 
 3721              	.LASF41:
 3722 03fc 705F6D74 		.ascii	"p_mtxlist\000"
 3722      786C6973 
 3722      7400
 3723              	.LASF104:
 3724 0406 636C6F63 		.ascii	"clock_speed\000"
 3724      6B5F7370 
 3724      65656400 
 3725              	.LASF136:
 3726 0412 65657072 		.ascii	"eepromRead\000"
 3726      6F6D5265 
 3726      616400
 3727              	.LASF35:
 3728 041d 705F7072 		.ascii	"p_preempt\000"
 3728      65656D70 
 3728      7400
 3729              	.LASF30:
 3730 0427 705F6F6C 		.ascii	"p_older\000"
 3730      64657200 
 3731              	.LASF56:
 3732 042f 65776D61 		.ascii	"ewmask\000"
 3732      736B00
 3733              	.LASF25:
 3734 0436 705F6E65 		.ascii	"p_next\000"
 3734      787400
 3735              	.LASF57:
 3736 043d 42617365 		.ascii	"BaseSequentialStreamVMT\000"
 3736      53657175 
 3736      656E7469 
 3736      616C5374 
 3736      7265616D 
 3737              	.LASF33:
 3738 0455 705F666C 		.ascii	"p_flags\000"
 3738      61677300 
 3739              	.LASF65:
 3740 045d 52455345 		.ascii	"RESERVED0\000"
 3740      52564544 
 3740      3000
 3741              	.LASF24:
 3742 0467 54687265 		.ascii	"Thread\000"
 3742      616400
 3743              	.LASF66:
 3744 046e 52455345 		.ascii	"RESERVED1\000"
 3744      52564544 
 3744      3100
 3745              	.LASF91:
 3746 0478 4932435F 		.ascii	"I2C_LOCKED\000"
 3746      4C4F434B 
 3746      454400
 3747              	.LASF152:
 3748 0483 6E616D65 		.ascii	"names\000"
 3748      7300
ARM GAS  C:\Users\DNIEL~1\AppData\Local\Temp\ccx0Yxub.s 			page 73


 3749              	.LASF147:
 3750 0489 7372632F 		.ascii	"src/eeprom.c\000"
 3750      65657072 
 3750      6F6D2E63 
 3750      00
 3751              	.LASF40:
 3752 0496 705F6570 		.ascii	"p_epending\000"
 3752      656E6469 
 3752      6E6700
 3753              	.LASF81:
 3754 04a1 69666372 		.ascii	"ifcr\000"
 3754      00
 3755              	.LASF72:
 3756 04a6 52455345 		.ascii	"RESERVED5\000"
 3756      52564544 
 3756      3500
 3757              	.LASF14:
 3758 04b0 75696E74 		.ascii	"uint32_t\000"
 3758      33325F74 
 3758      00
 3759              	.LASF46:
 3760 04b9 72656761 		.ascii	"regarm_t\000"
 3760      726D5F74 
 3760      00
 3761              	.LASF76:
 3762 04c2 52455345 		.ascii	"RESERVED8\000"
 3762      52564544 
 3762      3800
 3763              	.LASF78:
 3764 04cc 52455345 		.ascii	"RESERVED9\000"
 3764      52564544 
 3764      3900
 3765              	.LASF143:
 3766 04d6 49324344 		.ascii	"I2CD1\000"
 3766      3100
 3767              	.LASF134:
 3768 04dc 6932636D 		.ascii	"i2cmsg\000"
 3768      736700
 3769              	.LASF90:
 3770 04e3 4932435F 		.ascii	"I2C_ACTIVE_RX\000"
 3770      41435449 
 3770      56455F52 
 3770      5800
 3771              	.LASF8:
 3772 04f1 6C6F6E67 		.ascii	"long unsigned int\000"
 3772      20756E73 
 3772      69676E65 
 3772      6420696E 
 3772      7400
 3773              	.LASF9:
 3774 0503 63686172 		.ascii	"char\000"
 3774      00
 3775              	.LASF109:
 3776 0508 636F6E66 		.ascii	"config\000"
 3776      696700
 3777              	.LASF52:
 3778 050f 6D5F6E65 		.ascii	"m_next\000"
ARM GAS  C:\Users\DNIEL~1\AppData\Local\Temp\ccx0Yxub.s 			page 74


 3778      787400
 3779              	.LASF23:
 3780 0516 73797374 		.ascii	"systime_t\000"
 3780      696D655F 
 3780      7400
 3781              	.LASF42:
 3782 0520 705F7265 		.ascii	"p_realprio\000"
 3782      616C7072 
 3782      696F00
 3783              	.LASF61:
 3784 052b 4E445452 		.ascii	"NDTR\000"
 3784      00
 3785              	.LASF64:
 3786 0530 444D415F 		.ascii	"DMA_Stream_TypeDef\000"
 3786      53747265 
 3786      616D5F54 
 3786      79706544 
 3786      656600
 3787              	.LASF36:
 3788 0543 705F7469 		.ascii	"p_time\000"
 3788      6D6500
 3789              	.LASF47:
 3790 054a 696E7463 		.ascii	"intctx\000"
 3790      747800
 3791              	.LASF63:
 3792 0551 4D314152 		.ascii	"M1AR\000"
 3792      00
 3793              	.LASF74:
 3794 0556 52455345 		.ascii	"RESERVED7\000"
 3794      52564544 
 3794      3700
 3795              	.LASF141:
 3796 0560 636D645F 		.ascii	"cmd_eepromAllData\000"
 3796      65657072 
 3796      6F6D416C 
 3796      6C446174 
 3796      6100
 3797              	.LASF31:
 3798 0572 705F6E61 		.ascii	"p_name\000"
 3798      6D6500
 3799              	.LASF34:
 3800 0579 705F7265 		.ascii	"p_refs\000"
 3800      667300
 3801              	.LASF11:
 3802 0580 75696E74 		.ascii	"uint8_t\000"
 3802      385F7400 
 3803              	.LASF67:
 3804 0588 4F415231 		.ascii	"OAR1\000"
 3804      00
 3805              	.LASF69:
 3806 058d 4F415232 		.ascii	"OAR2\000"
 3806      00
 3807              	.LASF27:
 3808 0592 705F7072 		.ascii	"p_prio\000"
 3808      696F00
 3809              	.LASF59:
 3810 0599 72656164 		.ascii	"read\000"
ARM GAS  C:\Users\DNIEL~1\AppData\Local\Temp\ccx0Yxub.s 			page 75


 3810      00
 3811              	.LASF146:
 3812 059e 474E5520 		.ascii	"GNU C 4.5.2\000"
 3812      4320342E 
 3812      352E3200 
 3813              	.LASF138:
 3814 05aa 61726763 		.ascii	"argc\000"
 3814      00
 3815              	.LASF48:
 3816 05af 636F6E74 		.ascii	"context\000"
 3816      65787400 
 3817              	.LASF39:
 3818 05b7 705F6D73 		.ascii	"p_msg\000"
 3818      6700
 3819              	.LASF131:
 3820 05bd 65657072 		.ascii	"eepromGetItembyName\000"
 3820      6F6D4765 
 3820      74497465 
 3820      6D62794E 
 3820      616D6500 
 3821              	.LASF98:
 3822 05d1 6932636F 		.ascii	"i2copmode_t\000"
 3822      706D6F64 
 3822      655F7400 
 3823              	.LASF139:
 3824 05dd 61726776 		.ascii	"argv\000"
 3824      00
 3825              	.LASF51:
 3826 05e2 6D5F6F77 		.ascii	"m_owner\000"
 3826      6E657200 
 3827              	.LASF130:
 3828 05ea 6974656D 		.ascii	"item_name\000"
 3828      5F6E616D 
 3828      6500
 3829              	.LASF28:
 3830 05f4 705F6374 		.ascii	"p_ctx\000"
 3830      7800
 3831              	.LASF37:
 3832 05fa 705F7761 		.ascii	"p_waiting\000"
 3832      6974696E 
 3832      6700
 3833              	.LASF150:
 3834 0604 63687072 		.ascii	"chprintf\000"
 3834      696E7466 
 3834      00
 3835              		.ident	"GCC: (Sourcery G++ Lite 2011.03-42) 4.5.2"
ARM GAS  C:\Users\DNIEL~1\AppData\Local\Temp\ccx0Yxub.s 			page 76


DEFINED SYMBOLS
                            *ABS*:00000000 eeprom.c
C:\Users\DNIEL~1\AppData\Local\Temp\ccx0Yxub.s:24     .text.chprintf:00000000 $t
C:\Users\DNIEL~1\AppData\Local\Temp\ccx0Yxub.s:29     .text.chprintf:00000000 chprintf
C:\Users\DNIEL~1\AppData\Local\Temp\ccx0Yxub.s:69     .text.eepromInit:00000000 $t
C:\Users\DNIEL~1\AppData\Local\Temp\ccx0Yxub.s:75     .text.eepromInit:00000000 eepromInit
C:\Users\DNIEL~1\AppData\Local\Temp\ccx0Yxub.s:92     .text.eepromInit:00000008 $d
C:\Users\DNIEL~1\AppData\Local\Temp\ccx0Yxub.s:98     .text.eepromGetItembyName:00000000 $t
C:\Users\DNIEL~1\AppData\Local\Temp\ccx0Yxub.s:104    .text.eepromGetItembyName:00000000 eepromGetItembyName
C:\Users\DNIEL~1\AppData\Local\Temp\ccx0Yxub.s:181    .text.eepromGetItembyName:00000048 $d
C:\Users\DNIEL~1\AppData\Local\Temp\ccx0Yxub.s:186    .text.eepromWrite:00000000 $t
C:\Users\DNIEL~1\AppData\Local\Temp\ccx0Yxub.s:192    .text.eepromWrite:00000000 eepromWrite
C:\Users\DNIEL~1\AppData\Local\Temp\ccx0Yxub.s:309    .text.eepromWrite:00000090 $d
C:\Users\DNIEL~1\AppData\Local\Temp\ccx0Yxub.s:314    .text.eepromRead:00000000 $t
C:\Users\DNIEL~1\AppData\Local\Temp\ccx0Yxub.s:320    .text.eepromRead:00000000 eepromRead
C:\Users\DNIEL~1\AppData\Local\Temp\ccx0Yxub.s:392    .text.eepromRead:00000050 $d
C:\Users\DNIEL~1\AppData\Local\Temp\ccx0Yxub.s:397    .text.cmd_eepromTest:00000000 $t
C:\Users\DNIEL~1\AppData\Local\Temp\ccx0Yxub.s:403    .text.cmd_eepromTest:00000000 cmd_eepromTest
C:\Users\DNIEL~1\AppData\Local\Temp\ccx0Yxub.s:497    .text.cmd_eepromTest:00000084 $d
C:\Users\DNIEL~1\AppData\Local\Temp\ccx0Yxub.s:511    .text.cmd_eepromAllData:00000000 $t
C:\Users\DNIEL~1\AppData\Local\Temp\ccx0Yxub.s:517    .text.cmd_eepromAllData:00000000 cmd_eepromAllData
C:\Users\DNIEL~1\AppData\Local\Temp\ccx0Yxub.s:655    .text.cmd_eepromAllData:000000bc $d
C:\Users\DNIEL~1\AppData\Local\Temp\ccx0Yxub.s:668    .rodata.str1.4:00000000 $d
C:\Users\DNIEL~1\AppData\Local\Temp\ccx0Yxub.s:713    .data.eepromitems:00000000 $d
C:\Users\DNIEL~1\AppData\Local\Temp\ccx0Yxub.s:717    .data.eepromitems:00000000 eepromitems
C:\Users\DNIEL~1\AppData\Local\Temp\ccx0Yxub.s:734    .rodata.i2ccfg:00000000 $d
C:\Users\DNIEL~1\AppData\Local\Temp\ccx0Yxub.s:738    .rodata.i2ccfg:00000000 i2ccfg
                     .debug_frame:00000010 $d
C:\Users\DNIEL~1\AppData\Local\Temp\ccx0Yxub.s:185    .text.eepromGetItembyName:0000004c $t
C:\Users\DNIEL~1\AppData\Local\Temp\ccx0Yxub.s:313    .text.eepromWrite:00000094 $t
C:\Users\DNIEL~1\AppData\Local\Temp\ccx0Yxub.s:396    .text.eepromRead:00000054 $t
C:\Users\DNIEL~1\AppData\Local\Temp\ccx0Yxub.s:510    .text.cmd_eepromTest:000000ac $t

UNDEFINED SYMBOLS
chvprintf
i2cStart
I2CD1
i2cAcquireBus
i2cMasterTransmitTimeout
i2cReleaseBus
rand
