ARM GAS  C:\Users\DNIEL~1\AppData\Local\Temp\ccx0Yxub.s 			page 1


   1              		.syntax unified
   2              		.cpu cortex-m4
   3              		.fpu softvfp
   4              		.eabi_attribute 20, 1
   5              		.eabi_attribute 21, 1
   6              		.eabi_attribute 23, 3
   7              		.eabi_attribute 24, 1
   8              		.eabi_attribute 25, 1
   9              		.eabi_attribute 26, 1
  10              		.eabi_attribute 30, 2
  11              		.eabi_attribute 18, 4
  12              		.thumb
  13              		.file	"eeprom.c"
  20 0000 FF030000 		.text
  20      02000103 
  20      00000201 
  20      FB0E0D00 
  20      01010101 
  21              	.Ltext0:
  22              		.cfi_sections	.debug_frame
  23              		.section	.text.chprintf,"ax",%progbits
  24              		.align	2
  25              		.p2align 4,,15
  26              		.thumb
  27              		.thumb_func
  28              		.type	chprintf, %function
  29              	chprintf:
  30              	.LFB118:
  31              		.file 1 "../../../ChibiOS/os/various/chprintf.h"
  32              		.loc 1 69 0
  33              		.cfi_startproc
  34              		@ args = 4, pretend = 12, frame = 8
  35              		@ frame_needed = 0, uses_anonymous_args = 1
  36              	.LVL0:
  37 0000 0EB4     		push	{r1, r2, r3}
  38              	.LCFI0:
  39              		.cfi_def_cfa_offset 12
  40 0002 00B5     		push	{lr}
  41              	.LCFI1:
  42              		.cfi_def_cfa_offset 16
  43 0004 82B0     		sub	sp, sp, #8
  44              	.LCFI2:
  45              		.cfi_def_cfa_offset 24
  46              		.loc 1 69 0
  47 0006 03AB     		add	r3, sp, #12
  48              		.cfi_offset 14, -16
  49              		.cfi_offset 3, -4
  50              		.cfi_offset 2, -8
  51              		.cfi_offset 1, -12
  52 0008 53F8041B 		ldr	r1, [r3], #4
  53              		.loc 1 73 0
ARM GAS  C:\Users\DNIEL~1\AppData\Local\Temp\ccx0Yxub.s 			page 2


  54 000c 1A46     		mov	r2, r3
  55              		.loc 1 72 0
  56 000e 0193     		str	r3, [sp, #4]
  57              		.loc 1 73 0
  58 0010 FFF7FEFF 		bl	chvprintf
  59              	.LVL1:
  60              		.loc 1 75 0
  61 0014 02B0     		add	sp, sp, #8
  62 0016 5DF804EB 		pop	{lr}
  63 001a 03B0     		add	sp, sp, #12
  64 001c 7047     		bx	lr
  65              		.cfi_endproc
  66              	.LFE118:
  67              		.size	chprintf, .-chprintf
  68 001e 00BF     		.section	.text.eepromInit,"ax",%progbits
  69              		.align	2
  70              		.p2align 4,,15
  71              		.global	eepromInit
  72              		.thumb
  73              		.thumb_func
  74              		.type	eepromInit, %function
  75              	eepromInit:
  76              	.LFB119:
  77              		.file 2 "src/eeprom.c"
  78              		.loc 2 27 0
  79              		.cfi_startproc
  80              		@ args = 0, pretend = 0, frame = 0
  81              		@ frame_needed = 0, uses_anonymous_args = 0
  82              		@ link register save eliminated.
  83              		.loc 2 28 0
  84 0000 0148     		ldr	r0, .L3
  85 0002 0249     		ldr	r1, .L3+4
  86              		.loc 2 29 0
  87              		.loc 2 28 0
  88 0004 FFF7FEBF 		b	i2cStart
  89              	.L4:
  90              		.align	2
  91              	.L3:
  92 0008 00000000 		.word	I2CD1
  93 000c 00000000 		.word	.LANCHOR0
  94              		.cfi_endproc
  95              	.LFE119:
  96              		.size	eepromInit, .-eepromInit
  97              		.section	.text.eepromGetItembyName,"ax",%progbits
  98              		.align	2
  99              		.p2align 4,,15
 100              		.global	eepromGetItembyName
 101              		.thumb
 102              		.thumb_func
 103              		.type	eepromGetItembyName, %function
 104              	eepromGetItembyName:
 105              	.LFB120:
 106              		.loc 2 31 0
 107              		.cfi_startproc
 108              		@ args = 0, pretend = 0, frame = 0
 109              		@ frame_needed = 0, uses_anonymous_args = 0
 110              		@ link register save eliminated.
ARM GAS  C:\Users\DNIEL~1\AppData\Local\Temp\ccx0Yxub.s 			page 3


 111              	.LVL2:
 112              		.loc 2 35 0
 113 0000 114B     		ldr	r3, .L18
 114 0002 5A79     		ldrb	r2, [r3, #5]	@ zero_extendqisi2
 115 0004 8242     		cmp	r2, r0
 116 0006 12D0     		beq	.L9
 117              		.loc 2 36 0
 118 0008 032A     		cmp	r2, #3
 119 000a 0ED0     		beq	.L14
 120              	.LVL3:
 121              		.loc 2 35 0
 122 000c DA7A     		ldrb	r2, [r3, #11]	@ zero_extendqisi2
 123 000e 8242     		cmp	r2, r0
 124 0010 13D0     		beq	.L11
 125              		.loc 2 36 0
 126 0012 032A     		cmp	r2, #3
 127 0014 09D0     		beq	.L14
 128              	.LVL4:
 129              		.loc 2 35 0
 130 0016 5A7C     		ldrb	r2, [r3, #17]	@ zero_extendqisi2
 131 0018 8242     		cmp	r2, r0
 132 001a 10D0     		beq	.L13
 133              		.loc 2 36 0
 134 001c 032A     		cmp	r2, #3
 135 001e 04D0     		beq	.L14
 136              	.LVL5:
 137              		.loc 2 35 0
 138 0020 DA7D     		ldrb	r2, [r3, #23]	@ zero_extendqisi2
 139 0022 8242     		cmp	r2, r0
 140 0024 0DD0     		beq	.L17
 141              		.loc 2 43 0
 142 0026 0020     		movs	r0, #0
 143              	.LVL6:
 144              		.loc 2 48 0
 145 0028 7047     		bx	lr
 146              	.LVL7:
 147              	.L14:
 148              		.loc 2 43 0
 149 002a 0020     		movs	r0, #0
 150              	.LVL8:
 151 002c 7047     		bx	lr
 152              	.LVL9:
 153              	.L9:
 154              		.loc 2 35 0
 155 002e 0020     		movs	r0, #0
 156              	.LVL10:
 157              	.L6:
 158              		.loc 2 46 0
 159 0030 00EB4000 		add	r0, r0, r0, lsl #1
 160 0034 03EB4000 		add	r0, r3, r0, lsl #1
 161 0038 7047     		bx	lr
 162              	.LVL11:
 163              	.L11:
 164              		.loc 2 40 0
 165 003a 0120     		movs	r0, #1
 166              	.LVL12:
 167 003c F8E7     		b	.L6
ARM GAS  C:\Users\DNIEL~1\AppData\Local\Temp\ccx0Yxub.s 			page 4


 168              	.LVL13:
 169              	.L13:
 170 003e 0220     		movs	r0, #2
 171              	.LVL14:
 172 0040 F6E7     		b	.L6
 173              	.LVL15:
 174              	.L17:
 175 0042 0320     		movs	r0, #3
 176              	.LVL16:
 177 0044 F4E7     		b	.L6
 178              	.L19:
 179 0046 00BF     		.align	2
 180              	.L18:
 181 0048 00000000 		.word	.LANCHOR1
 182              		.cfi_endproc
 183              	.LFE120:
 184              		.size	eepromGetItembyName, .-eepromGetItembyName
 185 004c AFF30080 		.section	.text.eepromWrite,"ax",%progbits
 186              		.align	2
 187              		.p2align 4,,15
 188              		.global	eepromWrite
 189              		.thumb
 190              		.thumb_func
 191              		.type	eepromWrite, %function
 192              	eepromWrite:
 193              	.LFB121:
 194              		.loc 2 50 0
 195              		.cfi_startproc
 196              		@ args = 0, pretend = 0, frame = 8
 197              		@ frame_needed = 0, uses_anonymous_args = 0
 198              	.LVL17:
 199 0000 F0B5     		push	{r4, r5, r6, r7, lr}
 200              	.LCFI3:
 201              		.cfi_def_cfa_offset 20
 202 0002 87B0     		sub	sp, sp, #28
 203              	.LCFI4:
 204              		.cfi_def_cfa_offset 48
 205              		.loc 2 50 0
 206 0004 0C46     		mov	r4, r1
 207              		.cfi_offset 14, -4
 208              		.cfi_offset 7, -8
 209              		.cfi_offset 6, -12
 210              		.cfi_offset 5, -16
 211              		.cfi_offset 4, -20
 212              		.loc 2 57 0
 213 0006 FFF7FEFF 		bl	eepromGetItembyName
 214              	.LVL18:
 215              		.loc 2 59 0
 216 000a 4388     		ldrh	r3, [r0, #2]
 217 000c 1A0A     		lsrs	r2, r3, #8
 218 000e 8DF81020 		strb	r2, [sp, #16]
 219              		.loc 2 60 0
 220 0012 8DF81130 		strb	r3, [sp, #17]
 221              		.loc 2 62 0
 222 0016 0279     		ldrb	r2, [r0, #4]	@ zero_extendqisi2
 223              		.loc 2 57 0
 224 0018 0646     		mov	r6, r0
ARM GAS  C:\Users\DNIEL~1\AppData\Local\Temp\ccx0Yxub.s 			page 5


 225              	.LVL19:
 226              		.loc 2 62 0
 227 001a 002A     		cmp	r2, #0
 228 001c 35D0     		beq	.L34
 229              		.loc 2 50 0
 230 001e 511C     		adds	r1, r2, #1
 231 0020 04AD     		add	r5, sp, #16
 232 0022 501E     		subs	r0, r2, #1
 233              	.LVL20:
 234 0024 6B18     		adds	r3, r5, r1
 235 0026 C200     		lsls	r2, r0, #3
 236              	.LVL21:
 237 0028 AF1C     		adds	r7, r5, #2
 238 002a 691C     		adds	r1, r5, #1
 239              	.LVL22:
 240 002c 13F0010F 		tst	r3, #1
 241 0030 06D0     		beq	.L23
 242              	.LVL23:
 243              	.L31:
 244              		.loc 2 63 0
 245 0032 013B     		subs	r3, r3, #1
 246              		.loc 2 64 0
 247 0034 34FA02F0 		lsrs	r0, r4, r2
 248 0038 083A     		subs	r2, r2, #8
 249              		.loc 2 62 0
 250 003a 8B42     		cmp	r3, r1
 251              		.loc 2 64 0
 252 003c 5870     		strb	r0, [r3, #1]
 253              		.loc 2 62 0
 254 003e 0BD0     		beq	.L21
 255              	.L23:
 256              		.loc 2 63 0
 257 0040 BB42     		cmp	r3, r7
 258 0042 07D0     		beq	.L22
 259 0044 013B     		subs	r3, r3, #1
 260              		.loc 2 64 0
 261 0046 34FA02F0 		lsrs	r0, r4, r2
 262 004a 083A     		subs	r2, r2, #8
 263              		.loc 2 62 0
 264 004c 8B42     		cmp	r3, r1
 265              		.loc 2 64 0
 266 004e 5870     		strb	r0, [r3, #1]
 267              		.loc 2 62 0
 268 0050 EFD1     		bne	.L31
 269 0052 01E0     		b	.L21
 270              	.L22:
 271              		.loc 2 67 0
 272 0054 8DF81240 		strb	r4, [sp, #18]
 273              	.L21:
 274              		.loc 2 70 0
 275 0058 0D48     		ldr	r0, .L35
 276 005a FFF7FEFF 		bl	i2cAcquireBus
 277              		.loc 2 71 0
 278 005e 3379     		ldrb	r3, [r6, #4]	@ zero_extendqisi2
 279 0060 0B48     		ldr	r0, .L35
 280 0062 0024     		movs	r4, #0
 281              	.LVL24:
ARM GAS  C:\Users\DNIEL~1\AppData\Local\Temp\ccx0Yxub.s 			page 6


 282 0064 5021     		movs	r1, #80
 283 0066 0233     		adds	r3, r3, #2
 284 0068 2A46     		mov	r2, r5
 285 006a 0094     		str	r4, [sp, #0]
 286 006c 0194     		str	r4, [sp, #4]
 287 006e 4FF0FF34 		mov	r4, #-1
 288 0072 0294     		str	r4, [sp, #8]
 289 0074 FFF7FEFF 		bl	i2cMasterTransmitTimeout
 290 0078 0446     		mov	r4, r0
 291              	.LVL25:
 292              		.loc 2 72 0
 293 007a 0548     		ldr	r0, .L35
 294              	.LVL26:
 295 007c FFF7FEFF 		bl	i2cReleaseBus
 296              		.loc 2 79 0
 297 0080 201E     		subs	r0, r4, #0
 298 0082 18BF     		it	ne
 299 0084 0120     		movne	r0, #1
 300 0086 07B0     		add	sp, sp, #28
 301 0088 F0BD     		pop	{r4, r5, r6, r7, pc}
 302              	.LVL27:
 303              	.L34:
 304 008a 04AD     		add	r5, sp, #16
 305 008c E4E7     		b	.L21
 306              	.L36:
 307 008e 00BF     		.align	2
 308              	.L35:
 309 0090 00000000 		.word	I2CD1
 310              		.cfi_endproc
 311              	.LFE121:
 312              		.size	eepromWrite, .-eepromWrite
 313 0094 AFF30080 		.section	.text.eepromRead,"ax",%progbits
 313      AFF30080 
 313      AFF30080 
 314              		.align	2
 315              		.p2align 4,,15
 316              		.global	eepromRead
 317              		.thumb
 318              		.thumb_func
 319              		.type	eepromRead, %function
 320              	eepromRead:
 321              	.LFB122:
 322              		.loc 2 81 0
 323              		.cfi_startproc
 324              		@ args = 0, pretend = 0, frame = 8
 325              		@ frame_needed = 0, uses_anonymous_args = 0
 326              	.LVL28:
 327 0000 70B5     		push	{r4, r5, r6, lr}
 328              	.LCFI5:
 329              		.cfi_def_cfa_offset 16
 330 0002 86B0     		sub	sp, sp, #24
 331              	.LCFI6:
 332              		.cfi_def_cfa_offset 40
 333              		.loc 2 81 0
 334 0004 0E46     		mov	r6, r1
 335              		.cfi_offset 14, -4
 336              		.cfi_offset 6, -8
ARM GAS  C:\Users\DNIEL~1\AppData\Local\Temp\ccx0Yxub.s 			page 7


 337              		.cfi_offset 5, -12
 338              		.cfi_offset 4, -16
 339              		.loc 2 82 0
 340 0006 0021     		movs	r1, #0
 341              	.LVL29:
 342 0008 ADF81410 		strh	r1, [sp, #20]	@ movhi
 343              	.LVL30:
 344              		.loc 2 86 0
 345 000c FFF7FEFF 		bl	eepromGetItembyName
 346              	.LVL31:
 347              		.loc 2 91 0
 348 0010 0F4C     		ldr	r4, .L38
 349              		.loc 2 88 0
 350 0012 4388     		ldrh	r3, [r0, #2]
 351              		.loc 2 86 0
 352 0014 0546     		mov	r5, r0
 353              	.LVL32:
 354              		.loc 2 88 0
 355 0016 1A0A     		lsrs	r2, r3, #8
 356              		.loc 2 91 0
 357 0018 2046     		mov	r0, r4
 358              	.LVL33:
 359              		.loc 2 88 0
 360 001a 8DF81420 		strb	r2, [sp, #20]
 361              		.loc 2 89 0
 362 001e 8DF81530 		strb	r3, [sp, #21]
 363              		.loc 2 91 0
 364 0022 FFF7FEFF 		bl	i2cAcquireBus
 365              		.loc 2 92 0
 366 0026 0096     		str	r6, [sp, #0]
 367 0028 2D79     		ldrb	r5, [r5, #4]	@ zero_extendqisi2
 368              	.LVL34:
 369 002a 5021     		movs	r1, #80
 370 002c 0223     		movs	r3, #2
 371 002e 05AA     		add	r2, sp, #20
 372 0030 0195     		str	r5, [sp, #4]
 373 0032 2046     		mov	r0, r4
 374 0034 4FF0FF35 		mov	r5, #-1
 375 0038 0295     		str	r5, [sp, #8]
 376 003a FFF7FEFF 		bl	i2cMasterTransmitTimeout
 377 003e 0546     		mov	r5, r0
 378              	.LVL35:
 379              		.loc 2 93 0
 380 0040 2046     		mov	r0, r4
 381              	.LVL36:
 382 0042 FFF7FEFF 		bl	i2cReleaseBus
 383              		.loc 2 100 0
 384 0046 281E     		subs	r0, r5, #0
 385 0048 18BF     		it	ne
 386 004a 0120     		movne	r0, #1
 387 004c 06B0     		add	sp, sp, #24
 388 004e 70BD     		pop	{r4, r5, r6, pc}
 389              	.L39:
 390              		.align	2
 391              	.L38:
 392 0050 00000000 		.word	I2CD1
 393              		.cfi_endproc
ARM GAS  C:\Users\DNIEL~1\AppData\Local\Temp\ccx0Yxub.s 			page 8


 394              	.LFE122:
 395              		.size	eepromRead, .-eepromRead
 396 0054 AFF30080 		.section	.text.cmd_eepromTest,"ax",%progbits
 396      AFF30080 
 396      AFF30080 
 397              		.align	2
 398              		.p2align 4,,15
 399              		.global	cmd_eepromTest
 400              		.thumb
 401              		.thumb_func
 402              		.type	cmd_eepromTest, %function
 403              	cmd_eepromTest:
 404              	.LFB123:
 405              		.loc 2 102 0
 406              		.cfi_startproc
 407              		@ args = 0, pretend = 0, frame = 8
 408              		@ frame_needed = 0, uses_anonymous_args = 0
 409              	.LVL37:
 410 0000 70B5     		push	{r4, r5, r6, lr}
 411              	.LCFI7:
 412              		.cfi_def_cfa_offset 16
 413 0002 82B0     		sub	sp, sp, #8
 414              	.LCFI8:
 415              		.cfi_def_cfa_offset 24
 416              		.loc 2 102 0
 417 0004 0446     		mov	r4, r0
 418              		.cfi_offset 14, -4
 419              		.cfi_offset 6, -8
 420              		.cfi_offset 5, -12
 421              		.cfi_offset 4, -16
 422              		.loc 2 105 0
 423 0006 FFF7FEFF 		bl	rand
 424              	.LVL38:
 425 000a 1E4D     		ldr	r5, .L44
 426              		.loc 2 108 0
 427 000c 1E49     		ldr	r1, .L44+4
 428              		.loc 2 105 0
 429 000e 0346     		mov	r3, r0
 430 0010 85FB0026 		smull	r2, r6, r5, r0
 431 0014 1D4A     		ldr	r2, .L44+8
 432 0016 C017     		asrs	r0, r0, #31
 433 0018 C0EB2675 		rsb	r5, r0, r6, asr #28
 434              		.loc 2 106 0
 435 001c 0026     		movs	r6, #0
 436              		.loc 2 108 0
 437 001e 2046     		mov	r0, r4
 438              		.loc 2 105 0
 439 0020 02FB1535 		mls	r5, r2, r5, r3
 440              		.loc 2 106 0
 441 0024 0196     		str	r6, [sp, #4]
 442              	.LVL39:
 443              		.loc 2 108 0
 444 0026 FFF7FEFF 		bl	chprintf
 445              		.loc 2 109 0
 446 002a 2046     		mov	r0, r4
 447 002c 1849     		ldr	r1, .L44+12
 448 002e FFF7FEFF 		bl	chprintf
ARM GAS  C:\Users\DNIEL~1\AppData\Local\Temp\ccx0Yxub.s 			page 9


 449              		.loc 2 111 0
 450 0032 2046     		mov	r0, r4
 451 0034 1749     		ldr	r1, .L44+16
 452 0036 1022     		movs	r2, #16
 453 0038 2B46     		mov	r3, r5
 454 003a FFF7FEFF 		bl	chprintf
 455              		.loc 2 114 0
 456 003e 3046     		mov	r0, r6
 457 0040 2946     		mov	r1, r5
 458 0042 FFF7FEFF 		bl	eepromWrite
 459 0046 C0B9     		cbnz	r0, .L43
 460              	.L41:
 461              		.loc 2 118 0
 462 0048 1349     		ldr	r1, .L44+20
 463 004a 2046     		mov	r0, r4
 464 004c FFF7FEFF 		bl	chprintf
 465              		.loc 2 119 0
 466 0050 2046     		mov	r0, r4
 467 0052 1249     		ldr	r1, .L44+24
 468 0054 FFF7FEFF 		bl	chprintf
 469              		.loc 2 121 0
 470 0058 0020     		movs	r0, #0
 471 005a 01A9     		add	r1, sp, #4
 472 005c FFF7FEFF 		bl	eepromRead
 473 0060 18B1     		cbz	r0, .L42
 474              		.loc 2 122 0
 475 0062 2046     		mov	r0, r4
 476 0064 0E49     		ldr	r1, .L44+28
 477 0066 FFF7FEFF 		bl	chprintf
 478              	.L42:
 479              		.loc 2 124 0
 480 006a 2046     		mov	r0, r4
 481 006c 0D49     		ldr	r1, .L44+32
 482 006e 019B     		ldr	r3, [sp, #4]
 483 0070 1022     		movs	r2, #16
 484 0072 FFF7FEFF 		bl	chprintf
 485              		.loc 2 125 0
 486 0076 02B0     		add	sp, sp, #8
 487 0078 70BD     		pop	{r4, r5, r6, pc}
 488              	.L43:
 489              		.loc 2 115 0
 490 007a 2046     		mov	r0, r4
 491 007c 0A49     		ldr	r1, .L44+36
 492 007e FFF7FEFF 		bl	chprintf
 493 0082 E1E7     		b	.L41
 494              	.L45:
 495              		.align	2
 496              	.L44:
 497 0084 A12FB844 		.word	1152921505
 498 0088 00000000 		.word	.LC0
 499 008c 00CA9A3B 		.word	1000000000
 500 0090 04000000 		.word	.LC1
 501 0094 0C000000 		.word	.LC2
 502 0098 58000000 		.word	.LC4
 503 009c 78000000 		.word	.LC5
 504 00a0 90000000 		.word	.LC6
 505 00a4 A8000000 		.word	.LC7
ARM GAS  C:\Users\DNIEL~1\AppData\Local\Temp\ccx0Yxub.s 			page 10


 506 00a8 40000000 		.word	.LC3
 507              		.cfi_endproc
 508              	.LFE123:
 509              		.size	cmd_eepromTest, .-cmd_eepromTest
 510 00ac AFF30080 		.section	.text.cmd_eepromAllData,"ax",%progbits
 511              		.align	2
 512              		.p2align 4,,15
 513              		.global	cmd_eepromAllData
 514              		.thumb
 515              		.thumb_func
 516              		.type	cmd_eepromAllData, %function
 517              	cmd_eepromAllData:
 518              	.LFB124:
 519              		.loc 2 127 0
 520              		.cfi_startproc
 521              		@ args = 0, pretend = 0, frame = 8
 522              		@ frame_needed = 0, uses_anonymous_args = 0
 523              	.LVL40:
 524 0000 70B5     		push	{r4, r5, r6, lr}
 525              	.LCFI9:
 526              		.cfi_def_cfa_offset 16
 527 0002 82B0     		sub	sp, sp, #8
 528              	.LCFI10:
 529              		.cfi_def_cfa_offset 24
 530              		.loc 2 129 0
 531 0004 02AD     		add	r5, sp, #8
 532              		.cfi_offset 14, -4
 533              		.cfi_offset 6, -8
 534              		.cfi_offset 5, -12
 535              		.cfi_offset 4, -16
 536 0006 0026     		movs	r6, #0
 537              		.loc 2 127 0
 538 0008 0446     		mov	r4, r0
 539              		.loc 2 141 0
 540 000a 2C49     		ldr	r1, .L55
 541              	.LVL41:
 542              		.loc 2 129 0
 543 000c 45F8046D 		str	r6, [r5, #-4]!
 544              	.LVL42:
 545              		.loc 2 141 0
 546 0010 FFF7FEFF 		bl	chprintf
 547              	.LVL43:
 548              		.loc 2 142 0
 549 0014 2046     		mov	r0, r4
 550 0016 2A49     		ldr	r1, .L55+4
 551 0018 FFF7FEFF 		bl	chprintf
 552              		.loc 2 144 0
 553 001c 3246     		mov	r2, r6
 554 001e 3346     		mov	r3, r6
 555 0020 2046     		mov	r0, r4
 556 0022 2849     		ldr	r1, .L55+8
 557 0024 FFF7FEFF 		bl	chprintf
 558              		.loc 2 145 0
 559 0028 2046     		mov	r0, r4
 560 002a 2749     		ldr	r1, .L55+12
 561 002c FFF7FEFF 		bl	chprintf
 562              	.LVL44:
ARM GAS  C:\Users\DNIEL~1\AppData\Local\Temp\ccx0Yxub.s 			page 11


 563              		.loc 2 148 0
 564 0030 3046     		mov	r0, r6
 565 0032 2946     		mov	r1, r5
 566 0034 FFF7FEFF 		bl	eepromRead
 567 0038 0646     		mov	r6, r0
 568 003a 0028     		cmp	r0, #0
 569 003c 31D1     		bne	.L47
 570              		.loc 2 153 0
 571 003e 2046     		mov	r0, r4
 572 0040 2249     		ldr	r1, .L55+16
 573 0042 234A     		ldr	r2, .L55+20
 574 0044 019B     		ldr	r3, [sp, #4]
 575 0046 FFF7FEFF 		bl	chprintf
 576              		.loc 2 148 0
 577 004a 0120     		movs	r0, #1
 578 004c 2946     		mov	r1, r5
 579              		.loc 2 154 0
 580 004e 0196     		str	r6, [sp, #4]
 581              	.LVL45:
 582              		.loc 2 148 0
 583 0050 FFF7FEFF 		bl	eepromRead
 584 0054 0646     		mov	r6, r0
 585 0056 90B9     		cbnz	r0, .L49
 586              	.L54:
 587              		.loc 2 153 0
 588 0058 2046     		mov	r0, r4
 589 005a 1C49     		ldr	r1, .L55+16
 590 005c 1D4A     		ldr	r2, .L55+24
 591 005e 019B     		ldr	r3, [sp, #4]
 592 0060 FFF7FEFF 		bl	chprintf
 593              		.loc 2 148 0
 594 0064 0220     		movs	r0, #2
 595 0066 2946     		mov	r1, r5
 596              		.loc 2 154 0
 597 0068 0196     		str	r6, [sp, #4]
 598              	.LVL46:
 599              		.loc 2 148 0
 600 006a FFF7FEFF 		bl	eepromRead
 601 006e 88B1     		cbz	r0, .L51
 602              	.L53:
 603              		.loc 2 149 0
 604 0070 2046     		mov	r0, r4
 605 0072 1949     		ldr	r1, .L55+28
 606 0074 194A     		ldr	r2, .L55+32
 607 0076 FFF7FEFF 		bl	chprintf
 608              	.LVL47:
 609              	.L46:
 610              		.loc 2 162 0
 611 007a 02B0     		add	sp, sp, #8
 612 007c 70BD     		pop	{r4, r5, r6, pc}
 613              	.LVL48:
 614              	.L49:
 615              		.loc 2 149 0
 616 007e 2046     		mov	r0, r4
 617 0080 1549     		ldr	r1, .L55+28
 618 0082 144A     		ldr	r2, .L55+24
 619 0084 FFF7FEFF 		bl	chprintf
ARM GAS  C:\Users\DNIEL~1\AppData\Local\Temp\ccx0Yxub.s 			page 12


 620              	.LVL49:
 621              		.loc 2 148 0
 622 0088 0220     		movs	r0, #2
 623 008a 2946     		mov	r1, r5
 624 008c FFF7FEFF 		bl	eepromRead
 625 0090 0028     		cmp	r0, #0
 626 0092 EDD1     		bne	.L53
 627              	.L51:
 628              		.loc 2 153 0
 629 0094 2046     		mov	r0, r4
 630 0096 0D49     		ldr	r1, .L55+16
 631 0098 104A     		ldr	r2, .L55+32
 632 009a 019B     		ldr	r3, [sp, #4]
 633 009c FFF7FEFF 		bl	chprintf
 634              	.LVL50:
 635 00a0 EBE7     		b	.L46
 636              	.LVL51:
 637              	.L47:
 638              		.loc 2 149 0
 639 00a2 2046     		mov	r0, r4
 640 00a4 0C49     		ldr	r1, .L55+28
 641 00a6 0A4A     		ldr	r2, .L55+20
 642 00a8 FFF7FEFF 		bl	chprintf
 643              	.LVL52:
 644              		.loc 2 148 0
 645 00ac 0120     		movs	r0, #1
 646 00ae 2946     		mov	r1, r5
 647 00b0 FFF7FEFF 		bl	eepromRead
 648 00b4 0646     		mov	r6, r0
 649 00b6 0028     		cmp	r0, #0
 650 00b8 E1D1     		bne	.L49
 651 00ba CDE7     		b	.L54
 652              	.L56:
 653              		.align	2
 654              	.L55:
 655 00bc 00000000 		.word	.LC0
 656 00c0 04000000 		.word	.LC1
 657 00c4 C8000000 		.word	.LC8
 658 00c8 D4000000 		.word	.LC9
 659 00cc F0000000 		.word	.LC10
 660 00d0 00010000 		.word	.LC11
 661 00d4 24010000 		.word	.LC13
 662 00d8 0C010000 		.word	.LC12
 663 00dc 30010000 		.word	.LC14
 664              		.cfi_endproc
 665              	.LFE124:
 666              		.size	cmd_eepromAllData, .-cmd_eepromAllData
 667              		.section	.rodata.str1.4,"aMS",%progbits,1
 668              		.align	2
 669              	.LC0:
 670 0000 1B6300   		.ascii	"\033c\000"
 671 0003 00       		.space	1
 672              	.LC1:
 673 0004 1B5B324A 		.ascii	"\033[2J\000"
 673      00
 674 0009 000000   		.space	3
 675              	.LC2:
ARM GAS  C:\Users\DNIEL~1\AppData\Local\Temp\ccx0Yxub.s 			page 13


 676 000c 45455052 		.ascii	"EEPROM write test !\015\012Address: 0x%02x, Value: "
 676      4F4D2077 
 676      72697465 
 676      20746573 
 676      7420210D 
 677 0039 25326400 		.ascii	"%2d\000"
 678 003d 000000   		.space	3
 679              	.LC3:
 680 0040 45455052 		.ascii	"EEPROM write error! \015\012\000"
 680      4F4D2077 
 680      72697465 
 680      20657272 
 680      6F722120 
 681 0057 00       		.space	1
 682              	.LC4:
 683 0058 0D0A2D2D 		.ascii	"\015\012----------------------- \015\012\000"
 683      2D2D2D2D 
 683      2D2D2D2D 
 683      2D2D2D2D 
 683      2D2D2D2D 
 684 0075 000000   		.space	3
 685              	.LC5:
 686 0078 45455052 		.ascii	"EEPROM read test ! \015\012\000"
 686      4F4D2072 
 686      65616420 
 686      74657374 
 686      2021200D 
 687 008e 0000     		.space	2
 688              	.LC6:
 689 0090 45455052 		.ascii	"EEPROM read error! \015\012\000"
 689      4F4D2072 
 689      65616420 
 689      6572726F 
 689      7221200D 
 690 00a6 0000     		.space	2
 691              	.LC7:
 692 00a8 41646472 		.ascii	"Address: 0x%02x, value: %2d\015\012\000"
 692      6573733A 
 692      20307825 
 692      3032782C 
 692      2076616C 
 693 00c6 0000     		.space	2
 694              	.LC8:
 695 00c8 1B5B2564 		.ascii	"\033[%d;%dH\000"
 695      3B256448 
 695      00
 696 00d1 000000   		.space	3
 697              	.LC9:
 698 00d4 20202020 		.ascii	"          NAME      DATA\015\012\000"
 698      20202020 
 698      20204E41 
 698      4D452020 
 698      20202020 
 699 00ef 00       		.space	1
 700              	.LC10:
 701 00f0 25313073 		.ascii	"%10s: %15d\015\012\000"
 701      3A202531 
ARM GAS  C:\Users\DNIEL~1\AppData\Local\Temp\ccx0Yxub.s 			page 14


 701      35640D0A 
 701      00
 702 00fd 000000   		.space	3
 703              	.LC11:
 704 0100 46495253 		.ascii	"FIRST_ITEM\000"
 704      545F4954 
 704      454D00
 705 010b 00       		.space	1
 706              	.LC12:
 707 010c 25732045 		.ascii	"%s EEPROM read error!\015\012\000"
 707      4550524F 
 707      4D207265 
 707      61642065 
 707      72726F72 
 708              	.LC13:
 709 0124 43454E54 		.ascii	"CENTER_ITEM\000"
 709      45525F49 
 709      54454D00 
 710              	.LC14:
 711 0130 4C415354 		.ascii	"LAST_ITEM\000"
 711      5F495445 
 711      4D00
 712 013a 0000     		.section	.data.eepromitems,"aw",%progbits
 713              		.align	2
 714              		.set	.LANCHOR1,. + 0
 715              		.type	eepromitems, %object
 716              		.size	eepromitems, 18
 717              	eepromitems:
 718 0000 10       		.byte	16
 719 0001 00       		.space	1
 720 0002 1000     		.short	16
 721 0004 04       		.byte	4
 722 0005 00       		.byte	0
 723 0006 11       		.byte	17
 724 0007 00       		.space	1
 725 0008 1400     		.short	20
 726 000a 04       		.byte	4
 727 000b 01       		.byte	1
 728 000c FB       		.byte	-5
 729 000d 00       		.space	1
 730 000e FBFF     		.short	-5
 731 0010 04       		.byte	4
 732 0011 02       		.byte	2
 733 0012 0000     		.section	.rodata.i2ccfg,"a",%progbits
 734              		.align	2
 735              		.set	.LANCHOR0,. + 0
 736              		.type	i2ccfg, %object
 737              		.size	i2ccfg, 12
 738              	i2ccfg:
 739 0000 01       		.byte	1
 740 0001 000000   		.space	3
 741 0004 801A0600 		.word	400000
 742 0008 02       		.byte	2
 743 0009 000000   		.space	3
 744              		.text
 745              	.Letext0: