ARM GAS  C:\Users\DNIEL~1\AppData\Local\Temp\ccsQciza.s 			page 1


   1              		.syntax unified
   2              		.cpu cortex-m4
   3              		.fpu softvfp
   4              		.eabi_attribute 20, 1
   5              		.eabi_attribute 21, 1
   6              		.eabi_attribute 23, 3
   7              		.eabi_attribute 24, 1
   8              		.eabi_attribute 25, 1
   9              		.eabi_attribute 26, 1
  10              		.eabi_attribute 30, 2
  11              		.eabi_attribute 18, 4
  12              		.thumb
  13              		.file	"syscalls.c"
  14              		.section	.debug_abbrev,"",%progbits
  15              	.Ldebug_abbrev0:
  16              		.section	.debug_info,"",%progbits
  17              	.Ldebug_info0:
  18              		.section	.debug_line,"",%progbits
  19              	.Ldebug_line0:
  20 0000 21040000 		.text
  20      02007903 
  20      00000201 
  20      FB0E0D00 
  20      01010101 
  21              	.Ltext0:
  22              		.cfi_sections	.debug_frame
  23              		.section	.text._read_r,"ax",%progbits
  24              		.align	2
  25              		.p2align 4,,15
  26              		.global	_read_r
  27              		.thumb
  28              		.thumb_func
  29              		.type	_read_r, %function
  30              	_read_r:
  31              	.LFB118:
  32              		.file 1 "../../../ChibiOS/os/various/syscalls.c"
  33              		.loc 1 76 0
  34              		.cfi_startproc
  35              		@ args = 0, pretend = 0, frame = 0
  36              		@ frame_needed = 0, uses_anonymous_args = 0
  37              		@ link register save eliminated.
  38              	.LVL0:
  39              		.loc 1 79 0
  40 0000 3BB1     		cbz	r3, .L2
  41              		.loc 1 79 0 is_stmt 0 discriminator 1
  42 0002 31B9     		cbnz	r1, .L2
  43              		.loc 1 83 0 is_stmt 1
  44 0004 0548     		ldr	r0, .L6
  45              	.LVL1:
  46 0006 1146     		mov	r1, r2
  47              	.LVL2:
  48 0008 1A46     		mov	r2, r3
  49              	.LVL3:
  50 000a 4FF0FF33 		mov	r3, #-1
  51              	.LVL4:
  52              		.loc 1 92 0
  53              		.loc 1 83 0
ARM GAS  C:\Users\DNIEL~1\AppData\Local\Temp\ccsQciza.s 			page 2


  54 000e FFF7FEBF 		b	chIQReadTimeout
  55              	.LVL5:
  56              	.L2:
  57              		.loc 1 80 0
  58 0012 1623     		movs	r3, #22
  59              	.LVL6:
  60 0014 0360     		str	r3, [r0, #0]
  61              		.loc 1 92 0
  62 0016 4FF0FF30 		mov	r0, #-1
  63              	.LVL7:
  64 001a 7047     		bx	lr
  65              	.L7:
  66              		.align	2
  67              	.L6:
  68 001c 0C000000 		.word	SD1+12
  69              		.cfi_endproc
  70              	.LFE118:
  71              		.size	_read_r, .-_read_r
  72              		.section	.text._lseek_r,"ax",%progbits
  73              		.align	2
  74              		.p2align 4,,15
  75              		.global	_lseek_r
  76              		.thumb
  77              		.thumb_func
  78              		.type	_lseek_r, %function
  79              	_lseek_r:
  80              	.LFB119:
  81              		.loc 1 97 0
  82              		.cfi_startproc
  83              		@ args = 0, pretend = 0, frame = 0
  84              		@ frame_needed = 0, uses_anonymous_args = 0
  85              		@ link register save eliminated.
  86              	.LVL8:
  87              		.loc 1 104 0
  88 0000 0020     		movs	r0, #0
  89              	.LVL9:
  90 0002 7047     		bx	lr
  91              		.cfi_endproc
  92              	.LFE119:
  93              		.size	_lseek_r, .-_lseek_r
  94 0004 AFF30080 		.section	.text._write_r,"ax",%progbits
  94      AFF30080 
  94      AFF30080 
  95              		.align	2
  96              		.p2align 4,,15
  97              		.global	_write_r
  98              		.thumb
  99              		.thumb_func
 100              		.type	_write_r, %function
 101              	_write_r:
 102              	.LFB120:
 103              		.loc 1 109 0
 104              		.cfi_startproc
 105              		@ args = 0, pretend = 0, frame = 0
 106              		@ frame_needed = 0, uses_anonymous_args = 0
 107              	.LVL10:
 108              		.loc 1 114 0
ARM GAS  C:\Users\DNIEL~1\AppData\Local\Temp\ccsQciza.s 			page 3


 109 0000 0129     		cmp	r1, #1
 110              		.loc 1 109 0
 111 0002 10B5     		push	{r4, lr}
 112              	.LCFI0:
 113              		.cfi_def_cfa_offset 8
 114              		.loc 1 109 0
 115 0004 1C46     		mov	r4, r3
 116              		.cfi_offset 14, -4
 117              		.cfi_offset 4, -8
 118              		.loc 1 114 0
 119 0006 08D1     		bne	.L12
 120              		.loc 1 118 0
 121 0008 1146     		mov	r1, r2
 122              	.LVL11:
 123 000a 0748     		ldr	r0, .L13
 124              	.LVL12:
 125 000c 1A46     		mov	r2, r3
 126              	.LVL13:
 127 000e 4FF0FF33 		mov	r3, #-1
 128              	.LVL14:
 129 0012 FFF7FEFF 		bl	chOQWriteTimeout
 130              	.LVL15:
 131              		.loc 1 121 0
 132 0016 2046     		mov	r0, r4
 133 0018 10BD     		pop	{r4, pc}
 134              	.LVL16:
 135              	.L12:
 136              		.loc 1 115 0
 137 001a 1623     		movs	r3, #22
 138              		.loc 1 116 0
 139 001c 4FF0FF34 		mov	r4, #-1
 140              	.LVL17:
 141              		.loc 1 115 0
 142 0020 0360     		str	r3, [r0, #0]
 143              		.loc 1 121 0
 144 0022 2046     		mov	r0, r4
 145              	.LVL18:
 146 0024 10BD     		pop	{r4, pc}
 147              	.L14:
 148 0026 00BF     		.align	2
 149              	.L13:
 150 0028 30000000 		.word	SD1+48
 151              		.cfi_endproc
 152              	.LFE120:
 153              		.size	_write_r, .-_write_r
 154 002c AFF30080 		.section	.text._close_r,"ax",%progbits
 155              		.align	2
 156              		.p2align 4,,15
 157              		.global	_close_r
 158              		.thumb
 159              		.thumb_func
 160              		.type	_close_r, %function
 161              	_close_r:
 162              	.LFB121:
 163              		.loc 1 126 0
 164              		.cfi_startproc
 165              		@ args = 0, pretend = 0, frame = 0
ARM GAS  C:\Users\DNIEL~1\AppData\Local\Temp\ccsQciza.s 			page 4


 166              		@ frame_needed = 0, uses_anonymous_args = 0
 167              		@ link register save eliminated.
 168              	.LVL19:
 169              		.loc 1 131 0
 170 0000 0020     		movs	r0, #0
 171              	.LVL20:
 172 0002 7047     		bx	lr
 173              		.cfi_endproc
 174              	.LFE121:
 175              		.size	_close_r, .-_close_r
 176 0004 AFF30080 		.section	.text._sbrk_r,"ax",%progbits
 176      AFF30080 
 176      AFF30080 
 177              		.align	2
 178              		.p2align 4,,15
 179              		.global	_sbrk_r
 180              		.thumb
 181              		.thumb_func
 182              		.type	_sbrk_r, %function
 183              	_sbrk_r:
 184              	.LFB122:
 185              		.loc 1 136 0
 186              		.cfi_startproc
 187              		@ args = 0, pretend = 0, frame = 0
 188              		@ frame_needed = 0, uses_anonymous_args = 0
 189              	.LVL21:
 190 0000 10B5     		push	{r4, lr}
 191              	.LCFI1:
 192              		.cfi_def_cfa_offset 8
 193              		.loc 1 136 0
 194 0002 0446     		mov	r4, r0
 195              		.cfi_offset 14, -4
 196              		.cfi_offset 4, -8
 197              		.loc 1 142 0
 198 0004 0846     		mov	r0, r1
 199              	.LVL22:
 200 0006 FFF7FEFF 		bl	chCoreAlloc
 201              	.LVL23:
 202              		.loc 1 143 0
 203 000a 00B1     		cbz	r0, .L19
 204              		.loc 1 153 0
 205 000c 10BD     		pop	{r4, pc}
 206              	.L19:
 207              		.loc 1 144 0
 208 000e 0C23     		movs	r3, #12
 209 0010 2360     		str	r3, [r4, #0]
 210              		.loc 1 145 0
 211 0012 4FF0FF30 		mov	r0, #-1
 212              	.LVL24:
 213              		.loc 1 153 0
 214 0016 10BD     		pop	{r4, pc}
 215              		.cfi_endproc
 216              	.LFE122:
 217              		.size	_sbrk_r, .-_sbrk_r
 218 0018 AFF30080 		.section	.text._fstat_r,"ax",%progbits
 218      AFF30080 
 219              		.align	2
ARM GAS  C:\Users\DNIEL~1\AppData\Local\Temp\ccsQciza.s 			page 5


 220              		.p2align 4,,15
 221              		.global	_fstat_r
 222              		.thumb
 223              		.thumb_func
 224              		.type	_fstat_r, %function
 225              	_fstat_r:
 226              	.LFB123:
 227              		.loc 1 158 0
 228              		.cfi_startproc
 229              		@ args = 0, pretend = 0, frame = 0
 230              		@ frame_needed = 0, uses_anonymous_args = 0
 231              	.LVL25:
 232 0000 10B5     		push	{r4, lr}
 233              	.LCFI2:
 234              		.cfi_def_cfa_offset 8
 235              		.loc 1 162 0
 236 0002 1046     		mov	r0, r2
 237              	.LVL26:
 238              		.loc 1 158 0
 239 0004 1446     		mov	r4, r2
 240              		.cfi_offset 14, -4
 241              		.cfi_offset 4, -8
 242              		.loc 1 162 0
 243 0006 0021     		movs	r1, #0
 244              	.LVL27:
 245 0008 3C22     		movs	r2, #60
 246              	.LVL28:
 247 000a FFF7FEFF 		bl	memset
 248              	.LVL29:
 249              		.loc 1 163 0
 250 000e 4FF40053 		mov	r3, #8192
 251 0012 6360     		str	r3, [r4, #4]
 252              		.loc 1 165 0
 253 0014 0020     		movs	r0, #0
 254 0016 10BD     		pop	{r4, pc}
 255              		.cfi_endproc
 256              	.LFE123:
 257              		.size	_fstat_r, .-_fstat_r
 258 0018 AFF30080 		.section	.text._isatty_r,"ax",%progbits
 258      AFF30080 
 259              		.align	2
 260              		.p2align 4,,15
 261              		.global	_isatty_r
 262              		.thumb
 263              		.thumb_func
 264              		.type	_isatty_r, %function
 265              	_isatty_r:
 266              	.LFB124:
 267              		.loc 1 170 0
 268              		.cfi_startproc
 269              		@ args = 0, pretend = 0, frame = 0
 270              		@ frame_needed = 0, uses_anonymous_args = 0
 271              		@ link register save eliminated.
 272              	.LVL30:
 273              		.loc 1 175 0
 274 0000 0120     		movs	r0, #1
 275              	.LVL31:
ARM GAS  C:\Users\DNIEL~1\AppData\Local\Temp\ccsQciza.s 			page 6


 276 0002 7047     		bx	lr
 277              		.cfi_endproc
 278              	.LFE124:
 279              		.size	_isatty_r, .-_isatty_r
 280 0004 AFF30080 		.text
 280      AFF30080 
 280      AFF30080 
 281              	.Letext0:
 282              		.section	.debug_loc,"",%progbits
 283              	.Ldebug_loc0:
 284              	.LLST0:
 285 0000 00000000 		.4byte	.LVL0
 286 0004 06000000 		.4byte	.LVL1
 287 0008 0100     		.2byte	0x1
 288 000a 50       		.byte	0x50
 289 000b 12000000 		.4byte	.LVL5
 290 000f 1A000000 		.4byte	.LVL7
 291 0013 0100     		.2byte	0x1
 292 0015 50       		.byte	0x50
 293 0016 00000000 		.4byte	0x0
 294 001a 00000000 		.4byte	0x0
 295              	.LLST1:
 296 001e 00000000 		.4byte	.LVL0
 297 0022 08000000 		.4byte	.LVL2
 298 0026 0100     		.2byte	0x1
 299 0028 51       		.byte	0x51
 300 0029 12000000 		.4byte	.LVL5
 301 002d 20000000 		.4byte	.LFE118
 302 0031 0100     		.2byte	0x1
 303 0033 51       		.byte	0x51
 304 0034 00000000 		.4byte	0x0
 305 0038 00000000 		.4byte	0x0
 306              	.LLST2:
 307 003c 00000000 		.4byte	.LVL0
 308 0040 0A000000 		.4byte	.LVL3
 309 0044 0100     		.2byte	0x1
 310 0046 52       		.byte	0x52
 311 0047 0A000000 		.4byte	.LVL3
 312 004b 11000000 		.4byte	.LVL5-1
 313 004f 0100     		.2byte	0x1
 314 0051 51       		.byte	0x51
 315 0052 12000000 		.4byte	.LVL5
 316 0056 20000000 		.4byte	.LFE118
 317 005a 0100     		.2byte	0x1
 318 005c 52       		.byte	0x52
 319 005d 00000000 		.4byte	0x0
 320 0061 00000000 		.4byte	0x0
 321              	.LLST3:
 322 0065 00000000 		.4byte	.LVL0
 323 0069 0E000000 		.4byte	.LVL4
 324 006d 0100     		.2byte	0x1
 325 006f 53       		.byte	0x53
 326 0070 0E000000 		.4byte	.LVL4
 327 0074 11000000 		.4byte	.LVL5-1
 328 0078 0100     		.2byte	0x1
 329 007a 52       		.byte	0x52
 330 007b 12000000 		.4byte	.LVL5
ARM GAS  C:\Users\DNIEL~1\AppData\Local\Temp\ccsQciza.s 			page 7


 331 007f 14000000 		.4byte	.LVL6
 332 0083 0100     		.2byte	0x1
 333 0085 53       		.byte	0x53
 334 0086 00000000 		.4byte	0x0
 335 008a 00000000 		.4byte	0x0
 336              	.LLST4:
 337 008e 00000000 		.4byte	.LVL8
 338 0092 02000000 		.4byte	.LVL9
 339 0096 0100     		.2byte	0x1
 340 0098 50       		.byte	0x50
 341 0099 00000000 		.4byte	0x0
 342 009d 00000000 		.4byte	0x0
 343              	.LLST5:
 344 00a1 00000000 		.4byte	.LFB120
 345 00a5 04000000 		.4byte	.LCFI0
 346 00a9 0200     		.2byte	0x2
 347 00ab 7D       		.byte	0x7d
 348 00ac 00       		.sleb128 0
 349 00ad 04000000 		.4byte	.LCFI0
 350 00b1 2C000000 		.4byte	.LFE120
 351 00b5 0200     		.2byte	0x2
 352 00b7 7D       		.byte	0x7d
 353 00b8 08       		.sleb128 8
 354 00b9 00000000 		.4byte	0x0
 355 00bd 00000000 		.4byte	0x0
 356              	.LLST6:
 357 00c1 00000000 		.4byte	.LVL10
 358 00c5 0C000000 		.4byte	.LVL12
 359 00c9 0100     		.2byte	0x1
 360 00cb 50       		.byte	0x50
 361 00cc 1A000000 		.4byte	.LVL16
 362 00d0 24000000 		.4byte	.LVL18
 363 00d4 0100     		.2byte	0x1
 364 00d6 50       		.byte	0x50
 365 00d7 00000000 		.4byte	0x0
 366 00db 00000000 		.4byte	0x0
 367              	.LLST7:
 368 00df 00000000 		.4byte	.LVL10
 369 00e3 0A000000 		.4byte	.LVL11
 370 00e7 0100     		.2byte	0x1
 371 00e9 51       		.byte	0x51
 372 00ea 1A000000 		.4byte	.LVL16
 373 00ee 2C000000 		.4byte	.LFE120
 374 00f2 0100     		.2byte	0x1
 375 00f4 51       		.byte	0x51
 376 00f5 00000000 		.4byte	0x0
 377 00f9 00000000 		.4byte	0x0
 378              	.LLST8:
 379 00fd 00000000 		.4byte	.LVL10
 380 0101 0E000000 		.4byte	.LVL13
 381 0105 0100     		.2byte	0x1
 382 0107 52       		.byte	0x52
 383 0108 0E000000 		.4byte	.LVL13
 384 010c 15000000 		.4byte	.LVL15-1
 385 0110 0100     		.2byte	0x1
 386 0112 51       		.byte	0x51
 387 0113 1A000000 		.4byte	.LVL16
ARM GAS  C:\Users\DNIEL~1\AppData\Local\Temp\ccsQciza.s 			page 8


 388 0117 2C000000 		.4byte	.LFE120
 389 011b 0100     		.2byte	0x1
 390 011d 52       		.byte	0x52
 391 011e 00000000 		.4byte	0x0
 392 0122 00000000 		.4byte	0x0
 393              	.LLST9:
 394 0126 00000000 		.4byte	.LVL10
 395 012a 12000000 		.4byte	.LVL14
 396 012e 0100     		.2byte	0x1
 397 0130 53       		.byte	0x53
 398 0131 12000000 		.4byte	.LVL14
 399 0135 15000000 		.4byte	.LVL15-1
 400 0139 0100     		.2byte	0x1
 401 013b 52       		.byte	0x52
 402 013c 15000000 		.4byte	.LVL15-1
 403 0140 20000000 		.4byte	.LVL17
 404 0144 0100     		.2byte	0x1
 405 0146 54       		.byte	0x54
 406 0147 00000000 		.4byte	0x0
 407 014b 00000000 		.4byte	0x0
 408              	.LLST10:
 409 014f 00000000 		.4byte	.LVL19
 410 0153 02000000 		.4byte	.LVL20
 411 0157 0100     		.2byte	0x1
 412 0159 50       		.byte	0x50
 413 015a 00000000 		.4byte	0x0
 414 015e 00000000 		.4byte	0x0
 415              	.LLST11:
 416 0162 00000000 		.4byte	.LFB122
 417 0166 02000000 		.4byte	.LCFI1
 418 016a 0200     		.2byte	0x2
 419 016c 7D       		.byte	0x7d
 420 016d 00       		.sleb128 0
 421 016e 02000000 		.4byte	.LCFI1
 422 0172 18000000 		.4byte	.LFE122
 423 0176 0200     		.2byte	0x2
 424 0178 7D       		.byte	0x7d
 425 0179 08       		.sleb128 8
 426 017a 00000000 		.4byte	0x0
 427 017e 00000000 		.4byte	0x0
 428              	.LLST12:
 429 0182 00000000 		.4byte	.LVL21
 430 0186 06000000 		.4byte	.LVL22
 431 018a 0100     		.2byte	0x1
 432 018c 50       		.byte	0x50
 433 018d 06000000 		.4byte	.LVL22
 434 0191 18000000 		.4byte	.LFE122
 435 0195 0100     		.2byte	0x1
 436 0197 54       		.byte	0x54
 437 0198 00000000 		.4byte	0x0
 438 019c 00000000 		.4byte	0x0
 439              	.LLST13:
 440 01a0 00000000 		.4byte	.LVL21
 441 01a4 09000000 		.4byte	.LVL23-1
 442 01a8 0100     		.2byte	0x1
 443 01aa 51       		.byte	0x51
 444 01ab 00000000 		.4byte	0x0
ARM GAS  C:\Users\DNIEL~1\AppData\Local\Temp\ccsQciza.s 			page 9


 445 01af 00000000 		.4byte	0x0
 446              	.LLST14:
 447 01b3 0A000000 		.4byte	.LVL23
 448 01b7 16000000 		.4byte	.LVL24
 449 01bb 0100     		.2byte	0x1
 450 01bd 50       		.byte	0x50
 451 01be 00000000 		.4byte	0x0
 452 01c2 00000000 		.4byte	0x0
 453              	.LLST15:
 454 01c6 00000000 		.4byte	.LFB123
 455 01ca 02000000 		.4byte	.LCFI2
 456 01ce 0200     		.2byte	0x2
 457 01d0 7D       		.byte	0x7d
 458 01d1 00       		.sleb128 0
 459 01d2 02000000 		.4byte	.LCFI2
 460 01d6 18000000 		.4byte	.LFE123
 461 01da 0200     		.2byte	0x2
 462 01dc 7D       		.byte	0x7d
 463 01dd 08       		.sleb128 8
 464 01de 00000000 		.4byte	0x0
 465 01e2 00000000 		.4byte	0x0
 466              	.LLST16:
 467 01e6 00000000 		.4byte	.LVL25
 468 01ea 04000000 		.4byte	.LVL26
 469 01ee 0100     		.2byte	0x1
 470 01f0 50       		.byte	0x50
 471 01f1 00000000 		.4byte	0x0
 472 01f5 00000000 		.4byte	0x0
 473              	.LLST17:
 474 01f9 00000000 		.4byte	.LVL25
 475 01fd 08000000 		.4byte	.LVL27
 476 0201 0100     		.2byte	0x1
 477 0203 51       		.byte	0x51
 478 0204 00000000 		.4byte	0x0
 479 0208 00000000 		.4byte	0x0
 480              	.LLST18:
 481 020c 00000000 		.4byte	.LVL25
 482 0210 0A000000 		.4byte	.LVL28
 483 0214 0100     		.2byte	0x1
 484 0216 52       		.byte	0x52
 485 0217 0A000000 		.4byte	.LVL28
 486 021b 0D000000 		.4byte	.LVL29-1
 487 021f 0100     		.2byte	0x1
 488 0221 50       		.byte	0x50
 489 0222 0D000000 		.4byte	.LVL29-1
 490 0226 18000000 		.4byte	.LFE123
 491 022a 0100     		.2byte	0x1
 492 022c 54       		.byte	0x54
 493 022d 00000000 		.4byte	0x0
 494 0231 00000000 		.4byte	0x0
 495              	.LLST19:
 496 0235 00000000 		.4byte	.LVL30
 497 0239 02000000 		.4byte	.LVL31
 498 023d 0100     		.2byte	0x1
 499 023f 50       		.byte	0x50
 500 0240 00000000 		.4byte	0x0
 501 0244 00000000 		.4byte	0x0
ARM GAS  C:\Users\DNIEL~1\AppData\Local\Temp\ccsQciza.s 			page 10


 502              		.file 2 "c:\\program files (x86)\\codesourcery\\sourcery g++ lite\\bin\\../lib/gcc/arm-none-eabi/4
 503              		.file 3 "c:\\program files (x86)\\codesourcery\\sourcery g++ lite\\bin\\../lib/gcc/arm-none-eabi/4
 504              		.file 4 "c:\\program files (x86)\\codesourcery\\sourcery g++ lite\\bin\\../lib/gcc/arm-none-eabi/4
 505              		.file 5 "c:\\program files (x86)\\codesourcery\\sourcery g++ lite\\bin\\../lib/gcc/arm-none-eabi/4
 506              		.file 6 "c:\\program files (x86)\\codesourcery\\sourcery g++ lite\\bin\\../lib/gcc/arm-none-eabi/4
 507              		.file 7 "c:\\program files (x86)\\codesourcery\\sourcery g++ lite\\bin\\../lib/gcc/arm-none-eabi/4
 508              		.file 8 "c:\\program files (x86)\\codesourcery\\sourcery g++ lite\\bin\\../lib/gcc/arm-none-eabi/4
 509              		.file 9 "../../../ChibiOS/os/ports/GCC/ARMCMx/chtypes.h"
 510              		.file 10 "../../../ChibiOS/os/kernel/include/chlists.h"
 511              		.file 11 "../../../ChibiOS/os/kernel/include/chthreads.h"
 512              		.file 12 "../../../ChibiOS/os/ports/GCC/ARMCMx/chcore_v7m.h"
 513              		.file 13 "../../../ChibiOS/os/kernel/include/chmtx.h"
 514              		.file 14 "../../../ChibiOS/os/kernel/include/chevents.h"
 515              		.file 15 "../../../ChibiOS/os/kernel/include/chqueues.h"
 516              		.file 16 "../../../ChibiOS/os/hal/platforms/STM32F4xx/stm32f4xx.h"
 517              		.file 17 "../../../ChibiOS/os/hal/include/serial.h"
 518              		.file 18 "../../../ChibiOS/os/ports/common/ARMCMx/CMSIS/include/core_cm4.h"
 519              		.file 19 "../../../ChibiOS/os/hal/platforms/STM32/USARTv1/serial_lld.h"
 520              		.section	.debug_info
 521 0000 54140000 		.4byte	0x1454
 522 0004 0200     		.2byte	0x2
 523 0006 00000000 		.4byte	.Ldebug_abbrev0
 524 000a 04       		.byte	0x4
 525 000b 01       		.uleb128 0x1
 526 000c 4D000000 		.4byte	.LASF247
 527 0010 01       		.byte	0x1
 528 0011 1F000000 		.4byte	.LASF248
 529 0015 8A050000 		.4byte	.LASF249
 530 0019 00000000 		.4byte	0x0
 531 001d 00000000 		.4byte	0x0
 532 0021 00000000 		.4byte	.Ldebug_ranges0+0x0
 533 0025 00000000 		.4byte	.Ldebug_line0
 534 0029 02       		.uleb128 0x2
 535 002a 91020000 		.4byte	.LASF7
 536 002e 02       		.byte	0x2
 537 002f D3       		.byte	0xd3
 538 0030 34000000 		.4byte	0x34
 539 0034 03       		.uleb128 0x3
 540 0035 04       		.byte	0x4
 541 0036 07       		.byte	0x7
 542 0037 BC000000 		.4byte	.LASF0
 543 003b 03       		.uleb128 0x3
 544 003c 01       		.byte	0x1
 545 003d 06       		.byte	0x6
 546 003e 59080000 		.4byte	.LASF1
 547 0042 03       		.uleb128 0x3
 548 0043 01       		.byte	0x1
 549 0044 08       		.byte	0x8
 550 0045 B4070000 		.4byte	.LASF2
 551 0049 03       		.uleb128 0x3
 552 004a 02       		.byte	0x2
 553 004b 05       		.byte	0x5
 554 004c 37060000 		.4byte	.LASF3
 555 0050 03       		.uleb128 0x3
 556 0051 02       		.byte	0x2
 557 0052 07       		.byte	0x7
 558 0053 58050000 		.4byte	.LASF4
ARM GAS  C:\Users\DNIEL~1\AppData\Local\Temp\ccsQciza.s 			page 11


 559 0057 04       		.uleb128 0x4
 560 0058 04       		.byte	0x4
 561 0059 05       		.byte	0x5
 562 005a 696E7400 		.ascii	"int\000"
 563 005e 03       		.uleb128 0x3
 564 005f 08       		.byte	0x8
 565 0060 05       		.byte	0x5
 566 0061 B3030000 		.4byte	.LASF5
 567 0065 03       		.uleb128 0x3
 568 0066 08       		.byte	0x8
 569 0067 07       		.byte	0x7
 570 0068 EE010000 		.4byte	.LASF6
 571 006c 02       		.uleb128 0x2
 572 006d C9070000 		.4byte	.LASF8
 573 0071 03       		.byte	0x3
 574 0072 07       		.byte	0x7
 575 0073 57000000 		.4byte	0x57
 576 0077 02       		.uleb128 0x2
 577 0078 A2080000 		.4byte	.LASF9
 578 007c 04       		.byte	0x4
 579 007d 10       		.byte	0x10
 580 007e 82000000 		.4byte	0x82
 581 0082 03       		.uleb128 0x3
 582 0083 04       		.byte	0x4
 583 0084 05       		.byte	0x5
 584 0085 54060000 		.4byte	.LASF10
 585 0089 02       		.uleb128 0x2
 586 008a 73040000 		.4byte	.LASF11
 587 008e 04       		.byte	0x4
 588 008f 18       		.byte	0x18
 589 0090 49000000 		.4byte	0x49
 590 0094 02       		.uleb128 0x2
 591 0095 EA060000 		.4byte	.LASF12
 592 0099 04       		.byte	0x4
 593 009a 1D       		.byte	0x1d
 594 009b 50000000 		.4byte	0x50
 595 009f 02       		.uleb128 0x2
 596 00a0 72050000 		.4byte	.LASF13
 597 00a4 04       		.byte	0x4
 598 00a5 20       		.byte	0x20
 599 00a6 50000000 		.4byte	0x50
 600 00aa 02       		.uleb128 0x2
 601 00ab 4A010000 		.4byte	.LASF14
 602 00af 04       		.byte	0x4
 603 00b0 2C       		.byte	0x2c
 604 00b1 82000000 		.4byte	0x82
 605 00b5 05       		.uleb128 0x5
 606 00b6 89070000 		.4byte	.LASF15
 607 00ba 02       		.byte	0x2
 608 00bb 6001     		.2byte	0x160
 609 00bd 34000000 		.4byte	0x34
 610 00c1 06       		.uleb128 0x6
 611 00c2 04       		.byte	0x4
 612 00c3 04       		.byte	0x4
 613 00c4 46       		.byte	0x46
 614 00c5 E0000000 		.4byte	0xe0
 615 00c9 07       		.uleb128 0x7
ARM GAS  C:\Users\DNIEL~1\AppData\Local\Temp\ccsQciza.s 			page 12


 616 00ca DA030000 		.4byte	.LASF16
 617 00ce 04       		.byte	0x4
 618 00cf 48       		.byte	0x48
 619 00d0 B5000000 		.4byte	0xb5
 620 00d4 07       		.uleb128 0x7
 621 00d5 A4060000 		.4byte	.LASF17
 622 00d9 04       		.byte	0x4
 623 00da 49       		.byte	0x49
 624 00db E0000000 		.4byte	0xe0
 625 00df 00       		.byte	0x0
 626 00e0 08       		.uleb128 0x8
 627 00e1 42000000 		.4byte	0x42
 628 00e5 F0000000 		.4byte	0xf0
 629 00e9 09       		.uleb128 0x9
 630 00ea 34000000 		.4byte	0x34
 631 00ee 03       		.byte	0x3
 632 00ef 00       		.byte	0x0
 633 00f0 0A       		.uleb128 0xa
 634 00f1 08       		.byte	0x8
 635 00f2 04       		.byte	0x4
 636 00f3 43       		.byte	0x43
 637 00f4 15010000 		.4byte	0x115
 638 00f8 0B       		.uleb128 0xb
 639 00f9 AA010000 		.4byte	.LASF18
 640 00fd 04       		.byte	0x4
 641 00fe 45       		.byte	0x45
 642 00ff 57000000 		.4byte	0x57
 643 0103 02       		.byte	0x2
 644 0104 23       		.byte	0x23
 645 0105 00       		.uleb128 0x0
 646 0106 0B       		.uleb128 0xb
 647 0107 21030000 		.4byte	.LASF19
 648 010b 04       		.byte	0x4
 649 010c 4A       		.byte	0x4a
 650 010d C1000000 		.4byte	0xc1
 651 0111 02       		.byte	0x2
 652 0112 23       		.byte	0x23
 653 0113 04       		.uleb128 0x4
 654 0114 00       		.byte	0x0
 655 0115 02       		.uleb128 0x2
 656 0116 BC040000 		.4byte	.LASF20
 657 011a 04       		.byte	0x4
 658 011b 4B       		.byte	0x4b
 659 011c F0000000 		.4byte	0xf0
 660 0120 02       		.uleb128 0x2
 661 0121 DC040000 		.4byte	.LASF21
 662 0125 04       		.byte	0x4
 663 0126 4F       		.byte	0x4f
 664 0127 6C000000 		.4byte	0x6c
 665 012b 0C       		.uleb128 0xc
 666 012c 04       		.byte	0x4
 667 012d 02       		.uleb128 0x2
 668 012e 2C010000 		.4byte	.LASF22
 669 0132 05       		.byte	0x5
 670 0133 15       		.byte	0x15
 671 0134 38010000 		.4byte	0x138
 672 0138 03       		.uleb128 0x3
ARM GAS  C:\Users\DNIEL~1\AppData\Local\Temp\ccsQciza.s 			page 13


 673 0139 04       		.byte	0x4
 674 013a 07       		.byte	0x7
 675 013b 70070000 		.4byte	.LASF23
 676 013f 0D       		.uleb128 0xd
 677 0140 75010000 		.4byte	.LASF28
 678 0144 18       		.byte	0x18
 679 0145 05       		.byte	0x5
 680 0146 2C       		.byte	0x2c
 681 0147 9E010000 		.4byte	0x19e
 682 014b 0B       		.uleb128 0xb
 683 014c D9020000 		.4byte	.LASF24
 684 0150 05       		.byte	0x5
 685 0151 2E       		.byte	0x2e
 686 0152 9E010000 		.4byte	0x19e
 687 0156 02       		.byte	0x2
 688 0157 23       		.byte	0x23
 689 0158 00       		.uleb128 0x0
 690 0159 0E       		.uleb128 0xe
 691 015a 5F6B00   		.ascii	"_k\000"
 692 015d 05       		.byte	0x5
 693 015e 2F       		.byte	0x2f
 694 015f 57000000 		.4byte	0x57
 695 0163 02       		.byte	0x2
 696 0164 23       		.byte	0x23
 697 0165 04       		.uleb128 0x4
 698 0166 0B       		.uleb128 0xb
 699 0167 71020000 		.4byte	.LASF25
 700 016b 05       		.byte	0x5
 701 016c 2F       		.byte	0x2f
 702 016d 57000000 		.4byte	0x57
 703 0171 02       		.byte	0x2
 704 0172 23       		.byte	0x23
 705 0173 08       		.uleb128 0x8
 706 0174 0B       		.uleb128 0xb
 707 0175 6F060000 		.4byte	.LASF26
 708 0179 05       		.byte	0x5
 709 017a 2F       		.byte	0x2f
 710 017b 57000000 		.4byte	0x57
 711 017f 02       		.byte	0x2
 712 0180 23       		.byte	0x23
 713 0181 0C       		.uleb128 0xc
 714 0182 0B       		.uleb128 0xb
 715 0183 24020000 		.4byte	.LASF27
 716 0187 05       		.byte	0x5
 717 0188 2F       		.byte	0x2f
 718 0189 57000000 		.4byte	0x57
 719 018d 02       		.byte	0x2
 720 018e 23       		.byte	0x23
 721 018f 10       		.uleb128 0x10
 722 0190 0E       		.uleb128 0xe
 723 0191 5F7800   		.ascii	"_x\000"
 724 0194 05       		.byte	0x5
 725 0195 30       		.byte	0x30
 726 0196 A4010000 		.4byte	0x1a4
 727 019a 02       		.byte	0x2
 728 019b 23       		.byte	0x23
 729 019c 14       		.uleb128 0x14
ARM GAS  C:\Users\DNIEL~1\AppData\Local\Temp\ccsQciza.s 			page 14


 730 019d 00       		.byte	0x0
 731 019e 0F       		.uleb128 0xf
 732 019f 04       		.byte	0x4
 733 01a0 3F010000 		.4byte	0x13f
 734 01a4 08       		.uleb128 0x8
 735 01a5 2D010000 		.4byte	0x12d
 736 01a9 B4010000 		.4byte	0x1b4
 737 01ad 09       		.uleb128 0x9
 738 01ae 34000000 		.4byte	0x34
 739 01b2 00       		.byte	0x0
 740 01b3 00       		.byte	0x0
 741 01b4 0D       		.uleb128 0xd
 742 01b5 43070000 		.4byte	.LASF29
 743 01b9 24       		.byte	0x24
 744 01ba 05       		.byte	0x5
 745 01bb 34       		.byte	0x34
 746 01bc 3F020000 		.4byte	0x23f
 747 01c0 0B       		.uleb128 0xb
 748 01c1 9F020000 		.4byte	.LASF30
 749 01c5 05       		.byte	0x5
 750 01c6 36       		.byte	0x36
 751 01c7 57000000 		.4byte	0x57
 752 01cb 02       		.byte	0x2
 753 01cc 23       		.byte	0x23
 754 01cd 00       		.uleb128 0x0
 755 01ce 0B       		.uleb128 0xb
 756 01cf C2010000 		.4byte	.LASF31
 757 01d3 05       		.byte	0x5
 758 01d4 37       		.byte	0x37
 759 01d5 57000000 		.4byte	0x57
 760 01d9 02       		.byte	0x2
 761 01da 23       		.byte	0x23
 762 01db 04       		.uleb128 0x4
 763 01dc 0B       		.uleb128 0xb
 764 01dd 94010000 		.4byte	.LASF32
 765 01e1 05       		.byte	0x5
 766 01e2 38       		.byte	0x38
 767 01e3 57000000 		.4byte	0x57
 768 01e7 02       		.byte	0x2
 769 01e8 23       		.byte	0x23
 770 01e9 08       		.uleb128 0x8
 771 01ea 0B       		.uleb128 0xb
 772 01eb 65030000 		.4byte	.LASF33
 773 01ef 05       		.byte	0x5
 774 01f0 39       		.byte	0x39
 775 01f1 57000000 		.4byte	0x57
 776 01f5 02       		.byte	0x2
 777 01f6 23       		.byte	0x23
 778 01f7 0C       		.uleb128 0xc
 779 01f8 0B       		.uleb128 0xb
 780 01f9 46050000 		.4byte	.LASF34
 781 01fd 05       		.byte	0x5
 782 01fe 3A       		.byte	0x3a
 783 01ff 57000000 		.4byte	0x57
 784 0203 02       		.byte	0x2
 785 0204 23       		.byte	0x23
 786 0205 10       		.uleb128 0x10
ARM GAS  C:\Users\DNIEL~1\AppData\Local\Temp\ccsQciza.s 			page 15


 787 0206 0B       		.uleb128 0xb
 788 0207 B8060000 		.4byte	.LASF35
 789 020b 05       		.byte	0x5
 790 020c 3B       		.byte	0x3b
 791 020d 57000000 		.4byte	0x57
 792 0211 02       		.byte	0x2
 793 0212 23       		.byte	0x23
 794 0213 14       		.uleb128 0x14
 795 0214 0B       		.uleb128 0xb
 796 0215 6B010000 		.4byte	.LASF36
 797 0219 05       		.byte	0x5
 798 021a 3C       		.byte	0x3c
 799 021b 57000000 		.4byte	0x57
 800 021f 02       		.byte	0x2
 801 0220 23       		.byte	0x23
 802 0221 18       		.uleb128 0x18
 803 0222 0B       		.uleb128 0xb
 804 0223 B5020000 		.4byte	.LASF37
 805 0227 05       		.byte	0x5
 806 0228 3D       		.byte	0x3d
 807 0229 57000000 		.4byte	0x57
 808 022d 02       		.byte	0x2
 809 022e 23       		.byte	0x23
 810 022f 1C       		.uleb128 0x1c
 811 0230 0B       		.uleb128 0xb
 812 0231 E5040000 		.4byte	.LASF38
 813 0235 05       		.byte	0x5
 814 0236 3E       		.byte	0x3e
 815 0237 57000000 		.4byte	0x57
 816 023b 02       		.byte	0x2
 817 023c 23       		.byte	0x23
 818 023d 20       		.uleb128 0x20
 819 023e 00       		.byte	0x0
 820 023f 10       		.uleb128 0x10
 821 0240 69000000 		.4byte	.LASF39
 822 0244 0801     		.2byte	0x108
 823 0246 05       		.byte	0x5
 824 0247 47       		.byte	0x47
 825 0248 88020000 		.4byte	0x288
 826 024c 0B       		.uleb128 0xb
 827 024d 51080000 		.4byte	.LASF40
 828 0251 05       		.byte	0x5
 829 0252 48       		.byte	0x48
 830 0253 88020000 		.4byte	0x288
 831 0257 02       		.byte	0x2
 832 0258 23       		.byte	0x23
 833 0259 00       		.uleb128 0x0
 834 025a 0B       		.uleb128 0xb
 835 025b 98070000 		.4byte	.LASF41
 836 025f 05       		.byte	0x5
 837 0260 49       		.byte	0x49
 838 0261 88020000 		.4byte	0x288
 839 0265 03       		.byte	0x3
 840 0266 23       		.byte	0x23
 841 0267 8001     		.uleb128 0x80
 842 0269 0B       		.uleb128 0xb
 843 026a 89080000 		.4byte	.LASF42
ARM GAS  C:\Users\DNIEL~1\AppData\Local\Temp\ccsQciza.s 			page 16


 844 026e 05       		.byte	0x5
 845 026f 4B       		.byte	0x4b
 846 0270 2D010000 		.4byte	0x12d
 847 0274 03       		.byte	0x3
 848 0275 23       		.byte	0x23
 849 0276 8002     		.uleb128 0x100
 850 0278 0B       		.uleb128 0xb
 851 0279 BF080000 		.4byte	.LASF43
 852 027d 05       		.byte	0x5
 853 027e 4E       		.byte	0x4e
 854 027f 2D010000 		.4byte	0x12d
 855 0283 03       		.byte	0x3
 856 0284 23       		.byte	0x23
 857 0285 8402     		.uleb128 0x104
 858 0287 00       		.byte	0x0
 859 0288 08       		.uleb128 0x8
 860 0289 2B010000 		.4byte	0x12b
 861 028d 98020000 		.4byte	0x298
 862 0291 09       		.uleb128 0x9
 863 0292 34000000 		.4byte	0x34
 864 0296 1F       		.byte	0x1f
 865 0297 00       		.byte	0x0
 866 0298 0D       		.uleb128 0xd
 867 0299 E2050000 		.4byte	.LASF44
 868 029d 8C       		.byte	0x8c
 869 029e 05       		.byte	0x5
 870 029f 52       		.byte	0x52
 871 02a0 DE020000 		.4byte	0x2de
 872 02a4 0B       		.uleb128 0xb
 873 02a5 D9020000 		.4byte	.LASF24
 874 02a9 05       		.byte	0x5
 875 02aa 53       		.byte	0x53
 876 02ab DE020000 		.4byte	0x2de
 877 02af 02       		.byte	0x2
 878 02b0 23       		.byte	0x23
 879 02b1 00       		.uleb128 0x0
 880 02b2 0B       		.uleb128 0xb
 881 02b3 FA040000 		.4byte	.LASF45
 882 02b7 05       		.byte	0x5
 883 02b8 54       		.byte	0x54
 884 02b9 57000000 		.4byte	0x57
 885 02bd 02       		.byte	0x2
 886 02be 23       		.byte	0x23
 887 02bf 04       		.uleb128 0x4
 888 02c0 0B       		.uleb128 0xb
 889 02c1 52010000 		.4byte	.LASF46
 890 02c5 05       		.byte	0x5
 891 02c6 55       		.byte	0x55
 892 02c7 E4020000 		.4byte	0x2e4
 893 02cb 02       		.byte	0x2
 894 02cc 23       		.byte	0x23
 895 02cd 08       		.uleb128 0x8
 896 02ce 0B       		.uleb128 0xb
 897 02cf F4030000 		.4byte	.LASF47
 898 02d3 05       		.byte	0x5
 899 02d4 56       		.byte	0x56
 900 02d5 FC020000 		.4byte	0x2fc
ARM GAS  C:\Users\DNIEL~1\AppData\Local\Temp\ccsQciza.s 			page 17


 901 02d9 03       		.byte	0x3
 902 02da 23       		.byte	0x23
 903 02db 8801     		.uleb128 0x88
 904 02dd 00       		.byte	0x0
 905 02de 0F       		.uleb128 0xf
 906 02df 04       		.byte	0x4
 907 02e0 98020000 		.4byte	0x298
 908 02e4 08       		.uleb128 0x8
 909 02e5 F6020000 		.4byte	0x2f6
 910 02e9 F4020000 		.4byte	0x2f4
 911 02ed 09       		.uleb128 0x9
 912 02ee 34000000 		.4byte	0x34
 913 02f2 1F       		.byte	0x1f
 914 02f3 00       		.byte	0x0
 915 02f4 11       		.uleb128 0x11
 916 02f5 01       		.byte	0x1
 917 02f6 0F       		.uleb128 0xf
 918 02f7 04       		.byte	0x4
 919 02f8 F4020000 		.4byte	0x2f4
 920 02fc 0F       		.uleb128 0xf
 921 02fd 04       		.byte	0x4
 922 02fe 3F020000 		.4byte	0x23f
 923 0302 0D       		.uleb128 0xd
 924 0303 83050000 		.4byte	.LASF48
 925 0307 08       		.byte	0x8
 926 0308 05       		.byte	0x5
 927 0309 69       		.byte	0x69
 928 030a 2B030000 		.4byte	0x32b
 929 030e 0B       		.uleb128 0xb
 930 030f 63040000 		.4byte	.LASF49
 931 0313 05       		.byte	0x5
 932 0314 6A       		.byte	0x6a
 933 0315 2B030000 		.4byte	0x32b
 934 0319 02       		.byte	0x2
 935 031a 23       		.byte	0x23
 936 031b 00       		.uleb128 0x0
 937 031c 0B       		.uleb128 0xb
 938 031d 92080000 		.4byte	.LASF50
 939 0321 05       		.byte	0x5
 940 0322 6B       		.byte	0x6b
 941 0323 57000000 		.4byte	0x57
 942 0327 02       		.byte	0x2
 943 0328 23       		.byte	0x23
 944 0329 04       		.uleb128 0x4
 945 032a 00       		.byte	0x0
 946 032b 0F       		.uleb128 0xf
 947 032c 04       		.byte	0x4
 948 032d 42000000 		.4byte	0x42
 949 0331 12       		.uleb128 0x12
 950 0332 6C080000 		.4byte	.LASF51
 951 0336 F0       		.byte	0xf0
 952 0337 05       		.byte	0x5
 953 0338 7B01     		.2byte	0x17b
 954 033a AB040000 		.4byte	0x4ab
 955 033e 13       		.uleb128 0x13
 956 033f F6000000 		.4byte	.LASF52
 957 0343 05       		.byte	0x5
ARM GAS  C:\Users\DNIEL~1\AppData\Local\Temp\ccsQciza.s 			page 18


 958 0344 7F01     		.2byte	0x17f
 959 0346 57000000 		.4byte	0x57
 960 034a 02       		.byte	0x2
 961 034b 23       		.byte	0x23
 962 034c 00       		.uleb128 0x0
 963 034d 13       		.uleb128 0x13
 964 034e 3E040000 		.4byte	.LASF53
 965 0352 05       		.byte	0x5
 966 0353 8401     		.2byte	0x184
 967 0355 1A070000 		.4byte	0x71a
 968 0359 02       		.byte	0x2
 969 035a 23       		.byte	0x23
 970 035b 04       		.uleb128 0x4
 971 035c 13       		.uleb128 0x13
 972 035d 42010000 		.4byte	.LASF54
 973 0361 05       		.byte	0x5
 974 0362 8401     		.2byte	0x184
 975 0364 1A070000 		.4byte	0x71a
 976 0368 02       		.byte	0x2
 977 0369 23       		.byte	0x23
 978 036a 08       		.uleb128 0x8
 979 036b 13       		.uleb128 0x13
 980 036c F9080000 		.4byte	.LASF55
 981 0370 05       		.byte	0x5
 982 0371 8401     		.2byte	0x184
 983 0373 1A070000 		.4byte	0x71a
 984 0377 02       		.byte	0x2
 985 0378 23       		.byte	0x23
 986 0379 0C       		.uleb128 0xc
 987 037a 13       		.uleb128 0x13
 988 037b BF020000 		.4byte	.LASF56
 989 037f 05       		.byte	0x5
 990 0380 8601     		.2byte	0x186
 991 0382 57000000 		.4byte	0x57
 992 0386 02       		.byte	0x2
 993 0387 23       		.byte	0x23
 994 0388 10       		.uleb128 0x10
 995 0389 13       		.uleb128 0x13
 996 038a 66020000 		.4byte	.LASF57
 997 038e 05       		.byte	0x5
 998 038f 8801     		.2byte	0x188
 999 0391 2A060000 		.4byte	0x62a
 1000 0395 02       		.byte	0x2
 1001 0396 23       		.byte	0x23
 1002 0397 14       		.uleb128 0x14
 1003 0398 13       		.uleb128 0x13
 1004 0399 26040000 		.4byte	.LASF58
 1005 039d 05       		.byte	0x5
 1006 039e 8A01     		.2byte	0x18a
 1007 03a0 57000000 		.4byte	0x57
 1008 03a4 02       		.byte	0x2
 1009 03a5 23       		.byte	0x23
 1010 03a6 18       		.uleb128 0x18
 1011 03a7 13       		.uleb128 0x13
 1012 03a8 92060000 		.4byte	.LASF59
 1013 03ac 05       		.byte	0x5
 1014 03ad 8C01     		.2byte	0x18c
ARM GAS  C:\Users\DNIEL~1\AppData\Local\Temp\ccsQciza.s 			page 19


 1015 03af 57000000 		.4byte	0x57
 1016 03b3 02       		.byte	0x2
 1017 03b4 23       		.byte	0x23
 1018 03b5 1C       		.uleb128 0x1c
 1019 03b6 13       		.uleb128 0x13
 1020 03b7 75060000 		.4byte	.LASF60
 1021 03bb 05       		.byte	0x5
 1022 03bc 8D01     		.2byte	0x18d
 1023 03be 5C060000 		.4byte	0x65c
 1024 03c2 02       		.byte	0x2
 1025 03c3 23       		.byte	0x23
 1026 03c4 20       		.uleb128 0x20
 1027 03c5 14       		.uleb128 0x14
 1028 03c6 5F6D7000 		.ascii	"_mp\000"
 1029 03ca 05       		.byte	0x5
 1030 03cb 8F01     		.2byte	0x18f
 1031 03cd 8D080000 		.4byte	0x88d
 1032 03d1 02       		.byte	0x2
 1033 03d2 23       		.byte	0x23
 1034 03d3 24       		.uleb128 0x24
 1035 03d4 13       		.uleb128 0x13
 1036 03d5 B2040000 		.4byte	.LASF61
 1037 03d9 05       		.byte	0x5
 1038 03da 9101     		.2byte	0x191
 1039 03dc 9F080000 		.4byte	0x89f
 1040 03e0 02       		.byte	0x2
 1041 03e1 23       		.byte	0x23
 1042 03e2 28       		.uleb128 0x28
 1043 03e3 13       		.uleb128 0x13
 1044 03e4 45040000 		.4byte	.LASF62
 1045 03e8 05       		.byte	0x5
 1046 03e9 9301     		.2byte	0x193
 1047 03eb 57000000 		.4byte	0x57
 1048 03ef 02       		.byte	0x2
 1049 03f0 23       		.byte	0x23
 1050 03f1 2C       		.uleb128 0x2c
 1051 03f2 13       		.uleb128 0x13
 1052 03f3 FB060000 		.4byte	.LASF63
 1053 03f7 05       		.byte	0x5
 1054 03f8 9601     		.2byte	0x196
 1055 03fa 57000000 		.4byte	0x57
 1056 03fe 02       		.byte	0x2
 1057 03ff 23       		.byte	0x23
 1058 0400 30       		.uleb128 0x30
 1059 0401 13       		.uleb128 0x13
 1060 0402 AC070000 		.4byte	.LASF64
 1061 0406 05       		.byte	0x5
 1062 0407 9701     		.2byte	0x197
 1063 0409 2A060000 		.4byte	0x62a
 1064 040d 02       		.byte	0x2
 1065 040e 23       		.byte	0x23
 1066 040f 34       		.uleb128 0x34
 1067 0410 13       		.uleb128 0x13
 1068 0411 8F000000 		.4byte	.LASF65
 1069 0415 05       		.byte	0x5
 1070 0416 9901     		.2byte	0x199
 1071 0418 A5080000 		.4byte	0x8a5
ARM GAS  C:\Users\DNIEL~1\AppData\Local\Temp\ccsQciza.s 			page 20


 1072 041c 02       		.byte	0x2
 1073 041d 23       		.byte	0x23
 1074 041e 38       		.uleb128 0x38
 1075 041f 13       		.uleb128 0x13
 1076 0420 DB060000 		.4byte	.LASF66
 1077 0424 05       		.byte	0x5
 1078 0425 9A01     		.2byte	0x19a
 1079 0427 AB080000 		.4byte	0x8ab
 1080 042b 02       		.byte	0x2
 1081 042c 23       		.byte	0x23
 1082 042d 3C       		.uleb128 0x3c
 1083 042e 13       		.uleb128 0x13
 1084 042f A8020000 		.4byte	.LASF67
 1085 0433 05       		.byte	0x5
 1086 0434 9B01     		.2byte	0x19b
 1087 0436 2A060000 		.4byte	0x62a
 1088 043a 02       		.byte	0x2
 1089 043b 23       		.byte	0x23
 1090 043c 40       		.uleb128 0x40
 1091 043d 13       		.uleb128 0x13
 1092 043e 6F030000 		.4byte	.LASF68
 1093 0442 05       		.byte	0x5
 1094 0443 9E01     		.2byte	0x19e
 1095 0445 BD080000 		.4byte	0x8bd
 1096 0449 02       		.byte	0x2
 1097 044a 23       		.byte	0x23
 1098 044b 44       		.uleb128 0x44
 1099 044c 13       		.uleb128 0x13
 1100 044d E2050000 		.4byte	.LASF44
 1101 0451 05       		.byte	0x5
 1102 0452 A101     		.2byte	0x1a1
 1103 0454 DE020000 		.4byte	0x2de
 1104 0458 02       		.byte	0x2
 1105 0459 23       		.byte	0x23
 1106 045a 48       		.uleb128 0x48
 1107 045b 13       		.uleb128 0x13
 1108 045c 88030000 		.4byte	.LASF69
 1109 0460 05       		.byte	0x5
 1110 0461 A201     		.2byte	0x1a2
 1111 0463 98020000 		.4byte	0x298
 1112 0467 02       		.byte	0x2
 1113 0468 23       		.byte	0x23
 1114 0469 4C       		.uleb128 0x4c
 1115 046a 13       		.uleb128 0x13
 1116 046b 13080000 		.4byte	.LASF70
 1117 046f 05       		.byte	0x5
 1118 0470 A401     		.2byte	0x1a4
 1119 0472 D9060000 		.4byte	0x6d9
 1120 0476 03       		.byte	0x3
 1121 0477 23       		.byte	0x23
 1122 0478 D801     		.uleb128 0xd8
 1123 047a 13       		.uleb128 0x13
 1124 047b 6A060000 		.4byte	.LASF71
 1125 047f 05       		.byte	0x5
 1126 0480 A501     		.2byte	0x1a5
 1127 0482 1A070000 		.4byte	0x71a
 1128 0486 03       		.byte	0x3
ARM GAS  C:\Users\DNIEL~1\AppData\Local\Temp\ccsQciza.s 			page 21


 1129 0487 23       		.byte	0x23
 1130 0488 E401     		.uleb128 0xe4
 1131 048a 13       		.uleb128 0x13
 1132 048b 19000000 		.4byte	.LASF72
 1133 048f 05       		.byte	0x5
 1134 0490 A601     		.2byte	0x1a6
 1135 0492 C9080000 		.4byte	0x8c9
 1136 0496 03       		.byte	0x3
 1137 0497 23       		.byte	0x23
 1138 0498 E801     		.uleb128 0xe8
 1139 049a 13       		.uleb128 0x13
 1140 049b B0000000 		.4byte	.LASF73
 1141 049f 05       		.byte	0x5
 1142 04a0 A701     		.2byte	0x1a7
 1143 04a2 2A060000 		.4byte	0x62a
 1144 04a6 03       		.byte	0x3
 1145 04a7 23       		.byte	0x23
 1146 04a8 EC01     		.uleb128 0xec
 1147 04aa 00       		.byte	0x0
 1148 04ab 0F       		.uleb128 0xf
 1149 04ac 04       		.byte	0x4
 1150 04ad 31030000 		.4byte	0x331
 1151 04b1 0D       		.uleb128 0xd
 1152 04b2 1C020000 		.4byte	.LASF74
 1153 04b6 68       		.byte	0x68
 1154 04b7 05       		.byte	0x5
 1155 04b8 B3       		.byte	0xb3
 1156 04b9 0B060000 		.4byte	0x60b
 1157 04bd 0E       		.uleb128 0xe
 1158 04be 5F7000   		.ascii	"_p\000"
 1159 04c1 05       		.byte	0x5
 1160 04c2 B4       		.byte	0xb4
 1161 04c3 2B030000 		.4byte	0x32b
 1162 04c7 02       		.byte	0x2
 1163 04c8 23       		.byte	0x23
 1164 04c9 00       		.uleb128 0x0
 1165 04ca 0E       		.uleb128 0xe
 1166 04cb 5F7200   		.ascii	"_r\000"
 1167 04ce 05       		.byte	0x5
 1168 04cf B5       		.byte	0xb5
 1169 04d0 57000000 		.4byte	0x57
 1170 04d4 02       		.byte	0x2
 1171 04d5 23       		.byte	0x23
 1172 04d6 04       		.uleb128 0x4
 1173 04d7 0E       		.uleb128 0xe
 1174 04d8 5F7700   		.ascii	"_w\000"
 1175 04db 05       		.byte	0x5
 1176 04dc B6       		.byte	0xb6
 1177 04dd 57000000 		.4byte	0x57
 1178 04e1 02       		.byte	0x2
 1179 04e2 23       		.byte	0x23
 1180 04e3 08       		.uleb128 0x8
 1181 04e4 0B       		.uleb128 0xb
 1182 04e5 DD000000 		.4byte	.LASF75
 1183 04e9 05       		.byte	0x5
 1184 04ea B7       		.byte	0xb7
 1185 04eb 49000000 		.4byte	0x49
ARM GAS  C:\Users\DNIEL~1\AppData\Local\Temp\ccsQciza.s 			page 22


 1186 04ef 02       		.byte	0x2
 1187 04f0 23       		.byte	0x23
 1188 04f1 0C       		.uleb128 0xc
 1189 04f2 0B       		.uleb128 0xb
 1190 04f3 A4040000 		.4byte	.LASF76
 1191 04f7 05       		.byte	0x5
 1192 04f8 B8       		.byte	0xb8
 1193 04f9 49000000 		.4byte	0x49
 1194 04fd 02       		.byte	0x2
 1195 04fe 23       		.byte	0x23
 1196 04ff 0E       		.uleb128 0xe
 1197 0500 0E       		.uleb128 0xe
 1198 0501 5F626600 		.ascii	"_bf\000"
 1199 0505 05       		.byte	0x5
 1200 0506 B9       		.byte	0xb9
 1201 0507 02030000 		.4byte	0x302
 1202 050b 02       		.byte	0x2
 1203 050c 23       		.byte	0x23
 1204 050d 10       		.uleb128 0x10
 1205 050e 0B       		.uleb128 0xb
 1206 050f D4000000 		.4byte	.LASF77
 1207 0513 05       		.byte	0x5
 1208 0514 BA       		.byte	0xba
 1209 0515 57000000 		.4byte	0x57
 1210 0519 02       		.byte	0x2
 1211 051a 23       		.byte	0x23
 1212 051b 18       		.uleb128 0x18
 1213 051c 0B       		.uleb128 0xb
 1214 051d 8C060000 		.4byte	.LASF78
 1215 0521 05       		.byte	0x5
 1216 0522 BD       		.byte	0xbd
 1217 0523 AB040000 		.4byte	0x4ab
 1218 0527 02       		.byte	0x2
 1219 0528 23       		.byte	0x23
 1220 0529 1C       		.uleb128 0x1c
 1221 052a 0B       		.uleb128 0xb
 1222 052b 57010000 		.4byte	.LASF79
 1223 052f 05       		.byte	0x5
 1224 0530 C1       		.byte	0xc1
 1225 0531 2B010000 		.4byte	0x12b
 1226 0535 02       		.byte	0x2
 1227 0536 23       		.byte	0x23
 1228 0537 20       		.uleb128 0x20
 1229 0538 0B       		.uleb128 0xb
 1230 0539 E0070000 		.4byte	.LASF80
 1231 053d 05       		.byte	0x5
 1232 053e C3       		.byte	0xc3
 1233 053f 37060000 		.4byte	0x637
 1234 0543 02       		.byte	0x2
 1235 0544 23       		.byte	0x23
 1236 0545 24       		.uleb128 0x24
 1237 0546 0B       		.uleb128 0xb
 1238 0547 C4050000 		.4byte	.LASF81
 1239 054b 05       		.byte	0x5
 1240 054c C5       		.byte	0xc5
 1241 054d 67060000 		.4byte	0x667
 1242 0551 02       		.byte	0x2
ARM GAS  C:\Users\DNIEL~1\AppData\Local\Temp\ccsQciza.s 			page 23


 1243 0552 23       		.byte	0x23
 1244 0553 28       		.uleb128 0x28
 1245 0554 0B       		.uleb128 0xb
 1246 0555 F3080000 		.4byte	.LASF82
 1247 0559 05       		.byte	0x5
 1248 055a C7       		.byte	0xc7
 1249 055b 8C060000 		.4byte	0x68c
 1250 055f 02       		.byte	0x2
 1251 0560 23       		.byte	0x23
 1252 0561 2C       		.uleb128 0x2c
 1253 0562 0B       		.uleb128 0xb
 1254 0563 0D040000 		.4byte	.LASF83
 1255 0567 05       		.byte	0x5
 1256 0568 C8       		.byte	0xc8
 1257 0569 A7060000 		.4byte	0x6a7
 1258 056d 02       		.byte	0x2
 1259 056e 23       		.byte	0x23
 1260 056f 30       		.uleb128 0x30
 1261 0570 0E       		.uleb128 0xe
 1262 0571 5F756200 		.ascii	"_ub\000"
 1263 0575 05       		.byte	0x5
 1264 0576 CB       		.byte	0xcb
 1265 0577 02030000 		.4byte	0x302
 1266 057b 02       		.byte	0x2
 1267 057c 23       		.byte	0x23
 1268 057d 34       		.uleb128 0x34
 1269 057e 0E       		.uleb128 0xe
 1270 057f 5F757000 		.ascii	"_up\000"
 1271 0583 05       		.byte	0x5
 1272 0584 CC       		.byte	0xcc
 1273 0585 2B030000 		.4byte	0x32b
 1274 0589 02       		.byte	0x2
 1275 058a 23       		.byte	0x23
 1276 058b 3C       		.uleb128 0x3c
 1277 058c 0E       		.uleb128 0xe
 1278 058d 5F757200 		.ascii	"_ur\000"
 1279 0591 05       		.byte	0x5
 1280 0592 CD       		.byte	0xcd
 1281 0593 57000000 		.4byte	0x57
 1282 0597 02       		.byte	0x2
 1283 0598 23       		.byte	0x23
 1284 0599 40       		.uleb128 0x40
 1285 059a 0B       		.uleb128 0xb
 1286 059b 49020000 		.4byte	.LASF84
 1287 059f 05       		.byte	0x5
 1288 05a0 D0       		.byte	0xd0
 1289 05a1 AD060000 		.4byte	0x6ad
 1290 05a5 02       		.byte	0x2
 1291 05a6 23       		.byte	0x23
 1292 05a7 44       		.uleb128 0x44
 1293 05a8 0B       		.uleb128 0xb
 1294 05a9 A9080000 		.4byte	.LASF85
 1295 05ad 05       		.byte	0x5
 1296 05ae D1       		.byte	0xd1
 1297 05af BD060000 		.4byte	0x6bd
 1298 05b3 02       		.byte	0x2
 1299 05b4 23       		.byte	0x23
ARM GAS  C:\Users\DNIEL~1\AppData\Local\Temp\ccsQciza.s 			page 24


 1300 05b5 47       		.uleb128 0x47
 1301 05b6 0E       		.uleb128 0xe
 1302 05b7 5F6C6200 		.ascii	"_lb\000"
 1303 05bb 05       		.byte	0x5
 1304 05bc D4       		.byte	0xd4
 1305 05bd 02030000 		.4byte	0x302
 1306 05c1 02       		.byte	0x2
 1307 05c2 23       		.byte	0x23
 1308 05c3 48       		.uleb128 0x48
 1309 05c4 0B       		.uleb128 0xb
 1310 05c5 30070000 		.4byte	.LASF86
 1311 05c9 05       		.byte	0x5
 1312 05ca D7       		.byte	0xd7
 1313 05cb 57000000 		.4byte	0x57
 1314 05cf 02       		.byte	0x2
 1315 05d0 23       		.byte	0x23
 1316 05d1 50       		.uleb128 0x50
 1317 05d2 0B       		.uleb128 0xb
 1318 05d3 41020000 		.4byte	.LASF87
 1319 05d7 05       		.byte	0x5
 1320 05d8 D8       		.byte	0xd8
 1321 05d9 57000000 		.4byte	0x57
 1322 05dd 02       		.byte	0x2
 1323 05de 23       		.byte	0x23
 1324 05df 54       		.uleb128 0x54
 1325 05e0 0B       		.uleb128 0xb
 1326 05e1 4D070000 		.4byte	.LASF88
 1327 05e5 05       		.byte	0x5
 1328 05e6 DF       		.byte	0xdf
 1329 05e7 20010000 		.4byte	0x120
 1330 05eb 02       		.byte	0x2
 1331 05ec 23       		.byte	0x23
 1332 05ed 58       		.uleb128 0x58
 1333 05ee 0B       		.uleb128 0xb
 1334 05ef 23010000 		.4byte	.LASF89
 1335 05f3 05       		.byte	0x5
 1336 05f4 E1       		.byte	0xe1
 1337 05f5 15010000 		.4byte	0x115
 1338 05f9 02       		.byte	0x2
 1339 05fa 23       		.byte	0x23
 1340 05fb 5C       		.uleb128 0x5c
 1341 05fc 0B       		.uleb128 0xb
 1342 05fd B7080000 		.4byte	.LASF90
 1343 0601 05       		.byte	0x5
 1344 0602 E2       		.byte	0xe2
 1345 0603 57000000 		.4byte	0x57
 1346 0607 02       		.byte	0x2
 1347 0608 23       		.byte	0x23
 1348 0609 64       		.uleb128 0x64
 1349 060a 00       		.byte	0x0
 1350 060b 15       		.uleb128 0x15
 1351 060c 01       		.byte	0x1
 1352 060d 57000000 		.4byte	0x57
 1353 0611 2A060000 		.4byte	0x62a
 1354 0615 16       		.uleb128 0x16
 1355 0616 AB040000 		.4byte	0x4ab
 1356 061a 16       		.uleb128 0x16
ARM GAS  C:\Users\DNIEL~1\AppData\Local\Temp\ccsQciza.s 			page 25


 1357 061b 2B010000 		.4byte	0x12b
 1358 061f 16       		.uleb128 0x16
 1359 0620 2A060000 		.4byte	0x62a
 1360 0624 16       		.uleb128 0x16
 1361 0625 57000000 		.4byte	0x57
 1362 0629 00       		.byte	0x0
 1363 062a 0F       		.uleb128 0xf
 1364 062b 04       		.byte	0x4
 1365 062c 30060000 		.4byte	0x630
 1366 0630 03       		.uleb128 0x3
 1367 0631 01       		.byte	0x1
 1368 0632 08       		.byte	0x8
 1369 0633 60030000 		.4byte	.LASF91
 1370 0637 0F       		.uleb128 0xf
 1371 0638 04       		.byte	0x4
 1372 0639 0B060000 		.4byte	0x60b
 1373 063d 15       		.uleb128 0x15
 1374 063e 01       		.byte	0x1
 1375 063f 57000000 		.4byte	0x57
 1376 0643 5C060000 		.4byte	0x65c
 1377 0647 16       		.uleb128 0x16
 1378 0648 AB040000 		.4byte	0x4ab
 1379 064c 16       		.uleb128 0x16
 1380 064d 2B010000 		.4byte	0x12b
 1381 0651 16       		.uleb128 0x16
 1382 0652 5C060000 		.4byte	0x65c
 1383 0656 16       		.uleb128 0x16
 1384 0657 57000000 		.4byte	0x57
 1385 065b 00       		.byte	0x0
 1386 065c 0F       		.uleb128 0xf
 1387 065d 04       		.byte	0x4
 1388 065e 62060000 		.4byte	0x662
 1389 0662 17       		.uleb128 0x17
 1390 0663 30060000 		.4byte	0x630
 1391 0667 0F       		.uleb128 0xf
 1392 0668 04       		.byte	0x4
 1393 0669 3D060000 		.4byte	0x63d
 1394 066d 15       		.uleb128 0x15
 1395 066e 01       		.byte	0x1
 1396 066f AA000000 		.4byte	0xaa
 1397 0673 8C060000 		.4byte	0x68c
 1398 0677 16       		.uleb128 0x16
 1399 0678 AB040000 		.4byte	0x4ab
 1400 067c 16       		.uleb128 0x16
 1401 067d 2B010000 		.4byte	0x12b
 1402 0681 16       		.uleb128 0x16
 1403 0682 AA000000 		.4byte	0xaa
 1404 0686 16       		.uleb128 0x16
 1405 0687 57000000 		.4byte	0x57
 1406 068b 00       		.byte	0x0
 1407 068c 0F       		.uleb128 0xf
 1408 068d 04       		.byte	0x4
 1409 068e 6D060000 		.4byte	0x66d
 1410 0692 15       		.uleb128 0x15
 1411 0693 01       		.byte	0x1
 1412 0694 57000000 		.4byte	0x57
 1413 0698 A7060000 		.4byte	0x6a7
ARM GAS  C:\Users\DNIEL~1\AppData\Local\Temp\ccsQciza.s 			page 26


 1414 069c 16       		.uleb128 0x16
 1415 069d AB040000 		.4byte	0x4ab
 1416 06a1 16       		.uleb128 0x16
 1417 06a2 2B010000 		.4byte	0x12b
 1418 06a6 00       		.byte	0x0
 1419 06a7 0F       		.uleb128 0xf
 1420 06a8 04       		.byte	0x4
 1421 06a9 92060000 		.4byte	0x692
 1422 06ad 08       		.uleb128 0x8
 1423 06ae 42000000 		.4byte	0x42
 1424 06b2 BD060000 		.4byte	0x6bd
 1425 06b6 09       		.uleb128 0x9
 1426 06b7 34000000 		.4byte	0x34
 1427 06bb 02       		.byte	0x2
 1428 06bc 00       		.byte	0x0
 1429 06bd 08       		.uleb128 0x8
 1430 06be 42000000 		.4byte	0x42
 1431 06c2 CD060000 		.4byte	0x6cd
 1432 06c6 09       		.uleb128 0x9
 1433 06c7 34000000 		.4byte	0x34
 1434 06cb 00       		.byte	0x0
 1435 06cc 00       		.byte	0x0
 1436 06cd 05       		.uleb128 0x5
 1437 06ce 3A020000 		.4byte	.LASF92
 1438 06d2 05       		.byte	0x5
 1439 06d3 1E01     		.2byte	0x11e
 1440 06d5 B1040000 		.4byte	0x4b1
 1441 06d9 12       		.uleb128 0x12
 1442 06da 0D080000 		.4byte	.LASF93
 1443 06de 0C       		.byte	0xc
 1444 06df 05       		.byte	0x5
 1445 06e0 2201     		.2byte	0x122
 1446 06e2 14070000 		.4byte	0x714
 1447 06e6 13       		.uleb128 0x13
 1448 06e7 D9020000 		.4byte	.LASF24
 1449 06eb 05       		.byte	0x5
 1450 06ec 2401     		.2byte	0x124
 1451 06ee 14070000 		.4byte	0x714
 1452 06f2 02       		.byte	0x2
 1453 06f3 23       		.byte	0x23
 1454 06f4 00       		.uleb128 0x0
 1455 06f5 13       		.uleb128 0x13
 1456 06f6 82070000 		.4byte	.LASF94
 1457 06fa 05       		.byte	0x5
 1458 06fb 2501     		.2byte	0x125
 1459 06fd 57000000 		.4byte	0x57
 1460 0701 02       		.byte	0x2
 1461 0702 23       		.byte	0x23
 1462 0703 04       		.uleb128 0x4
 1463 0704 13       		.uleb128 0x13
 1464 0705 01090000 		.4byte	.LASF95
 1465 0709 05       		.byte	0x5
 1466 070a 2601     		.2byte	0x126
 1467 070c 1A070000 		.4byte	0x71a
 1468 0710 02       		.byte	0x2
 1469 0711 23       		.byte	0x23
 1470 0712 08       		.uleb128 0x8
ARM GAS  C:\Users\DNIEL~1\AppData\Local\Temp\ccsQciza.s 			page 27


 1471 0713 00       		.byte	0x0
 1472 0714 0F       		.uleb128 0xf
 1473 0715 04       		.byte	0x4
 1474 0716 D9060000 		.4byte	0x6d9
 1475 071a 0F       		.uleb128 0xf
 1476 071b 04       		.byte	0x4
 1477 071c CD060000 		.4byte	0x6cd
 1478 0720 12       		.uleb128 0x12
 1479 0721 14020000 		.4byte	.LASF96
 1480 0725 18       		.byte	0x18
 1481 0726 05       		.byte	0x5
 1482 0727 3E01     		.2byte	0x13e
 1483 0729 6A070000 		.4byte	0x76a
 1484 072d 13       		.uleb128 0x13
 1485 072e D0080000 		.4byte	.LASF97
 1486 0732 05       		.byte	0x5
 1487 0733 3F01     		.2byte	0x13f
 1488 0735 6A070000 		.4byte	0x76a
 1489 0739 02       		.byte	0x2
 1490 073a 23       		.byte	0x23
 1491 073b 00       		.uleb128 0x0
 1492 073c 13       		.uleb128 0x13
 1493 073d 7B040000 		.4byte	.LASF98
 1494 0741 05       		.byte	0x5
 1495 0742 4001     		.2byte	0x140
 1496 0744 6A070000 		.4byte	0x76a
 1497 0748 02       		.byte	0x2
 1498 0749 23       		.byte	0x23
 1499 074a 06       		.uleb128 0x6
 1500 074b 13       		.uleb128 0x13
 1501 074c DB070000 		.4byte	.LASF99
 1502 0750 05       		.byte	0x5
 1503 0751 4101     		.2byte	0x141
 1504 0753 50000000 		.4byte	0x50
 1505 0757 02       		.byte	0x2
 1506 0758 23       		.byte	0x23
 1507 0759 0C       		.uleb128 0xc
 1508 075a 13       		.uleb128 0x13
 1509 075b D6080000 		.4byte	.LASF100
 1510 075f 05       		.byte	0x5
 1511 0760 4401     		.2byte	0x144
 1512 0762 65000000 		.4byte	0x65
 1513 0766 02       		.byte	0x2
 1514 0767 23       		.byte	0x23
 1515 0768 10       		.uleb128 0x10
 1516 0769 00       		.byte	0x0
 1517 076a 08       		.uleb128 0x8
 1518 076b 50000000 		.4byte	0x50
 1519 076f 7A070000 		.4byte	0x77a
 1520 0773 09       		.uleb128 0x9
 1521 0774 34000000 		.4byte	0x34
 1522 0778 02       		.byte	0x2
 1523 0779 00       		.byte	0x0
 1524 077a 12       		.uleb128 0x12
 1525 077b AB060000 		.4byte	.LASF101
 1526 077f 10       		.byte	0x10
 1527 0780 05       		.byte	0x5
ARM GAS  C:\Users\DNIEL~1\AppData\Local\Temp\ccsQciza.s 			page 28


 1528 0781 5F01     		.2byte	0x15f
 1529 0783 C4070000 		.4byte	0x7c4
 1530 0787 13       		.uleb128 0x13
 1531 0788 7D010000 		.4byte	.LASF102
 1532 078c 05       		.byte	0x5
 1533 078d 6201     		.2byte	0x162
 1534 078f 9E010000 		.4byte	0x19e
 1535 0793 02       		.byte	0x2
 1536 0794 23       		.byte	0x23
 1537 0795 00       		.uleb128 0x0
 1538 0796 13       		.uleb128 0x13
 1539 0797 A9030000 		.4byte	.LASF103
 1540 079b 05       		.byte	0x5
 1541 079c 6301     		.2byte	0x163
 1542 079e 57000000 		.4byte	0x57
 1543 07a2 02       		.byte	0x2
 1544 07a3 23       		.byte	0x23
 1545 07a4 04       		.uleb128 0x4
 1546 07a5 13       		.uleb128 0x13
 1547 07a6 29030000 		.4byte	.LASF104
 1548 07aa 05       		.byte	0x5
 1549 07ab 6401     		.2byte	0x164
 1550 07ad 9E010000 		.4byte	0x19e
 1551 07b1 02       		.byte	0x2
 1552 07b2 23       		.byte	0x23
 1553 07b3 08       		.uleb128 0x8
 1554 07b4 13       		.uleb128 0x13
 1555 07b5 69040000 		.4byte	.LASF105
 1556 07b9 05       		.byte	0x5
 1557 07ba 6501     		.2byte	0x165
 1558 07bc C4070000 		.4byte	0x7c4
 1559 07c0 02       		.byte	0x2
 1560 07c1 23       		.byte	0x23
 1561 07c2 0C       		.uleb128 0xc
 1562 07c3 00       		.byte	0x0
 1563 07c4 0F       		.uleb128 0xf
 1564 07c5 04       		.byte	0x4
 1565 07c6 9E010000 		.4byte	0x19e
 1566 07ca 12       		.uleb128 0x12
 1567 07cb C2060000 		.4byte	.LASF106
 1568 07cf 50       		.byte	0x50
 1569 07d0 05       		.byte	0x5
 1570 07d1 6901     		.2byte	0x169
 1571 07d3 7D080000 		.4byte	0x87d
 1572 07d7 13       		.uleb128 0x13
 1573 07d8 CE060000 		.4byte	.LASF107
 1574 07dc 05       		.byte	0x5
 1575 07dd 6C01     		.2byte	0x16c
 1576 07df 2A060000 		.4byte	0x62a
 1577 07e3 02       		.byte	0x2
 1578 07e4 23       		.byte	0x23
 1579 07e5 00       		.uleb128 0x0
 1580 07e6 13       		.uleb128 0x13
 1581 07e7 46030000 		.4byte	.LASF108
 1582 07eb 05       		.byte	0x5
 1583 07ec 6D01     		.2byte	0x16d
 1584 07ee 15010000 		.4byte	0x115
ARM GAS  C:\Users\DNIEL~1\AppData\Local\Temp\ccsQciza.s 			page 29


 1585 07f2 02       		.byte	0x2
 1586 07f3 23       		.byte	0x23
 1587 07f4 04       		.uleb128 0x4
 1588 07f5 13       		.uleb128 0x13
 1589 07f6 77000000 		.4byte	.LASF109
 1590 07fa 05       		.byte	0x5
 1591 07fb 6E01     		.2byte	0x16e
 1592 07fd 15010000 		.4byte	0x115
 1593 0801 02       		.byte	0x2
 1594 0802 23       		.byte	0x23
 1595 0803 0C       		.uleb128 0xc
 1596 0804 13       		.uleb128 0x13
 1597 0805 3C080000 		.4byte	.LASF110
 1598 0809 05       		.byte	0x5
 1599 080a 6F01     		.2byte	0x16f
 1600 080c 15010000 		.4byte	0x115
 1601 0810 02       		.byte	0x2
 1602 0811 23       		.byte	0x23
 1603 0812 14       		.uleb128 0x14
 1604 0813 13       		.uleb128 0x13
 1605 0814 08070000 		.4byte	.LASF111
 1606 0818 05       		.byte	0x5
 1607 0819 7001     		.2byte	0x170
 1608 081b 7D080000 		.4byte	0x87d
 1609 081f 02       		.byte	0x2
 1610 0820 23       		.byte	0x23
 1611 0821 1C       		.uleb128 0x1c
 1612 0822 13       		.uleb128 0x13
 1613 0823 1B080000 		.4byte	.LASF112
 1614 0827 05       		.byte	0x5
 1615 0828 7101     		.2byte	0x171
 1616 082a 57000000 		.4byte	0x57
 1617 082e 02       		.byte	0x2
 1618 082f 23       		.byte	0x23
 1619 0830 24       		.uleb128 0x24
 1620 0831 13       		.uleb128 0x13
 1621 0832 34010000 		.4byte	.LASF113
 1622 0836 05       		.byte	0x5
 1623 0837 7201     		.2byte	0x172
 1624 0839 15010000 		.4byte	0x115
 1625 083d 02       		.byte	0x2
 1626 083e 23       		.byte	0x23
 1627 083f 28       		.uleb128 0x28
 1628 0840 13       		.uleb128 0x13
 1629 0841 79030000 		.4byte	.LASF114
 1630 0845 05       		.byte	0x5
 1631 0846 7301     		.2byte	0x173
 1632 0848 15010000 		.4byte	0x115
 1633 084c 02       		.byte	0x2
 1634 084d 23       		.byte	0x23
 1635 084e 30       		.uleb128 0x30
 1636 084f 13       		.uleb128 0x13
 1637 0850 DD010000 		.4byte	.LASF115
 1638 0854 05       		.byte	0x5
 1639 0855 7401     		.2byte	0x174
 1640 0857 15010000 		.4byte	0x115
 1641 085b 02       		.byte	0x2
ARM GAS  C:\Users\DNIEL~1\AppData\Local\Temp\ccsQciza.s 			page 30


 1642 085c 23       		.byte	0x23
 1643 085d 38       		.uleb128 0x38
 1644 085e 13       		.uleb128 0x13
 1645 085f 8F040000 		.4byte	.LASF116
 1646 0863 05       		.byte	0x5
 1647 0864 7501     		.2byte	0x175
 1648 0866 15010000 		.4byte	0x115
 1649 086a 02       		.byte	0x2
 1650 086b 23       		.byte	0x23
 1651 086c 40       		.uleb128 0x40
 1652 086d 13       		.uleb128 0x13
 1653 086e 35030000 		.4byte	.LASF117
 1654 0872 05       		.byte	0x5
 1655 0873 7601     		.2byte	0x176
 1656 0875 15010000 		.4byte	0x115
 1657 0879 02       		.byte	0x2
 1658 087a 23       		.byte	0x23
 1659 087b 48       		.uleb128 0x48
 1660 087c 00       		.byte	0x0
 1661 087d 08       		.uleb128 0x8
 1662 087e 30060000 		.4byte	0x630
 1663 0882 8D080000 		.4byte	0x88d
 1664 0886 09       		.uleb128 0x9
 1665 0887 34000000 		.4byte	0x34
 1666 088b 07       		.byte	0x7
 1667 088c 00       		.byte	0x0
 1668 088d 0F       		.uleb128 0xf
 1669 088e 04       		.byte	0x4
 1670 088f 7A070000 		.4byte	0x77a
 1671 0893 18       		.uleb128 0x18
 1672 0894 01       		.byte	0x1
 1673 0895 9F080000 		.4byte	0x89f
 1674 0899 16       		.uleb128 0x16
 1675 089a AB040000 		.4byte	0x4ab
 1676 089e 00       		.byte	0x0
 1677 089f 0F       		.uleb128 0xf
 1678 08a0 04       		.byte	0x4
 1679 08a1 93080000 		.4byte	0x893
 1680 08a5 0F       		.uleb128 0xf
 1681 08a6 04       		.byte	0x4
 1682 08a7 20070000 		.4byte	0x720
 1683 08ab 0F       		.uleb128 0xf
 1684 08ac 04       		.byte	0x4
 1685 08ad B4010000 		.4byte	0x1b4
 1686 08b1 18       		.uleb128 0x18
 1687 08b2 01       		.byte	0x1
 1688 08b3 BD080000 		.4byte	0x8bd
 1689 08b7 16       		.uleb128 0x16
 1690 08b8 57000000 		.4byte	0x57
 1691 08bc 00       		.byte	0x0
 1692 08bd 0F       		.uleb128 0xf
 1693 08be 04       		.byte	0x4
 1694 08bf C3080000 		.4byte	0x8c3
 1695 08c3 0F       		.uleb128 0xf
 1696 08c4 04       		.byte	0x4
 1697 08c5 B1080000 		.4byte	0x8b1
 1698 08c9 0F       		.uleb128 0xf
ARM GAS  C:\Users\DNIEL~1\AppData\Local\Temp\ccsQciza.s 			page 31


 1699 08ca 04       		.byte	0x4
 1700 08cb CA070000 		.4byte	0x7ca
 1701 08cf 02       		.uleb128 0x2
 1702 08d0 06040000 		.4byte	.LASF118
 1703 08d4 06       		.byte	0x6
 1704 08d5 6D       		.byte	0x6d
 1705 08d6 82000000 		.4byte	0x82
 1706 08da 02       		.uleb128 0x2
 1707 08db 28070000 		.4byte	.LASF119
 1708 08df 06       		.byte	0x6
 1709 08e0 7E       		.byte	0x7e
 1710 08e1 2A060000 		.4byte	0x62a
 1711 08e5 02       		.uleb128 0x2
 1712 08e6 85010000 		.4byte	.LASF120
 1713 08ea 06       		.byte	0x6
 1714 08eb 85       		.byte	0x85
 1715 08ec 50000000 		.4byte	0x50
 1716 08f0 02       		.uleb128 0x2
 1717 08f1 73080000 		.4byte	.LASF121
 1718 08f5 06       		.byte	0x6
 1719 08f6 A2       		.byte	0xa2
 1720 08f7 77000000 		.4byte	0x77
 1721 08fb 02       		.uleb128 0x2
 1722 08fc 9E040000 		.4byte	.LASF122
 1723 0900 06       		.byte	0x6
 1724 0901 A3       		.byte	0xa3
 1725 0902 89000000 		.4byte	0x89
 1726 0906 02       		.uleb128 0x2
 1727 0907 EA050000 		.4byte	.LASF123
 1728 090b 06       		.byte	0x6
 1729 090c A4       		.byte	0xa4
 1730 090d 94000000 		.4byte	0x94
 1731 0911 02       		.uleb128 0x2
 1732 0912 D3050000 		.4byte	.LASF124
 1733 0916 06       		.byte	0x6
 1734 0917 A5       		.byte	0xa5
 1735 0918 9F000000 		.4byte	0x9f
 1736 091c 02       		.uleb128 0x2
 1737 091d 65080000 		.4byte	.LASF125
 1738 0921 06       		.byte	0x6
 1739 0922 BF       		.byte	0xbf
 1740 0923 34000000 		.4byte	0x34
 1741 0927 02       		.uleb128 0x2
 1742 0928 A4070000 		.4byte	.LASF126
 1743 092c 06       		.byte	0x6
 1744 092d C4       		.byte	0xc4
 1745 092e 50000000 		.4byte	0x50
 1746 0932 0D       		.uleb128 0xd
 1747 0933 61020000 		.4byte	.LASF127
 1748 0937 3C       		.byte	0x3c
 1749 0938 07       		.byte	0x7
 1750 0939 19       		.byte	0x19
 1751 093a 2D0A0000 		.4byte	0xa2d
 1752 093e 0B       		.uleb128 0xb
 1753 093f 79020000 		.4byte	.LASF128
 1754 0943 07       		.byte	0x7
 1755 0944 1B       		.byte	0x1b
ARM GAS  C:\Users\DNIEL~1\AppData\Local\Temp\ccsQciza.s 			page 32


 1756 0945 FB080000 		.4byte	0x8fb
 1757 0949 02       		.byte	0x2
 1758 094a 23       		.byte	0x23
 1759 094b 00       		.uleb128 0x0
 1760 094c 0B       		.uleb128 0xb
 1761 094d 31040000 		.4byte	.LASF129
 1762 0951 07       		.byte	0x7
 1763 0952 1C       		.byte	0x1c
 1764 0953 E5080000 		.4byte	0x8e5
 1765 0957 02       		.byte	0x2
 1766 0958 23       		.byte	0x23
 1767 0959 02       		.uleb128 0x2
 1768 095a 0B       		.uleb128 0xb
 1769 095b D4040000 		.4byte	.LASF130
 1770 095f 07       		.byte	0x7
 1771 0960 1D       		.byte	0x1d
 1772 0961 1C090000 		.4byte	0x91c
 1773 0965 02       		.byte	0x2
 1774 0966 23       		.byte	0x23
 1775 0967 04       		.uleb128 0x4
 1776 0968 0B       		.uleb128 0xb
 1777 0969 DF020000 		.4byte	.LASF131
 1778 096d 07       		.byte	0x7
 1779 096e 1E       		.byte	0x1e
 1780 096f 27090000 		.4byte	0x927
 1781 0973 02       		.byte	0x2
 1782 0974 23       		.byte	0x23
 1783 0975 08       		.uleb128 0x8
 1784 0976 0B       		.uleb128 0xb
 1785 0977 35080000 		.4byte	.LASF132
 1786 097b 07       		.byte	0x7
 1787 097c 1F       		.byte	0x1f
 1788 097d 06090000 		.4byte	0x906
 1789 0981 02       		.byte	0x2
 1790 0982 23       		.byte	0x23
 1791 0983 0A       		.uleb128 0xa
 1792 0984 0B       		.uleb128 0xb
 1793 0985 D2020000 		.4byte	.LASF133
 1794 0989 07       		.byte	0x7
 1795 098a 20       		.byte	0x20
 1796 098b 11090000 		.4byte	0x911
 1797 098f 02       		.byte	0x2
 1798 0990 23       		.byte	0x23
 1799 0991 0C       		.uleb128 0xc
 1800 0992 0B       		.uleb128 0xb
 1801 0993 AF080000 		.4byte	.LASF134
 1802 0997 07       		.byte	0x7
 1803 0998 21       		.byte	0x21
 1804 0999 FB080000 		.4byte	0x8fb
 1805 099d 02       		.byte	0x2
 1806 099e 23       		.byte	0x23
 1807 099f 0E       		.uleb128 0xe
 1808 09a0 0B       		.uleb128 0xb
 1809 09a1 05080000 		.4byte	.LASF135
 1810 09a5 07       		.byte	0x7
 1811 09a6 22       		.byte	0x22
 1812 09a7 F0080000 		.4byte	0x8f0
ARM GAS  C:\Users\DNIEL~1\AppData\Local\Temp\ccsQciza.s 			page 33


 1813 09ab 02       		.byte	0x2
 1814 09ac 23       		.byte	0x23
 1815 09ad 10       		.uleb128 0x10
 1816 09ae 0B       		.uleb128 0xb
 1817 09af C1030000 		.4byte	.LASF136
 1818 09b3 07       		.byte	0x7
 1819 09b4 30       		.byte	0x30
 1820 09b5 CF080000 		.4byte	0x8cf
 1821 09b9 02       		.byte	0x2
 1822 09ba 23       		.byte	0x23
 1823 09bb 14       		.uleb128 0x14
 1824 09bc 0B       		.uleb128 0xb
 1825 09bd FF040000 		.4byte	.LASF137
 1826 09c1 07       		.byte	0x7
 1827 09c2 31       		.byte	0x31
 1828 09c3 82000000 		.4byte	0x82
 1829 09c7 02       		.byte	0x2
 1830 09c8 23       		.byte	0x23
 1831 09c9 18       		.uleb128 0x18
 1832 09ca 0B       		.uleb128 0xb
 1833 09cb 31020000 		.4byte	.LASF138
 1834 09cf 07       		.byte	0x7
 1835 09d0 32       		.byte	0x32
 1836 09d1 CF080000 		.4byte	0x8cf
 1837 09d5 02       		.byte	0x2
 1838 09d6 23       		.byte	0x23
 1839 09d7 1C       		.uleb128 0x1c
 1840 09d8 0B       		.uleb128 0xb
 1841 09d9 09050000 		.4byte	.LASF139
 1842 09dd 07       		.byte	0x7
 1843 09de 33       		.byte	0x33
 1844 09df 82000000 		.4byte	0x82
 1845 09e3 02       		.byte	0x2
 1846 09e4 23       		.byte	0x23
 1847 09e5 20       		.uleb128 0x20
 1848 09e6 0B       		.uleb128 0xb
 1849 09e7 F2060000 		.4byte	.LASF140
 1850 09eb 07       		.byte	0x7
 1851 09ec 34       		.byte	0x34
 1852 09ed CF080000 		.4byte	0x8cf
 1853 09f1 02       		.byte	0x2
 1854 09f2 23       		.byte	0x23
 1855 09f3 24       		.uleb128 0x24
 1856 09f4 0B       		.uleb128 0xb
 1857 09f5 13050000 		.4byte	.LASF141
 1858 09f9 07       		.byte	0x7
 1859 09fa 35       		.byte	0x35
 1860 09fb 82000000 		.4byte	0x82
 1861 09ff 02       		.byte	0x2
 1862 0a00 23       		.byte	0x23
 1863 0a01 28       		.uleb128 0x28
 1864 0a02 0B       		.uleb128 0xb
 1865 0a03 C9000000 		.4byte	.LASF142
 1866 0a07 07       		.byte	0x7
 1867 0a08 36       		.byte	0x36
 1868 0a09 82000000 		.4byte	0x82
 1869 0a0d 02       		.byte	0x2
ARM GAS  C:\Users\DNIEL~1\AppData\Local\Temp\ccsQciza.s 			page 34


 1870 0a0e 23       		.byte	0x23
 1871 0a0f 2C       		.uleb128 0x2c
 1872 0a10 0B       		.uleb128 0xb
 1873 0a11 05020000 		.4byte	.LASF143
 1874 0a15 07       		.byte	0x7
 1875 0a16 37       		.byte	0x37
 1876 0a17 82000000 		.4byte	0x82
 1877 0a1b 02       		.byte	0x2
 1878 0a1c 23       		.byte	0x23
 1879 0a1d 30       		.uleb128 0x30
 1880 0a1e 0B       		.uleb128 0xb
 1881 0a1f 1D050000 		.4byte	.LASF144
 1882 0a23 07       		.byte	0x7
 1883 0a24 38       		.byte	0x38
 1884 0a25 2D0A0000 		.4byte	0xa2d
 1885 0a29 02       		.byte	0x2
 1886 0a2a 23       		.byte	0x23
 1887 0a2b 34       		.uleb128 0x34
 1888 0a2c 00       		.byte	0x0
 1889 0a2d 08       		.uleb128 0x8
 1890 0a2e 82000000 		.4byte	0x82
 1891 0a32 3D0A0000 		.4byte	0xa3d
 1892 0a36 09       		.uleb128 0x9
 1893 0a37 34000000 		.4byte	0x34
 1894 0a3b 01       		.byte	0x1
 1895 0a3c 00       		.byte	0x0
 1896 0a3d 02       		.uleb128 0x2
 1897 0a3e E0030000 		.4byte	.LASF145
 1898 0a42 08       		.byte	0x8
 1899 0a43 2A       		.byte	0x2a
 1900 0a44 42000000 		.4byte	0x42
 1901 0a48 02       		.uleb128 0x2
 1902 0a49 7A050000 		.4byte	.LASF146
 1903 0a4d 08       		.byte	0x8
 1904 0a4e 36       		.byte	0x36
 1905 0a4f 50000000 		.4byte	0x50
 1906 0a53 02       		.uleb128 0x2
 1907 0a54 90070000 		.4byte	.LASF147
 1908 0a58 08       		.byte	0x8
 1909 0a59 4F       		.byte	0x4f
 1910 0a5a 82000000 		.4byte	0x82
 1911 0a5e 02       		.uleb128 0x2
 1912 0a5f 8B010000 		.4byte	.LASF148
 1913 0a63 08       		.byte	0x8
 1914 0a64 50       		.byte	0x50
 1915 0a65 38010000 		.4byte	0x138
 1916 0a69 03       		.uleb128 0x3
 1917 0a6a 01       		.byte	0x1
 1918 0a6b 02       		.byte	0x2
 1919 0a6c C4020000 		.4byte	.LASF149
 1920 0a70 02       		.uleb128 0x2
 1921 0a71 3E050000 		.4byte	.LASF150
 1922 0a75 09       		.byte	0x9
 1923 0a76 2C       		.byte	0x2c
 1924 0a77 3D0A0000 		.4byte	0xa3d
 1925 0a7b 02       		.uleb128 0x2
 1926 0a7c A0030000 		.4byte	.LASF151
ARM GAS  C:\Users\DNIEL~1\AppData\Local\Temp\ccsQciza.s 			page 35


 1927 0a80 09       		.byte	0x9
 1928 0a81 2D       		.byte	0x2d
 1929 0a82 3D0A0000 		.4byte	0xa3d
 1930 0a86 02       		.uleb128 0x2
 1931 0a87 5A070000 		.4byte	.LASF152
 1932 0a8b 09       		.byte	0x9
 1933 0a8c 2E       		.byte	0x2e
 1934 0a8d 3D0A0000 		.4byte	0xa3d
 1935 0a91 02       		.uleb128 0x2
 1936 0a92 F0040000 		.4byte	.LASF153
 1937 0a96 09       		.byte	0x9
 1938 0a97 2F       		.byte	0x2f
 1939 0a98 3D0A0000 		.4byte	0xa3d
 1940 0a9c 02       		.uleb128 0x2
 1941 0a9d CB010000 		.4byte	.LASF154
 1942 0aa1 09       		.byte	0x9
 1943 0aa2 30       		.byte	0x30
 1944 0aa3 5E0A0000 		.4byte	0xa5e
 1945 0aa7 02       		.uleb128 0x2
 1946 0aa8 81040000 		.4byte	.LASF155
 1947 0aac 09       		.byte	0x9
 1948 0aad 31       		.byte	0x31
 1949 0aae 530A0000 		.4byte	0xa53
 1950 0ab2 02       		.uleb128 0x2
 1951 0ab3 9E010000 		.4byte	.LASF156
 1952 0ab7 09       		.byte	0x9
 1953 0ab8 33       		.byte	0x33
 1954 0ab9 5E0A0000 		.4byte	0xa5e
 1955 0abd 02       		.uleb128 0x2
 1956 0abe E8030000 		.4byte	.LASF157
 1957 0ac2 09       		.byte	0x9
 1958 0ac3 34       		.byte	0x34
 1959 0ac4 5E0A0000 		.4byte	0xa5e
 1960 0ac8 02       		.uleb128 0x2
 1961 0ac9 85000000 		.4byte	.LASF158
 1962 0acd 09       		.byte	0x9
 1963 0ace 35       		.byte	0x35
 1964 0acf 5E0A0000 		.4byte	0xa5e
 1965 0ad3 02       		.uleb128 0x2
 1966 0ad4 99030000 		.4byte	.LASF159
 1967 0ad8 0A       		.byte	0xa
 1968 0ad9 2A       		.byte	0x2a
 1969 0ada DE0A0000 		.4byte	0xade
 1970 0ade 0D       		.uleb128 0xd
 1971 0adf 99030000 		.4byte	.LASF159
 1972 0ae3 48       		.byte	0x48
 1973 0ae4 0B       		.byte	0xb
 1974 0ae5 5E       		.byte	0x5e
 1975 0ae6 030C0000 		.4byte	0xc03
 1976 0aea 0B       		.uleb128 0xb
 1977 0aeb 85060000 		.4byte	.LASF160
 1978 0aef 0B       		.byte	0xb
 1979 0af0 5F       		.byte	0x5f
 1980 0af1 280C0000 		.4byte	0xc28
 1981 0af5 02       		.byte	0x2
 1982 0af6 23       		.byte	0x23
 1983 0af7 00       		.uleb128 0x0
ARM GAS  C:\Users\DNIEL~1\AppData\Local\Temp\ccsQciza.s 			page 36


 1984 0af8 0B       		.uleb128 0xb
 1985 0af9 53070000 		.4byte	.LASF161
 1986 0afd 0B       		.byte	0xb
 1987 0afe 61       		.byte	0x61
 1988 0aff 280C0000 		.4byte	0xc28
 1989 0b03 02       		.byte	0x2
 1990 0b04 23       		.byte	0x23
 1991 0b05 04       		.uleb128 0x4
 1992 0b06 0B       		.uleb128 0xb
 1993 0b07 62000000 		.4byte	.LASF162
 1994 0b0b 0B       		.byte	0xb
 1995 0b0c 63       		.byte	0x63
 1996 0b0d 9C0A0000 		.4byte	0xa9c
 1997 0b11 02       		.byte	0x2
 1998 0b12 23       		.byte	0x23
 1999 0b13 08       		.uleb128 0x8
 2000 0b14 0B       		.uleb128 0xb
 2001 0b15 B2060000 		.4byte	.LASF163
 2002 0b19 0B       		.byte	0xb
 2003 0b1a 64       		.byte	0x64
 2004 0b1b F40C0000 		.4byte	0xcf4
 2005 0b1f 02       		.byte	0x2
 2006 0b20 23       		.byte	0x23
 2007 0b21 0C       		.uleb128 0xc
 2008 0b22 0B       		.uleb128 0xb
 2009 0b23 4F020000 		.4byte	.LASF164
 2010 0b27 0B       		.byte	0xb
 2011 0b28 66       		.byte	0x66
 2012 0b29 280C0000 		.4byte	0xc28
 2013 0b2d 02       		.byte	0x2
 2014 0b2e 23       		.byte	0x23
 2015 0b2f 10       		.uleb128 0x10
 2016 0b30 0B       		.uleb128 0xb
 2017 0b31 CA030000 		.4byte	.LASF165
 2018 0b35 0B       		.byte	0xb
 2019 0b36 67       		.byte	0x67
 2020 0b37 280C0000 		.4byte	0xc28
 2021 0b3b 02       		.byte	0x2
 2022 0b3c 23       		.byte	0x23
 2023 0b3d 14       		.uleb128 0x14
 2024 0b3e 0B       		.uleb128 0xb
 2025 0b3f 2E030000 		.4byte	.LASF166
 2026 0b43 0B       		.byte	0xb
 2027 0b44 6E       		.byte	0x6e
 2028 0b45 5C060000 		.4byte	0x65c
 2029 0b49 02       		.byte	0x2
 2030 0b4a 23       		.byte	0x23
 2031 0b4b 18       		.uleb128 0x18
 2032 0b4c 0B       		.uleb128 0xb
 2033 0b4d D2030000 		.4byte	.LASF167
 2034 0b51 0B       		.byte	0xb
 2035 0b52 79       		.byte	0x79
 2036 0b53 7B0A0000 		.4byte	0xa7b
 2037 0b57 02       		.byte	0x2
 2038 0b58 23       		.byte	0x23
 2039 0b59 1C       		.uleb128 0x1c
 2040 0b5a 0B       		.uleb128 0xb
ARM GAS  C:\Users\DNIEL~1\AppData\Local\Temp\ccsQciza.s 			page 37


 2041 0b5b AA040000 		.4byte	.LASF168
 2042 0b5f 0B       		.byte	0xb
 2043 0b60 7D       		.byte	0x7d
 2044 0b61 700A0000 		.4byte	0xa70
 2045 0b65 02       		.byte	0x2
 2046 0b66 23       		.byte	0x23
 2047 0b67 1D       		.uleb128 0x1d
 2048 0b68 0B       		.uleb128 0xb
 2049 0b69 C2070000 		.4byte	.LASF169
 2050 0b6d 0B       		.byte	0xb
 2051 0b6e 82       		.byte	0x82
 2052 0b6f 860A0000 		.4byte	0xa86
 2053 0b73 02       		.byte	0x2
 2054 0b74 23       		.byte	0x23
 2055 0b75 1E       		.uleb128 0x1e
 2056 0b76 0B       		.uleb128 0xb
 2057 0b77 E6070000 		.4byte	.LASF170
 2058 0b7b 0B       		.byte	0xb
 2059 0b7c 88       		.byte	0x88
 2060 0b7d 910A0000 		.4byte	0xa91
 2061 0b81 02       		.byte	0x2
 2062 0b82 23       		.byte	0x23
 2063 0b83 1F       		.uleb128 0x1f
 2064 0b84 0B       		.uleb128 0xb
 2065 0b85 46000000 		.4byte	.LASF171
 2066 0b89 0B       		.byte	0xb
 2067 0b8a 8F       		.byte	0x8f
 2068 0b8b 170D0000 		.4byte	0xd17
 2069 0b8f 02       		.byte	0x2
 2070 0b90 23       		.byte	0x23
 2071 0b91 20       		.uleb128 0x20
 2072 0b92 0E       		.uleb128 0xe
 2073 0b93 705F7500 		.ascii	"p_u\000"
 2074 0b97 0B       		.byte	0xb
 2075 0b98 B4       		.byte	0xb4
 2076 0b99 E00D0000 		.4byte	0xde0
 2077 0b9d 02       		.byte	0x2
 2078 0b9e 23       		.byte	0x23
 2079 0b9f 24       		.uleb128 0x24
 2080 0ba0 0B       		.uleb128 0xb
 2081 0ba1 E4000000 		.4byte	.LASF172
 2082 0ba5 0B       		.byte	0xb
 2083 0ba6 B9       		.byte	0xb9
 2084 0ba7 500C0000 		.4byte	0xc50
 2085 0bab 02       		.byte	0x2
 2086 0bac 23       		.byte	0x23
 2087 0bad 28       		.uleb128 0x28
 2088 0bae 0B       		.uleb128 0xb
 2089 0baf A5000000 		.4byte	.LASF173
 2090 0bb3 0B       		.byte	0xb
 2091 0bb4 BF       		.byte	0xbf
 2092 0bb5 2E0C0000 		.4byte	0xc2e
 2093 0bb9 02       		.byte	0x2
 2094 0bba 23       		.byte	0x23
 2095 0bbb 2C       		.uleb128 0x2c
 2096 0bbc 0B       		.uleb128 0xb
 2097 0bbd 38050000 		.4byte	.LASF174
ARM GAS  C:\Users\DNIEL~1\AppData\Local\Temp\ccsQciza.s 			page 38


 2098 0bc1 0B       		.byte	0xb
 2099 0bc2 C3       		.byte	0xc3
 2100 0bc3 A70A0000 		.4byte	0xaa7
 2101 0bc7 02       		.byte	0x2
 2102 0bc8 23       		.byte	0x23
 2103 0bc9 34       		.uleb128 0x34
 2104 0bca 0B       		.uleb128 0xb
 2105 0bcb 41060000 		.4byte	.LASF175
 2106 0bcf 0B       		.byte	0xb
 2107 0bd0 C9       		.byte	0xc9
 2108 0bd1 B20A0000 		.4byte	0xab2
 2109 0bd5 02       		.byte	0x2
 2110 0bd6 23       		.byte	0x23
 2111 0bd7 38       		.uleb128 0x38
 2112 0bd8 0B       		.uleb128 0xb
 2113 0bd9 1C040000 		.4byte	.LASF176
 2114 0bdd 0B       		.byte	0xb
 2115 0bde D0       		.byte	0xd0
 2116 0bdf 150E0000 		.4byte	0xe15
 2117 0be3 02       		.byte	0x2
 2118 0be4 23       		.byte	0x23
 2119 0be5 3C       		.uleb128 0x3c
 2120 0be6 0B       		.uleb128 0xb
 2121 0be7 F0050000 		.4byte	.LASF177
 2122 0beb 0B       		.byte	0xb
 2123 0bec D4       		.byte	0xd4
 2124 0bed 9C0A0000 		.4byte	0xa9c
 2125 0bf1 02       		.byte	0x2
 2126 0bf2 23       		.byte	0x23
 2127 0bf3 40       		.uleb128 0x40
 2128 0bf4 0B       		.uleb128 0xb
 2129 0bf5 14040000 		.4byte	.LASF178
 2130 0bf9 0B       		.byte	0xb
 2131 0bfa DA       		.byte	0xda
 2132 0bfb 2B010000 		.4byte	0x12b
 2133 0bff 02       		.byte	0x2
 2134 0c00 23       		.byte	0x23
 2135 0c01 44       		.uleb128 0x44
 2136 0c02 00       		.byte	0x0
 2137 0c03 0A       		.uleb128 0xa
 2138 0c04 08       		.byte	0x8
 2139 0c05 0A       		.byte	0xa
 2140 0c06 61       		.byte	0x61
 2141 0c07 280C0000 		.4byte	0xc28
 2142 0c0b 0B       		.uleb128 0xb
 2143 0c0c 85060000 		.4byte	.LASF160
 2144 0c10 0A       		.byte	0xa
 2145 0c11 62       		.byte	0x62
 2146 0c12 280C0000 		.4byte	0xc28
 2147 0c16 02       		.byte	0x2
 2148 0c17 23       		.byte	0x23
 2149 0c18 00       		.uleb128 0x0
 2150 0c19 0B       		.uleb128 0xb
 2151 0c1a 53070000 		.4byte	.LASF161
 2152 0c1e 0A       		.byte	0xa
 2153 0c1f 64       		.byte	0x64
 2154 0c20 280C0000 		.4byte	0xc28
ARM GAS  C:\Users\DNIEL~1\AppData\Local\Temp\ccsQciza.s 			page 39


 2155 0c24 02       		.byte	0x2
 2156 0c25 23       		.byte	0x23
 2157 0c26 04       		.uleb128 0x4
 2158 0c27 00       		.byte	0x0
 2159 0c28 0F       		.uleb128 0xf
 2160 0c29 04       		.byte	0x4
 2161 0c2a D30A0000 		.4byte	0xad3
 2162 0c2e 02       		.uleb128 0x2
 2163 0c2f 53030000 		.4byte	.LASF179
 2164 0c33 0A       		.byte	0xa
 2165 0c34 66       		.byte	0x66
 2166 0c35 030C0000 		.4byte	0xc03
 2167 0c39 0A       		.uleb128 0xa
 2168 0c3a 04       		.byte	0x4
 2169 0c3b 0A       		.byte	0xa
 2170 0c3c 6B       		.byte	0x6b
 2171 0c3d 500C0000 		.4byte	0xc50
 2172 0c41 0B       		.uleb128 0xb
 2173 0c42 85060000 		.4byte	.LASF160
 2174 0c46 0A       		.byte	0xa
 2175 0c47 6D       		.byte	0x6d
 2176 0c48 280C0000 		.4byte	0xc28
 2177 0c4c 02       		.byte	0x2
 2178 0c4d 23       		.byte	0x23
 2179 0c4e 00       		.uleb128 0x0
 2180 0c4f 00       		.byte	0x0
 2181 0c50 02       		.uleb128 0x2
 2182 0c51 00000000 		.4byte	.LASF180
 2183 0c55 0A       		.byte	0xa
 2184 0c56 70       		.byte	0x70
 2185 0c57 390C0000 		.4byte	0xc39
 2186 0c5b 02       		.uleb128 0x2
 2187 0c5c 59000000 		.4byte	.LASF181
 2188 0c60 0C       		.byte	0xc
 2189 0c61 E5       		.byte	0xe5
 2190 0c62 2B010000 		.4byte	0x12b
 2191 0c66 12       		.uleb128 0x12
 2192 0c67 BD050000 		.4byte	.LASF182
 2193 0c6b 24       		.byte	0x24
 2194 0c6c 0C       		.byte	0xc
 2195 0c6d 0C01     		.2byte	0x10c
 2196 0c6f F40C0000 		.4byte	0xcf4
 2197 0c73 14       		.uleb128 0x14
 2198 0c74 723400   		.ascii	"r4\000"
 2199 0c77 0C       		.byte	0xc
 2200 0c78 1F01     		.2byte	0x11f
 2201 0c7a 5B0C0000 		.4byte	0xc5b
 2202 0c7e 02       		.byte	0x2
 2203 0c7f 23       		.byte	0x23
 2204 0c80 00       		.uleb128 0x0
 2205 0c81 14       		.uleb128 0x14
 2206 0c82 723500   		.ascii	"r5\000"
 2207 0c85 0C       		.byte	0xc
 2208 0c86 2001     		.2byte	0x120
 2209 0c88 5B0C0000 		.4byte	0xc5b
 2210 0c8c 02       		.byte	0x2
 2211 0c8d 23       		.byte	0x23
ARM GAS  C:\Users\DNIEL~1\AppData\Local\Temp\ccsQciza.s 			page 40


 2212 0c8e 04       		.uleb128 0x4
 2213 0c8f 14       		.uleb128 0x14
 2214 0c90 723600   		.ascii	"r6\000"
 2215 0c93 0C       		.byte	0xc
 2216 0c94 2101     		.2byte	0x121
 2217 0c96 5B0C0000 		.4byte	0xc5b
 2218 0c9a 02       		.byte	0x2
 2219 0c9b 23       		.byte	0x23
 2220 0c9c 08       		.uleb128 0x8
 2221 0c9d 14       		.uleb128 0x14
 2222 0c9e 723700   		.ascii	"r7\000"
 2223 0ca1 0C       		.byte	0xc
 2224 0ca2 2201     		.2byte	0x122
 2225 0ca4 5B0C0000 		.4byte	0xc5b
 2226 0ca8 02       		.byte	0x2
 2227 0ca9 23       		.byte	0x23
 2228 0caa 0C       		.uleb128 0xc
 2229 0cab 14       		.uleb128 0x14
 2230 0cac 723800   		.ascii	"r8\000"
 2231 0caf 0C       		.byte	0xc
 2232 0cb0 2301     		.2byte	0x123
 2233 0cb2 5B0C0000 		.4byte	0xc5b
 2234 0cb6 02       		.byte	0x2
 2235 0cb7 23       		.byte	0x23
 2236 0cb8 10       		.uleb128 0x10
 2237 0cb9 14       		.uleb128 0x14
 2238 0cba 723900   		.ascii	"r9\000"
 2239 0cbd 0C       		.byte	0xc
 2240 0cbe 2401     		.2byte	0x124
 2241 0cc0 5B0C0000 		.4byte	0xc5b
 2242 0cc4 02       		.byte	0x2
 2243 0cc5 23       		.byte	0x23
 2244 0cc6 14       		.uleb128 0x14
 2245 0cc7 14       		.uleb128 0x14
 2246 0cc8 72313000 		.ascii	"r10\000"
 2247 0ccc 0C       		.byte	0xc
 2248 0ccd 2501     		.2byte	0x125
 2249 0ccf 5B0C0000 		.4byte	0xc5b
 2250 0cd3 02       		.byte	0x2
 2251 0cd4 23       		.byte	0x23
 2252 0cd5 18       		.uleb128 0x18
 2253 0cd6 14       		.uleb128 0x14
 2254 0cd7 72313100 		.ascii	"r11\000"
 2255 0cdb 0C       		.byte	0xc
 2256 0cdc 2601     		.2byte	0x126
 2257 0cde 5B0C0000 		.4byte	0xc5b
 2258 0ce2 02       		.byte	0x2
 2259 0ce3 23       		.byte	0x23
 2260 0ce4 1C       		.uleb128 0x1c
 2261 0ce5 14       		.uleb128 0x14
 2262 0ce6 6C7200   		.ascii	"lr\000"
 2263 0ce9 0C       		.byte	0xc
 2264 0cea 2701     		.2byte	0x127
 2265 0cec 5B0C0000 		.4byte	0xc5b
 2266 0cf0 02       		.byte	0x2
 2267 0cf1 23       		.byte	0x23
 2268 0cf2 20       		.uleb128 0x20
ARM GAS  C:\Users\DNIEL~1\AppData\Local\Temp\ccsQciza.s 			page 41


 2269 0cf3 00       		.byte	0x0
 2270 0cf4 12       		.uleb128 0x12
 2271 0cf5 87040000 		.4byte	.LASF183
 2272 0cf9 04       		.byte	0x4
 2273 0cfa 0C       		.byte	0xc
 2274 0cfb 3101     		.2byte	0x131
 2275 0cfd 110D0000 		.4byte	0xd11
 2276 0d01 14       		.uleb128 0x14
 2277 0d02 72313300 		.ascii	"r13\000"
 2278 0d06 0C       		.byte	0xc
 2279 0d07 3201     		.2byte	0x132
 2280 0d09 110D0000 		.4byte	0xd11
 2281 0d0d 02       		.byte	0x2
 2282 0d0e 23       		.byte	0x23
 2283 0d0f 00       		.uleb128 0x0
 2284 0d10 00       		.byte	0x0
 2285 0d11 0F       		.uleb128 0xf
 2286 0d12 04       		.byte	0x4
 2287 0d13 660C0000 		.4byte	0xc66
 2288 0d17 19       		.uleb128 0x19
 2289 0d18 C80A0000 		.4byte	0xac8
 2290 0d1c 0D       		.uleb128 0xd
 2291 0d1d FF020000 		.4byte	.LASF184
 2292 0d21 10       		.byte	0x10
 2293 0d22 0D       		.byte	0xd
 2294 0d23 2C       		.byte	0x2c
 2295 0d24 530D0000 		.4byte	0xd53
 2296 0d28 0B       		.uleb128 0xb
 2297 0d29 4C060000 		.4byte	.LASF185
 2298 0d2d 0D       		.byte	0xd
 2299 0d2e 2D       		.byte	0x2d
 2300 0d2f 2E0C0000 		.4byte	0xc2e
 2301 0d33 02       		.byte	0x2
 2302 0d34 23       		.byte	0x23
 2303 0d35 00       		.uleb128 0x0
 2304 0d36 0B       		.uleb128 0xb
 2305 0d37 9D000000 		.4byte	.LASF186
 2306 0d3b 0D       		.byte	0xd
 2307 0d3c 2F       		.byte	0x2f
 2308 0d3d 280C0000 		.4byte	0xc28
 2309 0d41 02       		.byte	0x2
 2310 0d42 23       		.byte	0x23
 2311 0d43 08       		.uleb128 0x8
 2312 0d44 0B       		.uleb128 0xb
 2313 0d45 4A080000 		.4byte	.LASF187
 2314 0d49 0D       		.byte	0xd
 2315 0d4a 31       		.byte	0x31
 2316 0d4b 530D0000 		.4byte	0xd53
 2317 0d4f 02       		.byte	0x2
 2318 0d50 23       		.byte	0x23
 2319 0d51 0C       		.uleb128 0xc
 2320 0d52 00       		.byte	0x0
 2321 0d53 0F       		.uleb128 0xf
 2322 0d54 04       		.byte	0x4
 2323 0d55 1C0D0000 		.4byte	0xd1c
 2324 0d59 02       		.uleb128 0x2
 2325 0d5a FF020000 		.4byte	.LASF184
ARM GAS  C:\Users\DNIEL~1\AppData\Local\Temp\ccsQciza.s 			page 42


 2326 0d5e 0D       		.byte	0xd
 2327 0d5f 33       		.byte	0x33
 2328 0d60 1C0D0000 		.4byte	0xd1c
 2329 0d64 02       		.uleb128 0x2
 2330 0d65 62070000 		.4byte	.LASF188
 2331 0d69 0E       		.byte	0xe
 2332 0d6a 2C       		.byte	0x2c
 2333 0d6b 6F0D0000 		.4byte	0xd6f
 2334 0d6f 0D       		.uleb128 0xd
 2335 0d70 62070000 		.4byte	.LASF188
 2336 0d74 10       		.byte	0x10
 2337 0d75 0E       		.byte	0xe
 2338 0d76 31       		.byte	0x31
 2339 0d77 B40D0000 		.4byte	0xdb4
 2340 0d7b 0B       		.uleb128 0xb
 2341 0d7c 30050000 		.4byte	.LASF189
 2342 0d80 0E       		.byte	0xe
 2343 0d81 32       		.byte	0x32
 2344 0d82 B40D0000 		.4byte	0xdb4
 2345 0d86 02       		.byte	0x2
 2346 0d87 23       		.byte	0x23
 2347 0d88 00       		.uleb128 0x0
 2348 0d89 0B       		.uleb128 0xb
 2349 0d8a 12070000 		.4byte	.LASF190
 2350 0d8e 0E       		.byte	0xe
 2351 0d8f 35       		.byte	0x35
 2352 0d90 280C0000 		.4byte	0xc28
 2353 0d94 02       		.byte	0x2
 2354 0d95 23       		.byte	0x23
 2355 0d96 04       		.uleb128 0x4
 2356 0d97 0B       		.uleb128 0xb
 2357 0d98 07010000 		.4byte	.LASF191
 2358 0d9c 0E       		.byte	0xe
 2359 0d9d 37       		.byte	0x37
 2360 0d9e B20A0000 		.4byte	0xab2
 2361 0da2 02       		.byte	0x2
 2362 0da3 23       		.byte	0x23
 2363 0da4 08       		.uleb128 0x8
 2364 0da5 0B       		.uleb128 0xb
 2365 0da6 E1080000 		.4byte	.LASF192
 2366 0daa 0E       		.byte	0xe
 2367 0dab 3A       		.byte	0x3a
 2368 0dac BD0A0000 		.4byte	0xabd
 2369 0db0 02       		.byte	0x2
 2370 0db1 23       		.byte	0x23
 2371 0db2 0C       		.uleb128 0xc
 2372 0db3 00       		.byte	0x0
 2373 0db4 0F       		.uleb128 0xf
 2374 0db5 04       		.byte	0x4
 2375 0db6 640D0000 		.4byte	0xd64
 2376 0dba 0D       		.uleb128 0xd
 2377 0dbb 85020000 		.4byte	.LASF193
 2378 0dbf 04       		.byte	0x4
 2379 0dc0 0E       		.byte	0xe
 2380 0dc1 41       		.byte	0x41
 2381 0dc2 D50D0000 		.4byte	0xdd5
 2382 0dc6 0B       		.uleb128 0xb
ARM GAS  C:\Users\DNIEL~1\AppData\Local\Temp\ccsQciza.s 			page 43


 2383 0dc7 F0070000 		.4byte	.LASF194
 2384 0dcb 0E       		.byte	0xe
 2385 0dcc 42       		.byte	0x42
 2386 0dcd B40D0000 		.4byte	0xdb4
 2387 0dd1 02       		.byte	0x2
 2388 0dd2 23       		.byte	0x23
 2389 0dd3 00       		.uleb128 0x0
 2390 0dd4 00       		.byte	0x0
 2391 0dd5 02       		.uleb128 0x2
 2392 0dd6 85020000 		.4byte	.LASF193
 2393 0dda 0E       		.byte	0xe
 2394 0ddb 45       		.byte	0x45
 2395 0ddc BA0D0000 		.4byte	0xdba
 2396 0de0 06       		.uleb128 0x6
 2397 0de1 04       		.byte	0x4
 2398 0de2 0B       		.byte	0xb
 2399 0de3 96       		.byte	0x96
 2400 0de4 150E0000 		.4byte	0xe15
 2401 0de8 07       		.uleb128 0x7
 2402 0de9 98020000 		.4byte	.LASF195
 2403 0ded 0B       		.byte	0xb
 2404 0dee 9D       		.byte	0x9d
 2405 0def A70A0000 		.4byte	0xaa7
 2406 0df3 07       		.uleb128 0x7
 2407 0df4 EA080000 		.4byte	.LASF196
 2408 0df8 0B       		.byte	0xb
 2409 0df9 A4       		.byte	0xa4
 2410 0dfa A70A0000 		.4byte	0xaa7
 2411 0dfe 07       		.uleb128 0x7
 2412 0dff 15010000 		.4byte	.LASF197
 2413 0e03 0B       		.byte	0xb
 2414 0e04 AB       		.byte	0xab
 2415 0e05 2B010000 		.4byte	0x12b
 2416 0e09 07       		.uleb128 0x7
 2417 0e0a FE070000 		.4byte	.LASF198
 2418 0e0e 0B       		.byte	0xb
 2419 0e0f B2       		.byte	0xb2
 2420 0e10 B20A0000 		.4byte	0xab2
 2421 0e14 00       		.byte	0x0
 2422 0e15 0F       		.uleb128 0xf
 2423 0e16 04       		.byte	0x4
 2424 0e17 590D0000 		.4byte	0xd59
 2425 0e1b 0F       		.uleb128 0xf
 2426 0e1c 04       		.byte	0x4
 2427 0e1d 210E0000 		.4byte	0xe21
 2428 0e21 15       		.uleb128 0x15
 2429 0e22 01       		.byte	0x1
 2430 0e23 A70A0000 		.4byte	0xaa7
 2431 0e27 310E0000 		.4byte	0xe31
 2432 0e2b 16       		.uleb128 0x16
 2433 0e2c 2B010000 		.4byte	0x12b
 2434 0e30 00       		.byte	0x0
 2435 0e31 02       		.uleb128 0x2
 2436 0e32 28080000 		.4byte	.LASF199
 2437 0e36 0F       		.byte	0xf
 2438 0e37 37       		.byte	0x37
 2439 0e38 3C0E0000 		.4byte	0xe3c
ARM GAS  C:\Users\DNIEL~1\AppData\Local\Temp\ccsQciza.s 			page 44


 2440 0e3c 0D       		.uleb128 0xd
 2441 0e3d 28080000 		.4byte	.LASF199
 2442 0e41 24       		.byte	0x24
 2443 0e42 0F       		.byte	0xf
 2444 0e43 45       		.byte	0x45
 2445 0e44 B90E0000 		.4byte	0xeb9
 2446 0e48 0B       		.uleb128 0xb
 2447 0e49 57020000 		.4byte	.LASF200
 2448 0e4d 0F       		.byte	0xf
 2449 0e4e 46       		.byte	0x46
 2450 0e4f 2E0C0000 		.4byte	0xc2e
 2451 0e53 02       		.byte	0x2
 2452 0e54 23       		.byte	0x23
 2453 0e55 00       		.uleb128 0x0
 2454 0e56 0B       		.uleb128 0xb
 2455 0e57 39070000 		.4byte	.LASF201
 2456 0e5b 0F       		.byte	0xf
 2457 0e5c 47       		.byte	0x47
 2458 0e5d 29000000 		.4byte	0x29
 2459 0e61 02       		.byte	0x2
 2460 0e62 23       		.byte	0x23
 2461 0e63 08       		.uleb128 0x8
 2462 0e64 0B       		.uleb128 0xb
 2463 0e65 5A040000 		.4byte	.LASF202
 2464 0e69 0F       		.byte	0xf
 2465 0e6a 48       		.byte	0x48
 2466 0e6b DC0E0000 		.4byte	0xedc
 2467 0e6f 02       		.byte	0x2
 2468 0e70 23       		.byte	0x23
 2469 0e71 0C       		.uleb128 0xc
 2470 0e72 0B       		.uleb128 0xb
 2471 0e73 CE040000 		.4byte	.LASF203
 2472 0e77 0F       		.byte	0xf
 2473 0e78 49       		.byte	0x49
 2474 0e79 DC0E0000 		.4byte	0xedc
 2475 0e7d 02       		.byte	0x2
 2476 0e7e 23       		.byte	0x23
 2477 0e7f 10       		.uleb128 0x10
 2478 0e80 0B       		.uleb128 0xb
 2479 0e81 91030000 		.4byte	.LASF204
 2480 0e85 0F       		.byte	0xf
 2481 0e86 4B       		.byte	0x4b
 2482 0e87 DC0E0000 		.4byte	0xedc
 2483 0e8b 02       		.byte	0x2
 2484 0e8c 23       		.byte	0x23
 2485 0e8d 14       		.uleb128 0x14
 2486 0e8e 0B       		.uleb128 0xb
 2487 0e8f EE000000 		.4byte	.LASF205
 2488 0e93 0F       		.byte	0xf
 2489 0e94 4C       		.byte	0x4c
 2490 0e95 DC0E0000 		.4byte	0xedc
 2491 0e99 02       		.byte	0x2
 2492 0e9a 23       		.byte	0x23
 2493 0e9b 18       		.uleb128 0x18
 2494 0e9c 0B       		.uleb128 0xb
 2495 0e9d C7080000 		.4byte	.LASF206
 2496 0ea1 0F       		.byte	0xf
ARM GAS  C:\Users\DNIEL~1\AppData\Local\Temp\ccsQciza.s 			page 45


 2497 0ea2 4D       		.byte	0x4d
 2498 0ea3 B90E0000 		.4byte	0xeb9
 2499 0ea7 02       		.byte	0x2
 2500 0ea8 23       		.byte	0x23
 2501 0ea9 1C       		.uleb128 0x1c
 2502 0eaa 0B       		.uleb128 0xb
 2503 0eab 1C010000 		.4byte	.LASF207
 2504 0eaf 0F       		.byte	0xf
 2505 0eb0 4E       		.byte	0x4e
 2506 0eb1 2B010000 		.4byte	0x12b
 2507 0eb5 02       		.byte	0x2
 2508 0eb6 23       		.byte	0x23
 2509 0eb7 20       		.uleb128 0x20
 2510 0eb8 00       		.byte	0x0
 2511 0eb9 02       		.uleb128 0x2
 2512 0eba FD000000 		.4byte	.LASF208
 2513 0ebe 0F       		.byte	0xf
 2514 0ebf 3A       		.byte	0x3a
 2515 0ec0 C40E0000 		.4byte	0xec4
 2516 0ec4 0F       		.uleb128 0xf
 2517 0ec5 04       		.byte	0x4
 2518 0ec6 CA0E0000 		.4byte	0xeca
 2519 0eca 18       		.uleb128 0x18
 2520 0ecb 01       		.byte	0x1
 2521 0ecc D60E0000 		.4byte	0xed6
 2522 0ed0 16       		.uleb128 0x16
 2523 0ed1 D60E0000 		.4byte	0xed6
 2524 0ed5 00       		.byte	0x0
 2525 0ed6 0F       		.uleb128 0xf
 2526 0ed7 04       		.byte	0x4
 2527 0ed8 310E0000 		.4byte	0xe31
 2528 0edc 0F       		.uleb128 0xf
 2529 0edd 04       		.byte	0x4
 2530 0ede 3D0A0000 		.4byte	0xa3d
 2531 0ee2 02       		.uleb128 0x2
 2532 0ee3 11030000 		.4byte	.LASF209
 2533 0ee7 0F       		.byte	0xf
 2534 0ee8 82       		.byte	0x82
 2535 0ee9 310E0000 		.4byte	0xe31
 2536 0eed 02       		.uleb128 0x2
 2537 0eee 05030000 		.4byte	.LASF210
 2538 0ef2 0F       		.byte	0xf
 2539 0ef3 F5       		.byte	0xf5
 2540 0ef4 310E0000 		.4byte	0xe31
 2541 0ef8 15       		.uleb128 0x15
 2542 0ef9 01       		.byte	0x1
 2543 0efa 29000000 		.4byte	0x29
 2544 0efe 120F0000 		.4byte	0xf12
 2545 0f02 16       		.uleb128 0x16
 2546 0f03 2B010000 		.4byte	0x12b
 2547 0f07 16       		.uleb128 0x16
 2548 0f08 120F0000 		.4byte	0xf12
 2549 0f0c 16       		.uleb128 0x16
 2550 0f0d 29000000 		.4byte	0x29
 2551 0f11 00       		.byte	0x0
 2552 0f12 0F       		.uleb128 0xf
 2553 0f13 04       		.byte	0x4
ARM GAS  C:\Users\DNIEL~1\AppData\Local\Temp\ccsQciza.s 			page 46


 2554 0f14 180F0000 		.4byte	0xf18
 2555 0f18 17       		.uleb128 0x17
 2556 0f19 3D0A0000 		.4byte	0xa3d
 2557 0f1d 0F       		.uleb128 0xf
 2558 0f1e 04       		.byte	0x4
 2559 0f1f F80E0000 		.4byte	0xef8
 2560 0f23 15       		.uleb128 0x15
 2561 0f24 01       		.byte	0x1
 2562 0f25 29000000 		.4byte	0x29
 2563 0f29 3D0F0000 		.4byte	0xf3d
 2564 0f2d 16       		.uleb128 0x16
 2565 0f2e 2B010000 		.4byte	0x12b
 2566 0f32 16       		.uleb128 0x16
 2567 0f33 DC0E0000 		.4byte	0xedc
 2568 0f37 16       		.uleb128 0x16
 2569 0f38 29000000 		.4byte	0x29
 2570 0f3c 00       		.byte	0x0
 2571 0f3d 0F       		.uleb128 0xf
 2572 0f3e 04       		.byte	0x4
 2573 0f3f 230F0000 		.4byte	0xf23
 2574 0f43 15       		.uleb128 0x15
 2575 0f44 01       		.byte	0x1
 2576 0f45 A70A0000 		.4byte	0xaa7
 2577 0f49 580F0000 		.4byte	0xf58
 2578 0f4d 16       		.uleb128 0x16
 2579 0f4e 2B010000 		.4byte	0x12b
 2580 0f52 16       		.uleb128 0x16
 2581 0f53 3D0A0000 		.4byte	0xa3d
 2582 0f57 00       		.byte	0x0
 2583 0f58 0F       		.uleb128 0xf
 2584 0f59 04       		.byte	0x4
 2585 0f5a 430F0000 		.4byte	0xf43
 2586 0f5e 19       		.uleb128 0x19
 2587 0f5f 480A0000 		.4byte	0xa48
 2588 0f63 19       		.uleb128 0x19
 2589 0f64 530A0000 		.4byte	0xa53
 2590 0f68 1A       		.uleb128 0x1a
 2591 0f69 1C       		.byte	0x1c
 2592 0f6a 10       		.byte	0x10
 2593 0f6b 2905     		.2byte	0x529
 2594 0f6d 42100000 		.4byte	0x1042
 2595 0f71 14       		.uleb128 0x14
 2596 0f72 535200   		.ascii	"SR\000"
 2597 0f75 10       		.byte	0x10
 2598 0f76 2B05     		.2byte	0x52b
 2599 0f78 5E0F0000 		.4byte	0xf5e
 2600 0f7c 02       		.byte	0x2
 2601 0f7d 23       		.byte	0x23
 2602 0f7e 00       		.uleb128 0x0
 2603 0f7f 13       		.uleb128 0x13
 2604 0f80 98080000 		.4byte	.LASF211
 2605 0f84 10       		.byte	0x10
 2606 0f85 2C05     		.2byte	0x52c
 2607 0f87 480A0000 		.4byte	0xa48
 2608 0f8b 02       		.byte	0x2
 2609 0f8c 23       		.byte	0x23
 2610 0f8d 02       		.uleb128 0x2
ARM GAS  C:\Users\DNIEL~1\AppData\Local\Temp\ccsQciza.s 			page 47


 2611 0f8e 14       		.uleb128 0x14
 2612 0f8f 445200   		.ascii	"DR\000"
 2613 0f92 10       		.byte	0x10
 2614 0f93 2D05     		.2byte	0x52d
 2615 0f95 5E0F0000 		.4byte	0xf5e
 2616 0f99 02       		.byte	0x2
 2617 0f9a 23       		.byte	0x23
 2618 0f9b 04       		.uleb128 0x4
 2619 0f9c 13       		.uleb128 0x13
 2620 0f9d FB050000 		.4byte	.LASF212
 2621 0fa1 10       		.byte	0x10
 2622 0fa2 2E05     		.2byte	0x52e
 2623 0fa4 480A0000 		.4byte	0xa48
 2624 0fa8 02       		.byte	0x2
 2625 0fa9 23       		.byte	0x23
 2626 0faa 06       		.uleb128 0x6
 2627 0fab 14       		.uleb128 0x14
 2628 0fac 42525200 		.ascii	"BRR\000"
 2629 0fb0 10       		.byte	0x10
 2630 0fb1 2F05     		.2byte	0x52f
 2631 0fb3 5E0F0000 		.4byte	0xf5e
 2632 0fb7 02       		.byte	0x2
 2633 0fb8 23       		.byte	0x23
 2634 0fb9 08       		.uleb128 0x8
 2635 0fba 13       		.uleb128 0x13
 2636 0fbb 05060000 		.4byte	.LASF213
 2637 0fbf 10       		.byte	0x10
 2638 0fc0 3005     		.2byte	0x530
 2639 0fc2 480A0000 		.4byte	0xa48
 2640 0fc6 02       		.byte	0x2
 2641 0fc7 23       		.byte	0x23
 2642 0fc8 0A       		.uleb128 0xa
 2643 0fc9 14       		.uleb128 0x14
 2644 0fca 43523100 		.ascii	"CR1\000"
 2645 0fce 10       		.byte	0x10
 2646 0fcf 3105     		.2byte	0x531
 2647 0fd1 5E0F0000 		.4byte	0xf5e
 2648 0fd5 02       		.byte	0x2
 2649 0fd6 23       		.byte	0x23
 2650 0fd7 0C       		.uleb128 0xc
 2651 0fd8 13       		.uleb128 0x13
 2652 0fd9 0F060000 		.4byte	.LASF214
 2653 0fdd 10       		.byte	0x10
 2654 0fde 3205     		.2byte	0x532
 2655 0fe0 480A0000 		.4byte	0xa48
 2656 0fe4 02       		.byte	0x2
 2657 0fe5 23       		.byte	0x23
 2658 0fe6 0E       		.uleb128 0xe
 2659 0fe7 14       		.uleb128 0x14
 2660 0fe8 43523200 		.ascii	"CR2\000"
 2661 0fec 10       		.byte	0x10
 2662 0fed 3305     		.2byte	0x533
 2663 0fef 5E0F0000 		.4byte	0xf5e
 2664 0ff3 02       		.byte	0x2
 2665 0ff4 23       		.byte	0x23
 2666 0ff5 10       		.uleb128 0x10
 2667 0ff6 13       		.uleb128 0x13
ARM GAS  C:\Users\DNIEL~1\AppData\Local\Temp\ccsQciza.s 			page 48


 2668 0ff7 19060000 		.4byte	.LASF215
 2669 0ffb 10       		.byte	0x10
 2670 0ffc 3405     		.2byte	0x534
 2671 0ffe 480A0000 		.4byte	0xa48
 2672 1002 02       		.byte	0x2
 2673 1003 23       		.byte	0x23
 2674 1004 12       		.uleb128 0x12
 2675 1005 14       		.uleb128 0x14
 2676 1006 43523300 		.ascii	"CR3\000"
 2677 100a 10       		.byte	0x10
 2678 100b 3505     		.2byte	0x535
 2679 100d 5E0F0000 		.4byte	0xf5e
 2680 1011 02       		.byte	0x2
 2681 1012 23       		.byte	0x23
 2682 1013 14       		.uleb128 0x14
 2683 1014 13       		.uleb128 0x13
 2684 1015 23060000 		.4byte	.LASF216
 2685 1019 10       		.byte	0x10
 2686 101a 3605     		.2byte	0x536
 2687 101c 480A0000 		.4byte	0xa48
 2688 1020 02       		.byte	0x2
 2689 1021 23       		.byte	0x23
 2690 1022 16       		.uleb128 0x16
 2691 1023 13       		.uleb128 0x13
 2692 1024 66010000 		.4byte	.LASF217
 2693 1028 10       		.byte	0x10
 2694 1029 3705     		.2byte	0x537
 2695 102b 5E0F0000 		.4byte	0xf5e
 2696 102f 02       		.byte	0x2
 2697 1030 23       		.byte	0x23
 2698 1031 18       		.uleb128 0x18
 2699 1032 13       		.uleb128 0x13
 2700 1033 2D060000 		.4byte	.LASF218
 2701 1037 10       		.byte	0x10
 2702 1038 3805     		.2byte	0x538
 2703 103a 480A0000 		.4byte	0xa48
 2704 103e 02       		.byte	0x2
 2705 103f 23       		.byte	0x23
 2706 1040 1A       		.uleb128 0x1a
 2707 1041 00       		.byte	0x0
 2708 1042 05       		.uleb128 0x5
 2709 1043 F1020000 		.4byte	.LASF219
 2710 1047 10       		.byte	0x10
 2711 1048 3905     		.2byte	0x539
 2712 104a 680F0000 		.4byte	0xf68
 2713 104e 15       		.uleb128 0x15
 2714 104f 01       		.byte	0x1
 2715 1050 A70A0000 		.4byte	0xaa7
 2716 1054 68100000 		.4byte	0x1068
 2717 1058 16       		.uleb128 0x16
 2718 1059 2B010000 		.4byte	0x12b
 2719 105d 16       		.uleb128 0x16
 2720 105e 3D0A0000 		.4byte	0xa3d
 2721 1062 16       		.uleb128 0x16
 2722 1063 C80A0000 		.4byte	0xac8
 2723 1067 00       		.byte	0x0
 2724 1068 0F       		.uleb128 0xf
ARM GAS  C:\Users\DNIEL~1\AppData\Local\Temp\ccsQciza.s 			page 49


 2725 1069 04       		.byte	0x4
 2726 106a 4E100000 		.4byte	0x104e
 2727 106e 15       		.uleb128 0x15
 2728 106f 01       		.byte	0x1
 2729 1070 A70A0000 		.4byte	0xaa7
 2730 1074 83100000 		.4byte	0x1083
 2731 1078 16       		.uleb128 0x16
 2732 1079 2B010000 		.4byte	0x12b
 2733 107d 16       		.uleb128 0x16
 2734 107e C80A0000 		.4byte	0xac8
 2735 1082 00       		.byte	0x0
 2736 1083 0F       		.uleb128 0xf
 2737 1084 04       		.byte	0x4
 2738 1085 6E100000 		.4byte	0x106e
 2739 1089 15       		.uleb128 0x15
 2740 108a 01       		.byte	0x1
 2741 108b 29000000 		.4byte	0x29
 2742 108f A8100000 		.4byte	0x10a8
 2743 1093 16       		.uleb128 0x16
 2744 1094 2B010000 		.4byte	0x12b
 2745 1098 16       		.uleb128 0x16
 2746 1099 120F0000 		.4byte	0xf12
 2747 109d 16       		.uleb128 0x16
 2748 109e 29000000 		.4byte	0x29
 2749 10a2 16       		.uleb128 0x16
 2750 10a3 C80A0000 		.4byte	0xac8
 2751 10a7 00       		.byte	0x0
 2752 10a8 0F       		.uleb128 0xf
 2753 10a9 04       		.byte	0x4
 2754 10aa 89100000 		.4byte	0x1089
 2755 10ae 15       		.uleb128 0x15
 2756 10af 01       		.byte	0x1
 2757 10b0 29000000 		.4byte	0x29
 2758 10b4 CD100000 		.4byte	0x10cd
 2759 10b8 16       		.uleb128 0x16
 2760 10b9 2B010000 		.4byte	0x12b
 2761 10bd 16       		.uleb128 0x16
 2762 10be DC0E0000 		.4byte	0xedc
 2763 10c2 16       		.uleb128 0x16
 2764 10c3 29000000 		.4byte	0x29
 2765 10c7 16       		.uleb128 0x16
 2766 10c8 C80A0000 		.4byte	0xac8
 2767 10cc 00       		.byte	0x0
 2768 10cd 0F       		.uleb128 0xf
 2769 10ce 04       		.byte	0x4
 2770 10cf AE100000 		.4byte	0x10ae
 2771 10d3 1B       		.uleb128 0x1b
 2772 10d4 01       		.byte	0x1
 2773 10d5 11       		.byte	0x11
 2774 10d6 64       		.byte	0x64
 2775 10d7 EE100000 		.4byte	0x10ee
 2776 10db 1C       		.uleb128 0x1c
 2777 10dc 1E070000 		.4byte	.LASF220
 2778 10e0 00       		.sleb128 0
 2779 10e1 1C       		.uleb128 0x1c
 2780 10e2 CA020000 		.4byte	.LASF221
 2781 10e6 01       		.sleb128 1
ARM GAS  C:\Users\DNIEL~1\AppData\Local\Temp\ccsQciza.s 			page 50


 2782 10e7 1C       		.uleb128 0x1c
 2783 10e8 D9050000 		.4byte	.LASF222
 2784 10ec 02       		.sleb128 2
 2785 10ed 00       		.byte	0x0
 2786 10ee 02       		.uleb128 0x2
 2787 10ef B2010000 		.4byte	.LASF223
 2788 10f3 11       		.byte	0x11
 2789 10f4 68       		.byte	0x68
 2790 10f5 D3100000 		.4byte	0x10d3
 2791 10f9 02       		.uleb128 0x2
 2792 10fa 0C000000 		.4byte	.LASF224
 2793 10fe 11       		.byte	0x11
 2794 10ff 6D       		.byte	0x6d
 2795 1100 04110000 		.4byte	0x1104
 2796 1104 0D       		.uleb128 0xd
 2797 1105 0C000000 		.4byte	.LASF224
 2798 1109 78       		.byte	0x78
 2799 110a 11       		.byte	0x11
 2800 110b 87       		.byte	0x87
 2801 110c 7F110000 		.4byte	0x117f
 2802 1110 0E       		.uleb128 0xe
 2803 1111 766D7400 		.ascii	"vmt\000"
 2804 1115 11       		.byte	0x11
 2805 1116 89       		.byte	0x89
 2806 1117 FC110000 		.4byte	0x11fc
 2807 111b 02       		.byte	0x2
 2808 111c 23       		.byte	0x23
 2809 111d 00       		.uleb128 0x0
 2810 111e 0B       		.uleb128 0xb
 2811 111f BC010000 		.4byte	.LASF225
 2812 1123 11       		.byte	0x11
 2813 1124 8A       		.byte	0x8a
 2814 1125 D50D0000 		.4byte	0xdd5
 2815 1129 02       		.byte	0x2
 2816 112a 23       		.byte	0x23
 2817 112b 04       		.uleb128 0x4
 2818 112c 0B       		.uleb128 0xb
 2819 112d F8070000 		.4byte	.LASF226
 2820 1131 11       		.byte	0x11
 2821 1132 8A       		.byte	0x8a
 2822 1133 EE100000 		.4byte	0x10ee
 2823 1137 02       		.byte	0x2
 2824 1138 23       		.byte	0x23
 2825 1139 08       		.uleb128 0x8
 2826 113a 0B       		.uleb128 0xb
 2827 113b C7040000 		.4byte	.LASF227
 2828 113f 11       		.byte	0x11
 2829 1140 8A       		.byte	0x8a
 2830 1141 E20E0000 		.4byte	0xee2
 2831 1145 02       		.byte	0x2
 2832 1146 23       		.byte	0x23
 2833 1147 0C       		.uleb128 0xc
 2834 1148 0B       		.uleb128 0xb
 2835 1149 6B050000 		.4byte	.LASF228
 2836 114d 11       		.byte	0x11
 2837 114e 8A       		.byte	0x8a
 2838 114f ED0E0000 		.4byte	0xeed
ARM GAS  C:\Users\DNIEL~1\AppData\Local\Temp\ccsQciza.s 			page 51


 2839 1153 02       		.byte	0x2
 2840 1154 23       		.byte	0x23
 2841 1155 30       		.uleb128 0x30
 2842 1156 0E       		.uleb128 0xe
 2843 1157 696200   		.ascii	"ib\000"
 2844 115a 11       		.byte	0x11
 2845 115b 8A       		.byte	0x8a
 2846 115c 07120000 		.4byte	0x1207
 2847 1160 02       		.byte	0x2
 2848 1161 23       		.byte	0x23
 2849 1162 54       		.uleb128 0x54
 2850 1163 0E       		.uleb128 0xe
 2851 1164 6F6200   		.ascii	"ob\000"
 2852 1167 11       		.byte	0x11
 2853 1168 8A       		.byte	0x8a
 2854 1169 07120000 		.4byte	0x1207
 2855 116d 02       		.byte	0x2
 2856 116e 23       		.byte	0x23
 2857 116f 64       		.uleb128 0x64
 2858 1170 0B       		.uleb128 0xb
 2859 1171 38040000 		.4byte	.LASF229
 2860 1175 11       		.byte	0x11
 2861 1176 8A       		.byte	0x8a
 2862 1177 17120000 		.4byte	0x1217
 2863 117b 02       		.byte	0x2
 2864 117c 23       		.byte	0x23
 2865 117d 74       		.uleb128 0x74
 2866 117e 00       		.byte	0x0
 2867 117f 0D       		.uleb128 0xd
 2868 1180 79080000 		.4byte	.LASF230
 2869 1184 20       		.byte	0x20
 2870 1185 11       		.byte	0x11
 2871 1186 7C       		.byte	0x7c
 2872 1187 FC110000 		.4byte	0x11fc
 2873 118b 0B       		.uleb128 0xb
 2874 118c 54040000 		.4byte	.LASF231
 2875 1190 11       		.byte	0x11
 2876 1191 7D       		.byte	0x7d
 2877 1192 1D0F0000 		.4byte	0xf1d
 2878 1196 02       		.byte	0x2
 2879 1197 23       		.byte	0x23
 2880 1198 00       		.uleb128 0x0
 2881 1199 0B       		.uleb128 0xb
 2882 119a 03070000 		.4byte	.LASF232
 2883 119e 11       		.byte	0x11
 2884 119f 7D       		.byte	0x7d
 2885 11a0 3D0F0000 		.4byte	0xf3d
 2886 11a4 02       		.byte	0x2
 2887 11a5 23       		.byte	0x23
 2888 11a6 04       		.uleb128 0x4
 2889 11a7 0E       		.uleb128 0xe
 2890 11a8 70757400 		.ascii	"put\000"
 2891 11ac 11       		.byte	0x11
 2892 11ad 7D       		.byte	0x7d
 2893 11ae 580F0000 		.4byte	0xf58
 2894 11b2 02       		.byte	0x2
 2895 11b3 23       		.byte	0x23
ARM GAS  C:\Users\DNIEL~1\AppData\Local\Temp\ccsQciza.s 			page 52


 2896 11b4 08       		.uleb128 0x8
 2897 11b5 0E       		.uleb128 0xe
 2898 11b6 67657400 		.ascii	"get\000"
 2899 11ba 11       		.byte	0x11
 2900 11bb 7D       		.byte	0x7d
 2901 11bc 1B0E0000 		.4byte	0xe1b
 2902 11c0 02       		.byte	0x2
 2903 11c1 23       		.byte	0x23
 2904 11c2 0C       		.uleb128 0xc
 2905 11c3 0B       		.uleb128 0xb
 2906 11c4 80020000 		.4byte	.LASF233
 2907 11c8 11       		.byte	0x11
 2908 11c9 7D       		.byte	0x7d
 2909 11ca 68100000 		.4byte	0x1068
 2910 11ce 02       		.byte	0x2
 2911 11cf 23       		.byte	0x23
 2912 11d0 10       		.uleb128 0x10
 2913 11d1 0B       		.uleb128 0xb
 2914 11d2 48070000 		.4byte	.LASF234
 2915 11d6 11       		.byte	0x11
 2916 11d7 7D       		.byte	0x7d
 2917 11d8 83100000 		.4byte	0x1083
 2918 11dc 02       		.byte	0x2
 2919 11dd 23       		.byte	0x23
 2920 11de 14       		.uleb128 0x14
 2921 11df 0B       		.uleb128 0xb
 2922 11e0 5F010000 		.4byte	.LASF235
 2923 11e4 11       		.byte	0x11
 2924 11e5 7D       		.byte	0x7d
 2925 11e6 A8100000 		.4byte	0x10a8
 2926 11ea 02       		.byte	0x2
 2927 11eb 23       		.byte	0x23
 2928 11ec 18       		.uleb128 0x18
 2929 11ed 0B       		.uleb128 0xb
 2930 11ee 0F010000 		.4byte	.LASF236
 2931 11f2 11       		.byte	0x11
 2932 11f3 7D       		.byte	0x7d
 2933 11f4 CD100000 		.4byte	0x10cd
 2934 11f8 02       		.byte	0x2
 2935 11f9 23       		.byte	0x23
 2936 11fa 1C       		.uleb128 0x1c
 2937 11fb 00       		.byte	0x0
 2938 11fc 0F       		.uleb128 0xf
 2939 11fd 04       		.byte	0x4
 2940 11fe 02120000 		.4byte	0x1202
 2941 1202 17       		.uleb128 0x17
 2942 1203 7F110000 		.4byte	0x117f
 2943 1207 08       		.uleb128 0x8
 2944 1208 3D0A0000 		.4byte	0xa3d
 2945 120c 17120000 		.4byte	0x1217
 2946 1210 09       		.uleb128 0x9
 2947 1211 34000000 		.4byte	0x34
 2948 1215 0F       		.byte	0xf
 2949 1216 00       		.byte	0x0
 2950 1217 0F       		.uleb128 0xf
 2951 1218 04       		.byte	0x4
 2952 1219 42100000 		.4byte	0x1042
ARM GAS  C:\Users\DNIEL~1\AppData\Local\Temp\ccsQciza.s 			page 53


 2953 121d 1D       		.uleb128 0x1d
 2954 121e 01       		.byte	0x1
 2955 121f CB050000 		.4byte	.LASF238
 2956 1223 01       		.byte	0x1
 2957 1224 4B       		.byte	0x4b
 2958 1225 01       		.byte	0x1
 2959 1226 57000000 		.4byte	0x57
 2960 122a 00000000 		.4byte	.LFB118
 2961 122e 20000000 		.4byte	.LFE118
 2962 1232 02       		.byte	0x2
 2963 1233 7D       		.byte	0x7d
 2964 1234 00       		.sleb128 0
 2965 1235 74120000 		.4byte	0x1274
 2966 1239 1E       		.uleb128 0x1e
 2967 123a 7200     		.ascii	"r\000"
 2968 123c 01       		.byte	0x1
 2969 123d 4B       		.byte	0x4b
 2970 123e AB040000 		.4byte	0x4ab
 2971 1242 00000000 		.4byte	.LLST0
 2972 1246 1F       		.uleb128 0x1f
 2973 1247 0F020000 		.4byte	.LASF237
 2974 124b 01       		.byte	0x1
 2975 124c 4B       		.byte	0x4b
 2976 124d 57000000 		.4byte	0x57
 2977 1251 1E000000 		.4byte	.LLST1
 2978 1255 1E       		.uleb128 0x1e
 2979 1256 70747200 		.ascii	"ptr\000"
 2980 125a 01       		.byte	0x1
 2981 125b 4B       		.byte	0x4b
 2982 125c 2A060000 		.4byte	0x62a
 2983 1260 3C000000 		.4byte	.LLST2
 2984 1264 1E       		.uleb128 0x1e
 2985 1265 6C656E00 		.ascii	"len\000"
 2986 1269 01       		.byte	0x1
 2987 126a 4B       		.byte	0x4b
 2988 126b 57000000 		.4byte	0x57
 2989 126f 65000000 		.4byte	.LLST3
 2990 1273 00       		.byte	0x0
 2991 1274 1D       		.uleb128 0x1d
 2992 1275 01       		.byte	0x1
 2993 1276 4F050000 		.4byte	.LASF239
 2994 127a 01       		.byte	0x1
 2995 127b 60       		.byte	0x60
 2996 127c 01       		.byte	0x1
 2997 127d 57000000 		.4byte	0x57
 2998 1281 00000000 		.4byte	.LFB119
 2999 1285 04000000 		.4byte	.LFE119
 3000 1289 02       		.byte	0x2
 3001 128a 7D       		.byte	0x7d
 3002 128b 00       		.sleb128 0
 3003 128c C5120000 		.4byte	0x12c5
 3004 1290 1E       		.uleb128 0x1e
 3005 1291 7200     		.ascii	"r\000"
 3006 1293 01       		.byte	0x1
 3007 1294 60       		.byte	0x60
 3008 1295 AB040000 		.4byte	0x4ab
 3009 1299 8E000000 		.4byte	.LLST4
ARM GAS  C:\Users\DNIEL~1\AppData\Local\Temp\ccsQciza.s 			page 54


 3010 129d 20       		.uleb128 0x20
 3011 129e 0F020000 		.4byte	.LASF237
 3012 12a2 01       		.byte	0x1
 3013 12a3 60       		.byte	0x60
 3014 12a4 57000000 		.4byte	0x57
 3015 12a8 01       		.byte	0x1
 3016 12a9 51       		.byte	0x51
 3017 12aa 21       		.uleb128 0x21
 3018 12ab 70747200 		.ascii	"ptr\000"
 3019 12af 01       		.byte	0x1
 3020 12b0 60       		.byte	0x60
 3021 12b1 57000000 		.4byte	0x57
 3022 12b5 01       		.byte	0x1
 3023 12b6 52       		.byte	0x52
 3024 12b7 21       		.uleb128 0x21
 3025 12b8 64697200 		.ascii	"dir\000"
 3026 12bc 01       		.byte	0x1
 3027 12bd 60       		.byte	0x60
 3028 12be 57000000 		.4byte	0x57
 3029 12c2 01       		.byte	0x1
 3030 12c3 53       		.byte	0x53
 3031 12c4 00       		.byte	0x0
 3032 12c5 22       		.uleb128 0x22
 3033 12c6 01       		.byte	0x1
 3034 12c7 94000000 		.4byte	.LASF240
 3035 12cb 01       		.byte	0x1
 3036 12cc 6C       		.byte	0x6c
 3037 12cd 01       		.byte	0x1
 3038 12ce 57000000 		.4byte	0x57
 3039 12d2 00000000 		.4byte	.LFB120
 3040 12d6 2C000000 		.4byte	.LFE120
 3041 12da A1000000 		.4byte	.LLST5
 3042 12de 1D130000 		.4byte	0x131d
 3043 12e2 1E       		.uleb128 0x1e
 3044 12e3 7200     		.ascii	"r\000"
 3045 12e5 01       		.byte	0x1
 3046 12e6 6C       		.byte	0x6c
 3047 12e7 AB040000 		.4byte	0x4ab
 3048 12eb C1000000 		.4byte	.LLST6
 3049 12ef 1F       		.uleb128 0x1f
 3050 12f0 0F020000 		.4byte	.LASF237
 3051 12f4 01       		.byte	0x1
 3052 12f5 6C       		.byte	0x6c
 3053 12f6 57000000 		.4byte	0x57
 3054 12fa DF000000 		.4byte	.LLST7
 3055 12fe 1E       		.uleb128 0x1e
 3056 12ff 70747200 		.ascii	"ptr\000"
 3057 1303 01       		.byte	0x1
 3058 1304 6C       		.byte	0x6c
 3059 1305 2A060000 		.4byte	0x62a
 3060 1309 FD000000 		.4byte	.LLST8
 3061 130d 1E       		.uleb128 0x1e
 3062 130e 6C656E00 		.ascii	"len\000"
 3063 1312 01       		.byte	0x1
 3064 1313 6C       		.byte	0x6c
 3065 1314 57000000 		.4byte	0x57
 3066 1318 26010000 		.4byte	.LLST9
ARM GAS  C:\Users\DNIEL~1\AppData\Local\Temp\ccsQciza.s 			page 55


 3067 131c 00       		.byte	0x0
 3068 131d 1D       		.uleb128 0x1d
 3069 131e 01       		.byte	0x1
 3070 131f 27050000 		.4byte	.LASF241
 3071 1323 01       		.byte	0x1
 3072 1324 7D       		.byte	0x7d
 3073 1325 01       		.byte	0x1
 3074 1326 57000000 		.4byte	0x57
 3075 132a 00000000 		.4byte	.LFB121
 3076 132e 04000000 		.4byte	.LFE121
 3077 1332 02       		.byte	0x2
 3078 1333 7D       		.byte	0x7d
 3079 1334 00       		.sleb128 0
 3080 1335 54130000 		.4byte	0x1354
 3081 1339 1E       		.uleb128 0x1e
 3082 133a 7200     		.ascii	"r\000"
 3083 133c 01       		.byte	0x1
 3084 133d 7D       		.byte	0x7d
 3085 133e AB040000 		.4byte	0x4ab
 3086 1342 4F010000 		.4byte	.LLST10
 3087 1346 20       		.uleb128 0x20
 3088 1347 0F020000 		.4byte	.LASF237
 3089 134b 01       		.byte	0x1
 3090 134c 7D       		.byte	0x7d
 3091 134d 57000000 		.4byte	0x57
 3092 1351 01       		.byte	0x1
 3093 1352 51       		.byte	0x51
 3094 1353 00       		.byte	0x0
 3095 1354 22       		.uleb128 0x22
 3096 1355 01       		.byte	0x1
 3097 1356 29020000 		.4byte	.LASF242
 3098 135a 01       		.byte	0x1
 3099 135b 87       		.byte	0x87
 3100 135c 01       		.byte	0x1
 3101 135d DA080000 		.4byte	0x8da
 3102 1361 00000000 		.4byte	.LFB122
 3103 1365 18000000 		.4byte	.LFE122
 3104 1369 62010000 		.4byte	.LLST11
 3105 136d 9B130000 		.4byte	0x139b
 3106 1371 1E       		.uleb128 0x1e
 3107 1372 7200     		.ascii	"r\000"
 3108 1374 01       		.byte	0x1
 3109 1375 87       		.byte	0x87
 3110 1376 AB040000 		.4byte	0x4ab
 3111 137a 82010000 		.4byte	.LLST12
 3112 137e 1F       		.uleb128 0x1f
 3113 137f 1C030000 		.4byte	.LASF243
 3114 1383 01       		.byte	0x1
 3115 1384 87       		.byte	0x87
 3116 1385 57000000 		.4byte	0x57
 3117 1389 A0010000 		.4byte	.LLST13
 3118 138d 23       		.uleb128 0x23
 3119 138e 7000     		.ascii	"p\000"
 3120 1390 01       		.byte	0x1
 3121 1391 8A       		.byte	0x8a
 3122 1392 2B010000 		.4byte	0x12b
 3123 1396 B3010000 		.4byte	.LLST14
ARM GAS  C:\Users\DNIEL~1\AppData\Local\Temp\ccsQciza.s 			page 56


 3124 139a 00       		.byte	0x0
 3125 139b 22       		.uleb128 0x22
 3126 139c 01       		.byte	0x1
 3127 139d E8020000 		.4byte	.LASF244
 3128 13a1 01       		.byte	0x1
 3129 13a2 9D       		.byte	0x9d
 3130 13a3 01       		.byte	0x1
 3131 13a4 57000000 		.4byte	0x57
 3132 13a8 00000000 		.4byte	.LFB123
 3133 13ac 18000000 		.4byte	.LFE123
 3134 13b0 C6010000 		.4byte	.LLST15
 3135 13b4 E3130000 		.4byte	0x13e3
 3136 13b8 1E       		.uleb128 0x1e
 3137 13b9 7200     		.ascii	"r\000"
 3138 13bb 01       		.byte	0x1
 3139 13bc 9D       		.byte	0x9d
 3140 13bd AB040000 		.4byte	0x4ab
 3141 13c1 E6010000 		.4byte	.LLST16
 3142 13c5 1F       		.uleb128 0x1f
 3143 13c6 0F020000 		.4byte	.LASF237
 3144 13ca 01       		.byte	0x1
 3145 13cb 9D       		.byte	0x9d
 3146 13cc 57000000 		.4byte	0x57
 3147 13d0 F9010000 		.4byte	.LLST17
 3148 13d4 1E       		.uleb128 0x1e
 3149 13d5 737400   		.ascii	"st\000"
 3150 13d8 01       		.byte	0x1
 3151 13d9 9D       		.byte	0x9d
 3152 13da E3130000 		.4byte	0x13e3
 3153 13de 0C020000 		.4byte	.LLST18
 3154 13e2 00       		.byte	0x0
 3155 13e3 0F       		.uleb128 0xf
 3156 13e4 04       		.byte	0x4
 3157 13e5 32090000 		.4byte	0x932
 3158 13e9 1D       		.uleb128 0x1d
 3159 13ea 01       		.byte	0x1
 3160 13eb D3010000 		.4byte	.LASF245
 3161 13ef 01       		.byte	0x1
 3162 13f0 A9       		.byte	0xa9
 3163 13f1 01       		.byte	0x1
 3164 13f2 57000000 		.4byte	0x57
 3165 13f6 00000000 		.4byte	.LFB124
 3166 13fa 04000000 		.4byte	.LFE124
 3167 13fe 02       		.byte	0x2
 3168 13ff 7D       		.byte	0x7d
 3169 1400 00       		.sleb128 0
 3170 1401 1F140000 		.4byte	0x141f
 3171 1405 1E       		.uleb128 0x1e
 3172 1406 7200     		.ascii	"r\000"
 3173 1408 01       		.byte	0x1
 3174 1409 A9       		.byte	0xa9
 3175 140a AB040000 		.4byte	0x4ab
 3176 140e 35020000 		.4byte	.LLST19
 3177 1412 21       		.uleb128 0x21
 3178 1413 666400   		.ascii	"fd\000"
 3179 1416 01       		.byte	0x1
 3180 1417 A9       		.byte	0xa9
ARM GAS  C:\Users\DNIEL~1\AppData\Local\Temp\ccsQciza.s 			page 57


 3181 1418 57000000 		.4byte	0x57
 3182 141c 01       		.byte	0x1
 3183 141d 51       		.byte	0x51
 3184 141e 00       		.byte	0x0
 3185 141f 24       		.uleb128 0x24
 3186 1420 5D060000 		.4byte	.LASF246
 3187 1424 12       		.byte	0x12
 3188 1425 9806     		.2byte	0x698
 3189 1427 630F0000 		.4byte	0xf63
 3190 142b 01       		.byte	0x1
 3191 142c 01       		.byte	0x1
 3192 142d 25       		.uleb128 0x25
 3193 142e 53443100 		.ascii	"SD1\000"
 3194 1432 13       		.byte	0x13
 3195 1433 0F01     		.2byte	0x10f
 3196 1435 F9100000 		.4byte	0x10f9
 3197 1439 01       		.byte	0x1
 3198 143a 01       		.byte	0x1
 3199 143b 24       		.uleb128 0x24
 3200 143c 5D060000 		.4byte	.LASF246
 3201 1440 12       		.byte	0x12
 3202 1441 9806     		.2byte	0x698
 3203 1443 630F0000 		.4byte	0xf63
 3204 1447 01       		.byte	0x1
 3205 1448 01       		.byte	0x1
 3206 1449 25       		.uleb128 0x25
 3207 144a 53443100 		.ascii	"SD1\000"
 3208 144e 13       		.byte	0x13
 3209 144f 0F01     		.2byte	0x10f
 3210 1451 F9100000 		.4byte	0x10f9
 3211 1455 01       		.byte	0x1
 3212 1456 01       		.byte	0x1
 3213 1457 00       		.byte	0x0
 3214              		.section	.debug_abbrev
 3215 0000 01       		.uleb128 0x1
 3216 0001 11       		.uleb128 0x11
 3217 0002 01       		.byte	0x1
 3218 0003 25       		.uleb128 0x25
 3219 0004 0E       		.uleb128 0xe
 3220 0005 13       		.uleb128 0x13
 3221 0006 0B       		.uleb128 0xb
 3222 0007 03       		.uleb128 0x3
 3223 0008 0E       		.uleb128 0xe
 3224 0009 1B       		.uleb128 0x1b
 3225 000a 0E       		.uleb128 0xe
 3226 000b 11       		.uleb128 0x11
 3227 000c 01       		.uleb128 0x1
 3228 000d 52       		.uleb128 0x52
 3229 000e 01       		.uleb128 0x1
 3230 000f 55       		.uleb128 0x55
 3231 0010 06       		.uleb128 0x6
 3232 0011 10       		.uleb128 0x10
 3233 0012 06       		.uleb128 0x6
 3234 0013 00       		.byte	0x0
 3235 0014 00       		.byte	0x0
 3236 0015 02       		.uleb128 0x2
 3237 0016 16       		.uleb128 0x16
ARM GAS  C:\Users\DNIEL~1\AppData\Local\Temp\ccsQciza.s 			page 58


 3238 0017 00       		.byte	0x0
 3239 0018 03       		.uleb128 0x3
 3240 0019 0E       		.uleb128 0xe
 3241 001a 3A       		.uleb128 0x3a
 3242 001b 0B       		.uleb128 0xb
 3243 001c 3B       		.uleb128 0x3b
 3244 001d 0B       		.uleb128 0xb
 3245 001e 49       		.uleb128 0x49
 3246 001f 13       		.uleb128 0x13
 3247 0020 00       		.byte	0x0
 3248 0021 00       		.byte	0x0
 3249 0022 03       		.uleb128 0x3
 3250 0023 24       		.uleb128 0x24
 3251 0024 00       		.byte	0x0
 3252 0025 0B       		.uleb128 0xb
 3253 0026 0B       		.uleb128 0xb
 3254 0027 3E       		.uleb128 0x3e
 3255 0028 0B       		.uleb128 0xb
 3256 0029 03       		.uleb128 0x3
 3257 002a 0E       		.uleb128 0xe
 3258 002b 00       		.byte	0x0
 3259 002c 00       		.byte	0x0
 3260 002d 04       		.uleb128 0x4
 3261 002e 24       		.uleb128 0x24
 3262 002f 00       		.byte	0x0
 3263 0030 0B       		.uleb128 0xb
 3264 0031 0B       		.uleb128 0xb
 3265 0032 3E       		.uleb128 0x3e
 3266 0033 0B       		.uleb128 0xb
 3267 0034 03       		.uleb128 0x3
 3268 0035 08       		.uleb128 0x8
 3269 0036 00       		.byte	0x0
 3270 0037 00       		.byte	0x0
 3271 0038 05       		.uleb128 0x5
 3272 0039 16       		.uleb128 0x16
 3273 003a 00       		.byte	0x0
 3274 003b 03       		.uleb128 0x3
 3275 003c 0E       		.uleb128 0xe
 3276 003d 3A       		.uleb128 0x3a
 3277 003e 0B       		.uleb128 0xb
 3278 003f 3B       		.uleb128 0x3b
 3279 0040 05       		.uleb128 0x5
 3280 0041 49       		.uleb128 0x49
 3281 0042 13       		.uleb128 0x13
 3282 0043 00       		.byte	0x0
 3283 0044 00       		.byte	0x0
 3284 0045 06       		.uleb128 0x6
 3285 0046 17       		.uleb128 0x17
 3286 0047 01       		.byte	0x1
 3287 0048 0B       		.uleb128 0xb
 3288 0049 0B       		.uleb128 0xb
 3289 004a 3A       		.uleb128 0x3a
 3290 004b 0B       		.uleb128 0xb
 3291 004c 3B       		.uleb128 0x3b
 3292 004d 0B       		.uleb128 0xb
 3293 004e 01       		.uleb128 0x1
 3294 004f 13       		.uleb128 0x13
ARM GAS  C:\Users\DNIEL~1\AppData\Local\Temp\ccsQciza.s 			page 59


 3295 0050 00       		.byte	0x0
 3296 0051 00       		.byte	0x0
 3297 0052 07       		.uleb128 0x7
 3298 0053 0D       		.uleb128 0xd
 3299 0054 00       		.byte	0x0
 3300 0055 03       		.uleb128 0x3
 3301 0056 0E       		.uleb128 0xe
 3302 0057 3A       		.uleb128 0x3a
 3303 0058 0B       		.uleb128 0xb
 3304 0059 3B       		.uleb128 0x3b
 3305 005a 0B       		.uleb128 0xb
 3306 005b 49       		.uleb128 0x49
 3307 005c 13       		.uleb128 0x13
 3308 005d 00       		.byte	0x0
 3309 005e 00       		.byte	0x0
 3310 005f 08       		.uleb128 0x8
 3311 0060 01       		.uleb128 0x1
 3312 0061 01       		.byte	0x1
 3313 0062 49       		.uleb128 0x49
 3314 0063 13       		.uleb128 0x13
 3315 0064 01       		.uleb128 0x1
 3316 0065 13       		.uleb128 0x13
 3317 0066 00       		.byte	0x0
 3318 0067 00       		.byte	0x0
 3319 0068 09       		.uleb128 0x9
 3320 0069 21       		.uleb128 0x21
 3321 006a 00       		.byte	0x0
 3322 006b 49       		.uleb128 0x49
 3323 006c 13       		.uleb128 0x13
 3324 006d 2F       		.uleb128 0x2f
 3325 006e 0B       		.uleb128 0xb
 3326 006f 00       		.byte	0x0
 3327 0070 00       		.byte	0x0
 3328 0071 0A       		.uleb128 0xa
 3329 0072 13       		.uleb128 0x13
 3330 0073 01       		.byte	0x1
 3331 0074 0B       		.uleb128 0xb
 3332 0075 0B       		.uleb128 0xb
 3333 0076 3A       		.uleb128 0x3a
 3334 0077 0B       		.uleb128 0xb
 3335 0078 3B       		.uleb128 0x3b
 3336 0079 0B       		.uleb128 0xb
 3337 007a 01       		.uleb128 0x1
 3338 007b 13       		.uleb128 0x13
 3339 007c 00       		.byte	0x0
 3340 007d 00       		.byte	0x0
 3341 007e 0B       		.uleb128 0xb
 3342 007f 0D       		.uleb128 0xd
 3343 0080 00       		.byte	0x0
 3344 0081 03       		.uleb128 0x3
 3345 0082 0E       		.uleb128 0xe
 3346 0083 3A       		.uleb128 0x3a
 3347 0084 0B       		.uleb128 0xb
 3348 0085 3B       		.uleb128 0x3b
 3349 0086 0B       		.uleb128 0xb
 3350 0087 49       		.uleb128 0x49
 3351 0088 13       		.uleb128 0x13
ARM GAS  C:\Users\DNIEL~1\AppData\Local\Temp\ccsQciza.s 			page 60


 3352 0089 38       		.uleb128 0x38
 3353 008a 0A       		.uleb128 0xa
 3354 008b 00       		.byte	0x0
 3355 008c 00       		.byte	0x0
 3356 008d 0C       		.uleb128 0xc
 3357 008e 0F       		.uleb128 0xf
 3358 008f 00       		.byte	0x0
 3359 0090 0B       		.uleb128 0xb
 3360 0091 0B       		.uleb128 0xb
 3361 0092 00       		.byte	0x0
 3362 0093 00       		.byte	0x0
 3363 0094 0D       		.uleb128 0xd
 3364 0095 13       		.uleb128 0x13
 3365 0096 01       		.byte	0x1
 3366 0097 03       		.uleb128 0x3
 3367 0098 0E       		.uleb128 0xe
 3368 0099 0B       		.uleb128 0xb
 3369 009a 0B       		.uleb128 0xb
 3370 009b 3A       		.uleb128 0x3a
 3371 009c 0B       		.uleb128 0xb
 3372 009d 3B       		.uleb128 0x3b
 3373 009e 0B       		.uleb128 0xb
 3374 009f 01       		.uleb128 0x1
 3375 00a0 13       		.uleb128 0x13
 3376 00a1 00       		.byte	0x0
 3377 00a2 00       		.byte	0x0
 3378 00a3 0E       		.uleb128 0xe
 3379 00a4 0D       		.uleb128 0xd
 3380 00a5 00       		.byte	0x0
 3381 00a6 03       		.uleb128 0x3
 3382 00a7 08       		.uleb128 0x8
 3383 00a8 3A       		.uleb128 0x3a
 3384 00a9 0B       		.uleb128 0xb
 3385 00aa 3B       		.uleb128 0x3b
 3386 00ab 0B       		.uleb128 0xb
 3387 00ac 49       		.uleb128 0x49
 3388 00ad 13       		.uleb128 0x13
 3389 00ae 38       		.uleb128 0x38
 3390 00af 0A       		.uleb128 0xa
 3391 00b0 00       		.byte	0x0
 3392 00b1 00       		.byte	0x0
 3393 00b2 0F       		.uleb128 0xf
 3394 00b3 0F       		.uleb128 0xf
 3395 00b4 00       		.byte	0x0
 3396 00b5 0B       		.uleb128 0xb
 3397 00b6 0B       		.uleb128 0xb
 3398 00b7 49       		.uleb128 0x49
 3399 00b8 13       		.uleb128 0x13
 3400 00b9 00       		.byte	0x0
 3401 00ba 00       		.byte	0x0
 3402 00bb 10       		.uleb128 0x10
 3403 00bc 13       		.uleb128 0x13
 3404 00bd 01       		.byte	0x1
 3405 00be 03       		.uleb128 0x3
 3406 00bf 0E       		.uleb128 0xe
 3407 00c0 0B       		.uleb128 0xb
 3408 00c1 05       		.uleb128 0x5
ARM GAS  C:\Users\DNIEL~1\AppData\Local\Temp\ccsQciza.s 			page 61


 3409 00c2 3A       		.uleb128 0x3a
 3410 00c3 0B       		.uleb128 0xb
 3411 00c4 3B       		.uleb128 0x3b
 3412 00c5 0B       		.uleb128 0xb
 3413 00c6 01       		.uleb128 0x1
 3414 00c7 13       		.uleb128 0x13
 3415 00c8 00       		.byte	0x0
 3416 00c9 00       		.byte	0x0
 3417 00ca 11       		.uleb128 0x11
 3418 00cb 15       		.uleb128 0x15
 3419 00cc 00       		.byte	0x0
 3420 00cd 27       		.uleb128 0x27
 3421 00ce 0C       		.uleb128 0xc
 3422 00cf 00       		.byte	0x0
 3423 00d0 00       		.byte	0x0
 3424 00d1 12       		.uleb128 0x12
 3425 00d2 13       		.uleb128 0x13
 3426 00d3 01       		.byte	0x1
 3427 00d4 03       		.uleb128 0x3
 3428 00d5 0E       		.uleb128 0xe
 3429 00d6 0B       		.uleb128 0xb
 3430 00d7 0B       		.uleb128 0xb
 3431 00d8 3A       		.uleb128 0x3a
 3432 00d9 0B       		.uleb128 0xb
 3433 00da 3B       		.uleb128 0x3b
 3434 00db 05       		.uleb128 0x5
 3435 00dc 01       		.uleb128 0x1
 3436 00dd 13       		.uleb128 0x13
 3437 00de 00       		.byte	0x0
 3438 00df 00       		.byte	0x0
 3439 00e0 13       		.uleb128 0x13
 3440 00e1 0D       		.uleb128 0xd
 3441 00e2 00       		.byte	0x0
 3442 00e3 03       		.uleb128 0x3
 3443 00e4 0E       		.uleb128 0xe
 3444 00e5 3A       		.uleb128 0x3a
 3445 00e6 0B       		.uleb128 0xb
 3446 00e7 3B       		.uleb128 0x3b
 3447 00e8 05       		.uleb128 0x5
 3448 00e9 49       		.uleb128 0x49
 3449 00ea 13       		.uleb128 0x13
 3450 00eb 38       		.uleb128 0x38
 3451 00ec 0A       		.uleb128 0xa
 3452 00ed 00       		.byte	0x0
 3453 00ee 00       		.byte	0x0
 3454 00ef 14       		.uleb128 0x14
 3455 00f0 0D       		.uleb128 0xd
 3456 00f1 00       		.byte	0x0
 3457 00f2 03       		.uleb128 0x3
 3458 00f3 08       		.uleb128 0x8
 3459 00f4 3A       		.uleb128 0x3a
 3460 00f5 0B       		.uleb128 0xb
 3461 00f6 3B       		.uleb128 0x3b
 3462 00f7 05       		.uleb128 0x5
 3463 00f8 49       		.uleb128 0x49
 3464 00f9 13       		.uleb128 0x13
 3465 00fa 38       		.uleb128 0x38
ARM GAS  C:\Users\DNIEL~1\AppData\Local\Temp\ccsQciza.s 			page 62


 3466 00fb 0A       		.uleb128 0xa
 3467 00fc 00       		.byte	0x0
 3468 00fd 00       		.byte	0x0
 3469 00fe 15       		.uleb128 0x15
 3470 00ff 15       		.uleb128 0x15
 3471 0100 01       		.byte	0x1
 3472 0101 27       		.uleb128 0x27
 3473 0102 0C       		.uleb128 0xc
 3474 0103 49       		.uleb128 0x49
 3475 0104 13       		.uleb128 0x13
 3476 0105 01       		.uleb128 0x1
 3477 0106 13       		.uleb128 0x13
 3478 0107 00       		.byte	0x0
 3479 0108 00       		.byte	0x0
 3480 0109 16       		.uleb128 0x16
 3481 010a 05       		.uleb128 0x5
 3482 010b 00       		.byte	0x0
 3483 010c 49       		.uleb128 0x49
 3484 010d 13       		.uleb128 0x13
 3485 010e 00       		.byte	0x0
 3486 010f 00       		.byte	0x0
 3487 0110 17       		.uleb128 0x17
 3488 0111 26       		.uleb128 0x26
 3489 0112 00       		.byte	0x0
 3490 0113 49       		.uleb128 0x49
 3491 0114 13       		.uleb128 0x13
 3492 0115 00       		.byte	0x0
 3493 0116 00       		.byte	0x0
 3494 0117 18       		.uleb128 0x18
 3495 0118 15       		.uleb128 0x15
 3496 0119 01       		.byte	0x1
 3497 011a 27       		.uleb128 0x27
 3498 011b 0C       		.uleb128 0xc
 3499 011c 01       		.uleb128 0x1
 3500 011d 13       		.uleb128 0x13
 3501 011e 00       		.byte	0x0
 3502 011f 00       		.byte	0x0
 3503 0120 19       		.uleb128 0x19
 3504 0121 35       		.uleb128 0x35
 3505 0122 00       		.byte	0x0
 3506 0123 49       		.uleb128 0x49
 3507 0124 13       		.uleb128 0x13
 3508 0125 00       		.byte	0x0
 3509 0126 00       		.byte	0x0
 3510 0127 1A       		.uleb128 0x1a
 3511 0128 13       		.uleb128 0x13
 3512 0129 01       		.byte	0x1
 3513 012a 0B       		.uleb128 0xb
 3514 012b 0B       		.uleb128 0xb
 3515 012c 3A       		.uleb128 0x3a
 3516 012d 0B       		.uleb128 0xb
 3517 012e 3B       		.uleb128 0x3b
 3518 012f 05       		.uleb128 0x5
 3519 0130 01       		.uleb128 0x1
 3520 0131 13       		.uleb128 0x13
 3521 0132 00       		.byte	0x0
 3522 0133 00       		.byte	0x0
ARM GAS  C:\Users\DNIEL~1\AppData\Local\Temp\ccsQciza.s 			page 63


 3523 0134 1B       		.uleb128 0x1b
 3524 0135 04       		.uleb128 0x4
 3525 0136 01       		.byte	0x1
 3526 0137 0B       		.uleb128 0xb
 3527 0138 0B       		.uleb128 0xb
 3528 0139 3A       		.uleb128 0x3a
 3529 013a 0B       		.uleb128 0xb
 3530 013b 3B       		.uleb128 0x3b
 3531 013c 0B       		.uleb128 0xb
 3532 013d 01       		.uleb128 0x1
 3533 013e 13       		.uleb128 0x13
 3534 013f 00       		.byte	0x0
 3535 0140 00       		.byte	0x0
 3536 0141 1C       		.uleb128 0x1c
 3537 0142 28       		.uleb128 0x28
 3538 0143 00       		.byte	0x0
 3539 0144 03       		.uleb128 0x3
 3540 0145 0E       		.uleb128 0xe
 3541 0146 1C       		.uleb128 0x1c
 3542 0147 0D       		.uleb128 0xd
 3543 0148 00       		.byte	0x0
 3544 0149 00       		.byte	0x0
 3545 014a 1D       		.uleb128 0x1d
 3546 014b 2E       		.uleb128 0x2e
 3547 014c 01       		.byte	0x1
 3548 014d 3F       		.uleb128 0x3f
 3549 014e 0C       		.uleb128 0xc
 3550 014f 03       		.uleb128 0x3
 3551 0150 0E       		.uleb128 0xe
 3552 0151 3A       		.uleb128 0x3a
 3553 0152 0B       		.uleb128 0xb
 3554 0153 3B       		.uleb128 0x3b
 3555 0154 0B       		.uleb128 0xb
 3556 0155 27       		.uleb128 0x27
 3557 0156 0C       		.uleb128 0xc
 3558 0157 49       		.uleb128 0x49
 3559 0158 13       		.uleb128 0x13
 3560 0159 11       		.uleb128 0x11
 3561 015a 01       		.uleb128 0x1
 3562 015b 12       		.uleb128 0x12
 3563 015c 01       		.uleb128 0x1
 3564 015d 40       		.uleb128 0x40
 3565 015e 0A       		.uleb128 0xa
 3566 015f 01       		.uleb128 0x1
 3567 0160 13       		.uleb128 0x13
 3568 0161 00       		.byte	0x0
 3569 0162 00       		.byte	0x0
 3570 0163 1E       		.uleb128 0x1e
 3571 0164 05       		.uleb128 0x5
 3572 0165 00       		.byte	0x0
 3573 0166 03       		.uleb128 0x3
 3574 0167 08       		.uleb128 0x8
 3575 0168 3A       		.uleb128 0x3a
 3576 0169 0B       		.uleb128 0xb
 3577 016a 3B       		.uleb128 0x3b
 3578 016b 0B       		.uleb128 0xb
 3579 016c 49       		.uleb128 0x49
ARM GAS  C:\Users\DNIEL~1\AppData\Local\Temp\ccsQciza.s 			page 64


 3580 016d 13       		.uleb128 0x13
 3581 016e 02       		.uleb128 0x2
 3582 016f 06       		.uleb128 0x6
 3583 0170 00       		.byte	0x0
 3584 0171 00       		.byte	0x0
 3585 0172 1F       		.uleb128 0x1f
 3586 0173 05       		.uleb128 0x5
 3587 0174 00       		.byte	0x0
 3588 0175 03       		.uleb128 0x3
 3589 0176 0E       		.uleb128 0xe
 3590 0177 3A       		.uleb128 0x3a
 3591 0178 0B       		.uleb128 0xb
 3592 0179 3B       		.uleb128 0x3b
 3593 017a 0B       		.uleb128 0xb
 3594 017b 49       		.uleb128 0x49
 3595 017c 13       		.uleb128 0x13
 3596 017d 02       		.uleb128 0x2
 3597 017e 06       		.uleb128 0x6
 3598 017f 00       		.byte	0x0
 3599 0180 00       		.byte	0x0
 3600 0181 20       		.uleb128 0x20
 3601 0182 05       		.uleb128 0x5
 3602 0183 00       		.byte	0x0
 3603 0184 03       		.uleb128 0x3
 3604 0185 0E       		.uleb128 0xe
 3605 0186 3A       		.uleb128 0x3a
 3606 0187 0B       		.uleb128 0xb
 3607 0188 3B       		.uleb128 0x3b
 3608 0189 0B       		.uleb128 0xb
 3609 018a 49       		.uleb128 0x49
 3610 018b 13       		.uleb128 0x13
 3611 018c 02       		.uleb128 0x2
 3612 018d 0A       		.uleb128 0xa
 3613 018e 00       		.byte	0x0
 3614 018f 00       		.byte	0x0
 3615 0190 21       		.uleb128 0x21
 3616 0191 05       		.uleb128 0x5
 3617 0192 00       		.byte	0x0
 3618 0193 03       		.uleb128 0x3
 3619 0194 08       		.uleb128 0x8
 3620 0195 3A       		.uleb128 0x3a
 3621 0196 0B       		.uleb128 0xb
 3622 0197 3B       		.uleb128 0x3b
 3623 0198 0B       		.uleb128 0xb
 3624 0199 49       		.uleb128 0x49
 3625 019a 13       		.uleb128 0x13
 3626 019b 02       		.uleb128 0x2
 3627 019c 0A       		.uleb128 0xa
 3628 019d 00       		.byte	0x0
 3629 019e 00       		.byte	0x0
 3630 019f 22       		.uleb128 0x22
 3631 01a0 2E       		.uleb128 0x2e
 3632 01a1 01       		.byte	0x1
 3633 01a2 3F       		.uleb128 0x3f
 3634 01a3 0C       		.uleb128 0xc
 3635 01a4 03       		.uleb128 0x3
 3636 01a5 0E       		.uleb128 0xe
ARM GAS  C:\Users\DNIEL~1\AppData\Local\Temp\ccsQciza.s 			page 65


 3637 01a6 3A       		.uleb128 0x3a
 3638 01a7 0B       		.uleb128 0xb
 3639 01a8 3B       		.uleb128 0x3b
 3640 01a9 0B       		.uleb128 0xb
 3641 01aa 27       		.uleb128 0x27
 3642 01ab 0C       		.uleb128 0xc
 3643 01ac 49       		.uleb128 0x49
 3644 01ad 13       		.uleb128 0x13
 3645 01ae 11       		.uleb128 0x11
 3646 01af 01       		.uleb128 0x1
 3647 01b0 12       		.uleb128 0x12
 3648 01b1 01       		.uleb128 0x1
 3649 01b2 40       		.uleb128 0x40
 3650 01b3 06       		.uleb128 0x6
 3651 01b4 01       		.uleb128 0x1
 3652 01b5 13       		.uleb128 0x13
 3653 01b6 00       		.byte	0x0
 3654 01b7 00       		.byte	0x0
 3655 01b8 23       		.uleb128 0x23
 3656 01b9 34       		.uleb128 0x34
 3657 01ba 00       		.byte	0x0
 3658 01bb 03       		.uleb128 0x3
 3659 01bc 08       		.uleb128 0x8
 3660 01bd 3A       		.uleb128 0x3a
 3661 01be 0B       		.uleb128 0xb
 3662 01bf 3B       		.uleb128 0x3b
 3663 01c0 0B       		.uleb128 0xb
 3664 01c1 49       		.uleb128 0x49
 3665 01c2 13       		.uleb128 0x13
 3666 01c3 02       		.uleb128 0x2
 3667 01c4 06       		.uleb128 0x6
 3668 01c5 00       		.byte	0x0
 3669 01c6 00       		.byte	0x0
 3670 01c7 24       		.uleb128 0x24
 3671 01c8 34       		.uleb128 0x34
 3672 01c9 00       		.byte	0x0
 3673 01ca 03       		.uleb128 0x3
 3674 01cb 0E       		.uleb128 0xe
 3675 01cc 3A       		.uleb128 0x3a
 3676 01cd 0B       		.uleb128 0xb
 3677 01ce 3B       		.uleb128 0x3b
 3678 01cf 05       		.uleb128 0x5
 3679 01d0 49       		.uleb128 0x49
 3680 01d1 13       		.uleb128 0x13
 3681 01d2 3F       		.uleb128 0x3f
 3682 01d3 0C       		.uleb128 0xc
 3683 01d4 3C       		.uleb128 0x3c
 3684 01d5 0C       		.uleb128 0xc
 3685 01d6 00       		.byte	0x0
 3686 01d7 00       		.byte	0x0
 3687 01d8 25       		.uleb128 0x25
 3688 01d9 34       		.uleb128 0x34
 3689 01da 00       		.byte	0x0
 3690 01db 03       		.uleb128 0x3
 3691 01dc 08       		.uleb128 0x8
 3692 01dd 3A       		.uleb128 0x3a
 3693 01de 0B       		.uleb128 0xb
ARM GAS  C:\Users\DNIEL~1\AppData\Local\Temp\ccsQciza.s 			page 66


 3694 01df 3B       		.uleb128 0x3b
 3695 01e0 05       		.uleb128 0x5
 3696 01e1 49       		.uleb128 0x49
 3697 01e2 13       		.uleb128 0x13
 3698 01e3 3F       		.uleb128 0x3f
 3699 01e4 0C       		.uleb128 0xc
 3700 01e5 3C       		.uleb128 0x3c
 3701 01e6 0C       		.uleb128 0xc
 3702 01e7 00       		.byte	0x0
 3703 01e8 00       		.byte	0x0
 3704 01e9 00       		.byte	0x0
 3705              		.section	.debug_pubnames,"",%progbits
 3706 0000 68000000 		.4byte	0x68
 3707 0004 0200     		.2byte	0x2
 3708 0006 00000000 		.4byte	.Ldebug_info0
 3709 000a 58140000 		.4byte	0x1458
 3710 000e 1D120000 		.4byte	0x121d
 3711 0012 5F726561 		.ascii	"_read_r\000"
 3711      645F7200 
 3712 001a 74120000 		.4byte	0x1274
 3713 001e 5F6C7365 		.ascii	"_lseek_r\000"
 3713      656B5F72 
 3713      00
 3714 0027 C5120000 		.4byte	0x12c5
 3715 002b 5F777269 		.ascii	"_write_r\000"
 3715      74655F72 
 3715      00
 3716 0034 1D130000 		.4byte	0x131d
 3717 0038 5F636C6F 		.ascii	"_close_r\000"
 3717      73655F72 
 3717      00
 3718 0041 54130000 		.4byte	0x1354
 3719 0045 5F736272 		.ascii	"_sbrk_r\000"
 3719      6B5F7200 
 3720 004d 9B130000 		.4byte	0x139b
 3721 0051 5F667374 		.ascii	"_fstat_r\000"
 3721      61745F72 
 3721      00
 3722 005a E9130000 		.4byte	0x13e9
 3723 005e 5F697361 		.ascii	"_isatty_r\000"
 3723      7474795F 
 3723      7200
 3724 0068 00000000 		.4byte	0x0
 3725              		.section	.debug_pubtypes,"",%progbits
 3726 0000 98030000 		.4byte	0x398
 3727 0004 0200     		.2byte	0x2
 3728 0006 00000000 		.4byte	.Ldebug_info0
 3729 000a 58140000 		.4byte	0x1458
 3730 000e 29000000 		.4byte	0x29
 3731 0012 73697A65 		.ascii	"size_t\000"
 3731      5F7400
 3732 0019 6C000000 		.4byte	0x6c
 3733 001d 5F4C4F43 		.ascii	"_LOCK_RECURSIVE_T\000"
 3733      4B5F5245 
 3733      43555253 
 3733      4956455F 
 3733      5400
ARM GAS  C:\Users\DNIEL~1\AppData\Local\Temp\ccsQciza.s 			page 67


 3734 002f 77000000 		.4byte	0x77
 3735 0033 5F6F6666 		.ascii	"_off_t\000"
 3735      5F7400
 3736 003a 89000000 		.4byte	0x89
 3737 003e 5F5F6465 		.ascii	"__dev_t\000"
 3737      765F7400 
 3738 0046 94000000 		.4byte	0x94
 3739 004a 5F5F7569 		.ascii	"__uid_t\000"
 3739      645F7400 
 3740 0052 9F000000 		.4byte	0x9f
 3741 0056 5F5F6769 		.ascii	"__gid_t\000"
 3741      645F7400 
 3742 005e AA000000 		.4byte	0xaa
 3743 0062 5F66706F 		.ascii	"_fpos_t\000"
 3743      735F7400 
 3744 006a B5000000 		.4byte	0xb5
 3745 006e 77696E74 		.ascii	"wint_t\000"
 3745      5F7400
 3746 0075 15010000 		.4byte	0x115
 3747 0079 5F6D6273 		.ascii	"_mbstate_t\000"
 3747      74617465 
 3747      5F7400
 3748 0084 20010000 		.4byte	0x120
 3749 0088 5F666C6F 		.ascii	"_flock_t\000"
 3749      636B5F74 
 3749      00
 3750 0091 2D010000 		.4byte	0x12d
 3751 0095 5F5F554C 		.ascii	"__ULong\000"
 3751      6F6E6700 
 3752 009d 3F010000 		.4byte	0x13f
 3753 00a1 5F426967 		.ascii	"_Bigint\000"
 3753      696E7400 
 3754 00a9 B4010000 		.4byte	0x1b4
 3755 00ad 5F5F746D 		.ascii	"__tm\000"
 3755      00
 3756 00b2 3F020000 		.4byte	0x23f
 3757 00b6 5F6F6E5F 		.ascii	"_on_exit_args\000"
 3757      65786974 
 3757      5F617267 
 3757      7300
 3758 00c4 98020000 		.4byte	0x298
 3759 00c8 5F617465 		.ascii	"_atexit\000"
 3759      78697400 
 3760 00d0 02030000 		.4byte	0x302
 3761 00d4 5F5F7362 		.ascii	"__sbuf\000"
 3761      756600
 3762 00db B1040000 		.4byte	0x4b1
 3763 00df 5F5F7346 		.ascii	"__sFILE\000"
 3763      494C4500 
 3764 00e7 CD060000 		.4byte	0x6cd
 3765 00eb 5F5F4649 		.ascii	"__FILE\000"
 3765      4C4500
 3766 00f2 D9060000 		.4byte	0x6d9
 3767 00f6 5F676C75 		.ascii	"_glue\000"
 3767      6500
 3768 00fc 20070000 		.4byte	0x720
 3769 0100 5F72616E 		.ascii	"_rand48\000"
ARM GAS  C:\Users\DNIEL~1\AppData\Local\Temp\ccsQciza.s 			page 68


 3769      64343800 
 3770 0108 7A070000 		.4byte	0x77a
 3771 010c 5F6D7072 		.ascii	"_mprec\000"
 3771      656300
 3772 0113 CA070000 		.4byte	0x7ca
 3773 0117 5F6D6973 		.ascii	"_misc_reent\000"
 3773      635F7265 
 3773      656E7400 
 3774 0123 31030000 		.4byte	0x331
 3775 0127 5F726565 		.ascii	"_reent\000"
 3775      6E7400
 3776 012e CF080000 		.4byte	0x8cf
 3777 0132 74696D65 		.ascii	"time_t\000"
 3777      5F7400
 3778 0139 DA080000 		.4byte	0x8da
 3779 013d 63616464 		.ascii	"caddr_t\000"
 3779      725F7400 
 3780 0145 E5080000 		.4byte	0x8e5
 3781 0149 696E6F5F 		.ascii	"ino_t\000"
 3781      7400
 3782 014f F0080000 		.4byte	0x8f0
 3783 0153 6F66665F 		.ascii	"off_t\000"
 3783      7400
 3784 0159 FB080000 		.4byte	0x8fb
 3785 015d 6465765F 		.ascii	"dev_t\000"
 3785      7400
 3786 0163 06090000 		.4byte	0x906
 3787 0167 7569645F 		.ascii	"uid_t\000"
 3787      7400
 3788 016d 11090000 		.4byte	0x911
 3789 0171 6769645F 		.ascii	"gid_t\000"
 3789      7400
 3790 0177 1C090000 		.4byte	0x91c
 3791 017b 6D6F6465 		.ascii	"mode_t\000"
 3791      5F7400
 3792 0182 27090000 		.4byte	0x927
 3793 0186 6E6C696E 		.ascii	"nlink_t\000"
 3793      6B5F7400 
 3794 018e 32090000 		.4byte	0x932
 3795 0192 73746174 		.ascii	"stat\000"
 3795      00
 3796 0197 3D0A0000 		.4byte	0xa3d
 3797 019b 75696E74 		.ascii	"uint8_t\000"
 3797      385F7400 
 3798 01a3 480A0000 		.4byte	0xa48
 3799 01a7 75696E74 		.ascii	"uint16_t\000"
 3799      31365F74 
 3799      00
 3800 01b0 530A0000 		.4byte	0xa53
 3801 01b4 696E7433 		.ascii	"int32_t\000"
 3801      325F7400 
 3802 01bc 5E0A0000 		.4byte	0xa5e
 3803 01c0 75696E74 		.ascii	"uint32_t\000"
 3803      33325F74 
 3803      00
 3804 01c9 700A0000 		.4byte	0xa70
 3805 01cd 746D6F64 		.ascii	"tmode_t\000"
ARM GAS  C:\Users\DNIEL~1\AppData\Local\Temp\ccsQciza.s 			page 69


 3805      655F7400 
 3806 01d5 7B0A0000 		.4byte	0xa7b
 3807 01d9 74737461 		.ascii	"tstate_t\000"
 3807      74655F74 
 3807      00
 3808 01e2 860A0000 		.4byte	0xa86
 3809 01e6 74726566 		.ascii	"trefs_t\000"
 3809      735F7400 
 3810 01ee 910A0000 		.4byte	0xa91
 3811 01f2 74736C69 		.ascii	"tslices_t\000"
 3811      6365735F 
 3811      7400
 3812 01fc 9C0A0000 		.4byte	0xa9c
 3813 0200 74707269 		.ascii	"tprio_t\000"
 3813      6F5F7400 
 3814 0208 A70A0000 		.4byte	0xaa7
 3815 020c 6D73675F 		.ascii	"msg_t\000"
 3815      7400
 3816 0212 B20A0000 		.4byte	0xab2
 3817 0216 6576656E 		.ascii	"eventmask_t\000"
 3817      746D6173 
 3817      6B5F7400 
 3818 0222 BD0A0000 		.4byte	0xabd
 3819 0226 666C6167 		.ascii	"flagsmask_t\000"
 3819      736D6173 
 3819      6B5F7400 
 3820 0232 C80A0000 		.4byte	0xac8
 3821 0236 73797374 		.ascii	"systime_t\000"
 3821      696D655F 
 3821      7400
 3822 0240 D30A0000 		.4byte	0xad3
 3823 0244 54687265 		.ascii	"Thread\000"
 3823      616400
 3824 024b 2E0C0000 		.4byte	0xc2e
 3825 024f 54687265 		.ascii	"ThreadsQueue\000"
 3825      61647351 
 3825      75657565 
 3825      00
 3826 025c 500C0000 		.4byte	0xc50
 3827 0260 54687265 		.ascii	"ThreadsList\000"
 3827      6164734C 
 3827      69737400 
 3828 026c 5B0C0000 		.4byte	0xc5b
 3829 0270 72656761 		.ascii	"regarm_t\000"
 3829      726D5F74 
 3829      00
 3830 0279 660C0000 		.4byte	0xc66
 3831 027d 696E7463 		.ascii	"intctx\000"
 3831      747800
 3832 0284 F40C0000 		.4byte	0xcf4
 3833 0288 636F6E74 		.ascii	"context\000"
 3833      65787400 
 3834 0290 1C0D0000 		.4byte	0xd1c
 3835 0294 4D757465 		.ascii	"Mutex\000"
 3835      7800
 3836 029a 590D0000 		.4byte	0xd59
 3837 029e 4D757465 		.ascii	"Mutex\000"
ARM GAS  C:\Users\DNIEL~1\AppData\Local\Temp\ccsQciza.s 			page 70


 3837      7800
 3838 02a4 640D0000 		.4byte	0xd64
 3839 02a8 4576656E 		.ascii	"EventListener\000"
 3839      744C6973 
 3839      74656E65 
 3839      7200
 3840 02b6 6F0D0000 		.4byte	0xd6f
 3841 02ba 4576656E 		.ascii	"EventListener\000"
 3841      744C6973 
 3841      74656E65 
 3841      7200
 3842 02c8 BA0D0000 		.4byte	0xdba
 3843 02cc 4576656E 		.ascii	"EventSource\000"
 3843      74536F75 
 3843      72636500 
 3844 02d8 D50D0000 		.4byte	0xdd5
 3845 02dc 4576656E 		.ascii	"EventSource\000"
 3845      74536F75 
 3845      72636500 
 3846 02e8 DE0A0000 		.4byte	0xade
 3847 02ec 54687265 		.ascii	"Thread\000"
 3847      616400
 3848 02f3 310E0000 		.4byte	0xe31
 3849 02f7 47656E65 		.ascii	"GenericQueue\000"
 3849      72696351 
 3849      75657565 
 3849      00
 3850 0304 B90E0000 		.4byte	0xeb9
 3851 0308 716E6F74 		.ascii	"qnotify_t\000"
 3851      6966795F 
 3851      7400
 3852 0312 3C0E0000 		.4byte	0xe3c
 3853 0316 47656E65 		.ascii	"GenericQueue\000"
 3853      72696351 
 3853      75657565 
 3853      00
 3854 0323 E20E0000 		.4byte	0xee2
 3855 0327 496E7075 		.ascii	"InputQueue\000"
 3855      74517565 
 3855      756500
 3856 0332 ED0E0000 		.4byte	0xeed
 3857 0336 4F757470 		.ascii	"OutputQueue\000"
 3857      75745175 
 3857      65756500 
 3858 0342 42100000 		.4byte	0x1042
 3859 0346 55534152 		.ascii	"USART_TypeDef\000"
 3859      545F5479 
 3859      70654465 
 3859      6600
 3860 0354 EE100000 		.4byte	0x10ee
 3861 0358 73647374 		.ascii	"sdstate_t\000"
 3861      6174655F 
 3861      7400
 3862 0362 F9100000 		.4byte	0x10f9
 3863 0366 53657269 		.ascii	"SerialDriver\000"
 3863      616C4472 
 3863      69766572 
ARM GAS  C:\Users\DNIEL~1\AppData\Local\Temp\ccsQciza.s 			page 71


 3863      00
 3864 0373 7F110000 		.4byte	0x117f
 3865 0377 53657269 		.ascii	"SerialDriverVMT\000"
 3865      616C4472 
 3865      69766572 
 3865      564D5400 
 3866 0387 04110000 		.4byte	0x1104
 3867 038b 53657269 		.ascii	"SerialDriver\000"
 3867      616C4472 
 3867      69766572 
 3867      00
 3868 0398 00000000 		.4byte	0x0
 3869              		.section	.debug_aranges,"",%progbits
 3870 0000 4C000000 		.4byte	0x4c
 3871 0004 0200     		.2byte	0x2
 3872 0006 00000000 		.4byte	.Ldebug_info0
 3873 000a 04       		.byte	0x4
 3874 000b 00       		.byte	0x0
 3875 000c 0000     		.2byte	0x0
 3876 000e 0000     		.2byte	0x0
 3877 0010 00000000 		.4byte	.LFB118
 3878 0014 20000000 		.4byte	.LFE118-.LFB118
 3879 0018 00000000 		.4byte	.LFB119
 3880 001c 04000000 		.4byte	.LFE119-.LFB119
 3881 0020 00000000 		.4byte	.LFB120
 3882 0024 2C000000 		.4byte	.LFE120-.LFB120
 3883 0028 00000000 		.4byte	.LFB121
 3884 002c 04000000 		.4byte	.LFE121-.LFB121
 3885 0030 00000000 		.4byte	.LFB122
 3886 0034 18000000 		.4byte	.LFE122-.LFB122
 3887 0038 00000000 		.4byte	.LFB123
 3888 003c 18000000 		.4byte	.LFE123-.LFB123
 3889 0040 00000000 		.4byte	.LFB124
 3890 0044 04000000 		.4byte	.LFE124-.LFB124
 3891 0048 00000000 		.4byte	0x0
 3892 004c 00000000 		.4byte	0x0
 3893              		.section	.debug_ranges,"",%progbits
 3894              	.Ldebug_ranges0:
 3895 0000 00000000 		.4byte	.LFB118
 3896 0004 20000000 		.4byte	.LFE118
 3897 0008 00000000 		.4byte	.LFB119
 3898 000c 04000000 		.4byte	.LFE119
 3899 0010 00000000 		.4byte	.LFB120
 3900 0014 2C000000 		.4byte	.LFE120
 3901 0018 00000000 		.4byte	.LFB121
 3902 001c 04000000 		.4byte	.LFE121
 3903 0020 00000000 		.4byte	.LFB122
 3904 0024 18000000 		.4byte	.LFE122
 3905 0028 00000000 		.4byte	.LFB123
 3906 002c 18000000 		.4byte	.LFE123
 3907 0030 00000000 		.4byte	.LFB124
 3908 0034 04000000 		.4byte	.LFE124
 3909 0038 00000000 		.4byte	0x0
 3910 003c 00000000 		.4byte	0x0
 3911              		.section	.debug_str,"MS",%progbits,1
 3912              	.LASF180:
 3913 0000 54687265 		.ascii	"ThreadsList\000"
ARM GAS  C:\Users\DNIEL~1\AppData\Local\Temp\ccsQciza.s 			page 72


 3913      6164734C 
 3913      69737400 
 3914              	.LASF224:
 3915 000c 53657269 		.ascii	"SerialDriver\000"
 3915      616C4472 
 3915      69766572 
 3915      00
 3916              	.LASF72:
 3917 0019 5F6D6973 		.ascii	"_misc\000"
 3917      6300
 3918              	.LASF248:
 3919 001f 2E2E2F2E 		.ascii	"../../../ChibiOS/os/various/syscalls.c\000"
 3919      2E2F2E2E 
 3919      2F436869 
 3919      62694F53 
 3919      2F6F732F 
 3920              	.LASF171:
 3921 0046 705F7469 		.ascii	"p_time\000"
 3921      6D6500
 3922              	.LASF247:
 3923 004d 474E5520 		.ascii	"GNU C 4.5.2\000"
 3923      4320342E 
 3923      352E3200 
 3924              	.LASF181:
 3925 0059 72656761 		.ascii	"regarm_t\000"
 3925      726D5F74 
 3925      00
 3926              	.LASF162:
 3927 0062 705F7072 		.ascii	"p_prio\000"
 3927      696F00
 3928              	.LASF39:
 3929 0069 5F6F6E5F 		.ascii	"_on_exit_args\000"
 3929      65786974 
 3929      5F617267 
 3929      7300
 3930              	.LASF109:
 3931 0077 5F776374 		.ascii	"_wctomb_state\000"
 3931      6F6D625F 
 3931      73746174 
 3931      6500
 3932              	.LASF158:
 3933 0085 73797374 		.ascii	"systime_t\000"
 3933      696D655F 
 3933      7400
 3934              	.LASF65:
 3935 008f 5F723438 		.ascii	"_r48\000"
 3935      00
 3936              	.LASF240:
 3937 0094 5F777269 		.ascii	"_write_r\000"
 3937      74655F72 
 3937      00
 3938              	.LASF186:
 3939 009d 6D5F6F77 		.ascii	"m_owner\000"
 3939      6E657200 
 3940              	.LASF173:
 3941 00a5 705F6D73 		.ascii	"p_msgqueue\000"
 3941      67717565 
ARM GAS  C:\Users\DNIEL~1\AppData\Local\Temp\ccsQciza.s 			page 73


 3941      756500
 3942              	.LASF73:
 3943 00b0 5F736967 		.ascii	"_signal_buf\000"
 3943      6E616C5F 
 3943      62756600 
 3944              	.LASF0:
 3945 00bc 756E7369 		.ascii	"unsigned int\000"
 3945      676E6564 
 3945      20696E74 
 3945      00
 3946              	.LASF142:
 3947 00c9 73745F62 		.ascii	"st_blksize\000"
 3947      6C6B7369 
 3947      7A6500
 3948              	.LASF77:
 3949 00d4 5F6C6266 		.ascii	"_lbfsize\000"
 3949      73697A65 
 3949      00
 3950              	.LASF75:
 3951 00dd 5F666C61 		.ascii	"_flags\000"
 3951      677300
 3952              	.LASF172:
 3953 00e4 705F7761 		.ascii	"p_waiting\000"
 3953      6974696E 
 3953      6700
 3954              	.LASF205:
 3955 00ee 715F7264 		.ascii	"q_rdptr\000"
 3955      70747200 
 3956              	.LASF52:
 3957 00f6 5F657272 		.ascii	"_errno\000"
 3957      6E6F00
 3958              	.LASF208:
 3959 00fd 716E6F74 		.ascii	"qnotify_t\000"
 3959      6966795F 
 3959      7400
 3960              	.LASF191:
 3961 0107 656C5F6D 		.ascii	"el_mask\000"
 3961      61736B00 
 3962              	.LASF236:
 3963 010f 72656164 		.ascii	"readt\000"
 3963      7400
 3964              	.LASF197:
 3965 0115 77746F62 		.ascii	"wtobjp\000"
 3965      6A7000
 3966              	.LASF207:
 3967 011c 715F6C69 		.ascii	"q_link\000"
 3967      6E6B00
 3968              	.LASF89:
 3969 0123 5F6D6273 		.ascii	"_mbstate\000"
 3969      74617465 
 3969      00
 3970              	.LASF22:
 3971 012c 5F5F554C 		.ascii	"__ULong\000"
 3971      6F6E6700 
 3972              	.LASF113:
 3973 0134 5F6D6272 		.ascii	"_mbrlen_state\000"
 3973      6C656E5F 
ARM GAS  C:\Users\DNIEL~1\AppData\Local\Temp\ccsQciza.s 			page 74


 3973      73746174 
 3973      6500
 3974              	.LASF54:
 3975 0142 5F737464 		.ascii	"_stdout\000"
 3975      6F757400 
 3976              	.LASF14:
 3977 014a 5F66706F 		.ascii	"_fpos_t\000"
 3977      735F7400 
 3978              	.LASF46:
 3979 0152 5F666E73 		.ascii	"_fns\000"
 3979      00
 3980              	.LASF79:
 3981 0157 5F636F6F 		.ascii	"_cookie\000"
 3981      6B696500 
 3982              	.LASF235:
 3983 015f 77726974 		.ascii	"writet\000"
 3983      657400
 3984              	.LASF217:
 3985 0166 47545052 		.ascii	"GTPR\000"
 3985      00
 3986              	.LASF36:
 3987 016b 5F5F746D 		.ascii	"__tm_wday\000"
 3987      5F776461 
 3987      7900
 3988              	.LASF28:
 3989 0175 5F426967 		.ascii	"_Bigint\000"
 3989      696E7400 
 3990              	.LASF102:
 3991 017d 5F726573 		.ascii	"_result\000"
 3991      756C7400 
 3992              	.LASF120:
 3993 0185 696E6F5F 		.ascii	"ino_t\000"
 3993      7400
 3994              	.LASF148:
 3995 018b 75696E74 		.ascii	"uint32_t\000"
 3995      33325F74 
 3995      00
 3996              	.LASF32:
 3997 0194 5F5F746D 		.ascii	"__tm_hour\000"
 3997      5F686F75 
 3997      7200
 3998              	.LASF156:
 3999 019e 6576656E 		.ascii	"eventmask_t\000"
 3999      746D6173 
 3999      6B5F7400 
 4000              	.LASF18:
 4001 01aa 5F5F636F 		.ascii	"__count\000"
 4001      756E7400 
 4002              	.LASF223:
 4003 01b2 73647374 		.ascii	"sdstate_t\000"
 4003      6174655F 
 4003      7400
 4004              	.LASF225:
 4005 01bc 6576656E 		.ascii	"event\000"
 4005      7400
 4006              	.LASF31:
 4007 01c2 5F5F746D 		.ascii	"__tm_min\000"
ARM GAS  C:\Users\DNIEL~1\AppData\Local\Temp\ccsQciza.s 			page 75


 4007      5F6D696E 
 4007      00
 4008              	.LASF154:
 4009 01cb 74707269 		.ascii	"tprio_t\000"
 4009      6F5F7400 
 4010              	.LASF245:
 4011 01d3 5F697361 		.ascii	"_isatty_r\000"
 4011      7474795F 
 4011      7200
 4012              	.LASF115:
 4013 01dd 5F6D6273 		.ascii	"_mbsrtowcs_state\000"
 4013      72746F77 
 4013      63735F73 
 4013      74617465 
 4013      00
 4014              	.LASF6:
 4015 01ee 6C6F6E67 		.ascii	"long long unsigned int\000"
 4015      206C6F6E 
 4015      6720756E 
 4015      7369676E 
 4015      65642069 
 4016              	.LASF143:
 4017 0205 73745F62 		.ascii	"st_blocks\000"
 4017      6C6F636B 
 4017      7300
 4018              	.LASF237:
 4019 020f 66696C65 		.ascii	"file\000"
 4019      00
 4020              	.LASF96:
 4021 0214 5F72616E 		.ascii	"_rand48\000"
 4021      64343800 
 4022              	.LASF74:
 4023 021c 5F5F7346 		.ascii	"__sFILE\000"
 4023      494C4500 
 4024              	.LASF27:
 4025 0224 5F776473 		.ascii	"_wds\000"
 4025      00
 4026              	.LASF242:
 4027 0229 5F736272 		.ascii	"_sbrk_r\000"
 4027      6B5F7200 
 4028              	.LASF138:
 4029 0231 73745F6D 		.ascii	"st_mtime\000"
 4029      74696D65 
 4029      00
 4030              	.LASF92:
 4031 023a 5F5F4649 		.ascii	"__FILE\000"
 4031      4C4500
 4032              	.LASF87:
 4033 0241 5F6F6666 		.ascii	"_offset\000"
 4033      73657400 
 4034              	.LASF84:
 4035 0249 5F756275 		.ascii	"_ubuf\000"
 4035      6600
 4036              	.LASF164:
 4037 024f 705F6E65 		.ascii	"p_newer\000"
 4037      77657200 
 4038              	.LASF200:
ARM GAS  C:\Users\DNIEL~1\AppData\Local\Temp\ccsQciza.s 			page 76


 4039 0257 715F7761 		.ascii	"q_waiting\000"
 4039      6974696E 
 4039      6700
 4040              	.LASF127:
 4041 0261 73746174 		.ascii	"stat\000"
 4041      00
 4042              	.LASF57:
 4043 0266 5F656D65 		.ascii	"_emergency\000"
 4043      7267656E 
 4043      637900
 4044              	.LASF25:
 4045 0271 5F6D6178 		.ascii	"_maxwds\000"
 4045      77647300 
 4046              	.LASF128:
 4047 0279 73745F64 		.ascii	"st_dev\000"
 4047      657600
 4048              	.LASF233:
 4049 0280 70757474 		.ascii	"putt\000"
 4049      00
 4050              	.LASF193:
 4051 0285 4576656E 		.ascii	"EventSource\000"
 4051      74536F75 
 4051      72636500 
 4052              	.LASF7:
 4053 0291 73697A65 		.ascii	"size_t\000"
 4053      5F7400
 4054              	.LASF195:
 4055 0298 7264796D 		.ascii	"rdymsg\000"
 4055      736700
 4056              	.LASF30:
 4057 029f 5F5F746D 		.ascii	"__tm_sec\000"
 4057      5F736563 
 4057      00
 4058              	.LASF67:
 4059 02a8 5F617363 		.ascii	"_asctime_buf\000"
 4059      74696D65 
 4059      5F627566 
 4059      00
 4060              	.LASF37:
 4061 02b5 5F5F746D 		.ascii	"__tm_yday\000"
 4061      5F796461 
 4061      7900
 4062              	.LASF56:
 4063 02bf 5F696E63 		.ascii	"_inc\000"
 4063      00
 4064              	.LASF149:
 4065 02c4 5F426F6F 		.ascii	"_Bool\000"
 4065      6C00
 4066              	.LASF221:
 4067 02ca 53445F53 		.ascii	"SD_STOP\000"
 4067      544F5000 
 4068              	.LASF133:
 4069 02d2 73745F67 		.ascii	"st_gid\000"
 4069      696400
 4070              	.LASF24:
 4071 02d9 5F6E6578 		.ascii	"_next\000"
 4071      7400
ARM GAS  C:\Users\DNIEL~1\AppData\Local\Temp\ccsQciza.s 			page 77


 4072              	.LASF131:
 4073 02df 73745F6E 		.ascii	"st_nlink\000"
 4073      6C696E6B 
 4073      00
 4074              	.LASF244:
 4075 02e8 5F667374 		.ascii	"_fstat_r\000"
 4075      61745F72 
 4075      00
 4076              	.LASF219:
 4077 02f1 55534152 		.ascii	"USART_TypeDef\000"
 4077      545F5479 
 4077      70654465 
 4077      6600
 4078              	.LASF184:
 4079 02ff 4D757465 		.ascii	"Mutex\000"
 4079      7800
 4080              	.LASF210:
 4081 0305 4F757470 		.ascii	"OutputQueue\000"
 4081      75745175 
 4081      65756500 
 4082              	.LASF209:
 4083 0311 496E7075 		.ascii	"InputQueue\000"
 4083      74517565 
 4083      756500
 4084              	.LASF243:
 4085 031c 696E6372 		.ascii	"incr\000"
 4085      00
 4086              	.LASF19:
 4087 0321 5F5F7661 		.ascii	"__value\000"
 4087      6C756500 
 4088              	.LASF104:
 4089 0329 5F703573 		.ascii	"_p5s\000"
 4089      00
 4090              	.LASF166:
 4091 032e 705F6E61 		.ascii	"p_name\000"
 4091      6D6500
 4092              	.LASF117:
 4093 0335 5F776373 		.ascii	"_wcsrtombs_state\000"
 4093      72746F6D 
 4093      62735F73 
 4093      74617465 
 4093      00
 4094              	.LASF108:
 4095 0346 5F6D626C 		.ascii	"_mblen_state\000"
 4095      656E5F73 
 4095      74617465 
 4095      00
 4096              	.LASF179:
 4097 0353 54687265 		.ascii	"ThreadsQueue\000"
 4097      61647351 
 4097      75657565 
 4097      00
 4098              	.LASF91:
 4099 0360 63686172 		.ascii	"char\000"
 4099      00
 4100              	.LASF33:
 4101 0365 5F5F746D 		.ascii	"__tm_mday\000"
ARM GAS  C:\Users\DNIEL~1\AppData\Local\Temp\ccsQciza.s 			page 78


 4101      5F6D6461 
 4101      7900
 4102              	.LASF68:
 4103 036f 5F736967 		.ascii	"_sig_func\000"
 4103      5F66756E 
 4103      6300
 4104              	.LASF114:
 4105 0379 5F6D6272 		.ascii	"_mbrtowc_state\000"
 4105      746F7763 
 4105      5F737461 
 4105      746500
 4106              	.LASF69:
 4107 0388 5F617465 		.ascii	"_atexit0\000"
 4107      78697430 
 4107      00
 4108              	.LASF204:
 4109 0391 715F7772 		.ascii	"q_wrptr\000"
 4109      70747200 
 4110              	.LASF159:
 4111 0399 54687265 		.ascii	"Thread\000"
 4111      616400
 4112              	.LASF151:
 4113 03a0 74737461 		.ascii	"tstate_t\000"
 4113      74655F74 
 4113      00
 4114              	.LASF103:
 4115 03a9 5F726573 		.ascii	"_result_k\000"
 4115      756C745F 
 4115      6B00
 4116              	.LASF5:
 4117 03b3 6C6F6E67 		.ascii	"long long int\000"
 4117      206C6F6E 
 4117      6720696E 
 4117      7400
 4118              	.LASF136:
 4119 03c1 73745F61 		.ascii	"st_atime\000"
 4119      74696D65 
 4119      00
 4120              	.LASF165:
 4121 03ca 705F6F6C 		.ascii	"p_older\000"
 4121      64657200 
 4122              	.LASF167:
 4123 03d2 705F7374 		.ascii	"p_state\000"
 4123      61746500 
 4124              	.LASF16:
 4125 03da 5F5F7763 		.ascii	"__wch\000"
 4125      6800
 4126              	.LASF145:
 4127 03e0 75696E74 		.ascii	"uint8_t\000"
 4127      385F7400 
 4128              	.LASF157:
 4129 03e8 666C6167 		.ascii	"flagsmask_t\000"
 4129      736D6173 
 4129      6B5F7400 
 4130              	.LASF47:
 4131 03f4 5F6F6E5F 		.ascii	"_on_exit_args_ptr\000"
 4131      65786974 
ARM GAS  C:\Users\DNIEL~1\AppData\Local\Temp\ccsQciza.s 			page 79


 4131      5F617267 
 4131      735F7074 
 4131      7200
 4132              	.LASF118:
 4133 0406 74696D65 		.ascii	"time_t\000"
 4133      5F7400
 4134              	.LASF83:
 4135 040d 5F636C6F 		.ascii	"_close\000"
 4135      736500
 4136              	.LASF178:
 4137 0414 705F6D70 		.ascii	"p_mpool\000"
 4137      6F6F6C00 
 4138              	.LASF176:
 4139 041c 705F6D74 		.ascii	"p_mtxlist\000"
 4139      786C6973 
 4139      7400
 4140              	.LASF58:
 4141 0426 5F5F7364 		.ascii	"__sdidinit\000"
 4141      6964696E 
 4141      697400
 4142              	.LASF129:
 4143 0431 73745F69 		.ascii	"st_ino\000"
 4143      6E6F00
 4144              	.LASF229:
 4145 0438 75736172 		.ascii	"usart\000"
 4145      7400
 4146              	.LASF53:
 4147 043e 5F737464 		.ascii	"_stdin\000"
 4147      696E00
 4148              	.LASF62:
 4149 0445 5F67616D 		.ascii	"_gamma_signgam\000"
 4149      6D615F73 
 4149      69676E67 
 4149      616D00
 4150              	.LASF231:
 4151 0454 77726974 		.ascii	"write\000"
 4151      6500
 4152              	.LASF202:
 4153 045a 715F6275 		.ascii	"q_buffer\000"
 4153      66666572 
 4153      00
 4154              	.LASF49:
 4155 0463 5F626173 		.ascii	"_base\000"
 4155      6500
 4156              	.LASF105:
 4157 0469 5F667265 		.ascii	"_freelist\000"
 4157      656C6973 
 4157      7400
 4158              	.LASF11:
 4159 0473 5F5F6465 		.ascii	"__dev_t\000"
 4159      765F7400 
 4160              	.LASF98:
 4161 047b 5F6D756C 		.ascii	"_mult\000"
 4161      7400
 4162              	.LASF155:
 4163 0481 6D73675F 		.ascii	"msg_t\000"
 4163      7400
ARM GAS  C:\Users\DNIEL~1\AppData\Local\Temp\ccsQciza.s 			page 80


 4164              	.LASF183:
 4165 0487 636F6E74 		.ascii	"context\000"
 4165      65787400 
 4166              	.LASF116:
 4167 048f 5F776372 		.ascii	"_wcrtomb_state\000"
 4167      746F6D62 
 4167      5F737461 
 4167      746500
 4168              	.LASF122:
 4169 049e 6465765F 		.ascii	"dev_t\000"
 4169      7400
 4170              	.LASF76:
 4171 04a4 5F66696C 		.ascii	"_file\000"
 4171      6500
 4172              	.LASF168:
 4173 04aa 705F666C 		.ascii	"p_flags\000"
 4173      61677300 
 4174              	.LASF61:
 4175 04b2 5F5F636C 		.ascii	"__cleanup\000"
 4175      65616E75 
 4175      7000
 4176              	.LASF20:
 4177 04bc 5F6D6273 		.ascii	"_mbstate_t\000"
 4177      74617465 
 4177      5F7400
 4178              	.LASF227:
 4179 04c7 69717565 		.ascii	"iqueue\000"
 4179      756500
 4180              	.LASF203:
 4181 04ce 715F746F 		.ascii	"q_top\000"
 4181      7000
 4182              	.LASF130:
 4183 04d4 73745F6D 		.ascii	"st_mode\000"
 4183      6F646500 
 4184              	.LASF21:
 4185 04dc 5F666C6F 		.ascii	"_flock_t\000"
 4185      636B5F74 
 4185      00
 4186              	.LASF38:
 4187 04e5 5F5F746D 		.ascii	"__tm_isdst\000"
 4187      5F697364 
 4187      737400
 4188              	.LASF153:
 4189 04f0 74736C69 		.ascii	"tslices_t\000"
 4189      6365735F 
 4189      7400
 4190              	.LASF45:
 4191 04fa 5F696E64 		.ascii	"_ind\000"
 4191      00
 4192              	.LASF137:
 4193 04ff 73745F73 		.ascii	"st_spare1\000"
 4193      70617265 
 4193      3100
 4194              	.LASF139:
 4195 0509 73745F73 		.ascii	"st_spare2\000"
 4195      70617265 
 4195      3200
ARM GAS  C:\Users\DNIEL~1\AppData\Local\Temp\ccsQciza.s 			page 81


 4196              	.LASF141:
 4197 0513 73745F73 		.ascii	"st_spare3\000"
 4197      70617265 
 4197      3300
 4198              	.LASF144:
 4199 051d 73745F73 		.ascii	"st_spare4\000"
 4199      70617265 
 4199      3400
 4200              	.LASF241:
 4201 0527 5F636C6F 		.ascii	"_close_r\000"
 4201      73655F72 
 4201      00
 4202              	.LASF189:
 4203 0530 656C5F6E 		.ascii	"el_next\000"
 4203      65787400 
 4204              	.LASF174:
 4205 0538 705F6D73 		.ascii	"p_msg\000"
 4205      6700
 4206              	.LASF150:
 4207 053e 746D6F64 		.ascii	"tmode_t\000"
 4207      655F7400 
 4208              	.LASF34:
 4209 0546 5F5F746D 		.ascii	"__tm_mon\000"
 4209      5F6D6F6E 
 4209      00
 4210              	.LASF239:
 4211 054f 5F6C7365 		.ascii	"_lseek_r\000"
 4211      656B5F72 
 4211      00
 4212              	.LASF4:
 4213 0558 73686F72 		.ascii	"short unsigned int\000"
 4213      7420756E 
 4213      7369676E 
 4213      65642069 
 4213      6E7400
 4214              	.LASF228:
 4215 056b 6F717565 		.ascii	"oqueue\000"
 4215      756500
 4216              	.LASF13:
 4217 0572 5F5F6769 		.ascii	"__gid_t\000"
 4217      645F7400 
 4218              	.LASF146:
 4219 057a 75696E74 		.ascii	"uint16_t\000"
 4219      31365F74 
 4219      00
 4220              	.LASF48:
 4221 0583 5F5F7362 		.ascii	"__sbuf\000"
 4221      756600
 4222              	.LASF249:
 4223 058a 433A5C44 		.ascii	"C:\\Dani\\MegaLux\\Repo\\Smarty\\Smarty\\smarty\\fi"
 4223      616E695C 
 4223      4D656761 
 4223      4C75785C 
 4223      5265706F 
 4224 05b6 726D7761 		.ascii	"rmware\000"
 4224      726500
 4225              	.LASF182:
ARM GAS  C:\Users\DNIEL~1\AppData\Local\Temp\ccsQciza.s 			page 82


 4226 05bd 696E7463 		.ascii	"intctx\000"
 4226      747800
 4227              	.LASF81:
 4228 05c4 5F777269 		.ascii	"_write\000"
 4228      746500
 4229              	.LASF238:
 4230 05cb 5F726561 		.ascii	"_read_r\000"
 4230      645F7200 
 4231              	.LASF124:
 4232 05d3 6769645F 		.ascii	"gid_t\000"
 4232      7400
 4233              	.LASF222:
 4234 05d9 53445F52 		.ascii	"SD_READY\000"
 4234      45414459 
 4234      00
 4235              	.LASF44:
 4236 05e2 5F617465 		.ascii	"_atexit\000"
 4236      78697400 
 4237              	.LASF123:
 4238 05ea 7569645F 		.ascii	"uid_t\000"
 4238      7400
 4239              	.LASF177:
 4240 05f0 705F7265 		.ascii	"p_realprio\000"
 4240      616C7072 
 4240      696F00
 4241              	.LASF212:
 4242 05fb 52455345 		.ascii	"RESERVED1\000"
 4242      52564544 
 4242      3100
 4243              	.LASF213:
 4244 0605 52455345 		.ascii	"RESERVED2\000"
 4244      52564544 
 4244      3200
 4245              	.LASF214:
 4246 060f 52455345 		.ascii	"RESERVED3\000"
 4246      52564544 
 4246      3300
 4247              	.LASF215:
 4248 0619 52455345 		.ascii	"RESERVED4\000"
 4248      52564544 
 4248      3400
 4249              	.LASF216:
 4250 0623 52455345 		.ascii	"RESERVED5\000"
 4250      52564544 
 4250      3500
 4251              	.LASF218:
 4252 062d 52455345 		.ascii	"RESERVED6\000"
 4252      52564544 
 4252      3600
 4253              	.LASF3:
 4254 0637 73686F72 		.ascii	"short int\000"
 4254      7420696E 
 4254      7400
 4255              	.LASF175:
 4256 0641 705F6570 		.ascii	"p_epending\000"
 4256      656E6469 
 4256      6E6700
ARM GAS  C:\Users\DNIEL~1\AppData\Local\Temp\ccsQciza.s 			page 83


 4257              	.LASF185:
 4258 064c 6D5F7175 		.ascii	"m_queue\000"
 4258      65756500 
 4259              	.LASF10:
 4260 0654 6C6F6E67 		.ascii	"long int\000"
 4260      20696E74 
 4260      00
 4261              	.LASF246:
 4262 065d 49544D5F 		.ascii	"ITM_RxBuffer\000"
 4262      52784275 
 4262      66666572 
 4262      00
 4263              	.LASF71:
 4264 066a 5F5F7366 		.ascii	"__sf\000"
 4264      00
 4265              	.LASF26:
 4266 066f 5F736967 		.ascii	"_sign\000"
 4266      6E00
 4267              	.LASF60:
 4268 0675 5F637572 		.ascii	"_current_locale\000"
 4268      72656E74 
 4268      5F6C6F63 
 4268      616C6500 
 4269              	.LASF160:
 4270 0685 705F6E65 		.ascii	"p_next\000"
 4270      787400
 4271              	.LASF78:
 4272 068c 5F646174 		.ascii	"_data\000"
 4272      6100
 4273              	.LASF59:
 4274 0692 5F637572 		.ascii	"_current_category\000"
 4274      72656E74 
 4274      5F636174 
 4274      65676F72 
 4274      7900
 4275              	.LASF17:
 4276 06a4 5F5F7763 		.ascii	"__wchb\000"
 4276      686200
 4277              	.LASF101:
 4278 06ab 5F6D7072 		.ascii	"_mprec\000"
 4278      656300
 4279              	.LASF163:
 4280 06b2 705F6374 		.ascii	"p_ctx\000"
 4280      7800
 4281              	.LASF35:
 4282 06b8 5F5F746D 		.ascii	"__tm_year\000"
 4282      5F796561 
 4282      7200
 4283              	.LASF106:
 4284 06c2 5F6D6973 		.ascii	"_misc_reent\000"
 4284      635F7265 
 4284      656E7400 
 4285              	.LASF107:
 4286 06ce 5F737472 		.ascii	"_strtok_last\000"
 4286      746F6B5F 
 4286      6C617374 
 4286      00
ARM GAS  C:\Users\DNIEL~1\AppData\Local\Temp\ccsQciza.s 			page 84


 4287              	.LASF66:
 4288 06db 5F6C6F63 		.ascii	"_localtime_buf\000"
 4288      616C7469 
 4288      6D655F62 
 4288      756600
 4289              	.LASF12:
 4290 06ea 5F5F7569 		.ascii	"__uid_t\000"
 4290      645F7400 
 4291              	.LASF140:
 4292 06f2 73745F63 		.ascii	"st_ctime\000"
 4292      74696D65 
 4292      00
 4293              	.LASF63:
 4294 06fb 5F637674 		.ascii	"_cvtlen\000"
 4294      6C656E00 
 4295              	.LASF232:
 4296 0703 72656164 		.ascii	"read\000"
 4296      00
 4297              	.LASF111:
 4298 0708 5F6C3634 		.ascii	"_l64a_buf\000"
 4298      615F6275 
 4298      6600
 4299              	.LASF190:
 4300 0712 656C5F6C 		.ascii	"el_listener\000"
 4300      69737465 
 4300      6E657200 
 4301              	.LASF220:
 4302 071e 53445F55 		.ascii	"SD_UNINIT\000"
 4302      4E494E49 
 4302      5400
 4303              	.LASF119:
 4304 0728 63616464 		.ascii	"caddr_t\000"
 4304      725F7400 
 4305              	.LASF86:
 4306 0730 5F626C6B 		.ascii	"_blksize\000"
 4306      73697A65 
 4306      00
 4307              	.LASF201:
 4308 0739 715F636F 		.ascii	"q_counter\000"
 4308      756E7465 
 4308      7200
 4309              	.LASF29:
 4310 0743 5F5F746D 		.ascii	"__tm\000"
 4310      00
 4311              	.LASF234:
 4312 0748 67657474 		.ascii	"gett\000"
 4312      00
 4313              	.LASF88:
 4314 074d 5F6C6F63 		.ascii	"_lock\000"
 4314      6B00
 4315              	.LASF161:
 4316 0753 705F7072 		.ascii	"p_prev\000"
 4316      657600
 4317              	.LASF152:
 4318 075a 74726566 		.ascii	"trefs_t\000"
 4318      735F7400 
 4319              	.LASF188:
ARM GAS  C:\Users\DNIEL~1\AppData\Local\Temp\ccsQciza.s 			page 85


 4320 0762 4576656E 		.ascii	"EventListener\000"
 4320      744C6973 
 4320      74656E65 
 4320      7200
 4321              	.LASF23:
 4322 0770 6C6F6E67 		.ascii	"long unsigned int\000"
 4322      20756E73 
 4322      69676E65 
 4322      6420696E 
 4322      7400
 4323              	.LASF94:
 4324 0782 5F6E696F 		.ascii	"_niobs\000"
 4324      627300
 4325              	.LASF15:
 4326 0789 77696E74 		.ascii	"wint_t\000"
 4326      5F7400
 4327              	.LASF147:
 4328 0790 696E7433 		.ascii	"int32_t\000"
 4328      325F7400 
 4329              	.LASF41:
 4330 0798 5F64736F 		.ascii	"_dso_handle\000"
 4330      5F68616E 
 4330      646C6500 
 4331              	.LASF126:
 4332 07a4 6E6C696E 		.ascii	"nlink_t\000"
 4332      6B5F7400 
 4333              	.LASF64:
 4334 07ac 5F637674 		.ascii	"_cvtbuf\000"
 4334      62756600 
 4335              	.LASF2:
 4336 07b4 756E7369 		.ascii	"unsigned char\000"
 4336      676E6564 
 4336      20636861 
 4336      7200
 4337              	.LASF169:
 4338 07c2 705F7265 		.ascii	"p_refs\000"
 4338      667300
 4339              	.LASF8:
 4340 07c9 5F4C4F43 		.ascii	"_LOCK_RECURSIVE_T\000"
 4340      4B5F5245 
 4340      43555253 
 4340      4956455F 
 4340      5400
 4341              	.LASF99:
 4342 07db 5F616464 		.ascii	"_add\000"
 4342      00
 4343              	.LASF80:
 4344 07e0 5F726561 		.ascii	"_read\000"
 4344      6400
 4345              	.LASF170:
 4346 07e6 705F7072 		.ascii	"p_preempt\000"
 4346      65656D70 
 4346      7400
 4347              	.LASF194:
 4348 07f0 65735F6E 		.ascii	"es_next\000"
 4348      65787400 
 4349              	.LASF226:
ARM GAS  C:\Users\DNIEL~1\AppData\Local\Temp\ccsQciza.s 			page 86


 4350 07f8 73746174 		.ascii	"state\000"
 4350      6500
 4351              	.LASF198:
 4352 07fe 65776D61 		.ascii	"ewmask\000"
 4352      736B00
 4353              	.LASF135:
 4354 0805 73745F73 		.ascii	"st_size\000"
 4354      697A6500 
 4355              	.LASF93:
 4356 080d 5F676C75 		.ascii	"_glue\000"
 4356      6500
 4357              	.LASF70:
 4358 0813 5F5F7367 		.ascii	"__sglue\000"
 4358      6C756500 
 4359              	.LASF112:
 4360 081b 5F676574 		.ascii	"_getdate_err\000"
 4360      64617465 
 4360      5F657272 
 4360      00
 4361              	.LASF199:
 4362 0828 47656E65 		.ascii	"GenericQueue\000"
 4362      72696351 
 4362      75657565 
 4362      00
 4363              	.LASF132:
 4364 0835 73745F75 		.ascii	"st_uid\000"
 4364      696400
 4365              	.LASF110:
 4366 083c 5F6D6274 		.ascii	"_mbtowc_state\000"
 4366      6F77635F 
 4366      73746174 
 4366      6500
 4367              	.LASF187:
 4368 084a 6D5F6E65 		.ascii	"m_next\000"
 4368      787400
 4369              	.LASF40:
 4370 0851 5F666E61 		.ascii	"_fnargs\000"
 4370      72677300 
 4371              	.LASF1:
 4372 0859 7369676E 		.ascii	"signed char\000"
 4372      65642063 
 4372      68617200 
 4373              	.LASF125:
 4374 0865 6D6F6465 		.ascii	"mode_t\000"
 4374      5F7400
 4375              	.LASF51:
 4376 086c 5F726565 		.ascii	"_reent\000"
 4376      6E7400
 4377              	.LASF121:
 4378 0873 6F66665F 		.ascii	"off_t\000"
 4378      7400
 4379              	.LASF230:
 4380 0879 53657269 		.ascii	"SerialDriverVMT\000"
 4380      616C4472 
 4380      69766572 
 4380      564D5400 
 4381              	.LASF42:
ARM GAS  C:\Users\DNIEL~1\AppData\Local\Temp\ccsQciza.s 			page 87


 4382 0889 5F666E74 		.ascii	"_fntypes\000"
 4382      79706573 
 4382      00
 4383              	.LASF50:
 4384 0892 5F73697A 		.ascii	"_size\000"
 4384      6500
 4385              	.LASF211:
 4386 0898 52455345 		.ascii	"RESERVED0\000"
 4386      52564544 
 4386      3000
 4387              	.LASF9:
 4388 08a2 5F6F6666 		.ascii	"_off_t\000"
 4388      5F7400
 4389              	.LASF85:
 4390 08a9 5F6E6275 		.ascii	"_nbuf\000"
 4390      6600
 4391              	.LASF134:
 4392 08af 73745F72 		.ascii	"st_rdev\000"
 4392      64657600 
 4393              	.LASF90:
 4394 08b7 5F666C61 		.ascii	"_flags2\000"
 4394      67733200 
 4395              	.LASF43:
 4396 08bf 5F69735F 		.ascii	"_is_cxa\000"
 4396      63786100 
 4397              	.LASF206:
 4398 08c7 715F6E6F 		.ascii	"q_notify\000"
 4398      74696679 
 4398      00
 4399              	.LASF97:
 4400 08d0 5F736565 		.ascii	"_seed\000"
 4400      6400
 4401              	.LASF100:
 4402 08d6 5F72616E 		.ascii	"_rand_next\000"
 4402      645F6E65 
 4402      787400
 4403              	.LASF192:
 4404 08e1 656C5F66 		.ascii	"el_flags\000"
 4404      6C616773 
 4404      00
 4405              	.LASF196:
 4406 08ea 65786974 		.ascii	"exitcode\000"
 4406      636F6465 
 4406      00
 4407              	.LASF82:
 4408 08f3 5F736565 		.ascii	"_seek\000"
 4408      6B00
 4409              	.LASF55:
 4410 08f9 5F737464 		.ascii	"_stderr\000"
 4410      65727200 
 4411              	.LASF95:
 4412 0901 5F696F62 		.ascii	"_iobs\000"
 4412      7300
 4413              		.ident	"GCC: (Sourcery G++ Lite 2011.03-42) 4.5.2"
ARM GAS  C:\Users\DNIEL~1\AppData\Local\Temp\ccsQciza.s 			page 88


DEFINED SYMBOLS
                            *ABS*:00000000 syscalls.c
C:\Users\DNIEL~1\AppData\Local\Temp\ccsQciza.s:24     .text._read_r:00000000 $t
C:\Users\DNIEL~1\AppData\Local\Temp\ccsQciza.s:30     .text._read_r:00000000 _read_r
C:\Users\DNIEL~1\AppData\Local\Temp\ccsQciza.s:68     .text._read_r:0000001c $d
C:\Users\DNIEL~1\AppData\Local\Temp\ccsQciza.s:73     .text._lseek_r:00000000 $t
C:\Users\DNIEL~1\AppData\Local\Temp\ccsQciza.s:79     .text._lseek_r:00000000 _lseek_r
C:\Users\DNIEL~1\AppData\Local\Temp\ccsQciza.s:95     .text._write_r:00000000 $t
C:\Users\DNIEL~1\AppData\Local\Temp\ccsQciza.s:101    .text._write_r:00000000 _write_r
C:\Users\DNIEL~1\AppData\Local\Temp\ccsQciza.s:150    .text._write_r:00000028 $d
C:\Users\DNIEL~1\AppData\Local\Temp\ccsQciza.s:155    .text._close_r:00000000 $t
C:\Users\DNIEL~1\AppData\Local\Temp\ccsQciza.s:161    .text._close_r:00000000 _close_r
C:\Users\DNIEL~1\AppData\Local\Temp\ccsQciza.s:177    .text._sbrk_r:00000000 $t
C:\Users\DNIEL~1\AppData\Local\Temp\ccsQciza.s:183    .text._sbrk_r:00000000 _sbrk_r
C:\Users\DNIEL~1\AppData\Local\Temp\ccsQciza.s:219    .text._fstat_r:00000000 $t
C:\Users\DNIEL~1\AppData\Local\Temp\ccsQciza.s:225    .text._fstat_r:00000000 _fstat_r
C:\Users\DNIEL~1\AppData\Local\Temp\ccsQciza.s:259    .text._isatty_r:00000000 $t
C:\Users\DNIEL~1\AppData\Local\Temp\ccsQciza.s:265    .text._isatty_r:00000000 _isatty_r
                     .debug_frame:00000010 $d
C:\Users\DNIEL~1\AppData\Local\Temp\ccsQciza.s:154    .text._write_r:0000002c $t

UNDEFINED SYMBOLS
chIQReadTimeout
SD1
chOQWriteTimeout
chCoreAlloc
memset
