ARM GAS  C:\Users\DNIEL~1\AppData\Local\Temp\ccsQciza.s 			page 1


   1              		.syntax unified
   2              		.cpu cortex-m4
   3              		.fpu softvfp
   4              		.eabi_attribute 20, 1
   5              		.eabi_attribute 21, 1
   6              		.eabi_attribute 23, 3
   7              		.eabi_attribute 24, 1
   8              		.eabi_attribute 25, 1
   9              		.eabi_attribute 26, 1
  10              		.eabi_attribute 30, 2
  11              		.eabi_attribute 18, 4
  12              		.thumb
  13              		.file	"syscalls.c"
  20 0000 21040000 		.text
  20      02007903 
  20      00000201 
  20      FB0E0D00 
  20      01010101 
  21              	.Ltext0:
  22              		.cfi_sections	.debug_frame
  23              		.section	.text._read_r,"ax",%progbits
  24              		.align	2
  25              		.p2align 4,,15
  26              		.global	_read_r
  27              		.thumb
  28              		.thumb_func
  29              		.type	_read_r, %function
  30              	_read_r:
  31              	.LFB118:
  32              		.file 1 "../../../ChibiOS/os/various/syscalls.c"
  33              		.loc 1 76 0
  34              		.cfi_startproc
  35              		@ args = 0, pretend = 0, frame = 0
  36              		@ frame_needed = 0, uses_anonymous_args = 0
  37              		@ link register save eliminated.
  38              	.LVL0:
  39              		.loc 1 79 0
  40 0000 3BB1     		cbz	r3, .L2
  41              		.loc 1 79 0 is_stmt 0 discriminator 1
  42 0002 31B9     		cbnz	r1, .L2
  43              		.loc 1 83 0 is_stmt 1
  44 0004 0548     		ldr	r0, .L6
  45              	.LVL1:
  46 0006 1146     		mov	r1, r2
  47              	.LVL2:
  48 0008 1A46     		mov	r2, r3
  49              	.LVL3:
  50 000a 4FF0FF33 		mov	r3, #-1
  51              	.LVL4:
  52              		.loc 1 92 0
  53              		.loc 1 83 0
ARM GAS  C:\Users\DNIEL~1\AppData\Local\Temp\ccsQciza.s 			page 2


  54 000e FFF7FEBF 		b	chIQReadTimeout
  55              	.LVL5:
  56              	.L2:
  57              		.loc 1 80 0
  58 0012 1623     		movs	r3, #22
  59              	.LVL6:
  60 0014 0360     		str	r3, [r0, #0]
  61              		.loc 1 92 0
  62 0016 4FF0FF30 		mov	r0, #-1
  63              	.LVL7:
  64 001a 7047     		bx	lr
  65              	.L7:
  66              		.align	2
  67              	.L6:
  68 001c 0C000000 		.word	SD1+12
  69              		.cfi_endproc
  70              	.LFE118:
  71              		.size	_read_r, .-_read_r
  72              		.section	.text._lseek_r,"ax",%progbits
  73              		.align	2
  74              		.p2align 4,,15
  75              		.global	_lseek_r
  76              		.thumb
  77              		.thumb_func
  78              		.type	_lseek_r, %function
  79              	_lseek_r:
  80              	.LFB119:
  81              		.loc 1 97 0
  82              		.cfi_startproc
  83              		@ args = 0, pretend = 0, frame = 0
  84              		@ frame_needed = 0, uses_anonymous_args = 0
  85              		@ link register save eliminated.
  86              	.LVL8:
  87              		.loc 1 104 0
  88 0000 0020     		movs	r0, #0
  89              	.LVL9:
  90 0002 7047     		bx	lr
  91              		.cfi_endproc
  92              	.LFE119:
  93              		.size	_lseek_r, .-_lseek_r
  94 0004 AFF30080 		.section	.text._write_r,"ax",%progbits
  94      AFF30080 
  94      AFF30080 
  95              		.align	2
  96              		.p2align 4,,15
  97              		.global	_write_r
  98              		.thumb
  99              		.thumb_func
 100              		.type	_write_r, %function
 101              	_write_r:
 102              	.LFB120:
 103              		.loc 1 109 0
 104              		.cfi_startproc
 105              		@ args = 0, pretend = 0, frame = 0
 106              		@ frame_needed = 0, uses_anonymous_args = 0
 107              	.LVL10:
 108              		.loc 1 114 0
ARM GAS  C:\Users\DNIEL~1\AppData\Local\Temp\ccsQciza.s 			page 3


 109 0000 0129     		cmp	r1, #1
 110              		.loc 1 109 0
 111 0002 10B5     		push	{r4, lr}
 112              	.LCFI0:
 113              		.cfi_def_cfa_offset 8
 114              		.loc 1 109 0
 115 0004 1C46     		mov	r4, r3
 116              		.cfi_offset 14, -4
 117              		.cfi_offset 4, -8
 118              		.loc 1 114 0
 119 0006 08D1     		bne	.L12
 120              		.loc 1 118 0
 121 0008 1146     		mov	r1, r2
 122              	.LVL11:
 123 000a 0748     		ldr	r0, .L13
 124              	.LVL12:
 125 000c 1A46     		mov	r2, r3
 126              	.LVL13:
 127 000e 4FF0FF33 		mov	r3, #-1
 128              	.LVL14:
 129 0012 FFF7FEFF 		bl	chOQWriteTimeout
 130              	.LVL15:
 131              		.loc 1 121 0
 132 0016 2046     		mov	r0, r4
 133 0018 10BD     		pop	{r4, pc}
 134              	.LVL16:
 135              	.L12:
 136              		.loc 1 115 0
 137 001a 1623     		movs	r3, #22
 138              		.loc 1 116 0
 139 001c 4FF0FF34 		mov	r4, #-1
 140              	.LVL17:
 141              		.loc 1 115 0
 142 0020 0360     		str	r3, [r0, #0]
 143              		.loc 1 121 0
 144 0022 2046     		mov	r0, r4
 145              	.LVL18:
 146 0024 10BD     		pop	{r4, pc}
 147              	.L14:
 148 0026 00BF     		.align	2
 149              	.L13:
 150 0028 30000000 		.word	SD1+48
 151              		.cfi_endproc
 152              	.LFE120:
 153              		.size	_write_r, .-_write_r
 154 002c AFF30080 		.section	.text._close_r,"ax",%progbits
 155              		.align	2
 156              		.p2align 4,,15
 157              		.global	_close_r
 158              		.thumb
 159              		.thumb_func
 160              		.type	_close_r, %function
 161              	_close_r:
 162              	.LFB121:
 163              		.loc 1 126 0
 164              		.cfi_startproc
 165              		@ args = 0, pretend = 0, frame = 0
ARM GAS  C:\Users\DNIEL~1\AppData\Local\Temp\ccsQciza.s 			page 4


 166              		@ frame_needed = 0, uses_anonymous_args = 0
 167              		@ link register save eliminated.
 168              	.LVL19:
 169              		.loc 1 131 0
 170 0000 0020     		movs	r0, #0
 171              	.LVL20:
 172 0002 7047     		bx	lr
 173              		.cfi_endproc
 174              	.LFE121:
 175              		.size	_close_r, .-_close_r
 176 0004 AFF30080 		.section	.text._sbrk_r,"ax",%progbits
 176      AFF30080 
 176      AFF30080 
 177              		.align	2
 178              		.p2align 4,,15
 179              		.global	_sbrk_r
 180              		.thumb
 181              		.thumb_func
 182              		.type	_sbrk_r, %function
 183              	_sbrk_r:
 184              	.LFB122:
 185              		.loc 1 136 0
 186              		.cfi_startproc
 187              		@ args = 0, pretend = 0, frame = 0
 188              		@ frame_needed = 0, uses_anonymous_args = 0
 189              	.LVL21:
 190 0000 10B5     		push	{r4, lr}
 191              	.LCFI1:
 192              		.cfi_def_cfa_offset 8
 193              		.loc 1 136 0
 194 0002 0446     		mov	r4, r0
 195              		.cfi_offset 14, -4
 196              		.cfi_offset 4, -8
 197              		.loc 1 142 0
 198 0004 0846     		mov	r0, r1
 199              	.LVL22:
 200 0006 FFF7FEFF 		bl	chCoreAlloc
 201              	.LVL23:
 202              		.loc 1 143 0
 203 000a 00B1     		cbz	r0, .L19
 204              		.loc 1 153 0
 205 000c 10BD     		pop	{r4, pc}
 206              	.L19:
 207              		.loc 1 144 0
 208 000e 0C23     		movs	r3, #12
 209 0010 2360     		str	r3, [r4, #0]
 210              		.loc 1 145 0
 211 0012 4FF0FF30 		mov	r0, #-1
 212              	.LVL24:
 213              		.loc 1 153 0
 214 0016 10BD     		pop	{r4, pc}
 215              		.cfi_endproc
 216              	.LFE122:
 217              		.size	_sbrk_r, .-_sbrk_r
 218 0018 AFF30080 		.section	.text._fstat_r,"ax",%progbits
 218      AFF30080 
 219              		.align	2
ARM GAS  C:\Users\DNIEL~1\AppData\Local\Temp\ccsQciza.s 			page 5


 220              		.p2align 4,,15
 221              		.global	_fstat_r
 222              		.thumb
 223              		.thumb_func
 224              		.type	_fstat_r, %function
 225              	_fstat_r:
 226              	.LFB123:
 227              		.loc 1 158 0
 228              		.cfi_startproc
 229              		@ args = 0, pretend = 0, frame = 0
 230              		@ frame_needed = 0, uses_anonymous_args = 0
 231              	.LVL25:
 232 0000 10B5     		push	{r4, lr}
 233              	.LCFI2:
 234              		.cfi_def_cfa_offset 8
 235              		.loc 1 162 0
 236 0002 1046     		mov	r0, r2
 237              	.LVL26:
 238              		.loc 1 158 0
 239 0004 1446     		mov	r4, r2
 240              		.cfi_offset 14, -4
 241              		.cfi_offset 4, -8
 242              		.loc 1 162 0
 243 0006 0021     		movs	r1, #0
 244              	.LVL27:
 245 0008 3C22     		movs	r2, #60
 246              	.LVL28:
 247 000a FFF7FEFF 		bl	memset
 248              	.LVL29:
 249              		.loc 1 163 0
 250 000e 4FF40053 		mov	r3, #8192
 251 0012 6360     		str	r3, [r4, #4]
 252              		.loc 1 165 0
 253 0014 0020     		movs	r0, #0
 254 0016 10BD     		pop	{r4, pc}
 255              		.cfi_endproc
 256              	.LFE123:
 257              		.size	_fstat_r, .-_fstat_r
 258 0018 AFF30080 		.section	.text._isatty_r,"ax",%progbits
 258      AFF30080 
 259              		.align	2
 260              		.p2align 4,,15
 261              		.global	_isatty_r
 262              		.thumb
 263              		.thumb_func
 264              		.type	_isatty_r, %function
 265              	_isatty_r:
 266              	.LFB124:
 267              		.loc 1 170 0
 268              		.cfi_startproc
 269              		@ args = 0, pretend = 0, frame = 0
 270              		@ frame_needed = 0, uses_anonymous_args = 0
 271              		@ link register save eliminated.
 272              	.LVL30:
 273              		.loc 1 175 0
 274 0000 0120     		movs	r0, #1
 275              	.LVL31:
ARM GAS  C:\Users\DNIEL~1\AppData\Local\Temp\ccsQciza.s 			page 6


 276 0002 7047     		bx	lr
 277              		.cfi_endproc
 278              	.LFE124:
 279              		.size	_isatty_r, .-_isatty_r
 280 0004 AFF30080 		.text
 280      AFF30080 
 280      AFF30080 
 281              	.Letext0: