ARM GAS  C:\Users\DNIEL~1\AppData\Local\Temp\ccXtZ92a.s 			page 1


   1              		.syntax unified
   2              		.cpu cortex-m4
   3              		.fpu softvfp
   4              		.eabi_attribute 20, 1
   5              		.eabi_attribute 21, 1
   6              		.eabi_attribute 23, 3
   7              		.eabi_attribute 24, 1
   8              		.eabi_attribute 25, 1
   9              		.eabi_attribute 26, 1
  10              		.eabi_attribute 30, 2
  11              		.eabi_attribute 18, 4
  12              		.thumb
  13              		.file	"testqueues.c"
  14              		.section	.debug_abbrev,"",%progbits
  15              	.Ldebug_abbrev0:
  16              		.section	.debug_info,"",%progbits
  17              	.Ldebug_info0:
  18              		.section	.debug_line,"",%progbits
  19              	.Ldebug_line0:
  20 0000 A8040000 		.text
  20      0200DD01 
  20      00000201 
  20      FB0E0D00 
  20      01010101 
  21              	.Ltext0:
  22              		.cfi_sections	.debug_frame
  23              		.section	.text.notify,"ax",%progbits
  24              		.align	2
  25              		.p2align 4,,15
  26              		.thumb
  27              		.thumb_func
  28              		.type	notify, %function
  29              	notify:
  30              	.LFB7:
  31              		.file 1 "../../../ChibiOS/test/testqueues.c"
  32              		.loc 1 57 0
  33              		.cfi_startproc
  34              		@ args = 0, pretend = 0, frame = 0
  35              		@ frame_needed = 0, uses_anonymous_args = 0
  36              		@ link register save eliminated.
  37              	.LVL0:
  38              		.loc 1 59 0
  39 0000 7047     		bx	lr
  40              		.cfi_endproc
  41              	.LFE7:
  42              		.size	notify, .-notify
  43 0002 00BFAFF3 		.section	.text.thread2,"ax",%progbits
  43      0080AFF3 
  43      0080AFF3 
  43      0080
  44              		.align	2
  45              		.p2align 4,,15
  46              		.thumb
  47              		.thumb_func
  48              		.type	thread2, %function
  49              	thread2:
  50              	.LFB12:
ARM GAS  C:\Users\DNIEL~1\AppData\Local\Temp\ccXtZ92a.s 			page 2


  51              		.loc 1 170 0
  52              		.cfi_startproc
  53              		@ args = 0, pretend = 0, frame = 0
  54              		@ frame_needed = 0, uses_anonymous_args = 0
  55              	.LVL1:
  56 0000 08B5     		push	{r3, lr}
  57              	.LCFI0:
  58              		.cfi_def_cfa_offset 8
  59              		.loc 1 173 0
  60 0002 0021     		movs	r1, #0
  61 0004 C822     		movs	r2, #200
  62 0006 0248     		ldr	r0, .L3
  63              	.LVL2:
  64              		.cfi_offset 14, -4
  65              		.cfi_offset 3, -8
  66 0008 FFF7FEFF 		bl	chOQPutTimeout
  67              		.loc 1 175 0
  68 000c 0020     		movs	r0, #0
  69 000e 08BD     		pop	{r3, pc}
  70              	.L4:
  71              		.align	2
  72              	.L3:
  73 0010 00000000 		.word	.LANCHOR0
  74              		.cfi_endproc
  75              	.LFE12:
  76              		.size	thread2, .-thread2
  77 0014 AFF30080 		.section	.text.queues2_execute,"ax",%progbits
  77      AFF30080 
  77      AFF30080 
  78              		.align	2
  79              		.p2align 4,,15
  80              		.thumb
  81              		.thumb_func
  82              		.type	queues2_execute, %function
  83              	queues2_execute:
  84              	.LFB13:
  85              		.loc 1 177 0
  86              		.cfi_startproc
  87              		@ args = 0, pretend = 0, frame = 0
  88              		@ frame_needed = 0, uses_anonymous_args = 0
  89 0000 2DE9F041 		push	{r4, r5, r6, r7, r8, lr}
  90              	.LCFI1:
  91              		.cfi_def_cfa_offset 24
  92              	.LBB2:
  93              		.loc 1 182 0
  94 0004 2023     		movs	r3, #32
  95              	.LVL3:
  96              	.LBE2:
  97              		.loc 1 177 0
  98 0006 82B0     		sub	sp, sp, #8
  99              	.LCFI2:
 100              		.cfi_def_cfa_offset 32
 101              	.LBB3:
 102              		.loc 1 182 0
 103              	@ 182 "../../../ChibiOS/test/testqueues.c" 1
 104 0008 83F31188 		msr     BASEPRI, r3
 105              	@ 0 "" 2
ARM GAS  C:\Users\DNIEL~1\AppData\Local\Temp\ccXtZ92a.s 			page 3


 106              	.LVL4:
 107              		.thumb
 108              	.LBE3:
 109 000c A74D     		ldr	r5, .L24
 110              		.cfi_offset 14, -4
 111              		.cfi_offset 8, -8
 112              		.cfi_offset 7, -12
 113              		.cfi_offset 6, -16
 114              		.cfi_offset 5, -20
 115              		.cfi_offset 4, -24
 116 000e 6A69     		ldr	r2, [r5, #20]
 117 0010 AB69     		ldr	r3, [r5, #24]
 118              	.LVL5:
 119 0012 9A42     		cmp	r2, r3
 120 0014 7DD0     		beq	.L20
 121 0016 0021     		movs	r1, #0
 122              	.L6:
 123              		.loc 1 182 0 is_stmt 0 discriminator 4
 124 0018 0120     		movs	r0, #1
 125 001a FFF7FEFF 		bl	_test_assert
 126 001e 0646     		mov	r6, r0
 127 0020 0028     		cmp	r0, #0
 128 0022 72D1     		bne	.L21
 129              	.LBB4:
 130              		.loc 1 182 0 discriminator 6
 131 0024 0346     		mov	r3, r0
 132              	.LVL6:
 133              	@ 182 "../../../ChibiOS/test/testqueues.c" 1
 134 0026 83F31188 		msr     BASEPRI, r3
 135              	@ 0 "" 2
 136              	.LVL7:
 137              		.thumb
 138              	.LBE4:
 139              		.loc 1 186 0 is_stmt 1 discriminator 6
 140 002a A04C     		ldr	r4, .L24
 141 002c 4121     		movs	r1, #65
 142 002e 2046     		mov	r0, r4
 143 0030 4FF0FF32 		mov	r2, #-1
 144 0034 FFF7FEFF 		bl	chOQPutTimeout
 145              	.LVL8:
 146 0038 4221     		movs	r1, #66
 147 003a 2046     		mov	r0, r4
 148 003c 4FF0FF32 		mov	r2, #-1
 149 0040 FFF7FEFF 		bl	chOQPutTimeout
 150              	.LVL9:
 151 0044 4321     		movs	r1, #67
 152 0046 2046     		mov	r0, r4
 153 0048 4FF0FF32 		mov	r2, #-1
 154 004c FFF7FEFF 		bl	chOQPutTimeout
 155              	.LVL10:
 156 0050 2046     		mov	r0, r4
 157 0052 4421     		movs	r1, #68
 158 0054 4FF0FF32 		mov	r2, #-1
 159 0058 FFF7FEFF 		bl	chOQPutTimeout
 160              	.LVL11:
 161              	.LBB5:
 162              		.loc 1 187 0 discriminator 6
ARM GAS  C:\Users\DNIEL~1\AppData\Local\Temp\ccXtZ92a.s 			page 4


 163 005c 2023     		movs	r3, #32
 164              	.LVL12:
 165              	@ 187 "../../../ChibiOS/test/testqueues.c" 1
 166 005e 83F31188 		msr     BASEPRI, r3
 167              	@ 0 "" 2
 168              	.LVL13:
 169              		.thumb
 170              	.LBE5:
 171 0062 AD68     		ldr	r5, [r5, #8]
 172 0064 0220     		movs	r0, #2
 173 0066 D5F10101 		rsbs	r1, r5, #1
 174 006a 38BF     		it	cc
 175 006c 0021     		movcc	r1, #0
 176 006e FFF7FEFF 		bl	_test_assert
 177              	.LVL14:
 178 0072 0546     		mov	r5, r0
 179 0074 0028     		cmp	r0, #0
 180 0076 44D1     		bne	.L22
 181              	.LBB6:
 182              		.loc 1 187 0 is_stmt 0 discriminator 2
 183 0078 0346     		mov	r3, r0
 184              	.LVL15:
 185              	@ 187 "../../../ChibiOS/test/testqueues.c" 1
 186 007a 83F31188 		msr     BASEPRI, r3
 187              	@ 0 "" 2
 188              	.LVL16:
 189              		.thumb
 190              	.LBE6:
 191              	.LBB7:
 192              	.LBB8:
 193              		.loc 1 193 0 is_stmt 1 discriminator 2
 194 007e 2023     		movs	r3, #32
 195              	.LVL17:
 196              	@ 193 "../../../ChibiOS/test/testqueues.c" 1
 197 0080 83F31188 		msr     BASEPRI, r3
 198              	@ 0 "" 2
 199              	.LVL18:
 200              		.thumb
 201              	.LBE8:
 202              		.loc 1 194 0 discriminator 2
 203 0084 2046     		mov	r0, r4
 204 0086 FFF7FEFF 		bl	chOQGetI
 205              	.LVL19:
 206              	.LBB9:
 207              		.loc 1 195 0 discriminator 2
 208 008a 2B46     		mov	r3, r5
 209              	.LVL20:
 210              	@ 195 "../../../ChibiOS/test/testqueues.c" 1
 211 008c 83F31188 		msr     BASEPRI, r3
 212              	@ 0 "" 2
 213              	.LVL21:
 214              		.thumb
 215              	.LBE9:
 216              		.loc 1 196 0 discriminator 2
 217 0090 C0B2     		uxtb	r0, r0
 218              	.LVL22:
 219 0092 FFF7FEFF 		bl	test_emit_token
ARM GAS  C:\Users\DNIEL~1\AppData\Local\Temp\ccXtZ92a.s 			page 5


 220              	.LVL23:
 221              	.LBB10:
 222              		.loc 1 193 0 discriminator 2
 223 0096 2023     		movs	r3, #32
 224              	@ 193 "../../../ChibiOS/test/testqueues.c" 1
 225 0098 83F31188 		msr     BASEPRI, r3
 226              	@ 0 "" 2
 227              	.LVL24:
 228              		.thumb
 229              	.LBE10:
 230              		.loc 1 194 0 discriminator 2
 231 009c 2046     		mov	r0, r4
 232 009e FFF7FEFF 		bl	chOQGetI
 233              	.LVL25:
 234              	.LBB11:
 235              		.loc 1 195 0 discriminator 2
 236 00a2 2B46     		mov	r3, r5
 237              	@ 195 "../../../ChibiOS/test/testqueues.c" 1
 238 00a4 83F31188 		msr     BASEPRI, r3
 239              	@ 0 "" 2
 240              	.LVL26:
 241              		.thumb
 242              	.LBE11:
 243              		.loc 1 196 0 discriminator 2
 244 00a8 C0B2     		uxtb	r0, r0
 245              	.LVL27:
 246 00aa FFF7FEFF 		bl	test_emit_token
 247              	.LVL28:
 248              	.LBB12:
 249              		.loc 1 193 0 discriminator 2
 250 00ae 2023     		movs	r3, #32
 251              	@ 193 "../../../ChibiOS/test/testqueues.c" 1
 252 00b0 83F31188 		msr     BASEPRI, r3
 253              	@ 0 "" 2
 254              	.LVL29:
 255              		.thumb
 256              	.LBE12:
 257              		.loc 1 194 0 discriminator 2
 258 00b4 2046     		mov	r0, r4
 259 00b6 FFF7FEFF 		bl	chOQGetI
 260              	.LVL30:
 261              	.LBB13:
 262              		.loc 1 195 0 discriminator 2
 263 00ba 2B46     		mov	r3, r5
 264              	@ 195 "../../../ChibiOS/test/testqueues.c" 1
 265 00bc 83F31188 		msr     BASEPRI, r3
 266              	@ 0 "" 2
 267              	.LVL31:
 268              		.thumb
 269              	.LBE13:
 270              		.loc 1 196 0 discriminator 2
 271 00c0 C0B2     		uxtb	r0, r0
 272              	.LVL32:
 273 00c2 FFF7FEFF 		bl	test_emit_token
 274              	.LVL33:
 275              	.LBB14:
 276              		.loc 1 193 0 discriminator 2
ARM GAS  C:\Users\DNIEL~1\AppData\Local\Temp\ccXtZ92a.s 			page 6


 277 00c6 2023     		movs	r3, #32
 278              	@ 193 "../../../ChibiOS/test/testqueues.c" 1
 279 00c8 83F31188 		msr     BASEPRI, r3
 280              	@ 0 "" 2
 281              	.LVL34:
 282              		.thumb
 283              	.LBE14:
 284              		.loc 1 194 0 discriminator 2
 285 00cc 2046     		mov	r0, r4
 286 00ce FFF7FEFF 		bl	chOQGetI
 287              	.LVL35:
 288              	.LBB15:
 289              		.loc 1 195 0 discriminator 2
 290 00d2 2B46     		mov	r3, r5
 291              	@ 195 "../../../ChibiOS/test/testqueues.c" 1
 292 00d4 83F31188 		msr     BASEPRI, r3
 293              	@ 0 "" 2
 294              	.LVL36:
 295              		.thumb
 296              	.LBE15:
 297              		.loc 1 196 0 discriminator 2
 298 00d8 C0B2     		uxtb	r0, r0
 299              	.LVL37:
 300 00da FFF7FEFF 		bl	test_emit_token
 301              	.LVL38:
 302              	.LBE7:
 303              	.LBB16:
 304              		.loc 1 198 0 discriminator 2
 305 00de 2023     		movs	r3, #32
 306              	.LVL39:
 307              	@ 198 "../../../ChibiOS/test/testqueues.c" 1
 308 00e0 83F31188 		msr     BASEPRI, r3
 309              	@ 0 "" 2
 310              	.LVL40:
 311              		.thumb
 312              	.LBE16:
 313 00e4 6069     		ldr	r0, [r4, #20]
 314 00e6 A269     		ldr	r2, [r4, #24]
 315 00e8 9042     		cmp	r0, r2
 316 00ea 35D0     		beq	.L23
 317              		.loc 1 198 0 is_stmt 0
 318 00ec 2946     		mov	r1, r5
 319              	.L10:
 320              		.loc 1 198 0 discriminator 4
 321 00ee 0320     		movs	r0, #3
 322 00f0 FFF7FEFF 		bl	_test_assert
 323              	.LVL41:
 324 00f4 90B1     		cbz	r0, .L11
 325              	.LBB17:
 326              		.loc 1 198 0 discriminator 5
 327 00f6 0023     		movs	r3, #0
 328              	.LVL42:
 329              	@ 198 "../../../ChibiOS/test/testqueues.c" 1
 330 00f8 83F31188 		msr     BASEPRI, r3
 331              	@ 0 "" 2
 332              	.LVL43:
 333              		.thumb
ARM GAS  C:\Users\DNIEL~1\AppData\Local\Temp\ccXtZ92a.s 			page 7


 334              	.L5:
 335              	.LBE17:
 336              		.loc 1 225 0 is_stmt 1
 337 00fc 02B0     		add	sp, sp, #8
 338 00fe BDE8F081 		pop	{r4, r5, r6, r7, r8, pc}
 339              	.LVL44:
 340              	.L22:
 341              	.LBB18:
 342              		.loc 1 187 0 discriminator 1
 343 0102 3346     		mov	r3, r6
 344              	@ 187 "../../../ChibiOS/test/testqueues.c" 1
 345 0104 83F31188 		msr     BASEPRI, r3
 346              	@ 0 "" 2
 347              	.LVL45:
 348              		.thumb
 349              	.LBE18:
 350 0108 F8E7     		b	.L5
 351              	.LVL46:
 352              	.L21:
 353              	.LBB19:
 354              		.loc 1 182 0 discriminator 5
 355 010a 0023     		movs	r3, #0
 356              	@ 182 "../../../ChibiOS/test/testqueues.c" 1
 357 010c 83F31188 		msr     BASEPRI, r3
 358              	@ 0 "" 2
 359              	.LVL47:
 360              		.thumb
 361              	.LBE19:
 362 0110 F4E7     		b	.L5
 363              	.LVL48:
 364              	.L20:
 365              		.loc 1 177 0 discriminator 1
 366 0112 A968     		ldr	r1, [r5, #8]
 367 0114 0039     		subs	r1, r1, #0
 368 0116 18BF     		it	ne
 369 0118 0121     		movne	r1, #1
 370 011a 7DE7     		b	.L6
 371              	.LVL49:
 372              	.L11:
 373              	.LBB20:
 374              		.loc 1 198 0 discriminator 6
 375 011c 0346     		mov	r3, r0
 376              	.LVL50:
 377              	@ 198 "../../../ChibiOS/test/testqueues.c" 1
 378 011e 83F31188 		msr     BASEPRI, r3
 379              	@ 0 "" 2
 380              	.LVL51:
 381              		.thumb
 382              	.LBE20:
 383              		.loc 1 199 0 discriminator 6
 384 0122 0420     		movs	r0, #4
 385 0124 6249     		ldr	r1, .L24+4
 386 0126 FFF7FEFF 		bl	_test_assert_sequence
 387              	.LVL52:
 388 012a 0546     		mov	r5, r0
 389 012c 0028     		cmp	r0, #0
 390 012e E5D1     		bne	.L5
ARM GAS  C:\Users\DNIEL~1\AppData\Local\Temp\ccXtZ92a.s 			page 8


 391              	.LBB21:
 392              		.loc 1 200 0
 393 0130 2023     		movs	r3, #32
 394              	.LVL53:
 395              	@ 200 "../../../ChibiOS/test/testqueues.c" 1
 396 0132 83F31188 		msr     BASEPRI, r3
 397              	@ 0 "" 2
 398              	.LVL54:
 399              		.thumb
 400              	.LBE21:
 401 0136 5D4C     		ldr	r4, .L24
 402 0138 2046     		mov	r0, r4
 403 013a FFF7FEFF 		bl	chOQGetI
 404              	.LVL55:
 405 013e 10F1030F 		cmn	r0, #3
 406 0142 14BF     		ite	ne
 407 0144 0021     		movne	r1, #0
 408 0146 0121     		moveq	r1, #1
 409 0148 0520     		movs	r0, #5
 410 014a FFF7FEFF 		bl	_test_assert
 411 014e 40B1     		cbz	r0, .L12
 412              	.LBB22:
 413              		.loc 1 200 0 is_stmt 0 discriminator 1
 414 0150 2B46     		mov	r3, r5
 415              	@ 200 "../../../ChibiOS/test/testqueues.c" 1
 416 0152 83F31188 		msr     BASEPRI, r3
 417              	@ 0 "" 2
 418              	.LVL56:
 419              		.thumb
 420              	.LBE22:
 421 0156 D1E7     		b	.L5
 422              	.LVL57:
 423              	.L23:
 424              		.loc 1 177 0 is_stmt 1 discriminator 1
 425 0158 A368     		ldr	r3, [r4, #8]
 426              	.LVL58:
 427 015a 191E     		subs	r1, r3, #0
 428 015c 18BF     		it	ne
 429 015e 0121     		movne	r1, #1
 430 0160 C5E7     		b	.L10
 431              	.L12:
 432              	.LBB23:
 433              		.loc 1 200 0 discriminator 2
 434 0162 0346     		mov	r3, r0
 435              	.LVL59:
 436              	@ 200 "../../../ChibiOS/test/testqueues.c" 1
 437 0164 83F31188 		msr     BASEPRI, r3
 438              	@ 0 "" 2
 439              	.LVL60:
 440              		.thumb
 441              	.LBE23:
 442              		.loc 1 203 0 discriminator 2
 443 0168 524E     		ldr	r6, .L24+8
 444 016a 7568     		ldr	r5, [r6, #4]
 445 016c 0822     		movs	r2, #8
 446 016e 2946     		mov	r1, r5
 447 0170 2046     		mov	r0, r4
ARM GAS  C:\Users\DNIEL~1\AppData\Local\Temp\ccXtZ92a.s 			page 9


 448 0172 FFF7FEFF 		bl	chOQWriteTimeout
 449              	.LVL61:
 450              		.loc 1 204 0 discriminator 2
 451 0176 A0F10408 		sub	r8, r0, #4
 452 017a D8F1000C 		rsbs	ip, r8, #0
 453 017e 4CEB0801 		adc	r1, ip, r8
 454 0182 0620     		movs	r0, #6
 455              	.LVL62:
 456 0184 FFF7FEFF 		bl	_test_assert
 457 0188 8046     		mov	r8, r0
 458              	.LVL63:
 459 018a 0028     		cmp	r0, #0
 460 018c B6D1     		bne	.L5
 461              	.LBB24:
 462              		.loc 1 205 0
 463 018e 2023     		movs	r3, #32
 464              	.LVL64:
 465              	@ 205 "../../../ChibiOS/test/testqueues.c" 1
 466 0190 83F31188 		msr     BASEPRI, r3
 467              	@ 0 "" 2
 468              	.LVL65:
 469              		.thumb
 470              	.LBE24:
 471 0194 A768     		ldr	r7, [r4, #8]
 472 0196 0720     		movs	r0, #7
 473 0198 D7F10101 		rsbs	r1, r7, #1
 474 019c 38BF     		it	cc
 475 019e 0021     		movcc	r1, #0
 476 01a0 FFF7FEFF 		bl	_test_assert
 477              	.LVL66:
 478 01a4 0746     		mov	r7, r0
 479 01a6 18B1     		cbz	r0, .L13
 480              	.LBB25:
 481              		.loc 1 205 0 is_stmt 0 discriminator 1
 482 01a8 4346     		mov	r3, r8
 483              	@ 205 "../../../ChibiOS/test/testqueues.c" 1
 484 01aa 83F31188 		msr     BASEPRI, r3
 485              	@ 0 "" 2
 486              	.LVL67:
 487              		.thumb
 488              	.LBE25:
 489 01ae A5E7     		b	.L5
 490              	.LVL68:
 491              	.L13:
 492              	.LBB26:
 493              		.loc 1 205 0 discriminator 2
 494 01b0 0346     		mov	r3, r0
 495              	.LVL69:
 496              	@ 205 "../../../ChibiOS/test/testqueues.c" 1
 497 01b2 83F31188 		msr     BASEPRI, r3
 498              	@ 0 "" 2
 499              	.LVL70:
 500              		.thumb
 501              	.LBE26:
 502              		.loc 1 206 0 is_stmt 1 discriminator 2
 503 01b6 404B     		ldr	r3, .L24+12
 504              	.LVL71:
ARM GAS  C:\Users\DNIEL~1\AppData\Local\Temp\ccXtZ92a.s 			page 10


 505 01b8 3068     		ldr	r0, [r6, #0]
 506 01ba 9969     		ldr	r1, [r3, #24]
 507 01bc 3F4B     		ldr	r3, .L24+16
 508 01be 8E68     		ldr	r6, [r1, #8]
 509 01c0 0097     		str	r7, [sp, #0]
 510 01c2 721C     		adds	r2, r6, #1
 511 01c4 4FF4A871 		mov	r1, #336
 512 01c8 FFF7FEFF 		bl	chThdCreateStatic
 513 01cc 3C4A     		ldr	r2, .L24+20
 514              	.LBB27:
 515              		.loc 1 207 0 discriminator 2
 516 01ce 2023     		movs	r3, #32
 517              	.LVL72:
 518              	.LBE27:
 519              		.loc 1 206 0 discriminator 2
 520 01d0 1060     		str	r0, [r2, #0]
 521              	.LBB28:
 522              		.loc 1 207 0 discriminator 2
 523              	@ 207 "../../../ChibiOS/test/testqueues.c" 1
 524 01d2 83F31188 		msr     BASEPRI, r3
 525              	@ 0 "" 2
 526              	.LVL73:
 527              		.thumb
 528              	.LBE28:
 529 01d6 2669     		ldr	r6, [r4, #16]
 530 01d8 E168     		ldr	r1, [r4, #12]
 531 01da A368     		ldr	r3, [r4, #8]
 532              	.LVL74:
 533 01dc 701A     		subs	r0, r6, r1
 534 01de C21A     		subs	r2, r0, r3
 535 01e0 A2F10401 		sub	r1, r2, #4
 536 01e4 0820     		movs	r0, #8
 537 01e6 4E42     		rsbs	r6, r1, #0
 538 01e8 46EB0101 		adc	r1, r6, r1
 539 01ec FFF7FEFF 		bl	_test_assert
 540 01f0 0646     		mov	r6, r0
 541 01f2 18B1     		cbz	r0, .L14
 542              	.LBB29:
 543              		.loc 1 207 0 is_stmt 0 discriminator 1
 544 01f4 3B46     		mov	r3, r7
 545              	@ 207 "../../../ChibiOS/test/testqueues.c" 1
 546 01f6 83F31188 		msr     BASEPRI, r3
 547              	@ 0 "" 2
 548              	.LVL75:
 549              		.thumb
 550              	.LBE29:
 551 01fa 7FE7     		b	.L5
 552              	.LVL76:
 553              	.L14:
 554              	.LBB30:
 555              		.loc 1 207 0 discriminator 2
 556 01fc 0346     		mov	r3, r0
 557              	.LVL77:
 558              	@ 207 "../../../ChibiOS/test/testqueues.c" 1
 559 01fe 83F31188 		msr     BASEPRI, r3
 560              	@ 0 "" 2
 561              	.LVL78:
ARM GAS  C:\Users\DNIEL~1\AppData\Local\Temp\ccXtZ92a.s 			page 11


 562              		.thumb
 563              	.LBE30:
 564              		.loc 1 208 0 is_stmt 1 discriminator 2
 565 0202 FFF7FEFF 		bl	test_wait_threads
 566              	.LVL79:
 567              	.LBB31:
 568              		.loc 1 211 0 discriminator 2
 569 0206 2023     		movs	r3, #32
 570              	.LVL80:
 571              	@ 211 "../../../ChibiOS/test/testqueues.c" 1
 572 0208 83F31188 		msr     BASEPRI, r3
 573              	@ 0 "" 2
 574              	.LVL81:
 575              		.thumb
 576              	.LBE31:
 577              		.loc 1 212 0 discriminator 2
 578 020c 2046     		mov	r0, r4
 579 020e FFF7FEFF 		bl	chOQResetI
 580              	.LVL82:
 581              	.LBB32:
 582              		.loc 1 213 0 discriminator 2
 583 0212 3346     		mov	r3, r6
 584              	.LVL83:
 585              	@ 213 "../../../ChibiOS/test/testqueues.c" 1
 586 0214 83F31188 		msr     BASEPRI, r3
 587              	@ 0 "" 2
 588              	.LVL84:
 589              		.thumb
 590              	.LBE32:
 591              	.LBB33:
 592              		.loc 1 214 0 discriminator 2
 593 0218 2023     		movs	r3, #32
 594              	.LVL85:
 595              	@ 214 "../../../ChibiOS/test/testqueues.c" 1
 596 021a 83F31188 		msr     BASEPRI, r3
 597              	@ 0 "" 2
 598              	.LVL86:
 599              		.thumb
 600              	.LBE33:
 601 021e 2069     		ldr	r0, [r4, #16]
 602 0220 E168     		ldr	r1, [r4, #12]
 603 0222 A368     		ldr	r3, [r4, #8]
 604              	.LVL87:
 605 0224 421A     		subs	r2, r0, r1
 606 0226 C3EB020E 		rsb	lr, r3, r2
 607 022a 0920     		movs	r0, #9
 608 022c DEF1000C 		rsbs	ip, lr, #0
 609 0230 4CEB0E01 		adc	r1, ip, lr
 610 0234 FFF7FEFF 		bl	_test_assert
 611 0238 0346     		mov	r3, r0
 612 023a 18B1     		cbz	r0, .L15
 613              	.LBB34:
 614              		.loc 1 214 0 is_stmt 0 discriminator 1
 615 023c 3346     		mov	r3, r6
 616              	@ 214 "../../../ChibiOS/test/testqueues.c" 1
 617 023e 83F31188 		msr     BASEPRI, r3
 618              	@ 0 "" 2
ARM GAS  C:\Users\DNIEL~1\AppData\Local\Temp\ccXtZ92a.s 			page 12


 619              	.LVL88:
 620              		.thumb
 621              	.LBE34:
 622 0242 5BE7     		b	.L5
 623              	.LVL89:
 624              	.L15:
 625              	.LBB35:
 626              		.loc 1 214 0 discriminator 2
 627              	@ 214 "../../../ChibiOS/test/testqueues.c" 1
 628 0244 83F31188 		msr     BASEPRI, r3
 629              	@ 0 "" 2
 630              	.LVL90:
 631              		.thumb
 632              	.LBE35:
 633              		.loc 1 217 0 is_stmt 1 discriminator 2
 634 0248 0222     		movs	r2, #2
 635 024a 2946     		mov	r1, r5
 636 024c 2046     		mov	r0, r4
 637 024e FFF7FEFF 		bl	chOQWriteTimeout
 638              	.LVL91:
 639              		.loc 1 218 0 discriminator 2
 640 0252 A0F10202 		sub	r2, r0, #2
 641 0256 D2F1000C 		rsbs	ip, r2, #0
 642 025a 4CEB0201 		adc	r1, ip, r2
 643 025e 0A20     		movs	r0, #10
 644              	.LVL92:
 645 0260 FFF7FEFF 		bl	_test_assert
 646              	.LVL93:
 647 0264 0346     		mov	r3, r0
 648 0266 0028     		cmp	r0, #0
 649 0268 7FF448AF 		bne	.L5
 650              		.loc 1 219 0
 651 026c 2946     		mov	r1, r5
 652 026e 0222     		movs	r2, #2
 653 0270 2046     		mov	r0, r4
 654 0272 FFF7FEFF 		bl	chOQWriteTimeout
 655              	.LVL94:
 656              		.loc 1 220 0
 657 0276 A0F10200 		sub	r0, r0, #2
 658              	.LVL95:
 659 027a 4342     		rsbs	r3, r0, #0
 660 027c 43EB0001 		adc	r1, r3, r0
 661 0280 0B20     		movs	r0, #11
 662              	.LVL96:
 663 0282 FFF7FEFF 		bl	_test_assert
 664 0286 0028     		cmp	r0, #0
 665 0288 7FF438AF 		bne	.L5
 666              	.LBB36:
 667              		.loc 1 221 0
 668 028c 2023     		movs	r3, #32
 669              	.LVL97:
 670              	@ 221 "../../../ChibiOS/test/testqueues.c" 1
 671 028e 83F31188 		msr     BASEPRI, r3
 672              	@ 0 "" 2
 673              	.LVL98:
 674              		.thumb
 675              	.LBE36:
ARM GAS  C:\Users\DNIEL~1\AppData\Local\Temp\ccXtZ92a.s 			page 13


 676 0292 A168     		ldr	r1, [r4, #8]
 677 0294 0C30     		adds	r0, r0, #12
 678 0296 D1F10101 		rsbs	r1, r1, #1
 679 029a 38BF     		it	cc
 680 029c 0021     		movcc	r1, #0
 681 029e FFF7FEFF 		bl	_test_assert
 682              	.LVL99:
 683 02a2 78B1     		cbz	r0, .L16
 684              	.LBB37:
 685              		.loc 1 221 0 is_stmt 0 discriminator 1
 686 02a4 0023     		movs	r3, #0
 687              	@ 221 "../../../ChibiOS/test/testqueues.c" 1
 688 02a6 83F31188 		msr     BASEPRI, r3
 689              	@ 0 "" 2
 690              	.LVL100:
 691              		.thumb
 692 02aa 27E7     		b	.L5
 693              	.L25:
 694              		.align	2
 695              	.L24:
 696 02ac 00000000 		.word	.LANCHOR0
 697 02b0 00000000 		.word	.LC0
 698 02b4 00000000 		.word	wa
 699 02b8 00000000 		.word	rlist
 700 02bc 00000000 		.word	thread2
 701 02c0 00000000 		.word	threads
 702              	.LVL101:
 703              	.L16:
 704              	.LBE37:
 705              	.LBB38:
 706              		.loc 1 221 0 discriminator 2
 707 02c4 0023     		movs	r3, #0
 708              	.LVL102:
 709              	@ 221 "../../../ChibiOS/test/testqueues.c" 1
 710 02c6 83F31188 		msr     BASEPRI, r3
 711              	@ 0 "" 2
 712              	.LVL103:
 713              		.thumb
 714              	.LBE38:
 715              		.loc 1 224 0 is_stmt 1 discriminator 2
 716 02ca 0A22     		movs	r2, #10
 717 02cc 1946     		mov	r1, r3
 718 02ce 0748     		ldr	r0, .L26
 719 02d0 FFF7FEFF 		bl	chOQPutTimeout
 720              	.LVL104:
 721 02d4 A0F1FF32 		sub	r2, r0, #-1
 722 02d8 D2F1000C 		rsbs	ip, r2, #0
 723 02dc 4CEB0201 		adc	r1, ip, r2
 724 02e0 0D20     		movs	r0, #13
 725              		.loc 1 225 0 discriminator 2
 726 02e2 02B0     		add	sp, sp, #8
 727 02e4 BDE8F041 		pop	{r4, r5, r6, r7, r8, lr}
 728              		.loc 1 224 0 discriminator 2
 729 02e8 FFF7FEBF 		b	_test_assert
 730              	.L27:
 731              		.align	2
 732              	.L26:
ARM GAS  C:\Users\DNIEL~1\AppData\Local\Temp\ccXtZ92a.s 			page 14


 733 02ec 00000000 		.word	.LANCHOR0
 734              		.cfi_endproc
 735              	.LFE13:
 736              		.size	queues2_execute, .-queues2_execute
 737              		.section	.text.queues2_setup,"ax",%progbits
 738              		.align	2
 739              		.p2align 4,,15
 740              		.thumb
 741              		.thumb_func
 742              		.type	queues2_setup, %function
 743              	queues2_setup:
 744              	.LFB11:
 745              		.loc 1 165 0
 746              		.cfi_startproc
 747              		@ args = 0, pretend = 0, frame = 0
 748              		@ frame_needed = 0, uses_anonymous_args = 0
 749 0000 10B5     		push	{r4, lr}
 750              	.LCFI3:
 751              		.cfi_def_cfa_offset 8
 752              		.loc 1 167 0
 753 0002 064B     		ldr	r3, .L29
 754 0004 0648     		ldr	r0, .L29+4
 755 0006 1968     		ldr	r1, [r3, #0]
 756 0008 064B     		ldr	r3, .L29+8
 757              		.loc 1 165 0
 758 000a 82B0     		sub	sp, sp, #8
 759              	.LCFI4:
 760              		.cfi_def_cfa_offset 16
 761              		.loc 1 167 0
 762 000c 0024     		movs	r4, #0
 763              		.cfi_offset 14, -4
 764              		.cfi_offset 4, -8
 765 000e 0422     		movs	r2, #4
 766 0010 0094     		str	r4, [sp, #0]
 767 0012 FFF7FEFF 		bl	chOQInit
 768              		.loc 1 168 0
 769 0016 02B0     		add	sp, sp, #8
 770 0018 10BD     		pop	{r4, pc}
 771              	.L30:
 772 001a 00BF     		.align	2
 773              	.L29:
 774 001c 00000000 		.word	wa
 775 0020 00000000 		.word	.LANCHOR0
 776 0024 00000000 		.word	notify
 777              		.cfi_endproc
 778              	.LFE11:
 779              		.size	queues2_setup, .-queues2_setup
 780 0028 AFF30080 		.section	.text.thread1,"ax",%progbits
 780      AFF30080 
 781              		.align	2
 782              		.p2align 4,,15
 783              		.thumb
 784              		.thumb_func
 785              		.type	thread1, %function
 786              	thread1:
 787              	.LFB9:
 788              		.loc 1 83 0
ARM GAS  C:\Users\DNIEL~1\AppData\Local\Temp\ccXtZ92a.s 			page 15


 789              		.cfi_startproc
 790              		@ args = 0, pretend = 0, frame = 0
 791              		@ frame_needed = 0, uses_anonymous_args = 0
 792              	.LVL105:
 793 0000 08B5     		push	{r3, lr}
 794              	.LCFI5:
 795              		.cfi_def_cfa_offset 8
 796              		.loc 1 86 0
 797 0002 C821     		movs	r1, #200
 798 0004 0248     		ldr	r0, .L32
 799              	.LVL106:
 800              		.cfi_offset 14, -4
 801              		.cfi_offset 3, -8
 802 0006 FFF7FEFF 		bl	chIQGetTimeout
 803              		.loc 1 88 0
 804 000a 0020     		movs	r0, #0
 805 000c 08BD     		pop	{r3, pc}
 806              	.L33:
 807 000e 00BF     		.align	2
 808              	.L32:
 809 0010 00000000 		.word	.LANCHOR1
 810              		.cfi_endproc
 811              	.LFE9:
 812              		.size	thread1, .-thread1
 813 0014 AFF30080 		.section	.text.queues1_execute,"ax",%progbits
 813      AFF30080 
 813      AFF30080 
 814              		.align	2
 815              		.p2align 4,,15
 816              		.thumb
 817              		.thumb_func
 818              		.type	queues1_execute, %function
 819              	queues1_execute:
 820              	.LFB10:
 821              		.loc 1 90 0
 822              		.cfi_startproc
 823              		@ args = 0, pretend = 0, frame = 0
 824              		@ frame_needed = 0, uses_anonymous_args = 0
 825 0000 2DE9F043 		push	{r4, r5, r6, r7, r8, r9, lr}
 826              	.LCFI6:
 827              		.cfi_def_cfa_offset 28
 828              	.LBB39:
 829              		.loc 1 95 0
 830 0004 2023     		movs	r3, #32
 831              	.LVL107:
 832              	.LBE39:
 833              		.loc 1 90 0
 834 0006 83B0     		sub	sp, sp, #12
 835              	.LCFI7:
 836              		.cfi_def_cfa_offset 40
 837              	.LBB40:
 838              		.loc 1 95 0
 839              	@ 95 "../../../ChibiOS/test/testqueues.c" 1
 840 0008 83F31188 		msr     BASEPRI, r3
 841              	@ 0 "" 2
 842              	.LVL108:
 843              		.thumb
ARM GAS  C:\Users\DNIEL~1\AppData\Local\Temp\ccXtZ92a.s 			page 16


 844              	.LBE40:
 845 000c B14C     		ldr	r4, .L50
 846              		.cfi_offset 14, -4
 847              		.cfi_offset 9, -8
 848              		.cfi_offset 8, -12
 849              		.cfi_offset 7, -16
 850              		.cfi_offset 6, -20
 851              		.cfi_offset 5, -24
 852              		.cfi_offset 4, -28
 853 000e A168     		ldr	r1, [r4, #8]
 854 0010 0120     		movs	r0, #1
 855 0012 D1F10101 		rsbs	r1, r1, #1
 856 0016 38BF     		it	cc
 857 0018 0021     		movcc	r1, #0
 858 001a FFF7FEFF 		bl	_test_assert
 859              	.LVL109:
 860 001e 0546     		mov	r5, r0
 861 0020 0028     		cmp	r0, #0
 862 0022 74D1     		bne	.L46
 863              	.LBB41:
 864              		.loc 1 95 0 is_stmt 0 discriminator 2
 865 0024 0346     		mov	r3, r0
 866              	.LVL110:
 867              	@ 95 "../../../ChibiOS/test/testqueues.c" 1
 868 0026 83F31188 		msr     BASEPRI, r3
 869              	@ 0 "" 2
 870              	.LVL111:
 871              		.thumb
 872              	.LBE41:
 873              	.LBB42:
 874              		.loc 1 98 0 is_stmt 1 discriminator 2
 875 002a 2023     		movs	r3, #32
 876              	.LVL112:
 877              	@ 98 "../../../ChibiOS/test/testqueues.c" 1
 878 002c 83F31188 		msr     BASEPRI, r3
 879              	@ 0 "" 2
 880              	.LVL113:
 881              		.thumb
 882              	.LBE42:
 883              		.loc 1 100 0 discriminator 2
 884 0030 4121     		movs	r1, #65
 885 0032 2046     		mov	r0, r4
 886 0034 FFF7FEFF 		bl	chIQPutI
 887              	.LVL114:
 888 0038 4221     		movs	r1, #66
 889 003a 2046     		mov	r0, r4
 890 003c FFF7FEFF 		bl	chIQPutI
 891              	.LVL115:
 892 0040 4321     		movs	r1, #67
 893 0042 2046     		mov	r0, r4
 894 0044 FFF7FEFF 		bl	chIQPutI
 895              	.LVL116:
 896 0048 2046     		mov	r0, r4
 897 004a 4421     		movs	r1, #68
 898 004c FFF7FEFF 		bl	chIQPutI
 899              	.LVL117:
 900              	.LBB43:
ARM GAS  C:\Users\DNIEL~1\AppData\Local\Temp\ccXtZ92a.s 			page 17


 901              		.loc 1 101 0 discriminator 2
 902 0050 2B46     		mov	r3, r5
 903              	.LVL118:
 904              	@ 101 "../../../ChibiOS/test/testqueues.c" 1
 905 0052 83F31188 		msr     BASEPRI, r3
 906              	@ 0 "" 2
 907              	.LVL119:
 908              		.thumb
 909              	.LBE43:
 910              	.LBB44:
 911              		.loc 1 102 0 discriminator 2
 912 0056 2023     		movs	r3, #32
 913              	.LVL120:
 914              	@ 102 "../../../ChibiOS/test/testqueues.c" 1
 915 0058 83F31188 		msr     BASEPRI, r3
 916              	@ 0 "" 2
 917              	.LVL121:
 918              		.thumb
 919              	.LBE44:
 920 005c 6269     		ldr	r2, [r4, #20]
 921 005e A369     		ldr	r3, [r4, #24]
 922              	.LVL122:
 923 0060 9A42     		cmp	r2, r3
 924 0062 5CD0     		beq	.L47
 925              		.loc 1 102 0 is_stmt 0
 926 0064 2946     		mov	r1, r5
 927              	.L37:
 928              		.loc 1 102 0 discriminator 4
 929 0066 0220     		movs	r0, #2
 930 0068 FFF7FEFF 		bl	_test_assert
 931 006c 0646     		mov	r6, r0
 932 006e 28B1     		cbz	r0, .L38
 933              	.LBB45:
 934              		.loc 1 102 0 discriminator 5
 935 0070 0023     		movs	r3, #0
 936              	.LVL123:
 937              	@ 102 "../../../ChibiOS/test/testqueues.c" 1
 938 0072 83F31188 		msr     BASEPRI, r3
 939              	@ 0 "" 2
 940              	.LVL124:
 941              		.thumb
 942              	.L34:
 943              	.LBE45:
 944              		.loc 1 147 0 is_stmt 1
 945 0076 03B0     		add	sp, sp, #12
 946 0078 BDE8F083 		pop	{r4, r5, r6, r7, r8, r9, pc}
 947              	.LVL125:
 948              	.L38:
 949              	.LBB46:
 950              		.loc 1 102 0 discriminator 6
 951 007c 0346     		mov	r3, r0
 952              	.LVL126:
 953              	@ 102 "../../../ChibiOS/test/testqueues.c" 1
 954 007e 83F31188 		msr     BASEPRI, r3
 955              	@ 0 "" 2
 956              	.LVL127:
 957              		.thumb
ARM GAS  C:\Users\DNIEL~1\AppData\Local\Temp\ccXtZ92a.s 			page 18


 958              	.LBE46:
 959              	.LBB47:
 960              		.loc 1 103 0 discriminator 6
 961 0082 2023     		movs	r3, #32
 962              	.LVL128:
 963              	@ 103 "../../../ChibiOS/test/testqueues.c" 1
 964 0084 83F31188 		msr     BASEPRI, r3
 965              	@ 0 "" 2
 966              	.LVL129:
 967              		.thumb
 968              	.LBE47:
 969 0088 924D     		ldr	r5, .L50
 970 008a 0146     		mov	r1, r0
 971 008c 2846     		mov	r0, r5
 972 008e FFF7FEFF 		bl	chIQPutI
 973              	.LVL130:
 974 0092 10F1040F 		cmn	r0, #4
 975 0096 14BF     		ite	ne
 976 0098 0021     		movne	r1, #0
 977 009a 0121     		moveq	r1, #1
 978 009c 0320     		movs	r0, #3
 979 009e FFF7FEFF 		bl	_test_assert
 980 00a2 0746     		mov	r7, r0
 981 00a4 0028     		cmp	r0, #0
 982 00a6 36D1     		bne	.L48
 983              	.LBB48:
 984              		.loc 1 103 0 is_stmt 0 discriminator 2
 985 00a8 0346     		mov	r3, r0
 986              	.LVL131:
 987              	@ 103 "../../../ChibiOS/test/testqueues.c" 1
 988 00aa 83F31188 		msr     BASEPRI, r3
 989              	@ 0 "" 2
 990              	.LVL132:
 991              		.thumb
 992              	.LBE48:
 993              		.loc 1 107 0 is_stmt 1 discriminator 2
 994 00ae 4FF0FF31 		mov	r1, #-1
 995 00b2 2846     		mov	r0, r5
 996 00b4 FFF7FEFF 		bl	chIQGetTimeout
 997              	.LVL133:
 998 00b8 C0B2     		uxtb	r0, r0
 999 00ba FFF7FEFF 		bl	test_emit_token
 1000              	.LVL134:
 1001 00be 4FF0FF31 		mov	r1, #-1
 1002 00c2 2846     		mov	r0, r5
 1003 00c4 FFF7FEFF 		bl	chIQGetTimeout
 1004 00c8 C0B2     		uxtb	r0, r0
 1005 00ca FFF7FEFF 		bl	test_emit_token
 1006              	.LVL135:
 1007 00ce 4FF0FF31 		mov	r1, #-1
 1008 00d2 2846     		mov	r0, r5
 1009 00d4 FFF7FEFF 		bl	chIQGetTimeout
 1010 00d8 C0B2     		uxtb	r0, r0
 1011 00da FFF7FEFF 		bl	test_emit_token
 1012              	.LVL136:
 1013 00de 4FF0FF31 		mov	r1, #-1
 1014 00e2 2846     		mov	r0, r5
ARM GAS  C:\Users\DNIEL~1\AppData\Local\Temp\ccXtZ92a.s 			page 19


 1015 00e4 FFF7FEFF 		bl	chIQGetTimeout
 1016 00e8 C0B2     		uxtb	r0, r0
 1017 00ea FFF7FEFF 		bl	test_emit_token
 1018              	.LVL137:
 1019              	.LBB49:
 1020              		.loc 1 108 0 discriminator 2
 1021 00ee 2023     		movs	r3, #32
 1022              	.LVL138:
 1023              	@ 108 "../../../ChibiOS/test/testqueues.c" 1
 1024 00f0 83F31188 		msr     BASEPRI, r3
 1025              	@ 0 "" 2
 1026              	.LVL139:
 1027              		.thumb
 1028              	.LBE49:
 1029 00f4 A968     		ldr	r1, [r5, #8]
 1030 00f6 0420     		movs	r0, #4
 1031 00f8 D1F10101 		rsbs	r1, r1, #1
 1032 00fc 38BF     		it	cc
 1033 00fe 0021     		movcc	r1, #0
 1034 0100 FFF7FEFF 		bl	_test_assert
 1035              	.LVL140:
 1036 0104 80B1     		cbz	r0, .L40
 1037              	.LBB50:
 1038              		.loc 1 108 0 is_stmt 0 discriminator 1
 1039 0106 3B46     		mov	r3, r7
 1040              	@ 108 "../../../ChibiOS/test/testqueues.c" 1
 1041 0108 83F31188 		msr     BASEPRI, r3
 1042              	@ 0 "" 2
 1043              	.LVL141:
 1044              		.thumb
 1045              	.LBE50:
 1046 010c B3E7     		b	.L34
 1047              	.LVL142:
 1048              	.L46:
 1049              	.LBB51:
 1050              		.loc 1 95 0 is_stmt 1 discriminator 1
 1051 010e 0023     		movs	r3, #0
 1052              	@ 95 "../../../ChibiOS/test/testqueues.c" 1
 1053 0110 83F31188 		msr     BASEPRI, r3
 1054              	@ 0 "" 2
 1055              	.LVL143:
 1056              		.thumb
 1057              	.LBE51:
 1058 0114 AFE7     		b	.L34
 1059              	.LVL144:
 1060              	.L48:
 1061              	.LBB52:
 1062              		.loc 1 103 0 discriminator 1
 1063 0116 3346     		mov	r3, r6
 1064              	@ 103 "../../../ChibiOS/test/testqueues.c" 1
 1065 0118 83F31188 		msr     BASEPRI, r3
 1066              	@ 0 "" 2
 1067              	.LVL145:
 1068              		.thumb
 1069              	.LBE52:
 1070 011c ABE7     		b	.L34
 1071              	.LVL146:
ARM GAS  C:\Users\DNIEL~1\AppData\Local\Temp\ccXtZ92a.s 			page 20


 1072              	.L47:
 1073              		.loc 1 90 0 discriminator 1
 1074 011e A068     		ldr	r0, [r4, #8]
 1075 0120 011E     		subs	r1, r0, #0
 1076 0122 18BF     		it	ne
 1077 0124 0121     		movne	r1, #1
 1078 0126 9EE7     		b	.L37
 1079              	.L40:
 1080              	.LBB53:
 1081              		.loc 1 108 0 discriminator 2
 1082 0128 0346     		mov	r3, r0
 1083              	.LVL147:
 1084              	@ 108 "../../../ChibiOS/test/testqueues.c" 1
 1085 012a 83F31188 		msr     BASEPRI, r3
 1086              	@ 0 "" 2
 1087              	.LVL148:
 1088              		.thumb
 1089              	.LBE53:
 1090              		.loc 1 109 0 discriminator 2
 1091 012e 0520     		movs	r0, #5
 1092 0130 6949     		ldr	r1, .L50+4
 1093 0132 FFF7FEFF 		bl	_test_assert_sequence
 1094              	.LVL149:
 1095 0136 0646     		mov	r6, r0
 1096 0138 0028     		cmp	r0, #0
 1097 013a 9CD1     		bne	.L34
 1098              	.LBB54:
 1099              		.loc 1 112 0
 1100 013c 2023     		movs	r3, #32
 1101              	.LVL150:
 1102              	@ 112 "../../../ChibiOS/test/testqueues.c" 1
 1103 013e 83F31188 		msr     BASEPRI, r3
 1104              	@ 0 "" 2
 1105              	.LVL151:
 1106              		.thumb
 1107              	.LBE54:
 1108              		.loc 1 114 0
 1109 0142 4121     		movs	r1, #65
 1110 0144 2846     		mov	r0, r5
 1111 0146 FFF7FEFF 		bl	chIQPutI
 1112              	.LVL152:
 1113 014a 4221     		movs	r1, #66
 1114 014c 2846     		mov	r0, r5
 1115 014e FFF7FEFF 		bl	chIQPutI
 1116              	.LVL153:
 1117 0152 4321     		movs	r1, #67
 1118 0154 2846     		mov	r0, r5
 1119 0156 FFF7FEFF 		bl	chIQPutI
 1120              	.LVL154:
 1121 015a 2846     		mov	r0, r5
 1122 015c 4421     		movs	r1, #68
 1123 015e FFF7FEFF 		bl	chIQPutI
 1124              	.LVL155:
 1125              	.LBB55:
 1126              		.loc 1 115 0
 1127 0162 3346     		mov	r3, r6
 1128              	.LVL156:
ARM GAS  C:\Users\DNIEL~1\AppData\Local\Temp\ccXtZ92a.s 			page 21


 1129              	@ 115 "../../../ChibiOS/test/testqueues.c" 1
 1130 0164 83F31188 		msr     BASEPRI, r3
 1131              	@ 0 "" 2
 1132              	.LVL157:
 1133              		.thumb
 1134              	.LBE55:
 1135              		.loc 1 118 0
 1136 0168 5C4F     		ldr	r7, .L50+8
 1137 016a 7E68     		ldr	r6, [r7, #4]
 1138 016c 0822     		movs	r2, #8
 1139 016e 3146     		mov	r1, r6
 1140 0170 2846     		mov	r0, r5
 1141 0172 FFF7FEFF 		bl	chIQReadTimeout
 1142              	.LVL158:
 1143              		.loc 1 119 0
 1144 0176 A0F1040C 		sub	ip, r0, #4
 1145 017a DCF10008 		rsbs	r8, ip, #0
 1146 017e 48EB0C01 		adc	r1, r8, ip
 1147 0182 0620     		movs	r0, #6
 1148              	.LVL159:
 1149 0184 FFF7FEFF 		bl	_test_assert
 1150              	.LVL160:
 1151 0188 8046     		mov	r8, r0
 1152 018a 0028     		cmp	r0, #0
 1153 018c 7FF473AF 		bne	.L34
 1154              	.LBB56:
 1155              		.loc 1 120 0
 1156 0190 2023     		movs	r3, #32
 1157              	.LVL161:
 1158              	@ 120 "../../../ChibiOS/test/testqueues.c" 1
 1159 0192 83F31188 		msr     BASEPRI, r3
 1160              	@ 0 "" 2
 1161              	.LVL162:
 1162              		.thumb
 1163              	.LBE56:
 1164 0196 AA68     		ldr	r2, [r5, #8]
 1165 0198 0720     		movs	r0, #7
 1166 019a D2F10101 		rsbs	r1, r2, #1
 1167 019e 38BF     		it	cc
 1168 01a0 0021     		movcc	r1, #0
 1169 01a2 FFF7FEFF 		bl	_test_assert
 1170              	.LVL163:
 1171 01a6 8146     		mov	r9, r0
 1172 01a8 0028     		cmp	r0, #0
 1173 01aa 4CD1     		bne	.L49
 1174              	.LBB57:
 1175              		.loc 1 120 0 is_stmt 0 discriminator 2
 1176 01ac 0346     		mov	r3, r0
 1177              	.LVL164:
 1178              	@ 120 "../../../ChibiOS/test/testqueues.c" 1
 1179 01ae 83F31188 		msr     BASEPRI, r3
 1180              	@ 0 "" 2
 1181              	.LVL165:
 1182              		.thumb
 1183              	.LBE57:
 1184              	.LBB58:
 1185              		.loc 1 123 0 is_stmt 1 discriminator 2
ARM GAS  C:\Users\DNIEL~1\AppData\Local\Temp\ccXtZ92a.s 			page 22


 1186 01b2 2023     		movs	r3, #32
 1187              	.LVL166:
 1188              	@ 123 "../../../ChibiOS/test/testqueues.c" 1
 1189 01b4 83F31188 		msr     BASEPRI, r3
 1190              	@ 0 "" 2
 1191              	.LVL167:
 1192              		.thumb
 1193              	.LBE58:
 1194              		.loc 1 125 0 discriminator 2
 1195 01b8 4121     		movs	r1, #65
 1196 01ba 2846     		mov	r0, r5
 1197 01bc FFF7FEFF 		bl	chIQPutI
 1198              	.LVL168:
 1199 01c0 4221     		movs	r1, #66
 1200 01c2 2846     		mov	r0, r5
 1201 01c4 FFF7FEFF 		bl	chIQPutI
 1202              	.LVL169:
 1203 01c8 4321     		movs	r1, #67
 1204 01ca 2846     		mov	r0, r5
 1205 01cc FFF7FEFF 		bl	chIQPutI
 1206              	.LVL170:
 1207 01d0 2846     		mov	r0, r5
 1208 01d2 4421     		movs	r1, #68
 1209 01d4 FFF7FEFF 		bl	chIQPutI
 1210              	.LVL171:
 1211              	.LBB59:
 1212              		.loc 1 126 0 discriminator 2
 1213 01d8 4B46     		mov	r3, r9
 1214              	.LVL172:
 1215              	@ 126 "../../../ChibiOS/test/testqueues.c" 1
 1216 01da 83F31188 		msr     BASEPRI, r3
 1217              	@ 0 "" 2
 1218              	.LVL173:
 1219              		.thumb
 1220              	.LBE59:
 1221              		.loc 1 129 0 discriminator 2
 1222 01de 0222     		movs	r2, #2
 1223 01e0 3146     		mov	r1, r6
 1224 01e2 2846     		mov	r0, r5
 1225 01e4 FFF7FEFF 		bl	chIQReadTimeout
 1226              	.LVL174:
 1227              		.loc 1 130 0 discriminator 2
 1228 01e8 A0F1020E 		sub	lr, r0, #2
 1229 01ec DEF10003 		rsbs	r3, lr, #0
 1230 01f0 43EB0E01 		adc	r1, r3, lr
 1231 01f4 0820     		movs	r0, #8
 1232              	.LVL175:
 1233 01f6 FFF7FEFF 		bl	_test_assert
 1234              	.LVL176:
 1235 01fa 0028     		cmp	r0, #0
 1236 01fc 7FF43BAF 		bne	.L34
 1237              		.loc 1 131 0
 1238 0200 0222     		movs	r2, #2
 1239 0202 0346     		mov	r3, r0
 1240 0204 3146     		mov	r1, r6
 1241 0206 2846     		mov	r0, r5
 1242 0208 FFF7FEFF 		bl	chIQReadTimeout
ARM GAS  C:\Users\DNIEL~1\AppData\Local\Temp\ccXtZ92a.s 			page 23


 1243              	.LVL177:
 1244              		.loc 1 132 0
 1245 020c A0F10200 		sub	r0, r0, #2
 1246              	.LVL178:
 1247 0210 4142     		rsbs	r1, r0, #0
 1248 0212 41EB0001 		adc	r1, r1, r0
 1249 0216 0920     		movs	r0, #9
 1250              	.LVL179:
 1251 0218 FFF7FEFF 		bl	_test_assert
 1252 021c 8046     		mov	r8, r0
 1253 021e 0028     		cmp	r0, #0
 1254 0220 7FF429AF 		bne	.L34
 1255              	.LBB60:
 1256              		.loc 1 133 0
 1257 0224 2023     		movs	r3, #32
 1258              	.LVL180:
 1259              	@ 133 "../../../ChibiOS/test/testqueues.c" 1
 1260 0226 83F31188 		msr     BASEPRI, r3
 1261              	@ 0 "" 2
 1262              	.LVL181:
 1263              		.thumb
 1264              	.LBE60:
 1265 022a AE68     		ldr	r6, [r5, #8]
 1266 022c 0A20     		movs	r0, #10
 1267 022e D6F10101 		rsbs	r1, r6, #1
 1268 0232 38BF     		it	cc
 1269 0234 0021     		movcc	r1, #0
 1270 0236 FFF7FEFF 		bl	_test_assert
 1271              	.LVL182:
 1272 023a 0646     		mov	r6, r0
 1273 023c 38B1     		cbz	r0, .L42
 1274              	.LBB61:
 1275              		.loc 1 133 0 is_stmt 0 discriminator 1
 1276 023e 4346     		mov	r3, r8
 1277              	@ 133 "../../../ChibiOS/test/testqueues.c" 1
 1278 0240 83F31188 		msr     BASEPRI, r3
 1279              	@ 0 "" 2
 1280              	.LVL183:
 1281              		.thumb
 1282              	.LBE61:
 1283 0244 17E7     		b	.L34
 1284              	.LVL184:
 1285              	.L49:
 1286              	.LBB62:
 1287              		.loc 1 120 0 is_stmt 1 discriminator 1
 1288 0246 4346     		mov	r3, r8
 1289              	@ 120 "../../../ChibiOS/test/testqueues.c" 1
 1290 0248 83F31188 		msr     BASEPRI, r3
 1291              	@ 0 "" 2
 1292              	.LVL185:
 1293              		.thumb
 1294              	.LBE62:
 1295 024c 13E7     		b	.L34
 1296              	.LVL186:
 1297              	.L42:
 1298              	.LBB63:
 1299              		.loc 1 133 0 discriminator 2
ARM GAS  C:\Users\DNIEL~1\AppData\Local\Temp\ccXtZ92a.s 			page 24


 1300 024e 0346     		mov	r3, r0
 1301              	.LVL187:
 1302              	@ 133 "../../../ChibiOS/test/testqueues.c" 1
 1303 0250 83F31188 		msr     BASEPRI, r3
 1304              	@ 0 "" 2
 1305              	.LVL188:
 1306              		.thumb
 1307              	.LBE63:
 1308              	.LBB64:
 1309              		.loc 1 136 0 discriminator 2
 1310 0254 2023     		movs	r3, #32
 1311              	.LVL189:
 1312              	@ 136 "../../../ChibiOS/test/testqueues.c" 1
 1313 0256 83F31188 		msr     BASEPRI, r3
 1314              	@ 0 "" 2
 1315              	.LVL190:
 1316              		.thumb
 1317              	.LBE64:
 1318              		.loc 1 137 0 discriminator 2
 1319 025a 0146     		mov	r1, r0
 1320 025c 2846     		mov	r0, r5
 1321 025e FFF7FEFF 		bl	chIQPutI
 1322              	.LVL191:
 1323              		.loc 1 138 0 discriminator 2
 1324 0262 2846     		mov	r0, r5
 1325 0264 FFF7FEFF 		bl	chIQResetI
 1326              	.LBB65:
 1327              		.loc 1 139 0 discriminator 2
 1328 0268 3346     		mov	r3, r6
 1329              	.LVL192:
 1330              	@ 139 "../../../ChibiOS/test/testqueues.c" 1
 1331 026a 83F31188 		msr     BASEPRI, r3
 1332              	@ 0 "" 2
 1333              	.LVL193:
 1334              		.thumb
 1335              	.LBE65:
 1336              	.LBB66:
 1337              		.loc 1 140 0 discriminator 2
 1338 026e 2023     		movs	r3, #32
 1339              	.LVL194:
 1340              	@ 140 "../../../ChibiOS/test/testqueues.c" 1
 1341 0270 83F31188 		msr     BASEPRI, r3
 1342              	@ 0 "" 2
 1343              	.LVL195:
 1344              		.thumb
 1345              	.LBE66:
 1346 0274 AA68     		ldr	r2, [r5, #8]
 1347 0276 0B20     		movs	r0, #11
 1348 0278 D2F10101 		rsbs	r1, r2, #1
 1349 027c 38BF     		it	cc
 1350 027e 0021     		movcc	r1, #0
 1351 0280 FFF7FEFF 		bl	_test_assert
 1352              	.LVL196:
 1353 0284 18B1     		cbz	r0, .L43
 1354              	.LBB67:
 1355              		.loc 1 140 0 is_stmt 0 discriminator 1
 1356 0286 0023     		movs	r3, #0
ARM GAS  C:\Users\DNIEL~1\AppData\Local\Temp\ccXtZ92a.s 			page 25


 1357              	@ 140 "../../../ChibiOS/test/testqueues.c" 1
 1358 0288 83F31188 		msr     BASEPRI, r3
 1359              	@ 0 "" 2
 1360              	.LVL197:
 1361              		.thumb
 1362              	.LBE67:
 1363 028c F3E6     		b	.L34
 1364              	.LVL198:
 1365              	.L43:
 1366              	.LBB68:
 1367              		.loc 1 140 0 discriminator 2
 1368 028e 0023     		movs	r3, #0
 1369              	.LVL199:
 1370              	@ 140 "../../../ChibiOS/test/testqueues.c" 1
 1371 0290 83F31188 		msr     BASEPRI, r3
 1372              	@ 0 "" 2
 1373              	.LVL200:
 1374              		.thumb
 1375              	.LBE68:
 1376              		.loc 1 141 0 is_stmt 1 discriminator 2
 1377 0294 1249     		ldr	r1, .L50+12
 1378 0296 3868     		ldr	r0, [r7, #0]
 1379 0298 8D69     		ldr	r5, [r1, #24]
 1380 029a AA68     		ldr	r2, [r5, #8]
 1381 029c 4FF4A871 		mov	r1, #336
 1382 02a0 1D46     		mov	r5, r3
 1383 02a2 0132     		adds	r2, r2, #1
 1384 02a4 0F4B     		ldr	r3, .L50+16
 1385              	.LVL201:
 1386 02a6 0095     		str	r5, [sp, #0]
 1387 02a8 FFF7FEFF 		bl	chThdCreateStatic
 1388 02ac 0E4A     		ldr	r2, .L50+20
 1389              	.LBB69:
 1390              		.loc 1 142 0 discriminator 2
 1391 02ae 2023     		movs	r3, #32
 1392              	.LVL202:
 1393              	.LBE69:
 1394              		.loc 1 141 0 discriminator 2
 1395 02b0 1060     		str	r0, [r2, #0]
 1396              	.LBB70:
 1397              		.loc 1 142 0 discriminator 2
 1398              	@ 142 "../../../ChibiOS/test/testqueues.c" 1
 1399 02b2 83F31188 		msr     BASEPRI, r3
 1400              	@ 0 "" 2
 1401              	.LVL203:
 1402              		.thumb
 1403              	.LBE70:
 1404 02b6 A168     		ldr	r1, [r4, #8]
 1405 02b8 4B1B     		subs	r3, r1, r5
 1406              	.LVL204:
 1407 02ba 0C20     		movs	r0, #12
 1408 02bc D3F1000C 		rsbs	ip, r3, #0
 1409 02c0 4CEB0301 		adc	r1, ip, r3
 1410 02c4 FFF7FEFF 		bl	_test_assert
 1411 02c8 0346     		mov	r3, r0
 1412 02ca 78B1     		cbz	r0, .L44
 1413              	.LBB71:
ARM GAS  C:\Users\DNIEL~1\AppData\Local\Temp\ccXtZ92a.s 			page 26


 1414              		.loc 1 142 0 is_stmt 0 discriminator 1
 1415 02cc 2B46     		mov	r3, r5
 1416              	@ 142 "../../../ChibiOS/test/testqueues.c" 1
 1417 02ce 83F31188 		msr     BASEPRI, r3
 1418              	@ 0 "" 2
 1419              	.LVL205:
 1420              		.thumb
 1421 02d2 D0E6     		b	.L34
 1422              	.L51:
 1423              		.align	2
 1424              	.L50:
 1425 02d4 00000000 		.word	.LANCHOR1
 1426 02d8 00000000 		.word	.LC0
 1427 02dc 00000000 		.word	wa
 1428 02e0 00000000 		.word	rlist
 1429 02e4 00000000 		.word	thread1
 1430 02e8 00000000 		.word	threads
 1431              	.LVL206:
 1432              	.L44:
 1433              	.LBE71:
 1434              	.LBB72:
 1435              		.loc 1 142 0 discriminator 2
 1436              	@ 142 "../../../ChibiOS/test/testqueues.c" 1
 1437 02ec 83F31188 		msr     BASEPRI, r3
 1438              	@ 0 "" 2
 1439              	.LVL207:
 1440              		.thumb
 1441              	.LBE72:
 1442              		.loc 1 143 0 is_stmt 1 discriminator 2
 1443 02f0 FFF7FEFF 		bl	test_wait_threads
 1444              	.LVL208:
 1445              		.loc 1 146 0 discriminator 2
 1446 02f4 0A21     		movs	r1, #10
 1447 02f6 0748     		ldr	r0, .L52
 1448 02f8 FFF7FEFF 		bl	chIQGetTimeout
 1449 02fc A0F1FF3C 		sub	ip, r0, #-1
 1450 0300 DCF10000 		rsbs	r0, ip, #0
 1451 0304 40EB0C01 		adc	r1, r0, ip
 1452 0308 0D20     		movs	r0, #13
 1453              		.loc 1 147 0 discriminator 2
 1454 030a 03B0     		add	sp, sp, #12
 1455 030c BDE8F043 		pop	{r4, r5, r6, r7, r8, r9, lr}
 1456              		.loc 1 146 0 discriminator 2
 1457 0310 FFF7FEBF 		b	_test_assert
 1458              	.L53:
 1459              		.align	2
 1460              	.L52:
 1461 0314 00000000 		.word	.LANCHOR1
 1462              		.cfi_endproc
 1463              	.LFE10:
 1464              		.size	queues1_execute, .-queues1_execute
 1465 0318 AFF30080 		.section	.text.queues1_setup,"ax",%progbits
 1465      AFF30080 
 1466              		.align	2
 1467              		.p2align 4,,15
 1468              		.thumb
 1469              		.thumb_func
ARM GAS  C:\Users\DNIEL~1\AppData\Local\Temp\ccXtZ92a.s 			page 27


 1470              		.type	queues1_setup, %function
 1471              	queues1_setup:
 1472              	.LFB8:
 1473              		.loc 1 78 0
 1474              		.cfi_startproc
 1475              		@ args = 0, pretend = 0, frame = 0
 1476              		@ frame_needed = 0, uses_anonymous_args = 0
 1477 0000 10B5     		push	{r4, lr}
 1478              	.LCFI8:
 1479              		.cfi_def_cfa_offset 8
 1480              		.loc 1 80 0
 1481 0002 064B     		ldr	r3, .L55
 1482 0004 0648     		ldr	r0, .L55+4
 1483 0006 1968     		ldr	r1, [r3, #0]
 1484 0008 064B     		ldr	r3, .L55+8
 1485              		.loc 1 78 0
 1486 000a 82B0     		sub	sp, sp, #8
 1487              	.LCFI9:
 1488              		.cfi_def_cfa_offset 16
 1489              		.loc 1 80 0
 1490 000c 0024     		movs	r4, #0
 1491              		.cfi_offset 14, -4
 1492              		.cfi_offset 4, -8
 1493 000e 0422     		movs	r2, #4
 1494 0010 0094     		str	r4, [sp, #0]
 1495 0012 FFF7FEFF 		bl	chIQInit
 1496              		.loc 1 81 0
 1497 0016 02B0     		add	sp, sp, #8
 1498 0018 10BD     		pop	{r4, pc}
 1499              	.L56:
 1500 001a 00BF     		.align	2
 1501              	.L55:
 1502 001c 00000000 		.word	wa
 1503 0020 00000000 		.word	.LANCHOR1
 1504 0024 00000000 		.word	notify
 1505              		.cfi_endproc
 1506              	.LFE8:
 1507              		.size	queues1_setup, .-queues1_setup
 1508              		.global	testqueues1
 1509              		.global	testqueues2
 1510              		.global	patternqueues
 1511              		.section	.rodata.testqueues1,"a",%progbits
 1512              		.align	2
 1513              		.type	testqueues1, %object
 1514              		.size	testqueues1, 16
 1515              	testqueues1:
 1516 0000 08000000 		.word	.LC1
 1517 0004 00000000 		.word	queues1_setup
 1518 0008 00000000 		.word	0
 1519 000c 00000000 		.word	queues1_execute
 1520              		.section	.rodata.testqueues2,"a",%progbits
 1521              		.align	2
 1522              		.type	testqueues2, %object
 1523              		.size	testqueues2, 16
 1524              	testqueues2:
 1525 0000 20000000 		.word	.LC2
 1526 0004 00000000 		.word	queues2_setup
ARM GAS  C:\Users\DNIEL~1\AppData\Local\Temp\ccXtZ92a.s 			page 28


 1527 0008 00000000 		.word	0
 1528 000c 00000000 		.word	queues2_execute
 1529              		.section	.rodata.str1.4,"aMS",%progbits,1
 1530              		.align	2
 1531              	.LC0:
 1532 0000 41424344 		.ascii	"ABCD\000"
 1532      00
 1533 0005 000000   		.space	3
 1534              	.LC1:
 1535 0008 51756575 		.ascii	"Queues, input queues\000"
 1535      65732C20 
 1535      696E7075 
 1535      74207175 
 1535      65756573 
 1536 001d 000000   		.space	3
 1537              	.LC2:
 1538 0020 51756575 		.ascii	"Queues, output queues\000"
 1538      65732C20 
 1538      6F757470 
 1538      75742071 
 1538      75657565 
 1539 0036 0000     		.section	.rodata.patternqueues,"a",%progbits
 1540              		.align	2
 1541              		.type	patternqueues, %object
 1542              		.size	patternqueues, 12
 1543              	patternqueues:
 1544 0000 00000000 		.word	testqueues1
 1545 0004 00000000 		.word	testqueues2
 1546 0008 00000000 		.word	0
 1547              		.section	.data.oq,"aw",%progbits
 1548              		.align	2
 1549              		.set	.LANCHOR0,. + 0
 1550              		.type	oq, %object
 1551              		.size	oq, 36
 1552              	oq:
 1553 0000 00000000 		.word	oq
 1554 0004 00000000 		.word	oq
 1555 0008 04000000 		.word	4
 1556 000c 50010000 		.word	test+336
 1557 0010 54010000 		.word	test+340
 1558 0014 50010000 		.word	test+336
 1559 0018 50010000 		.word	test+336
 1560 001c 00000000 		.word	notify
 1561 0020 00000000 		.word	0
 1562              		.section	.data.iq,"aw",%progbits
 1563              		.align	2
 1564              		.set	.LANCHOR1,. + 0
 1565              		.type	iq, %object
 1566              		.size	iq, 36
 1567              	iq:
 1568 0000 00000000 		.word	iq
 1569 0004 00000000 		.word	iq
 1570 0008 00000000 		.word	0
 1571 000c 00000000 		.word	test
 1572 0010 04000000 		.word	test+4
 1573 0014 00000000 		.word	test
 1574 0018 00000000 		.word	test
ARM GAS  C:\Users\DNIEL~1\AppData\Local\Temp\ccXtZ92a.s 			page 29


 1575 001c 00000000 		.word	notify
 1576 0020 00000000 		.word	0
 1577              		.text
 1578              	.Letext0:
 1579              		.section	.debug_loc,"",%progbits
 1580              	.Ldebug_loc0:
 1581              	.LLST0:
 1582 0000 00000000 		.4byte	.LFB12
 1583 0004 02000000 		.4byte	.LCFI0
 1584 0008 0200     		.2byte	0x2
 1585 000a 7D       		.byte	0x7d
 1586 000b 00       		.sleb128 0
 1587 000c 02000000 		.4byte	.LCFI0
 1588 0010 14000000 		.4byte	.LFE12
 1589 0014 0200     		.2byte	0x2
 1590 0016 7D       		.byte	0x7d
 1591 0017 08       		.sleb128 8
 1592 0018 00000000 		.4byte	0x0
 1593 001c 00000000 		.4byte	0x0
 1594              	.LLST1:
 1595 0020 00000000 		.4byte	.LVL1
 1596 0024 08000000 		.4byte	.LVL2
 1597 0028 0100     		.2byte	0x1
 1598 002a 50       		.byte	0x50
 1599 002b 00000000 		.4byte	0x0
 1600 002f 00000000 		.4byte	0x0
 1601              	.LLST2:
 1602 0033 00000000 		.4byte	.LFB13
 1603 0037 04000000 		.4byte	.LCFI1
 1604 003b 0200     		.2byte	0x2
 1605 003d 7D       		.byte	0x7d
 1606 003e 00       		.sleb128 0
 1607 003f 04000000 		.4byte	.LCFI1
 1608 0043 08000000 		.4byte	.LCFI2
 1609 0047 0200     		.2byte	0x2
 1610 0049 7D       		.byte	0x7d
 1611 004a 18       		.sleb128 24
 1612 004b 08000000 		.4byte	.LCFI2
 1613 004f F0020000 		.4byte	.LFE13
 1614 0053 0200     		.2byte	0x2
 1615 0055 7D       		.byte	0x7d
 1616 0056 20       		.sleb128 32
 1617 0057 00000000 		.4byte	0x0
 1618 005b 00000000 		.4byte	0x0
 1619              	.LLST3:
 1620 005f 2A000000 		.4byte	.LVL7
 1621 0063 38000000 		.4byte	.LVL8
 1622 0067 0200     		.2byte	0x2
 1623 0069 30       		.byte	0x30
 1624 006a 9F       		.byte	0x9f
 1625 006b 38000000 		.4byte	.LVL8
 1626 006f 44000000 		.4byte	.LVL9
 1627 0073 0200     		.2byte	0x2
 1628 0075 31       		.byte	0x31
 1629 0076 9F       		.byte	0x9f
 1630 0077 44000000 		.4byte	.LVL9
 1631 007b 50000000 		.4byte	.LVL10
ARM GAS  C:\Users\DNIEL~1\AppData\Local\Temp\ccXtZ92a.s 			page 30


 1632 007f 0200     		.2byte	0x2
 1633 0081 32       		.byte	0x32
 1634 0082 9F       		.byte	0x9f
 1635 0083 50000000 		.4byte	.LVL10
 1636 0087 5C000000 		.4byte	.LVL11
 1637 008b 0200     		.2byte	0x2
 1638 008d 33       		.byte	0x33
 1639 008e 9F       		.byte	0x9f
 1640 008f 5C000000 		.4byte	.LVL11
 1641 0093 7E000000 		.4byte	.LVL16
 1642 0097 0200     		.2byte	0x2
 1643 0099 34       		.byte	0x34
 1644 009a 9F       		.byte	0x9f
 1645 009b 7E000000 		.4byte	.LVL16
 1646 009f 96000000 		.4byte	.LVL23
 1647 00a3 0200     		.2byte	0x2
 1648 00a5 30       		.byte	0x30
 1649 00a6 9F       		.byte	0x9f
 1650 00a7 96000000 		.4byte	.LVL23
 1651 00ab AE000000 		.4byte	.LVL28
 1652 00af 0200     		.2byte	0x2
 1653 00b1 31       		.byte	0x31
 1654 00b2 9F       		.byte	0x9f
 1655 00b3 AE000000 		.4byte	.LVL28
 1656 00b7 C6000000 		.4byte	.LVL33
 1657 00bb 0200     		.2byte	0x2
 1658 00bd 32       		.byte	0x32
 1659 00be 9F       		.byte	0x9f
 1660 00bf C6000000 		.4byte	.LVL33
 1661 00c3 DE000000 		.4byte	.LVL38
 1662 00c7 0200     		.2byte	0x2
 1663 00c9 33       		.byte	0x33
 1664 00ca 9F       		.byte	0x9f
 1665 00cb DE000000 		.4byte	.LVL38
 1666 00cf FC000000 		.4byte	.LVL43
 1667 00d3 0200     		.2byte	0x2
 1668 00d5 34       		.byte	0x34
 1669 00d6 9F       		.byte	0x9f
 1670 00d7 02010000 		.4byte	.LVL44
 1671 00db 0A010000 		.4byte	.LVL46
 1672 00df 0200     		.2byte	0x2
 1673 00e1 34       		.byte	0x34
 1674 00e2 9F       		.byte	0x9f
 1675 00e3 1C010000 		.4byte	.LVL49
 1676 00e7 F0020000 		.4byte	.LFE13
 1677 00eb 0200     		.2byte	0x2
 1678 00ed 34       		.byte	0x34
 1679 00ee 9F       		.byte	0x9f
 1680 00ef 00000000 		.4byte	0x0
 1681 00f3 00000000 		.4byte	0x0
 1682              	.LLST4:
 1683 00f7 76010000 		.4byte	.LVL61
 1684 00fb 84010000 		.4byte	.LVL62
 1685 00ff 0100     		.2byte	0x1
 1686 0101 50       		.byte	0x50
 1687 0102 84010000 		.4byte	.LVL62
 1688 0106 8A010000 		.4byte	.LVL63
ARM GAS  C:\Users\DNIEL~1\AppData\Local\Temp\ccXtZ92a.s 			page 31


 1689 010a 0300     		.2byte	0x3
 1690 010c 78       		.byte	0x78
 1691 010d 04       		.sleb128 4
 1692 010e 9F       		.byte	0x9f
 1693 010f 52020000 		.4byte	.LVL91
 1694 0113 60020000 		.4byte	.LVL92
 1695 0117 0100     		.2byte	0x1
 1696 0119 50       		.byte	0x50
 1697 011a 60020000 		.4byte	.LVL92
 1698 011e 63020000 		.4byte	.LVL93-1
 1699 0122 0300     		.2byte	0x3
 1700 0124 72       		.byte	0x72
 1701 0125 02       		.sleb128 2
 1702 0126 9F       		.byte	0x9f
 1703 0127 76020000 		.4byte	.LVL94
 1704 012b 7A020000 		.4byte	.LVL95
 1705 012f 0100     		.2byte	0x1
 1706 0131 50       		.byte	0x50
 1707 0132 7A020000 		.4byte	.LVL95
 1708 0136 82020000 		.4byte	.LVL96
 1709 013a 0300     		.2byte	0x3
 1710 013c 70       		.byte	0x70
 1711 013d 02       		.sleb128 2
 1712 013e 9F       		.byte	0x9f
 1713 013f 00000000 		.4byte	0x0
 1714 0143 00000000 		.4byte	0x0
 1715              	.LLST5:
 1716 0147 0C000000 		.4byte	.LVL4
 1717 014b 12000000 		.4byte	.LVL5
 1718 014f 0100     		.2byte	0x1
 1719 0151 53       		.byte	0x53
 1720 0152 00000000 		.4byte	0x0
 1721 0156 00000000 		.4byte	0x0
 1722              	.LLST6:
 1723 015a 2A000000 		.4byte	.LVL7
 1724 015e 37000000 		.4byte	.LVL8-1
 1725 0162 0100     		.2byte	0x1
 1726 0164 53       		.byte	0x53
 1727 0165 00000000 		.4byte	0x0
 1728 0169 00000000 		.4byte	0x0
 1729              	.LLST7:
 1730 016d 62000000 		.4byte	.LVL13
 1731 0171 71000000 		.4byte	.LVL14-1
 1732 0175 0100     		.2byte	0x1
 1733 0177 53       		.byte	0x53
 1734 0178 00000000 		.4byte	0x0
 1735 017c 00000000 		.4byte	0x0
 1736              	.LLST8:
 1737 0180 7E000000 		.4byte	.LVL16
 1738 0184 80000000 		.4byte	.LVL17
 1739 0188 0100     		.2byte	0x1
 1740 018a 53       		.byte	0x53
 1741 018b 00000000 		.4byte	0x0
 1742 018f 00000000 		.4byte	0x0
 1743              	.LLST9:
 1744 0193 8A000000 		.4byte	.LVL19
 1745 0197 92000000 		.4byte	.LVL22
ARM GAS  C:\Users\DNIEL~1\AppData\Local\Temp\ccXtZ92a.s 			page 32


 1746 019b 0100     		.2byte	0x1
 1747 019d 50       		.byte	0x50
 1748 019e A2000000 		.4byte	.LVL25
 1749 01a2 AA000000 		.4byte	.LVL27
 1750 01a6 0100     		.2byte	0x1
 1751 01a8 50       		.byte	0x50
 1752 01a9 BA000000 		.4byte	.LVL30
 1753 01ad C2000000 		.4byte	.LVL32
 1754 01b1 0100     		.2byte	0x1
 1755 01b3 50       		.byte	0x50
 1756 01b4 D2000000 		.4byte	.LVL35
 1757 01b8 DA000000 		.4byte	.LVL37
 1758 01bc 0100     		.2byte	0x1
 1759 01be 50       		.byte	0x50
 1760 01bf 00000000 		.4byte	0x0
 1761 01c3 00000000 		.4byte	0x0
 1762              	.LLST10:
 1763 01c7 84000000 		.4byte	.LVL18
 1764 01cb 89000000 		.4byte	.LVL19-1
 1765 01cf 0100     		.2byte	0x1
 1766 01d1 53       		.byte	0x53
 1767 01d2 9C000000 		.4byte	.LVL24
 1768 01d6 A1000000 		.4byte	.LVL25-1
 1769 01da 0100     		.2byte	0x1
 1770 01dc 53       		.byte	0x53
 1771 01dd B4000000 		.4byte	.LVL29
 1772 01e1 B9000000 		.4byte	.LVL30-1
 1773 01e5 0100     		.2byte	0x1
 1774 01e7 53       		.byte	0x53
 1775 01e8 CC000000 		.4byte	.LVL34
 1776 01ec D1000000 		.4byte	.LVL35-1
 1777 01f0 0100     		.2byte	0x1
 1778 01f2 53       		.byte	0x53
 1779 01f3 00000000 		.4byte	0x0
 1780 01f7 00000000 		.4byte	0x0
 1781              	.LLST11:
 1782 01fb 90000000 		.4byte	.LVL21
 1783 01ff 95000000 		.4byte	.LVL23-1
 1784 0203 0100     		.2byte	0x1
 1785 0205 53       		.byte	0x53
 1786 0206 A8000000 		.4byte	.LVL26
 1787 020a AD000000 		.4byte	.LVL28-1
 1788 020e 0100     		.2byte	0x1
 1789 0210 53       		.byte	0x53
 1790 0211 C0000000 		.4byte	.LVL31
 1791 0215 C5000000 		.4byte	.LVL33-1
 1792 0219 0100     		.2byte	0x1
 1793 021b 53       		.byte	0x53
 1794 021c D8000000 		.4byte	.LVL36
 1795 0220 DD000000 		.4byte	.LVL38-1
 1796 0224 0100     		.2byte	0x1
 1797 0226 53       		.byte	0x53
 1798 0227 00000000 		.4byte	0x0
 1799 022b 00000000 		.4byte	0x0
 1800              	.LLST12:
 1801 022f E4000000 		.4byte	.LVL40
 1802 0233 F3000000 		.4byte	.LVL41-1
ARM GAS  C:\Users\DNIEL~1\AppData\Local\Temp\ccXtZ92a.s 			page 33


 1803 0237 0100     		.2byte	0x1
 1804 0239 53       		.byte	0x53
 1805 023a 58010000 		.4byte	.LVL57
 1806 023e 5A010000 		.4byte	.LVL58
 1807 0242 0100     		.2byte	0x1
 1808 0244 53       		.byte	0x53
 1809 0245 00000000 		.4byte	0x0
 1810 0249 00000000 		.4byte	0x0
 1811              	.LLST13:
 1812 024d FC000000 		.4byte	.LVL43
 1813 0251 02010000 		.4byte	.LVL44
 1814 0255 0100     		.2byte	0x1
 1815 0257 53       		.byte	0x53
 1816 0258 00000000 		.4byte	0x0
 1817 025c 00000000 		.4byte	0x0
 1818              	.LLST14:
 1819 0260 FC000000 		.4byte	.LVL43
 1820 0264 02010000 		.4byte	.LVL44
 1821 0268 0100     		.2byte	0x1
 1822 026a 53       		.byte	0x53
 1823 026b 08010000 		.4byte	.LVL45
 1824 026f 0A010000 		.4byte	.LVL46
 1825 0273 0100     		.2byte	0x1
 1826 0275 53       		.byte	0x53
 1827 0276 00000000 		.4byte	0x0
 1828 027a 00000000 		.4byte	0x0
 1829              	.LLST15:
 1830 027e FC000000 		.4byte	.LVL43
 1831 0282 02010000 		.4byte	.LVL44
 1832 0286 0100     		.2byte	0x1
 1833 0288 53       		.byte	0x53
 1834 0289 10010000 		.4byte	.LVL47
 1835 028d 12010000 		.4byte	.LVL48
 1836 0291 0100     		.2byte	0x1
 1837 0293 53       		.byte	0x53
 1838 0294 00000000 		.4byte	0x0
 1839 0298 00000000 		.4byte	0x0
 1840              	.LLST16:
 1841 029c 22010000 		.4byte	.LVL51
 1842 02a0 29010000 		.4byte	.LVL52-1
 1843 02a4 0100     		.2byte	0x1
 1844 02a6 53       		.byte	0x53
 1845 02a7 00000000 		.4byte	0x0
 1846 02ab 00000000 		.4byte	0x0
 1847              	.LLST17:
 1848 02af 36010000 		.4byte	.LVL54
 1849 02b3 3D010000 		.4byte	.LVL55-1
 1850 02b7 0100     		.2byte	0x1
 1851 02b9 53       		.byte	0x53
 1852 02ba 00000000 		.4byte	0x0
 1853 02be 00000000 		.4byte	0x0
 1854              	.LLST18:
 1855 02c2 FC000000 		.4byte	.LVL43
 1856 02c6 02010000 		.4byte	.LVL44
 1857 02ca 0100     		.2byte	0x1
 1858 02cc 53       		.byte	0x53
 1859 02cd 56010000 		.4byte	.LVL56
ARM GAS  C:\Users\DNIEL~1\AppData\Local\Temp\ccXtZ92a.s 			page 34


 1860 02d1 58010000 		.4byte	.LVL57
 1861 02d5 0100     		.2byte	0x1
 1862 02d7 53       		.byte	0x53
 1863 02d8 00000000 		.4byte	0x0
 1864 02dc 00000000 		.4byte	0x0
 1865              	.LLST19:
 1866 02e0 68010000 		.4byte	.LVL60
 1867 02e4 75010000 		.4byte	.LVL61-1
 1868 02e8 0100     		.2byte	0x1
 1869 02ea 53       		.byte	0x53
 1870 02eb 00000000 		.4byte	0x0
 1871 02ef 00000000 		.4byte	0x0
 1872              	.LLST20:
 1873 02f3 94010000 		.4byte	.LVL65
 1874 02f7 A3010000 		.4byte	.LVL66-1
 1875 02fb 0100     		.2byte	0x1
 1876 02fd 53       		.byte	0x53
 1877 02fe 00000000 		.4byte	0x0
 1878 0302 00000000 		.4byte	0x0
 1879              	.LLST21:
 1880 0306 FC000000 		.4byte	.LVL43
 1881 030a 02010000 		.4byte	.LVL44
 1882 030e 0100     		.2byte	0x1
 1883 0310 53       		.byte	0x53
 1884 0311 AE010000 		.4byte	.LVL67
 1885 0315 B0010000 		.4byte	.LVL68
 1886 0319 0100     		.2byte	0x1
 1887 031b 53       		.byte	0x53
 1888 031c 00000000 		.4byte	0x0
 1889 0320 00000000 		.4byte	0x0
 1890              	.LLST22:
 1891 0324 B6010000 		.4byte	.LVL70
 1892 0328 B8010000 		.4byte	.LVL71
 1893 032c 0100     		.2byte	0x1
 1894 032e 53       		.byte	0x53
 1895 032f 00000000 		.4byte	0x0
 1896 0333 00000000 		.4byte	0x0
 1897              	.LLST23:
 1898 0337 D6010000 		.4byte	.LVL73
 1899 033b DC010000 		.4byte	.LVL74
 1900 033f 0100     		.2byte	0x1
 1901 0341 53       		.byte	0x53
 1902 0342 00000000 		.4byte	0x0
 1903 0346 00000000 		.4byte	0x0
 1904              	.LLST24:
 1905 034a FC000000 		.4byte	.LVL43
 1906 034e 02010000 		.4byte	.LVL44
 1907 0352 0100     		.2byte	0x1
 1908 0354 53       		.byte	0x53
 1909 0355 FA010000 		.4byte	.LVL75
 1910 0359 FC010000 		.4byte	.LVL76
 1911 035d 0100     		.2byte	0x1
 1912 035f 53       		.byte	0x53
 1913 0360 00000000 		.4byte	0x0
 1914 0364 00000000 		.4byte	0x0
 1915              	.LLST25:
 1916 0368 02020000 		.4byte	.LVL78
ARM GAS  C:\Users\DNIEL~1\AppData\Local\Temp\ccXtZ92a.s 			page 35


 1917 036c 05020000 		.4byte	.LVL79-1
 1918 0370 0100     		.2byte	0x1
 1919 0372 53       		.byte	0x53
 1920 0373 00000000 		.4byte	0x0
 1921 0377 00000000 		.4byte	0x0
 1922              	.LLST26:
 1923 037b 0C020000 		.4byte	.LVL81
 1924 037f 11020000 		.4byte	.LVL82-1
 1925 0383 0100     		.2byte	0x1
 1926 0385 53       		.byte	0x53
 1927 0386 00000000 		.4byte	0x0
 1928 038a 00000000 		.4byte	0x0
 1929              	.LLST27:
 1930 038e 18020000 		.4byte	.LVL84
 1931 0392 1A020000 		.4byte	.LVL85
 1932 0396 0100     		.2byte	0x1
 1933 0398 53       		.byte	0x53
 1934 0399 00000000 		.4byte	0x0
 1935 039d 00000000 		.4byte	0x0
 1936              	.LLST28:
 1937 03a1 1E020000 		.4byte	.LVL86
 1938 03a5 24020000 		.4byte	.LVL87
 1939 03a9 0100     		.2byte	0x1
 1940 03ab 53       		.byte	0x53
 1941 03ac 00000000 		.4byte	0x0
 1942 03b0 00000000 		.4byte	0x0
 1943              	.LLST29:
 1944 03b4 FC000000 		.4byte	.LVL43
 1945 03b8 02010000 		.4byte	.LVL44
 1946 03bc 0100     		.2byte	0x1
 1947 03be 53       		.byte	0x53
 1948 03bf 42020000 		.4byte	.LVL88
 1949 03c3 44020000 		.4byte	.LVL89
 1950 03c7 0100     		.2byte	0x1
 1951 03c9 53       		.byte	0x53
 1952 03ca 00000000 		.4byte	0x0
 1953 03ce 00000000 		.4byte	0x0
 1954              	.LLST30:
 1955 03d2 48020000 		.4byte	.LVL90
 1956 03d6 51020000 		.4byte	.LVL91-1
 1957 03da 0100     		.2byte	0x1
 1958 03dc 53       		.byte	0x53
 1959 03dd 00000000 		.4byte	0x0
 1960 03e1 00000000 		.4byte	0x0
 1961              	.LLST31:
 1962 03e5 92020000 		.4byte	.LVL98
 1963 03e9 A1020000 		.4byte	.LVL99-1
 1964 03ed 0100     		.2byte	0x1
 1965 03ef 53       		.byte	0x53
 1966 03f0 00000000 		.4byte	0x0
 1967 03f4 00000000 		.4byte	0x0
 1968              	.LLST32:
 1969 03f8 FC000000 		.4byte	.LVL43
 1970 03fc 02010000 		.4byte	.LVL44
 1971 0400 0100     		.2byte	0x1
 1972 0402 53       		.byte	0x53
 1973 0403 AA020000 		.4byte	.LVL100
ARM GAS  C:\Users\DNIEL~1\AppData\Local\Temp\ccXtZ92a.s 			page 36


 1974 0407 C4020000 		.4byte	.LVL101
 1975 040b 0100     		.2byte	0x1
 1976 040d 53       		.byte	0x53
 1977 040e 00000000 		.4byte	0x0
 1978 0412 00000000 		.4byte	0x0
 1979              	.LLST33:
 1980 0416 CA020000 		.4byte	.LVL103
 1981 041a D3020000 		.4byte	.LVL104-1
 1982 041e 0100     		.2byte	0x1
 1983 0420 53       		.byte	0x53
 1984 0421 00000000 		.4byte	0x0
 1985 0425 00000000 		.4byte	0x0
 1986              	.LLST34:
 1987 0429 00000000 		.4byte	.LFB11
 1988 042d 02000000 		.4byte	.LCFI3
 1989 0431 0200     		.2byte	0x2
 1990 0433 7D       		.byte	0x7d
 1991 0434 00       		.sleb128 0
 1992 0435 02000000 		.4byte	.LCFI3
 1993 0439 0C000000 		.4byte	.LCFI4
 1994 043d 0200     		.2byte	0x2
 1995 043f 7D       		.byte	0x7d
 1996 0440 08       		.sleb128 8
 1997 0441 0C000000 		.4byte	.LCFI4
 1998 0445 28000000 		.4byte	.LFE11
 1999 0449 0200     		.2byte	0x2
 2000 044b 7D       		.byte	0x7d
 2001 044c 10       		.sleb128 16
 2002 044d 00000000 		.4byte	0x0
 2003 0451 00000000 		.4byte	0x0
 2004              	.LLST35:
 2005 0455 00000000 		.4byte	.LFB9
 2006 0459 02000000 		.4byte	.LCFI5
 2007 045d 0200     		.2byte	0x2
 2008 045f 7D       		.byte	0x7d
 2009 0460 00       		.sleb128 0
 2010 0461 02000000 		.4byte	.LCFI5
 2011 0465 14000000 		.4byte	.LFE9
 2012 0469 0200     		.2byte	0x2
 2013 046b 7D       		.byte	0x7d
 2014 046c 08       		.sleb128 8
 2015 046d 00000000 		.4byte	0x0
 2016 0471 00000000 		.4byte	0x0
 2017              	.LLST36:
 2018 0475 00000000 		.4byte	.LVL105
 2019 0479 06000000 		.4byte	.LVL106
 2020 047d 0100     		.2byte	0x1
 2021 047f 50       		.byte	0x50
 2022 0480 00000000 		.4byte	0x0
 2023 0484 00000000 		.4byte	0x0
 2024              	.LLST37:
 2025 0488 00000000 		.4byte	.LFB10
 2026 048c 04000000 		.4byte	.LCFI6
 2027 0490 0200     		.2byte	0x2
 2028 0492 7D       		.byte	0x7d
 2029 0493 00       		.sleb128 0
 2030 0494 04000000 		.4byte	.LCFI6
ARM GAS  C:\Users\DNIEL~1\AppData\Local\Temp\ccXtZ92a.s 			page 37


 2031 0498 08000000 		.4byte	.LCFI7
 2032 049c 0200     		.2byte	0x2
 2033 049e 7D       		.byte	0x7d
 2034 049f 1C       		.sleb128 28
 2035 04a0 08000000 		.4byte	.LCFI7
 2036 04a4 18030000 		.4byte	.LFE10
 2037 04a8 0200     		.2byte	0x2
 2038 04aa 7D       		.byte	0x7d
 2039 04ab 28       		.sleb128 40
 2040 04ac 00000000 		.4byte	0x0
 2041 04b0 00000000 		.4byte	0x0
 2042              	.LLST38:
 2043 04b4 30000000 		.4byte	.LVL113
 2044 04b8 38000000 		.4byte	.LVL114
 2045 04bc 0200     		.2byte	0x2
 2046 04be 30       		.byte	0x30
 2047 04bf 9F       		.byte	0x9f
 2048 04c0 38000000 		.4byte	.LVL114
 2049 04c4 40000000 		.4byte	.LVL115
 2050 04c8 0200     		.2byte	0x2
 2051 04ca 31       		.byte	0x31
 2052 04cb 9F       		.byte	0x9f
 2053 04cc 40000000 		.4byte	.LVL115
 2054 04d0 48000000 		.4byte	.LVL116
 2055 04d4 0200     		.2byte	0x2
 2056 04d6 32       		.byte	0x32
 2057 04d7 9F       		.byte	0x9f
 2058 04d8 48000000 		.4byte	.LVL116
 2059 04dc 50000000 		.4byte	.LVL117
 2060 04e0 0200     		.2byte	0x2
 2061 04e2 33       		.byte	0x33
 2062 04e3 9F       		.byte	0x9f
 2063 04e4 50000000 		.4byte	.LVL117
 2064 04e8 76000000 		.4byte	.LVL124
 2065 04ec 0200     		.2byte	0x2
 2066 04ee 34       		.byte	0x34
 2067 04ef 9F       		.byte	0x9f
 2068 04f0 7C000000 		.4byte	.LVL125
 2069 04f4 AE000000 		.4byte	.LVL132
 2070 04f8 0200     		.2byte	0x2
 2071 04fa 34       		.byte	0x34
 2072 04fb 9F       		.byte	0x9f
 2073 04fc AE000000 		.4byte	.LVL132
 2074 0500 BE000000 		.4byte	.LVL134
 2075 0504 0200     		.2byte	0x2
 2076 0506 30       		.byte	0x30
 2077 0507 9F       		.byte	0x9f
 2078 0508 BE000000 		.4byte	.LVL134
 2079 050c CE000000 		.4byte	.LVL135
 2080 0510 0200     		.2byte	0x2
 2081 0512 31       		.byte	0x31
 2082 0513 9F       		.byte	0x9f
 2083 0514 CE000000 		.4byte	.LVL135
 2084 0518 DE000000 		.4byte	.LVL136
 2085 051c 0200     		.2byte	0x2
 2086 051e 32       		.byte	0x32
 2087 051f 9F       		.byte	0x9f
ARM GAS  C:\Users\DNIEL~1\AppData\Local\Temp\ccXtZ92a.s 			page 38


 2088 0520 DE000000 		.4byte	.LVL136
 2089 0524 EE000000 		.4byte	.LVL137
 2090 0528 0200     		.2byte	0x2
 2091 052a 33       		.byte	0x33
 2092 052b 9F       		.byte	0x9f
 2093 052c EE000000 		.4byte	.LVL137
 2094 0530 0E010000 		.4byte	.LVL142
 2095 0534 0200     		.2byte	0x2
 2096 0536 34       		.byte	0x34
 2097 0537 9F       		.byte	0x9f
 2098 0538 16010000 		.4byte	.LVL144
 2099 053c 42010000 		.4byte	.LVL151
 2100 0540 0200     		.2byte	0x2
 2101 0542 34       		.byte	0x34
 2102 0543 9F       		.byte	0x9f
 2103 0544 42010000 		.4byte	.LVL151
 2104 0548 4A010000 		.4byte	.LVL152
 2105 054c 0200     		.2byte	0x2
 2106 054e 30       		.byte	0x30
 2107 054f 9F       		.byte	0x9f
 2108 0550 4A010000 		.4byte	.LVL152
 2109 0554 52010000 		.4byte	.LVL153
 2110 0558 0200     		.2byte	0x2
 2111 055a 31       		.byte	0x31
 2112 055b 9F       		.byte	0x9f
 2113 055c 52010000 		.4byte	.LVL153
 2114 0560 5A010000 		.4byte	.LVL154
 2115 0564 0200     		.2byte	0x2
 2116 0566 32       		.byte	0x32
 2117 0567 9F       		.byte	0x9f
 2118 0568 5A010000 		.4byte	.LVL154
 2119 056c 62010000 		.4byte	.LVL155
 2120 0570 0200     		.2byte	0x2
 2121 0572 33       		.byte	0x33
 2122 0573 9F       		.byte	0x9f
 2123 0574 62010000 		.4byte	.LVL155
 2124 0578 B8010000 		.4byte	.LVL167
 2125 057c 0200     		.2byte	0x2
 2126 057e 34       		.byte	0x34
 2127 057f 9F       		.byte	0x9f
 2128 0580 B8010000 		.4byte	.LVL167
 2129 0584 C0010000 		.4byte	.LVL168
 2130 0588 0200     		.2byte	0x2
 2131 058a 30       		.byte	0x30
 2132 058b 9F       		.byte	0x9f
 2133 058c C0010000 		.4byte	.LVL168
 2134 0590 C8010000 		.4byte	.LVL169
 2135 0594 0200     		.2byte	0x2
 2136 0596 31       		.byte	0x31
 2137 0597 9F       		.byte	0x9f
 2138 0598 C8010000 		.4byte	.LVL169
 2139 059c D0010000 		.4byte	.LVL170
 2140 05a0 0200     		.2byte	0x2
 2141 05a2 32       		.byte	0x32
 2142 05a3 9F       		.byte	0x9f
 2143 05a4 D0010000 		.4byte	.LVL170
 2144 05a8 D8010000 		.4byte	.LVL171
ARM GAS  C:\Users\DNIEL~1\AppData\Local\Temp\ccXtZ92a.s 			page 39


 2145 05ac 0200     		.2byte	0x2
 2146 05ae 33       		.byte	0x33
 2147 05af 9F       		.byte	0x9f
 2148 05b0 D8010000 		.4byte	.LVL171
 2149 05b4 18030000 		.4byte	.LFE10
 2150 05b8 0200     		.2byte	0x2
 2151 05ba 34       		.byte	0x34
 2152 05bb 9F       		.byte	0x9f
 2153 05bc 00000000 		.4byte	0x0
 2154 05c0 00000000 		.4byte	0x0
 2155              	.LLST39:
 2156 05c4 76010000 		.4byte	.LVL158
 2157 05c8 84010000 		.4byte	.LVL159
 2158 05cc 0100     		.2byte	0x1
 2159 05ce 50       		.byte	0x50
 2160 05cf 84010000 		.4byte	.LVL159
 2161 05d3 87010000 		.4byte	.LVL160-1
 2162 05d7 0300     		.2byte	0x3
 2163 05d9 7C       		.byte	0x7c
 2164 05da 04       		.sleb128 4
 2165 05db 9F       		.byte	0x9f
 2166 05dc E8010000 		.4byte	.LVL174
 2167 05e0 F6010000 		.4byte	.LVL175
 2168 05e4 0100     		.2byte	0x1
 2169 05e6 50       		.byte	0x50
 2170 05e7 F6010000 		.4byte	.LVL175
 2171 05eb F9010000 		.4byte	.LVL176-1
 2172 05ef 0300     		.2byte	0x3
 2173 05f1 7E       		.byte	0x7e
 2174 05f2 02       		.sleb128 2
 2175 05f3 9F       		.byte	0x9f
 2176 05f4 0C020000 		.4byte	.LVL177
 2177 05f8 10020000 		.4byte	.LVL178
 2178 05fc 0100     		.2byte	0x1
 2179 05fe 50       		.byte	0x50
 2180 05ff 10020000 		.4byte	.LVL178
 2181 0603 18020000 		.4byte	.LVL179
 2182 0607 0300     		.2byte	0x3
 2183 0609 70       		.byte	0x70
 2184 060a 02       		.sleb128 2
 2185 060b 9F       		.byte	0x9f
 2186 060c 00000000 		.4byte	0x0
 2187 0610 00000000 		.4byte	0x0
 2188              	.LLST40:
 2189 0614 0C000000 		.4byte	.LVL108
 2190 0618 1D000000 		.4byte	.LVL109-1
 2191 061c 0100     		.2byte	0x1
 2192 061e 53       		.byte	0x53
 2193 061f 00000000 		.4byte	0x0
 2194 0623 00000000 		.4byte	0x0
 2195              	.LLST41:
 2196 0627 2A000000 		.4byte	.LVL111
 2197 062b 2C000000 		.4byte	.LVL112
 2198 062f 0100     		.2byte	0x1
 2199 0631 53       		.byte	0x53
 2200 0632 00000000 		.4byte	0x0
 2201 0636 00000000 		.4byte	0x0
ARM GAS  C:\Users\DNIEL~1\AppData\Local\Temp\ccXtZ92a.s 			page 40


 2202              	.LLST42:
 2203 063a 30000000 		.4byte	.LVL113
 2204 063e 37000000 		.4byte	.LVL114-1
 2205 0642 0100     		.2byte	0x1
 2206 0644 53       		.byte	0x53
 2207 0645 00000000 		.4byte	0x0
 2208 0649 00000000 		.4byte	0x0
 2209              	.LLST43:
 2210 064d 56000000 		.4byte	.LVL119
 2211 0651 58000000 		.4byte	.LVL120
 2212 0655 0100     		.2byte	0x1
 2213 0657 53       		.byte	0x53
 2214 0658 00000000 		.4byte	0x0
 2215 065c 00000000 		.4byte	0x0
 2216              	.LLST44:
 2217 0660 5C000000 		.4byte	.LVL121
 2218 0664 60000000 		.4byte	.LVL122
 2219 0668 0100     		.2byte	0x1
 2220 066a 53       		.byte	0x53
 2221 066b 00000000 		.4byte	0x0
 2222 066f 00000000 		.4byte	0x0
 2223              	.LLST45:
 2224 0673 76000000 		.4byte	.LVL124
 2225 0677 7C000000 		.4byte	.LVL125
 2226 067b 0100     		.2byte	0x1
 2227 067d 53       		.byte	0x53
 2228 067e 00000000 		.4byte	0x0
 2229 0682 00000000 		.4byte	0x0
 2230              	.LLST46:
 2231 0686 82000000 		.4byte	.LVL127
 2232 068a 84000000 		.4byte	.LVL128
 2233 068e 0100     		.2byte	0x1
 2234 0690 53       		.byte	0x53
 2235 0691 00000000 		.4byte	0x0
 2236 0695 00000000 		.4byte	0x0
 2237              	.LLST47:
 2238 0699 88000000 		.4byte	.LVL129
 2239 069d 91000000 		.4byte	.LVL130-1
 2240 06a1 0100     		.2byte	0x1
 2241 06a3 53       		.byte	0x53
 2242 06a4 00000000 		.4byte	0x0
 2243 06a8 00000000 		.4byte	0x0
 2244              	.LLST48:
 2245 06ac AE000000 		.4byte	.LVL132
 2246 06b0 B7000000 		.4byte	.LVL133-1
 2247 06b4 0100     		.2byte	0x1
 2248 06b6 53       		.byte	0x53
 2249 06b7 00000000 		.4byte	0x0
 2250 06bb 00000000 		.4byte	0x0
 2251              	.LLST49:
 2252 06bf F4000000 		.4byte	.LVL139
 2253 06c3 03010000 		.4byte	.LVL140-1
 2254 06c7 0100     		.2byte	0x1
 2255 06c9 53       		.byte	0x53
 2256 06ca 00000000 		.4byte	0x0
 2257 06ce 00000000 		.4byte	0x0
 2258              	.LLST50:
ARM GAS  C:\Users\DNIEL~1\AppData\Local\Temp\ccXtZ92a.s 			page 41


 2259 06d2 76000000 		.4byte	.LVL124
 2260 06d6 7C000000 		.4byte	.LVL125
 2261 06da 0100     		.2byte	0x1
 2262 06dc 53       		.byte	0x53
 2263 06dd 0C010000 		.4byte	.LVL141
 2264 06e1 0E010000 		.4byte	.LVL142
 2265 06e5 0100     		.2byte	0x1
 2266 06e7 53       		.byte	0x53
 2267 06e8 00000000 		.4byte	0x0
 2268 06ec 00000000 		.4byte	0x0
 2269              	.LLST51:
 2270 06f0 76000000 		.4byte	.LVL124
 2271 06f4 7C000000 		.4byte	.LVL125
 2272 06f8 0100     		.2byte	0x1
 2273 06fa 53       		.byte	0x53
 2274 06fb 14010000 		.4byte	.LVL143
 2275 06ff 16010000 		.4byte	.LVL144
 2276 0703 0100     		.2byte	0x1
 2277 0705 53       		.byte	0x53
 2278 0706 00000000 		.4byte	0x0
 2279 070a 00000000 		.4byte	0x0
 2280              	.LLST52:
 2281 070e 76000000 		.4byte	.LVL124
 2282 0712 7C000000 		.4byte	.LVL125
 2283 0716 0100     		.2byte	0x1
 2284 0718 53       		.byte	0x53
 2285 0719 1C010000 		.4byte	.LVL145
 2286 071d 1E010000 		.4byte	.LVL146
 2287 0721 0100     		.2byte	0x1
 2288 0723 53       		.byte	0x53
 2289 0724 00000000 		.4byte	0x0
 2290 0728 00000000 		.4byte	0x0
 2291              	.LLST53:
 2292 072c 2E010000 		.4byte	.LVL148
 2293 0730 35010000 		.4byte	.LVL149-1
 2294 0734 0100     		.2byte	0x1
 2295 0736 53       		.byte	0x53
 2296 0737 00000000 		.4byte	0x0
 2297 073b 00000000 		.4byte	0x0
 2298              	.LLST54:
 2299 073f 42010000 		.4byte	.LVL151
 2300 0743 49010000 		.4byte	.LVL152-1
 2301 0747 0100     		.2byte	0x1
 2302 0749 53       		.byte	0x53
 2303 074a 00000000 		.4byte	0x0
 2304 074e 00000000 		.4byte	0x0
 2305              	.LLST55:
 2306 0752 68010000 		.4byte	.LVL157
 2307 0756 75010000 		.4byte	.LVL158-1
 2308 075a 0100     		.2byte	0x1
 2309 075c 53       		.byte	0x53
 2310 075d 00000000 		.4byte	0x0
 2311 0761 00000000 		.4byte	0x0
 2312              	.LLST56:
 2313 0765 96010000 		.4byte	.LVL162
 2314 0769 A5010000 		.4byte	.LVL163-1
 2315 076d 0100     		.2byte	0x1
ARM GAS  C:\Users\DNIEL~1\AppData\Local\Temp\ccXtZ92a.s 			page 42


 2316 076f 53       		.byte	0x53
 2317 0770 00000000 		.4byte	0x0
 2318 0774 00000000 		.4byte	0x0
 2319              	.LLST57:
 2320 0778 B2010000 		.4byte	.LVL165
 2321 077c B4010000 		.4byte	.LVL166
 2322 0780 0100     		.2byte	0x1
 2323 0782 53       		.byte	0x53
 2324 0783 00000000 		.4byte	0x0
 2325 0787 00000000 		.4byte	0x0
 2326              	.LLST58:
 2327 078b B8010000 		.4byte	.LVL167
 2328 078f BF010000 		.4byte	.LVL168-1
 2329 0793 0100     		.2byte	0x1
 2330 0795 53       		.byte	0x53
 2331 0796 00000000 		.4byte	0x0
 2332 079a 00000000 		.4byte	0x0
 2333              	.LLST59:
 2334 079e DE010000 		.4byte	.LVL173
 2335 07a2 E7010000 		.4byte	.LVL174-1
 2336 07a6 0100     		.2byte	0x1
 2337 07a8 53       		.byte	0x53
 2338 07a9 00000000 		.4byte	0x0
 2339 07ad 00000000 		.4byte	0x0
 2340              	.LLST60:
 2341 07b1 2A020000 		.4byte	.LVL181
 2342 07b5 39020000 		.4byte	.LVL182-1
 2343 07b9 0100     		.2byte	0x1
 2344 07bb 53       		.byte	0x53
 2345 07bc 00000000 		.4byte	0x0
 2346 07c0 00000000 		.4byte	0x0
 2347              	.LLST61:
 2348 07c4 76000000 		.4byte	.LVL124
 2349 07c8 7C000000 		.4byte	.LVL125
 2350 07cc 0100     		.2byte	0x1
 2351 07ce 53       		.byte	0x53
 2352 07cf 44020000 		.4byte	.LVL183
 2353 07d3 46020000 		.4byte	.LVL184
 2354 07d7 0100     		.2byte	0x1
 2355 07d9 53       		.byte	0x53
 2356 07da 00000000 		.4byte	0x0
 2357 07de 00000000 		.4byte	0x0
 2358              	.LLST62:
 2359 07e2 76000000 		.4byte	.LVL124
 2360 07e6 7C000000 		.4byte	.LVL125
 2361 07ea 0100     		.2byte	0x1
 2362 07ec 53       		.byte	0x53
 2363 07ed 4C020000 		.4byte	.LVL185
 2364 07f1 4E020000 		.4byte	.LVL186
 2365 07f5 0100     		.2byte	0x1
 2366 07f7 53       		.byte	0x53
 2367 07f8 00000000 		.4byte	0x0
 2368 07fc 00000000 		.4byte	0x0
 2369              	.LLST63:
 2370 0800 54020000 		.4byte	.LVL188
 2371 0804 56020000 		.4byte	.LVL189
 2372 0808 0100     		.2byte	0x1
ARM GAS  C:\Users\DNIEL~1\AppData\Local\Temp\ccXtZ92a.s 			page 43


 2373 080a 53       		.byte	0x53
 2374 080b 00000000 		.4byte	0x0
 2375 080f 00000000 		.4byte	0x0
 2376              	.LLST64:
 2377 0813 5A020000 		.4byte	.LVL190
 2378 0817 61020000 		.4byte	.LVL191-1
 2379 081b 0100     		.2byte	0x1
 2380 081d 53       		.byte	0x53
 2381 081e 00000000 		.4byte	0x0
 2382 0822 00000000 		.4byte	0x0
 2383              	.LLST65:
 2384 0826 6E020000 		.4byte	.LVL193
 2385 082a 70020000 		.4byte	.LVL194
 2386 082e 0100     		.2byte	0x1
 2387 0830 53       		.byte	0x53
 2388 0831 00000000 		.4byte	0x0
 2389 0835 00000000 		.4byte	0x0
 2390              	.LLST66:
 2391 0839 74020000 		.4byte	.LVL195
 2392 083d 83020000 		.4byte	.LVL196-1
 2393 0841 0100     		.2byte	0x1
 2394 0843 53       		.byte	0x53
 2395 0844 00000000 		.4byte	0x0
 2396 0848 00000000 		.4byte	0x0
 2397              	.LLST67:
 2398 084c 76000000 		.4byte	.LVL124
 2399 0850 7C000000 		.4byte	.LVL125
 2400 0854 0100     		.2byte	0x1
 2401 0856 53       		.byte	0x53
 2402 0857 8C020000 		.4byte	.LVL197
 2403 085b 8E020000 		.4byte	.LVL198
 2404 085f 0100     		.2byte	0x1
 2405 0861 53       		.byte	0x53
 2406 0862 00000000 		.4byte	0x0
 2407 0866 00000000 		.4byte	0x0
 2408              	.LLST68:
 2409 086a 94020000 		.4byte	.LVL200
 2410 086e A6020000 		.4byte	.LVL201
 2411 0872 0100     		.2byte	0x1
 2412 0874 53       		.byte	0x53
 2413 0875 00000000 		.4byte	0x0
 2414 0879 00000000 		.4byte	0x0
 2415              	.LLST69:
 2416 087d B6020000 		.4byte	.LVL203
 2417 0881 BA020000 		.4byte	.LVL204
 2418 0885 0100     		.2byte	0x1
 2419 0887 53       		.byte	0x53
 2420 0888 00000000 		.4byte	0x0
 2421 088c 00000000 		.4byte	0x0
 2422              	.LLST70:
 2423 0890 76000000 		.4byte	.LVL124
 2424 0894 7C000000 		.4byte	.LVL125
 2425 0898 0100     		.2byte	0x1
 2426 089a 53       		.byte	0x53
 2427 089b D2020000 		.4byte	.LVL205
 2428 089f EC020000 		.4byte	.LVL206
 2429 08a3 0100     		.2byte	0x1
ARM GAS  C:\Users\DNIEL~1\AppData\Local\Temp\ccXtZ92a.s 			page 44


 2430 08a5 53       		.byte	0x53
 2431 08a6 00000000 		.4byte	0x0
 2432 08aa 00000000 		.4byte	0x0
 2433              	.LLST71:
 2434 08ae F0020000 		.4byte	.LVL207
 2435 08b2 F3020000 		.4byte	.LVL208-1
 2436 08b6 0100     		.2byte	0x1
 2437 08b8 53       		.byte	0x53
 2438 08b9 00000000 		.4byte	0x0
 2439 08bd 00000000 		.4byte	0x0
 2440              	.LLST72:
 2441 08c1 00000000 		.4byte	.LFB8
 2442 08c5 02000000 		.4byte	.LCFI8
 2443 08c9 0200     		.2byte	0x2
 2444 08cb 7D       		.byte	0x7d
 2445 08cc 00       		.sleb128 0
 2446 08cd 02000000 		.4byte	.LCFI8
 2447 08d1 0C000000 		.4byte	.LCFI9
 2448 08d5 0200     		.2byte	0x2
 2449 08d7 7D       		.byte	0x7d
 2450 08d8 08       		.sleb128 8
 2451 08d9 0C000000 		.4byte	.LCFI9
 2452 08dd 28000000 		.4byte	.LFE8
 2453 08e1 0200     		.2byte	0x2
 2454 08e3 7D       		.byte	0x7d
 2455 08e4 10       		.sleb128 16
 2456 08e5 00000000 		.4byte	0x0
 2457 08e9 00000000 		.4byte	0x0
 2458              		.file 2 "c:\\program files (x86)\\codesourcery\\sourcery g++ lite\\bin\\../lib/gcc/arm-none-eabi/4
 2459              		.file 3 "c:\\program files (x86)\\codesourcery\\sourcery g++ lite\\bin\\../lib/gcc/arm-none-eabi/4
 2460              		.file 4 "../../../ChibiOS/os/ports/GCC/ARMCMx/chtypes.h"
 2461              		.file 5 "../../../ChibiOS/os/kernel/include/chlists.h"
 2462              		.file 6 "../../../ChibiOS/os/kernel/include/chthreads.h"
 2463              		.file 7 "../../../ChibiOS/os/ports/GCC/ARMCMx/chcore_v7m.h"
 2464              		.file 8 "../../../ChibiOS/os/kernel/include/chschd.h"
 2465              		.file 9 "../../../ChibiOS/os/kernel/include/chmtx.h"
 2466              		.file 10 "../../../ChibiOS/os/kernel/include/chqueues.h"
 2467              		.file 11 "../../../ChibiOS/test/test.h"
 2468              		.section	.debug_info
 2469 0000 EB0E0000 		.4byte	0xeeb
 2470 0004 0200     		.2byte	0x2
 2471 0006 00000000 		.4byte	.Ldebug_abbrev0
 2472 000a 04       		.byte	0x4
 2473 000b 01       		.uleb128 0x1
 2474 000c C0030000 		.4byte	.LASF97
 2475 0010 01       		.byte	0x1
 2476 0011 F4020000 		.4byte	.LASF98
 2477 0015 AC000000 		.4byte	.LASF99
 2478 0019 00000000 		.4byte	0x0
 2479 001d 00000000 		.4byte	0x0
 2480 0021 B0000000 		.4byte	.Ldebug_ranges0+0xb0
 2481 0025 00000000 		.4byte	.Ldebug_line0
 2482 0029 02       		.uleb128 0x2
 2483 002a 04       		.byte	0x4
 2484 002b 05       		.byte	0x5
 2485 002c 696E7400 		.ascii	"int\000"
 2486 0030 03       		.uleb128 0x3
ARM GAS  C:\Users\DNIEL~1\AppData\Local\Temp\ccXtZ92a.s 			page 45


 2487 0031 06000000 		.4byte	.LASF2
 2488 0035 02       		.byte	0x2
 2489 0036 D3       		.byte	0xd3
 2490 0037 3B000000 		.4byte	0x3b
 2491 003b 04       		.uleb128 0x4
 2492 003c 04       		.byte	0x4
 2493 003d 07       		.byte	0x7
 2494 003e 1B010000 		.4byte	.LASF0
 2495 0042 04       		.uleb128 0x4
 2496 0043 01       		.byte	0x1
 2497 0044 06       		.byte	0x6
 2498 0045 89000000 		.4byte	.LASF1
 2499 0049 03       		.uleb128 0x3
 2500 004a B1030000 		.4byte	.LASF3
 2501 004e 03       		.byte	0x3
 2502 004f 2A       		.byte	0x2a
 2503 0050 54000000 		.4byte	0x54
 2504 0054 04       		.uleb128 0x4
 2505 0055 01       		.byte	0x1
 2506 0056 08       		.byte	0x8
 2507 0057 8B020000 		.4byte	.LASF4
 2508 005b 04       		.uleb128 0x4
 2509 005c 02       		.byte	0x2
 2510 005d 05       		.byte	0x5
 2511 005e A3020000 		.4byte	.LASF5
 2512 0062 04       		.uleb128 0x4
 2513 0063 02       		.byte	0x2
 2514 0064 07       		.byte	0x7
 2515 0065 50010000 		.4byte	.LASF6
 2516 0069 03       		.uleb128 0x3
 2517 006a 83020000 		.4byte	.LASF7
 2518 006e 03       		.byte	0x3
 2519 006f 4F       		.byte	0x4f
 2520 0070 74000000 		.4byte	0x74
 2521 0074 04       		.uleb128 0x4
 2522 0075 04       		.byte	0x4
 2523 0076 05       		.byte	0x5
 2524 0077 DF000000 		.4byte	.LASF8
 2525 007b 03       		.uleb128 0x3
 2526 007c 22030000 		.4byte	.LASF9
 2527 0080 03       		.byte	0x3
 2528 0081 50       		.byte	0x50
 2529 0082 86000000 		.4byte	0x86
 2530 0086 04       		.uleb128 0x4
 2531 0087 04       		.byte	0x4
 2532 0088 07       		.byte	0x7
 2533 0089 28010000 		.4byte	.LASF10
 2534 008d 04       		.uleb128 0x4
 2535 008e 08       		.byte	0x8
 2536 008f 05       		.byte	0x5
 2537 0090 7B000000 		.4byte	.LASF11
 2538 0094 03       		.uleb128 0x3
 2539 0095 14000000 		.4byte	.LASF12
 2540 0099 03       		.byte	0x3
 2541 009a 78       		.byte	0x78
 2542 009b 9F000000 		.4byte	0x9f
 2543 009f 04       		.uleb128 0x4
ARM GAS  C:\Users\DNIEL~1\AppData\Local\Temp\ccXtZ92a.s 			page 46


 2544 00a0 08       		.byte	0x8
 2545 00a1 07       		.byte	0x7
 2546 00a2 37000000 		.4byte	.LASF13
 2547 00a6 03       		.uleb128 0x3
 2548 00a7 9D000000 		.4byte	.LASF14
 2549 00ab 04       		.byte	0x4
 2550 00ac 2B       		.byte	0x2b
 2551 00ad B1000000 		.4byte	0xb1
 2552 00b1 04       		.uleb128 0x4
 2553 00b2 01       		.byte	0x1
 2554 00b3 02       		.byte	0x2
 2555 00b4 7D020000 		.4byte	.LASF15
 2556 00b8 03       		.uleb128 0x3
 2557 00b9 85010000 		.4byte	.LASF16
 2558 00bd 04       		.byte	0x4
 2559 00be 2C       		.byte	0x2c
 2560 00bf 49000000 		.4byte	0x49
 2561 00c3 03       		.uleb128 0x3
 2562 00c4 E8000000 		.4byte	.LASF17
 2563 00c8 04       		.byte	0x4
 2564 00c9 2D       		.byte	0x2d
 2565 00ca 49000000 		.4byte	0x49
 2566 00ce 03       		.uleb128 0x3
 2567 00cf 4C020000 		.4byte	.LASF18
 2568 00d3 04       		.byte	0x4
 2569 00d4 2E       		.byte	0x2e
 2570 00d5 49000000 		.4byte	0x49
 2571 00d9 03       		.uleb128 0x3
 2572 00da 33030000 		.4byte	.LASF19
 2573 00de 04       		.byte	0x4
 2574 00df 2F       		.byte	0x2f
 2575 00e0 49000000 		.4byte	0x49
 2576 00e4 03       		.uleb128 0x3
 2577 00e5 6D020000 		.4byte	.LASF20
 2578 00e9 04       		.byte	0x4
 2579 00ea 30       		.byte	0x30
 2580 00eb 7B000000 		.4byte	0x7b
 2581 00ef 03       		.uleb128 0x3
 2582 00f0 7F010000 		.4byte	.LASF21
 2583 00f4 04       		.byte	0x4
 2584 00f5 31       		.byte	0x31
 2585 00f6 69000000 		.4byte	0x69
 2586 00fa 03       		.uleb128 0x3
 2587 00fb 99010000 		.4byte	.LASF22
 2588 00ff 04       		.byte	0x4
 2589 0100 33       		.byte	0x33
 2590 0101 7B000000 		.4byte	0x7b
 2591 0105 03       		.uleb128 0x3
 2592 0106 56030000 		.4byte	.LASF23
 2593 010a 04       		.byte	0x4
 2594 010b 35       		.byte	0x35
 2595 010c 7B000000 		.4byte	0x7b
 2596 0110 03       		.uleb128 0x3
 2597 0111 E4020000 		.4byte	.LASF24
 2598 0115 05       		.byte	0x5
 2599 0116 2A       		.byte	0x2a
 2600 0117 1B010000 		.4byte	0x11b
ARM GAS  C:\Users\DNIEL~1\AppData\Local\Temp\ccXtZ92a.s 			page 47


 2601 011b 05       		.uleb128 0x5
 2602 011c E4020000 		.4byte	.LASF24
 2603 0120 48       		.byte	0x48
 2604 0121 06       		.byte	0x6
 2605 0122 5E       		.byte	0x5e
 2606 0123 40020000 		.4byte	0x240
 2607 0127 06       		.uleb128 0x6
 2608 0128 D5020000 		.4byte	.LASF25
 2609 012c 06       		.byte	0x6
 2610 012d 5F       		.byte	0x5f
 2611 012e 65020000 		.4byte	0x265
 2612 0132 02       		.byte	0x2
 2613 0133 23       		.byte	0x23
 2614 0134 00       		.uleb128 0x0
 2615 0135 06       		.uleb128 0x6
 2616 0136 5E020000 		.4byte	.LASF26
 2617 013a 06       		.byte	0x6
 2618 013b 61       		.byte	0x61
 2619 013c 65020000 		.4byte	0x265
 2620 0140 02       		.byte	0x2
 2621 0141 23       		.byte	0x23
 2622 0142 04       		.uleb128 0x4
 2623 0143 06       		.uleb128 0x6
 2624 0144 6A000000 		.4byte	.LASF27
 2625 0148 06       		.byte	0x6
 2626 0149 63       		.byte	0x63
 2627 014a E4000000 		.4byte	0xe4
 2628 014e 02       		.byte	0x2
 2629 014f 23       		.byte	0x23
 2630 0150 08       		.uleb128 0x8
 2631 0151 06       		.uleb128 0x6
 2632 0152 E2030000 		.4byte	.LASF28
 2633 0156 06       		.byte	0x6
 2634 0157 64       		.byte	0x64
 2635 0158 3E030000 		.4byte	0x33e
 2636 015c 02       		.byte	0x2
 2637 015d 23       		.byte	0x23
 2638 015e 0C       		.uleb128 0xc
 2639 015f 06       		.uleb128 0x6
 2640 0160 02010000 		.4byte	.LASF29
 2641 0164 06       		.byte	0x6
 2642 0165 66       		.byte	0x66
 2643 0166 65020000 		.4byte	0x265
 2644 016a 02       		.byte	0x2
 2645 016b 23       		.byte	0x23
 2646 016c 10       		.uleb128 0x10
 2647 016d 06       		.uleb128 0x6
 2648 016e FB010000 		.4byte	.LASF30
 2649 0172 06       		.byte	0x6
 2650 0173 67       		.byte	0x67
 2651 0174 65020000 		.4byte	0x265
 2652 0178 02       		.byte	0x2
 2653 0179 23       		.byte	0x23
 2654 017a 14       		.uleb128 0x14
 2655 017b 06       		.uleb128 0x6
 2656 017c CC030000 		.4byte	.LASF31
 2657 0180 06       		.byte	0x6
ARM GAS  C:\Users\DNIEL~1\AppData\Local\Temp\ccXtZ92a.s 			page 48


 2658 0181 6E       		.byte	0x6e
 2659 0182 4B040000 		.4byte	0x44b
 2660 0186 02       		.byte	0x2
 2661 0187 23       		.byte	0x23
 2662 0188 18       		.uleb128 0x18
 2663 0189 06       		.uleb128 0x6
 2664 018a AD020000 		.4byte	.LASF32
 2665 018e 06       		.byte	0x6
 2666 018f 79       		.byte	0x79
 2667 0190 C3000000 		.4byte	0xc3
 2668 0194 02       		.byte	0x2
 2669 0195 23       		.byte	0x23
 2670 0196 1C       		.uleb128 0x1c
 2671 0197 06       		.uleb128 0x6
 2672 0198 DC020000 		.4byte	.LASF33
 2673 019c 06       		.byte	0x6
 2674 019d 7D       		.byte	0x7d
 2675 019e B8000000 		.4byte	0xb8
 2676 01a2 02       		.byte	0x2
 2677 01a3 23       		.byte	0x23
 2678 01a4 1D       		.uleb128 0x1d
 2679 01a5 06       		.uleb128 0x6
 2680 01a6 91030000 		.4byte	.LASF34
 2681 01aa 06       		.byte	0x6
 2682 01ab 82       		.byte	0x82
 2683 01ac CE000000 		.4byte	0xce
 2684 01b0 02       		.byte	0x2
 2685 01b1 23       		.byte	0x23
 2686 01b2 1E       		.uleb128 0x1e
 2687 01b3 06       		.uleb128 0x6
 2688 01b4 B5020000 		.4byte	.LASF35
 2689 01b8 06       		.byte	0x6
 2690 01b9 88       		.byte	0x88
 2691 01ba D9000000 		.4byte	0xd9
 2692 01be 02       		.byte	0x2
 2693 01bf 23       		.byte	0x23
 2694 01c0 1F       		.uleb128 0x1f
 2695 01c1 06       		.uleb128 0x6
 2696 01c2 72030000 		.4byte	.LASF36
 2697 01c6 06       		.byte	0x6
 2698 01c7 8F       		.byte	0x8f
 2699 01c8 61030000 		.4byte	0x361
 2700 01cc 02       		.byte	0x2
 2701 01cd 23       		.byte	0x23
 2702 01ce 20       		.uleb128 0x20
 2703 01cf 07       		.uleb128 0x7
 2704 01d0 705F7500 		.ascii	"p_u\000"
 2705 01d4 06       		.byte	0x6
 2706 01d5 B4       		.byte	0xb4
 2707 01d6 16040000 		.4byte	0x416
 2708 01da 02       		.byte	0x2
 2709 01db 23       		.byte	0x23
 2710 01dc 24       		.uleb128 0x24
 2711 01dd 06       		.uleb128 0x6
 2712 01de E8030000 		.4byte	.LASF37
 2713 01e2 06       		.byte	0x6
 2714 01e3 B9       		.byte	0xb9
ARM GAS  C:\Users\DNIEL~1\AppData\Local\Temp\ccXtZ92a.s 			page 49


 2715 01e4 8D020000 		.4byte	0x28d
 2716 01e8 02       		.byte	0x2
 2717 01e9 23       		.byte	0x23
 2718 01ea 28       		.uleb128 0x28
 2719 01eb 06       		.uleb128 0x6
 2720 01ec 80030000 		.4byte	.LASF38
 2721 01f0 06       		.byte	0x6
 2722 01f1 BF       		.byte	0xbf
 2723 01f2 6B020000 		.4byte	0x26b
 2724 01f6 02       		.byte	0x2
 2725 01f7 23       		.byte	0x23
 2726 01f8 2C       		.uleb128 0x2c
 2727 01f9 06       		.uleb128 0x6
 2728 01fa 00000000 		.4byte	.LASF39
 2729 01fe 06       		.byte	0x6
 2730 01ff C3       		.byte	0xc3
 2731 0200 EF000000 		.4byte	0xef
 2732 0204 02       		.byte	0x2
 2733 0205 23       		.byte	0x23
 2734 0206 34       		.uleb128 0x34
 2735 0207 06       		.uleb128 0x6
 2736 0208 17030000 		.4byte	.LASF40
 2737 020c 06       		.byte	0x6
 2738 020d C9       		.byte	0xc9
 2739 020e FA000000 		.4byte	0xfa
 2740 0212 02       		.byte	0x2
 2741 0213 23       		.byte	0x23
 2742 0214 38       		.uleb128 0x38
 2743 0215 06       		.uleb128 0x6
 2744 0216 99020000 		.4byte	.LASF41
 2745 021a 06       		.byte	0x6
 2746 021b D0       		.byte	0xd0
 2747 021c 5D040000 		.4byte	0x45d
 2748 0220 02       		.byte	0x2
 2749 0221 23       		.byte	0x23
 2750 0222 3C       		.uleb128 0x3c
 2751 0223 06       		.uleb128 0x6
 2752 0224 60030000 		.4byte	.LASF42
 2753 0228 06       		.byte	0x6
 2754 0229 D4       		.byte	0xd4
 2755 022a E4000000 		.4byte	0xe4
 2756 022e 02       		.byte	0x2
 2757 022f 23       		.byte	0x23
 2758 0230 40       		.uleb128 0x40
 2759 0231 06       		.uleb128 0x6
 2760 0232 95000000 		.4byte	.LASF43
 2761 0236 06       		.byte	0x6
 2762 0237 DA       		.byte	0xda
 2763 0238 A3020000 		.4byte	0x2a3
 2764 023c 02       		.byte	0x2
 2765 023d 23       		.byte	0x23
 2766 023e 44       		.uleb128 0x44
 2767 023f 00       		.byte	0x0
 2768 0240 08       		.uleb128 0x8
 2769 0241 08       		.byte	0x8
 2770 0242 05       		.byte	0x5
 2771 0243 61       		.byte	0x61
ARM GAS  C:\Users\DNIEL~1\AppData\Local\Temp\ccXtZ92a.s 			page 50


 2772 0244 65020000 		.4byte	0x265
 2773 0248 06       		.uleb128 0x6
 2774 0249 D5020000 		.4byte	.LASF25
 2775 024d 05       		.byte	0x5
 2776 024e 62       		.byte	0x62
 2777 024f 65020000 		.4byte	0x265
 2778 0253 02       		.byte	0x2
 2779 0254 23       		.byte	0x23
 2780 0255 00       		.uleb128 0x0
 2781 0256 06       		.uleb128 0x6
 2782 0257 5E020000 		.4byte	.LASF26
 2783 025b 05       		.byte	0x5
 2784 025c 64       		.byte	0x64
 2785 025d 65020000 		.4byte	0x265
 2786 0261 02       		.byte	0x2
 2787 0262 23       		.byte	0x23
 2788 0263 04       		.uleb128 0x4
 2789 0264 00       		.byte	0x0
 2790 0265 09       		.uleb128 0x9
 2791 0266 04       		.byte	0x4
 2792 0267 10010000 		.4byte	0x110
 2793 026b 03       		.uleb128 0x3
 2794 026c 19020000 		.4byte	.LASF44
 2795 0270 05       		.byte	0x5
 2796 0271 66       		.byte	0x66
 2797 0272 40020000 		.4byte	0x240
 2798 0276 08       		.uleb128 0x8
 2799 0277 04       		.byte	0x4
 2800 0278 05       		.byte	0x5
 2801 0279 6B       		.byte	0x6b
 2802 027a 8D020000 		.4byte	0x28d
 2803 027e 06       		.uleb128 0x6
 2804 027f D5020000 		.4byte	.LASF25
 2805 0283 05       		.byte	0x5
 2806 0284 6D       		.byte	0x6d
 2807 0285 65020000 		.4byte	0x265
 2808 0289 02       		.byte	0x2
 2809 028a 23       		.byte	0x23
 2810 028b 00       		.uleb128 0x0
 2811 028c 00       		.byte	0x0
 2812 028d 03       		.uleb128 0x3
 2813 028e 8D010000 		.4byte	.LASF45
 2814 0292 05       		.byte	0x5
 2815 0293 70       		.byte	0x70
 2816 0294 76020000 		.4byte	0x276
 2817 0298 03       		.uleb128 0x3
 2818 0299 12010000 		.4byte	.LASF46
 2819 029d 07       		.byte	0x7
 2820 029e E5       		.byte	0xe5
 2821 029f A3020000 		.4byte	0x2a3
 2822 02a3 0A       		.uleb128 0xa
 2823 02a4 04       		.byte	0x4
 2824 02a5 03       		.uleb128 0x3
 2825 02a6 C3010000 		.4byte	.LASF47
 2826 02aa 07       		.byte	0x7
 2827 02ab EB       		.byte	0xeb
 2828 02ac 94000000 		.4byte	0x94
ARM GAS  C:\Users\DNIEL~1\AppData\Local\Temp\ccXtZ92a.s 			page 51


 2829 02b0 0B       		.uleb128 0xb
 2830 02b1 79030000 		.4byte	.LASF48
 2831 02b5 24       		.byte	0x24
 2832 02b6 07       		.byte	0x7
 2833 02b7 0C01     		.2byte	0x10c
 2834 02b9 3E030000 		.4byte	0x33e
 2835 02bd 0C       		.uleb128 0xc
 2836 02be 723400   		.ascii	"r4\000"
 2837 02c1 07       		.byte	0x7
 2838 02c2 1F01     		.2byte	0x11f
 2839 02c4 98020000 		.4byte	0x298
 2840 02c8 02       		.byte	0x2
 2841 02c9 23       		.byte	0x23
 2842 02ca 00       		.uleb128 0x0
 2843 02cb 0C       		.uleb128 0xc
 2844 02cc 723500   		.ascii	"r5\000"
 2845 02cf 07       		.byte	0x7
 2846 02d0 2001     		.2byte	0x120
 2847 02d2 98020000 		.4byte	0x298
 2848 02d6 02       		.byte	0x2
 2849 02d7 23       		.byte	0x23
 2850 02d8 04       		.uleb128 0x4
 2851 02d9 0C       		.uleb128 0xc
 2852 02da 723600   		.ascii	"r6\000"
 2853 02dd 07       		.byte	0x7
 2854 02de 2101     		.2byte	0x121
 2855 02e0 98020000 		.4byte	0x298
 2856 02e4 02       		.byte	0x2
 2857 02e5 23       		.byte	0x23
 2858 02e6 08       		.uleb128 0x8
 2859 02e7 0C       		.uleb128 0xc
 2860 02e8 723700   		.ascii	"r7\000"
 2861 02eb 07       		.byte	0x7
 2862 02ec 2201     		.2byte	0x122
 2863 02ee 98020000 		.4byte	0x298
 2864 02f2 02       		.byte	0x2
 2865 02f3 23       		.byte	0x23
 2866 02f4 0C       		.uleb128 0xc
 2867 02f5 0C       		.uleb128 0xc
 2868 02f6 723800   		.ascii	"r8\000"
 2869 02f9 07       		.byte	0x7
 2870 02fa 2301     		.2byte	0x123
 2871 02fc 98020000 		.4byte	0x298
 2872 0300 02       		.byte	0x2
 2873 0301 23       		.byte	0x23
 2874 0302 10       		.uleb128 0x10
 2875 0303 0C       		.uleb128 0xc
 2876 0304 723900   		.ascii	"r9\000"
 2877 0307 07       		.byte	0x7
 2878 0308 2401     		.2byte	0x124
 2879 030a 98020000 		.4byte	0x298
 2880 030e 02       		.byte	0x2
 2881 030f 23       		.byte	0x23
 2882 0310 14       		.uleb128 0x14
 2883 0311 0C       		.uleb128 0xc
 2884 0312 72313000 		.ascii	"r10\000"
 2885 0316 07       		.byte	0x7
ARM GAS  C:\Users\DNIEL~1\AppData\Local\Temp\ccXtZ92a.s 			page 52


 2886 0317 2501     		.2byte	0x125
 2887 0319 98020000 		.4byte	0x298
 2888 031d 02       		.byte	0x2
 2889 031e 23       		.byte	0x23
 2890 031f 18       		.uleb128 0x18
 2891 0320 0C       		.uleb128 0xc
 2892 0321 72313100 		.ascii	"r11\000"
 2893 0325 07       		.byte	0x7
 2894 0326 2601     		.2byte	0x126
 2895 0328 98020000 		.4byte	0x298
 2896 032c 02       		.byte	0x2
 2897 032d 23       		.byte	0x23
 2898 032e 1C       		.uleb128 0x1c
 2899 032f 0C       		.uleb128 0xc
 2900 0330 6C7200   		.ascii	"lr\000"
 2901 0333 07       		.byte	0x7
 2902 0334 2701     		.2byte	0x127
 2903 0336 98020000 		.4byte	0x298
 2904 033a 02       		.byte	0x2
 2905 033b 23       		.byte	0x23
 2906 033c 20       		.uleb128 0x20
 2907 033d 00       		.byte	0x0
 2908 033e 0B       		.uleb128 0xb
 2909 033f 48010000 		.4byte	.LASF49
 2910 0343 04       		.byte	0x4
 2911 0344 07       		.byte	0x7
 2912 0345 3101     		.2byte	0x131
 2913 0347 5B030000 		.4byte	0x35b
 2914 034b 0C       		.uleb128 0xc
 2915 034c 72313300 		.ascii	"r13\000"
 2916 0350 07       		.byte	0x7
 2917 0351 3201     		.2byte	0x132
 2918 0353 5B030000 		.4byte	0x35b
 2919 0357 02       		.byte	0x2
 2920 0358 23       		.byte	0x23
 2921 0359 00       		.uleb128 0x0
 2922 035a 00       		.byte	0x0
 2923 035b 09       		.uleb128 0x9
 2924 035c 04       		.byte	0x4
 2925 035d B0020000 		.4byte	0x2b0
 2926 0361 0D       		.uleb128 0xd
 2927 0362 05010000 		.4byte	0x105
 2928 0366 08       		.uleb128 0x8
 2929 0367 1C       		.byte	0x1c
 2930 0368 08       		.byte	0x8
 2931 0369 5E       		.byte	0x5e
 2932 036a C3030000 		.4byte	0x3c3
 2933 036e 06       		.uleb128 0x6
 2934 036f 2B030000 		.4byte	.LASF50
 2935 0373 08       		.byte	0x8
 2936 0374 5F       		.byte	0x5f
 2937 0375 6B020000 		.4byte	0x26b
 2938 0379 02       		.byte	0x2
 2939 037a 23       		.byte	0x23
 2940 037b 00       		.uleb128 0x0
 2941 037c 06       		.uleb128 0x6
 2942 037d C7020000 		.4byte	.LASF51
ARM GAS  C:\Users\DNIEL~1\AppData\Local\Temp\ccXtZ92a.s 			page 53


 2943 0381 08       		.byte	0x8
 2944 0382 60       		.byte	0x60
 2945 0383 E4000000 		.4byte	0xe4
 2946 0387 02       		.byte	0x2
 2947 0388 23       		.byte	0x23
 2948 0389 08       		.uleb128 0x8
 2949 038a 06       		.uleb128 0x6
 2950 038b 13020000 		.4byte	.LASF52
 2951 038f 08       		.byte	0x8
 2952 0390 62       		.byte	0x62
 2953 0391 3E030000 		.4byte	0x33e
 2954 0395 02       		.byte	0x2
 2955 0396 23       		.byte	0x23
 2956 0397 0C       		.uleb128 0xc
 2957 0398 06       		.uleb128 0x6
 2958 0399 0A010000 		.4byte	.LASF53
 2959 039d 08       		.byte	0x8
 2960 039e 65       		.byte	0x65
 2961 039f 65020000 		.4byte	0x265
 2962 03a3 02       		.byte	0x2
 2963 03a4 23       		.byte	0x23
 2964 03a5 10       		.uleb128 0x10
 2965 03a6 06       		.uleb128 0x6
 2966 03a7 36020000 		.4byte	.LASF54
 2967 03ab 08       		.byte	0x8
 2968 03ac 66       		.byte	0x66
 2969 03ad 65020000 		.4byte	0x265
 2970 03b1 02       		.byte	0x2
 2971 03b2 23       		.byte	0x23
 2972 03b3 14       		.uleb128 0x14
 2973 03b4 06       		.uleb128 0x6
 2974 03b5 2C020000 		.4byte	.LASF55
 2975 03b9 08       		.byte	0x8
 2976 03ba 69       		.byte	0x69
 2977 03bb 65020000 		.4byte	0x265
 2978 03bf 02       		.byte	0x2
 2979 03c0 23       		.byte	0x23
 2980 03c1 18       		.uleb128 0x18
 2981 03c2 00       		.byte	0x0
 2982 03c3 03       		.uleb128 0x3
 2983 03c4 98030000 		.4byte	.LASF56
 2984 03c8 08       		.byte	0x8
 2985 03c9 6B       		.byte	0x6b
 2986 03ca 66030000 		.4byte	0x366
 2987 03ce 05       		.uleb128 0x5
 2988 03cf B0010000 		.4byte	.LASF57
 2989 03d3 10       		.byte	0x10
 2990 03d4 09       		.byte	0x9
 2991 03d5 2C       		.byte	0x2c
 2992 03d6 05040000 		.4byte	0x405
 2993 03da 06       		.uleb128 0x6
 2994 03db A4000000 		.4byte	.LASF58
 2995 03df 09       		.byte	0x9
 2996 03e0 2D       		.byte	0x2d
 2997 03e1 6B020000 		.4byte	0x26b
 2998 03e5 02       		.byte	0x2
 2999 03e6 23       		.byte	0x23
ARM GAS  C:\Users\DNIEL~1\AppData\Local\Temp\ccXtZ92a.s 			page 54


 3000 03e7 00       		.uleb128 0x0
 3001 03e8 06       		.uleb128 0x6
 3002 03e9 DA030000 		.4byte	.LASF59
 3003 03ed 09       		.byte	0x9
 3004 03ee 2F       		.byte	0x2f
 3005 03ef 65020000 		.4byte	0x265
 3006 03f3 02       		.byte	0x2
 3007 03f4 23       		.byte	0x23
 3008 03f5 08       		.uleb128 0x8
 3009 03f6 06       		.uleb128 0x6
 3010 03f7 4F030000 		.4byte	.LASF60
 3011 03fb 09       		.byte	0x9
 3012 03fc 31       		.byte	0x31
 3013 03fd 05040000 		.4byte	0x405
 3014 0401 02       		.byte	0x2
 3015 0402 23       		.byte	0x23
 3016 0403 0C       		.uleb128 0xc
 3017 0404 00       		.byte	0x0
 3018 0405 09       		.uleb128 0x9
 3019 0406 04       		.byte	0x4
 3020 0407 CE030000 		.4byte	0x3ce
 3021 040b 03       		.uleb128 0x3
 3022 040c B0010000 		.4byte	.LASF57
 3023 0410 09       		.byte	0x9
 3024 0411 33       		.byte	0x33
 3025 0412 CE030000 		.4byte	0x3ce
 3026 0416 0E       		.uleb128 0xe
 3027 0417 04       		.byte	0x4
 3028 0418 06       		.byte	0x6
 3029 0419 96       		.byte	0x96
 3030 041a 4B040000 		.4byte	0x44b
 3031 041e 0F       		.uleb128 0xf
 3032 041f 0D000000 		.4byte	.LASF61
 3033 0423 06       		.byte	0x6
 3034 0424 9D       		.byte	0x9d
 3035 0425 EF000000 		.4byte	0xef
 3036 0429 0F       		.uleb128 0xf
 3037 042a 4E000000 		.4byte	.LASF62
 3038 042e 06       		.byte	0x6
 3039 042f A4       		.byte	0xa4
 3040 0430 EF000000 		.4byte	0xef
 3041 0434 0F       		.uleb128 0xf
 3042 0435 B9030000 		.4byte	.LASF63
 3043 0439 06       		.byte	0x6
 3044 043a AB       		.byte	0xab
 3045 043b A3020000 		.4byte	0x2a3
 3046 043f 0F       		.uleb128 0xf
 3047 0440 CE020000 		.4byte	.LASF64
 3048 0444 06       		.byte	0x6
 3049 0445 B2       		.byte	0xb2
 3050 0446 FA000000 		.4byte	0xfa
 3051 044a 00       		.byte	0x0
 3052 044b 09       		.uleb128 0x9
 3053 044c 04       		.byte	0x4
 3054 044d 51040000 		.4byte	0x451
 3055 0451 10       		.uleb128 0x10
 3056 0452 56040000 		.4byte	0x456
ARM GAS  C:\Users\DNIEL~1\AppData\Local\Temp\ccXtZ92a.s 			page 55


 3057 0456 04       		.uleb128 0x4
 3058 0457 01       		.byte	0x1
 3059 0458 08       		.byte	0x8
 3060 0459 3D030000 		.4byte	.LASF65
 3061 045d 09       		.uleb128 0x9
 3062 045e 04       		.byte	0x4
 3063 045f 0B040000 		.4byte	0x40b
 3064 0463 03       		.uleb128 0x3
 3065 0464 B6010000 		.4byte	.LASF66
 3066 0468 0A       		.byte	0xa
 3067 0469 37       		.byte	0x37
 3068 046a 6E040000 		.4byte	0x46e
 3069 046e 05       		.uleb128 0x5
 3070 046f B6010000 		.4byte	.LASF66
 3071 0473 24       		.byte	0x24
 3072 0474 0A       		.byte	0xa
 3073 0475 45       		.byte	0x45
 3074 0476 EB040000 		.4byte	0x4eb
 3075 047a 06       		.uleb128 0x6
 3076 047b 71000000 		.4byte	.LASF67
 3077 047f 0A       		.byte	0xa
 3078 0480 46       		.byte	0x46
 3079 0481 6B020000 		.4byte	0x26b
 3080 0485 02       		.byte	0x2
 3081 0486 23       		.byte	0x23
 3082 0487 00       		.uleb128 0x0
 3083 0488 06       		.uleb128 0x6
 3084 0489 E5010000 		.4byte	.LASF68
 3085 048d 0A       		.byte	0xa
 3086 048e 47       		.byte	0x47
 3087 048f 30000000 		.4byte	0x30
 3088 0493 02       		.byte	0x2
 3089 0494 23       		.byte	0x23
 3090 0495 08       		.uleb128 0x8
 3091 0496 06       		.uleb128 0x6
 3092 0497 F1000000 		.4byte	.LASF69
 3093 049b 0A       		.byte	0xa
 3094 049c 48       		.byte	0x48
 3095 049d 0E050000 		.4byte	0x50e
 3096 04a1 02       		.byte	0x2
 3097 04a2 23       		.byte	0x23
 3098 04a3 0C       		.uleb128 0xc
 3099 04a4 06       		.uleb128 0x6
 3100 04a5 8B030000 		.4byte	.LASF70
 3101 04a9 0A       		.byte	0xa
 3102 04aa 49       		.byte	0x49
 3103 04ab 0E050000 		.4byte	0x50e
 3104 04af 02       		.byte	0x2
 3105 04b0 23       		.byte	0x23
 3106 04b1 10       		.uleb128 0x10
 3107 04b2 06       		.uleb128 0x6
 3108 04b3 FA000000 		.4byte	.LASF71
 3109 04b7 0A       		.byte	0xa
 3110 04b8 4B       		.byte	0x4b
 3111 04b9 0E050000 		.4byte	0x50e
 3112 04bd 02       		.byte	0x2
 3113 04be 23       		.byte	0x23
ARM GAS  C:\Users\DNIEL~1\AppData\Local\Temp\ccXtZ92a.s 			page 56


 3114 04bf 14       		.uleb128 0x14
 3115 04c0 06       		.uleb128 0x6
 3116 04c1 75020000 		.4byte	.LASF72
 3117 04c5 0A       		.byte	0xa
 3118 04c6 4C       		.byte	0x4c
 3119 04c7 0E050000 		.4byte	0x50e
 3120 04cb 02       		.byte	0x2
 3121 04cc 23       		.byte	0x23
 3122 04cd 18       		.uleb128 0x18
 3123 04ce 06       		.uleb128 0x6
 3124 04cf A2030000 		.4byte	.LASF73
 3125 04d3 0A       		.byte	0xa
 3126 04d4 4D       		.byte	0x4d
 3127 04d5 EB040000 		.4byte	0x4eb
 3128 04d9 02       		.byte	0x2
 3129 04da 23       		.byte	0x23
 3130 04db 1C       		.uleb128 0x1c
 3131 04dc 06       		.uleb128 0x6
 3132 04dd D3030000 		.4byte	.LASF74
 3133 04e1 0A       		.byte	0xa
 3134 04e2 4E       		.byte	0x4e
 3135 04e3 A3020000 		.4byte	0x2a3
 3136 04e7 02       		.byte	0x2
 3137 04e8 23       		.byte	0x23
 3138 04e9 20       		.uleb128 0x20
 3139 04ea 00       		.byte	0x0
 3140 04eb 03       		.uleb128 0x3
 3141 04ec 54020000 		.4byte	.LASF75
 3142 04f0 0A       		.byte	0xa
 3143 04f1 3A       		.byte	0x3a
 3144 04f2 F6040000 		.4byte	0x4f6
 3145 04f6 09       		.uleb128 0x9
 3146 04f7 04       		.byte	0x4
 3147 04f8 FC040000 		.4byte	0x4fc
 3148 04fc 11       		.uleb128 0x11
 3149 04fd 01       		.byte	0x1
 3150 04fe 08050000 		.4byte	0x508
 3151 0502 12       		.uleb128 0x12
 3152 0503 08050000 		.4byte	0x508
 3153 0507 00       		.byte	0x0
 3154 0508 09       		.uleb128 0x9
 3155 0509 04       		.byte	0x4
 3156 050a 63040000 		.4byte	0x463
 3157 050e 09       		.uleb128 0x9
 3158 050f 04       		.byte	0x4
 3159 0510 49000000 		.4byte	0x49
 3160 0514 03       		.uleb128 0x3
 3161 0515 A5010000 		.4byte	.LASF76
 3162 0519 0A       		.byte	0xa
 3163 051a 82       		.byte	0x82
 3164 051b 63040000 		.4byte	0x463
 3165 051f 03       		.uleb128 0x3
 3166 0520 1D000000 		.4byte	.LASF77
 3167 0524 0A       		.byte	0xa
 3168 0525 F5       		.byte	0xf5
 3169 0526 63040000 		.4byte	0x463
 3170 052a 05       		.uleb128 0x5
ARM GAS  C:\Users\DNIEL~1\AppData\Local\Temp\ccXtZ92a.s 			page 57


 3171 052b EB020000 		.4byte	.LASF78
 3172 052f 10       		.byte	0x10
 3173 0530 0B       		.byte	0xb
 3174 0531 3B       		.byte	0x3b
 3175 0532 6F050000 		.4byte	0x56f
 3176 0536 06       		.uleb128 0x6
 3177 0537 43010000 		.4byte	.LASF79
 3178 053b 0B       		.byte	0xb
 3179 053c 3C       		.byte	0x3c
 3180 053d 4B040000 		.4byte	0x44b
 3181 0541 02       		.byte	0x2
 3182 0542 23       		.byte	0x23
 3183 0543 00       		.uleb128 0x0
 3184 0544 06       		.uleb128 0x6
 3185 0545 26020000 		.4byte	.LASF80
 3186 0549 0B       		.byte	0xb
 3187 054a 3D       		.byte	0x3d
 3188 054b 71050000 		.4byte	0x571
 3189 054f 02       		.byte	0x2
 3190 0550 23       		.byte	0x23
 3191 0551 04       		.uleb128 0x4
 3192 0552 06       		.uleb128 0x6
 3193 0553 3A010000 		.4byte	.LASF81
 3194 0557 0B       		.byte	0xb
 3195 0558 3E       		.byte	0x3e
 3196 0559 71050000 		.4byte	0x571
 3197 055d 02       		.byte	0x2
 3198 055e 23       		.byte	0x23
 3199 055f 08       		.uleb128 0x8
 3200 0560 06       		.uleb128 0x6
 3201 0561 65020000 		.4byte	.LASF82
 3202 0565 0B       		.byte	0xb
 3203 0566 3F       		.byte	0x3f
 3204 0567 71050000 		.4byte	0x571
 3205 056b 02       		.byte	0x2
 3206 056c 23       		.byte	0x23
 3207 056d 0C       		.uleb128 0xc
 3208 056e 00       		.byte	0x0
 3209 056f 13       		.uleb128 0x13
 3210 0570 01       		.byte	0x1
 3211 0571 09       		.uleb128 0x9
 3212 0572 04       		.byte	0x4
 3213 0573 6F050000 		.4byte	0x56f
 3214 0577 14       		.uleb128 0x14
 3215 0578 9006     		.2byte	0x690
 3216 057a 0B       		.byte	0xb
 3217 057b 44       		.byte	0x44
 3218 057c C6050000 		.4byte	0x5c6
 3219 0580 07       		.uleb128 0x7
 3220 0581 543000   		.ascii	"T0\000"
 3221 0584 0B       		.byte	0xb
 3222 0585 45       		.byte	0x45
 3223 0586 C6050000 		.4byte	0x5c6
 3224 058a 02       		.byte	0x2
 3225 058b 23       		.byte	0x23
 3226 058c 00       		.uleb128 0x0
 3227 058d 07       		.uleb128 0x7
ARM GAS  C:\Users\DNIEL~1\AppData\Local\Temp\ccXtZ92a.s 			page 58


 3228 058e 543100   		.ascii	"T1\000"
 3229 0591 0B       		.byte	0xb
 3230 0592 46       		.byte	0x46
 3231 0593 C6050000 		.4byte	0x5c6
 3232 0597 03       		.byte	0x3
 3233 0598 23       		.byte	0x23
 3234 0599 D002     		.uleb128 0x150
 3235 059b 07       		.uleb128 0x7
 3236 059c 543200   		.ascii	"T2\000"
 3237 059f 0B       		.byte	0xb
 3238 05a0 47       		.byte	0x47
 3239 05a1 C6050000 		.4byte	0x5c6
 3240 05a5 03       		.byte	0x3
 3241 05a6 23       		.byte	0x23
 3242 05a7 A005     		.uleb128 0x2a0
 3243 05a9 07       		.uleb128 0x7
 3244 05aa 543300   		.ascii	"T3\000"
 3245 05ad 0B       		.byte	0xb
 3246 05ae 48       		.byte	0x48
 3247 05af C6050000 		.4byte	0x5c6
 3248 05b3 03       		.byte	0x3
 3249 05b4 23       		.byte	0x23
 3250 05b5 F007     		.uleb128 0x3f0
 3251 05b7 07       		.uleb128 0x7
 3252 05b8 543400   		.ascii	"T4\000"
 3253 05bb 0B       		.byte	0xb
 3254 05bc 49       		.byte	0x49
 3255 05bd C6050000 		.4byte	0x5c6
 3256 05c1 03       		.byte	0x3
 3257 05c2 23       		.byte	0x23
 3258 05c3 C00A     		.uleb128 0x540
 3259 05c5 00       		.byte	0x0
 3260 05c6 15       		.uleb128 0x15
 3261 05c7 A5020000 		.4byte	0x2a5
 3262 05cb D6050000 		.4byte	0x5d6
 3263 05cf 16       		.uleb128 0x16
 3264 05d0 3B000000 		.4byte	0x3b
 3265 05d4 29       		.byte	0x29
 3266 05d5 00       		.byte	0x0
 3267 05d6 17       		.uleb128 0x17
 3268 05d7 42030000 		.4byte	.LASF100
 3269 05db 9006     		.2byte	0x690
 3270 05dd 0B       		.byte	0xb
 3271 05de 43       		.byte	0x43
 3272 05df F9050000 		.4byte	0x5f9
 3273 05e3 18       		.uleb128 0x18
 3274 05e4 776100   		.ascii	"wa\000"
 3275 05e7 0B       		.byte	0xb
 3276 05e8 4A       		.byte	0x4a
 3277 05e9 77050000 		.4byte	0x577
 3278 05ed 0F       		.uleb128 0xf
 3279 05ee 6B030000 		.4byte	.LASF83
 3280 05f2 0B       		.byte	0xb
 3281 05f3 4B       		.byte	0x4b
 3282 05f4 F9050000 		.4byte	0x5f9
 3283 05f8 00       		.byte	0x0
 3284 05f9 15       		.uleb128 0x15
ARM GAS  C:\Users\DNIEL~1\AppData\Local\Temp\ccXtZ92a.s 			page 59


 3285 05fa 49000000 		.4byte	0x49
 3286 05fe 0A060000 		.4byte	0x60a
 3287 0602 19       		.uleb128 0x19
 3288 0603 3B000000 		.4byte	0x3b
 3289 0607 8F06     		.2byte	0x68f
 3290 0609 00       		.byte	0x0
 3291 060a 1A       		.uleb128 0x1a
 3292 060b CE010000 		.4byte	.LASF84
 3293 060f 01       		.byte	0x1
 3294 0610 39       		.byte	0x39
 3295 0611 01       		.byte	0x1
 3296 0612 00000000 		.4byte	.LFB7
 3297 0616 02000000 		.4byte	.LFE7
 3298 061a 02       		.byte	0x2
 3299 061b 7D       		.byte	0x7d
 3300 061c 00       		.sleb128 0
 3301 061d 2E060000 		.4byte	0x62e
 3302 0621 1B       		.uleb128 0x1b
 3303 0622 717000   		.ascii	"qp\000"
 3304 0625 01       		.byte	0x1
 3305 0626 39       		.byte	0x39
 3306 0627 08050000 		.4byte	0x508
 3307 062b 01       		.byte	0x1
 3308 062c 50       		.byte	0x50
 3309 062d 00       		.byte	0x0
 3310 062e 1C       		.uleb128 0x1c
 3311 062f 0B020000 		.4byte	.LASF86
 3312 0633 01       		.byte	0x1
 3313 0634 AA       		.byte	0xaa
 3314 0635 01       		.byte	0x1
 3315 0636 EF000000 		.4byte	0xef
 3316 063a 00000000 		.4byte	.LFB12
 3317 063e 14000000 		.4byte	.LFE12
 3318 0642 00000000 		.4byte	.LLST0
 3319 0646 58060000 		.4byte	0x658
 3320 064a 1D       		.uleb128 0x1d
 3321 064b 7000     		.ascii	"p\000"
 3322 064d 01       		.byte	0x1
 3323 064e AA       		.byte	0xaa
 3324 064f A3020000 		.4byte	0x2a3
 3325 0653 20000000 		.4byte	.LLST1
 3326 0657 00       		.byte	0x0
 3327 0658 1E       		.uleb128 0x1e
 3328 0659 D5010000 		.4byte	.LASF85
 3329 065d 01       		.byte	0x1
 3330 065e B1       		.byte	0xb1
 3331 065f 01       		.byte	0x1
 3332 0660 00000000 		.4byte	.LFB13
 3333 0664 F0020000 		.4byte	.LFE13
 3334 0668 33000000 		.4byte	.LLST2
 3335 066c BA090000 		.4byte	0x9ba
 3336 0670 1F       		.uleb128 0x1f
 3337 0671 6900     		.ascii	"i\000"
 3338 0673 01       		.byte	0x1
 3339 0674 B2       		.byte	0xb2
 3340 0675 3B000000 		.4byte	0x3b
 3341 0679 5F000000 		.4byte	.LLST3
ARM GAS  C:\Users\DNIEL~1\AppData\Local\Temp\ccXtZ92a.s 			page 60


 3342 067d 1F       		.uleb128 0x1f
 3343 067e 6E00     		.ascii	"n\000"
 3344 0680 01       		.byte	0x1
 3345 0681 B3       		.byte	0xb3
 3346 0682 30000000 		.4byte	0x30
 3347 0686 F7000000 		.4byte	.LLST4
 3348 068a 20       		.uleb128 0x20
 3349 068b 00000000 		.4byte	.Ldebug_ranges0+0x0
 3350 068f A3060000 		.4byte	0x6a3
 3351 0693 1F       		.uleb128 0x1f
 3352 0694 746D7000 		.ascii	"tmp\000"
 3353 0698 01       		.byte	0x1
 3354 0699 B6       		.byte	0xb6
 3355 069a 7B000000 		.4byte	0x7b
 3356 069e 47010000 		.4byte	.LLST5
 3357 06a2 00       		.byte	0x0
 3358 06a3 21       		.uleb128 0x21
 3359 06a4 24000000 		.4byte	.LBB4
 3360 06a8 2A000000 		.4byte	.LBE4
 3361 06ac C0060000 		.4byte	0x6c0
 3362 06b0 1F       		.uleb128 0x1f
 3363 06b1 746D7000 		.ascii	"tmp\000"
 3364 06b5 01       		.byte	0x1
 3365 06b6 B6       		.byte	0xb6
 3366 06b7 7B000000 		.4byte	0x7b
 3367 06bb 5A010000 		.4byte	.LLST6
 3368 06bf 00       		.byte	0x0
 3369 06c0 21       		.uleb128 0x21
 3370 06c1 5C000000 		.4byte	.LBB5
 3371 06c5 62000000 		.4byte	.LBE5
 3372 06c9 DD060000 		.4byte	0x6dd
 3373 06cd 1F       		.uleb128 0x1f
 3374 06ce 746D7000 		.ascii	"tmp\000"
 3375 06d2 01       		.byte	0x1
 3376 06d3 BB       		.byte	0xbb
 3377 06d4 7B000000 		.4byte	0x7b
 3378 06d8 6D010000 		.4byte	.LLST7
 3379 06dc 00       		.byte	0x0
 3380 06dd 21       		.uleb128 0x21
 3381 06de 78000000 		.4byte	.LBB6
 3382 06e2 7E000000 		.4byte	.LBE6
 3383 06e6 FA060000 		.4byte	0x6fa
 3384 06ea 1F       		.uleb128 0x1f
 3385 06eb 746D7000 		.ascii	"tmp\000"
 3386 06ef 01       		.byte	0x1
 3387 06f0 BB       		.byte	0xbb
 3388 06f1 7B000000 		.4byte	0x7b
 3389 06f5 80010000 		.4byte	.LLST8
 3390 06f9 00       		.byte	0x0
 3391 06fa 21       		.uleb128 0x21
 3392 06fb 7E000000 		.4byte	.LBB7
 3393 06ff DE000000 		.4byte	.LBE7
 3394 0703 43070000 		.4byte	0x743
 3395 0707 1F       		.uleb128 0x1f
 3396 0708 6300     		.ascii	"c\000"
 3397 070a 01       		.byte	0x1
 3398 070b BF       		.byte	0xbf
ARM GAS  C:\Users\DNIEL~1\AppData\Local\Temp\ccXtZ92a.s 			page 61


 3399 070c 56040000 		.4byte	0x456
 3400 0710 93010000 		.4byte	.LLST9
 3401 0714 20       		.uleb128 0x20
 3402 0715 18000000 		.4byte	.Ldebug_ranges0+0x18
 3403 0719 2D070000 		.4byte	0x72d
 3404 071d 1F       		.uleb128 0x1f
 3405 071e 746D7000 		.ascii	"tmp\000"
 3406 0722 01       		.byte	0x1
 3407 0723 C1       		.byte	0xc1
 3408 0724 7B000000 		.4byte	0x7b
 3409 0728 C7010000 		.4byte	.LLST10
 3410 072c 00       		.byte	0x0
 3411 072d 22       		.uleb128 0x22
 3412 072e 40000000 		.4byte	.Ldebug_ranges0+0x40
 3413 0732 1F       		.uleb128 0x1f
 3414 0733 746D7000 		.ascii	"tmp\000"
 3415 0737 01       		.byte	0x1
 3416 0738 C3       		.byte	0xc3
 3417 0739 7B000000 		.4byte	0x7b
 3418 073d FB010000 		.4byte	.LLST11
 3419 0741 00       		.byte	0x0
 3420 0742 00       		.byte	0x0
 3421 0743 21       		.uleb128 0x21
 3422 0744 DE000000 		.4byte	.LBB16
 3423 0748 E4000000 		.4byte	.LBE16
 3424 074c 60070000 		.4byte	0x760
 3425 0750 1F       		.uleb128 0x1f
 3426 0751 746D7000 		.ascii	"tmp\000"
 3427 0755 01       		.byte	0x1
 3428 0756 C6       		.byte	0xc6
 3429 0757 7B000000 		.4byte	0x7b
 3430 075b 2F020000 		.4byte	.LLST12
 3431 075f 00       		.byte	0x0
 3432 0760 21       		.uleb128 0x21
 3433 0761 F6000000 		.4byte	.LBB17
 3434 0765 FC000000 		.4byte	.LBE17
 3435 0769 7D070000 		.4byte	0x77d
 3436 076d 1F       		.uleb128 0x1f
 3437 076e 746D7000 		.ascii	"tmp\000"
 3438 0772 01       		.byte	0x1
 3439 0773 C6       		.byte	0xc6
 3440 0774 7B000000 		.4byte	0x7b
 3441 0778 4D020000 		.4byte	.LLST13
 3442 077c 00       		.byte	0x0
 3443 077d 21       		.uleb128 0x21
 3444 077e 02010000 		.4byte	.LBB18
 3445 0782 08010000 		.4byte	.LBE18
 3446 0786 9A070000 		.4byte	0x79a
 3447 078a 1F       		.uleb128 0x1f
 3448 078b 746D7000 		.ascii	"tmp\000"
 3449 078f 01       		.byte	0x1
 3450 0790 BB       		.byte	0xbb
 3451 0791 7B000000 		.4byte	0x7b
 3452 0795 60020000 		.4byte	.LLST14
 3453 0799 00       		.byte	0x0
 3454 079a 21       		.uleb128 0x21
 3455 079b 0A010000 		.4byte	.LBB19
ARM GAS  C:\Users\DNIEL~1\AppData\Local\Temp\ccXtZ92a.s 			page 62


 3456 079f 10010000 		.4byte	.LBE19
 3457 07a3 B7070000 		.4byte	0x7b7
 3458 07a7 1F       		.uleb128 0x1f
 3459 07a8 746D7000 		.ascii	"tmp\000"
 3460 07ac 01       		.byte	0x1
 3461 07ad B6       		.byte	0xb6
 3462 07ae 7B000000 		.4byte	0x7b
 3463 07b2 7E020000 		.4byte	.LLST15
 3464 07b6 00       		.byte	0x0
 3465 07b7 21       		.uleb128 0x21
 3466 07b8 1C010000 		.4byte	.LBB20
 3467 07bc 22010000 		.4byte	.LBE20
 3468 07c0 D4070000 		.4byte	0x7d4
 3469 07c4 1F       		.uleb128 0x1f
 3470 07c5 746D7000 		.ascii	"tmp\000"
 3471 07c9 01       		.byte	0x1
 3472 07ca C6       		.byte	0xc6
 3473 07cb 7B000000 		.4byte	0x7b
 3474 07cf 9C020000 		.4byte	.LLST16
 3475 07d3 00       		.byte	0x0
 3476 07d4 21       		.uleb128 0x21
 3477 07d5 30010000 		.4byte	.LBB21
 3478 07d9 36010000 		.4byte	.LBE21
 3479 07dd F1070000 		.4byte	0x7f1
 3480 07e1 1F       		.uleb128 0x1f
 3481 07e2 746D7000 		.ascii	"tmp\000"
 3482 07e6 01       		.byte	0x1
 3483 07e7 C8       		.byte	0xc8
 3484 07e8 7B000000 		.4byte	0x7b
 3485 07ec AF020000 		.4byte	.LLST17
 3486 07f0 00       		.byte	0x0
 3487 07f1 21       		.uleb128 0x21
 3488 07f2 50010000 		.4byte	.LBB22
 3489 07f6 56010000 		.4byte	.LBE22
 3490 07fa 0E080000 		.4byte	0x80e
 3491 07fe 1F       		.uleb128 0x1f
 3492 07ff 746D7000 		.ascii	"tmp\000"
 3493 0803 01       		.byte	0x1
 3494 0804 C8       		.byte	0xc8
 3495 0805 7B000000 		.4byte	0x7b
 3496 0809 C2020000 		.4byte	.LLST18
 3497 080d 00       		.byte	0x0
 3498 080e 21       		.uleb128 0x21
 3499 080f 62010000 		.4byte	.LBB23
 3500 0813 68010000 		.4byte	.LBE23
 3501 0817 2B080000 		.4byte	0x82b
 3502 081b 1F       		.uleb128 0x1f
 3503 081c 746D7000 		.ascii	"tmp\000"
 3504 0820 01       		.byte	0x1
 3505 0821 C8       		.byte	0xc8
 3506 0822 7B000000 		.4byte	0x7b
 3507 0826 E0020000 		.4byte	.LLST19
 3508 082a 00       		.byte	0x0
 3509 082b 21       		.uleb128 0x21
 3510 082c 8E010000 		.4byte	.LBB24
 3511 0830 94010000 		.4byte	.LBE24
 3512 0834 48080000 		.4byte	0x848
ARM GAS  C:\Users\DNIEL~1\AppData\Local\Temp\ccXtZ92a.s 			page 63


 3513 0838 1F       		.uleb128 0x1f
 3514 0839 746D7000 		.ascii	"tmp\000"
 3515 083d 01       		.byte	0x1
 3516 083e CD       		.byte	0xcd
 3517 083f 7B000000 		.4byte	0x7b
 3518 0843 F3020000 		.4byte	.LLST20
 3519 0847 00       		.byte	0x0
 3520 0848 21       		.uleb128 0x21
 3521 0849 A8010000 		.4byte	.LBB25
 3522 084d AE010000 		.4byte	.LBE25
 3523 0851 65080000 		.4byte	0x865
 3524 0855 1F       		.uleb128 0x1f
 3525 0856 746D7000 		.ascii	"tmp\000"
 3526 085a 01       		.byte	0x1
 3527 085b CD       		.byte	0xcd
 3528 085c 7B000000 		.4byte	0x7b
 3529 0860 06030000 		.4byte	.LLST21
 3530 0864 00       		.byte	0x0
 3531 0865 21       		.uleb128 0x21
 3532 0866 B0010000 		.4byte	.LBB26
 3533 086a B6010000 		.4byte	.LBE26
 3534 086e 82080000 		.4byte	0x882
 3535 0872 1F       		.uleb128 0x1f
 3536 0873 746D7000 		.ascii	"tmp\000"
 3537 0877 01       		.byte	0x1
 3538 0878 CD       		.byte	0xcd
 3539 0879 7B000000 		.4byte	0x7b
 3540 087d 24030000 		.4byte	.LLST22
 3541 0881 00       		.byte	0x0
 3542 0882 20       		.uleb128 0x20
 3543 0883 68000000 		.4byte	.Ldebug_ranges0+0x68
 3544 0887 9B080000 		.4byte	0x89b
 3545 088b 1F       		.uleb128 0x1f
 3546 088c 746D7000 		.ascii	"tmp\000"
 3547 0890 01       		.byte	0x1
 3548 0891 CF       		.byte	0xcf
 3549 0892 7B000000 		.4byte	0x7b
 3550 0896 37030000 		.4byte	.LLST23
 3551 089a 00       		.byte	0x0
 3552 089b 21       		.uleb128 0x21
 3553 089c F4010000 		.4byte	.LBB29
 3554 08a0 FA010000 		.4byte	.LBE29
 3555 08a4 B8080000 		.4byte	0x8b8
 3556 08a8 1F       		.uleb128 0x1f
 3557 08a9 746D7000 		.ascii	"tmp\000"
 3558 08ad 01       		.byte	0x1
 3559 08ae CF       		.byte	0xcf
 3560 08af 7B000000 		.4byte	0x7b
 3561 08b3 4A030000 		.4byte	.LLST24
 3562 08b7 00       		.byte	0x0
 3563 08b8 21       		.uleb128 0x21
 3564 08b9 FC010000 		.4byte	.LBB30
 3565 08bd 02020000 		.4byte	.LBE30
 3566 08c1 D5080000 		.4byte	0x8d5
 3567 08c5 1F       		.uleb128 0x1f
 3568 08c6 746D7000 		.ascii	"tmp\000"
 3569 08ca 01       		.byte	0x1
ARM GAS  C:\Users\DNIEL~1\AppData\Local\Temp\ccXtZ92a.s 			page 64


 3570 08cb CF       		.byte	0xcf
 3571 08cc 7B000000 		.4byte	0x7b
 3572 08d0 68030000 		.4byte	.LLST25
 3573 08d4 00       		.byte	0x0
 3574 08d5 21       		.uleb128 0x21
 3575 08d6 06020000 		.4byte	.LBB31
 3576 08da 0C020000 		.4byte	.LBE31
 3577 08de F2080000 		.4byte	0x8f2
 3578 08e2 1F       		.uleb128 0x1f
 3579 08e3 746D7000 		.ascii	"tmp\000"
 3580 08e7 01       		.byte	0x1
 3581 08e8 D3       		.byte	0xd3
 3582 08e9 7B000000 		.4byte	0x7b
 3583 08ed 7B030000 		.4byte	.LLST26
 3584 08f1 00       		.byte	0x0
 3585 08f2 21       		.uleb128 0x21
 3586 08f3 12020000 		.4byte	.LBB32
 3587 08f7 18020000 		.4byte	.LBE32
 3588 08fb 0F090000 		.4byte	0x90f
 3589 08ff 1F       		.uleb128 0x1f
 3590 0900 746D7000 		.ascii	"tmp\000"
 3591 0904 01       		.byte	0x1
 3592 0905 D5       		.byte	0xd5
 3593 0906 7B000000 		.4byte	0x7b
 3594 090a 8E030000 		.4byte	.LLST27
 3595 090e 00       		.byte	0x0
 3596 090f 21       		.uleb128 0x21
 3597 0910 18020000 		.4byte	.LBB33
 3598 0914 1E020000 		.4byte	.LBE33
 3599 0918 2C090000 		.4byte	0x92c
 3600 091c 1F       		.uleb128 0x1f
 3601 091d 746D7000 		.ascii	"tmp\000"
 3602 0921 01       		.byte	0x1
 3603 0922 D6       		.byte	0xd6
 3604 0923 7B000000 		.4byte	0x7b
 3605 0927 A1030000 		.4byte	.LLST28
 3606 092b 00       		.byte	0x0
 3607 092c 21       		.uleb128 0x21
 3608 092d 3C020000 		.4byte	.LBB34
 3609 0931 42020000 		.4byte	.LBE34
 3610 0935 49090000 		.4byte	0x949
 3611 0939 1F       		.uleb128 0x1f
 3612 093a 746D7000 		.ascii	"tmp\000"
 3613 093e 01       		.byte	0x1
 3614 093f D6       		.byte	0xd6
 3615 0940 7B000000 		.4byte	0x7b
 3616 0944 B4030000 		.4byte	.LLST29
 3617 0948 00       		.byte	0x0
 3618 0949 21       		.uleb128 0x21
 3619 094a 44020000 		.4byte	.LBB35
 3620 094e 48020000 		.4byte	.LBE35
 3621 0952 66090000 		.4byte	0x966
 3622 0956 1F       		.uleb128 0x1f
 3623 0957 746D7000 		.ascii	"tmp\000"
 3624 095b 01       		.byte	0x1
 3625 095c D6       		.byte	0xd6
 3626 095d 7B000000 		.4byte	0x7b
ARM GAS  C:\Users\DNIEL~1\AppData\Local\Temp\ccXtZ92a.s 			page 65


 3627 0961 D2030000 		.4byte	.LLST30
 3628 0965 00       		.byte	0x0
 3629 0966 21       		.uleb128 0x21
 3630 0967 8C020000 		.4byte	.LBB36
 3631 096b 92020000 		.4byte	.LBE36
 3632 096f 83090000 		.4byte	0x983
 3633 0973 1F       		.uleb128 0x1f
 3634 0974 746D7000 		.ascii	"tmp\000"
 3635 0978 01       		.byte	0x1
 3636 0979 DD       		.byte	0xdd
 3637 097a 7B000000 		.4byte	0x7b
 3638 097e E5030000 		.4byte	.LLST31
 3639 0982 00       		.byte	0x0
 3640 0983 21       		.uleb128 0x21
 3641 0984 A4020000 		.4byte	.LBB37
 3642 0988 C4020000 		.4byte	.LBE37
 3643 098c A0090000 		.4byte	0x9a0
 3644 0990 1F       		.uleb128 0x1f
 3645 0991 746D7000 		.ascii	"tmp\000"
 3646 0995 01       		.byte	0x1
 3647 0996 DD       		.byte	0xdd
 3648 0997 7B000000 		.4byte	0x7b
 3649 099b F8030000 		.4byte	.LLST32
 3650 099f 00       		.byte	0x0
 3651 09a0 23       		.uleb128 0x23
 3652 09a1 C4020000 		.4byte	.LBB38
 3653 09a5 CA020000 		.4byte	.LBE38
 3654 09a9 1F       		.uleb128 0x1f
 3655 09aa 746D7000 		.ascii	"tmp\000"
 3656 09ae 01       		.byte	0x1
 3657 09af DD       		.byte	0xdd
 3658 09b0 7B000000 		.4byte	0x7b
 3659 09b4 16040000 		.4byte	.LLST33
 3660 09b8 00       		.byte	0x0
 3661 09b9 00       		.byte	0x0
 3662 09ba 24       		.uleb128 0x24
 3663 09bb 57000000 		.4byte	.LASF89
 3664 09bf 01       		.byte	0x1
 3665 09c0 A5       		.byte	0xa5
 3666 09c1 01       		.byte	0x1
 3667 09c2 00000000 		.4byte	.LFB11
 3668 09c6 28000000 		.4byte	.LFE11
 3669 09ca 29040000 		.4byte	.LLST34
 3670 09ce 1C       		.uleb128 0x1c
 3671 09cf 03020000 		.4byte	.LASF87
 3672 09d3 01       		.byte	0x1
 3673 09d4 53       		.byte	0x53
 3674 09d5 01       		.byte	0x1
 3675 09d6 EF000000 		.4byte	0xef
 3676 09da 00000000 		.4byte	.LFB9
 3677 09de 14000000 		.4byte	.LFE9
 3678 09e2 55040000 		.4byte	.LLST35
 3679 09e6 F8090000 		.4byte	0x9f8
 3680 09ea 1D       		.uleb128 0x1d
 3681 09eb 7000     		.ascii	"p\000"
 3682 09ed 01       		.byte	0x1
 3683 09ee 53       		.byte	0x53
ARM GAS  C:\Users\DNIEL~1\AppData\Local\Temp\ccXtZ92a.s 			page 66


 3684 09ef A3020000 		.4byte	0x2a3
 3685 09f3 75040000 		.4byte	.LLST36
 3686 09f7 00       		.byte	0x0
 3687 09f8 1E       		.uleb128 0x1e
 3688 09f9 63010000 		.4byte	.LASF88
 3689 09fd 01       		.byte	0x1
 3690 09fe 5A       		.byte	0x5a
 3691 09ff 01       		.byte	0x1
 3692 0a00 00000000 		.4byte	.LFB10
 3693 0a04 18030000 		.4byte	.LFE10
 3694 0a08 88040000 		.4byte	.LLST37
 3695 0a0c BF0D0000 		.4byte	0xdbf
 3696 0a10 1F       		.uleb128 0x1f
 3697 0a11 6900     		.ascii	"i\000"
 3698 0a13 01       		.byte	0x1
 3699 0a14 5B       		.byte	0x5b
 3700 0a15 3B000000 		.4byte	0x3b
 3701 0a19 B4040000 		.4byte	.LLST38
 3702 0a1d 1F       		.uleb128 0x1f
 3703 0a1e 6E00     		.ascii	"n\000"
 3704 0a20 01       		.byte	0x1
 3705 0a21 5C       		.byte	0x5c
 3706 0a22 30000000 		.4byte	0x30
 3707 0a26 C4050000 		.4byte	.LLST39
 3708 0a2a 20       		.uleb128 0x20
 3709 0a2b 80000000 		.4byte	.Ldebug_ranges0+0x80
 3710 0a2f 430A0000 		.4byte	0xa43
 3711 0a33 1F       		.uleb128 0x1f
 3712 0a34 746D7000 		.ascii	"tmp\000"
 3713 0a38 01       		.byte	0x1
 3714 0a39 5F       		.byte	0x5f
 3715 0a3a 7B000000 		.4byte	0x7b
 3716 0a3e 14060000 		.4byte	.LLST40
 3717 0a42 00       		.byte	0x0
 3718 0a43 21       		.uleb128 0x21
 3719 0a44 24000000 		.4byte	.LBB41
 3720 0a48 2A000000 		.4byte	.LBE41
 3721 0a4c 600A0000 		.4byte	0xa60
 3722 0a50 1F       		.uleb128 0x1f
 3723 0a51 746D7000 		.ascii	"tmp\000"
 3724 0a55 01       		.byte	0x1
 3725 0a56 5F       		.byte	0x5f
 3726 0a57 7B000000 		.4byte	0x7b
 3727 0a5b 27060000 		.4byte	.LLST41
 3728 0a5f 00       		.byte	0x0
 3729 0a60 21       		.uleb128 0x21
 3730 0a61 2A000000 		.4byte	.LBB42
 3731 0a65 30000000 		.4byte	.LBE42
 3732 0a69 7D0A0000 		.4byte	0xa7d
 3733 0a6d 1F       		.uleb128 0x1f
 3734 0a6e 746D7000 		.ascii	"tmp\000"
 3735 0a72 01       		.byte	0x1
 3736 0a73 62       		.byte	0x62
 3737 0a74 7B000000 		.4byte	0x7b
 3738 0a78 3A060000 		.4byte	.LLST42
 3739 0a7c 00       		.byte	0x0
 3740 0a7d 21       		.uleb128 0x21
ARM GAS  C:\Users\DNIEL~1\AppData\Local\Temp\ccXtZ92a.s 			page 67


 3741 0a7e 50000000 		.4byte	.LBB43
 3742 0a82 56000000 		.4byte	.LBE43
 3743 0a86 9A0A0000 		.4byte	0xa9a
 3744 0a8a 1F       		.uleb128 0x1f
 3745 0a8b 746D7000 		.ascii	"tmp\000"
 3746 0a8f 01       		.byte	0x1
 3747 0a90 65       		.byte	0x65
 3748 0a91 7B000000 		.4byte	0x7b
 3749 0a95 4D060000 		.4byte	.LLST43
 3750 0a99 00       		.byte	0x0
 3751 0a9a 21       		.uleb128 0x21
 3752 0a9b 56000000 		.4byte	.LBB44
 3753 0a9f 5C000000 		.4byte	.LBE44
 3754 0aa3 B70A0000 		.4byte	0xab7
 3755 0aa7 1F       		.uleb128 0x1f
 3756 0aa8 746D7000 		.ascii	"tmp\000"
 3757 0aac 01       		.byte	0x1
 3758 0aad 66       		.byte	0x66
 3759 0aae 7B000000 		.4byte	0x7b
 3760 0ab2 60060000 		.4byte	.LLST44
 3761 0ab6 00       		.byte	0x0
 3762 0ab7 21       		.uleb128 0x21
 3763 0ab8 70000000 		.4byte	.LBB45
 3764 0abc 76000000 		.4byte	.LBE45
 3765 0ac0 D40A0000 		.4byte	0xad4
 3766 0ac4 1F       		.uleb128 0x1f
 3767 0ac5 746D7000 		.ascii	"tmp\000"
 3768 0ac9 01       		.byte	0x1
 3769 0aca 66       		.byte	0x66
 3770 0acb 7B000000 		.4byte	0x7b
 3771 0acf 73060000 		.4byte	.LLST45
 3772 0ad3 00       		.byte	0x0
 3773 0ad4 21       		.uleb128 0x21
 3774 0ad5 7C000000 		.4byte	.LBB46
 3775 0ad9 82000000 		.4byte	.LBE46
 3776 0add F10A0000 		.4byte	0xaf1
 3777 0ae1 1F       		.uleb128 0x1f
 3778 0ae2 746D7000 		.ascii	"tmp\000"
 3779 0ae6 01       		.byte	0x1
 3780 0ae7 66       		.byte	0x66
 3781 0ae8 7B000000 		.4byte	0x7b
 3782 0aec 86060000 		.4byte	.LLST46
 3783 0af0 00       		.byte	0x0
 3784 0af1 21       		.uleb128 0x21
 3785 0af2 82000000 		.4byte	.LBB47
 3786 0af6 88000000 		.4byte	.LBE47
 3787 0afa 0E0B0000 		.4byte	0xb0e
 3788 0afe 1F       		.uleb128 0x1f
 3789 0aff 746D7000 		.ascii	"tmp\000"
 3790 0b03 01       		.byte	0x1
 3791 0b04 67       		.byte	0x67
 3792 0b05 7B000000 		.4byte	0x7b
 3793 0b09 99060000 		.4byte	.LLST47
 3794 0b0d 00       		.byte	0x0
 3795 0b0e 21       		.uleb128 0x21
 3796 0b0f A8000000 		.4byte	.LBB48
 3797 0b13 AE000000 		.4byte	.LBE48
ARM GAS  C:\Users\DNIEL~1\AppData\Local\Temp\ccXtZ92a.s 			page 68


 3798 0b17 2B0B0000 		.4byte	0xb2b
 3799 0b1b 1F       		.uleb128 0x1f
 3800 0b1c 746D7000 		.ascii	"tmp\000"
 3801 0b20 01       		.byte	0x1
 3802 0b21 67       		.byte	0x67
 3803 0b22 7B000000 		.4byte	0x7b
 3804 0b26 AC060000 		.4byte	.LLST48
 3805 0b2a 00       		.byte	0x0
 3806 0b2b 21       		.uleb128 0x21
 3807 0b2c EE000000 		.4byte	.LBB49
 3808 0b30 F4000000 		.4byte	.LBE49
 3809 0b34 480B0000 		.4byte	0xb48
 3810 0b38 1F       		.uleb128 0x1f
 3811 0b39 746D7000 		.ascii	"tmp\000"
 3812 0b3d 01       		.byte	0x1
 3813 0b3e 6C       		.byte	0x6c
 3814 0b3f 7B000000 		.4byte	0x7b
 3815 0b43 BF060000 		.4byte	.LLST49
 3816 0b47 00       		.byte	0x0
 3817 0b48 21       		.uleb128 0x21
 3818 0b49 06010000 		.4byte	.LBB50
 3819 0b4d 0C010000 		.4byte	.LBE50
 3820 0b51 650B0000 		.4byte	0xb65
 3821 0b55 1F       		.uleb128 0x1f
 3822 0b56 746D7000 		.ascii	"tmp\000"
 3823 0b5a 01       		.byte	0x1
 3824 0b5b 6C       		.byte	0x6c
 3825 0b5c 7B000000 		.4byte	0x7b
 3826 0b60 D2060000 		.4byte	.LLST50
 3827 0b64 00       		.byte	0x0
 3828 0b65 21       		.uleb128 0x21
 3829 0b66 0E010000 		.4byte	.LBB51
 3830 0b6a 14010000 		.4byte	.LBE51
 3831 0b6e 820B0000 		.4byte	0xb82
 3832 0b72 1F       		.uleb128 0x1f
 3833 0b73 746D7000 		.ascii	"tmp\000"
 3834 0b77 01       		.byte	0x1
 3835 0b78 5F       		.byte	0x5f
 3836 0b79 7B000000 		.4byte	0x7b
 3837 0b7d F0060000 		.4byte	.LLST51
 3838 0b81 00       		.byte	0x0
 3839 0b82 21       		.uleb128 0x21
 3840 0b83 16010000 		.4byte	.LBB52
 3841 0b87 1C010000 		.4byte	.LBE52
 3842 0b8b 9F0B0000 		.4byte	0xb9f
 3843 0b8f 1F       		.uleb128 0x1f
 3844 0b90 746D7000 		.ascii	"tmp\000"
 3845 0b94 01       		.byte	0x1
 3846 0b95 67       		.byte	0x67
 3847 0b96 7B000000 		.4byte	0x7b
 3848 0b9a 0E070000 		.4byte	.LLST52
 3849 0b9e 00       		.byte	0x0
 3850 0b9f 21       		.uleb128 0x21
 3851 0ba0 28010000 		.4byte	.LBB53
 3852 0ba4 2E010000 		.4byte	.LBE53
 3853 0ba8 BC0B0000 		.4byte	0xbbc
 3854 0bac 1F       		.uleb128 0x1f
ARM GAS  C:\Users\DNIEL~1\AppData\Local\Temp\ccXtZ92a.s 			page 69


 3855 0bad 746D7000 		.ascii	"tmp\000"
 3856 0bb1 01       		.byte	0x1
 3857 0bb2 6C       		.byte	0x6c
 3858 0bb3 7B000000 		.4byte	0x7b
 3859 0bb7 2C070000 		.4byte	.LLST53
 3860 0bbb 00       		.byte	0x0
 3861 0bbc 21       		.uleb128 0x21
 3862 0bbd 3C010000 		.4byte	.LBB54
 3863 0bc1 42010000 		.4byte	.LBE54
 3864 0bc5 D90B0000 		.4byte	0xbd9
 3865 0bc9 1F       		.uleb128 0x1f
 3866 0bca 746D7000 		.ascii	"tmp\000"
 3867 0bce 01       		.byte	0x1
 3868 0bcf 70       		.byte	0x70
 3869 0bd0 7B000000 		.4byte	0x7b
 3870 0bd4 3F070000 		.4byte	.LLST54
 3871 0bd8 00       		.byte	0x0
 3872 0bd9 21       		.uleb128 0x21
 3873 0bda 62010000 		.4byte	.LBB55
 3874 0bde 68010000 		.4byte	.LBE55
 3875 0be2 F60B0000 		.4byte	0xbf6
 3876 0be6 1F       		.uleb128 0x1f
 3877 0be7 746D7000 		.ascii	"tmp\000"
 3878 0beb 01       		.byte	0x1
 3879 0bec 73       		.byte	0x73
 3880 0bed 7B000000 		.4byte	0x7b
 3881 0bf1 52070000 		.4byte	.LLST55
 3882 0bf5 00       		.byte	0x0
 3883 0bf6 21       		.uleb128 0x21
 3884 0bf7 90010000 		.4byte	.LBB56
 3885 0bfb 96010000 		.4byte	.LBE56
 3886 0bff 130C0000 		.4byte	0xc13
 3887 0c03 1F       		.uleb128 0x1f
 3888 0c04 746D7000 		.ascii	"tmp\000"
 3889 0c08 01       		.byte	0x1
 3890 0c09 78       		.byte	0x78
 3891 0c0a 7B000000 		.4byte	0x7b
 3892 0c0e 65070000 		.4byte	.LLST56
 3893 0c12 00       		.byte	0x0
 3894 0c13 21       		.uleb128 0x21
 3895 0c14 AC010000 		.4byte	.LBB57
 3896 0c18 B2010000 		.4byte	.LBE57
 3897 0c1c 300C0000 		.4byte	0xc30
 3898 0c20 1F       		.uleb128 0x1f
 3899 0c21 746D7000 		.ascii	"tmp\000"
 3900 0c25 01       		.byte	0x1
 3901 0c26 78       		.byte	0x78
 3902 0c27 7B000000 		.4byte	0x7b
 3903 0c2b 78070000 		.4byte	.LLST57
 3904 0c2f 00       		.byte	0x0
 3905 0c30 21       		.uleb128 0x21
 3906 0c31 B2010000 		.4byte	.LBB58
 3907 0c35 B8010000 		.4byte	.LBE58
 3908 0c39 4D0C0000 		.4byte	0xc4d
 3909 0c3d 1F       		.uleb128 0x1f
 3910 0c3e 746D7000 		.ascii	"tmp\000"
 3911 0c42 01       		.byte	0x1
ARM GAS  C:\Users\DNIEL~1\AppData\Local\Temp\ccXtZ92a.s 			page 70


 3912 0c43 7B       		.byte	0x7b
 3913 0c44 7B000000 		.4byte	0x7b
 3914 0c48 8B070000 		.4byte	.LLST58
 3915 0c4c 00       		.byte	0x0
 3916 0c4d 21       		.uleb128 0x21
 3917 0c4e D8010000 		.4byte	.LBB59
 3918 0c52 DE010000 		.4byte	.LBE59
 3919 0c56 6A0C0000 		.4byte	0xc6a
 3920 0c5a 1F       		.uleb128 0x1f
 3921 0c5b 746D7000 		.ascii	"tmp\000"
 3922 0c5f 01       		.byte	0x1
 3923 0c60 7E       		.byte	0x7e
 3924 0c61 7B000000 		.4byte	0x7b
 3925 0c65 9E070000 		.4byte	.LLST59
 3926 0c69 00       		.byte	0x0
 3927 0c6a 21       		.uleb128 0x21
 3928 0c6b 24020000 		.4byte	.LBB60
 3929 0c6f 2A020000 		.4byte	.LBE60
 3930 0c73 870C0000 		.4byte	0xc87
 3931 0c77 1F       		.uleb128 0x1f
 3932 0c78 746D7000 		.ascii	"tmp\000"
 3933 0c7c 01       		.byte	0x1
 3934 0c7d 85       		.byte	0x85
 3935 0c7e 7B000000 		.4byte	0x7b
 3936 0c82 B1070000 		.4byte	.LLST60
 3937 0c86 00       		.byte	0x0
 3938 0c87 21       		.uleb128 0x21
 3939 0c88 3E020000 		.4byte	.LBB61
 3940 0c8c 44020000 		.4byte	.LBE61
 3941 0c90 A40C0000 		.4byte	0xca4
 3942 0c94 1F       		.uleb128 0x1f
 3943 0c95 746D7000 		.ascii	"tmp\000"
 3944 0c99 01       		.byte	0x1
 3945 0c9a 85       		.byte	0x85
 3946 0c9b 7B000000 		.4byte	0x7b
 3947 0c9f C4070000 		.4byte	.LLST61
 3948 0ca3 00       		.byte	0x0
 3949 0ca4 21       		.uleb128 0x21
 3950 0ca5 46020000 		.4byte	.LBB62
 3951 0ca9 4C020000 		.4byte	.LBE62
 3952 0cad C10C0000 		.4byte	0xcc1
 3953 0cb1 1F       		.uleb128 0x1f
 3954 0cb2 746D7000 		.ascii	"tmp\000"
 3955 0cb6 01       		.byte	0x1
 3956 0cb7 78       		.byte	0x78
 3957 0cb8 7B000000 		.4byte	0x7b
 3958 0cbc E2070000 		.4byte	.LLST62
 3959 0cc0 00       		.byte	0x0
 3960 0cc1 21       		.uleb128 0x21
 3961 0cc2 4E020000 		.4byte	.LBB63
 3962 0cc6 54020000 		.4byte	.LBE63
 3963 0cca DE0C0000 		.4byte	0xcde
 3964 0cce 1F       		.uleb128 0x1f
 3965 0ccf 746D7000 		.ascii	"tmp\000"
 3966 0cd3 01       		.byte	0x1
 3967 0cd4 85       		.byte	0x85
 3968 0cd5 7B000000 		.4byte	0x7b
ARM GAS  C:\Users\DNIEL~1\AppData\Local\Temp\ccXtZ92a.s 			page 71


 3969 0cd9 00080000 		.4byte	.LLST63
 3970 0cdd 00       		.byte	0x0
 3971 0cde 21       		.uleb128 0x21
 3972 0cdf 54020000 		.4byte	.LBB64
 3973 0ce3 5A020000 		.4byte	.LBE64
 3974 0ce7 FB0C0000 		.4byte	0xcfb
 3975 0ceb 1F       		.uleb128 0x1f
 3976 0cec 746D7000 		.ascii	"tmp\000"
 3977 0cf0 01       		.byte	0x1
 3978 0cf1 88       		.byte	0x88
 3979 0cf2 7B000000 		.4byte	0x7b
 3980 0cf6 13080000 		.4byte	.LLST64
 3981 0cfa 00       		.byte	0x0
 3982 0cfb 21       		.uleb128 0x21
 3983 0cfc 68020000 		.4byte	.LBB65
 3984 0d00 6E020000 		.4byte	.LBE65
 3985 0d04 180D0000 		.4byte	0xd18
 3986 0d08 1F       		.uleb128 0x1f
 3987 0d09 746D7000 		.ascii	"tmp\000"
 3988 0d0d 01       		.byte	0x1
 3989 0d0e 8B       		.byte	0x8b
 3990 0d0f 7B000000 		.4byte	0x7b
 3991 0d13 26080000 		.4byte	.LLST65
 3992 0d17 00       		.byte	0x0
 3993 0d18 21       		.uleb128 0x21
 3994 0d19 6E020000 		.4byte	.LBB66
 3995 0d1d 74020000 		.4byte	.LBE66
 3996 0d21 350D0000 		.4byte	0xd35
 3997 0d25 1F       		.uleb128 0x1f
 3998 0d26 746D7000 		.ascii	"tmp\000"
 3999 0d2a 01       		.byte	0x1
 4000 0d2b 8C       		.byte	0x8c
 4001 0d2c 7B000000 		.4byte	0x7b
 4002 0d30 39080000 		.4byte	.LLST66
 4003 0d34 00       		.byte	0x0
 4004 0d35 21       		.uleb128 0x21
 4005 0d36 86020000 		.4byte	.LBB67
 4006 0d3a 8C020000 		.4byte	.LBE67
 4007 0d3e 520D0000 		.4byte	0xd52
 4008 0d42 1F       		.uleb128 0x1f
 4009 0d43 746D7000 		.ascii	"tmp\000"
 4010 0d47 01       		.byte	0x1
 4011 0d48 8C       		.byte	0x8c
 4012 0d49 7B000000 		.4byte	0x7b
 4013 0d4d 4C080000 		.4byte	.LLST67
 4014 0d51 00       		.byte	0x0
 4015 0d52 21       		.uleb128 0x21
 4016 0d53 8E020000 		.4byte	.LBB68
 4017 0d57 94020000 		.4byte	.LBE68
 4018 0d5b 6F0D0000 		.4byte	0xd6f
 4019 0d5f 1F       		.uleb128 0x1f
 4020 0d60 746D7000 		.ascii	"tmp\000"
 4021 0d64 01       		.byte	0x1
 4022 0d65 8C       		.byte	0x8c
 4023 0d66 7B000000 		.4byte	0x7b
 4024 0d6a 6A080000 		.4byte	.LLST68
 4025 0d6e 00       		.byte	0x0
ARM GAS  C:\Users\DNIEL~1\AppData\Local\Temp\ccXtZ92a.s 			page 72


 4026 0d6f 20       		.uleb128 0x20
 4027 0d70 98000000 		.4byte	.Ldebug_ranges0+0x98
 4028 0d74 880D0000 		.4byte	0xd88
 4029 0d78 1F       		.uleb128 0x1f
 4030 0d79 746D7000 		.ascii	"tmp\000"
 4031 0d7d 01       		.byte	0x1
 4032 0d7e 8E       		.byte	0x8e
 4033 0d7f 7B000000 		.4byte	0x7b
 4034 0d83 7D080000 		.4byte	.LLST69
 4035 0d87 00       		.byte	0x0
 4036 0d88 21       		.uleb128 0x21
 4037 0d89 CC020000 		.4byte	.LBB71
 4038 0d8d EC020000 		.4byte	.LBE71
 4039 0d91 A50D0000 		.4byte	0xda5
 4040 0d95 1F       		.uleb128 0x1f
 4041 0d96 746D7000 		.ascii	"tmp\000"
 4042 0d9a 01       		.byte	0x1
 4043 0d9b 8E       		.byte	0x8e
 4044 0d9c 7B000000 		.4byte	0x7b
 4045 0da0 90080000 		.4byte	.LLST70
 4046 0da4 00       		.byte	0x0
 4047 0da5 23       		.uleb128 0x23
 4048 0da6 EC020000 		.4byte	.LBB72
 4049 0daa F0020000 		.4byte	.LBE72
 4050 0dae 1F       		.uleb128 0x1f
 4051 0daf 746D7000 		.ascii	"tmp\000"
 4052 0db3 01       		.byte	0x1
 4053 0db4 8E       		.byte	0x8e
 4054 0db5 7B000000 		.4byte	0x7b
 4055 0db9 AE080000 		.4byte	.LLST71
 4056 0dbd 00       		.byte	0x0
 4057 0dbe 00       		.byte	0x0
 4058 0dbf 24       		.uleb128 0x24
 4059 0dc0 3E020000 		.4byte	.LASF90
 4060 0dc4 01       		.byte	0x1
 4061 0dc5 4E       		.byte	0x4e
 4062 0dc6 01       		.byte	0x1
 4063 0dc7 00000000 		.4byte	.LFB8
 4064 0dcb 28000000 		.4byte	.LFE8
 4065 0dcf C1080000 		.4byte	.LLST72
 4066 0dd3 25       		.uleb128 0x25
 4067 0dd4 AB030000 		.4byte	.LASF91
 4068 0dd8 08       		.byte	0x8
 4069 0dd9 6F       		.byte	0x6f
 4070 0dda C3030000 		.4byte	0x3c3
 4071 0dde 01       		.byte	0x1
 4072 0ddf 01       		.byte	0x1
 4073 0de0 15       		.uleb128 0x15
 4074 0de1 65020000 		.4byte	0x265
 4075 0de5 F00D0000 		.4byte	0xdf0
 4076 0de9 16       		.uleb128 0x16
 4077 0dea 3B000000 		.4byte	0x3b
 4078 0dee 04       		.byte	0x4
 4079 0def 00       		.byte	0x0
 4080 0df0 25       		.uleb128 0x25
 4081 0df1 BF020000 		.4byte	.LASF92
 4082 0df5 0B       		.byte	0xb
ARM GAS  C:\Users\DNIEL~1\AppData\Local\Temp\ccXtZ92a.s 			page 73


 4083 0df6 A5       		.byte	0xa5
 4084 0df7 E00D0000 		.4byte	0xde0
 4085 0dfb 01       		.byte	0x1
 4086 0dfc 01       		.byte	0x1
 4087 0dfd 25       		.uleb128 0x25
 4088 0dfe 65000000 		.4byte	.LASF93
 4089 0e02 0B       		.byte	0xb
 4090 0e03 A6       		.byte	0xa6
 4091 0e04 D6050000 		.4byte	0x5d6
 4092 0e08 01       		.byte	0x1
 4093 0e09 01       		.byte	0x1
 4094 0e0a 15       		.uleb128 0x15
 4095 0e0b A3020000 		.4byte	0x2a3
 4096 0e0f 150E0000 		.4byte	0xe15
 4097 0e13 26       		.uleb128 0x26
 4098 0e14 00       		.byte	0x0
 4099 0e15 27       		.uleb128 0x27
 4100 0e16 776100   		.ascii	"wa\000"
 4101 0e19 0B       		.byte	0xb
 4102 0e1a A7       		.byte	0xa7
 4103 0e1b 210E0000 		.4byte	0xe21
 4104 0e1f 01       		.byte	0x1
 4105 0e20 01       		.byte	0x1
 4106 0e21 10       		.uleb128 0x10
 4107 0e22 0A0E0000 		.4byte	0xe0a
 4108 0e26 28       		.uleb128 0x28
 4109 0e27 697100   		.ascii	"iq\000"
 4110 0e2a 01       		.byte	0x1
 4111 0e2b 42       		.byte	0x42
 4112 0e2c 14050000 		.4byte	0x514
 4113 0e30 05       		.byte	0x5
 4114 0e31 03       		.byte	0x3
 4115 0e32 00000000 		.4byte	iq
 4116 0e36 28       		.uleb128 0x28
 4117 0e37 6F7100   		.ascii	"oq\000"
 4118 0e3a 01       		.byte	0x1
 4119 0e3b 43       		.byte	0x43
 4120 0e3c 1F050000 		.4byte	0x51f
 4121 0e40 05       		.byte	0x5
 4122 0e41 03       		.byte	0x3
 4123 0e42 00000000 		.4byte	oq
 4124 0e46 25       		.uleb128 0x25
 4125 0e47 73010000 		.4byte	.LASF94
 4126 0e4b 01       		.byte	0x1
 4127 0e4c 95       		.byte	0x95
 4128 0e4d 530E0000 		.4byte	0xe53
 4129 0e51 01       		.byte	0x1
 4130 0e52 01       		.byte	0x1
 4131 0e53 10       		.uleb128 0x10
 4132 0e54 2A050000 		.4byte	0x52a
 4133 0e58 25       		.uleb128 0x25
 4134 0e59 EF010000 		.4byte	.LASF95
 4135 0e5d 01       		.byte	0x1
 4136 0e5e E3       		.byte	0xe3
 4137 0e5f 530E0000 		.4byte	0xe53
 4138 0e63 01       		.byte	0x1
 4139 0e64 01       		.byte	0x1
ARM GAS  C:\Users\DNIEL~1\AppData\Local\Temp\ccXtZ92a.s 			page 74


 4140 0e65 25       		.uleb128 0x25
 4141 0e66 AB030000 		.4byte	.LASF91
 4142 0e6a 08       		.byte	0x8
 4143 0e6b 6F       		.byte	0x6f
 4144 0e6c C3030000 		.4byte	0x3c3
 4145 0e70 01       		.byte	0x1
 4146 0e71 01       		.byte	0x1
 4147 0e72 25       		.uleb128 0x25
 4148 0e73 BF020000 		.4byte	.LASF92
 4149 0e77 0B       		.byte	0xb
 4150 0e78 A5       		.byte	0xa5
 4151 0e79 E00D0000 		.4byte	0xde0
 4152 0e7d 01       		.byte	0x1
 4153 0e7e 01       		.byte	0x1
 4154 0e7f 25       		.uleb128 0x25
 4155 0e80 65000000 		.4byte	.LASF93
 4156 0e84 0B       		.byte	0xb
 4157 0e85 A6       		.byte	0xa6
 4158 0e86 D6050000 		.4byte	0x5d6
 4159 0e8a 01       		.byte	0x1
 4160 0e8b 01       		.byte	0x1
 4161 0e8c 27       		.uleb128 0x27
 4162 0e8d 776100   		.ascii	"wa\000"
 4163 0e90 0B       		.byte	0xb
 4164 0e91 A7       		.byte	0xa7
 4165 0e92 980E0000 		.4byte	0xe98
 4166 0e96 01       		.byte	0x1
 4167 0e97 01       		.byte	0x1
 4168 0e98 10       		.uleb128 0x10
 4169 0e99 0A0E0000 		.4byte	0xe0a
 4170 0e9d 29       		.uleb128 0x29
 4171 0e9e 73010000 		.4byte	.LASF94
 4172 0ea2 01       		.byte	0x1
 4173 0ea3 95       		.byte	0x95
 4174 0ea4 530E0000 		.4byte	0xe53
 4175 0ea8 01       		.byte	0x1
 4176 0ea9 05       		.byte	0x5
 4177 0eaa 03       		.byte	0x3
 4178 0eab 00000000 		.4byte	testqueues1
 4179 0eaf 29       		.uleb128 0x29
 4180 0eb0 EF010000 		.4byte	.LASF95
 4181 0eb4 01       		.byte	0x1
 4182 0eb5 E3       		.byte	0xe3
 4183 0eb6 530E0000 		.4byte	0xe53
 4184 0eba 01       		.byte	0x1
 4185 0ebb 05       		.byte	0x5
 4186 0ebc 03       		.byte	0x3
 4187 0ebd 00000000 		.4byte	testqueues2
 4188 0ec1 15       		.uleb128 0x15
 4189 0ec2 D10E0000 		.4byte	0xed1
 4190 0ec6 D10E0000 		.4byte	0xed1
 4191 0eca 16       		.uleb128 0x16
 4192 0ecb 3B000000 		.4byte	0x3b
 4193 0ecf 02       		.byte	0x2
 4194 0ed0 00       		.byte	0x0
 4195 0ed1 09       		.uleb128 0x9
 4196 0ed2 04       		.byte	0x4
ARM GAS  C:\Users\DNIEL~1\AppData\Local\Temp\ccXtZ92a.s 			page 75


 4197 0ed3 530E0000 		.4byte	0xe53
 4198 0ed7 29       		.uleb128 0x29
 4199 0ed8 29000000 		.4byte	.LASF96
 4200 0edc 01       		.byte	0x1
 4201 0edd EE       		.byte	0xee
 4202 0ede E90E0000 		.4byte	0xee9
 4203 0ee2 01       		.byte	0x1
 4204 0ee3 05       		.byte	0x5
 4205 0ee4 03       		.byte	0x3
 4206 0ee5 00000000 		.4byte	patternqueues
 4207 0ee9 10       		.uleb128 0x10
 4208 0eea C10E0000 		.4byte	0xec1
 4209 0eee 00       		.byte	0x0
 4210              		.section	.debug_abbrev
 4211 0000 01       		.uleb128 0x1
 4212 0001 11       		.uleb128 0x11
 4213 0002 01       		.byte	0x1
 4214 0003 25       		.uleb128 0x25
 4215 0004 0E       		.uleb128 0xe
 4216 0005 13       		.uleb128 0x13
 4217 0006 0B       		.uleb128 0xb
 4218 0007 03       		.uleb128 0x3
 4219 0008 0E       		.uleb128 0xe
 4220 0009 1B       		.uleb128 0x1b
 4221 000a 0E       		.uleb128 0xe
 4222 000b 11       		.uleb128 0x11
 4223 000c 01       		.uleb128 0x1
 4224 000d 52       		.uleb128 0x52
 4225 000e 01       		.uleb128 0x1
 4226 000f 55       		.uleb128 0x55
 4227 0010 06       		.uleb128 0x6
 4228 0011 10       		.uleb128 0x10
 4229 0012 06       		.uleb128 0x6
 4230 0013 00       		.byte	0x0
 4231 0014 00       		.byte	0x0
 4232 0015 02       		.uleb128 0x2
 4233 0016 24       		.uleb128 0x24
 4234 0017 00       		.byte	0x0
 4235 0018 0B       		.uleb128 0xb
 4236 0019 0B       		.uleb128 0xb
 4237 001a 3E       		.uleb128 0x3e
 4238 001b 0B       		.uleb128 0xb
 4239 001c 03       		.uleb128 0x3
 4240 001d 08       		.uleb128 0x8
 4241 001e 00       		.byte	0x0
 4242 001f 00       		.byte	0x0
 4243 0020 03       		.uleb128 0x3
 4244 0021 16       		.uleb128 0x16
 4245 0022 00       		.byte	0x0
 4246 0023 03       		.uleb128 0x3
 4247 0024 0E       		.uleb128 0xe
 4248 0025 3A       		.uleb128 0x3a
 4249 0026 0B       		.uleb128 0xb
 4250 0027 3B       		.uleb128 0x3b
 4251 0028 0B       		.uleb128 0xb
 4252 0029 49       		.uleb128 0x49
 4253 002a 13       		.uleb128 0x13
ARM GAS  C:\Users\DNIEL~1\AppData\Local\Temp\ccXtZ92a.s 			page 76


 4254 002b 00       		.byte	0x0
 4255 002c 00       		.byte	0x0
 4256 002d 04       		.uleb128 0x4
 4257 002e 24       		.uleb128 0x24
 4258 002f 00       		.byte	0x0
 4259 0030 0B       		.uleb128 0xb
 4260 0031 0B       		.uleb128 0xb
 4261 0032 3E       		.uleb128 0x3e
 4262 0033 0B       		.uleb128 0xb
 4263 0034 03       		.uleb128 0x3
 4264 0035 0E       		.uleb128 0xe
 4265 0036 00       		.byte	0x0
 4266 0037 00       		.byte	0x0
 4267 0038 05       		.uleb128 0x5
 4268 0039 13       		.uleb128 0x13
 4269 003a 01       		.byte	0x1
 4270 003b 03       		.uleb128 0x3
 4271 003c 0E       		.uleb128 0xe
 4272 003d 0B       		.uleb128 0xb
 4273 003e 0B       		.uleb128 0xb
 4274 003f 3A       		.uleb128 0x3a
 4275 0040 0B       		.uleb128 0xb
 4276 0041 3B       		.uleb128 0x3b
 4277 0042 0B       		.uleb128 0xb
 4278 0043 01       		.uleb128 0x1
 4279 0044 13       		.uleb128 0x13
 4280 0045 00       		.byte	0x0
 4281 0046 00       		.byte	0x0
 4282 0047 06       		.uleb128 0x6
 4283 0048 0D       		.uleb128 0xd
 4284 0049 00       		.byte	0x0
 4285 004a 03       		.uleb128 0x3
 4286 004b 0E       		.uleb128 0xe
 4287 004c 3A       		.uleb128 0x3a
 4288 004d 0B       		.uleb128 0xb
 4289 004e 3B       		.uleb128 0x3b
 4290 004f 0B       		.uleb128 0xb
 4291 0050 49       		.uleb128 0x49
 4292 0051 13       		.uleb128 0x13
 4293 0052 38       		.uleb128 0x38
 4294 0053 0A       		.uleb128 0xa
 4295 0054 00       		.byte	0x0
 4296 0055 00       		.byte	0x0
 4297 0056 07       		.uleb128 0x7
 4298 0057 0D       		.uleb128 0xd
 4299 0058 00       		.byte	0x0
 4300 0059 03       		.uleb128 0x3
 4301 005a 08       		.uleb128 0x8
 4302 005b 3A       		.uleb128 0x3a
 4303 005c 0B       		.uleb128 0xb
 4304 005d 3B       		.uleb128 0x3b
 4305 005e 0B       		.uleb128 0xb
 4306 005f 49       		.uleb128 0x49
 4307 0060 13       		.uleb128 0x13
 4308 0061 38       		.uleb128 0x38
 4309 0062 0A       		.uleb128 0xa
 4310 0063 00       		.byte	0x0
ARM GAS  C:\Users\DNIEL~1\AppData\Local\Temp\ccXtZ92a.s 			page 77


 4311 0064 00       		.byte	0x0
 4312 0065 08       		.uleb128 0x8
 4313 0066 13       		.uleb128 0x13
 4314 0067 01       		.byte	0x1
 4315 0068 0B       		.uleb128 0xb
 4316 0069 0B       		.uleb128 0xb
 4317 006a 3A       		.uleb128 0x3a
 4318 006b 0B       		.uleb128 0xb
 4319 006c 3B       		.uleb128 0x3b
 4320 006d 0B       		.uleb128 0xb
 4321 006e 01       		.uleb128 0x1
 4322 006f 13       		.uleb128 0x13
 4323 0070 00       		.byte	0x0
 4324 0071 00       		.byte	0x0
 4325 0072 09       		.uleb128 0x9
 4326 0073 0F       		.uleb128 0xf
 4327 0074 00       		.byte	0x0
 4328 0075 0B       		.uleb128 0xb
 4329 0076 0B       		.uleb128 0xb
 4330 0077 49       		.uleb128 0x49
 4331 0078 13       		.uleb128 0x13
 4332 0079 00       		.byte	0x0
 4333 007a 00       		.byte	0x0
 4334 007b 0A       		.uleb128 0xa
 4335 007c 0F       		.uleb128 0xf
 4336 007d 00       		.byte	0x0
 4337 007e 0B       		.uleb128 0xb
 4338 007f 0B       		.uleb128 0xb
 4339 0080 00       		.byte	0x0
 4340 0081 00       		.byte	0x0
 4341 0082 0B       		.uleb128 0xb
 4342 0083 13       		.uleb128 0x13
 4343 0084 01       		.byte	0x1
 4344 0085 03       		.uleb128 0x3
 4345 0086 0E       		.uleb128 0xe
 4346 0087 0B       		.uleb128 0xb
 4347 0088 0B       		.uleb128 0xb
 4348 0089 3A       		.uleb128 0x3a
 4349 008a 0B       		.uleb128 0xb
 4350 008b 3B       		.uleb128 0x3b
 4351 008c 05       		.uleb128 0x5
 4352 008d 01       		.uleb128 0x1
 4353 008e 13       		.uleb128 0x13
 4354 008f 00       		.byte	0x0
 4355 0090 00       		.byte	0x0
 4356 0091 0C       		.uleb128 0xc
 4357 0092 0D       		.uleb128 0xd
 4358 0093 00       		.byte	0x0
 4359 0094 03       		.uleb128 0x3
 4360 0095 08       		.uleb128 0x8
 4361 0096 3A       		.uleb128 0x3a
 4362 0097 0B       		.uleb128 0xb
 4363 0098 3B       		.uleb128 0x3b
 4364 0099 05       		.uleb128 0x5
 4365 009a 49       		.uleb128 0x49
 4366 009b 13       		.uleb128 0x13
 4367 009c 38       		.uleb128 0x38
ARM GAS  C:\Users\DNIEL~1\AppData\Local\Temp\ccXtZ92a.s 			page 78


 4368 009d 0A       		.uleb128 0xa
 4369 009e 00       		.byte	0x0
 4370 009f 00       		.byte	0x0
 4371 00a0 0D       		.uleb128 0xd
 4372 00a1 35       		.uleb128 0x35
 4373 00a2 00       		.byte	0x0
 4374 00a3 49       		.uleb128 0x49
 4375 00a4 13       		.uleb128 0x13
 4376 00a5 00       		.byte	0x0
 4377 00a6 00       		.byte	0x0
 4378 00a7 0E       		.uleb128 0xe
 4379 00a8 17       		.uleb128 0x17
 4380 00a9 01       		.byte	0x1
 4381 00aa 0B       		.uleb128 0xb
 4382 00ab 0B       		.uleb128 0xb
 4383 00ac 3A       		.uleb128 0x3a
 4384 00ad 0B       		.uleb128 0xb
 4385 00ae 3B       		.uleb128 0x3b
 4386 00af 0B       		.uleb128 0xb
 4387 00b0 01       		.uleb128 0x1
 4388 00b1 13       		.uleb128 0x13
 4389 00b2 00       		.byte	0x0
 4390 00b3 00       		.byte	0x0
 4391 00b4 0F       		.uleb128 0xf
 4392 00b5 0D       		.uleb128 0xd
 4393 00b6 00       		.byte	0x0
 4394 00b7 03       		.uleb128 0x3
 4395 00b8 0E       		.uleb128 0xe
 4396 00b9 3A       		.uleb128 0x3a
 4397 00ba 0B       		.uleb128 0xb
 4398 00bb 3B       		.uleb128 0x3b
 4399 00bc 0B       		.uleb128 0xb
 4400 00bd 49       		.uleb128 0x49
 4401 00be 13       		.uleb128 0x13
 4402 00bf 00       		.byte	0x0
 4403 00c0 00       		.byte	0x0
 4404 00c1 10       		.uleb128 0x10
 4405 00c2 26       		.uleb128 0x26
 4406 00c3 00       		.byte	0x0
 4407 00c4 49       		.uleb128 0x49
 4408 00c5 13       		.uleb128 0x13
 4409 00c6 00       		.byte	0x0
 4410 00c7 00       		.byte	0x0
 4411 00c8 11       		.uleb128 0x11
 4412 00c9 15       		.uleb128 0x15
 4413 00ca 01       		.byte	0x1
 4414 00cb 27       		.uleb128 0x27
 4415 00cc 0C       		.uleb128 0xc
 4416 00cd 01       		.uleb128 0x1
 4417 00ce 13       		.uleb128 0x13
 4418 00cf 00       		.byte	0x0
 4419 00d0 00       		.byte	0x0
 4420 00d1 12       		.uleb128 0x12
 4421 00d2 05       		.uleb128 0x5
 4422 00d3 00       		.byte	0x0
 4423 00d4 49       		.uleb128 0x49
 4424 00d5 13       		.uleb128 0x13
ARM GAS  C:\Users\DNIEL~1\AppData\Local\Temp\ccXtZ92a.s 			page 79


 4425 00d6 00       		.byte	0x0
 4426 00d7 00       		.byte	0x0
 4427 00d8 13       		.uleb128 0x13
 4428 00d9 15       		.uleb128 0x15
 4429 00da 00       		.byte	0x0
 4430 00db 27       		.uleb128 0x27
 4431 00dc 0C       		.uleb128 0xc
 4432 00dd 00       		.byte	0x0
 4433 00de 00       		.byte	0x0
 4434 00df 14       		.uleb128 0x14
 4435 00e0 13       		.uleb128 0x13
 4436 00e1 01       		.byte	0x1
 4437 00e2 0B       		.uleb128 0xb
 4438 00e3 05       		.uleb128 0x5
 4439 00e4 3A       		.uleb128 0x3a
 4440 00e5 0B       		.uleb128 0xb
 4441 00e6 3B       		.uleb128 0x3b
 4442 00e7 0B       		.uleb128 0xb
 4443 00e8 01       		.uleb128 0x1
 4444 00e9 13       		.uleb128 0x13
 4445 00ea 00       		.byte	0x0
 4446 00eb 00       		.byte	0x0
 4447 00ec 15       		.uleb128 0x15
 4448 00ed 01       		.uleb128 0x1
 4449 00ee 01       		.byte	0x1
 4450 00ef 49       		.uleb128 0x49
 4451 00f0 13       		.uleb128 0x13
 4452 00f1 01       		.uleb128 0x1
 4453 00f2 13       		.uleb128 0x13
 4454 00f3 00       		.byte	0x0
 4455 00f4 00       		.byte	0x0
 4456 00f5 16       		.uleb128 0x16
 4457 00f6 21       		.uleb128 0x21
 4458 00f7 00       		.byte	0x0
 4459 00f8 49       		.uleb128 0x49
 4460 00f9 13       		.uleb128 0x13
 4461 00fa 2F       		.uleb128 0x2f
 4462 00fb 0B       		.uleb128 0xb
 4463 00fc 00       		.byte	0x0
 4464 00fd 00       		.byte	0x0
 4465 00fe 17       		.uleb128 0x17
 4466 00ff 17       		.uleb128 0x17
 4467 0100 01       		.byte	0x1
 4468 0101 03       		.uleb128 0x3
 4469 0102 0E       		.uleb128 0xe
 4470 0103 0B       		.uleb128 0xb
 4471 0104 05       		.uleb128 0x5
 4472 0105 3A       		.uleb128 0x3a
 4473 0106 0B       		.uleb128 0xb
 4474 0107 3B       		.uleb128 0x3b
 4475 0108 0B       		.uleb128 0xb
 4476 0109 01       		.uleb128 0x1
 4477 010a 13       		.uleb128 0x13
 4478 010b 00       		.byte	0x0
 4479 010c 00       		.byte	0x0
 4480 010d 18       		.uleb128 0x18
 4481 010e 0D       		.uleb128 0xd
ARM GAS  C:\Users\DNIEL~1\AppData\Local\Temp\ccXtZ92a.s 			page 80


 4482 010f 00       		.byte	0x0
 4483 0110 03       		.uleb128 0x3
 4484 0111 08       		.uleb128 0x8
 4485 0112 3A       		.uleb128 0x3a
 4486 0113 0B       		.uleb128 0xb
 4487 0114 3B       		.uleb128 0x3b
 4488 0115 0B       		.uleb128 0xb
 4489 0116 49       		.uleb128 0x49
 4490 0117 13       		.uleb128 0x13
 4491 0118 00       		.byte	0x0
 4492 0119 00       		.byte	0x0
 4493 011a 19       		.uleb128 0x19
 4494 011b 21       		.uleb128 0x21
 4495 011c 00       		.byte	0x0
 4496 011d 49       		.uleb128 0x49
 4497 011e 13       		.uleb128 0x13
 4498 011f 2F       		.uleb128 0x2f
 4499 0120 05       		.uleb128 0x5
 4500 0121 00       		.byte	0x0
 4501 0122 00       		.byte	0x0
 4502 0123 1A       		.uleb128 0x1a
 4503 0124 2E       		.uleb128 0x2e
 4504 0125 01       		.byte	0x1
 4505 0126 03       		.uleb128 0x3
 4506 0127 0E       		.uleb128 0xe
 4507 0128 3A       		.uleb128 0x3a
 4508 0129 0B       		.uleb128 0xb
 4509 012a 3B       		.uleb128 0x3b
 4510 012b 0B       		.uleb128 0xb
 4511 012c 27       		.uleb128 0x27
 4512 012d 0C       		.uleb128 0xc
 4513 012e 11       		.uleb128 0x11
 4514 012f 01       		.uleb128 0x1
 4515 0130 12       		.uleb128 0x12
 4516 0131 01       		.uleb128 0x1
 4517 0132 40       		.uleb128 0x40
 4518 0133 0A       		.uleb128 0xa
 4519 0134 01       		.uleb128 0x1
 4520 0135 13       		.uleb128 0x13
 4521 0136 00       		.byte	0x0
 4522 0137 00       		.byte	0x0
 4523 0138 1B       		.uleb128 0x1b
 4524 0139 05       		.uleb128 0x5
 4525 013a 00       		.byte	0x0
 4526 013b 03       		.uleb128 0x3
 4527 013c 08       		.uleb128 0x8
 4528 013d 3A       		.uleb128 0x3a
 4529 013e 0B       		.uleb128 0xb
 4530 013f 3B       		.uleb128 0x3b
 4531 0140 0B       		.uleb128 0xb
 4532 0141 49       		.uleb128 0x49
 4533 0142 13       		.uleb128 0x13
 4534 0143 02       		.uleb128 0x2
 4535 0144 0A       		.uleb128 0xa
 4536 0145 00       		.byte	0x0
 4537 0146 00       		.byte	0x0
 4538 0147 1C       		.uleb128 0x1c
ARM GAS  C:\Users\DNIEL~1\AppData\Local\Temp\ccXtZ92a.s 			page 81


 4539 0148 2E       		.uleb128 0x2e
 4540 0149 01       		.byte	0x1
 4541 014a 03       		.uleb128 0x3
 4542 014b 0E       		.uleb128 0xe
 4543 014c 3A       		.uleb128 0x3a
 4544 014d 0B       		.uleb128 0xb
 4545 014e 3B       		.uleb128 0x3b
 4546 014f 0B       		.uleb128 0xb
 4547 0150 27       		.uleb128 0x27
 4548 0151 0C       		.uleb128 0xc
 4549 0152 49       		.uleb128 0x49
 4550 0153 13       		.uleb128 0x13
 4551 0154 11       		.uleb128 0x11
 4552 0155 01       		.uleb128 0x1
 4553 0156 12       		.uleb128 0x12
 4554 0157 01       		.uleb128 0x1
 4555 0158 40       		.uleb128 0x40
 4556 0159 06       		.uleb128 0x6
 4557 015a 01       		.uleb128 0x1
 4558 015b 13       		.uleb128 0x13
 4559 015c 00       		.byte	0x0
 4560 015d 00       		.byte	0x0
 4561 015e 1D       		.uleb128 0x1d
 4562 015f 05       		.uleb128 0x5
 4563 0160 00       		.byte	0x0
 4564 0161 03       		.uleb128 0x3
 4565 0162 08       		.uleb128 0x8
 4566 0163 3A       		.uleb128 0x3a
 4567 0164 0B       		.uleb128 0xb
 4568 0165 3B       		.uleb128 0x3b
 4569 0166 0B       		.uleb128 0xb
 4570 0167 49       		.uleb128 0x49
 4571 0168 13       		.uleb128 0x13
 4572 0169 02       		.uleb128 0x2
 4573 016a 06       		.uleb128 0x6
 4574 016b 00       		.byte	0x0
 4575 016c 00       		.byte	0x0
 4576 016d 1E       		.uleb128 0x1e
 4577 016e 2E       		.uleb128 0x2e
 4578 016f 01       		.byte	0x1
 4579 0170 03       		.uleb128 0x3
 4580 0171 0E       		.uleb128 0xe
 4581 0172 3A       		.uleb128 0x3a
 4582 0173 0B       		.uleb128 0xb
 4583 0174 3B       		.uleb128 0x3b
 4584 0175 0B       		.uleb128 0xb
 4585 0176 27       		.uleb128 0x27
 4586 0177 0C       		.uleb128 0xc
 4587 0178 11       		.uleb128 0x11
 4588 0179 01       		.uleb128 0x1
 4589 017a 12       		.uleb128 0x12
 4590 017b 01       		.uleb128 0x1
 4591 017c 40       		.uleb128 0x40
 4592 017d 06       		.uleb128 0x6
 4593 017e 01       		.uleb128 0x1
 4594 017f 13       		.uleb128 0x13
 4595 0180 00       		.byte	0x0
ARM GAS  C:\Users\DNIEL~1\AppData\Local\Temp\ccXtZ92a.s 			page 82


 4596 0181 00       		.byte	0x0
 4597 0182 1F       		.uleb128 0x1f
 4598 0183 34       		.uleb128 0x34
 4599 0184 00       		.byte	0x0
 4600 0185 03       		.uleb128 0x3
 4601 0186 08       		.uleb128 0x8
 4602 0187 3A       		.uleb128 0x3a
 4603 0188 0B       		.uleb128 0xb
 4604 0189 3B       		.uleb128 0x3b
 4605 018a 0B       		.uleb128 0xb
 4606 018b 49       		.uleb128 0x49
 4607 018c 13       		.uleb128 0x13
 4608 018d 02       		.uleb128 0x2
 4609 018e 06       		.uleb128 0x6
 4610 018f 00       		.byte	0x0
 4611 0190 00       		.byte	0x0
 4612 0191 20       		.uleb128 0x20
 4613 0192 0B       		.uleb128 0xb
 4614 0193 01       		.byte	0x1
 4615 0194 55       		.uleb128 0x55
 4616 0195 06       		.uleb128 0x6
 4617 0196 01       		.uleb128 0x1
 4618 0197 13       		.uleb128 0x13
 4619 0198 00       		.byte	0x0
 4620 0199 00       		.byte	0x0
 4621 019a 21       		.uleb128 0x21
 4622 019b 0B       		.uleb128 0xb
 4623 019c 01       		.byte	0x1
 4624 019d 11       		.uleb128 0x11
 4625 019e 01       		.uleb128 0x1
 4626 019f 12       		.uleb128 0x12
 4627 01a0 01       		.uleb128 0x1
 4628 01a1 01       		.uleb128 0x1
 4629 01a2 13       		.uleb128 0x13
 4630 01a3 00       		.byte	0x0
 4631 01a4 00       		.byte	0x0
 4632 01a5 22       		.uleb128 0x22
 4633 01a6 0B       		.uleb128 0xb
 4634 01a7 01       		.byte	0x1
 4635 01a8 55       		.uleb128 0x55
 4636 01a9 06       		.uleb128 0x6
 4637 01aa 00       		.byte	0x0
 4638 01ab 00       		.byte	0x0
 4639 01ac 23       		.uleb128 0x23
 4640 01ad 0B       		.uleb128 0xb
 4641 01ae 01       		.byte	0x1
 4642 01af 11       		.uleb128 0x11
 4643 01b0 01       		.uleb128 0x1
 4644 01b1 12       		.uleb128 0x12
 4645 01b2 01       		.uleb128 0x1
 4646 01b3 00       		.byte	0x0
 4647 01b4 00       		.byte	0x0
 4648 01b5 24       		.uleb128 0x24
 4649 01b6 2E       		.uleb128 0x2e
 4650 01b7 00       		.byte	0x0
 4651 01b8 03       		.uleb128 0x3
 4652 01b9 0E       		.uleb128 0xe
ARM GAS  C:\Users\DNIEL~1\AppData\Local\Temp\ccXtZ92a.s 			page 83


 4653 01ba 3A       		.uleb128 0x3a
 4654 01bb 0B       		.uleb128 0xb
 4655 01bc 3B       		.uleb128 0x3b
 4656 01bd 0B       		.uleb128 0xb
 4657 01be 27       		.uleb128 0x27
 4658 01bf 0C       		.uleb128 0xc
 4659 01c0 11       		.uleb128 0x11
 4660 01c1 01       		.uleb128 0x1
 4661 01c2 12       		.uleb128 0x12
 4662 01c3 01       		.uleb128 0x1
 4663 01c4 40       		.uleb128 0x40
 4664 01c5 06       		.uleb128 0x6
 4665 01c6 00       		.byte	0x0
 4666 01c7 00       		.byte	0x0
 4667 01c8 25       		.uleb128 0x25
 4668 01c9 34       		.uleb128 0x34
 4669 01ca 00       		.byte	0x0
 4670 01cb 03       		.uleb128 0x3
 4671 01cc 0E       		.uleb128 0xe
 4672 01cd 3A       		.uleb128 0x3a
 4673 01ce 0B       		.uleb128 0xb
 4674 01cf 3B       		.uleb128 0x3b
 4675 01d0 0B       		.uleb128 0xb
 4676 01d1 49       		.uleb128 0x49
 4677 01d2 13       		.uleb128 0x13
 4678 01d3 3F       		.uleb128 0x3f
 4679 01d4 0C       		.uleb128 0xc
 4680 01d5 3C       		.uleb128 0x3c
 4681 01d6 0C       		.uleb128 0xc
 4682 01d7 00       		.byte	0x0
 4683 01d8 00       		.byte	0x0
 4684 01d9 26       		.uleb128 0x26
 4685 01da 21       		.uleb128 0x21
 4686 01db 00       		.byte	0x0
 4687 01dc 00       		.byte	0x0
 4688 01dd 00       		.byte	0x0
 4689 01de 27       		.uleb128 0x27
 4690 01df 34       		.uleb128 0x34
 4691 01e0 00       		.byte	0x0
 4692 01e1 03       		.uleb128 0x3
 4693 01e2 08       		.uleb128 0x8
 4694 01e3 3A       		.uleb128 0x3a
 4695 01e4 0B       		.uleb128 0xb
 4696 01e5 3B       		.uleb128 0x3b
 4697 01e6 0B       		.uleb128 0xb
 4698 01e7 49       		.uleb128 0x49
 4699 01e8 13       		.uleb128 0x13
 4700 01e9 3F       		.uleb128 0x3f
 4701 01ea 0C       		.uleb128 0xc
 4702 01eb 3C       		.uleb128 0x3c
 4703 01ec 0C       		.uleb128 0xc
 4704 01ed 00       		.byte	0x0
 4705 01ee 00       		.byte	0x0
 4706 01ef 28       		.uleb128 0x28
 4707 01f0 34       		.uleb128 0x34
 4708 01f1 00       		.byte	0x0
 4709 01f2 03       		.uleb128 0x3
ARM GAS  C:\Users\DNIEL~1\AppData\Local\Temp\ccXtZ92a.s 			page 84


 4710 01f3 08       		.uleb128 0x8
 4711 01f4 3A       		.uleb128 0x3a
 4712 01f5 0B       		.uleb128 0xb
 4713 01f6 3B       		.uleb128 0x3b
 4714 01f7 0B       		.uleb128 0xb
 4715 01f8 49       		.uleb128 0x49
 4716 01f9 13       		.uleb128 0x13
 4717 01fa 02       		.uleb128 0x2
 4718 01fb 0A       		.uleb128 0xa
 4719 01fc 00       		.byte	0x0
 4720 01fd 00       		.byte	0x0
 4721 01fe 29       		.uleb128 0x29
 4722 01ff 34       		.uleb128 0x34
 4723 0200 00       		.byte	0x0
 4724 0201 03       		.uleb128 0x3
 4725 0202 0E       		.uleb128 0xe
 4726 0203 3A       		.uleb128 0x3a
 4727 0204 0B       		.uleb128 0xb
 4728 0205 3B       		.uleb128 0x3b
 4729 0206 0B       		.uleb128 0xb
 4730 0207 49       		.uleb128 0x49
 4731 0208 13       		.uleb128 0x13
 4732 0209 3F       		.uleb128 0x3f
 4733 020a 0C       		.uleb128 0xc
 4734 020b 02       		.uleb128 0x2
 4735 020c 0A       		.uleb128 0xa
 4736 020d 00       		.byte	0x0
 4737 020e 00       		.byte	0x0
 4738 020f 00       		.byte	0x0
 4739              		.section	.debug_pubnames,"",%progbits
 4740 0000 40000000 		.4byte	0x40
 4741 0004 0200     		.2byte	0x2
 4742 0006 00000000 		.4byte	.Ldebug_info0
 4743 000a EF0E0000 		.4byte	0xeef
 4744 000e 9D0E0000 		.4byte	0xe9d
 4745 0012 74657374 		.ascii	"testqueues1\000"
 4745      71756575 
 4745      65733100 
 4746 001e AF0E0000 		.4byte	0xeaf
 4747 0022 74657374 		.ascii	"testqueues2\000"
 4747      71756575 
 4747      65733200 
 4748 002e D70E0000 		.4byte	0xed7
 4749 0032 70617474 		.ascii	"patternqueues\000"
 4749      65726E71 
 4749      75657565 
 4749      7300
 4750 0040 00000000 		.4byte	0x0
 4751              		.section	.debug_pubtypes,"",%progbits
 4752 0000 B6010000 		.4byte	0x1b6
 4753 0004 0200     		.2byte	0x2
 4754 0006 00000000 		.4byte	.Ldebug_info0
 4755 000a EF0E0000 		.4byte	0xeef
 4756 000e 30000000 		.4byte	0x30
 4757 0012 73697A65 		.ascii	"size_t\000"
 4757      5F7400
 4758 0019 49000000 		.4byte	0x49
ARM GAS  C:\Users\DNIEL~1\AppData\Local\Temp\ccXtZ92a.s 			page 85


 4759 001d 75696E74 		.ascii	"uint8_t\000"
 4759      385F7400 
 4760 0025 69000000 		.4byte	0x69
 4761 0029 696E7433 		.ascii	"int32_t\000"
 4761      325F7400 
 4762 0031 7B000000 		.4byte	0x7b
 4763 0035 75696E74 		.ascii	"uint32_t\000"
 4763      33325F74 
 4763      00
 4764 003e 94000000 		.4byte	0x94
 4765 0042 75696E74 		.ascii	"uint64_t\000"
 4765      36345F74 
 4765      00
 4766 004b A6000000 		.4byte	0xa6
 4767 004f 626F6F6C 		.ascii	"bool_t\000"
 4767      5F7400
 4768 0056 B8000000 		.4byte	0xb8
 4769 005a 746D6F64 		.ascii	"tmode_t\000"
 4769      655F7400 
 4770 0062 C3000000 		.4byte	0xc3
 4771 0066 74737461 		.ascii	"tstate_t\000"
 4771      74655F74 
 4771      00
 4772 006f CE000000 		.4byte	0xce
 4773 0073 74726566 		.ascii	"trefs_t\000"
 4773      735F7400 
 4774 007b D9000000 		.4byte	0xd9
 4775 007f 74736C69 		.ascii	"tslices_t\000"
 4775      6365735F 
 4775      7400
 4776 0089 E4000000 		.4byte	0xe4
 4777 008d 74707269 		.ascii	"tprio_t\000"
 4777      6F5F7400 
 4778 0095 EF000000 		.4byte	0xef
 4779 0099 6D73675F 		.ascii	"msg_t\000"
 4779      7400
 4780 009f FA000000 		.4byte	0xfa
 4781 00a3 6576656E 		.ascii	"eventmask_t\000"
 4781      746D6173 
 4781      6B5F7400 
 4782 00af 05010000 		.4byte	0x105
 4783 00b3 73797374 		.ascii	"systime_t\000"
 4783      696D655F 
 4783      7400
 4784 00bd 10010000 		.4byte	0x110
 4785 00c1 54687265 		.ascii	"Thread\000"
 4785      616400
 4786 00c8 6B020000 		.4byte	0x26b
 4787 00cc 54687265 		.ascii	"ThreadsQueue\000"
 4787      61647351 
 4787      75657565 
 4787      00
 4788 00d9 8D020000 		.4byte	0x28d
 4789 00dd 54687265 		.ascii	"ThreadsList\000"
 4789      6164734C 
 4789      69737400 
 4790 00e9 98020000 		.4byte	0x298
ARM GAS  C:\Users\DNIEL~1\AppData\Local\Temp\ccXtZ92a.s 			page 86


 4791 00ed 72656761 		.ascii	"regarm_t\000"
 4791      726D5F74 
 4791      00
 4792 00f6 A5020000 		.4byte	0x2a5
 4793 00fa 73746B61 		.ascii	"stkalign_t\000"
 4793      6C69676E 
 4793      5F7400
 4794 0105 B0020000 		.4byte	0x2b0
 4795 0109 696E7463 		.ascii	"intctx\000"
 4795      747800
 4796 0110 3E030000 		.4byte	0x33e
 4797 0114 636F6E74 		.ascii	"context\000"
 4797      65787400 
 4798 011c C3030000 		.4byte	0x3c3
 4799 0120 52656164 		.ascii	"ReadyList\000"
 4799      794C6973 
 4799      7400
 4800 012a CE030000 		.4byte	0x3ce
 4801 012e 4D757465 		.ascii	"Mutex\000"
 4801      7800
 4802 0134 0B040000 		.4byte	0x40b
 4803 0138 4D757465 		.ascii	"Mutex\000"
 4803      7800
 4804 013e 1B010000 		.4byte	0x11b
 4805 0142 54687265 		.ascii	"Thread\000"
 4805      616400
 4806 0149 63040000 		.4byte	0x463
 4807 014d 47656E65 		.ascii	"GenericQueue\000"
 4807      72696351 
 4807      75657565 
 4807      00
 4808 015a EB040000 		.4byte	0x4eb
 4809 015e 716E6F74 		.ascii	"qnotify_t\000"
 4809      6966795F 
 4809      7400
 4810 0168 6E040000 		.4byte	0x46e
 4811 016c 47656E65 		.ascii	"GenericQueue\000"
 4811      72696351 
 4811      75657565 
 4811      00
 4812 0179 14050000 		.4byte	0x514
 4813 017d 496E7075 		.ascii	"InputQueue\000"
 4813      74517565 
 4813      756500
 4814 0188 1F050000 		.4byte	0x51f
 4815 018c 4F757470 		.ascii	"OutputQueue\000"
 4815      75745175 
 4815      65756500 
 4816 0198 2A050000 		.4byte	0x52a
 4817 019c 74657374 		.ascii	"testcase\000"
 4817      63617365 
 4817      00
 4818 01a5 D6050000 		.4byte	0x5d6
 4819 01a9 74657374 		.ascii	"test_buffers\000"
 4819      5F627566 
 4819      66657273 
 4819      00
ARM GAS  C:\Users\DNIEL~1\AppData\Local\Temp\ccXtZ92a.s 			page 87


 4820 01b6 00000000 		.4byte	0x0
 4821              		.section	.debug_aranges,"",%progbits
 4822 0000 4C000000 		.4byte	0x4c
 4823 0004 0200     		.2byte	0x2
 4824 0006 00000000 		.4byte	.Ldebug_info0
 4825 000a 04       		.byte	0x4
 4826 000b 00       		.byte	0x0
 4827 000c 0000     		.2byte	0x0
 4828 000e 0000     		.2byte	0x0
 4829 0010 00000000 		.4byte	.LFB7
 4830 0014 02000000 		.4byte	.LFE7-.LFB7
 4831 0018 00000000 		.4byte	.LFB12
 4832 001c 14000000 		.4byte	.LFE12-.LFB12
 4833 0020 00000000 		.4byte	.LFB13
 4834 0024 F0020000 		.4byte	.LFE13-.LFB13
 4835 0028 00000000 		.4byte	.LFB11
 4836 002c 28000000 		.4byte	.LFE11-.LFB11
 4837 0030 00000000 		.4byte	.LFB9
 4838 0034 14000000 		.4byte	.LFE9-.LFB9
 4839 0038 00000000 		.4byte	.LFB10
 4840 003c 18030000 		.4byte	.LFE10-.LFB10
 4841 0040 00000000 		.4byte	.LFB8
 4842 0044 28000000 		.4byte	.LFE8-.LFB8
 4843 0048 00000000 		.4byte	0x0
 4844 004c 00000000 		.4byte	0x0
 4845              		.section	.debug_ranges,"",%progbits
 4846              	.Ldebug_ranges0:
 4847 0000 04000000 		.4byte	.LBB2
 4848 0004 06000000 		.4byte	.LBE2
 4849 0008 08000000 		.4byte	.LBB3
 4850 000c 0C000000 		.4byte	.LBE3
 4851 0010 00000000 		.4byte	0x0
 4852 0014 00000000 		.4byte	0x0
 4853 0018 7E000000 		.4byte	.LBB8
 4854 001c 84000000 		.4byte	.LBE8
 4855 0020 C6000000 		.4byte	.LBB14
 4856 0024 CC000000 		.4byte	.LBE14
 4857 0028 AE000000 		.4byte	.LBB12
 4858 002c B4000000 		.4byte	.LBE12
 4859 0030 96000000 		.4byte	.LBB10
 4860 0034 9C000000 		.4byte	.LBE10
 4861 0038 00000000 		.4byte	0x0
 4862 003c 00000000 		.4byte	0x0
 4863 0040 8A000000 		.4byte	.LBB9
 4864 0044 90000000 		.4byte	.LBE9
 4865 0048 D2000000 		.4byte	.LBB15
 4866 004c D8000000 		.4byte	.LBE15
 4867 0050 BA000000 		.4byte	.LBB13
 4868 0054 C0000000 		.4byte	.LBE13
 4869 0058 A2000000 		.4byte	.LBB11
 4870 005c A8000000 		.4byte	.LBE11
 4871 0060 00000000 		.4byte	0x0
 4872 0064 00000000 		.4byte	0x0
 4873 0068 CE010000 		.4byte	.LBB27
 4874 006c D0010000 		.4byte	.LBE27
 4875 0070 D2010000 		.4byte	.LBB28
 4876 0074 D6010000 		.4byte	.LBE28
ARM GAS  C:\Users\DNIEL~1\AppData\Local\Temp\ccXtZ92a.s 			page 88


 4877 0078 00000000 		.4byte	0x0
 4878 007c 00000000 		.4byte	0x0
 4879 0080 04000000 		.4byte	.LBB39
 4880 0084 06000000 		.4byte	.LBE39
 4881 0088 08000000 		.4byte	.LBB40
 4882 008c 0C000000 		.4byte	.LBE40
 4883 0090 00000000 		.4byte	0x0
 4884 0094 00000000 		.4byte	0x0
 4885 0098 AE020000 		.4byte	.LBB69
 4886 009c B0020000 		.4byte	.LBE69
 4887 00a0 B2020000 		.4byte	.LBB70
 4888 00a4 B6020000 		.4byte	.LBE70
 4889 00a8 00000000 		.4byte	0x0
 4890 00ac 00000000 		.4byte	0x0
 4891 00b0 00000000 		.4byte	.LFB7
 4892 00b4 02000000 		.4byte	.LFE7
 4893 00b8 00000000 		.4byte	.LFB12
 4894 00bc 14000000 		.4byte	.LFE12
 4895 00c0 00000000 		.4byte	.LFB13
 4896 00c4 F0020000 		.4byte	.LFE13
 4897 00c8 00000000 		.4byte	.LFB11
 4898 00cc 28000000 		.4byte	.LFE11
 4899 00d0 00000000 		.4byte	.LFB9
 4900 00d4 14000000 		.4byte	.LFE9
 4901 00d8 00000000 		.4byte	.LFB10
 4902 00dc 18030000 		.4byte	.LFE10
 4903 00e0 00000000 		.4byte	.LFB8
 4904 00e4 28000000 		.4byte	.LFE8
 4905 00e8 00000000 		.4byte	0x0
 4906 00ec 00000000 		.4byte	0x0
 4907              		.section	.debug_str,"MS",%progbits,1
 4908              	.LASF39:
 4909 0000 705F6D73 		.ascii	"p_msg\000"
 4909      6700
 4910              	.LASF2:
 4911 0006 73697A65 		.ascii	"size_t\000"
 4911      5F7400
 4912              	.LASF61:
 4913 000d 7264796D 		.ascii	"rdymsg\000"
 4913      736700
 4914              	.LASF12:
 4915 0014 75696E74 		.ascii	"uint64_t\000"
 4915      36345F74 
 4915      00
 4916              	.LASF77:
 4917 001d 4F757470 		.ascii	"OutputQueue\000"
 4917      75745175 
 4917      65756500 
 4918              	.LASF96:
 4919 0029 70617474 		.ascii	"patternqueues\000"
 4919      65726E71 
 4919      75657565 
 4919      7300
 4920              	.LASF13:
 4921 0037 6C6F6E67 		.ascii	"long long unsigned int\000"
 4921      206C6F6E 
 4921      6720756E 
ARM GAS  C:\Users\DNIEL~1\AppData\Local\Temp\ccXtZ92a.s 			page 89


 4921      7369676E 
 4921      65642069 
 4922              	.LASF62:
 4923 004e 65786974 		.ascii	"exitcode\000"
 4923      636F6465 
 4923      00
 4924              	.LASF89:
 4925 0057 71756575 		.ascii	"queues2_setup\000"
 4925      6573325F 
 4925      73657475 
 4925      7000
 4926              	.LASF93:
 4927 0065 74657374 		.ascii	"test\000"
 4927      00
 4928              	.LASF27:
 4929 006a 705F7072 		.ascii	"p_prio\000"
 4929      696F00
 4930              	.LASF67:
 4931 0071 715F7761 		.ascii	"q_waiting\000"
 4931      6974696E 
 4931      6700
 4932              	.LASF11:
 4933 007b 6C6F6E67 		.ascii	"long long int\000"
 4933      206C6F6E 
 4933      6720696E 
 4933      7400
 4934              	.LASF1:
 4935 0089 7369676E 		.ascii	"signed char\000"
 4935      65642063 
 4935      68617200 
 4936              	.LASF43:
 4937 0095 705F6D70 		.ascii	"p_mpool\000"
 4937      6F6F6C00 
 4938              	.LASF14:
 4939 009d 626F6F6C 		.ascii	"bool_t\000"
 4939      5F7400
 4940              	.LASF58:
 4941 00a4 6D5F7175 		.ascii	"m_queue\000"
 4941      65756500 
 4942              	.LASF99:
 4943 00ac 433A5C44 		.ascii	"C:\\Dani\\MegaLux\\Repo\\Smarty\\Smarty\\smarty\\fi"
 4943      616E695C 
 4943      4D656761 
 4943      4C75785C 
 4943      5265706F 
 4944 00d8 726D7761 		.ascii	"rmware\000"
 4944      726500
 4945              	.LASF8:
 4946 00df 6C6F6E67 		.ascii	"long int\000"
 4946      20696E74 
 4946      00
 4947              	.LASF17:
 4948 00e8 74737461 		.ascii	"tstate_t\000"
 4948      74655F74 
 4948      00
 4949              	.LASF69:
 4950 00f1 715F6275 		.ascii	"q_buffer\000"
ARM GAS  C:\Users\DNIEL~1\AppData\Local\Temp\ccXtZ92a.s 			page 90


 4950      66666572 
 4950      00
 4951              	.LASF71:
 4952 00fa 715F7772 		.ascii	"q_wrptr\000"
 4952      70747200 
 4953              	.LASF29:
 4954 0102 705F6E65 		.ascii	"p_newer\000"
 4954      77657200 
 4955              	.LASF53:
 4956 010a 725F6E65 		.ascii	"r_newer\000"
 4956      77657200 
 4957              	.LASF46:
 4958 0112 72656761 		.ascii	"regarm_t\000"
 4958      726D5F74 
 4958      00
 4959              	.LASF0:
 4960 011b 756E7369 		.ascii	"unsigned int\000"
 4960      676E6564 
 4960      20696E74 
 4960      00
 4961              	.LASF10:
 4962 0128 6C6F6E67 		.ascii	"long unsigned int\000"
 4962      20756E73 
 4962      69676E65 
 4962      6420696E 
 4962      7400
 4963              	.LASF81:
 4964 013a 74656172 		.ascii	"teardown\000"
 4964      646F776E 
 4964      00
 4965              	.LASF79:
 4966 0143 6E616D65 		.ascii	"name\000"
 4966      00
 4967              	.LASF49:
 4968 0148 636F6E74 		.ascii	"context\000"
 4968      65787400 
 4969              	.LASF6:
 4970 0150 73686F72 		.ascii	"short unsigned int\000"
 4970      7420756E 
 4970      7369676E 
 4970      65642069 
 4970      6E7400
 4971              	.LASF88:
 4972 0163 71756575 		.ascii	"queues1_execute\000"
 4972      6573315F 
 4972      65786563 
 4972      75746500 
 4973              	.LASF94:
 4974 0173 74657374 		.ascii	"testqueues1\000"
 4974      71756575 
 4974      65733100 
 4975              	.LASF21:
 4976 017f 6D73675F 		.ascii	"msg_t\000"
 4976      7400
 4977              	.LASF16:
 4978 0185 746D6F64 		.ascii	"tmode_t\000"
 4978      655F7400 
ARM GAS  C:\Users\DNIEL~1\AppData\Local\Temp\ccXtZ92a.s 			page 91


 4979              	.LASF45:
 4980 018d 54687265 		.ascii	"ThreadsList\000"
 4980      6164734C 
 4980      69737400 
 4981              	.LASF22:
 4982 0199 6576656E 		.ascii	"eventmask_t\000"
 4982      746D6173 
 4982      6B5F7400 
 4983              	.LASF76:
 4984 01a5 496E7075 		.ascii	"InputQueue\000"
 4984      74517565 
 4984      756500
 4985              	.LASF57:
 4986 01b0 4D757465 		.ascii	"Mutex\000"
 4986      7800
 4987              	.LASF66:
 4988 01b6 47656E65 		.ascii	"GenericQueue\000"
 4988      72696351 
 4988      75657565 
 4988      00
 4989              	.LASF47:
 4990 01c3 73746B61 		.ascii	"stkalign_t\000"
 4990      6C69676E 
 4990      5F7400
 4991              	.LASF84:
 4992 01ce 6E6F7469 		.ascii	"notify\000"
 4992      667900
 4993              	.LASF85:
 4994 01d5 71756575 		.ascii	"queues2_execute\000"
 4994      6573325F 
 4994      65786563 
 4994      75746500 
 4995              	.LASF68:
 4996 01e5 715F636F 		.ascii	"q_counter\000"
 4996      756E7465 
 4996      7200
 4997              	.LASF95:
 4998 01ef 74657374 		.ascii	"testqueues2\000"
 4998      71756575 
 4998      65733200 
 4999              	.LASF30:
 5000 01fb 705F6F6C 		.ascii	"p_older\000"
 5000      64657200 
 5001              	.LASF87:
 5002 0203 74687265 		.ascii	"thread1\000"
 5002      61643100 
 5003              	.LASF86:
 5004 020b 74687265 		.ascii	"thread2\000"
 5004      61643200 
 5005              	.LASF52:
 5006 0213 725F6374 		.ascii	"r_ctx\000"
 5006      7800
 5007              	.LASF44:
 5008 0219 54687265 		.ascii	"ThreadsQueue\000"
 5008      61647351 
 5008      75657565 
 5008      00
ARM GAS  C:\Users\DNIEL~1\AppData\Local\Temp\ccXtZ92a.s 			page 92


 5009              	.LASF80:
 5010 0226 73657475 		.ascii	"setup\000"
 5010      7000
 5011              	.LASF55:
 5012 022c 725F6375 		.ascii	"r_current\000"
 5012      7272656E 
 5012      7400
 5013              	.LASF54:
 5014 0236 725F6F6C 		.ascii	"r_older\000"
 5014      64657200 
 5015              	.LASF90:
 5016 023e 71756575 		.ascii	"queues1_setup\000"
 5016      6573315F 
 5016      73657475 
 5016      7000
 5017              	.LASF18:
 5018 024c 74726566 		.ascii	"trefs_t\000"
 5018      735F7400 
 5019              	.LASF75:
 5020 0254 716E6F74 		.ascii	"qnotify_t\000"
 5020      6966795F 
 5020      7400
 5021              	.LASF26:
 5022 025e 705F7072 		.ascii	"p_prev\000"
 5022      657600
 5023              	.LASF82:
 5024 0265 65786563 		.ascii	"execute\000"
 5024      75746500 
 5025              	.LASF20:
 5026 026d 74707269 		.ascii	"tprio_t\000"
 5026      6F5F7400 
 5027              	.LASF72:
 5028 0275 715F7264 		.ascii	"q_rdptr\000"
 5028      70747200 
 5029              	.LASF15:
 5030 027d 5F426F6F 		.ascii	"_Bool\000"
 5030      6C00
 5031              	.LASF7:
 5032 0283 696E7433 		.ascii	"int32_t\000"
 5032      325F7400 
 5033              	.LASF4:
 5034 028b 756E7369 		.ascii	"unsigned char\000"
 5034      676E6564 
 5034      20636861 
 5034      7200
 5035              	.LASF41:
 5036 0299 705F6D74 		.ascii	"p_mtxlist\000"
 5036      786C6973 
 5036      7400
 5037              	.LASF5:
 5038 02a3 73686F72 		.ascii	"short int\000"
 5038      7420696E 
 5038      7400
 5039              	.LASF32:
 5040 02ad 705F7374 		.ascii	"p_state\000"
 5040      61746500 
 5041              	.LASF35:
ARM GAS  C:\Users\DNIEL~1\AppData\Local\Temp\ccXtZ92a.s 			page 93


 5042 02b5 705F7072 		.ascii	"p_preempt\000"
 5042      65656D70 
 5042      7400
 5043              	.LASF92:
 5044 02bf 74687265 		.ascii	"threads\000"
 5044      61647300 
 5045              	.LASF51:
 5046 02c7 725F7072 		.ascii	"r_prio\000"
 5046      696F00
 5047              	.LASF64:
 5048 02ce 65776D61 		.ascii	"ewmask\000"
 5048      736B00
 5049              	.LASF25:
 5050 02d5 705F6E65 		.ascii	"p_next\000"
 5050      787400
 5051              	.LASF33:
 5052 02dc 705F666C 		.ascii	"p_flags\000"
 5052      61677300 
 5053              	.LASF24:
 5054 02e4 54687265 		.ascii	"Thread\000"
 5054      616400
 5055              	.LASF78:
 5056 02eb 74657374 		.ascii	"testcase\000"
 5056      63617365 
 5056      00
 5057              	.LASF98:
 5058 02f4 2E2E2F2E 		.ascii	"../../../ChibiOS/test/testqueues.c\000"
 5058      2E2F2E2E 
 5058      2F436869 
 5058      62694F53 
 5058      2F746573 
 5059              	.LASF40:
 5060 0317 705F6570 		.ascii	"p_epending\000"
 5060      656E6469 
 5060      6E6700
 5061              	.LASF9:
 5062 0322 75696E74 		.ascii	"uint32_t\000"
 5062      33325F74 
 5062      00
 5063              	.LASF50:
 5064 032b 725F7175 		.ascii	"r_queue\000"
 5064      65756500 
 5065              	.LASF19:
 5066 0333 74736C69 		.ascii	"tslices_t\000"
 5066      6365735F 
 5066      7400
 5067              	.LASF65:
 5068 033d 63686172 		.ascii	"char\000"
 5068      00
 5069              	.LASF100:
 5070 0342 74657374 		.ascii	"test_buffers\000"
 5070      5F627566 
 5070      66657273 
 5070      00
 5071              	.LASF60:
 5072 034f 6D5F6E65 		.ascii	"m_next\000"
 5072      787400
ARM GAS  C:\Users\DNIEL~1\AppData\Local\Temp\ccXtZ92a.s 			page 94


 5073              	.LASF23:
 5074 0356 73797374 		.ascii	"systime_t\000"
 5074      696D655F 
 5074      7400
 5075              	.LASF42:
 5076 0360 705F7265 		.ascii	"p_realprio\000"
 5076      616C7072 
 5076      696F00
 5077              	.LASF83:
 5078 036b 62756666 		.ascii	"buffer\000"
 5078      657200
 5079              	.LASF36:
 5080 0372 705F7469 		.ascii	"p_time\000"
 5080      6D6500
 5081              	.LASF48:
 5082 0379 696E7463 		.ascii	"intctx\000"
 5082      747800
 5083              	.LASF38:
 5084 0380 705F6D73 		.ascii	"p_msgqueue\000"
 5084      67717565 
 5084      756500
 5085              	.LASF70:
 5086 038b 715F746F 		.ascii	"q_top\000"
 5086      7000
 5087              	.LASF34:
 5088 0391 705F7265 		.ascii	"p_refs\000"
 5088      667300
 5089              	.LASF56:
 5090 0398 52656164 		.ascii	"ReadyList\000"
 5090      794C6973 
 5090      7400
 5091              	.LASF73:
 5092 03a2 715F6E6F 		.ascii	"q_notify\000"
 5092      74696679 
 5092      00
 5093              	.LASF91:
 5094 03ab 726C6973 		.ascii	"rlist\000"
 5094      7400
 5095              	.LASF3:
 5096 03b1 75696E74 		.ascii	"uint8_t\000"
 5096      385F7400 
 5097              	.LASF63:
 5098 03b9 77746F62 		.ascii	"wtobjp\000"
 5098      6A7000
 5099              	.LASF97:
 5100 03c0 474E5520 		.ascii	"GNU C 4.5.2\000"
 5100      4320342E 
 5100      352E3200 
 5101              	.LASF31:
 5102 03cc 705F6E61 		.ascii	"p_name\000"
 5102      6D6500
 5103              	.LASF74:
 5104 03d3 715F6C69 		.ascii	"q_link\000"
 5104      6E6B00
 5105              	.LASF59:
 5106 03da 6D5F6F77 		.ascii	"m_owner\000"
 5106      6E657200 
ARM GAS  C:\Users\DNIEL~1\AppData\Local\Temp\ccXtZ92a.s 			page 95


 5107              	.LASF28:
 5108 03e2 705F6374 		.ascii	"p_ctx\000"
 5108      7800
 5109              	.LASF37:
 5110 03e8 705F7761 		.ascii	"p_waiting\000"
 5110      6974696E 
 5110      6700
 5111              		.ident	"GCC: (Sourcery G++ Lite 2011.03-42) 4.5.2"
ARM GAS  C:\Users\DNIEL~1\AppData\Local\Temp\ccXtZ92a.s 			page 96


DEFINED SYMBOLS
                            *ABS*:00000000 testqueues.c
C:\Users\DNIEL~1\AppData\Local\Temp\ccXtZ92a.s:24     .text.notify:00000000 $t
C:\Users\DNIEL~1\AppData\Local\Temp\ccXtZ92a.s:29     .text.notify:00000000 notify
C:\Users\DNIEL~1\AppData\Local\Temp\ccXtZ92a.s:44     .text.thread2:00000000 $t
C:\Users\DNIEL~1\AppData\Local\Temp\ccXtZ92a.s:49     .text.thread2:00000000 thread2
C:\Users\DNIEL~1\AppData\Local\Temp\ccXtZ92a.s:73     .text.thread2:00000010 $d
C:\Users\DNIEL~1\AppData\Local\Temp\ccXtZ92a.s:78     .text.queues2_execute:00000000 $t
C:\Users\DNIEL~1\AppData\Local\Temp\ccXtZ92a.s:83     .text.queues2_execute:00000000 queues2_execute
C:\Users\DNIEL~1\AppData\Local\Temp\ccXtZ92a.s:696    .text.queues2_execute:000002ac $d
C:\Users\DNIEL~1\AppData\Local\Temp\ccXtZ92a.s:707    .text.queues2_execute:000002c4 $t
C:\Users\DNIEL~1\AppData\Local\Temp\ccXtZ92a.s:733    .text.queues2_execute:000002ec $d
C:\Users\DNIEL~1\AppData\Local\Temp\ccXtZ92a.s:738    .text.queues2_setup:00000000 $t
C:\Users\DNIEL~1\AppData\Local\Temp\ccXtZ92a.s:743    .text.queues2_setup:00000000 queues2_setup
C:\Users\DNIEL~1\AppData\Local\Temp\ccXtZ92a.s:774    .text.queues2_setup:0000001c $d
C:\Users\DNIEL~1\AppData\Local\Temp\ccXtZ92a.s:781    .text.thread1:00000000 $t
C:\Users\DNIEL~1\AppData\Local\Temp\ccXtZ92a.s:786    .text.thread1:00000000 thread1
C:\Users\DNIEL~1\AppData\Local\Temp\ccXtZ92a.s:809    .text.thread1:00000010 $d
C:\Users\DNIEL~1\AppData\Local\Temp\ccXtZ92a.s:814    .text.queues1_execute:00000000 $t
C:\Users\DNIEL~1\AppData\Local\Temp\ccXtZ92a.s:819    .text.queues1_execute:00000000 queues1_execute
C:\Users\DNIEL~1\AppData\Local\Temp\ccXtZ92a.s:1425   .text.queues1_execute:000002d4 $d
C:\Users\DNIEL~1\AppData\Local\Temp\ccXtZ92a.s:1437   .text.queues1_execute:000002ec $t
C:\Users\DNIEL~1\AppData\Local\Temp\ccXtZ92a.s:1461   .text.queues1_execute:00000314 $d
C:\Users\DNIEL~1\AppData\Local\Temp\ccXtZ92a.s:1466   .text.queues1_setup:00000000 $t
C:\Users\DNIEL~1\AppData\Local\Temp\ccXtZ92a.s:1471   .text.queues1_setup:00000000 queues1_setup
C:\Users\DNIEL~1\AppData\Local\Temp\ccXtZ92a.s:1502   .text.queues1_setup:0000001c $d
C:\Users\DNIEL~1\AppData\Local\Temp\ccXtZ92a.s:1515   .rodata.testqueues1:00000000 testqueues1
C:\Users\DNIEL~1\AppData\Local\Temp\ccXtZ92a.s:1524   .rodata.testqueues2:00000000 testqueues2
C:\Users\DNIEL~1\AppData\Local\Temp\ccXtZ92a.s:1543   .rodata.patternqueues:00000000 patternqueues
C:\Users\DNIEL~1\AppData\Local\Temp\ccXtZ92a.s:1512   .rodata.testqueues1:00000000 $d
C:\Users\DNIEL~1\AppData\Local\Temp\ccXtZ92a.s:1521   .rodata.testqueues2:00000000 $d
C:\Users\DNIEL~1\AppData\Local\Temp\ccXtZ92a.s:1530   .rodata.str1.4:00000000 $d
C:\Users\DNIEL~1\AppData\Local\Temp\ccXtZ92a.s:1540   .rodata.patternqueues:00000000 $d
C:\Users\DNIEL~1\AppData\Local\Temp\ccXtZ92a.s:1548   .data.oq:00000000 $d
C:\Users\DNIEL~1\AppData\Local\Temp\ccXtZ92a.s:1552   .data.oq:00000000 oq
C:\Users\DNIEL~1\AppData\Local\Temp\ccXtZ92a.s:1563   .data.iq:00000000 $d
C:\Users\DNIEL~1\AppData\Local\Temp\ccXtZ92a.s:1567   .data.iq:00000000 iq
                     .debug_frame:00000010 $d
C:\Users\DNIEL~1\AppData\Local\Temp\ccXtZ92a.s:77     .text.thread2:00000014 $t
C:\Users\DNIEL~1\AppData\Local\Temp\ccXtZ92a.s:780    .text.queues2_setup:00000028 $t
C:\Users\DNIEL~1\AppData\Local\Temp\ccXtZ92a.s:813    .text.thread1:00000014 $t
C:\Users\DNIEL~1\AppData\Local\Temp\ccXtZ92a.s:1465   .text.queues1_execute:00000318 $t
C:\Users\DNIEL~1\AppData\Local\Temp\ccXtZ92a.s:5111   .text.queues1_setup:00000028 $t

UNDEFINED SYMBOLS
chOQPutTimeout
_test_assert
chOQGetI
test_emit_token
_test_assert_sequence
chOQWriteTimeout
chThdCreateStatic
test_wait_threads
chOQResetI
wa
rlist
threads
ARM GAS  C:\Users\DNIEL~1\AppData\Local\Temp\ccXtZ92a.s 			page 97


chOQInit
chIQGetTimeout
chIQPutI
chIQReadTimeout
chIQResetI
chIQInit
test
