ARM GAS  C:\Users\DNIEL~1\AppData\Local\Temp\ccXtZ92a.s 			page 1


   1              		.syntax unified
   2              		.cpu cortex-m4
   3              		.fpu softvfp
   4              		.eabi_attribute 20, 1
   5              		.eabi_attribute 21, 1
   6              		.eabi_attribute 23, 3
   7              		.eabi_attribute 24, 1
   8              		.eabi_attribute 25, 1
   9              		.eabi_attribute 26, 1
  10              		.eabi_attribute 30, 2
  11              		.eabi_attribute 18, 4
  12              		.thumb
  13              		.file	"testqueues.c"
  20 0000 A8040000 		.text
  20      0200DD01 
  20      00000201 
  20      FB0E0D00 
  20      01010101 
  21              	.Ltext0:
  22              		.cfi_sections	.debug_frame
  23              		.section	.text.notify,"ax",%progbits
  24              		.align	2
  25              		.p2align 4,,15
  26              		.thumb
  27              		.thumb_func
  28              		.type	notify, %function
  29              	notify:
  30              	.LFB7:
  31              		.file 1 "../../../ChibiOS/test/testqueues.c"
  32              		.loc 1 57 0
  33              		.cfi_startproc
  34              		@ args = 0, pretend = 0, frame = 0
  35              		@ frame_needed = 0, uses_anonymous_args = 0
  36              		@ link register save eliminated.
  37              	.LVL0:
  38              		.loc 1 59 0
  39 0000 7047     		bx	lr
  40              		.cfi_endproc
  41              	.LFE7:
  42              		.size	notify, .-notify
  43 0002 00BFAFF3 		.section	.text.thread2,"ax",%progbits
  43      0080AFF3 
  43      0080AFF3 
  43      0080
  44              		.align	2
  45              		.p2align 4,,15
  46              		.thumb
  47              		.thumb_func
  48              		.type	thread2, %function
  49              	thread2:
  50              	.LFB12:
ARM GAS  C:\Users\DNIEL~1\AppData\Local\Temp\ccXtZ92a.s 			page 2


  51              		.loc 1 170 0
  52              		.cfi_startproc
  53              		@ args = 0, pretend = 0, frame = 0
  54              		@ frame_needed = 0, uses_anonymous_args = 0
  55              	.LVL1:
  56 0000 08B5     		push	{r3, lr}
  57              	.LCFI0:
  58              		.cfi_def_cfa_offset 8
  59              		.loc 1 173 0
  60 0002 0021     		movs	r1, #0
  61 0004 C822     		movs	r2, #200
  62 0006 0248     		ldr	r0, .L3
  63              	.LVL2:
  64              		.cfi_offset 14, -4
  65              		.cfi_offset 3, -8
  66 0008 FFF7FEFF 		bl	chOQPutTimeout
  67              		.loc 1 175 0
  68 000c 0020     		movs	r0, #0
  69 000e 08BD     		pop	{r3, pc}
  70              	.L4:
  71              		.align	2
  72              	.L3:
  73 0010 00000000 		.word	.LANCHOR0
  74              		.cfi_endproc
  75              	.LFE12:
  76              		.size	thread2, .-thread2
  77 0014 AFF30080 		.section	.text.queues2_execute,"ax",%progbits
  77      AFF30080 
  77      AFF30080 
  78              		.align	2
  79              		.p2align 4,,15
  80              		.thumb
  81              		.thumb_func
  82              		.type	queues2_execute, %function
  83              	queues2_execute:
  84              	.LFB13:
  85              		.loc 1 177 0
  86              		.cfi_startproc
  87              		@ args = 0, pretend = 0, frame = 0
  88              		@ frame_needed = 0, uses_anonymous_args = 0
  89 0000 2DE9F041 		push	{r4, r5, r6, r7, r8, lr}
  90              	.LCFI1:
  91              		.cfi_def_cfa_offset 24
  92              	.LBB2:
  93              		.loc 1 182 0
  94 0004 2023     		movs	r3, #32
  95              	.LVL3:
  96              	.LBE2:
  97              		.loc 1 177 0
  98 0006 82B0     		sub	sp, sp, #8
  99              	.LCFI2:
 100              		.cfi_def_cfa_offset 32
 101              	.LBB3:
 102              		.loc 1 182 0
 103              	@ 182 "../../../ChibiOS/test/testqueues.c" 1
 104 0008 83F31188 		msr     BASEPRI, r3
 105              	@ 0 "" 2
ARM GAS  C:\Users\DNIEL~1\AppData\Local\Temp\ccXtZ92a.s 			page 3


 106              	.LVL4:
 107              		.thumb
 108              	.LBE3:
 109 000c A74D     		ldr	r5, .L24
 110              		.cfi_offset 14, -4
 111              		.cfi_offset 8, -8
 112              		.cfi_offset 7, -12
 113              		.cfi_offset 6, -16
 114              		.cfi_offset 5, -20
 115              		.cfi_offset 4, -24
 116 000e 6A69     		ldr	r2, [r5, #20]
 117 0010 AB69     		ldr	r3, [r5, #24]
 118              	.LVL5:
 119 0012 9A42     		cmp	r2, r3
 120 0014 7DD0     		beq	.L20
 121 0016 0021     		movs	r1, #0
 122              	.L6:
 123              		.loc 1 182 0 is_stmt 0 discriminator 4
 124 0018 0120     		movs	r0, #1
 125 001a FFF7FEFF 		bl	_test_assert
 126 001e 0646     		mov	r6, r0
 127 0020 0028     		cmp	r0, #0
 128 0022 72D1     		bne	.L21
 129              	.LBB4:
 130              		.loc 1 182 0 discriminator 6
 131 0024 0346     		mov	r3, r0
 132              	.LVL6:
 133              	@ 182 "../../../ChibiOS/test/testqueues.c" 1
 134 0026 83F31188 		msr     BASEPRI, r3
 135              	@ 0 "" 2
 136              	.LVL7:
 137              		.thumb
 138              	.LBE4:
 139              		.loc 1 186 0 is_stmt 1 discriminator 6
 140 002a A04C     		ldr	r4, .L24
 141 002c 4121     		movs	r1, #65
 142 002e 2046     		mov	r0, r4
 143 0030 4FF0FF32 		mov	r2, #-1
 144 0034 FFF7FEFF 		bl	chOQPutTimeout
 145              	.LVL8:
 146 0038 4221     		movs	r1, #66
 147 003a 2046     		mov	r0, r4
 148 003c 4FF0FF32 		mov	r2, #-1
 149 0040 FFF7FEFF 		bl	chOQPutTimeout
 150              	.LVL9:
 151 0044 4321     		movs	r1, #67
 152 0046 2046     		mov	r0, r4
 153 0048 4FF0FF32 		mov	r2, #-1
 154 004c FFF7FEFF 		bl	chOQPutTimeout
 155              	.LVL10:
 156 0050 2046     		mov	r0, r4
 157 0052 4421     		movs	r1, #68
 158 0054 4FF0FF32 		mov	r2, #-1
 159 0058 FFF7FEFF 		bl	chOQPutTimeout
 160              	.LVL11:
 161              	.LBB5:
 162              		.loc 1 187 0 discriminator 6
ARM GAS  C:\Users\DNIEL~1\AppData\Local\Temp\ccXtZ92a.s 			page 4


 163 005c 2023     		movs	r3, #32
 164              	.LVL12:
 165              	@ 187 "../../../ChibiOS/test/testqueues.c" 1
 166 005e 83F31188 		msr     BASEPRI, r3
 167              	@ 0 "" 2
 168              	.LVL13:
 169              		.thumb
 170              	.LBE5:
 171 0062 AD68     		ldr	r5, [r5, #8]
 172 0064 0220     		movs	r0, #2
 173 0066 D5F10101 		rsbs	r1, r5, #1
 174 006a 38BF     		it	cc
 175 006c 0021     		movcc	r1, #0
 176 006e FFF7FEFF 		bl	_test_assert
 177              	.LVL14:
 178 0072 0546     		mov	r5, r0
 179 0074 0028     		cmp	r0, #0
 180 0076 44D1     		bne	.L22
 181              	.LBB6:
 182              		.loc 1 187 0 is_stmt 0 discriminator 2
 183 0078 0346     		mov	r3, r0
 184              	.LVL15:
 185              	@ 187 "../../../ChibiOS/test/testqueues.c" 1
 186 007a 83F31188 		msr     BASEPRI, r3
 187              	@ 0 "" 2
 188              	.LVL16:
 189              		.thumb
 190              	.LBE6:
 191              	.LBB7:
 192              	.LBB8:
 193              		.loc 1 193 0 is_stmt 1 discriminator 2
 194 007e 2023     		movs	r3, #32
 195              	.LVL17:
 196              	@ 193 "../../../ChibiOS/test/testqueues.c" 1
 197 0080 83F31188 		msr     BASEPRI, r3
 198              	@ 0 "" 2
 199              	.LVL18:
 200              		.thumb
 201              	.LBE8:
 202              		.loc 1 194 0 discriminator 2
 203 0084 2046     		mov	r0, r4
 204 0086 FFF7FEFF 		bl	chOQGetI
 205              	.LVL19:
 206              	.LBB9:
 207              		.loc 1 195 0 discriminator 2
 208 008a 2B46     		mov	r3, r5
 209              	.LVL20:
 210              	@ 195 "../../../ChibiOS/test/testqueues.c" 1
 211 008c 83F31188 		msr     BASEPRI, r3
 212              	@ 0 "" 2
 213              	.LVL21:
 214              		.thumb
 215              	.LBE9:
 216              		.loc 1 196 0 discriminator 2
 217 0090 C0B2     		uxtb	r0, r0
 218              	.LVL22:
 219 0092 FFF7FEFF 		bl	test_emit_token
ARM GAS  C:\Users\DNIEL~1\AppData\Local\Temp\ccXtZ92a.s 			page 5


 220              	.LVL23:
 221              	.LBB10:
 222              		.loc 1 193 0 discriminator 2
 223 0096 2023     		movs	r3, #32
 224              	@ 193 "../../../ChibiOS/test/testqueues.c" 1
 225 0098 83F31188 		msr     BASEPRI, r3
 226              	@ 0 "" 2
 227              	.LVL24:
 228              		.thumb
 229              	.LBE10:
 230              		.loc 1 194 0 discriminator 2
 231 009c 2046     		mov	r0, r4
 232 009e FFF7FEFF 		bl	chOQGetI
 233              	.LVL25:
 234              	.LBB11:
 235              		.loc 1 195 0 discriminator 2
 236 00a2 2B46     		mov	r3, r5
 237              	@ 195 "../../../ChibiOS/test/testqueues.c" 1
 238 00a4 83F31188 		msr     BASEPRI, r3
 239              	@ 0 "" 2
 240              	.LVL26:
 241              		.thumb
 242              	.LBE11:
 243              		.loc 1 196 0 discriminator 2
 244 00a8 C0B2     		uxtb	r0, r0
 245              	.LVL27:
 246 00aa FFF7FEFF 		bl	test_emit_token
 247              	.LVL28:
 248              	.LBB12:
 249              		.loc 1 193 0 discriminator 2
 250 00ae 2023     		movs	r3, #32
 251              	@ 193 "../../../ChibiOS/test/testqueues.c" 1
 252 00b0 83F31188 		msr     BASEPRI, r3
 253              	@ 0 "" 2
 254              	.LVL29:
 255              		.thumb
 256              	.LBE12:
 257              		.loc 1 194 0 discriminator 2
 258 00b4 2046     		mov	r0, r4
 259 00b6 FFF7FEFF 		bl	chOQGetI
 260              	.LVL30:
 261              	.LBB13:
 262              		.loc 1 195 0 discriminator 2
 263 00ba 2B46     		mov	r3, r5
 264              	@ 195 "../../../ChibiOS/test/testqueues.c" 1
 265 00bc 83F31188 		msr     BASEPRI, r3
 266              	@ 0 "" 2
 267              	.LVL31:
 268              		.thumb
 269              	.LBE13:
 270              		.loc 1 196 0 discriminator 2
 271 00c0 C0B2     		uxtb	r0, r0
 272              	.LVL32:
 273 00c2 FFF7FEFF 		bl	test_emit_token
 274              	.LVL33:
 275              	.LBB14:
 276              		.loc 1 193 0 discriminator 2
ARM GAS  C:\Users\DNIEL~1\AppData\Local\Temp\ccXtZ92a.s 			page 6


 277 00c6 2023     		movs	r3, #32
 278              	@ 193 "../../../ChibiOS/test/testqueues.c" 1
 279 00c8 83F31188 		msr     BASEPRI, r3
 280              	@ 0 "" 2
 281              	.LVL34:
 282              		.thumb
 283              	.LBE14:
 284              		.loc 1 194 0 discriminator 2
 285 00cc 2046     		mov	r0, r4
 286 00ce FFF7FEFF 		bl	chOQGetI
 287              	.LVL35:
 288              	.LBB15:
 289              		.loc 1 195 0 discriminator 2
 290 00d2 2B46     		mov	r3, r5
 291              	@ 195 "../../../ChibiOS/test/testqueues.c" 1
 292 00d4 83F31188 		msr     BASEPRI, r3
 293              	@ 0 "" 2
 294              	.LVL36:
 295              		.thumb
 296              	.LBE15:
 297              		.loc 1 196 0 discriminator 2
 298 00d8 C0B2     		uxtb	r0, r0
 299              	.LVL37:
 300 00da FFF7FEFF 		bl	test_emit_token
 301              	.LVL38:
 302              	.LBE7:
 303              	.LBB16:
 304              		.loc 1 198 0 discriminator 2
 305 00de 2023     		movs	r3, #32
 306              	.LVL39:
 307              	@ 198 "../../../ChibiOS/test/testqueues.c" 1
 308 00e0 83F31188 		msr     BASEPRI, r3
 309              	@ 0 "" 2
 310              	.LVL40:
 311              		.thumb
 312              	.LBE16:
 313 00e4 6069     		ldr	r0, [r4, #20]
 314 00e6 A269     		ldr	r2, [r4, #24]
 315 00e8 9042     		cmp	r0, r2
 316 00ea 35D0     		beq	.L23
 317              		.loc 1 198 0 is_stmt 0
 318 00ec 2946     		mov	r1, r5
 319              	.L10:
 320              		.loc 1 198 0 discriminator 4
 321 00ee 0320     		movs	r0, #3
 322 00f0 FFF7FEFF 		bl	_test_assert
 323              	.LVL41:
 324 00f4 90B1     		cbz	r0, .L11
 325              	.LBB17:
 326              		.loc 1 198 0 discriminator 5
 327 00f6 0023     		movs	r3, #0
 328              	.LVL42:
 329              	@ 198 "../../../ChibiOS/test/testqueues.c" 1
 330 00f8 83F31188 		msr     BASEPRI, r3
 331              	@ 0 "" 2
 332              	.LVL43:
 333              		.thumb
ARM GAS  C:\Users\DNIEL~1\AppData\Local\Temp\ccXtZ92a.s 			page 7


 334              	.L5:
 335              	.LBE17:
 336              		.loc 1 225 0 is_stmt 1
 337 00fc 02B0     		add	sp, sp, #8
 338 00fe BDE8F081 		pop	{r4, r5, r6, r7, r8, pc}
 339              	.LVL44:
 340              	.L22:
 341              	.LBB18:
 342              		.loc 1 187 0 discriminator 1
 343 0102 3346     		mov	r3, r6
 344              	@ 187 "../../../ChibiOS/test/testqueues.c" 1
 345 0104 83F31188 		msr     BASEPRI, r3
 346              	@ 0 "" 2
 347              	.LVL45:
 348              		.thumb
 349              	.LBE18:
 350 0108 F8E7     		b	.L5
 351              	.LVL46:
 352              	.L21:
 353              	.LBB19:
 354              		.loc 1 182 0 discriminator 5
 355 010a 0023     		movs	r3, #0
 356              	@ 182 "../../../ChibiOS/test/testqueues.c" 1
 357 010c 83F31188 		msr     BASEPRI, r3
 358              	@ 0 "" 2
 359              	.LVL47:
 360              		.thumb
 361              	.LBE19:
 362 0110 F4E7     		b	.L5
 363              	.LVL48:
 364              	.L20:
 365              		.loc 1 177 0 discriminator 1
 366 0112 A968     		ldr	r1, [r5, #8]
 367 0114 0039     		subs	r1, r1, #0
 368 0116 18BF     		it	ne
 369 0118 0121     		movne	r1, #1
 370 011a 7DE7     		b	.L6
 371              	.LVL49:
 372              	.L11:
 373              	.LBB20:
 374              		.loc 1 198 0 discriminator 6
 375 011c 0346     		mov	r3, r0
 376              	.LVL50:
 377              	@ 198 "../../../ChibiOS/test/testqueues.c" 1
 378 011e 83F31188 		msr     BASEPRI, r3
 379              	@ 0 "" 2
 380              	.LVL51:
 381              		.thumb
 382              	.LBE20:
 383              		.loc 1 199 0 discriminator 6
 384 0122 0420     		movs	r0, #4
 385 0124 6249     		ldr	r1, .L24+4
 386 0126 FFF7FEFF 		bl	_test_assert_sequence
 387              	.LVL52:
 388 012a 0546     		mov	r5, r0
 389 012c 0028     		cmp	r0, #0
 390 012e E5D1     		bne	.L5
ARM GAS  C:\Users\DNIEL~1\AppData\Local\Temp\ccXtZ92a.s 			page 8


 391              	.LBB21:
 392              		.loc 1 200 0
 393 0130 2023     		movs	r3, #32
 394              	.LVL53:
 395              	@ 200 "../../../ChibiOS/test/testqueues.c" 1
 396 0132 83F31188 		msr     BASEPRI, r3
 397              	@ 0 "" 2
 398              	.LVL54:
 399              		.thumb
 400              	.LBE21:
 401 0136 5D4C     		ldr	r4, .L24
 402 0138 2046     		mov	r0, r4
 403 013a FFF7FEFF 		bl	chOQGetI
 404              	.LVL55:
 405 013e 10F1030F 		cmn	r0, #3
 406 0142 14BF     		ite	ne
 407 0144 0021     		movne	r1, #0
 408 0146 0121     		moveq	r1, #1
 409 0148 0520     		movs	r0, #5
 410 014a FFF7FEFF 		bl	_test_assert
 411 014e 40B1     		cbz	r0, .L12
 412              	.LBB22:
 413              		.loc 1 200 0 is_stmt 0 discriminator 1
 414 0150 2B46     		mov	r3, r5
 415              	@ 200 "../../../ChibiOS/test/testqueues.c" 1
 416 0152 83F31188 		msr     BASEPRI, r3
 417              	@ 0 "" 2
 418              	.LVL56:
 419              		.thumb
 420              	.LBE22:
 421 0156 D1E7     		b	.L5
 422              	.LVL57:
 423              	.L23:
 424              		.loc 1 177 0 is_stmt 1 discriminator 1
 425 0158 A368     		ldr	r3, [r4, #8]
 426              	.LVL58:
 427 015a 191E     		subs	r1, r3, #0
 428 015c 18BF     		it	ne
 429 015e 0121     		movne	r1, #1
 430 0160 C5E7     		b	.L10
 431              	.L12:
 432              	.LBB23:
 433              		.loc 1 200 0 discriminator 2
 434 0162 0346     		mov	r3, r0
 435              	.LVL59:
 436              	@ 200 "../../../ChibiOS/test/testqueues.c" 1
 437 0164 83F31188 		msr     BASEPRI, r3
 438              	@ 0 "" 2
 439              	.LVL60:
 440              		.thumb
 441              	.LBE23:
 442              		.loc 1 203 0 discriminator 2
 443 0168 524E     		ldr	r6, .L24+8
 444 016a 7568     		ldr	r5, [r6, #4]
 445 016c 0822     		movs	r2, #8
 446 016e 2946     		mov	r1, r5
 447 0170 2046     		mov	r0, r4
ARM GAS  C:\Users\DNIEL~1\AppData\Local\Temp\ccXtZ92a.s 			page 9


 448 0172 FFF7FEFF 		bl	chOQWriteTimeout
 449              	.LVL61:
 450              		.loc 1 204 0 discriminator 2
 451 0176 A0F10408 		sub	r8, r0, #4
 452 017a D8F1000C 		rsbs	ip, r8, #0
 453 017e 4CEB0801 		adc	r1, ip, r8
 454 0182 0620     		movs	r0, #6
 455              	.LVL62:
 456 0184 FFF7FEFF 		bl	_test_assert
 457 0188 8046     		mov	r8, r0
 458              	.LVL63:
 459 018a 0028     		cmp	r0, #0
 460 018c B6D1     		bne	.L5
 461              	.LBB24:
 462              		.loc 1 205 0
 463 018e 2023     		movs	r3, #32
 464              	.LVL64:
 465              	@ 205 "../../../ChibiOS/test/testqueues.c" 1
 466 0190 83F31188 		msr     BASEPRI, r3
 467              	@ 0 "" 2
 468              	.LVL65:
 469              		.thumb
 470              	.LBE24:
 471 0194 A768     		ldr	r7, [r4, #8]
 472 0196 0720     		movs	r0, #7
 473 0198 D7F10101 		rsbs	r1, r7, #1
 474 019c 38BF     		it	cc
 475 019e 0021     		movcc	r1, #0
 476 01a0 FFF7FEFF 		bl	_test_assert
 477              	.LVL66:
 478 01a4 0746     		mov	r7, r0
 479 01a6 18B1     		cbz	r0, .L13
 480              	.LBB25:
 481              		.loc 1 205 0 is_stmt 0 discriminator 1
 482 01a8 4346     		mov	r3, r8
 483              	@ 205 "../../../ChibiOS/test/testqueues.c" 1
 484 01aa 83F31188 		msr     BASEPRI, r3
 485              	@ 0 "" 2
 486              	.LVL67:
 487              		.thumb
 488              	.LBE25:
 489 01ae A5E7     		b	.L5
 490              	.LVL68:
 491              	.L13:
 492              	.LBB26:
 493              		.loc 1 205 0 discriminator 2
 494 01b0 0346     		mov	r3, r0
 495              	.LVL69:
 496              	@ 205 "../../../ChibiOS/test/testqueues.c" 1
 497 01b2 83F31188 		msr     BASEPRI, r3
 498              	@ 0 "" 2
 499              	.LVL70:
 500              		.thumb
 501              	.LBE26:
 502              		.loc 1 206 0 is_stmt 1 discriminator 2
 503 01b6 404B     		ldr	r3, .L24+12
 504              	.LVL71:
ARM GAS  C:\Users\DNIEL~1\AppData\Local\Temp\ccXtZ92a.s 			page 10


 505 01b8 3068     		ldr	r0, [r6, #0]
 506 01ba 9969     		ldr	r1, [r3, #24]
 507 01bc 3F4B     		ldr	r3, .L24+16
 508 01be 8E68     		ldr	r6, [r1, #8]
 509 01c0 0097     		str	r7, [sp, #0]
 510 01c2 721C     		adds	r2, r6, #1
 511 01c4 4FF4A871 		mov	r1, #336
 512 01c8 FFF7FEFF 		bl	chThdCreateStatic
 513 01cc 3C4A     		ldr	r2, .L24+20
 514              	.LBB27:
 515              		.loc 1 207 0 discriminator 2
 516 01ce 2023     		movs	r3, #32
 517              	.LVL72:
 518              	.LBE27:
 519              		.loc 1 206 0 discriminator 2
 520 01d0 1060     		str	r0, [r2, #0]
 521              	.LBB28:
 522              		.loc 1 207 0 discriminator 2
 523              	@ 207 "../../../ChibiOS/test/testqueues.c" 1
 524 01d2 83F31188 		msr     BASEPRI, r3
 525              	@ 0 "" 2
 526              	.LVL73:
 527              		.thumb
 528              	.LBE28:
 529 01d6 2669     		ldr	r6, [r4, #16]
 530 01d8 E168     		ldr	r1, [r4, #12]
 531 01da A368     		ldr	r3, [r4, #8]
 532              	.LVL74:
 533 01dc 701A     		subs	r0, r6, r1
 534 01de C21A     		subs	r2, r0, r3
 535 01e0 A2F10401 		sub	r1, r2, #4
 536 01e4 0820     		movs	r0, #8
 537 01e6 4E42     		rsbs	r6, r1, #0
 538 01e8 46EB0101 		adc	r1, r6, r1
 539 01ec FFF7FEFF 		bl	_test_assert
 540 01f0 0646     		mov	r6, r0
 541 01f2 18B1     		cbz	r0, .L14
 542              	.LBB29:
 543              		.loc 1 207 0 is_stmt 0 discriminator 1
 544 01f4 3B46     		mov	r3, r7
 545              	@ 207 "../../../ChibiOS/test/testqueues.c" 1
 546 01f6 83F31188 		msr     BASEPRI, r3
 547              	@ 0 "" 2
 548              	.LVL75:
 549              		.thumb
 550              	.LBE29:
 551 01fa 7FE7     		b	.L5
 552              	.LVL76:
 553              	.L14:
 554              	.LBB30:
 555              		.loc 1 207 0 discriminator 2
 556 01fc 0346     		mov	r3, r0
 557              	.LVL77:
 558              	@ 207 "../../../ChibiOS/test/testqueues.c" 1
 559 01fe 83F31188 		msr     BASEPRI, r3
 560              	@ 0 "" 2
 561              	.LVL78:
ARM GAS  C:\Users\DNIEL~1\AppData\Local\Temp\ccXtZ92a.s 			page 11


 562              		.thumb
 563              	.LBE30:
 564              		.loc 1 208 0 is_stmt 1 discriminator 2
 565 0202 FFF7FEFF 		bl	test_wait_threads
 566              	.LVL79:
 567              	.LBB31:
 568              		.loc 1 211 0 discriminator 2
 569 0206 2023     		movs	r3, #32
 570              	.LVL80:
 571              	@ 211 "../../../ChibiOS/test/testqueues.c" 1
 572 0208 83F31188 		msr     BASEPRI, r3
 573              	@ 0 "" 2
 574              	.LVL81:
 575              		.thumb
 576              	.LBE31:
 577              		.loc 1 212 0 discriminator 2
 578 020c 2046     		mov	r0, r4
 579 020e FFF7FEFF 		bl	chOQResetI
 580              	.LVL82:
 581              	.LBB32:
 582              		.loc 1 213 0 discriminator 2
 583 0212 3346     		mov	r3, r6
 584              	.LVL83:
 585              	@ 213 "../../../ChibiOS/test/testqueues.c" 1
 586 0214 83F31188 		msr     BASEPRI, r3
 587              	@ 0 "" 2
 588              	.LVL84:
 589              		.thumb
 590              	.LBE32:
 591              	.LBB33:
 592              		.loc 1 214 0 discriminator 2
 593 0218 2023     		movs	r3, #32
 594              	.LVL85:
 595              	@ 214 "../../../ChibiOS/test/testqueues.c" 1
 596 021a 83F31188 		msr     BASEPRI, r3
 597              	@ 0 "" 2
 598              	.LVL86:
 599              		.thumb
 600              	.LBE33:
 601 021e 2069     		ldr	r0, [r4, #16]
 602 0220 E168     		ldr	r1, [r4, #12]
 603 0222 A368     		ldr	r3, [r4, #8]
 604              	.LVL87:
 605 0224 421A     		subs	r2, r0, r1
 606 0226 C3EB020E 		rsb	lr, r3, r2
 607 022a 0920     		movs	r0, #9
 608 022c DEF1000C 		rsbs	ip, lr, #0
 609 0230 4CEB0E01 		adc	r1, ip, lr
 610 0234 FFF7FEFF 		bl	_test_assert
 611 0238 0346     		mov	r3, r0
 612 023a 18B1     		cbz	r0, .L15
 613              	.LBB34:
 614              		.loc 1 214 0 is_stmt 0 discriminator 1
 615 023c 3346     		mov	r3, r6
 616              	@ 214 "../../../ChibiOS/test/testqueues.c" 1
 617 023e 83F31188 		msr     BASEPRI, r3
 618              	@ 0 "" 2
ARM GAS  C:\Users\DNIEL~1\AppData\Local\Temp\ccXtZ92a.s 			page 12


 619              	.LVL88:
 620              		.thumb
 621              	.LBE34:
 622 0242 5BE7     		b	.L5
 623              	.LVL89:
 624              	.L15:
 625              	.LBB35:
 626              		.loc 1 214 0 discriminator 2
 627              	@ 214 "../../../ChibiOS/test/testqueues.c" 1
 628 0244 83F31188 		msr     BASEPRI, r3
 629              	@ 0 "" 2
 630              	.LVL90:
 631              		.thumb
 632              	.LBE35:
 633              		.loc 1 217 0 is_stmt 1 discriminator 2
 634 0248 0222     		movs	r2, #2
 635 024a 2946     		mov	r1, r5
 636 024c 2046     		mov	r0, r4
 637 024e FFF7FEFF 		bl	chOQWriteTimeout
 638              	.LVL91:
 639              		.loc 1 218 0 discriminator 2
 640 0252 A0F10202 		sub	r2, r0, #2
 641 0256 D2F1000C 		rsbs	ip, r2, #0
 642 025a 4CEB0201 		adc	r1, ip, r2
 643 025e 0A20     		movs	r0, #10
 644              	.LVL92:
 645 0260 FFF7FEFF 		bl	_test_assert
 646              	.LVL93:
 647 0264 0346     		mov	r3, r0
 648 0266 0028     		cmp	r0, #0
 649 0268 7FF448AF 		bne	.L5
 650              		.loc 1 219 0
 651 026c 2946     		mov	r1, r5
 652 026e 0222     		movs	r2, #2
 653 0270 2046     		mov	r0, r4
 654 0272 FFF7FEFF 		bl	chOQWriteTimeout
 655              	.LVL94:
 656              		.loc 1 220 0
 657 0276 A0F10200 		sub	r0, r0, #2
 658              	.LVL95:
 659 027a 4342     		rsbs	r3, r0, #0
 660 027c 43EB0001 		adc	r1, r3, r0
 661 0280 0B20     		movs	r0, #11
 662              	.LVL96:
 663 0282 FFF7FEFF 		bl	_test_assert
 664 0286 0028     		cmp	r0, #0
 665 0288 7FF438AF 		bne	.L5
 666              	.LBB36:
 667              		.loc 1 221 0
 668 028c 2023     		movs	r3, #32
 669              	.LVL97:
 670              	@ 221 "../../../ChibiOS/test/testqueues.c" 1
 671 028e 83F31188 		msr     BASEPRI, r3
 672              	@ 0 "" 2
 673              	.LVL98:
 674              		.thumb
 675              	.LBE36:
ARM GAS  C:\Users\DNIEL~1\AppData\Local\Temp\ccXtZ92a.s 			page 13


 676 0292 A168     		ldr	r1, [r4, #8]
 677 0294 0C30     		adds	r0, r0, #12
 678 0296 D1F10101 		rsbs	r1, r1, #1
 679 029a 38BF     		it	cc
 680 029c 0021     		movcc	r1, #0
 681 029e FFF7FEFF 		bl	_test_assert
 682              	.LVL99:
 683 02a2 78B1     		cbz	r0, .L16
 684              	.LBB37:
 685              		.loc 1 221 0 is_stmt 0 discriminator 1
 686 02a4 0023     		movs	r3, #0
 687              	@ 221 "../../../ChibiOS/test/testqueues.c" 1
 688 02a6 83F31188 		msr     BASEPRI, r3
 689              	@ 0 "" 2
 690              	.LVL100:
 691              		.thumb
 692 02aa 27E7     		b	.L5
 693              	.L25:
 694              		.align	2
 695              	.L24:
 696 02ac 00000000 		.word	.LANCHOR0
 697 02b0 00000000 		.word	.LC0
 698 02b4 00000000 		.word	wa
 699 02b8 00000000 		.word	rlist
 700 02bc 00000000 		.word	thread2
 701 02c0 00000000 		.word	threads
 702              	.LVL101:
 703              	.L16:
 704              	.LBE37:
 705              	.LBB38:
 706              		.loc 1 221 0 discriminator 2
 707 02c4 0023     		movs	r3, #0
 708              	.LVL102:
 709              	@ 221 "../../../ChibiOS/test/testqueues.c" 1
 710 02c6 83F31188 		msr     BASEPRI, r3
 711              	@ 0 "" 2
 712              	.LVL103:
 713              		.thumb
 714              	.LBE38:
 715              		.loc 1 224 0 is_stmt 1 discriminator 2
 716 02ca 0A22     		movs	r2, #10
 717 02cc 1946     		mov	r1, r3
 718 02ce 0748     		ldr	r0, .L26
 719 02d0 FFF7FEFF 		bl	chOQPutTimeout
 720              	.LVL104:
 721 02d4 A0F1FF32 		sub	r2, r0, #-1
 722 02d8 D2F1000C 		rsbs	ip, r2, #0
 723 02dc 4CEB0201 		adc	r1, ip, r2
 724 02e0 0D20     		movs	r0, #13
 725              		.loc 1 225 0 discriminator 2
 726 02e2 02B0     		add	sp, sp, #8
 727 02e4 BDE8F041 		pop	{r4, r5, r6, r7, r8, lr}
 728              		.loc 1 224 0 discriminator 2
 729 02e8 FFF7FEBF 		b	_test_assert
 730              	.L27:
 731              		.align	2
 732              	.L26:
ARM GAS  C:\Users\DNIEL~1\AppData\Local\Temp\ccXtZ92a.s 			page 14


 733 02ec 00000000 		.word	.LANCHOR0
 734              		.cfi_endproc
 735              	.LFE13:
 736              		.size	queues2_execute, .-queues2_execute
 737              		.section	.text.queues2_setup,"ax",%progbits
 738              		.align	2
 739              		.p2align 4,,15
 740              		.thumb
 741              		.thumb_func
 742              		.type	queues2_setup, %function
 743              	queues2_setup:
 744              	.LFB11:
 745              		.loc 1 165 0
 746              		.cfi_startproc
 747              		@ args = 0, pretend = 0, frame = 0
 748              		@ frame_needed = 0, uses_anonymous_args = 0
 749 0000 10B5     		push	{r4, lr}
 750              	.LCFI3:
 751              		.cfi_def_cfa_offset 8
 752              		.loc 1 167 0
 753 0002 064B     		ldr	r3, .L29
 754 0004 0648     		ldr	r0, .L29+4
 755 0006 1968     		ldr	r1, [r3, #0]
 756 0008 064B     		ldr	r3, .L29+8
 757              		.loc 1 165 0
 758 000a 82B0     		sub	sp, sp, #8
 759              	.LCFI4:
 760              		.cfi_def_cfa_offset 16
 761              		.loc 1 167 0
 762 000c 0024     		movs	r4, #0
 763              		.cfi_offset 14, -4
 764              		.cfi_offset 4, -8
 765 000e 0422     		movs	r2, #4
 766 0010 0094     		str	r4, [sp, #0]
 767 0012 FFF7FEFF 		bl	chOQInit
 768              		.loc 1 168 0
 769 0016 02B0     		add	sp, sp, #8
 770 0018 10BD     		pop	{r4, pc}
 771              	.L30:
 772 001a 00BF     		.align	2
 773              	.L29:
 774 001c 00000000 		.word	wa
 775 0020 00000000 		.word	.LANCHOR0
 776 0024 00000000 		.word	notify
 777              		.cfi_endproc
 778              	.LFE11:
 779              		.size	queues2_setup, .-queues2_setup
 780 0028 AFF30080 		.section	.text.thread1,"ax",%progbits
 780      AFF30080 
 781              		.align	2
 782              		.p2align 4,,15
 783              		.thumb
 784              		.thumb_func
 785              		.type	thread1, %function
 786              	thread1:
 787              	.LFB9:
 788              		.loc 1 83 0
ARM GAS  C:\Users\DNIEL~1\AppData\Local\Temp\ccXtZ92a.s 			page 15


 789              		.cfi_startproc
 790              		@ args = 0, pretend = 0, frame = 0
 791              		@ frame_needed = 0, uses_anonymous_args = 0
 792              	.LVL105:
 793 0000 08B5     		push	{r3, lr}
 794              	.LCFI5:
 795              		.cfi_def_cfa_offset 8
 796              		.loc 1 86 0
 797 0002 C821     		movs	r1, #200
 798 0004 0248     		ldr	r0, .L32
 799              	.LVL106:
 800              		.cfi_offset 14, -4
 801              		.cfi_offset 3, -8
 802 0006 FFF7FEFF 		bl	chIQGetTimeout
 803              		.loc 1 88 0
 804 000a 0020     		movs	r0, #0
 805 000c 08BD     		pop	{r3, pc}
 806              	.L33:
 807 000e 00BF     		.align	2
 808              	.L32:
 809 0010 00000000 		.word	.LANCHOR1
 810              		.cfi_endproc
 811              	.LFE9:
 812              		.size	thread1, .-thread1
 813 0014 AFF30080 		.section	.text.queues1_execute,"ax",%progbits
 813      AFF30080 
 813      AFF30080 
 814              		.align	2
 815              		.p2align 4,,15
 816              		.thumb
 817              		.thumb_func
 818              		.type	queues1_execute, %function
 819              	queues1_execute:
 820              	.LFB10:
 821              		.loc 1 90 0
 822              		.cfi_startproc
 823              		@ args = 0, pretend = 0, frame = 0
 824              		@ frame_needed = 0, uses_anonymous_args = 0
 825 0000 2DE9F043 		push	{r4, r5, r6, r7, r8, r9, lr}
 826              	.LCFI6:
 827              		.cfi_def_cfa_offset 28
 828              	.LBB39:
 829              		.loc 1 95 0
 830 0004 2023     		movs	r3, #32
 831              	.LVL107:
 832              	.LBE39:
 833              		.loc 1 90 0
 834 0006 83B0     		sub	sp, sp, #12
 835              	.LCFI7:
 836              		.cfi_def_cfa_offset 40
 837              	.LBB40:
 838              		.loc 1 95 0
 839              	@ 95 "../../../ChibiOS/test/testqueues.c" 1
 840 0008 83F31188 		msr     BASEPRI, r3
 841              	@ 0 "" 2
 842              	.LVL108:
 843              		.thumb
ARM GAS  C:\Users\DNIEL~1\AppData\Local\Temp\ccXtZ92a.s 			page 16


 844              	.LBE40:
 845 000c B14C     		ldr	r4, .L50
 846              		.cfi_offset 14, -4
 847              		.cfi_offset 9, -8
 848              		.cfi_offset 8, -12
 849              		.cfi_offset 7, -16
 850              		.cfi_offset 6, -20
 851              		.cfi_offset 5, -24
 852              		.cfi_offset 4, -28
 853 000e A168     		ldr	r1, [r4, #8]
 854 0010 0120     		movs	r0, #1
 855 0012 D1F10101 		rsbs	r1, r1, #1
 856 0016 38BF     		it	cc
 857 0018 0021     		movcc	r1, #0
 858 001a FFF7FEFF 		bl	_test_assert
 859              	.LVL109:
 860 001e 0546     		mov	r5, r0
 861 0020 0028     		cmp	r0, #0
 862 0022 74D1     		bne	.L46
 863              	.LBB41:
 864              		.loc 1 95 0 is_stmt 0 discriminator 2
 865 0024 0346     		mov	r3, r0
 866              	.LVL110:
 867              	@ 95 "../../../ChibiOS/test/testqueues.c" 1
 868 0026 83F31188 		msr     BASEPRI, r3
 869              	@ 0 "" 2
 870              	.LVL111:
 871              		.thumb
 872              	.LBE41:
 873              	.LBB42:
 874              		.loc 1 98 0 is_stmt 1 discriminator 2
 875 002a 2023     		movs	r3, #32
 876              	.LVL112:
 877              	@ 98 "../../../ChibiOS/test/testqueues.c" 1
 878 002c 83F31188 		msr     BASEPRI, r3
 879              	@ 0 "" 2
 880              	.LVL113:
 881              		.thumb
 882              	.LBE42:
 883              		.loc 1 100 0 discriminator 2
 884 0030 4121     		movs	r1, #65
 885 0032 2046     		mov	r0, r4
 886 0034 FFF7FEFF 		bl	chIQPutI
 887              	.LVL114:
 888 0038 4221     		movs	r1, #66
 889 003a 2046     		mov	r0, r4
 890 003c FFF7FEFF 		bl	chIQPutI
 891              	.LVL115:
 892 0040 4321     		movs	r1, #67
 893 0042 2046     		mov	r0, r4
 894 0044 FFF7FEFF 		bl	chIQPutI
 895              	.LVL116:
 896 0048 2046     		mov	r0, r4
 897 004a 4421     		movs	r1, #68
 898 004c FFF7FEFF 		bl	chIQPutI
 899              	.LVL117:
 900              	.LBB43:
ARM GAS  C:\Users\DNIEL~1\AppData\Local\Temp\ccXtZ92a.s 			page 17


 901              		.loc 1 101 0 discriminator 2
 902 0050 2B46     		mov	r3, r5
 903              	.LVL118:
 904              	@ 101 "../../../ChibiOS/test/testqueues.c" 1
 905 0052 83F31188 		msr     BASEPRI, r3
 906              	@ 0 "" 2
 907              	.LVL119:
 908              		.thumb
 909              	.LBE43:
 910              	.LBB44:
 911              		.loc 1 102 0 discriminator 2
 912 0056 2023     		movs	r3, #32
 913              	.LVL120:
 914              	@ 102 "../../../ChibiOS/test/testqueues.c" 1
 915 0058 83F31188 		msr     BASEPRI, r3
 916              	@ 0 "" 2
 917              	.LVL121:
 918              		.thumb
 919              	.LBE44:
 920 005c 6269     		ldr	r2, [r4, #20]
 921 005e A369     		ldr	r3, [r4, #24]
 922              	.LVL122:
 923 0060 9A42     		cmp	r2, r3
 924 0062 5CD0     		beq	.L47
 925              		.loc 1 102 0 is_stmt 0
 926 0064 2946     		mov	r1, r5
 927              	.L37:
 928              		.loc 1 102 0 discriminator 4
 929 0066 0220     		movs	r0, #2
 930 0068 FFF7FEFF 		bl	_test_assert
 931 006c 0646     		mov	r6, r0
 932 006e 28B1     		cbz	r0, .L38
 933              	.LBB45:
 934              		.loc 1 102 0 discriminator 5
 935 0070 0023     		movs	r3, #0
 936              	.LVL123:
 937              	@ 102 "../../../ChibiOS/test/testqueues.c" 1
 938 0072 83F31188 		msr     BASEPRI, r3
 939              	@ 0 "" 2
 940              	.LVL124:
 941              		.thumb
 942              	.L34:
 943              	.LBE45:
 944              		.loc 1 147 0 is_stmt 1
 945 0076 03B0     		add	sp, sp, #12
 946 0078 BDE8F083 		pop	{r4, r5, r6, r7, r8, r9, pc}
 947              	.LVL125:
 948              	.L38:
 949              	.LBB46:
 950              		.loc 1 102 0 discriminator 6
 951 007c 0346     		mov	r3, r0
 952              	.LVL126:
 953              	@ 102 "../../../ChibiOS/test/testqueues.c" 1
 954 007e 83F31188 		msr     BASEPRI, r3
 955              	@ 0 "" 2
 956              	.LVL127:
 957              		.thumb
ARM GAS  C:\Users\DNIEL~1\AppData\Local\Temp\ccXtZ92a.s 			page 18


 958              	.LBE46:
 959              	.LBB47:
 960              		.loc 1 103 0 discriminator 6
 961 0082 2023     		movs	r3, #32
 962              	.LVL128:
 963              	@ 103 "../../../ChibiOS/test/testqueues.c" 1
 964 0084 83F31188 		msr     BASEPRI, r3
 965              	@ 0 "" 2
 966              	.LVL129:
 967              		.thumb
 968              	.LBE47:
 969 0088 924D     		ldr	r5, .L50
 970 008a 0146     		mov	r1, r0
 971 008c 2846     		mov	r0, r5
 972 008e FFF7FEFF 		bl	chIQPutI
 973              	.LVL130:
 974 0092 10F1040F 		cmn	r0, #4
 975 0096 14BF     		ite	ne
 976 0098 0021     		movne	r1, #0
 977 009a 0121     		moveq	r1, #1
 978 009c 0320     		movs	r0, #3
 979 009e FFF7FEFF 		bl	_test_assert
 980 00a2 0746     		mov	r7, r0
 981 00a4 0028     		cmp	r0, #0
 982 00a6 36D1     		bne	.L48
 983              	.LBB48:
 984              		.loc 1 103 0 is_stmt 0 discriminator 2
 985 00a8 0346     		mov	r3, r0
 986              	.LVL131:
 987              	@ 103 "../../../ChibiOS/test/testqueues.c" 1
 988 00aa 83F31188 		msr     BASEPRI, r3
 989              	@ 0 "" 2
 990              	.LVL132:
 991              		.thumb
 992              	.LBE48:
 993              		.loc 1 107 0 is_stmt 1 discriminator 2
 994 00ae 4FF0FF31 		mov	r1, #-1
 995 00b2 2846     		mov	r0, r5
 996 00b4 FFF7FEFF 		bl	chIQGetTimeout
 997              	.LVL133:
 998 00b8 C0B2     		uxtb	r0, r0
 999 00ba FFF7FEFF 		bl	test_emit_token
 1000              	.LVL134:
 1001 00be 4FF0FF31 		mov	r1, #-1
 1002 00c2 2846     		mov	r0, r5
 1003 00c4 FFF7FEFF 		bl	chIQGetTimeout
 1004 00c8 C0B2     		uxtb	r0, r0
 1005 00ca FFF7FEFF 		bl	test_emit_token
 1006              	.LVL135:
 1007 00ce 4FF0FF31 		mov	r1, #-1
 1008 00d2 2846     		mov	r0, r5
 1009 00d4 FFF7FEFF 		bl	chIQGetTimeout
 1010 00d8 C0B2     		uxtb	r0, r0
 1011 00da FFF7FEFF 		bl	test_emit_token
 1012              	.LVL136:
 1013 00de 4FF0FF31 		mov	r1, #-1
 1014 00e2 2846     		mov	r0, r5
ARM GAS  C:\Users\DNIEL~1\AppData\Local\Temp\ccXtZ92a.s 			page 19


 1015 00e4 FFF7FEFF 		bl	chIQGetTimeout
 1016 00e8 C0B2     		uxtb	r0, r0
 1017 00ea FFF7FEFF 		bl	test_emit_token
 1018              	.LVL137:
 1019              	.LBB49:
 1020              		.loc 1 108 0 discriminator 2
 1021 00ee 2023     		movs	r3, #32
 1022              	.LVL138:
 1023              	@ 108 "../../../ChibiOS/test/testqueues.c" 1
 1024 00f0 83F31188 		msr     BASEPRI, r3
 1025              	@ 0 "" 2
 1026              	.LVL139:
 1027              		.thumb
 1028              	.LBE49:
 1029 00f4 A968     		ldr	r1, [r5, #8]
 1030 00f6 0420     		movs	r0, #4
 1031 00f8 D1F10101 		rsbs	r1, r1, #1
 1032 00fc 38BF     		it	cc
 1033 00fe 0021     		movcc	r1, #0
 1034 0100 FFF7FEFF 		bl	_test_assert
 1035              	.LVL140:
 1036 0104 80B1     		cbz	r0, .L40
 1037              	.LBB50:
 1038              		.loc 1 108 0 is_stmt 0 discriminator 1
 1039 0106 3B46     		mov	r3, r7
 1040              	@ 108 "../../../ChibiOS/test/testqueues.c" 1
 1041 0108 83F31188 		msr     BASEPRI, r3
 1042              	@ 0 "" 2
 1043              	.LVL141:
 1044              		.thumb
 1045              	.LBE50:
 1046 010c B3E7     		b	.L34
 1047              	.LVL142:
 1048              	.L46:
 1049              	.LBB51:
 1050              		.loc 1 95 0 is_stmt 1 discriminator 1
 1051 010e 0023     		movs	r3, #0
 1052              	@ 95 "../../../ChibiOS/test/testqueues.c" 1
 1053 0110 83F31188 		msr     BASEPRI, r3
 1054              	@ 0 "" 2
 1055              	.LVL143:
 1056              		.thumb
 1057              	.LBE51:
 1058 0114 AFE7     		b	.L34
 1059              	.LVL144:
 1060              	.L48:
 1061              	.LBB52:
 1062              		.loc 1 103 0 discriminator 1
 1063 0116 3346     		mov	r3, r6
 1064              	@ 103 "../../../ChibiOS/test/testqueues.c" 1
 1065 0118 83F31188 		msr     BASEPRI, r3
 1066              	@ 0 "" 2
 1067              	.LVL145:
 1068              		.thumb
 1069              	.LBE52:
 1070 011c ABE7     		b	.L34
 1071              	.LVL146:
ARM GAS  C:\Users\DNIEL~1\AppData\Local\Temp\ccXtZ92a.s 			page 20


 1072              	.L47:
 1073              		.loc 1 90 0 discriminator 1
 1074 011e A068     		ldr	r0, [r4, #8]
 1075 0120 011E     		subs	r1, r0, #0
 1076 0122 18BF     		it	ne
 1077 0124 0121     		movne	r1, #1
 1078 0126 9EE7     		b	.L37
 1079              	.L40:
 1080              	.LBB53:
 1081              		.loc 1 108 0 discriminator 2
 1082 0128 0346     		mov	r3, r0
 1083              	.LVL147:
 1084              	@ 108 "../../../ChibiOS/test/testqueues.c" 1
 1085 012a 83F31188 		msr     BASEPRI, r3
 1086              	@ 0 "" 2
 1087              	.LVL148:
 1088              		.thumb
 1089              	.LBE53:
 1090              		.loc 1 109 0 discriminator 2
 1091 012e 0520     		movs	r0, #5
 1092 0130 6949     		ldr	r1, .L50+4
 1093 0132 FFF7FEFF 		bl	_test_assert_sequence
 1094              	.LVL149:
 1095 0136 0646     		mov	r6, r0
 1096 0138 0028     		cmp	r0, #0
 1097 013a 9CD1     		bne	.L34
 1098              	.LBB54:
 1099              		.loc 1 112 0
 1100 013c 2023     		movs	r3, #32
 1101              	.LVL150:
 1102              	@ 112 "../../../ChibiOS/test/testqueues.c" 1
 1103 013e 83F31188 		msr     BASEPRI, r3
 1104              	@ 0 "" 2
 1105              	.LVL151:
 1106              		.thumb
 1107              	.LBE54:
 1108              		.loc 1 114 0
 1109 0142 4121     		movs	r1, #65
 1110 0144 2846     		mov	r0, r5
 1111 0146 FFF7FEFF 		bl	chIQPutI
 1112              	.LVL152:
 1113 014a 4221     		movs	r1, #66
 1114 014c 2846     		mov	r0, r5
 1115 014e FFF7FEFF 		bl	chIQPutI
 1116              	.LVL153:
 1117 0152 4321     		movs	r1, #67
 1118 0154 2846     		mov	r0, r5
 1119 0156 FFF7FEFF 		bl	chIQPutI
 1120              	.LVL154:
 1121 015a 2846     		mov	r0, r5
 1122 015c 4421     		movs	r1, #68
 1123 015e FFF7FEFF 		bl	chIQPutI
 1124              	.LVL155:
 1125              	.LBB55:
 1126              		.loc 1 115 0
 1127 0162 3346     		mov	r3, r6
 1128              	.LVL156:
ARM GAS  C:\Users\DNIEL~1\AppData\Local\Temp\ccXtZ92a.s 			page 21


 1129              	@ 115 "../../../ChibiOS/test/testqueues.c" 1
 1130 0164 83F31188 		msr     BASEPRI, r3
 1131              	@ 0 "" 2
 1132              	.LVL157:
 1133              		.thumb
 1134              	.LBE55:
 1135              		.loc 1 118 0
 1136 0168 5C4F     		ldr	r7, .L50+8
 1137 016a 7E68     		ldr	r6, [r7, #4]
 1138 016c 0822     		movs	r2, #8
 1139 016e 3146     		mov	r1, r6
 1140 0170 2846     		mov	r0, r5
 1141 0172 FFF7FEFF 		bl	chIQReadTimeout
 1142              	.LVL158:
 1143              		.loc 1 119 0
 1144 0176 A0F1040C 		sub	ip, r0, #4
 1145 017a DCF10008 		rsbs	r8, ip, #0
 1146 017e 48EB0C01 		adc	r1, r8, ip
 1147 0182 0620     		movs	r0, #6
 1148              	.LVL159:
 1149 0184 FFF7FEFF 		bl	_test_assert
 1150              	.LVL160:
 1151 0188 8046     		mov	r8, r0
 1152 018a 0028     		cmp	r0, #0
 1153 018c 7FF473AF 		bne	.L34
 1154              	.LBB56:
 1155              		.loc 1 120 0
 1156 0190 2023     		movs	r3, #32
 1157              	.LVL161:
 1158              	@ 120 "../../../ChibiOS/test/testqueues.c" 1
 1159 0192 83F31188 		msr     BASEPRI, r3
 1160              	@ 0 "" 2
 1161              	.LVL162:
 1162              		.thumb
 1163              	.LBE56:
 1164 0196 AA68     		ldr	r2, [r5, #8]
 1165 0198 0720     		movs	r0, #7
 1166 019a D2F10101 		rsbs	r1, r2, #1
 1167 019e 38BF     		it	cc
 1168 01a0 0021     		movcc	r1, #0
 1169 01a2 FFF7FEFF 		bl	_test_assert
 1170              	.LVL163:
 1171 01a6 8146     		mov	r9, r0
 1172 01a8 0028     		cmp	r0, #0
 1173 01aa 4CD1     		bne	.L49
 1174              	.LBB57:
 1175              		.loc 1 120 0 is_stmt 0 discriminator 2
 1176 01ac 0346     		mov	r3, r0
 1177              	.LVL164:
 1178              	@ 120 "../../../ChibiOS/test/testqueues.c" 1
 1179 01ae 83F31188 		msr     BASEPRI, r3
 1180              	@ 0 "" 2
 1181              	.LVL165:
 1182              		.thumb
 1183              	.LBE57:
 1184              	.LBB58:
 1185              		.loc 1 123 0 is_stmt 1 discriminator 2
ARM GAS  C:\Users\DNIEL~1\AppData\Local\Temp\ccXtZ92a.s 			page 22


 1186 01b2 2023     		movs	r3, #32
 1187              	.LVL166:
 1188              	@ 123 "../../../ChibiOS/test/testqueues.c" 1
 1189 01b4 83F31188 		msr     BASEPRI, r3
 1190              	@ 0 "" 2
 1191              	.LVL167:
 1192              		.thumb
 1193              	.LBE58:
 1194              		.loc 1 125 0 discriminator 2
 1195 01b8 4121     		movs	r1, #65
 1196 01ba 2846     		mov	r0, r5
 1197 01bc FFF7FEFF 		bl	chIQPutI
 1198              	.LVL168:
 1199 01c0 4221     		movs	r1, #66
 1200 01c2 2846     		mov	r0, r5
 1201 01c4 FFF7FEFF 		bl	chIQPutI
 1202              	.LVL169:
 1203 01c8 4321     		movs	r1, #67
 1204 01ca 2846     		mov	r0, r5
 1205 01cc FFF7FEFF 		bl	chIQPutI
 1206              	.LVL170:
 1207 01d0 2846     		mov	r0, r5
 1208 01d2 4421     		movs	r1, #68
 1209 01d4 FFF7FEFF 		bl	chIQPutI
 1210              	.LVL171:
 1211              	.LBB59:
 1212              		.loc 1 126 0 discriminator 2
 1213 01d8 4B46     		mov	r3, r9
 1214              	.LVL172:
 1215              	@ 126 "../../../ChibiOS/test/testqueues.c" 1
 1216 01da 83F31188 		msr     BASEPRI, r3
 1217              	@ 0 "" 2
 1218              	.LVL173:
 1219              		.thumb
 1220              	.LBE59:
 1221              		.loc 1 129 0 discriminator 2
 1222 01de 0222     		movs	r2, #2
 1223 01e0 3146     		mov	r1, r6
 1224 01e2 2846     		mov	r0, r5
 1225 01e4 FFF7FEFF 		bl	chIQReadTimeout
 1226              	.LVL174:
 1227              		.loc 1 130 0 discriminator 2
 1228 01e8 A0F1020E 		sub	lr, r0, #2
 1229 01ec DEF10003 		rsbs	r3, lr, #0
 1230 01f0 43EB0E01 		adc	r1, r3, lr
 1231 01f4 0820     		movs	r0, #8
 1232              	.LVL175:
 1233 01f6 FFF7FEFF 		bl	_test_assert
 1234              	.LVL176:
 1235 01fa 0028     		cmp	r0, #0
 1236 01fc 7FF43BAF 		bne	.L34
 1237              		.loc 1 131 0
 1238 0200 0222     		movs	r2, #2
 1239 0202 0346     		mov	r3, r0
 1240 0204 3146     		mov	r1, r6
 1241 0206 2846     		mov	r0, r5
 1242 0208 FFF7FEFF 		bl	chIQReadTimeout
ARM GAS  C:\Users\DNIEL~1\AppData\Local\Temp\ccXtZ92a.s 			page 23


 1243              	.LVL177:
 1244              		.loc 1 132 0
 1245 020c A0F10200 		sub	r0, r0, #2
 1246              	.LVL178:
 1247 0210 4142     		rsbs	r1, r0, #0
 1248 0212 41EB0001 		adc	r1, r1, r0
 1249 0216 0920     		movs	r0, #9
 1250              	.LVL179:
 1251 0218 FFF7FEFF 		bl	_test_assert
 1252 021c 8046     		mov	r8, r0
 1253 021e 0028     		cmp	r0, #0
 1254 0220 7FF429AF 		bne	.L34
 1255              	.LBB60:
 1256              		.loc 1 133 0
 1257 0224 2023     		movs	r3, #32
 1258              	.LVL180:
 1259              	@ 133 "../../../ChibiOS/test/testqueues.c" 1
 1260 0226 83F31188 		msr     BASEPRI, r3
 1261              	@ 0 "" 2
 1262              	.LVL181:
 1263              		.thumb
 1264              	.LBE60:
 1265 022a AE68     		ldr	r6, [r5, #8]
 1266 022c 0A20     		movs	r0, #10
 1267 022e D6F10101 		rsbs	r1, r6, #1
 1268 0232 38BF     		it	cc
 1269 0234 0021     		movcc	r1, #0
 1270 0236 FFF7FEFF 		bl	_test_assert
 1271              	.LVL182:
 1272 023a 0646     		mov	r6, r0
 1273 023c 38B1     		cbz	r0, .L42
 1274              	.LBB61:
 1275              		.loc 1 133 0 is_stmt 0 discriminator 1
 1276 023e 4346     		mov	r3, r8
 1277              	@ 133 "../../../ChibiOS/test/testqueues.c" 1
 1278 0240 83F31188 		msr     BASEPRI, r3
 1279              	@ 0 "" 2
 1280              	.LVL183:
 1281              		.thumb
 1282              	.LBE61:
 1283 0244 17E7     		b	.L34
 1284              	.LVL184:
 1285              	.L49:
 1286              	.LBB62:
 1287              		.loc 1 120 0 is_stmt 1 discriminator 1
 1288 0246 4346     		mov	r3, r8
 1289              	@ 120 "../../../ChibiOS/test/testqueues.c" 1
 1290 0248 83F31188 		msr     BASEPRI, r3
 1291              	@ 0 "" 2
 1292              	.LVL185:
 1293              		.thumb
 1294              	.LBE62:
 1295 024c 13E7     		b	.L34
 1296              	.LVL186:
 1297              	.L42:
 1298              	.LBB63:
 1299              		.loc 1 133 0 discriminator 2
ARM GAS  C:\Users\DNIEL~1\AppData\Local\Temp\ccXtZ92a.s 			page 24


 1300 024e 0346     		mov	r3, r0
 1301              	.LVL187:
 1302              	@ 133 "../../../ChibiOS/test/testqueues.c" 1
 1303 0250 83F31188 		msr     BASEPRI, r3
 1304              	@ 0 "" 2
 1305              	.LVL188:
 1306              		.thumb
 1307              	.LBE63:
 1308              	.LBB64:
 1309              		.loc 1 136 0 discriminator 2
 1310 0254 2023     		movs	r3, #32
 1311              	.LVL189:
 1312              	@ 136 "../../../ChibiOS/test/testqueues.c" 1
 1313 0256 83F31188 		msr     BASEPRI, r3
 1314              	@ 0 "" 2
 1315              	.LVL190:
 1316              		.thumb
 1317              	.LBE64:
 1318              		.loc 1 137 0 discriminator 2
 1319 025a 0146     		mov	r1, r0
 1320 025c 2846     		mov	r0, r5
 1321 025e FFF7FEFF 		bl	chIQPutI
 1322              	.LVL191:
 1323              		.loc 1 138 0 discriminator 2
 1324 0262 2846     		mov	r0, r5
 1325 0264 FFF7FEFF 		bl	chIQResetI
 1326              	.LBB65:
 1327              		.loc 1 139 0 discriminator 2
 1328 0268 3346     		mov	r3, r6
 1329              	.LVL192:
 1330              	@ 139 "../../../ChibiOS/test/testqueues.c" 1
 1331 026a 83F31188 		msr     BASEPRI, r3
 1332              	@ 0 "" 2
 1333              	.LVL193:
 1334              		.thumb
 1335              	.LBE65:
 1336              	.LBB66:
 1337              		.loc 1 140 0 discriminator 2
 1338 026e 2023     		movs	r3, #32
 1339              	.LVL194:
 1340              	@ 140 "../../../ChibiOS/test/testqueues.c" 1
 1341 0270 83F31188 		msr     BASEPRI, r3
 1342              	@ 0 "" 2
 1343              	.LVL195:
 1344              		.thumb
 1345              	.LBE66:
 1346 0274 AA68     		ldr	r2, [r5, #8]
 1347 0276 0B20     		movs	r0, #11
 1348 0278 D2F10101 		rsbs	r1, r2, #1
 1349 027c 38BF     		it	cc
 1350 027e 0021     		movcc	r1, #0
 1351 0280 FFF7FEFF 		bl	_test_assert
 1352              	.LVL196:
 1353 0284 18B1     		cbz	r0, .L43
 1354              	.LBB67:
 1355              		.loc 1 140 0 is_stmt 0 discriminator 1
 1356 0286 0023     		movs	r3, #0
ARM GAS  C:\Users\DNIEL~1\AppData\Local\Temp\ccXtZ92a.s 			page 25


 1357              	@ 140 "../../../ChibiOS/test/testqueues.c" 1
 1358 0288 83F31188 		msr     BASEPRI, r3
 1359              	@ 0 "" 2
 1360              	.LVL197:
 1361              		.thumb
 1362              	.LBE67:
 1363 028c F3E6     		b	.L34
 1364              	.LVL198:
 1365              	.L43:
 1366              	.LBB68:
 1367              		.loc 1 140 0 discriminator 2
 1368 028e 0023     		movs	r3, #0
 1369              	.LVL199:
 1370              	@ 140 "../../../ChibiOS/test/testqueues.c" 1
 1371 0290 83F31188 		msr     BASEPRI, r3
 1372              	@ 0 "" 2
 1373              	.LVL200:
 1374              		.thumb
 1375              	.LBE68:
 1376              		.loc 1 141 0 is_stmt 1 discriminator 2
 1377 0294 1249     		ldr	r1, .L50+12
 1378 0296 3868     		ldr	r0, [r7, #0]
 1379 0298 8D69     		ldr	r5, [r1, #24]
 1380 029a AA68     		ldr	r2, [r5, #8]
 1381 029c 4FF4A871 		mov	r1, #336
 1382 02a0 1D46     		mov	r5, r3
 1383 02a2 0132     		adds	r2, r2, #1
 1384 02a4 0F4B     		ldr	r3, .L50+16
 1385              	.LVL201:
 1386 02a6 0095     		str	r5, [sp, #0]
 1387 02a8 FFF7FEFF 		bl	chThdCreateStatic
 1388 02ac 0E4A     		ldr	r2, .L50+20
 1389              	.LBB69:
 1390              		.loc 1 142 0 discriminator 2
 1391 02ae 2023     		movs	r3, #32
 1392              	.LVL202:
 1393              	.LBE69:
 1394              		.loc 1 141 0 discriminator 2
 1395 02b0 1060     		str	r0, [r2, #0]
 1396              	.LBB70:
 1397              		.loc 1 142 0 discriminator 2
 1398              	@ 142 "../../../ChibiOS/test/testqueues.c" 1
 1399 02b2 83F31188 		msr     BASEPRI, r3
 1400              	@ 0 "" 2
 1401              	.LVL203:
 1402              		.thumb
 1403              	.LBE70:
 1404 02b6 A168     		ldr	r1, [r4, #8]
 1405 02b8 4B1B     		subs	r3, r1, r5
 1406              	.LVL204:
 1407 02ba 0C20     		movs	r0, #12
 1408 02bc D3F1000C 		rsbs	ip, r3, #0
 1409 02c0 4CEB0301 		adc	r1, ip, r3
 1410 02c4 FFF7FEFF 		bl	_test_assert
 1411 02c8 0346     		mov	r3, r0
 1412 02ca 78B1     		cbz	r0, .L44
 1413              	.LBB71:
ARM GAS  C:\Users\DNIEL~1\AppData\Local\Temp\ccXtZ92a.s 			page 26


 1414              		.loc 1 142 0 is_stmt 0 discriminator 1
 1415 02cc 2B46     		mov	r3, r5
 1416              	@ 142 "../../../ChibiOS/test/testqueues.c" 1
 1417 02ce 83F31188 		msr     BASEPRI, r3
 1418              	@ 0 "" 2
 1419              	.LVL205:
 1420              		.thumb
 1421 02d2 D0E6     		b	.L34
 1422              	.L51:
 1423              		.align	2
 1424              	.L50:
 1425 02d4 00000000 		.word	.LANCHOR1
 1426 02d8 00000000 		.word	.LC0
 1427 02dc 00000000 		.word	wa
 1428 02e0 00000000 		.word	rlist
 1429 02e4 00000000 		.word	thread1
 1430 02e8 00000000 		.word	threads
 1431              	.LVL206:
 1432              	.L44:
 1433              	.LBE71:
 1434              	.LBB72:
 1435              		.loc 1 142 0 discriminator 2
 1436              	@ 142 "../../../ChibiOS/test/testqueues.c" 1
 1437 02ec 83F31188 		msr     BASEPRI, r3
 1438              	@ 0 "" 2
 1439              	.LVL207:
 1440              		.thumb
 1441              	.LBE72:
 1442              		.loc 1 143 0 is_stmt 1 discriminator 2
 1443 02f0 FFF7FEFF 		bl	test_wait_threads
 1444              	.LVL208:
 1445              		.loc 1 146 0 discriminator 2
 1446 02f4 0A21     		movs	r1, #10
 1447 02f6 0748     		ldr	r0, .L52
 1448 02f8 FFF7FEFF 		bl	chIQGetTimeout
 1449 02fc A0F1FF3C 		sub	ip, r0, #-1
 1450 0300 DCF10000 		rsbs	r0, ip, #0
 1451 0304 40EB0C01 		adc	r1, r0, ip
 1452 0308 0D20     		movs	r0, #13
 1453              		.loc 1 147 0 discriminator 2
 1454 030a 03B0     		add	sp, sp, #12
 1455 030c BDE8F043 		pop	{r4, r5, r6, r7, r8, r9, lr}
 1456              		.loc 1 146 0 discriminator 2
 1457 0310 FFF7FEBF 		b	_test_assert
 1458              	.L53:
 1459              		.align	2
 1460              	.L52:
 1461 0314 00000000 		.word	.LANCHOR1
 1462              		.cfi_endproc
 1463              	.LFE10:
 1464              		.size	queues1_execute, .-queues1_execute
 1465 0318 AFF30080 		.section	.text.queues1_setup,"ax",%progbits
 1465      AFF30080 
 1466              		.align	2
 1467              		.p2align 4,,15
 1468              		.thumb
 1469              		.thumb_func
ARM GAS  C:\Users\DNIEL~1\AppData\Local\Temp\ccXtZ92a.s 			page 27


 1470              		.type	queues1_setup, %function
 1471              	queues1_setup:
 1472              	.LFB8:
 1473              		.loc 1 78 0
 1474              		.cfi_startproc
 1475              		@ args = 0, pretend = 0, frame = 0
 1476              		@ frame_needed = 0, uses_anonymous_args = 0
 1477 0000 10B5     		push	{r4, lr}
 1478              	.LCFI8:
 1479              		.cfi_def_cfa_offset 8
 1480              		.loc 1 80 0
 1481 0002 064B     		ldr	r3, .L55
 1482 0004 0648     		ldr	r0, .L55+4
 1483 0006 1968     		ldr	r1, [r3, #0]
 1484 0008 064B     		ldr	r3, .L55+8
 1485              		.loc 1 78 0
 1486 000a 82B0     		sub	sp, sp, #8
 1487              	.LCFI9:
 1488              		.cfi_def_cfa_offset 16
 1489              		.loc 1 80 0
 1490 000c 0024     		movs	r4, #0
 1491              		.cfi_offset 14, -4
 1492              		.cfi_offset 4, -8
 1493 000e 0422     		movs	r2, #4
 1494 0010 0094     		str	r4, [sp, #0]
 1495 0012 FFF7FEFF 		bl	chIQInit
 1496              		.loc 1 81 0
 1497 0016 02B0     		add	sp, sp, #8
 1498 0018 10BD     		pop	{r4, pc}
 1499              	.L56:
 1500 001a 00BF     		.align	2
 1501              	.L55:
 1502 001c 00000000 		.word	wa
 1503 0020 00000000 		.word	.LANCHOR1
 1504 0024 00000000 		.word	notify
 1505              		.cfi_endproc
 1506              	.LFE8:
 1507              		.size	queues1_setup, .-queues1_setup
 1508              		.global	testqueues1
 1509              		.global	testqueues2
 1510              		.global	patternqueues
 1511              		.section	.rodata.testqueues1,"a",%progbits
 1512              		.align	2
 1513              		.type	testqueues1, %object
 1514              		.size	testqueues1, 16
 1515              	testqueues1:
 1516 0000 08000000 		.word	.LC1
 1517 0004 00000000 		.word	queues1_setup
 1518 0008 00000000 		.word	0
 1519 000c 00000000 		.word	queues1_execute
 1520              		.section	.rodata.testqueues2,"a",%progbits
 1521              		.align	2
 1522              		.type	testqueues2, %object
 1523              		.size	testqueues2, 16
 1524              	testqueues2:
 1525 0000 20000000 		.word	.LC2
 1526 0004 00000000 		.word	queues2_setup
ARM GAS  C:\Users\DNIEL~1\AppData\Local\Temp\ccXtZ92a.s 			page 28


 1527 0008 00000000 		.word	0
 1528 000c 00000000 		.word	queues2_execute
 1529              		.section	.rodata.str1.4,"aMS",%progbits,1
 1530              		.align	2
 1531              	.LC0:
 1532 0000 41424344 		.ascii	"ABCD\000"
 1532      00
 1533 0005 000000   		.space	3
 1534              	.LC1:
 1535 0008 51756575 		.ascii	"Queues, input queues\000"
 1535      65732C20 
 1535      696E7075 
 1535      74207175 
 1535      65756573 
 1536 001d 000000   		.space	3
 1537              	.LC2:
 1538 0020 51756575 		.ascii	"Queues, output queues\000"
 1538      65732C20 
 1538      6F757470 
 1538      75742071 
 1538      75657565 
 1539 0036 0000     		.section	.rodata.patternqueues,"a",%progbits
 1540              		.align	2
 1541              		.type	patternqueues, %object
 1542              		.size	patternqueues, 12
 1543              	patternqueues:
 1544 0000 00000000 		.word	testqueues1
 1545 0004 00000000 		.word	testqueues2
 1546 0008 00000000 		.word	0
 1547              		.section	.data.oq,"aw",%progbits
 1548              		.align	2
 1549              		.set	.LANCHOR0,. + 0
 1550              		.type	oq, %object
 1551              		.size	oq, 36
 1552              	oq:
 1553 0000 00000000 		.word	oq
 1554 0004 00000000 		.word	oq
 1555 0008 04000000 		.word	4
 1556 000c 50010000 		.word	test+336
 1557 0010 54010000 		.word	test+340
 1558 0014 50010000 		.word	test+336
 1559 0018 50010000 		.word	test+336
 1560 001c 00000000 		.word	notify
 1561 0020 00000000 		.word	0
 1562              		.section	.data.iq,"aw",%progbits
 1563              		.align	2
 1564              		.set	.LANCHOR1,. + 0
 1565              		.type	iq, %object
 1566              		.size	iq, 36
 1567              	iq:
 1568 0000 00000000 		.word	iq
 1569 0004 00000000 		.word	iq
 1570 0008 00000000 		.word	0
 1571 000c 00000000 		.word	test
 1572 0010 04000000 		.word	test+4
 1573 0014 00000000 		.word	test
 1574 0018 00000000 		.word	test
ARM GAS  C:\Users\DNIEL~1\AppData\Local\Temp\ccXtZ92a.s 			page 29


 1575 001c 00000000 		.word	notify
 1576 0020 00000000 		.word	0
 1577              		.text
 1578              	.Letext0: