ARM GAS  C:\Users\DNIEL~1\AppData\Local\Temp\ccSb8sbz.s 			page 1


   1              		.syntax unified
   2              		.cpu cortex-m4
   3              		.fpu softvfp
   4              		.eabi_attribute 20, 1
   5              		.eabi_attribute 21, 1
   6              		.eabi_attribute 23, 3
   7              		.eabi_attribute 24, 1
   8              		.eabi_attribute 25, 1
   9              		.eabi_attribute 26, 1
  10              		.eabi_attribute 30, 2
  11              		.eabi_attribute 34, 1
  12              		.eabi_attribute 18, 4
  13              		.thumb
  14              		.file	"adc_lld.c"
  15              		.text
  16              	.Ltext0:
  17              		.cfi_sections	.debug_frame
  18              		.section	.text.adc_lld_init,"ax",%progbits
  19              		.align	2
  20              		.p2align 4,,15
  21              		.global	adc_lld_init
  22              		.thumb
  23              		.thumb_func
  24              		.type	adc_lld_init, %function
  25              	adc_lld_init:
  26              	.LFB120:
  27              		.file 1 "../../../ChibiOS/os/hal/platforms/STM32F4xx/adc_lld.c"
  28              		.loc 1 175 0
  29              		.cfi_startproc
  30              		@ args = 0, pretend = 0, frame = 0
  31              		@ frame_needed = 0, uses_anonymous_args = 0
  32 0000 10B5     		push	{r4, lr}
  33              	.LCFI0:
  34              		.cfi_def_cfa_offset 8
  35              		.cfi_offset 4, -8
  36              		.cfi_offset 14, -4
  37              		.loc 1 192 0
  38 0002 40F20004 		movw	r4, #:lower16:.LANCHOR0
  39 0006 C0F20004 		movt	r4, #:upper16:.LANCHOR0
  40 000a 2046     		mov	r0, r4
  41 000c FFF7FEFF 		bl	adcObjectInit
  42              	.LVL0:
  43              		.loc 1 193 0
  44 0010 4FF40452 		mov	r2, #8448
  45 0014 C4F20102 		movt	r2, 16385
  46 0018 A262     		str	r2, [r4, #40]
  47              		.loc 1 195 0
  48 001a 42F61643 		movw	r3, #11286
  49              		.loc 1 194 0
  50 001e 054A     		ldr	r2, .L2
  51              		.loc 1 195 0
  52 0020 C0F20223 		movt	r3, 514
  53              		.loc 1 218 0
  54 0024 1220     		movs	r0, #18
  55 0026 6021     		movs	r1, #96
  56              		.loc 1 194 0
  57 0028 E262     		str	r2, [r4, #44]
ARM GAS  C:\Users\DNIEL~1\AppData\Local\Temp\ccSb8sbz.s 			page 2


  58              		.loc 1 195 0
  59 002a 2363     		str	r3, [r4, #48]
  60              		.loc 1 219 0
  61 002c BDE81040 		pop	{r4, lr}
  62              		.loc 1 218 0
  63 0030 FFF7FEBF 		b	nvicEnableVector
  64              	.LVL1:
  65              	.L3:
  66              		.align	2
  67              	.L2:
  68 0034 78000000 		.word	_stm32_dma_streams+120
  69              		.cfi_endproc
  70              	.LFE120:
  71              		.size	adc_lld_init, .-adc_lld_init
  72 0038 AFF30080 		.section	.text.adc_lld_start,"ax",%progbits
  72      AFF30080 
  73              		.align	2
  74              		.p2align 4,,15
  75              		.global	adc_lld_start
  76              		.thumb
  77              		.thumb_func
  78              		.type	adc_lld_start, %function
  79              	adc_lld_start:
  80              	.LFB121:
  81              		.loc 1 228 0
  82              		.cfi_startproc
  83              		@ args = 0, pretend = 0, frame = 0
  84              		@ frame_needed = 0, uses_anonymous_args = 0
  85              	.LVL2:
  86              		.loc 1 231 0
  87 0000 0378     		ldrb	r3, [r0, #0]	@ zero_extendqisi2
  88 0002 012B     		cmp	r3, #1
  89              		.loc 1 228 0
  90 0004 10B5     		push	{r4, lr}
  91              	.LCFI1:
  92              		.cfi_def_cfa_offset 8
  93              		.cfi_offset 4, -8
  94              		.cfi_offset 14, -4
  95              		.loc 1 228 0
  96 0006 0446     		mov	r4, r0
  97              		.loc 1 231 0
  98 0008 00D0     		beq	.L8
  99 000a 10BD     		pop	{r4, pc}
 100              	.L8:
 101              		.loc 1 246 0
 102 000c 1348     		ldr	r0, .L10
 103              	.LVL3:
 104 000e 8442     		cmp	r4, r0
 105 0010 0DD0     		beq	.L9
 106              	.L6:
 107              		.loc 1 273 0
 108 0012 4FF40C51 		mov	r1, #8960
 109 0016 C4F20101 		movt	r1, 16385
 110              		.loc 1 277 0
 111 001a A36A     		ldr	r3, [r4, #40]
 112              		.loc 1 273 0
 113 001c 4FF48030 		mov	r0, #65536
ARM GAS  C:\Users\DNIEL~1\AppData\Local\Temp\ccSb8sbz.s 			page 3


 114 0020 4860     		str	r0, [r1, #4]
 115              		.loc 1 277 0
 116 0022 0022     		movs	r2, #0
 117              		.loc 1 279 0
 118 0024 0121     		movs	r1, #1
 119              		.loc 1 277 0
 120 0026 5A60     		str	r2, [r3, #4]
 121              		.loc 1 278 0
 122 0028 9A60     		str	r2, [r3, #8]
 123              		.loc 1 279 0
 124 002a 9960     		str	r1, [r3, #8]
 125 002c 10BD     		pop	{r4, pc}
 126              	.L9:
 127              	.LBB2:
 128              		.loc 1 248 0
 129 002e 0C4A     		ldr	r2, .L10+4
 130 0030 E06A     		ldr	r0, [r4, #44]
 131 0032 0621     		movs	r1, #6
 132 0034 2346     		mov	r3, r4
 133 0036 FFF7FEFF 		bl	dmaStreamAllocate
 134              	.LVL4:
 135              		.loc 1 253 0
 136 003a E16A     		ldr	r1, [r4, #44]
 137 003c 42F24C12 		movw	r2, #8524
 138 0040 0868     		ldr	r0, [r1, #0]
 139              		.loc 1 254 0
 140 0042 4FF46053 		mov	r3, #14336
 141 0046 C4F20203 		movt	r3, 16386
 142              		.loc 1 253 0
 143 004a C4F20102 		movt	r2, 16385
 144 004e 8260     		str	r2, [r0, #8]
 145              		.loc 1 254 0
 146 0050 596C     		ldr	r1, [r3, #68]
 147 0052 41F40072 		orr	r2, r1, #512
 148 0056 5A64     		str	r2, [r3, #68]
 149 0058 DBE7     		b	.L6
 150              	.L11:
 151 005a 00BF     		.align	2
 152              	.L10:
 153 005c 00000000 		.word	.LANCHOR0
 154 0060 00000000 		.word	adc_lld_serve_rx_interrupt
 155              	.LBE2:
 156              		.cfi_endproc
 157              	.LFE121:
 158              		.size	adc_lld_start, .-adc_lld_start
 159 0064 AFF30080 		.section	.text.adc_lld_stop,"ax",%progbits
 159      AFF30080 
 159      AFF30080 
 160              		.align	2
 161              		.p2align 4,,15
 162              		.global	adc_lld_stop
 163              		.thumb
 164              		.thumb_func
 165              		.type	adc_lld_stop, %function
 166              	adc_lld_stop:
 167              	.LFB122:
 168              		.loc 1 290 0
ARM GAS  C:\Users\DNIEL~1\AppData\Local\Temp\ccSb8sbz.s 			page 4


 169              		.cfi_startproc
 170              		@ args = 0, pretend = 0, frame = 0
 171              		@ frame_needed = 0, uses_anonymous_args = 0
 172              	.LVL5:
 173              		.loc 1 293 0
 174 0000 0378     		ldrb	r3, [r0, #0]	@ zero_extendqisi2
 175 0002 022B     		cmp	r3, #2
 176              		.loc 1 290 0
 177 0004 10B5     		push	{r4, lr}
 178              	.LCFI2:
 179              		.cfi_def_cfa_offset 8
 180              		.cfi_offset 4, -8
 181              		.cfi_offset 14, -4
 182              		.loc 1 290 0
 183 0006 0446     		mov	r4, r0
 184              		.loc 1 293 0
 185 0008 00D0     		beq	.L16
 186              	.LVL6:
 187              	.L12:
 188 000a 10BD     		pop	{r4, pc}
 189              	.LVL7:
 190              	.L16:
 191              		.loc 1 294 0
 192 000c C06A     		ldr	r0, [r0, #44]
 193              	.LVL8:
 194 000e FFF7FEFF 		bl	dmaStreamRelease
 195              	.LVL9:
 196              		.loc 1 304 0
 197 0012 0849     		ldr	r1, .L17
 198              		.loc 1 295 0
 199 0014 A06A     		ldr	r0, [r4, #40]
 200 0016 0022     		movs	r2, #0
 201              		.loc 1 304 0
 202 0018 8C42     		cmp	r4, r1
 203              		.loc 1 295 0
 204 001a 4260     		str	r2, [r0, #4]
 205              		.loc 1 296 0
 206 001c 8260     		str	r2, [r0, #8]
 207              		.loc 1 304 0
 208 001e F4D1     		bne	.L12
 209              		.loc 1 305 0
 210 0020 4FF46053 		mov	r3, #14336
 211 0024 C4F20203 		movt	r3, 16386
 212 0028 586C     		ldr	r0, [r3, #68]
 213 002a 20F40072 		bic	r2, r0, #512
 214 002e 5A64     		str	r2, [r3, #68]
 215 0030 EBE7     		b	.L12
 216              	.L18:
 217 0032 00BF     		.align	2
 218              	.L17:
 219 0034 00000000 		.word	.LANCHOR0
 220              		.cfi_endproc
 221              	.LFE122:
 222              		.size	adc_lld_stop, .-adc_lld_stop
 223 0038 AFF30080 		.section	.text.adc_lld_start_conversion,"ax",%progbits
 223      AFF30080 
 224              		.align	2
ARM GAS  C:\Users\DNIEL~1\AppData\Local\Temp\ccSb8sbz.s 			page 5


 225              		.p2align 4,,15
 226              		.global	adc_lld_start_conversion
 227              		.thumb
 228              		.thumb_func
 229              		.type	adc_lld_start_conversion, %function
 230              	adc_lld_start_conversion:
 231              	.LFB123:
 232              		.loc 1 322 0
 233              		.cfi_startproc
 234              		@ args = 0, pretend = 0, frame = 0
 235              		@ frame_needed = 0, uses_anonymous_args = 0
 236              		@ link register save eliminated.
 237              	.LVL10:
 238              		.loc 1 324 0
 239 0000 0369     		ldr	r3, [r0, #16]
 240              	.LVL11:
 241              		.loc 1 327 0
 242 0002 026B     		ldr	r2, [r0, #48]
 243              	.LVL12:
 244              		.loc 1 328 0
 245 0004 1968     		ldr	r1, [r3, #0]
 246              		.loc 1 322 0
 247 0006 2DE9F003 		push	{r4, r5, r6, r7, r8, r9}
 248              	.LCFI3:
 249              		.cfi_def_cfa_offset 24
 250              		.cfi_offset 4, -24
 251              		.cfi_offset 5, -20
 252              		.cfi_offset 6, -16
 253              		.cfi_offset 7, -12
 254              		.cfi_offset 8, -8
 255              		.cfi_offset 9, -4
 256              		.loc 1 328 0
 257 000a 09B1     		cbz	r1, .L20
 258              		.loc 1 329 0
 259 000c 42F48072 		orr	r2, r2, #256
 260              	.LVL13:
 261              	.L20:
 262              		.loc 1 331 0
 263 0010 C468     		ldr	r4, [r0, #12]
 264              		.loc 1 336 0
 265 0012 C56A     		ldr	r5, [r0, #44]
 266              		.loc 1 337 0
 267 0014 9E88     		ldrh	r6, [r3, #4]
 268              		.loc 1 336 0
 269 0016 2968     		ldr	r1, [r5, #0]
 270 0018 8768     		ldr	r7, [r0, #8]
 271              		.loc 1 352 0
 272 001a D3F810C0 		ldr	ip, [r3, #16]
 273              		.loc 1 336 0
 274 001e CF60     		str	r7, [r1, #12]
 275              		.loc 1 331 0
 276 0020 012C     		cmp	r4, #1
 277              		.loc 1 334 0
 278 0022 88BF     		it	hi
 279 0024 42F00802 		orrhi	r2, r2, #8
 280              	.LVL14:
 281              		.loc 1 337 0
ARM GAS  C:\Users\DNIEL~1\AppData\Local\Temp\ccSb8sbz.s 			page 6


 282 0028 04FB06F4 		mul	r4, r4, r6
 283 002c 4C60     		str	r4, [r1, #4]
 284              		.loc 1 339 0
 285 002e 0A60     		str	r2, [r1, #0]
 286              		.loc 1 340 0
 287 0030 D1F80090 		ldr	r9, [r1, #0]
 288              		.loc 1 344 0
 289 0034 D3F81880 		ldr	r8, [r3, #24]
 290              		.loc 1 345 0
 291 0038 DF69     		ldr	r7, [r3, #28]
 292              		.loc 1 346 0
 293 003a 1E6A     		ldr	r6, [r3, #32]
 294              		.loc 1 347 0
 295 003c 5D6A     		ldr	r5, [r3, #36]
 296              		.loc 1 348 0
 297 003e 9C6A     		ldr	r4, [r3, #40]
 298              		.loc 1 353 0
 299 0040 5B69     		ldr	r3, [r3, #20]
 300              	.LVL15:
 301              		.loc 1 343 0
 302 0042 826A     		ldr	r2, [r0, #40]
 303              	.LVL16:
 304              		.loc 1 340 0
 305 0044 49F00109 		orr	r9, r9, #1
 306 0048 C1F80090 		str	r9, [r1, #0]
 307              		.loc 1 352 0
 308 004c 4CF08060 		orr	r0, ip, #67108864
 309              	.LVL17:
 310              		.loc 1 343 0
 311 0050 0021     		movs	r1, #0
 312              	.LVL18:
 313              		.loc 1 353 0
 314 0052 13F0804F 		tst	r3, #1073741824
 315              		.loc 1 355 0
 316 0056 43F44073 		orr	r3, r3, #768
 317              		.loc 1 352 0
 318 005a 40F48070 		orr	r0, r0, #256
 319              		.loc 1 355 0
 320 005e 14BF     		ite	ne
 321 0060 43F00303 		orrne	r3, r3, #3
 322              		.loc 1 358 0
 323 0064 43F00103 		orreq	r3, r3, #1
 324              		.loc 1 343 0
 325 0068 1160     		str	r1, [r2, #0]
 326              		.loc 1 344 0
 327 006a C2F80C80 		str	r8, [r2, #12]
 328              		.loc 1 345 0
 329 006e 1761     		str	r7, [r2, #16]
 330              		.loc 1 346 0
 331 0070 D662     		str	r6, [r2, #44]
 332              		.loc 1 347 0
 333 0072 1563     		str	r5, [r2, #48]
 334              		.loc 1 348 0
 335 0074 5463     		str	r4, [r2, #52]
 336              		.loc 1 352 0
 337 0076 5060     		str	r0, [r2, #4]
 338              		.loc 1 357 0
ARM GAS  C:\Users\DNIEL~1\AppData\Local\Temp\ccSb8sbz.s 			page 7


 339 0078 9360     		str	r3, [r2, #8]
 340              		.loc 1 359 0
 341 007a BDE8F003 		pop	{r4, r5, r6, r7, r8, r9}
 342 007e 7047     		bx	lr
 343              		.cfi_endproc
 344              	.LFE123:
 345              		.size	adc_lld_start_conversion, .-adc_lld_start_conversion
 346              		.section	.text.adc_lld_stop_conversion,"ax",%progbits
 347              		.align	2
 348              		.p2align 4,,15
 349              		.global	adc_lld_stop_conversion
 350              		.thumb
 351              		.thumb_func
 352              		.type	adc_lld_stop_conversion, %function
 353              	adc_lld_stop_conversion:
 354              	.LFB124:
 355              		.loc 1 368 0
 356              		.cfi_startproc
 357              		@ args = 0, pretend = 0, frame = 0
 358              		@ frame_needed = 0, uses_anonymous_args = 0
 359              		@ link register save eliminated.
 360              	.LVL19:
 361              		.loc 1 370 0
 362 0000 C16A     		ldr	r1, [r0, #44]
 363 0002 0A68     		ldr	r2, [r1, #0]
 364 0004 1368     		ldr	r3, [r2, #0]
 365              		.loc 1 368 0
 366 0006 10B4     		push	{r4}
 367              	.LCFI4:
 368              		.cfi_def_cfa_offset 4
 369              		.cfi_offset 4, -4
 370              		.loc 1 370 0
 371 0008 23F00104 		bic	r4, r3, #1
 372 000c 1460     		str	r4, [r2, #0]
 373              	.L28:
 374              		.loc 1 370 0 is_stmt 0 discriminator 1
 375 000e 1368     		ldr	r3, [r2, #0]
 376 0010 13F00103 		ands	r3, r3, #1
 377 0014 FBD1     		bne	.L28
 378              		.loc 1 370 0 discriminator 2
 379 0016 0C7A     		ldrb	r4, [r1, #8]	@ zero_extendqisi2
 380              		.loc 1 371 0 is_stmt 1 discriminator 2
 381 0018 826A     		ldr	r2, [r0, #40]
 382              		.loc 1 370 0 discriminator 2
 383 001a 4968     		ldr	r1, [r1, #4]
 384 001c 3D20     		movs	r0, #61
 385              	.LVL20:
 386 001e 00FA04F0 		lsl	r0, r0, r4
 387 0022 0860     		str	r0, [r1, #0]
 388              		.loc 1 371 0 discriminator 2
 389 0024 5360     		str	r3, [r2, #4]
 390              		.loc 1 372 0 discriminator 2
 391 0026 9360     		str	r3, [r2, #8]
 392              		.loc 1 373 0 discriminator 2
 393 0028 0123     		movs	r3, #1
 394 002a 9360     		str	r3, [r2, #8]
 395              		.loc 1 374 0 discriminator 2
ARM GAS  C:\Users\DNIEL~1\AppData\Local\Temp\ccSb8sbz.s 			page 8


 396 002c 10BC     		pop	{r4}
 397 002e 7047     		bx	lr
 398              		.cfi_endproc
 399              	.LFE124:
 400              		.size	adc_lld_stop_conversion, .-adc_lld_stop_conversion
 401              		.section	.text.adc_lld_serve_rx_interrupt,"ax",%progbits
 402              		.align	2
 403              		.p2align 4,,15
 404              		.thumb
 405              		.thumb_func
 406              		.type	adc_lld_serve_rx_interrupt, %function
 407              	adc_lld_serve_rx_interrupt:
 408              	.LFB118:
 409              		.loc 1 80 0
 410              		.cfi_startproc
 411              		@ args = 0, pretend = 0, frame = 0
 412              		@ frame_needed = 0, uses_anonymous_args = 0
 413              	.LVL21:
 414              		.loc 1 83 0
 415 0000 11F00C0F 		tst	r1, #12
 416              		.loc 1 80 0
 417 0004 38B5     		push	{r3, r4, r5, lr}
 418              	.LCFI5:
 419              		.cfi_def_cfa_offset 16
 420              		.cfi_offset 3, -16
 421              		.cfi_offset 4, -12
 422              		.cfi_offset 5, -8
 423              		.cfi_offset 14, -4
 424              		.loc 1 80 0
 425 0006 0D46     		mov	r5, r1
 426 0008 0446     		mov	r4, r0
 427              		.loc 1 83 0
 428 000a 20D1     		bne	.L65
 429              		.loc 1 91 0
 430 000c 0369     		ldr	r3, [r0, #16]
 431 000e 002B     		cmp	r3, #0
 432 0010 3DD0     		beq	.L30
 433              		.loc 1 92 0
 434 0012 CA06     		lsls	r2, r1, #27
 435 0014 05D5     		bpl	.L38
 436              		.loc 1 94 0
 437 0016 9B68     		ldr	r3, [r3, #8]
 438 0018 1BB1     		cbz	r3, .L38
 439              		.loc 1 94 0 is_stmt 0 discriminator 1
 440 001a C268     		ldr	r2, [r0, #12]
 441 001c 8168     		ldr	r1, [r0, #8]
 442              	.LVL22:
 443 001e 5208     		lsrs	r2, r2, #1
 444 0020 9847     		blx	r3
 445              	.LVL23:
 446              	.L38:
 447              		.loc 1 96 0 is_stmt 1
 448 0022 AB06     		lsls	r3, r5, #26
 449 0024 33D5     		bpl	.L30
 450              		.loc 1 98 0
 451 0026 2069     		ldr	r0, [r4, #16]
 452 0028 0168     		ldr	r1, [r0, #0]
ARM GAS  C:\Users\DNIEL~1\AppData\Local\Temp\ccSb8sbz.s 			page 9


 453 002a 0029     		cmp	r1, #0
 454 002c 34D0     		beq	.L40
 455              		.loc 1 98 0 is_stmt 0 discriminator 1
 456 002e 8568     		ldr	r5, [r0, #8]
 457              	.LVL24:
 458 0030 002D     		cmp	r5, #0
 459 0032 2CD0     		beq	.L30
 460              		.loc 1 98 0 discriminator 3
 461 0034 E268     		ldr	r2, [r4, #12]
 462 0036 012A     		cmp	r2, #1
 463 0038 2AD9     		bls	.L41
 464              	.LBB3:
 465              		.loc 1 98 0 discriminator 4
 466 003a 8088     		ldrh	r0, [r0, #4]
 467 003c A368     		ldr	r3, [r4, #8]
 468 003e 5208     		lsrs	r2, r2, #1
 469              	.LVL25:
 470 0040 00FB02F1 		mul	r1, r0, r2
 471 0044 03EB4101 		add	r1, r3, r1, lsl #1
 472 0048 2046     		mov	r0, r4
 473 004a A847     		blx	r5
 474              	.LVL26:
 475 004c 38BD     		pop	{r3, r4, r5, pc}
 476              	.LVL27:
 477              	.L65:
 478              	.LBE3:
 479              		.loc 1 86 0 is_stmt 1
 480 004e FFF7FEFF 		bl	adc_lld_stop_conversion
 481              	.LVL28:
 482 0052 2269     		ldr	r2, [r4, #16]
 483 0054 D368     		ldr	r3, [r2, #12]
 484 0056 4BB1     		cbz	r3, .L33
 485              		.loc 1 86 0 is_stmt 0 discriminator 1
 486 0058 0520     		movs	r0, #5
 487 005a 0021     		movs	r1, #0
 488 005c 2070     		strb	r0, [r4, #0]
 489 005e 2046     		mov	r0, r4
 490 0060 9847     		blx	r3
 491              	.LVL29:
 492 0062 2178     		ldrb	r1, [r4, #0]	@ zero_extendqisi2
 493 0064 0529     		cmp	r1, #5
 494 0066 01D1     		bne	.L33
 495              		.loc 1 86 0 discriminator 3
 496 0068 0222     		movs	r2, #2
 497 006a 2270     		strb	r2, [r4, #0]
 498              	.L33:
 499              		.loc 1 86 0 discriminator 2
 500 006c 0020     		movs	r0, #0
 501 006e 2061     		str	r0, [r4, #16]
 502              	.LBB4:
 503 0070 2023     		movs	r3, #32
 504              	.LVL30:
 505              	@ 86 "../../../ChibiOS/os/hal/platforms/STM32F4xx/adc_lld.c" 1
 506 0072 83F31188 		msr     BASEPRI, r3
 507              	@ 0 "" 2
 508              	.LVL31:
 509              		.thumb
ARM GAS  C:\Users\DNIEL~1\AppData\Local\Temp\ccSb8sbz.s 			page 10


 510              	.LBE4:
 511 0076 6369     		ldr	r3, [r4, #20]
 512              	.LVL32:
 513 0078 33B1     		cbz	r3, .L46
 514              	.LVL33:
 515              	.LBB5:
 516              		.loc 1 86 0 discriminator 4
 517 007a 4FF0FF31 		mov	r1, #-1
 518 007e 6061     		str	r0, [r4, #20]
 519 0080 1846     		mov	r0, r3
 520 0082 5962     		str	r1, [r3, #36]
 521 0084 FFF7FEFF 		bl	chSchReadyI
 522              	.LVL34:
 523              	.L46:
 524              	.LBE5:
 525              	.LBB6:
 526              		.loc 1 98 0 is_stmt 1 discriminator 14
 527 0088 0023     		movs	r3, #0
 528              	.LVL35:
 529              	@ 98 "../../../ChibiOS/os/hal/platforms/STM32F4xx/adc_lld.c" 1
 530 008a 83F31188 		msr     BASEPRI, r3
 531              	@ 0 "" 2
 532              	.LVL36:
 533              		.thumb
 534              	.L30:
 535 008e 38BD     		pop	{r3, r4, r5, pc}
 536              	.LVL37:
 537              	.L41:
 538              	.LBE6:
 539              		.loc 1 98 0 is_stmt 0 discriminator 5
 540 0090 2046     		mov	r0, r4
 541 0092 A168     		ldr	r1, [r4, #8]
 542 0094 A847     		blx	r5
 543              	.LVL38:
 544 0096 38BD     		pop	{r3, r4, r5, pc}
 545              	.LVL39:
 546              	.L40:
 547              		.loc 1 98 0 discriminator 2
 548 0098 2046     		mov	r0, r4
 549 009a FFF7FEFF 		bl	adc_lld_stop_conversion
 550              	.LVL40:
 551 009e 2169     		ldr	r1, [r4, #16]
 552 00a0 8B68     		ldr	r3, [r1, #8]
 553 00a2 F3B1     		cbz	r3, .L42
 554              		.loc 1 98 0 discriminator 6
 555 00a4 E268     		ldr	r2, [r4, #12]
 556 00a6 0420     		movs	r0, #4
 557 00a8 012A     		cmp	r2, #1
 558 00aa 2070     		strb	r0, [r4, #0]
 559 00ac 1CD9     		bls	.L43
 560              	.LBB7:
 561              		.loc 1 98 0 discriminator 8
 562 00ae 8D88     		ldrh	r5, [r1, #4]
 563              	.LVL41:
 564 00b0 A168     		ldr	r1, [r4, #8]
 565 00b2 5208     		lsrs	r2, r2, #1
 566              	.LVL42:
ARM GAS  C:\Users\DNIEL~1\AppData\Local\Temp\ccSb8sbz.s 			page 11


 567 00b4 05FB02F5 		mul	r5, r5, r2
 568 00b8 2046     		mov	r0, r4
 569 00ba 01EB4501 		add	r1, r1, r5, lsl #1
 570 00be 9847     		blx	r3
 571              	.LVL43:
 572              	.L44:
 573              	.LBE7:
 574              		.loc 1 98 0 discriminator 10
 575 00c0 2278     		ldrb	r2, [r4, #0]	@ zero_extendqisi2
 576 00c2 042A     		cmp	r2, #4
 577 00c4 0DD0     		beq	.L42
 578              	.L45:
 579              		.loc 1 98 0 discriminator 12
 580 00c6 0021     		movs	r1, #0
 581 00c8 2161     		str	r1, [r4, #16]
 582              	.LBB8:
 583 00ca 2023     		movs	r3, #32
 584              	@ 98 "../../../ChibiOS/os/hal/platforms/STM32F4xx/adc_lld.c" 1
 585 00cc 83F31188 		msr     BASEPRI, r3
 586              	@ 0 "" 2
 587              	.LVL44:
 588              		.thumb
 589              	.LBE8:
 590 00d0 6269     		ldr	r2, [r4, #20]
 591 00d2 002A     		cmp	r2, #0
 592 00d4 D8D0     		beq	.L46
 593              	.LVL45:
 594              	.LBB9:
 595              		.loc 1 98 0 discriminator 13
 596 00d6 6161     		str	r1, [r4, #20]
 597 00d8 1046     		mov	r0, r2
 598 00da 5162     		str	r1, [r2, #36]
 599 00dc FFF7FEFF 		bl	chSchReadyI
 600              	.LVL46:
 601 00e0 D2E7     		b	.L46
 602              	.L42:
 603              	.LBE9:
 604              		.loc 1 98 0 discriminator 7
 605 00e2 0223     		movs	r3, #2
 606 00e4 2370     		strb	r3, [r4, #0]
 607 00e6 EEE7     		b	.L45
 608              	.LVL47:
 609              	.L43:
 610              		.loc 1 98 0 discriminator 9
 611 00e8 2046     		mov	r0, r4
 612 00ea A168     		ldr	r1, [r4, #8]
 613 00ec 9847     		blx	r3
 614              	.LVL48:
 615 00ee E7E7     		b	.L44
 616              		.cfi_endproc
 617              	.LFE118:
 618              		.size	adc_lld_serve_rx_interrupt, .-adc_lld_serve_rx_interrupt
 619              		.section	.text.Vector88,"ax",%progbits
 620              		.align	2
 621              		.p2align 4,,15
 622              		.global	Vector88
 623              		.thumb
ARM GAS  C:\Users\DNIEL~1\AppData\Local\Temp\ccSb8sbz.s 			page 12


 624              		.thumb_func
 625              		.type	Vector88, %function
 626              	Vector88:
 627              	.LFB119:
 628              		.loc 1 115 0 is_stmt 1
 629              		.cfi_startproc
 630              		@ args = 0, pretend = 0, frame = 0
 631              		@ frame_needed = 0, uses_anonymous_args = 0
 632              		.loc 1 135 0
 633 0000 4FF40453 		mov	r3, #8448
 634 0004 C4F20103 		movt	r3, 16385
 635              		.loc 1 136 0
 636 0008 0021     		movs	r1, #0
 637              		.loc 1 135 0
 638 000a 1A68     		ldr	r2, [r3, #0]
 639              	.LVL49:
 640              		.loc 1 115 0
 641 000c 10B5     		push	{r4, lr}
 642              	.LCFI6:
 643              		.cfi_def_cfa_offset 8
 644              		.cfi_offset 4, -8
 645              		.cfi_offset 14, -4
 646              		.loc 1 136 0
 647 000e 1960     		str	r1, [r3, #0]
 648              		.loc 1 139 0
 649 0010 9306     		lsls	r3, r2, #26
 650 0012 25D5     		bpl	.L67
 651              		.loc 1 139 0 is_stmt 0 discriminator 1
 652 0014 164C     		ldr	r4, .L85
 653 0016 E06A     		ldr	r0, [r4, #44]
 654 0018 0368     		ldr	r3, [r0, #0]
 655 001a 5A68     		ldr	r2, [r3, #4]
 656              	.LVL50:
 657 001c 02B3     		cbz	r2, .L67
 658              		.loc 1 142 0 is_stmt 1
 659 001e 2169     		ldr	r1, [r4, #16]
 660 0020 F1B1     		cbz	r1, .L67
 661              		.loc 1 143 0
 662 0022 2046     		mov	r0, r4
 663 0024 FFF7FEFF 		bl	adc_lld_stop_conversion
 664              	.LVL51:
 665 0028 2069     		ldr	r0, [r4, #16]
 666 002a C368     		ldr	r3, [r0, #12]
 667 002c 3BB1     		cbz	r3, .L69
 668              		.loc 1 143 0 is_stmt 0 discriminator 1
 669 002e 0522     		movs	r2, #5
 670 0030 0121     		movs	r1, #1
 671 0032 2270     		strb	r2, [r4, #0]
 672 0034 2046     		mov	r0, r4
 673 0036 9847     		blx	r3
 674              	.LVL52:
 675 0038 2178     		ldrb	r1, [r4, #0]	@ zero_extendqisi2
 676 003a 0529     		cmp	r1, #5
 677 003c 14D0     		beq	.L84
 678              	.L69:
 679              		.loc 1 143 0 discriminator 2
 680 003e 0022     		movs	r2, #0
ARM GAS  C:\Users\DNIEL~1\AppData\Local\Temp\ccSb8sbz.s 			page 13


 681 0040 2261     		str	r2, [r4, #16]
 682              	.LBB10:
 683 0042 2023     		movs	r3, #32
 684              	.LVL53:
 685              	@ 143 "../../../ChibiOS/os/hal/platforms/STM32F4xx/adc_lld.c" 1
 686 0044 83F31188 		msr     BASEPRI, r3
 687              	@ 0 "" 2
 688              	.LVL54:
 689              		.thumb
 690              	.LBE10:
 691 0048 6069     		ldr	r0, [r4, #20]
 692 004a 30B1     		cbz	r0, .L71
 693              	.LVL55:
 694              	.LBB11:
 695              		.loc 1 143 0 discriminator 4
 696 004c 4FF0FF33 		mov	r3, #-1
 697              	.LVL56:
 698 0050 0749     		ldr	r1, .L85
 699 0052 4362     		str	r3, [r0, #36]
 700 0054 4A61     		str	r2, [r1, #20]
 701 0056 FFF7FEFF 		bl	chSchReadyI
 702              	.LVL57:
 703              	.L71:
 704              	.LBE11:
 705              	.LBB12:
 706              		.loc 1 143 0 discriminator 5
 707 005a 0023     		movs	r3, #0
 708              	.LVL58:
 709              	@ 143 "../../../ChibiOS/os/hal/platforms/STM32F4xx/adc_lld.c" 1
 710 005c 83F31188 		msr     BASEPRI, r3
 711              	@ 0 "" 2
 712              	.LVL59:
 713              		.thumb
 714              	.L67:
 715              	.LBE12:
 716              		.loc 1 163 0 is_stmt 1
 717 0060 BDE81040 		pop	{r4, lr}
 718              		.loc 1 162 0
 719 0064 FFF7FEBF 		b	_port_irq_epilogue
 720              	.LVL60:
 721              	.L84:
 722              		.loc 1 143 0 discriminator 3
 723 0068 0220     		movs	r0, #2
 724 006a 2070     		strb	r0, [r4, #0]
 725 006c E7E7     		b	.L69
 726              	.L86:
 727 006e 00BF     		.align	2
 728              	.L85:
 729 0070 00000000 		.word	.LANCHOR0
 730              		.cfi_endproc
 731              	.LFE119:
 732              		.size	Vector88, .-Vector88
 733 0074 AFF30080 		.section	.text.adcSTM32EnableTSVREFE,"ax",%progbits
 733      AFF30080 
 733      AFF30080 
 734              		.align	2
 735              		.p2align 4,,15
ARM GAS  C:\Users\DNIEL~1\AppData\Local\Temp\ccSb8sbz.s 			page 14


 736              		.global	adcSTM32EnableTSVREFE
 737              		.thumb
 738              		.thumb_func
 739              		.type	adcSTM32EnableTSVREFE, %function
 740              	adcSTM32EnableTSVREFE:
 741              	.LFB125:
 742              		.loc 1 382 0
 743              		.cfi_startproc
 744              		@ args = 0, pretend = 0, frame = 0
 745              		@ frame_needed = 0, uses_anonymous_args = 0
 746              		@ link register save eliminated.
 747              		.loc 1 384 0
 748 0000 4FF40C53 		mov	r3, #8960
 749 0004 C4F20103 		movt	r3, 16385
 750 0008 5A68     		ldr	r2, [r3, #4]
 751 000a 42F40000 		orr	r0, r2, #8388608
 752 000e 5860     		str	r0, [r3, #4]
 753 0010 7047     		bx	lr
 754              		.cfi_endproc
 755              	.LFE125:
 756              		.size	adcSTM32EnableTSVREFE, .-adcSTM32EnableTSVREFE
 757              		.section	.text.adcSTM32DisableTSVREFE,"ax",%progbits
 758              		.align	2
 759              		.p2align 4,,15
 760              		.global	adcSTM32DisableTSVREFE
 761              		.thumb
 762              		.thumb_func
 763              		.type	adcSTM32DisableTSVREFE, %function
 764              	adcSTM32DisableTSVREFE:
 765              	.LFB126:
 766              		.loc 1 393 0
 767              		.cfi_startproc
 768              		@ args = 0, pretend = 0, frame = 0
 769              		@ frame_needed = 0, uses_anonymous_args = 0
 770              		@ link register save eliminated.
 771              		.loc 1 395 0
 772 0000 4FF40C53 		mov	r3, #8960
 773 0004 C4F20103 		movt	r3, 16385
 774 0008 5A68     		ldr	r2, [r3, #4]
 775 000a 22F40000 		bic	r0, r2, #8388608
 776 000e 5860     		str	r0, [r3, #4]
 777 0010 7047     		bx	lr
 778              		.cfi_endproc
 779              	.LFE126:
 780              		.size	adcSTM32DisableTSVREFE, .-adcSTM32DisableTSVREFE
 781              		.section	.text.adcSTM32EnableVBATE,"ax",%progbits
 782              		.align	2
 783              		.p2align 4,,15
 784              		.global	adcSTM32EnableVBATE
 785              		.thumb
 786              		.thumb_func
 787              		.type	adcSTM32EnableVBATE, %function
 788              	adcSTM32EnableVBATE:
 789              	.LFB127:
 790              		.loc 1 403 0
 791              		.cfi_startproc
 792              		@ args = 0, pretend = 0, frame = 0
ARM GAS  C:\Users\DNIEL~1\AppData\Local\Temp\ccSb8sbz.s 			page 15


 793              		@ frame_needed = 0, uses_anonymous_args = 0
 794              		@ link register save eliminated.
 795              		.loc 1 405 0
 796 0000 4FF40C53 		mov	r3, #8960
 797 0004 C4F20103 		movt	r3, 16385
 798 0008 5A68     		ldr	r2, [r3, #4]
 799 000a 42F48000 		orr	r0, r2, #4194304
 800 000e 5860     		str	r0, [r3, #4]
 801 0010 7047     		bx	lr
 802              		.cfi_endproc
 803              	.LFE127:
 804              		.size	adcSTM32EnableVBATE, .-adcSTM32EnableVBATE
 805              		.section	.text.adcSTM32DisableVBATE,"ax",%progbits
 806              		.align	2
 807              		.p2align 4,,15
 808              		.global	adcSTM32DisableVBATE
 809              		.thumb
 810              		.thumb_func
 811              		.type	adcSTM32DisableVBATE, %function
 812              	adcSTM32DisableVBATE:
 813              	.LFB128:
 814              		.loc 1 413 0
 815              		.cfi_startproc
 816              		@ args = 0, pretend = 0, frame = 0
 817              		@ frame_needed = 0, uses_anonymous_args = 0
 818              		@ link register save eliminated.
 819              		.loc 1 415 0
 820 0000 4FF40C53 		mov	r3, #8960
 821 0004 C4F20103 		movt	r3, 16385
 822 0008 5A68     		ldr	r2, [r3, #4]
 823 000a 22F48000 		bic	r0, r2, #4194304
 824 000e 5860     		str	r0, [r3, #4]
 825 0010 7047     		bx	lr
 826              		.cfi_endproc
 827              	.LFE128:
 828              		.size	adcSTM32DisableVBATE, .-adcSTM32DisableVBATE
 829              		.global	ADCD2
 830 0012 00BFAFF3 		.section	.bss.ADCD2,"aw",%nobits
 830      0080AFF3 
 830      0080AFF3 
 830      0080
 831              		.align	2
 832              		.set	.LANCHOR0,. + 0
 833              		.type	ADCD2, %object
 834              		.size	ADCD2, 52
 835              	ADCD2:
 836 0000 00000000 		.space	52
 836      00000000 
 836      00000000 
 836      00000000 
 836      00000000 
 837              		.text
 838              	.Letext0:
 839              		.file 2 "c:\\chibistudio\\tools\\gnu tools arm embedded\\4.7 2014q2\\bin\\../lib/gcc/arm-none-eabi
 840              		.file 3 "c:\\chibistudio\\tools\\gnu tools arm embedded\\4.7 2014q2\\bin\\../lib/gcc/arm-none-eabi
 841              		.file 4 "../../../ChibiOS/os/ports/GCC/ARMCMx/chtypes.h"
 842              		.file 5 "../../../ChibiOS/os/kernel/include/chlists.h"
ARM GAS  C:\Users\DNIEL~1\AppData\Local\Temp\ccSb8sbz.s 			page 16


 843              		.file 6 "../../../ChibiOS/os/kernel/include/chthreads.h"
 844              		.file 7 "../../../ChibiOS/os/ports/GCC/ARMCMx/chcore_v7m.h"
 845              		.file 8 "../../../ChibiOS/os/kernel/include/chmtx.h"
 846              		.file 9 "../../../ChibiOS/os/hal/platforms/STM32F4xx/stm32f4xx.h"
 847              		.file 10 "../../../ChibiOS/os/hal/platforms/STM32F4xx/stm32_dma.h"
 848              		.file 11 "../../../ChibiOS/os/hal/include/adc.h"
 849              		.file 12 "../../../ChibiOS/os/hal/platforms/STM32F4xx/adc_lld.h"
 850              		.file 13 "../../../ChibiOS/os/ports/common/ARMCMx/CMSIS/include/core_cm4.h"
 851              		.file 14 "../../../ChibiOS/os/ports/common/ARMCMx/nvic.h"
 852              		.file 15 "../../../ChibiOS/os/kernel/include/chschd.h"
 853              		.section	.debug_info,"",%progbits
 854              	.Ldebug_info0:
 855 0000 F1110000 		.4byte	0x11f1
 856 0004 0200     		.2byte	0x2
 857 0006 00000000 		.4byte	.Ldebug_abbrev0
 858 000a 04       		.byte	0x4
 859 000b 01       		.uleb128 0x1
 860 000c F6070000 		.4byte	.LASF262
 861 0010 01       		.byte	0x1
 862 0011 FA030000 		.4byte	.LASF263
 863 0015 2F0C0000 		.4byte	.LASF264
 864 0019 00000000 		.4byte	.Ldebug_ranges0+0
 865 001d 00000000 		.4byte	0
 866 0021 00000000 		.4byte	0
 867 0025 00000000 		.4byte	.Ldebug_line0
 868 0029 02       		.uleb128 0x2
 869 002a 04       		.byte	0x4
 870 002b 05       		.byte	0x5
 871 002c 696E7400 		.ascii	"int\000"
 872 0030 03       		.uleb128 0x3
 873 0031 05000000 		.4byte	.LASF2
 874 0035 02       		.byte	0x2
 875 0036 D5       		.byte	0xd5
 876 0037 3B000000 		.4byte	0x3b
 877 003b 04       		.uleb128 0x4
 878 003c 04       		.byte	0x4
 879 003d 07       		.byte	0x7
 880 003e F6060000 		.4byte	.LASF0
 881 0042 04       		.uleb128 0x4
 882 0043 01       		.byte	0x1
 883 0044 06       		.byte	0x6
 884 0045 65020000 		.4byte	.LASF1
 885 0049 03       		.uleb128 0x3
 886 004a 7B020000 		.4byte	.LASF3
 887 004e 03       		.byte	0x3
 888 004f 2A       		.byte	0x2a
 889 0050 54000000 		.4byte	0x54
 890 0054 04       		.uleb128 0x4
 891 0055 01       		.byte	0x1
 892 0056 08       		.byte	0x8
 893 0057 BD020000 		.4byte	.LASF4
 894 005b 04       		.uleb128 0x4
 895 005c 02       		.byte	0x2
 896 005d 05       		.byte	0x5
 897 005e 390A0000 		.4byte	.LASF5
 898 0062 03       		.uleb128 0x3
 899 0063 DC080000 		.4byte	.LASF6
ARM GAS  C:\Users\DNIEL~1\AppData\Local\Temp\ccSb8sbz.s 			page 17


 900 0067 03       		.byte	0x3
 901 0068 36       		.byte	0x36
 902 0069 6D000000 		.4byte	0x6d
 903 006d 04       		.uleb128 0x4
 904 006e 02       		.byte	0x2
 905 006f 07       		.byte	0x7
 906 0070 690B0000 		.4byte	.LASF7
 907 0074 03       		.uleb128 0x3
 908 0075 8B000000 		.4byte	.LASF8
 909 0079 03       		.byte	0x3
 910 007a 4F       		.byte	0x4f
 911 007b 7F000000 		.4byte	0x7f
 912 007f 04       		.uleb128 0x4
 913 0080 04       		.byte	0x4
 914 0081 05       		.byte	0x5
 915 0082 A9010000 		.4byte	.LASF9
 916 0086 03       		.uleb128 0x3
 917 0087 0B0B0000 		.4byte	.LASF10
 918 008b 03       		.byte	0x3
 919 008c 50       		.byte	0x50
 920 008d 91000000 		.4byte	0x91
 921 0091 04       		.uleb128 0x4
 922 0092 04       		.byte	0x4
 923 0093 07       		.byte	0x7
 924 0094 F9040000 		.4byte	.LASF11
 925 0098 04       		.uleb128 0x4
 926 0099 08       		.byte	0x8
 927 009a 05       		.byte	0x5
 928 009b 28060000 		.4byte	.LASF12
 929 009f 04       		.uleb128 0x4
 930 00a0 08       		.byte	0x8
 931 00a1 07       		.byte	0x7
 932 00a2 BD080000 		.4byte	.LASF13
 933 00a6 03       		.uleb128 0x3
 934 00a7 7B0A0000 		.4byte	.LASF14
 935 00ab 04       		.byte	0x4
 936 00ac 27       		.byte	0x27
 937 00ad 74000000 		.4byte	0x74
 938 00b1 03       		.uleb128 0x3
 939 00b2 A8090000 		.4byte	.LASF15
 940 00b6 04       		.byte	0x4
 941 00b7 28       		.byte	0x28
 942 00b8 49000000 		.4byte	0x49
 943 00bc 03       		.uleb128 0x3
 944 00bd DA010000 		.4byte	.LASF16
 945 00c1 04       		.byte	0x4
 946 00c2 29       		.byte	0x29
 947 00c3 49000000 		.4byte	0x49
 948 00c7 03       		.uleb128 0x3
 949 00c8 CB0A0000 		.4byte	.LASF17
 950 00cc 04       		.byte	0x4
 951 00cd 2A       		.byte	0x2a
 952 00ce 49000000 		.4byte	0x49
 953 00d2 03       		.uleb128 0x3
 954 00d3 01090000 		.4byte	.LASF18
 955 00d7 04       		.byte	0x4
 956 00d8 2B       		.byte	0x2b
ARM GAS  C:\Users\DNIEL~1\AppData\Local\Temp\ccSb8sbz.s 			page 18


 957 00d9 49000000 		.4byte	0x49
 958 00dd 03       		.uleb128 0x3
 959 00de 5B000000 		.4byte	.LASF19
 960 00e2 04       		.byte	0x4
 961 00e3 2C       		.byte	0x2c
 962 00e4 86000000 		.4byte	0x86
 963 00e8 03       		.uleb128 0x3
 964 00e9 E5080000 		.4byte	.LASF20
 965 00ed 04       		.byte	0x4
 966 00ee 2D       		.byte	0x2d
 967 00ef 74000000 		.4byte	0x74
 968 00f3 03       		.uleb128 0x3
 969 00f4 83020000 		.4byte	.LASF21
 970 00f8 04       		.byte	0x4
 971 00f9 2F       		.byte	0x2f
 972 00fa 86000000 		.4byte	0x86
 973 00fe 03       		.uleb128 0x3
 974 00ff 40000000 		.4byte	.LASF22
 975 0103 04       		.byte	0x4
 976 0104 31       		.byte	0x31
 977 0105 86000000 		.4byte	0x86
 978 0109 03       		.uleb128 0x3
 979 010a 9F0A0000 		.4byte	.LASF23
 980 010e 05       		.byte	0x5
 981 010f 23       		.byte	0x23
 982 0110 14010000 		.4byte	0x114
 983 0114 05       		.uleb128 0x5
 984 0115 9F0A0000 		.4byte	.LASF23
 985 0119 48       		.byte	0x48
 986 011a 06       		.byte	0x6
 987 011b 57       		.byte	0x57
 988 011c 39020000 		.4byte	0x239
 989 0120 06       		.uleb128 0x6
 990 0121 B2010000 		.4byte	.LASF24
 991 0125 06       		.byte	0x6
 992 0126 58       		.byte	0x58
 993 0127 5E020000 		.4byte	0x25e
 994 012b 02       		.byte	0x2
 995 012c 23       		.byte	0x23
 996 012d 00       		.uleb128 0
 997 012e 06       		.uleb128 0x6
 998 012f B9010000 		.4byte	.LASF25
 999 0133 06       		.byte	0x6
 1000 0134 5A       		.byte	0x5a
 1001 0135 5E020000 		.4byte	0x25e
 1002 0139 02       		.byte	0x2
 1003 013a 23       		.byte	0x23
 1004 013b 04       		.uleb128 0x4
 1005 013c 06       		.uleb128 0x6
 1006 013d 7C030000 		.4byte	.LASF26
 1007 0141 06       		.byte	0x6
 1008 0142 5C       		.byte	0x5c
 1009 0143 DD000000 		.4byte	0xdd
 1010 0147 02       		.byte	0x2
 1011 0148 23       		.byte	0x23
 1012 0149 08       		.uleb128 0x8
 1013 014a 06       		.uleb128 0x6
ARM GAS  C:\Users\DNIEL~1\AppData\Local\Temp\ccSb8sbz.s 			page 19


 1014 014b 55000000 		.4byte	.LASF27
 1015 014f 06       		.byte	0x6
 1016 0150 5D       		.byte	0x5d
 1017 0151 2C030000 		.4byte	0x32c
 1018 0155 02       		.byte	0x2
 1019 0156 23       		.byte	0x23
 1020 0157 0C       		.uleb128 0xc
 1021 0158 06       		.uleb128 0x6
 1022 0159 A1010000 		.4byte	.LASF28
 1023 015d 06       		.byte	0x6
 1024 015e 5F       		.byte	0x5f
 1025 015f 5E020000 		.4byte	0x25e
 1026 0163 02       		.byte	0x2
 1027 0164 23       		.byte	0x23
 1028 0165 10       		.uleb128 0x10
 1029 0166 06       		.uleb128 0x6
 1030 0167 D4080000 		.4byte	.LASF29
 1031 016b 06       		.byte	0x6
 1032 016c 60       		.byte	0x60
 1033 016d 5E020000 		.4byte	0x25e
 1034 0171 02       		.byte	0x2
 1035 0172 23       		.byte	0x23
 1036 0173 14       		.uleb128 0x14
 1037 0174 06       		.uleb128 0x6
 1038 0175 F00B0000 		.4byte	.LASF30
 1039 0179 06       		.byte	0x6
 1040 017a 67       		.byte	0x67
 1041 017b DD030000 		.4byte	0x3dd
 1042 017f 02       		.byte	0x2
 1043 0180 23       		.byte	0x23
 1044 0181 18       		.uleb128 0x18
 1045 0182 06       		.uleb128 0x6
 1046 0183 6A0C0000 		.4byte	.LASF31
 1047 0187 06       		.byte	0x6
 1048 0188 72       		.byte	0x72
 1049 0189 BC000000 		.4byte	0xbc
 1050 018d 02       		.byte	0x2
 1051 018e 23       		.byte	0x23
 1052 018f 1C       		.uleb128 0x1c
 1053 0190 06       		.uleb128 0x6
 1054 0191 E4060000 		.4byte	.LASF32
 1055 0195 06       		.byte	0x6
 1056 0196 76       		.byte	0x76
 1057 0197 B1000000 		.4byte	0xb1
 1058 019b 02       		.byte	0x2
 1059 019c 23       		.byte	0x23
 1060 019d 1D       		.uleb128 0x1d
 1061 019e 06       		.uleb128 0x6
 1062 019f 39070000 		.4byte	.LASF33
 1063 01a3 06       		.byte	0x6
 1064 01a4 7B       		.byte	0x7b
 1065 01a5 C7000000 		.4byte	0xc7
 1066 01a9 02       		.byte	0x2
 1067 01aa 23       		.byte	0x23
 1068 01ab 1E       		.uleb128 0x1e
 1069 01ac 06       		.uleb128 0x6
 1070 01ad 71020000 		.4byte	.LASF34
ARM GAS  C:\Users\DNIEL~1\AppData\Local\Temp\ccSb8sbz.s 			page 20


 1071 01b1 06       		.byte	0x6
 1072 01b2 81       		.byte	0x81
 1073 01b3 D2000000 		.4byte	0xd2
 1074 01b7 02       		.byte	0x2
 1075 01b8 23       		.byte	0x23
 1076 01b9 1F       		.uleb128 0x1f
 1077 01ba 06       		.uleb128 0x6
 1078 01bb D8070000 		.4byte	.LASF35
 1079 01bf 06       		.byte	0x6
 1080 01c0 88       		.byte	0x88
 1081 01c1 5B030000 		.4byte	0x35b
 1082 01c5 02       		.byte	0x2
 1083 01c6 23       		.byte	0x23
 1084 01c7 20       		.uleb128 0x20
 1085 01c8 07       		.uleb128 0x7
 1086 01c9 705F7500 		.ascii	"p_u\000"
 1087 01cd 06       		.byte	0x6
 1088 01ce AD       		.byte	0xad
 1089 01cf A8030000 		.4byte	0x3a8
 1090 01d3 02       		.byte	0x2
 1091 01d4 23       		.byte	0x23
 1092 01d5 24       		.uleb128 0x24
 1093 01d6 06       		.uleb128 0x6
 1094 01d7 C9060000 		.4byte	.LASF36
 1095 01db 06       		.byte	0x6
 1096 01dc B2       		.byte	0xb2
 1097 01dd 86020000 		.4byte	0x286
 1098 01e1 02       		.byte	0x2
 1099 01e2 23       		.byte	0x23
 1100 01e3 28       		.uleb128 0x28
 1101 01e4 06       		.uleb128 0x6
 1102 01e5 80000000 		.4byte	.LASF37
 1103 01e9 06       		.byte	0x6
 1104 01ea B8       		.byte	0xb8
 1105 01eb 64020000 		.4byte	0x264
 1106 01ef 02       		.byte	0x2
 1107 01f0 23       		.byte	0x23
 1108 01f1 2C       		.uleb128 0x2c
 1109 01f2 06       		.uleb128 0x6
 1110 01f3 5A0C0000 		.4byte	.LASF38
 1111 01f7 06       		.byte	0x6
 1112 01f8 BC       		.byte	0xbc
 1113 01f9 E8000000 		.4byte	0xe8
 1114 01fd 02       		.byte	0x2
 1115 01fe 23       		.byte	0x23
 1116 01ff 34       		.uleb128 0x34
 1117 0200 06       		.uleb128 0x6
 1118 0201 50040000 		.4byte	.LASF39
 1119 0205 06       		.byte	0x6
 1120 0206 C2       		.byte	0xc2
 1121 0207 F3000000 		.4byte	0xf3
 1122 020b 02       		.byte	0x2
 1123 020c 23       		.byte	0x23
 1124 020d 38       		.uleb128 0x38
 1125 020e 06       		.uleb128 0x6
 1126 020f EC010000 		.4byte	.LASF40
 1127 0213 06       		.byte	0x6
ARM GAS  C:\Users\DNIEL~1\AppData\Local\Temp\ccSb8sbz.s 			page 21


 1128 0214 C9       		.byte	0xc9
 1129 0215 EF030000 		.4byte	0x3ef
 1130 0219 02       		.byte	0x2
 1131 021a 23       		.byte	0x23
 1132 021b 3C       		.uleb128 0x3c
 1133 021c 06       		.uleb128 0x6
 1134 021d 48080000 		.4byte	.LASF41
 1135 0221 06       		.byte	0x6
 1136 0222 CD       		.byte	0xcd
 1137 0223 DD000000 		.4byte	0xdd
 1138 0227 02       		.byte	0x2
 1139 0228 23       		.byte	0x23
 1140 0229 40       		.uleb128 0x40
 1141 022a 06       		.uleb128 0x6
 1142 022b 24070000 		.4byte	.LASF42
 1143 022f 06       		.byte	0x6
 1144 0230 D3       		.byte	0xd3
 1145 0231 9C020000 		.4byte	0x29c
 1146 0235 02       		.byte	0x2
 1147 0236 23       		.byte	0x23
 1148 0237 44       		.uleb128 0x44
 1149 0238 00       		.byte	0
 1150 0239 08       		.uleb128 0x8
 1151 023a 08       		.byte	0x8
 1152 023b 05       		.byte	0x5
 1153 023c 5A       		.byte	0x5a
 1154 023d 5E020000 		.4byte	0x25e
 1155 0241 06       		.uleb128 0x6
 1156 0242 B2010000 		.4byte	.LASF24
 1157 0246 05       		.byte	0x5
 1158 0247 5B       		.byte	0x5b
 1159 0248 5E020000 		.4byte	0x25e
 1160 024c 02       		.byte	0x2
 1161 024d 23       		.byte	0x23
 1162 024e 00       		.uleb128 0
 1163 024f 06       		.uleb128 0x6
 1164 0250 B9010000 		.4byte	.LASF25
 1165 0254 05       		.byte	0x5
 1166 0255 5D       		.byte	0x5d
 1167 0256 5E020000 		.4byte	0x25e
 1168 025a 02       		.byte	0x2
 1169 025b 23       		.byte	0x23
 1170 025c 04       		.uleb128 0x4
 1171 025d 00       		.byte	0
 1172 025e 09       		.uleb128 0x9
 1173 025f 04       		.byte	0x4
 1174 0260 09010000 		.4byte	0x109
 1175 0264 03       		.uleb128 0x3
 1176 0265 220B0000 		.4byte	.LASF43
 1177 0269 05       		.byte	0x5
 1178 026a 5F       		.byte	0x5f
 1179 026b 39020000 		.4byte	0x239
 1180 026f 08       		.uleb128 0x8
 1181 0270 04       		.byte	0x4
 1182 0271 05       		.byte	0x5
 1183 0272 64       		.byte	0x64
 1184 0273 86020000 		.4byte	0x286
ARM GAS  C:\Users\DNIEL~1\AppData\Local\Temp\ccSb8sbz.s 			page 22


 1185 0277 06       		.uleb128 0x6
 1186 0278 B2010000 		.4byte	.LASF24
 1187 027c 05       		.byte	0x5
 1188 027d 66       		.byte	0x66
 1189 027e 5E020000 		.4byte	0x25e
 1190 0282 02       		.byte	0x2
 1191 0283 23       		.byte	0x23
 1192 0284 00       		.uleb128 0
 1193 0285 00       		.byte	0
 1194 0286 03       		.uleb128 0x3
 1195 0287 60070000 		.4byte	.LASF44
 1196 028b 05       		.byte	0x5
 1197 028c 69       		.byte	0x69
 1198 028d 6F020000 		.4byte	0x26f
 1199 0291 03       		.uleb128 0x3
 1200 0292 0E020000 		.4byte	.LASF45
 1201 0296 07       		.byte	0x7
 1202 0297 DE       		.byte	0xde
 1203 0298 9C020000 		.4byte	0x29c
 1204 029c 0A       		.uleb128 0xa
 1205 029d 04       		.byte	0x4
 1206 029e 0B       		.uleb128 0xb
 1207 029f 49040000 		.4byte	.LASF46
 1208 02a3 24       		.byte	0x24
 1209 02a4 07       		.byte	0x7
 1210 02a5 0501     		.2byte	0x105
 1211 02a7 2C030000 		.4byte	0x32c
 1212 02ab 0C       		.uleb128 0xc
 1213 02ac 723400   		.ascii	"r4\000"
 1214 02af 07       		.byte	0x7
 1215 02b0 1801     		.2byte	0x118
 1216 02b2 91020000 		.4byte	0x291
 1217 02b6 02       		.byte	0x2
 1218 02b7 23       		.byte	0x23
 1219 02b8 00       		.uleb128 0
 1220 02b9 0C       		.uleb128 0xc
 1221 02ba 723500   		.ascii	"r5\000"
 1222 02bd 07       		.byte	0x7
 1223 02be 1901     		.2byte	0x119
 1224 02c0 91020000 		.4byte	0x291
 1225 02c4 02       		.byte	0x2
 1226 02c5 23       		.byte	0x23
 1227 02c6 04       		.uleb128 0x4
 1228 02c7 0C       		.uleb128 0xc
 1229 02c8 723600   		.ascii	"r6\000"
 1230 02cb 07       		.byte	0x7
 1231 02cc 1A01     		.2byte	0x11a
 1232 02ce 91020000 		.4byte	0x291
 1233 02d2 02       		.byte	0x2
 1234 02d3 23       		.byte	0x23
 1235 02d4 08       		.uleb128 0x8
 1236 02d5 0C       		.uleb128 0xc
 1237 02d6 723700   		.ascii	"r7\000"
 1238 02d9 07       		.byte	0x7
 1239 02da 1B01     		.2byte	0x11b
 1240 02dc 91020000 		.4byte	0x291
 1241 02e0 02       		.byte	0x2
ARM GAS  C:\Users\DNIEL~1\AppData\Local\Temp\ccSb8sbz.s 			page 23


 1242 02e1 23       		.byte	0x23
 1243 02e2 0C       		.uleb128 0xc
 1244 02e3 0C       		.uleb128 0xc
 1245 02e4 723800   		.ascii	"r8\000"
 1246 02e7 07       		.byte	0x7
 1247 02e8 1C01     		.2byte	0x11c
 1248 02ea 91020000 		.4byte	0x291
 1249 02ee 02       		.byte	0x2
 1250 02ef 23       		.byte	0x23
 1251 02f0 10       		.uleb128 0x10
 1252 02f1 0C       		.uleb128 0xc
 1253 02f2 723900   		.ascii	"r9\000"
 1254 02f5 07       		.byte	0x7
 1255 02f6 1D01     		.2byte	0x11d
 1256 02f8 91020000 		.4byte	0x291
 1257 02fc 02       		.byte	0x2
 1258 02fd 23       		.byte	0x23
 1259 02fe 14       		.uleb128 0x14
 1260 02ff 0C       		.uleb128 0xc
 1261 0300 72313000 		.ascii	"r10\000"
 1262 0304 07       		.byte	0x7
 1263 0305 1E01     		.2byte	0x11e
 1264 0307 91020000 		.4byte	0x291
 1265 030b 02       		.byte	0x2
 1266 030c 23       		.byte	0x23
 1267 030d 18       		.uleb128 0x18
 1268 030e 0C       		.uleb128 0xc
 1269 030f 72313100 		.ascii	"r11\000"
 1270 0313 07       		.byte	0x7
 1271 0314 1F01     		.2byte	0x11f
 1272 0316 91020000 		.4byte	0x291
 1273 031a 02       		.byte	0x2
 1274 031b 23       		.byte	0x23
 1275 031c 1C       		.uleb128 0x1c
 1276 031d 0C       		.uleb128 0xc
 1277 031e 6C7200   		.ascii	"lr\000"
 1278 0321 07       		.byte	0x7
 1279 0322 2001     		.2byte	0x120
 1280 0324 91020000 		.4byte	0x291
 1281 0328 02       		.byte	0x2
 1282 0329 23       		.byte	0x23
 1283 032a 20       		.uleb128 0x20
 1284 032b 00       		.byte	0
 1285 032c 0B       		.uleb128 0xb
 1286 032d 8F020000 		.4byte	.LASF47
 1287 0331 04       		.byte	0x4
 1288 0332 07       		.byte	0x7
 1289 0333 2A01     		.2byte	0x12a
 1290 0335 49030000 		.4byte	0x349
 1291 0339 0C       		.uleb128 0xc
 1292 033a 72313300 		.ascii	"r13\000"
 1293 033e 07       		.byte	0x7
 1294 033f 2B01     		.2byte	0x12b
 1295 0341 49030000 		.4byte	0x349
 1296 0345 02       		.byte	0x2
 1297 0346 23       		.byte	0x23
 1298 0347 00       		.uleb128 0
ARM GAS  C:\Users\DNIEL~1\AppData\Local\Temp\ccSb8sbz.s 			page 24


 1299 0348 00       		.byte	0
 1300 0349 09       		.uleb128 0x9
 1301 034a 04       		.byte	0x4
 1302 034b 9E020000 		.4byte	0x29e
 1303 034f 0D       		.uleb128 0xd
 1304 0350 86000000 		.4byte	0x86
 1305 0354 04       		.uleb128 0x4
 1306 0355 04       		.byte	0x4
 1307 0356 07       		.byte	0x7
 1308 0357 29000000 		.4byte	.LASF48
 1309 035b 0D       		.uleb128 0xd
 1310 035c FE000000 		.4byte	0xfe
 1311 0360 05       		.uleb128 0x5
 1312 0361 18060000 		.4byte	.LASF49
 1313 0365 10       		.byte	0x10
 1314 0366 08       		.byte	0x8
 1315 0367 25       		.byte	0x25
 1316 0368 97030000 		.4byte	0x397
 1317 036c 06       		.uleb128 0x6
 1318 036d 5A060000 		.4byte	.LASF50
 1319 0371 08       		.byte	0x8
 1320 0372 26       		.byte	0x26
 1321 0373 64020000 		.4byte	0x264
 1322 0377 02       		.byte	0x2
 1323 0378 23       		.byte	0x23
 1324 0379 00       		.uleb128 0
 1325 037a 06       		.uleb128 0x6
 1326 037b 4E010000 		.4byte	.LASF51
 1327 037f 08       		.byte	0x8
 1328 0380 28       		.byte	0x28
 1329 0381 5E020000 		.4byte	0x25e
 1330 0385 02       		.byte	0x2
 1331 0386 23       		.byte	0x23
 1332 0387 08       		.uleb128 0x8
 1333 0388 06       		.uleb128 0x6
 1334 0389 F70B0000 		.4byte	.LASF52
 1335 038d 08       		.byte	0x8
 1336 038e 2A       		.byte	0x2a
 1337 038f 97030000 		.4byte	0x397
 1338 0393 02       		.byte	0x2
 1339 0394 23       		.byte	0x23
 1340 0395 0C       		.uleb128 0xc
 1341 0396 00       		.byte	0
 1342 0397 09       		.uleb128 0x9
 1343 0398 04       		.byte	0x4
 1344 0399 60030000 		.4byte	0x360
 1345 039d 03       		.uleb128 0x3
 1346 039e 18060000 		.4byte	.LASF49
 1347 03a2 08       		.byte	0x8
 1348 03a3 2C       		.byte	0x2c
 1349 03a4 60030000 		.4byte	0x360
 1350 03a8 0E       		.uleb128 0xe
 1351 03a9 04       		.byte	0x4
 1352 03aa 06       		.byte	0x6
 1353 03ab 8F       		.byte	0x8f
 1354 03ac DD030000 		.4byte	0x3dd
 1355 03b0 0F       		.uleb128 0xf
ARM GAS  C:\Users\DNIEL~1\AppData\Local\Temp\ccSb8sbz.s 			page 25


 1356 03b1 570B0000 		.4byte	.LASF53
 1357 03b5 06       		.byte	0x6
 1358 03b6 96       		.byte	0x96
 1359 03b7 E8000000 		.4byte	0xe8
 1360 03bb 0F       		.uleb128 0xf
 1361 03bc 62010000 		.4byte	.LASF54
 1362 03c0 06       		.byte	0x6
 1363 03c1 9D       		.byte	0x9d
 1364 03c2 E8000000 		.4byte	0xe8
 1365 03c6 0F       		.uleb128 0xf
 1366 03c7 8B030000 		.4byte	.LASF55
 1367 03cb 06       		.byte	0x6
 1368 03cc A4       		.byte	0xa4
 1369 03cd 9C020000 		.4byte	0x29c
 1370 03d1 0F       		.uleb128 0xf
 1371 03d2 7C010000 		.4byte	.LASF56
 1372 03d6 06       		.byte	0x6
 1373 03d7 AB       		.byte	0xab
 1374 03d8 F3000000 		.4byte	0xf3
 1375 03dc 00       		.byte	0
 1376 03dd 09       		.uleb128 0x9
 1377 03de 04       		.byte	0x4
 1378 03df E3030000 		.4byte	0x3e3
 1379 03e3 10       		.uleb128 0x10
 1380 03e4 E8030000 		.4byte	0x3e8
 1381 03e8 04       		.uleb128 0x4
 1382 03e9 01       		.byte	0x1
 1383 03ea 08       		.byte	0x8
 1384 03eb 70030000 		.4byte	.LASF57
 1385 03ef 09       		.uleb128 0x9
 1386 03f0 04       		.byte	0x4
 1387 03f1 9D030000 		.4byte	0x39d
 1388 03f5 11       		.uleb128 0x11
 1389 03f6 DF070000 		.4byte	.LASF265
 1390 03fa 01       		.byte	0x1
 1391 03fb 09       		.byte	0x9
 1392 03fc 8C       		.byte	0x8c
 1393 03fd 30060000 		.4byte	0x630
 1394 0401 12       		.uleb128 0x12
 1395 0402 DB040000 		.4byte	.LASF58
 1396 0406 72       		.sleb128 -14
 1397 0407 12       		.uleb128 0x12
 1398 0408 1A050000 		.4byte	.LASF59
 1399 040c 74       		.sleb128 -12
 1400 040d 12       		.uleb128 0x12
 1401 040e E4050000 		.4byte	.LASF60
 1402 0412 75       		.sleb128 -11
 1403 0413 12       		.uleb128 0x12
 1404 0414 60030000 		.4byte	.LASF61
 1405 0418 76       		.sleb128 -10
 1406 0419 12       		.uleb128 0x12
 1407 041a 8A060000 		.4byte	.LASF62
 1408 041e 7B       		.sleb128 -5
 1409 041f 12       		.uleb128 0x12
 1410 0420 EB090000 		.4byte	.LASF63
 1411 0424 7C       		.sleb128 -4
 1412 0425 12       		.uleb128 0x12
ARM GAS  C:\Users\DNIEL~1\AppData\Local\Temp\ccSb8sbz.s 			page 26


 1413 0426 9E0B0000 		.4byte	.LASF64
 1414 042a 7E       		.sleb128 -2
 1415 042b 12       		.uleb128 0x12
 1416 042c 36020000 		.4byte	.LASF65
 1417 0430 7F       		.sleb128 -1
 1418 0431 12       		.uleb128 0x12
 1419 0432 EF040000 		.4byte	.LASF66
 1420 0436 00       		.sleb128 0
 1421 0437 12       		.uleb128 0x12
 1422 0438 8A090000 		.4byte	.LASF67
 1423 043c 01       		.sleb128 1
 1424 043d 12       		.uleb128 0x12
 1425 043e 30050000 		.4byte	.LASF68
 1426 0442 02       		.sleb128 2
 1427 0443 12       		.uleb128 0x12
 1428 0444 E70A0000 		.4byte	.LASF69
 1429 0448 03       		.sleb128 3
 1430 0449 12       		.uleb128 0x12
 1431 044a EA000000 		.4byte	.LASF70
 1432 044e 04       		.sleb128 4
 1433 044f 12       		.uleb128 0x12
 1434 0450 430A0000 		.4byte	.LASF71
 1435 0454 05       		.sleb128 5
 1436 0455 12       		.uleb128 0x12
 1437 0456 9D090000 		.4byte	.LASF72
 1438 045a 06       		.sleb128 6
 1439 045b 12       		.uleb128 0x12
 1440 045c 7B040000 		.4byte	.LASF73
 1441 0460 07       		.sleb128 7
 1442 0461 12       		.uleb128 0x12
 1443 0462 16090000 		.4byte	.LASF74
 1444 0466 08       		.sleb128 8
 1445 0467 12       		.uleb128 0x12
 1446 0468 930B0000 		.4byte	.LASF75
 1447 046c 09       		.sleb128 9
 1448 046d 12       		.uleb128 0x12
 1449 046e 5E0B0000 		.4byte	.LASF76
 1450 0472 0A       		.sleb128 10
 1451 0473 12       		.uleb128 0x12
 1452 0474 5E080000 		.4byte	.LASF77
 1453 0478 0B       		.sleb128 11
 1454 0479 12       		.uleb128 0x12
 1455 047a 7C070000 		.4byte	.LASF78
 1456 047e 0C       		.sleb128 12
 1457 047f 12       		.uleb128 0x12
 1458 0480 97020000 		.4byte	.LASF79
 1459 0484 0D       		.sleb128 13
 1460 0485 12       		.uleb128 0x12
 1461 0486 690A0000 		.4byte	.LASF80
 1462 048a 0E       		.sleb128 14
 1463 048b 12       		.uleb128 0x12
 1464 048c B0090000 		.4byte	.LASF81
 1465 0490 0F       		.sleb128 15
 1466 0491 12       		.uleb128 0x12
 1467 0492 93040000 		.4byte	.LASF82
 1468 0496 10       		.sleb128 16
 1469 0497 12       		.uleb128 0x12
ARM GAS  C:\Users\DNIEL~1\AppData\Local\Temp\ccSb8sbz.s 			page 27


 1470 0498 E4070000 		.4byte	.LASF83
 1471 049c 11       		.sleb128 17
 1472 049d 12       		.uleb128 0x12
 1473 049e 4D090000 		.4byte	.LASF84
 1474 04a2 12       		.sleb128 18
 1475 04a3 12       		.uleb128 0x12
 1476 04a4 86040000 		.4byte	.LASF85
 1477 04a8 13       		.sleb128 19
 1478 04a9 12       		.uleb128 0x12
 1479 04aa 92030000 		.4byte	.LASF86
 1480 04ae 14       		.sleb128 20
 1481 04af 12       		.uleb128 0x12
 1482 04b0 140B0000 		.4byte	.LASF87
 1483 04b4 15       		.sleb128 21
 1484 04b5 12       		.uleb128 0x12
 1485 04b6 40050000 		.4byte	.LASF88
 1486 04ba 16       		.sleb128 22
 1487 04bb 12       		.uleb128 0x12
 1488 04bc 2F0B0000 		.4byte	.LASF89
 1489 04c0 17       		.sleb128 23
 1490 04c1 12       		.uleb128 0x12
 1491 04c2 05060000 		.4byte	.LASF90
 1492 04c6 18       		.sleb128 24
 1493 04c7 12       		.uleb128 0x12
 1494 04c8 AB0A0000 		.4byte	.LASF91
 1495 04cc 19       		.sleb128 25
 1496 04cd 12       		.uleb128 0x12
 1497 04ce F6010000 		.4byte	.LASF92
 1498 04d2 1A       		.sleb128 26
 1499 04d3 12       		.uleb128 0x12
 1500 04d4 60040000 		.4byte	.LASF93
 1501 04d8 1B       		.sleb128 27
 1502 04d9 12       		.uleb128 0x12
 1503 04da 0C010000 		.4byte	.LASF94
 1504 04de 1C       		.sleb128 28
 1505 04df 12       		.uleb128 0x12
 1506 04e0 EB080000 		.4byte	.LASF95
 1507 04e4 1D       		.sleb128 29
 1508 04e5 12       		.uleb128 0x12
 1509 04e6 BE030000 		.4byte	.LASF96
 1510 04ea 1E       		.sleb128 30
 1511 04eb 12       		.uleb128 0x12
 1512 04ec 30040000 		.4byte	.LASF97
 1513 04f0 1F       		.sleb128 31
 1514 04f1 12       		.uleb128 0x12
 1515 04f2 06030000 		.4byte	.LASF98
 1516 04f6 20       		.sleb128 32
 1517 04f7 12       		.uleb128 0x12
 1518 04f8 2C070000 		.4byte	.LASF99
 1519 04fc 21       		.sleb128 33
 1520 04fd 12       		.uleb128 0x12
 1521 04fe 92050000 		.4byte	.LASF100
 1522 0502 22       		.sleb128 34
 1523 0503 12       		.uleb128 0x12
 1524 0504 68060000 		.4byte	.LASF101
 1525 0508 23       		.sleb128 35
 1526 0509 12       		.uleb128 0x12
ARM GAS  C:\Users\DNIEL~1\AppData\Local\Temp\ccSb8sbz.s 			page 28


 1527 050a 44060000 		.4byte	.LASF102
 1528 050e 24       		.sleb128 36
 1529 050f 12       		.uleb128 0x12
 1530 0510 F5080000 		.4byte	.LASF103
 1531 0514 25       		.sleb128 37
 1532 0515 12       		.uleb128 0x12
 1533 0516 C8030000 		.4byte	.LASF104
 1534 051a 26       		.sleb128 38
 1535 051b 12       		.uleb128 0x12
 1536 051c 43020000 		.4byte	.LASF105
 1537 0520 27       		.sleb128 39
 1538 0521 12       		.uleb128 0x12
 1539 0522 AE080000 		.4byte	.LASF106
 1540 0526 28       		.sleb128 40
 1541 0527 12       		.uleb128 0x12
 1542 0528 88080000 		.4byte	.LASF107
 1543 052c 29       		.sleb128 41
 1544 052d 12       		.uleb128 0x12
 1545 052e D3060000 		.4byte	.LASF108
 1546 0532 2A       		.sleb128 42
 1547 0533 12       		.uleb128 0x12
 1548 0534 83010000 		.4byte	.LASF109
 1549 0538 2B       		.sleb128 43
 1550 0539 12       		.uleb128 0x12
 1551 053a 0C000000 		.4byte	.LASF110
 1552 053e 2C       		.sleb128 44
 1553 053f 12       		.uleb128 0x12
 1554 0540 A5040000 		.4byte	.LASF111
 1555 0544 2D       		.sleb128 45
 1556 0545 12       		.uleb128 0x12
 1557 0546 7C0B0000 		.4byte	.LASF112
 1558 054a 2E       		.sleb128 46
 1559 054b 12       		.uleb128 0x12
 1560 054c BD0B0000 		.4byte	.LASF113
 1561 0550 2F       		.sleb128 47
 1562 0551 12       		.uleb128 0x12
 1563 0552 93090000 		.4byte	.LASF114
 1564 0556 30       		.sleb128 48
 1565 0557 12       		.uleb128 0x12
 1566 0558 890B0000 		.4byte	.LASF115
 1567 055c 31       		.sleb128 49
 1568 055d 12       		.uleb128 0x12
 1569 055e 4A030000 		.4byte	.LASF116
 1570 0562 32       		.sleb128 50
 1571 0563 12       		.uleb128 0x12
 1572 0564 E0000000 		.4byte	.LASF117
 1573 0568 33       		.sleb128 51
 1574 0569 12       		.uleb128 0x12
 1575 056a B4060000 		.4byte	.LASF118
 1576 056e 34       		.sleb128 52
 1577 056f 12       		.uleb128 0x12
 1578 0570 FA050000 		.4byte	.LASF119
 1579 0574 35       		.sleb128 53
 1580 0575 12       		.uleb128 0x12
 1581 0576 03070000 		.4byte	.LASF120
 1582 057a 36       		.sleb128 54
 1583 057b 12       		.uleb128 0x12
ARM GAS  C:\Users\DNIEL~1\AppData\Local\Temp\ccSb8sbz.s 			page 29


 1584 057c 1E060000 		.4byte	.LASF121
 1585 0580 37       		.sleb128 55
 1586 0581 12       		.uleb128 0x12
 1587 0582 61050000 		.4byte	.LASF122
 1588 0586 38       		.sleb128 56
 1589 0587 12       		.uleb128 0x12
 1590 0588 CE000000 		.4byte	.LASF123
 1591 058c 39       		.sleb128 57
 1592 058d 12       		.uleb128 0x12
 1593 058e 1D0C0000 		.4byte	.LASF124
 1594 0592 3A       		.sleb128 58
 1595 0593 12       		.uleb128 0x12
 1596 0594 8E070000 		.4byte	.LASF125
 1597 0598 3B       		.sleb128 59
 1598 0599 12       		.uleb128 0x12
 1599 059a CB020000 		.4byte	.LASF126
 1600 059e 3C       		.sleb128 60
 1601 059f 12       		.uleb128 0x12
 1602 05a0 240A0000 		.4byte	.LASF127
 1603 05a4 3D       		.sleb128 61
 1604 05a5 12       		.uleb128 0x12
 1605 05a6 36060000 		.4byte	.LASF128
 1606 05aa 3E       		.sleb128 62
 1607 05ab 12       		.uleb128 0x12
 1608 05ac A0070000 		.4byte	.LASF129
 1609 05b0 3F       		.sleb128 63
 1610 05b1 12       		.uleb128 0x12
 1611 05b2 34010000 		.4byte	.LASF130
 1612 05b6 C000     		.sleb128 64
 1613 05b8 12       		.uleb128 0x12
 1614 05b9 38090000 		.4byte	.LASF131
 1615 05bd C100     		.sleb128 65
 1616 05bf 12       		.uleb128 0x12
 1617 05c0 1E030000 		.4byte	.LASF132
 1618 05c4 C200     		.sleb128 66
 1619 05c6 12       		.uleb128 0x12
 1620 05c7 CF040000 		.4byte	.LASF133
 1621 05cb C300     		.sleb128 67
 1622 05cd 12       		.uleb128 0x12
 1623 05ce C8010000 		.4byte	.LASF134
 1624 05d2 C400     		.sleb128 68
 1625 05d4 12       		.uleb128 0x12
 1626 05d5 D1090000 		.4byte	.LASF135
 1627 05d9 C500     		.sleb128 69
 1628 05db 12       		.uleb128 0x12
 1629 05dc BD040000 		.4byte	.LASF136
 1630 05e0 C600     		.sleb128 70
 1631 05e2 12       		.uleb128 0x12
 1632 05e3 42010000 		.4byte	.LASF137
 1633 05e7 C700     		.sleb128 71
 1634 05e9 12       		.uleb128 0x12
 1635 05ea FD090000 		.4byte	.LASF138
 1636 05ee C800     		.sleb128 72
 1637 05f0 12       		.uleb128 0x12
 1638 05f1 97080000 		.4byte	.LASF139
 1639 05f5 C900     		.sleb128 73
 1640 05f7 12       		.uleb128 0x12
ARM GAS  C:\Users\DNIEL~1\AppData\Local\Temp\ccSb8sbz.s 			page 30


 1641 05f8 D30A0000 		.4byte	.LASF140
 1642 05fc CA00     		.sleb128 74
 1643 05fe 12       		.uleb128 0x12
 1644 05ff AA0B0000 		.4byte	.LASF141
 1645 0603 CB00     		.sleb128 75
 1646 0605 12       		.uleb128 0x12
 1647 0606 6B010000 		.4byte	.LASF142
 1648 060a CC00     		.sleb128 76
 1649 060c 12       		.uleb128 0x12
 1650 060d 4E060000 		.4byte	.LASF143
 1651 0611 CD00     		.sleb128 77
 1652 0613 12       		.uleb128 0x12
 1653 0614 F5000000 		.4byte	.LASF144
 1654 0618 CE00     		.sleb128 78
 1655 061a 12       		.uleb128 0x12
 1656 061b A4080000 		.4byte	.LASF145
 1657 061f CF00     		.sleb128 79
 1658 0621 12       		.uleb128 0x12
 1659 0622 6D040000 		.4byte	.LASF146
 1660 0626 D000     		.sleb128 80
 1661 0628 12       		.uleb128 0x12
 1662 0629 AB060000 		.4byte	.LASF147
 1663 062d D100     		.sleb128 81
 1664 062f 00       		.byte	0
 1665 0630 13       		.uleb128 0x13
 1666 0631 86000000 		.4byte	0x86
 1667 0635 40060000 		.4byte	0x640
 1668 0639 14       		.uleb128 0x14
 1669 063a 54030000 		.4byte	0x354
 1670 063e 01       		.byte	0x1
 1671 063f 00       		.byte	0
 1672 0640 0D       		.uleb128 0xd
 1673 0641 74000000 		.4byte	0x74
 1674 0645 15       		.uleb128 0x15
 1675 0646 50       		.byte	0x50
 1676 0647 09       		.byte	0x9
 1677 0648 2C01     		.2byte	0x12c
 1678 064a 79070000 		.4byte	0x779
 1679 064e 0C       		.uleb128 0xc
 1680 064f 535200   		.ascii	"SR\000"
 1681 0652 09       		.byte	0x9
 1682 0653 2E01     		.2byte	0x12e
 1683 0655 4F030000 		.4byte	0x34f
 1684 0659 02       		.byte	0x2
 1685 065a 23       		.byte	0x23
 1686 065b 00       		.uleb128 0
 1687 065c 0C       		.uleb128 0xc
 1688 065d 43523100 		.ascii	"CR1\000"
 1689 0661 09       		.byte	0x9
 1690 0662 2F01     		.2byte	0x12f
 1691 0664 4F030000 		.4byte	0x34f
 1692 0668 02       		.byte	0x2
 1693 0669 23       		.byte	0x23
 1694 066a 04       		.uleb128 0x4
 1695 066b 0C       		.uleb128 0xc
 1696 066c 43523200 		.ascii	"CR2\000"
 1697 0670 09       		.byte	0x9
ARM GAS  C:\Users\DNIEL~1\AppData\Local\Temp\ccSb8sbz.s 			page 31


 1698 0671 3001     		.2byte	0x130
 1699 0673 4F030000 		.4byte	0x34f
 1700 0677 02       		.byte	0x2
 1701 0678 23       		.byte	0x23
 1702 0679 08       		.uleb128 0x8
 1703 067a 16       		.uleb128 0x16
 1704 067b 73050000 		.4byte	.LASF148
 1705 067f 09       		.byte	0x9
 1706 0680 3101     		.2byte	0x131
 1707 0682 4F030000 		.4byte	0x34f
 1708 0686 02       		.byte	0x2
 1709 0687 23       		.byte	0x23
 1710 0688 0C       		.uleb128 0xc
 1711 0689 16       		.uleb128 0x16
 1712 068a 79050000 		.4byte	.LASF149
 1713 068e 09       		.byte	0x9
 1714 068f 3201     		.2byte	0x132
 1715 0691 4F030000 		.4byte	0x34f
 1716 0695 02       		.byte	0x2
 1717 0696 23       		.byte	0x23
 1718 0697 10       		.uleb128 0x10
 1719 0698 16       		.uleb128 0x16
 1720 0699 510A0000 		.4byte	.LASF150
 1721 069d 09       		.byte	0x9
 1722 069e 3301     		.2byte	0x133
 1723 06a0 4F030000 		.4byte	0x34f
 1724 06a4 02       		.byte	0x2
 1725 06a5 23       		.byte	0x23
 1726 06a6 14       		.uleb128 0x14
 1727 06a7 16       		.uleb128 0x16
 1728 06a8 570A0000 		.4byte	.LASF151
 1729 06ac 09       		.byte	0x9
 1730 06ad 3401     		.2byte	0x134
 1731 06af 4F030000 		.4byte	0x34f
 1732 06b3 02       		.byte	0x2
 1733 06b4 23       		.byte	0x23
 1734 06b5 18       		.uleb128 0x18
 1735 06b6 16       		.uleb128 0x16
 1736 06b7 5D0A0000 		.4byte	.LASF152
 1737 06bb 09       		.byte	0x9
 1738 06bc 3501     		.2byte	0x135
 1739 06be 4F030000 		.4byte	0x34f
 1740 06c2 02       		.byte	0x2
 1741 06c3 23       		.byte	0x23
 1742 06c4 1C       		.uleb128 0x1c
 1743 06c5 16       		.uleb128 0x16
 1744 06c6 630A0000 		.4byte	.LASF153
 1745 06ca 09       		.byte	0x9
 1746 06cb 3601     		.2byte	0x136
 1747 06cd 4F030000 		.4byte	0x34f
 1748 06d1 02       		.byte	0x2
 1749 06d2 23       		.byte	0x23
 1750 06d3 20       		.uleb128 0x20
 1751 06d4 0C       		.uleb128 0xc
 1752 06d5 48545200 		.ascii	"HTR\000"
 1753 06d9 09       		.byte	0x9
 1754 06da 3701     		.2byte	0x137
ARM GAS  C:\Users\DNIEL~1\AppData\Local\Temp\ccSb8sbz.s 			page 32


 1755 06dc 4F030000 		.4byte	0x34f
 1756 06e0 02       		.byte	0x2
 1757 06e1 23       		.byte	0x23
 1758 06e2 24       		.uleb128 0x24
 1759 06e3 0C       		.uleb128 0xc
 1760 06e4 4C545200 		.ascii	"LTR\000"
 1761 06e8 09       		.byte	0x9
 1762 06e9 3801     		.2byte	0x138
 1763 06eb 4F030000 		.4byte	0x34f
 1764 06ef 02       		.byte	0x2
 1765 06f0 23       		.byte	0x23
 1766 06f1 28       		.uleb128 0x28
 1767 06f2 16       		.uleb128 0x16
 1768 06f3 71000000 		.4byte	.LASF154
 1769 06f7 09       		.byte	0x9
 1770 06f8 3901     		.2byte	0x139
 1771 06fa 4F030000 		.4byte	0x34f
 1772 06fe 02       		.byte	0x2
 1773 06ff 23       		.byte	0x23
 1774 0700 2C       		.uleb128 0x2c
 1775 0701 16       		.uleb128 0x16
 1776 0702 76000000 		.4byte	.LASF155
 1777 0706 09       		.byte	0x9
 1778 0707 3A01     		.2byte	0x13a
 1779 0709 4F030000 		.4byte	0x34f
 1780 070d 02       		.byte	0x2
 1781 070e 23       		.byte	0x23
 1782 070f 30       		.uleb128 0x30
 1783 0710 16       		.uleb128 0x16
 1784 0711 7B000000 		.4byte	.LASF156
 1785 0715 09       		.byte	0x9
 1786 0716 3B01     		.2byte	0x13b
 1787 0718 4F030000 		.4byte	0x34f
 1788 071c 02       		.byte	0x2
 1789 071d 23       		.byte	0x23
 1790 071e 34       		.uleb128 0x34
 1791 071f 16       		.uleb128 0x16
 1792 0720 A60A0000 		.4byte	.LASF157
 1793 0724 09       		.byte	0x9
 1794 0725 3C01     		.2byte	0x13c
 1795 0727 4F030000 		.4byte	0x34f
 1796 072b 02       		.byte	0x2
 1797 072c 23       		.byte	0x23
 1798 072d 38       		.uleb128 0x38
 1799 072e 16       		.uleb128 0x16
 1800 072f 900A0000 		.4byte	.LASF158
 1801 0733 09       		.byte	0x9
 1802 0734 3D01     		.2byte	0x13d
 1803 0736 4F030000 		.4byte	0x34f
 1804 073a 02       		.byte	0x2
 1805 073b 23       		.byte	0x23
 1806 073c 3C       		.uleb128 0x3c
 1807 073d 16       		.uleb128 0x16
 1808 073e 950A0000 		.4byte	.LASF159
 1809 0742 09       		.byte	0x9
 1810 0743 3E01     		.2byte	0x13e
 1811 0745 4F030000 		.4byte	0x34f
ARM GAS  C:\Users\DNIEL~1\AppData\Local\Temp\ccSb8sbz.s 			page 33


 1812 0749 02       		.byte	0x2
 1813 074a 23       		.byte	0x23
 1814 074b 40       		.uleb128 0x40
 1815 074c 16       		.uleb128 0x16
 1816 074d 9A0A0000 		.4byte	.LASF160
 1817 0751 09       		.byte	0x9
 1818 0752 3F01     		.2byte	0x13f
 1819 0754 4F030000 		.4byte	0x34f
 1820 0758 02       		.byte	0x2
 1821 0759 23       		.byte	0x23
 1822 075a 44       		.uleb128 0x44
 1823 075b 16       		.uleb128 0x16
 1824 075c 56010000 		.4byte	.LASF161
 1825 0760 09       		.byte	0x9
 1826 0761 4001     		.2byte	0x140
 1827 0763 4F030000 		.4byte	0x34f
 1828 0767 02       		.byte	0x2
 1829 0768 23       		.byte	0x23
 1830 0769 48       		.uleb128 0x48
 1831 076a 0C       		.uleb128 0xc
 1832 076b 445200   		.ascii	"DR\000"
 1833 076e 09       		.byte	0x9
 1834 076f 4101     		.2byte	0x141
 1835 0771 4F030000 		.4byte	0x34f
 1836 0775 02       		.byte	0x2
 1837 0776 23       		.byte	0x23
 1838 0777 4C       		.uleb128 0x4c
 1839 0778 00       		.byte	0
 1840 0779 17       		.uleb128 0x17
 1841 077a 3D040000 		.4byte	.LASF162
 1842 077e 09       		.byte	0x9
 1843 077f 4201     		.2byte	0x142
 1844 0781 45060000 		.4byte	0x645
 1845 0785 15       		.uleb128 0x15
 1846 0786 0C       		.byte	0xc
 1847 0787 09       		.byte	0x9
 1848 0788 4401     		.2byte	0x144
 1849 078a BC070000 		.4byte	0x7bc
 1850 078e 0C       		.uleb128 0xc
 1851 078f 43535200 		.ascii	"CSR\000"
 1852 0793 09       		.byte	0x9
 1853 0794 4601     		.2byte	0x146
 1854 0796 4F030000 		.4byte	0x34f
 1855 079a 02       		.byte	0x2
 1856 079b 23       		.byte	0x23
 1857 079c 00       		.uleb128 0
 1858 079d 0C       		.uleb128 0xc
 1859 079e 43435200 		.ascii	"CCR\000"
 1860 07a2 09       		.byte	0x9
 1861 07a3 4701     		.2byte	0x147
 1862 07a5 4F030000 		.4byte	0x34f
 1863 07a9 02       		.byte	0x2
 1864 07aa 23       		.byte	0x23
 1865 07ab 04       		.uleb128 0x4
 1866 07ac 0C       		.uleb128 0xc
 1867 07ad 43445200 		.ascii	"CDR\000"
 1868 07b1 09       		.byte	0x9
ARM GAS  C:\Users\DNIEL~1\AppData\Local\Temp\ccSb8sbz.s 			page 34


 1869 07b2 4801     		.2byte	0x148
 1870 07b4 4F030000 		.4byte	0x34f
 1871 07b8 02       		.byte	0x2
 1872 07b9 23       		.byte	0x23
 1873 07ba 08       		.uleb128 0x8
 1874 07bb 00       		.byte	0
 1875 07bc 17       		.uleb128 0x17
 1876 07bd D80B0000 		.4byte	.LASF163
 1877 07c1 09       		.byte	0x9
 1878 07c2 4A01     		.2byte	0x14a
 1879 07c4 85070000 		.4byte	0x785
 1880 07c8 15       		.uleb128 0x15
 1881 07c9 18       		.byte	0x18
 1882 07ca 09       		.byte	0x9
 1883 07cb D301     		.2byte	0x1d3
 1884 07cd 2B080000 		.4byte	0x82b
 1885 07d1 0C       		.uleb128 0xc
 1886 07d2 435200   		.ascii	"CR\000"
 1887 07d5 09       		.byte	0x9
 1888 07d6 D501     		.2byte	0x1d5
 1889 07d8 4F030000 		.4byte	0x34f
 1890 07dc 02       		.byte	0x2
 1891 07dd 23       		.byte	0x23
 1892 07de 00       		.uleb128 0
 1893 07df 16       		.uleb128 0x16
 1894 07e0 F50A0000 		.4byte	.LASF164
 1895 07e4 09       		.byte	0x9
 1896 07e5 D601     		.2byte	0x1d6
 1897 07e7 4F030000 		.4byte	0x34f
 1898 07eb 02       		.byte	0x2
 1899 07ec 23       		.byte	0x23
 1900 07ed 04       		.uleb128 0x4
 1901 07ee 0C       		.uleb128 0xc
 1902 07ef 50415200 		.ascii	"PAR\000"
 1903 07f3 09       		.byte	0x9
 1904 07f4 D701     		.2byte	0x1d7
 1905 07f6 4F030000 		.4byte	0x34f
 1906 07fa 02       		.byte	0x2
 1907 07fb 23       		.byte	0x23
 1908 07fc 08       		.uleb128 0x8
 1909 07fd 16       		.uleb128 0x16
 1910 07fe 1F0A0000 		.4byte	.LASF165
 1911 0802 09       		.byte	0x9
 1912 0803 D801     		.2byte	0x1d8
 1913 0805 4F030000 		.4byte	0x34f
 1914 0809 02       		.byte	0x2
 1915 080a 23       		.byte	0x23
 1916 080b 0C       		.uleb128 0xc
 1917 080c 16       		.uleb128 0x16
 1918 080d 00000000 		.4byte	.LASF166
 1919 0811 09       		.byte	0x9
 1920 0812 D901     		.2byte	0x1d9
 1921 0814 4F030000 		.4byte	0x34f
 1922 0818 02       		.byte	0x2
 1923 0819 23       		.byte	0x23
 1924 081a 10       		.uleb128 0x10
 1925 081b 0C       		.uleb128 0xc
ARM GAS  C:\Users\DNIEL~1\AppData\Local\Temp\ccSb8sbz.s 			page 35


 1926 081c 46435200 		.ascii	"FCR\000"
 1927 0820 09       		.byte	0x9
 1928 0821 DA01     		.2byte	0x1da
 1929 0823 4F030000 		.4byte	0x34f
 1930 0827 02       		.byte	0x2
 1931 0828 23       		.byte	0x23
 1932 0829 14       		.uleb128 0x14
 1933 082a 00       		.byte	0
 1934 082b 17       		.uleb128 0x17
 1935 082c C5070000 		.4byte	.LASF167
 1936 0830 09       		.byte	0x9
 1937 0831 DB01     		.2byte	0x1db
 1938 0833 C8070000 		.4byte	0x7c8
 1939 0837 15       		.uleb128 0x15
 1940 0838 88       		.byte	0x88
 1941 0839 09       		.byte	0x9
 1942 083a DB02     		.2byte	0x2db
 1943 083c 040A0000 		.4byte	0xa04
 1944 0840 0C       		.uleb128 0xc
 1945 0841 435200   		.ascii	"CR\000"
 1946 0844 09       		.byte	0x9
 1947 0845 DD02     		.2byte	0x2dd
 1948 0847 4F030000 		.4byte	0x34f
 1949 084b 02       		.byte	0x2
 1950 084c 23       		.byte	0x23
 1951 084d 00       		.uleb128 0
 1952 084e 16       		.uleb128 0x16
 1953 084f F2050000 		.4byte	.LASF168
 1954 0853 09       		.byte	0x9
 1955 0854 DE02     		.2byte	0x2de
 1956 0856 4F030000 		.4byte	0x34f
 1957 085a 02       		.byte	0x2
 1958 085b 23       		.byte	0x23
 1959 085c 04       		.uleb128 0x4
 1960 085d 16       		.uleb128 0x16
 1961 085e 5B040000 		.4byte	.LASF169
 1962 0862 09       		.byte	0x9
 1963 0863 DF02     		.2byte	0x2df
 1964 0865 4F030000 		.4byte	0x34f
 1965 0869 02       		.byte	0x2
 1966 086a 23       		.byte	0x23
 1967 086b 08       		.uleb128 0x8
 1968 086c 0C       		.uleb128 0xc
 1969 086d 43495200 		.ascii	"CIR\000"
 1970 0871 09       		.byte	0x9
 1971 0872 E002     		.2byte	0x2e0
 1972 0874 4F030000 		.4byte	0x34f
 1973 0878 02       		.byte	0x2
 1974 0879 23       		.byte	0x23
 1975 087a 0C       		.uleb128 0xc
 1976 087b 16       		.uleb128 0x16
 1977 087c CF0B0000 		.4byte	.LASF170
 1978 0880 09       		.byte	0x9
 1979 0881 E102     		.2byte	0x2e1
 1980 0883 4F030000 		.4byte	0x34f
 1981 0887 02       		.byte	0x2
 1982 0888 23       		.byte	0x23
ARM GAS  C:\Users\DNIEL~1\AppData\Local\Temp\ccSb8sbz.s 			page 36


 1983 0889 10       		.uleb128 0x10
 1984 088a 16       		.uleb128 0x16
 1985 088b 0F0A0000 		.4byte	.LASF171
 1986 088f 09       		.byte	0x9
 1987 0890 E202     		.2byte	0x2e2
 1988 0892 4F030000 		.4byte	0x34f
 1989 0896 02       		.byte	0x2
 1990 0897 23       		.byte	0x23
 1991 0898 14       		.uleb128 0x14
 1992 0899 16       		.uleb128 0x16
 1993 089a 3F080000 		.4byte	.LASF172
 1994 089e 09       		.byte	0x9
 1995 089f E302     		.2byte	0x2e3
 1996 08a1 4F030000 		.4byte	0x34f
 1997 08a5 02       		.byte	0x2
 1998 08a6 23       		.byte	0x23
 1999 08a7 18       		.uleb128 0x18
 2000 08a8 16       		.uleb128 0x16
 2001 08a9 A9020000 		.4byte	.LASF173
 2002 08ad 09       		.byte	0x9
 2003 08ae E402     		.2byte	0x2e4
 2004 08b0 86000000 		.4byte	0x86
 2005 08b4 02       		.byte	0x2
 2006 08b5 23       		.byte	0x23
 2007 08b6 1C       		.uleb128 0x1c
 2008 08b7 16       		.uleb128 0x16
 2009 08b8 70080000 		.4byte	.LASF174
 2010 08bc 09       		.byte	0x9
 2011 08bd E502     		.2byte	0x2e5
 2012 08bf 4F030000 		.4byte	0x34f
 2013 08c3 02       		.byte	0x2
 2014 08c4 23       		.byte	0x23
 2015 08c5 20       		.uleb128 0x20
 2016 08c6 16       		.uleb128 0x16
 2017 08c7 96060000 		.4byte	.LASF175
 2018 08cb 09       		.byte	0x9
 2019 08cc E602     		.2byte	0x2e6
 2020 08ce 4F030000 		.4byte	0x34f
 2021 08d2 02       		.byte	0x2
 2022 08d3 23       		.byte	0x23
 2023 08d4 24       		.uleb128 0x24
 2024 08d5 16       		.uleb128 0x16
 2025 08d6 B3020000 		.4byte	.LASF176
 2026 08da 09       		.byte	0x9
 2027 08db E702     		.2byte	0x2e7
 2028 08dd 30060000 		.4byte	0x630
 2029 08e1 02       		.byte	0x2
 2030 08e2 23       		.byte	0x23
 2031 08e3 28       		.uleb128 0x28
 2032 08e4 16       		.uleb128 0x16
 2033 08e5 E3090000 		.4byte	.LASF177
 2034 08e9 09       		.byte	0x9
 2035 08ea E802     		.2byte	0x2e8
 2036 08ec 4F030000 		.4byte	0x34f
 2037 08f0 02       		.byte	0x2
 2038 08f1 23       		.byte	0x23
 2039 08f2 30       		.uleb128 0x30
ARM GAS  C:\Users\DNIEL~1\AppData\Local\Temp\ccSb8sbz.s 			page 37


 2040 08f3 16       		.uleb128 0x16
 2041 08f4 83030000 		.4byte	.LASF178
 2042 08f8 09       		.byte	0x9
 2043 08f9 E902     		.2byte	0x2e9
 2044 08fb 4F030000 		.4byte	0x34f
 2045 08ff 02       		.byte	0x2
 2046 0900 23       		.byte	0x23
 2047 0901 34       		.uleb128 0x34
 2048 0902 16       		.uleb128 0x16
 2049 0903 150C0000 		.4byte	.LASF179
 2050 0907 09       		.byte	0x9
 2051 0908 EA02     		.2byte	0x2ea
 2052 090a 4F030000 		.4byte	0x34f
 2053 090e 02       		.byte	0x2
 2054 090f 23       		.byte	0x23
 2055 0910 38       		.uleb128 0x38
 2056 0911 16       		.uleb128 0x16
 2057 0912 36030000 		.4byte	.LASF180
 2058 0916 09       		.byte	0x9
 2059 0917 EB02     		.2byte	0x2eb
 2060 0919 86000000 		.4byte	0x86
 2061 091d 02       		.byte	0x2
 2062 091e 23       		.byte	0x23
 2063 091f 3C       		.uleb128 0x3c
 2064 0920 16       		.uleb128 0x16
 2065 0921 0B050000 		.4byte	.LASF181
 2066 0925 09       		.byte	0x9
 2067 0926 EC02     		.2byte	0x2ec
 2068 0928 4F030000 		.4byte	0x34f
 2069 092c 02       		.byte	0x2
 2070 092d 23       		.byte	0x23
 2071 092e 40       		.uleb128 0x40
 2072 092f 16       		.uleb128 0x16
 2073 0930 24020000 		.4byte	.LASF182
 2074 0934 09       		.byte	0x9
 2075 0935 ED02     		.2byte	0x2ed
 2076 0937 4F030000 		.4byte	0x34f
 2077 093b 02       		.byte	0x2
 2078 093c 23       		.byte	0x23
 2079 093d 44       		.uleb128 0x44
 2080 093e 16       		.uleb128 0x16
 2081 093f 40030000 		.4byte	.LASF183
 2082 0943 09       		.byte	0x9
 2083 0944 EE02     		.2byte	0x2ee
 2084 0946 30060000 		.4byte	0x630
 2085 094a 02       		.byte	0x2
 2086 094b 23       		.byte	0x23
 2087 094c 48       		.uleb128 0x48
 2088 094d 16       		.uleb128 0x16
 2089 094e 2C020000 		.4byte	.LASF184
 2090 0952 09       		.byte	0x9
 2091 0953 EF02     		.2byte	0x2ef
 2092 0955 4F030000 		.4byte	0x34f
 2093 0959 02       		.byte	0x2
 2094 095a 23       		.byte	0x23
 2095 095b 50       		.uleb128 0x50
 2096 095c 16       		.uleb128 0x16
ARM GAS  C:\Users\DNIEL~1\AppData\Local\Temp\ccSb8sbz.s 			page 38


 2097 095d 97010000 		.4byte	.LASF185
 2098 0961 09       		.byte	0x9
 2099 0962 F002     		.2byte	0x2f0
 2100 0964 4F030000 		.4byte	0x34f
 2101 0968 02       		.byte	0x2
 2102 0969 23       		.byte	0x23
 2103 096a 54       		.uleb128 0x54
 2104 096b 16       		.uleb128 0x16
 2105 096c 6C090000 		.4byte	.LASF186
 2106 0970 09       		.byte	0x9
 2107 0971 F102     		.2byte	0x2f1
 2108 0973 4F030000 		.4byte	0x34f
 2109 0977 02       		.byte	0x2
 2110 0978 23       		.byte	0x23
 2111 0979 58       		.uleb128 0x58
 2112 097a 16       		.uleb128 0x16
 2113 097b DD020000 		.4byte	.LASF187
 2114 097f 09       		.byte	0x9
 2115 0980 F202     		.2byte	0x2f2
 2116 0982 86000000 		.4byte	0x86
 2117 0986 02       		.byte	0x2
 2118 0987 23       		.byte	0x23
 2119 0988 5C       		.uleb128 0x5c
 2120 0989 16       		.uleb128 0x16
 2121 098a 72070000 		.4byte	.LASF188
 2122 098e 09       		.byte	0x9
 2123 098f F302     		.2byte	0x2f3
 2124 0991 4F030000 		.4byte	0x34f
 2125 0995 02       		.byte	0x2
 2126 0996 23       		.byte	0x23
 2127 0997 60       		.uleb128 0x60
 2128 0998 16       		.uleb128 0x16
 2129 0999 BF060000 		.4byte	.LASF189
 2130 099d 09       		.byte	0x9
 2131 099e F402     		.2byte	0x2f4
 2132 09a0 4F030000 		.4byte	0x34f
 2133 09a4 02       		.byte	0x2
 2134 09a5 23       		.byte	0x23
 2135 09a6 64       		.uleb128 0x64
 2136 09a7 16       		.uleb128 0x16
 2137 09a8 E7020000 		.4byte	.LASF190
 2138 09ac 09       		.byte	0x9
 2139 09ad F502     		.2byte	0x2f5
 2140 09af 30060000 		.4byte	0x630
 2141 09b3 02       		.byte	0x2
 2142 09b4 23       		.byte	0x23
 2143 09b5 68       		.uleb128 0x68
 2144 09b6 16       		.uleb128 0x16
 2145 09b7 ED030000 		.4byte	.LASF191
 2146 09bb 09       		.byte	0x9
 2147 09bc F602     		.2byte	0x2f6
 2148 09be 4F030000 		.4byte	0x34f
 2149 09c2 02       		.byte	0x2
 2150 09c3 23       		.byte	0x23
 2151 09c4 70       		.uleb128 0x70
 2152 09c5 0C       		.uleb128 0xc
 2153 09c6 43535200 		.ascii	"CSR\000"
ARM GAS  C:\Users\DNIEL~1\AppData\Local\Temp\ccSb8sbz.s 			page 39


 2154 09ca 09       		.byte	0x9
 2155 09cb F702     		.2byte	0x2f7
 2156 09cd 4F030000 		.4byte	0x34f
 2157 09d1 02       		.byte	0x2
 2158 09d2 23       		.byte	0x23
 2159 09d3 74       		.uleb128 0x74
 2160 09d4 16       		.uleb128 0x16
 2161 09d5 F1020000 		.4byte	.LASF192
 2162 09d9 09       		.byte	0x9
 2163 09da F802     		.2byte	0x2f8
 2164 09dc 30060000 		.4byte	0x630
 2165 09e0 02       		.byte	0x2
 2166 09e1 23       		.byte	0x23
 2167 09e2 78       		.uleb128 0x78
 2168 09e3 16       		.uleb128 0x16
 2169 09e4 62060000 		.4byte	.LASF193
 2170 09e8 09       		.byte	0x9
 2171 09e9 F902     		.2byte	0x2f9
 2172 09eb 4F030000 		.4byte	0x34f
 2173 09ef 03       		.byte	0x3
 2174 09f0 23       		.byte	0x23
 2175 09f1 8001     		.uleb128 0x80
 2176 09f3 16       		.uleb128 0x16
 2177 09f4 4A000000 		.4byte	.LASF194
 2178 09f8 09       		.byte	0x9
 2179 09f9 FA02     		.2byte	0x2fa
 2180 09fb 4F030000 		.4byte	0x34f
 2181 09ff 03       		.byte	0x3
 2182 0a00 23       		.byte	0x23
 2183 0a01 8401     		.uleb128 0x84
 2184 0a03 00       		.byte	0
 2185 0a04 17       		.uleb128 0x17
 2186 0a05 2D0A0000 		.4byte	.LASF195
 2187 0a09 09       		.byte	0x9
 2188 0a0a FB02     		.2byte	0x2fb
 2189 0a0c 37080000 		.4byte	0x837
 2190 0a10 08       		.uleb128 0x8
 2191 0a11 0C       		.byte	0xc
 2192 0a12 0A       		.byte	0xa
 2193 0a13 DE       		.byte	0xde
 2194 0a14 5F0A0000 		.4byte	0xa5f
 2195 0a18 06       		.uleb128 0x6
 2196 0a19 D4030000 		.4byte	.LASF196
 2197 0a1d 0A       		.byte	0xa
 2198 0a1e DF       		.byte	0xdf
 2199 0a1f 5F0A0000 		.4byte	0xa5f
 2200 0a23 02       		.byte	0x2
 2201 0a24 23       		.byte	0x23
 2202 0a25 00       		.uleb128 0
 2203 0a26 06       		.uleb128 0x6
 2204 0a27 EB0B0000 		.4byte	.LASF197
 2205 0a2b 0A       		.byte	0xa
 2206 0a2c E0       		.byte	0xe0
 2207 0a2d 650A0000 		.4byte	0xa65
 2208 0a31 02       		.byte	0x2
 2209 0a32 23       		.byte	0x23
 2210 0a33 04       		.uleb128 0x4
ARM GAS  C:\Users\DNIEL~1\AppData\Local\Temp\ccSb8sbz.s 			page 40


 2211 0a34 06       		.uleb128 0x6
 2212 0a35 75030000 		.4byte	.LASF198
 2213 0a39 0A       		.byte	0xa
 2214 0a3a E1       		.byte	0xe1
 2215 0a3b 49000000 		.4byte	0x49
 2216 0a3f 02       		.byte	0x2
 2217 0a40 23       		.byte	0x23
 2218 0a41 08       		.uleb128 0x8
 2219 0a42 06       		.uleb128 0x6
 2220 0a43 EC060000 		.4byte	.LASF199
 2221 0a47 0A       		.byte	0xa
 2222 0a48 E3       		.byte	0xe3
 2223 0a49 49000000 		.4byte	0x49
 2224 0a4d 02       		.byte	0x2
 2225 0a4e 23       		.byte	0x23
 2226 0a4f 09       		.uleb128 0x9
 2227 0a50 06       		.uleb128 0x6
 2228 0a51 46090000 		.4byte	.LASF200
 2229 0a55 0A       		.byte	0xa
 2230 0a56 E4       		.byte	0xe4
 2231 0a57 49000000 		.4byte	0x49
 2232 0a5b 02       		.byte	0x2
 2233 0a5c 23       		.byte	0x23
 2234 0a5d 0A       		.uleb128 0xa
 2235 0a5e 00       		.byte	0
 2236 0a5f 09       		.uleb128 0x9
 2237 0a60 04       		.byte	0x4
 2238 0a61 2B080000 		.4byte	0x82b
 2239 0a65 09       		.uleb128 0x9
 2240 0a66 04       		.byte	0x4
 2241 0a67 4F030000 		.4byte	0x34f
 2242 0a6b 03       		.uleb128 0x3
 2243 0a6c 7F050000 		.4byte	.LASF201
 2244 0a70 0A       		.byte	0xa
 2245 0a71 E5       		.byte	0xe5
 2246 0a72 100A0000 		.4byte	0xa10
 2247 0a76 03       		.uleb128 0x3
 2248 0a77 79080000 		.4byte	.LASF202
 2249 0a7b 0A       		.byte	0xa
 2250 0a7c EE       		.byte	0xee
 2251 0a7d 810A0000 		.4byte	0xa81
 2252 0a81 09       		.uleb128 0x9
 2253 0a82 04       		.byte	0x4
 2254 0a83 870A0000 		.4byte	0xa87
 2255 0a87 18       		.uleb128 0x18
 2256 0a88 01       		.byte	0x1
 2257 0a89 980A0000 		.4byte	0xa98
 2258 0a8d 19       		.uleb128 0x19
 2259 0a8e 9C020000 		.4byte	0x29c
 2260 0a92 19       		.uleb128 0x19
 2261 0a93 86000000 		.4byte	0x86
 2262 0a97 00       		.byte	0
 2263 0a98 1A       		.uleb128 0x1a
 2264 0a99 01       		.byte	0x1
 2265 0a9a 0B       		.byte	0xb
 2266 0a9b 4E       		.byte	0x4e
 2267 0a9c C50A0000 		.4byte	0xac5
ARM GAS  C:\Users\DNIEL~1\AppData\Local\Temp\ccSb8sbz.s 			page 41


 2268 0aa0 12       		.uleb128 0x12
 2269 0aa1 13030000 		.4byte	.LASF203
 2270 0aa5 00       		.sleb128 0
 2271 0aa6 12       		.uleb128 0x12
 2272 0aa7 C8090000 		.4byte	.LASF204
 2273 0aab 01       		.sleb128 1
 2274 0aac 12       		.uleb128 0x12
 2275 0aad 2C030000 		.4byte	.LASF205
 2276 0ab1 02       		.sleb128 2
 2277 0ab2 12       		.uleb128 0x12
 2278 0ab3 53080000 		.4byte	.LASF206
 2279 0ab7 03       		.sleb128 3
 2280 0ab8 12       		.uleb128 0x12
 2281 0ab9 B2050000 		.4byte	.LASF207
 2282 0abd 04       		.sleb128 4
 2283 0abe 12       		.uleb128 0x12
 2284 0abf A0030000 		.4byte	.LASF208
 2285 0ac3 05       		.sleb128 5
 2286 0ac4 00       		.byte	0
 2287 0ac5 03       		.uleb128 0x3
 2288 0ac6 93000000 		.4byte	.LASF209
 2289 0aca 0B       		.byte	0xb
 2290 0acb 55       		.byte	0x55
 2291 0acc 980A0000 		.4byte	0xa98
 2292 0ad0 17       		.uleb128 0x17
 2293 0ad1 54030000 		.4byte	.LASF210
 2294 0ad5 0C       		.byte	0xc
 2295 0ad6 2B01     		.2byte	0x12b
 2296 0ad8 62000000 		.4byte	0x62
 2297 0adc 17       		.uleb128 0x17
 2298 0add 11070000 		.4byte	.LASF211
 2299 0ae1 0C       		.byte	0xc
 2300 0ae2 3001     		.2byte	0x130
 2301 0ae4 62000000 		.4byte	0x62
 2302 0ae8 1B       		.uleb128 0x1b
 2303 0ae9 01       		.byte	0x1
 2304 0aea 0C       		.byte	0xc
 2305 0aeb 3701     		.2byte	0x137
 2306 0aed FE0A0000 		.4byte	0xafe
 2307 0af1 12       		.uleb128 0x12
 2308 0af2 AF000000 		.4byte	.LASF212
 2309 0af6 00       		.sleb128 0
 2310 0af7 12       		.uleb128 0x12
 2311 0af8 56090000 		.4byte	.LASF213
 2312 0afc 01       		.sleb128 1
 2313 0afd 00       		.byte	0
 2314 0afe 17       		.uleb128 0x17
 2315 0aff FB020000 		.4byte	.LASF214
 2316 0b03 0C       		.byte	0xc
 2317 0b04 3A01     		.2byte	0x13a
 2318 0b06 E80A0000 		.4byte	0xae8
 2319 0b0a 17       		.uleb128 0x17
 2320 0b0b 21090000 		.4byte	.LASF215
 2321 0b0f 0C       		.byte	0xc
 2322 0b10 3F01     		.2byte	0x13f
 2323 0b12 160B0000 		.4byte	0xb16
 2324 0b16 0B       		.uleb128 0xb
ARM GAS  C:\Users\DNIEL~1\AppData\Local\Temp\ccSb8sbz.s 			page 42


 2325 0b17 21090000 		.4byte	.LASF215
 2326 0b1b 34       		.byte	0x34
 2327 0b1c 0C       		.byte	0xc
 2328 0b1d A301     		.2byte	0x1a3
 2329 0b1f BA0B0000 		.4byte	0xbba
 2330 0b23 16       		.uleb128 0x16
 2331 0b24 06010000 		.4byte	.LASF216
 2332 0b28 0C       		.byte	0xc
 2333 0b29 A701     		.2byte	0x1a7
 2334 0b2b C50A0000 		.4byte	0xac5
 2335 0b2f 02       		.byte	0x2
 2336 0b30 23       		.byte	0x23
 2337 0b31 00       		.uleb128 0
 2338 0b32 16       		.uleb128 0x16
 2339 0b33 FF000000 		.4byte	.LASF217
 2340 0b37 0C       		.byte	0xc
 2341 0b38 AB01     		.2byte	0x1ab
 2342 0b3a F10C0000 		.4byte	0xcf1
 2343 0b3e 02       		.byte	0x2
 2344 0b3f 23       		.byte	0x23
 2345 0b40 04       		.uleb128 0x4
 2346 0b41 16       		.uleb128 0x16
 2347 0b42 F2030000 		.4byte	.LASF218
 2348 0b46 0C       		.byte	0xc
 2349 0b47 AF01     		.2byte	0x1af
 2350 0b49 E80B0000 		.4byte	0xbe8
 2351 0b4d 02       		.byte	0x2
 2352 0b4e 23       		.byte	0x23
 2353 0b4f 08       		.uleb128 0x8
 2354 0b50 16       		.uleb128 0x16
 2355 0b51 9F060000 		.4byte	.LASF219
 2356 0b55 0C       		.byte	0xc
 2357 0b56 B301     		.2byte	0x1b3
 2358 0b58 30000000 		.4byte	0x30
 2359 0b5c 02       		.byte	0x2
 2360 0b5d 23       		.byte	0x23
 2361 0b5e 0C       		.uleb128 0xc
 2362 0b5f 16       		.uleb128 0x16
 2363 0b60 0A0A0000 		.4byte	.LASF220
 2364 0b64 0C       		.byte	0xc
 2365 0b65 B701     		.2byte	0x1b7
 2366 0b67 FC0C0000 		.4byte	0xcfc
 2367 0b6b 02       		.byte	0x2
 2368 0b6c 23       		.byte	0x23
 2369 0b6d 10       		.uleb128 0x10
 2370 0b6e 16       		.uleb128 0x16
 2371 0b6f 180A0000 		.4byte	.LASF221
 2372 0b73 0C       		.byte	0xc
 2373 0b74 BC01     		.2byte	0x1bc
 2374 0b76 5E020000 		.4byte	0x25e
 2375 0b7a 02       		.byte	0x2
 2376 0b7b 23       		.byte	0x23
 2377 0b7c 14       		.uleb128 0x14
 2378 0b7d 16       		.uleb128 0x16
 2379 0b7e A5060000 		.4byte	.LASF222
 2380 0b82 0C       		.byte	0xc
 2381 0b83 C301     		.2byte	0x1c3
ARM GAS  C:\Users\DNIEL~1\AppData\Local\Temp\ccSb8sbz.s 			page 43


 2382 0b85 9D030000 		.4byte	0x39d
 2383 0b89 02       		.byte	0x2
 2384 0b8a 23       		.byte	0x23
 2385 0b8b 18       		.uleb128 0x18
 2386 0b8c 0C       		.uleb128 0xc
 2387 0b8d 61646300 		.ascii	"adc\000"
 2388 0b91 0C       		.byte	0xc
 2389 0b92 CF01     		.2byte	0x1cf
 2390 0b94 070D0000 		.4byte	0xd07
 2391 0b98 02       		.byte	0x2
 2392 0b99 23       		.byte	0x23
 2393 0b9a 28       		.uleb128 0x28
 2394 0b9b 16       		.uleb128 0x16
 2395 0b9c 13050000 		.4byte	.LASF223
 2396 0ba0 0C       		.byte	0xc
 2397 0ba1 D301     		.2byte	0x1d3
 2398 0ba3 0D0D0000 		.4byte	0xd0d
 2399 0ba7 02       		.byte	0x2
 2400 0ba8 23       		.byte	0x23
 2401 0ba9 2C       		.uleb128 0x2c
 2402 0baa 16       		.uleb128 0x16
 2403 0bab C0010000 		.4byte	.LASF224
 2404 0baf 0C       		.byte	0xc
 2405 0bb0 D701     		.2byte	0x1d7
 2406 0bb2 86000000 		.4byte	0x86
 2407 0bb6 02       		.byte	0x2
 2408 0bb7 23       		.byte	0x23
 2409 0bb8 30       		.uleb128 0x30
 2410 0bb9 00       		.byte	0
 2411 0bba 17       		.uleb128 0x17
 2412 0bbb 63000000 		.4byte	.LASF225
 2413 0bbf 0C       		.byte	0xc
 2414 0bc0 4901     		.2byte	0x149
 2415 0bc2 C60B0000 		.4byte	0xbc6
 2416 0bc6 09       		.uleb128 0x9
 2417 0bc7 04       		.byte	0x4
 2418 0bc8 CC0B0000 		.4byte	0xbcc
 2419 0bcc 18       		.uleb128 0x18
 2420 0bcd 01       		.byte	0x1
 2421 0bce E20B0000 		.4byte	0xbe2
 2422 0bd2 19       		.uleb128 0x19
 2423 0bd3 E20B0000 		.4byte	0xbe2
 2424 0bd7 19       		.uleb128 0x19
 2425 0bd8 E80B0000 		.4byte	0xbe8
 2426 0bdc 19       		.uleb128 0x19
 2427 0bdd 30000000 		.4byte	0x30
 2428 0be1 00       		.byte	0
 2429 0be2 09       		.uleb128 0x9
 2430 0be3 04       		.byte	0x4
 2431 0be4 0A0B0000 		.4byte	0xb0a
 2432 0be8 09       		.uleb128 0x9
 2433 0be9 04       		.byte	0x4
 2434 0bea D00A0000 		.4byte	0xad0
 2435 0bee 17       		.uleb128 0x17
 2436 0bef 77060000 		.4byte	.LASF226
 2437 0bf3 0C       		.byte	0xc
 2438 0bf4 5201     		.2byte	0x152
ARM GAS  C:\Users\DNIEL~1\AppData\Local\Temp\ccSb8sbz.s 			page 44


 2439 0bf6 FA0B0000 		.4byte	0xbfa
 2440 0bfa 09       		.uleb128 0x9
 2441 0bfb 04       		.byte	0x4
 2442 0bfc 000C0000 		.4byte	0xc00
 2443 0c00 18       		.uleb128 0x18
 2444 0c01 01       		.byte	0x1
 2445 0c02 110C0000 		.4byte	0xc11
 2446 0c06 19       		.uleb128 0x19
 2447 0c07 E20B0000 		.4byte	0xbe2
 2448 0c0b 19       		.uleb128 0x19
 2449 0c0c FE0A0000 		.4byte	0xafe
 2450 0c10 00       		.byte	0
 2451 0c11 15       		.uleb128 0x15
 2452 0c12 2C       		.byte	0x2c
 2453 0c13 0C       		.byte	0xc
 2454 0c14 5C01     		.2byte	0x15c
 2455 0c16 C00C0000 		.4byte	0xcc0
 2456 0c1a 16       		.uleb128 0x16
 2457 0c1b B5030000 		.4byte	.LASF227
 2458 0c1f 0C       		.byte	0xc
 2459 0c20 6001     		.2byte	0x160
 2460 0c22 A6000000 		.4byte	0xa6
 2461 0c26 02       		.byte	0x2
 2462 0c27 23       		.byte	0x23
 2463 0c28 00       		.uleb128 0
 2464 0c29 16       		.uleb128 0x16
 2465 0c2a 40070000 		.4byte	.LASF228
 2466 0c2e 0C       		.byte	0xc
 2467 0c2f 6401     		.2byte	0x164
 2468 0c31 DC0A0000 		.4byte	0xadc
 2469 0c35 02       		.byte	0x2
 2470 0c36 23       		.byte	0x23
 2471 0c37 04       		.uleb128 0x4
 2472 0c38 16       		.uleb128 0x16
 2473 0c39 5B010000 		.4byte	.LASF229
 2474 0c3d 0C       		.byte	0xc
 2475 0c3e 6801     		.2byte	0x168
 2476 0c40 BA0B0000 		.4byte	0xbba
 2477 0c44 02       		.byte	0x2
 2478 0c45 23       		.byte	0x23
 2479 0c46 08       		.uleb128 0x8
 2480 0c47 16       		.uleb128 0x16
 2481 0c48 2B010000 		.4byte	.LASF230
 2482 0c4c 0C       		.byte	0xc
 2483 0c4d 6C01     		.2byte	0x16c
 2484 0c4f EE0B0000 		.4byte	0xbee
 2485 0c53 02       		.byte	0x2
 2486 0c54 23       		.byte	0x23
 2487 0c55 0C       		.uleb128 0xc
 2488 0c56 0C       		.uleb128 0xc
 2489 0c57 63723100 		.ascii	"cr1\000"
 2490 0c5b 0C       		.byte	0xc
 2491 0c5c 7301     		.2byte	0x173
 2492 0c5e 86000000 		.4byte	0x86
 2493 0c62 02       		.byte	0x2
 2494 0c63 23       		.byte	0x23
 2495 0c64 10       		.uleb128 0x10
ARM GAS  C:\Users\DNIEL~1\AppData\Local\Temp\ccSb8sbz.s 			page 45


 2496 0c65 0C       		.uleb128 0xc
 2497 0c66 63723200 		.ascii	"cr2\000"
 2498 0c6a 0C       		.byte	0xc
 2499 0c6b 7A01     		.2byte	0x17a
 2500 0c6d 86000000 		.4byte	0x86
 2501 0c71 02       		.byte	0x2
 2502 0c72 23       		.byte	0x23
 2503 0c73 14       		.uleb128 0x14
 2504 0c74 16       		.uleb128 0x16
 2505 0c75 BF050000 		.4byte	.LASF231
 2506 0c79 0C       		.byte	0xc
 2507 0c7a 8001     		.2byte	0x180
 2508 0c7c 86000000 		.4byte	0x86
 2509 0c80 02       		.byte	0x2
 2510 0c81 23       		.byte	0x23
 2511 0c82 18       		.uleb128 0x18
 2512 0c83 16       		.uleb128 0x16
 2513 0c84 C5050000 		.4byte	.LASF232
 2514 0c88 0C       		.byte	0xc
 2515 0c89 8601     		.2byte	0x186
 2516 0c8b 86000000 		.4byte	0x86
 2517 0c8f 02       		.byte	0x2
 2518 0c90 23       		.byte	0x23
 2519 0c91 1C       		.uleb128 0x1c
 2520 0c92 16       		.uleb128 0x16
 2521 0c93 1F000000 		.4byte	.LASF233
 2522 0c97 0C       		.byte	0xc
 2523 0c98 8B01     		.2byte	0x18b
 2524 0c9a 86000000 		.4byte	0x86
 2525 0c9e 02       		.byte	0x2
 2526 0c9f 23       		.byte	0x23
 2527 0ca0 20       		.uleb128 0x20
 2528 0ca1 16       		.uleb128 0x16
 2529 0ca2 24000000 		.4byte	.LASF234
 2530 0ca6 0C       		.byte	0xc
 2531 0ca7 9001     		.2byte	0x190
 2532 0ca9 86000000 		.4byte	0x86
 2533 0cad 02       		.byte	0x2
 2534 0cae 23       		.byte	0x23
 2535 0caf 24       		.uleb128 0x24
 2536 0cb0 16       		.uleb128 0x16
 2537 0cb1 B0030000 		.4byte	.LASF235
 2538 0cb5 0C       		.byte	0xc
 2539 0cb6 9501     		.2byte	0x195
 2540 0cb8 86000000 		.4byte	0x86
 2541 0cbc 02       		.byte	0x2
 2542 0cbd 23       		.byte	0x23
 2543 0cbe 28       		.uleb128 0x28
 2544 0cbf 00       		.byte	0
 2545 0cc0 17       		.uleb128 0x17
 2546 0cc1 9F050000 		.4byte	.LASF236
 2547 0cc5 0C       		.byte	0xc
 2548 0cc6 9601     		.2byte	0x196
 2549 0cc8 110C0000 		.4byte	0xc11
 2550 0ccc 15       		.uleb128 0x15
 2551 0ccd 04       		.byte	0x4
 2552 0cce 0C       		.byte	0xc
ARM GAS  C:\Users\DNIEL~1\AppData\Local\Temp\ccSb8sbz.s 			page 46


 2553 0ccf 9C01     		.2byte	0x19c
 2554 0cd1 E50C0000 		.4byte	0xce5
 2555 0cd5 16       		.uleb128 0x16
 2556 0cd6 C2090000 		.4byte	.LASF237
 2557 0cda 0C       		.byte	0xc
 2558 0cdb 9D01     		.2byte	0x19d
 2559 0cdd 86000000 		.4byte	0x86
 2560 0ce1 02       		.byte	0x2
 2561 0ce2 23       		.byte	0x23
 2562 0ce3 00       		.uleb128 0
 2563 0ce4 00       		.byte	0
 2564 0ce5 17       		.uleb128 0x17
 2565 0ce6 600C0000 		.4byte	.LASF238
 2566 0cea 0C       		.byte	0xc
 2567 0ceb 9E01     		.2byte	0x19e
 2568 0ced CC0C0000 		.4byte	0xccc
 2569 0cf1 09       		.uleb128 0x9
 2570 0cf2 04       		.byte	0x4
 2571 0cf3 F70C0000 		.4byte	0xcf7
 2572 0cf7 10       		.uleb128 0x10
 2573 0cf8 E50C0000 		.4byte	0xce5
 2574 0cfc 09       		.uleb128 0x9
 2575 0cfd 04       		.byte	0x4
 2576 0cfe 020D0000 		.4byte	0xd02
 2577 0d02 10       		.uleb128 0x10
 2578 0d03 C00C0000 		.4byte	0xcc0
 2579 0d07 09       		.uleb128 0x9
 2580 0d08 04       		.byte	0x4
 2581 0d09 79070000 		.4byte	0x779
 2582 0d0d 09       		.uleb128 0x9
 2583 0d0e 04       		.byte	0x4
 2584 0d0f 130D0000 		.4byte	0xd13
 2585 0d13 10       		.uleb128 0x10
 2586 0d14 6B0A0000 		.4byte	0xa6b
 2587 0d18 1C       		.uleb128 0x1c
 2588 0d19 01       		.byte	0x1
 2589 0d1a 2B090000 		.4byte	.LASF239
 2590 0d1e 01       		.byte	0x1
 2591 0d1f AF       		.byte	0xaf
 2592 0d20 01       		.byte	0x1
 2593 0d21 00000000 		.4byte	.LFB120
 2594 0d25 38000000 		.4byte	.LFE120
 2595 0d29 00000000 		.4byte	.LLST0
 2596 0d2d 01       		.byte	0x1
 2597 0d2e 5D0D0000 		.4byte	0xd5d
 2598 0d32 1D       		.uleb128 0x1d
 2599 0d33 10000000 		.4byte	.LVL0
 2600 0d37 65110000 		.4byte	0x1165
 2601 0d3b 460D0000 		.4byte	0xd46
 2602 0d3f 1E       		.uleb128 0x1e
 2603 0d40 01       		.byte	0x1
 2604 0d41 50       		.byte	0x50
 2605 0d42 02       		.byte	0x2
 2606 0d43 74       		.byte	0x74
 2607 0d44 00       		.sleb128 0
 2608 0d45 00       		.byte	0
 2609 0d46 1F       		.uleb128 0x1f
ARM GAS  C:\Users\DNIEL~1\AppData\Local\Temp\ccSb8sbz.s 			page 47


 2610 0d47 34000000 		.4byte	.LVL1
 2611 0d4b 01       		.byte	0x1
 2612 0d4c 7A110000 		.4byte	0x117a
 2613 0d50 1E       		.uleb128 0x1e
 2614 0d51 01       		.byte	0x1
 2615 0d52 51       		.byte	0x51
 2616 0d53 02       		.byte	0x2
 2617 0d54 08       		.byte	0x8
 2618 0d55 60       		.byte	0x60
 2619 0d56 1E       		.uleb128 0x1e
 2620 0d57 01       		.byte	0x1
 2621 0d58 50       		.byte	0x50
 2622 0d59 01       		.byte	0x1
 2623 0d5a 42       		.byte	0x42
 2624 0d5b 00       		.byte	0
 2625 0d5c 00       		.byte	0
 2626 0d5d 1C       		.uleb128 0x1c
 2627 0d5e 01       		.byte	0x1
 2628 0d5f 32000000 		.4byte	.LASF240
 2629 0d63 01       		.byte	0x1
 2630 0d64 E4       		.byte	0xe4
 2631 0d65 01       		.byte	0x1
 2632 0d66 00000000 		.4byte	.LFB121
 2633 0d6a 64000000 		.4byte	.LFE121
 2634 0d6e 20000000 		.4byte	.LLST1
 2635 0d72 01       		.byte	0x1
 2636 0d73 B80D0000 		.4byte	0xdb8
 2637 0d77 20       		.uleb128 0x20
 2638 0d78 72060000 		.4byte	.LASF242
 2639 0d7c 01       		.byte	0x1
 2640 0d7d E4       		.byte	0xe4
 2641 0d7e E20B0000 		.4byte	0xbe2
 2642 0d82 40000000 		.4byte	.LLST2
 2643 0d86 21       		.uleb128 0x21
 2644 0d87 2E000000 		.4byte	.LBB2
 2645 0d8b 64000000 		.4byte	.LBE2
 2646 0d8f 22       		.uleb128 0x22
 2647 0d90 6200     		.ascii	"b\000"
 2648 0d92 01       		.byte	0x1
 2649 0d93 F7       		.byte	0xf7
 2650 0d94 A6000000 		.4byte	0xa6
 2651 0d98 23       		.uleb128 0x23
 2652 0d99 3A000000 		.4byte	.LVL4
 2653 0d9d 94110000 		.4byte	0x1194
 2654 0da1 1E       		.uleb128 0x1e
 2655 0da2 01       		.byte	0x1
 2656 0da3 53       		.byte	0x53
 2657 0da4 02       		.byte	0x2
 2658 0da5 74       		.byte	0x74
 2659 0da6 00       		.sleb128 0
 2660 0da7 1E       		.uleb128 0x1e
 2661 0da8 01       		.byte	0x1
 2662 0da9 52       		.byte	0x52
 2663 0daa 05       		.byte	0x5
 2664 0dab 03       		.byte	0x3
 2665 0dac 00000000 		.4byte	adc_lld_serve_rx_interrupt
 2666 0db0 1E       		.uleb128 0x1e
ARM GAS  C:\Users\DNIEL~1\AppData\Local\Temp\ccSb8sbz.s 			page 48


 2667 0db1 01       		.byte	0x1
 2668 0db2 51       		.byte	0x51
 2669 0db3 01       		.byte	0x1
 2670 0db4 36       		.byte	0x36
 2671 0db5 00       		.byte	0
 2672 0db6 00       		.byte	0
 2673 0db7 00       		.byte	0
 2674 0db8 24       		.uleb128 0x24
 2675 0db9 01       		.byte	0x1
 2676 0dba 17020000 		.4byte	.LASF241
 2677 0dbe 01       		.byte	0x1
 2678 0dbf 2201     		.2byte	0x122
 2679 0dc1 01       		.byte	0x1
 2680 0dc2 00000000 		.4byte	.LFB122
 2681 0dc6 38000000 		.4byte	.LFE122
 2682 0dca 5E000000 		.4byte	.LLST3
 2683 0dce 01       		.byte	0x1
 2684 0dcf ED0D0000 		.4byte	0xded
 2685 0dd3 25       		.uleb128 0x25
 2686 0dd4 72060000 		.4byte	.LASF242
 2687 0dd8 01       		.byte	0x1
 2688 0dd9 2201     		.2byte	0x122
 2689 0ddb E20B0000 		.4byte	0xbe2
 2690 0ddf 7E000000 		.4byte	.LLST4
 2691 0de3 26       		.uleb128 0x26
 2692 0de4 12000000 		.4byte	.LVL9
 2693 0de8 BC110000 		.4byte	0x11bc
 2694 0dec 00       		.byte	0
 2695 0ded 24       		.uleb128 0x24
 2696 0dee 01       		.byte	0x1
 2697 0def CB050000 		.4byte	.LASF243
 2698 0df3 01       		.byte	0x1
 2699 0df4 4201     		.2byte	0x142
 2700 0df6 01       		.byte	0x1
 2701 0df7 00000000 		.4byte	.LFB123
 2702 0dfb 80000000 		.4byte	.LFE123
 2703 0dff B2000000 		.4byte	.LLST5
 2704 0e03 01       		.byte	0x1
 2705 0e04 390E0000 		.4byte	0xe39
 2706 0e08 25       		.uleb128 0x25
 2707 0e09 72060000 		.4byte	.LASF242
 2708 0e0d 01       		.byte	0x1
 2709 0e0e 4201     		.2byte	0x142
 2710 0e10 E20B0000 		.4byte	0xbe2
 2711 0e14 D2000000 		.4byte	.LLST6
 2712 0e18 27       		.uleb128 0x27
 2713 0e19 4C0A0000 		.4byte	.LASF244
 2714 0e1d 01       		.byte	0x1
 2715 0e1e 4301     		.2byte	0x143
 2716 0e20 86000000 		.4byte	0x86
 2717 0e24 F3000000 		.4byte	.LLST7
 2718 0e28 27       		.uleb128 0x27
 2719 0e29 0A0A0000 		.4byte	.LASF220
 2720 0e2d 01       		.byte	0x1
 2721 0e2e 4401     		.2byte	0x144
 2722 0e30 FC0C0000 		.4byte	0xcfc
 2723 0e34 23010000 		.4byte	.LLST8
ARM GAS  C:\Users\DNIEL~1\AppData\Local\Temp\ccSb8sbz.s 			page 49


 2724 0e38 00       		.byte	0
 2725 0e39 24       		.uleb128 0x24
 2726 0e3a 01       		.byte	0x1
 2727 0e3b AD070000 		.4byte	.LASF245
 2728 0e3f 01       		.byte	0x1
 2729 0e40 7001     		.2byte	0x170
 2730 0e42 01       		.byte	0x1
 2731 0e43 00000000 		.4byte	.LFB124
 2732 0e47 30000000 		.4byte	.LFE124
 2733 0e4b 51010000 		.4byte	.LLST9
 2734 0e4f 01       		.byte	0x1
 2735 0e50 650E0000 		.4byte	0xe65
 2736 0e54 25       		.uleb128 0x25
 2737 0e55 72060000 		.4byte	.LASF242
 2738 0e59 01       		.byte	0x1
 2739 0e5a 7001     		.2byte	0x170
 2740 0e5c E20B0000 		.4byte	0xbe2
 2741 0e60 71010000 		.4byte	.LLST10
 2742 0e64 00       		.byte	0
 2743 0e65 28       		.uleb128 0x28
 2744 0e66 3C0B0000 		.4byte	.LASF266
 2745 0e6a 01       		.byte	0x1
 2746 0e6b 50       		.byte	0x50
 2747 0e6c 01       		.byte	0x1
 2748 0e6d 00000000 		.4byte	.LFB118
 2749 0e71 F0000000 		.4byte	.LFE118
 2750 0e75 92010000 		.4byte	.LLST11
 2751 0e79 01       		.byte	0x1
 2752 0e7a 0F100000 		.4byte	0x100f
 2753 0e7e 20       		.uleb128 0x20
 2754 0e7f 72060000 		.4byte	.LASF242
 2755 0e83 01       		.byte	0x1
 2756 0e84 50       		.byte	0x50
 2757 0e85 E20B0000 		.4byte	0xbe2
 2758 0e89 B2010000 		.4byte	.LLST12
 2759 0e8d 20       		.uleb128 0x20
 2760 0e8e AA030000 		.4byte	.LASF246
 2761 0e92 01       		.byte	0x1
 2762 0e93 50       		.byte	0x50
 2763 0e94 86000000 		.4byte	0x86
 2764 0e98 E6010000 		.4byte	.LLST13
 2765 0e9c 29       		.uleb128 0x29
 2766 0e9d 3A000000 		.4byte	.LBB3
 2767 0ea1 4E000000 		.4byte	.LBE3
 2768 0ea5 D70E0000 		.4byte	0xed7
 2769 0ea9 2A       		.uleb128 0x2a
 2770 0eaa 67090000 		.4byte	.LASF247
 2771 0eae 01       		.byte	0x1
 2772 0eaf 62       		.byte	0x62
 2773 0eb0 30000000 		.4byte	0x30
 2774 0eb4 5A020000 		.4byte	.LLST14
 2775 0eb8 2A       		.uleb128 0x2a
 2776 0eb9 0B090000 		.4byte	.LASF248
 2777 0ebd 01       		.byte	0x1
 2778 0ebe 62       		.byte	0x62
 2779 0ebf 30000000 		.4byte	0x30
 2780 0ec3 6D020000 		.4byte	.LLST15
ARM GAS  C:\Users\DNIEL~1\AppData\Local\Temp\ccSb8sbz.s 			page 50


 2781 0ec7 2B       		.uleb128 0x2b
 2782 0ec8 4C000000 		.4byte	.LVL26
 2783 0ecc 02       		.byte	0x2
 2784 0ecd 75       		.byte	0x75
 2785 0ece 00       		.sleb128 0
 2786 0ecf 1E       		.uleb128 0x1e
 2787 0ed0 01       		.byte	0x1
 2788 0ed1 50       		.byte	0x50
 2789 0ed2 02       		.byte	0x2
 2790 0ed3 74       		.byte	0x74
 2791 0ed4 00       		.sleb128 0
 2792 0ed5 00       		.byte	0
 2793 0ed6 00       		.byte	0
 2794 0ed7 29       		.uleb128 0x29
 2795 0ed8 70000000 		.4byte	.LBB4
 2796 0edc 76000000 		.4byte	.LBE4
 2797 0ee0 F40E0000 		.4byte	0xef4
 2798 0ee4 2C       		.uleb128 0x2c
 2799 0ee5 746D7000 		.ascii	"tmp\000"
 2800 0ee9 01       		.byte	0x1
 2801 0eea 56       		.byte	0x56
 2802 0eeb 86000000 		.4byte	0x86
 2803 0eef 8E020000 		.4byte	.LLST16
 2804 0ef3 00       		.byte	0
 2805 0ef4 29       		.uleb128 0x29
 2806 0ef5 7A000000 		.4byte	.LBB5
 2807 0ef9 88000000 		.4byte	.LBE5
 2808 0efd 190F0000 		.4byte	0xf19
 2809 0f01 2C       		.uleb128 0x2c
 2810 0f02 747000   		.ascii	"tp\000"
 2811 0f05 01       		.byte	0x1
 2812 0f06 56       		.byte	0x56
 2813 0f07 5E020000 		.4byte	0x25e
 2814 0f0b A1020000 		.4byte	.LLST17
 2815 0f0f 26       		.uleb128 0x26
 2816 0f10 88000000 		.4byte	.LVL34
 2817 0f14 D1110000 		.4byte	0x11d1
 2818 0f18 00       		.byte	0
 2819 0f19 29       		.uleb128 0x29
 2820 0f1a 88000000 		.4byte	.LBB6
 2821 0f1e 90000000 		.4byte	.LBE6
 2822 0f22 360F0000 		.4byte	0xf36
 2823 0f26 2C       		.uleb128 0x2c
 2824 0f27 746D7000 		.ascii	"tmp\000"
 2825 0f2b 01       		.byte	0x1
 2826 0f2c 62       		.byte	0x62
 2827 0f2d 86000000 		.4byte	0x86
 2828 0f31 B4020000 		.4byte	.LLST18
 2829 0f35 00       		.byte	0
 2830 0f36 29       		.uleb128 0x29
 2831 0f37 AE000000 		.4byte	.LBB7
 2832 0f3b C0000000 		.4byte	.LBE7
 2833 0f3f 6E0F0000 		.4byte	0xf6e
 2834 0f43 2A       		.uleb128 0x2a
 2835 0f44 67090000 		.4byte	.LASF247
 2836 0f48 01       		.byte	0x1
 2837 0f49 62       		.byte	0x62
ARM GAS  C:\Users\DNIEL~1\AppData\Local\Temp\ccSb8sbz.s 			page 51


 2838 0f4a 30000000 		.4byte	0x30
 2839 0f4e C7020000 		.4byte	.LLST19
 2840 0f52 2A       		.uleb128 0x2a
 2841 0f53 0B090000 		.4byte	.LASF248
 2842 0f57 01       		.byte	0x1
 2843 0f58 62       		.byte	0x62
 2844 0f59 30000000 		.4byte	0x30
 2845 0f5d DA020000 		.4byte	.LLST20
 2846 0f61 2D       		.uleb128 0x2d
 2847 0f62 C0000000 		.4byte	.LVL43
 2848 0f66 1E       		.uleb128 0x1e
 2849 0f67 01       		.byte	0x1
 2850 0f68 50       		.byte	0x50
 2851 0f69 02       		.byte	0x2
 2852 0f6a 74       		.byte	0x74
 2853 0f6b 00       		.sleb128 0
 2854 0f6c 00       		.byte	0
 2855 0f6d 00       		.byte	0
 2856 0f6e 29       		.uleb128 0x29
 2857 0f6f CA000000 		.4byte	.LBB8
 2858 0f73 D0000000 		.4byte	.LBE8
 2859 0f77 8B0F0000 		.4byte	0xf8b
 2860 0f7b 2C       		.uleb128 0x2c
 2861 0f7c 746D7000 		.ascii	"tmp\000"
 2862 0f80 01       		.byte	0x1
 2863 0f81 62       		.byte	0x62
 2864 0f82 86000000 		.4byte	0x86
 2865 0f86 FB020000 		.4byte	.LLST21
 2866 0f8a 00       		.byte	0
 2867 0f8b 29       		.uleb128 0x29
 2868 0f8c D6000000 		.4byte	.LBB9
 2869 0f90 E2000000 		.4byte	.LBE9
 2870 0f94 B00F0000 		.4byte	0xfb0
 2871 0f98 2C       		.uleb128 0x2c
 2872 0f99 747000   		.ascii	"tp\000"
 2873 0f9c 01       		.byte	0x1
 2874 0f9d 62       		.byte	0x62
 2875 0f9e 5E020000 		.4byte	0x25e
 2876 0fa2 19030000 		.4byte	.LLST22
 2877 0fa6 26       		.uleb128 0x26
 2878 0fa7 E0000000 		.4byte	.LVL46
 2879 0fab D1110000 		.4byte	0x11d1
 2880 0faf 00       		.byte	0
 2881 0fb0 2E       		.uleb128 0x2e
 2882 0fb1 22000000 		.4byte	.LVL23
 2883 0fb5 C00F0000 		.4byte	0xfc0
 2884 0fb9 1E       		.uleb128 0x1e
 2885 0fba 01       		.byte	0x1
 2886 0fbb 50       		.byte	0x50
 2887 0fbc 02       		.byte	0x2
 2888 0fbd 74       		.byte	0x74
 2889 0fbe 00       		.sleb128 0
 2890 0fbf 00       		.byte	0
 2891 0fc0 26       		.uleb128 0x26
 2892 0fc1 52000000 		.4byte	.LVL28
 2893 0fc5 390E0000 		.4byte	0xe39
 2894 0fc9 2E       		.uleb128 0x2e
ARM GAS  C:\Users\DNIEL~1\AppData\Local\Temp\ccSb8sbz.s 			page 52


 2895 0fca 62000000 		.4byte	.LVL29
 2896 0fce DE0F0000 		.4byte	0xfde
 2897 0fd2 1E       		.uleb128 0x1e
 2898 0fd3 01       		.byte	0x1
 2899 0fd4 51       		.byte	0x51
 2900 0fd5 01       		.byte	0x1
 2901 0fd6 30       		.byte	0x30
 2902 0fd7 1E       		.uleb128 0x1e
 2903 0fd8 01       		.byte	0x1
 2904 0fd9 50       		.byte	0x50
 2905 0fda 02       		.byte	0x2
 2906 0fdb 74       		.byte	0x74
 2907 0fdc 00       		.sleb128 0
 2908 0fdd 00       		.byte	0
 2909 0fde 2E       		.uleb128 0x2e
 2910 0fdf 96000000 		.4byte	.LVL38
 2911 0fe3 EE0F0000 		.4byte	0xfee
 2912 0fe7 1E       		.uleb128 0x1e
 2913 0fe8 01       		.byte	0x1
 2914 0fe9 50       		.byte	0x50
 2915 0fea 02       		.byte	0x2
 2916 0feb 74       		.byte	0x74
 2917 0fec 00       		.sleb128 0
 2918 0fed 00       		.byte	0
 2919 0fee 1D       		.uleb128 0x1d
 2920 0fef 9E000000 		.4byte	.LVL40
 2921 0ff3 390E0000 		.4byte	0xe39
 2922 0ff7 02100000 		.4byte	0x1002
 2923 0ffb 1E       		.uleb128 0x1e
 2924 0ffc 01       		.byte	0x1
 2925 0ffd 50       		.byte	0x50
 2926 0ffe 02       		.byte	0x2
 2927 0fff 74       		.byte	0x74
 2928 1000 00       		.sleb128 0
 2929 1001 00       		.byte	0
 2930 1002 2D       		.uleb128 0x2d
 2931 1003 EE000000 		.4byte	.LVL48
 2932 1007 1E       		.uleb128 0x1e
 2933 1008 01       		.byte	0x1
 2934 1009 50       		.byte	0x50
 2935 100a 02       		.byte	0x2
 2936 100b 74       		.byte	0x74
 2937 100c 00       		.sleb128 0
 2938 100d 00       		.byte	0
 2939 100e 00       		.byte	0
 2940 100f 1C       		.uleb128 0x1c
 2941 1010 01       		.byte	0x1
 2942 1011 E3010000 		.4byte	.LASF249
 2943 1015 01       		.byte	0x1
 2944 1016 73       		.byte	0x73
 2945 1017 01       		.byte	0x1
 2946 1018 00000000 		.4byte	.LFB119
 2947 101c 74000000 		.4byte	.LFE119
 2948 1020 2C030000 		.4byte	.LLST23
 2949 1024 01       		.byte	0x1
 2950 1025 CA100000 		.4byte	0x10ca
 2951 1029 2C       		.uleb128 0x2c
ARM GAS  C:\Users\DNIEL~1\AppData\Local\Temp\ccSb8sbz.s 			page 53


 2952 102a 737200   		.ascii	"sr\000"
 2953 102d 01       		.byte	0x1
 2954 102e 74       		.byte	0x74
 2955 102f 86000000 		.4byte	0x86
 2956 1033 4C030000 		.4byte	.LLST24
 2957 1037 29       		.uleb128 0x29
 2958 1038 42000000 		.4byte	.LBB10
 2959 103c 48000000 		.4byte	.LBE10
 2960 1040 54100000 		.4byte	0x1054
 2961 1044 2C       		.uleb128 0x2c
 2962 1045 746D7000 		.ascii	"tmp\000"
 2963 1049 01       		.byte	0x1
 2964 104a 8F       		.byte	0x8f
 2965 104b 86000000 		.4byte	0x86
 2966 104f 5F030000 		.4byte	.LLST25
 2967 1053 00       		.byte	0
 2968 1054 29       		.uleb128 0x29
 2969 1055 4C000000 		.4byte	.LBB11
 2970 1059 5A000000 		.4byte	.LBE11
 2971 105d 79100000 		.4byte	0x1079
 2972 1061 2C       		.uleb128 0x2c
 2973 1062 747000   		.ascii	"tp\000"
 2974 1065 01       		.byte	0x1
 2975 1066 8F       		.byte	0x8f
 2976 1067 5E020000 		.4byte	0x25e
 2977 106b 7D030000 		.4byte	.LLST26
 2978 106f 26       		.uleb128 0x26
 2979 1070 5A000000 		.4byte	.LVL57
 2980 1074 D1110000 		.4byte	0x11d1
 2981 1078 00       		.byte	0
 2982 1079 29       		.uleb128 0x29
 2983 107a 5A000000 		.4byte	.LBB12
 2984 107e 60000000 		.4byte	.LBE12
 2985 1082 96100000 		.4byte	0x1096
 2986 1086 2C       		.uleb128 0x2c
 2987 1087 746D7000 		.ascii	"tmp\000"
 2988 108b 01       		.byte	0x1
 2989 108c 8F       		.byte	0x8f
 2990 108d 86000000 		.4byte	0x86
 2991 1091 90030000 		.4byte	.LLST27
 2992 1095 00       		.byte	0
 2993 1096 1D       		.uleb128 0x1d
 2994 1097 28000000 		.4byte	.LVL51
 2995 109b 390E0000 		.4byte	0xe39
 2996 109f AA100000 		.4byte	0x10aa
 2997 10a3 1E       		.uleb128 0x1e
 2998 10a4 01       		.byte	0x1
 2999 10a5 50       		.byte	0x50
 3000 10a6 02       		.byte	0x2
 3001 10a7 74       		.byte	0x74
 3002 10a8 00       		.sleb128 0
 3003 10a9 00       		.byte	0
 3004 10aa 2E       		.uleb128 0x2e
 3005 10ab 38000000 		.4byte	.LVL52
 3006 10af BF100000 		.4byte	0x10bf
 3007 10b3 1E       		.uleb128 0x1e
 3008 10b4 01       		.byte	0x1
ARM GAS  C:\Users\DNIEL~1\AppData\Local\Temp\ccSb8sbz.s 			page 54


 3009 10b5 51       		.byte	0x51
 3010 10b6 01       		.byte	0x1
 3011 10b7 31       		.byte	0x31
 3012 10b8 1E       		.uleb128 0x1e
 3013 10b9 01       		.byte	0x1
 3014 10ba 50       		.byte	0x50
 3015 10bb 02       		.byte	0x2
 3016 10bc 74       		.byte	0x74
 3017 10bd 00       		.sleb128 0
 3018 10be 00       		.byte	0
 3019 10bf 2F       		.uleb128 0x2f
 3020 10c0 68000000 		.4byte	.LVL60
 3021 10c4 01       		.byte	0x1
 3022 10c5 E9110000 		.4byte	0x11e9
 3023 10c9 00       		.byte	0
 3024 10ca 30       		.uleb128 0x30
 3025 10cb 01       		.byte	0x1
 3026 10cc 4F020000 		.4byte	.LASF250
 3027 10d0 01       		.byte	0x1
 3028 10d1 7E01     		.2byte	0x17e
 3029 10d3 01       		.byte	0x1
 3030 10d4 00000000 		.4byte	.LFB125
 3031 10d8 12000000 		.4byte	.LFE125
 3032 10dc 02       		.byte	0x2
 3033 10dd 7D       		.byte	0x7d
 3034 10de 00       		.sleb128 0
 3035 10df 01       		.byte	0x1
 3036 10e0 30       		.uleb128 0x30
 3037 10e1 01       		.byte	0x1
 3038 10e2 FE0B0000 		.4byte	.LASF251
 3039 10e6 01       		.byte	0x1
 3040 10e7 8901     		.2byte	0x189
 3041 10e9 01       		.byte	0x1
 3042 10ea 00000000 		.4byte	.LFB126
 3043 10ee 12000000 		.4byte	.LFE126
 3044 10f2 02       		.byte	0x2
 3045 10f3 7D       		.byte	0x7d
 3046 10f4 00       		.sleb128 0
 3047 10f5 01       		.byte	0x1
 3048 10f6 30       		.uleb128 0x30
 3049 10f7 01       		.byte	0x1
 3050 10f8 76090000 		.4byte	.LASF252
 3051 10fc 01       		.byte	0x1
 3052 10fd 9301     		.2byte	0x193
 3053 10ff 01       		.byte	0x1
 3054 1100 00000000 		.4byte	.LFB127
 3055 1104 12000000 		.4byte	.LFE127
 3056 1108 02       		.byte	0x2
 3057 1109 7D       		.byte	0x7d
 3058 110a 00       		.sleb128 0
 3059 110b 01       		.byte	0x1
 3060 110c 30       		.uleb128 0x30
 3061 110d 01       		.byte	0x1
 3062 110e 16010000 		.4byte	.LASF253
 3063 1112 01       		.byte	0x1
 3064 1113 9D01     		.2byte	0x19d
 3065 1115 01       		.byte	0x1
ARM GAS  C:\Users\DNIEL~1\AppData\Local\Temp\ccSb8sbz.s 			page 55


 3066 1116 00000000 		.4byte	.LFB128
 3067 111a 12000000 		.4byte	.LFE128
 3068 111e 02       		.byte	0x2
 3069 111f 7D       		.byte	0x7d
 3070 1120 00       		.sleb128 0
 3071 1121 01       		.byte	0x1
 3072 1122 31       		.uleb128 0x31
 3073 1123 BE0A0000 		.4byte	.LASF254
 3074 1127 0D       		.byte	0xd
 3075 1128 9806     		.2byte	0x698
 3076 112a 40060000 		.4byte	0x640
 3077 112e 01       		.byte	0x1
 3078 112f 01       		.byte	0x1
 3079 1130 13       		.uleb128 0x13
 3080 1131 6B0A0000 		.4byte	0xa6b
 3081 1135 40110000 		.4byte	0x1140
 3082 1139 14       		.uleb128 0x14
 3083 113a 54030000 		.4byte	0x354
 3084 113e 0F       		.byte	0xf
 3085 113f 00       		.byte	0
 3086 1140 31       		.uleb128 0x31
 3087 1141 4E050000 		.4byte	.LASF255
 3088 1145 0A       		.byte	0xa
 3089 1146 BB01     		.2byte	0x1bb
 3090 1148 4E110000 		.4byte	0x114e
 3091 114c 01       		.byte	0x1
 3092 114d 01       		.byte	0x1
 3093 114e 10       		.uleb128 0x10
 3094 114f 30110000 		.4byte	0x1130
 3095 1153 32       		.uleb128 0x32
 3096 1154 6C070000 		.4byte	.LASF256
 3097 1158 01       		.byte	0x1
 3098 1159 3A       		.byte	0x3a
 3099 115a 0A0B0000 		.4byte	0xb0a
 3100 115e 01       		.byte	0x1
 3101 115f 05       		.byte	0x5
 3102 1160 03       		.byte	0x3
 3103 1161 00000000 		.4byte	ADCD2
 3104 1165 33       		.uleb128 0x33
 3105 1166 01       		.byte	0x1
 3106 1167 820A0000 		.4byte	.LASF257
 3107 116b 0B       		.byte	0xb
 3108 116c 1B01     		.2byte	0x11b
 3109 116e 01       		.byte	0x1
 3110 116f 01       		.byte	0x1
 3111 1170 7A110000 		.4byte	0x117a
 3112 1174 19       		.uleb128 0x19
 3113 1175 E20B0000 		.4byte	0xbe2
 3114 1179 00       		.byte	0
 3115 117a 33       		.uleb128 0x33
 3116 117b 01       		.byte	0x1
 3117 117c FA0A0000 		.4byte	.LASF258
 3118 1180 0E       		.byte	0xe
 3119 1181 1C01     		.2byte	0x11c
 3120 1183 01       		.byte	0x1
 3121 1184 01       		.byte	0x1
 3122 1185 94110000 		.4byte	0x1194
ARM GAS  C:\Users\DNIEL~1\AppData\Local\Temp\ccSb8sbz.s 			page 56


 3123 1189 19       		.uleb128 0x19
 3124 118a 86000000 		.4byte	0x86
 3125 118e 19       		.uleb128 0x19
 3126 118f 86000000 		.4byte	0x86
 3127 1193 00       		.byte	0
 3128 1194 34       		.uleb128 0x34
 3129 1195 01       		.byte	0x1
 3130 1196 DB030000 		.4byte	.LASF260
 3131 119a 0A       		.byte	0xa
 3132 119b C201     		.2byte	0x1c2
 3133 119d 01       		.byte	0x1
 3134 119e A6000000 		.4byte	0xa6
 3135 11a2 01       		.byte	0x1
 3136 11a3 BC110000 		.4byte	0x11bc
 3137 11a7 19       		.uleb128 0x19
 3138 11a8 0D0D0000 		.4byte	0xd0d
 3139 11ac 19       		.uleb128 0x19
 3140 11ad 86000000 		.4byte	0x86
 3141 11b1 19       		.uleb128 0x19
 3142 11b2 760A0000 		.4byte	0xa76
 3143 11b6 19       		.uleb128 0x19
 3144 11b7 9C020000 		.4byte	0x29c
 3145 11bb 00       		.byte	0
 3146 11bc 33       		.uleb128 0x33
 3147 11bd 01       		.byte	0x1
 3148 11be 9E000000 		.4byte	.LASF259
 3149 11c2 0A       		.byte	0xa
 3150 11c3 C601     		.2byte	0x1c6
 3151 11c5 01       		.byte	0x1
 3152 11c6 01       		.byte	0x1
 3153 11c7 D1110000 		.4byte	0x11d1
 3154 11cb 19       		.uleb128 0x19
 3155 11cc 0D0D0000 		.4byte	0xd0d
 3156 11d0 00       		.byte	0
 3157 11d1 35       		.uleb128 0x35
 3158 11d2 01       		.byte	0x1
 3159 11d3 C2000000 		.4byte	.LASF261
 3160 11d7 0F       		.byte	0xf
 3161 11d8 89       		.byte	0x89
 3162 11d9 01       		.byte	0x1
 3163 11da 5E020000 		.4byte	0x25e
 3164 11de 01       		.byte	0x1
 3165 11df E9110000 		.4byte	0x11e9
 3166 11e3 19       		.uleb128 0x19
 3167 11e4 5E020000 		.4byte	0x25e
 3168 11e8 00       		.byte	0
 3169 11e9 36       		.uleb128 0x36
 3170 11ea 01       		.byte	0x1
 3171 11eb 4D070000 		.4byte	.LASF267
 3172 11ef 07       		.byte	0x7
 3173 11f0 FC01     		.2byte	0x1fc
 3174 11f2 01       		.byte	0x1
 3175 11f3 01       		.byte	0x1
 3176 11f4 00       		.byte	0
 3177              		.section	.debug_abbrev,"",%progbits
 3178              	.Ldebug_abbrev0:
 3179 0000 01       		.uleb128 0x1
ARM GAS  C:\Users\DNIEL~1\AppData\Local\Temp\ccSb8sbz.s 			page 57


 3180 0001 11       		.uleb128 0x11
 3181 0002 01       		.byte	0x1
 3182 0003 25       		.uleb128 0x25
 3183 0004 0E       		.uleb128 0xe
 3184 0005 13       		.uleb128 0x13
 3185 0006 0B       		.uleb128 0xb
 3186 0007 03       		.uleb128 0x3
 3187 0008 0E       		.uleb128 0xe
 3188 0009 1B       		.uleb128 0x1b
 3189 000a 0E       		.uleb128 0xe
 3190 000b 55       		.uleb128 0x55
 3191 000c 06       		.uleb128 0x6
 3192 000d 11       		.uleb128 0x11
 3193 000e 01       		.uleb128 0x1
 3194 000f 52       		.uleb128 0x52
 3195 0010 01       		.uleb128 0x1
 3196 0011 10       		.uleb128 0x10
 3197 0012 06       		.uleb128 0x6
 3198 0013 00       		.byte	0
 3199 0014 00       		.byte	0
 3200 0015 02       		.uleb128 0x2
 3201 0016 24       		.uleb128 0x24
 3202 0017 00       		.byte	0
 3203 0018 0B       		.uleb128 0xb
 3204 0019 0B       		.uleb128 0xb
 3205 001a 3E       		.uleb128 0x3e
 3206 001b 0B       		.uleb128 0xb
 3207 001c 03       		.uleb128 0x3
 3208 001d 08       		.uleb128 0x8
 3209 001e 00       		.byte	0
 3210 001f 00       		.byte	0
 3211 0020 03       		.uleb128 0x3
 3212 0021 16       		.uleb128 0x16
 3213 0022 00       		.byte	0
 3214 0023 03       		.uleb128 0x3
 3215 0024 0E       		.uleb128 0xe
 3216 0025 3A       		.uleb128 0x3a
 3217 0026 0B       		.uleb128 0xb
 3218 0027 3B       		.uleb128 0x3b
 3219 0028 0B       		.uleb128 0xb
 3220 0029 49       		.uleb128 0x49
 3221 002a 13       		.uleb128 0x13
 3222 002b 00       		.byte	0
 3223 002c 00       		.byte	0
 3224 002d 04       		.uleb128 0x4
 3225 002e 24       		.uleb128 0x24
 3226 002f 00       		.byte	0
 3227 0030 0B       		.uleb128 0xb
 3228 0031 0B       		.uleb128 0xb
 3229 0032 3E       		.uleb128 0x3e
 3230 0033 0B       		.uleb128 0xb
 3231 0034 03       		.uleb128 0x3
 3232 0035 0E       		.uleb128 0xe
 3233 0036 00       		.byte	0
 3234 0037 00       		.byte	0
 3235 0038 05       		.uleb128 0x5
 3236 0039 13       		.uleb128 0x13
ARM GAS  C:\Users\DNIEL~1\AppData\Local\Temp\ccSb8sbz.s 			page 58


 3237 003a 01       		.byte	0x1
 3238 003b 03       		.uleb128 0x3
 3239 003c 0E       		.uleb128 0xe
 3240 003d 0B       		.uleb128 0xb
 3241 003e 0B       		.uleb128 0xb
 3242 003f 3A       		.uleb128 0x3a
 3243 0040 0B       		.uleb128 0xb
 3244 0041 3B       		.uleb128 0x3b
 3245 0042 0B       		.uleb128 0xb
 3246 0043 01       		.uleb128 0x1
 3247 0044 13       		.uleb128 0x13
 3248 0045 00       		.byte	0
 3249 0046 00       		.byte	0
 3250 0047 06       		.uleb128 0x6
 3251 0048 0D       		.uleb128 0xd
 3252 0049 00       		.byte	0
 3253 004a 03       		.uleb128 0x3
 3254 004b 0E       		.uleb128 0xe
 3255 004c 3A       		.uleb128 0x3a
 3256 004d 0B       		.uleb128 0xb
 3257 004e 3B       		.uleb128 0x3b
 3258 004f 0B       		.uleb128 0xb
 3259 0050 49       		.uleb128 0x49
 3260 0051 13       		.uleb128 0x13
 3261 0052 38       		.uleb128 0x38
 3262 0053 0A       		.uleb128 0xa
 3263 0054 00       		.byte	0
 3264 0055 00       		.byte	0
 3265 0056 07       		.uleb128 0x7
 3266 0057 0D       		.uleb128 0xd
 3267 0058 00       		.byte	0
 3268 0059 03       		.uleb128 0x3
 3269 005a 08       		.uleb128 0x8
 3270 005b 3A       		.uleb128 0x3a
 3271 005c 0B       		.uleb128 0xb
 3272 005d 3B       		.uleb128 0x3b
 3273 005e 0B       		.uleb128 0xb
 3274 005f 49       		.uleb128 0x49
 3275 0060 13       		.uleb128 0x13
 3276 0061 38       		.uleb128 0x38
 3277 0062 0A       		.uleb128 0xa
 3278 0063 00       		.byte	0
 3279 0064 00       		.byte	0
 3280 0065 08       		.uleb128 0x8
 3281 0066 13       		.uleb128 0x13
 3282 0067 01       		.byte	0x1
 3283 0068 0B       		.uleb128 0xb
 3284 0069 0B       		.uleb128 0xb
 3285 006a 3A       		.uleb128 0x3a
 3286 006b 0B       		.uleb128 0xb
 3287 006c 3B       		.uleb128 0x3b
 3288 006d 0B       		.uleb128 0xb
 3289 006e 01       		.uleb128 0x1
 3290 006f 13       		.uleb128 0x13
 3291 0070 00       		.byte	0
 3292 0071 00       		.byte	0
 3293 0072 09       		.uleb128 0x9
ARM GAS  C:\Users\DNIEL~1\AppData\Local\Temp\ccSb8sbz.s 			page 59


 3294 0073 0F       		.uleb128 0xf
 3295 0074 00       		.byte	0
 3296 0075 0B       		.uleb128 0xb
 3297 0076 0B       		.uleb128 0xb
 3298 0077 49       		.uleb128 0x49
 3299 0078 13       		.uleb128 0x13
 3300 0079 00       		.byte	0
 3301 007a 00       		.byte	0
 3302 007b 0A       		.uleb128 0xa
 3303 007c 0F       		.uleb128 0xf
 3304 007d 00       		.byte	0
 3305 007e 0B       		.uleb128 0xb
 3306 007f 0B       		.uleb128 0xb
 3307 0080 00       		.byte	0
 3308 0081 00       		.byte	0
 3309 0082 0B       		.uleb128 0xb
 3310 0083 13       		.uleb128 0x13
 3311 0084 01       		.byte	0x1
 3312 0085 03       		.uleb128 0x3
 3313 0086 0E       		.uleb128 0xe
 3314 0087 0B       		.uleb128 0xb
 3315 0088 0B       		.uleb128 0xb
 3316 0089 3A       		.uleb128 0x3a
 3317 008a 0B       		.uleb128 0xb
 3318 008b 3B       		.uleb128 0x3b
 3319 008c 05       		.uleb128 0x5
 3320 008d 01       		.uleb128 0x1
 3321 008e 13       		.uleb128 0x13
 3322 008f 00       		.byte	0
 3323 0090 00       		.byte	0
 3324 0091 0C       		.uleb128 0xc
 3325 0092 0D       		.uleb128 0xd
 3326 0093 00       		.byte	0
 3327 0094 03       		.uleb128 0x3
 3328 0095 08       		.uleb128 0x8
 3329 0096 3A       		.uleb128 0x3a
 3330 0097 0B       		.uleb128 0xb
 3331 0098 3B       		.uleb128 0x3b
 3332 0099 05       		.uleb128 0x5
 3333 009a 49       		.uleb128 0x49
 3334 009b 13       		.uleb128 0x13
 3335 009c 38       		.uleb128 0x38
 3336 009d 0A       		.uleb128 0xa
 3337 009e 00       		.byte	0
 3338 009f 00       		.byte	0
 3339 00a0 0D       		.uleb128 0xd
 3340 00a1 35       		.uleb128 0x35
 3341 00a2 00       		.byte	0
 3342 00a3 49       		.uleb128 0x49
 3343 00a4 13       		.uleb128 0x13
 3344 00a5 00       		.byte	0
 3345 00a6 00       		.byte	0
 3346 00a7 0E       		.uleb128 0xe
 3347 00a8 17       		.uleb128 0x17
 3348 00a9 01       		.byte	0x1
 3349 00aa 0B       		.uleb128 0xb
 3350 00ab 0B       		.uleb128 0xb
ARM GAS  C:\Users\DNIEL~1\AppData\Local\Temp\ccSb8sbz.s 			page 60


 3351 00ac 3A       		.uleb128 0x3a
 3352 00ad 0B       		.uleb128 0xb
 3353 00ae 3B       		.uleb128 0x3b
 3354 00af 0B       		.uleb128 0xb
 3355 00b0 01       		.uleb128 0x1
 3356 00b1 13       		.uleb128 0x13
 3357 00b2 00       		.byte	0
 3358 00b3 00       		.byte	0
 3359 00b4 0F       		.uleb128 0xf
 3360 00b5 0D       		.uleb128 0xd
 3361 00b6 00       		.byte	0
 3362 00b7 03       		.uleb128 0x3
 3363 00b8 0E       		.uleb128 0xe
 3364 00b9 3A       		.uleb128 0x3a
 3365 00ba 0B       		.uleb128 0xb
 3366 00bb 3B       		.uleb128 0x3b
 3367 00bc 0B       		.uleb128 0xb
 3368 00bd 49       		.uleb128 0x49
 3369 00be 13       		.uleb128 0x13
 3370 00bf 00       		.byte	0
 3371 00c0 00       		.byte	0
 3372 00c1 10       		.uleb128 0x10
 3373 00c2 26       		.uleb128 0x26
 3374 00c3 00       		.byte	0
 3375 00c4 49       		.uleb128 0x49
 3376 00c5 13       		.uleb128 0x13
 3377 00c6 00       		.byte	0
 3378 00c7 00       		.byte	0
 3379 00c8 11       		.uleb128 0x11
 3380 00c9 04       		.uleb128 0x4
 3381 00ca 01       		.byte	0x1
 3382 00cb 03       		.uleb128 0x3
 3383 00cc 0E       		.uleb128 0xe
 3384 00cd 0B       		.uleb128 0xb
 3385 00ce 0B       		.uleb128 0xb
 3386 00cf 3A       		.uleb128 0x3a
 3387 00d0 0B       		.uleb128 0xb
 3388 00d1 3B       		.uleb128 0x3b
 3389 00d2 0B       		.uleb128 0xb
 3390 00d3 01       		.uleb128 0x1
 3391 00d4 13       		.uleb128 0x13
 3392 00d5 00       		.byte	0
 3393 00d6 00       		.byte	0
 3394 00d7 12       		.uleb128 0x12
 3395 00d8 28       		.uleb128 0x28
 3396 00d9 00       		.byte	0
 3397 00da 03       		.uleb128 0x3
 3398 00db 0E       		.uleb128 0xe
 3399 00dc 1C       		.uleb128 0x1c
 3400 00dd 0D       		.uleb128 0xd
 3401 00de 00       		.byte	0
 3402 00df 00       		.byte	0
 3403 00e0 13       		.uleb128 0x13
 3404 00e1 01       		.uleb128 0x1
 3405 00e2 01       		.byte	0x1
 3406 00e3 49       		.uleb128 0x49
 3407 00e4 13       		.uleb128 0x13
ARM GAS  C:\Users\DNIEL~1\AppData\Local\Temp\ccSb8sbz.s 			page 61


 3408 00e5 01       		.uleb128 0x1
 3409 00e6 13       		.uleb128 0x13
 3410 00e7 00       		.byte	0
 3411 00e8 00       		.byte	0
 3412 00e9 14       		.uleb128 0x14
 3413 00ea 21       		.uleb128 0x21
 3414 00eb 00       		.byte	0
 3415 00ec 49       		.uleb128 0x49
 3416 00ed 13       		.uleb128 0x13
 3417 00ee 2F       		.uleb128 0x2f
 3418 00ef 0B       		.uleb128 0xb
 3419 00f0 00       		.byte	0
 3420 00f1 00       		.byte	0
 3421 00f2 15       		.uleb128 0x15
 3422 00f3 13       		.uleb128 0x13
 3423 00f4 01       		.byte	0x1
 3424 00f5 0B       		.uleb128 0xb
 3425 00f6 0B       		.uleb128 0xb
 3426 00f7 3A       		.uleb128 0x3a
 3427 00f8 0B       		.uleb128 0xb
 3428 00f9 3B       		.uleb128 0x3b
 3429 00fa 05       		.uleb128 0x5
 3430 00fb 01       		.uleb128 0x1
 3431 00fc 13       		.uleb128 0x13
 3432 00fd 00       		.byte	0
 3433 00fe 00       		.byte	0
 3434 00ff 16       		.uleb128 0x16
 3435 0100 0D       		.uleb128 0xd
 3436 0101 00       		.byte	0
 3437 0102 03       		.uleb128 0x3
 3438 0103 0E       		.uleb128 0xe
 3439 0104 3A       		.uleb128 0x3a
 3440 0105 0B       		.uleb128 0xb
 3441 0106 3B       		.uleb128 0x3b
 3442 0107 05       		.uleb128 0x5
 3443 0108 49       		.uleb128 0x49
 3444 0109 13       		.uleb128 0x13
 3445 010a 38       		.uleb128 0x38
 3446 010b 0A       		.uleb128 0xa
 3447 010c 00       		.byte	0
 3448 010d 00       		.byte	0
 3449 010e 17       		.uleb128 0x17
 3450 010f 16       		.uleb128 0x16
 3451 0110 00       		.byte	0
 3452 0111 03       		.uleb128 0x3
 3453 0112 0E       		.uleb128 0xe
 3454 0113 3A       		.uleb128 0x3a
 3455 0114 0B       		.uleb128 0xb
 3456 0115 3B       		.uleb128 0x3b
 3457 0116 05       		.uleb128 0x5
 3458 0117 49       		.uleb128 0x49
 3459 0118 13       		.uleb128 0x13
 3460 0119 00       		.byte	0
 3461 011a 00       		.byte	0
 3462 011b 18       		.uleb128 0x18
 3463 011c 15       		.uleb128 0x15
 3464 011d 01       		.byte	0x1
ARM GAS  C:\Users\DNIEL~1\AppData\Local\Temp\ccSb8sbz.s 			page 62


 3465 011e 27       		.uleb128 0x27
 3466 011f 0C       		.uleb128 0xc
 3467 0120 01       		.uleb128 0x1
 3468 0121 13       		.uleb128 0x13
 3469 0122 00       		.byte	0
 3470 0123 00       		.byte	0
 3471 0124 19       		.uleb128 0x19
 3472 0125 05       		.uleb128 0x5
 3473 0126 00       		.byte	0
 3474 0127 49       		.uleb128 0x49
 3475 0128 13       		.uleb128 0x13
 3476 0129 00       		.byte	0
 3477 012a 00       		.byte	0
 3478 012b 1A       		.uleb128 0x1a
 3479 012c 04       		.uleb128 0x4
 3480 012d 01       		.byte	0x1
 3481 012e 0B       		.uleb128 0xb
 3482 012f 0B       		.uleb128 0xb
 3483 0130 3A       		.uleb128 0x3a
 3484 0131 0B       		.uleb128 0xb
 3485 0132 3B       		.uleb128 0x3b
 3486 0133 0B       		.uleb128 0xb
 3487 0134 01       		.uleb128 0x1
 3488 0135 13       		.uleb128 0x13
 3489 0136 00       		.byte	0
 3490 0137 00       		.byte	0
 3491 0138 1B       		.uleb128 0x1b
 3492 0139 04       		.uleb128 0x4
 3493 013a 01       		.byte	0x1
 3494 013b 0B       		.uleb128 0xb
 3495 013c 0B       		.uleb128 0xb
 3496 013d 3A       		.uleb128 0x3a
 3497 013e 0B       		.uleb128 0xb
 3498 013f 3B       		.uleb128 0x3b
 3499 0140 05       		.uleb128 0x5
 3500 0141 01       		.uleb128 0x1
 3501 0142 13       		.uleb128 0x13
 3502 0143 00       		.byte	0
 3503 0144 00       		.byte	0
 3504 0145 1C       		.uleb128 0x1c
 3505 0146 2E       		.uleb128 0x2e
 3506 0147 01       		.byte	0x1
 3507 0148 3F       		.uleb128 0x3f
 3508 0149 0C       		.uleb128 0xc
 3509 014a 03       		.uleb128 0x3
 3510 014b 0E       		.uleb128 0xe
 3511 014c 3A       		.uleb128 0x3a
 3512 014d 0B       		.uleb128 0xb
 3513 014e 3B       		.uleb128 0x3b
 3514 014f 0B       		.uleb128 0xb
 3515 0150 27       		.uleb128 0x27
 3516 0151 0C       		.uleb128 0xc
 3517 0152 11       		.uleb128 0x11
 3518 0153 01       		.uleb128 0x1
 3519 0154 12       		.uleb128 0x12
 3520 0155 01       		.uleb128 0x1
 3521 0156 40       		.uleb128 0x40
ARM GAS  C:\Users\DNIEL~1\AppData\Local\Temp\ccSb8sbz.s 			page 63


 3522 0157 06       		.uleb128 0x6
 3523 0158 9742     		.uleb128 0x2117
 3524 015a 0C       		.uleb128 0xc
 3525 015b 01       		.uleb128 0x1
 3526 015c 13       		.uleb128 0x13
 3527 015d 00       		.byte	0
 3528 015e 00       		.byte	0
 3529 015f 1D       		.uleb128 0x1d
 3530 0160 898201   		.uleb128 0x4109
 3531 0163 01       		.byte	0x1
 3532 0164 11       		.uleb128 0x11
 3533 0165 01       		.uleb128 0x1
 3534 0166 31       		.uleb128 0x31
 3535 0167 13       		.uleb128 0x13
 3536 0168 01       		.uleb128 0x1
 3537 0169 13       		.uleb128 0x13
 3538 016a 00       		.byte	0
 3539 016b 00       		.byte	0
 3540 016c 1E       		.uleb128 0x1e
 3541 016d 8A8201   		.uleb128 0x410a
 3542 0170 00       		.byte	0
 3543 0171 02       		.uleb128 0x2
 3544 0172 0A       		.uleb128 0xa
 3545 0173 9142     		.uleb128 0x2111
 3546 0175 0A       		.uleb128 0xa
 3547 0176 00       		.byte	0
 3548 0177 00       		.byte	0
 3549 0178 1F       		.uleb128 0x1f
 3550 0179 898201   		.uleb128 0x4109
 3551 017c 01       		.byte	0x1
 3552 017d 11       		.uleb128 0x11
 3553 017e 01       		.uleb128 0x1
 3554 017f 9542     		.uleb128 0x2115
 3555 0181 0C       		.uleb128 0xc
 3556 0182 31       		.uleb128 0x31
 3557 0183 13       		.uleb128 0x13
 3558 0184 00       		.byte	0
 3559 0185 00       		.byte	0
 3560 0186 20       		.uleb128 0x20
 3561 0187 05       		.uleb128 0x5
 3562 0188 00       		.byte	0
 3563 0189 03       		.uleb128 0x3
 3564 018a 0E       		.uleb128 0xe
 3565 018b 3A       		.uleb128 0x3a
 3566 018c 0B       		.uleb128 0xb
 3567 018d 3B       		.uleb128 0x3b
 3568 018e 0B       		.uleb128 0xb
 3569 018f 49       		.uleb128 0x49
 3570 0190 13       		.uleb128 0x13
 3571 0191 02       		.uleb128 0x2
 3572 0192 06       		.uleb128 0x6
 3573 0193 00       		.byte	0
 3574 0194 00       		.byte	0
 3575 0195 21       		.uleb128 0x21
 3576 0196 0B       		.uleb128 0xb
 3577 0197 01       		.byte	0x1
 3578 0198 11       		.uleb128 0x11
ARM GAS  C:\Users\DNIEL~1\AppData\Local\Temp\ccSb8sbz.s 			page 64


 3579 0199 01       		.uleb128 0x1
 3580 019a 12       		.uleb128 0x12
 3581 019b 01       		.uleb128 0x1
 3582 019c 00       		.byte	0
 3583 019d 00       		.byte	0
 3584 019e 22       		.uleb128 0x22
 3585 019f 34       		.uleb128 0x34
 3586 01a0 00       		.byte	0
 3587 01a1 03       		.uleb128 0x3
 3588 01a2 08       		.uleb128 0x8
 3589 01a3 3A       		.uleb128 0x3a
 3590 01a4 0B       		.uleb128 0xb
 3591 01a5 3B       		.uleb128 0x3b
 3592 01a6 0B       		.uleb128 0xb
 3593 01a7 49       		.uleb128 0x49
 3594 01a8 13       		.uleb128 0x13
 3595 01a9 00       		.byte	0
 3596 01aa 00       		.byte	0
 3597 01ab 23       		.uleb128 0x23
 3598 01ac 898201   		.uleb128 0x4109
 3599 01af 01       		.byte	0x1
 3600 01b0 11       		.uleb128 0x11
 3601 01b1 01       		.uleb128 0x1
 3602 01b2 31       		.uleb128 0x31
 3603 01b3 13       		.uleb128 0x13
 3604 01b4 00       		.byte	0
 3605 01b5 00       		.byte	0
 3606 01b6 24       		.uleb128 0x24
 3607 01b7 2E       		.uleb128 0x2e
 3608 01b8 01       		.byte	0x1
 3609 01b9 3F       		.uleb128 0x3f
 3610 01ba 0C       		.uleb128 0xc
 3611 01bb 03       		.uleb128 0x3
 3612 01bc 0E       		.uleb128 0xe
 3613 01bd 3A       		.uleb128 0x3a
 3614 01be 0B       		.uleb128 0xb
 3615 01bf 3B       		.uleb128 0x3b
 3616 01c0 05       		.uleb128 0x5
 3617 01c1 27       		.uleb128 0x27
 3618 01c2 0C       		.uleb128 0xc
 3619 01c3 11       		.uleb128 0x11
 3620 01c4 01       		.uleb128 0x1
 3621 01c5 12       		.uleb128 0x12
 3622 01c6 01       		.uleb128 0x1
 3623 01c7 40       		.uleb128 0x40
 3624 01c8 06       		.uleb128 0x6
 3625 01c9 9742     		.uleb128 0x2117
 3626 01cb 0C       		.uleb128 0xc
 3627 01cc 01       		.uleb128 0x1
 3628 01cd 13       		.uleb128 0x13
 3629 01ce 00       		.byte	0
 3630 01cf 00       		.byte	0
 3631 01d0 25       		.uleb128 0x25
 3632 01d1 05       		.uleb128 0x5
 3633 01d2 00       		.byte	0
 3634 01d3 03       		.uleb128 0x3
 3635 01d4 0E       		.uleb128 0xe
ARM GAS  C:\Users\DNIEL~1\AppData\Local\Temp\ccSb8sbz.s 			page 65


 3636 01d5 3A       		.uleb128 0x3a
 3637 01d6 0B       		.uleb128 0xb
 3638 01d7 3B       		.uleb128 0x3b
 3639 01d8 05       		.uleb128 0x5
 3640 01d9 49       		.uleb128 0x49
 3641 01da 13       		.uleb128 0x13
 3642 01db 02       		.uleb128 0x2
 3643 01dc 06       		.uleb128 0x6
 3644 01dd 00       		.byte	0
 3645 01de 00       		.byte	0
 3646 01df 26       		.uleb128 0x26
 3647 01e0 898201   		.uleb128 0x4109
 3648 01e3 00       		.byte	0
 3649 01e4 11       		.uleb128 0x11
 3650 01e5 01       		.uleb128 0x1
 3651 01e6 31       		.uleb128 0x31
 3652 01e7 13       		.uleb128 0x13
 3653 01e8 00       		.byte	0
 3654 01e9 00       		.byte	0
 3655 01ea 27       		.uleb128 0x27
 3656 01eb 34       		.uleb128 0x34
 3657 01ec 00       		.byte	0
 3658 01ed 03       		.uleb128 0x3
 3659 01ee 0E       		.uleb128 0xe
 3660 01ef 3A       		.uleb128 0x3a
 3661 01f0 0B       		.uleb128 0xb
 3662 01f1 3B       		.uleb128 0x3b
 3663 01f2 05       		.uleb128 0x5
 3664 01f3 49       		.uleb128 0x49
 3665 01f4 13       		.uleb128 0x13
 3666 01f5 02       		.uleb128 0x2
 3667 01f6 06       		.uleb128 0x6
 3668 01f7 00       		.byte	0
 3669 01f8 00       		.byte	0
 3670 01f9 28       		.uleb128 0x28
 3671 01fa 2E       		.uleb128 0x2e
 3672 01fb 01       		.byte	0x1
 3673 01fc 03       		.uleb128 0x3
 3674 01fd 0E       		.uleb128 0xe
 3675 01fe 3A       		.uleb128 0x3a
 3676 01ff 0B       		.uleb128 0xb
 3677 0200 3B       		.uleb128 0x3b
 3678 0201 0B       		.uleb128 0xb
 3679 0202 27       		.uleb128 0x27
 3680 0203 0C       		.uleb128 0xc
 3681 0204 11       		.uleb128 0x11
 3682 0205 01       		.uleb128 0x1
 3683 0206 12       		.uleb128 0x12
 3684 0207 01       		.uleb128 0x1
 3685 0208 40       		.uleb128 0x40
 3686 0209 06       		.uleb128 0x6
 3687 020a 9742     		.uleb128 0x2117
 3688 020c 0C       		.uleb128 0xc
 3689 020d 01       		.uleb128 0x1
 3690 020e 13       		.uleb128 0x13
 3691 020f 00       		.byte	0
 3692 0210 00       		.byte	0
ARM GAS  C:\Users\DNIEL~1\AppData\Local\Temp\ccSb8sbz.s 			page 66


 3693 0211 29       		.uleb128 0x29
 3694 0212 0B       		.uleb128 0xb
 3695 0213 01       		.byte	0x1
 3696 0214 11       		.uleb128 0x11
 3697 0215 01       		.uleb128 0x1
 3698 0216 12       		.uleb128 0x12
 3699 0217 01       		.uleb128 0x1
 3700 0218 01       		.uleb128 0x1
 3701 0219 13       		.uleb128 0x13
 3702 021a 00       		.byte	0
 3703 021b 00       		.byte	0
 3704 021c 2A       		.uleb128 0x2a
 3705 021d 34       		.uleb128 0x34
 3706 021e 00       		.byte	0
 3707 021f 03       		.uleb128 0x3
 3708 0220 0E       		.uleb128 0xe
 3709 0221 3A       		.uleb128 0x3a
 3710 0222 0B       		.uleb128 0xb
 3711 0223 3B       		.uleb128 0x3b
 3712 0224 0B       		.uleb128 0xb
 3713 0225 49       		.uleb128 0x49
 3714 0226 13       		.uleb128 0x13
 3715 0227 02       		.uleb128 0x2
 3716 0228 06       		.uleb128 0x6
 3717 0229 00       		.byte	0
 3718 022a 00       		.byte	0
 3719 022b 2B       		.uleb128 0x2b
 3720 022c 898201   		.uleb128 0x4109
 3721 022f 01       		.byte	0x1
 3722 0230 11       		.uleb128 0x11
 3723 0231 01       		.uleb128 0x1
 3724 0232 9342     		.uleb128 0x2113
 3725 0234 0A       		.uleb128 0xa
 3726 0235 00       		.byte	0
 3727 0236 00       		.byte	0
 3728 0237 2C       		.uleb128 0x2c
 3729 0238 34       		.uleb128 0x34
 3730 0239 00       		.byte	0
 3731 023a 03       		.uleb128 0x3
 3732 023b 08       		.uleb128 0x8
 3733 023c 3A       		.uleb128 0x3a
 3734 023d 0B       		.uleb128 0xb
 3735 023e 3B       		.uleb128 0x3b
 3736 023f 0B       		.uleb128 0xb
 3737 0240 49       		.uleb128 0x49
 3738 0241 13       		.uleb128 0x13
 3739 0242 02       		.uleb128 0x2
 3740 0243 06       		.uleb128 0x6
 3741 0244 00       		.byte	0
 3742 0245 00       		.byte	0
 3743 0246 2D       		.uleb128 0x2d
 3744 0247 898201   		.uleb128 0x4109
 3745 024a 01       		.byte	0x1
 3746 024b 11       		.uleb128 0x11
 3747 024c 01       		.uleb128 0x1
 3748 024d 00       		.byte	0
 3749 024e 00       		.byte	0
ARM GAS  C:\Users\DNIEL~1\AppData\Local\Temp\ccSb8sbz.s 			page 67


 3750 024f 2E       		.uleb128 0x2e
 3751 0250 898201   		.uleb128 0x4109
 3752 0253 01       		.byte	0x1
 3753 0254 11       		.uleb128 0x11
 3754 0255 01       		.uleb128 0x1
 3755 0256 01       		.uleb128 0x1
 3756 0257 13       		.uleb128 0x13
 3757 0258 00       		.byte	0
 3758 0259 00       		.byte	0
 3759 025a 2F       		.uleb128 0x2f
 3760 025b 898201   		.uleb128 0x4109
 3761 025e 00       		.byte	0
 3762 025f 11       		.uleb128 0x11
 3763 0260 01       		.uleb128 0x1
 3764 0261 9542     		.uleb128 0x2115
 3765 0263 0C       		.uleb128 0xc
 3766 0264 31       		.uleb128 0x31
 3767 0265 13       		.uleb128 0x13
 3768 0266 00       		.byte	0
 3769 0267 00       		.byte	0
 3770 0268 30       		.uleb128 0x30
 3771 0269 2E       		.uleb128 0x2e
 3772 026a 00       		.byte	0
 3773 026b 3F       		.uleb128 0x3f
 3774 026c 0C       		.uleb128 0xc
 3775 026d 03       		.uleb128 0x3
 3776 026e 0E       		.uleb128 0xe
 3777 026f 3A       		.uleb128 0x3a
 3778 0270 0B       		.uleb128 0xb
 3779 0271 3B       		.uleb128 0x3b
 3780 0272 05       		.uleb128 0x5
 3781 0273 27       		.uleb128 0x27
 3782 0274 0C       		.uleb128 0xc
 3783 0275 11       		.uleb128 0x11
 3784 0276 01       		.uleb128 0x1
 3785 0277 12       		.uleb128 0x12
 3786 0278 01       		.uleb128 0x1
 3787 0279 40       		.uleb128 0x40
 3788 027a 0A       		.uleb128 0xa
 3789 027b 9742     		.uleb128 0x2117
 3790 027d 0C       		.uleb128 0xc
 3791 027e 00       		.byte	0
 3792 027f 00       		.byte	0
 3793 0280 31       		.uleb128 0x31
 3794 0281 34       		.uleb128 0x34
 3795 0282 00       		.byte	0
 3796 0283 03       		.uleb128 0x3
 3797 0284 0E       		.uleb128 0xe
 3798 0285 3A       		.uleb128 0x3a
 3799 0286 0B       		.uleb128 0xb
 3800 0287 3B       		.uleb128 0x3b
 3801 0288 05       		.uleb128 0x5
 3802 0289 49       		.uleb128 0x49
 3803 028a 13       		.uleb128 0x13
 3804 028b 3F       		.uleb128 0x3f
 3805 028c 0C       		.uleb128 0xc
 3806 028d 3C       		.uleb128 0x3c
ARM GAS  C:\Users\DNIEL~1\AppData\Local\Temp\ccSb8sbz.s 			page 68


 3807 028e 0C       		.uleb128 0xc
 3808 028f 00       		.byte	0
 3809 0290 00       		.byte	0
 3810 0291 32       		.uleb128 0x32
 3811 0292 34       		.uleb128 0x34
 3812 0293 00       		.byte	0
 3813 0294 03       		.uleb128 0x3
 3814 0295 0E       		.uleb128 0xe
 3815 0296 3A       		.uleb128 0x3a
 3816 0297 0B       		.uleb128 0xb
 3817 0298 3B       		.uleb128 0x3b
 3818 0299 0B       		.uleb128 0xb
 3819 029a 49       		.uleb128 0x49
 3820 029b 13       		.uleb128 0x13
 3821 029c 3F       		.uleb128 0x3f
 3822 029d 0C       		.uleb128 0xc
 3823 029e 02       		.uleb128 0x2
 3824 029f 0A       		.uleb128 0xa
 3825 02a0 00       		.byte	0
 3826 02a1 00       		.byte	0
 3827 02a2 33       		.uleb128 0x33
 3828 02a3 2E       		.uleb128 0x2e
 3829 02a4 01       		.byte	0x1
 3830 02a5 3F       		.uleb128 0x3f
 3831 02a6 0C       		.uleb128 0xc
 3832 02a7 03       		.uleb128 0x3
 3833 02a8 0E       		.uleb128 0xe
 3834 02a9 3A       		.uleb128 0x3a
 3835 02aa 0B       		.uleb128 0xb
 3836 02ab 3B       		.uleb128 0x3b
 3837 02ac 05       		.uleb128 0x5
 3838 02ad 27       		.uleb128 0x27
 3839 02ae 0C       		.uleb128 0xc
 3840 02af 3C       		.uleb128 0x3c
 3841 02b0 0C       		.uleb128 0xc
 3842 02b1 01       		.uleb128 0x1
 3843 02b2 13       		.uleb128 0x13
 3844 02b3 00       		.byte	0
 3845 02b4 00       		.byte	0
 3846 02b5 34       		.uleb128 0x34
 3847 02b6 2E       		.uleb128 0x2e
 3848 02b7 01       		.byte	0x1
 3849 02b8 3F       		.uleb128 0x3f
 3850 02b9 0C       		.uleb128 0xc
 3851 02ba 03       		.uleb128 0x3
 3852 02bb 0E       		.uleb128 0xe
 3853 02bc 3A       		.uleb128 0x3a
 3854 02bd 0B       		.uleb128 0xb
 3855 02be 3B       		.uleb128 0x3b
 3856 02bf 05       		.uleb128 0x5
 3857 02c0 27       		.uleb128 0x27
 3858 02c1 0C       		.uleb128 0xc
 3859 02c2 49       		.uleb128 0x49
 3860 02c3 13       		.uleb128 0x13
 3861 02c4 3C       		.uleb128 0x3c
 3862 02c5 0C       		.uleb128 0xc
 3863 02c6 01       		.uleb128 0x1
ARM GAS  C:\Users\DNIEL~1\AppData\Local\Temp\ccSb8sbz.s 			page 69


 3864 02c7 13       		.uleb128 0x13
 3865 02c8 00       		.byte	0
 3866 02c9 00       		.byte	0
 3867 02ca 35       		.uleb128 0x35
 3868 02cb 2E       		.uleb128 0x2e
 3869 02cc 01       		.byte	0x1
 3870 02cd 3F       		.uleb128 0x3f
 3871 02ce 0C       		.uleb128 0xc
 3872 02cf 03       		.uleb128 0x3
 3873 02d0 0E       		.uleb128 0xe
 3874 02d1 3A       		.uleb128 0x3a
 3875 02d2 0B       		.uleb128 0xb
 3876 02d3 3B       		.uleb128 0x3b
 3877 02d4 0B       		.uleb128 0xb
 3878 02d5 27       		.uleb128 0x27
 3879 02d6 0C       		.uleb128 0xc
 3880 02d7 49       		.uleb128 0x49
 3881 02d8 13       		.uleb128 0x13
 3882 02d9 3C       		.uleb128 0x3c
 3883 02da 0C       		.uleb128 0xc
 3884 02db 01       		.uleb128 0x1
 3885 02dc 13       		.uleb128 0x13
 3886 02dd 00       		.byte	0
 3887 02de 00       		.byte	0
 3888 02df 36       		.uleb128 0x36
 3889 02e0 2E       		.uleb128 0x2e
 3890 02e1 00       		.byte	0
 3891 02e2 3F       		.uleb128 0x3f
 3892 02e3 0C       		.uleb128 0xc
 3893 02e4 03       		.uleb128 0x3
 3894 02e5 0E       		.uleb128 0xe
 3895 02e6 3A       		.uleb128 0x3a
 3896 02e7 0B       		.uleb128 0xb
 3897 02e8 3B       		.uleb128 0x3b
 3898 02e9 05       		.uleb128 0x5
 3899 02ea 27       		.uleb128 0x27
 3900 02eb 0C       		.uleb128 0xc
 3901 02ec 3C       		.uleb128 0x3c
 3902 02ed 0C       		.uleb128 0xc
 3903 02ee 00       		.byte	0
 3904 02ef 00       		.byte	0
 3905 02f0 00       		.byte	0
 3906              		.section	.debug_loc,"",%progbits
 3907              	.Ldebug_loc0:
 3908              	.LLST0:
 3909 0000 00000000 		.4byte	.LFB120
 3910 0004 02000000 		.4byte	.LCFI0
 3911 0008 0200     		.2byte	0x2
 3912 000a 7D       		.byte	0x7d
 3913 000b 00       		.sleb128 0
 3914 000c 02000000 		.4byte	.LCFI0
 3915 0010 38000000 		.4byte	.LFE120
 3916 0014 0200     		.2byte	0x2
 3917 0016 7D       		.byte	0x7d
 3918 0017 08       		.sleb128 8
 3919 0018 00000000 		.4byte	0
 3920 001c 00000000 		.4byte	0
ARM GAS  C:\Users\DNIEL~1\AppData\Local\Temp\ccSb8sbz.s 			page 70


 3921              	.LLST1:
 3922 0020 00000000 		.4byte	.LFB121
 3923 0024 06000000 		.4byte	.LCFI1
 3924 0028 0200     		.2byte	0x2
 3925 002a 7D       		.byte	0x7d
 3926 002b 00       		.sleb128 0
 3927 002c 06000000 		.4byte	.LCFI1
 3928 0030 64000000 		.4byte	.LFE121
 3929 0034 0200     		.2byte	0x2
 3930 0036 7D       		.byte	0x7d
 3931 0037 08       		.sleb128 8
 3932 0038 00000000 		.4byte	0
 3933 003c 00000000 		.4byte	0
 3934              	.LLST2:
 3935 0040 00000000 		.4byte	.LVL2
 3936 0044 0E000000 		.4byte	.LVL3
 3937 0048 0100     		.2byte	0x1
 3938 004a 50       		.byte	0x50
 3939 004b 0E000000 		.4byte	.LVL3
 3940 004f 64000000 		.4byte	.LFE121
 3941 0053 0100     		.2byte	0x1
 3942 0055 54       		.byte	0x54
 3943 0056 00000000 		.4byte	0
 3944 005a 00000000 		.4byte	0
 3945              	.LLST3:
 3946 005e 00000000 		.4byte	.LFB122
 3947 0062 06000000 		.4byte	.LCFI2
 3948 0066 0200     		.2byte	0x2
 3949 0068 7D       		.byte	0x7d
 3950 0069 00       		.sleb128 0
 3951 006a 06000000 		.4byte	.LCFI2
 3952 006e 38000000 		.4byte	.LFE122
 3953 0072 0200     		.2byte	0x2
 3954 0074 7D       		.byte	0x7d
 3955 0075 08       		.sleb128 8
 3956 0076 00000000 		.4byte	0
 3957 007a 00000000 		.4byte	0
 3958              	.LLST4:
 3959 007e 00000000 		.4byte	.LVL5
 3960 0082 0A000000 		.4byte	.LVL6
 3961 0086 0100     		.2byte	0x1
 3962 0088 50       		.byte	0x50
 3963 0089 0A000000 		.4byte	.LVL6
 3964 008d 0C000000 		.4byte	.LVL7
 3965 0091 0100     		.2byte	0x1
 3966 0093 54       		.byte	0x54
 3967 0094 0C000000 		.4byte	.LVL7
 3968 0098 0E000000 		.4byte	.LVL8
 3969 009c 0100     		.2byte	0x1
 3970 009e 50       		.byte	0x50
 3971 009f 0E000000 		.4byte	.LVL8
 3972 00a3 38000000 		.4byte	.LFE122
 3973 00a7 0100     		.2byte	0x1
 3974 00a9 54       		.byte	0x54
 3975 00aa 00000000 		.4byte	0
 3976 00ae 00000000 		.4byte	0
 3977              	.LLST5:
ARM GAS  C:\Users\DNIEL~1\AppData\Local\Temp\ccSb8sbz.s 			page 71


 3978 00b2 00000000 		.4byte	.LFB123
 3979 00b6 0A000000 		.4byte	.LCFI3
 3980 00ba 0200     		.2byte	0x2
 3981 00bc 7D       		.byte	0x7d
 3982 00bd 00       		.sleb128 0
 3983 00be 0A000000 		.4byte	.LCFI3
 3984 00c2 80000000 		.4byte	.LFE123
 3985 00c6 0200     		.2byte	0x2
 3986 00c8 7D       		.byte	0x7d
 3987 00c9 18       		.sleb128 24
 3988 00ca 00000000 		.4byte	0
 3989 00ce 00000000 		.4byte	0
 3990              	.LLST6:
 3991 00d2 00000000 		.4byte	.LVL10
 3992 00d6 50000000 		.4byte	.LVL17
 3993 00da 0100     		.2byte	0x1
 3994 00dc 50       		.byte	0x50
 3995 00dd 50000000 		.4byte	.LVL17
 3996 00e1 80000000 		.4byte	.LFE123
 3997 00e5 0400     		.2byte	0x4
 3998 00e7 F3       		.byte	0xf3
 3999 00e8 01       		.uleb128 0x1
 4000 00e9 50       		.byte	0x50
 4001 00ea 9F       		.byte	0x9f
 4002 00eb 00000000 		.4byte	0
 4003 00ef 00000000 		.4byte	0
 4004              	.LLST7:
 4005 00f3 04000000 		.4byte	.LVL12
 4006 00f7 44000000 		.4byte	.LVL16
 4007 00fb 0100     		.2byte	0x1
 4008 00fd 52       		.byte	0x52
 4009 00fe 44000000 		.4byte	.LVL16
 4010 0102 52000000 		.4byte	.LVL18
 4011 0106 0200     		.2byte	0x2
 4012 0108 71       		.byte	0x71
 4013 0109 00       		.sleb128 0
 4014 010a 52000000 		.4byte	.LVL18
 4015 010e 80000000 		.4byte	.LFE123
 4016 0112 0700     		.2byte	0x7
 4017 0114 F3       		.byte	0xf3
 4018 0115 01       		.uleb128 0x1
 4019 0116 50       		.byte	0x50
 4020 0117 23       		.byte	0x23
 4021 0118 2C       		.uleb128 0x2c
 4022 0119 06       		.byte	0x6
 4023 011a 06       		.byte	0x6
 4024 011b 00000000 		.4byte	0
 4025 011f 00000000 		.4byte	0
 4026              	.LLST8:
 4027 0123 02000000 		.4byte	.LVL11
 4028 0127 42000000 		.4byte	.LVL15
 4029 012b 0100     		.2byte	0x1
 4030 012d 53       		.byte	0x53
 4031 012e 42000000 		.4byte	.LVL15
 4032 0132 50000000 		.4byte	.LVL17
 4033 0136 0200     		.2byte	0x2
 4034 0138 70       		.byte	0x70
ARM GAS  C:\Users\DNIEL~1\AppData\Local\Temp\ccSb8sbz.s 			page 72


 4035 0139 10       		.sleb128 16
 4036 013a 50000000 		.4byte	.LVL17
 4037 013e 80000000 		.4byte	.LFE123
 4038 0142 0500     		.2byte	0x5
 4039 0144 F3       		.byte	0xf3
 4040 0145 01       		.uleb128 0x1
 4041 0146 50       		.byte	0x50
 4042 0147 23       		.byte	0x23
 4043 0148 10       		.uleb128 0x10
 4044 0149 00000000 		.4byte	0
 4045 014d 00000000 		.4byte	0
 4046              	.LLST9:
 4047 0151 00000000 		.4byte	.LFB124
 4048 0155 08000000 		.4byte	.LCFI4
 4049 0159 0200     		.2byte	0x2
 4050 015b 7D       		.byte	0x7d
 4051 015c 00       		.sleb128 0
 4052 015d 08000000 		.4byte	.LCFI4
 4053 0161 30000000 		.4byte	.LFE124
 4054 0165 0200     		.2byte	0x2
 4055 0167 7D       		.byte	0x7d
 4056 0168 04       		.sleb128 4
 4057 0169 00000000 		.4byte	0
 4058 016d 00000000 		.4byte	0
 4059              	.LLST10:
 4060 0171 00000000 		.4byte	.LVL19
 4061 0175 1E000000 		.4byte	.LVL20
 4062 0179 0100     		.2byte	0x1
 4063 017b 50       		.byte	0x50
 4064 017c 1E000000 		.4byte	.LVL20
 4065 0180 30000000 		.4byte	.LFE124
 4066 0184 0400     		.2byte	0x4
 4067 0186 F3       		.byte	0xf3
 4068 0187 01       		.uleb128 0x1
 4069 0188 50       		.byte	0x50
 4070 0189 9F       		.byte	0x9f
 4071 018a 00000000 		.4byte	0
 4072 018e 00000000 		.4byte	0
 4073              	.LLST11:
 4074 0192 00000000 		.4byte	.LFB118
 4075 0196 06000000 		.4byte	.LCFI5
 4076 019a 0200     		.2byte	0x2
 4077 019c 7D       		.byte	0x7d
 4078 019d 00       		.sleb128 0
 4079 019e 06000000 		.4byte	.LCFI5
 4080 01a2 F0000000 		.4byte	.LFE118
 4081 01a6 0200     		.2byte	0x2
 4082 01a8 7D       		.byte	0x7d
 4083 01a9 10       		.sleb128 16
 4084 01aa 00000000 		.4byte	0
 4085 01ae 00000000 		.4byte	0
 4086              	.LLST12:
 4087 01b2 00000000 		.4byte	.LVL21
 4088 01b6 21000000 		.4byte	.LVL23-1
 4089 01ba 0100     		.2byte	0x1
 4090 01bc 50       		.byte	0x50
 4091 01bd 21000000 		.4byte	.LVL23-1
ARM GAS  C:\Users\DNIEL~1\AppData\Local\Temp\ccSb8sbz.s 			page 73


 4092 01c1 4E000000 		.4byte	.LVL27
 4093 01c5 0100     		.2byte	0x1
 4094 01c7 54       		.byte	0x54
 4095 01c8 4E000000 		.4byte	.LVL27
 4096 01cc 51000000 		.4byte	.LVL28-1
 4097 01d0 0100     		.2byte	0x1
 4098 01d2 50       		.byte	0x50
 4099 01d3 51000000 		.4byte	.LVL28-1
 4100 01d7 F0000000 		.4byte	.LFE118
 4101 01db 0100     		.2byte	0x1
 4102 01dd 54       		.byte	0x54
 4103 01de 00000000 		.4byte	0
 4104 01e2 00000000 		.4byte	0
 4105              	.LLST13:
 4106 01e6 00000000 		.4byte	.LVL21
 4107 01ea 1E000000 		.4byte	.LVL22
 4108 01ee 0100     		.2byte	0x1
 4109 01f0 51       		.byte	0x51
 4110 01f1 1E000000 		.4byte	.LVL22
 4111 01f5 30000000 		.4byte	.LVL24
 4112 01f9 0100     		.2byte	0x1
 4113 01fb 55       		.byte	0x55
 4114 01fc 30000000 		.4byte	.LVL24
 4115 0200 4E000000 		.4byte	.LVL27
 4116 0204 0400     		.2byte	0x4
 4117 0206 F3       		.byte	0xf3
 4118 0207 01       		.uleb128 0x1
 4119 0208 51       		.byte	0x51
 4120 0209 9F       		.byte	0x9f
 4121 020a 4E000000 		.4byte	.LVL27
 4122 020e 51000000 		.4byte	.LVL28-1
 4123 0212 0100     		.2byte	0x1
 4124 0214 51       		.byte	0x51
 4125 0215 51000000 		.4byte	.LVL28-1
 4126 0219 88000000 		.4byte	.LVL34
 4127 021d 0100     		.2byte	0x1
 4128 021f 55       		.byte	0x55
 4129 0220 88000000 		.4byte	.LVL34
 4130 0224 98000000 		.4byte	.LVL39
 4131 0228 0400     		.2byte	0x4
 4132 022a F3       		.byte	0xf3
 4133 022b 01       		.uleb128 0x1
 4134 022c 51       		.byte	0x51
 4135 022d 9F       		.byte	0x9f
 4136 022e 98000000 		.4byte	.LVL39
 4137 0232 B0000000 		.4byte	.LVL41
 4138 0236 0100     		.2byte	0x1
 4139 0238 55       		.byte	0x55
 4140 0239 B0000000 		.4byte	.LVL41
 4141 023d E8000000 		.4byte	.LVL47
 4142 0241 0400     		.2byte	0x4
 4143 0243 F3       		.byte	0xf3
 4144 0244 01       		.uleb128 0x1
 4145 0245 51       		.byte	0x51
 4146 0246 9F       		.byte	0x9f
 4147 0247 E8000000 		.4byte	.LVL47
 4148 024b F0000000 		.4byte	.LFE118
ARM GAS  C:\Users\DNIEL~1\AppData\Local\Temp\ccSb8sbz.s 			page 74


 4149 024f 0100     		.2byte	0x1
 4150 0251 55       		.byte	0x55
 4151 0252 00000000 		.4byte	0
 4152 0256 00000000 		.4byte	0
 4153              	.LLST14:
 4154 025a 40000000 		.4byte	.LVL25
 4155 025e 4B000000 		.4byte	.LVL26-1
 4156 0262 0100     		.2byte	0x1
 4157 0264 52       		.byte	0x52
 4158 0265 00000000 		.4byte	0
 4159 0269 00000000 		.4byte	0
 4160              	.LLST15:
 4161 026d 40000000 		.4byte	.LVL25
 4162 0271 4B000000 		.4byte	.LVL26-1
 4163 0275 0F00     		.2byte	0xf
 4164 0277 74       		.byte	0x74
 4165 0278 10       		.sleb128 16
 4166 0279 06       		.byte	0x6
 4167 027a 23       		.byte	0x23
 4168 027b 04       		.uleb128 0x4
 4169 027c 94       		.byte	0x94
 4170 027d 02       		.byte	0x2
 4171 027e 0A       		.byte	0xa
 4172 027f FFFF     		.2byte	0xffff
 4173 0281 1A       		.byte	0x1a
 4174 0282 72       		.byte	0x72
 4175 0283 00       		.sleb128 0
 4176 0284 1E       		.byte	0x1e
 4177 0285 9F       		.byte	0x9f
 4178 0286 00000000 		.4byte	0
 4179 028a 00000000 		.4byte	0
 4180              	.LLST16:
 4181 028e 76000000 		.4byte	.LVL31
 4182 0292 78000000 		.4byte	.LVL32
 4183 0296 0100     		.2byte	0x1
 4184 0298 53       		.byte	0x53
 4185 0299 00000000 		.4byte	0
 4186 029d 00000000 		.4byte	0
 4187              	.LLST17:
 4188 02a1 7A000000 		.4byte	.LVL33
 4189 02a5 87000000 		.4byte	.LVL34-1
 4190 02a9 0100     		.2byte	0x1
 4191 02ab 53       		.byte	0x53
 4192 02ac 00000000 		.4byte	0
 4193 02b0 00000000 		.4byte	0
 4194              	.LLST18:
 4195 02b4 8E000000 		.4byte	.LVL36
 4196 02b8 90000000 		.4byte	.LVL37
 4197 02bc 0100     		.2byte	0x1
 4198 02be 53       		.byte	0x53
 4199 02bf 00000000 		.4byte	0
 4200 02c3 00000000 		.4byte	0
 4201              	.LLST19:
 4202 02c7 B4000000 		.4byte	.LVL42
 4203 02cb BF000000 		.4byte	.LVL43-1
 4204 02cf 0100     		.2byte	0x1
 4205 02d1 52       		.byte	0x52
ARM GAS  C:\Users\DNIEL~1\AppData\Local\Temp\ccSb8sbz.s 			page 75


 4206 02d2 00000000 		.4byte	0
 4207 02d6 00000000 		.4byte	0
 4208              	.LLST20:
 4209 02da B4000000 		.4byte	.LVL42
 4210 02de BF000000 		.4byte	.LVL43-1
 4211 02e2 0F00     		.2byte	0xf
 4212 02e4 74       		.byte	0x74
 4213 02e5 10       		.sleb128 16
 4214 02e6 06       		.byte	0x6
 4215 02e7 23       		.byte	0x23
 4216 02e8 04       		.uleb128 0x4
 4217 02e9 94       		.byte	0x94
 4218 02ea 02       		.byte	0x2
 4219 02eb 0A       		.byte	0xa
 4220 02ec FFFF     		.2byte	0xffff
 4221 02ee 1A       		.byte	0x1a
 4222 02ef 72       		.byte	0x72
 4223 02f0 00       		.sleb128 0
 4224 02f1 1E       		.byte	0x1e
 4225 02f2 9F       		.byte	0x9f
 4226 02f3 00000000 		.4byte	0
 4227 02f7 00000000 		.4byte	0
 4228              	.LLST21:
 4229 02fb 88000000 		.4byte	.LVL34
 4230 02ff 8A000000 		.4byte	.LVL35
 4231 0303 0100     		.2byte	0x1
 4232 0305 53       		.byte	0x53
 4233 0306 D0000000 		.4byte	.LVL44
 4234 030a DF000000 		.4byte	.LVL46-1
 4235 030e 0100     		.2byte	0x1
 4236 0310 53       		.byte	0x53
 4237 0311 00000000 		.4byte	0
 4238 0315 00000000 		.4byte	0
 4239              	.LLST22:
 4240 0319 D6000000 		.4byte	.LVL45
 4241 031d DF000000 		.4byte	.LVL46-1
 4242 0321 0100     		.2byte	0x1
 4243 0323 52       		.byte	0x52
 4244 0324 00000000 		.4byte	0
 4245 0328 00000000 		.4byte	0
 4246              	.LLST23:
 4247 032c 00000000 		.4byte	.LFB119
 4248 0330 0E000000 		.4byte	.LCFI6
 4249 0334 0200     		.2byte	0x2
 4250 0336 7D       		.byte	0x7d
 4251 0337 00       		.sleb128 0
 4252 0338 0E000000 		.4byte	.LCFI6
 4253 033c 74000000 		.4byte	.LFE119
 4254 0340 0200     		.2byte	0x2
 4255 0342 7D       		.byte	0x7d
 4256 0343 08       		.sleb128 8
 4257 0344 00000000 		.4byte	0
 4258 0348 00000000 		.4byte	0
 4259              	.LLST24:
 4260 034c 0C000000 		.4byte	.LVL49
 4261 0350 1C000000 		.4byte	.LVL50
 4262 0354 0100     		.2byte	0x1
ARM GAS  C:\Users\DNIEL~1\AppData\Local\Temp\ccSb8sbz.s 			page 76


 4263 0356 52       		.byte	0x52
 4264 0357 00000000 		.4byte	0
 4265 035b 00000000 		.4byte	0
 4266              	.LLST25:
 4267 035f 48000000 		.4byte	.LVL54
 4268 0363 50000000 		.4byte	.LVL56
 4269 0367 0100     		.2byte	0x1
 4270 0369 53       		.byte	0x53
 4271 036a 5A000000 		.4byte	.LVL57
 4272 036e 5C000000 		.4byte	.LVL58
 4273 0372 0100     		.2byte	0x1
 4274 0374 53       		.byte	0x53
 4275 0375 00000000 		.4byte	0
 4276 0379 00000000 		.4byte	0
 4277              	.LLST26:
 4278 037d 4C000000 		.4byte	.LVL55
 4279 0381 59000000 		.4byte	.LVL57-1
 4280 0385 0100     		.2byte	0x1
 4281 0387 50       		.byte	0x50
 4282 0388 00000000 		.4byte	0
 4283 038c 00000000 		.4byte	0
 4284              	.LLST27:
 4285 0390 60000000 		.4byte	.LVL59
 4286 0394 67000000 		.4byte	.LVL60-1
 4287 0398 0100     		.2byte	0x1
 4288 039a 53       		.byte	0x53
 4289 039b 00000000 		.4byte	0
 4290 039f 00000000 		.4byte	0
 4291              		.section	.debug_aranges,"",%progbits
 4292 0000 6C000000 		.4byte	0x6c
 4293 0004 0200     		.2byte	0x2
 4294 0006 00000000 		.4byte	.Ldebug_info0
 4295 000a 04       		.byte	0x4
 4296 000b 00       		.byte	0
 4297 000c 0000     		.2byte	0
 4298 000e 0000     		.2byte	0
 4299 0010 00000000 		.4byte	.LFB120
 4300 0014 38000000 		.4byte	.LFE120-.LFB120
 4301 0018 00000000 		.4byte	.LFB121
 4302 001c 64000000 		.4byte	.LFE121-.LFB121
 4303 0020 00000000 		.4byte	.LFB122
 4304 0024 38000000 		.4byte	.LFE122-.LFB122
 4305 0028 00000000 		.4byte	.LFB123
 4306 002c 80000000 		.4byte	.LFE123-.LFB123
 4307 0030 00000000 		.4byte	.LFB124
 4308 0034 30000000 		.4byte	.LFE124-.LFB124
 4309 0038 00000000 		.4byte	.LFB118
 4310 003c F0000000 		.4byte	.LFE118-.LFB118
 4311 0040 00000000 		.4byte	.LFB119
 4312 0044 74000000 		.4byte	.LFE119-.LFB119
 4313 0048 00000000 		.4byte	.LFB125
 4314 004c 12000000 		.4byte	.LFE125-.LFB125
 4315 0050 00000000 		.4byte	.LFB126
 4316 0054 12000000 		.4byte	.LFE126-.LFB126
 4317 0058 00000000 		.4byte	.LFB127
 4318 005c 12000000 		.4byte	.LFE127-.LFB127
 4319 0060 00000000 		.4byte	.LFB128
ARM GAS  C:\Users\DNIEL~1\AppData\Local\Temp\ccSb8sbz.s 			page 77


 4320 0064 12000000 		.4byte	.LFE128-.LFB128
 4321 0068 00000000 		.4byte	0
 4322 006c 00000000 		.4byte	0
 4323              		.section	.debug_ranges,"",%progbits
 4324              	.Ldebug_ranges0:
 4325 0000 00000000 		.4byte	.LFB120
 4326 0004 38000000 		.4byte	.LFE120
 4327 0008 00000000 		.4byte	.LFB121
 4328 000c 64000000 		.4byte	.LFE121
 4329 0010 00000000 		.4byte	.LFB122
 4330 0014 38000000 		.4byte	.LFE122
 4331 0018 00000000 		.4byte	.LFB123
 4332 001c 80000000 		.4byte	.LFE123
 4333 0020 00000000 		.4byte	.LFB124
 4334 0024 30000000 		.4byte	.LFE124
 4335 0028 00000000 		.4byte	.LFB118
 4336 002c F0000000 		.4byte	.LFE118
 4337 0030 00000000 		.4byte	.LFB119
 4338 0034 74000000 		.4byte	.LFE119
 4339 0038 00000000 		.4byte	.LFB125
 4340 003c 12000000 		.4byte	.LFE125
 4341 0040 00000000 		.4byte	.LFB126
 4342 0044 12000000 		.4byte	.LFE126
 4343 0048 00000000 		.4byte	.LFB127
 4344 004c 12000000 		.4byte	.LFE127
 4345 0050 00000000 		.4byte	.LFB128
 4346 0054 12000000 		.4byte	.LFE128
 4347 0058 00000000 		.4byte	0
 4348 005c 00000000 		.4byte	0
 4349              		.section	.debug_line,"",%progbits
 4350              	.Ldebug_line0:
 4351 0000 A7040000 		.section	.debug_str,"MS",%progbits,1
 4351      0200A402 
 4351      00000201 
 4351      FB0E0D00 
 4351      01010101 
 4352              	.LASF166:
 4353 0000 4D314152 		.ascii	"M1AR\000"
 4353      00
 4354              	.LASF2:
 4355 0005 73697A65 		.ascii	"size_t\000"
 4355      5F7400
 4356              	.LASF110:
 4357 000c 54494D38 		.ascii	"TIM8_UP_TIM13_IRQn\000"
 4357      5F55505F 
 4357      54494D31 
 4357      335F4952 
 4357      516E00
 4358              	.LASF233:
 4359 001f 73717231 		.ascii	"sqr1\000"
 4359      00
 4360              	.LASF234:
 4361 0024 73717232 		.ascii	"sqr2\000"
 4361      00
 4362              	.LASF48:
 4363 0029 73697A65 		.ascii	"sizetype\000"
 4363      74797065 
ARM GAS  C:\Users\DNIEL~1\AppData\Local\Temp\ccSb8sbz.s 			page 78


 4363      00
 4364              	.LASF240:
 4365 0032 6164635F 		.ascii	"adc_lld_start\000"
 4365      6C6C645F 
 4365      73746172 
 4365      7400
 4366              	.LASF22:
 4367 0040 73797374 		.ascii	"systime_t\000"
 4367      696D655F 
 4367      7400
 4368              	.LASF194:
 4369 004a 504C4C49 		.ascii	"PLLI2SCFGR\000"
 4369      32534346 
 4369      475200
 4370              	.LASF27:
 4371 0055 705F6374 		.ascii	"p_ctx\000"
 4371      7800
 4372              	.LASF19:
 4373 005b 74707269 		.ascii	"tprio_t\000"
 4373      6F5F7400 
 4374              	.LASF225:
 4375 0063 61646363 		.ascii	"adccallback_t\000"
 4375      616C6C62 
 4375      61636B5F 
 4375      7400
 4376              	.LASF154:
 4377 0071 53515231 		.ascii	"SQR1\000"
 4377      00
 4378              	.LASF155:
 4379 0076 53515232 		.ascii	"SQR2\000"
 4379      00
 4380              	.LASF156:
 4381 007b 53515233 		.ascii	"SQR3\000"
 4381      00
 4382              	.LASF37:
 4383 0080 705F6D73 		.ascii	"p_msgqueue\000"
 4383      67717565 
 4383      756500
 4384              	.LASF8:
 4385 008b 696E7433 		.ascii	"int32_t\000"
 4385      325F7400 
 4386              	.LASF209:
 4387 0093 61646373 		.ascii	"adcstate_t\000"
 4387      74617465 
 4387      5F7400
 4388              	.LASF259:
 4389 009e 646D6153 		.ascii	"dmaStreamRelease\000"
 4389      74726561 
 4389      6D52656C 
 4389      65617365 
 4389      00
 4390              	.LASF212:
 4391 00af 4144435F 		.ascii	"ADC_ERR_DMAFAILURE\000"
 4391      4552525F 
 4391      444D4146 
 4391      41494C55 
 4391      524500
ARM GAS  C:\Users\DNIEL~1\AppData\Local\Temp\ccSb8sbz.s 			page 79


 4392              	.LASF261:
 4393 00c2 63685363 		.ascii	"chSchReadyI\000"
 4393      68526561 
 4393      64794900 
 4394              	.LASF123:
 4395 00ce 444D4132 		.ascii	"DMA2_Stream1_IRQn\000"
 4395      5F537472 
 4395      65616D31 
 4395      5F495251 
 4395      6E00
 4396              	.LASF117:
 4397 00e0 53504933 		.ascii	"SPI3_IRQn\000"
 4397      5F495251 
 4397      6E00
 4398              	.LASF70:
 4399 00ea 464C4153 		.ascii	"FLASH_IRQn\000"
 4399      485F4952 
 4399      516E00
 4400              	.LASF144:
 4401 00f5 44434D49 		.ascii	"DCMI_IRQn\000"
 4401      5F495251 
 4401      6E00
 4402              	.LASF217:
 4403 00ff 636F6E66 		.ascii	"config\000"
 4403      696700
 4404              	.LASF216:
 4405 0106 73746174 		.ascii	"state\000"
 4405      6500
 4406              	.LASF94:
 4407 010c 54494D32 		.ascii	"TIM2_IRQn\000"
 4407      5F495251 
 4407      6E00
 4408              	.LASF253:
 4409 0116 61646353 		.ascii	"adcSTM32DisableVBATE\000"
 4409      544D3332 
 4409      44697361 
 4409      626C6556 
 4409      42415445 
 4410              	.LASF230:
 4411 012b 6572726F 		.ascii	"error_cb\000"
 4411      725F6362 
 4411      00
 4412              	.LASF130:
 4413 0134 43414E32 		.ascii	"CAN2_RX0_IRQn\000"
 4413      5F525830 
 4413      5F495251 
 4413      6E00
 4414              	.LASF137:
 4415 0142 55534152 		.ascii	"USART6_IRQn\000"
 4415      54365F49 
 4415      52516E00 
 4416              	.LASF51:
 4417 014e 6D5F6F77 		.ascii	"m_owner\000"
 4417      6E657200 
 4418              	.LASF161:
 4419 0156 4A445234 		.ascii	"JDR4\000"
 4419      00
ARM GAS  C:\Users\DNIEL~1\AppData\Local\Temp\ccSb8sbz.s 			page 80


 4420              	.LASF229:
 4421 015b 656E645F 		.ascii	"end_cb\000"
 4421      636200
 4422              	.LASF54:
 4423 0162 65786974 		.ascii	"exitcode\000"
 4423      636F6465 
 4423      00
 4424              	.LASF142:
 4425 016b 4F54475F 		.ascii	"OTG_HS_WKUP_IRQn\000"
 4425      48535F57 
 4425      4B55505F 
 4425      4952516E 
 4425      00
 4426              	.LASF56:
 4427 017c 65776D61 		.ascii	"ewmask\000"
 4427      736B00
 4428              	.LASF109:
 4429 0183 54494D38 		.ascii	"TIM8_BRK_TIM12_IRQn\000"
 4429      5F42524B 
 4429      5F54494D 
 4429      31325F49 
 4429      52516E00 
 4430              	.LASF185:
 4431 0197 41484232 		.ascii	"AHB2LPENR\000"
 4431      4C50454E 
 4431      5200
 4432              	.LASF28:
 4433 01a1 705F6E65 		.ascii	"p_newer\000"
 4433      77657200 
 4434              	.LASF9:
 4435 01a9 6C6F6E67 		.ascii	"long int\000"
 4435      20696E74 
 4435      00
 4436              	.LASF24:
 4437 01b2 705F6E65 		.ascii	"p_next\000"
 4437      787400
 4438              	.LASF25:
 4439 01b9 705F7072 		.ascii	"p_prev\000"
 4439      657600
 4440              	.LASF224:
 4441 01c0 646D616D 		.ascii	"dmamode\000"
 4441      6F646500 
 4442              	.LASF134:
 4443 01c8 444D4132 		.ascii	"DMA2_Stream5_IRQn\000"
 4443      5F537472 
 4443      65616D35 
 4443      5F495251 
 4443      6E00
 4444              	.LASF16:
 4445 01da 74737461 		.ascii	"tstate_t\000"
 4445      74655F74 
 4445      00
 4446              	.LASF249:
 4447 01e3 56656374 		.ascii	"Vector88\000"
 4447      6F723838 
 4447      00
 4448              	.LASF40:
ARM GAS  C:\Users\DNIEL~1\AppData\Local\Temp\ccSb8sbz.s 			page 81


 4449 01ec 705F6D74 		.ascii	"p_mtxlist\000"
 4449      786C6973 
 4449      7400
 4450              	.LASF92:
 4451 01f6 54494D31 		.ascii	"TIM1_TRG_COM_TIM11_IRQn\000"
 4451      5F545247 
 4451      5F434F4D 
 4451      5F54494D 
 4451      31315F49 
 4452              	.LASF45:
 4453 020e 72656761 		.ascii	"regarm_t\000"
 4453      726D5F74 
 4453      00
 4454              	.LASF241:
 4455 0217 6164635F 		.ascii	"adc_lld_stop\000"
 4455      6C6C645F 
 4455      73746F70 
 4455      00
 4456              	.LASF182:
 4457 0224 41504232 		.ascii	"APB2ENR\000"
 4457      454E5200 
 4458              	.LASF184:
 4459 022c 41484231 		.ascii	"AHB1LPENR\000"
 4459      4C50454E 
 4459      5200
 4460              	.LASF65:
 4461 0236 53797354 		.ascii	"SysTick_IRQn\000"
 4461      69636B5F 
 4461      4952516E 
 4461      00
 4462              	.LASF105:
 4463 0243 55534152 		.ascii	"USART3_IRQn\000"
 4463      54335F49 
 4463      52516E00 
 4464              	.LASF250:
 4465 024f 61646353 		.ascii	"adcSTM32EnableTSVREFE\000"
 4465      544D3332 
 4465      456E6162 
 4465      6C655453 
 4465      56524546 
 4466              	.LASF1:
 4467 0265 7369676E 		.ascii	"signed char\000"
 4467      65642063 
 4467      68617200 
 4468              	.LASF34:
 4469 0271 705F7072 		.ascii	"p_preempt\000"
 4469      65656D70 
 4469      7400
 4470              	.LASF3:
 4471 027b 75696E74 		.ascii	"uint8_t\000"
 4471      385F7400 
 4472              	.LASF21:
 4473 0283 6576656E 		.ascii	"eventmask_t\000"
 4473      746D6173 
 4473      6B5F7400 
 4474              	.LASF47:
 4475 028f 636F6E74 		.ascii	"context\000"
ARM GAS  C:\Users\DNIEL~1\AppData\Local\Temp\ccSb8sbz.s 			page 82


 4475      65787400 
 4476              	.LASF79:
 4477 0297 444D4131 		.ascii	"DMA1_Stream2_IRQn\000"
 4477      5F537472 
 4477      65616D32 
 4477      5F495251 
 4477      6E00
 4478              	.LASF173:
 4479 02a9 52455345 		.ascii	"RESERVED0\000"
 4479      52564544 
 4479      3000
 4480              	.LASF176:
 4481 02b3 52455345 		.ascii	"RESERVED1\000"
 4481      52564544 
 4481      3100
 4482              	.LASF4:
 4483 02bd 756E7369 		.ascii	"unsigned char\000"
 4483      676E6564 
 4483      20636861 
 4483      7200
 4484              	.LASF126:
 4485 02cb 444D4132 		.ascii	"DMA2_Stream4_IRQn\000"
 4485      5F537472 
 4485      65616D34 
 4485      5F495251 
 4485      6E00
 4486              	.LASF187:
 4487 02dd 52455345 		.ascii	"RESERVED4\000"
 4487      52564544 
 4487      3400
 4488              	.LASF190:
 4489 02e7 52455345 		.ascii	"RESERVED5\000"
 4489      52564544 
 4489      3500
 4490              	.LASF192:
 4491 02f1 52455345 		.ascii	"RESERVED6\000"
 4491      52564544 
 4491      3600
 4492              	.LASF214:
 4493 02fb 61646365 		.ascii	"adcerror_t\000"
 4493      72726F72 
 4493      5F7400
 4494              	.LASF98:
 4495 0306 49324331 		.ascii	"I2C1_ER_IRQn\000"
 4495      5F45525F 
 4495      4952516E 
 4495      00
 4496              	.LASF203:
 4497 0313 4144435F 		.ascii	"ADC_UNINIT\000"
 4497      554E494E 
 4497      495400
 4498              	.LASF132:
 4499 031e 43414E32 		.ascii	"CAN2_SCE_IRQn\000"
 4499      5F534345 
 4499      5F495251 
 4499      6E00
 4500              	.LASF205:
ARM GAS  C:\Users\DNIEL~1\AppData\Local\Temp\ccSb8sbz.s 			page 83


 4501 032c 4144435F 		.ascii	"ADC_READY\000"
 4501      52454144 
 4501      5900
 4502              	.LASF180:
 4503 0336 52455345 		.ascii	"RESERVED2\000"
 4503      52564544 
 4503      3200
 4504              	.LASF183:
 4505 0340 52455345 		.ascii	"RESERVED3\000"
 4505      52564544 
 4505      3300
 4506              	.LASF116:
 4507 034a 54494D35 		.ascii	"TIM5_IRQn\000"
 4507      5F495251 
 4507      6E00
 4508              	.LASF210:
 4509 0354 61646373 		.ascii	"adcsample_t\000"
 4509      616D706C 
 4509      655F7400 
 4510              	.LASF61:
 4511 0360 55736167 		.ascii	"UsageFault_IRQn\000"
 4511      65466175 
 4511      6C745F49 
 4511      52516E00 
 4512              	.LASF57:
 4513 0370 63686172 		.ascii	"char\000"
 4513      00
 4514              	.LASF198:
 4515 0375 69736869 		.ascii	"ishift\000"
 4515      667400
 4516              	.LASF26:
 4517 037c 705F7072 		.ascii	"p_prio\000"
 4517      696F00
 4518              	.LASF178:
 4519 0383 41484232 		.ascii	"AHB2ENR\000"
 4519      454E5200 
 4520              	.LASF55:
 4521 038b 77746F62 		.ascii	"wtobjp\000"
 4521      6A7000
 4522              	.LASF86:
 4523 0392 43414E31 		.ascii	"CAN1_RX0_IRQn\000"
 4523      5F525830 
 4523      5F495251 
 4523      6E00
 4524              	.LASF208:
 4525 03a0 4144435F 		.ascii	"ADC_ERROR\000"
 4525      4552524F 
 4525      5200
 4526              	.LASF246:
 4527 03aa 666C6167 		.ascii	"flags\000"
 4527      7300
 4528              	.LASF235:
 4529 03b0 73717233 		.ascii	"sqr3\000"
 4529      00
 4530              	.LASF227:
 4531 03b5 63697263 		.ascii	"circular\000"
 4531      756C6172 
ARM GAS  C:\Users\DNIEL~1\AppData\Local\Temp\ccSb8sbz.s 			page 84


 4531      00
 4532              	.LASF96:
 4533 03be 54494D34 		.ascii	"TIM4_IRQn\000"
 4533      5F495251 
 4533      6E00
 4534              	.LASF104:
 4535 03c8 55534152 		.ascii	"USART2_IRQn\000"
 4535      54325F49 
 4535      52516E00 
 4536              	.LASF196:
 4537 03d4 73747265 		.ascii	"stream\000"
 4537      616D00
 4538              	.LASF260:
 4539 03db 646D6153 		.ascii	"dmaStreamAllocate\000"
 4539      74726561 
 4539      6D416C6C 
 4539      6F636174 
 4539      6500
 4540              	.LASF191:
 4541 03ed 42444352 		.ascii	"BDCR\000"
 4541      00
 4542              	.LASF218:
 4543 03f2 73616D70 		.ascii	"samples\000"
 4543      6C657300 
 4544              	.LASF263:
 4545 03fa 2E2E2F2E 		.ascii	"../../../ChibiOS/os/hal/platforms/STM32F4xx/adc_lld"
 4545      2E2F2E2E 
 4545      2F436869 
 4545      62694F53 
 4545      2F6F732F 
 4546 042d 2E6300   		.ascii	".c\000"
 4547              	.LASF97:
 4548 0430 49324331 		.ascii	"I2C1_EV_IRQn\000"
 4548      5F45565F 
 4548      4952516E 
 4548      00
 4549              	.LASF162:
 4550 043d 4144435F 		.ascii	"ADC_TypeDef\000"
 4550      54797065 
 4550      44656600 
 4551              	.LASF46:
 4552 0449 696E7463 		.ascii	"intctx\000"
 4552      747800
 4553              	.LASF39:
 4554 0450 705F6570 		.ascii	"p_epending\000"
 4554      656E6469 
 4554      6E6700
 4555              	.LASF169:
 4556 045b 43464752 		.ascii	"CFGR\000"
 4556      00
 4557              	.LASF93:
 4558 0460 54494D31 		.ascii	"TIM1_CC_IRQn\000"
 4558      5F43435F 
 4558      4952516E 
 4558      00
 4559              	.LASF146:
 4560 046d 48415348 		.ascii	"HASH_RNG_IRQn\000"
ARM GAS  C:\Users\DNIEL~1\AppData\Local\Temp\ccSb8sbz.s 			page 85


 4560      5F524E47 
 4560      5F495251 
 4560      6E00
 4561              	.LASF73:
 4562 047b 45585449 		.ascii	"EXTI1_IRQn\000"
 4562      315F4952 
 4562      516E00
 4563              	.LASF85:
 4564 0486 43414E31 		.ascii	"CAN1_TX_IRQn\000"
 4564      5F54585F 
 4564      4952516E 
 4564      00
 4565              	.LASF82:
 4566 0493 444D4131 		.ascii	"DMA1_Stream5_IRQn\000"
 4566      5F537472 
 4566      65616D35 
 4566      5F495251 
 4566      6E00
 4567              	.LASF111:
 4568 04a5 54494D38 		.ascii	"TIM8_TRG_COM_TIM14_IRQn\000"
 4568      5F545247 
 4568      5F434F4D 
 4568      5F54494D 
 4568      31345F49 
 4569              	.LASF136:
 4570 04bd 444D4132 		.ascii	"DMA2_Stream7_IRQn\000"
 4570      5F537472 
 4570      65616D37 
 4570      5F495251 
 4570      6E00
 4571              	.LASF133:
 4572 04cf 4F54475F 		.ascii	"OTG_FS_IRQn\000"
 4572      46535F49 
 4572      52516E00 
 4573              	.LASF58:
 4574 04db 4E6F6E4D 		.ascii	"NonMaskableInt_IRQn\000"
 4574      61736B61 
 4574      626C6549 
 4574      6E745F49 
 4574      52516E00 
 4575              	.LASF66:
 4576 04ef 57574447 		.ascii	"WWDG_IRQn\000"
 4576      5F495251 
 4576      6E00
 4577              	.LASF11:
 4578 04f9 6C6F6E67 		.ascii	"long unsigned int\000"
 4578      20756E73 
 4578      69676E65 
 4578      6420696E 
 4578      7400
 4579              	.LASF181:
 4580 050b 41504231 		.ascii	"APB1ENR\000"
 4580      454E5200 
 4581              	.LASF223:
 4582 0513 646D6173 		.ascii	"dmastp\000"
 4582      747000
 4583              	.LASF59:
ARM GAS  C:\Users\DNIEL~1\AppData\Local\Temp\ccSb8sbz.s 			page 86


 4584 051a 4D656D6F 		.ascii	"MemoryManagement_IRQn\000"
 4584      72794D61 
 4584      6E616765 
 4584      6D656E74 
 4584      5F495251 
 4585              	.LASF68:
 4586 0530 54414D50 		.ascii	"TAMP_STAMP_IRQn\000"
 4586      5F535441 
 4586      4D505F49 
 4586      52516E00 
 4587              	.LASF88:
 4588 0540 43414E31 		.ascii	"CAN1_SCE_IRQn\000"
 4588      5F534345 
 4588      5F495251 
 4588      6E00
 4589              	.LASF255:
 4590 054e 5F73746D 		.ascii	"_stm32_dma_streams\000"
 4590      33325F64 
 4590      6D615F73 
 4590      74726561 
 4590      6D7300
 4591              	.LASF122:
 4592 0561 444D4132 		.ascii	"DMA2_Stream0_IRQn\000"
 4592      5F537472 
 4592      65616D30 
 4592      5F495251 
 4592      6E00
 4593              	.LASF148:
 4594 0573 534D5052 		.ascii	"SMPR1\000"
 4594      3100
 4595              	.LASF149:
 4596 0579 534D5052 		.ascii	"SMPR2\000"
 4596      3200
 4597              	.LASF201:
 4598 057f 73746D33 		.ascii	"stm32_dma_stream_t\000"
 4598      325F646D 
 4598      615F7374 
 4598      7265616D 
 4598      5F7400
 4599              	.LASF100:
 4600 0592 49324332 		.ascii	"I2C2_ER_IRQn\000"
 4600      5F45525F 
 4600      4952516E 
 4600      00
 4601              	.LASF236:
 4602 059f 41444343 		.ascii	"ADCConversionGroup\000"
 4602      6F6E7665 
 4602      7273696F 
 4602      6E47726F 
 4602      757000
 4603              	.LASF207:
 4604 05b2 4144435F 		.ascii	"ADC_COMPLETE\000"
 4604      434F4D50 
 4604      4C455445 
 4604      00
 4605              	.LASF231:
 4606 05bf 736D7072 		.ascii	"smpr1\000"
ARM GAS  C:\Users\DNIEL~1\AppData\Local\Temp\ccSb8sbz.s 			page 87


 4606      3100
 4607              	.LASF232:
 4608 05c5 736D7072 		.ascii	"smpr2\000"
 4608      3200
 4609              	.LASF243:
 4610 05cb 6164635F 		.ascii	"adc_lld_start_conversion\000"
 4610      6C6C645F 
 4610      73746172 
 4610      745F636F 
 4610      6E766572 
 4611              	.LASF60:
 4612 05e4 42757346 		.ascii	"BusFault_IRQn\000"
 4612      61756C74 
 4612      5F495251 
 4612      6E00
 4613              	.LASF168:
 4614 05f2 504C4C43 		.ascii	"PLLCFGR\000"
 4614      46475200 
 4615              	.LASF119:
 4616 05fa 55415254 		.ascii	"UART5_IRQn\000"
 4616      355F4952 
 4616      516E00
 4617              	.LASF90:
 4618 0605 54494D31 		.ascii	"TIM1_BRK_TIM9_IRQn\000"
 4618      5F42524B 
 4618      5F54494D 
 4618      395F4952 
 4618      516E00
 4619              	.LASF49:
 4620 0618 4D757465 		.ascii	"Mutex\000"
 4620      7800
 4621              	.LASF121:
 4622 061e 54494D37 		.ascii	"TIM7_IRQn\000"
 4622      5F495251 
 4622      6E00
 4623              	.LASF12:
 4624 0628 6C6F6E67 		.ascii	"long long int\000"
 4624      206C6F6E 
 4624      6720696E 
 4624      7400
 4625              	.LASF128:
 4626 0636 4554485F 		.ascii	"ETH_WKUP_IRQn\000"
 4626      574B5550 
 4626      5F495251 
 4626      6E00
 4627              	.LASF102:
 4628 0644 53504932 		.ascii	"SPI2_IRQn\000"
 4628      5F495251 
 4628      6E00
 4629              	.LASF143:
 4630 064e 4F54475F 		.ascii	"OTG_HS_IRQn\000"
 4630      48535F49 
 4630      52516E00 
 4631              	.LASF50:
 4632 065a 6D5F7175 		.ascii	"m_queue\000"
 4632      65756500 
 4633              	.LASF193:
ARM GAS  C:\Users\DNIEL~1\AppData\Local\Temp\ccSb8sbz.s 			page 88


 4634 0662 53534347 		.ascii	"SSCGR\000"
 4634      5200
 4635              	.LASF101:
 4636 0668 53504931 		.ascii	"SPI1_IRQn\000"
 4636      5F495251 
 4636      6E00
 4637              	.LASF242:
 4638 0672 61646370 		.ascii	"adcp\000"
 4638      00
 4639              	.LASF226:
 4640 0677 61646365 		.ascii	"adcerrorcallback_t\000"
 4640      72726F72 
 4640      63616C6C 
 4640      6261636B 
 4640      5F7400
 4641              	.LASF62:
 4642 068a 53564361 		.ascii	"SVCall_IRQn\000"
 4642      6C6C5F49 
 4642      52516E00 
 4643              	.LASF175:
 4644 0696 41504232 		.ascii	"APB2RSTR\000"
 4644      52535452 
 4644      00
 4645              	.LASF219:
 4646 069f 64657074 		.ascii	"depth\000"
 4646      6800
 4647              	.LASF222:
 4648 06a5 6D757465 		.ascii	"mutex\000"
 4648      7800
 4649              	.LASF147:
 4650 06ab 4650555F 		.ascii	"FPU_IRQn\000"
 4650      4952516E 
 4650      00
 4651              	.LASF118:
 4652 06b4 55415254 		.ascii	"UART4_IRQn\000"
 4652      345F4952 
 4652      516E00
 4653              	.LASF189:
 4654 06bf 41504232 		.ascii	"APB2LPENR\000"
 4654      4C50454E 
 4654      5200
 4655              	.LASF36:
 4656 06c9 705F7761 		.ascii	"p_waiting\000"
 4656      6974696E 
 4656      6700
 4657              	.LASF108:
 4658 06d3 4F54475F 		.ascii	"OTG_FS_WKUP_IRQn\000"
 4658      46535F57 
 4658      4B55505F 
 4658      4952516E 
 4658      00
 4659              	.LASF32:
 4660 06e4 705F666C 		.ascii	"p_flags\000"
 4660      61677300 
 4661              	.LASF199:
 4662 06ec 73656C66 		.ascii	"selfindex\000"
 4662      696E6465 
ARM GAS  C:\Users\DNIEL~1\AppData\Local\Temp\ccSb8sbz.s 			page 89


 4662      7800
 4663              	.LASF0:
 4664 06f6 756E7369 		.ascii	"unsigned int\000"
 4664      676E6564 
 4664      20696E74 
 4664      00
 4665              	.LASF120:
 4666 0703 54494D36 		.ascii	"TIM6_DAC_IRQn\000"
 4666      5F444143 
 4666      5F495251 
 4666      6E00
 4667              	.LASF211:
 4668 0711 6164635F 		.ascii	"adc_channels_num_t\000"
 4668      6368616E 
 4668      6E656C73 
 4668      5F6E756D 
 4668      5F7400
 4669              	.LASF42:
 4670 0724 705F6D70 		.ascii	"p_mpool\000"
 4670      6F6F6C00 
 4671              	.LASF99:
 4672 072c 49324332 		.ascii	"I2C2_EV_IRQn\000"
 4672      5F45565F 
 4672      4952516E 
 4672      00
 4673              	.LASF33:
 4674 0739 705F7265 		.ascii	"p_refs\000"
 4674      667300
 4675              	.LASF228:
 4676 0740 6E756D5F 		.ascii	"num_channels\000"
 4676      6368616E 
 4676      6E656C73 
 4676      00
 4677              	.LASF267:
 4678 074d 5F706F72 		.ascii	"_port_irq_epilogue\000"
 4678      745F6972 
 4678      715F6570 
 4678      696C6F67 
 4678      756500
 4679              	.LASF44:
 4680 0760 54687265 		.ascii	"ThreadsList\000"
 4680      6164734C 
 4680      69737400 
 4681              	.LASF256:
 4682 076c 41444344 		.ascii	"ADCD2\000"
 4682      3200
 4683              	.LASF188:
 4684 0772 41504231 		.ascii	"APB1LPENR\000"
 4684      4C50454E 
 4684      5200
 4685              	.LASF78:
 4686 077c 444D4131 		.ascii	"DMA1_Stream1_IRQn\000"
 4686      5F537472 
 4686      65616D31 
 4686      5F495251 
 4686      6E00
 4687              	.LASF125:
ARM GAS  C:\Users\DNIEL~1\AppData\Local\Temp\ccSb8sbz.s 			page 90


 4688 078e 444D4132 		.ascii	"DMA2_Stream3_IRQn\000"
 4688      5F537472 
 4688      65616D33 
 4688      5F495251 
 4688      6E00
 4689              	.LASF129:
 4690 07a0 43414E32 		.ascii	"CAN2_TX_IRQn\000"
 4690      5F54585F 
 4690      4952516E 
 4690      00
 4691              	.LASF245:
 4692 07ad 6164635F 		.ascii	"adc_lld_stop_conversion\000"
 4692      6C6C645F 
 4692      73746F70 
 4692      5F636F6E 
 4692      76657273 
 4693              	.LASF167:
 4694 07c5 444D415F 		.ascii	"DMA_Stream_TypeDef\000"
 4694      53747265 
 4694      616D5F54 
 4694      79706544 
 4694      656600
 4695              	.LASF35:
 4696 07d8 705F7469 		.ascii	"p_time\000"
 4696      6D6500
 4697              	.LASF265:
 4698 07df 4952516E 		.ascii	"IRQn\000"
 4698      00
 4699              	.LASF83:
 4700 07e4 444D4131 		.ascii	"DMA1_Stream6_IRQn\000"
 4700      5F537472 
 4700      65616D36 
 4700      5F495251 
 4700      6E00
 4701              	.LASF262:
 4702 07f6 474E5520 		.ascii	"GNU C 4.7.4 20140401 (release) [ARM/embedded-4_7-br"
 4702      4320342E 
 4702      372E3420 
 4702      32303134 
 4702      30343031 
 4703 0829 616E6368 		.ascii	"anch revision 209195]\000"
 4703      20726576 
 4703      6973696F 
 4703      6E203230 
 4703      39313935 
 4704              	.LASF172:
 4705 083f 41484233 		.ascii	"AHB3RSTR\000"
 4705      52535452 
 4705      00
 4706              	.LASF41:
 4707 0848 705F7265 		.ascii	"p_realprio\000"
 4707      616C7072 
 4707      696F00
 4708              	.LASF206:
 4709 0853 4144435F 		.ascii	"ADC_ACTIVE\000"
 4709      41435449 
 4709      564500
ARM GAS  C:\Users\DNIEL~1\AppData\Local\Temp\ccSb8sbz.s 			page 91


 4710              	.LASF77:
 4711 085e 444D4131 		.ascii	"DMA1_Stream0_IRQn\000"
 4711      5F537472 
 4711      65616D30 
 4711      5F495251 
 4711      6E00
 4712              	.LASF174:
 4713 0870 41504231 		.ascii	"APB1RSTR\000"
 4713      52535452 
 4713      00
 4714              	.LASF202:
 4715 0879 73746D33 		.ascii	"stm32_dmaisr_t\000"
 4715      325F646D 
 4715      61697372 
 4715      5F7400
 4716              	.LASF107:
 4717 0888 5254435F 		.ascii	"RTC_Alarm_IRQn\000"
 4717      416C6172 
 4717      6D5F4952 
 4717      516E00
 4718              	.LASF139:
 4719 0897 49324333 		.ascii	"I2C3_ER_IRQn\000"
 4719      5F45525F 
 4719      4952516E 
 4719      00
 4720              	.LASF145:
 4721 08a4 43525950 		.ascii	"CRYP_IRQn\000"
 4721      5F495251 
 4721      6E00
 4722              	.LASF106:
 4723 08ae 45585449 		.ascii	"EXTI15_10_IRQn\000"
 4723      31355F31 
 4723      305F4952 
 4723      516E00
 4724              	.LASF13:
 4725 08bd 6C6F6E67 		.ascii	"long long unsigned int\000"
 4725      206C6F6E 
 4725      6720756E 
 4725      7369676E 
 4725      65642069 
 4726              	.LASF29:
 4727 08d4 705F6F6C 		.ascii	"p_older\000"
 4727      64657200 
 4728              	.LASF6:
 4729 08dc 75696E74 		.ascii	"uint16_t\000"
 4729      31365F74 
 4729      00
 4730              	.LASF20:
 4731 08e5 6D73675F 		.ascii	"msg_t\000"
 4731      7400
 4732              	.LASF95:
 4733 08eb 54494D33 		.ascii	"TIM3_IRQn\000"
 4733      5F495251 
 4733      6E00
 4734              	.LASF103:
 4735 08f5 55534152 		.ascii	"USART1_IRQn\000"
 4735      54315F49 
ARM GAS  C:\Users\DNIEL~1\AppData\Local\Temp\ccSb8sbz.s 			page 92


 4735      52516E00 
 4736              	.LASF18:
 4737 0901 74736C69 		.ascii	"tslices_t\000"
 4737      6365735F 
 4737      7400
 4738              	.LASF248:
 4739 090b 68616C66 		.ascii	"half_index\000"
 4739      5F696E64 
 4739      657800
 4740              	.LASF74:
 4741 0916 45585449 		.ascii	"EXTI2_IRQn\000"
 4741      325F4952 
 4741      516E00
 4742              	.LASF215:
 4743 0921 41444344 		.ascii	"ADCDriver\000"
 4743      72697665 
 4743      7200
 4744              	.LASF239:
 4745 092b 6164635F 		.ascii	"adc_lld_init\000"
 4745      6C6C645F 
 4745      696E6974 
 4745      00
 4746              	.LASF131:
 4747 0938 43414E32 		.ascii	"CAN2_RX1_IRQn\000"
 4747      5F525831 
 4747      5F495251 
 4747      6E00
 4748              	.LASF200:
 4749 0946 76656374 		.ascii	"vector\000"
 4749      6F7200
 4750              	.LASF84:
 4751 094d 4144435F 		.ascii	"ADC_IRQn\000"
 4751      4952516E 
 4751      00
 4752              	.LASF213:
 4753 0956 4144435F 		.ascii	"ADC_ERR_OVERFLOW\000"
 4753      4552525F 
 4753      4F564552 
 4753      464C4F57 
 4753      00
 4754              	.LASF247:
 4755 0967 68616C66 		.ascii	"half\000"
 4755      00
 4756              	.LASF186:
 4757 096c 41484233 		.ascii	"AHB3LPENR\000"
 4757      4C50454E 
 4757      5200
 4758              	.LASF252:
 4759 0976 61646353 		.ascii	"adcSTM32EnableVBATE\000"
 4759      544D3332 
 4759      456E6162 
 4759      6C655642 
 4759      41544500 
 4760              	.LASF67:
 4761 098a 5056445F 		.ascii	"PVD_IRQn\000"
 4761      4952516E 
 4761      00
ARM GAS  C:\Users\DNIEL~1\AppData\Local\Temp\ccSb8sbz.s 			page 93


 4762              	.LASF114:
 4763 0993 46534D43 		.ascii	"FSMC_IRQn\000"
 4763      5F495251 
 4763      6E00
 4764              	.LASF72:
 4765 099d 45585449 		.ascii	"EXTI0_IRQn\000"
 4765      305F4952 
 4765      516E00
 4766              	.LASF15:
 4767 09a8 746D6F64 		.ascii	"tmode_t\000"
 4767      655F7400 
 4768              	.LASF81:
 4769 09b0 444D4131 		.ascii	"DMA1_Stream4_IRQn\000"
 4769      5F537472 
 4769      65616D34 
 4769      5F495251 
 4769      6E00
 4770              	.LASF237:
 4771 09c2 64756D6D 		.ascii	"dummy\000"
 4771      7900
 4772              	.LASF204:
 4773 09c8 4144435F 		.ascii	"ADC_STOP\000"
 4773      53544F50 
 4773      00
 4774              	.LASF135:
 4775 09d1 444D4132 		.ascii	"DMA2_Stream6_IRQn\000"
 4775      5F537472 
 4775      65616D36 
 4775      5F495251 
 4775      6E00
 4776              	.LASF177:
 4777 09e3 41484231 		.ascii	"AHB1ENR\000"
 4777      454E5200 
 4778              	.LASF63:
 4779 09eb 44656275 		.ascii	"DebugMonitor_IRQn\000"
 4779      674D6F6E 
 4779      69746F72 
 4779      5F495251 
 4779      6E00
 4780              	.LASF138:
 4781 09fd 49324333 		.ascii	"I2C3_EV_IRQn\000"
 4781      5F45565F 
 4781      4952516E 
 4781      00
 4782              	.LASF220:
 4783 0a0a 67727070 		.ascii	"grpp\000"
 4783      00
 4784              	.LASF171:
 4785 0a0f 41484232 		.ascii	"AHB2RSTR\000"
 4785      52535452 
 4785      00
 4786              	.LASF221:
 4787 0a18 74687265 		.ascii	"thread\000"
 4787      616400
 4788              	.LASF165:
 4789 0a1f 4D304152 		.ascii	"M0AR\000"
 4789      00
ARM GAS  C:\Users\DNIEL~1\AppData\Local\Temp\ccSb8sbz.s 			page 94


 4790              	.LASF127:
 4791 0a24 4554485F 		.ascii	"ETH_IRQn\000"
 4791      4952516E 
 4791      00
 4792              	.LASF195:
 4793 0a2d 5243435F 		.ascii	"RCC_TypeDef\000"
 4793      54797065 
 4793      44656600 
 4794              	.LASF5:
 4795 0a39 73686F72 		.ascii	"short int\000"
 4795      7420696E 
 4795      7400
 4796              	.LASF71:
 4797 0a43 5243435F 		.ascii	"RCC_IRQn\000"
 4797      4952516E 
 4797      00
 4798              	.LASF244:
 4799 0a4c 6D6F6465 		.ascii	"mode\000"
 4799      00
 4800              	.LASF150:
 4801 0a51 4A4F4652 		.ascii	"JOFR1\000"
 4801      3100
 4802              	.LASF151:
 4803 0a57 4A4F4652 		.ascii	"JOFR2\000"
 4803      3200
 4804              	.LASF152:
 4805 0a5d 4A4F4652 		.ascii	"JOFR3\000"
 4805      3300
 4806              	.LASF153:
 4807 0a63 4A4F4652 		.ascii	"JOFR4\000"
 4807      3400
 4808              	.LASF80:
 4809 0a69 444D4131 		.ascii	"DMA1_Stream3_IRQn\000"
 4809      5F537472 
 4809      65616D33 
 4809      5F495251 
 4809      6E00
 4810              	.LASF14:
 4811 0a7b 626F6F6C 		.ascii	"bool_t\000"
 4811      5F7400
 4812              	.LASF257:
 4813 0a82 6164634F 		.ascii	"adcObjectInit\000"
 4813      626A6563 
 4813      74496E69 
 4813      7400
 4814              	.LASF158:
 4815 0a90 4A445231 		.ascii	"JDR1\000"
 4815      00
 4816              	.LASF159:
 4817 0a95 4A445232 		.ascii	"JDR2\000"
 4817      00
 4818              	.LASF160:
 4819 0a9a 4A445233 		.ascii	"JDR3\000"
 4819      00
 4820              	.LASF23:
 4821 0a9f 54687265 		.ascii	"Thread\000"
 4821      616400
ARM GAS  C:\Users\DNIEL~1\AppData\Local\Temp\ccSb8sbz.s 			page 95


 4822              	.LASF157:
 4823 0aa6 4A535152 		.ascii	"JSQR\000"
 4823      00
 4824              	.LASF91:
 4825 0aab 54494D31 		.ascii	"TIM1_UP_TIM10_IRQn\000"
 4825      5F55505F 
 4825      54494D31 
 4825      305F4952 
 4825      516E00
 4826              	.LASF254:
 4827 0abe 49544D5F 		.ascii	"ITM_RxBuffer\000"
 4827      52784275 
 4827      66666572 
 4827      00
 4828              	.LASF17:
 4829 0acb 74726566 		.ascii	"trefs_t\000"
 4829      735F7400 
 4830              	.LASF140:
 4831 0ad3 4F54475F 		.ascii	"OTG_HS_EP1_OUT_IRQn\000"
 4831      48535F45 
 4831      50315F4F 
 4831      55545F49 
 4831      52516E00 
 4832              	.LASF69:
 4833 0ae7 5254435F 		.ascii	"RTC_WKUP_IRQn\000"
 4833      574B5550 
 4833      5F495251 
 4833      6E00
 4834              	.LASF164:
 4835 0af5 4E445452 		.ascii	"NDTR\000"
 4835      00
 4836              	.LASF258:
 4837 0afa 6E766963 		.ascii	"nvicEnableVector\000"
 4837      456E6162 
 4837      6C655665 
 4837      63746F72 
 4837      00
 4838              	.LASF10:
 4839 0b0b 75696E74 		.ascii	"uint32_t\000"
 4839      33325F74 
 4839      00
 4840              	.LASF87:
 4841 0b14 43414E31 		.ascii	"CAN1_RX1_IRQn\000"
 4841      5F525831 
 4841      5F495251 
 4841      6E00
 4842              	.LASF43:
 4843 0b22 54687265 		.ascii	"ThreadsQueue\000"
 4843      61647351 
 4843      75657565 
 4843      00
 4844              	.LASF89:
 4845 0b2f 45585449 		.ascii	"EXTI9_5_IRQn\000"
 4845      395F355F 
 4845      4952516E 
 4845      00
 4846              	.LASF266:
ARM GAS  C:\Users\DNIEL~1\AppData\Local\Temp\ccSb8sbz.s 			page 96


 4847 0b3c 6164635F 		.ascii	"adc_lld_serve_rx_interrupt\000"
 4847      6C6C645F 
 4847      73657276 
 4847      655F7278 
 4847      5F696E74 
 4848              	.LASF53:
 4849 0b57 7264796D 		.ascii	"rdymsg\000"
 4849      736700
 4850              	.LASF76:
 4851 0b5e 45585449 		.ascii	"EXTI4_IRQn\000"
 4851      345F4952 
 4851      516E00
 4852              	.LASF7:
 4853 0b69 73686F72 		.ascii	"short unsigned int\000"
 4853      7420756E 
 4853      7369676E 
 4853      65642069 
 4853      6E7400
 4854              	.LASF112:
 4855 0b7c 54494D38 		.ascii	"TIM8_CC_IRQn\000"
 4855      5F43435F 
 4855      4952516E 
 4855      00
 4856              	.LASF115:
 4857 0b89 5344494F 		.ascii	"SDIO_IRQn\000"
 4857      5F495251 
 4857      6E00
 4858              	.LASF75:
 4859 0b93 45585449 		.ascii	"EXTI3_IRQn\000"
 4859      335F4952 
 4859      516E00
 4860              	.LASF64:
 4861 0b9e 50656E64 		.ascii	"PendSV_IRQn\000"
 4861      53565F49 
 4861      52516E00 
 4862              	.LASF141:
 4863 0baa 4F54475F 		.ascii	"OTG_HS_EP1_IN_IRQn\000"
 4863      48535F45 
 4863      50315F49 
 4863      4E5F4952 
 4863      516E00
 4864              	.LASF113:
 4865 0bbd 444D4131 		.ascii	"DMA1_Stream7_IRQn\000"
 4865      5F537472 
 4865      65616D37 
 4865      5F495251 
 4865      6E00
 4866              	.LASF170:
 4867 0bcf 41484231 		.ascii	"AHB1RSTR\000"
 4867      52535452 
 4867      00
 4868              	.LASF163:
 4869 0bd8 4144435F 		.ascii	"ADC_Common_TypeDef\000"
 4869      436F6D6D 
 4869      6F6E5F54 
 4869      79706544 
 4869      656600
ARM GAS  C:\Users\DNIEL~1\AppData\Local\Temp\ccSb8sbz.s 			page 97


 4870              	.LASF197:
 4871 0beb 69666372 		.ascii	"ifcr\000"
 4871      00
 4872              	.LASF30:
 4873 0bf0 705F6E61 		.ascii	"p_name\000"
 4873      6D6500
 4874              	.LASF52:
 4875 0bf7 6D5F6E65 		.ascii	"m_next\000"
 4875      787400
 4876              	.LASF251:
 4877 0bfe 61646353 		.ascii	"adcSTM32DisableTSVREFE\000"
 4877      544D3332 
 4877      44697361 
 4877      626C6554 
 4877      53565245 
 4878              	.LASF179:
 4879 0c15 41484233 		.ascii	"AHB3ENR\000"
 4879      454E5200 
 4880              	.LASF124:
 4881 0c1d 444D4132 		.ascii	"DMA2_Stream2_IRQn\000"
 4881      5F537472 
 4881      65616D32 
 4881      5F495251 
 4881      6E00
 4882              	.LASF264:
 4883 0c2f 433A5C55 		.ascii	"C:\\Users\\D\341niel\\git\\Smarty\\smarty\\firmware"
 4883      73657273 
 4883      5C44E16E 
 4883      69656C5C 
 4883      6769745C 
 4884 0c59 00       		.ascii	"\000"
 4885              	.LASF38:
 4886 0c5a 705F6D73 		.ascii	"p_msg\000"
 4886      6700
 4887              	.LASF238:
 4888 0c60 41444343 		.ascii	"ADCConfig\000"
 4888      6F6E6669 
 4888      6700
 4889              	.LASF31:
 4890 0c6a 705F7374 		.ascii	"p_state\000"
 4890      61746500 
 4891              		.ident	"GCC: (GNU Tools for ARM Embedded Processors) 4.7.4 20140401 (release) [ARM/embedded-4_7-br
ARM GAS  C:\Users\DNIEL~1\AppData\Local\Temp\ccSb8sbz.s 			page 98


DEFINED SYMBOLS
                            *ABS*:00000000 adc_lld.c
C:\Users\DNIEL~1\AppData\Local\Temp\ccSb8sbz.s:19     .text.adc_lld_init:00000000 $t
C:\Users\DNIEL~1\AppData\Local\Temp\ccSb8sbz.s:25     .text.adc_lld_init:00000000 adc_lld_init
C:\Users\DNIEL~1\AppData\Local\Temp\ccSb8sbz.s:832    .bss.ADCD2:00000000 .LANCHOR0
C:\Users\DNIEL~1\AppData\Local\Temp\ccSb8sbz.s:68     .text.adc_lld_init:00000034 $d
C:\Users\DNIEL~1\AppData\Local\Temp\ccSb8sbz.s:73     .text.adc_lld_start:00000000 $t
C:\Users\DNIEL~1\AppData\Local\Temp\ccSb8sbz.s:79     .text.adc_lld_start:00000000 adc_lld_start
C:\Users\DNIEL~1\AppData\Local\Temp\ccSb8sbz.s:153    .text.adc_lld_start:0000005c $d
C:\Users\DNIEL~1\AppData\Local\Temp\ccSb8sbz.s:407    .text.adc_lld_serve_rx_interrupt:00000000 adc_lld_serve_rx_interrupt
C:\Users\DNIEL~1\AppData\Local\Temp\ccSb8sbz.s:160    .text.adc_lld_stop:00000000 $t
C:\Users\DNIEL~1\AppData\Local\Temp\ccSb8sbz.s:166    .text.adc_lld_stop:00000000 adc_lld_stop
C:\Users\DNIEL~1\AppData\Local\Temp\ccSb8sbz.s:219    .text.adc_lld_stop:00000034 $d
C:\Users\DNIEL~1\AppData\Local\Temp\ccSb8sbz.s:224    .text.adc_lld_start_conversion:00000000 $t
C:\Users\DNIEL~1\AppData\Local\Temp\ccSb8sbz.s:230    .text.adc_lld_start_conversion:00000000 adc_lld_start_conversion
C:\Users\DNIEL~1\AppData\Local\Temp\ccSb8sbz.s:347    .text.adc_lld_stop_conversion:00000000 $t
C:\Users\DNIEL~1\AppData\Local\Temp\ccSb8sbz.s:353    .text.adc_lld_stop_conversion:00000000 adc_lld_stop_conversion
C:\Users\DNIEL~1\AppData\Local\Temp\ccSb8sbz.s:402    .text.adc_lld_serve_rx_interrupt:00000000 $t
C:\Users\DNIEL~1\AppData\Local\Temp\ccSb8sbz.s:620    .text.Vector88:00000000 $t
C:\Users\DNIEL~1\AppData\Local\Temp\ccSb8sbz.s:626    .text.Vector88:00000000 Vector88
C:\Users\DNIEL~1\AppData\Local\Temp\ccSb8sbz.s:729    .text.Vector88:00000070 $d
C:\Users\DNIEL~1\AppData\Local\Temp\ccSb8sbz.s:734    .text.adcSTM32EnableTSVREFE:00000000 $t
C:\Users\DNIEL~1\AppData\Local\Temp\ccSb8sbz.s:740    .text.adcSTM32EnableTSVREFE:00000000 adcSTM32EnableTSVREFE
C:\Users\DNIEL~1\AppData\Local\Temp\ccSb8sbz.s:758    .text.adcSTM32DisableTSVREFE:00000000 $t
C:\Users\DNIEL~1\AppData\Local\Temp\ccSb8sbz.s:764    .text.adcSTM32DisableTSVREFE:00000000 adcSTM32DisableTSVREFE
C:\Users\DNIEL~1\AppData\Local\Temp\ccSb8sbz.s:782    .text.adcSTM32EnableVBATE:00000000 $t
C:\Users\DNIEL~1\AppData\Local\Temp\ccSb8sbz.s:788    .text.adcSTM32EnableVBATE:00000000 adcSTM32EnableVBATE
C:\Users\DNIEL~1\AppData\Local\Temp\ccSb8sbz.s:806    .text.adcSTM32DisableVBATE:00000000 $t
C:\Users\DNIEL~1\AppData\Local\Temp\ccSb8sbz.s:812    .text.adcSTM32DisableVBATE:00000000 adcSTM32DisableVBATE
C:\Users\DNIEL~1\AppData\Local\Temp\ccSb8sbz.s:835    .bss.ADCD2:00000000 ADCD2
C:\Users\DNIEL~1\AppData\Local\Temp\ccSb8sbz.s:831    .bss.ADCD2:00000000 $d
                     .debug_frame:00000010 $d
C:\Users\DNIEL~1\AppData\Local\Temp\ccSb8sbz.s:72     .text.adc_lld_init:00000038 $t
C:\Users\DNIEL~1\AppData\Local\Temp\ccSb8sbz.s:159    .text.adc_lld_start:00000064 $t
C:\Users\DNIEL~1\AppData\Local\Temp\ccSb8sbz.s:223    .text.adc_lld_stop:00000038 $t
C:\Users\DNIEL~1\AppData\Local\Temp\ccSb8sbz.s:733    .text.Vector88:00000074 $t

UNDEFINED SYMBOLS
adcObjectInit
nvicEnableVector
_stm32_dma_streams
dmaStreamAllocate
dmaStreamRelease
chSchReadyI
_port_irq_epilogue
