ARM GAS  C:\Users\DNIEL~1\AppData\Local\Temp\ccWhrmOY.s 			page 1


   1              		.syntax unified
   2              		.cpu cortex-m4
   3              		.fpu softvfp
   4              		.eabi_attribute 20, 1
   5              		.eabi_attribute 21, 1
   6              		.eabi_attribute 23, 3
   7              		.eabi_attribute 24, 1
   8              		.eabi_attribute 25, 1
   9              		.eabi_attribute 26, 1
  10              		.eabi_attribute 30, 2
  11              		.eabi_attribute 18, 4
  12              		.thumb
  13              		.file	"adc_lld.c"
  14              		.section	.debug_abbrev,"",%progbits
  15              	.Ldebug_abbrev0:
  16              		.section	.debug_info,"",%progbits
  17              	.Ldebug_info0:
  18              		.section	.debug_line,"",%progbits
  19              	.Ldebug_line0:
  20 0000 79040000 		.text
  20      02006402 
  20      00000201 
  20      FB0E0D00 
  20      01010101 
  21              	.Ltext0:
  22              		.cfi_sections	.debug_frame
  23              		.section	.text.adc_lld_init,"ax",%progbits
  24              		.align	2
  25              		.p2align 4,,15
  26              		.global	adc_lld_init
  27              		.thumb
  28              		.thumb_func
  29              		.type	adc_lld_init, %function
  30              	adc_lld_init:
  31              	.LFB120:
  32              		.file 1 "../../../ChibiOS/os/hal/platforms/STM32F4xx/adc_lld.c"
  33              		.loc 1 175 0
  34              		.cfi_startproc
  35              		@ args = 0, pretend = 0, frame = 0
  36              		@ frame_needed = 0, uses_anonymous_args = 0
  37 0000 10B5     		push	{r4, lr}
  38              	.LCFI0:
  39              		.cfi_def_cfa_offset 8
  40              		.loc 1 192 0
  41 0002 084C     		ldr	r4, .L2
  42              		.cfi_offset 14, -4
  43              		.cfi_offset 4, -8
  44 0004 2046     		mov	r0, r4
  45 0006 FFF7FEFF 		bl	adcObjectInit
  46              		.loc 1 193 0
  47 000a 0748     		ldr	r0, .L2+4
  48              		.loc 1 194 0
  49 000c 074A     		ldr	r2, .L2+8
  50              		.loc 1 195 0
  51 000e 084B     		ldr	r3, .L2+12
  52              		.loc 1 193 0
  53 0010 A062     		str	r0, [r4, #40]
ARM GAS  C:\Users\DNIEL~1\AppData\Local\Temp\ccWhrmOY.s 			page 2


  54              		.loc 1 218 0
  55 0012 6021     		movs	r1, #96
  56 0014 1220     		movs	r0, #18
  57              		.loc 1 194 0
  58 0016 E262     		str	r2, [r4, #44]
  59              		.loc 1 195 0
  60 0018 2363     		str	r3, [r4, #48]
  61              		.loc 1 219 0
  62 001a BDE81040 		pop	{r4, lr}
  63              		.loc 1 218 0
  64 001e FFF7FEBF 		b	nvicEnableVector
  65              	.L3:
  66 0022 00BF     		.align	2
  67              	.L2:
  68 0024 00000000 		.word	.LANCHOR0
  69 0028 00210140 		.word	1073815808
  70 002c 78000000 		.word	_stm32_dma_streams+120
  71 0030 162C0202 		.word	33696790
  72              		.cfi_endproc
  73              	.LFE120:
  74              		.size	adc_lld_init, .-adc_lld_init
  75 0034 AFF30080 		.section	.text.adc_lld_start,"ax",%progbits
  75      AFF30080 
  75      AFF30080 
  76              		.align	2
  77              		.p2align 4,,15
  78              		.global	adc_lld_start
  79              		.thumb
  80              		.thumb_func
  81              		.type	adc_lld_start, %function
  82              	adc_lld_start:
  83              	.LFB121:
  84              		.loc 1 228 0
  85              		.cfi_startproc
  86              		@ args = 0, pretend = 0, frame = 0
  87              		@ frame_needed = 0, uses_anonymous_args = 0
  88              	.LVL0:
  89              		.loc 1 231 0
  90 0000 0378     		ldrb	r3, [r0, #0]	@ zero_extendqisi2
  91 0002 012B     		cmp	r3, #1
  92              		.loc 1 228 0
  93 0004 10B5     		push	{r4, lr}
  94              	.LCFI1:
  95              		.cfi_def_cfa_offset 8
  96              		.loc 1 228 0
  97 0006 0446     		mov	r4, r0
  98              		.cfi_offset 14, -4
  99              		.cfi_offset 4, -8
 100              		.loc 1 231 0
 101 0008 00D0     		beq	.L8
 102 000a 10BD     		pop	{r4, pc}
 103              	.L8:
 104              		.loc 1 246 0
 105 000c 0E49     		ldr	r1, .L10
 106 000e 8842     		cmp	r0, r1
 107 0010 0AD0     		beq	.L9
 108              	.LVL1:
ARM GAS  C:\Users\DNIEL~1\AppData\Local\Temp\ccWhrmOY.s 			page 3


 109              	.L6:
 110              		.loc 1 273 0
 111 0012 0E49     		ldr	r1, .L10+4
 112              		.loc 1 277 0
 113 0014 A36A     		ldr	r3, [r4, #40]
 114              		.loc 1 273 0
 115 0016 4FF48030 		mov	r0, #65536
 116 001a 4860     		str	r0, [r1, #4]
 117              		.loc 1 277 0
 118 001c 0022     		movs	r2, #0
 119              		.loc 1 279 0
 120 001e 0121     		movs	r1, #1
 121              		.loc 1 277 0
 122 0020 5A60     		str	r2, [r3, #4]
 123              		.loc 1 278 0
 124 0022 9A60     		str	r2, [r3, #8]
 125              		.loc 1 279 0
 126 0024 9960     		str	r1, [r3, #8]
 127 0026 10BD     		pop	{r4, pc}
 128              	.L9:
 129              	.LBB2:
 130              		.loc 1 248 0
 131 0028 094A     		ldr	r2, .L10+8
 132 002a C06A     		ldr	r0, [r0, #44]
 133 002c 0621     		movs	r1, #6
 134 002e 2346     		mov	r3, r4
 135 0030 FFF7FEFF 		bl	dmaStreamAllocate
 136              		.loc 1 253 0
 137 0034 E06A     		ldr	r0, [r4, #44]
 138 0036 0749     		ldr	r1, .L10+12
 139 0038 0268     		ldr	r2, [r0, #0]
 140              		.loc 1 254 0
 141 003a 0748     		ldr	r0, .L10+16
 142              		.loc 1 253 0
 143 003c 9160     		str	r1, [r2, #8]
 144              		.loc 1 254 0
 145 003e 436C     		ldr	r3, [r0, #68]
 146 0040 43F40072 		orr	r2, r3, #512
 147 0044 4264     		str	r2, [r0, #68]
 148 0046 E4E7     		b	.L6
 149              	.L11:
 150              		.align	2
 151              	.L10:
 152 0048 00000000 		.word	.LANCHOR0
 153 004c 00230140 		.word	1073816320
 154 0050 00000000 		.word	adc_lld_serve_rx_interrupt
 155 0054 4C210140 		.word	1073815884
 156 0058 00380240 		.word	1073887232
 157              	.LBE2:
 158              		.cfi_endproc
 159              	.LFE121:
 160              		.size	adc_lld_start, .-adc_lld_start
 161 005c AFF30080 		.section	.text.adc_lld_stop,"ax",%progbits
 162              		.align	2
 163              		.p2align 4,,15
 164              		.global	adc_lld_stop
 165              		.thumb
ARM GAS  C:\Users\DNIEL~1\AppData\Local\Temp\ccWhrmOY.s 			page 4


 166              		.thumb_func
 167              		.type	adc_lld_stop, %function
 168              	adc_lld_stop:
 169              	.LFB122:
 170              		.loc 1 290 0
 171              		.cfi_startproc
 172              		@ args = 0, pretend = 0, frame = 0
 173              		@ frame_needed = 0, uses_anonymous_args = 0
 174              	.LVL2:
 175              		.loc 1 293 0
 176 0000 0378     		ldrb	r3, [r0, #0]	@ zero_extendqisi2
 177 0002 022B     		cmp	r3, #2
 178              		.loc 1 290 0
 179 0004 10B5     		push	{r4, lr}
 180              	.LCFI2:
 181              		.cfi_def_cfa_offset 8
 182              		.loc 1 290 0
 183 0006 0446     		mov	r4, r0
 184              		.cfi_offset 14, -4
 185              		.cfi_offset 4, -8
 186              		.loc 1 293 0
 187 0008 00D0     		beq	.L14
 188              	.LVL3:
 189              	.L12:
 190 000a 10BD     		pop	{r4, pc}
 191              	.L14:
 192              		.loc 1 294 0
 193 000c C06A     		ldr	r0, [r0, #44]
 194 000e FFF7FEFF 		bl	dmaStreamRelease
 195              		.loc 1 304 0
 196 0012 0648     		ldr	r0, .L15
 197              		.loc 1 295 0
 198 0014 A16A     		ldr	r1, [r4, #40]
 199 0016 0022     		movs	r2, #0
 200              		.loc 1 304 0
 201 0018 8442     		cmp	r4, r0
 202              		.loc 1 295 0
 203 001a 4A60     		str	r2, [r1, #4]
 204              		.loc 1 296 0
 205 001c 8A60     		str	r2, [r1, #8]
 206              		.loc 1 304 0
 207 001e F4D1     		bne	.L12
 208              		.loc 1 305 0
 209 0020 034B     		ldr	r3, .L15+4
 210 0022 5A6C     		ldr	r2, [r3, #68]
 211 0024 22F40070 		bic	r0, r2, #512
 212 0028 5864     		str	r0, [r3, #68]
 213 002a EEE7     		b	.L12
 214              	.L16:
 215              		.align	2
 216              	.L15:
 217 002c 00000000 		.word	.LANCHOR0
 218 0030 00380240 		.word	1073887232
 219              		.cfi_endproc
 220              	.LFE122:
 221              		.size	adc_lld_stop, .-adc_lld_stop
 222 0034 AFF30080 		.section	.text.adc_lld_start_conversion,"ax",%progbits
ARM GAS  C:\Users\DNIEL~1\AppData\Local\Temp\ccWhrmOY.s 			page 5


 222      AFF30080 
 222      AFF30080 
 223              		.align	2
 224              		.p2align 4,,15
 225              		.global	adc_lld_start_conversion
 226              		.thumb
 227              		.thumb_func
 228              		.type	adc_lld_start_conversion, %function
 229              	adc_lld_start_conversion:
 230              	.LFB123:
 231              		.loc 1 322 0
 232              		.cfi_startproc
 233              		@ args = 0, pretend = 0, frame = 0
 234              		@ frame_needed = 0, uses_anonymous_args = 0
 235              		@ link register save eliminated.
 236              	.LVL4:
 237              		.loc 1 324 0
 238 0000 0369     		ldr	r3, [r0, #16]
 239              	.LVL5:
 240              		.loc 1 327 0
 241 0002 026B     		ldr	r2, [r0, #48]
 242              	.LVL6:
 243              		.loc 1 328 0
 244 0004 1968     		ldr	r1, [r3, #0]
 245              		.loc 1 322 0
 246 0006 2DE9F003 		push	{r4, r5, r6, r7, r8, r9}
 247              	.LCFI3:
 248              		.cfi_def_cfa_offset 24
 249              		.loc 1 328 0
 250 000a 09B1     		cbz	r1, .L18
 251              		.cfi_offset 9, -4
 252              		.cfi_offset 8, -8
 253              		.cfi_offset 7, -12
 254              		.cfi_offset 6, -16
 255              		.cfi_offset 5, -20
 256              		.cfi_offset 4, -24
 257              		.loc 1 329 0
 258 000c 42F48072 		orr	r2, r2, #256
 259              	.LVL7:
 260              	.L18:
 261              		.loc 1 331 0
 262 0010 C768     		ldr	r7, [r0, #12]
 263              		.loc 1 336 0
 264 0012 C16A     		ldr	r1, [r0, #44]
 265              		.loc 1 337 0
 266 0014 9D88     		ldrh	r5, [r3, #4]
 267              		.loc 1 336 0
 268 0016 0968     		ldr	r1, [r1, #0]
 269 0018 8668     		ldr	r6, [r0, #8]
 270              		.loc 1 352 0
 271 001a D3F810C0 		ldr	ip, [r3, #16]
 272              		.loc 1 336 0
 273 001e CE60     		str	r6, [r1, #12]
 274              		.loc 1 331 0
 275 0020 012F     		cmp	r7, #1
 276              		.loc 1 334 0
 277 0022 88BF     		it	hi
ARM GAS  C:\Users\DNIEL~1\AppData\Local\Temp\ccWhrmOY.s 			page 6


 278 0024 42F00802 		orrhi	r2, r2, #8
 279              	.LVL8:
 280              		.loc 1 337 0
 281 0028 07FB05F4 		mul	r4, r7, r5
 282 002c 4C60     		str	r4, [r1, #4]
 283              		.loc 1 339 0
 284 002e 0A60     		str	r2, [r1, #0]
 285              		.loc 1 340 0
 286 0030 D1F80090 		ldr	r9, [r1, #0]
 287              		.loc 1 344 0
 288 0034 D3F81880 		ldr	r8, [r3, #24]
 289              		.loc 1 345 0
 290 0038 DF69     		ldr	r7, [r3, #28]
 291              		.loc 1 346 0
 292 003a 1E6A     		ldr	r6, [r3, #32]
 293              		.loc 1 347 0
 294 003c 5D6A     		ldr	r5, [r3, #36]
 295              		.loc 1 348 0
 296 003e 9C6A     		ldr	r4, [r3, #40]
 297              		.loc 1 353 0
 298 0040 5B69     		ldr	r3, [r3, #20]
 299              		.loc 1 343 0
 300 0042 826A     		ldr	r2, [r0, #40]
 301              	.LVL9:
 302              		.loc 1 340 0
 303 0044 49F00109 		orr	r9, r9, #1
 304 0048 C1F80090 		str	r9, [r1, #0]
 305              		.loc 1 352 0
 306 004c 4CF0806C 		orr	ip, ip, #67108864
 307              		.loc 1 343 0
 308 0050 0021     		movs	r1, #0
 309              		.loc 1 353 0
 310 0052 13F0804F 		tst	r3, #1073741824
 311              		.loc 1 355 0
 312 0056 43F44073 		orr	r3, r3, #768
 313              		.loc 1 352 0
 314 005a 4CF48070 		orr	r0, ip, #256
 315              	.LVL10:
 316              		.loc 1 355 0
 317 005e 14BF     		ite	ne
 318 0060 43F00303 		orrne	r3, r3, #3
 319              		.loc 1 358 0
 320 0064 43F00103 		orreq	r3, r3, #1
 321              		.loc 1 343 0
 322 0068 1160     		str	r1, [r2, #0]
 323              		.loc 1 344 0
 324 006a C2F80C80 		str	r8, [r2, #12]
 325              		.loc 1 345 0
 326 006e 1761     		str	r7, [r2, #16]
 327              		.loc 1 346 0
 328 0070 D662     		str	r6, [r2, #44]
 329              		.loc 1 347 0
 330 0072 1563     		str	r5, [r2, #48]
 331              		.loc 1 348 0
 332 0074 5463     		str	r4, [r2, #52]
 333              		.loc 1 352 0
 334 0076 5060     		str	r0, [r2, #4]
ARM GAS  C:\Users\DNIEL~1\AppData\Local\Temp\ccWhrmOY.s 			page 7


 335              		.loc 1 357 0
 336 0078 9360     		str	r3, [r2, #8]
 337              		.loc 1 359 0
 338 007a BDE8F003 		pop	{r4, r5, r6, r7, r8, r9}
 339 007e 7047     		bx	lr
 340              		.cfi_endproc
 341              	.LFE123:
 342              		.size	adc_lld_start_conversion, .-adc_lld_start_conversion
 343              		.section	.text.adc_lld_stop_conversion,"ax",%progbits
 344              		.align	2
 345              		.p2align 4,,15
 346              		.global	adc_lld_stop_conversion
 347              		.thumb
 348              		.thumb_func
 349              		.type	adc_lld_stop_conversion, %function
 350              	adc_lld_stop_conversion:
 351              	.LFB124:
 352              		.loc 1 368 0
 353              		.cfi_startproc
 354              		@ args = 0, pretend = 0, frame = 0
 355              		@ frame_needed = 0, uses_anonymous_args = 0
 356              		@ link register save eliminated.
 357              	.LVL11:
 358              		.loc 1 370 0
 359 0000 C16A     		ldr	r1, [r0, #44]
 360 0002 0A68     		ldr	r2, [r1, #0]
 361              		.loc 1 368 0
 362 0004 10B4     		push	{r4}
 363              	.LCFI4:
 364              		.cfi_def_cfa_offset 4
 365              		.loc 1 370 0
 366 0006 1468     		ldr	r4, [r2, #0]
 367              		.cfi_offset 4, -4
 368 0008 24F00103 		bic	r3, r4, #1
 369 000c 1360     		str	r3, [r2, #0]
 370              	.L23:
 371              		.loc 1 370 0 is_stmt 0 discriminator 1
 372 000e 1368     		ldr	r3, [r2, #0]
 373 0010 13F00103 		ands	r3, r3, #1
 374 0014 FBD1     		bne	.L23
 375              		.loc 1 370 0 discriminator 2
 376 0016 0C7A     		ldrb	r4, [r1, #8]	@ zero_extendqisi2
 377              		.loc 1 371 0 is_stmt 1 discriminator 2
 378 0018 826A     		ldr	r2, [r0, #40]
 379              		.loc 1 370 0 discriminator 2
 380 001a 4968     		ldr	r1, [r1, #4]
 381 001c 3D20     		movs	r0, #61
 382              	.LVL12:
 383 001e A040     		lsls	r0, r0, r4
 384 0020 0860     		str	r0, [r1, #0]
 385              		.loc 1 373 0 discriminator 2
 386 0022 0120     		movs	r0, #1
 387              		.loc 1 371 0 discriminator 2
 388 0024 5360     		str	r3, [r2, #4]
 389              		.loc 1 372 0 discriminator 2
 390 0026 9360     		str	r3, [r2, #8]
 391              		.loc 1 373 0 discriminator 2
ARM GAS  C:\Users\DNIEL~1\AppData\Local\Temp\ccWhrmOY.s 			page 8


 392 0028 9060     		str	r0, [r2, #8]
 393              		.loc 1 374 0 discriminator 2
 394 002a 10BC     		pop	{r4}
 395 002c 7047     		bx	lr
 396              		.cfi_endproc
 397              	.LFE124:
 398              		.size	adc_lld_stop_conversion, .-adc_lld_stop_conversion
 399 002e 00BF     		.section	.text.adc_lld_serve_rx_interrupt,"ax",%progbits
 400              		.align	2
 401              		.p2align 4,,15
 402              		.thumb
 403              		.thumb_func
 404              		.type	adc_lld_serve_rx_interrupt, %function
 405              	adc_lld_serve_rx_interrupt:
 406              	.LFB118:
 407              		.loc 1 80 0
 408              		.cfi_startproc
 409              		@ args = 0, pretend = 0, frame = 0
 410              		@ frame_needed = 0, uses_anonymous_args = 0
 411              	.LVL13:
 412              		.loc 1 83 0
 413 0000 11F00C0F 		tst	r1, #12
 414              		.loc 1 80 0
 415 0004 38B5     		push	{r3, r4, r5, lr}
 416              	.LCFI5:
 417              		.cfi_def_cfa_offset 16
 418              		.loc 1 80 0
 419 0006 0D46     		mov	r5, r1
 420              		.cfi_offset 14, -4
 421              		.cfi_offset 5, -8
 422              		.cfi_offset 4, -12
 423              		.cfi_offset 3, -16
 424 0008 0446     		mov	r4, r0
 425              		.loc 1 83 0
 426 000a 4CD1     		bne	.L38
 427              		.loc 1 91 0
 428 000c 0369     		ldr	r3, [r0, #16]
 429 000e 002B     		cmp	r3, #0
 430 0010 48D0     		beq	.L25
 431              		.loc 1 92 0
 432 0012 11F0100F 		tst	r1, #16
 433 0016 05D0     		beq	.L30
 434              		.loc 1 94 0
 435 0018 9B68     		ldr	r3, [r3, #8]
 436 001a 1BB1     		cbz	r3, .L30
 437              		.loc 1 94 0 is_stmt 0 discriminator 1
 438 001c C268     		ldr	r2, [r0, #12]
 439 001e 8168     		ldr	r1, [r0, #8]
 440              	.LVL14:
 441 0020 5208     		lsrs	r2, r2, #1
 442 0022 9847     		blx	r3
 443              	.LVL15:
 444              	.L30:
 445              		.loc 1 96 0 is_stmt 1
 446 0024 15F0200F 		tst	r5, #32
 447 0028 3CD0     		beq	.L25
 448              		.loc 1 98 0
ARM GAS  C:\Users\DNIEL~1\AppData\Local\Temp\ccWhrmOY.s 			page 9


 449 002a 2169     		ldr	r1, [r4, #16]
 450 002c 0B68     		ldr	r3, [r1, #0]
 451 002e 7BB1     		cbz	r3, .L31
 452              		.loc 1 98 0 is_stmt 0 discriminator 1
 453 0030 8B68     		ldr	r3, [r1, #8]
 454 0032 002B     		cmp	r3, #0
 455 0034 36D0     		beq	.L25
 456              		.loc 1 98 0 discriminator 3
 457 0036 E268     		ldr	r2, [r4, #12]
 458 0038 012A     		cmp	r2, #1
 459 003a 53D9     		bls	.L32
 460              	.LBB3:
 461              		.loc 1 98 0 discriminator 4
 462 003c 8D88     		ldrh	r5, [r1, #4]
 463              	.LVL16:
 464 003e A168     		ldr	r1, [r4, #8]
 465 0040 5208     		lsrs	r2, r2, #1
 466              	.LVL17:
 467 0042 05FB02F5 		mul	r5, r5, r2
 468 0046 2046     		mov	r0, r4
 469 0048 01EB4501 		add	r1, r1, r5, lsl #1
 470 004c 9847     		blx	r3
 471              	.LVL18:
 472 004e 38BD     		pop	{r3, r4, r5, pc}
 473              	.LVL19:
 474              	.L31:
 475              	.LBE3:
 476              		.loc 1 98 0 discriminator 2
 477 0050 2046     		mov	r0, r4
 478 0052 FFF7FEFF 		bl	adc_lld_stop_conversion
 479 0056 2169     		ldr	r1, [r4, #16]
 480 0058 8B68     		ldr	r3, [r1, #8]
 481 005a 002B     		cmp	r3, #0
 482 005c 49D0     		beq	.L33
 483              		.loc 1 98 0 discriminator 6
 484 005e E268     		ldr	r2, [r4, #12]
 485 0060 0420     		movs	r0, #4
 486 0062 012A     		cmp	r2, #1
 487 0064 2070     		strb	r0, [r4, #0]
 488 0066 47D9     		bls	.L34
 489              	.LBB4:
 490              		.loc 1 98 0 discriminator 8
 491 0068 B1F804C0 		ldrh	ip, [r1, #4]
 492 006c A168     		ldr	r1, [r4, #8]
 493 006e 5208     		lsrs	r2, r2, #1
 494              	.LVL20:
 495 0070 0CFB02F5 		mul	r5, ip, r2
 496              	.LVL21:
 497 0074 2046     		mov	r0, r4
 498 0076 01EB4501 		add	r1, r1, r5, lsl #1
 499 007a 9847     		blx	r3
 500              	.LVL22:
 501              	.L35:
 502              	.LBE4:
 503              		.loc 1 98 0 discriminator 10
 504 007c 94F800E0 		ldrb	lr, [r4, #0]	@ zero_extendqisi2
 505 0080 BEF1040F 		cmp	lr, #4
ARM GAS  C:\Users\DNIEL~1\AppData\Local\Temp\ccWhrmOY.s 			page 10


 506 0084 35D0     		beq	.L33
 507              	.L36:
 508              		.loc 1 98 0 discriminator 12
 509 0086 0022     		movs	r2, #0
 510 0088 2261     		str	r2, [r4, #16]
 511              	.LBB5:
 512 008a 2023     		movs	r3, #32
 513              	.LVL23:
 514              	@ 98 "../../../ChibiOS/os/hal/platforms/STM32F4xx/adc_lld.c" 1
 515 008c 83F31188 		msr     BASEPRI, r3
 516              	@ 0 "" 2
 517              	.LVL24:
 518              		.thumb
 519              	.LBE5:
 520 0090 6369     		ldr	r3, [r4, #20]
 521              	.LVL25:
 522 0092 23B1     		cbz	r3, .L37
 523              	.LVL26:
 524              	.LBB6:
 525              		.loc 1 98 0 discriminator 13
 526 0094 6261     		str	r2, [r4, #20]
 527 0096 1846     		mov	r0, r3
 528 0098 5A62     		str	r2, [r3, #36]
 529 009a FFF7FEFF 		bl	chSchReadyI
 530              	.LVL27:
 531              	.L37:
 532              	.LBE6:
 533              	.LBB7:
 534              		.loc 1 98 0 discriminator 14
 535 009e 0023     		movs	r3, #0
 536              	.LVL28:
 537              	@ 98 "../../../ChibiOS/os/hal/platforms/STM32F4xx/adc_lld.c" 1
 538 00a0 83F31188 		msr     BASEPRI, r3
 539              	@ 0 "" 2
 540              	.LVL29:
 541              		.thumb
 542              	.L25:
 543 00a4 38BD     		pop	{r3, r4, r5, pc}
 544              	.LVL30:
 545              	.L38:
 546              	.LBE7:
 547              		.loc 1 86 0 is_stmt 1
 548 00a6 FFF7FEFF 		bl	adc_lld_stop_conversion
 549              	.LVL31:
 550 00aa 2369     		ldr	r3, [r4, #16]
 551 00ac DB68     		ldr	r3, [r3, #12]
 552 00ae 3BB1     		cbz	r3, .L27
 553              		.loc 1 86 0 is_stmt 0 discriminator 1
 554 00b0 0522     		movs	r2, #5
 555 00b2 2046     		mov	r0, r4
 556 00b4 0021     		movs	r1, #0
 557 00b6 2270     		strb	r2, [r4, #0]
 558 00b8 9847     		blx	r3
 559 00ba 2078     		ldrb	r0, [r4, #0]	@ zero_extendqisi2
 560 00bc 0528     		cmp	r0, #5
 561 00be 15D0     		beq	.L39
 562              	.L27:
ARM GAS  C:\Users\DNIEL~1\AppData\Local\Temp\ccWhrmOY.s 			page 11


 563              		.loc 1 86 0 discriminator 2
 564 00c0 0022     		movs	r2, #0
 565 00c2 2261     		str	r2, [r4, #16]
 566              	.LBB8:
 567 00c4 2023     		movs	r3, #32
 568              	.LVL32:
 569              	@ 86 "../../../ChibiOS/os/hal/platforms/STM32F4xx/adc_lld.c" 1
 570 00c6 83F31188 		msr     BASEPRI, r3
 571              	@ 0 "" 2
 572              	.LVL33:
 573              		.thumb
 574              	.LBE8:
 575 00ca 6369     		ldr	r3, [r4, #20]
 576              	.LVL34:
 577 00cc 33B1     		cbz	r3, .L28
 578              	.LVL35:
 579              	.LBB9:
 580              		.loc 1 86 0 discriminator 4
 581 00ce 6261     		str	r2, [r4, #20]
 582 00d0 4FF0FF32 		mov	r2, #-1
 583 00d4 1846     		mov	r0, r3
 584 00d6 5A62     		str	r2, [r3, #36]
 585 00d8 FFF7FEFF 		bl	chSchReadyI
 586              	.LVL36:
 587              	.L28:
 588              	.LBE9:
 589              	.LBB10:
 590              		.loc 1 86 0 discriminator 5
 591 00dc 0023     		movs	r3, #0
 592              	.LVL37:
 593              	@ 86 "../../../ChibiOS/os/hal/platforms/STM32F4xx/adc_lld.c" 1
 594 00de 83F31188 		msr     BASEPRI, r3
 595              	@ 0 "" 2
 596              	.LVL38:
 597              		.thumb
 598 00e2 38BD     		pop	{r3, r4, r5, pc}
 599              	.LVL39:
 600              	.L32:
 601              	.LBE10:
 602              		.loc 1 98 0 is_stmt 1 discriminator 5
 603 00e4 2046     		mov	r0, r4
 604 00e6 A168     		ldr	r1, [r4, #8]
 605 00e8 9847     		blx	r3
 606 00ea 38BD     		pop	{r3, r4, r5, pc}
 607              	.L39:
 608              		.loc 1 86 0 discriminator 3
 609 00ec 0221     		movs	r1, #2
 610 00ee 2170     		strb	r1, [r4, #0]
 611 00f0 E6E7     		b	.L27
 612              	.LVL40:
 613              	.L33:
 614              		.loc 1 98 0 discriminator 7
 615 00f2 0222     		movs	r2, #2
 616 00f4 2270     		strb	r2, [r4, #0]
 617 00f6 C6E7     		b	.L36
 618              	.LVL41:
 619              	.L34:
ARM GAS  C:\Users\DNIEL~1\AppData\Local\Temp\ccWhrmOY.s 			page 12


 620              		.loc 1 98 0 is_stmt 0 discriminator 9
 621 00f8 2046     		mov	r0, r4
 622 00fa A168     		ldr	r1, [r4, #8]
 623 00fc 9847     		blx	r3
 624 00fe BDE7     		b	.L35
 625              		.cfi_endproc
 626              	.LFE118:
 627              		.size	adc_lld_serve_rx_interrupt, .-adc_lld_serve_rx_interrupt
 628              		.section	.text.Vector88,"ax",%progbits
 629              		.align	2
 630              		.p2align 4,,15
 631              		.global	Vector88
 632              		.thumb
 633              		.thumb_func
 634              		.type	Vector88, %function
 635              	Vector88:
 636              	.LFB119:
 637              		.loc 1 115 0 is_stmt 1
 638              		.cfi_startproc
 639              		@ args = 0, pretend = 0, frame = 0
 640              		@ frame_needed = 0, uses_anonymous_args = 0
 641              		.loc 1 135 0
 642 0000 1B4B     		ldr	r3, .L45
 643 0002 1A68     		ldr	r2, [r3, #0]
 644              	.LVL42:
 645              		.loc 1 136 0
 646 0004 0021     		movs	r1, #0
 647              		.loc 1 139 0
 648 0006 12F0200F 		tst	r2, #32
 649              		.loc 1 115 0
 650 000a 10B5     		push	{r4, lr}
 651              	.LCFI6:
 652              		.cfi_def_cfa_offset 8
 653              		.loc 1 136 0
 654 000c 1960     		str	r1, [r3, #0]
 655              		.loc 1 139 0
 656 000e 27D0     		beq	.L41
 657              		.cfi_offset 14, -4
 658              		.cfi_offset 4, -8
 659              		.loc 1 139 0 is_stmt 0 discriminator 1
 660 0010 184C     		ldr	r4, .L45+4
 661 0012 E16A     		ldr	r1, [r4, #44]
 662 0014 0A68     		ldr	r2, [r1, #0]
 663              	.LVL43:
 664 0016 5068     		ldr	r0, [r2, #4]
 665 0018 10B3     		cbz	r0, .L41
 666              		.loc 1 142 0 is_stmt 1
 667 001a 2369     		ldr	r3, [r4, #16]
 668 001c 03B3     		cbz	r3, .L41
 669              		.loc 1 143 0
 670 001e 2046     		mov	r0, r4
 671 0020 FFF7FEFF 		bl	adc_lld_stop_conversion
 672 0024 2069     		ldr	r0, [r4, #16]
 673 0026 C368     		ldr	r3, [r0, #12]
 674 0028 4BB1     		cbz	r3, .L42
 675              		.loc 1 143 0 is_stmt 0 discriminator 1
 676 002a 0522     		movs	r2, #5
ARM GAS  C:\Users\DNIEL~1\AppData\Local\Temp\ccWhrmOY.s 			page 13


 677 002c 0121     		movs	r1, #1
 678 002e 2270     		strb	r2, [r4, #0]
 679 0030 2046     		mov	r0, r4
 680 0032 9847     		blx	r3
 681 0034 94F800C0 		ldrb	ip, [r4, #0]	@ zero_extendqisi2
 682 0038 BCF1050F 		cmp	ip, #5
 683 003c 14D0     		beq	.L44
 684              	.L42:
 685              		.loc 1 143 0 discriminator 2
 686 003e 0022     		movs	r2, #0
 687 0040 2261     		str	r2, [r4, #16]
 688              	.LBB11:
 689 0042 2023     		movs	r3, #32
 690              	.LVL44:
 691              	@ 143 "../../../ChibiOS/os/hal/platforms/STM32F4xx/adc_lld.c" 1
 692 0044 83F31188 		msr     BASEPRI, r3
 693              	@ 0 "" 2
 694              	.LVL45:
 695              		.thumb
 696              	.LBE11:
 697 0048 6069     		ldr	r0, [r4, #20]
 698 004a 30B1     		cbz	r0, .L43
 699              	.LVL46:
 700              	.LBB12:
 701              		.loc 1 143 0 discriminator 4
 702 004c 094B     		ldr	r3, .L45+4
 703              	.LVL47:
 704 004e 4FF0FF31 		mov	r1, #-1
 705 0052 4162     		str	r1, [r0, #36]
 706 0054 5A61     		str	r2, [r3, #20]
 707 0056 FFF7FEFF 		bl	chSchReadyI
 708              	.LVL48:
 709              	.L43:
 710              	.LBE12:
 711              	.LBB13:
 712              		.loc 1 143 0 discriminator 5
 713 005a 0023     		movs	r3, #0
 714              	.LVL49:
 715              	@ 143 "../../../ChibiOS/os/hal/platforms/STM32F4xx/adc_lld.c" 1
 716 005c 83F31188 		msr     BASEPRI, r3
 717              	@ 0 "" 2
 718              	.LVL50:
 719              		.thumb
 720              	.L41:
 721              	.LBE13:
 722              		.loc 1 163 0 is_stmt 1
 723 0060 BDE81040 		pop	{r4, lr}
 724              		.loc 1 162 0
 725 0064 FFF7FEBF 		b	_port_irq_epilogue
 726              	.LVL51:
 727              	.L44:
 728              		.loc 1 143 0 discriminator 3
 729 0068 0221     		movs	r1, #2
 730 006a 2170     		strb	r1, [r4, #0]
 731 006c E7E7     		b	.L42
 732              	.L46:
 733 006e 00BF     		.align	2
ARM GAS  C:\Users\DNIEL~1\AppData\Local\Temp\ccWhrmOY.s 			page 14


 734              	.L45:
 735 0070 00210140 		.word	1073815808
 736 0074 00000000 		.word	.LANCHOR0
 737              		.cfi_endproc
 738              	.LFE119:
 739              		.size	Vector88, .-Vector88
 740 0078 AFF30080 		.section	.text.adcSTM32EnableTSVREFE,"ax",%progbits
 740      AFF30080 
 741              		.align	2
 742              		.p2align 4,,15
 743              		.global	adcSTM32EnableTSVREFE
 744              		.thumb
 745              		.thumb_func
 746              		.type	adcSTM32EnableTSVREFE, %function
 747              	adcSTM32EnableTSVREFE:
 748              	.LFB125:
 749              		.loc 1 382 0
 750              		.cfi_startproc
 751              		@ args = 0, pretend = 0, frame = 0
 752              		@ frame_needed = 0, uses_anonymous_args = 0
 753              		@ link register save eliminated.
 754              		.loc 1 384 0
 755 0000 024B     		ldr	r3, .L48
 756 0002 5868     		ldr	r0, [r3, #4]
 757 0004 40F40002 		orr	r2, r0, #8388608
 758 0008 5A60     		str	r2, [r3, #4]
 759              		.loc 1 385 0
 760 000a 7047     		bx	lr
 761              	.L49:
 762              		.align	2
 763              	.L48:
 764 000c 00230140 		.word	1073816320
 765              		.cfi_endproc
 766              	.LFE125:
 767              		.size	adcSTM32EnableTSVREFE, .-adcSTM32EnableTSVREFE
 768              		.section	.text.adcSTM32DisableTSVREFE,"ax",%progbits
 769              		.align	2
 770              		.p2align 4,,15
 771              		.global	adcSTM32DisableTSVREFE
 772              		.thumb
 773              		.thumb_func
 774              		.type	adcSTM32DisableTSVREFE, %function
 775              	adcSTM32DisableTSVREFE:
 776              	.LFB126:
 777              		.loc 1 393 0
 778              		.cfi_startproc
 779              		@ args = 0, pretend = 0, frame = 0
 780              		@ frame_needed = 0, uses_anonymous_args = 0
 781              		@ link register save eliminated.
 782              		.loc 1 395 0
 783 0000 024B     		ldr	r3, .L51
 784 0002 5868     		ldr	r0, [r3, #4]
 785 0004 20F40002 		bic	r2, r0, #8388608
 786 0008 5A60     		str	r2, [r3, #4]
 787              		.loc 1 396 0
 788 000a 7047     		bx	lr
 789              	.L52:
ARM GAS  C:\Users\DNIEL~1\AppData\Local\Temp\ccWhrmOY.s 			page 15


 790              		.align	2
 791              	.L51:
 792 000c 00230140 		.word	1073816320
 793              		.cfi_endproc
 794              	.LFE126:
 795              		.size	adcSTM32DisableTSVREFE, .-adcSTM32DisableTSVREFE
 796              		.section	.text.adcSTM32EnableVBATE,"ax",%progbits
 797              		.align	2
 798              		.p2align 4,,15
 799              		.global	adcSTM32EnableVBATE
 800              		.thumb
 801              		.thumb_func
 802              		.type	adcSTM32EnableVBATE, %function
 803              	adcSTM32EnableVBATE:
 804              	.LFB127:
 805              		.loc 1 403 0
 806              		.cfi_startproc
 807              		@ args = 0, pretend = 0, frame = 0
 808              		@ frame_needed = 0, uses_anonymous_args = 0
 809              		@ link register save eliminated.
 810              		.loc 1 405 0
 811 0000 024B     		ldr	r3, .L54
 812 0002 5868     		ldr	r0, [r3, #4]
 813 0004 40F48002 		orr	r2, r0, #4194304
 814 0008 5A60     		str	r2, [r3, #4]
 815              		.loc 1 406 0
 816 000a 7047     		bx	lr
 817              	.L55:
 818              		.align	2
 819              	.L54:
 820 000c 00230140 		.word	1073816320
 821              		.cfi_endproc
 822              	.LFE127:
 823              		.size	adcSTM32EnableVBATE, .-adcSTM32EnableVBATE
 824              		.section	.text.adcSTM32DisableVBATE,"ax",%progbits
 825              		.align	2
 826              		.p2align 4,,15
 827              		.global	adcSTM32DisableVBATE
 828              		.thumb
 829              		.thumb_func
 830              		.type	adcSTM32DisableVBATE, %function
 831              	adcSTM32DisableVBATE:
 832              	.LFB128:
 833              		.loc 1 413 0
 834              		.cfi_startproc
 835              		@ args = 0, pretend = 0, frame = 0
 836              		@ frame_needed = 0, uses_anonymous_args = 0
 837              		@ link register save eliminated.
 838              		.loc 1 415 0
 839 0000 024B     		ldr	r3, .L57
 840 0002 5868     		ldr	r0, [r3, #4]
 841 0004 20F48002 		bic	r2, r0, #4194304
 842 0008 5A60     		str	r2, [r3, #4]
 843              		.loc 1 416 0
 844 000a 7047     		bx	lr
 845              	.L58:
 846              		.align	2
ARM GAS  C:\Users\DNIEL~1\AppData\Local\Temp\ccWhrmOY.s 			page 16


 847              	.L57:
 848 000c 00230140 		.word	1073816320
 849              		.cfi_endproc
 850              	.LFE128:
 851              		.size	adcSTM32DisableVBATE, .-adcSTM32DisableVBATE
 852              		.global	ADCD2
 853              		.section	.bss.ADCD2,"aw",%nobits
 854              		.align	2
 855              		.set	.LANCHOR0,. + 0
 856              		.type	ADCD2, %object
 857              		.size	ADCD2, 52
 858              	ADCD2:
 859 0000 00000000 		.space	52
 859      00000000 
 859      00000000 
 859      00000000 
 859      00000000 
 860              		.text
 861              	.Letext0:
 862              		.section	.debug_loc,"",%progbits
 863              	.Ldebug_loc0:
 864              	.LLST0:
 865 0000 00000000 		.4byte	.LFB120
 866 0004 02000000 		.4byte	.LCFI0
 867 0008 0200     		.2byte	0x2
 868 000a 7D       		.byte	0x7d
 869 000b 00       		.sleb128 0
 870 000c 02000000 		.4byte	.LCFI0
 871 0010 34000000 		.4byte	.LFE120
 872 0014 0200     		.2byte	0x2
 873 0016 7D       		.byte	0x7d
 874 0017 08       		.sleb128 8
 875 0018 00000000 		.4byte	0x0
 876 001c 00000000 		.4byte	0x0
 877              	.LLST1:
 878 0020 00000000 		.4byte	.LFB121
 879 0024 06000000 		.4byte	.LCFI1
 880 0028 0200     		.2byte	0x2
 881 002a 7D       		.byte	0x7d
 882 002b 00       		.sleb128 0
 883 002c 06000000 		.4byte	.LCFI1
 884 0030 5C000000 		.4byte	.LFE121
 885 0034 0200     		.2byte	0x2
 886 0036 7D       		.byte	0x7d
 887 0037 08       		.sleb128 8
 888 0038 00000000 		.4byte	0x0
 889 003c 00000000 		.4byte	0x0
 890              	.LLST2:
 891 0040 00000000 		.4byte	.LVL0
 892 0044 12000000 		.4byte	.LVL1
 893 0048 0100     		.2byte	0x1
 894 004a 50       		.byte	0x50
 895 004b 12000000 		.4byte	.LVL1
 896 004f 5C000000 		.4byte	.LFE121
 897 0053 0100     		.2byte	0x1
 898 0055 54       		.byte	0x54
 899 0056 00000000 		.4byte	0x0
ARM GAS  C:\Users\DNIEL~1\AppData\Local\Temp\ccWhrmOY.s 			page 17


 900 005a 00000000 		.4byte	0x0
 901              	.LLST3:
 902 005e 00000000 		.4byte	.LFB122
 903 0062 06000000 		.4byte	.LCFI2
 904 0066 0200     		.2byte	0x2
 905 0068 7D       		.byte	0x7d
 906 0069 00       		.sleb128 0
 907 006a 06000000 		.4byte	.LCFI2
 908 006e 34000000 		.4byte	.LFE122
 909 0072 0200     		.2byte	0x2
 910 0074 7D       		.byte	0x7d
 911 0075 08       		.sleb128 8
 912 0076 00000000 		.4byte	0x0
 913 007a 00000000 		.4byte	0x0
 914              	.LLST4:
 915 007e 00000000 		.4byte	.LVL2
 916 0082 0A000000 		.4byte	.LVL3
 917 0086 0100     		.2byte	0x1
 918 0088 50       		.byte	0x50
 919 0089 0A000000 		.4byte	.LVL3
 920 008d 34000000 		.4byte	.LFE122
 921 0091 0100     		.2byte	0x1
 922 0093 54       		.byte	0x54
 923 0094 00000000 		.4byte	0x0
 924 0098 00000000 		.4byte	0x0
 925              	.LLST5:
 926 009c 00000000 		.4byte	.LFB123
 927 00a0 0A000000 		.4byte	.LCFI3
 928 00a4 0200     		.2byte	0x2
 929 00a6 7D       		.byte	0x7d
 930 00a7 00       		.sleb128 0
 931 00a8 0A000000 		.4byte	.LCFI3
 932 00ac 80000000 		.4byte	.LFE123
 933 00b0 0200     		.2byte	0x2
 934 00b2 7D       		.byte	0x7d
 935 00b3 18       		.sleb128 24
 936 00b4 00000000 		.4byte	0x0
 937 00b8 00000000 		.4byte	0x0
 938              	.LLST6:
 939 00bc 00000000 		.4byte	.LVL4
 940 00c0 5E000000 		.4byte	.LVL10
 941 00c4 0100     		.2byte	0x1
 942 00c6 50       		.byte	0x50
 943 00c7 00000000 		.4byte	0x0
 944 00cb 00000000 		.4byte	0x0
 945              	.LLST7:
 946 00cf 04000000 		.4byte	.LVL6
 947 00d3 10000000 		.4byte	.LVL7
 948 00d7 0200     		.2byte	0x2
 949 00d9 70       		.byte	0x70
 950 00da 30       		.sleb128 48
 951 00db 10000000 		.4byte	.LVL7
 952 00df 28000000 		.4byte	.LVL8
 953 00e3 0100     		.2byte	0x1
 954 00e5 52       		.byte	0x52
 955 00e6 28000000 		.4byte	.LVL8
 956 00ea 44000000 		.4byte	.LVL9
ARM GAS  C:\Users\DNIEL~1\AppData\Local\Temp\ccWhrmOY.s 			page 18


 957 00ee 0100     		.2byte	0x1
 958 00f0 52       		.byte	0x52
 959 00f1 44000000 		.4byte	.LVL9
 960 00f5 5E000000 		.4byte	.LVL10
 961 00f9 0400     		.2byte	0x4
 962 00fb 70       		.byte	0x70
 963 00fc 2C       		.sleb128 44
 964 00fd 06       		.byte	0x6
 965 00fe 06       		.byte	0x6
 966 00ff 00000000 		.4byte	0x0
 967 0103 00000000 		.4byte	0x0
 968              	.LLST8:
 969 0107 02000000 		.4byte	.LVL5
 970 010b 5E000000 		.4byte	.LVL10
 971 010f 0200     		.2byte	0x2
 972 0111 70       		.byte	0x70
 973 0112 10       		.sleb128 16
 974 0113 00000000 		.4byte	0x0
 975 0117 00000000 		.4byte	0x0
 976              	.LLST9:
 977 011b 00000000 		.4byte	.LFB124
 978 011f 06000000 		.4byte	.LCFI4
 979 0123 0200     		.2byte	0x2
 980 0125 7D       		.byte	0x7d
 981 0126 00       		.sleb128 0
 982 0127 06000000 		.4byte	.LCFI4
 983 012b 2E000000 		.4byte	.LFE124
 984 012f 0200     		.2byte	0x2
 985 0131 7D       		.byte	0x7d
 986 0132 04       		.sleb128 4
 987 0133 00000000 		.4byte	0x0
 988 0137 00000000 		.4byte	0x0
 989              	.LLST10:
 990 013b 00000000 		.4byte	.LVL11
 991 013f 1E000000 		.4byte	.LVL12
 992 0143 0100     		.2byte	0x1
 993 0145 50       		.byte	0x50
 994 0146 00000000 		.4byte	0x0
 995 014a 00000000 		.4byte	0x0
 996              	.LLST11:
 997 014e 00000000 		.4byte	.LFB118
 998 0152 06000000 		.4byte	.LCFI5
 999 0156 0200     		.2byte	0x2
 1000 0158 7D       		.byte	0x7d
 1001 0159 00       		.sleb128 0
 1002 015a 06000000 		.4byte	.LCFI5
 1003 015e 00010000 		.4byte	.LFE118
 1004 0162 0200     		.2byte	0x2
 1005 0164 7D       		.byte	0x7d
 1006 0165 10       		.sleb128 16
 1007 0166 00000000 		.4byte	0x0
 1008 016a 00000000 		.4byte	0x0
 1009              	.LLST12:
 1010 016e 00000000 		.4byte	.LVL13
 1011 0172 23000000 		.4byte	.LVL15-1
 1012 0176 0100     		.2byte	0x1
 1013 0178 50       		.byte	0x50
ARM GAS  C:\Users\DNIEL~1\AppData\Local\Temp\ccWhrmOY.s 			page 19


 1014 0179 23000000 		.4byte	.LVL15-1
 1015 017d 00010000 		.4byte	.LFE118
 1016 0181 0100     		.2byte	0x1
 1017 0183 54       		.byte	0x54
 1018 0184 00000000 		.4byte	0x0
 1019 0188 00000000 		.4byte	0x0
 1020              	.LLST13:
 1021 018c 00000000 		.4byte	.LVL13
 1022 0190 20000000 		.4byte	.LVL14
 1023 0194 0100     		.2byte	0x1
 1024 0196 51       		.byte	0x51
 1025 0197 20000000 		.4byte	.LVL14
 1026 019b 3E000000 		.4byte	.LVL16
 1027 019f 0100     		.2byte	0x1
 1028 01a1 55       		.byte	0x55
 1029 01a2 50000000 		.4byte	.LVL19
 1030 01a6 74000000 		.4byte	.LVL21
 1031 01aa 0100     		.2byte	0x1
 1032 01ac 55       		.byte	0x55
 1033 01ad A6000000 		.4byte	.LVL30
 1034 01b1 A9000000 		.4byte	.LVL31-1
 1035 01b5 0100     		.2byte	0x1
 1036 01b7 51       		.byte	0x51
 1037 01b8 A9000000 		.4byte	.LVL31-1
 1038 01bc F2000000 		.4byte	.LVL40
 1039 01c0 0100     		.2byte	0x1
 1040 01c2 55       		.byte	0x55
 1041 01c3 F8000000 		.4byte	.LVL41
 1042 01c7 00010000 		.4byte	.LFE118
 1043 01cb 0100     		.2byte	0x1
 1044 01cd 55       		.byte	0x55
 1045 01ce 00000000 		.4byte	0x0
 1046 01d2 00000000 		.4byte	0x0
 1047              	.LLST14:
 1048 01d6 42000000 		.4byte	.LVL17
 1049 01da 4D000000 		.4byte	.LVL18-1
 1050 01de 0100     		.2byte	0x1
 1051 01e0 52       		.byte	0x52
 1052 01e1 00000000 		.4byte	0x0
 1053 01e5 00000000 		.4byte	0x0
 1054              	.LLST15:
 1055 01e9 70000000 		.4byte	.LVL20
 1056 01ed 7B000000 		.4byte	.LVL22-1
 1057 01f1 0100     		.2byte	0x1
 1058 01f3 52       		.byte	0x52
 1059 01f4 00000000 		.4byte	0x0
 1060 01f8 00000000 		.4byte	0x0
 1061              	.LLST16:
 1062 01fc 90000000 		.4byte	.LVL24
 1063 0200 92000000 		.4byte	.LVL25
 1064 0204 0100     		.2byte	0x1
 1065 0206 53       		.byte	0x53
 1066 0207 00000000 		.4byte	0x0
 1067 020b 00000000 		.4byte	0x0
 1068              	.LLST17:
 1069 020f 94000000 		.4byte	.LVL26
 1070 0213 9D000000 		.4byte	.LVL27-1
ARM GAS  C:\Users\DNIEL~1\AppData\Local\Temp\ccWhrmOY.s 			page 20


 1071 0217 0200     		.2byte	0x2
 1072 0219 74       		.byte	0x74
 1073 021a 14       		.sleb128 20
 1074 021b 00000000 		.4byte	0x0
 1075 021f 00000000 		.4byte	0x0
 1076              	.LLST18:
 1077 0223 A4000000 		.4byte	.LVL29
 1078 0227 A6000000 		.4byte	.LVL30
 1079 022b 0100     		.2byte	0x1
 1080 022d 53       		.byte	0x53
 1081 022e 00000000 		.4byte	0x0
 1082 0232 00000000 		.4byte	0x0
 1083              	.LLST19:
 1084 0236 CA000000 		.4byte	.LVL33
 1085 023a CC000000 		.4byte	.LVL34
 1086 023e 0100     		.2byte	0x1
 1087 0240 53       		.byte	0x53
 1088 0241 00000000 		.4byte	0x0
 1089 0245 00000000 		.4byte	0x0
 1090              	.LLST20:
 1091 0249 CE000000 		.4byte	.LVL35
 1092 024d DB000000 		.4byte	.LVL36-1
 1093 0251 0200     		.2byte	0x2
 1094 0253 74       		.byte	0x74
 1095 0254 14       		.sleb128 20
 1096 0255 00000000 		.4byte	0x0
 1097 0259 00000000 		.4byte	0x0
 1098              	.LLST21:
 1099 025d E2000000 		.4byte	.LVL38
 1100 0261 E4000000 		.4byte	.LVL39
 1101 0265 0100     		.2byte	0x1
 1102 0267 53       		.byte	0x53
 1103 0268 00000000 		.4byte	0x0
 1104 026c 00000000 		.4byte	0x0
 1105              	.LLST22:
 1106 0270 00000000 		.4byte	.LFB119
 1107 0274 0C000000 		.4byte	.LCFI6
 1108 0278 0200     		.2byte	0x2
 1109 027a 7D       		.byte	0x7d
 1110 027b 00       		.sleb128 0
 1111 027c 0C000000 		.4byte	.LCFI6
 1112 0280 78000000 		.4byte	.LFE119
 1113 0284 0200     		.2byte	0x2
 1114 0286 7D       		.byte	0x7d
 1115 0287 08       		.sleb128 8
 1116 0288 00000000 		.4byte	0x0
 1117 028c 00000000 		.4byte	0x0
 1118              	.LLST23:
 1119 0290 04000000 		.4byte	.LVL42
 1120 0294 16000000 		.4byte	.LVL43
 1121 0298 0100     		.2byte	0x1
 1122 029a 52       		.byte	0x52
 1123 029b 00000000 		.4byte	0x0
 1124 029f 00000000 		.4byte	0x0
 1125              	.LLST24:
 1126 02a3 48000000 		.4byte	.LVL45
 1127 02a7 4E000000 		.4byte	.LVL47
ARM GAS  C:\Users\DNIEL~1\AppData\Local\Temp\ccWhrmOY.s 			page 21


 1128 02ab 0100     		.2byte	0x1
 1129 02ad 53       		.byte	0x53
 1130 02ae 5A000000 		.4byte	.LVL48
 1131 02b2 5C000000 		.4byte	.LVL49
 1132 02b6 0100     		.2byte	0x1
 1133 02b8 53       		.byte	0x53
 1134 02b9 00000000 		.4byte	0x0
 1135 02bd 00000000 		.4byte	0x0
 1136              	.LLST25:
 1137 02c1 4C000000 		.4byte	.LVL46
 1138 02c5 59000000 		.4byte	.LVL48-1
 1139 02c9 0500     		.2byte	0x5
 1140 02cb 03       		.byte	0x3
 1141 02cc 14000000 		.4byte	ADCD2+20
 1142 02d0 00000000 		.4byte	0x0
 1143 02d4 00000000 		.4byte	0x0
 1144              	.LLST26:
 1145 02d8 60000000 		.4byte	.LVL50
 1146 02dc 67000000 		.4byte	.LVL51-1
 1147 02e0 0100     		.2byte	0x1
 1148 02e2 53       		.byte	0x53
 1149 02e3 00000000 		.4byte	0x0
 1150 02e7 00000000 		.4byte	0x0
 1151              		.file 2 "c:\\program files (x86)\\codesourcery\\sourcery g++ lite\\bin\\../lib/gcc/arm-none-eabi/4
 1152              		.file 3 "c:\\program files (x86)\\codesourcery\\sourcery g++ lite\\bin\\../lib/gcc/arm-none-eabi/4
 1153              		.file 4 "../../../ChibiOS/os/ports/GCC/ARMCMx/chtypes.h"
 1154              		.file 5 "../../../ChibiOS/os/kernel/include/chlists.h"
 1155              		.file 6 "../../../ChibiOS/os/kernel/include/chthreads.h"
 1156              		.file 7 "../../../ChibiOS/os/ports/GCC/ARMCMx/chcore_v7m.h"
 1157              		.file 8 "../../../ChibiOS/os/kernel/include/chmtx.h"
 1158              		.file 9 "../../../ChibiOS/os/hal/platforms/STM32F4xx/stm32f4xx.h"
 1159              		.file 10 "../../../ChibiOS/os/hal/platforms/STM32F4xx/stm32_dma.h"
 1160              		.file 11 "../../../ChibiOS/os/hal/include/adc.h"
 1161              		.file 12 "../../../ChibiOS/os/hal/platforms/STM32F4xx/adc_lld.h"
 1162              		.file 13 "../../../ChibiOS/os/ports/common/ARMCMx/CMSIS/include/core_cm4.h"
 1163              		.section	.debug_info
 1164 0000 6F100000 		.4byte	0x106f
 1165 0004 0200     		.2byte	0x2
 1166 0006 00000000 		.4byte	.Ldebug_abbrev0
 1167 000a 04       		.byte	0x4
 1168 000b 01       		.uleb128 0x1
 1169 000c 69080000 		.4byte	.LASF256
 1170 0010 01       		.byte	0x1
 1171 0011 C2030000 		.4byte	.LASF257
 1172 0015 91060000 		.4byte	.LASF258
 1173 0019 00000000 		.4byte	0x0
 1174 001d 00000000 		.4byte	0x0
 1175 0021 00000000 		.4byte	.Ldebug_ranges0+0x0
 1176 0025 00000000 		.4byte	.Ldebug_line0
 1177 0029 02       		.uleb128 0x2
 1178 002a 04       		.byte	0x4
 1179 002b 05       		.byte	0x5
 1180 002c 696E7400 		.ascii	"int\000"
 1181 0030 03       		.uleb128 0x3
 1182 0031 05000000 		.4byte	.LASF2
 1183 0035 02       		.byte	0x2
 1184 0036 D3       		.byte	0xd3
ARM GAS  C:\Users\DNIEL~1\AppData\Local\Temp\ccWhrmOY.s 			page 22


 1185 0037 3B000000 		.4byte	0x3b
 1186 003b 04       		.uleb128 0x4
 1187 003c 04       		.byte	0x4
 1188 003d 07       		.byte	0x7
 1189 003e 0D070000 		.4byte	.LASF0
 1190 0042 04       		.uleb128 0x4
 1191 0043 01       		.byte	0x1
 1192 0044 06       		.byte	0x6
 1193 0045 44020000 		.4byte	.LASF1
 1194 0049 03       		.uleb128 0x3
 1195 004a 5A020000 		.4byte	.LASF3
 1196 004e 03       		.byte	0x3
 1197 004f 2A       		.byte	0x2a
 1198 0050 54000000 		.4byte	0x54
 1199 0054 04       		.uleb128 0x4
 1200 0055 01       		.byte	0x1
 1201 0056 08       		.byte	0x8
 1202 0057 9C020000 		.4byte	.LASF4
 1203 005b 04       		.uleb128 0x4
 1204 005c 02       		.byte	0x2
 1205 005d 05       		.byte	0x5
 1206 005e 000A0000 		.4byte	.LASF5
 1207 0062 03       		.uleb128 0x3
 1208 0063 94080000 		.4byte	.LASF6
 1209 0067 03       		.byte	0x3
 1210 0068 36       		.byte	0x36
 1211 0069 6D000000 		.4byte	0x6d
 1212 006d 04       		.uleb128 0x4
 1213 006e 02       		.byte	0x2
 1214 006f 07       		.byte	0x7
 1215 0070 110B0000 		.4byte	.LASF7
 1216 0074 03       		.uleb128 0x3
 1217 0075 87000000 		.4byte	.LASF8
 1218 0079 03       		.byte	0x3
 1219 007a 4F       		.byte	0x4f
 1220 007b 7F000000 		.4byte	0x7f
 1221 007f 04       		.uleb128 0x4
 1222 0080 04       		.byte	0x4
 1223 0081 05       		.byte	0x5
 1224 0082 88010000 		.4byte	.LASF9
 1225 0086 03       		.uleb128 0x3
 1226 0087 B30A0000 		.4byte	.LASF10
 1227 008b 03       		.byte	0x3
 1228 008c 50       		.byte	0x50
 1229 008d 91000000 		.4byte	0x91
 1230 0091 04       		.uleb128 0x4
 1231 0092 04       		.byte	0x4
 1232 0093 07       		.byte	0x7
 1233 0094 C1040000 		.4byte	.LASF11
 1234 0098 04       		.uleb128 0x4
 1235 0099 08       		.byte	0x8
 1236 009a 05       		.byte	0x5
 1237 009b F0050000 		.4byte	.LASF12
 1238 009f 04       		.uleb128 0x4
 1239 00a0 08       		.byte	0x8
 1240 00a1 07       		.byte	0x7
 1241 00a2 75080000 		.4byte	.LASF13
ARM GAS  C:\Users\DNIEL~1\AppData\Local\Temp\ccWhrmOY.s 			page 23


 1242 00a6 03       		.uleb128 0x3
 1243 00a7 420A0000 		.4byte	.LASF14
 1244 00ab 04       		.byte	0x4
 1245 00ac 27       		.byte	0x27
 1246 00ad 74000000 		.4byte	0x74
 1247 00b1 03       		.uleb128 0x3
 1248 00b2 6F090000 		.4byte	.LASF15
 1249 00b6 04       		.byte	0x4
 1250 00b7 28       		.byte	0x28
 1251 00b8 49000000 		.4byte	0x49
 1252 00bc 03       		.uleb128 0x3
 1253 00bd B9010000 		.4byte	.LASF16
 1254 00c1 04       		.byte	0x4
 1255 00c2 29       		.byte	0x29
 1256 00c3 49000000 		.4byte	0x49
 1257 00c7 03       		.uleb128 0x3
 1258 00c8 840A0000 		.4byte	.LASF17
 1259 00cc 04       		.byte	0x4
 1260 00cd 2A       		.byte	0x2a
 1261 00ce 49000000 		.4byte	0x49
 1262 00d2 03       		.uleb128 0x3
 1263 00d3 C8080000 		.4byte	.LASF18
 1264 00d7 04       		.byte	0x4
 1265 00d8 2B       		.byte	0x2b
 1266 00d9 49000000 		.4byte	0x49
 1267 00dd 03       		.uleb128 0x3
 1268 00de 57000000 		.4byte	.LASF19
 1269 00e2 04       		.byte	0x4
 1270 00e3 2C       		.byte	0x2c
 1271 00e4 86000000 		.4byte	0x86
 1272 00e8 03       		.uleb128 0x3
 1273 00e9 9D080000 		.4byte	.LASF20
 1274 00ed 04       		.byte	0x4
 1275 00ee 2D       		.byte	0x2d
 1276 00ef 74000000 		.4byte	0x74
 1277 00f3 03       		.uleb128 0x3
 1278 00f4 62020000 		.4byte	.LASF21
 1279 00f8 04       		.byte	0x4
 1280 00f9 2F       		.byte	0x2f
 1281 00fa 86000000 		.4byte	0x86
 1282 00fe 03       		.uleb128 0x3
 1283 00ff 3C000000 		.4byte	.LASF22
 1284 0103 04       		.byte	0x4
 1285 0104 31       		.byte	0x31
 1286 0105 86000000 		.4byte	0x86
 1287 0109 03       		.uleb128 0x3
 1288 010a 580A0000 		.4byte	.LASF23
 1289 010e 05       		.byte	0x5
 1290 010f 23       		.byte	0x23
 1291 0110 14010000 		.4byte	0x114
 1292 0114 05       		.uleb128 0x5
 1293 0115 580A0000 		.4byte	.LASF23
 1294 0119 48       		.byte	0x48
 1295 011a 06       		.byte	0x6
 1296 011b 57       		.byte	0x57
 1297 011c 39020000 		.4byte	0x239
 1298 0120 06       		.uleb128 0x6
ARM GAS  C:\Users\DNIEL~1\AppData\Local\Temp\ccWhrmOY.s 			page 24


 1299 0121 91010000 		.4byte	.LASF24
 1300 0125 06       		.byte	0x6
 1301 0126 58       		.byte	0x58
 1302 0127 5E020000 		.4byte	0x25e
 1303 012b 02       		.byte	0x2
 1304 012c 23       		.byte	0x23
 1305 012d 00       		.uleb128 0x0
 1306 012e 06       		.uleb128 0x6
 1307 012f 98010000 		.4byte	.LASF25
 1308 0133 06       		.byte	0x6
 1309 0134 5A       		.byte	0x5a
 1310 0135 5E020000 		.4byte	0x25e
 1311 0139 02       		.byte	0x2
 1312 013a 23       		.byte	0x23
 1313 013b 04       		.uleb128 0x4
 1314 013c 06       		.uleb128 0x6
 1315 013d 5B030000 		.4byte	.LASF26
 1316 0141 06       		.byte	0x6
 1317 0142 5C       		.byte	0x5c
 1318 0143 DD000000 		.4byte	0xdd
 1319 0147 02       		.byte	0x2
 1320 0148 23       		.byte	0x23
 1321 0149 08       		.uleb128 0x8
 1322 014a 06       		.uleb128 0x6
 1323 014b 51000000 		.4byte	.LASF27
 1324 014f 06       		.byte	0x6
 1325 0150 5D       		.byte	0x5d
 1326 0151 2C030000 		.4byte	0x32c
 1327 0155 02       		.byte	0x2
 1328 0156 23       		.byte	0x23
 1329 0157 0C       		.uleb128 0xc
 1330 0158 06       		.uleb128 0x6
 1331 0159 80010000 		.4byte	.LASF28
 1332 015d 06       		.byte	0x6
 1333 015e 5F       		.byte	0x5f
 1334 015f 5E020000 		.4byte	0x25e
 1335 0163 02       		.byte	0x2
 1336 0164 23       		.byte	0x23
 1337 0165 10       		.uleb128 0x10
 1338 0166 06       		.uleb128 0x6
 1339 0167 8C080000 		.4byte	.LASF29
 1340 016b 06       		.byte	0x6
 1341 016c 60       		.byte	0x60
 1342 016d 5E020000 		.4byte	0x25e
 1343 0171 02       		.byte	0x2
 1344 0172 23       		.byte	0x23
 1345 0173 14       		.uleb128 0x14
 1346 0174 06       		.uleb128 0x6
 1347 0175 980B0000 		.4byte	.LASF30
 1348 0179 06       		.byte	0x6
 1349 017a 67       		.byte	0x67
 1350 017b D6030000 		.4byte	0x3d6
 1351 017f 02       		.byte	0x2
 1352 0180 23       		.byte	0x23
 1353 0181 18       		.uleb128 0x18
 1354 0182 06       		.uleb128 0x6
 1355 0183 E70B0000 		.4byte	.LASF31
ARM GAS  C:\Users\DNIEL~1\AppData\Local\Temp\ccWhrmOY.s 			page 25


 1356 0187 06       		.byte	0x6
 1357 0188 72       		.byte	0x72
 1358 0189 BC000000 		.4byte	0xbc
 1359 018d 02       		.byte	0x2
 1360 018e 23       		.byte	0x23
 1361 018f 1C       		.uleb128 0x1c
 1362 0190 06       		.uleb128 0x6
 1363 0191 FB060000 		.4byte	.LASF32
 1364 0195 06       		.byte	0x6
 1365 0196 76       		.byte	0x76
 1366 0197 B1000000 		.4byte	0xb1
 1367 019b 02       		.byte	0x2
 1368 019c 23       		.byte	0x23
 1369 019d 1D       		.uleb128 0x1d
 1370 019e 06       		.uleb128 0x6
 1371 019f 50070000 		.4byte	.LASF33
 1372 01a3 06       		.byte	0x6
 1373 01a4 7B       		.byte	0x7b
 1374 01a5 C7000000 		.4byte	0xc7
 1375 01a9 02       		.byte	0x2
 1376 01aa 23       		.byte	0x23
 1377 01ab 1E       		.uleb128 0x1e
 1378 01ac 06       		.uleb128 0x6
 1379 01ad 50020000 		.4byte	.LASF34
 1380 01b1 06       		.byte	0x6
 1381 01b2 81       		.byte	0x81
 1382 01b3 D2000000 		.4byte	0xd2
 1383 01b7 02       		.byte	0x2
 1384 01b8 23       		.byte	0x23
 1385 01b9 1F       		.uleb128 0x1f
 1386 01ba 06       		.uleb128 0x6
 1387 01bb DC070000 		.4byte	.LASF35
 1388 01bf 06       		.byte	0x6
 1389 01c0 88       		.byte	0x88
 1390 01c1 54030000 		.4byte	0x354
 1391 01c5 02       		.byte	0x2
 1392 01c6 23       		.byte	0x23
 1393 01c7 20       		.uleb128 0x20
 1394 01c8 07       		.uleb128 0x7
 1395 01c9 705F7500 		.ascii	"p_u\000"
 1396 01cd 06       		.byte	0x6
 1397 01ce AD       		.byte	0xad
 1398 01cf A1030000 		.4byte	0x3a1
 1399 01d3 02       		.byte	0x2
 1400 01d4 23       		.byte	0x23
 1401 01d5 24       		.uleb128 0x24
 1402 01d6 06       		.uleb128 0x6
 1403 01d7 E0060000 		.4byte	.LASF36
 1404 01db 06       		.byte	0x6
 1405 01dc B2       		.byte	0xb2
 1406 01dd 86020000 		.4byte	0x286
 1407 01e1 02       		.byte	0x2
 1408 01e2 23       		.byte	0x23
 1409 01e3 28       		.uleb128 0x28
 1410 01e4 06       		.uleb128 0x6
 1411 01e5 7C000000 		.4byte	.LASF37
 1412 01e9 06       		.byte	0x6
ARM GAS  C:\Users\DNIEL~1\AppData\Local\Temp\ccWhrmOY.s 			page 26


 1413 01ea B8       		.byte	0xb8
 1414 01eb 64020000 		.4byte	0x264
 1415 01ef 02       		.byte	0x2
 1416 01f0 23       		.byte	0x23
 1417 01f1 2C       		.uleb128 0x2c
 1418 01f2 06       		.uleb128 0x6
 1419 01f3 D70B0000 		.4byte	.LASF38
 1420 01f7 06       		.byte	0x6
 1421 01f8 BC       		.byte	0xbc
 1422 01f9 E8000000 		.4byte	0xe8
 1423 01fd 02       		.byte	0x2
 1424 01fe 23       		.byte	0x23
 1425 01ff 34       		.uleb128 0x34
 1426 0200 06       		.uleb128 0x6
 1427 0201 18040000 		.4byte	.LASF39
 1428 0205 06       		.byte	0x6
 1429 0206 C2       		.byte	0xc2
 1430 0207 F3000000 		.4byte	0xf3
 1431 020b 02       		.byte	0x2
 1432 020c 23       		.byte	0x23
 1433 020d 38       		.uleb128 0x38
 1434 020e 06       		.uleb128 0x6
 1435 020f CB010000 		.4byte	.LASF40
 1436 0213 06       		.byte	0x6
 1437 0214 C9       		.byte	0xc9
 1438 0215 E8030000 		.4byte	0x3e8
 1439 0219 02       		.byte	0x2
 1440 021a 23       		.byte	0x23
 1441 021b 3C       		.uleb128 0x3c
 1442 021c 06       		.uleb128 0x6
 1443 021d 03080000 		.4byte	.LASF41
 1444 0221 06       		.byte	0x6
 1445 0222 CD       		.byte	0xcd
 1446 0223 DD000000 		.4byte	0xdd
 1447 0227 02       		.byte	0x2
 1448 0228 23       		.byte	0x23
 1449 0229 40       		.uleb128 0x40
 1450 022a 06       		.uleb128 0x6
 1451 022b 3B070000 		.4byte	.LASF42
 1452 022f 06       		.byte	0x6
 1453 0230 D3       		.byte	0xd3
 1454 0231 9C020000 		.4byte	0x29c
 1455 0235 02       		.byte	0x2
 1456 0236 23       		.byte	0x23
 1457 0237 44       		.uleb128 0x44
 1458 0238 00       		.byte	0x0
 1459 0239 08       		.uleb128 0x8
 1460 023a 08       		.byte	0x8
 1461 023b 05       		.byte	0x5
 1462 023c 5A       		.byte	0x5a
 1463 023d 5E020000 		.4byte	0x25e
 1464 0241 06       		.uleb128 0x6
 1465 0242 91010000 		.4byte	.LASF24
 1466 0246 05       		.byte	0x5
 1467 0247 5B       		.byte	0x5b
 1468 0248 5E020000 		.4byte	0x25e
 1469 024c 02       		.byte	0x2
ARM GAS  C:\Users\DNIEL~1\AppData\Local\Temp\ccWhrmOY.s 			page 27


 1470 024d 23       		.byte	0x23
 1471 024e 00       		.uleb128 0x0
 1472 024f 06       		.uleb128 0x6
 1473 0250 98010000 		.4byte	.LASF25
 1474 0254 05       		.byte	0x5
 1475 0255 5D       		.byte	0x5d
 1476 0256 5E020000 		.4byte	0x25e
 1477 025a 02       		.byte	0x2
 1478 025b 23       		.byte	0x23
 1479 025c 04       		.uleb128 0x4
 1480 025d 00       		.byte	0x0
 1481 025e 09       		.uleb128 0x9
 1482 025f 04       		.byte	0x4
 1483 0260 09010000 		.4byte	0x109
 1484 0264 03       		.uleb128 0x3
 1485 0265 CA0A0000 		.4byte	.LASF43
 1486 0269 05       		.byte	0x5
 1487 026a 5F       		.byte	0x5f
 1488 026b 39020000 		.4byte	0x239
 1489 026f 08       		.uleb128 0x8
 1490 0270 04       		.byte	0x4
 1491 0271 05       		.byte	0x5
 1492 0272 64       		.byte	0x64
 1493 0273 86020000 		.4byte	0x286
 1494 0277 06       		.uleb128 0x6
 1495 0278 91010000 		.4byte	.LASF24
 1496 027c 05       		.byte	0x5
 1497 027d 66       		.byte	0x66
 1498 027e 5E020000 		.4byte	0x25e
 1499 0282 02       		.byte	0x2
 1500 0283 23       		.byte	0x23
 1501 0284 00       		.uleb128 0x0
 1502 0285 00       		.byte	0x0
 1503 0286 03       		.uleb128 0x3
 1504 0287 64070000 		.4byte	.LASF44
 1505 028b 05       		.byte	0x5
 1506 028c 69       		.byte	0x69
 1507 028d 6F020000 		.4byte	0x26f
 1508 0291 03       		.uleb128 0x3
 1509 0292 ED010000 		.4byte	.LASF45
 1510 0296 07       		.byte	0x7
 1511 0297 DE       		.byte	0xde
 1512 0298 9C020000 		.4byte	0x29c
 1513 029c 0A       		.uleb128 0xa
 1514 029d 04       		.byte	0x4
 1515 029e 0B       		.uleb128 0xb
 1516 029f 11040000 		.4byte	.LASF46
 1517 02a3 24       		.byte	0x24
 1518 02a4 07       		.byte	0x7
 1519 02a5 0501     		.2byte	0x105
 1520 02a7 2C030000 		.4byte	0x32c
 1521 02ab 0C       		.uleb128 0xc
 1522 02ac 723400   		.ascii	"r4\000"
 1523 02af 07       		.byte	0x7
 1524 02b0 1801     		.2byte	0x118
 1525 02b2 91020000 		.4byte	0x291
 1526 02b6 02       		.byte	0x2
ARM GAS  C:\Users\DNIEL~1\AppData\Local\Temp\ccWhrmOY.s 			page 28


 1527 02b7 23       		.byte	0x23
 1528 02b8 00       		.uleb128 0x0
 1529 02b9 0C       		.uleb128 0xc
 1530 02ba 723500   		.ascii	"r5\000"
 1531 02bd 07       		.byte	0x7
 1532 02be 1901     		.2byte	0x119
 1533 02c0 91020000 		.4byte	0x291
 1534 02c4 02       		.byte	0x2
 1535 02c5 23       		.byte	0x23
 1536 02c6 04       		.uleb128 0x4
 1537 02c7 0C       		.uleb128 0xc
 1538 02c8 723600   		.ascii	"r6\000"
 1539 02cb 07       		.byte	0x7
 1540 02cc 1A01     		.2byte	0x11a
 1541 02ce 91020000 		.4byte	0x291
 1542 02d2 02       		.byte	0x2
 1543 02d3 23       		.byte	0x23
 1544 02d4 08       		.uleb128 0x8
 1545 02d5 0C       		.uleb128 0xc
 1546 02d6 723700   		.ascii	"r7\000"
 1547 02d9 07       		.byte	0x7
 1548 02da 1B01     		.2byte	0x11b
 1549 02dc 91020000 		.4byte	0x291
 1550 02e0 02       		.byte	0x2
 1551 02e1 23       		.byte	0x23
 1552 02e2 0C       		.uleb128 0xc
 1553 02e3 0C       		.uleb128 0xc
 1554 02e4 723800   		.ascii	"r8\000"
 1555 02e7 07       		.byte	0x7
 1556 02e8 1C01     		.2byte	0x11c
 1557 02ea 91020000 		.4byte	0x291
 1558 02ee 02       		.byte	0x2
 1559 02ef 23       		.byte	0x23
 1560 02f0 10       		.uleb128 0x10
 1561 02f1 0C       		.uleb128 0xc
 1562 02f2 723900   		.ascii	"r9\000"
 1563 02f5 07       		.byte	0x7
 1564 02f6 1D01     		.2byte	0x11d
 1565 02f8 91020000 		.4byte	0x291
 1566 02fc 02       		.byte	0x2
 1567 02fd 23       		.byte	0x23
 1568 02fe 14       		.uleb128 0x14
 1569 02ff 0C       		.uleb128 0xc
 1570 0300 72313000 		.ascii	"r10\000"
 1571 0304 07       		.byte	0x7
 1572 0305 1E01     		.2byte	0x11e
 1573 0307 91020000 		.4byte	0x291
 1574 030b 02       		.byte	0x2
 1575 030c 23       		.byte	0x23
 1576 030d 18       		.uleb128 0x18
 1577 030e 0C       		.uleb128 0xc
 1578 030f 72313100 		.ascii	"r11\000"
 1579 0313 07       		.byte	0x7
 1580 0314 1F01     		.2byte	0x11f
 1581 0316 91020000 		.4byte	0x291
 1582 031a 02       		.byte	0x2
 1583 031b 23       		.byte	0x23
ARM GAS  C:\Users\DNIEL~1\AppData\Local\Temp\ccWhrmOY.s 			page 29


 1584 031c 1C       		.uleb128 0x1c
 1585 031d 0C       		.uleb128 0xc
 1586 031e 6C7200   		.ascii	"lr\000"
 1587 0321 07       		.byte	0x7
 1588 0322 2001     		.2byte	0x120
 1589 0324 91020000 		.4byte	0x291
 1590 0328 02       		.byte	0x2
 1591 0329 23       		.byte	0x23
 1592 032a 20       		.uleb128 0x20
 1593 032b 00       		.byte	0x0
 1594 032c 0B       		.uleb128 0xb
 1595 032d 6E020000 		.4byte	.LASF47
 1596 0331 04       		.byte	0x4
 1597 0332 07       		.byte	0x7
 1598 0333 2A01     		.2byte	0x12a
 1599 0335 49030000 		.4byte	0x349
 1600 0339 0C       		.uleb128 0xc
 1601 033a 72313300 		.ascii	"r13\000"
 1602 033e 07       		.byte	0x7
 1603 033f 2B01     		.2byte	0x12b
 1604 0341 49030000 		.4byte	0x349
 1605 0345 02       		.byte	0x2
 1606 0346 23       		.byte	0x23
 1607 0347 00       		.uleb128 0x0
 1608 0348 00       		.byte	0x0
 1609 0349 09       		.uleb128 0x9
 1610 034a 04       		.byte	0x4
 1611 034b 9E020000 		.4byte	0x29e
 1612 034f 0D       		.uleb128 0xd
 1613 0350 86000000 		.4byte	0x86
 1614 0354 0D       		.uleb128 0xd
 1615 0355 FE000000 		.4byte	0xfe
 1616 0359 05       		.uleb128 0x5
 1617 035a E0050000 		.4byte	.LASF48
 1618 035e 10       		.byte	0x10
 1619 035f 08       		.byte	0x8
 1620 0360 25       		.byte	0x25
 1621 0361 90030000 		.4byte	0x390
 1622 0365 06       		.uleb128 0x6
 1623 0366 22060000 		.4byte	.LASF49
 1624 036a 08       		.byte	0x8
 1625 036b 26       		.byte	0x26
 1626 036c 64020000 		.4byte	0x264
 1627 0370 02       		.byte	0x2
 1628 0371 23       		.byte	0x23
 1629 0372 00       		.uleb128 0x0
 1630 0373 06       		.uleb128 0x6
 1631 0374 2D010000 		.4byte	.LASF50
 1632 0378 08       		.byte	0x8
 1633 0379 28       		.byte	0x28
 1634 037a 5E020000 		.4byte	0x25e
 1635 037e 02       		.byte	0x2
 1636 037f 23       		.byte	0x23
 1637 0380 08       		.uleb128 0x8
 1638 0381 06       		.uleb128 0x6
 1639 0382 9F0B0000 		.4byte	.LASF51
 1640 0386 08       		.byte	0x8
ARM GAS  C:\Users\DNIEL~1\AppData\Local\Temp\ccWhrmOY.s 			page 30


 1641 0387 2A       		.byte	0x2a
 1642 0388 90030000 		.4byte	0x390
 1643 038c 02       		.byte	0x2
 1644 038d 23       		.byte	0x23
 1645 038e 0C       		.uleb128 0xc
 1646 038f 00       		.byte	0x0
 1647 0390 09       		.uleb128 0x9
 1648 0391 04       		.byte	0x4
 1649 0392 59030000 		.4byte	0x359
 1650 0396 03       		.uleb128 0x3
 1651 0397 E0050000 		.4byte	.LASF48
 1652 039b 08       		.byte	0x8
 1653 039c 2C       		.byte	0x2c
 1654 039d 59030000 		.4byte	0x359
 1655 03a1 0E       		.uleb128 0xe
 1656 03a2 04       		.byte	0x4
 1657 03a3 06       		.byte	0x6
 1658 03a4 8F       		.byte	0x8f
 1659 03a5 D6030000 		.4byte	0x3d6
 1660 03a9 0F       		.uleb128 0xf
 1661 03aa FF0A0000 		.4byte	.LASF52
 1662 03ae 06       		.byte	0x6
 1663 03af 96       		.byte	0x96
 1664 03b0 E8000000 		.4byte	0xe8
 1665 03b4 0F       		.uleb128 0xf
 1666 03b5 41010000 		.4byte	.LASF53
 1667 03b9 06       		.byte	0x6
 1668 03ba 9D       		.byte	0x9d
 1669 03bb E8000000 		.4byte	0xe8
 1670 03bf 0F       		.uleb128 0xf
 1671 03c0 6A030000 		.4byte	.LASF54
 1672 03c4 06       		.byte	0x6
 1673 03c5 A4       		.byte	0xa4
 1674 03c6 9C020000 		.4byte	0x29c
 1675 03ca 0F       		.uleb128 0xf
 1676 03cb 5B010000 		.4byte	.LASF55
 1677 03cf 06       		.byte	0x6
 1678 03d0 AB       		.byte	0xab
 1679 03d1 F3000000 		.4byte	0xf3
 1680 03d5 00       		.byte	0x0
 1681 03d6 09       		.uleb128 0x9
 1682 03d7 04       		.byte	0x4
 1683 03d8 DC030000 		.4byte	0x3dc
 1684 03dc 10       		.uleb128 0x10
 1685 03dd E1030000 		.4byte	0x3e1
 1686 03e1 04       		.uleb128 0x4
 1687 03e2 01       		.byte	0x1
 1688 03e3 08       		.byte	0x8
 1689 03e4 4F030000 		.4byte	.LASF56
 1690 03e8 09       		.uleb128 0x9
 1691 03e9 04       		.byte	0x4
 1692 03ea 96030000 		.4byte	0x396
 1693 03ee 11       		.uleb128 0x11
 1694 03ef E3070000 		.4byte	.LASF259
 1695 03f3 01       		.byte	0x1
 1696 03f4 09       		.byte	0x9
 1697 03f5 8C       		.byte	0x8c
ARM GAS  C:\Users\DNIEL~1\AppData\Local\Temp\ccWhrmOY.s 			page 31


 1698 03f6 29060000 		.4byte	0x629
 1699 03fa 12       		.uleb128 0x12
 1700 03fb A3040000 		.4byte	.LASF57
 1701 03ff 72       		.sleb128 -14
 1702 0400 12       		.uleb128 0x12
 1703 0401 E2040000 		.4byte	.LASF58
 1704 0405 74       		.sleb128 -12
 1705 0406 12       		.uleb128 0x12
 1706 0407 AC050000 		.4byte	.LASF59
 1707 040b 75       		.sleb128 -11
 1708 040c 12       		.uleb128 0x12
 1709 040d 3F030000 		.4byte	.LASF60
 1710 0411 76       		.sleb128 -10
 1711 0412 12       		.uleb128 0x12
 1712 0413 52060000 		.4byte	.LASF61
 1713 0417 7B       		.sleb128 -5
 1714 0418 12       		.uleb128 0x12
 1715 0419 B2090000 		.4byte	.LASF62
 1716 041d 7C       		.sleb128 -4
 1717 041e 12       		.uleb128 0x12
 1718 041f 460B0000 		.4byte	.LASF63
 1719 0423 7E       		.sleb128 -2
 1720 0424 12       		.uleb128 0x12
 1721 0425 15020000 		.4byte	.LASF64
 1722 0429 7F       		.sleb128 -1
 1723 042a 12       		.uleb128 0x12
 1724 042b B7040000 		.4byte	.LASF65
 1725 042f 00       		.sleb128 0
 1726 0430 12       		.uleb128 0x12
 1727 0431 51090000 		.4byte	.LASF66
 1728 0435 01       		.sleb128 1
 1729 0436 12       		.uleb128 0x12
 1730 0437 F8040000 		.4byte	.LASF67
 1731 043b 02       		.sleb128 2
 1732 043c 12       		.uleb128 0x12
 1733 043d A00A0000 		.4byte	.LASF68
 1734 0441 03       		.sleb128 3
 1735 0442 12       		.uleb128 0x12
 1736 0443 C9000000 		.4byte	.LASF69
 1737 0447 04       		.sleb128 4
 1738 0448 12       		.uleb128 0x12
 1739 0449 0A0A0000 		.4byte	.LASF70
 1740 044d 05       		.sleb128 5
 1741 044e 12       		.uleb128 0x12
 1742 044f 64090000 		.4byte	.LASF71
 1743 0453 06       		.sleb128 6
 1744 0454 12       		.uleb128 0x12
 1745 0455 43040000 		.4byte	.LASF72
 1746 0459 07       		.sleb128 7
 1747 045a 12       		.uleb128 0x12
 1748 045b DD080000 		.4byte	.LASF73
 1749 045f 08       		.sleb128 8
 1750 0460 12       		.uleb128 0x12
 1751 0461 3B0B0000 		.4byte	.LASF74
 1752 0465 09       		.sleb128 9
 1753 0466 12       		.uleb128 0x12
 1754 0467 060B0000 		.4byte	.LASF75
ARM GAS  C:\Users\DNIEL~1\AppData\Local\Temp\ccWhrmOY.s 			page 32


 1755 046b 0A       		.sleb128 10
 1756 046c 12       		.uleb128 0x12
 1757 046d 19080000 		.4byte	.LASF76
 1758 0471 0B       		.sleb128 11
 1759 0472 12       		.uleb128 0x12
 1760 0473 80070000 		.4byte	.LASF77
 1761 0477 0C       		.sleb128 12
 1762 0478 12       		.uleb128 0x12
 1763 0479 76020000 		.4byte	.LASF78
 1764 047d 0D       		.sleb128 13
 1765 047e 12       		.uleb128 0x12
 1766 047f 300A0000 		.4byte	.LASF79
 1767 0483 0E       		.sleb128 14
 1768 0484 12       		.uleb128 0x12
 1769 0485 77090000 		.4byte	.LASF80
 1770 0489 0F       		.sleb128 15
 1771 048a 12       		.uleb128 0x12
 1772 048b 5B040000 		.4byte	.LASF81
 1773 048f 10       		.sleb128 16
 1774 0490 12       		.uleb128 0x12
 1775 0491 E8070000 		.4byte	.LASF82
 1776 0495 11       		.sleb128 17
 1777 0496 12       		.uleb128 0x12
 1778 0497 14090000 		.4byte	.LASF83
 1779 049b 12       		.sleb128 18
 1780 049c 12       		.uleb128 0x12
 1781 049d 4E040000 		.4byte	.LASF84
 1782 04a1 13       		.sleb128 19
 1783 04a2 12       		.uleb128 0x12
 1784 04a3 71030000 		.4byte	.LASF85
 1785 04a7 14       		.sleb128 20
 1786 04a8 12       		.uleb128 0x12
 1787 04a9 BC0A0000 		.4byte	.LASF86
 1788 04ad 15       		.sleb128 21
 1789 04ae 12       		.uleb128 0x12
 1790 04af 08050000 		.4byte	.LASF87
 1791 04b3 16       		.sleb128 22
 1792 04b4 12       		.uleb128 0x12
 1793 04b5 D70A0000 		.4byte	.LASF88
 1794 04b9 17       		.sleb128 23
 1795 04ba 12       		.uleb128 0x12
 1796 04bb CD050000 		.4byte	.LASF89
 1797 04bf 18       		.sleb128 24
 1798 04c0 12       		.uleb128 0x12
 1799 04c1 640A0000 		.4byte	.LASF90
 1800 04c5 19       		.sleb128 25
 1801 04c6 12       		.uleb128 0x12
 1802 04c7 D5010000 		.4byte	.LASF91
 1803 04cb 1A       		.sleb128 26
 1804 04cc 12       		.uleb128 0x12
 1805 04cd 28040000 		.4byte	.LASF92
 1806 04d1 1B       		.sleb128 27
 1807 04d2 12       		.uleb128 0x12
 1808 04d3 EB000000 		.4byte	.LASF93
 1809 04d7 1C       		.sleb128 28
 1810 04d8 12       		.uleb128 0x12
 1811 04d9 B2080000 		.4byte	.LASF94
ARM GAS  C:\Users\DNIEL~1\AppData\Local\Temp\ccWhrmOY.s 			page 33


 1812 04dd 1D       		.sleb128 29
 1813 04de 12       		.uleb128 0x12
 1814 04df 98030000 		.4byte	.LASF95
 1815 04e3 1E       		.sleb128 30
 1816 04e4 12       		.uleb128 0x12
 1817 04e5 F8030000 		.4byte	.LASF96
 1818 04e9 1F       		.sleb128 31
 1819 04ea 12       		.uleb128 0x12
 1820 04eb E5020000 		.4byte	.LASF97
 1821 04ef 20       		.sleb128 32
 1822 04f0 12       		.uleb128 0x12
 1823 04f1 43070000 		.4byte	.LASF98
 1824 04f5 21       		.sleb128 33
 1825 04f6 12       		.uleb128 0x12
 1826 04f7 5A050000 		.4byte	.LASF99
 1827 04fb 22       		.sleb128 34
 1828 04fc 12       		.uleb128 0x12
 1829 04fd 30060000 		.4byte	.LASF100
 1830 0501 23       		.sleb128 35
 1831 0502 12       		.uleb128 0x12
 1832 0503 0C060000 		.4byte	.LASF101
 1833 0507 24       		.sleb128 36
 1834 0508 12       		.uleb128 0x12
 1835 0509 BC080000 		.4byte	.LASF102
 1836 050d 25       		.sleb128 37
 1837 050e 12       		.uleb128 0x12
 1838 050f A2030000 		.4byte	.LASF103
 1839 0513 26       		.sleb128 38
 1840 0514 12       		.uleb128 0x12
 1841 0515 22020000 		.4byte	.LASF104
 1842 0519 27       		.sleb128 39
 1843 051a 12       		.uleb128 0x12
 1844 051b A3080000 		.4byte	.LASF105
 1845 051f 28       		.sleb128 40
 1846 0520 12       		.uleb128 0x12
 1847 0521 43080000 		.4byte	.LASF106
 1848 0525 29       		.sleb128 41
 1849 0526 12       		.uleb128 0x12
 1850 0527 EA060000 		.4byte	.LASF107
 1851 052b 2A       		.sleb128 42
 1852 052c 12       		.uleb128 0x12
 1853 052d 62010000 		.4byte	.LASF108
 1854 0531 2B       		.sleb128 43
 1855 0532 12       		.uleb128 0x12
 1856 0533 0C000000 		.4byte	.LASF109
 1857 0537 2C       		.sleb128 44
 1858 0538 12       		.uleb128 0x12
 1859 0539 6D040000 		.4byte	.LASF110
 1860 053d 2D       		.sleb128 45
 1861 053e 12       		.uleb128 0x12
 1862 053f 240B0000 		.4byte	.LASF111
 1863 0543 2E       		.sleb128 46
 1864 0544 12       		.uleb128 0x12
 1865 0545 650B0000 		.4byte	.LASF112
 1866 0549 2F       		.sleb128 47
 1867 054a 12       		.uleb128 0x12
 1868 054b 5A090000 		.4byte	.LASF113
ARM GAS  C:\Users\DNIEL~1\AppData\Local\Temp\ccWhrmOY.s 			page 34


 1869 054f 30       		.sleb128 48
 1870 0550 12       		.uleb128 0x12
 1871 0551 310B0000 		.4byte	.LASF114
 1872 0555 31       		.sleb128 49
 1873 0556 12       		.uleb128 0x12
 1874 0557 29030000 		.4byte	.LASF115
 1875 055b 32       		.sleb128 50
 1876 055c 12       		.uleb128 0x12
 1877 055d BF000000 		.4byte	.LASF116
 1878 0561 33       		.sleb128 51
 1879 0562 12       		.uleb128 0x12
 1880 0563 7C060000 		.4byte	.LASF117
 1881 0567 34       		.sleb128 52
 1882 0568 12       		.uleb128 0x12
 1883 0569 C2050000 		.4byte	.LASF118
 1884 056d 35       		.sleb128 53
 1885 056e 12       		.uleb128 0x12
 1886 056f 1A070000 		.4byte	.LASF119
 1887 0573 36       		.sleb128 54
 1888 0574 12       		.uleb128 0x12
 1889 0575 E6050000 		.4byte	.LASF120
 1890 0579 37       		.sleb128 55
 1891 057a 12       		.uleb128 0x12
 1892 057b 29050000 		.4byte	.LASF121
 1893 057f 38       		.sleb128 56
 1894 0580 12       		.uleb128 0x12
 1895 0581 AD000000 		.4byte	.LASF122
 1896 0585 39       		.sleb128 57
 1897 0586 12       		.uleb128 0x12
 1898 0587 C50B0000 		.4byte	.LASF123
 1899 058b 3A       		.sleb128 58
 1900 058c 12       		.uleb128 0x12
 1901 058d 92070000 		.4byte	.LASF124
 1902 0591 3B       		.sleb128 59
 1903 0592 12       		.uleb128 0x12
 1904 0593 AA020000 		.4byte	.LASF125
 1905 0597 3C       		.sleb128 60
 1906 0598 12       		.uleb128 0x12
 1907 0599 EB090000 		.4byte	.LASF126
 1908 059d 3D       		.sleb128 61
 1909 059e 12       		.uleb128 0x12
 1910 059f FE050000 		.4byte	.LASF127
 1911 05a3 3E       		.sleb128 62
 1912 05a4 12       		.uleb128 0x12
 1913 05a5 A4070000 		.4byte	.LASF128
 1914 05a9 3F       		.sleb128 63
 1915 05aa 12       		.uleb128 0x12
 1916 05ab 13010000 		.4byte	.LASF129
 1917 05af C000     		.sleb128 64
 1918 05b1 12       		.uleb128 0x12
 1919 05b2 FF080000 		.4byte	.LASF130
 1920 05b6 C100     		.sleb128 65
 1921 05b8 12       		.uleb128 0x12
 1922 05b9 FD020000 		.4byte	.LASF131
 1923 05bd C200     		.sleb128 66
 1924 05bf 12       		.uleb128 0x12
 1925 05c0 97040000 		.4byte	.LASF132
ARM GAS  C:\Users\DNIEL~1\AppData\Local\Temp\ccWhrmOY.s 			page 35


 1926 05c4 C300     		.sleb128 67
 1927 05c6 12       		.uleb128 0x12
 1928 05c7 A7010000 		.4byte	.LASF133
 1929 05cb C400     		.sleb128 68
 1930 05cd 12       		.uleb128 0x12
 1931 05ce 98090000 		.4byte	.LASF134
 1932 05d2 C500     		.sleb128 69
 1933 05d4 12       		.uleb128 0x12
 1934 05d5 85040000 		.4byte	.LASF135
 1935 05d9 C600     		.sleb128 70
 1936 05db 12       		.uleb128 0x12
 1937 05dc 21010000 		.4byte	.LASF136
 1938 05e0 C700     		.sleb128 71
 1939 05e2 12       		.uleb128 0x12
 1940 05e3 C4090000 		.4byte	.LASF137
 1941 05e7 C800     		.sleb128 72
 1942 05e9 12       		.uleb128 0x12
 1943 05ea 52080000 		.4byte	.LASF138
 1944 05ee C900     		.sleb128 73
 1945 05f0 12       		.uleb128 0x12
 1946 05f1 8C0A0000 		.4byte	.LASF139
 1947 05f5 CA00     		.sleb128 74
 1948 05f7 12       		.uleb128 0x12
 1949 05f8 520B0000 		.4byte	.LASF140
 1950 05fc CB00     		.sleb128 75
 1951 05fe 12       		.uleb128 0x12
 1952 05ff 4A010000 		.4byte	.LASF141
 1953 0603 CC00     		.sleb128 76
 1954 0605 12       		.uleb128 0x12
 1955 0606 16060000 		.4byte	.LASF142
 1956 060a CD00     		.sleb128 77
 1957 060c 12       		.uleb128 0x12
 1958 060d D4000000 		.4byte	.LASF143
 1959 0611 CE00     		.sleb128 78
 1960 0613 12       		.uleb128 0x12
 1961 0614 5F080000 		.4byte	.LASF144
 1962 0618 CF00     		.sleb128 79
 1963 061a 12       		.uleb128 0x12
 1964 061b 35040000 		.4byte	.LASF145
 1965 061f D000     		.sleb128 80
 1966 0621 12       		.uleb128 0x12
 1967 0622 73060000 		.4byte	.LASF146
 1968 0626 D100     		.sleb128 81
 1969 0628 00       		.byte	0x0
 1970 0629 13       		.uleb128 0x13
 1971 062a 86000000 		.4byte	0x86
 1972 062e 39060000 		.4byte	0x639
 1973 0632 14       		.uleb128 0x14
 1974 0633 3B000000 		.4byte	0x3b
 1975 0637 01       		.byte	0x1
 1976 0638 00       		.byte	0x0
 1977 0639 0D       		.uleb128 0xd
 1978 063a 74000000 		.4byte	0x74
 1979 063e 15       		.uleb128 0x15
 1980 063f 50       		.byte	0x50
 1981 0640 09       		.byte	0x9
 1982 0641 2C01     		.2byte	0x12c
ARM GAS  C:\Users\DNIEL~1\AppData\Local\Temp\ccWhrmOY.s 			page 36


 1983 0643 72070000 		.4byte	0x772
 1984 0647 0C       		.uleb128 0xc
 1985 0648 535200   		.ascii	"SR\000"
 1986 064b 09       		.byte	0x9
 1987 064c 2E01     		.2byte	0x12e
 1988 064e 4F030000 		.4byte	0x34f
 1989 0652 02       		.byte	0x2
 1990 0653 23       		.byte	0x23
 1991 0654 00       		.uleb128 0x0
 1992 0655 0C       		.uleb128 0xc
 1993 0656 43523100 		.ascii	"CR1\000"
 1994 065a 09       		.byte	0x9
 1995 065b 2F01     		.2byte	0x12f
 1996 065d 4F030000 		.4byte	0x34f
 1997 0661 02       		.byte	0x2
 1998 0662 23       		.byte	0x23
 1999 0663 04       		.uleb128 0x4
 2000 0664 0C       		.uleb128 0xc
 2001 0665 43523200 		.ascii	"CR2\000"
 2002 0669 09       		.byte	0x9
 2003 066a 3001     		.2byte	0x130
 2004 066c 4F030000 		.4byte	0x34f
 2005 0670 02       		.byte	0x2
 2006 0671 23       		.byte	0x23
 2007 0672 08       		.uleb128 0x8
 2008 0673 16       		.uleb128 0x16
 2009 0674 3B050000 		.4byte	.LASF147
 2010 0678 09       		.byte	0x9
 2011 0679 3101     		.2byte	0x131
 2012 067b 4F030000 		.4byte	0x34f
 2013 067f 02       		.byte	0x2
 2014 0680 23       		.byte	0x23
 2015 0681 0C       		.uleb128 0xc
 2016 0682 16       		.uleb128 0x16
 2017 0683 41050000 		.4byte	.LASF148
 2018 0687 09       		.byte	0x9
 2019 0688 3201     		.2byte	0x132
 2020 068a 4F030000 		.4byte	0x34f
 2021 068e 02       		.byte	0x2
 2022 068f 23       		.byte	0x23
 2023 0690 10       		.uleb128 0x10
 2024 0691 16       		.uleb128 0x16
 2025 0692 180A0000 		.4byte	.LASF149
 2026 0696 09       		.byte	0x9
 2027 0697 3301     		.2byte	0x133
 2028 0699 4F030000 		.4byte	0x34f
 2029 069d 02       		.byte	0x2
 2030 069e 23       		.byte	0x23
 2031 069f 14       		.uleb128 0x14
 2032 06a0 16       		.uleb128 0x16
 2033 06a1 1E0A0000 		.4byte	.LASF150
 2034 06a5 09       		.byte	0x9
 2035 06a6 3401     		.2byte	0x134
 2036 06a8 4F030000 		.4byte	0x34f
 2037 06ac 02       		.byte	0x2
 2038 06ad 23       		.byte	0x23
 2039 06ae 18       		.uleb128 0x18
ARM GAS  C:\Users\DNIEL~1\AppData\Local\Temp\ccWhrmOY.s 			page 37


 2040 06af 16       		.uleb128 0x16
 2041 06b0 240A0000 		.4byte	.LASF151
 2042 06b4 09       		.byte	0x9
 2043 06b5 3501     		.2byte	0x135
 2044 06b7 4F030000 		.4byte	0x34f
 2045 06bb 02       		.byte	0x2
 2046 06bc 23       		.byte	0x23
 2047 06bd 1C       		.uleb128 0x1c
 2048 06be 16       		.uleb128 0x16
 2049 06bf 2A0A0000 		.4byte	.LASF152
 2050 06c3 09       		.byte	0x9
 2051 06c4 3601     		.2byte	0x136
 2052 06c6 4F030000 		.4byte	0x34f
 2053 06ca 02       		.byte	0x2
 2054 06cb 23       		.byte	0x23
 2055 06cc 20       		.uleb128 0x20
 2056 06cd 0C       		.uleb128 0xc
 2057 06ce 48545200 		.ascii	"HTR\000"
 2058 06d2 09       		.byte	0x9
 2059 06d3 3701     		.2byte	0x137
 2060 06d5 4F030000 		.4byte	0x34f
 2061 06d9 02       		.byte	0x2
 2062 06da 23       		.byte	0x23
 2063 06db 24       		.uleb128 0x24
 2064 06dc 0C       		.uleb128 0xc
 2065 06dd 4C545200 		.ascii	"LTR\000"
 2066 06e1 09       		.byte	0x9
 2067 06e2 3801     		.2byte	0x138
 2068 06e4 4F030000 		.4byte	0x34f
 2069 06e8 02       		.byte	0x2
 2070 06e9 23       		.byte	0x23
 2071 06ea 28       		.uleb128 0x28
 2072 06eb 16       		.uleb128 0x16
 2073 06ec 6D000000 		.4byte	.LASF153
 2074 06f0 09       		.byte	0x9
 2075 06f1 3901     		.2byte	0x139
 2076 06f3 4F030000 		.4byte	0x34f
 2077 06f7 02       		.byte	0x2
 2078 06f8 23       		.byte	0x23
 2079 06f9 2C       		.uleb128 0x2c
 2080 06fa 16       		.uleb128 0x16
 2081 06fb 72000000 		.4byte	.LASF154
 2082 06ff 09       		.byte	0x9
 2083 0700 3A01     		.2byte	0x13a
 2084 0702 4F030000 		.4byte	0x34f
 2085 0706 02       		.byte	0x2
 2086 0707 23       		.byte	0x23
 2087 0708 30       		.uleb128 0x30
 2088 0709 16       		.uleb128 0x16
 2089 070a 77000000 		.4byte	.LASF155
 2090 070e 09       		.byte	0x9
 2091 070f 3B01     		.2byte	0x13b
 2092 0711 4F030000 		.4byte	0x34f
 2093 0715 02       		.byte	0x2
 2094 0716 23       		.byte	0x23
 2095 0717 34       		.uleb128 0x34
 2096 0718 16       		.uleb128 0x16
ARM GAS  C:\Users\DNIEL~1\AppData\Local\Temp\ccWhrmOY.s 			page 38


 2097 0719 5F0A0000 		.4byte	.LASF156
 2098 071d 09       		.byte	0x9
 2099 071e 3C01     		.2byte	0x13c
 2100 0720 4F030000 		.4byte	0x34f
 2101 0724 02       		.byte	0x2
 2102 0725 23       		.byte	0x23
 2103 0726 38       		.uleb128 0x38
 2104 0727 16       		.uleb128 0x16
 2105 0728 490A0000 		.4byte	.LASF157
 2106 072c 09       		.byte	0x9
 2107 072d 3D01     		.2byte	0x13d
 2108 072f 4F030000 		.4byte	0x34f
 2109 0733 02       		.byte	0x2
 2110 0734 23       		.byte	0x23
 2111 0735 3C       		.uleb128 0x3c
 2112 0736 16       		.uleb128 0x16
 2113 0737 4E0A0000 		.4byte	.LASF158
 2114 073b 09       		.byte	0x9
 2115 073c 3E01     		.2byte	0x13e
 2116 073e 4F030000 		.4byte	0x34f
 2117 0742 02       		.byte	0x2
 2118 0743 23       		.byte	0x23
 2119 0744 40       		.uleb128 0x40
 2120 0745 16       		.uleb128 0x16
 2121 0746 530A0000 		.4byte	.LASF159
 2122 074a 09       		.byte	0x9
 2123 074b 3F01     		.2byte	0x13f
 2124 074d 4F030000 		.4byte	0x34f
 2125 0751 02       		.byte	0x2
 2126 0752 23       		.byte	0x23
 2127 0753 44       		.uleb128 0x44
 2128 0754 16       		.uleb128 0x16
 2129 0755 35010000 		.4byte	.LASF160
 2130 0759 09       		.byte	0x9
 2131 075a 4001     		.2byte	0x140
 2132 075c 4F030000 		.4byte	0x34f
 2133 0760 02       		.byte	0x2
 2134 0761 23       		.byte	0x23
 2135 0762 48       		.uleb128 0x48
 2136 0763 0C       		.uleb128 0xc
 2137 0764 445200   		.ascii	"DR\000"
 2138 0767 09       		.byte	0x9
 2139 0768 4101     		.2byte	0x141
 2140 076a 4F030000 		.4byte	0x34f
 2141 076e 02       		.byte	0x2
 2142 076f 23       		.byte	0x23
 2143 0770 4C       		.uleb128 0x4c
 2144 0771 00       		.byte	0x0
 2145 0772 17       		.uleb128 0x17
 2146 0773 05040000 		.4byte	.LASF161
 2147 0777 09       		.byte	0x9
 2148 0778 4201     		.2byte	0x142
 2149 077a 3E060000 		.4byte	0x63e
 2150 077e 15       		.uleb128 0x15
 2151 077f 0C       		.byte	0xc
 2152 0780 09       		.byte	0x9
 2153 0781 4401     		.2byte	0x144
ARM GAS  C:\Users\DNIEL~1\AppData\Local\Temp\ccWhrmOY.s 			page 39


 2154 0783 B5070000 		.4byte	0x7b5
 2155 0787 0C       		.uleb128 0xc
 2156 0788 43535200 		.ascii	"CSR\000"
 2157 078c 09       		.byte	0x9
 2158 078d 4601     		.2byte	0x146
 2159 078f 4F030000 		.4byte	0x34f
 2160 0793 02       		.byte	0x2
 2161 0794 23       		.byte	0x23
 2162 0795 00       		.uleb128 0x0
 2163 0796 0C       		.uleb128 0xc
 2164 0797 43435200 		.ascii	"CCR\000"
 2165 079b 09       		.byte	0x9
 2166 079c 4701     		.2byte	0x147
 2167 079e 4F030000 		.4byte	0x34f
 2168 07a2 02       		.byte	0x2
 2169 07a3 23       		.byte	0x23
 2170 07a4 04       		.uleb128 0x4
 2171 07a5 0C       		.uleb128 0xc
 2172 07a6 43445200 		.ascii	"CDR\000"
 2173 07aa 09       		.byte	0x9
 2174 07ab 4801     		.2byte	0x148
 2175 07ad 4F030000 		.4byte	0x34f
 2176 07b1 02       		.byte	0x2
 2177 07b2 23       		.byte	0x23
 2178 07b3 08       		.uleb128 0x8
 2179 07b4 00       		.byte	0x0
 2180 07b5 17       		.uleb128 0x17
 2181 07b6 800B0000 		.4byte	.LASF162
 2182 07ba 09       		.byte	0x9
 2183 07bb 4A01     		.2byte	0x14a
 2184 07bd 7E070000 		.4byte	0x77e
 2185 07c1 15       		.uleb128 0x15
 2186 07c2 18       		.byte	0x18
 2187 07c3 09       		.byte	0x9
 2188 07c4 D301     		.2byte	0x1d3
 2189 07c6 24080000 		.4byte	0x824
 2190 07ca 0C       		.uleb128 0xc
 2191 07cb 435200   		.ascii	"CR\000"
 2192 07ce 09       		.byte	0x9
 2193 07cf D501     		.2byte	0x1d5
 2194 07d1 4F030000 		.4byte	0x34f
 2195 07d5 02       		.byte	0x2
 2196 07d6 23       		.byte	0x23
 2197 07d7 00       		.uleb128 0x0
 2198 07d8 16       		.uleb128 0x16
 2199 07d9 AE0A0000 		.4byte	.LASF163
 2200 07dd 09       		.byte	0x9
 2201 07de D601     		.2byte	0x1d6
 2202 07e0 4F030000 		.4byte	0x34f
 2203 07e4 02       		.byte	0x2
 2204 07e5 23       		.byte	0x23
 2205 07e6 04       		.uleb128 0x4
 2206 07e7 0C       		.uleb128 0xc
 2207 07e8 50415200 		.ascii	"PAR\000"
 2208 07ec 09       		.byte	0x9
 2209 07ed D701     		.2byte	0x1d7
 2210 07ef 4F030000 		.4byte	0x34f
ARM GAS  C:\Users\DNIEL~1\AppData\Local\Temp\ccWhrmOY.s 			page 40


 2211 07f3 02       		.byte	0x2
 2212 07f4 23       		.byte	0x23
 2213 07f5 08       		.uleb128 0x8
 2214 07f6 16       		.uleb128 0x16
 2215 07f7 E6090000 		.4byte	.LASF164
 2216 07fb 09       		.byte	0x9
 2217 07fc D801     		.2byte	0x1d8
 2218 07fe 4F030000 		.4byte	0x34f
 2219 0802 02       		.byte	0x2
 2220 0803 23       		.byte	0x23
 2221 0804 0C       		.uleb128 0xc
 2222 0805 16       		.uleb128 0x16
 2223 0806 00000000 		.4byte	.LASF165
 2224 080a 09       		.byte	0x9
 2225 080b D901     		.2byte	0x1d9
 2226 080d 4F030000 		.4byte	0x34f
 2227 0811 02       		.byte	0x2
 2228 0812 23       		.byte	0x23
 2229 0813 10       		.uleb128 0x10
 2230 0814 0C       		.uleb128 0xc
 2231 0815 46435200 		.ascii	"FCR\000"
 2232 0819 09       		.byte	0x9
 2233 081a DA01     		.2byte	0x1da
 2234 081c 4F030000 		.4byte	0x34f
 2235 0820 02       		.byte	0x2
 2236 0821 23       		.byte	0x23
 2237 0822 14       		.uleb128 0x14
 2238 0823 00       		.byte	0x0
 2239 0824 17       		.uleb128 0x17
 2240 0825 C9070000 		.4byte	.LASF166
 2241 0829 09       		.byte	0x9
 2242 082a DB01     		.2byte	0x1db
 2243 082c C1070000 		.4byte	0x7c1
 2244 0830 15       		.uleb128 0x15
 2245 0831 88       		.byte	0x88
 2246 0832 09       		.byte	0x9
 2247 0833 DB02     		.2byte	0x2db
 2248 0835 FD090000 		.4byte	0x9fd
 2249 0839 0C       		.uleb128 0xc
 2250 083a 435200   		.ascii	"CR\000"
 2251 083d 09       		.byte	0x9
 2252 083e DD02     		.2byte	0x2dd
 2253 0840 4F030000 		.4byte	0x34f
 2254 0844 02       		.byte	0x2
 2255 0845 23       		.byte	0x23
 2256 0846 00       		.uleb128 0x0
 2257 0847 16       		.uleb128 0x16
 2258 0848 BA050000 		.4byte	.LASF167
 2259 084c 09       		.byte	0x9
 2260 084d DE02     		.2byte	0x2de
 2261 084f 4F030000 		.4byte	0x34f
 2262 0853 02       		.byte	0x2
 2263 0854 23       		.byte	0x23
 2264 0855 04       		.uleb128 0x4
 2265 0856 16       		.uleb128 0x16
 2266 0857 23040000 		.4byte	.LASF168
 2267 085b 09       		.byte	0x9
ARM GAS  C:\Users\DNIEL~1\AppData\Local\Temp\ccWhrmOY.s 			page 41


 2268 085c DF02     		.2byte	0x2df
 2269 085e 4F030000 		.4byte	0x34f
 2270 0862 02       		.byte	0x2
 2271 0863 23       		.byte	0x23
 2272 0864 08       		.uleb128 0x8
 2273 0865 0C       		.uleb128 0xc
 2274 0866 43495200 		.ascii	"CIR\000"
 2275 086a 09       		.byte	0x9
 2276 086b E002     		.2byte	0x2e0
 2277 086d 4F030000 		.4byte	0x34f
 2278 0871 02       		.byte	0x2
 2279 0872 23       		.byte	0x23
 2280 0873 0C       		.uleb128 0xc
 2281 0874 16       		.uleb128 0x16
 2282 0875 770B0000 		.4byte	.LASF169
 2283 0879 09       		.byte	0x9
 2284 087a E102     		.2byte	0x2e1
 2285 087c 4F030000 		.4byte	0x34f
 2286 0880 02       		.byte	0x2
 2287 0881 23       		.byte	0x23
 2288 0882 10       		.uleb128 0x10
 2289 0883 16       		.uleb128 0x16
 2290 0884 D6090000 		.4byte	.LASF170
 2291 0888 09       		.byte	0x9
 2292 0889 E202     		.2byte	0x2e2
 2293 088b 4F030000 		.4byte	0x34f
 2294 088f 02       		.byte	0x2
 2295 0890 23       		.byte	0x23
 2296 0891 14       		.uleb128 0x14
 2297 0892 16       		.uleb128 0x16
 2298 0893 FA070000 		.4byte	.LASF171
 2299 0897 09       		.byte	0x9
 2300 0898 E302     		.2byte	0x2e3
 2301 089a 4F030000 		.4byte	0x34f
 2302 089e 02       		.byte	0x2
 2303 089f 23       		.byte	0x23
 2304 08a0 18       		.uleb128 0x18
 2305 08a1 16       		.uleb128 0x16
 2306 08a2 88020000 		.4byte	.LASF172
 2307 08a6 09       		.byte	0x9
 2308 08a7 E402     		.2byte	0x2e4
 2309 08a9 86000000 		.4byte	0x86
 2310 08ad 02       		.byte	0x2
 2311 08ae 23       		.byte	0x23
 2312 08af 1C       		.uleb128 0x1c
 2313 08b0 16       		.uleb128 0x16
 2314 08b1 2B080000 		.4byte	.LASF173
 2315 08b5 09       		.byte	0x9
 2316 08b6 E502     		.2byte	0x2e5
 2317 08b8 4F030000 		.4byte	0x34f
 2318 08bc 02       		.byte	0x2
 2319 08bd 23       		.byte	0x23
 2320 08be 20       		.uleb128 0x20
 2321 08bf 16       		.uleb128 0x16
 2322 08c0 5E060000 		.4byte	.LASF174
 2323 08c4 09       		.byte	0x9
 2324 08c5 E602     		.2byte	0x2e6
ARM GAS  C:\Users\DNIEL~1\AppData\Local\Temp\ccWhrmOY.s 			page 42


 2325 08c7 4F030000 		.4byte	0x34f
 2326 08cb 02       		.byte	0x2
 2327 08cc 23       		.byte	0x23
 2328 08cd 24       		.uleb128 0x24
 2329 08ce 16       		.uleb128 0x16
 2330 08cf 92020000 		.4byte	.LASF175
 2331 08d3 09       		.byte	0x9
 2332 08d4 E702     		.2byte	0x2e7
 2333 08d6 29060000 		.4byte	0x629
 2334 08da 02       		.byte	0x2
 2335 08db 23       		.byte	0x23
 2336 08dc 28       		.uleb128 0x28
 2337 08dd 16       		.uleb128 0x16
 2338 08de AA090000 		.4byte	.LASF176
 2339 08e2 09       		.byte	0x9
 2340 08e3 E802     		.2byte	0x2e8
 2341 08e5 4F030000 		.4byte	0x34f
 2342 08e9 02       		.byte	0x2
 2343 08ea 23       		.byte	0x23
 2344 08eb 30       		.uleb128 0x30
 2345 08ec 16       		.uleb128 0x16
 2346 08ed 62030000 		.4byte	.LASF177
 2347 08f1 09       		.byte	0x9
 2348 08f2 E902     		.2byte	0x2e9
 2349 08f4 4F030000 		.4byte	0x34f
 2350 08f8 02       		.byte	0x2
 2351 08f9 23       		.byte	0x23
 2352 08fa 34       		.uleb128 0x34
 2353 08fb 16       		.uleb128 0x16
 2354 08fc BD0B0000 		.4byte	.LASF178
 2355 0900 09       		.byte	0x9
 2356 0901 EA02     		.2byte	0x2ea
 2357 0903 4F030000 		.4byte	0x34f
 2358 0907 02       		.byte	0x2
 2359 0908 23       		.byte	0x23
 2360 0909 38       		.uleb128 0x38
 2361 090a 16       		.uleb128 0x16
 2362 090b 15030000 		.4byte	.LASF179
 2363 090f 09       		.byte	0x9
 2364 0910 EB02     		.2byte	0x2eb
 2365 0912 86000000 		.4byte	0x86
 2366 0916 02       		.byte	0x2
 2367 0917 23       		.byte	0x23
 2368 0918 3C       		.uleb128 0x3c
 2369 0919 16       		.uleb128 0x16
 2370 091a D3040000 		.4byte	.LASF180
 2371 091e 09       		.byte	0x9
 2372 091f EC02     		.2byte	0x2ec
 2373 0921 4F030000 		.4byte	0x34f
 2374 0925 02       		.byte	0x2
 2375 0926 23       		.byte	0x23
 2376 0927 40       		.uleb128 0x40
 2377 0928 16       		.uleb128 0x16
 2378 0929 03020000 		.4byte	.LASF181
 2379 092d 09       		.byte	0x9
 2380 092e ED02     		.2byte	0x2ed
 2381 0930 4F030000 		.4byte	0x34f
ARM GAS  C:\Users\DNIEL~1\AppData\Local\Temp\ccWhrmOY.s 			page 43


 2382 0934 02       		.byte	0x2
 2383 0935 23       		.byte	0x23
 2384 0936 44       		.uleb128 0x44
 2385 0937 16       		.uleb128 0x16
 2386 0938 1F030000 		.4byte	.LASF182
 2387 093c 09       		.byte	0x9
 2388 093d EE02     		.2byte	0x2ee
 2389 093f 29060000 		.4byte	0x629
 2390 0943 02       		.byte	0x2
 2391 0944 23       		.byte	0x23
 2392 0945 48       		.uleb128 0x48
 2393 0946 16       		.uleb128 0x16
 2394 0947 0B020000 		.4byte	.LASF183
 2395 094b 09       		.byte	0x9
 2396 094c EF02     		.2byte	0x2ef
 2397 094e 4F030000 		.4byte	0x34f
 2398 0952 02       		.byte	0x2
 2399 0953 23       		.byte	0x23
 2400 0954 50       		.uleb128 0x50
 2401 0955 16       		.uleb128 0x16
 2402 0956 76010000 		.4byte	.LASF184
 2403 095a 09       		.byte	0x9
 2404 095b F002     		.2byte	0x2f0
 2405 095d 4F030000 		.4byte	0x34f
 2406 0961 02       		.byte	0x2
 2407 0962 23       		.byte	0x23
 2408 0963 54       		.uleb128 0x54
 2409 0964 16       		.uleb128 0x16
 2410 0965 33090000 		.4byte	.LASF185
 2411 0969 09       		.byte	0x9
 2412 096a F102     		.2byte	0x2f1
 2413 096c 4F030000 		.4byte	0x34f
 2414 0970 02       		.byte	0x2
 2415 0971 23       		.byte	0x23
 2416 0972 58       		.uleb128 0x58
 2417 0973 16       		.uleb128 0x16
 2418 0974 BC020000 		.4byte	.LASF186
 2419 0978 09       		.byte	0x9
 2420 0979 F202     		.2byte	0x2f2
 2421 097b 86000000 		.4byte	0x86
 2422 097f 02       		.byte	0x2
 2423 0980 23       		.byte	0x23
 2424 0981 5C       		.uleb128 0x5c
 2425 0982 16       		.uleb128 0x16
 2426 0983 76070000 		.4byte	.LASF187
 2427 0987 09       		.byte	0x9
 2428 0988 F302     		.2byte	0x2f3
 2429 098a 4F030000 		.4byte	0x34f
 2430 098e 02       		.byte	0x2
 2431 098f 23       		.byte	0x23
 2432 0990 60       		.uleb128 0x60
 2433 0991 16       		.uleb128 0x16
 2434 0992 87060000 		.4byte	.LASF188
 2435 0996 09       		.byte	0x9
 2436 0997 F402     		.2byte	0x2f4
 2437 0999 4F030000 		.4byte	0x34f
 2438 099d 02       		.byte	0x2
ARM GAS  C:\Users\DNIEL~1\AppData\Local\Temp\ccWhrmOY.s 			page 44


 2439 099e 23       		.byte	0x23
 2440 099f 64       		.uleb128 0x64
 2441 09a0 16       		.uleb128 0x16
 2442 09a1 C6020000 		.4byte	.LASF189
 2443 09a5 09       		.byte	0x9
 2444 09a6 F502     		.2byte	0x2f5
 2445 09a8 29060000 		.4byte	0x629
 2446 09ac 02       		.byte	0x2
 2447 09ad 23       		.byte	0x23
 2448 09ae 68       		.uleb128 0x68
 2449 09af 16       		.uleb128 0x16
 2450 09b0 B5030000 		.4byte	.LASF190
 2451 09b4 09       		.byte	0x9
 2452 09b5 F602     		.2byte	0x2f6
 2453 09b7 4F030000 		.4byte	0x34f
 2454 09bb 02       		.byte	0x2
 2455 09bc 23       		.byte	0x23
 2456 09bd 70       		.uleb128 0x70
 2457 09be 0C       		.uleb128 0xc
 2458 09bf 43535200 		.ascii	"CSR\000"
 2459 09c3 09       		.byte	0x9
 2460 09c4 F702     		.2byte	0x2f7
 2461 09c6 4F030000 		.4byte	0x34f
 2462 09ca 02       		.byte	0x2
 2463 09cb 23       		.byte	0x23
 2464 09cc 74       		.uleb128 0x74
 2465 09cd 16       		.uleb128 0x16
 2466 09ce D0020000 		.4byte	.LASF191
 2467 09d2 09       		.byte	0x9
 2468 09d3 F802     		.2byte	0x2f8
 2469 09d5 29060000 		.4byte	0x629
 2470 09d9 02       		.byte	0x2
 2471 09da 23       		.byte	0x23
 2472 09db 78       		.uleb128 0x78
 2473 09dc 16       		.uleb128 0x16
 2474 09dd 2A060000 		.4byte	.LASF192
 2475 09e1 09       		.byte	0x9
 2476 09e2 F902     		.2byte	0x2f9
 2477 09e4 4F030000 		.4byte	0x34f
 2478 09e8 03       		.byte	0x3
 2479 09e9 23       		.byte	0x23
 2480 09ea 8001     		.uleb128 0x80
 2481 09ec 16       		.uleb128 0x16
 2482 09ed 46000000 		.4byte	.LASF193
 2483 09f1 09       		.byte	0x9
 2484 09f2 FA02     		.2byte	0x2fa
 2485 09f4 4F030000 		.4byte	0x34f
 2486 09f8 03       		.byte	0x3
 2487 09f9 23       		.byte	0x23
 2488 09fa 8401     		.uleb128 0x84
 2489 09fc 00       		.byte	0x0
 2490 09fd 17       		.uleb128 0x17
 2491 09fe F4090000 		.4byte	.LASF194
 2492 0a02 09       		.byte	0x9
 2493 0a03 FB02     		.2byte	0x2fb
 2494 0a05 30080000 		.4byte	0x830
 2495 0a09 08       		.uleb128 0x8
ARM GAS  C:\Users\DNIEL~1\AppData\Local\Temp\ccWhrmOY.s 			page 45


 2496 0a0a 0C       		.byte	0xc
 2497 0a0b 0A       		.byte	0xa
 2498 0a0c DE       		.byte	0xde
 2499 0a0d 580A0000 		.4byte	0xa58
 2500 0a11 06       		.uleb128 0x6
 2501 0a12 AE030000 		.4byte	.LASF195
 2502 0a16 0A       		.byte	0xa
 2503 0a17 DF       		.byte	0xdf
 2504 0a18 580A0000 		.4byte	0xa58
 2505 0a1c 02       		.byte	0x2
 2506 0a1d 23       		.byte	0x23
 2507 0a1e 00       		.uleb128 0x0
 2508 0a1f 06       		.uleb128 0x6
 2509 0a20 930B0000 		.4byte	.LASF196
 2510 0a24 0A       		.byte	0xa
 2511 0a25 E0       		.byte	0xe0
 2512 0a26 5E0A0000 		.4byte	0xa5e
 2513 0a2a 02       		.byte	0x2
 2514 0a2b 23       		.byte	0x23
 2515 0a2c 04       		.uleb128 0x4
 2516 0a2d 06       		.uleb128 0x6
 2517 0a2e 54030000 		.4byte	.LASF197
 2518 0a32 0A       		.byte	0xa
 2519 0a33 E1       		.byte	0xe1
 2520 0a34 49000000 		.4byte	0x49
 2521 0a38 02       		.byte	0x2
 2522 0a39 23       		.byte	0x23
 2523 0a3a 08       		.uleb128 0x8
 2524 0a3b 06       		.uleb128 0x6
 2525 0a3c 03070000 		.4byte	.LASF198
 2526 0a40 0A       		.byte	0xa
 2527 0a41 E3       		.byte	0xe3
 2528 0a42 49000000 		.4byte	0x49
 2529 0a46 02       		.byte	0x2
 2530 0a47 23       		.byte	0x23
 2531 0a48 09       		.uleb128 0x9
 2532 0a49 06       		.uleb128 0x6
 2533 0a4a 0D090000 		.4byte	.LASF199
 2534 0a4e 0A       		.byte	0xa
 2535 0a4f E4       		.byte	0xe4
 2536 0a50 49000000 		.4byte	0x49
 2537 0a54 02       		.byte	0x2
 2538 0a55 23       		.byte	0x23
 2539 0a56 0A       		.uleb128 0xa
 2540 0a57 00       		.byte	0x0
 2541 0a58 09       		.uleb128 0x9
 2542 0a59 04       		.byte	0x4
 2543 0a5a 24080000 		.4byte	0x824
 2544 0a5e 09       		.uleb128 0x9
 2545 0a5f 04       		.byte	0x4
 2546 0a60 4F030000 		.4byte	0x34f
 2547 0a64 03       		.uleb128 0x3
 2548 0a65 47050000 		.4byte	.LASF200
 2549 0a69 0A       		.byte	0xa
 2550 0a6a E5       		.byte	0xe5
 2551 0a6b 090A0000 		.4byte	0xa09
 2552 0a6f 03       		.uleb128 0x3
ARM GAS  C:\Users\DNIEL~1\AppData\Local\Temp\ccWhrmOY.s 			page 46


 2553 0a70 34080000 		.4byte	.LASF201
 2554 0a74 0A       		.byte	0xa
 2555 0a75 EE       		.byte	0xee
 2556 0a76 7A0A0000 		.4byte	0xa7a
 2557 0a7a 09       		.uleb128 0x9
 2558 0a7b 04       		.byte	0x4
 2559 0a7c 800A0000 		.4byte	0xa80
 2560 0a80 18       		.uleb128 0x18
 2561 0a81 01       		.byte	0x1
 2562 0a82 910A0000 		.4byte	0xa91
 2563 0a86 19       		.uleb128 0x19
 2564 0a87 9C020000 		.4byte	0x29c
 2565 0a8b 19       		.uleb128 0x19
 2566 0a8c 86000000 		.4byte	0x86
 2567 0a90 00       		.byte	0x0
 2568 0a91 1A       		.uleb128 0x1a
 2569 0a92 01       		.byte	0x1
 2570 0a93 0B       		.byte	0xb
 2571 0a94 4E       		.byte	0x4e
 2572 0a95 BE0A0000 		.4byte	0xabe
 2573 0a99 12       		.uleb128 0x12
 2574 0a9a F2020000 		.4byte	.LASF202
 2575 0a9e 00       		.sleb128 0
 2576 0a9f 12       		.uleb128 0x12
 2577 0aa0 8F090000 		.4byte	.LASF203
 2578 0aa4 01       		.sleb128 1
 2579 0aa5 12       		.uleb128 0x12
 2580 0aa6 0B030000 		.4byte	.LASF204
 2581 0aaa 02       		.sleb128 2
 2582 0aab 12       		.uleb128 0x12
 2583 0aac 0E080000 		.4byte	.LASF205
 2584 0ab0 03       		.sleb128 3
 2585 0ab1 12       		.uleb128 0x12
 2586 0ab2 7A050000 		.4byte	.LASF206
 2587 0ab6 04       		.sleb128 4
 2588 0ab7 12       		.uleb128 0x12
 2589 0ab8 7F030000 		.4byte	.LASF207
 2590 0abc 05       		.sleb128 5
 2591 0abd 00       		.byte	0x0
 2592 0abe 03       		.uleb128 0x3
 2593 0abf 8F000000 		.4byte	.LASF208
 2594 0ac3 0B       		.byte	0xb
 2595 0ac4 55       		.byte	0x55
 2596 0ac5 910A0000 		.4byte	0xa91
 2597 0ac9 17       		.uleb128 0x17
 2598 0aca 33030000 		.4byte	.LASF209
 2599 0ace 0C       		.byte	0xc
 2600 0acf 2B01     		.2byte	0x12b
 2601 0ad1 62000000 		.4byte	0x62
 2602 0ad5 17       		.uleb128 0x17
 2603 0ad6 28070000 		.4byte	.LASF210
 2604 0ada 0C       		.byte	0xc
 2605 0adb 3001     		.2byte	0x130
 2606 0add 62000000 		.4byte	0x62
 2607 0ae1 1B       		.uleb128 0x1b
 2608 0ae2 01       		.byte	0x1
 2609 0ae3 0C       		.byte	0xc
ARM GAS  C:\Users\DNIEL~1\AppData\Local\Temp\ccWhrmOY.s 			page 47


 2610 0ae4 3701     		.2byte	0x137
 2611 0ae6 F70A0000 		.4byte	0xaf7
 2612 0aea 12       		.uleb128 0x12
 2613 0aeb 9A000000 		.4byte	.LASF211
 2614 0aef 00       		.sleb128 0
 2615 0af0 12       		.uleb128 0x12
 2616 0af1 1D090000 		.4byte	.LASF212
 2617 0af5 01       		.sleb128 1
 2618 0af6 00       		.byte	0x0
 2619 0af7 17       		.uleb128 0x17
 2620 0af8 DA020000 		.4byte	.LASF213
 2621 0afc 0C       		.byte	0xc
 2622 0afd 3A01     		.2byte	0x13a
 2623 0aff E10A0000 		.4byte	0xae1
 2624 0b03 17       		.uleb128 0x17
 2625 0b04 E8080000 		.4byte	.LASF214
 2626 0b08 0C       		.byte	0xc
 2627 0b09 3F01     		.2byte	0x13f
 2628 0b0b 0F0B0000 		.4byte	0xb0f
 2629 0b0f 0B       		.uleb128 0xb
 2630 0b10 E8080000 		.4byte	.LASF214
 2631 0b14 34       		.byte	0x34
 2632 0b15 0C       		.byte	0xc
 2633 0b16 A301     		.2byte	0x1a3
 2634 0b18 B30B0000 		.4byte	0xbb3
 2635 0b1c 16       		.uleb128 0x16
 2636 0b1d E5000000 		.4byte	.LASF215
 2637 0b21 0C       		.byte	0xc
 2638 0b22 A701     		.2byte	0x1a7
 2639 0b24 BE0A0000 		.4byte	0xabe
 2640 0b28 02       		.byte	0x2
 2641 0b29 23       		.byte	0x23
 2642 0b2a 00       		.uleb128 0x0
 2643 0b2b 16       		.uleb128 0x16
 2644 0b2c DE000000 		.4byte	.LASF216
 2645 0b30 0C       		.byte	0xc
 2646 0b31 AB01     		.2byte	0x1ab
 2647 0b33 EA0C0000 		.4byte	0xcea
 2648 0b37 02       		.byte	0x2
 2649 0b38 23       		.byte	0x23
 2650 0b39 04       		.uleb128 0x4
 2651 0b3a 16       		.uleb128 0x16
 2652 0b3b BA030000 		.4byte	.LASF217
 2653 0b3f 0C       		.byte	0xc
 2654 0b40 AF01     		.2byte	0x1af
 2655 0b42 E10B0000 		.4byte	0xbe1
 2656 0b46 02       		.byte	0x2
 2657 0b47 23       		.byte	0x23
 2658 0b48 08       		.uleb128 0x8
 2659 0b49 16       		.uleb128 0x16
 2660 0b4a 67060000 		.4byte	.LASF218
 2661 0b4e 0C       		.byte	0xc
 2662 0b4f B301     		.2byte	0x1b3
 2663 0b51 30000000 		.4byte	0x30
 2664 0b55 02       		.byte	0x2
 2665 0b56 23       		.byte	0x23
 2666 0b57 0C       		.uleb128 0xc
ARM GAS  C:\Users\DNIEL~1\AppData\Local\Temp\ccWhrmOY.s 			page 48


 2667 0b58 16       		.uleb128 0x16
 2668 0b59 D1090000 		.4byte	.LASF219
 2669 0b5d 0C       		.byte	0xc
 2670 0b5e B701     		.2byte	0x1b7
 2671 0b60 F50C0000 		.4byte	0xcf5
 2672 0b64 02       		.byte	0x2
 2673 0b65 23       		.byte	0x23
 2674 0b66 10       		.uleb128 0x10
 2675 0b67 16       		.uleb128 0x16
 2676 0b68 DF090000 		.4byte	.LASF220
 2677 0b6c 0C       		.byte	0xc
 2678 0b6d BC01     		.2byte	0x1bc
 2679 0b6f 5E020000 		.4byte	0x25e
 2680 0b73 02       		.byte	0x2
 2681 0b74 23       		.byte	0x23
 2682 0b75 14       		.uleb128 0x14
 2683 0b76 16       		.uleb128 0x16
 2684 0b77 6D060000 		.4byte	.LASF221
 2685 0b7b 0C       		.byte	0xc
 2686 0b7c C301     		.2byte	0x1c3
 2687 0b7e 96030000 		.4byte	0x396
 2688 0b82 02       		.byte	0x2
 2689 0b83 23       		.byte	0x23
 2690 0b84 18       		.uleb128 0x18
 2691 0b85 0C       		.uleb128 0xc
 2692 0b86 61646300 		.ascii	"adc\000"
 2693 0b8a 0C       		.byte	0xc
 2694 0b8b CF01     		.2byte	0x1cf
 2695 0b8d 000D0000 		.4byte	0xd00
 2696 0b91 02       		.byte	0x2
 2697 0b92 23       		.byte	0x23
 2698 0b93 28       		.uleb128 0x28
 2699 0b94 16       		.uleb128 0x16
 2700 0b95 DB040000 		.4byte	.LASF222
 2701 0b99 0C       		.byte	0xc
 2702 0b9a D301     		.2byte	0x1d3
 2703 0b9c 060D0000 		.4byte	0xd06
 2704 0ba0 02       		.byte	0x2
 2705 0ba1 23       		.byte	0x23
 2706 0ba2 2C       		.uleb128 0x2c
 2707 0ba3 16       		.uleb128 0x16
 2708 0ba4 9F010000 		.4byte	.LASF223
 2709 0ba8 0C       		.byte	0xc
 2710 0ba9 D701     		.2byte	0x1d7
 2711 0bab 86000000 		.4byte	0x86
 2712 0baf 02       		.byte	0x2
 2713 0bb0 23       		.byte	0x23
 2714 0bb1 30       		.uleb128 0x30
 2715 0bb2 00       		.byte	0x0
 2716 0bb3 17       		.uleb128 0x17
 2717 0bb4 5F000000 		.4byte	.LASF224
 2718 0bb8 0C       		.byte	0xc
 2719 0bb9 4901     		.2byte	0x149
 2720 0bbb BF0B0000 		.4byte	0xbbf
 2721 0bbf 09       		.uleb128 0x9
 2722 0bc0 04       		.byte	0x4
 2723 0bc1 C50B0000 		.4byte	0xbc5
ARM GAS  C:\Users\DNIEL~1\AppData\Local\Temp\ccWhrmOY.s 			page 49


 2724 0bc5 18       		.uleb128 0x18
 2725 0bc6 01       		.byte	0x1
 2726 0bc7 DB0B0000 		.4byte	0xbdb
 2727 0bcb 19       		.uleb128 0x19
 2728 0bcc DB0B0000 		.4byte	0xbdb
 2729 0bd0 19       		.uleb128 0x19
 2730 0bd1 E10B0000 		.4byte	0xbe1
 2731 0bd5 19       		.uleb128 0x19
 2732 0bd6 30000000 		.4byte	0x30
 2733 0bda 00       		.byte	0x0
 2734 0bdb 09       		.uleb128 0x9
 2735 0bdc 04       		.byte	0x4
 2736 0bdd 030B0000 		.4byte	0xb03
 2737 0be1 09       		.uleb128 0x9
 2738 0be2 04       		.byte	0x4
 2739 0be3 C90A0000 		.4byte	0xac9
 2740 0be7 17       		.uleb128 0x17
 2741 0be8 3F060000 		.4byte	.LASF225
 2742 0bec 0C       		.byte	0xc
 2743 0bed 5201     		.2byte	0x152
 2744 0bef F30B0000 		.4byte	0xbf3
 2745 0bf3 09       		.uleb128 0x9
 2746 0bf4 04       		.byte	0x4
 2747 0bf5 F90B0000 		.4byte	0xbf9
 2748 0bf9 18       		.uleb128 0x18
 2749 0bfa 01       		.byte	0x1
 2750 0bfb 0A0C0000 		.4byte	0xc0a
 2751 0bff 19       		.uleb128 0x19
 2752 0c00 DB0B0000 		.4byte	0xbdb
 2753 0c04 19       		.uleb128 0x19
 2754 0c05 F70A0000 		.4byte	0xaf7
 2755 0c09 00       		.byte	0x0
 2756 0c0a 15       		.uleb128 0x15
 2757 0c0b 2C       		.byte	0x2c
 2758 0c0c 0C       		.byte	0xc
 2759 0c0d 5C01     		.2byte	0x15c
 2760 0c0f B90C0000 		.4byte	0xcb9
 2761 0c13 16       		.uleb128 0x16
 2762 0c14 8F030000 		.4byte	.LASF226
 2763 0c18 0C       		.byte	0xc
 2764 0c19 6001     		.2byte	0x160
 2765 0c1b A6000000 		.4byte	0xa6
 2766 0c1f 02       		.byte	0x2
 2767 0c20 23       		.byte	0x23
 2768 0c21 00       		.uleb128 0x0
 2769 0c22 16       		.uleb128 0x16
 2770 0c23 57070000 		.4byte	.LASF227
 2771 0c27 0C       		.byte	0xc
 2772 0c28 6401     		.2byte	0x164
 2773 0c2a D50A0000 		.4byte	0xad5
 2774 0c2e 02       		.byte	0x2
 2775 0c2f 23       		.byte	0x23
 2776 0c30 04       		.uleb128 0x4
 2777 0c31 16       		.uleb128 0x16
 2778 0c32 3A010000 		.4byte	.LASF228
 2779 0c36 0C       		.byte	0xc
 2780 0c37 6801     		.2byte	0x168
ARM GAS  C:\Users\DNIEL~1\AppData\Local\Temp\ccWhrmOY.s 			page 50


 2781 0c39 B30B0000 		.4byte	0xbb3
 2782 0c3d 02       		.byte	0x2
 2783 0c3e 23       		.byte	0x23
 2784 0c3f 08       		.uleb128 0x8
 2785 0c40 16       		.uleb128 0x16
 2786 0c41 0A010000 		.4byte	.LASF229
 2787 0c45 0C       		.byte	0xc
 2788 0c46 6C01     		.2byte	0x16c
 2789 0c48 E70B0000 		.4byte	0xbe7
 2790 0c4c 02       		.byte	0x2
 2791 0c4d 23       		.byte	0x23
 2792 0c4e 0C       		.uleb128 0xc
 2793 0c4f 0C       		.uleb128 0xc
 2794 0c50 63723100 		.ascii	"cr1\000"
 2795 0c54 0C       		.byte	0xc
 2796 0c55 7301     		.2byte	0x173
 2797 0c57 86000000 		.4byte	0x86
 2798 0c5b 02       		.byte	0x2
 2799 0c5c 23       		.byte	0x23
 2800 0c5d 10       		.uleb128 0x10
 2801 0c5e 0C       		.uleb128 0xc
 2802 0c5f 63723200 		.ascii	"cr2\000"
 2803 0c63 0C       		.byte	0xc
 2804 0c64 7A01     		.2byte	0x17a
 2805 0c66 86000000 		.4byte	0x86
 2806 0c6a 02       		.byte	0x2
 2807 0c6b 23       		.byte	0x23
 2808 0c6c 14       		.uleb128 0x14
 2809 0c6d 16       		.uleb128 0x16
 2810 0c6e 87050000 		.4byte	.LASF230
 2811 0c72 0C       		.byte	0xc
 2812 0c73 8001     		.2byte	0x180
 2813 0c75 86000000 		.4byte	0x86
 2814 0c79 02       		.byte	0x2
 2815 0c7a 23       		.byte	0x23
 2816 0c7b 18       		.uleb128 0x18
 2817 0c7c 16       		.uleb128 0x16
 2818 0c7d 8D050000 		.4byte	.LASF231
 2819 0c81 0C       		.byte	0xc
 2820 0c82 8601     		.2byte	0x186
 2821 0c84 86000000 		.4byte	0x86
 2822 0c88 02       		.byte	0x2
 2823 0c89 23       		.byte	0x23
 2824 0c8a 1C       		.uleb128 0x1c
 2825 0c8b 16       		.uleb128 0x16
 2826 0c8c 1F000000 		.4byte	.LASF232
 2827 0c90 0C       		.byte	0xc
 2828 0c91 8B01     		.2byte	0x18b
 2829 0c93 86000000 		.4byte	0x86
 2830 0c97 02       		.byte	0x2
 2831 0c98 23       		.byte	0x23
 2832 0c99 20       		.uleb128 0x20
 2833 0c9a 16       		.uleb128 0x16
 2834 0c9b 24000000 		.4byte	.LASF233
 2835 0c9f 0C       		.byte	0xc
 2836 0ca0 9001     		.2byte	0x190
 2837 0ca2 86000000 		.4byte	0x86
ARM GAS  C:\Users\DNIEL~1\AppData\Local\Temp\ccWhrmOY.s 			page 51


 2838 0ca6 02       		.byte	0x2
 2839 0ca7 23       		.byte	0x23
 2840 0ca8 24       		.uleb128 0x24
 2841 0ca9 16       		.uleb128 0x16
 2842 0caa 29000000 		.4byte	.LASF234
 2843 0cae 0C       		.byte	0xc
 2844 0caf 9501     		.2byte	0x195
 2845 0cb1 86000000 		.4byte	0x86
 2846 0cb5 02       		.byte	0x2
 2847 0cb6 23       		.byte	0x23
 2848 0cb7 28       		.uleb128 0x28
 2849 0cb8 00       		.byte	0x0
 2850 0cb9 17       		.uleb128 0x17
 2851 0cba 67050000 		.4byte	.LASF235
 2852 0cbe 0C       		.byte	0xc
 2853 0cbf 9601     		.2byte	0x196
 2854 0cc1 0A0C0000 		.4byte	0xc0a
 2855 0cc5 15       		.uleb128 0x15
 2856 0cc6 04       		.byte	0x4
 2857 0cc7 0C       		.byte	0xc
 2858 0cc8 9C01     		.2byte	0x19c
 2859 0cca DE0C0000 		.4byte	0xcde
 2860 0cce 16       		.uleb128 0x16
 2861 0ccf 89090000 		.4byte	.LASF236
 2862 0cd3 0C       		.byte	0xc
 2863 0cd4 9D01     		.2byte	0x19d
 2864 0cd6 86000000 		.4byte	0x86
 2865 0cda 02       		.byte	0x2
 2866 0cdb 23       		.byte	0x23
 2867 0cdc 00       		.uleb128 0x0
 2868 0cdd 00       		.byte	0x0
 2869 0cde 17       		.uleb128 0x17
 2870 0cdf DD0B0000 		.4byte	.LASF237
 2871 0ce3 0C       		.byte	0xc
 2872 0ce4 9E01     		.2byte	0x19e
 2873 0ce6 C50C0000 		.4byte	0xcc5
 2874 0cea 09       		.uleb128 0x9
 2875 0ceb 04       		.byte	0x4
 2876 0cec F00C0000 		.4byte	0xcf0
 2877 0cf0 10       		.uleb128 0x10
 2878 0cf1 DE0C0000 		.4byte	0xcde
 2879 0cf5 09       		.uleb128 0x9
 2880 0cf6 04       		.byte	0x4
 2881 0cf7 FB0C0000 		.4byte	0xcfb
 2882 0cfb 10       		.uleb128 0x10
 2883 0cfc B90C0000 		.4byte	0xcb9
 2884 0d00 09       		.uleb128 0x9
 2885 0d01 04       		.byte	0x4
 2886 0d02 72070000 		.4byte	0x772
 2887 0d06 09       		.uleb128 0x9
 2888 0d07 04       		.byte	0x4
 2889 0d08 0C0D0000 		.4byte	0xd0c
 2890 0d0c 10       		.uleb128 0x10
 2891 0d0d 640A0000 		.4byte	0xa64
 2892 0d11 1C       		.uleb128 0x1c
 2893 0d12 01       		.byte	0x1
 2894 0d13 F2080000 		.4byte	.LASF248
ARM GAS  C:\Users\DNIEL~1\AppData\Local\Temp\ccWhrmOY.s 			page 52


 2895 0d17 01       		.byte	0x1
 2896 0d18 AF       		.byte	0xaf
 2897 0d19 01       		.byte	0x1
 2898 0d1a 00000000 		.4byte	.LFB120
 2899 0d1e 34000000 		.4byte	.LFE120
 2900 0d22 00000000 		.4byte	.LLST0
 2901 0d26 1D       		.uleb128 0x1d
 2902 0d27 01       		.byte	0x1
 2903 0d28 2E000000 		.4byte	.LASF238
 2904 0d2c 01       		.byte	0x1
 2905 0d2d E4       		.byte	0xe4
 2906 0d2e 01       		.byte	0x1
 2907 0d2f 00000000 		.4byte	.LFB121
 2908 0d33 5C000000 		.4byte	.LFE121
 2909 0d37 20000000 		.4byte	.LLST1
 2910 0d3b 620D0000 		.4byte	0xd62
 2911 0d3f 1E       		.uleb128 0x1e
 2912 0d40 3A060000 		.4byte	.LASF240
 2913 0d44 01       		.byte	0x1
 2914 0d45 E4       		.byte	0xe4
 2915 0d46 DB0B0000 		.4byte	0xbdb
 2916 0d4a 40000000 		.4byte	.LLST2
 2917 0d4e 1F       		.uleb128 0x1f
 2918 0d4f 28000000 		.4byte	.LBB2
 2919 0d53 5C000000 		.4byte	.LBE2
 2920 0d57 20       		.uleb128 0x20
 2921 0d58 6200     		.ascii	"b\000"
 2922 0d5a 01       		.byte	0x1
 2923 0d5b F7       		.byte	0xf7
 2924 0d5c A6000000 		.4byte	0xa6
 2925 0d60 00       		.byte	0x0
 2926 0d61 00       		.byte	0x0
 2927 0d62 21       		.uleb128 0x21
 2928 0d63 01       		.byte	0x1
 2929 0d64 F6010000 		.4byte	.LASF239
 2930 0d68 01       		.byte	0x1
 2931 0d69 2201     		.2byte	0x122
 2932 0d6b 01       		.byte	0x1
 2933 0d6c 00000000 		.4byte	.LFB122
 2934 0d70 34000000 		.4byte	.LFE122
 2935 0d74 5E000000 		.4byte	.LLST3
 2936 0d78 8D0D0000 		.4byte	0xd8d
 2937 0d7c 22       		.uleb128 0x22
 2938 0d7d 3A060000 		.4byte	.LASF240
 2939 0d81 01       		.byte	0x1
 2940 0d82 2201     		.2byte	0x122
 2941 0d84 DB0B0000 		.4byte	0xbdb
 2942 0d88 7E000000 		.4byte	.LLST4
 2943 0d8c 00       		.byte	0x0
 2944 0d8d 21       		.uleb128 0x21
 2945 0d8e 01       		.byte	0x1
 2946 0d8f 93050000 		.4byte	.LASF241
 2947 0d93 01       		.byte	0x1
 2948 0d94 4201     		.2byte	0x142
 2949 0d96 01       		.byte	0x1
 2950 0d97 00000000 		.4byte	.LFB123
 2951 0d9b 80000000 		.4byte	.LFE123
ARM GAS  C:\Users\DNIEL~1\AppData\Local\Temp\ccWhrmOY.s 			page 53


 2952 0d9f 9C000000 		.4byte	.LLST5
 2953 0da3 D80D0000 		.4byte	0xdd8
 2954 0da7 22       		.uleb128 0x22
 2955 0da8 3A060000 		.4byte	.LASF240
 2956 0dac 01       		.byte	0x1
 2957 0dad 4201     		.2byte	0x142
 2958 0daf DB0B0000 		.4byte	0xbdb
 2959 0db3 BC000000 		.4byte	.LLST6
 2960 0db7 23       		.uleb128 0x23
 2961 0db8 130A0000 		.4byte	.LASF242
 2962 0dbc 01       		.byte	0x1
 2963 0dbd 4301     		.2byte	0x143
 2964 0dbf 86000000 		.4byte	0x86
 2965 0dc3 CF000000 		.4byte	.LLST7
 2966 0dc7 23       		.uleb128 0x23
 2967 0dc8 D1090000 		.4byte	.LASF219
 2968 0dcc 01       		.byte	0x1
 2969 0dcd 4401     		.2byte	0x144
 2970 0dcf F50C0000 		.4byte	0xcf5
 2971 0dd3 07010000 		.4byte	.LLST8
 2972 0dd7 00       		.byte	0x0
 2973 0dd8 21       		.uleb128 0x21
 2974 0dd9 01       		.byte	0x1
 2975 0dda B1070000 		.4byte	.LASF243
 2976 0dde 01       		.byte	0x1
 2977 0ddf 7001     		.2byte	0x170
 2978 0de1 01       		.byte	0x1
 2979 0de2 00000000 		.4byte	.LFB124
 2980 0de6 2E000000 		.4byte	.LFE124
 2981 0dea 1B010000 		.4byte	.LLST9
 2982 0dee 030E0000 		.4byte	0xe03
 2983 0df2 22       		.uleb128 0x22
 2984 0df3 3A060000 		.4byte	.LASF240
 2985 0df7 01       		.byte	0x1
 2986 0df8 7001     		.2byte	0x170
 2987 0dfa DB0B0000 		.4byte	0xbdb
 2988 0dfe 3B010000 		.4byte	.LLST10
 2989 0e02 00       		.byte	0x0
 2990 0e03 24       		.uleb128 0x24
 2991 0e04 E40A0000 		.4byte	.LASF260
 2992 0e08 01       		.byte	0x1
 2993 0e09 50       		.byte	0x50
 2994 0e0a 01       		.byte	0x1
 2995 0e0b 00000000 		.4byte	.LFB118
 2996 0e0f 00010000 		.4byte	.LFE118
 2997 0e13 4E010000 		.4byte	.LLST11
 2998 0e17 320F0000 		.4byte	0xf32
 2999 0e1b 1E       		.uleb128 0x1e
 3000 0e1c 3A060000 		.4byte	.LASF240
 3001 0e20 01       		.byte	0x1
 3002 0e21 50       		.byte	0x50
 3003 0e22 DB0B0000 		.4byte	0xbdb
 3004 0e26 6E010000 		.4byte	.LLST12
 3005 0e2a 1E       		.uleb128 0x1e
 3006 0e2b 89030000 		.4byte	.LASF244
 3007 0e2f 01       		.byte	0x1
 3008 0e30 50       		.byte	0x50
ARM GAS  C:\Users\DNIEL~1\AppData\Local\Temp\ccWhrmOY.s 			page 54


 3009 0e31 86000000 		.4byte	0x86
 3010 0e35 8C010000 		.4byte	.LLST13
 3011 0e39 25       		.uleb128 0x25
 3012 0e3a 3C000000 		.4byte	.LBB3
 3013 0e3e 50000000 		.4byte	.LBE3
 3014 0e42 610E0000 		.4byte	0xe61
 3015 0e46 26       		.uleb128 0x26
 3016 0e47 2E090000 		.4byte	.LASF245
 3017 0e4b 01       		.byte	0x1
 3018 0e4c 62       		.byte	0x62
 3019 0e4d 30000000 		.4byte	0x30
 3020 0e51 D6010000 		.4byte	.LLST14
 3021 0e55 27       		.uleb128 0x27
 3022 0e56 D2080000 		.4byte	.LASF246
 3023 0e5a 01       		.byte	0x1
 3024 0e5b 62       		.byte	0x62
 3025 0e5c 30000000 		.4byte	0x30
 3026 0e60 00       		.byte	0x0
 3027 0e61 25       		.uleb128 0x25
 3028 0e62 68000000 		.4byte	.LBB4
 3029 0e66 7C000000 		.4byte	.LBE4
 3030 0e6a 890E0000 		.4byte	0xe89
 3031 0e6e 26       		.uleb128 0x26
 3032 0e6f 2E090000 		.4byte	.LASF245
 3033 0e73 01       		.byte	0x1
 3034 0e74 62       		.byte	0x62
 3035 0e75 30000000 		.4byte	0x30
 3036 0e79 E9010000 		.4byte	.LLST15
 3037 0e7d 27       		.uleb128 0x27
 3038 0e7e D2080000 		.4byte	.LASF246
 3039 0e82 01       		.byte	0x1
 3040 0e83 62       		.byte	0x62
 3041 0e84 30000000 		.4byte	0x30
 3042 0e88 00       		.byte	0x0
 3043 0e89 25       		.uleb128 0x25
 3044 0e8a 8A000000 		.4byte	.LBB5
 3045 0e8e 90000000 		.4byte	.LBE5
 3046 0e92 A60E0000 		.4byte	0xea6
 3047 0e96 28       		.uleb128 0x28
 3048 0e97 746D7000 		.ascii	"tmp\000"
 3049 0e9b 01       		.byte	0x1
 3050 0e9c 62       		.byte	0x62
 3051 0e9d 86000000 		.4byte	0x86
 3052 0ea1 FC010000 		.4byte	.LLST16
 3053 0ea5 00       		.byte	0x0
 3054 0ea6 25       		.uleb128 0x25
 3055 0ea7 94000000 		.4byte	.LBB6
 3056 0eab 9E000000 		.4byte	.LBE6
 3057 0eaf C20E0000 		.4byte	0xec2
 3058 0eb3 28       		.uleb128 0x28
 3059 0eb4 747000   		.ascii	"tp\000"
 3060 0eb7 01       		.byte	0x1
 3061 0eb8 62       		.byte	0x62
 3062 0eb9 5E020000 		.4byte	0x25e
 3063 0ebd 0F020000 		.4byte	.LLST17
 3064 0ec1 00       		.byte	0x0
 3065 0ec2 25       		.uleb128 0x25
ARM GAS  C:\Users\DNIEL~1\AppData\Local\Temp\ccWhrmOY.s 			page 55


 3066 0ec3 9E000000 		.4byte	.LBB7
 3067 0ec7 A6000000 		.4byte	.LBE7
 3068 0ecb DF0E0000 		.4byte	0xedf
 3069 0ecf 28       		.uleb128 0x28
 3070 0ed0 746D7000 		.ascii	"tmp\000"
 3071 0ed4 01       		.byte	0x1
 3072 0ed5 62       		.byte	0x62
 3073 0ed6 86000000 		.4byte	0x86
 3074 0eda 23020000 		.4byte	.LLST18
 3075 0ede 00       		.byte	0x0
 3076 0edf 25       		.uleb128 0x25
 3077 0ee0 C4000000 		.4byte	.LBB8
 3078 0ee4 CA000000 		.4byte	.LBE8
 3079 0ee8 FC0E0000 		.4byte	0xefc
 3080 0eec 28       		.uleb128 0x28
 3081 0eed 746D7000 		.ascii	"tmp\000"
 3082 0ef1 01       		.byte	0x1
 3083 0ef2 56       		.byte	0x56
 3084 0ef3 86000000 		.4byte	0x86
 3085 0ef7 36020000 		.4byte	.LLST19
 3086 0efb 00       		.byte	0x0
 3087 0efc 25       		.uleb128 0x25
 3088 0efd CE000000 		.4byte	.LBB9
 3089 0f01 DC000000 		.4byte	.LBE9
 3090 0f05 180F0000 		.4byte	0xf18
 3091 0f09 28       		.uleb128 0x28
 3092 0f0a 747000   		.ascii	"tp\000"
 3093 0f0d 01       		.byte	0x1
 3094 0f0e 56       		.byte	0x56
 3095 0f0f 5E020000 		.4byte	0x25e
 3096 0f13 49020000 		.4byte	.LLST20
 3097 0f17 00       		.byte	0x0
 3098 0f18 1F       		.uleb128 0x1f
 3099 0f19 DC000000 		.4byte	.LBB10
 3100 0f1d E4000000 		.4byte	.LBE10
 3101 0f21 28       		.uleb128 0x28
 3102 0f22 746D7000 		.ascii	"tmp\000"
 3103 0f26 01       		.byte	0x1
 3104 0f27 56       		.byte	0x56
 3105 0f28 86000000 		.4byte	0x86
 3106 0f2c 5D020000 		.4byte	.LLST21
 3107 0f30 00       		.byte	0x0
 3108 0f31 00       		.byte	0x0
 3109 0f32 1D       		.uleb128 0x1d
 3110 0f33 01       		.byte	0x1
 3111 0f34 C2010000 		.4byte	.LASF247
 3112 0f38 01       		.byte	0x1
 3113 0f39 73       		.byte	0x73
 3114 0f3a 01       		.byte	0x1
 3115 0f3b 00000000 		.4byte	.LFB119
 3116 0f3f 78000000 		.4byte	.LFE119
 3117 0f43 70020000 		.4byte	.LLST22
 3118 0f47 AC0F0000 		.4byte	0xfac
 3119 0f4b 28       		.uleb128 0x28
 3120 0f4c 737200   		.ascii	"sr\000"
 3121 0f4f 01       		.byte	0x1
 3122 0f50 74       		.byte	0x74
ARM GAS  C:\Users\DNIEL~1\AppData\Local\Temp\ccWhrmOY.s 			page 56


 3123 0f51 86000000 		.4byte	0x86
 3124 0f55 90020000 		.4byte	.LLST23
 3125 0f59 25       		.uleb128 0x25
 3126 0f5a 42000000 		.4byte	.LBB11
 3127 0f5e 48000000 		.4byte	.LBE11
 3128 0f62 760F0000 		.4byte	0xf76
 3129 0f66 28       		.uleb128 0x28
 3130 0f67 746D7000 		.ascii	"tmp\000"
 3131 0f6b 01       		.byte	0x1
 3132 0f6c 8F       		.byte	0x8f
 3133 0f6d 86000000 		.4byte	0x86
 3134 0f71 A3020000 		.4byte	.LLST24
 3135 0f75 00       		.byte	0x0
 3136 0f76 25       		.uleb128 0x25
 3137 0f77 4C000000 		.4byte	.LBB12
 3138 0f7b 5A000000 		.4byte	.LBE12
 3139 0f7f 920F0000 		.4byte	0xf92
 3140 0f83 28       		.uleb128 0x28
 3141 0f84 747000   		.ascii	"tp\000"
 3142 0f87 01       		.byte	0x1
 3143 0f88 8F       		.byte	0x8f
 3144 0f89 5E020000 		.4byte	0x25e
 3145 0f8d C1020000 		.4byte	.LLST25
 3146 0f91 00       		.byte	0x0
 3147 0f92 1F       		.uleb128 0x1f
 3148 0f93 5A000000 		.4byte	.LBB13
 3149 0f97 60000000 		.4byte	.LBE13
 3150 0f9b 28       		.uleb128 0x28
 3151 0f9c 746D7000 		.ascii	"tmp\000"
 3152 0fa0 01       		.byte	0x1
 3153 0fa1 8F       		.byte	0x8f
 3154 0fa2 86000000 		.4byte	0x86
 3155 0fa6 D8020000 		.4byte	.LLST26
 3156 0faa 00       		.byte	0x0
 3157 0fab 00       		.byte	0x0
 3158 0fac 29       		.uleb128 0x29
 3159 0fad 01       		.byte	0x1
 3160 0fae 2E020000 		.4byte	.LASF249
 3161 0fb2 01       		.byte	0x1
 3162 0fb3 7E01     		.2byte	0x17e
 3163 0fb5 01       		.byte	0x1
 3164 0fb6 00000000 		.4byte	.LFB125
 3165 0fba 10000000 		.4byte	.LFE125
 3166 0fbe 02       		.byte	0x2
 3167 0fbf 7D       		.byte	0x7d
 3168 0fc0 00       		.sleb128 0
 3169 0fc1 29       		.uleb128 0x29
 3170 0fc2 01       		.byte	0x1
 3171 0fc3 A60B0000 		.4byte	.LASF250
 3172 0fc7 01       		.byte	0x1
 3173 0fc8 8901     		.2byte	0x189
 3174 0fca 01       		.byte	0x1
 3175 0fcb 00000000 		.4byte	.LFB126
 3176 0fcf 10000000 		.4byte	.LFE126
 3177 0fd3 02       		.byte	0x2
 3178 0fd4 7D       		.byte	0x7d
 3179 0fd5 00       		.sleb128 0
ARM GAS  C:\Users\DNIEL~1\AppData\Local\Temp\ccWhrmOY.s 			page 57


 3180 0fd6 29       		.uleb128 0x29
 3181 0fd7 01       		.byte	0x1
 3182 0fd8 3D090000 		.4byte	.LASF251
 3183 0fdc 01       		.byte	0x1
 3184 0fdd 9301     		.2byte	0x193
 3185 0fdf 01       		.byte	0x1
 3186 0fe0 00000000 		.4byte	.LFB127
 3187 0fe4 10000000 		.4byte	.LFE127
 3188 0fe8 02       		.byte	0x2
 3189 0fe9 7D       		.byte	0x7d
 3190 0fea 00       		.sleb128 0
 3191 0feb 29       		.uleb128 0x29
 3192 0fec 01       		.byte	0x1
 3193 0fed F5000000 		.4byte	.LASF252
 3194 0ff1 01       		.byte	0x1
 3195 0ff2 9D01     		.2byte	0x19d
 3196 0ff4 01       		.byte	0x1
 3197 0ff5 00000000 		.4byte	.LFB128
 3198 0ff9 10000000 		.4byte	.LFE128
 3199 0ffd 02       		.byte	0x2
 3200 0ffe 7D       		.byte	0x7d
 3201 0fff 00       		.sleb128 0
 3202 1000 2A       		.uleb128 0x2a
 3203 1001 770A0000 		.4byte	.LASF253
 3204 1005 0D       		.byte	0xd
 3205 1006 9806     		.2byte	0x698
 3206 1008 39060000 		.4byte	0x639
 3207 100c 01       		.byte	0x1
 3208 100d 01       		.byte	0x1
 3209 100e 13       		.uleb128 0x13
 3210 100f 640A0000 		.4byte	0xa64
 3211 1013 1E100000 		.4byte	0x101e
 3212 1017 14       		.uleb128 0x14
 3213 1018 3B000000 		.4byte	0x3b
 3214 101c 0F       		.byte	0xf
 3215 101d 00       		.byte	0x0
 3216 101e 2A       		.uleb128 0x2a
 3217 101f 16050000 		.4byte	.LASF254
 3218 1023 0A       		.byte	0xa
 3219 1024 BB01     		.2byte	0x1bb
 3220 1026 2C100000 		.4byte	0x102c
 3221 102a 01       		.byte	0x1
 3222 102b 01       		.byte	0x1
 3223 102c 10       		.uleb128 0x10
 3224 102d 0E100000 		.4byte	0x100e
 3225 1031 2A       		.uleb128 0x2a
 3226 1032 70070000 		.4byte	.LASF255
 3227 1036 0C       		.byte	0xc
 3228 1037 2002     		.2byte	0x220
 3229 1039 030B0000 		.4byte	0xb03
 3230 103d 01       		.byte	0x1
 3231 103e 01       		.byte	0x1
 3232 103f 2A       		.uleb128 0x2a
 3233 1040 770A0000 		.4byte	.LASF253
 3234 1044 0D       		.byte	0xd
 3235 1045 9806     		.2byte	0x698
 3236 1047 39060000 		.4byte	0x639
ARM GAS  C:\Users\DNIEL~1\AppData\Local\Temp\ccWhrmOY.s 			page 58


 3237 104b 01       		.byte	0x1
 3238 104c 01       		.byte	0x1
 3239 104d 2A       		.uleb128 0x2a
 3240 104e 16050000 		.4byte	.LASF254
 3241 1052 0A       		.byte	0xa
 3242 1053 BB01     		.2byte	0x1bb
 3243 1055 5B100000 		.4byte	0x105b
 3244 1059 01       		.byte	0x1
 3245 105a 01       		.byte	0x1
 3246 105b 10       		.uleb128 0x10
 3247 105c 0E100000 		.4byte	0x100e
 3248 1060 2B       		.uleb128 0x2b
 3249 1061 70070000 		.4byte	.LASF255
 3250 1065 01       		.byte	0x1
 3251 1066 3A       		.byte	0x3a
 3252 1067 030B0000 		.4byte	0xb03
 3253 106b 01       		.byte	0x1
 3254 106c 05       		.byte	0x5
 3255 106d 03       		.byte	0x3
 3256 106e 00000000 		.4byte	ADCD2
 3257 1072 00       		.byte	0x0
 3258              		.section	.debug_abbrev
 3259 0000 01       		.uleb128 0x1
 3260 0001 11       		.uleb128 0x11
 3261 0002 01       		.byte	0x1
 3262 0003 25       		.uleb128 0x25
 3263 0004 0E       		.uleb128 0xe
 3264 0005 13       		.uleb128 0x13
 3265 0006 0B       		.uleb128 0xb
 3266 0007 03       		.uleb128 0x3
 3267 0008 0E       		.uleb128 0xe
 3268 0009 1B       		.uleb128 0x1b
 3269 000a 0E       		.uleb128 0xe
 3270 000b 11       		.uleb128 0x11
 3271 000c 01       		.uleb128 0x1
 3272 000d 52       		.uleb128 0x52
 3273 000e 01       		.uleb128 0x1
 3274 000f 55       		.uleb128 0x55
 3275 0010 06       		.uleb128 0x6
 3276 0011 10       		.uleb128 0x10
 3277 0012 06       		.uleb128 0x6
 3278 0013 00       		.byte	0x0
 3279 0014 00       		.byte	0x0
 3280 0015 02       		.uleb128 0x2
 3281 0016 24       		.uleb128 0x24
 3282 0017 00       		.byte	0x0
 3283 0018 0B       		.uleb128 0xb
 3284 0019 0B       		.uleb128 0xb
 3285 001a 3E       		.uleb128 0x3e
 3286 001b 0B       		.uleb128 0xb
 3287 001c 03       		.uleb128 0x3
 3288 001d 08       		.uleb128 0x8
 3289 001e 00       		.byte	0x0
 3290 001f 00       		.byte	0x0
 3291 0020 03       		.uleb128 0x3
 3292 0021 16       		.uleb128 0x16
 3293 0022 00       		.byte	0x0
ARM GAS  C:\Users\DNIEL~1\AppData\Local\Temp\ccWhrmOY.s 			page 59


 3294 0023 03       		.uleb128 0x3
 3295 0024 0E       		.uleb128 0xe
 3296 0025 3A       		.uleb128 0x3a
 3297 0026 0B       		.uleb128 0xb
 3298 0027 3B       		.uleb128 0x3b
 3299 0028 0B       		.uleb128 0xb
 3300 0029 49       		.uleb128 0x49
 3301 002a 13       		.uleb128 0x13
 3302 002b 00       		.byte	0x0
 3303 002c 00       		.byte	0x0
 3304 002d 04       		.uleb128 0x4
 3305 002e 24       		.uleb128 0x24
 3306 002f 00       		.byte	0x0
 3307 0030 0B       		.uleb128 0xb
 3308 0031 0B       		.uleb128 0xb
 3309 0032 3E       		.uleb128 0x3e
 3310 0033 0B       		.uleb128 0xb
 3311 0034 03       		.uleb128 0x3
 3312 0035 0E       		.uleb128 0xe
 3313 0036 00       		.byte	0x0
 3314 0037 00       		.byte	0x0
 3315 0038 05       		.uleb128 0x5
 3316 0039 13       		.uleb128 0x13
 3317 003a 01       		.byte	0x1
 3318 003b 03       		.uleb128 0x3
 3319 003c 0E       		.uleb128 0xe
 3320 003d 0B       		.uleb128 0xb
 3321 003e 0B       		.uleb128 0xb
 3322 003f 3A       		.uleb128 0x3a
 3323 0040 0B       		.uleb128 0xb
 3324 0041 3B       		.uleb128 0x3b
 3325 0042 0B       		.uleb128 0xb
 3326 0043 01       		.uleb128 0x1
 3327 0044 13       		.uleb128 0x13
 3328 0045 00       		.byte	0x0
 3329 0046 00       		.byte	0x0
 3330 0047 06       		.uleb128 0x6
 3331 0048 0D       		.uleb128 0xd
 3332 0049 00       		.byte	0x0
 3333 004a 03       		.uleb128 0x3
 3334 004b 0E       		.uleb128 0xe
 3335 004c 3A       		.uleb128 0x3a
 3336 004d 0B       		.uleb128 0xb
 3337 004e 3B       		.uleb128 0x3b
 3338 004f 0B       		.uleb128 0xb
 3339 0050 49       		.uleb128 0x49
 3340 0051 13       		.uleb128 0x13
 3341 0052 38       		.uleb128 0x38
 3342 0053 0A       		.uleb128 0xa
 3343 0054 00       		.byte	0x0
 3344 0055 00       		.byte	0x0
 3345 0056 07       		.uleb128 0x7
 3346 0057 0D       		.uleb128 0xd
 3347 0058 00       		.byte	0x0
 3348 0059 03       		.uleb128 0x3
 3349 005a 08       		.uleb128 0x8
 3350 005b 3A       		.uleb128 0x3a
ARM GAS  C:\Users\DNIEL~1\AppData\Local\Temp\ccWhrmOY.s 			page 60


 3351 005c 0B       		.uleb128 0xb
 3352 005d 3B       		.uleb128 0x3b
 3353 005e 0B       		.uleb128 0xb
 3354 005f 49       		.uleb128 0x49
 3355 0060 13       		.uleb128 0x13
 3356 0061 38       		.uleb128 0x38
 3357 0062 0A       		.uleb128 0xa
 3358 0063 00       		.byte	0x0
 3359 0064 00       		.byte	0x0
 3360 0065 08       		.uleb128 0x8
 3361 0066 13       		.uleb128 0x13
 3362 0067 01       		.byte	0x1
 3363 0068 0B       		.uleb128 0xb
 3364 0069 0B       		.uleb128 0xb
 3365 006a 3A       		.uleb128 0x3a
 3366 006b 0B       		.uleb128 0xb
 3367 006c 3B       		.uleb128 0x3b
 3368 006d 0B       		.uleb128 0xb
 3369 006e 01       		.uleb128 0x1
 3370 006f 13       		.uleb128 0x13
 3371 0070 00       		.byte	0x0
 3372 0071 00       		.byte	0x0
 3373 0072 09       		.uleb128 0x9
 3374 0073 0F       		.uleb128 0xf
 3375 0074 00       		.byte	0x0
 3376 0075 0B       		.uleb128 0xb
 3377 0076 0B       		.uleb128 0xb
 3378 0077 49       		.uleb128 0x49
 3379 0078 13       		.uleb128 0x13
 3380 0079 00       		.byte	0x0
 3381 007a 00       		.byte	0x0
 3382 007b 0A       		.uleb128 0xa
 3383 007c 0F       		.uleb128 0xf
 3384 007d 00       		.byte	0x0
 3385 007e 0B       		.uleb128 0xb
 3386 007f 0B       		.uleb128 0xb
 3387 0080 00       		.byte	0x0
 3388 0081 00       		.byte	0x0
 3389 0082 0B       		.uleb128 0xb
 3390 0083 13       		.uleb128 0x13
 3391 0084 01       		.byte	0x1
 3392 0085 03       		.uleb128 0x3
 3393 0086 0E       		.uleb128 0xe
 3394 0087 0B       		.uleb128 0xb
 3395 0088 0B       		.uleb128 0xb
 3396 0089 3A       		.uleb128 0x3a
 3397 008a 0B       		.uleb128 0xb
 3398 008b 3B       		.uleb128 0x3b
 3399 008c 05       		.uleb128 0x5
 3400 008d 01       		.uleb128 0x1
 3401 008e 13       		.uleb128 0x13
 3402 008f 00       		.byte	0x0
 3403 0090 00       		.byte	0x0
 3404 0091 0C       		.uleb128 0xc
 3405 0092 0D       		.uleb128 0xd
 3406 0093 00       		.byte	0x0
 3407 0094 03       		.uleb128 0x3
ARM GAS  C:\Users\DNIEL~1\AppData\Local\Temp\ccWhrmOY.s 			page 61


 3408 0095 08       		.uleb128 0x8
 3409 0096 3A       		.uleb128 0x3a
 3410 0097 0B       		.uleb128 0xb
 3411 0098 3B       		.uleb128 0x3b
 3412 0099 05       		.uleb128 0x5
 3413 009a 49       		.uleb128 0x49
 3414 009b 13       		.uleb128 0x13
 3415 009c 38       		.uleb128 0x38
 3416 009d 0A       		.uleb128 0xa
 3417 009e 00       		.byte	0x0
 3418 009f 00       		.byte	0x0
 3419 00a0 0D       		.uleb128 0xd
 3420 00a1 35       		.uleb128 0x35
 3421 00a2 00       		.byte	0x0
 3422 00a3 49       		.uleb128 0x49
 3423 00a4 13       		.uleb128 0x13
 3424 00a5 00       		.byte	0x0
 3425 00a6 00       		.byte	0x0
 3426 00a7 0E       		.uleb128 0xe
 3427 00a8 17       		.uleb128 0x17
 3428 00a9 01       		.byte	0x1
 3429 00aa 0B       		.uleb128 0xb
 3430 00ab 0B       		.uleb128 0xb
 3431 00ac 3A       		.uleb128 0x3a
 3432 00ad 0B       		.uleb128 0xb
 3433 00ae 3B       		.uleb128 0x3b
 3434 00af 0B       		.uleb128 0xb
 3435 00b0 01       		.uleb128 0x1
 3436 00b1 13       		.uleb128 0x13
 3437 00b2 00       		.byte	0x0
 3438 00b3 00       		.byte	0x0
 3439 00b4 0F       		.uleb128 0xf
 3440 00b5 0D       		.uleb128 0xd
 3441 00b6 00       		.byte	0x0
 3442 00b7 03       		.uleb128 0x3
 3443 00b8 0E       		.uleb128 0xe
 3444 00b9 3A       		.uleb128 0x3a
 3445 00ba 0B       		.uleb128 0xb
 3446 00bb 3B       		.uleb128 0x3b
 3447 00bc 0B       		.uleb128 0xb
 3448 00bd 49       		.uleb128 0x49
 3449 00be 13       		.uleb128 0x13
 3450 00bf 00       		.byte	0x0
 3451 00c0 00       		.byte	0x0
 3452 00c1 10       		.uleb128 0x10
 3453 00c2 26       		.uleb128 0x26
 3454 00c3 00       		.byte	0x0
 3455 00c4 49       		.uleb128 0x49
 3456 00c5 13       		.uleb128 0x13
 3457 00c6 00       		.byte	0x0
 3458 00c7 00       		.byte	0x0
 3459 00c8 11       		.uleb128 0x11
 3460 00c9 04       		.uleb128 0x4
 3461 00ca 01       		.byte	0x1
 3462 00cb 03       		.uleb128 0x3
 3463 00cc 0E       		.uleb128 0xe
 3464 00cd 0B       		.uleb128 0xb
ARM GAS  C:\Users\DNIEL~1\AppData\Local\Temp\ccWhrmOY.s 			page 62


 3465 00ce 0B       		.uleb128 0xb
 3466 00cf 3A       		.uleb128 0x3a
 3467 00d0 0B       		.uleb128 0xb
 3468 00d1 3B       		.uleb128 0x3b
 3469 00d2 0B       		.uleb128 0xb
 3470 00d3 01       		.uleb128 0x1
 3471 00d4 13       		.uleb128 0x13
 3472 00d5 00       		.byte	0x0
 3473 00d6 00       		.byte	0x0
 3474 00d7 12       		.uleb128 0x12
 3475 00d8 28       		.uleb128 0x28
 3476 00d9 00       		.byte	0x0
 3477 00da 03       		.uleb128 0x3
 3478 00db 0E       		.uleb128 0xe
 3479 00dc 1C       		.uleb128 0x1c
 3480 00dd 0D       		.uleb128 0xd
 3481 00de 00       		.byte	0x0
 3482 00df 00       		.byte	0x0
 3483 00e0 13       		.uleb128 0x13
 3484 00e1 01       		.uleb128 0x1
 3485 00e2 01       		.byte	0x1
 3486 00e3 49       		.uleb128 0x49
 3487 00e4 13       		.uleb128 0x13
 3488 00e5 01       		.uleb128 0x1
 3489 00e6 13       		.uleb128 0x13
 3490 00e7 00       		.byte	0x0
 3491 00e8 00       		.byte	0x0
 3492 00e9 14       		.uleb128 0x14
 3493 00ea 21       		.uleb128 0x21
 3494 00eb 00       		.byte	0x0
 3495 00ec 49       		.uleb128 0x49
 3496 00ed 13       		.uleb128 0x13
 3497 00ee 2F       		.uleb128 0x2f
 3498 00ef 0B       		.uleb128 0xb
 3499 00f0 00       		.byte	0x0
 3500 00f1 00       		.byte	0x0
 3501 00f2 15       		.uleb128 0x15
 3502 00f3 13       		.uleb128 0x13
 3503 00f4 01       		.byte	0x1
 3504 00f5 0B       		.uleb128 0xb
 3505 00f6 0B       		.uleb128 0xb
 3506 00f7 3A       		.uleb128 0x3a
 3507 00f8 0B       		.uleb128 0xb
 3508 00f9 3B       		.uleb128 0x3b
 3509 00fa 05       		.uleb128 0x5
 3510 00fb 01       		.uleb128 0x1
 3511 00fc 13       		.uleb128 0x13
 3512 00fd 00       		.byte	0x0
 3513 00fe 00       		.byte	0x0
 3514 00ff 16       		.uleb128 0x16
 3515 0100 0D       		.uleb128 0xd
 3516 0101 00       		.byte	0x0
 3517 0102 03       		.uleb128 0x3
 3518 0103 0E       		.uleb128 0xe
 3519 0104 3A       		.uleb128 0x3a
 3520 0105 0B       		.uleb128 0xb
 3521 0106 3B       		.uleb128 0x3b
ARM GAS  C:\Users\DNIEL~1\AppData\Local\Temp\ccWhrmOY.s 			page 63


 3522 0107 05       		.uleb128 0x5
 3523 0108 49       		.uleb128 0x49
 3524 0109 13       		.uleb128 0x13
 3525 010a 38       		.uleb128 0x38
 3526 010b 0A       		.uleb128 0xa
 3527 010c 00       		.byte	0x0
 3528 010d 00       		.byte	0x0
 3529 010e 17       		.uleb128 0x17
 3530 010f 16       		.uleb128 0x16
 3531 0110 00       		.byte	0x0
 3532 0111 03       		.uleb128 0x3
 3533 0112 0E       		.uleb128 0xe
 3534 0113 3A       		.uleb128 0x3a
 3535 0114 0B       		.uleb128 0xb
 3536 0115 3B       		.uleb128 0x3b
 3537 0116 05       		.uleb128 0x5
 3538 0117 49       		.uleb128 0x49
 3539 0118 13       		.uleb128 0x13
 3540 0119 00       		.byte	0x0
 3541 011a 00       		.byte	0x0
 3542 011b 18       		.uleb128 0x18
 3543 011c 15       		.uleb128 0x15
 3544 011d 01       		.byte	0x1
 3545 011e 27       		.uleb128 0x27
 3546 011f 0C       		.uleb128 0xc
 3547 0120 01       		.uleb128 0x1
 3548 0121 13       		.uleb128 0x13
 3549 0122 00       		.byte	0x0
 3550 0123 00       		.byte	0x0
 3551 0124 19       		.uleb128 0x19
 3552 0125 05       		.uleb128 0x5
 3553 0126 00       		.byte	0x0
 3554 0127 49       		.uleb128 0x49
 3555 0128 13       		.uleb128 0x13
 3556 0129 00       		.byte	0x0
 3557 012a 00       		.byte	0x0
 3558 012b 1A       		.uleb128 0x1a
 3559 012c 04       		.uleb128 0x4
 3560 012d 01       		.byte	0x1
 3561 012e 0B       		.uleb128 0xb
 3562 012f 0B       		.uleb128 0xb
 3563 0130 3A       		.uleb128 0x3a
 3564 0131 0B       		.uleb128 0xb
 3565 0132 3B       		.uleb128 0x3b
 3566 0133 0B       		.uleb128 0xb
 3567 0134 01       		.uleb128 0x1
 3568 0135 13       		.uleb128 0x13
 3569 0136 00       		.byte	0x0
 3570 0137 00       		.byte	0x0
 3571 0138 1B       		.uleb128 0x1b
 3572 0139 04       		.uleb128 0x4
 3573 013a 01       		.byte	0x1
 3574 013b 0B       		.uleb128 0xb
 3575 013c 0B       		.uleb128 0xb
 3576 013d 3A       		.uleb128 0x3a
 3577 013e 0B       		.uleb128 0xb
 3578 013f 3B       		.uleb128 0x3b
ARM GAS  C:\Users\DNIEL~1\AppData\Local\Temp\ccWhrmOY.s 			page 64


 3579 0140 05       		.uleb128 0x5
 3580 0141 01       		.uleb128 0x1
 3581 0142 13       		.uleb128 0x13
 3582 0143 00       		.byte	0x0
 3583 0144 00       		.byte	0x0
 3584 0145 1C       		.uleb128 0x1c
 3585 0146 2E       		.uleb128 0x2e
 3586 0147 00       		.byte	0x0
 3587 0148 3F       		.uleb128 0x3f
 3588 0149 0C       		.uleb128 0xc
 3589 014a 03       		.uleb128 0x3
 3590 014b 0E       		.uleb128 0xe
 3591 014c 3A       		.uleb128 0x3a
 3592 014d 0B       		.uleb128 0xb
 3593 014e 3B       		.uleb128 0x3b
 3594 014f 0B       		.uleb128 0xb
 3595 0150 27       		.uleb128 0x27
 3596 0151 0C       		.uleb128 0xc
 3597 0152 11       		.uleb128 0x11
 3598 0153 01       		.uleb128 0x1
 3599 0154 12       		.uleb128 0x12
 3600 0155 01       		.uleb128 0x1
 3601 0156 40       		.uleb128 0x40
 3602 0157 06       		.uleb128 0x6
 3603 0158 00       		.byte	0x0
 3604 0159 00       		.byte	0x0
 3605 015a 1D       		.uleb128 0x1d
 3606 015b 2E       		.uleb128 0x2e
 3607 015c 01       		.byte	0x1
 3608 015d 3F       		.uleb128 0x3f
 3609 015e 0C       		.uleb128 0xc
 3610 015f 03       		.uleb128 0x3
 3611 0160 0E       		.uleb128 0xe
 3612 0161 3A       		.uleb128 0x3a
 3613 0162 0B       		.uleb128 0xb
 3614 0163 3B       		.uleb128 0x3b
 3615 0164 0B       		.uleb128 0xb
 3616 0165 27       		.uleb128 0x27
 3617 0166 0C       		.uleb128 0xc
 3618 0167 11       		.uleb128 0x11
 3619 0168 01       		.uleb128 0x1
 3620 0169 12       		.uleb128 0x12
 3621 016a 01       		.uleb128 0x1
 3622 016b 40       		.uleb128 0x40
 3623 016c 06       		.uleb128 0x6
 3624 016d 01       		.uleb128 0x1
 3625 016e 13       		.uleb128 0x13
 3626 016f 00       		.byte	0x0
 3627 0170 00       		.byte	0x0
 3628 0171 1E       		.uleb128 0x1e
 3629 0172 05       		.uleb128 0x5
 3630 0173 00       		.byte	0x0
 3631 0174 03       		.uleb128 0x3
 3632 0175 0E       		.uleb128 0xe
 3633 0176 3A       		.uleb128 0x3a
 3634 0177 0B       		.uleb128 0xb
 3635 0178 3B       		.uleb128 0x3b
ARM GAS  C:\Users\DNIEL~1\AppData\Local\Temp\ccWhrmOY.s 			page 65


 3636 0179 0B       		.uleb128 0xb
 3637 017a 49       		.uleb128 0x49
 3638 017b 13       		.uleb128 0x13
 3639 017c 02       		.uleb128 0x2
 3640 017d 06       		.uleb128 0x6
 3641 017e 00       		.byte	0x0
 3642 017f 00       		.byte	0x0
 3643 0180 1F       		.uleb128 0x1f
 3644 0181 0B       		.uleb128 0xb
 3645 0182 01       		.byte	0x1
 3646 0183 11       		.uleb128 0x11
 3647 0184 01       		.uleb128 0x1
 3648 0185 12       		.uleb128 0x12
 3649 0186 01       		.uleb128 0x1
 3650 0187 00       		.byte	0x0
 3651 0188 00       		.byte	0x0
 3652 0189 20       		.uleb128 0x20
 3653 018a 34       		.uleb128 0x34
 3654 018b 00       		.byte	0x0
 3655 018c 03       		.uleb128 0x3
 3656 018d 08       		.uleb128 0x8
 3657 018e 3A       		.uleb128 0x3a
 3658 018f 0B       		.uleb128 0xb
 3659 0190 3B       		.uleb128 0x3b
 3660 0191 0B       		.uleb128 0xb
 3661 0192 49       		.uleb128 0x49
 3662 0193 13       		.uleb128 0x13
 3663 0194 00       		.byte	0x0
 3664 0195 00       		.byte	0x0
 3665 0196 21       		.uleb128 0x21
 3666 0197 2E       		.uleb128 0x2e
 3667 0198 01       		.byte	0x1
 3668 0199 3F       		.uleb128 0x3f
 3669 019a 0C       		.uleb128 0xc
 3670 019b 03       		.uleb128 0x3
 3671 019c 0E       		.uleb128 0xe
 3672 019d 3A       		.uleb128 0x3a
 3673 019e 0B       		.uleb128 0xb
 3674 019f 3B       		.uleb128 0x3b
 3675 01a0 05       		.uleb128 0x5
 3676 01a1 27       		.uleb128 0x27
 3677 01a2 0C       		.uleb128 0xc
 3678 01a3 11       		.uleb128 0x11
 3679 01a4 01       		.uleb128 0x1
 3680 01a5 12       		.uleb128 0x12
 3681 01a6 01       		.uleb128 0x1
 3682 01a7 40       		.uleb128 0x40
 3683 01a8 06       		.uleb128 0x6
 3684 01a9 01       		.uleb128 0x1
 3685 01aa 13       		.uleb128 0x13
 3686 01ab 00       		.byte	0x0
 3687 01ac 00       		.byte	0x0
 3688 01ad 22       		.uleb128 0x22
 3689 01ae 05       		.uleb128 0x5
 3690 01af 00       		.byte	0x0
 3691 01b0 03       		.uleb128 0x3
 3692 01b1 0E       		.uleb128 0xe
ARM GAS  C:\Users\DNIEL~1\AppData\Local\Temp\ccWhrmOY.s 			page 66


 3693 01b2 3A       		.uleb128 0x3a
 3694 01b3 0B       		.uleb128 0xb
 3695 01b4 3B       		.uleb128 0x3b
 3696 01b5 05       		.uleb128 0x5
 3697 01b6 49       		.uleb128 0x49
 3698 01b7 13       		.uleb128 0x13
 3699 01b8 02       		.uleb128 0x2
 3700 01b9 06       		.uleb128 0x6
 3701 01ba 00       		.byte	0x0
 3702 01bb 00       		.byte	0x0
 3703 01bc 23       		.uleb128 0x23
 3704 01bd 34       		.uleb128 0x34
 3705 01be 00       		.byte	0x0
 3706 01bf 03       		.uleb128 0x3
 3707 01c0 0E       		.uleb128 0xe
 3708 01c1 3A       		.uleb128 0x3a
 3709 01c2 0B       		.uleb128 0xb
 3710 01c3 3B       		.uleb128 0x3b
 3711 01c4 05       		.uleb128 0x5
 3712 01c5 49       		.uleb128 0x49
 3713 01c6 13       		.uleb128 0x13
 3714 01c7 02       		.uleb128 0x2
 3715 01c8 06       		.uleb128 0x6
 3716 01c9 00       		.byte	0x0
 3717 01ca 00       		.byte	0x0
 3718 01cb 24       		.uleb128 0x24
 3719 01cc 2E       		.uleb128 0x2e
 3720 01cd 01       		.byte	0x1
 3721 01ce 03       		.uleb128 0x3
 3722 01cf 0E       		.uleb128 0xe
 3723 01d0 3A       		.uleb128 0x3a
 3724 01d1 0B       		.uleb128 0xb
 3725 01d2 3B       		.uleb128 0x3b
 3726 01d3 0B       		.uleb128 0xb
 3727 01d4 27       		.uleb128 0x27
 3728 01d5 0C       		.uleb128 0xc
 3729 01d6 11       		.uleb128 0x11
 3730 01d7 01       		.uleb128 0x1
 3731 01d8 12       		.uleb128 0x12
 3732 01d9 01       		.uleb128 0x1
 3733 01da 40       		.uleb128 0x40
 3734 01db 06       		.uleb128 0x6
 3735 01dc 01       		.uleb128 0x1
 3736 01dd 13       		.uleb128 0x13
 3737 01de 00       		.byte	0x0
 3738 01df 00       		.byte	0x0
 3739 01e0 25       		.uleb128 0x25
 3740 01e1 0B       		.uleb128 0xb
 3741 01e2 01       		.byte	0x1
 3742 01e3 11       		.uleb128 0x11
 3743 01e4 01       		.uleb128 0x1
 3744 01e5 12       		.uleb128 0x12
 3745 01e6 01       		.uleb128 0x1
 3746 01e7 01       		.uleb128 0x1
 3747 01e8 13       		.uleb128 0x13
 3748 01e9 00       		.byte	0x0
 3749 01ea 00       		.byte	0x0
ARM GAS  C:\Users\DNIEL~1\AppData\Local\Temp\ccWhrmOY.s 			page 67


 3750 01eb 26       		.uleb128 0x26
 3751 01ec 34       		.uleb128 0x34
 3752 01ed 00       		.byte	0x0
 3753 01ee 03       		.uleb128 0x3
 3754 01ef 0E       		.uleb128 0xe
 3755 01f0 3A       		.uleb128 0x3a
 3756 01f1 0B       		.uleb128 0xb
 3757 01f2 3B       		.uleb128 0x3b
 3758 01f3 0B       		.uleb128 0xb
 3759 01f4 49       		.uleb128 0x49
 3760 01f5 13       		.uleb128 0x13
 3761 01f6 02       		.uleb128 0x2
 3762 01f7 06       		.uleb128 0x6
 3763 01f8 00       		.byte	0x0
 3764 01f9 00       		.byte	0x0
 3765 01fa 27       		.uleb128 0x27
 3766 01fb 34       		.uleb128 0x34
 3767 01fc 00       		.byte	0x0
 3768 01fd 03       		.uleb128 0x3
 3769 01fe 0E       		.uleb128 0xe
 3770 01ff 3A       		.uleb128 0x3a
 3771 0200 0B       		.uleb128 0xb
 3772 0201 3B       		.uleb128 0x3b
 3773 0202 0B       		.uleb128 0xb
 3774 0203 49       		.uleb128 0x49
 3775 0204 13       		.uleb128 0x13
 3776 0205 00       		.byte	0x0
 3777 0206 00       		.byte	0x0
 3778 0207 28       		.uleb128 0x28
 3779 0208 34       		.uleb128 0x34
 3780 0209 00       		.byte	0x0
 3781 020a 03       		.uleb128 0x3
 3782 020b 08       		.uleb128 0x8
 3783 020c 3A       		.uleb128 0x3a
 3784 020d 0B       		.uleb128 0xb
 3785 020e 3B       		.uleb128 0x3b
 3786 020f 0B       		.uleb128 0xb
 3787 0210 49       		.uleb128 0x49
 3788 0211 13       		.uleb128 0x13
 3789 0212 02       		.uleb128 0x2
 3790 0213 06       		.uleb128 0x6
 3791 0214 00       		.byte	0x0
 3792 0215 00       		.byte	0x0
 3793 0216 29       		.uleb128 0x29
 3794 0217 2E       		.uleb128 0x2e
 3795 0218 00       		.byte	0x0
 3796 0219 3F       		.uleb128 0x3f
 3797 021a 0C       		.uleb128 0xc
 3798 021b 03       		.uleb128 0x3
 3799 021c 0E       		.uleb128 0xe
 3800 021d 3A       		.uleb128 0x3a
 3801 021e 0B       		.uleb128 0xb
 3802 021f 3B       		.uleb128 0x3b
 3803 0220 05       		.uleb128 0x5
 3804 0221 27       		.uleb128 0x27
 3805 0222 0C       		.uleb128 0xc
 3806 0223 11       		.uleb128 0x11
ARM GAS  C:\Users\DNIEL~1\AppData\Local\Temp\ccWhrmOY.s 			page 68


 3807 0224 01       		.uleb128 0x1
 3808 0225 12       		.uleb128 0x12
 3809 0226 01       		.uleb128 0x1
 3810 0227 40       		.uleb128 0x40
 3811 0228 0A       		.uleb128 0xa
 3812 0229 00       		.byte	0x0
 3813 022a 00       		.byte	0x0
 3814 022b 2A       		.uleb128 0x2a
 3815 022c 34       		.uleb128 0x34
 3816 022d 00       		.byte	0x0
 3817 022e 03       		.uleb128 0x3
 3818 022f 0E       		.uleb128 0xe
 3819 0230 3A       		.uleb128 0x3a
 3820 0231 0B       		.uleb128 0xb
 3821 0232 3B       		.uleb128 0x3b
 3822 0233 05       		.uleb128 0x5
 3823 0234 49       		.uleb128 0x49
 3824 0235 13       		.uleb128 0x13
 3825 0236 3F       		.uleb128 0x3f
 3826 0237 0C       		.uleb128 0xc
 3827 0238 3C       		.uleb128 0x3c
 3828 0239 0C       		.uleb128 0xc
 3829 023a 00       		.byte	0x0
 3830 023b 00       		.byte	0x0
 3831 023c 2B       		.uleb128 0x2b
 3832 023d 34       		.uleb128 0x34
 3833 023e 00       		.byte	0x0
 3834 023f 03       		.uleb128 0x3
 3835 0240 0E       		.uleb128 0xe
 3836 0241 3A       		.uleb128 0x3a
 3837 0242 0B       		.uleb128 0xb
 3838 0243 3B       		.uleb128 0x3b
 3839 0244 0B       		.uleb128 0xb
 3840 0245 49       		.uleb128 0x49
 3841 0246 13       		.uleb128 0x13
 3842 0247 3F       		.uleb128 0x3f
 3843 0248 0C       		.uleb128 0xc
 3844 0249 02       		.uleb128 0x2
 3845 024a 0A       		.uleb128 0xa
 3846 024b 00       		.byte	0x0
 3847 024c 00       		.byte	0x0
 3848 024d 00       		.byte	0x0
 3849              		.section	.debug_pubnames,"",%progbits
 3850 0000 F8000000 		.4byte	0xf8
 3851 0004 0200     		.2byte	0x2
 3852 0006 00000000 		.4byte	.Ldebug_info0
 3853 000a 73100000 		.4byte	0x1073
 3854 000e 110D0000 		.4byte	0xd11
 3855 0012 6164635F 		.ascii	"adc_lld_init\000"
 3855      6C6C645F 
 3855      696E6974 
 3855      00
 3856 001f 260D0000 		.4byte	0xd26
 3857 0023 6164635F 		.ascii	"adc_lld_start\000"
 3857      6C6C645F 
 3857      73746172 
 3857      7400
ARM GAS  C:\Users\DNIEL~1\AppData\Local\Temp\ccWhrmOY.s 			page 69


 3858 0031 620D0000 		.4byte	0xd62
 3859 0035 6164635F 		.ascii	"adc_lld_stop\000"
 3859      6C6C645F 
 3859      73746F70 
 3859      00
 3860 0042 8D0D0000 		.4byte	0xd8d
 3861 0046 6164635F 		.ascii	"adc_lld_start_conversion\000"
 3861      6C6C645F 
 3861      73746172 
 3861      745F636F 
 3861      6E766572 
 3862 005f D80D0000 		.4byte	0xdd8
 3863 0063 6164635F 		.ascii	"adc_lld_stop_conversion\000"
 3863      6C6C645F 
 3863      73746F70 
 3863      5F636F6E 
 3863      76657273 
 3864 007b 320F0000 		.4byte	0xf32
 3865 007f 56656374 		.ascii	"Vector88\000"
 3865      6F723838 
 3865      00
 3866 0088 AC0F0000 		.4byte	0xfac
 3867 008c 61646353 		.ascii	"adcSTM32EnableTSVREFE\000"
 3867      544D3332 
 3867      456E6162 
 3867      6C655453 
 3867      56524546 
 3868 00a2 C10F0000 		.4byte	0xfc1
 3869 00a6 61646353 		.ascii	"adcSTM32DisableTSVREFE\000"
 3869      544D3332 
 3869      44697361 
 3869      626C6554 
 3869      53565245 
 3870 00bd D60F0000 		.4byte	0xfd6
 3871 00c1 61646353 		.ascii	"adcSTM32EnableVBATE\000"
 3871      544D3332 
 3871      456E6162 
 3871      6C655642 
 3871      41544500 
 3872 00d5 EB0F0000 		.4byte	0xfeb
 3873 00d9 61646353 		.ascii	"adcSTM32DisableVBATE\000"
 3873      544D3332 
 3873      44697361 
 3873      626C6556 
 3873      42415445 
 3874 00ee 60100000 		.4byte	0x1060
 3875 00f2 41444344 		.ascii	"ADCD2\000"
 3875      3200
 3876 00f8 00000000 		.4byte	0x0
 3877              		.section	.debug_pubtypes,"",%progbits
 3878 0000 5C020000 		.4byte	0x25c
 3879 0004 0200     		.2byte	0x2
 3880 0006 00000000 		.4byte	.Ldebug_info0
 3881 000a 73100000 		.4byte	0x1073
 3882 000e 30000000 		.4byte	0x30
 3883 0012 73697A65 		.ascii	"size_t\000"
 3883      5F7400
ARM GAS  C:\Users\DNIEL~1\AppData\Local\Temp\ccWhrmOY.s 			page 70


 3884 0019 49000000 		.4byte	0x49
 3885 001d 75696E74 		.ascii	"uint8_t\000"
 3885      385F7400 
 3886 0025 62000000 		.4byte	0x62
 3887 0029 75696E74 		.ascii	"uint16_t\000"
 3887      31365F74 
 3887      00
 3888 0032 74000000 		.4byte	0x74
 3889 0036 696E7433 		.ascii	"int32_t\000"
 3889      325F7400 
 3890 003e 86000000 		.4byte	0x86
 3891 0042 75696E74 		.ascii	"uint32_t\000"
 3891      33325F74 
 3891      00
 3892 004b A6000000 		.4byte	0xa6
 3893 004f 626F6F6C 		.ascii	"bool_t\000"
 3893      5F7400
 3894 0056 B1000000 		.4byte	0xb1
 3895 005a 746D6F64 		.ascii	"tmode_t\000"
 3895      655F7400 
 3896 0062 BC000000 		.4byte	0xbc
 3897 0066 74737461 		.ascii	"tstate_t\000"
 3897      74655F74 
 3897      00
 3898 006f C7000000 		.4byte	0xc7
 3899 0073 74726566 		.ascii	"trefs_t\000"
 3899      735F7400 
 3900 007b D2000000 		.4byte	0xd2
 3901 007f 74736C69 		.ascii	"tslices_t\000"
 3901      6365735F 
 3901      7400
 3902 0089 DD000000 		.4byte	0xdd
 3903 008d 74707269 		.ascii	"tprio_t\000"
 3903      6F5F7400 
 3904 0095 E8000000 		.4byte	0xe8
 3905 0099 6D73675F 		.ascii	"msg_t\000"
 3905      7400
 3906 009f F3000000 		.4byte	0xf3
 3907 00a3 6576656E 		.ascii	"eventmask_t\000"
 3907      746D6173 
 3907      6B5F7400 
 3908 00af FE000000 		.4byte	0xfe
 3909 00b3 73797374 		.ascii	"systime_t\000"
 3909      696D655F 
 3909      7400
 3910 00bd 09010000 		.4byte	0x109
 3911 00c1 54687265 		.ascii	"Thread\000"
 3911      616400
 3912 00c8 64020000 		.4byte	0x264
 3913 00cc 54687265 		.ascii	"ThreadsQueue\000"
 3913      61647351 
 3913      75657565 
 3913      00
 3914 00d9 86020000 		.4byte	0x286
 3915 00dd 54687265 		.ascii	"ThreadsList\000"
 3915      6164734C 
 3915      69737400 
ARM GAS  C:\Users\DNIEL~1\AppData\Local\Temp\ccWhrmOY.s 			page 71


 3916 00e9 91020000 		.4byte	0x291
 3917 00ed 72656761 		.ascii	"regarm_t\000"
 3917      726D5F74 
 3917      00
 3918 00f6 9E020000 		.4byte	0x29e
 3919 00fa 696E7463 		.ascii	"intctx\000"
 3919      747800
 3920 0101 2C030000 		.4byte	0x32c
 3921 0105 636F6E74 		.ascii	"context\000"
 3921      65787400 
 3922 010d 59030000 		.4byte	0x359
 3923 0111 4D757465 		.ascii	"Mutex\000"
 3923      7800
 3924 0117 96030000 		.4byte	0x396
 3925 011b 4D757465 		.ascii	"Mutex\000"
 3925      7800
 3926 0121 14010000 		.4byte	0x114
 3927 0125 54687265 		.ascii	"Thread\000"
 3927      616400
 3928 012c EE030000 		.4byte	0x3ee
 3929 0130 4952516E 		.ascii	"IRQn\000"
 3929      00
 3930 0135 72070000 		.4byte	0x772
 3931 0139 4144435F 		.ascii	"ADC_TypeDef\000"
 3931      54797065 
 3931      44656600 
 3932 0145 B5070000 		.4byte	0x7b5
 3933 0149 4144435F 		.ascii	"ADC_Common_TypeDef\000"
 3933      436F6D6D 
 3933      6F6E5F54 
 3933      79706544 
 3933      656600
 3934 015c 24080000 		.4byte	0x824
 3935 0160 444D415F 		.ascii	"DMA_Stream_TypeDef\000"
 3935      53747265 
 3935      616D5F54 
 3935      79706544 
 3935      656600
 3936 0173 FD090000 		.4byte	0x9fd
 3937 0177 5243435F 		.ascii	"RCC_TypeDef\000"
 3937      54797065 
 3937      44656600 
 3938 0183 640A0000 		.4byte	0xa64
 3939 0187 73746D33 		.ascii	"stm32_dma_stream_t\000"
 3939      325F646D 
 3939      615F7374 
 3939      7265616D 
 3939      5F7400
 3940 019a 6F0A0000 		.4byte	0xa6f
 3941 019e 73746D33 		.ascii	"stm32_dmaisr_t\000"
 3941      325F646D 
 3941      61697372 
 3941      5F7400
 3942 01ad BE0A0000 		.4byte	0xabe
 3943 01b1 61646373 		.ascii	"adcstate_t\000"
 3943      74617465 
 3943      5F7400
ARM GAS  C:\Users\DNIEL~1\AppData\Local\Temp\ccWhrmOY.s 			page 72


 3944 01bc C90A0000 		.4byte	0xac9
 3945 01c0 61646373 		.ascii	"adcsample_t\000"
 3945      616D706C 
 3945      655F7400 
 3946 01cc D50A0000 		.4byte	0xad5
 3947 01d0 6164635F 		.ascii	"adc_channels_num_t\000"
 3947      6368616E 
 3947      6E656C73 
 3947      5F6E756D 
 3947      5F7400
 3948 01e3 F70A0000 		.4byte	0xaf7
 3949 01e7 61646365 		.ascii	"adcerror_t\000"
 3949      72726F72 
 3949      5F7400
 3950 01f2 030B0000 		.4byte	0xb03
 3951 01f6 41444344 		.ascii	"ADCDriver\000"
 3951      72697665 
 3951      7200
 3952 0200 B30B0000 		.4byte	0xbb3
 3953 0204 61646363 		.ascii	"adccallback_t\000"
 3953      616C6C62 
 3953      61636B5F 
 3953      7400
 3954 0212 E70B0000 		.4byte	0xbe7
 3955 0216 61646365 		.ascii	"adcerrorcallback_t\000"
 3955      72726F72 
 3955      63616C6C 
 3955      6261636B 
 3955      5F7400
 3956 0229 B90C0000 		.4byte	0xcb9
 3957 022d 41444343 		.ascii	"ADCConversionGroup\000"
 3957      6F6E7665 
 3957      7273696F 
 3957      6E47726F 
 3957      757000
 3958 0240 DE0C0000 		.4byte	0xcde
 3959 0244 41444343 		.ascii	"ADCConfig\000"
 3959      6F6E6669 
 3959      6700
 3960 024e 0F0B0000 		.4byte	0xb0f
 3961 0252 41444344 		.ascii	"ADCDriver\000"
 3961      72697665 
 3961      7200
 3962 025c 00000000 		.4byte	0x0
 3963              		.section	.debug_aranges,"",%progbits
 3964 0000 6C000000 		.4byte	0x6c
 3965 0004 0200     		.2byte	0x2
 3966 0006 00000000 		.4byte	.Ldebug_info0
 3967 000a 04       		.byte	0x4
 3968 000b 00       		.byte	0x0
 3969 000c 0000     		.2byte	0x0
 3970 000e 0000     		.2byte	0x0
 3971 0010 00000000 		.4byte	.LFB120
 3972 0014 34000000 		.4byte	.LFE120-.LFB120
 3973 0018 00000000 		.4byte	.LFB121
 3974 001c 5C000000 		.4byte	.LFE121-.LFB121
 3975 0020 00000000 		.4byte	.LFB122
ARM GAS  C:\Users\DNIEL~1\AppData\Local\Temp\ccWhrmOY.s 			page 73


 3976 0024 34000000 		.4byte	.LFE122-.LFB122
 3977 0028 00000000 		.4byte	.LFB123
 3978 002c 80000000 		.4byte	.LFE123-.LFB123
 3979 0030 00000000 		.4byte	.LFB124
 3980 0034 2E000000 		.4byte	.LFE124-.LFB124
 3981 0038 00000000 		.4byte	.LFB118
 3982 003c 00010000 		.4byte	.LFE118-.LFB118
 3983 0040 00000000 		.4byte	.LFB119
 3984 0044 78000000 		.4byte	.LFE119-.LFB119
 3985 0048 00000000 		.4byte	.LFB125
 3986 004c 10000000 		.4byte	.LFE125-.LFB125
 3987 0050 00000000 		.4byte	.LFB126
 3988 0054 10000000 		.4byte	.LFE126-.LFB126
 3989 0058 00000000 		.4byte	.LFB127
 3990 005c 10000000 		.4byte	.LFE127-.LFB127
 3991 0060 00000000 		.4byte	.LFB128
 3992 0064 10000000 		.4byte	.LFE128-.LFB128
 3993 0068 00000000 		.4byte	0x0
 3994 006c 00000000 		.4byte	0x0
 3995              		.section	.debug_ranges,"",%progbits
 3996              	.Ldebug_ranges0:
 3997 0000 00000000 		.4byte	.LFB120
 3998 0004 34000000 		.4byte	.LFE120
 3999 0008 00000000 		.4byte	.LFB121
 4000 000c 5C000000 		.4byte	.LFE121
 4001 0010 00000000 		.4byte	.LFB122
 4002 0014 34000000 		.4byte	.LFE122
 4003 0018 00000000 		.4byte	.LFB123
 4004 001c 80000000 		.4byte	.LFE123
 4005 0020 00000000 		.4byte	.LFB124
 4006 0024 2E000000 		.4byte	.LFE124
 4007 0028 00000000 		.4byte	.LFB118
 4008 002c 00010000 		.4byte	.LFE118
 4009 0030 00000000 		.4byte	.LFB119
 4010 0034 78000000 		.4byte	.LFE119
 4011 0038 00000000 		.4byte	.LFB125
 4012 003c 10000000 		.4byte	.LFE125
 4013 0040 00000000 		.4byte	.LFB126
 4014 0044 10000000 		.4byte	.LFE126
 4015 0048 00000000 		.4byte	.LFB127
 4016 004c 10000000 		.4byte	.LFE127
 4017 0050 00000000 		.4byte	.LFB128
 4018 0054 10000000 		.4byte	.LFE128
 4019 0058 00000000 		.4byte	0x0
 4020 005c 00000000 		.4byte	0x0
 4021              		.section	.debug_str,"MS",%progbits,1
 4022              	.LASF165:
 4023 0000 4D314152 		.ascii	"M1AR\000"
 4023      00
 4024              	.LASF2:
 4025 0005 73697A65 		.ascii	"size_t\000"
 4025      5F7400
 4026              	.LASF109:
 4027 000c 54494D38 		.ascii	"TIM8_UP_TIM13_IRQn\000"
 4027      5F55505F 
 4027      54494D31 
 4027      335F4952 
ARM GAS  C:\Users\DNIEL~1\AppData\Local\Temp\ccWhrmOY.s 			page 74


 4027      516E00
 4028              	.LASF232:
 4029 001f 73717231 		.ascii	"sqr1\000"
 4029      00
 4030              	.LASF233:
 4031 0024 73717232 		.ascii	"sqr2\000"
 4031      00
 4032              	.LASF234:
 4033 0029 73717233 		.ascii	"sqr3\000"
 4033      00
 4034              	.LASF238:
 4035 002e 6164635F 		.ascii	"adc_lld_start\000"
 4035      6C6C645F 
 4035      73746172 
 4035      7400
 4036              	.LASF22:
 4037 003c 73797374 		.ascii	"systime_t\000"
 4037      696D655F 
 4037      7400
 4038              	.LASF193:
 4039 0046 504C4C49 		.ascii	"PLLI2SCFGR\000"
 4039      32534346 
 4039      475200
 4040              	.LASF27:
 4041 0051 705F6374 		.ascii	"p_ctx\000"
 4041      7800
 4042              	.LASF19:
 4043 0057 74707269 		.ascii	"tprio_t\000"
 4043      6F5F7400 
 4044              	.LASF224:
 4045 005f 61646363 		.ascii	"adccallback_t\000"
 4045      616C6C62 
 4045      61636B5F 
 4045      7400
 4046              	.LASF153:
 4047 006d 53515231 		.ascii	"SQR1\000"
 4047      00
 4048              	.LASF154:
 4049 0072 53515232 		.ascii	"SQR2\000"
 4049      00
 4050              	.LASF155:
 4051 0077 53515233 		.ascii	"SQR3\000"
 4051      00
 4052              	.LASF37:
 4053 007c 705F6D73 		.ascii	"p_msgqueue\000"
 4053      67717565 
 4053      756500
 4054              	.LASF8:
 4055 0087 696E7433 		.ascii	"int32_t\000"
 4055      325F7400 
 4056              	.LASF208:
 4057 008f 61646373 		.ascii	"adcstate_t\000"
 4057      74617465 
 4057      5F7400
 4058              	.LASF211:
 4059 009a 4144435F 		.ascii	"ADC_ERR_DMAFAILURE\000"
 4059      4552525F 
ARM GAS  C:\Users\DNIEL~1\AppData\Local\Temp\ccWhrmOY.s 			page 75


 4059      444D4146 
 4059      41494C55 
 4059      524500
 4060              	.LASF122:
 4061 00ad 444D4132 		.ascii	"DMA2_Stream1_IRQn\000"
 4061      5F537472 
 4061      65616D31 
 4061      5F495251 
 4061      6E00
 4062              	.LASF116:
 4063 00bf 53504933 		.ascii	"SPI3_IRQn\000"
 4063      5F495251 
 4063      6E00
 4064              	.LASF69:
 4065 00c9 464C4153 		.ascii	"FLASH_IRQn\000"
 4065      485F4952 
 4065      516E00
 4066              	.LASF143:
 4067 00d4 44434D49 		.ascii	"DCMI_IRQn\000"
 4067      5F495251 
 4067      6E00
 4068              	.LASF216:
 4069 00de 636F6E66 		.ascii	"config\000"
 4069      696700
 4070              	.LASF215:
 4071 00e5 73746174 		.ascii	"state\000"
 4071      6500
 4072              	.LASF93:
 4073 00eb 54494D32 		.ascii	"TIM2_IRQn\000"
 4073      5F495251 
 4073      6E00
 4074              	.LASF252:
 4075 00f5 61646353 		.ascii	"adcSTM32DisableVBATE\000"
 4075      544D3332 
 4075      44697361 
 4075      626C6556 
 4075      42415445 
 4076              	.LASF229:
 4077 010a 6572726F 		.ascii	"error_cb\000"
 4077      725F6362 
 4077      00
 4078              	.LASF129:
 4079 0113 43414E32 		.ascii	"CAN2_RX0_IRQn\000"
 4079      5F525830 
 4079      5F495251 
 4079      6E00
 4080              	.LASF136:
 4081 0121 55534152 		.ascii	"USART6_IRQn\000"
 4081      54365F49 
 4081      52516E00 
 4082              	.LASF50:
 4083 012d 6D5F6F77 		.ascii	"m_owner\000"
 4083      6E657200 
 4084              	.LASF160:
 4085 0135 4A445234 		.ascii	"JDR4\000"
 4085      00
 4086              	.LASF228:
ARM GAS  C:\Users\DNIEL~1\AppData\Local\Temp\ccWhrmOY.s 			page 76


 4087 013a 656E645F 		.ascii	"end_cb\000"
 4087      636200
 4088              	.LASF53:
 4089 0141 65786974 		.ascii	"exitcode\000"
 4089      636F6465 
 4089      00
 4090              	.LASF141:
 4091 014a 4F54475F 		.ascii	"OTG_HS_WKUP_IRQn\000"
 4091      48535F57 
 4091      4B55505F 
 4091      4952516E 
 4091      00
 4092              	.LASF55:
 4093 015b 65776D61 		.ascii	"ewmask\000"
 4093      736B00
 4094              	.LASF108:
 4095 0162 54494D38 		.ascii	"TIM8_BRK_TIM12_IRQn\000"
 4095      5F42524B 
 4095      5F54494D 
 4095      31325F49 
 4095      52516E00 
 4096              	.LASF184:
 4097 0176 41484232 		.ascii	"AHB2LPENR\000"
 4097      4C50454E 
 4097      5200
 4098              	.LASF28:
 4099 0180 705F6E65 		.ascii	"p_newer\000"
 4099      77657200 
 4100              	.LASF9:
 4101 0188 6C6F6E67 		.ascii	"long int\000"
 4101      20696E74 
 4101      00
 4102              	.LASF24:
 4103 0191 705F6E65 		.ascii	"p_next\000"
 4103      787400
 4104              	.LASF25:
 4105 0198 705F7072 		.ascii	"p_prev\000"
 4105      657600
 4106              	.LASF223:
 4107 019f 646D616D 		.ascii	"dmamode\000"
 4107      6F646500 
 4108              	.LASF133:
 4109 01a7 444D4132 		.ascii	"DMA2_Stream5_IRQn\000"
 4109      5F537472 
 4109      65616D35 
 4109      5F495251 
 4109      6E00
 4110              	.LASF16:
 4111 01b9 74737461 		.ascii	"tstate_t\000"
 4111      74655F74 
 4111      00
 4112              	.LASF247:
 4113 01c2 56656374 		.ascii	"Vector88\000"
 4113      6F723838 
 4113      00
 4114              	.LASF40:
 4115 01cb 705F6D74 		.ascii	"p_mtxlist\000"
ARM GAS  C:\Users\DNIEL~1\AppData\Local\Temp\ccWhrmOY.s 			page 77


 4115      786C6973 
 4115      7400
 4116              	.LASF91:
 4117 01d5 54494D31 		.ascii	"TIM1_TRG_COM_TIM11_IRQn\000"
 4117      5F545247 
 4117      5F434F4D 
 4117      5F54494D 
 4117      31315F49 
 4118              	.LASF45:
 4119 01ed 72656761 		.ascii	"regarm_t\000"
 4119      726D5F74 
 4119      00
 4120              	.LASF239:
 4121 01f6 6164635F 		.ascii	"adc_lld_stop\000"
 4121      6C6C645F 
 4121      73746F70 
 4121      00
 4122              	.LASF181:
 4123 0203 41504232 		.ascii	"APB2ENR\000"
 4123      454E5200 
 4124              	.LASF183:
 4125 020b 41484231 		.ascii	"AHB1LPENR\000"
 4125      4C50454E 
 4125      5200
 4126              	.LASF64:
 4127 0215 53797354 		.ascii	"SysTick_IRQn\000"
 4127      69636B5F 
 4127      4952516E 
 4127      00
 4128              	.LASF104:
 4129 0222 55534152 		.ascii	"USART3_IRQn\000"
 4129      54335F49 
 4129      52516E00 
 4130              	.LASF249:
 4131 022e 61646353 		.ascii	"adcSTM32EnableTSVREFE\000"
 4131      544D3332 
 4131      456E6162 
 4131      6C655453 
 4131      56524546 
 4132              	.LASF1:
 4133 0244 7369676E 		.ascii	"signed char\000"
 4133      65642063 
 4133      68617200 
 4134              	.LASF34:
 4135 0250 705F7072 		.ascii	"p_preempt\000"
 4135      65656D70 
 4135      7400
 4136              	.LASF3:
 4137 025a 75696E74 		.ascii	"uint8_t\000"
 4137      385F7400 
 4138              	.LASF21:
 4139 0262 6576656E 		.ascii	"eventmask_t\000"
 4139      746D6173 
 4139      6B5F7400 
 4140              	.LASF47:
 4141 026e 636F6E74 		.ascii	"context\000"
 4141      65787400 
ARM GAS  C:\Users\DNIEL~1\AppData\Local\Temp\ccWhrmOY.s 			page 78


 4142              	.LASF78:
 4143 0276 444D4131 		.ascii	"DMA1_Stream2_IRQn\000"
 4143      5F537472 
 4143      65616D32 
 4143      5F495251 
 4143      6E00
 4144              	.LASF172:
 4145 0288 52455345 		.ascii	"RESERVED0\000"
 4145      52564544 
 4145      3000
 4146              	.LASF175:
 4147 0292 52455345 		.ascii	"RESERVED1\000"
 4147      52564544 
 4147      3100
 4148              	.LASF4:
 4149 029c 756E7369 		.ascii	"unsigned char\000"
 4149      676E6564 
 4149      20636861 
 4149      7200
 4150              	.LASF125:
 4151 02aa 444D4132 		.ascii	"DMA2_Stream4_IRQn\000"
 4151      5F537472 
 4151      65616D34 
 4151      5F495251 
 4151      6E00
 4152              	.LASF186:
 4153 02bc 52455345 		.ascii	"RESERVED4\000"
 4153      52564544 
 4153      3400
 4154              	.LASF189:
 4155 02c6 52455345 		.ascii	"RESERVED5\000"
 4155      52564544 
 4155      3500
 4156              	.LASF191:
 4157 02d0 52455345 		.ascii	"RESERVED6\000"
 4157      52564544 
 4157      3600
 4158              	.LASF213:
 4159 02da 61646365 		.ascii	"adcerror_t\000"
 4159      72726F72 
 4159      5F7400
 4160              	.LASF97:
 4161 02e5 49324331 		.ascii	"I2C1_ER_IRQn\000"
 4161      5F45525F 
 4161      4952516E 
 4161      00
 4162              	.LASF202:
 4163 02f2 4144435F 		.ascii	"ADC_UNINIT\000"
 4163      554E494E 
 4163      495400
 4164              	.LASF131:
 4165 02fd 43414E32 		.ascii	"CAN2_SCE_IRQn\000"
 4165      5F534345 
 4165      5F495251 
 4165      6E00
 4166              	.LASF204:
 4167 030b 4144435F 		.ascii	"ADC_READY\000"
ARM GAS  C:\Users\DNIEL~1\AppData\Local\Temp\ccWhrmOY.s 			page 79


 4167      52454144 
 4167      5900
 4168              	.LASF179:
 4169 0315 52455345 		.ascii	"RESERVED2\000"
 4169      52564544 
 4169      3200
 4170              	.LASF182:
 4171 031f 52455345 		.ascii	"RESERVED3\000"
 4171      52564544 
 4171      3300
 4172              	.LASF115:
 4173 0329 54494D35 		.ascii	"TIM5_IRQn\000"
 4173      5F495251 
 4173      6E00
 4174              	.LASF209:
 4175 0333 61646373 		.ascii	"adcsample_t\000"
 4175      616D706C 
 4175      655F7400 
 4176              	.LASF60:
 4177 033f 55736167 		.ascii	"UsageFault_IRQn\000"
 4177      65466175 
 4177      6C745F49 
 4177      52516E00 
 4178              	.LASF56:
 4179 034f 63686172 		.ascii	"char\000"
 4179      00
 4180              	.LASF197:
 4181 0354 69736869 		.ascii	"ishift\000"
 4181      667400
 4182              	.LASF26:
 4183 035b 705F7072 		.ascii	"p_prio\000"
 4183      696F00
 4184              	.LASF177:
 4185 0362 41484232 		.ascii	"AHB2ENR\000"
 4185      454E5200 
 4186              	.LASF54:
 4187 036a 77746F62 		.ascii	"wtobjp\000"
 4187      6A7000
 4188              	.LASF85:
 4189 0371 43414E31 		.ascii	"CAN1_RX0_IRQn\000"
 4189      5F525830 
 4189      5F495251 
 4189      6E00
 4190              	.LASF207:
 4191 037f 4144435F 		.ascii	"ADC_ERROR\000"
 4191      4552524F 
 4191      5200
 4192              	.LASF244:
 4193 0389 666C6167 		.ascii	"flags\000"
 4193      7300
 4194              	.LASF226:
 4195 038f 63697263 		.ascii	"circular\000"
 4195      756C6172 
 4195      00
 4196              	.LASF95:
 4197 0398 54494D34 		.ascii	"TIM4_IRQn\000"
 4197      5F495251 
ARM GAS  C:\Users\DNIEL~1\AppData\Local\Temp\ccWhrmOY.s 			page 80


 4197      6E00
 4198              	.LASF103:
 4199 03a2 55534152 		.ascii	"USART2_IRQn\000"
 4199      54325F49 
 4199      52516E00 
 4200              	.LASF195:
 4201 03ae 73747265 		.ascii	"stream\000"
 4201      616D00
 4202              	.LASF190:
 4203 03b5 42444352 		.ascii	"BDCR\000"
 4203      00
 4204              	.LASF217:
 4205 03ba 73616D70 		.ascii	"samples\000"
 4205      6C657300 
 4206              	.LASF257:
 4207 03c2 2E2E2F2E 		.ascii	"../../../ChibiOS/os/hal/platforms/STM32F4xx/adc_lld"
 4207      2E2F2E2E 
 4207      2F436869 
 4207      62694F53 
 4207      2F6F732F 
 4208 03f5 2E6300   		.ascii	".c\000"
 4209              	.LASF96:
 4210 03f8 49324331 		.ascii	"I2C1_EV_IRQn\000"
 4210      5F45565F 
 4210      4952516E 
 4210      00
 4211              	.LASF161:
 4212 0405 4144435F 		.ascii	"ADC_TypeDef\000"
 4212      54797065 
 4212      44656600 
 4213              	.LASF46:
 4214 0411 696E7463 		.ascii	"intctx\000"
 4214      747800
 4215              	.LASF39:
 4216 0418 705F6570 		.ascii	"p_epending\000"
 4216      656E6469 
 4216      6E6700
 4217              	.LASF168:
 4218 0423 43464752 		.ascii	"CFGR\000"
 4218      00
 4219              	.LASF92:
 4220 0428 54494D31 		.ascii	"TIM1_CC_IRQn\000"
 4220      5F43435F 
 4220      4952516E 
 4220      00
 4221              	.LASF145:
 4222 0435 48415348 		.ascii	"HASH_RNG_IRQn\000"
 4222      5F524E47 
 4222      5F495251 
 4222      6E00
 4223              	.LASF72:
 4224 0443 45585449 		.ascii	"EXTI1_IRQn\000"
 4224      315F4952 
 4224      516E00
 4225              	.LASF84:
 4226 044e 43414E31 		.ascii	"CAN1_TX_IRQn\000"
 4226      5F54585F 
ARM GAS  C:\Users\DNIEL~1\AppData\Local\Temp\ccWhrmOY.s 			page 81


 4226      4952516E 
 4226      00
 4227              	.LASF81:
 4228 045b 444D4131 		.ascii	"DMA1_Stream5_IRQn\000"
 4228      5F537472 
 4228      65616D35 
 4228      5F495251 
 4228      6E00
 4229              	.LASF110:
 4230 046d 54494D38 		.ascii	"TIM8_TRG_COM_TIM14_IRQn\000"
 4230      5F545247 
 4230      5F434F4D 
 4230      5F54494D 
 4230      31345F49 
 4231              	.LASF135:
 4232 0485 444D4132 		.ascii	"DMA2_Stream7_IRQn\000"
 4232      5F537472 
 4232      65616D37 
 4232      5F495251 
 4232      6E00
 4233              	.LASF132:
 4234 0497 4F54475F 		.ascii	"OTG_FS_IRQn\000"
 4234      46535F49 
 4234      52516E00 
 4235              	.LASF57:
 4236 04a3 4E6F6E4D 		.ascii	"NonMaskableInt_IRQn\000"
 4236      61736B61 
 4236      626C6549 
 4236      6E745F49 
 4236      52516E00 
 4237              	.LASF65:
 4238 04b7 57574447 		.ascii	"WWDG_IRQn\000"
 4238      5F495251 
 4238      6E00
 4239              	.LASF11:
 4240 04c1 6C6F6E67 		.ascii	"long unsigned int\000"
 4240      20756E73 
 4240      69676E65 
 4240      6420696E 
 4240      7400
 4241              	.LASF180:
 4242 04d3 41504231 		.ascii	"APB1ENR\000"
 4242      454E5200 
 4243              	.LASF222:
 4244 04db 646D6173 		.ascii	"dmastp\000"
 4244      747000
 4245              	.LASF58:
 4246 04e2 4D656D6F 		.ascii	"MemoryManagement_IRQn\000"
 4246      72794D61 
 4246      6E616765 
 4246      6D656E74 
 4246      5F495251 
 4247              	.LASF67:
 4248 04f8 54414D50 		.ascii	"TAMP_STAMP_IRQn\000"
 4248      5F535441 
 4248      4D505F49 
 4248      52516E00 
ARM GAS  C:\Users\DNIEL~1\AppData\Local\Temp\ccWhrmOY.s 			page 82


 4249              	.LASF87:
 4250 0508 43414E31 		.ascii	"CAN1_SCE_IRQn\000"
 4250      5F534345 
 4250      5F495251 
 4250      6E00
 4251              	.LASF254:
 4252 0516 5F73746D 		.ascii	"_stm32_dma_streams\000"
 4252      33325F64 
 4252      6D615F73 
 4252      74726561 
 4252      6D7300
 4253              	.LASF121:
 4254 0529 444D4132 		.ascii	"DMA2_Stream0_IRQn\000"
 4254      5F537472 
 4254      65616D30 
 4254      5F495251 
 4254      6E00
 4255              	.LASF147:
 4256 053b 534D5052 		.ascii	"SMPR1\000"
 4256      3100
 4257              	.LASF148:
 4258 0541 534D5052 		.ascii	"SMPR2\000"
 4258      3200
 4259              	.LASF200:
 4260 0547 73746D33 		.ascii	"stm32_dma_stream_t\000"
 4260      325F646D 
 4260      615F7374 
 4260      7265616D 
 4260      5F7400
 4261              	.LASF99:
 4262 055a 49324332 		.ascii	"I2C2_ER_IRQn\000"
 4262      5F45525F 
 4262      4952516E 
 4262      00
 4263              	.LASF235:
 4264 0567 41444343 		.ascii	"ADCConversionGroup\000"
 4264      6F6E7665 
 4264      7273696F 
 4264      6E47726F 
 4264      757000
 4265              	.LASF206:
 4266 057a 4144435F 		.ascii	"ADC_COMPLETE\000"
 4266      434F4D50 
 4266      4C455445 
 4266      00
 4267              	.LASF230:
 4268 0587 736D7072 		.ascii	"smpr1\000"
 4268      3100
 4269              	.LASF231:
 4270 058d 736D7072 		.ascii	"smpr2\000"
 4270      3200
 4271              	.LASF241:
 4272 0593 6164635F 		.ascii	"adc_lld_start_conversion\000"
 4272      6C6C645F 
 4272      73746172 
 4272      745F636F 
 4272      6E766572 
ARM GAS  C:\Users\DNIEL~1\AppData\Local\Temp\ccWhrmOY.s 			page 83


 4273              	.LASF59:
 4274 05ac 42757346 		.ascii	"BusFault_IRQn\000"
 4274      61756C74 
 4274      5F495251 
 4274      6E00
 4275              	.LASF167:
 4276 05ba 504C4C43 		.ascii	"PLLCFGR\000"
 4276      46475200 
 4277              	.LASF118:
 4278 05c2 55415254 		.ascii	"UART5_IRQn\000"
 4278      355F4952 
 4278      516E00
 4279              	.LASF89:
 4280 05cd 54494D31 		.ascii	"TIM1_BRK_TIM9_IRQn\000"
 4280      5F42524B 
 4280      5F54494D 
 4280      395F4952 
 4280      516E00
 4281              	.LASF48:
 4282 05e0 4D757465 		.ascii	"Mutex\000"
 4282      7800
 4283              	.LASF120:
 4284 05e6 54494D37 		.ascii	"TIM7_IRQn\000"
 4284      5F495251 
 4284      6E00
 4285              	.LASF12:
 4286 05f0 6C6F6E67 		.ascii	"long long int\000"
 4286      206C6F6E 
 4286      6720696E 
 4286      7400
 4287              	.LASF127:
 4288 05fe 4554485F 		.ascii	"ETH_WKUP_IRQn\000"
 4288      574B5550 
 4288      5F495251 
 4288      6E00
 4289              	.LASF101:
 4290 060c 53504932 		.ascii	"SPI2_IRQn\000"
 4290      5F495251 
 4290      6E00
 4291              	.LASF142:
 4292 0616 4F54475F 		.ascii	"OTG_HS_IRQn\000"
 4292      48535F49 
 4292      52516E00 
 4293              	.LASF49:
 4294 0622 6D5F7175 		.ascii	"m_queue\000"
 4294      65756500 
 4295              	.LASF192:
 4296 062a 53534347 		.ascii	"SSCGR\000"
 4296      5200
 4297              	.LASF100:
 4298 0630 53504931 		.ascii	"SPI1_IRQn\000"
 4298      5F495251 
 4298      6E00
 4299              	.LASF240:
 4300 063a 61646370 		.ascii	"adcp\000"
 4300      00
 4301              	.LASF225:
ARM GAS  C:\Users\DNIEL~1\AppData\Local\Temp\ccWhrmOY.s 			page 84


 4302 063f 61646365 		.ascii	"adcerrorcallback_t\000"
 4302      72726F72 
 4302      63616C6C 
 4302      6261636B 
 4302      5F7400
 4303              	.LASF61:
 4304 0652 53564361 		.ascii	"SVCall_IRQn\000"
 4304      6C6C5F49 
 4304      52516E00 
 4305              	.LASF174:
 4306 065e 41504232 		.ascii	"APB2RSTR\000"
 4306      52535452 
 4306      00
 4307              	.LASF218:
 4308 0667 64657074 		.ascii	"depth\000"
 4308      6800
 4309              	.LASF221:
 4310 066d 6D757465 		.ascii	"mutex\000"
 4310      7800
 4311              	.LASF146:
 4312 0673 4650555F 		.ascii	"FPU_IRQn\000"
 4312      4952516E 
 4312      00
 4313              	.LASF117:
 4314 067c 55415254 		.ascii	"UART4_IRQn\000"
 4314      345F4952 
 4314      516E00
 4315              	.LASF188:
 4316 0687 41504232 		.ascii	"APB2LPENR\000"
 4316      4C50454E 
 4316      5200
 4317              	.LASF258:
 4318 0691 433A5C55 		.ascii	"C:\\Users\\D\341niel\\Dropbox\\Solar Racing\\Szoftv"
 4318      73657273 
 4318      5C44E16E 
 4318      69656C5C 
 4318      44726F70 
 4319 06bc 65725C53 		.ascii	"er\\Smarty\\Smarty_v6\\smarty\\firmware\000"
 4319      6D617274 
 4319      795C536D 
 4319      61727479 
 4319      5F76365C 
 4320              	.LASF36:
 4321 06e0 705F7761 		.ascii	"p_waiting\000"
 4321      6974696E 
 4321      6700
 4322              	.LASF107:
 4323 06ea 4F54475F 		.ascii	"OTG_FS_WKUP_IRQn\000"
 4323      46535F57 
 4323      4B55505F 
 4323      4952516E 
 4323      00
 4324              	.LASF32:
 4325 06fb 705F666C 		.ascii	"p_flags\000"
 4325      61677300 
 4326              	.LASF198:
 4327 0703 73656C66 		.ascii	"selfindex\000"
ARM GAS  C:\Users\DNIEL~1\AppData\Local\Temp\ccWhrmOY.s 			page 85


 4327      696E6465 
 4327      7800
 4328              	.LASF0:
 4329 070d 756E7369 		.ascii	"unsigned int\000"
 4329      676E6564 
 4329      20696E74 
 4329      00
 4330              	.LASF119:
 4331 071a 54494D36 		.ascii	"TIM6_DAC_IRQn\000"
 4331      5F444143 
 4331      5F495251 
 4331      6E00
 4332              	.LASF210:
 4333 0728 6164635F 		.ascii	"adc_channels_num_t\000"
 4333      6368616E 
 4333      6E656C73 
 4333      5F6E756D 
 4333      5F7400
 4334              	.LASF42:
 4335 073b 705F6D70 		.ascii	"p_mpool\000"
 4335      6F6F6C00 
 4336              	.LASF98:
 4337 0743 49324332 		.ascii	"I2C2_EV_IRQn\000"
 4337      5F45565F 
 4337      4952516E 
 4337      00
 4338              	.LASF33:
 4339 0750 705F7265 		.ascii	"p_refs\000"
 4339      667300
 4340              	.LASF227:
 4341 0757 6E756D5F 		.ascii	"num_channels\000"
 4341      6368616E 
 4341      6E656C73 
 4341      00
 4342              	.LASF44:
 4343 0764 54687265 		.ascii	"ThreadsList\000"
 4343      6164734C 
 4343      69737400 
 4344              	.LASF255:
 4345 0770 41444344 		.ascii	"ADCD2\000"
 4345      3200
 4346              	.LASF187:
 4347 0776 41504231 		.ascii	"APB1LPENR\000"
 4347      4C50454E 
 4347      5200
 4348              	.LASF77:
 4349 0780 444D4131 		.ascii	"DMA1_Stream1_IRQn\000"
 4349      5F537472 
 4349      65616D31 
 4349      5F495251 
 4349      6E00
 4350              	.LASF124:
 4351 0792 444D4132 		.ascii	"DMA2_Stream3_IRQn\000"
 4351      5F537472 
 4351      65616D33 
 4351      5F495251 
 4351      6E00
ARM GAS  C:\Users\DNIEL~1\AppData\Local\Temp\ccWhrmOY.s 			page 86


 4352              	.LASF128:
 4353 07a4 43414E32 		.ascii	"CAN2_TX_IRQn\000"
 4353      5F54585F 
 4353      4952516E 
 4353      00
 4354              	.LASF243:
 4355 07b1 6164635F 		.ascii	"adc_lld_stop_conversion\000"
 4355      6C6C645F 
 4355      73746F70 
 4355      5F636F6E 
 4355      76657273 
 4356              	.LASF166:
 4357 07c9 444D415F 		.ascii	"DMA_Stream_TypeDef\000"
 4357      53747265 
 4357      616D5F54 
 4357      79706544 
 4357      656600
 4358              	.LASF35:
 4359 07dc 705F7469 		.ascii	"p_time\000"
 4359      6D6500
 4360              	.LASF259:
 4361 07e3 4952516E 		.ascii	"IRQn\000"
 4361      00
 4362              	.LASF82:
 4363 07e8 444D4131 		.ascii	"DMA1_Stream6_IRQn\000"
 4363      5F537472 
 4363      65616D36 
 4363      5F495251 
 4363      6E00
 4364              	.LASF171:
 4365 07fa 41484233 		.ascii	"AHB3RSTR\000"
 4365      52535452 
 4365      00
 4366              	.LASF41:
 4367 0803 705F7265 		.ascii	"p_realprio\000"
 4367      616C7072 
 4367      696F00
 4368              	.LASF205:
 4369 080e 4144435F 		.ascii	"ADC_ACTIVE\000"
 4369      41435449 
 4369      564500
 4370              	.LASF76:
 4371 0819 444D4131 		.ascii	"DMA1_Stream0_IRQn\000"
 4371      5F537472 
 4371      65616D30 
 4371      5F495251 
 4371      6E00
 4372              	.LASF173:
 4373 082b 41504231 		.ascii	"APB1RSTR\000"
 4373      52535452 
 4373      00
 4374              	.LASF201:
 4375 0834 73746D33 		.ascii	"stm32_dmaisr_t\000"
 4375      325F646D 
 4375      61697372 
 4375      5F7400
 4376              	.LASF106:
ARM GAS  C:\Users\DNIEL~1\AppData\Local\Temp\ccWhrmOY.s 			page 87


 4377 0843 5254435F 		.ascii	"RTC_Alarm_IRQn\000"
 4377      416C6172 
 4377      6D5F4952 
 4377      516E00
 4378              	.LASF138:
 4379 0852 49324333 		.ascii	"I2C3_ER_IRQn\000"
 4379      5F45525F 
 4379      4952516E 
 4379      00
 4380              	.LASF144:
 4381 085f 43525950 		.ascii	"CRYP_IRQn\000"
 4381      5F495251 
 4381      6E00
 4382              	.LASF256:
 4383 0869 474E5520 		.ascii	"GNU C 4.5.2\000"
 4383      4320342E 
 4383      352E3200 
 4384              	.LASF13:
 4385 0875 6C6F6E67 		.ascii	"long long unsigned int\000"
 4385      206C6F6E 
 4385      6720756E 
 4385      7369676E 
 4385      65642069 
 4386              	.LASF29:
 4387 088c 705F6F6C 		.ascii	"p_older\000"
 4387      64657200 
 4388              	.LASF6:
 4389 0894 75696E74 		.ascii	"uint16_t\000"
 4389      31365F74 
 4389      00
 4390              	.LASF20:
 4391 089d 6D73675F 		.ascii	"msg_t\000"
 4391      7400
 4392              	.LASF105:
 4393 08a3 45585449 		.ascii	"EXTI15_10_IRQn\000"
 4393      31355F31 
 4393      305F4952 
 4393      516E00
 4394              	.LASF94:
 4395 08b2 54494D33 		.ascii	"TIM3_IRQn\000"
 4395      5F495251 
 4395      6E00
 4396              	.LASF102:
 4397 08bc 55534152 		.ascii	"USART1_IRQn\000"
 4397      54315F49 
 4397      52516E00 
 4398              	.LASF18:
 4399 08c8 74736C69 		.ascii	"tslices_t\000"
 4399      6365735F 
 4399      7400
 4400              	.LASF246:
 4401 08d2 68616C66 		.ascii	"half_index\000"
 4401      5F696E64 
 4401      657800
 4402              	.LASF73:
 4403 08dd 45585449 		.ascii	"EXTI2_IRQn\000"
 4403      325F4952 
ARM GAS  C:\Users\DNIEL~1\AppData\Local\Temp\ccWhrmOY.s 			page 88


 4403      516E00
 4404              	.LASF214:
 4405 08e8 41444344 		.ascii	"ADCDriver\000"
 4405      72697665 
 4405      7200
 4406              	.LASF248:
 4407 08f2 6164635F 		.ascii	"adc_lld_init\000"
 4407      6C6C645F 
 4407      696E6974 
 4407      00
 4408              	.LASF130:
 4409 08ff 43414E32 		.ascii	"CAN2_RX1_IRQn\000"
 4409      5F525831 
 4409      5F495251 
 4409      6E00
 4410              	.LASF199:
 4411 090d 76656374 		.ascii	"vector\000"
 4411      6F7200
 4412              	.LASF83:
 4413 0914 4144435F 		.ascii	"ADC_IRQn\000"
 4413      4952516E 
 4413      00
 4414              	.LASF212:
 4415 091d 4144435F 		.ascii	"ADC_ERR_OVERFLOW\000"
 4415      4552525F 
 4415      4F564552 
 4415      464C4F57 
 4415      00
 4416              	.LASF245:
 4417 092e 68616C66 		.ascii	"half\000"
 4417      00
 4418              	.LASF185:
 4419 0933 41484233 		.ascii	"AHB3LPENR\000"
 4419      4C50454E 
 4419      5200
 4420              	.LASF251:
 4421 093d 61646353 		.ascii	"adcSTM32EnableVBATE\000"
 4421      544D3332 
 4421      456E6162 
 4421      6C655642 
 4421      41544500 
 4422              	.LASF66:
 4423 0951 5056445F 		.ascii	"PVD_IRQn\000"
 4423      4952516E 
 4423      00
 4424              	.LASF113:
 4425 095a 46534D43 		.ascii	"FSMC_IRQn\000"
 4425      5F495251 
 4425      6E00
 4426              	.LASF71:
 4427 0964 45585449 		.ascii	"EXTI0_IRQn\000"
 4427      305F4952 
 4427      516E00
 4428              	.LASF15:
 4429 096f 746D6F64 		.ascii	"tmode_t\000"
 4429      655F7400 
 4430              	.LASF80:
ARM GAS  C:\Users\DNIEL~1\AppData\Local\Temp\ccWhrmOY.s 			page 89


 4431 0977 444D4131 		.ascii	"DMA1_Stream4_IRQn\000"
 4431      5F537472 
 4431      65616D34 
 4431      5F495251 
 4431      6E00
 4432              	.LASF236:
 4433 0989 64756D6D 		.ascii	"dummy\000"
 4433      7900
 4434              	.LASF203:
 4435 098f 4144435F 		.ascii	"ADC_STOP\000"
 4435      53544F50 
 4435      00
 4436              	.LASF134:
 4437 0998 444D4132 		.ascii	"DMA2_Stream6_IRQn\000"
 4437      5F537472 
 4437      65616D36 
 4437      5F495251 
 4437      6E00
 4438              	.LASF176:
 4439 09aa 41484231 		.ascii	"AHB1ENR\000"
 4439      454E5200 
 4440              	.LASF62:
 4441 09b2 44656275 		.ascii	"DebugMonitor_IRQn\000"
 4441      674D6F6E 
 4441      69746F72 
 4441      5F495251 
 4441      6E00
 4442              	.LASF137:
 4443 09c4 49324333 		.ascii	"I2C3_EV_IRQn\000"
 4443      5F45565F 
 4443      4952516E 
 4443      00
 4444              	.LASF219:
 4445 09d1 67727070 		.ascii	"grpp\000"
 4445      00
 4446              	.LASF170:
 4447 09d6 41484232 		.ascii	"AHB2RSTR\000"
 4447      52535452 
 4447      00
 4448              	.LASF220:
 4449 09df 74687265 		.ascii	"thread\000"
 4449      616400
 4450              	.LASF164:
 4451 09e6 4D304152 		.ascii	"M0AR\000"
 4451      00
 4452              	.LASF126:
 4453 09eb 4554485F 		.ascii	"ETH_IRQn\000"
 4453      4952516E 
 4453      00
 4454              	.LASF194:
 4455 09f4 5243435F 		.ascii	"RCC_TypeDef\000"
 4455      54797065 
 4455      44656600 
 4456              	.LASF5:
 4457 0a00 73686F72 		.ascii	"short int\000"
 4457      7420696E 
 4457      7400
ARM GAS  C:\Users\DNIEL~1\AppData\Local\Temp\ccWhrmOY.s 			page 90


 4458              	.LASF70:
 4459 0a0a 5243435F 		.ascii	"RCC_IRQn\000"
 4459      4952516E 
 4459      00
 4460              	.LASF242:
 4461 0a13 6D6F6465 		.ascii	"mode\000"
 4461      00
 4462              	.LASF149:
 4463 0a18 4A4F4652 		.ascii	"JOFR1\000"
 4463      3100
 4464              	.LASF150:
 4465 0a1e 4A4F4652 		.ascii	"JOFR2\000"
 4465      3200
 4466              	.LASF151:
 4467 0a24 4A4F4652 		.ascii	"JOFR3\000"
 4467      3300
 4468              	.LASF152:
 4469 0a2a 4A4F4652 		.ascii	"JOFR4\000"
 4469      3400
 4470              	.LASF79:
 4471 0a30 444D4131 		.ascii	"DMA1_Stream3_IRQn\000"
 4471      5F537472 
 4471      65616D33 
 4471      5F495251 
 4471      6E00
 4472              	.LASF14:
 4473 0a42 626F6F6C 		.ascii	"bool_t\000"
 4473      5F7400
 4474              	.LASF157:
 4475 0a49 4A445231 		.ascii	"JDR1\000"
 4475      00
 4476              	.LASF158:
 4477 0a4e 4A445232 		.ascii	"JDR2\000"
 4477      00
 4478              	.LASF159:
 4479 0a53 4A445233 		.ascii	"JDR3\000"
 4479      00
 4480              	.LASF23:
 4481 0a58 54687265 		.ascii	"Thread\000"
 4481      616400
 4482              	.LASF156:
 4483 0a5f 4A535152 		.ascii	"JSQR\000"
 4483      00
 4484              	.LASF90:
 4485 0a64 54494D31 		.ascii	"TIM1_UP_TIM10_IRQn\000"
 4485      5F55505F 
 4485      54494D31 
 4485      305F4952 
 4485      516E00
 4486              	.LASF253:
 4487 0a77 49544D5F 		.ascii	"ITM_RxBuffer\000"
 4487      52784275 
 4487      66666572 
 4487      00
 4488              	.LASF17:
 4489 0a84 74726566 		.ascii	"trefs_t\000"
 4489      735F7400 
ARM GAS  C:\Users\DNIEL~1\AppData\Local\Temp\ccWhrmOY.s 			page 91


 4490              	.LASF139:
 4491 0a8c 4F54475F 		.ascii	"OTG_HS_EP1_OUT_IRQn\000"
 4491      48535F45 
 4491      50315F4F 
 4491      55545F49 
 4491      52516E00 
 4492              	.LASF68:
 4493 0aa0 5254435F 		.ascii	"RTC_WKUP_IRQn\000"
 4493      574B5550 
 4493      5F495251 
 4493      6E00
 4494              	.LASF163:
 4495 0aae 4E445452 		.ascii	"NDTR\000"
 4495      00
 4496              	.LASF10:
 4497 0ab3 75696E74 		.ascii	"uint32_t\000"
 4497      33325F74 
 4497      00
 4498              	.LASF86:
 4499 0abc 43414E31 		.ascii	"CAN1_RX1_IRQn\000"
 4499      5F525831 
 4499      5F495251 
 4499      6E00
 4500              	.LASF43:
 4501 0aca 54687265 		.ascii	"ThreadsQueue\000"
 4501      61647351 
 4501      75657565 
 4501      00
 4502              	.LASF88:
 4503 0ad7 45585449 		.ascii	"EXTI9_5_IRQn\000"
 4503      395F355F 
 4503      4952516E 
 4503      00
 4504              	.LASF260:
 4505 0ae4 6164635F 		.ascii	"adc_lld_serve_rx_interrupt\000"
 4505      6C6C645F 
 4505      73657276 
 4505      655F7278 
 4505      5F696E74 
 4506              	.LASF52:
 4507 0aff 7264796D 		.ascii	"rdymsg\000"
 4507      736700
 4508              	.LASF75:
 4509 0b06 45585449 		.ascii	"EXTI4_IRQn\000"
 4509      345F4952 
 4509      516E00
 4510              	.LASF7:
 4511 0b11 73686F72 		.ascii	"short unsigned int\000"
 4511      7420756E 
 4511      7369676E 
 4511      65642069 
 4511      6E7400
 4512              	.LASF111:
 4513 0b24 54494D38 		.ascii	"TIM8_CC_IRQn\000"
 4513      5F43435F 
 4513      4952516E 
 4513      00
ARM GAS  C:\Users\DNIEL~1\AppData\Local\Temp\ccWhrmOY.s 			page 92


 4514              	.LASF114:
 4515 0b31 5344494F 		.ascii	"SDIO_IRQn\000"
 4515      5F495251 
 4515      6E00
 4516              	.LASF74:
 4517 0b3b 45585449 		.ascii	"EXTI3_IRQn\000"
 4517      335F4952 
 4517      516E00
 4518              	.LASF63:
 4519 0b46 50656E64 		.ascii	"PendSV_IRQn\000"
 4519      53565F49 
 4519      52516E00 
 4520              	.LASF140:
 4521 0b52 4F54475F 		.ascii	"OTG_HS_EP1_IN_IRQn\000"
 4521      48535F45 
 4521      50315F49 
 4521      4E5F4952 
 4521      516E00
 4522              	.LASF112:
 4523 0b65 444D4131 		.ascii	"DMA1_Stream7_IRQn\000"
 4523      5F537472 
 4523      65616D37 
 4523      5F495251 
 4523      6E00
 4524              	.LASF169:
 4525 0b77 41484231 		.ascii	"AHB1RSTR\000"
 4525      52535452 
 4525      00
 4526              	.LASF162:
 4527 0b80 4144435F 		.ascii	"ADC_Common_TypeDef\000"
 4527      436F6D6D 
 4527      6F6E5F54 
 4527      79706544 
 4527      656600
 4528              	.LASF196:
 4529 0b93 69666372 		.ascii	"ifcr\000"
 4529      00
 4530              	.LASF30:
 4531 0b98 705F6E61 		.ascii	"p_name\000"
 4531      6D6500
 4532              	.LASF51:
 4533 0b9f 6D5F6E65 		.ascii	"m_next\000"
 4533      787400
 4534              	.LASF250:
 4535 0ba6 61646353 		.ascii	"adcSTM32DisableTSVREFE\000"
 4535      544D3332 
 4535      44697361 
 4535      626C6554 
 4535      53565245 
 4536              	.LASF178:
 4537 0bbd 41484233 		.ascii	"AHB3ENR\000"
 4537      454E5200 
 4538              	.LASF123:
 4539 0bc5 444D4132 		.ascii	"DMA2_Stream2_IRQn\000"
 4539      5F537472 
 4539      65616D32 
 4539      5F495251 
ARM GAS  C:\Users\DNIEL~1\AppData\Local\Temp\ccWhrmOY.s 			page 93


 4539      6E00
 4540              	.LASF38:
 4541 0bd7 705F6D73 		.ascii	"p_msg\000"
 4541      6700
 4542              	.LASF237:
 4543 0bdd 41444343 		.ascii	"ADCConfig\000"
 4543      6F6E6669 
 4543      6700
 4544              	.LASF31:
 4545 0be7 705F7374 		.ascii	"p_state\000"
 4545      61746500 
 4546              		.ident	"GCC: (Sourcery G++ Lite 2011.03-42) 4.5.2"
ARM GAS  C:\Users\DNIEL~1\AppData\Local\Temp\ccWhrmOY.s 			page 94


DEFINED SYMBOLS
                            *ABS*:00000000 adc_lld.c
C:\Users\DNIEL~1\AppData\Local\Temp\ccWhrmOY.s:24     .text.adc_lld_init:00000000 $t
C:\Users\DNIEL~1\AppData\Local\Temp\ccWhrmOY.s:30     .text.adc_lld_init:00000000 adc_lld_init
C:\Users\DNIEL~1\AppData\Local\Temp\ccWhrmOY.s:68     .text.adc_lld_init:00000024 $d
C:\Users\DNIEL~1\AppData\Local\Temp\ccWhrmOY.s:76     .text.adc_lld_start:00000000 $t
C:\Users\DNIEL~1\AppData\Local\Temp\ccWhrmOY.s:82     .text.adc_lld_start:00000000 adc_lld_start
C:\Users\DNIEL~1\AppData\Local\Temp\ccWhrmOY.s:152    .text.adc_lld_start:00000048 $d
C:\Users\DNIEL~1\AppData\Local\Temp\ccWhrmOY.s:405    .text.adc_lld_serve_rx_interrupt:00000000 adc_lld_serve_rx_interrupt
C:\Users\DNIEL~1\AppData\Local\Temp\ccWhrmOY.s:162    .text.adc_lld_stop:00000000 $t
C:\Users\DNIEL~1\AppData\Local\Temp\ccWhrmOY.s:168    .text.adc_lld_stop:00000000 adc_lld_stop
C:\Users\DNIEL~1\AppData\Local\Temp\ccWhrmOY.s:217    .text.adc_lld_stop:0000002c $d
C:\Users\DNIEL~1\AppData\Local\Temp\ccWhrmOY.s:223    .text.adc_lld_start_conversion:00000000 $t
C:\Users\DNIEL~1\AppData\Local\Temp\ccWhrmOY.s:229    .text.adc_lld_start_conversion:00000000 adc_lld_start_conversion
C:\Users\DNIEL~1\AppData\Local\Temp\ccWhrmOY.s:344    .text.adc_lld_stop_conversion:00000000 $t
C:\Users\DNIEL~1\AppData\Local\Temp\ccWhrmOY.s:350    .text.adc_lld_stop_conversion:00000000 adc_lld_stop_conversion
C:\Users\DNIEL~1\AppData\Local\Temp\ccWhrmOY.s:400    .text.adc_lld_serve_rx_interrupt:00000000 $t
C:\Users\DNIEL~1\AppData\Local\Temp\ccWhrmOY.s:629    .text.Vector88:00000000 $t
C:\Users\DNIEL~1\AppData\Local\Temp\ccWhrmOY.s:635    .text.Vector88:00000000 Vector88
C:\Users\DNIEL~1\AppData\Local\Temp\ccWhrmOY.s:735    .text.Vector88:00000070 $d
C:\Users\DNIEL~1\AppData\Local\Temp\ccWhrmOY.s:741    .text.adcSTM32EnableTSVREFE:00000000 $t
C:\Users\DNIEL~1\AppData\Local\Temp\ccWhrmOY.s:747    .text.adcSTM32EnableTSVREFE:00000000 adcSTM32EnableTSVREFE
C:\Users\DNIEL~1\AppData\Local\Temp\ccWhrmOY.s:764    .text.adcSTM32EnableTSVREFE:0000000c $d
C:\Users\DNIEL~1\AppData\Local\Temp\ccWhrmOY.s:769    .text.adcSTM32DisableTSVREFE:00000000 $t
C:\Users\DNIEL~1\AppData\Local\Temp\ccWhrmOY.s:775    .text.adcSTM32DisableTSVREFE:00000000 adcSTM32DisableTSVREFE
C:\Users\DNIEL~1\AppData\Local\Temp\ccWhrmOY.s:792    .text.adcSTM32DisableTSVREFE:0000000c $d
C:\Users\DNIEL~1\AppData\Local\Temp\ccWhrmOY.s:797    .text.adcSTM32EnableVBATE:00000000 $t
C:\Users\DNIEL~1\AppData\Local\Temp\ccWhrmOY.s:803    .text.adcSTM32EnableVBATE:00000000 adcSTM32EnableVBATE
C:\Users\DNIEL~1\AppData\Local\Temp\ccWhrmOY.s:820    .text.adcSTM32EnableVBATE:0000000c $d
C:\Users\DNIEL~1\AppData\Local\Temp\ccWhrmOY.s:825    .text.adcSTM32DisableVBATE:00000000 $t
C:\Users\DNIEL~1\AppData\Local\Temp\ccWhrmOY.s:831    .text.adcSTM32DisableVBATE:00000000 adcSTM32DisableVBATE
C:\Users\DNIEL~1\AppData\Local\Temp\ccWhrmOY.s:848    .text.adcSTM32DisableVBATE:0000000c $d
C:\Users\DNIEL~1\AppData\Local\Temp\ccWhrmOY.s:858    .bss.ADCD2:00000000 ADCD2
C:\Users\DNIEL~1\AppData\Local\Temp\ccWhrmOY.s:854    .bss.ADCD2:00000000 $d
                     .debug_frame:00000010 $d
C:\Users\DNIEL~1\AppData\Local\Temp\ccWhrmOY.s:75     .text.adc_lld_init:00000034 $t
C:\Users\DNIEL~1\AppData\Local\Temp\ccWhrmOY.s:161    .text.adc_lld_start:0000005c $t
C:\Users\DNIEL~1\AppData\Local\Temp\ccWhrmOY.s:222    .text.adc_lld_stop:00000034 $t
C:\Users\DNIEL~1\AppData\Local\Temp\ccWhrmOY.s:740    .text.Vector88:00000078 $t

UNDEFINED SYMBOLS
adcObjectInit
nvicEnableVector
_stm32_dma_streams
dmaStreamAllocate
dmaStreamRelease
chSchReadyI
_port_irq_epilogue
