ARM GAS  C:\Users\DNIEL~1\AppData\Local\Temp\ccWhrmOY.s 			page 1


   1              		.syntax unified
   2              		.cpu cortex-m4
   3              		.fpu softvfp
   4              		.eabi_attribute 20, 1
   5              		.eabi_attribute 21, 1
   6              		.eabi_attribute 23, 3
   7              		.eabi_attribute 24, 1
   8              		.eabi_attribute 25, 1
   9              		.eabi_attribute 26, 1
  10              		.eabi_attribute 30, 2
  11              		.eabi_attribute 18, 4
  12              		.thumb
  13              		.file	"adc_lld.c"
  20 0000 79040000 		.text
  20      02006402 
  20      00000201 
  20      FB0E0D00 
  20      01010101 
  21              	.Ltext0:
  22              		.cfi_sections	.debug_frame
  23              		.section	.text.adc_lld_init,"ax",%progbits
  24              		.align	2
  25              		.p2align 4,,15
  26              		.global	adc_lld_init
  27              		.thumb
  28              		.thumb_func
  29              		.type	adc_lld_init, %function
  30              	adc_lld_init:
  31              	.LFB120:
  32              		.file 1 "../../../ChibiOS/os/hal/platforms/STM32F4xx/adc_lld.c"
  33              		.loc 1 175 0
  34              		.cfi_startproc
  35              		@ args = 0, pretend = 0, frame = 0
  36              		@ frame_needed = 0, uses_anonymous_args = 0
  37 0000 10B5     		push	{r4, lr}
  38              	.LCFI0:
  39              		.cfi_def_cfa_offset 8
  40              		.loc 1 192 0
  41 0002 084C     		ldr	r4, .L2
  42              		.cfi_offset 14, -4
  43              		.cfi_offset 4, -8
  44 0004 2046     		mov	r0, r4
  45 0006 FFF7FEFF 		bl	adcObjectInit
  46              		.loc 1 193 0
  47 000a 0748     		ldr	r0, .L2+4
  48              		.loc 1 194 0
  49 000c 074A     		ldr	r2, .L2+8
  50              		.loc 1 195 0
  51 000e 084B     		ldr	r3, .L2+12
  52              		.loc 1 193 0
  53 0010 A062     		str	r0, [r4, #40]
ARM GAS  C:\Users\DNIEL~1\AppData\Local\Temp\ccWhrmOY.s 			page 2


  54              		.loc 1 218 0
  55 0012 6021     		movs	r1, #96
  56 0014 1220     		movs	r0, #18
  57              		.loc 1 194 0
  58 0016 E262     		str	r2, [r4, #44]
  59              		.loc 1 195 0
  60 0018 2363     		str	r3, [r4, #48]
  61              		.loc 1 219 0
  62 001a BDE81040 		pop	{r4, lr}
  63              		.loc 1 218 0
  64 001e FFF7FEBF 		b	nvicEnableVector
  65              	.L3:
  66 0022 00BF     		.align	2
  67              	.L2:
  68 0024 00000000 		.word	.LANCHOR0
  69 0028 00210140 		.word	1073815808
  70 002c 78000000 		.word	_stm32_dma_streams+120
  71 0030 162C0202 		.word	33696790
  72              		.cfi_endproc
  73              	.LFE120:
  74              		.size	adc_lld_init, .-adc_lld_init
  75 0034 AFF30080 		.section	.text.adc_lld_start,"ax",%progbits
  75      AFF30080 
  75      AFF30080 
  76              		.align	2
  77              		.p2align 4,,15
  78              		.global	adc_lld_start
  79              		.thumb
  80              		.thumb_func
  81              		.type	adc_lld_start, %function
  82              	adc_lld_start:
  83              	.LFB121:
  84              		.loc 1 228 0
  85              		.cfi_startproc
  86              		@ args = 0, pretend = 0, frame = 0
  87              		@ frame_needed = 0, uses_anonymous_args = 0
  88              	.LVL0:
  89              		.loc 1 231 0
  90 0000 0378     		ldrb	r3, [r0, #0]	@ zero_extendqisi2
  91 0002 012B     		cmp	r3, #1
  92              		.loc 1 228 0
  93 0004 10B5     		push	{r4, lr}
  94              	.LCFI1:
  95              		.cfi_def_cfa_offset 8
  96              		.loc 1 228 0
  97 0006 0446     		mov	r4, r0
  98              		.cfi_offset 14, -4
  99              		.cfi_offset 4, -8
 100              		.loc 1 231 0
 101 0008 00D0     		beq	.L8
 102 000a 10BD     		pop	{r4, pc}
 103              	.L8:
 104              		.loc 1 246 0
 105 000c 0E49     		ldr	r1, .L10
 106 000e 8842     		cmp	r0, r1
 107 0010 0AD0     		beq	.L9
 108              	.LVL1:
ARM GAS  C:\Users\DNIEL~1\AppData\Local\Temp\ccWhrmOY.s 			page 3


 109              	.L6:
 110              		.loc 1 273 0
 111 0012 0E49     		ldr	r1, .L10+4
 112              		.loc 1 277 0
 113 0014 A36A     		ldr	r3, [r4, #40]
 114              		.loc 1 273 0
 115 0016 4FF48030 		mov	r0, #65536
 116 001a 4860     		str	r0, [r1, #4]
 117              		.loc 1 277 0
 118 001c 0022     		movs	r2, #0
 119              		.loc 1 279 0
 120 001e 0121     		movs	r1, #1
 121              		.loc 1 277 0
 122 0020 5A60     		str	r2, [r3, #4]
 123              		.loc 1 278 0
 124 0022 9A60     		str	r2, [r3, #8]
 125              		.loc 1 279 0
 126 0024 9960     		str	r1, [r3, #8]
 127 0026 10BD     		pop	{r4, pc}
 128              	.L9:
 129              	.LBB2:
 130              		.loc 1 248 0
 131 0028 094A     		ldr	r2, .L10+8
 132 002a C06A     		ldr	r0, [r0, #44]
 133 002c 0621     		movs	r1, #6
 134 002e 2346     		mov	r3, r4
 135 0030 FFF7FEFF 		bl	dmaStreamAllocate
 136              		.loc 1 253 0
 137 0034 E06A     		ldr	r0, [r4, #44]
 138 0036 0749     		ldr	r1, .L10+12
 139 0038 0268     		ldr	r2, [r0, #0]
 140              		.loc 1 254 0
 141 003a 0748     		ldr	r0, .L10+16
 142              		.loc 1 253 0
 143 003c 9160     		str	r1, [r2, #8]
 144              		.loc 1 254 0
 145 003e 436C     		ldr	r3, [r0, #68]
 146 0040 43F40072 		orr	r2, r3, #512
 147 0044 4264     		str	r2, [r0, #68]
 148 0046 E4E7     		b	.L6
 149              	.L11:
 150              		.align	2
 151              	.L10:
 152 0048 00000000 		.word	.LANCHOR0
 153 004c 00230140 		.word	1073816320
 154 0050 00000000 		.word	adc_lld_serve_rx_interrupt
 155 0054 4C210140 		.word	1073815884
 156 0058 00380240 		.word	1073887232
 157              	.LBE2:
 158              		.cfi_endproc
 159              	.LFE121:
 160              		.size	adc_lld_start, .-adc_lld_start
 161 005c AFF30080 		.section	.text.adc_lld_stop,"ax",%progbits
 162              		.align	2
 163              		.p2align 4,,15
 164              		.global	adc_lld_stop
 165              		.thumb
ARM GAS  C:\Users\DNIEL~1\AppData\Local\Temp\ccWhrmOY.s 			page 4


 166              		.thumb_func
 167              		.type	adc_lld_stop, %function
 168              	adc_lld_stop:
 169              	.LFB122:
 170              		.loc 1 290 0
 171              		.cfi_startproc
 172              		@ args = 0, pretend = 0, frame = 0
 173              		@ frame_needed = 0, uses_anonymous_args = 0
 174              	.LVL2:
 175              		.loc 1 293 0
 176 0000 0378     		ldrb	r3, [r0, #0]	@ zero_extendqisi2
 177 0002 022B     		cmp	r3, #2
 178              		.loc 1 290 0
 179 0004 10B5     		push	{r4, lr}
 180              	.LCFI2:
 181              		.cfi_def_cfa_offset 8
 182              		.loc 1 290 0
 183 0006 0446     		mov	r4, r0
 184              		.cfi_offset 14, -4
 185              		.cfi_offset 4, -8
 186              		.loc 1 293 0
 187 0008 00D0     		beq	.L14
 188              	.LVL3:
 189              	.L12:
 190 000a 10BD     		pop	{r4, pc}
 191              	.L14:
 192              		.loc 1 294 0
 193 000c C06A     		ldr	r0, [r0, #44]
 194 000e FFF7FEFF 		bl	dmaStreamRelease
 195              		.loc 1 304 0
 196 0012 0648     		ldr	r0, .L15
 197              		.loc 1 295 0
 198 0014 A16A     		ldr	r1, [r4, #40]
 199 0016 0022     		movs	r2, #0
 200              		.loc 1 304 0
 201 0018 8442     		cmp	r4, r0
 202              		.loc 1 295 0
 203 001a 4A60     		str	r2, [r1, #4]
 204              		.loc 1 296 0
 205 001c 8A60     		str	r2, [r1, #8]
 206              		.loc 1 304 0
 207 001e F4D1     		bne	.L12
 208              		.loc 1 305 0
 209 0020 034B     		ldr	r3, .L15+4
 210 0022 5A6C     		ldr	r2, [r3, #68]
 211 0024 22F40070 		bic	r0, r2, #512
 212 0028 5864     		str	r0, [r3, #68]
 213 002a EEE7     		b	.L12
 214              	.L16:
 215              		.align	2
 216              	.L15:
 217 002c 00000000 		.word	.LANCHOR0
 218 0030 00380240 		.word	1073887232
 219              		.cfi_endproc
 220              	.LFE122:
 221              		.size	adc_lld_stop, .-adc_lld_stop
 222 0034 AFF30080 		.section	.text.adc_lld_start_conversion,"ax",%progbits
ARM GAS  C:\Users\DNIEL~1\AppData\Local\Temp\ccWhrmOY.s 			page 5


 222      AFF30080 
 222      AFF30080 
 223              		.align	2
 224              		.p2align 4,,15
 225              		.global	adc_lld_start_conversion
 226              		.thumb
 227              		.thumb_func
 228              		.type	adc_lld_start_conversion, %function
 229              	adc_lld_start_conversion:
 230              	.LFB123:
 231              		.loc 1 322 0
 232              		.cfi_startproc
 233              		@ args = 0, pretend = 0, frame = 0
 234              		@ frame_needed = 0, uses_anonymous_args = 0
 235              		@ link register save eliminated.
 236              	.LVL4:
 237              		.loc 1 324 0
 238 0000 0369     		ldr	r3, [r0, #16]
 239              	.LVL5:
 240              		.loc 1 327 0
 241 0002 026B     		ldr	r2, [r0, #48]
 242              	.LVL6:
 243              		.loc 1 328 0
 244 0004 1968     		ldr	r1, [r3, #0]
 245              		.loc 1 322 0
 246 0006 2DE9F003 		push	{r4, r5, r6, r7, r8, r9}
 247              	.LCFI3:
 248              		.cfi_def_cfa_offset 24
 249              		.loc 1 328 0
 250 000a 09B1     		cbz	r1, .L18
 251              		.cfi_offset 9, -4
 252              		.cfi_offset 8, -8
 253              		.cfi_offset 7, -12
 254              		.cfi_offset 6, -16
 255              		.cfi_offset 5, -20
 256              		.cfi_offset 4, -24
 257              		.loc 1 329 0
 258 000c 42F48072 		orr	r2, r2, #256
 259              	.LVL7:
 260              	.L18:
 261              		.loc 1 331 0
 262 0010 C768     		ldr	r7, [r0, #12]
 263              		.loc 1 336 0
 264 0012 C16A     		ldr	r1, [r0, #44]
 265              		.loc 1 337 0
 266 0014 9D88     		ldrh	r5, [r3, #4]
 267              		.loc 1 336 0
 268 0016 0968     		ldr	r1, [r1, #0]
 269 0018 8668     		ldr	r6, [r0, #8]
 270              		.loc 1 352 0
 271 001a D3F810C0 		ldr	ip, [r3, #16]
 272              		.loc 1 336 0
 273 001e CE60     		str	r6, [r1, #12]
 274              		.loc 1 331 0
 275 0020 012F     		cmp	r7, #1
 276              		.loc 1 334 0
 277 0022 88BF     		it	hi
ARM GAS  C:\Users\DNIEL~1\AppData\Local\Temp\ccWhrmOY.s 			page 6


 278 0024 42F00802 		orrhi	r2, r2, #8
 279              	.LVL8:
 280              		.loc 1 337 0
 281 0028 07FB05F4 		mul	r4, r7, r5
 282 002c 4C60     		str	r4, [r1, #4]
 283              		.loc 1 339 0
 284 002e 0A60     		str	r2, [r1, #0]
 285              		.loc 1 340 0
 286 0030 D1F80090 		ldr	r9, [r1, #0]
 287              		.loc 1 344 0
 288 0034 D3F81880 		ldr	r8, [r3, #24]
 289              		.loc 1 345 0
 290 0038 DF69     		ldr	r7, [r3, #28]
 291              		.loc 1 346 0
 292 003a 1E6A     		ldr	r6, [r3, #32]
 293              		.loc 1 347 0
 294 003c 5D6A     		ldr	r5, [r3, #36]
 295              		.loc 1 348 0
 296 003e 9C6A     		ldr	r4, [r3, #40]
 297              		.loc 1 353 0
 298 0040 5B69     		ldr	r3, [r3, #20]
 299              		.loc 1 343 0
 300 0042 826A     		ldr	r2, [r0, #40]
 301              	.LVL9:
 302              		.loc 1 340 0
 303 0044 49F00109 		orr	r9, r9, #1
 304 0048 C1F80090 		str	r9, [r1, #0]
 305              		.loc 1 352 0
 306 004c 4CF0806C 		orr	ip, ip, #67108864
 307              		.loc 1 343 0
 308 0050 0021     		movs	r1, #0
 309              		.loc 1 353 0
 310 0052 13F0804F 		tst	r3, #1073741824
 311              		.loc 1 355 0
 312 0056 43F44073 		orr	r3, r3, #768
 313              		.loc 1 352 0
 314 005a 4CF48070 		orr	r0, ip, #256
 315              	.LVL10:
 316              		.loc 1 355 0
 317 005e 14BF     		ite	ne
 318 0060 43F00303 		orrne	r3, r3, #3
 319              		.loc 1 358 0
 320 0064 43F00103 		orreq	r3, r3, #1
 321              		.loc 1 343 0
 322 0068 1160     		str	r1, [r2, #0]
 323              		.loc 1 344 0
 324 006a C2F80C80 		str	r8, [r2, #12]
 325              		.loc 1 345 0
 326 006e 1761     		str	r7, [r2, #16]
 327              		.loc 1 346 0
 328 0070 D662     		str	r6, [r2, #44]
 329              		.loc 1 347 0
 330 0072 1563     		str	r5, [r2, #48]
 331              		.loc 1 348 0
 332 0074 5463     		str	r4, [r2, #52]
 333              		.loc 1 352 0
 334 0076 5060     		str	r0, [r2, #4]
ARM GAS  C:\Users\DNIEL~1\AppData\Local\Temp\ccWhrmOY.s 			page 7


 335              		.loc 1 357 0
 336 0078 9360     		str	r3, [r2, #8]
 337              		.loc 1 359 0
 338 007a BDE8F003 		pop	{r4, r5, r6, r7, r8, r9}
 339 007e 7047     		bx	lr
 340              		.cfi_endproc
 341              	.LFE123:
 342              		.size	adc_lld_start_conversion, .-adc_lld_start_conversion
 343              		.section	.text.adc_lld_stop_conversion,"ax",%progbits
 344              		.align	2
 345              		.p2align 4,,15
 346              		.global	adc_lld_stop_conversion
 347              		.thumb
 348              		.thumb_func
 349              		.type	adc_lld_stop_conversion, %function
 350              	adc_lld_stop_conversion:
 351              	.LFB124:
 352              		.loc 1 368 0
 353              		.cfi_startproc
 354              		@ args = 0, pretend = 0, frame = 0
 355              		@ frame_needed = 0, uses_anonymous_args = 0
 356              		@ link register save eliminated.
 357              	.LVL11:
 358              		.loc 1 370 0
 359 0000 C16A     		ldr	r1, [r0, #44]
 360 0002 0A68     		ldr	r2, [r1, #0]
 361              		.loc 1 368 0
 362 0004 10B4     		push	{r4}
 363              	.LCFI4:
 364              		.cfi_def_cfa_offset 4
 365              		.loc 1 370 0
 366 0006 1468     		ldr	r4, [r2, #0]
 367              		.cfi_offset 4, -4
 368 0008 24F00103 		bic	r3, r4, #1
 369 000c 1360     		str	r3, [r2, #0]
 370              	.L23:
 371              		.loc 1 370 0 is_stmt 0 discriminator 1
 372 000e 1368     		ldr	r3, [r2, #0]
 373 0010 13F00103 		ands	r3, r3, #1
 374 0014 FBD1     		bne	.L23
 375              		.loc 1 370 0 discriminator 2
 376 0016 0C7A     		ldrb	r4, [r1, #8]	@ zero_extendqisi2
 377              		.loc 1 371 0 is_stmt 1 discriminator 2
 378 0018 826A     		ldr	r2, [r0, #40]
 379              		.loc 1 370 0 discriminator 2
 380 001a 4968     		ldr	r1, [r1, #4]
 381 001c 3D20     		movs	r0, #61
 382              	.LVL12:
 383 001e A040     		lsls	r0, r0, r4
 384 0020 0860     		str	r0, [r1, #0]
 385              		.loc 1 373 0 discriminator 2
 386 0022 0120     		movs	r0, #1
 387              		.loc 1 371 0 discriminator 2
 388 0024 5360     		str	r3, [r2, #4]
 389              		.loc 1 372 0 discriminator 2
 390 0026 9360     		str	r3, [r2, #8]
 391              		.loc 1 373 0 discriminator 2
ARM GAS  C:\Users\DNIEL~1\AppData\Local\Temp\ccWhrmOY.s 			page 8


 392 0028 9060     		str	r0, [r2, #8]
 393              		.loc 1 374 0 discriminator 2
 394 002a 10BC     		pop	{r4}
 395 002c 7047     		bx	lr
 396              		.cfi_endproc
 397              	.LFE124:
 398              		.size	adc_lld_stop_conversion, .-adc_lld_stop_conversion
 399 002e 00BF     		.section	.text.adc_lld_serve_rx_interrupt,"ax",%progbits
 400              		.align	2
 401              		.p2align 4,,15
 402              		.thumb
 403              		.thumb_func
 404              		.type	adc_lld_serve_rx_interrupt, %function
 405              	adc_lld_serve_rx_interrupt:
 406              	.LFB118:
 407              		.loc 1 80 0
 408              		.cfi_startproc
 409              		@ args = 0, pretend = 0, frame = 0
 410              		@ frame_needed = 0, uses_anonymous_args = 0
 411              	.LVL13:
 412              		.loc 1 83 0
 413 0000 11F00C0F 		tst	r1, #12
 414              		.loc 1 80 0
 415 0004 38B5     		push	{r3, r4, r5, lr}
 416              	.LCFI5:
 417              		.cfi_def_cfa_offset 16
 418              		.loc 1 80 0
 419 0006 0D46     		mov	r5, r1
 420              		.cfi_offset 14, -4
 421              		.cfi_offset 5, -8
 422              		.cfi_offset 4, -12
 423              		.cfi_offset 3, -16
 424 0008 0446     		mov	r4, r0
 425              		.loc 1 83 0
 426 000a 4CD1     		bne	.L38
 427              		.loc 1 91 0
 428 000c 0369     		ldr	r3, [r0, #16]
 429 000e 002B     		cmp	r3, #0
 430 0010 48D0     		beq	.L25
 431              		.loc 1 92 0
 432 0012 11F0100F 		tst	r1, #16
 433 0016 05D0     		beq	.L30
 434              		.loc 1 94 0
 435 0018 9B68     		ldr	r3, [r3, #8]
 436 001a 1BB1     		cbz	r3, .L30
 437              		.loc 1 94 0 is_stmt 0 discriminator 1
 438 001c C268     		ldr	r2, [r0, #12]
 439 001e 8168     		ldr	r1, [r0, #8]
 440              	.LVL14:
 441 0020 5208     		lsrs	r2, r2, #1
 442 0022 9847     		blx	r3
 443              	.LVL15:
 444              	.L30:
 445              		.loc 1 96 0 is_stmt 1
 446 0024 15F0200F 		tst	r5, #32
 447 0028 3CD0     		beq	.L25
 448              		.loc 1 98 0
ARM GAS  C:\Users\DNIEL~1\AppData\Local\Temp\ccWhrmOY.s 			page 9


 449 002a 2169     		ldr	r1, [r4, #16]
 450 002c 0B68     		ldr	r3, [r1, #0]
 451 002e 7BB1     		cbz	r3, .L31
 452              		.loc 1 98 0 is_stmt 0 discriminator 1
 453 0030 8B68     		ldr	r3, [r1, #8]
 454 0032 002B     		cmp	r3, #0
 455 0034 36D0     		beq	.L25
 456              		.loc 1 98 0 discriminator 3
 457 0036 E268     		ldr	r2, [r4, #12]
 458 0038 012A     		cmp	r2, #1
 459 003a 53D9     		bls	.L32
 460              	.LBB3:
 461              		.loc 1 98 0 discriminator 4
 462 003c 8D88     		ldrh	r5, [r1, #4]
 463              	.LVL16:
 464 003e A168     		ldr	r1, [r4, #8]
 465 0040 5208     		lsrs	r2, r2, #1
 466              	.LVL17:
 467 0042 05FB02F5 		mul	r5, r5, r2
 468 0046 2046     		mov	r0, r4
 469 0048 01EB4501 		add	r1, r1, r5, lsl #1
 470 004c 9847     		blx	r3
 471              	.LVL18:
 472 004e 38BD     		pop	{r3, r4, r5, pc}
 473              	.LVL19:
 474              	.L31:
 475              	.LBE3:
 476              		.loc 1 98 0 discriminator 2
 477 0050 2046     		mov	r0, r4
 478 0052 FFF7FEFF 		bl	adc_lld_stop_conversion
 479 0056 2169     		ldr	r1, [r4, #16]
 480 0058 8B68     		ldr	r3, [r1, #8]
 481 005a 002B     		cmp	r3, #0
 482 005c 49D0     		beq	.L33
 483              		.loc 1 98 0 discriminator 6
 484 005e E268     		ldr	r2, [r4, #12]
 485 0060 0420     		movs	r0, #4
 486 0062 012A     		cmp	r2, #1
 487 0064 2070     		strb	r0, [r4, #0]
 488 0066 47D9     		bls	.L34
 489              	.LBB4:
 490              		.loc 1 98 0 discriminator 8
 491 0068 B1F804C0 		ldrh	ip, [r1, #4]
 492 006c A168     		ldr	r1, [r4, #8]
 493 006e 5208     		lsrs	r2, r2, #1
 494              	.LVL20:
 495 0070 0CFB02F5 		mul	r5, ip, r2
 496              	.LVL21:
 497 0074 2046     		mov	r0, r4
 498 0076 01EB4501 		add	r1, r1, r5, lsl #1
 499 007a 9847     		blx	r3
 500              	.LVL22:
 501              	.L35:
 502              	.LBE4:
 503              		.loc 1 98 0 discriminator 10
 504 007c 94F800E0 		ldrb	lr, [r4, #0]	@ zero_extendqisi2
 505 0080 BEF1040F 		cmp	lr, #4
ARM GAS  C:\Users\DNIEL~1\AppData\Local\Temp\ccWhrmOY.s 			page 10


 506 0084 35D0     		beq	.L33
 507              	.L36:
 508              		.loc 1 98 0 discriminator 12
 509 0086 0022     		movs	r2, #0
 510 0088 2261     		str	r2, [r4, #16]
 511              	.LBB5:
 512 008a 2023     		movs	r3, #32
 513              	.LVL23:
 514              	@ 98 "../../../ChibiOS/os/hal/platforms/STM32F4xx/adc_lld.c" 1
 515 008c 83F31188 		msr     BASEPRI, r3
 516              	@ 0 "" 2
 517              	.LVL24:
 518              		.thumb
 519              	.LBE5:
 520 0090 6369     		ldr	r3, [r4, #20]
 521              	.LVL25:
 522 0092 23B1     		cbz	r3, .L37
 523              	.LVL26:
 524              	.LBB6:
 525              		.loc 1 98 0 discriminator 13
 526 0094 6261     		str	r2, [r4, #20]
 527 0096 1846     		mov	r0, r3
 528 0098 5A62     		str	r2, [r3, #36]
 529 009a FFF7FEFF 		bl	chSchReadyI
 530              	.LVL27:
 531              	.L37:
 532              	.LBE6:
 533              	.LBB7:
 534              		.loc 1 98 0 discriminator 14
 535 009e 0023     		movs	r3, #0
 536              	.LVL28:
 537              	@ 98 "../../../ChibiOS/os/hal/platforms/STM32F4xx/adc_lld.c" 1
 538 00a0 83F31188 		msr     BASEPRI, r3
 539              	@ 0 "" 2
 540              	.LVL29:
 541              		.thumb
 542              	.L25:
 543 00a4 38BD     		pop	{r3, r4, r5, pc}
 544              	.LVL30:
 545              	.L38:
 546              	.LBE7:
 547              		.loc 1 86 0 is_stmt 1
 548 00a6 FFF7FEFF 		bl	adc_lld_stop_conversion
 549              	.LVL31:
 550 00aa 2369     		ldr	r3, [r4, #16]
 551 00ac DB68     		ldr	r3, [r3, #12]
 552 00ae 3BB1     		cbz	r3, .L27
 553              		.loc 1 86 0 is_stmt 0 discriminator 1
 554 00b0 0522     		movs	r2, #5
 555 00b2 2046     		mov	r0, r4
 556 00b4 0021     		movs	r1, #0
 557 00b6 2270     		strb	r2, [r4, #0]
 558 00b8 9847     		blx	r3
 559 00ba 2078     		ldrb	r0, [r4, #0]	@ zero_extendqisi2
 560 00bc 0528     		cmp	r0, #5
 561 00be 15D0     		beq	.L39
 562              	.L27:
ARM GAS  C:\Users\DNIEL~1\AppData\Local\Temp\ccWhrmOY.s 			page 11


 563              		.loc 1 86 0 discriminator 2
 564 00c0 0022     		movs	r2, #0
 565 00c2 2261     		str	r2, [r4, #16]
 566              	.LBB8:
 567 00c4 2023     		movs	r3, #32
 568              	.LVL32:
 569              	@ 86 "../../../ChibiOS/os/hal/platforms/STM32F4xx/adc_lld.c" 1
 570 00c6 83F31188 		msr     BASEPRI, r3
 571              	@ 0 "" 2
 572              	.LVL33:
 573              		.thumb
 574              	.LBE8:
 575 00ca 6369     		ldr	r3, [r4, #20]
 576              	.LVL34:
 577 00cc 33B1     		cbz	r3, .L28
 578              	.LVL35:
 579              	.LBB9:
 580              		.loc 1 86 0 discriminator 4
 581 00ce 6261     		str	r2, [r4, #20]
 582 00d0 4FF0FF32 		mov	r2, #-1
 583 00d4 1846     		mov	r0, r3
 584 00d6 5A62     		str	r2, [r3, #36]
 585 00d8 FFF7FEFF 		bl	chSchReadyI
 586              	.LVL36:
 587              	.L28:
 588              	.LBE9:
 589              	.LBB10:
 590              		.loc 1 86 0 discriminator 5
 591 00dc 0023     		movs	r3, #0
 592              	.LVL37:
 593              	@ 86 "../../../ChibiOS/os/hal/platforms/STM32F4xx/adc_lld.c" 1
 594 00de 83F31188 		msr     BASEPRI, r3
 595              	@ 0 "" 2
 596              	.LVL38:
 597              		.thumb
 598 00e2 38BD     		pop	{r3, r4, r5, pc}
 599              	.LVL39:
 600              	.L32:
 601              	.LBE10:
 602              		.loc 1 98 0 is_stmt 1 discriminator 5
 603 00e4 2046     		mov	r0, r4
 604 00e6 A168     		ldr	r1, [r4, #8]
 605 00e8 9847     		blx	r3
 606 00ea 38BD     		pop	{r3, r4, r5, pc}
 607              	.L39:
 608              		.loc 1 86 0 discriminator 3
 609 00ec 0221     		movs	r1, #2
 610 00ee 2170     		strb	r1, [r4, #0]
 611 00f0 E6E7     		b	.L27
 612              	.LVL40:
 613              	.L33:
 614              		.loc 1 98 0 discriminator 7
 615 00f2 0222     		movs	r2, #2
 616 00f4 2270     		strb	r2, [r4, #0]
 617 00f6 C6E7     		b	.L36
 618              	.LVL41:
 619              	.L34:
ARM GAS  C:\Users\DNIEL~1\AppData\Local\Temp\ccWhrmOY.s 			page 12


 620              		.loc 1 98 0 is_stmt 0 discriminator 9
 621 00f8 2046     		mov	r0, r4
 622 00fa A168     		ldr	r1, [r4, #8]
 623 00fc 9847     		blx	r3
 624 00fe BDE7     		b	.L35
 625              		.cfi_endproc
 626              	.LFE118:
 627              		.size	adc_lld_serve_rx_interrupt, .-adc_lld_serve_rx_interrupt
 628              		.section	.text.Vector88,"ax",%progbits
 629              		.align	2
 630              		.p2align 4,,15
 631              		.global	Vector88
 632              		.thumb
 633              		.thumb_func
 634              		.type	Vector88, %function
 635              	Vector88:
 636              	.LFB119:
 637              		.loc 1 115 0 is_stmt 1
 638              		.cfi_startproc
 639              		@ args = 0, pretend = 0, frame = 0
 640              		@ frame_needed = 0, uses_anonymous_args = 0
 641              		.loc 1 135 0
 642 0000 1B4B     		ldr	r3, .L45
 643 0002 1A68     		ldr	r2, [r3, #0]
 644              	.LVL42:
 645              		.loc 1 136 0
 646 0004 0021     		movs	r1, #0
 647              		.loc 1 139 0
 648 0006 12F0200F 		tst	r2, #32
 649              		.loc 1 115 0
 650 000a 10B5     		push	{r4, lr}
 651              	.LCFI6:
 652              		.cfi_def_cfa_offset 8
 653              		.loc 1 136 0
 654 000c 1960     		str	r1, [r3, #0]
 655              		.loc 1 139 0
 656 000e 27D0     		beq	.L41
 657              		.cfi_offset 14, -4
 658              		.cfi_offset 4, -8
 659              		.loc 1 139 0 is_stmt 0 discriminator 1
 660 0010 184C     		ldr	r4, .L45+4
 661 0012 E16A     		ldr	r1, [r4, #44]
 662 0014 0A68     		ldr	r2, [r1, #0]
 663              	.LVL43:
 664 0016 5068     		ldr	r0, [r2, #4]
 665 0018 10B3     		cbz	r0, .L41
 666              		.loc 1 142 0 is_stmt 1
 667 001a 2369     		ldr	r3, [r4, #16]
 668 001c 03B3     		cbz	r3, .L41
 669              		.loc 1 143 0
 670 001e 2046     		mov	r0, r4
 671 0020 FFF7FEFF 		bl	adc_lld_stop_conversion
 672 0024 2069     		ldr	r0, [r4, #16]
 673 0026 C368     		ldr	r3, [r0, #12]
 674 0028 4BB1     		cbz	r3, .L42
 675              		.loc 1 143 0 is_stmt 0 discriminator 1
 676 002a 0522     		movs	r2, #5
ARM GAS  C:\Users\DNIEL~1\AppData\Local\Temp\ccWhrmOY.s 			page 13


 677 002c 0121     		movs	r1, #1
 678 002e 2270     		strb	r2, [r4, #0]
 679 0030 2046     		mov	r0, r4
 680 0032 9847     		blx	r3
 681 0034 94F800C0 		ldrb	ip, [r4, #0]	@ zero_extendqisi2
 682 0038 BCF1050F 		cmp	ip, #5
 683 003c 14D0     		beq	.L44
 684              	.L42:
 685              		.loc 1 143 0 discriminator 2
 686 003e 0022     		movs	r2, #0
 687 0040 2261     		str	r2, [r4, #16]
 688              	.LBB11:
 689 0042 2023     		movs	r3, #32
 690              	.LVL44:
 691              	@ 143 "../../../ChibiOS/os/hal/platforms/STM32F4xx/adc_lld.c" 1
 692 0044 83F31188 		msr     BASEPRI, r3
 693              	@ 0 "" 2
 694              	.LVL45:
 695              		.thumb
 696              	.LBE11:
 697 0048 6069     		ldr	r0, [r4, #20]
 698 004a 30B1     		cbz	r0, .L43
 699              	.LVL46:
 700              	.LBB12:
 701              		.loc 1 143 0 discriminator 4
 702 004c 094B     		ldr	r3, .L45+4
 703              	.LVL47:
 704 004e 4FF0FF31 		mov	r1, #-1
 705 0052 4162     		str	r1, [r0, #36]
 706 0054 5A61     		str	r2, [r3, #20]
 707 0056 FFF7FEFF 		bl	chSchReadyI
 708              	.LVL48:
 709              	.L43:
 710              	.LBE12:
 711              	.LBB13:
 712              		.loc 1 143 0 discriminator 5
 713 005a 0023     		movs	r3, #0
 714              	.LVL49:
 715              	@ 143 "../../../ChibiOS/os/hal/platforms/STM32F4xx/adc_lld.c" 1
 716 005c 83F31188 		msr     BASEPRI, r3
 717              	@ 0 "" 2
 718              	.LVL50:
 719              		.thumb
 720              	.L41:
 721              	.LBE13:
 722              		.loc 1 163 0 is_stmt 1
 723 0060 BDE81040 		pop	{r4, lr}
 724              		.loc 1 162 0
 725 0064 FFF7FEBF 		b	_port_irq_epilogue
 726              	.LVL51:
 727              	.L44:
 728              		.loc 1 143 0 discriminator 3
 729 0068 0221     		movs	r1, #2
 730 006a 2170     		strb	r1, [r4, #0]
 731 006c E7E7     		b	.L42
 732              	.L46:
 733 006e 00BF     		.align	2
ARM GAS  C:\Users\DNIEL~1\AppData\Local\Temp\ccWhrmOY.s 			page 14


 734              	.L45:
 735 0070 00210140 		.word	1073815808
 736 0074 00000000 		.word	.LANCHOR0
 737              		.cfi_endproc
 738              	.LFE119:
 739              		.size	Vector88, .-Vector88
 740 0078 AFF30080 		.section	.text.adcSTM32EnableTSVREFE,"ax",%progbits
 740      AFF30080 
 741              		.align	2
 742              		.p2align 4,,15
 743              		.global	adcSTM32EnableTSVREFE
 744              		.thumb
 745              		.thumb_func
 746              		.type	adcSTM32EnableTSVREFE, %function
 747              	adcSTM32EnableTSVREFE:
 748              	.LFB125:
 749              		.loc 1 382 0
 750              		.cfi_startproc
 751              		@ args = 0, pretend = 0, frame = 0
 752              		@ frame_needed = 0, uses_anonymous_args = 0
 753              		@ link register save eliminated.
 754              		.loc 1 384 0
 755 0000 024B     		ldr	r3, .L48
 756 0002 5868     		ldr	r0, [r3, #4]
 757 0004 40F40002 		orr	r2, r0, #8388608
 758 0008 5A60     		str	r2, [r3, #4]
 759              		.loc 1 385 0
 760 000a 7047     		bx	lr
 761              	.L49:
 762              		.align	2
 763              	.L48:
 764 000c 00230140 		.word	1073816320
 765              		.cfi_endproc
 766              	.LFE125:
 767              		.size	adcSTM32EnableTSVREFE, .-adcSTM32EnableTSVREFE
 768              		.section	.text.adcSTM32DisableTSVREFE,"ax",%progbits
 769              		.align	2
 770              		.p2align 4,,15
 771              		.global	adcSTM32DisableTSVREFE
 772              		.thumb
 773              		.thumb_func
 774              		.type	adcSTM32DisableTSVREFE, %function
 775              	adcSTM32DisableTSVREFE:
 776              	.LFB126:
 777              		.loc 1 393 0
 778              		.cfi_startproc
 779              		@ args = 0, pretend = 0, frame = 0
 780              		@ frame_needed = 0, uses_anonymous_args = 0
 781              		@ link register save eliminated.
 782              		.loc 1 395 0
 783 0000 024B     		ldr	r3, .L51
 784 0002 5868     		ldr	r0, [r3, #4]
 785 0004 20F40002 		bic	r2, r0, #8388608
 786 0008 5A60     		str	r2, [r3, #4]
 787              		.loc 1 396 0
 788 000a 7047     		bx	lr
 789              	.L52:
ARM GAS  C:\Users\DNIEL~1\AppData\Local\Temp\ccWhrmOY.s 			page 15


 790              		.align	2
 791              	.L51:
 792 000c 00230140 		.word	1073816320
 793              		.cfi_endproc
 794              	.LFE126:
 795              		.size	adcSTM32DisableTSVREFE, .-adcSTM32DisableTSVREFE
 796              		.section	.text.adcSTM32EnableVBATE,"ax",%progbits
 797              		.align	2
 798              		.p2align 4,,15
 799              		.global	adcSTM32EnableVBATE
 800              		.thumb
 801              		.thumb_func
 802              		.type	adcSTM32EnableVBATE, %function
 803              	adcSTM32EnableVBATE:
 804              	.LFB127:
 805              		.loc 1 403 0
 806              		.cfi_startproc
 807              		@ args = 0, pretend = 0, frame = 0
 808              		@ frame_needed = 0, uses_anonymous_args = 0
 809              		@ link register save eliminated.
 810              		.loc 1 405 0
 811 0000 024B     		ldr	r3, .L54
 812 0002 5868     		ldr	r0, [r3, #4]
 813 0004 40F48002 		orr	r2, r0, #4194304
 814 0008 5A60     		str	r2, [r3, #4]
 815              		.loc 1 406 0
 816 000a 7047     		bx	lr
 817              	.L55:
 818              		.align	2
 819              	.L54:
 820 000c 00230140 		.word	1073816320
 821              		.cfi_endproc
 822              	.LFE127:
 823              		.size	adcSTM32EnableVBATE, .-adcSTM32EnableVBATE
 824              		.section	.text.adcSTM32DisableVBATE,"ax",%progbits
 825              		.align	2
 826              		.p2align 4,,15
 827              		.global	adcSTM32DisableVBATE
 828              		.thumb
 829              		.thumb_func
 830              		.type	adcSTM32DisableVBATE, %function
 831              	adcSTM32DisableVBATE:
 832              	.LFB128:
 833              		.loc 1 413 0
 834              		.cfi_startproc
 835              		@ args = 0, pretend = 0, frame = 0
 836              		@ frame_needed = 0, uses_anonymous_args = 0
 837              		@ link register save eliminated.
 838              		.loc 1 415 0
 839 0000 024B     		ldr	r3, .L57
 840 0002 5868     		ldr	r0, [r3, #4]
 841 0004 20F48002 		bic	r2, r0, #4194304
 842 0008 5A60     		str	r2, [r3, #4]
 843              		.loc 1 416 0
 844 000a 7047     		bx	lr
 845              	.L58:
 846              		.align	2
ARM GAS  C:\Users\DNIEL~1\AppData\Local\Temp\ccWhrmOY.s 			page 16


 847              	.L57:
 848 000c 00230140 		.word	1073816320
 849              		.cfi_endproc
 850              	.LFE128:
 851              		.size	adcSTM32DisableVBATE, .-adcSTM32DisableVBATE
 852              		.global	ADCD2
 853              		.section	.bss.ADCD2,"aw",%nobits
 854              		.align	2
 855              		.set	.LANCHOR0,. + 0
 856              		.type	ADCD2, %object
 857              		.size	ADCD2, 52
 858              	ADCD2:
 859 0000 00000000 		.space	52
 859      00000000 
 859      00000000 
 859      00000000 
 859      00000000 
 860              		.text
 861              	.Letext0: