ARM GAS  C:\Users\DNIEL~1\AppData\Local\Temp\ccuufvxW.s 			page 1


   1              		.syntax unified
   2              		.cpu cortex-m4
   3              		.fpu softvfp
   4              		.eabi_attribute 20, 1
   5              		.eabi_attribute 21, 1
   6              		.eabi_attribute 23, 3
   7              		.eabi_attribute 24, 1
   8              		.eabi_attribute 25, 1
   9              		.eabi_attribute 26, 1
  10              		.eabi_attribute 30, 2
  11              		.eabi_attribute 18, 4
  12              		.thumb
  13              		.file	"button.c"
  14              		.section	.debug_abbrev,"",%progbits
  15              	.Ldebug_abbrev0:
  16              		.section	.debug_info,"",%progbits
  17              	.Ldebug_info0:
  18              		.section	.debug_line,"",%progbits
  19              	.Ldebug_line0:
  20 0000 AC020000 		.text
  20      02003302 
  20      00000201 
  20      FB0E0D00 
  20      01010101 
  21              	.Ltext0:
  22              		.cfi_sections	.debug_frame
  23              		.section	.text.chprintf,"ax",%progbits
  24              		.align	2
  25              		.p2align 4,,15
  26              		.thumb
  27              		.thumb_func
  28              		.type	chprintf, %function
  29              	chprintf:
  30              	.LFB118:
  31              		.file 1 "../../../ChibiOS/os/various/chprintf.h"
  32              		.loc 1 69 0
  33              		.cfi_startproc
  34              		@ args = 4, pretend = 12, frame = 8
  35              		@ frame_needed = 0, uses_anonymous_args = 1
  36              	.LVL0:
  37 0000 0EB4     		push	{r1, r2, r3}
  38              	.LCFI0:
  39              		.cfi_def_cfa_offset 12
  40 0002 00B5     		push	{lr}
  41              	.LCFI1:
  42              		.cfi_def_cfa_offset 16
  43 0004 82B0     		sub	sp, sp, #8
  44              	.LCFI2:
  45              		.cfi_def_cfa_offset 24
  46              		.loc 1 69 0
  47 0006 03AB     		add	r3, sp, #12
  48              		.cfi_offset 14, -16
  49              		.cfi_offset 3, -4
  50              		.cfi_offset 2, -8
  51              		.cfi_offset 1, -12
  52 0008 53F8041B 		ldr	r1, [r3], #4
  53              		.loc 1 73 0
ARM GAS  C:\Users\DNIEL~1\AppData\Local\Temp\ccuufvxW.s 			page 2


  54 000c 1A46     		mov	r2, r3
  55              		.loc 1 72 0
  56 000e 0193     		str	r3, [sp, #4]
  57              		.loc 1 73 0
  58 0010 FFF7FEFF 		bl	chvprintf
  59              	.LVL1:
  60              		.loc 1 75 0
  61 0014 02B0     		add	sp, sp, #8
  62 0016 5DF804EB 		pop	{lr}
  63 001a 03B0     		add	sp, sp, #12
  64 001c 7047     		bx	lr
  65              		.cfi_endproc
  66              	.LFE118:
  67              		.size	chprintf, .-chprintf
  68 001e 00BF     		.section	.text.buttonInit,"ax",%progbits
  69              		.align	2
  70              		.p2align 4,,15
  71              		.global	buttonInit
  72              		.thumb
  73              		.thumb_func
  74              		.type	buttonInit, %function
  75              	buttonInit:
  76              	.LFB119:
  77              		.file 2 "src/button.c"
  78              		.loc 2 13 0
  79              		.cfi_startproc
  80              		@ args = 0, pretend = 0, frame = 0
  81              		@ frame_needed = 0, uses_anonymous_args = 0
  82              		@ link register save eliminated.
  83              		.loc 2 14 0
  84 0000 014B     		ldr	r3, .L3
  85 0002 0022     		movs	r2, #0
  86 0004 1A70     		strb	r2, [r3, #0]
  87              		.loc 2 15 0
  88 0006 7047     		bx	lr
  89              	.L4:
  90              		.align	2
  91              	.L3:
  92 0008 00000000 		.word	.LANCHOR0
  93              		.cfi_endproc
  94              	.LFE119:
  95              		.size	buttonInit, .-buttonInit
  96 000c AFF30080 		.section	.text.buttonCalc,"ax",%progbits
  97              		.align	2
  98              		.p2align 4,,15
  99              		.global	buttonCalc
 100              		.thumb
 101              		.thumb_func
 102              		.type	buttonCalc, %function
 103              	buttonCalc:
 104              	.LFB120:
 105              		.loc 2 17 0
 106              		.cfi_startproc
 107              		@ args = 0, pretend = 0, frame = 0
 108              		@ frame_needed = 0, uses_anonymous_args = 0
 109 0000 70B5     		push	{r4, r5, r6, lr}
 110              	.LCFI3:
ARM GAS  C:\Users\DNIEL~1\AppData\Local\Temp\ccuufvxW.s 			page 3


 111              		.cfi_def_cfa_offset 16
 112              		.loc 2 18 0
 113 0002 0820     		movs	r0, #8
 114              		.cfi_offset 14, -4
 115              		.cfi_offset 6, -8
 116              		.cfi_offset 5, -12
 117              		.cfi_offset 4, -16
 118 0004 FFF7FEFF 		bl	dspGetValue
 119 0008 0446     		mov	r4, r0
 120 000a 10B9     		cbnz	r0, .L6
 121              		.loc 2 18 0 is_stmt 0 discriminator 1
 122 000c 0B4D     		ldr	r5, .L11
 123 000e 2B78     		ldrb	r3, [r5, #0]	@ zero_extendqisi2
 124 0010 3BB9     		cbnz	r3, .L10
 125              	.L6:
 126              		.loc 2 30 0 is_stmt 1
 127 0012 0820     		movs	r0, #8
 128 0014 FFF7FEFF 		bl	dspGetValue
 129 0018 10B1     		cbz	r0, .L5
 130              		.loc 2 32 0
 131 001a 0848     		ldr	r0, .L11
 132 001c 0122     		movs	r2, #1
 133 001e 0270     		strb	r2, [r0, #0]
 134              	.L5:
 135 0020 70BD     		pop	{r4, r5, r6, pc}
 136              	.L10:
 137              	.LBB2:
 138              		.loc 2 19 0
 139 0022 FFF7FEFF 		bl	cruiseStatus
 140 0026 0646     		mov	r6, r0
 141 0028 18B1     		cbz	r0, .L7
 142              	.LBB3:
 143              		.loc 2 21 0
 144 002a FFF7FEFF 		bl	cruiseDisable
 145              		.loc 2 22 0
 146 002e 2C70     		strb	r4, [r5, #0]
 147 0030 70BD     		pop	{r4, r5, r6, pc}
 148              	.L7:
 149              	.LBE3:
 150              	.LBB4:
 151              		.loc 2 26 0
 152 0032 FFF7FEFF 		bl	cruiseEnable
 153              		.loc 2 27 0
 154 0036 2E70     		strb	r6, [r5, #0]
 155 0038 70BD     		pop	{r4, r5, r6, pc}
 156              	.L12:
 157 003a 00BF     		.align	2
 158              	.L11:
 159 003c 00000000 		.word	.LANCHOR0
 160              	.LBE4:
 161              	.LBE2:
 162              		.cfi_endproc
 163              	.LFE120:
 164              		.size	buttonCalc, .-buttonCalc
 165              		.section	.text.cmd_buttonvalues,"ax",%progbits
 166              		.align	2
 167              		.p2align 4,,15
ARM GAS  C:\Users\DNIEL~1\AppData\Local\Temp\ccuufvxW.s 			page 4


 168              		.global	cmd_buttonvalues
 169              		.thumb
 170              		.thumb_func
 171              		.type	cmd_buttonvalues, %function
 172              	cmd_buttonvalues:
 173              	.LFB121:
 174              		.loc 2 37 0
 175              		.cfi_startproc
 176              		@ args = 0, pretend = 0, frame = 0
 177              		@ frame_needed = 0, uses_anonymous_args = 0
 178              	.LVL2:
 179 0000 10B5     		push	{r4, lr}
 180              	.LCFI4:
 181              		.cfi_def_cfa_offset 8
 182              		.loc 2 42 0
 183 0002 3149     		ldr	r1, .L16
 184              	.LVL3:
 185              		.loc 2 37 0
 186 0004 0446     		mov	r4, r0
 187              		.cfi_offset 14, -4
 188              		.cfi_offset 4, -8
 189              		.loc 2 42 0
 190 0006 FFF7FEFF 		bl	chprintf
 191              	.LVL4:
 192              		.loc 2 43 0
 193 000a 2046     		mov	r0, r4
 194 000c 2F49     		ldr	r1, .L16+4
 195 000e FFF7FEFF 		bl	chprintf
 196              		.loc 2 44 0
 197 0012 50E0     		b	.L14
 198              	.LVL5:
 199              	.L15:
 200              		.loc 2 45 0
 201 0014 0022     		movs	r2, #0
 202 0016 1346     		mov	r3, r2
 203 0018 2D49     		ldr	r1, .L16+8
 204 001a 2046     		mov	r0, r4
 205 001c FFF7FEFF 		bl	chprintf
 206              		.loc 2 46 0
 207 0020 2C49     		ldr	r1, .L16+12
 208 0022 2046     		mov	r0, r4
 209 0024 FFF7FEFF 		bl	chprintf
 210              	.LVL6:
 211              		.loc 2 48 0
 212 0028 0120     		movs	r0, #1
 213 002a FFF7FEFF 		bl	dspGetValue
 214 002e 2A49     		ldr	r1, .L16+16
 215 0030 0246     		mov	r2, r0
 216 0032 2046     		mov	r0, r4
 217 0034 FFF7FEFF 		bl	chprintf
 218              	.LVL7:
 219 0038 0220     		movs	r0, #2
 220 003a FFF7FEFF 		bl	dspGetValue
 221 003e 2649     		ldr	r1, .L16+16
 222 0040 0246     		mov	r2, r0
 223 0042 2046     		mov	r0, r4
 224 0044 FFF7FEFF 		bl	chprintf
ARM GAS  C:\Users\DNIEL~1\AppData\Local\Temp\ccuufvxW.s 			page 5


 225              	.LVL8:
 226 0048 0320     		movs	r0, #3
 227 004a FFF7FEFF 		bl	dspGetValue
 228 004e 2249     		ldr	r1, .L16+16
 229 0050 0246     		mov	r2, r0
 230 0052 2046     		mov	r0, r4
 231 0054 FFF7FEFF 		bl	chprintf
 232              	.LVL9:
 233 0058 0420     		movs	r0, #4
 234 005a FFF7FEFF 		bl	dspGetValue
 235 005e 1E49     		ldr	r1, .L16+16
 236 0060 0246     		mov	r2, r0
 237 0062 2046     		mov	r0, r4
 238 0064 FFF7FEFF 		bl	chprintf
 239              	.LVL10:
 240 0068 0520     		movs	r0, #5
 241 006a FFF7FEFF 		bl	dspGetValue
 242 006e 1A49     		ldr	r1, .L16+16
 243 0070 0246     		mov	r2, r0
 244 0072 2046     		mov	r0, r4
 245 0074 FFF7FEFF 		bl	chprintf
 246              	.LVL11:
 247 0078 0620     		movs	r0, #6
 248 007a FFF7FEFF 		bl	dspGetValue
 249 007e 1649     		ldr	r1, .L16+16
 250 0080 0246     		mov	r2, r0
 251 0082 2046     		mov	r0, r4
 252 0084 FFF7FEFF 		bl	chprintf
 253              	.LVL12:
 254 0088 0720     		movs	r0, #7
 255 008a FFF7FEFF 		bl	dspGetValue
 256 008e 1249     		ldr	r1, .L16+16
 257 0090 0246     		mov	r2, r0
 258 0092 2046     		mov	r0, r4
 259 0094 FFF7FEFF 		bl	chprintf
 260              	.LVL13:
 261 0098 0820     		movs	r0, #8
 262 009a FFF7FEFF 		bl	dspGetValue
 263 009e 0E49     		ldr	r1, .L16+16
 264 00a0 0246     		mov	r2, r0
 265 00a2 2046     		mov	r0, r4
 266 00a4 FFF7FEFF 		bl	chprintf
 267              	.LVL14:
 268              		.loc 2 50 0
 269 00a8 2046     		mov	r0, r4
 270 00aa 0C49     		ldr	r1, .L16+20
 271 00ac FFF7FEFF 		bl	chprintf
 272              		.loc 2 51 0
 273 00b0 6420     		movs	r0, #100
 274 00b2 FFF7FEFF 		bl	chThdSleep
 275              	.LVL15:
 276              	.L14:
 277              		.loc 2 44 0 discriminator 1
 278 00b6 2168     		ldr	r1, [r4, #0]
 279 00b8 2046     		mov	r0, r4
 280 00ba 4B69     		ldr	r3, [r1, #20]
 281 00bc 0021     		movs	r1, #0
ARM GAS  C:\Users\DNIEL~1\AppData\Local\Temp\ccuufvxW.s 			page 6


 282 00be 9847     		blx	r3
 283 00c0 B0F1FF3F 		cmp	r0, #-1
 284 00c4 A6D0     		beq	.L15
 285              		.loc 2 53 0
 286 00c6 10BD     		pop	{r4, pc}
 287              	.L17:
 288              		.align	2
 289              	.L16:
 290 00c8 00000000 		.word	.LC0
 291 00cc 04000000 		.word	.LC1
 292 00d0 0C000000 		.word	.LC2
 293 00d4 18000000 		.word	.LC3
 294 00d8 28000000 		.word	.LC4
 295 00dc 2C000000 		.word	.LC5
 296              		.cfi_endproc
 297              	.LFE121:
 298              		.size	cmd_buttonvalues, .-cmd_buttonvalues
 299              		.section	.rodata.str1.4,"aMS",%progbits,1
 300              		.align	2
 301              	.LC0:
 302 0000 1B6300   		.ascii	"\033c\000"
 303 0003 00       		.space	1
 304              	.LC1:
 305 0004 1B5B324A 		.ascii	"\033[2J\000"
 305      00
 306 0009 000000   		.space	3
 307              	.LC2:
 308 000c 1B5B2564 		.ascii	"\033[%d;%dH\000"
 308      3B256448 
 308      00
 309 0015 000000   		.space	3
 310              	.LC3:
 311 0018 6275735F 		.ascii	"bus_status: \000"
 311      73746174 
 311      75733A20 
 311      00
 312 0025 000000   		.space	3
 313              	.LC4:
 314 0028 25642000 		.ascii	"%d \000"
 315              	.LC5:
 316 002c 0D0A00   		.ascii	"\015\012\000"
 317 002f 00       		.section	.bss.cruise_ok,"aw",%nobits
 318              		.set	.LANCHOR0,. + 0
 319              		.type	cruise_ok, %object
 320              		.size	cruise_ok, 1
 321              	cruise_ok:
 322 0000 00       		.space	1
 323              		.text
 324              	.Letext0:
 325              		.section	.debug_loc,"",%progbits
 326              	.Ldebug_loc0:
 327              	.LLST0:
 328 0000 00000000 		.4byte	.LFB118
 329 0004 02000000 		.4byte	.LCFI0
 330 0008 0200     		.2byte	0x2
 331 000a 7D       		.byte	0x7d
 332 000b 00       		.sleb128 0
ARM GAS  C:\Users\DNIEL~1\AppData\Local\Temp\ccuufvxW.s 			page 7


 333 000c 02000000 		.4byte	.LCFI0
 334 0010 04000000 		.4byte	.LCFI1
 335 0014 0200     		.2byte	0x2
 336 0016 7D       		.byte	0x7d
 337 0017 0C       		.sleb128 12
 338 0018 04000000 		.4byte	.LCFI1
 339 001c 06000000 		.4byte	.LCFI2
 340 0020 0200     		.2byte	0x2
 341 0022 7D       		.byte	0x7d
 342 0023 10       		.sleb128 16
 343 0024 06000000 		.4byte	.LCFI2
 344 0028 1E000000 		.4byte	.LFE118
 345 002c 0200     		.2byte	0x2
 346 002e 7D       		.byte	0x7d
 347 002f 18       		.sleb128 24
 348 0030 00000000 		.4byte	0x0
 349 0034 00000000 		.4byte	0x0
 350              	.LLST1:
 351 0038 00000000 		.4byte	.LVL0
 352 003c 13000000 		.4byte	.LVL1-1
 353 0040 0100     		.2byte	0x1
 354 0042 50       		.byte	0x50
 355 0043 00000000 		.4byte	0x0
 356 0047 00000000 		.4byte	0x0
 357              	.LLST2:
 358 004b 00000000 		.4byte	.LFB120
 359 004f 02000000 		.4byte	.LCFI3
 360 0053 0200     		.2byte	0x2
 361 0055 7D       		.byte	0x7d
 362 0056 00       		.sleb128 0
 363 0057 02000000 		.4byte	.LCFI3
 364 005b 40000000 		.4byte	.LFE120
 365 005f 0200     		.2byte	0x2
 366 0061 7D       		.byte	0x7d
 367 0062 10       		.sleb128 16
 368 0063 00000000 		.4byte	0x0
 369 0067 00000000 		.4byte	0x0
 370              	.LLST3:
 371 006b 00000000 		.4byte	.LFB121
 372 006f 02000000 		.4byte	.LCFI4
 373 0073 0200     		.2byte	0x2
 374 0075 7D       		.byte	0x7d
 375 0076 00       		.sleb128 0
 376 0077 02000000 		.4byte	.LCFI4
 377 007b E0000000 		.4byte	.LFE121
 378 007f 0200     		.2byte	0x2
 379 0081 7D       		.byte	0x7d
 380 0082 08       		.sleb128 8
 381 0083 00000000 		.4byte	0x0
 382 0087 00000000 		.4byte	0x0
 383              	.LLST4:
 384 008b 00000000 		.4byte	.LVL2
 385 008f 09000000 		.4byte	.LVL4-1
 386 0093 0100     		.2byte	0x1
 387 0095 50       		.byte	0x50
 388 0096 09000000 		.4byte	.LVL4-1
 389 009a E0000000 		.4byte	.LFE121
ARM GAS  C:\Users\DNIEL~1\AppData\Local\Temp\ccuufvxW.s 			page 8


 390 009e 0100     		.2byte	0x1
 391 00a0 54       		.byte	0x54
 392 00a1 00000000 		.4byte	0x0
 393 00a5 00000000 		.4byte	0x0
 394              	.LLST5:
 395 00a9 00000000 		.4byte	.LVL2
 396 00ad 04000000 		.4byte	.LVL3
 397 00b1 0100     		.2byte	0x1
 398 00b3 51       		.byte	0x51
 399 00b4 00000000 		.4byte	0x0
 400 00b8 00000000 		.4byte	0x0
 401              	.LLST6:
 402 00bc 00000000 		.4byte	.LVL2
 403 00c0 09000000 		.4byte	.LVL4-1
 404 00c4 0100     		.2byte	0x1
 405 00c6 52       		.byte	0x52
 406 00c7 00000000 		.4byte	0x0
 407 00cb 00000000 		.4byte	0x0
 408              	.LLST7:
 409 00cf 00000000 		.4byte	.LVL2
 410 00d3 14000000 		.4byte	.LVL5
 411 00d7 0200     		.2byte	0x2
 412 00d9 30       		.byte	0x30
 413 00da 9F       		.byte	0x9f
 414 00db 28000000 		.4byte	.LVL6
 415 00df 38000000 		.4byte	.LVL7
 416 00e3 0200     		.2byte	0x2
 417 00e5 31       		.byte	0x31
 418 00e6 9F       		.byte	0x9f
 419 00e7 38000000 		.4byte	.LVL7
 420 00eb 48000000 		.4byte	.LVL8
 421 00ef 0200     		.2byte	0x2
 422 00f1 32       		.byte	0x32
 423 00f2 9F       		.byte	0x9f
 424 00f3 48000000 		.4byte	.LVL8
 425 00f7 58000000 		.4byte	.LVL9
 426 00fb 0200     		.2byte	0x2
 427 00fd 33       		.byte	0x33
 428 00fe 9F       		.byte	0x9f
 429 00ff 58000000 		.4byte	.LVL9
 430 0103 68000000 		.4byte	.LVL10
 431 0107 0200     		.2byte	0x2
 432 0109 34       		.byte	0x34
 433 010a 9F       		.byte	0x9f
 434 010b 68000000 		.4byte	.LVL10
 435 010f 78000000 		.4byte	.LVL11
 436 0113 0200     		.2byte	0x2
 437 0115 35       		.byte	0x35
 438 0116 9F       		.byte	0x9f
 439 0117 78000000 		.4byte	.LVL11
 440 011b 88000000 		.4byte	.LVL12
 441 011f 0200     		.2byte	0x2
 442 0121 36       		.byte	0x36
 443 0122 9F       		.byte	0x9f
 444 0123 88000000 		.4byte	.LVL12
 445 0127 98000000 		.4byte	.LVL13
 446 012b 0200     		.2byte	0x2
ARM GAS  C:\Users\DNIEL~1\AppData\Local\Temp\ccuufvxW.s 			page 9


 447 012d 37       		.byte	0x37
 448 012e 9F       		.byte	0x9f
 449 012f 98000000 		.4byte	.LVL13
 450 0133 A8000000 		.4byte	.LVL14
 451 0137 0200     		.2byte	0x2
 452 0139 38       		.byte	0x38
 453 013a 9F       		.byte	0x9f
 454 013b A8000000 		.4byte	.LVL14
 455 013f B6000000 		.4byte	.LVL15
 456 0143 0200     		.2byte	0x2
 457 0145 39       		.byte	0x39
 458 0146 9F       		.byte	0x9f
 459 0147 00000000 		.4byte	0x0
 460 014b 00000000 		.4byte	0x0
 461              		.file 3 "c:\\program files (x86)\\codesourcery\\sourcery g++ lite\\bin\\../lib/gcc/arm-none-eabi/4
 462              		.file 4 "c:\\program files (x86)\\codesourcery\\sourcery g++ lite\\bin\\../lib/gcc/arm-none-eabi/4
 463              		.file 5 "../../../ChibiOS/os/ports/GCC/ARMCMx/chtypes.h"
 464              		.file 6 "../../../ChibiOS/os/kernel/include/chstreams.h"
 465              		.file 7 "../../../ChibiOS/os/hal/include/io_channel.h"
 466              		.file 8 "c:\\program files (x86)\\codesourcery\\sourcery g++ lite\\bin\\../lib/gcc/arm-none-eabi/4
 467              		.file 9 "<built-in>"
 468              		.file 10 "../../../ChibiOS/os/ports/common/ARMCMx/CMSIS/include/core_cm4.h"
 469              		.section	.debug_info
 470 0000 8F040000 		.4byte	0x48f
 471 0004 0200     		.2byte	0x2
 472 0006 00000000 		.4byte	.Ldebug_abbrev0
 473 000a 04       		.byte	0x4
 474 000b 01       		.uleb128 0x1
 475 000c 23000000 		.4byte	.LASF40
 476 0010 01       		.byte	0x1
 477 0011 16000000 		.4byte	.LASF41
 478 0015 5F010000 		.4byte	.LASF42
 479 0019 00000000 		.4byte	0x0
 480 001d 00000000 		.4byte	0x0
 481 0021 00000000 		.4byte	.Ldebug_ranges0+0x0
 482 0025 00000000 		.4byte	.Ldebug_line0
 483 0029 02       		.uleb128 0x2
 484 002a 04       		.byte	0x4
 485 002b 05       		.byte	0x5
 486 002c 696E7400 		.ascii	"int\000"
 487 0030 03       		.uleb128 0x3
 488 0031 0F000000 		.4byte	.LASF1
 489 0035 03       		.byte	0x3
 490 0036 D3       		.byte	0xd3
 491 0037 3B000000 		.4byte	0x3b
 492 003b 04       		.uleb128 0x4
 493 003c 04       		.byte	0x4
 494 003d 07       		.byte	0x7
 495 003e FA000000 		.4byte	.LASF0
 496 0042 03       		.uleb128 0x3
 497 0043 56000000 		.4byte	.LASF2
 498 0047 04       		.byte	0x4
 499 0048 29       		.byte	0x29
 500 0049 4D000000 		.4byte	0x4d
 501 004d 04       		.uleb128 0x4
 502 004e 01       		.byte	0x1
 503 004f 06       		.byte	0x6
ARM GAS  C:\Users\DNIEL~1\AppData\Local\Temp\ccuufvxW.s 			page 10


 504 0050 CB010000 		.4byte	.LASF3
 505 0054 03       		.uleb128 0x3
 506 0055 2C010000 		.4byte	.LASF4
 507 0059 04       		.byte	0x4
 508 005a 2A       		.byte	0x2a
 509 005b 5F000000 		.4byte	0x5f
 510 005f 04       		.uleb128 0x4
 511 0060 01       		.byte	0x1
 512 0061 08       		.byte	0x8
 513 0062 93000000 		.4byte	.LASF5
 514 0066 04       		.uleb128 0x4
 515 0067 02       		.byte	0x2
 516 0068 05       		.byte	0x5
 517 0069 97010000 		.4byte	.LASF6
 518 006d 04       		.uleb128 0x4
 519 006e 02       		.byte	0x2
 520 006f 07       		.byte	0x7
 521 0070 A7000000 		.4byte	.LASF7
 522 0074 03       		.uleb128 0x3
 523 0075 3F010000 		.4byte	.LASF8
 524 0079 04       		.byte	0x4
 525 007a 4F       		.byte	0x4f
 526 007b 7F000000 		.4byte	0x7f
 527 007f 04       		.uleb128 0x4
 528 0080 04       		.byte	0x4
 529 0081 05       		.byte	0x5
 530 0082 BD010000 		.4byte	.LASF9
 531 0086 03       		.uleb128 0x3
 532 0087 B4010000 		.4byte	.LASF10
 533 008b 04       		.byte	0x4
 534 008c 50       		.byte	0x50
 535 008d 91000000 		.4byte	0x91
 536 0091 04       		.uleb128 0x4
 537 0092 04       		.byte	0x4
 538 0093 07       		.byte	0x7
 539 0094 D6000000 		.4byte	.LASF11
 540 0098 04       		.uleb128 0x4
 541 0099 08       		.byte	0x8
 542 009a 05       		.byte	0x5
 543 009b 51010000 		.4byte	.LASF12
 544 009f 04       		.uleb128 0x4
 545 00a0 08       		.byte	0x8
 546 00a1 07       		.byte	0x7
 547 00a2 FF010000 		.4byte	.LASF13
 548 00a6 03       		.uleb128 0x3
 549 00a7 3E000000 		.4byte	.LASF14
 550 00ab 05       		.byte	0x5
 551 00ac 2B       		.byte	0x2b
 552 00ad B1000000 		.4byte	0xb1
 553 00b1 04       		.uleb128 0x4
 554 00b2 01       		.byte	0x1
 555 00b3 02       		.byte	0x2
 556 00b4 E1010000 		.4byte	.LASF15
 557 00b8 03       		.uleb128 0x3
 558 00b9 39010000 		.4byte	.LASF16
 559 00bd 05       		.byte	0x5
 560 00be 31       		.byte	0x31
ARM GAS  C:\Users\DNIEL~1\AppData\Local\Temp\ccuufvxW.s 			page 11


 561 00bf 74000000 		.4byte	0x74
 562 00c3 03       		.uleb128 0x3
 563 00c4 2F000000 		.4byte	.LASF17
 564 00c8 05       		.byte	0x5
 565 00c9 35       		.byte	0x35
 566 00ca 86000000 		.4byte	0x86
 567 00ce 05       		.uleb128 0x5
 568 00cf 04       		.byte	0x4
 569 00d0 06       		.uleb128 0x6
 570 00d1 04       		.byte	0x4
 571 00d2 D6000000 		.4byte	0xd6
 572 00d6 07       		.uleb128 0x7
 573 00d7 DB000000 		.4byte	0xdb
 574 00db 04       		.uleb128 0x4
 575 00dc 01       		.byte	0x1
 576 00dd 08       		.byte	0x8
 577 00de 92010000 		.4byte	.LASF18
 578 00e2 06       		.uleb128 0x6
 579 00e3 04       		.byte	0x4
 580 00e4 E8000000 		.4byte	0xe8
 581 00e8 08       		.uleb128 0x8
 582 00e9 01       		.byte	0x1
 583 00ea B8000000 		.4byte	0xb8
 584 00ee F8000000 		.4byte	0xf8
 585 00f2 09       		.uleb128 0x9
 586 00f3 CE000000 		.4byte	0xce
 587 00f7 00       		.byte	0x0
 588 00f8 06       		.uleb128 0x6
 589 00f9 04       		.byte	0x4
 590 00fa 54000000 		.4byte	0x54
 591 00fe 0A       		.uleb128 0xa
 592 00ff E7010000 		.4byte	.LASF22
 593 0103 10       		.byte	0x10
 594 0104 06       		.byte	0x6
 595 0105 48       		.byte	0x48
 596 0106 43010000 		.4byte	0x143
 597 010a 0B       		.uleb128 0xb
 598 010b BA000000 		.4byte	.LASF19
 599 010f 06       		.byte	0x6
 600 0110 49       		.byte	0x49
 601 0111 68010000 		.4byte	0x168
 602 0115 02       		.byte	0x2
 603 0116 23       		.byte	0x23
 604 0117 00       		.uleb128 0x0
 605 0118 0B       		.uleb128 0xb
 606 0119 E8000000 		.4byte	.LASF20
 607 011d 06       		.byte	0x6
 608 011e 49       		.byte	0x49
 609 011f 88010000 		.4byte	0x188
 610 0123 02       		.byte	0x2
 611 0124 23       		.byte	0x23
 612 0125 04       		.uleb128 0x4
 613 0126 0C       		.uleb128 0xc
 614 0127 70757400 		.ascii	"put\000"
 615 012b 06       		.byte	0x6
 616 012c 49       		.byte	0x49
 617 012d A3010000 		.4byte	0x1a3
ARM GAS  C:\Users\DNIEL~1\AppData\Local\Temp\ccuufvxW.s 			page 12


 618 0131 02       		.byte	0x2
 619 0132 23       		.byte	0x23
 620 0133 08       		.uleb128 0x8
 621 0134 0C       		.uleb128 0xc
 622 0135 67657400 		.ascii	"get\000"
 623 0139 06       		.byte	0x6
 624 013a 49       		.byte	0x49
 625 013b E2000000 		.4byte	0xe2
 626 013f 02       		.byte	0x2
 627 0140 23       		.byte	0x23
 628 0141 0C       		.uleb128 0xc
 629 0142 00       		.byte	0x0
 630 0143 08       		.uleb128 0x8
 631 0144 01       		.byte	0x1
 632 0145 30000000 		.4byte	0x30
 633 0149 5D010000 		.4byte	0x15d
 634 014d 09       		.uleb128 0x9
 635 014e CE000000 		.4byte	0xce
 636 0152 09       		.uleb128 0x9
 637 0153 5D010000 		.4byte	0x15d
 638 0157 09       		.uleb128 0x9
 639 0158 30000000 		.4byte	0x30
 640 015c 00       		.byte	0x0
 641 015d 06       		.uleb128 0x6
 642 015e 04       		.byte	0x4
 643 015f 63010000 		.4byte	0x163
 644 0163 07       		.uleb128 0x7
 645 0164 54000000 		.4byte	0x54
 646 0168 06       		.uleb128 0x6
 647 0169 04       		.byte	0x4
 648 016a 43010000 		.4byte	0x143
 649 016e 08       		.uleb128 0x8
 650 016f 01       		.byte	0x1
 651 0170 30000000 		.4byte	0x30
 652 0174 88010000 		.4byte	0x188
 653 0178 09       		.uleb128 0x9
 654 0179 CE000000 		.4byte	0xce
 655 017d 09       		.uleb128 0x9
 656 017e F8000000 		.4byte	0xf8
 657 0182 09       		.uleb128 0x9
 658 0183 30000000 		.4byte	0x30
 659 0187 00       		.byte	0x0
 660 0188 06       		.uleb128 0x6
 661 0189 04       		.byte	0x4
 662 018a 6E010000 		.4byte	0x16e
 663 018e 08       		.uleb128 0x8
 664 018f 01       		.byte	0x1
 665 0190 B8000000 		.4byte	0xb8
 666 0194 A3010000 		.4byte	0x1a3
 667 0198 09       		.uleb128 0x9
 668 0199 CE000000 		.4byte	0xce
 669 019d 09       		.uleb128 0x9
 670 019e 54000000 		.4byte	0x54
 671 01a2 00       		.byte	0x0
 672 01a3 06       		.uleb128 0x6
 673 01a4 04       		.byte	0x4
 674 01a5 8E010000 		.4byte	0x18e
ARM GAS  C:\Users\DNIEL~1\AppData\Local\Temp\ccuufvxW.s 			page 13


 675 01a9 0D       		.uleb128 0xd
 676 01aa 04       		.byte	0x4
 677 01ab 06       		.byte	0x6
 678 01ac 51       		.byte	0x51
 679 01ad C0010000 		.4byte	0x1c0
 680 01b1 0C       		.uleb128 0xc
 681 01b2 766D7400 		.ascii	"vmt\000"
 682 01b6 06       		.byte	0x6
 683 01b7 53       		.byte	0x53
 684 01b8 C0010000 		.4byte	0x1c0
 685 01bc 02       		.byte	0x2
 686 01bd 23       		.byte	0x23
 687 01be 00       		.uleb128 0x0
 688 01bf 00       		.byte	0x0
 689 01c0 06       		.uleb128 0x6
 690 01c1 04       		.byte	0x4
 691 01c2 C6010000 		.4byte	0x1c6
 692 01c6 07       		.uleb128 0x7
 693 01c7 FE000000 		.4byte	0xfe
 694 01cb 03       		.uleb128 0x3
 695 01cc 7E000000 		.4byte	.LASF21
 696 01d0 06       		.byte	0x6
 697 01d1 55       		.byte	0x55
 698 01d2 A9010000 		.4byte	0x1a9
 699 01d6 0E       		.uleb128 0xe
 700 01d7 74000000 		.4byte	0x74
 701 01db 0A       		.uleb128 0xa
 702 01dc 00000000 		.4byte	.LASF23
 703 01e0 20       		.byte	0x20
 704 01e1 07       		.byte	0x7
 705 01e2 4E       		.byte	0x4e
 706 01e3 58020000 		.4byte	0x258
 707 01e7 0B       		.uleb128 0xb
 708 01e8 BA000000 		.4byte	.LASF19
 709 01ec 07       		.byte	0x7
 710 01ed 4F       		.byte	0x4f
 711 01ee 68010000 		.4byte	0x168
 712 01f2 02       		.byte	0x2
 713 01f3 23       		.byte	0x23
 714 01f4 00       		.uleb128 0x0
 715 01f5 0B       		.uleb128 0xb
 716 01f6 E8000000 		.4byte	.LASF20
 717 01fa 07       		.byte	0x7
 718 01fb 4F       		.byte	0x4f
 719 01fc 88010000 		.4byte	0x188
 720 0200 02       		.byte	0x2
 721 0201 23       		.byte	0x23
 722 0202 04       		.uleb128 0x4
 723 0203 0C       		.uleb128 0xc
 724 0204 70757400 		.ascii	"put\000"
 725 0208 07       		.byte	0x7
 726 0209 4F       		.byte	0x4f
 727 020a A3010000 		.4byte	0x1a3
 728 020e 02       		.byte	0x2
 729 020f 23       		.byte	0x23
 730 0210 08       		.uleb128 0x8
 731 0211 0C       		.uleb128 0xc
ARM GAS  C:\Users\DNIEL~1\AppData\Local\Temp\ccuufvxW.s 			page 14


 732 0212 67657400 		.ascii	"get\000"
 733 0216 07       		.byte	0x7
 734 0217 4F       		.byte	0x4f
 735 0218 E2000000 		.4byte	0xe2
 736 021c 02       		.byte	0x2
 737 021d 23       		.byte	0x23
 738 021e 0C       		.uleb128 0xc
 739 021f 0B       		.uleb128 0xb
 740 0220 C6010000 		.4byte	.LASF24
 741 0224 07       		.byte	0x7
 742 0225 4F       		.byte	0x4f
 743 0226 72020000 		.4byte	0x272
 744 022a 02       		.byte	0x2
 745 022b 23       		.byte	0x23
 746 022c 10       		.uleb128 0x10
 747 022d 0B       		.uleb128 0xb
 748 022e D1000000 		.4byte	.LASF25
 749 0232 07       		.byte	0x7
 750 0233 4F       		.byte	0x4f
 751 0234 8D020000 		.4byte	0x28d
 752 0238 02       		.byte	0x2
 753 0239 23       		.byte	0x23
 754 023a 14       		.uleb128 0x14
 755 023b 0B       		.uleb128 0xb
 756 023c 68000000 		.4byte	.LASF26
 757 0240 07       		.byte	0x7
 758 0241 4F       		.byte	0x4f
 759 0242 B2020000 		.4byte	0x2b2
 760 0246 02       		.byte	0x2
 761 0247 23       		.byte	0x23
 762 0248 18       		.uleb128 0x18
 763 0249 0B       		.uleb128 0xb
 764 024a A1000000 		.4byte	.LASF27
 765 024e 07       		.byte	0x7
 766 024f 4F       		.byte	0x4f
 767 0250 D7020000 		.4byte	0x2d7
 768 0254 02       		.byte	0x2
 769 0255 23       		.byte	0x23
 770 0256 1C       		.uleb128 0x1c
 771 0257 00       		.byte	0x0
 772 0258 08       		.uleb128 0x8
 773 0259 01       		.byte	0x1
 774 025a B8000000 		.4byte	0xb8
 775 025e 72020000 		.4byte	0x272
 776 0262 09       		.uleb128 0x9
 777 0263 CE000000 		.4byte	0xce
 778 0267 09       		.uleb128 0x9
 779 0268 54000000 		.4byte	0x54
 780 026c 09       		.uleb128 0x9
 781 026d C3000000 		.4byte	0xc3
 782 0271 00       		.byte	0x0
 783 0272 06       		.uleb128 0x6
 784 0273 04       		.byte	0x4
 785 0274 58020000 		.4byte	0x258
 786 0278 08       		.uleb128 0x8
 787 0279 01       		.byte	0x1
 788 027a B8000000 		.4byte	0xb8
ARM GAS  C:\Users\DNIEL~1\AppData\Local\Temp\ccuufvxW.s 			page 15


 789 027e 8D020000 		.4byte	0x28d
 790 0282 09       		.uleb128 0x9
 791 0283 CE000000 		.4byte	0xce
 792 0287 09       		.uleb128 0x9
 793 0288 C3000000 		.4byte	0xc3
 794 028c 00       		.byte	0x0
 795 028d 06       		.uleb128 0x6
 796 028e 04       		.byte	0x4
 797 028f 78020000 		.4byte	0x278
 798 0293 08       		.uleb128 0x8
 799 0294 01       		.byte	0x1
 800 0295 30000000 		.4byte	0x30
 801 0299 B2020000 		.4byte	0x2b2
 802 029d 09       		.uleb128 0x9
 803 029e CE000000 		.4byte	0xce
 804 02a2 09       		.uleb128 0x9
 805 02a3 5D010000 		.4byte	0x15d
 806 02a7 09       		.uleb128 0x9
 807 02a8 30000000 		.4byte	0x30
 808 02ac 09       		.uleb128 0x9
 809 02ad C3000000 		.4byte	0xc3
 810 02b1 00       		.byte	0x0
 811 02b2 06       		.uleb128 0x6
 812 02b3 04       		.byte	0x4
 813 02b4 93020000 		.4byte	0x293
 814 02b8 08       		.uleb128 0x8
 815 02b9 01       		.byte	0x1
 816 02ba 30000000 		.4byte	0x30
 817 02be D7020000 		.4byte	0x2d7
 818 02c2 09       		.uleb128 0x9
 819 02c3 CE000000 		.4byte	0xce
 820 02c7 09       		.uleb128 0x9
 821 02c8 F8000000 		.4byte	0xf8
 822 02cc 09       		.uleb128 0x9
 823 02cd 30000000 		.4byte	0x30
 824 02d1 09       		.uleb128 0x9
 825 02d2 C3000000 		.4byte	0xc3
 826 02d6 00       		.byte	0x0
 827 02d7 06       		.uleb128 0x6
 828 02d8 04       		.byte	0x4
 829 02d9 B8020000 		.4byte	0x2b8
 830 02dd 0D       		.uleb128 0xd
 831 02de 04       		.byte	0x4
 832 02df 07       		.byte	0x7
 833 02e0 59       		.byte	0x59
 834 02e1 F4020000 		.4byte	0x2f4
 835 02e5 0C       		.uleb128 0xc
 836 02e6 766D7400 		.ascii	"vmt\000"
 837 02ea 07       		.byte	0x7
 838 02eb 5B       		.byte	0x5b
 839 02ec F4020000 		.4byte	0x2f4
 840 02f0 02       		.byte	0x2
 841 02f1 23       		.byte	0x23
 842 02f2 00       		.uleb128 0x0
 843 02f3 00       		.byte	0x0
 844 02f4 06       		.uleb128 0x6
 845 02f5 04       		.byte	0x4
ARM GAS  C:\Users\DNIEL~1\AppData\Local\Temp\ccuufvxW.s 			page 16


 846 02f6 FA020000 		.4byte	0x2fa
 847 02fa 07       		.uleb128 0x7
 848 02fb DB010000 		.4byte	0x1db
 849 02ff 03       		.uleb128 0x3
 850 0300 16020000 		.4byte	.LASF28
 851 0304 07       		.byte	0x7
 852 0305 5D       		.byte	0x5d
 853 0306 DD020000 		.4byte	0x2dd
 854 030a 03       		.uleb128 0x3
 855 030b 6F000000 		.4byte	.LASF29
 856 030f 08       		.byte	0x8
 857 0310 28       		.byte	0x28
 858 0311 15030000 		.4byte	0x315
 859 0315 0A       		.uleb128 0xa
 860 0316 47010000 		.4byte	.LASF30
 861 031a 04       		.byte	0x4
 862 031b 09       		.byte	0x9
 863 031c 00       		.byte	0x0
 864 031d 2F030000 		.4byte	0x32f
 865 0321 0F       		.uleb128 0xf
 866 0322 34010000 		.4byte	.LASF43
 867 0326 CE000000 		.4byte	0xce
 868 032a 02       		.byte	0x2
 869 032b 23       		.byte	0x23
 870 032c 00       		.uleb128 0x0
 871 032d 01       		.byte	0x1
 872 032e 00       		.byte	0x0
 873 032f 03       		.uleb128 0x3
 874 0330 C0000000 		.4byte	.LASF31
 875 0334 08       		.byte	0x8
 876 0335 66       		.byte	0x66
 877 0336 0A030000 		.4byte	0x30a
 878 033a 10       		.uleb128 0x10
 879 033b C8000000 		.4byte	.LASF44
 880 033f 01       		.byte	0x1
 881 0340 45       		.byte	0x45
 882 0341 01       		.byte	0x1
 883 0342 00000000 		.4byte	.LFB118
 884 0346 1E000000 		.4byte	.LFE118
 885 034a 00000000 		.4byte	.LLST0
 886 034e 7E030000 		.4byte	0x37e
 887 0352 11       		.uleb128 0x11
 888 0353 63687000 		.ascii	"chp\000"
 889 0357 01       		.byte	0x1
 890 0358 45       		.byte	0x45
 891 0359 7E030000 		.4byte	0x37e
 892 035d 38000000 		.4byte	.LLST1
 893 0361 12       		.uleb128 0x12
 894 0362 666D7400 		.ascii	"fmt\000"
 895 0366 01       		.byte	0x1
 896 0367 45       		.byte	0x45
 897 0368 D0000000 		.4byte	0xd0
 898 036c 02       		.byte	0x2
 899 036d 91       		.byte	0x91
 900 036e 74       		.sleb128 -12
 901 036f 13       		.uleb128 0x13
 902 0370 14       		.uleb128 0x14
ARM GAS  C:\Users\DNIEL~1\AppData\Local\Temp\ccuufvxW.s 			page 17


 903 0371 617000   		.ascii	"ap\000"
 904 0374 01       		.byte	0x1
 905 0375 46       		.byte	0x46
 906 0376 2F030000 		.4byte	0x32f
 907 037a 02       		.byte	0x2
 908 037b 91       		.byte	0x91
 909 037c 6C       		.sleb128 -20
 910 037d 00       		.byte	0x0
 911 037e 06       		.uleb128 0x6
 912 037f 04       		.byte	0x4
 913 0380 CB010000 		.4byte	0x1cb
 914 0384 15       		.uleb128 0x15
 915 0385 01       		.byte	0x1
 916 0386 5D000000 		.4byte	.LASF45
 917 038a 02       		.byte	0x2
 918 038b 0D       		.byte	0xd
 919 038c 01       		.byte	0x1
 920 038d 00000000 		.4byte	.LFB119
 921 0391 0C000000 		.4byte	.LFE119
 922 0395 02       		.byte	0x2
 923 0396 7D       		.byte	0x7d
 924 0397 00       		.sleb128 0
 925 0398 16       		.uleb128 0x16
 926 0399 01       		.byte	0x1
 927 039a 07010000 		.4byte	.LASF34
 928 039e 02       		.byte	0x2
 929 039f 11       		.byte	0x11
 930 03a0 01       		.byte	0x1
 931 03a1 00000000 		.4byte	.LFB120
 932 03a5 40000000 		.4byte	.LFE120
 933 03a9 4B000000 		.4byte	.LLST2
 934 03ad 05040000 		.4byte	0x405
 935 03b1 17       		.uleb128 0x17
 936 03b2 22000000 		.4byte	.LBB2
 937 03b6 40000000 		.4byte	.LBE2
 938 03ba 18       		.uleb128 0x18
 939 03bb 01       		.byte	0x1
 940 03bc 1F010000 		.4byte	.LASF46
 941 03c0 02       		.byte	0x2
 942 03c1 13       		.byte	0x13
 943 03c2 29000000 		.4byte	0x29
 944 03c6 01       		.byte	0x1
 945 03c7 CD030000 		.4byte	0x3cd
 946 03cb 13       		.uleb128 0x13
 947 03cc 00       		.byte	0x0
 948 03cd 19       		.uleb128 0x19
 949 03ce 2A000000 		.4byte	.LBB3
 950 03d2 32000000 		.4byte	.LBE3
 951 03d6 EA030000 		.4byte	0x3ea
 952 03da 1A       		.uleb128 0x1a
 953 03db 01       		.byte	0x1
 954 03dc A1010000 		.4byte	.LASF32
 955 03e0 02       		.byte	0x2
 956 03e1 15       		.byte	0x15
 957 03e2 29000000 		.4byte	0x29
 958 03e6 01       		.byte	0x1
 959 03e7 13       		.uleb128 0x13
ARM GAS  C:\Users\DNIEL~1\AppData\Local\Temp\ccuufvxW.s 			page 18


 960 03e8 00       		.byte	0x0
 961 03e9 00       		.byte	0x0
 962 03ea 17       		.uleb128 0x17
 963 03eb 32000000 		.4byte	.LBB4
 964 03ef 40000000 		.4byte	.LBE4
 965 03f3 1A       		.uleb128 0x1a
 966 03f4 01       		.byte	0x1
 967 03f5 12010000 		.4byte	.LASF33
 968 03f9 02       		.byte	0x2
 969 03fa 1A       		.byte	0x1a
 970 03fb 29000000 		.4byte	0x29
 971 03ff 01       		.byte	0x1
 972 0400 13       		.uleb128 0x13
 973 0401 00       		.byte	0x0
 974 0402 00       		.byte	0x0
 975 0403 00       		.byte	0x0
 976 0404 00       		.byte	0x0
 977 0405 16       		.uleb128 0x16
 978 0406 01       		.byte	0x1
 979 0407 45000000 		.4byte	.LASF35
 980 040b 02       		.byte	0x2
 981 040c 25       		.byte	0x25
 982 040d 01       		.byte	0x1
 983 040e 00000000 		.4byte	.LFB121
 984 0412 E0000000 		.4byte	.LFE121
 985 0416 6B000000 		.4byte	.LLST3
 986 041a 59040000 		.4byte	0x459
 987 041e 11       		.uleb128 0x11
 988 041f 63687000 		.ascii	"chp\000"
 989 0423 02       		.byte	0x2
 990 0424 25       		.byte	0x25
 991 0425 7E030000 		.4byte	0x37e
 992 0429 8B000000 		.4byte	.LLST4
 993 042d 1B       		.uleb128 0x1b
 994 042e AF010000 		.4byte	.LASF36
 995 0432 02       		.byte	0x2
 996 0433 25       		.byte	0x25
 997 0434 29000000 		.4byte	0x29
 998 0438 A9000000 		.4byte	.LLST5
 999 043c 1B       		.uleb128 0x1b
 1000 043d 39000000 		.4byte	.LASF37
 1001 0441 02       		.byte	0x2
 1002 0442 25       		.byte	0x25
 1003 0443 59040000 		.4byte	0x459
 1004 0447 BC000000 		.4byte	.LLST6
 1005 044b 1C       		.uleb128 0x1c
 1006 044c 6900     		.ascii	"i\000"
 1007 044e 02       		.byte	0x2
 1008 044f 29       		.byte	0x29
 1009 0450 42000000 		.4byte	0x42
 1010 0454 CF000000 		.4byte	.LLST7
 1011 0458 00       		.byte	0x0
 1012 0459 06       		.uleb128 0x6
 1013 045a 04       		.byte	0x4
 1014 045b 5F040000 		.4byte	0x45f
 1015 045f 06       		.uleb128 0x6
 1016 0460 04       		.byte	0x4
ARM GAS  C:\Users\DNIEL~1\AppData\Local\Temp\ccuufvxW.s 			page 19


 1017 0461 DB000000 		.4byte	0xdb
 1018 0465 1D       		.uleb128 0x1d
 1019 0466 ED000000 		.4byte	.LASF39
 1020 046a 0A       		.byte	0xa
 1021 046b 9806     		.2byte	0x698
 1022 046d D6010000 		.4byte	0x1d6
 1023 0471 01       		.byte	0x1
 1024 0472 01       		.byte	0x1
 1025 0473 1E       		.uleb128 0x1e
 1026 0474 D7010000 		.4byte	.LASF38
 1027 0478 02       		.byte	0x2
 1028 0479 0B       		.byte	0xb
 1029 047a A6000000 		.4byte	0xa6
 1030 047e 05       		.byte	0x5
 1031 047f 03       		.byte	0x3
 1032 0480 00000000 		.4byte	cruise_ok
 1033 0484 1D       		.uleb128 0x1d
 1034 0485 ED000000 		.4byte	.LASF39
 1035 0489 0A       		.byte	0xa
 1036 048a 9806     		.2byte	0x698
 1037 048c D6010000 		.4byte	0x1d6
 1038 0490 01       		.byte	0x1
 1039 0491 01       		.byte	0x1
 1040 0492 00       		.byte	0x0
 1041              		.section	.debug_abbrev
 1042 0000 01       		.uleb128 0x1
 1043 0001 11       		.uleb128 0x11
 1044 0002 01       		.byte	0x1
 1045 0003 25       		.uleb128 0x25
 1046 0004 0E       		.uleb128 0xe
 1047 0005 13       		.uleb128 0x13
 1048 0006 0B       		.uleb128 0xb
 1049 0007 03       		.uleb128 0x3
 1050 0008 0E       		.uleb128 0xe
 1051 0009 1B       		.uleb128 0x1b
 1052 000a 0E       		.uleb128 0xe
 1053 000b 11       		.uleb128 0x11
 1054 000c 01       		.uleb128 0x1
 1055 000d 52       		.uleb128 0x52
 1056 000e 01       		.uleb128 0x1
 1057 000f 55       		.uleb128 0x55
 1058 0010 06       		.uleb128 0x6
 1059 0011 10       		.uleb128 0x10
 1060 0012 06       		.uleb128 0x6
 1061 0013 00       		.byte	0x0
 1062 0014 00       		.byte	0x0
 1063 0015 02       		.uleb128 0x2
 1064 0016 24       		.uleb128 0x24
 1065 0017 00       		.byte	0x0
 1066 0018 0B       		.uleb128 0xb
 1067 0019 0B       		.uleb128 0xb
 1068 001a 3E       		.uleb128 0x3e
 1069 001b 0B       		.uleb128 0xb
 1070 001c 03       		.uleb128 0x3
 1071 001d 08       		.uleb128 0x8
 1072 001e 00       		.byte	0x0
 1073 001f 00       		.byte	0x0
ARM GAS  C:\Users\DNIEL~1\AppData\Local\Temp\ccuufvxW.s 			page 20


 1074 0020 03       		.uleb128 0x3
 1075 0021 16       		.uleb128 0x16
 1076 0022 00       		.byte	0x0
 1077 0023 03       		.uleb128 0x3
 1078 0024 0E       		.uleb128 0xe
 1079 0025 3A       		.uleb128 0x3a
 1080 0026 0B       		.uleb128 0xb
 1081 0027 3B       		.uleb128 0x3b
 1082 0028 0B       		.uleb128 0xb
 1083 0029 49       		.uleb128 0x49
 1084 002a 13       		.uleb128 0x13
 1085 002b 00       		.byte	0x0
 1086 002c 00       		.byte	0x0
 1087 002d 04       		.uleb128 0x4
 1088 002e 24       		.uleb128 0x24
 1089 002f 00       		.byte	0x0
 1090 0030 0B       		.uleb128 0xb
 1091 0031 0B       		.uleb128 0xb
 1092 0032 3E       		.uleb128 0x3e
 1093 0033 0B       		.uleb128 0xb
 1094 0034 03       		.uleb128 0x3
 1095 0035 0E       		.uleb128 0xe
 1096 0036 00       		.byte	0x0
 1097 0037 00       		.byte	0x0
 1098 0038 05       		.uleb128 0x5
 1099 0039 0F       		.uleb128 0xf
 1100 003a 00       		.byte	0x0
 1101 003b 0B       		.uleb128 0xb
 1102 003c 0B       		.uleb128 0xb
 1103 003d 00       		.byte	0x0
 1104 003e 00       		.byte	0x0
 1105 003f 06       		.uleb128 0x6
 1106 0040 0F       		.uleb128 0xf
 1107 0041 00       		.byte	0x0
 1108 0042 0B       		.uleb128 0xb
 1109 0043 0B       		.uleb128 0xb
 1110 0044 49       		.uleb128 0x49
 1111 0045 13       		.uleb128 0x13
 1112 0046 00       		.byte	0x0
 1113 0047 00       		.byte	0x0
 1114 0048 07       		.uleb128 0x7
 1115 0049 26       		.uleb128 0x26
 1116 004a 00       		.byte	0x0
 1117 004b 49       		.uleb128 0x49
 1118 004c 13       		.uleb128 0x13
 1119 004d 00       		.byte	0x0
 1120 004e 00       		.byte	0x0
 1121 004f 08       		.uleb128 0x8
 1122 0050 15       		.uleb128 0x15
 1123 0051 01       		.byte	0x1
 1124 0052 27       		.uleb128 0x27
 1125 0053 0C       		.uleb128 0xc
 1126 0054 49       		.uleb128 0x49
 1127 0055 13       		.uleb128 0x13
 1128 0056 01       		.uleb128 0x1
 1129 0057 13       		.uleb128 0x13
 1130 0058 00       		.byte	0x0
ARM GAS  C:\Users\DNIEL~1\AppData\Local\Temp\ccuufvxW.s 			page 21


 1131 0059 00       		.byte	0x0
 1132 005a 09       		.uleb128 0x9
 1133 005b 05       		.uleb128 0x5
 1134 005c 00       		.byte	0x0
 1135 005d 49       		.uleb128 0x49
 1136 005e 13       		.uleb128 0x13
 1137 005f 00       		.byte	0x0
 1138 0060 00       		.byte	0x0
 1139 0061 0A       		.uleb128 0xa
 1140 0062 13       		.uleb128 0x13
 1141 0063 01       		.byte	0x1
 1142 0064 03       		.uleb128 0x3
 1143 0065 0E       		.uleb128 0xe
 1144 0066 0B       		.uleb128 0xb
 1145 0067 0B       		.uleb128 0xb
 1146 0068 3A       		.uleb128 0x3a
 1147 0069 0B       		.uleb128 0xb
 1148 006a 3B       		.uleb128 0x3b
 1149 006b 0B       		.uleb128 0xb
 1150 006c 01       		.uleb128 0x1
 1151 006d 13       		.uleb128 0x13
 1152 006e 00       		.byte	0x0
 1153 006f 00       		.byte	0x0
 1154 0070 0B       		.uleb128 0xb
 1155 0071 0D       		.uleb128 0xd
 1156 0072 00       		.byte	0x0
 1157 0073 03       		.uleb128 0x3
 1158 0074 0E       		.uleb128 0xe
 1159 0075 3A       		.uleb128 0x3a
 1160 0076 0B       		.uleb128 0xb
 1161 0077 3B       		.uleb128 0x3b
 1162 0078 0B       		.uleb128 0xb
 1163 0079 49       		.uleb128 0x49
 1164 007a 13       		.uleb128 0x13
 1165 007b 38       		.uleb128 0x38
 1166 007c 0A       		.uleb128 0xa
 1167 007d 00       		.byte	0x0
 1168 007e 00       		.byte	0x0
 1169 007f 0C       		.uleb128 0xc
 1170 0080 0D       		.uleb128 0xd
 1171 0081 00       		.byte	0x0
 1172 0082 03       		.uleb128 0x3
 1173 0083 08       		.uleb128 0x8
 1174 0084 3A       		.uleb128 0x3a
 1175 0085 0B       		.uleb128 0xb
 1176 0086 3B       		.uleb128 0x3b
 1177 0087 0B       		.uleb128 0xb
 1178 0088 49       		.uleb128 0x49
 1179 0089 13       		.uleb128 0x13
 1180 008a 38       		.uleb128 0x38
 1181 008b 0A       		.uleb128 0xa
 1182 008c 00       		.byte	0x0
 1183 008d 00       		.byte	0x0
 1184 008e 0D       		.uleb128 0xd
 1185 008f 13       		.uleb128 0x13
 1186 0090 01       		.byte	0x1
 1187 0091 0B       		.uleb128 0xb
ARM GAS  C:\Users\DNIEL~1\AppData\Local\Temp\ccuufvxW.s 			page 22


 1188 0092 0B       		.uleb128 0xb
 1189 0093 3A       		.uleb128 0x3a
 1190 0094 0B       		.uleb128 0xb
 1191 0095 3B       		.uleb128 0x3b
 1192 0096 0B       		.uleb128 0xb
 1193 0097 01       		.uleb128 0x1
 1194 0098 13       		.uleb128 0x13
 1195 0099 00       		.byte	0x0
 1196 009a 00       		.byte	0x0
 1197 009b 0E       		.uleb128 0xe
 1198 009c 35       		.uleb128 0x35
 1199 009d 00       		.byte	0x0
 1200 009e 49       		.uleb128 0x49
 1201 009f 13       		.uleb128 0x13
 1202 00a0 00       		.byte	0x0
 1203 00a1 00       		.byte	0x0
 1204 00a2 0F       		.uleb128 0xf
 1205 00a3 0D       		.uleb128 0xd
 1206 00a4 00       		.byte	0x0
 1207 00a5 03       		.uleb128 0x3
 1208 00a6 0E       		.uleb128 0xe
 1209 00a7 49       		.uleb128 0x49
 1210 00a8 13       		.uleb128 0x13
 1211 00a9 38       		.uleb128 0x38
 1212 00aa 0A       		.uleb128 0xa
 1213 00ab 34       		.uleb128 0x34
 1214 00ac 0C       		.uleb128 0xc
 1215 00ad 00       		.byte	0x0
 1216 00ae 00       		.byte	0x0
 1217 00af 10       		.uleb128 0x10
 1218 00b0 2E       		.uleb128 0x2e
 1219 00b1 01       		.byte	0x1
 1220 00b2 03       		.uleb128 0x3
 1221 00b3 0E       		.uleb128 0xe
 1222 00b4 3A       		.uleb128 0x3a
 1223 00b5 0B       		.uleb128 0xb
 1224 00b6 3B       		.uleb128 0x3b
 1225 00b7 0B       		.uleb128 0xb
 1226 00b8 27       		.uleb128 0x27
 1227 00b9 0C       		.uleb128 0xc
 1228 00ba 11       		.uleb128 0x11
 1229 00bb 01       		.uleb128 0x1
 1230 00bc 12       		.uleb128 0x12
 1231 00bd 01       		.uleb128 0x1
 1232 00be 40       		.uleb128 0x40
 1233 00bf 06       		.uleb128 0x6
 1234 00c0 01       		.uleb128 0x1
 1235 00c1 13       		.uleb128 0x13
 1236 00c2 00       		.byte	0x0
 1237 00c3 00       		.byte	0x0
 1238 00c4 11       		.uleb128 0x11
 1239 00c5 05       		.uleb128 0x5
 1240 00c6 00       		.byte	0x0
 1241 00c7 03       		.uleb128 0x3
 1242 00c8 08       		.uleb128 0x8
 1243 00c9 3A       		.uleb128 0x3a
 1244 00ca 0B       		.uleb128 0xb
ARM GAS  C:\Users\DNIEL~1\AppData\Local\Temp\ccuufvxW.s 			page 23


 1245 00cb 3B       		.uleb128 0x3b
 1246 00cc 0B       		.uleb128 0xb
 1247 00cd 49       		.uleb128 0x49
 1248 00ce 13       		.uleb128 0x13
 1249 00cf 02       		.uleb128 0x2
 1250 00d0 06       		.uleb128 0x6
 1251 00d1 00       		.byte	0x0
 1252 00d2 00       		.byte	0x0
 1253 00d3 12       		.uleb128 0x12
 1254 00d4 05       		.uleb128 0x5
 1255 00d5 00       		.byte	0x0
 1256 00d6 03       		.uleb128 0x3
 1257 00d7 08       		.uleb128 0x8
 1258 00d8 3A       		.uleb128 0x3a
 1259 00d9 0B       		.uleb128 0xb
 1260 00da 3B       		.uleb128 0x3b
 1261 00db 0B       		.uleb128 0xb
 1262 00dc 49       		.uleb128 0x49
 1263 00dd 13       		.uleb128 0x13
 1264 00de 02       		.uleb128 0x2
 1265 00df 0A       		.uleb128 0xa
 1266 00e0 00       		.byte	0x0
 1267 00e1 00       		.byte	0x0
 1268 00e2 13       		.uleb128 0x13
 1269 00e3 18       		.uleb128 0x18
 1270 00e4 00       		.byte	0x0
 1271 00e5 00       		.byte	0x0
 1272 00e6 00       		.byte	0x0
 1273 00e7 14       		.uleb128 0x14
 1274 00e8 34       		.uleb128 0x34
 1275 00e9 00       		.byte	0x0
 1276 00ea 03       		.uleb128 0x3
 1277 00eb 08       		.uleb128 0x8
 1278 00ec 3A       		.uleb128 0x3a
 1279 00ed 0B       		.uleb128 0xb
 1280 00ee 3B       		.uleb128 0x3b
 1281 00ef 0B       		.uleb128 0xb
 1282 00f0 49       		.uleb128 0x49
 1283 00f1 13       		.uleb128 0x13
 1284 00f2 02       		.uleb128 0x2
 1285 00f3 0A       		.uleb128 0xa
 1286 00f4 00       		.byte	0x0
 1287 00f5 00       		.byte	0x0
 1288 00f6 15       		.uleb128 0x15
 1289 00f7 2E       		.uleb128 0x2e
 1290 00f8 00       		.byte	0x0
 1291 00f9 3F       		.uleb128 0x3f
 1292 00fa 0C       		.uleb128 0xc
 1293 00fb 03       		.uleb128 0x3
 1294 00fc 0E       		.uleb128 0xe
 1295 00fd 3A       		.uleb128 0x3a
 1296 00fe 0B       		.uleb128 0xb
 1297 00ff 3B       		.uleb128 0x3b
 1298 0100 0B       		.uleb128 0xb
 1299 0101 27       		.uleb128 0x27
 1300 0102 0C       		.uleb128 0xc
 1301 0103 11       		.uleb128 0x11
ARM GAS  C:\Users\DNIEL~1\AppData\Local\Temp\ccuufvxW.s 			page 24


 1302 0104 01       		.uleb128 0x1
 1303 0105 12       		.uleb128 0x12
 1304 0106 01       		.uleb128 0x1
 1305 0107 40       		.uleb128 0x40
 1306 0108 0A       		.uleb128 0xa
 1307 0109 00       		.byte	0x0
 1308 010a 00       		.byte	0x0
 1309 010b 16       		.uleb128 0x16
 1310 010c 2E       		.uleb128 0x2e
 1311 010d 01       		.byte	0x1
 1312 010e 3F       		.uleb128 0x3f
 1313 010f 0C       		.uleb128 0xc
 1314 0110 03       		.uleb128 0x3
 1315 0111 0E       		.uleb128 0xe
 1316 0112 3A       		.uleb128 0x3a
 1317 0113 0B       		.uleb128 0xb
 1318 0114 3B       		.uleb128 0x3b
 1319 0115 0B       		.uleb128 0xb
 1320 0116 27       		.uleb128 0x27
 1321 0117 0C       		.uleb128 0xc
 1322 0118 11       		.uleb128 0x11
 1323 0119 01       		.uleb128 0x1
 1324 011a 12       		.uleb128 0x12
 1325 011b 01       		.uleb128 0x1
 1326 011c 40       		.uleb128 0x40
 1327 011d 06       		.uleb128 0x6
 1328 011e 01       		.uleb128 0x1
 1329 011f 13       		.uleb128 0x13
 1330 0120 00       		.byte	0x0
 1331 0121 00       		.byte	0x0
 1332 0122 17       		.uleb128 0x17
 1333 0123 0B       		.uleb128 0xb
 1334 0124 01       		.byte	0x1
 1335 0125 11       		.uleb128 0x11
 1336 0126 01       		.uleb128 0x1
 1337 0127 12       		.uleb128 0x12
 1338 0128 01       		.uleb128 0x1
 1339 0129 00       		.byte	0x0
 1340 012a 00       		.byte	0x0
 1341 012b 18       		.uleb128 0x18
 1342 012c 2E       		.uleb128 0x2e
 1343 012d 01       		.byte	0x1
 1344 012e 3F       		.uleb128 0x3f
 1345 012f 0C       		.uleb128 0xc
 1346 0130 03       		.uleb128 0x3
 1347 0131 0E       		.uleb128 0xe
 1348 0132 3A       		.uleb128 0x3a
 1349 0133 0B       		.uleb128 0xb
 1350 0134 3B       		.uleb128 0x3b
 1351 0135 0B       		.uleb128 0xb
 1352 0136 49       		.uleb128 0x49
 1353 0137 13       		.uleb128 0x13
 1354 0138 3C       		.uleb128 0x3c
 1355 0139 0C       		.uleb128 0xc
 1356 013a 01       		.uleb128 0x1
 1357 013b 13       		.uleb128 0x13
 1358 013c 00       		.byte	0x0
ARM GAS  C:\Users\DNIEL~1\AppData\Local\Temp\ccuufvxW.s 			page 25


 1359 013d 00       		.byte	0x0
 1360 013e 19       		.uleb128 0x19
 1361 013f 0B       		.uleb128 0xb
 1362 0140 01       		.byte	0x1
 1363 0141 11       		.uleb128 0x11
 1364 0142 01       		.uleb128 0x1
 1365 0143 12       		.uleb128 0x12
 1366 0144 01       		.uleb128 0x1
 1367 0145 01       		.uleb128 0x1
 1368 0146 13       		.uleb128 0x13
 1369 0147 00       		.byte	0x0
 1370 0148 00       		.byte	0x0
 1371 0149 1A       		.uleb128 0x1a
 1372 014a 2E       		.uleb128 0x2e
 1373 014b 01       		.byte	0x1
 1374 014c 3F       		.uleb128 0x3f
 1375 014d 0C       		.uleb128 0xc
 1376 014e 03       		.uleb128 0x3
 1377 014f 0E       		.uleb128 0xe
 1378 0150 3A       		.uleb128 0x3a
 1379 0151 0B       		.uleb128 0xb
 1380 0152 3B       		.uleb128 0x3b
 1381 0153 0B       		.uleb128 0xb
 1382 0154 49       		.uleb128 0x49
 1383 0155 13       		.uleb128 0x13
 1384 0156 3C       		.uleb128 0x3c
 1385 0157 0C       		.uleb128 0xc
 1386 0158 00       		.byte	0x0
 1387 0159 00       		.byte	0x0
 1388 015a 1B       		.uleb128 0x1b
 1389 015b 05       		.uleb128 0x5
 1390 015c 00       		.byte	0x0
 1391 015d 03       		.uleb128 0x3
 1392 015e 0E       		.uleb128 0xe
 1393 015f 3A       		.uleb128 0x3a
 1394 0160 0B       		.uleb128 0xb
 1395 0161 3B       		.uleb128 0x3b
 1396 0162 0B       		.uleb128 0xb
 1397 0163 49       		.uleb128 0x49
 1398 0164 13       		.uleb128 0x13
 1399 0165 02       		.uleb128 0x2
 1400 0166 06       		.uleb128 0x6
 1401 0167 00       		.byte	0x0
 1402 0168 00       		.byte	0x0
 1403 0169 1C       		.uleb128 0x1c
 1404 016a 34       		.uleb128 0x34
 1405 016b 00       		.byte	0x0
 1406 016c 03       		.uleb128 0x3
 1407 016d 08       		.uleb128 0x8
 1408 016e 3A       		.uleb128 0x3a
 1409 016f 0B       		.uleb128 0xb
 1410 0170 3B       		.uleb128 0x3b
 1411 0171 0B       		.uleb128 0xb
 1412 0172 49       		.uleb128 0x49
 1413 0173 13       		.uleb128 0x13
 1414 0174 02       		.uleb128 0x2
 1415 0175 06       		.uleb128 0x6
ARM GAS  C:\Users\DNIEL~1\AppData\Local\Temp\ccuufvxW.s 			page 26


 1416 0176 00       		.byte	0x0
 1417 0177 00       		.byte	0x0
 1418 0178 1D       		.uleb128 0x1d
 1419 0179 34       		.uleb128 0x34
 1420 017a 00       		.byte	0x0
 1421 017b 03       		.uleb128 0x3
 1422 017c 0E       		.uleb128 0xe
 1423 017d 3A       		.uleb128 0x3a
 1424 017e 0B       		.uleb128 0xb
 1425 017f 3B       		.uleb128 0x3b
 1426 0180 05       		.uleb128 0x5
 1427 0181 49       		.uleb128 0x49
 1428 0182 13       		.uleb128 0x13
 1429 0183 3F       		.uleb128 0x3f
 1430 0184 0C       		.uleb128 0xc
 1431 0185 3C       		.uleb128 0x3c
 1432 0186 0C       		.uleb128 0xc
 1433 0187 00       		.byte	0x0
 1434 0188 00       		.byte	0x0
 1435 0189 1E       		.uleb128 0x1e
 1436 018a 34       		.uleb128 0x34
 1437 018b 00       		.byte	0x0
 1438 018c 03       		.uleb128 0x3
 1439 018d 0E       		.uleb128 0xe
 1440 018e 3A       		.uleb128 0x3a
 1441 018f 0B       		.uleb128 0xb
 1442 0190 3B       		.uleb128 0x3b
 1443 0191 0B       		.uleb128 0xb
 1444 0192 49       		.uleb128 0x49
 1445 0193 13       		.uleb128 0x13
 1446 0194 02       		.uleb128 0x2
 1447 0195 0A       		.uleb128 0xa
 1448 0196 00       		.byte	0x0
 1449 0197 00       		.byte	0x0
 1450 0198 00       		.byte	0x0
 1451              		.section	.debug_pubnames,"",%progbits
 1452 0000 41000000 		.4byte	0x41
 1453 0004 0200     		.2byte	0x2
 1454 0006 00000000 		.4byte	.Ldebug_info0
 1455 000a 93040000 		.4byte	0x493
 1456 000e 84030000 		.4byte	0x384
 1457 0012 62757474 		.ascii	"buttonInit\000"
 1457      6F6E496E 
 1457      697400
 1458 001d 98030000 		.4byte	0x398
 1459 0021 62757474 		.ascii	"buttonCalc\000"
 1459      6F6E4361 
 1459      6C6300
 1460 002c 05040000 		.4byte	0x405
 1461 0030 636D645F 		.ascii	"cmd_buttonvalues\000"
 1461      62757474 
 1461      6F6E7661 
 1461      6C756573 
 1461      00
 1462 0041 00000000 		.4byte	0x0
 1463              		.section	.debug_pubtypes,"",%progbits
 1464 0000 F1000000 		.4byte	0xf1
ARM GAS  C:\Users\DNIEL~1\AppData\Local\Temp\ccuufvxW.s 			page 27


 1465 0004 0200     		.2byte	0x2
 1466 0006 00000000 		.4byte	.Ldebug_info0
 1467 000a 93040000 		.4byte	0x493
 1468 000e 30000000 		.4byte	0x30
 1469 0012 73697A65 		.ascii	"size_t\000"
 1469      5F7400
 1470 0019 42000000 		.4byte	0x42
 1471 001d 696E7438 		.ascii	"int8_t\000"
 1471      5F7400
 1472 0024 54000000 		.4byte	0x54
 1473 0028 75696E74 		.ascii	"uint8_t\000"
 1473      385F7400 
 1474 0030 74000000 		.4byte	0x74
 1475 0034 696E7433 		.ascii	"int32_t\000"
 1475      325F7400 
 1476 003c 86000000 		.4byte	0x86
 1477 0040 75696E74 		.ascii	"uint32_t\000"
 1477      33325F74 
 1477      00
 1478 0049 A6000000 		.4byte	0xa6
 1479 004d 626F6F6C 		.ascii	"bool_t\000"
 1479      5F7400
 1480 0054 B8000000 		.4byte	0xb8
 1481 0058 6D73675F 		.ascii	"msg_t\000"
 1481      7400
 1482 005e C3000000 		.4byte	0xc3
 1483 0062 73797374 		.ascii	"systime_t\000"
 1483      696D655F 
 1483      7400
 1484 006c FE000000 		.4byte	0xfe
 1485 0070 42617365 		.ascii	"BaseSequentialStreamVMT\000"
 1485      53657175 
 1485      656E7469 
 1485      616C5374 
 1485      7265616D 
 1486 0088 CB010000 		.4byte	0x1cb
 1487 008c 42617365 		.ascii	"BaseSequentialStream\000"
 1487      53657175 
 1487      656E7469 
 1487      616C5374 
 1487      7265616D 
 1488 00a1 DB010000 		.4byte	0x1db
 1489 00a5 42617365 		.ascii	"BaseChannelVMT\000"
 1489      4368616E 
 1489      6E656C56 
 1489      4D5400
 1490 00b4 FF020000 		.4byte	0x2ff
 1491 00b8 42617365 		.ascii	"BaseChannel\000"
 1491      4368616E 
 1491      6E656C00 
 1492 00c4 15030000 		.4byte	0x315
 1493 00c8 5F5F7661 		.ascii	"__va_list\000"
 1493      5F6C6973 
 1493      7400
 1494 00d2 0A030000 		.4byte	0x30a
 1495 00d6 5F5F676E 		.ascii	"__gnuc_va_list\000"
 1495      75635F76 
ARM GAS  C:\Users\DNIEL~1\AppData\Local\Temp\ccuufvxW.s 			page 28


 1495      615F6C69 
 1495      737400
 1496 00e5 2F030000 		.4byte	0x32f
 1497 00e9 76615F6C 		.ascii	"va_list\000"
 1497      69737400 
 1498 00f1 00000000 		.4byte	0x0
 1499              		.section	.debug_aranges,"",%progbits
 1500 0000 34000000 		.4byte	0x34
 1501 0004 0200     		.2byte	0x2
 1502 0006 00000000 		.4byte	.Ldebug_info0
 1503 000a 04       		.byte	0x4
 1504 000b 00       		.byte	0x0
 1505 000c 0000     		.2byte	0x0
 1506 000e 0000     		.2byte	0x0
 1507 0010 00000000 		.4byte	.LFB118
 1508 0014 1E000000 		.4byte	.LFE118-.LFB118
 1509 0018 00000000 		.4byte	.LFB119
 1510 001c 0C000000 		.4byte	.LFE119-.LFB119
 1511 0020 00000000 		.4byte	.LFB120
 1512 0024 40000000 		.4byte	.LFE120-.LFB120
 1513 0028 00000000 		.4byte	.LFB121
 1514 002c E0000000 		.4byte	.LFE121-.LFB121
 1515 0030 00000000 		.4byte	0x0
 1516 0034 00000000 		.4byte	0x0
 1517              		.section	.debug_ranges,"",%progbits
 1518              	.Ldebug_ranges0:
 1519 0000 00000000 		.4byte	.LFB118
 1520 0004 1E000000 		.4byte	.LFE118
 1521 0008 00000000 		.4byte	.LFB119
 1522 000c 0C000000 		.4byte	.LFE119
 1523 0010 00000000 		.4byte	.LFB120
 1524 0014 40000000 		.4byte	.LFE120
 1525 0018 00000000 		.4byte	.LFB121
 1526 001c E0000000 		.4byte	.LFE121
 1527 0020 00000000 		.4byte	0x0
 1528 0024 00000000 		.4byte	0x0
 1529              		.section	.debug_str,"MS",%progbits,1
 1530              	.LASF23:
 1531 0000 42617365 		.ascii	"BaseChannelVMT\000"
 1531      4368616E 
 1531      6E656C56 
 1531      4D5400
 1532              	.LASF1:
 1533 000f 73697A65 		.ascii	"size_t\000"
 1533      5F7400
 1534              	.LASF41:
 1535 0016 7372632F 		.ascii	"src/button.c\000"
 1535      62757474 
 1535      6F6E2E63 
 1535      00
 1536              	.LASF40:
 1537 0023 474E5520 		.ascii	"GNU C 4.5.2\000"
 1537      4320342E 
 1537      352E3200 
 1538              	.LASF17:
 1539 002f 73797374 		.ascii	"systime_t\000"
 1539      696D655F 
ARM GAS  C:\Users\DNIEL~1\AppData\Local\Temp\ccuufvxW.s 			page 29


 1539      7400
 1540              	.LASF37:
 1541 0039 61726776 		.ascii	"argv\000"
 1541      00
 1542              	.LASF14:
 1543 003e 626F6F6C 		.ascii	"bool_t\000"
 1543      5F7400
 1544              	.LASF35:
 1545 0045 636D645F 		.ascii	"cmd_buttonvalues\000"
 1545      62757474 
 1545      6F6E7661 
 1545      6C756573 
 1545      00
 1546              	.LASF2:
 1547 0056 696E7438 		.ascii	"int8_t\000"
 1547      5F7400
 1548              	.LASF45:
 1549 005d 62757474 		.ascii	"buttonInit\000"
 1549      6F6E496E 
 1549      697400
 1550              	.LASF26:
 1551 0068 77726974 		.ascii	"writet\000"
 1551      657400
 1552              	.LASF29:
 1553 006f 5F5F676E 		.ascii	"__gnuc_va_list\000"
 1553      75635F76 
 1553      615F6C69 
 1553      737400
 1554              	.LASF21:
 1555 007e 42617365 		.ascii	"BaseSequentialStream\000"
 1555      53657175 
 1555      656E7469 
 1555      616C5374 
 1555      7265616D 
 1556              	.LASF5:
 1557 0093 756E7369 		.ascii	"unsigned char\000"
 1557      676E6564 
 1557      20636861 
 1557      7200
 1558              	.LASF27:
 1559 00a1 72656164 		.ascii	"readt\000"
 1559      7400
 1560              	.LASF7:
 1561 00a7 73686F72 		.ascii	"short unsigned int\000"
 1561      7420756E 
 1561      7369676E 
 1561      65642069 
 1561      6E7400
 1562              	.LASF19:
 1563 00ba 77726974 		.ascii	"write\000"
 1563      6500
 1564              	.LASF31:
 1565 00c0 76615F6C 		.ascii	"va_list\000"
 1565      69737400 
 1566              	.LASF44:
 1567 00c8 63687072 		.ascii	"chprintf\000"
 1567      696E7466 
ARM GAS  C:\Users\DNIEL~1\AppData\Local\Temp\ccuufvxW.s 			page 30


 1567      00
 1568              	.LASF25:
 1569 00d1 67657474 		.ascii	"gett\000"
 1569      00
 1570              	.LASF11:
 1571 00d6 6C6F6E67 		.ascii	"long unsigned int\000"
 1571      20756E73 
 1571      69676E65 
 1571      6420696E 
 1571      7400
 1572              	.LASF20:
 1573 00e8 72656164 		.ascii	"read\000"
 1573      00
 1574              	.LASF39:
 1575 00ed 49544D5F 		.ascii	"ITM_RxBuffer\000"
 1575      52784275 
 1575      66666572 
 1575      00
 1576              	.LASF0:
 1577 00fa 756E7369 		.ascii	"unsigned int\000"
 1577      676E6564 
 1577      20696E74 
 1577      00
 1578              	.LASF34:
 1579 0107 62757474 		.ascii	"buttonCalc\000"
 1579      6F6E4361 
 1579      6C6300
 1580              	.LASF33:
 1581 0112 63727569 		.ascii	"cruiseEnable\000"
 1581      7365456E 
 1581      61626C65 
 1581      00
 1582              	.LASF46:
 1583 011f 63727569 		.ascii	"cruiseStatus\000"
 1583      73655374 
 1583      61747573 
 1583      00
 1584              	.LASF4:
 1585 012c 75696E74 		.ascii	"uint8_t\000"
 1585      385F7400 
 1586              	.LASF43:
 1587 0134 5F5F6170 		.ascii	"__ap\000"
 1587      00
 1588              	.LASF16:
 1589 0139 6D73675F 		.ascii	"msg_t\000"
 1589      7400
 1590              	.LASF8:
 1591 013f 696E7433 		.ascii	"int32_t\000"
 1591      325F7400 
 1592              	.LASF30:
 1593 0147 5F5F7661 		.ascii	"__va_list\000"
 1593      5F6C6973 
 1593      7400
 1594              	.LASF12:
 1595 0151 6C6F6E67 		.ascii	"long long int\000"
 1595      206C6F6E 
 1595      6720696E 
ARM GAS  C:\Users\DNIEL~1\AppData\Local\Temp\ccuufvxW.s 			page 31


 1595      7400
 1596              	.LASF42:
 1597 015f 433A5C44 		.ascii	"C:\\Dani\\MegaLux\\Repo\\Smarty\\Smarty\\smarty\\fi"
 1597      616E695C 
 1597      4D656761 
 1597      4C75785C 
 1597      5265706F 
 1598 018b 726D7761 		.ascii	"rmware\000"
 1598      726500
 1599              	.LASF18:
 1600 0192 63686172 		.ascii	"char\000"
 1600      00
 1601              	.LASF6:
 1602 0197 73686F72 		.ascii	"short int\000"
 1602      7420696E 
 1602      7400
 1603              	.LASF32:
 1604 01a1 63727569 		.ascii	"cruiseDisable\000"
 1604      73654469 
 1604      7361626C 
 1604      6500
 1605              	.LASF36:
 1606 01af 61726763 		.ascii	"argc\000"
 1606      00
 1607              	.LASF10:
 1608 01b4 75696E74 		.ascii	"uint32_t\000"
 1608      33325F74 
 1608      00
 1609              	.LASF9:
 1610 01bd 6C6F6E67 		.ascii	"long int\000"
 1610      20696E74 
 1610      00
 1611              	.LASF24:
 1612 01c6 70757474 		.ascii	"putt\000"
 1612      00
 1613              	.LASF3:
 1614 01cb 7369676E 		.ascii	"signed char\000"
 1614      65642063 
 1614      68617200 
 1615              	.LASF38:
 1616 01d7 63727569 		.ascii	"cruise_ok\000"
 1616      73655F6F 
 1616      6B00
 1617              	.LASF15:
 1618 01e1 5F426F6F 		.ascii	"_Bool\000"
 1618      6C00
 1619              	.LASF22:
 1620 01e7 42617365 		.ascii	"BaseSequentialStreamVMT\000"
 1620      53657175 
 1620      656E7469 
 1620      616C5374 
 1620      7265616D 
 1621              	.LASF13:
 1622 01ff 6C6F6E67 		.ascii	"long long unsigned int\000"
 1622      206C6F6E 
 1622      6720756E 
 1622      7369676E 
ARM GAS  C:\Users\DNIEL~1\AppData\Local\Temp\ccuufvxW.s 			page 32


 1622      65642069 
 1623              	.LASF28:
 1624 0216 42617365 		.ascii	"BaseChannel\000"
 1624      4368616E 
 1624      6E656C00 
 1625              		.ident	"GCC: (Sourcery G++ Lite 2011.03-42) 4.5.2"
ARM GAS  C:\Users\DNIEL~1\AppData\Local\Temp\ccuufvxW.s 			page 33


DEFINED SYMBOLS
                            *ABS*:00000000 button.c
C:\Users\DNIEL~1\AppData\Local\Temp\ccuufvxW.s:24     .text.chprintf:00000000 $t
C:\Users\DNIEL~1\AppData\Local\Temp\ccuufvxW.s:29     .text.chprintf:00000000 chprintf
C:\Users\DNIEL~1\AppData\Local\Temp\ccuufvxW.s:69     .text.buttonInit:00000000 $t
C:\Users\DNIEL~1\AppData\Local\Temp\ccuufvxW.s:75     .text.buttonInit:00000000 buttonInit
C:\Users\DNIEL~1\AppData\Local\Temp\ccuufvxW.s:92     .text.buttonInit:00000008 $d
C:\Users\DNIEL~1\AppData\Local\Temp\ccuufvxW.s:97     .text.buttonCalc:00000000 $t
C:\Users\DNIEL~1\AppData\Local\Temp\ccuufvxW.s:103    .text.buttonCalc:00000000 buttonCalc
C:\Users\DNIEL~1\AppData\Local\Temp\ccuufvxW.s:159    .text.buttonCalc:0000003c $d
C:\Users\DNIEL~1\AppData\Local\Temp\ccuufvxW.s:166    .text.cmd_buttonvalues:00000000 $t
C:\Users\DNIEL~1\AppData\Local\Temp\ccuufvxW.s:172    .text.cmd_buttonvalues:00000000 cmd_buttonvalues
C:\Users\DNIEL~1\AppData\Local\Temp\ccuufvxW.s:290    .text.cmd_buttonvalues:000000c8 $d
C:\Users\DNIEL~1\AppData\Local\Temp\ccuufvxW.s:300    .rodata.str1.4:00000000 $d
C:\Users\DNIEL~1\AppData\Local\Temp\ccuufvxW.s:321    .bss.cruise_ok:00000000 cruise_ok
C:\Users\DNIEL~1\AppData\Local\Temp\ccuufvxW.s:322    .bss.cruise_ok:00000000 $d
                     .debug_frame:00000010 $d
C:\Users\DNIEL~1\AppData\Local\Temp\ccuufvxW.s:96     .text.buttonInit:0000000c $t

UNDEFINED SYMBOLS
chvprintf
dspGetValue
cruiseStatus
cruiseDisable
cruiseEnable
chThdSleep
