ARM GAS  C:\Users\DNIEL~1\AppData\Local\Temp\ccuufvxW.s 			page 1


   1              		.syntax unified
   2              		.cpu cortex-m4
   3              		.fpu softvfp
   4              		.eabi_attribute 20, 1
   5              		.eabi_attribute 21, 1
   6              		.eabi_attribute 23, 3
   7              		.eabi_attribute 24, 1
   8              		.eabi_attribute 25, 1
   9              		.eabi_attribute 26, 1
  10              		.eabi_attribute 30, 2
  11              		.eabi_attribute 18, 4
  12              		.thumb
  13              		.file	"button.c"
  20 0000 AC020000 		.text
  20      02003302 
  20      00000201 
  20      FB0E0D00 
  20      01010101 
  21              	.Ltext0:
  22              		.cfi_sections	.debug_frame
  23              		.section	.text.chprintf,"ax",%progbits
  24              		.align	2
  25              		.p2align 4,,15
  26              		.thumb
  27              		.thumb_func
  28              		.type	chprintf, %function
  29              	chprintf:
  30              	.LFB118:
  31              		.file 1 "../../../ChibiOS/os/various/chprintf.h"
  32              		.loc 1 69 0
  33              		.cfi_startproc
  34              		@ args = 4, pretend = 12, frame = 8
  35              		@ frame_needed = 0, uses_anonymous_args = 1
  36              	.LVL0:
  37 0000 0EB4     		push	{r1, r2, r3}
  38              	.LCFI0:
  39              		.cfi_def_cfa_offset 12
  40 0002 00B5     		push	{lr}
  41              	.LCFI1:
  42              		.cfi_def_cfa_offset 16
  43 0004 82B0     		sub	sp, sp, #8
  44              	.LCFI2:
  45              		.cfi_def_cfa_offset 24
  46              		.loc 1 69 0
  47 0006 03AB     		add	r3, sp, #12
  48              		.cfi_offset 14, -16
  49              		.cfi_offset 3, -4
  50              		.cfi_offset 2, -8
  51              		.cfi_offset 1, -12
  52 0008 53F8041B 		ldr	r1, [r3], #4
  53              		.loc 1 73 0
ARM GAS  C:\Users\DNIEL~1\AppData\Local\Temp\ccuufvxW.s 			page 2


  54 000c 1A46     		mov	r2, r3
  55              		.loc 1 72 0
  56 000e 0193     		str	r3, [sp, #4]
  57              		.loc 1 73 0
  58 0010 FFF7FEFF 		bl	chvprintf
  59              	.LVL1:
  60              		.loc 1 75 0
  61 0014 02B0     		add	sp, sp, #8
  62 0016 5DF804EB 		pop	{lr}
  63 001a 03B0     		add	sp, sp, #12
  64 001c 7047     		bx	lr
  65              		.cfi_endproc
  66              	.LFE118:
  67              		.size	chprintf, .-chprintf
  68 001e 00BF     		.section	.text.buttonInit,"ax",%progbits
  69              		.align	2
  70              		.p2align 4,,15
  71              		.global	buttonInit
  72              		.thumb
  73              		.thumb_func
  74              		.type	buttonInit, %function
  75              	buttonInit:
  76              	.LFB119:
  77              		.file 2 "src/button.c"
  78              		.loc 2 13 0
  79              		.cfi_startproc
  80              		@ args = 0, pretend = 0, frame = 0
  81              		@ frame_needed = 0, uses_anonymous_args = 0
  82              		@ link register save eliminated.
  83              		.loc 2 14 0
  84 0000 014B     		ldr	r3, .L3
  85 0002 0022     		movs	r2, #0
  86 0004 1A70     		strb	r2, [r3, #0]
  87              		.loc 2 15 0
  88 0006 7047     		bx	lr
  89              	.L4:
  90              		.align	2
  91              	.L3:
  92 0008 00000000 		.word	.LANCHOR0
  93              		.cfi_endproc
  94              	.LFE119:
  95              		.size	buttonInit, .-buttonInit
  96 000c AFF30080 		.section	.text.buttonCalc,"ax",%progbits
  97              		.align	2
  98              		.p2align 4,,15
  99              		.global	buttonCalc
 100              		.thumb
 101              		.thumb_func
 102              		.type	buttonCalc, %function
 103              	buttonCalc:
 104              	.LFB120:
 105              		.loc 2 17 0
 106              		.cfi_startproc
 107              		@ args = 0, pretend = 0, frame = 0
 108              		@ frame_needed = 0, uses_anonymous_args = 0
 109 0000 70B5     		push	{r4, r5, r6, lr}
 110              	.LCFI3:
ARM GAS  C:\Users\DNIEL~1\AppData\Local\Temp\ccuufvxW.s 			page 3


 111              		.cfi_def_cfa_offset 16
 112              		.loc 2 18 0
 113 0002 0820     		movs	r0, #8
 114              		.cfi_offset 14, -4
 115              		.cfi_offset 6, -8
 116              		.cfi_offset 5, -12
 117              		.cfi_offset 4, -16
 118 0004 FFF7FEFF 		bl	dspGetValue
 119 0008 0446     		mov	r4, r0
 120 000a 10B9     		cbnz	r0, .L6
 121              		.loc 2 18 0 is_stmt 0 discriminator 1
 122 000c 0B4D     		ldr	r5, .L11
 123 000e 2B78     		ldrb	r3, [r5, #0]	@ zero_extendqisi2
 124 0010 3BB9     		cbnz	r3, .L10
 125              	.L6:
 126              		.loc 2 30 0 is_stmt 1
 127 0012 0820     		movs	r0, #8
 128 0014 FFF7FEFF 		bl	dspGetValue
 129 0018 10B1     		cbz	r0, .L5
 130              		.loc 2 32 0
 131 001a 0848     		ldr	r0, .L11
 132 001c 0122     		movs	r2, #1
 133 001e 0270     		strb	r2, [r0, #0]
 134              	.L5:
 135 0020 70BD     		pop	{r4, r5, r6, pc}
 136              	.L10:
 137              	.LBB2:
 138              		.loc 2 19 0
 139 0022 FFF7FEFF 		bl	cruiseStatus
 140 0026 0646     		mov	r6, r0
 141 0028 18B1     		cbz	r0, .L7
 142              	.LBB3:
 143              		.loc 2 21 0
 144 002a FFF7FEFF 		bl	cruiseDisable
 145              		.loc 2 22 0
 146 002e 2C70     		strb	r4, [r5, #0]
 147 0030 70BD     		pop	{r4, r5, r6, pc}
 148              	.L7:
 149              	.LBE3:
 150              	.LBB4:
 151              		.loc 2 26 0
 152 0032 FFF7FEFF 		bl	cruiseEnable
 153              		.loc 2 27 0
 154 0036 2E70     		strb	r6, [r5, #0]
 155 0038 70BD     		pop	{r4, r5, r6, pc}
 156              	.L12:
 157 003a 00BF     		.align	2
 158              	.L11:
 159 003c 00000000 		.word	.LANCHOR0
 160              	.LBE4:
 161              	.LBE2:
 162              		.cfi_endproc
 163              	.LFE120:
 164              		.size	buttonCalc, .-buttonCalc
 165              		.section	.text.cmd_buttonvalues,"ax",%progbits
 166              		.align	2
 167              		.p2align 4,,15
ARM GAS  C:\Users\DNIEL~1\AppData\Local\Temp\ccuufvxW.s 			page 4


 168              		.global	cmd_buttonvalues
 169              		.thumb
 170              		.thumb_func
 171              		.type	cmd_buttonvalues, %function
 172              	cmd_buttonvalues:
 173              	.LFB121:
 174              		.loc 2 37 0
 175              		.cfi_startproc
 176              		@ args = 0, pretend = 0, frame = 0
 177              		@ frame_needed = 0, uses_anonymous_args = 0
 178              	.LVL2:
 179 0000 10B5     		push	{r4, lr}
 180              	.LCFI4:
 181              		.cfi_def_cfa_offset 8
 182              		.loc 2 42 0
 183 0002 3149     		ldr	r1, .L16
 184              	.LVL3:
 185              		.loc 2 37 0
 186 0004 0446     		mov	r4, r0
 187              		.cfi_offset 14, -4
 188              		.cfi_offset 4, -8
 189              		.loc 2 42 0
 190 0006 FFF7FEFF 		bl	chprintf
 191              	.LVL4:
 192              		.loc 2 43 0
 193 000a 2046     		mov	r0, r4
 194 000c 2F49     		ldr	r1, .L16+4
 195 000e FFF7FEFF 		bl	chprintf
 196              		.loc 2 44 0
 197 0012 50E0     		b	.L14
 198              	.LVL5:
 199              	.L15:
 200              		.loc 2 45 0
 201 0014 0022     		movs	r2, #0
 202 0016 1346     		mov	r3, r2
 203 0018 2D49     		ldr	r1, .L16+8
 204 001a 2046     		mov	r0, r4
 205 001c FFF7FEFF 		bl	chprintf
 206              		.loc 2 46 0
 207 0020 2C49     		ldr	r1, .L16+12
 208 0022 2046     		mov	r0, r4
 209 0024 FFF7FEFF 		bl	chprintf
 210              	.LVL6:
 211              		.loc 2 48 0
 212 0028 0120     		movs	r0, #1
 213 002a FFF7FEFF 		bl	dspGetValue
 214 002e 2A49     		ldr	r1, .L16+16
 215 0030 0246     		mov	r2, r0
 216 0032 2046     		mov	r0, r4
 217 0034 FFF7FEFF 		bl	chprintf
 218              	.LVL7:
 219 0038 0220     		movs	r0, #2
 220 003a FFF7FEFF 		bl	dspGetValue
 221 003e 2649     		ldr	r1, .L16+16
 222 0040 0246     		mov	r2, r0
 223 0042 2046     		mov	r0, r4
 224 0044 FFF7FEFF 		bl	chprintf
ARM GAS  C:\Users\DNIEL~1\AppData\Local\Temp\ccuufvxW.s 			page 5


 225              	.LVL8:
 226 0048 0320     		movs	r0, #3
 227 004a FFF7FEFF 		bl	dspGetValue
 228 004e 2249     		ldr	r1, .L16+16
 229 0050 0246     		mov	r2, r0
 230 0052 2046     		mov	r0, r4
 231 0054 FFF7FEFF 		bl	chprintf
 232              	.LVL9:
 233 0058 0420     		movs	r0, #4
 234 005a FFF7FEFF 		bl	dspGetValue
 235 005e 1E49     		ldr	r1, .L16+16
 236 0060 0246     		mov	r2, r0
 237 0062 2046     		mov	r0, r4
 238 0064 FFF7FEFF 		bl	chprintf
 239              	.LVL10:
 240 0068 0520     		movs	r0, #5
 241 006a FFF7FEFF 		bl	dspGetValue
 242 006e 1A49     		ldr	r1, .L16+16
 243 0070 0246     		mov	r2, r0
 244 0072 2046     		mov	r0, r4
 245 0074 FFF7FEFF 		bl	chprintf
 246              	.LVL11:
 247 0078 0620     		movs	r0, #6
 248 007a FFF7FEFF 		bl	dspGetValue
 249 007e 1649     		ldr	r1, .L16+16
 250 0080 0246     		mov	r2, r0
 251 0082 2046     		mov	r0, r4
 252 0084 FFF7FEFF 		bl	chprintf
 253              	.LVL12:
 254 0088 0720     		movs	r0, #7
 255 008a FFF7FEFF 		bl	dspGetValue
 256 008e 1249     		ldr	r1, .L16+16
 257 0090 0246     		mov	r2, r0
 258 0092 2046     		mov	r0, r4
 259 0094 FFF7FEFF 		bl	chprintf
 260              	.LVL13:
 261 0098 0820     		movs	r0, #8
 262 009a FFF7FEFF 		bl	dspGetValue
 263 009e 0E49     		ldr	r1, .L16+16
 264 00a0 0246     		mov	r2, r0
 265 00a2 2046     		mov	r0, r4
 266 00a4 FFF7FEFF 		bl	chprintf
 267              	.LVL14:
 268              		.loc 2 50 0
 269 00a8 2046     		mov	r0, r4
 270 00aa 0C49     		ldr	r1, .L16+20
 271 00ac FFF7FEFF 		bl	chprintf
 272              		.loc 2 51 0
 273 00b0 6420     		movs	r0, #100
 274 00b2 FFF7FEFF 		bl	chThdSleep
 275              	.LVL15:
 276              	.L14:
 277              		.loc 2 44 0 discriminator 1
 278 00b6 2168     		ldr	r1, [r4, #0]
 279 00b8 2046     		mov	r0, r4
 280 00ba 4B69     		ldr	r3, [r1, #20]
 281 00bc 0021     		movs	r1, #0
ARM GAS  C:\Users\DNIEL~1\AppData\Local\Temp\ccuufvxW.s 			page 6


 282 00be 9847     		blx	r3
 283 00c0 B0F1FF3F 		cmp	r0, #-1
 284 00c4 A6D0     		beq	.L15
 285              		.loc 2 53 0
 286 00c6 10BD     		pop	{r4, pc}
 287              	.L17:
 288              		.align	2
 289              	.L16:
 290 00c8 00000000 		.word	.LC0
 291 00cc 04000000 		.word	.LC1
 292 00d0 0C000000 		.word	.LC2
 293 00d4 18000000 		.word	.LC3
 294 00d8 28000000 		.word	.LC4
 295 00dc 2C000000 		.word	.LC5
 296              		.cfi_endproc
 297              	.LFE121:
 298              		.size	cmd_buttonvalues, .-cmd_buttonvalues
 299              		.section	.rodata.str1.4,"aMS",%progbits,1
 300              		.align	2
 301              	.LC0:
 302 0000 1B6300   		.ascii	"\033c\000"
 303 0003 00       		.space	1
 304              	.LC1:
 305 0004 1B5B324A 		.ascii	"\033[2J\000"
 305      00
 306 0009 000000   		.space	3
 307              	.LC2:
 308 000c 1B5B2564 		.ascii	"\033[%d;%dH\000"
 308      3B256448 
 308      00
 309 0015 000000   		.space	3
 310              	.LC3:
 311 0018 6275735F 		.ascii	"bus_status: \000"
 311      73746174 
 311      75733A20 
 311      00
 312 0025 000000   		.space	3
 313              	.LC4:
 314 0028 25642000 		.ascii	"%d \000"
 315              	.LC5:
 316 002c 0D0A00   		.ascii	"\015\012\000"
 317 002f 00       		.section	.bss.cruise_ok,"aw",%nobits
 318              		.set	.LANCHOR0,. + 0
 319              		.type	cruise_ok, %object
 320              		.size	cruise_ok, 1
 321              	cruise_ok:
 322 0000 00       		.space	1
 323              		.text
 324              	.Letext0: