ARM GAS  C:\Users\DNIEL~1\AppData\Local\Temp\cczvk6aO.s 			page 1


   1              		.syntax unified
   2              		.cpu cortex-m4
   3              		.fpu softvfp
   4              		.eabi_attribute 20, 1
   5              		.eabi_attribute 21, 1
   6              		.eabi_attribute 23, 3
   7              		.eabi_attribute 24, 1
   8              		.eabi_attribute 25, 1
   9              		.eabi_attribute 26, 1
  10              		.eabi_attribute 30, 2
  11              		.eabi_attribute 34, 1
  12              		.eabi_attribute 18, 4
  13              		.thumb
  14              		.file	"can.c"
  15              		.text
  16              	.Ltext0:
  17              		.cfi_sections	.debug_frame
  18              		.section	.text.canInit,"ax",%progbits
  19              		.align	2
  20              		.p2align 4,,15
  21              		.global	canInit
  22              		.thumb
  23              		.thumb_func
  24              		.type	canInit, %function
  25              	canInit:
  26              	.LFB118:
  27              		.file 1 "../../../ChibiOS/os/hal/src/can.c"
  28              		.loc 1 68 0
  29              		.cfi_startproc
  30              		@ args = 0, pretend = 0, frame = 0
  31              		@ frame_needed = 0, uses_anonymous_args = 0
  32              		@ link register save eliminated.
  33              		.loc 1 71 0
  34              		.loc 1 70 0
  35 0000 FFF7FEBF 		b	can_lld_init
  36              	.LVL0:
  37              		.cfi_endproc
  38              	.LFE118:
  39              		.size	canInit, .-canInit
  40 0004 AFF30080 		.section	.text.canObjectInit,"ax",%progbits
  40      AFF30080 
  40      AFF30080 
  41              		.align	2
  42              		.p2align 4,,15
  43              		.global	canObjectInit
  44              		.thumb
  45              		.thumb_func
  46              		.type	canObjectInit, %function
  47              	canObjectInit:
  48              	.LFB119:
  49              		.loc 1 80 0
  50              		.cfi_startproc
  51              		@ args = 0, pretend = 0, frame = 0
  52              		@ frame_needed = 0, uses_anonymous_args = 0
  53              	.LVL1:
  54 0000 38B5     		push	{r3, r4, r5, lr}
  55              	.LCFI0:
ARM GAS  C:\Users\DNIEL~1\AppData\Local\Temp\cczvk6aO.s 			page 2


  56              		.cfi_def_cfa_offset 16
  57              		.cfi_offset 3, -16
  58              		.cfi_offset 4, -12
  59              		.cfi_offset 5, -8
  60              		.cfi_offset 14, -4
  61              		.loc 1 80 0
  62 0002 0446     		mov	r4, r0
  63              		.loc 1 83 0
  64 0004 0025     		movs	r5, #0
  65              		.loc 1 82 0
  66 0006 0123     		movs	r3, #1
  67              		.loc 1 84 0
  68 0008 2946     		mov	r1, r5
  69              		.loc 1 82 0
  70 000a 2370     		strb	r3, [r4, #0]
  71              		.loc 1 84 0
  72 000c 00F10800 		add	r0, r0, #8
  73              	.LVL2:
  74              		.loc 1 83 0
  75 0010 6560     		str	r5, [r4, #4]
  76              		.loc 1 84 0
  77 0012 FFF7FEFF 		bl	chSemInit
  78              	.LVL3:
  79              		.loc 1 85 0
  80 0016 2946     		mov	r1, r5
  81 0018 04F11400 		add	r0, r4, #20
  82 001c FFF7FEFF 		bl	chSemInit
  83              	.LVL4:
  84              		.loc 1 86 0
  85 0020 04F12005 		add	r5, r4, #32
  86              		.loc 1 87 0
  87 0024 04F12400 		add	r0, r4, #36
  88              		.loc 1 88 0
  89 0028 04F12801 		add	r1, r4, #40
  90              		.loc 1 90 0
  91 002c 04F12C02 		add	r2, r4, #44
  92              		.loc 1 91 0
  93 0030 04F13003 		add	r3, r4, #48
  94              		.loc 1 86 0
  95 0034 2562     		str	r5, [r4, #32]
  96              		.loc 1 87 0
  97 0036 6062     		str	r0, [r4, #36]
  98              		.loc 1 88 0
  99 0038 A162     		str	r1, [r4, #40]
 100              		.loc 1 90 0
 101 003a E262     		str	r2, [r4, #44]
 102              		.loc 1 91 0
 103 003c 2363     		str	r3, [r4, #48]
 104 003e 38BD     		pop	{r3, r4, r5, pc}
 105              		.cfi_endproc
 106              	.LFE119:
 107              		.size	canObjectInit, .-canObjectInit
 108              		.section	.text.canStart,"ax",%progbits
 109              		.align	2
 110              		.p2align 4,,15
 111              		.global	canStart
 112              		.thumb
ARM GAS  C:\Users\DNIEL~1\AppData\Local\Temp\cczvk6aO.s 			page 3


 113              		.thumb_func
 114              		.type	canStart, %function
 115              	canStart:
 116              	.LFB120:
 117              		.loc 1 107 0
 118              		.cfi_startproc
 119              		@ args = 0, pretend = 0, frame = 0
 120              		@ frame_needed = 0, uses_anonymous_args = 0
 121              	.LVL5:
 122 0000 38B5     		push	{r3, r4, r5, lr}
 123              	.LCFI1:
 124              		.cfi_def_cfa_offset 16
 125              		.cfi_offset 3, -16
 126              		.cfi_offset 4, -12
 127              		.cfi_offset 5, -8
 128              		.cfi_offset 14, -4
 129              		.loc 1 107 0
 130 0002 0446     		mov	r4, r0
 131 0004 0D46     		mov	r5, r1
 132              	.LBB2:
 133              		.loc 1 111 0
 134 0006 2023     		movs	r3, #32
 135              	.LVL6:
 136              	@ 111 "../../../ChibiOS/os/hal/src/can.c" 1
 137 0008 83F31188 		msr     BASEPRI, r3
 138              	@ 0 "" 2
 139              	.LVL7:
 140              		.thumb
 141              	.LBE2:
 142              		.loc 1 116 0
 143 000c 0378     		ldrb	r3, [r0, #0]	@ zero_extendqisi2
 144              	.LVL8:
 145 000e 022B     		cmp	r3, #2
 146 0010 06D1     		bne	.L4
 147              	.LVL9:
 148              	.L9:
 149              		.loc 1 117 0
 150 0012 0620     		movs	r0, #6
 151 0014 0121     		movs	r1, #1
 152 0016 FFF7FEFF 		bl	chSchGoSleepTimeoutS
 153              	.LVL10:
 154              		.loc 1 116 0
 155 001a 2378     		ldrb	r3, [r4, #0]	@ zero_extendqisi2
 156 001c 022B     		cmp	r3, #2
 157 001e F8D0     		beq	.L9
 158              	.L4:
 159              		.loc 1 118 0
 160 0020 012B     		cmp	r3, #1
 161 0022 03D0     		beq	.L13
 162              	.L6:
 163              	.LBB3:
 164              		.loc 1 123 0
 165 0024 0023     		movs	r3, #0
 166              	.LVL11:
 167              	@ 123 "../../../ChibiOS/os/hal/src/can.c" 1
 168 0026 83F31188 		msr     BASEPRI, r3
 169              	@ 0 "" 2
ARM GAS  C:\Users\DNIEL~1\AppData\Local\Temp\cczvk6aO.s 			page 4


 170              	.LVL12:
 171              		.thumb
 172 002a 38BD     		pop	{r3, r4, r5, pc}
 173              	.LVL13:
 174              	.L13:
 175              	.LBE3:
 176              		.loc 1 120 0
 177 002c 2046     		mov	r0, r4
 178              		.loc 1 119 0
 179 002e 6560     		str	r5, [r4, #4]
 180              		.loc 1 120 0
 181 0030 FFF7FEFF 		bl	can_lld_start
 182              	.LVL14:
 183              		.loc 1 121 0
 184 0034 0320     		movs	r0, #3
 185 0036 2070     		strb	r0, [r4, #0]
 186 0038 F4E7     		b	.L6
 187              		.cfi_endproc
 188              	.LFE120:
 189              		.size	canStart, .-canStart
 190 003a 00BFAFF3 		.section	.text.canStop,"ax",%progbits
 190      0080
 191              		.align	2
 192              		.p2align 4,,15
 193              		.global	canStop
 194              		.thumb
 195              		.thumb_func
 196              		.type	canStop, %function
 197              	canStop:
 198              	.LFB121:
 199              		.loc 1 133 0
 200              		.cfi_startproc
 201              		@ args = 0, pretend = 0, frame = 0
 202              		@ frame_needed = 0, uses_anonymous_args = 0
 203              	.LVL15:
 204 0000 10B5     		push	{r4, lr}
 205              	.LCFI2:
 206              		.cfi_def_cfa_offset 8
 207              		.cfi_offset 4, -8
 208              		.cfi_offset 14, -4
 209              	.LBB4:
 210              		.loc 1 137 0
 211 0002 2023     		movs	r3, #32
 212              	.LVL16:
 213              	.LBE4:
 214              		.loc 1 133 0
 215 0004 0446     		mov	r4, r0
 216              	.LBB5:
 217              		.loc 1 137 0
 218              	@ 137 "../../../ChibiOS/os/hal/src/can.c" 1
 219 0006 83F31188 		msr     BASEPRI, r3
 220              	@ 0 "" 2
 221              	.LVL17:
 222              		.thumb
 223              	.LBE5:
 224              		.loc 1 140 0
 225 000a FFF7FEFF 		bl	can_lld_stop
ARM GAS  C:\Users\DNIEL~1\AppData\Local\Temp\cczvk6aO.s 			page 5


 226              	.LVL18:
 227              		.loc 1 141 0
 228 000e 2046     		mov	r0, r4
 229 0010 0123     		movs	r3, #1
 230 0012 00F8143B 		strb	r3, [r0], #20
 231              		.loc 1 142 0
 232 0016 0021     		movs	r1, #0
 233 0018 FFF7FEFF 		bl	chSemResetI
 234              	.LVL19:
 235              		.loc 1 143 0
 236 001c 04F10800 		add	r0, r4, #8
 237 0020 0021     		movs	r1, #0
 238 0022 FFF7FEFF 		bl	chSemResetI
 239              	.LVL20:
 240              		.loc 1 144 0
 241 0026 FFF7FEFF 		bl	chSchRescheduleS
 242              	.LVL21:
 243              	.LBB6:
 244              		.loc 1 145 0
 245 002a 0023     		movs	r3, #0
 246              	.LVL22:
 247              	@ 145 "../../../ChibiOS/os/hal/src/can.c" 1
 248 002c 83F31188 		msr     BASEPRI, r3
 249              	@ 0 "" 2
 250              	.LVL23:
 251              		.thumb
 252 0030 10BD     		pop	{r4, pc}
 253              	.LBE6:
 254              		.cfi_endproc
 255              	.LFE121:
 256              		.size	canStop, .-canStop
 257 0032 00BFAFF3 		.section	.text.canTransmit,"ax",%progbits
 257      0080AFF3 
 257      0080AFF3 
 257      0080
 258              		.align	2
 259              		.p2align 4,,15
 260              		.global	canTransmit
 261              		.thumb
 262              		.thumb_func
 263              		.type	canTransmit, %function
 264              	canTransmit:
 265              	.LFB122:
 266              		.loc 1 172 0
 267              		.cfi_startproc
 268              		@ args = 0, pretend = 0, frame = 0
 269              		@ frame_needed = 0, uses_anonymous_args = 0
 270              	.LVL24:
 271 0000 2DE9F843 		push	{r3, r4, r5, r6, r7, r8, r9, lr}
 272              	.LCFI3:
 273              		.cfi_def_cfa_offset 32
 274              		.cfi_offset 3, -32
 275              		.cfi_offset 4, -28
 276              		.cfi_offset 5, -24
 277              		.cfi_offset 6, -20
 278              		.cfi_offset 7, -16
 279              		.cfi_offset 8, -12
ARM GAS  C:\Users\DNIEL~1\AppData\Local\Temp\cczvk6aO.s 			page 6


 280              		.cfi_offset 9, -8
 281              		.cfi_offset 14, -4
 282              		.loc 1 172 0
 283 0004 9846     		mov	r8, r3
 284 0006 0446     		mov	r4, r0
 285 0008 0E46     		mov	r6, r1
 286 000a 9146     		mov	r9, r2
 287              	.LBB7:
 288              		.loc 1 177 0
 289 000c 2023     		movs	r3, #32
 290              	.LVL25:
 291              	@ 177 "../../../ChibiOS/os/hal/src/can.c" 1
 292 000e 83F31188 		msr     BASEPRI, r3
 293              	@ 0 "" 2
 294              	.LVL26:
 295              		.thumb
 296              	.LBE7:
 297              	.LBB8:
 298              		.loc 1 181 0
 299 0012 00F10807 		add	r7, r0, #8
 300              	.LVL27:
 301              	.L16:
 302              	.LBE8:
 303              		.loc 1 180 0 discriminator 1
 304 0016 2578     		ldrb	r5, [r4, #0]	@ zero_extendqisi2
 305 0018 042D     		cmp	r5, #4
 306 001a 3146     		mov	r1, r6
 307 001c 2046     		mov	r0, r4
 308 001e 02D0     		beq	.L18
 309              	.LVL28:
 310              		.loc 1 180 0 is_stmt 0 discriminator 2
 311 0020 FFF7FEFF 		bl	can_lld_is_tx_empty
 312              	.LVL29:
 313 0024 50B9     		cbnz	r0, .L29
 314              	.LVL30:
 315              	.L18:
 316              	.LBB10:
 317              		.loc 1 181 0 is_stmt 1
 318 0026 3846     		mov	r0, r7
 319 0028 4146     		mov	r1, r8
 320 002a FFF7FEFF 		bl	chSemWaitTimeoutS
 321              	.LVL31:
 322              		.loc 1 182 0
 323 002e 0028     		cmp	r0, #0
 324 0030 F1D0     		beq	.L16
 325              	.LBB9:
 326              		.loc 1 183 0
 327 0032 0023     		movs	r3, #0
 328              	.LVL32:
 329              	@ 183 "../../../ChibiOS/os/hal/src/can.c" 1
 330 0034 83F31188 		msr     BASEPRI, r3
 331              	@ 0 "" 2
 332              	.LVL33:
 333              		.thumb
 334              	.LBE9:
 335              		.loc 1 184 0
 336 0038 BDE8F883 		pop	{r3, r4, r5, r6, r7, r8, r9, pc}
ARM GAS  C:\Users\DNIEL~1\AppData\Local\Temp\cczvk6aO.s 			page 7


 337              	.LVL34:
 338              	.L29:
 339              	.LBE10:
 340              		.loc 1 187 0
 341 003c 2046     		mov	r0, r4
 342 003e 3146     		mov	r1, r6
 343 0040 4A46     		mov	r2, r9
 344 0042 FFF7FEFF 		bl	can_lld_transmit
 345              	.LVL35:
 346              	.LBB11:
 347              		.loc 1 188 0
 348 0046 0023     		movs	r3, #0
 349              	.LVL36:
 350              	@ 188 "../../../ChibiOS/os/hal/src/can.c" 1
 351 0048 83F31188 		msr     BASEPRI, r3
 352              	@ 0 "" 2
 353              	.LVL37:
 354              		.thumb
 355              	.LBE11:
 356              		.loc 1 189 0
 357 004c 1846     		mov	r0, r3
 358              		.loc 1 190 0
 359 004e BDE8F883 		pop	{r3, r4, r5, r6, r7, r8, r9, pc}
 360              		.cfi_endproc
 361              	.LFE122:
 362              		.size	canTransmit, .-canTransmit
 363 0052 00BFAFF3 		.section	.text.canReceive,"ax",%progbits
 363      0080AFF3 
 363      0080AFF3 
 363      0080
 364              		.align	2
 365              		.p2align 4,,15
 366              		.global	canReceive
 367              		.thumb
 368              		.thumb_func
 369              		.type	canReceive, %function
 370              	canReceive:
 371              	.LFB123:
 372              		.loc 1 217 0
 373              		.cfi_startproc
 374              		@ args = 0, pretend = 0, frame = 0
 375              		@ frame_needed = 0, uses_anonymous_args = 0
 376              	.LVL38:
 377 0000 2DE9F843 		push	{r3, r4, r5, r6, r7, r8, r9, lr}
 378              	.LCFI4:
 379              		.cfi_def_cfa_offset 32
 380              		.cfi_offset 3, -32
 381              		.cfi_offset 4, -28
 382              		.cfi_offset 5, -24
 383              		.cfi_offset 6, -20
 384              		.cfi_offset 7, -16
 385              		.cfi_offset 8, -12
 386              		.cfi_offset 9, -8
 387              		.cfi_offset 14, -4
 388              		.loc 1 217 0
 389 0004 9846     		mov	r8, r3
 390 0006 0446     		mov	r4, r0
ARM GAS  C:\Users\DNIEL~1\AppData\Local\Temp\cczvk6aO.s 			page 8


 391 0008 0E46     		mov	r6, r1
 392 000a 9146     		mov	r9, r2
 393              	.LBB12:
 394              		.loc 1 222 0
 395 000c 2023     		movs	r3, #32
 396              	.LVL39:
 397              	@ 222 "../../../ChibiOS/os/hal/src/can.c" 1
 398 000e 83F31188 		msr     BASEPRI, r3
 399              	@ 0 "" 2
 400              	.LVL40:
 401              		.thumb
 402              	.LBE12:
 403              	.LBB13:
 404              		.loc 1 226 0
 405 0012 00F11407 		add	r7, r0, #20
 406              	.LVL41:
 407              	.L31:
 408              	.LBE13:
 409              		.loc 1 225 0 discriminator 1
 410 0016 2578     		ldrb	r5, [r4, #0]	@ zero_extendqisi2
 411 0018 042D     		cmp	r5, #4
 412 001a 3146     		mov	r1, r6
 413 001c 2046     		mov	r0, r4
 414 001e 02D0     		beq	.L33
 415              	.LVL42:
 416              		.loc 1 225 0 is_stmt 0 discriminator 2
 417 0020 FFF7FEFF 		bl	can_lld_is_rx_nonempty
 418              	.LVL43:
 419 0024 50B9     		cbnz	r0, .L44
 420              	.LVL44:
 421              	.L33:
 422              	.LBB15:
 423              		.loc 1 226 0 is_stmt 1
 424 0026 3846     		mov	r0, r7
 425 0028 4146     		mov	r1, r8
 426 002a FFF7FEFF 		bl	chSemWaitTimeoutS
 427              	.LVL45:
 428              		.loc 1 227 0
 429 002e 0028     		cmp	r0, #0
 430 0030 F1D0     		beq	.L31
 431              	.LBB14:
 432              		.loc 1 228 0
 433 0032 0023     		movs	r3, #0
 434              	.LVL46:
 435              	@ 228 "../../../ChibiOS/os/hal/src/can.c" 1
 436 0034 83F31188 		msr     BASEPRI, r3
 437              	@ 0 "" 2
 438              	.LVL47:
 439              		.thumb
 440              	.LBE14:
 441              		.loc 1 229 0
 442 0038 BDE8F883 		pop	{r3, r4, r5, r6, r7, r8, r9, pc}
 443              	.LVL48:
 444              	.L44:
 445              	.LBE15:
 446              		.loc 1 232 0
 447 003c 2046     		mov	r0, r4
ARM GAS  C:\Users\DNIEL~1\AppData\Local\Temp\cczvk6aO.s 			page 9


 448 003e 3146     		mov	r1, r6
 449 0040 4A46     		mov	r2, r9
 450 0042 FFF7FEFF 		bl	can_lld_receive
 451              	.LVL49:
 452              	.LBB16:
 453              		.loc 1 233 0
 454 0046 0023     		movs	r3, #0
 455              	.LVL50:
 456              	@ 233 "../../../ChibiOS/os/hal/src/can.c" 1
 457 0048 83F31188 		msr     BASEPRI, r3
 458              	@ 0 "" 2
 459              	.LVL51:
 460              		.thumb
 461              	.LBE16:
 462              		.loc 1 234 0
 463 004c 1846     		mov	r0, r3
 464              		.loc 1 235 0
 465 004e BDE8F883 		pop	{r3, r4, r5, r6, r7, r8, r9, pc}
 466              		.cfi_endproc
 467              	.LFE123:
 468              		.size	canReceive, .-canReceive
 469 0052 00BFAFF3 		.section	.text.canSleep,"ax",%progbits
 469      0080AFF3 
 469      0080AFF3 
 469      0080
 470              		.align	2
 471              		.p2align 4,,15
 472              		.global	canSleep
 473              		.thumb
 474              		.thumb_func
 475              		.type	canSleep, %function
 476              	canSleep:
 477              	.LFB124:
 478              		.loc 1 250 0
 479              		.cfi_startproc
 480              		@ args = 0, pretend = 0, frame = 0
 481              		@ frame_needed = 0, uses_anonymous_args = 0
 482              	.LVL52:
 483 0000 10B5     		push	{r4, lr}
 484              	.LCFI5:
 485              		.cfi_def_cfa_offset 8
 486              		.cfi_offset 4, -8
 487              		.cfi_offset 14, -4
 488              	.LBB17:
 489              		.loc 1 254 0
 490 0002 2023     		movs	r3, #32
 491              	.LVL53:
 492              	.LBE17:
 493              		.loc 1 250 0
 494 0004 0446     		mov	r4, r0
 495              	.LBB18:
 496              		.loc 1 254 0
 497              	@ 254 "../../../ChibiOS/os/hal/src/can.c" 1
 498 0006 83F31188 		msr     BASEPRI, r3
 499              	@ 0 "" 2
 500              	.LVL54:
 501              		.thumb
ARM GAS  C:\Users\DNIEL~1\AppData\Local\Temp\cczvk6aO.s 			page 10


 502              	.LBE18:
 503              		.loc 1 257 0
 504 000a 0378     		ldrb	r3, [r0, #0]	@ zero_extendqisi2
 505              	.LVL55:
 506 000c 032B     		cmp	r3, #3
 507 000e 03D0     		beq	.L47
 508              	.LVL56:
 509              	.L46:
 510              	.LBB19:
 511              		.loc 1 263 0
 512 0010 0023     		movs	r3, #0
 513              	.LVL57:
 514              	@ 263 "../../../ChibiOS/os/hal/src/can.c" 1
 515 0012 83F31188 		msr     BASEPRI, r3
 516              	@ 0 "" 2
 517              	.LVL58:
 518              		.thumb
 519 0016 10BD     		pop	{r4, pc}
 520              	.LVL59:
 521              	.L47:
 522              	.LBE19:
 523              		.loc 1 258 0
 524 0018 FFF7FEFF 		bl	can_lld_sleep
 525              	.LVL60:
 526              		.loc 1 259 0
 527 001c 2046     		mov	r0, r4
 528 001e 0421     		movs	r1, #4
 529 0020 00F82C1B 		strb	r1, [r0], #44
 530              		.loc 1 260 0
 531 0024 0021     		movs	r1, #0
 532 0026 FFF7FEFF 		bl	chEvtBroadcastFlagsI
 533              	.LVL61:
 534              		.loc 1 261 0
 535 002a FFF7FEFF 		bl	chSchRescheduleS
 536              	.LVL62:
 537 002e EFE7     		b	.L46
 538              		.cfi_endproc
 539              	.LFE124:
 540              		.size	canSleep, .-canSleep
 541              		.section	.text.canWakeup,"ax",%progbits
 542              		.align	2
 543              		.p2align 4,,15
 544              		.global	canWakeup
 545              		.thumb
 546              		.thumb_func
 547              		.type	canWakeup, %function
 548              	canWakeup:
 549              	.LFB125:
 550              		.loc 1 273 0
 551              		.cfi_startproc
 552              		@ args = 0, pretend = 0, frame = 0
 553              		@ frame_needed = 0, uses_anonymous_args = 0
 554              	.LVL63:
 555 0000 10B5     		push	{r4, lr}
 556              	.LCFI6:
 557              		.cfi_def_cfa_offset 8
 558              		.cfi_offset 4, -8
ARM GAS  C:\Users\DNIEL~1\AppData\Local\Temp\cczvk6aO.s 			page 11


 559              		.cfi_offset 14, -4
 560              	.LBB20:
 561              		.loc 1 277 0
 562 0002 2023     		movs	r3, #32
 563              	.LVL64:
 564              	.LBE20:
 565              		.loc 1 273 0
 566 0004 0446     		mov	r4, r0
 567              	.LBB21:
 568              		.loc 1 277 0
 569              	@ 277 "../../../ChibiOS/os/hal/src/can.c" 1
 570 0006 83F31188 		msr     BASEPRI, r3
 571              	@ 0 "" 2
 572              	.LVL65:
 573              		.thumb
 574              	.LBE21:
 575              		.loc 1 280 0
 576 000a 0378     		ldrb	r3, [r0, #0]	@ zero_extendqisi2
 577              	.LVL66:
 578 000c 042B     		cmp	r3, #4
 579 000e 03D0     		beq	.L50
 580              	.LVL67:
 581              	.L49:
 582              	.LBB22:
 583              		.loc 1 286 0
 584 0010 0023     		movs	r3, #0
 585              	.LVL68:
 586              	@ 286 "../../../ChibiOS/os/hal/src/can.c" 1
 587 0012 83F31188 		msr     BASEPRI, r3
 588              	@ 0 "" 2
 589              	.LVL69:
 590              		.thumb
 591 0016 10BD     		pop	{r4, pc}
 592              	.LVL70:
 593              	.L50:
 594              	.LBE22:
 595              		.loc 1 281 0
 596 0018 FFF7FEFF 		bl	can_lld_wakeup
 597              	.LVL71:
 598              		.loc 1 282 0
 599 001c 2046     		mov	r0, r4
 600 001e 0321     		movs	r1, #3
 601 0020 00F8301B 		strb	r1, [r0], #48
 602              		.loc 1 283 0
 603 0024 0021     		movs	r1, #0
 604 0026 FFF7FEFF 		bl	chEvtBroadcastFlagsI
 605              	.LVL72:
 606              		.loc 1 284 0
 607 002a FFF7FEFF 		bl	chSchRescheduleS
 608              	.LVL73:
 609 002e EFE7     		b	.L49
 610              		.cfi_endproc
 611              	.LFE125:
 612              		.size	canWakeup, .-canWakeup
 613              		.text
 614              	.Letext0:
 615              		.file 2 "c:\\chibistudio\\tools\\gnu tools arm embedded\\4.7 2014q2\\bin\\../lib/gcc/arm-none-eabi
ARM GAS  C:\Users\DNIEL~1\AppData\Local\Temp\cczvk6aO.s 			page 12


 616              		.file 3 "../../../ChibiOS/os/ports/GCC/ARMCMx/chtypes.h"
 617              		.file 4 "../../../ChibiOS/os/kernel/include/chlists.h"
 618              		.file 5 "../../../ChibiOS/os/kernel/include/chthreads.h"
 619              		.file 6 "../../../ChibiOS/os/ports/GCC/ARMCMx/chcore_v7m.h"
 620              		.file 7 "../../../ChibiOS/os/kernel/include/chsem.h"
 621              		.file 8 "../../../ChibiOS/os/kernel/include/chmtx.h"
 622              		.file 9 "../../../ChibiOS/os/kernel/include/chevents.h"
 623              		.file 10 "../../../ChibiOS/os/hal/platforms/STM32F4xx/stm32f4xx.h"
 624              		.file 11 "../../../ChibiOS/os/hal/include/can.h"
 625              		.file 12 "../../../ChibiOS/os/hal/platforms/STM32/can_lld.h"
 626              		.file 13 "../../../ChibiOS/os/kernel/include/chschd.h"
 627              		.file 14 "../../../ChibiOS/os/ports/common/ARMCMx/CMSIS/include/core_cm4.h"