ARM GAS  C:\Users\DNIEL~1\AppData\Local\Temp\cczvk6aO.s 			page 1


   1              		.syntax unified
   2              		.cpu cortex-m4
   3              		.fpu softvfp
   4              		.eabi_attribute 20, 1
   5              		.eabi_attribute 21, 1
   6              		.eabi_attribute 23, 3
   7              		.eabi_attribute 24, 1
   8              		.eabi_attribute 25, 1
   9              		.eabi_attribute 26, 1
  10              		.eabi_attribute 30, 2
  11              		.eabi_attribute 34, 1
  12              		.eabi_attribute 18, 4
  13              		.thumb
  14              		.file	"can.c"
  15              		.text
  16              	.Ltext0:
  17              		.cfi_sections	.debug_frame
  18              		.section	.text.canInit,"ax",%progbits
  19              		.align	2
  20              		.p2align 4,,15
  21              		.global	canInit
  22              		.thumb
  23              		.thumb_func
  24              		.type	canInit, %function
  25              	canInit:
  26              	.LFB118:
  27              		.file 1 "../../../ChibiOS/os/hal/src/can.c"
  28              		.loc 1 68 0
  29              		.cfi_startproc
  30              		@ args = 0, pretend = 0, frame = 0
  31              		@ frame_needed = 0, uses_anonymous_args = 0
  32              		@ link register save eliminated.
  33              		.loc 1 71 0
  34              		.loc 1 70 0
  35 0000 FFF7FEBF 		b	can_lld_init
  36              	.LVL0:
  37              		.cfi_endproc
  38              	.LFE118:
  39              		.size	canInit, .-canInit
  40 0004 AFF30080 		.section	.text.canObjectInit,"ax",%progbits
  40      AFF30080 
  40      AFF30080 
  41              		.align	2
  42              		.p2align 4,,15
  43              		.global	canObjectInit
  44              		.thumb
  45              		.thumb_func
  46              		.type	canObjectInit, %function
  47              	canObjectInit:
  48              	.LFB119:
  49              		.loc 1 80 0
  50              		.cfi_startproc
  51              		@ args = 0, pretend = 0, frame = 0
  52              		@ frame_needed = 0, uses_anonymous_args = 0
  53              	.LVL1:
  54 0000 38B5     		push	{r3, r4, r5, lr}
  55              	.LCFI0:
ARM GAS  C:\Users\DNIEL~1\AppData\Local\Temp\cczvk6aO.s 			page 2


  56              		.cfi_def_cfa_offset 16
  57              		.cfi_offset 3, -16
  58              		.cfi_offset 4, -12
  59              		.cfi_offset 5, -8
  60              		.cfi_offset 14, -4
  61              		.loc 1 80 0
  62 0002 0446     		mov	r4, r0
  63              		.loc 1 83 0
  64 0004 0025     		movs	r5, #0
  65              		.loc 1 82 0
  66 0006 0123     		movs	r3, #1
  67              		.loc 1 84 0
  68 0008 2946     		mov	r1, r5
  69              		.loc 1 82 0
  70 000a 2370     		strb	r3, [r4, #0]
  71              		.loc 1 84 0
  72 000c 00F10800 		add	r0, r0, #8
  73              	.LVL2:
  74              		.loc 1 83 0
  75 0010 6560     		str	r5, [r4, #4]
  76              		.loc 1 84 0
  77 0012 FFF7FEFF 		bl	chSemInit
  78              	.LVL3:
  79              		.loc 1 85 0
  80 0016 2946     		mov	r1, r5
  81 0018 04F11400 		add	r0, r4, #20
  82 001c FFF7FEFF 		bl	chSemInit
  83              	.LVL4:
  84              		.loc 1 86 0
  85 0020 04F12005 		add	r5, r4, #32
  86              		.loc 1 87 0
  87 0024 04F12400 		add	r0, r4, #36
  88              		.loc 1 88 0
  89 0028 04F12801 		add	r1, r4, #40
  90              		.loc 1 90 0
  91 002c 04F12C02 		add	r2, r4, #44
  92              		.loc 1 91 0
  93 0030 04F13003 		add	r3, r4, #48
  94              		.loc 1 86 0
  95 0034 2562     		str	r5, [r4, #32]
  96              		.loc 1 87 0
  97 0036 6062     		str	r0, [r4, #36]
  98              		.loc 1 88 0
  99 0038 A162     		str	r1, [r4, #40]
 100              		.loc 1 90 0
 101 003a E262     		str	r2, [r4, #44]
 102              		.loc 1 91 0
 103 003c 2363     		str	r3, [r4, #48]
 104 003e 38BD     		pop	{r3, r4, r5, pc}
 105              		.cfi_endproc
 106              	.LFE119:
 107              		.size	canObjectInit, .-canObjectInit
 108              		.section	.text.canStart,"ax",%progbits
 109              		.align	2
 110              		.p2align 4,,15
 111              		.global	canStart
 112              		.thumb
ARM GAS  C:\Users\DNIEL~1\AppData\Local\Temp\cczvk6aO.s 			page 3


 113              		.thumb_func
 114              		.type	canStart, %function
 115              	canStart:
 116              	.LFB120:
 117              		.loc 1 107 0
 118              		.cfi_startproc
 119              		@ args = 0, pretend = 0, frame = 0
 120              		@ frame_needed = 0, uses_anonymous_args = 0
 121              	.LVL5:
 122 0000 38B5     		push	{r3, r4, r5, lr}
 123              	.LCFI1:
 124              		.cfi_def_cfa_offset 16
 125              		.cfi_offset 3, -16
 126              		.cfi_offset 4, -12
 127              		.cfi_offset 5, -8
 128              		.cfi_offset 14, -4
 129              		.loc 1 107 0
 130 0002 0446     		mov	r4, r0
 131 0004 0D46     		mov	r5, r1
 132              	.LBB2:
 133              		.loc 1 111 0
 134 0006 2023     		movs	r3, #32
 135              	.LVL6:
 136              	@ 111 "../../../ChibiOS/os/hal/src/can.c" 1
 137 0008 83F31188 		msr     BASEPRI, r3
 138              	@ 0 "" 2
 139              	.LVL7:
 140              		.thumb
 141              	.LBE2:
 142              		.loc 1 116 0
 143 000c 0378     		ldrb	r3, [r0, #0]	@ zero_extendqisi2
 144              	.LVL8:
 145 000e 022B     		cmp	r3, #2
 146 0010 06D1     		bne	.L4
 147              	.LVL9:
 148              	.L9:
 149              		.loc 1 117 0
 150 0012 0620     		movs	r0, #6
 151 0014 0121     		movs	r1, #1
 152 0016 FFF7FEFF 		bl	chSchGoSleepTimeoutS
 153              	.LVL10:
 154              		.loc 1 116 0
 155 001a 2378     		ldrb	r3, [r4, #0]	@ zero_extendqisi2
 156 001c 022B     		cmp	r3, #2
 157 001e F8D0     		beq	.L9
 158              	.L4:
 159              		.loc 1 118 0
 160 0020 012B     		cmp	r3, #1
 161 0022 03D0     		beq	.L13
 162              	.L6:
 163              	.LBB3:
 164              		.loc 1 123 0
 165 0024 0023     		movs	r3, #0
 166              	.LVL11:
 167              	@ 123 "../../../ChibiOS/os/hal/src/can.c" 1
 168 0026 83F31188 		msr     BASEPRI, r3
 169              	@ 0 "" 2
ARM GAS  C:\Users\DNIEL~1\AppData\Local\Temp\cczvk6aO.s 			page 4


 170              	.LVL12:
 171              		.thumb
 172 002a 38BD     		pop	{r3, r4, r5, pc}
 173              	.LVL13:
 174              	.L13:
 175              	.LBE3:
 176              		.loc 1 120 0
 177 002c 2046     		mov	r0, r4
 178              		.loc 1 119 0
 179 002e 6560     		str	r5, [r4, #4]
 180              		.loc 1 120 0
 181 0030 FFF7FEFF 		bl	can_lld_start
 182              	.LVL14:
 183              		.loc 1 121 0
 184 0034 0320     		movs	r0, #3
 185 0036 2070     		strb	r0, [r4, #0]
 186 0038 F4E7     		b	.L6
 187              		.cfi_endproc
 188              	.LFE120:
 189              		.size	canStart, .-canStart
 190 003a 00BFAFF3 		.section	.text.canStop,"ax",%progbits
 190      0080
 191              		.align	2
 192              		.p2align 4,,15
 193              		.global	canStop
 194              		.thumb
 195              		.thumb_func
 196              		.type	canStop, %function
 197              	canStop:
 198              	.LFB121:
 199              		.loc 1 133 0
 200              		.cfi_startproc
 201              		@ args = 0, pretend = 0, frame = 0
 202              		@ frame_needed = 0, uses_anonymous_args = 0
 203              	.LVL15:
 204 0000 10B5     		push	{r4, lr}
 205              	.LCFI2:
 206              		.cfi_def_cfa_offset 8
 207              		.cfi_offset 4, -8
 208              		.cfi_offset 14, -4
 209              	.LBB4:
 210              		.loc 1 137 0
 211 0002 2023     		movs	r3, #32
 212              	.LVL16:
 213              	.LBE4:
 214              		.loc 1 133 0
 215 0004 0446     		mov	r4, r0
 216              	.LBB5:
 217              		.loc 1 137 0
 218              	@ 137 "../../../ChibiOS/os/hal/src/can.c" 1
 219 0006 83F31188 		msr     BASEPRI, r3
 220              	@ 0 "" 2
 221              	.LVL17:
 222              		.thumb
 223              	.LBE5:
 224              		.loc 1 140 0
 225 000a FFF7FEFF 		bl	can_lld_stop
ARM GAS  C:\Users\DNIEL~1\AppData\Local\Temp\cczvk6aO.s 			page 5


 226              	.LVL18:
 227              		.loc 1 141 0
 228 000e 2046     		mov	r0, r4
 229 0010 0123     		movs	r3, #1
 230 0012 00F8143B 		strb	r3, [r0], #20
 231              		.loc 1 142 0
 232 0016 0021     		movs	r1, #0
 233 0018 FFF7FEFF 		bl	chSemResetI
 234              	.LVL19:
 235              		.loc 1 143 0
 236 001c 04F10800 		add	r0, r4, #8
 237 0020 0021     		movs	r1, #0
 238 0022 FFF7FEFF 		bl	chSemResetI
 239              	.LVL20:
 240              		.loc 1 144 0
 241 0026 FFF7FEFF 		bl	chSchRescheduleS
 242              	.LVL21:
 243              	.LBB6:
 244              		.loc 1 145 0
 245 002a 0023     		movs	r3, #0
 246              	.LVL22:
 247              	@ 145 "../../../ChibiOS/os/hal/src/can.c" 1
 248 002c 83F31188 		msr     BASEPRI, r3
 249              	@ 0 "" 2
 250              	.LVL23:
 251              		.thumb
 252 0030 10BD     		pop	{r4, pc}
 253              	.LBE6:
 254              		.cfi_endproc
 255              	.LFE121:
 256              		.size	canStop, .-canStop
 257 0032 00BFAFF3 		.section	.text.canTransmit,"ax",%progbits
 257      0080AFF3 
 257      0080AFF3 
 257      0080
 258              		.align	2
 259              		.p2align 4,,15
 260              		.global	canTransmit
 261              		.thumb
 262              		.thumb_func
 263              		.type	canTransmit, %function
 264              	canTransmit:
 265              	.LFB122:
 266              		.loc 1 172 0
 267              		.cfi_startproc
 268              		@ args = 0, pretend = 0, frame = 0
 269              		@ frame_needed = 0, uses_anonymous_args = 0
 270              	.LVL24:
 271 0000 2DE9F843 		push	{r3, r4, r5, r6, r7, r8, r9, lr}
 272              	.LCFI3:
 273              		.cfi_def_cfa_offset 32
 274              		.cfi_offset 3, -32
 275              		.cfi_offset 4, -28
 276              		.cfi_offset 5, -24
 277              		.cfi_offset 6, -20
 278              		.cfi_offset 7, -16
 279              		.cfi_offset 8, -12
ARM GAS  C:\Users\DNIEL~1\AppData\Local\Temp\cczvk6aO.s 			page 6


 280              		.cfi_offset 9, -8
 281              		.cfi_offset 14, -4
 282              		.loc 1 172 0
 283 0004 9846     		mov	r8, r3
 284 0006 0446     		mov	r4, r0
 285 0008 0E46     		mov	r6, r1
 286 000a 9146     		mov	r9, r2
 287              	.LBB7:
 288              		.loc 1 177 0
 289 000c 2023     		movs	r3, #32
 290              	.LVL25:
 291              	@ 177 "../../../ChibiOS/os/hal/src/can.c" 1
 292 000e 83F31188 		msr     BASEPRI, r3
 293              	@ 0 "" 2
 294              	.LVL26:
 295              		.thumb
 296              	.LBE7:
 297              	.LBB8:
 298              		.loc 1 181 0
 299 0012 00F10807 		add	r7, r0, #8
 300              	.LVL27:
 301              	.L16:
 302              	.LBE8:
 303              		.loc 1 180 0 discriminator 1
 304 0016 2578     		ldrb	r5, [r4, #0]	@ zero_extendqisi2
 305 0018 042D     		cmp	r5, #4
 306 001a 3146     		mov	r1, r6
 307 001c 2046     		mov	r0, r4
 308 001e 02D0     		beq	.L18
 309              	.LVL28:
 310              		.loc 1 180 0 is_stmt 0 discriminator 2
 311 0020 FFF7FEFF 		bl	can_lld_is_tx_empty
 312              	.LVL29:
 313 0024 50B9     		cbnz	r0, .L29
 314              	.LVL30:
 315              	.L18:
 316              	.LBB10:
 317              		.loc 1 181 0 is_stmt 1
 318 0026 3846     		mov	r0, r7
 319 0028 4146     		mov	r1, r8
 320 002a FFF7FEFF 		bl	chSemWaitTimeoutS
 321              	.LVL31:
 322              		.loc 1 182 0
 323 002e 0028     		cmp	r0, #0
 324 0030 F1D0     		beq	.L16
 325              	.LBB9:
 326              		.loc 1 183 0
 327 0032 0023     		movs	r3, #0
 328              	.LVL32:
 329              	@ 183 "../../../ChibiOS/os/hal/src/can.c" 1
 330 0034 83F31188 		msr     BASEPRI, r3
 331              	@ 0 "" 2
 332              	.LVL33:
 333              		.thumb
 334              	.LBE9:
 335              		.loc 1 184 0
 336 0038 BDE8F883 		pop	{r3, r4, r5, r6, r7, r8, r9, pc}
ARM GAS  C:\Users\DNIEL~1\AppData\Local\Temp\cczvk6aO.s 			page 7


 337              	.LVL34:
 338              	.L29:
 339              	.LBE10:
 340              		.loc 1 187 0
 341 003c 2046     		mov	r0, r4
 342 003e 3146     		mov	r1, r6
 343 0040 4A46     		mov	r2, r9
 344 0042 FFF7FEFF 		bl	can_lld_transmit
 345              	.LVL35:
 346              	.LBB11:
 347              		.loc 1 188 0
 348 0046 0023     		movs	r3, #0
 349              	.LVL36:
 350              	@ 188 "../../../ChibiOS/os/hal/src/can.c" 1
 351 0048 83F31188 		msr     BASEPRI, r3
 352              	@ 0 "" 2
 353              	.LVL37:
 354              		.thumb
 355              	.LBE11:
 356              		.loc 1 189 0
 357 004c 1846     		mov	r0, r3
 358              		.loc 1 190 0
 359 004e BDE8F883 		pop	{r3, r4, r5, r6, r7, r8, r9, pc}
 360              		.cfi_endproc
 361              	.LFE122:
 362              		.size	canTransmit, .-canTransmit
 363 0052 00BFAFF3 		.section	.text.canReceive,"ax",%progbits
 363      0080AFF3 
 363      0080AFF3 
 363      0080
 364              		.align	2
 365              		.p2align 4,,15
 366              		.global	canReceive
 367              		.thumb
 368              		.thumb_func
 369              		.type	canReceive, %function
 370              	canReceive:
 371              	.LFB123:
 372              		.loc 1 217 0
 373              		.cfi_startproc
 374              		@ args = 0, pretend = 0, frame = 0
 375              		@ frame_needed = 0, uses_anonymous_args = 0
 376              	.LVL38:
 377 0000 2DE9F843 		push	{r3, r4, r5, r6, r7, r8, r9, lr}
 378              	.LCFI4:
 379              		.cfi_def_cfa_offset 32
 380              		.cfi_offset 3, -32
 381              		.cfi_offset 4, -28
 382              		.cfi_offset 5, -24
 383              		.cfi_offset 6, -20
 384              		.cfi_offset 7, -16
 385              		.cfi_offset 8, -12
 386              		.cfi_offset 9, -8
 387              		.cfi_offset 14, -4
 388              		.loc 1 217 0
 389 0004 9846     		mov	r8, r3
 390 0006 0446     		mov	r4, r0
ARM GAS  C:\Users\DNIEL~1\AppData\Local\Temp\cczvk6aO.s 			page 8


 391 0008 0E46     		mov	r6, r1
 392 000a 9146     		mov	r9, r2
 393              	.LBB12:
 394              		.loc 1 222 0
 395 000c 2023     		movs	r3, #32
 396              	.LVL39:
 397              	@ 222 "../../../ChibiOS/os/hal/src/can.c" 1
 398 000e 83F31188 		msr     BASEPRI, r3
 399              	@ 0 "" 2
 400              	.LVL40:
 401              		.thumb
 402              	.LBE12:
 403              	.LBB13:
 404              		.loc 1 226 0
 405 0012 00F11407 		add	r7, r0, #20
 406              	.LVL41:
 407              	.L31:
 408              	.LBE13:
 409              		.loc 1 225 0 discriminator 1
 410 0016 2578     		ldrb	r5, [r4, #0]	@ zero_extendqisi2
 411 0018 042D     		cmp	r5, #4
 412 001a 3146     		mov	r1, r6
 413 001c 2046     		mov	r0, r4
 414 001e 02D0     		beq	.L33
 415              	.LVL42:
 416              		.loc 1 225 0 is_stmt 0 discriminator 2
 417 0020 FFF7FEFF 		bl	can_lld_is_rx_nonempty
 418              	.LVL43:
 419 0024 50B9     		cbnz	r0, .L44
 420              	.LVL44:
 421              	.L33:
 422              	.LBB15:
 423              		.loc 1 226 0 is_stmt 1
 424 0026 3846     		mov	r0, r7
 425 0028 4146     		mov	r1, r8
 426 002a FFF7FEFF 		bl	chSemWaitTimeoutS
 427              	.LVL45:
 428              		.loc 1 227 0
 429 002e 0028     		cmp	r0, #0
 430 0030 F1D0     		beq	.L31
 431              	.LBB14:
 432              		.loc 1 228 0
 433 0032 0023     		movs	r3, #0
 434              	.LVL46:
 435              	@ 228 "../../../ChibiOS/os/hal/src/can.c" 1
 436 0034 83F31188 		msr     BASEPRI, r3
 437              	@ 0 "" 2
 438              	.LVL47:
 439              		.thumb
 440              	.LBE14:
 441              		.loc 1 229 0
 442 0038 BDE8F883 		pop	{r3, r4, r5, r6, r7, r8, r9, pc}
 443              	.LVL48:
 444              	.L44:
 445              	.LBE15:
 446              		.loc 1 232 0
 447 003c 2046     		mov	r0, r4
ARM GAS  C:\Users\DNIEL~1\AppData\Local\Temp\cczvk6aO.s 			page 9


 448 003e 3146     		mov	r1, r6
 449 0040 4A46     		mov	r2, r9
 450 0042 FFF7FEFF 		bl	can_lld_receive
 451              	.LVL49:
 452              	.LBB16:
 453              		.loc 1 233 0
 454 0046 0023     		movs	r3, #0
 455              	.LVL50:
 456              	@ 233 "../../../ChibiOS/os/hal/src/can.c" 1
 457 0048 83F31188 		msr     BASEPRI, r3
 458              	@ 0 "" 2
 459              	.LVL51:
 460              		.thumb
 461              	.LBE16:
 462              		.loc 1 234 0
 463 004c 1846     		mov	r0, r3
 464              		.loc 1 235 0
 465 004e BDE8F883 		pop	{r3, r4, r5, r6, r7, r8, r9, pc}
 466              		.cfi_endproc
 467              	.LFE123:
 468              		.size	canReceive, .-canReceive
 469 0052 00BFAFF3 		.section	.text.canSleep,"ax",%progbits
 469      0080AFF3 
 469      0080AFF3 
 469      0080
 470              		.align	2
 471              		.p2align 4,,15
 472              		.global	canSleep
 473              		.thumb
 474              		.thumb_func
 475              		.type	canSleep, %function
 476              	canSleep:
 477              	.LFB124:
 478              		.loc 1 250 0
 479              		.cfi_startproc
 480              		@ args = 0, pretend = 0, frame = 0
 481              		@ frame_needed = 0, uses_anonymous_args = 0
 482              	.LVL52:
 483 0000 10B5     		push	{r4, lr}
 484              	.LCFI5:
 485              		.cfi_def_cfa_offset 8
 486              		.cfi_offset 4, -8
 487              		.cfi_offset 14, -4
 488              	.LBB17:
 489              		.loc 1 254 0
 490 0002 2023     		movs	r3, #32
 491              	.LVL53:
 492              	.LBE17:
 493              		.loc 1 250 0
 494 0004 0446     		mov	r4, r0
 495              	.LBB18:
 496              		.loc 1 254 0
 497              	@ 254 "../../../ChibiOS/os/hal/src/can.c" 1
 498 0006 83F31188 		msr     BASEPRI, r3
 499              	@ 0 "" 2
 500              	.LVL54:
 501              		.thumb
ARM GAS  C:\Users\DNIEL~1\AppData\Local\Temp\cczvk6aO.s 			page 10


 502              	.LBE18:
 503              		.loc 1 257 0
 504 000a 0378     		ldrb	r3, [r0, #0]	@ zero_extendqisi2
 505              	.LVL55:
 506 000c 032B     		cmp	r3, #3
 507 000e 03D0     		beq	.L47
 508              	.LVL56:
 509              	.L46:
 510              	.LBB19:
 511              		.loc 1 263 0
 512 0010 0023     		movs	r3, #0
 513              	.LVL57:
 514              	@ 263 "../../../ChibiOS/os/hal/src/can.c" 1
 515 0012 83F31188 		msr     BASEPRI, r3
 516              	@ 0 "" 2
 517              	.LVL58:
 518              		.thumb
 519 0016 10BD     		pop	{r4, pc}
 520              	.LVL59:
 521              	.L47:
 522              	.LBE19:
 523              		.loc 1 258 0
 524 0018 FFF7FEFF 		bl	can_lld_sleep
 525              	.LVL60:
 526              		.loc 1 259 0
 527 001c 2046     		mov	r0, r4
 528 001e 0421     		movs	r1, #4
 529 0020 00F82C1B 		strb	r1, [r0], #44
 530              		.loc 1 260 0
 531 0024 0021     		movs	r1, #0
 532 0026 FFF7FEFF 		bl	chEvtBroadcastFlagsI
 533              	.LVL61:
 534              		.loc 1 261 0
 535 002a FFF7FEFF 		bl	chSchRescheduleS
 536              	.LVL62:
 537 002e EFE7     		b	.L46
 538              		.cfi_endproc
 539              	.LFE124:
 540              		.size	canSleep, .-canSleep
 541              		.section	.text.canWakeup,"ax",%progbits
 542              		.align	2
 543              		.p2align 4,,15
 544              		.global	canWakeup
 545              		.thumb
 546              		.thumb_func
 547              		.type	canWakeup, %function
 548              	canWakeup:
 549              	.LFB125:
 550              		.loc 1 273 0
 551              		.cfi_startproc
 552              		@ args = 0, pretend = 0, frame = 0
 553              		@ frame_needed = 0, uses_anonymous_args = 0
 554              	.LVL63:
 555 0000 10B5     		push	{r4, lr}
 556              	.LCFI6:
 557              		.cfi_def_cfa_offset 8
 558              		.cfi_offset 4, -8
ARM GAS  C:\Users\DNIEL~1\AppData\Local\Temp\cczvk6aO.s 			page 11


 559              		.cfi_offset 14, -4
 560              	.LBB20:
 561              		.loc 1 277 0
 562 0002 2023     		movs	r3, #32
 563              	.LVL64:
 564              	.LBE20:
 565              		.loc 1 273 0
 566 0004 0446     		mov	r4, r0
 567              	.LBB21:
 568              		.loc 1 277 0
 569              	@ 277 "../../../ChibiOS/os/hal/src/can.c" 1
 570 0006 83F31188 		msr     BASEPRI, r3
 571              	@ 0 "" 2
 572              	.LVL65:
 573              		.thumb
 574              	.LBE21:
 575              		.loc 1 280 0
 576 000a 0378     		ldrb	r3, [r0, #0]	@ zero_extendqisi2
 577              	.LVL66:
 578 000c 042B     		cmp	r3, #4
 579 000e 03D0     		beq	.L50
 580              	.LVL67:
 581              	.L49:
 582              	.LBB22:
 583              		.loc 1 286 0
 584 0010 0023     		movs	r3, #0
 585              	.LVL68:
 586              	@ 286 "../../../ChibiOS/os/hal/src/can.c" 1
 587 0012 83F31188 		msr     BASEPRI, r3
 588              	@ 0 "" 2
 589              	.LVL69:
 590              		.thumb
 591 0016 10BD     		pop	{r4, pc}
 592              	.LVL70:
 593              	.L50:
 594              	.LBE22:
 595              		.loc 1 281 0
 596 0018 FFF7FEFF 		bl	can_lld_wakeup
 597              	.LVL71:
 598              		.loc 1 282 0
 599 001c 2046     		mov	r0, r4
 600 001e 0321     		movs	r1, #3
 601 0020 00F8301B 		strb	r1, [r0], #48
 602              		.loc 1 283 0
 603 0024 0021     		movs	r1, #0
 604 0026 FFF7FEFF 		bl	chEvtBroadcastFlagsI
 605              	.LVL72:
 606              		.loc 1 284 0
 607 002a FFF7FEFF 		bl	chSchRescheduleS
 608              	.LVL73:
 609 002e EFE7     		b	.L49
 610              		.cfi_endproc
 611              	.LFE125:
 612              		.size	canWakeup, .-canWakeup
 613              		.text
 614              	.Letext0:
 615              		.file 2 "c:\\chibistudio\\tools\\gnu tools arm embedded\\4.7 2014q2\\bin\\../lib/gcc/arm-none-eabi
ARM GAS  C:\Users\DNIEL~1\AppData\Local\Temp\cczvk6aO.s 			page 12


 616              		.file 3 "../../../ChibiOS/os/ports/GCC/ARMCMx/chtypes.h"
 617              		.file 4 "../../../ChibiOS/os/kernel/include/chlists.h"
 618              		.file 5 "../../../ChibiOS/os/kernel/include/chthreads.h"
 619              		.file 6 "../../../ChibiOS/os/ports/GCC/ARMCMx/chcore_v7m.h"
 620              		.file 7 "../../../ChibiOS/os/kernel/include/chsem.h"
 621              		.file 8 "../../../ChibiOS/os/kernel/include/chmtx.h"
 622              		.file 9 "../../../ChibiOS/os/kernel/include/chevents.h"
 623              		.file 10 "../../../ChibiOS/os/hal/platforms/STM32F4xx/stm32f4xx.h"
 624              		.file 11 "../../../ChibiOS/os/hal/include/can.h"
 625              		.file 12 "../../../ChibiOS/os/hal/platforms/STM32/can_lld.h"
 626              		.file 13 "../../../ChibiOS/os/kernel/include/chschd.h"
 627              		.file 14 "../../../ChibiOS/os/ports/common/ARMCMx/CMSIS/include/core_cm4.h"
 628              		.section	.debug_info,"",%progbits
 629              	.Ldebug_info0:
 630 0000 40110000 		.4byte	0x1140
 631 0004 0200     		.2byte	0x2
 632 0006 00000000 		.4byte	.Ldebug_abbrev0
 633 000a 04       		.byte	0x4
 634 000b 01       		.uleb128 0x1
 635 000c D3020000 		.4byte	.LASF146
 636 0010 01       		.byte	0x1
 637 0011 6D050000 		.4byte	.LASF147
 638 0015 42050000 		.4byte	.LASF148
 639 0019 78000000 		.4byte	.Ldebug_ranges0+0x78
 640 001d 00000000 		.4byte	0
 641 0021 00000000 		.4byte	0
 642 0025 00000000 		.4byte	.Ldebug_line0
 643 0029 02       		.uleb128 0x2
 644 002a 04       		.byte	0x4
 645 002b 05       		.byte	0x5
 646 002c 696E7400 		.ascii	"int\000"
 647 0030 03       		.uleb128 0x3
 648 0031 04       		.byte	0x4
 649 0032 07       		.byte	0x7
 650 0033 D1010000 		.4byte	.LASF0
 651 0037 03       		.uleb128 0x3
 652 0038 01       		.byte	0x1
 653 0039 06       		.byte	0x6
 654 003a 89000000 		.4byte	.LASF1
 655 003e 04       		.uleb128 0x4
 656 003f B3050000 		.4byte	.LASF4
 657 0043 02       		.byte	0x2
 658 0044 2A       		.byte	0x2a
 659 0045 49000000 		.4byte	0x49
 660 0049 03       		.uleb128 0x3
 661 004a 01       		.byte	0x1
 662 004b 08       		.byte	0x8
 663 004c D7030000 		.4byte	.LASF2
 664 0050 03       		.uleb128 0x3
 665 0051 02       		.byte	0x2
 666 0052 05       		.byte	0x5
 667 0053 1E040000 		.4byte	.LASF3
 668 0057 04       		.uleb128 0x4
 669 0058 28010000 		.4byte	.LASF5
 670 005c 02       		.byte	0x2
 671 005d 36       		.byte	0x36
 672 005e 62000000 		.4byte	0x62
ARM GAS  C:\Users\DNIEL~1\AppData\Local\Temp\cczvk6aO.s 			page 13


 673 0062 03       		.uleb128 0x3
 674 0063 02       		.byte	0x2
 675 0064 07       		.byte	0x7
 676 0065 65010000 		.4byte	.LASF6
 677 0069 04       		.uleb128 0x4
 678 006a CF030000 		.4byte	.LASF7
 679 006e 02       		.byte	0x2
 680 006f 4F       		.byte	0x4f
 681 0070 74000000 		.4byte	0x74
 682 0074 03       		.uleb128 0x3
 683 0075 04       		.byte	0x4
 684 0076 05       		.byte	0x5
 685 0077 EA000000 		.4byte	.LASF8
 686 007b 04       		.uleb128 0x4
 687 007c 7F040000 		.4byte	.LASF9
 688 0080 02       		.byte	0x2
 689 0081 50       		.byte	0x50
 690 0082 86000000 		.4byte	0x86
 691 0086 03       		.uleb128 0x3
 692 0087 04       		.byte	0x4
 693 0088 07       		.byte	0x7
 694 0089 96040000 		.4byte	.LASF10
 695 008d 03       		.uleb128 0x3
 696 008e 08       		.byte	0x8
 697 008f 05       		.byte	0x5
 698 0090 7B000000 		.4byte	.LASF11
 699 0094 03       		.uleb128 0x3
 700 0095 08       		.byte	0x8
 701 0096 07       		.byte	0x7
 702 0097 49000000 		.4byte	.LASF12
 703 009b 04       		.uleb128 0x4
 704 009c B2000000 		.4byte	.LASF13
 705 00a0 03       		.byte	0x3
 706 00a1 2B       		.byte	0x2b
 707 00a2 A6000000 		.4byte	0xa6
 708 00a6 03       		.uleb128 0x3
 709 00a7 01       		.byte	0x1
 710 00a8 02       		.byte	0x2
 711 00a9 C9030000 		.4byte	.LASF14
 712 00ad 04       		.uleb128 0x4
 713 00ae 4E020000 		.4byte	.LASF15
 714 00b2 03       		.byte	0x3
 715 00b3 2C       		.byte	0x2c
 716 00b4 3E000000 		.4byte	0x3e
 717 00b8 04       		.uleb128 0x4
 718 00b9 F3000000 		.4byte	.LASF16
 719 00bd 03       		.byte	0x3
 720 00be 2D       		.byte	0x2d
 721 00bf 3E000000 		.4byte	0x3e
 722 00c3 04       		.uleb128 0x4
 723 00c4 0A000000 		.4byte	.LASF17
 724 00c8 03       		.byte	0x3
 725 00c9 2E       		.byte	0x2e
 726 00ca 3E000000 		.4byte	0x3e
 727 00ce 04       		.uleb128 0x4
 728 00cf D5000000 		.4byte	.LASF18
 729 00d3 03       		.byte	0x3
ARM GAS  C:\Users\DNIEL~1\AppData\Local\Temp\cczvk6aO.s 			page 14


 730 00d4 2F       		.byte	0x2f
 731 00d5 3E000000 		.4byte	0x3e
 732 00d9 04       		.uleb128 0x4
 733 00da AE030000 		.4byte	.LASF19
 734 00de 03       		.byte	0x3
 735 00df 30       		.byte	0x30
 736 00e0 7B000000 		.4byte	0x7b
 737 00e4 04       		.uleb128 0x4
 738 00e5 40020000 		.4byte	.LASF20
 739 00e9 03       		.byte	0x3
 740 00ea 31       		.byte	0x31
 741 00eb 69000000 		.4byte	0x69
 742 00ef 04       		.uleb128 0x4
 743 00f0 72020000 		.4byte	.LASF21
 744 00f4 03       		.byte	0x3
 745 00f5 33       		.byte	0x33
 746 00f6 7B000000 		.4byte	0x7b
 747 00fa 04       		.uleb128 0x4
 748 00fb 1B050000 		.4byte	.LASF22
 749 00ff 03       		.byte	0x3
 750 0100 34       		.byte	0x34
 751 0101 7B000000 		.4byte	0x7b
 752 0105 04       		.uleb128 0x4
 753 0106 D2040000 		.4byte	.LASF23
 754 010a 03       		.byte	0x3
 755 010b 35       		.byte	0x35
 756 010c 7B000000 		.4byte	0x7b
 757 0110 04       		.uleb128 0x4
 758 0111 CB010000 		.4byte	.LASF24
 759 0115 03       		.byte	0x3
 760 0116 36       		.byte	0x36
 761 0117 69000000 		.4byte	0x69
 762 011b 04       		.uleb128 0x4
 763 011c 5E040000 		.4byte	.LASF25
 764 0120 04       		.byte	0x4
 765 0121 2A       		.byte	0x2a
 766 0122 26010000 		.4byte	0x126
 767 0126 05       		.uleb128 0x5
 768 0127 5E040000 		.4byte	.LASF25
 769 012b 48       		.byte	0x48
 770 012c 05       		.byte	0x5
 771 012d 5E       		.byte	0x5e
 772 012e 4B020000 		.4byte	0x24b
 773 0132 06       		.uleb128 0x6
 774 0133 41040000 		.4byte	.LASF26
 775 0137 05       		.byte	0x5
 776 0138 5F       		.byte	0x5f
 777 0139 70020000 		.4byte	0x270
 778 013d 02       		.byte	0x2
 779 013e 23       		.byte	0x23
 780 013f 00       		.uleb128 0
 781 0140 06       		.uleb128 0x6
 782 0141 A7030000 		.4byte	.LASF27
 783 0145 05       		.byte	0x5
 784 0146 61       		.byte	0x61
 785 0147 70020000 		.4byte	0x270
 786 014b 02       		.byte	0x2
ARM GAS  C:\Users\DNIEL~1\AppData\Local\Temp\cczvk6aO.s 			page 15


 787 014c 23       		.byte	0x23
 788 014d 04       		.uleb128 0x4
 789 014e 06       		.uleb128 0x6
 790 014f C2020000 		.4byte	.LASF28
 791 0153 05       		.byte	0x5
 792 0154 63       		.byte	0x63
 793 0155 D9000000 		.4byte	0xd9
 794 0159 02       		.byte	0x2
 795 015a 23       		.byte	0x23
 796 015b 08       		.uleb128 0x8
 797 015c 06       		.uleb128 0x6
 798 015d 51060000 		.4byte	.LASF29
 799 0161 05       		.byte	0x5
 800 0162 64       		.byte	0x64
 801 0163 3E030000 		.4byte	0x33e
 802 0167 02       		.byte	0x2
 803 0168 23       		.byte	0x23
 804 0169 0C       		.uleb128 0xc
 805 016a 06       		.uleb128 0x6
 806 016b 4B010000 		.4byte	.LASF30
 807 016f 05       		.byte	0x5
 808 0170 66       		.byte	0x66
 809 0171 70020000 		.4byte	0x270
 810 0175 02       		.byte	0x2
 811 0176 23       		.byte	0x23
 812 0177 10       		.uleb128 0x10
 813 0178 06       		.uleb128 0x6
 814 0179 1C030000 		.4byte	.LASF31
 815 017d 05       		.byte	0x5
 816 017e 67       		.byte	0x67
 817 017f 70020000 		.4byte	0x270
 818 0183 02       		.byte	0x2
 819 0184 23       		.byte	0x23
 820 0185 14       		.uleb128 0x14
 821 0186 06       		.uleb128 0x6
 822 0187 33050000 		.4byte	.LASF32
 823 018b 05       		.byte	0x5
 824 018c 6E       		.byte	0x6e
 825 018d 9F040000 		.4byte	0x49f
 826 0191 02       		.byte	0x2
 827 0192 23       		.byte	0x23
 828 0193 18       		.uleb128 0x18
 829 0194 06       		.uleb128 0x6
 830 0195 28040000 		.4byte	.LASF33
 831 0199 05       		.byte	0x5
 832 019a 79       		.byte	0x79
 833 019b B8000000 		.4byte	0xb8
 834 019f 02       		.byte	0x2
 835 01a0 23       		.byte	0x23
 836 01a1 1C       		.uleb128 0x1c
 837 01a2 06       		.uleb128 0x6
 838 01a3 48040000 		.4byte	.LASF34
 839 01a7 05       		.byte	0x5
 840 01a8 7D       		.byte	0x7d
 841 01a9 AD000000 		.4byte	0xad
 842 01ad 02       		.byte	0x2
 843 01ae 23       		.byte	0x23
ARM GAS  C:\Users\DNIEL~1\AppData\Local\Temp\cczvk6aO.s 			page 16


 844 01af 1D       		.uleb128 0x1d
 845 01b0 06       		.uleb128 0x6
 846 01b1 12010000 		.4byte	.LASF35
 847 01b5 05       		.byte	0x5
 848 01b6 82       		.byte	0x82
 849 01b7 C3000000 		.4byte	0xc3
 850 01bb 02       		.byte	0x2
 851 01bc 23       		.byte	0x23
 852 01bd 1E       		.uleb128 0x1e
 853 01be 06       		.uleb128 0x6
 854 01bf 30040000 		.4byte	.LASF36
 855 01c3 05       		.byte	0x5
 856 01c4 88       		.byte	0x88
 857 01c5 CE000000 		.4byte	0xce
 858 01c9 02       		.byte	0x2
 859 01ca 23       		.byte	0x23
 860 01cb 1F       		.uleb128 0x1f
 861 01cc 06       		.uleb128 0x6
 862 01cd 12000000 		.4byte	.LASF37
 863 01d1 05       		.byte	0x5
 864 01d2 8F       		.byte	0x8f
 865 01d3 6D030000 		.4byte	0x36d
 866 01d7 02       		.byte	0x2
 867 01d8 23       		.byte	0x23
 868 01d9 20       		.uleb128 0x20
 869 01da 07       		.uleb128 0x7
 870 01db 705F7500 		.ascii	"p_u\000"
 871 01df 05       		.byte	0x5
 872 01e0 B4       		.byte	0xb4
 873 01e1 6A040000 		.4byte	0x46a
 874 01e5 02       		.byte	0x2
 875 01e6 23       		.byte	0x23
 876 01e7 24       		.uleb128 0x24
 877 01e8 06       		.uleb128 0x6
 878 01e9 57060000 		.4byte	.LASF38
 879 01ed 05       		.byte	0x5
 880 01ee B9       		.byte	0xb9
 881 01ef 98020000 		.4byte	0x298
 882 01f3 02       		.byte	0x2
 883 01f4 23       		.byte	0x23
 884 01f5 28       		.uleb128 0x28
 885 01f6 06       		.uleb128 0x6
 886 01f7 E9010000 		.4byte	.LASF39
 887 01fb 05       		.byte	0x5
 888 01fc BF       		.byte	0xbf
 889 01fd 76020000 		.4byte	0x276
 890 0201 02       		.byte	0x2
 891 0202 23       		.byte	0x23
 892 0203 2C       		.uleb128 0x2c
 893 0204 06       		.uleb128 0x6
 894 0205 3E060000 		.4byte	.LASF40
 895 0209 05       		.byte	0x5
 896 020a C3       		.byte	0xc3
 897 020b E4000000 		.4byte	0xe4
 898 020f 02       		.byte	0x2
 899 0210 23       		.byte	0x23
 900 0211 34       		.uleb128 0x34
ARM GAS  C:\Users\DNIEL~1\AppData\Local\Temp\cczvk6aO.s 			page 17


 901 0212 06       		.uleb128 0x6
 902 0213 65040000 		.4byte	.LASF41
 903 0217 05       		.byte	0x5
 904 0218 C9       		.byte	0xc9
 905 0219 EF000000 		.4byte	0xef
 906 021d 02       		.byte	0x2
 907 021e 23       		.byte	0x23
 908 021f 38       		.uleb128 0x38
 909 0220 06       		.uleb128 0x6
 910 0221 14040000 		.4byte	.LASF42
 911 0225 05       		.byte	0x5
 912 0226 D0       		.byte	0xd0
 913 0227 B1040000 		.4byte	0x4b1
 914 022b 02       		.byte	0x2
 915 022c 23       		.byte	0x23
 916 022d 3C       		.uleb128 0x3c
 917 022e 06       		.uleb128 0x6
 918 022f DC040000 		.4byte	.LASF43
 919 0233 05       		.byte	0x5
 920 0234 D4       		.byte	0xd4
 921 0235 D9000000 		.4byte	0xd9
 922 0239 02       		.byte	0x2
 923 023a 23       		.byte	0x23
 924 023b 40       		.uleb128 0x40
 925 023c 06       		.uleb128 0x6
 926 023d AA000000 		.4byte	.LASF44
 927 0241 05       		.byte	0x5
 928 0242 DA       		.byte	0xda
 929 0243 AE020000 		.4byte	0x2ae
 930 0247 02       		.byte	0x2
 931 0248 23       		.byte	0x23
 932 0249 44       		.uleb128 0x44
 933 024a 00       		.byte	0
 934 024b 08       		.uleb128 0x8
 935 024c 08       		.byte	0x8
 936 024d 04       		.byte	0x4
 937 024e 61       		.byte	0x61
 938 024f 70020000 		.4byte	0x270
 939 0253 06       		.uleb128 0x6
 940 0254 41040000 		.4byte	.LASF26
 941 0258 04       		.byte	0x4
 942 0259 62       		.byte	0x62
 943 025a 70020000 		.4byte	0x270
 944 025e 02       		.byte	0x2
 945 025f 23       		.byte	0x23
 946 0260 00       		.uleb128 0
 947 0261 06       		.uleb128 0x6
 948 0262 A7030000 		.4byte	.LASF27
 949 0266 04       		.byte	0x4
 950 0267 64       		.byte	0x64
 951 0268 70020000 		.4byte	0x270
 952 026c 02       		.byte	0x2
 953 026d 23       		.byte	0x23
 954 026e 04       		.uleb128 0x4
 955 026f 00       		.byte	0
 956 0270 09       		.uleb128 0x9
 957 0271 04       		.byte	0x4
ARM GAS  C:\Users\DNIEL~1\AppData\Local\Temp\cczvk6aO.s 			page 18


 958 0272 1B010000 		.4byte	0x11b
 959 0276 04       		.uleb128 0x4
 960 0277 24030000 		.4byte	.LASF45
 961 027b 04       		.byte	0x4
 962 027c 66       		.byte	0x66
 963 027d 4B020000 		.4byte	0x24b
 964 0281 08       		.uleb128 0x8
 965 0282 04       		.byte	0x4
 966 0283 04       		.byte	0x4
 967 0284 6B       		.byte	0x6b
 968 0285 98020000 		.4byte	0x298
 969 0289 06       		.uleb128 0x6
 970 028a 41040000 		.4byte	.LASF26
 971 028e 04       		.byte	0x4
 972 028f 6D       		.byte	0x6d
 973 0290 70020000 		.4byte	0x270
 974 0294 02       		.byte	0x2
 975 0295 23       		.byte	0x23
 976 0296 00       		.uleb128 0
 977 0297 00       		.byte	0
 978 0298 04       		.uleb128 0x4
 979 0299 56020000 		.4byte	.LASF46
 980 029d 04       		.byte	0x4
 981 029e 70       		.byte	0x70
 982 029f 81020000 		.4byte	0x281
 983 02a3 04       		.uleb128 0x4
 984 02a4 9F010000 		.4byte	.LASF47
 985 02a8 06       		.byte	0x6
 986 02a9 E5       		.byte	0xe5
 987 02aa AE020000 		.4byte	0x2ae
 988 02ae 0A       		.uleb128 0xa
 989 02af 04       		.byte	0x4
 990 02b0 0B       		.uleb128 0xb
 991 02b1 0A050000 		.4byte	.LASF48
 992 02b5 24       		.byte	0x24
 993 02b6 06       		.byte	0x6
 994 02b7 0C01     		.2byte	0x10c
 995 02b9 3E030000 		.4byte	0x33e
 996 02bd 0C       		.uleb128 0xc
 997 02be 723400   		.ascii	"r4\000"
 998 02c1 06       		.byte	0x6
 999 02c2 1F01     		.2byte	0x11f
 1000 02c4 A3020000 		.4byte	0x2a3
 1001 02c8 02       		.byte	0x2
 1002 02c9 23       		.byte	0x23
 1003 02ca 00       		.uleb128 0
 1004 02cb 0C       		.uleb128 0xc
 1005 02cc 723500   		.ascii	"r5\000"
 1006 02cf 06       		.byte	0x6
 1007 02d0 2001     		.2byte	0x120
 1008 02d2 A3020000 		.4byte	0x2a3
 1009 02d6 02       		.byte	0x2
 1010 02d7 23       		.byte	0x23
 1011 02d8 04       		.uleb128 0x4
 1012 02d9 0C       		.uleb128 0xc
 1013 02da 723600   		.ascii	"r6\000"
 1014 02dd 06       		.byte	0x6
ARM GAS  C:\Users\DNIEL~1\AppData\Local\Temp\cczvk6aO.s 			page 19


 1015 02de 2101     		.2byte	0x121
 1016 02e0 A3020000 		.4byte	0x2a3
 1017 02e4 02       		.byte	0x2
 1018 02e5 23       		.byte	0x23
 1019 02e6 08       		.uleb128 0x8
 1020 02e7 0C       		.uleb128 0xc
 1021 02e8 723700   		.ascii	"r7\000"
 1022 02eb 06       		.byte	0x6
 1023 02ec 2201     		.2byte	0x122
 1024 02ee A3020000 		.4byte	0x2a3
 1025 02f2 02       		.byte	0x2
 1026 02f3 23       		.byte	0x23
 1027 02f4 0C       		.uleb128 0xc
 1028 02f5 0C       		.uleb128 0xc
 1029 02f6 723800   		.ascii	"r8\000"
 1030 02f9 06       		.byte	0x6
 1031 02fa 2301     		.2byte	0x123
 1032 02fc A3020000 		.4byte	0x2a3
 1033 0300 02       		.byte	0x2
 1034 0301 23       		.byte	0x23
 1035 0302 10       		.uleb128 0x10
 1036 0303 0C       		.uleb128 0xc
 1037 0304 723900   		.ascii	"r9\000"
 1038 0307 06       		.byte	0x6
 1039 0308 2401     		.2byte	0x124
 1040 030a A3020000 		.4byte	0x2a3
 1041 030e 02       		.byte	0x2
 1042 030f 23       		.byte	0x23
 1043 0310 14       		.uleb128 0x14
 1044 0311 0C       		.uleb128 0xc
 1045 0312 72313000 		.ascii	"r10\000"
 1046 0316 06       		.byte	0x6
 1047 0317 2501     		.2byte	0x125
 1048 0319 A3020000 		.4byte	0x2a3
 1049 031d 02       		.byte	0x2
 1050 031e 23       		.byte	0x23
 1051 031f 18       		.uleb128 0x18
 1052 0320 0C       		.uleb128 0xc
 1053 0321 72313100 		.ascii	"r11\000"
 1054 0325 06       		.byte	0x6
 1055 0326 2601     		.2byte	0x126
 1056 0328 A3020000 		.4byte	0x2a3
 1057 032c 02       		.byte	0x2
 1058 032d 23       		.byte	0x23
 1059 032e 1C       		.uleb128 0x1c
 1060 032f 0C       		.uleb128 0xc
 1061 0330 6C7200   		.ascii	"lr\000"
 1062 0333 06       		.byte	0x6
 1063 0334 2701     		.2byte	0x127
 1064 0336 A3020000 		.4byte	0x2a3
 1065 033a 02       		.byte	0x2
 1066 033b 23       		.byte	0x23
 1067 033c 20       		.uleb128 0x20
 1068 033d 00       		.byte	0
 1069 033e 0B       		.uleb128 0xb
 1070 033f F4040000 		.4byte	.LASF49
 1071 0343 04       		.byte	0x4
ARM GAS  C:\Users\DNIEL~1\AppData\Local\Temp\cczvk6aO.s 			page 20


 1072 0344 06       		.byte	0x6
 1073 0345 3101     		.2byte	0x131
 1074 0347 5B030000 		.4byte	0x35b
 1075 034b 0C       		.uleb128 0xc
 1076 034c 72313300 		.ascii	"r13\000"
 1077 0350 06       		.byte	0x6
 1078 0351 3201     		.2byte	0x132
 1079 0353 5B030000 		.4byte	0x35b
 1080 0357 02       		.byte	0x2
 1081 0358 23       		.byte	0x23
 1082 0359 00       		.uleb128 0
 1083 035a 00       		.byte	0
 1084 035b 09       		.uleb128 0x9
 1085 035c 04       		.byte	0x4
 1086 035d B0020000 		.4byte	0x2b0
 1087 0361 0D       		.uleb128 0xd
 1088 0362 7B000000 		.4byte	0x7b
 1089 0366 03       		.uleb128 0x3
 1090 0367 04       		.byte	0x4
 1091 0368 07       		.byte	0x7
 1092 0369 A9020000 		.4byte	.LASF50
 1093 036d 0D       		.uleb128 0xd
 1094 036e 05010000 		.4byte	0x105
 1095 0372 05       		.uleb128 0x5
 1096 0373 11050000 		.4byte	.LASF51
 1097 0377 0C       		.byte	0xc
 1098 0378 07       		.byte	0x7
 1099 0379 2C       		.byte	0x2c
 1100 037a 9B030000 		.4byte	0x39b
 1101 037e 06       		.uleb128 0x6
 1102 037f 53010000 		.4byte	.LASF52
 1103 0383 07       		.byte	0x7
 1104 0384 2D       		.byte	0x2d
 1105 0385 76020000 		.4byte	0x276
 1106 0389 02       		.byte	0x2
 1107 038a 23       		.byte	0x23
 1108 038b 00       		.uleb128 0
 1109 038c 06       		.uleb128 0x6
 1110 038d 0C020000 		.4byte	.LASF53
 1111 0391 07       		.byte	0x7
 1112 0392 2F       		.byte	0x2f
 1113 0393 10010000 		.4byte	0x110
 1114 0397 02       		.byte	0x2
 1115 0398 23       		.byte	0x23
 1116 0399 08       		.uleb128 0x8
 1117 039a 00       		.byte	0
 1118 039b 04       		.uleb128 0x4
 1119 039c 11050000 		.4byte	.LASF51
 1120 03a0 07       		.byte	0x7
 1121 03a1 30       		.byte	0x30
 1122 03a2 72030000 		.4byte	0x372
 1123 03a6 05       		.uleb128 0x5
 1124 03a7 7E020000 		.4byte	.LASF54
 1125 03ab 10       		.byte	0x10
 1126 03ac 08       		.byte	0x8
 1127 03ad 2C       		.byte	0x2c
 1128 03ae DD030000 		.4byte	0x3dd
ARM GAS  C:\Users\DNIEL~1\AppData\Local\Temp\cczvk6aO.s 			page 21


 1129 03b2 06       		.uleb128 0x6
 1130 03b3 B9000000 		.4byte	.LASF55
 1131 03b7 08       		.byte	0x8
 1132 03b8 2D       		.byte	0x2d
 1133 03b9 76020000 		.4byte	0x276
 1134 03bd 02       		.byte	0x2
 1135 03be 23       		.byte	0x23
 1136 03bf 00       		.uleb128 0
 1137 03c0 06       		.uleb128 0x6
 1138 03c1 49060000 		.4byte	.LASF56
 1139 03c5 08       		.byte	0x8
 1140 03c6 2F       		.byte	0x2f
 1141 03c7 70020000 		.4byte	0x270
 1142 03cb 02       		.byte	0x2
 1143 03cc 23       		.byte	0x23
 1144 03cd 08       		.uleb128 0x8
 1145 03ce 06       		.uleb128 0x6
 1146 03cf CB040000 		.4byte	.LASF57
 1147 03d3 08       		.byte	0x8
 1148 03d4 31       		.byte	0x31
 1149 03d5 DD030000 		.4byte	0x3dd
 1150 03d9 02       		.byte	0x2
 1151 03da 23       		.byte	0x23
 1152 03db 0C       		.uleb128 0xc
 1153 03dc 00       		.byte	0
 1154 03dd 09       		.uleb128 0x9
 1155 03de 04       		.byte	0x4
 1156 03df A6030000 		.4byte	0x3a6
 1157 03e3 04       		.uleb128 0x4
 1158 03e4 7E020000 		.4byte	.LASF54
 1159 03e8 08       		.byte	0x8
 1160 03e9 33       		.byte	0x33
 1161 03ea A6030000 		.4byte	0x3a6
 1162 03ee 04       		.uleb128 0x4
 1163 03ef DF050000 		.4byte	.LASF58
 1164 03f3 09       		.byte	0x9
 1165 03f4 2C       		.byte	0x2c
 1166 03f5 F9030000 		.4byte	0x3f9
 1167 03f9 05       		.uleb128 0x5
 1168 03fa DF050000 		.4byte	.LASF58
 1169 03fe 10       		.byte	0x10
 1170 03ff 09       		.byte	0x9
 1171 0400 31       		.byte	0x31
 1172 0401 3E040000 		.4byte	0x43e
 1173 0405 06       		.uleb128 0x6
 1174 0406 46020000 		.4byte	.LASF59
 1175 040a 09       		.byte	0x9
 1176 040b 32       		.byte	0x32
 1177 040c 3E040000 		.4byte	0x43e
 1178 0410 02       		.byte	0x2
 1179 0411 23       		.byte	0x23
 1180 0412 00       		.uleb128 0
 1181 0413 06       		.uleb128 0x6
 1182 0414 F2030000 		.4byte	.LASF60
 1183 0418 09       		.byte	0x9
 1184 0419 35       		.byte	0x35
 1185 041a 70020000 		.4byte	0x270
ARM GAS  C:\Users\DNIEL~1\AppData\Local\Temp\cczvk6aO.s 			page 22


 1186 041e 02       		.byte	0x2
 1187 041f 23       		.byte	0x23
 1188 0420 04       		.uleb128 0x4
 1189 0421 06       		.uleb128 0x6
 1190 0422 36030000 		.4byte	.LASF61
 1191 0426 09       		.byte	0x9
 1192 0427 37       		.byte	0x37
 1193 0428 EF000000 		.4byte	0xef
 1194 042c 02       		.byte	0x2
 1195 042d 23       		.byte	0x23
 1196 042e 08       		.uleb128 0x8
 1197 042f 06       		.uleb128 0x6
 1198 0430 0B040000 		.4byte	.LASF62
 1199 0434 09       		.byte	0x9
 1200 0435 3A       		.byte	0x3a
 1201 0436 FA000000 		.4byte	0xfa
 1202 043a 02       		.byte	0x2
 1203 043b 23       		.byte	0x23
 1204 043c 0C       		.uleb128 0xc
 1205 043d 00       		.byte	0
 1206 043e 09       		.uleb128 0x9
 1207 043f 04       		.byte	0x4
 1208 0440 EE030000 		.4byte	0x3ee
 1209 0444 05       		.uleb128 0x5
 1210 0445 B2010000 		.4byte	.LASF63
 1211 0449 04       		.byte	0x4
 1212 044a 09       		.byte	0x9
 1213 044b 41       		.byte	0x41
 1214 044c 5F040000 		.4byte	0x45f
 1215 0450 06       		.uleb128 0x6
 1216 0451 3A050000 		.4byte	.LASF64
 1217 0455 09       		.byte	0x9
 1218 0456 42       		.byte	0x42
 1219 0457 3E040000 		.4byte	0x43e
 1220 045b 02       		.byte	0x2
 1221 045c 23       		.byte	0x23
 1222 045d 00       		.uleb128 0
 1223 045e 00       		.byte	0
 1224 045f 04       		.uleb128 0x4
 1225 0460 B2010000 		.4byte	.LASF63
 1226 0464 09       		.byte	0x9
 1227 0465 45       		.byte	0x45
 1228 0466 44040000 		.4byte	0x444
 1229 046a 0E       		.uleb128 0xe
 1230 046b 04       		.byte	0x4
 1231 046c 05       		.byte	0x5
 1232 046d 96       		.byte	0x96
 1233 046e 9F040000 		.4byte	0x49f
 1234 0472 0F       		.uleb128 0xf
 1235 0473 24000000 		.4byte	.LASF65
 1236 0477 05       		.byte	0x5
 1237 0478 9D       		.byte	0x9d
 1238 0479 E4000000 		.4byte	0xe4
 1239 047d 0F       		.uleb128 0xf
 1240 047e 60000000 		.4byte	.LASF66
 1241 0482 05       		.byte	0x5
 1242 0483 A4       		.byte	0xa4
ARM GAS  C:\Users\DNIEL~1\AppData\Local\Temp\cczvk6aO.s 			page 23


 1243 0484 E4000000 		.4byte	0xe4
 1244 0488 0F       		.uleb128 0xf
 1245 0489 ED050000 		.4byte	.LASF67
 1246 048d 05       		.byte	0x5
 1247 048e AB       		.byte	0xab
 1248 048f AE020000 		.4byte	0x2ae
 1249 0493 0F       		.uleb128 0xf
 1250 0494 3A040000 		.4byte	.LASF68
 1251 0498 05       		.byte	0x5
 1252 0499 B2       		.byte	0xb2
 1253 049a EF000000 		.4byte	0xef
 1254 049e 00       		.byte	0
 1255 049f 09       		.uleb128 0x9
 1256 04a0 04       		.byte	0x4
 1257 04a1 A5040000 		.4byte	0x4a5
 1258 04a5 10       		.uleb128 0x10
 1259 04a6 AA040000 		.4byte	0x4aa
 1260 04aa 03       		.uleb128 0x3
 1261 04ab 01       		.byte	0x1
 1262 04ac 08       		.byte	0x8
 1263 04ad A8040000 		.4byte	.LASF69
 1264 04b1 09       		.uleb128 0x9
 1265 04b2 04       		.byte	0x4
 1266 04b3 E3030000 		.4byte	0x3e3
 1267 04b7 11       		.uleb128 0x11
 1268 04b8 7B000000 		.4byte	0x7b
 1269 04bc C7040000 		.4byte	0x4c7
 1270 04c0 12       		.uleb128 0x12
 1271 04c1 66030000 		.4byte	0x366
 1272 04c5 07       		.byte	0x7
 1273 04c6 00       		.byte	0
 1274 04c7 11       		.uleb128 0x11
 1275 04c8 7B000000 		.4byte	0x7b
 1276 04cc D7040000 		.4byte	0x4d7
 1277 04d0 12       		.uleb128 0x12
 1278 04d1 66030000 		.4byte	0x366
 1279 04d5 01       		.byte	0x1
 1280 04d6 00       		.byte	0
 1281 04d7 0D       		.uleb128 0xd
 1282 04d8 69000000 		.4byte	0x69
 1283 04dc 13       		.uleb128 0x13
 1284 04dd 10       		.byte	0x10
 1285 04de 0A       		.byte	0xa
 1286 04df 2F02     		.2byte	0x22f
 1287 04e1 22050000 		.4byte	0x522
 1288 04e5 0C       		.uleb128 0xc
 1289 04e6 54495200 		.ascii	"TIR\000"
 1290 04ea 0A       		.byte	0xa
 1291 04eb 3102     		.2byte	0x231
 1292 04ed 61030000 		.4byte	0x361
 1293 04f1 02       		.byte	0x2
 1294 04f2 23       		.byte	0x23
 1295 04f3 00       		.uleb128 0
 1296 04f4 14       		.uleb128 0x14
 1297 04f5 AD010000 		.4byte	.LASF70
 1298 04f9 0A       		.byte	0xa
 1299 04fa 3202     		.2byte	0x232
ARM GAS  C:\Users\DNIEL~1\AppData\Local\Temp\cczvk6aO.s 			page 24


 1300 04fc 61030000 		.4byte	0x361
 1301 0500 02       		.byte	0x2
 1302 0501 23       		.byte	0x23
 1303 0502 04       		.uleb128 0x4
 1304 0503 14       		.uleb128 0x14
 1305 0504 E5000000 		.4byte	.LASF71
 1306 0508 0A       		.byte	0xa
 1307 0509 3302     		.2byte	0x233
 1308 050b 61030000 		.4byte	0x361
 1309 050f 02       		.byte	0x2
 1310 0510 23       		.byte	0x23
 1311 0511 08       		.uleb128 0x8
 1312 0512 14       		.uleb128 0x14
 1313 0513 31030000 		.4byte	.LASF72
 1314 0517 0A       		.byte	0xa
 1315 0518 3402     		.2byte	0x234
 1316 051a 61030000 		.4byte	0x361
 1317 051e 02       		.byte	0x2
 1318 051f 23       		.byte	0x23
 1319 0520 0C       		.uleb128 0xc
 1320 0521 00       		.byte	0
 1321 0522 15       		.uleb128 0x15
 1322 0523 FC000000 		.4byte	.LASF73
 1323 0527 0A       		.byte	0xa
 1324 0528 3502     		.2byte	0x235
 1325 052a DC040000 		.4byte	0x4dc
 1326 052e 13       		.uleb128 0x13
 1327 052f 10       		.byte	0x10
 1328 0530 0A       		.byte	0xa
 1329 0531 3B02     		.2byte	0x23b
 1330 0533 74050000 		.4byte	0x574
 1331 0537 0C       		.uleb128 0xc
 1332 0538 52495200 		.ascii	"RIR\000"
 1333 053c 0A       		.byte	0xa
 1334 053d 3D02     		.2byte	0x23d
 1335 053f 61030000 		.4byte	0x361
 1336 0543 02       		.byte	0x2
 1337 0544 23       		.byte	0x23
 1338 0545 00       		.uleb128 0
 1339 0546 14       		.uleb128 0x14
 1340 0547 FC010000 		.4byte	.LASF74
 1341 054b 0A       		.byte	0xa
 1342 054c 3E02     		.2byte	0x23e
 1343 054e 61030000 		.4byte	0x361
 1344 0552 02       		.byte	0x2
 1345 0553 23       		.byte	0x23
 1346 0554 04       		.uleb128 0x4
 1347 0555 14       		.uleb128 0x14
 1348 0556 44060000 		.4byte	.LASF75
 1349 055a 0A       		.byte	0xa
 1350 055b 3F02     		.2byte	0x23f
 1351 055d 61030000 		.4byte	0x361
 1352 0561 02       		.byte	0x2
 1353 0562 23       		.byte	0x23
 1354 0563 08       		.uleb128 0x8
 1355 0564 14       		.uleb128 0x14
 1356 0565 C6040000 		.4byte	.LASF76
ARM GAS  C:\Users\DNIEL~1\AppData\Local\Temp\cczvk6aO.s 			page 25


 1357 0569 0A       		.byte	0xa
 1358 056a 4002     		.2byte	0x240
 1359 056c 61030000 		.4byte	0x361
 1360 0570 02       		.byte	0x2
 1361 0571 23       		.byte	0x23
 1362 0572 0C       		.uleb128 0xc
 1363 0573 00       		.byte	0
 1364 0574 15       		.uleb128 0x15
 1365 0575 8F050000 		.4byte	.LASF77
 1366 0579 0A       		.byte	0xa
 1367 057a 4102     		.2byte	0x241
 1368 057c 2E050000 		.4byte	0x52e
 1369 0580 13       		.uleb128 0x13
 1370 0581 08       		.byte	0x8
 1371 0582 0A       		.byte	0xa
 1372 0583 4702     		.2byte	0x247
 1373 0585 A8050000 		.4byte	0x5a8
 1374 0589 0C       		.uleb128 0xc
 1375 058a 46523100 		.ascii	"FR1\000"
 1376 058e 0A       		.byte	0xa
 1377 058f 4902     		.2byte	0x249
 1378 0591 61030000 		.4byte	0x361
 1379 0595 02       		.byte	0x2
 1380 0596 23       		.byte	0x23
 1381 0597 00       		.uleb128 0
 1382 0598 0C       		.uleb128 0xc
 1383 0599 46523200 		.ascii	"FR2\000"
 1384 059d 0A       		.byte	0xa
 1385 059e 4A02     		.2byte	0x24a
 1386 05a0 61030000 		.4byte	0x361
 1387 05a4 02       		.byte	0x2
 1388 05a5 23       		.byte	0x23
 1389 05a6 04       		.uleb128 0x4
 1390 05a7 00       		.byte	0
 1391 05a8 15       		.uleb128 0x15
 1392 05a9 25020000 		.4byte	.LASF78
 1393 05ad 0A       		.byte	0xa
 1394 05ae 4B02     		.2byte	0x24b
 1395 05b0 80050000 		.4byte	0x580
 1396 05b4 16       		.uleb128 0x16
 1397 05b5 2003     		.2byte	0x320
 1398 05b7 0A       		.byte	0xa
 1399 05b8 5102     		.2byte	0x251
 1400 05ba 16070000 		.4byte	0x716
 1401 05be 0C       		.uleb128 0xc
 1402 05bf 4D435200 		.ascii	"MCR\000"
 1403 05c3 0A       		.byte	0xa
 1404 05c4 5302     		.2byte	0x253
 1405 05c6 61030000 		.4byte	0x361
 1406 05ca 02       		.byte	0x2
 1407 05cb 23       		.byte	0x23
 1408 05cc 00       		.uleb128 0
 1409 05cd 0C       		.uleb128 0xc
 1410 05ce 4D535200 		.ascii	"MSR\000"
 1411 05d2 0A       		.byte	0xa
 1412 05d3 5402     		.2byte	0x254
 1413 05d5 61030000 		.4byte	0x361
ARM GAS  C:\Users\DNIEL~1\AppData\Local\Temp\cczvk6aO.s 			page 26


 1414 05d9 02       		.byte	0x2
 1415 05da 23       		.byte	0x23
 1416 05db 04       		.uleb128 0x4
 1417 05dc 0C       		.uleb128 0xc
 1418 05dd 54535200 		.ascii	"TSR\000"
 1419 05e1 0A       		.byte	0xa
 1420 05e2 5502     		.2byte	0x255
 1421 05e4 61030000 		.4byte	0x361
 1422 05e8 02       		.byte	0x2
 1423 05e9 23       		.byte	0x23
 1424 05ea 08       		.uleb128 0x8
 1425 05eb 14       		.uleb128 0x14
 1426 05ec F4050000 		.4byte	.LASF79
 1427 05f0 0A       		.byte	0xa
 1428 05f1 5602     		.2byte	0x256
 1429 05f3 61030000 		.4byte	0x361
 1430 05f7 02       		.byte	0x2
 1431 05f8 23       		.byte	0x23
 1432 05f9 0C       		.uleb128 0xc
 1433 05fa 14       		.uleb128 0x14
 1434 05fb 20020000 		.4byte	.LASF80
 1435 05ff 0A       		.byte	0xa
 1436 0600 5702     		.2byte	0x257
 1437 0602 61030000 		.4byte	0x361
 1438 0606 02       		.byte	0x2
 1439 0607 23       		.byte	0x23
 1440 0608 10       		.uleb128 0x10
 1441 0609 0C       		.uleb128 0xc
 1442 060a 49455200 		.ascii	"IER\000"
 1443 060e 0A       		.byte	0xa
 1444 060f 5802     		.2byte	0x258
 1445 0611 61030000 		.4byte	0x361
 1446 0615 02       		.byte	0x2
 1447 0616 23       		.byte	0x23
 1448 0617 14       		.uleb128 0x14
 1449 0618 0C       		.uleb128 0xc
 1450 0619 45535200 		.ascii	"ESR\000"
 1451 061d 0A       		.byte	0xa
 1452 061e 5902     		.2byte	0x259
 1453 0620 61030000 		.4byte	0x361
 1454 0624 02       		.byte	0x2
 1455 0625 23       		.byte	0x23
 1456 0626 18       		.uleb128 0x18
 1457 0627 0C       		.uleb128 0xc
 1458 0628 42545200 		.ascii	"BTR\000"
 1459 062c 0A       		.byte	0xa
 1460 062d 5A02     		.2byte	0x25a
 1461 062f 61030000 		.4byte	0x361
 1462 0633 02       		.byte	0x2
 1463 0634 23       		.byte	0x23
 1464 0635 1C       		.uleb128 0x1c
 1465 0636 14       		.uleb128 0x14
 1466 0637 75030000 		.4byte	.LASF81
 1467 063b 0A       		.byte	0xa
 1468 063c 5B02     		.2byte	0x25b
 1469 063e 16070000 		.4byte	0x716
 1470 0642 02       		.byte	0x2
ARM GAS  C:\Users\DNIEL~1\AppData\Local\Temp\cczvk6aO.s 			page 27


 1471 0643 23       		.byte	0x23
 1472 0644 20       		.uleb128 0x20
 1473 0645 14       		.uleb128 0x14
 1474 0646 DE010000 		.4byte	.LASF82
 1475 064a 0A       		.byte	0xa
 1476 064b 5C02     		.2byte	0x25c
 1477 064d 26070000 		.4byte	0x726
 1478 0651 03       		.byte	0x3
 1479 0652 23       		.byte	0x23
 1480 0653 8003     		.uleb128 0x180
 1481 0655 14       		.uleb128 0x14
 1482 0656 E7040000 		.4byte	.LASF83
 1483 065a 0A       		.byte	0xa
 1484 065b 5D02     		.2byte	0x25d
 1485 065d 36070000 		.4byte	0x736
 1486 0661 03       		.byte	0x3
 1487 0662 23       		.byte	0x23
 1488 0663 B003     		.uleb128 0x1b0
 1489 0665 14       		.uleb128 0x14
 1490 0666 7F030000 		.4byte	.LASF84
 1491 066a 0A       		.byte	0xa
 1492 066b 5E02     		.2byte	0x25e
 1493 066d 46070000 		.4byte	0x746
 1494 0671 03       		.byte	0x3
 1495 0672 23       		.byte	0x23
 1496 0673 D003     		.uleb128 0x1d0
 1497 0675 0C       		.uleb128 0xc
 1498 0676 464D5200 		.ascii	"FMR\000"
 1499 067a 0A       		.byte	0xa
 1500 067b 5F02     		.2byte	0x25f
 1501 067d 61030000 		.4byte	0x361
 1502 0681 03       		.byte	0x3
 1503 0682 23       		.byte	0x23
 1504 0683 8004     		.uleb128 0x200
 1505 0685 14       		.uleb128 0x14
 1506 0686 59040000 		.4byte	.LASF85
 1507 068a 0A       		.byte	0xa
 1508 068b 6002     		.2byte	0x260
 1509 068d 61030000 		.4byte	0x361
 1510 0691 03       		.byte	0x3
 1511 0692 23       		.byte	0x23
 1512 0693 8404     		.uleb128 0x204
 1513 0695 14       		.uleb128 0x14
 1514 0696 89030000 		.4byte	.LASF86
 1515 069a 0A       		.byte	0xa
 1516 069b 6102     		.2byte	0x261
 1517 069d 7B000000 		.4byte	0x7b
 1518 06a1 03       		.byte	0x3
 1519 06a2 23       		.byte	0x23
 1520 06a3 8804     		.uleb128 0x208
 1521 06a5 14       		.uleb128 0x14
 1522 06a6 2E050000 		.4byte	.LASF87
 1523 06aa 0A       		.byte	0xa
 1524 06ab 6202     		.2byte	0x262
 1525 06ad 61030000 		.4byte	0x361
 1526 06b1 03       		.byte	0x3
 1527 06b2 23       		.byte	0x23
ARM GAS  C:\Users\DNIEL~1\AppData\Local\Temp\cczvk6aO.s 			page 28


 1528 06b3 8C04     		.uleb128 0x20c
 1529 06b5 14       		.uleb128 0x14
 1530 06b6 93030000 		.4byte	.LASF88
 1531 06ba 0A       		.byte	0xa
 1532 06bb 6302     		.2byte	0x263
 1533 06bd 7B000000 		.4byte	0x7b
 1534 06c1 03       		.byte	0x3
 1535 06c2 23       		.byte	0x23
 1536 06c3 9004     		.uleb128 0x210
 1537 06c5 14       		.uleb128 0x14
 1538 06c6 5E030000 		.4byte	.LASF89
 1539 06ca 0A       		.byte	0xa
 1540 06cb 6402     		.2byte	0x264
 1541 06cd 61030000 		.4byte	0x361
 1542 06d1 03       		.byte	0x3
 1543 06d2 23       		.byte	0x23
 1544 06d3 9404     		.uleb128 0x214
 1545 06d5 14       		.uleb128 0x14
 1546 06d6 9D030000 		.4byte	.LASF90
 1547 06da 0A       		.byte	0xa
 1548 06db 6502     		.2byte	0x265
 1549 06dd 7B000000 		.4byte	0x7b
 1550 06e1 03       		.byte	0x3
 1551 06e2 23       		.byte	0x23
 1552 06e3 9804     		.uleb128 0x218
 1553 06e5 14       		.uleb128 0x14
 1554 06e6 98020000 		.4byte	.LASF91
 1555 06ea 0A       		.byte	0xa
 1556 06eb 6602     		.2byte	0x266
 1557 06ed 61030000 		.4byte	0x361
 1558 06f1 03       		.byte	0x3
 1559 06f2 23       		.byte	0x23
 1560 06f3 9C04     		.uleb128 0x21c
 1561 06f5 14       		.uleb128 0x14
 1562 06f6 70040000 		.4byte	.LASF92
 1563 06fa 0A       		.byte	0xa
 1564 06fb 6702     		.2byte	0x267
 1565 06fd B7040000 		.4byte	0x4b7
 1566 0701 03       		.byte	0x3
 1567 0702 23       		.byte	0x23
 1568 0703 A004     		.uleb128 0x220
 1569 0705 14       		.uleb128 0x14
 1570 0706 62020000 		.4byte	.LASF93
 1571 070a 0A       		.byte	0xa
 1572 070b 6802     		.2byte	0x268
 1573 070d 56070000 		.4byte	0x756
 1574 0711 03       		.byte	0x3
 1575 0712 23       		.byte	0x23
 1576 0713 C004     		.uleb128 0x240
 1577 0715 00       		.byte	0
 1578 0716 11       		.uleb128 0x11
 1579 0717 7B000000 		.4byte	0x7b
 1580 071b 26070000 		.4byte	0x726
 1581 071f 12       		.uleb128 0x12
 1582 0720 66030000 		.4byte	0x366
 1583 0724 57       		.byte	0x57
 1584 0725 00       		.byte	0
ARM GAS  C:\Users\DNIEL~1\AppData\Local\Temp\cczvk6aO.s 			page 29


 1585 0726 11       		.uleb128 0x11
 1586 0727 22050000 		.4byte	0x522
 1587 072b 36070000 		.4byte	0x736
 1588 072f 12       		.uleb128 0x12
 1589 0730 66030000 		.4byte	0x366
 1590 0734 02       		.byte	0x2
 1591 0735 00       		.byte	0
 1592 0736 11       		.uleb128 0x11
 1593 0737 74050000 		.4byte	0x574
 1594 073b 46070000 		.4byte	0x746
 1595 073f 12       		.uleb128 0x12
 1596 0740 66030000 		.4byte	0x366
 1597 0744 01       		.byte	0x1
 1598 0745 00       		.byte	0
 1599 0746 11       		.uleb128 0x11
 1600 0747 7B000000 		.4byte	0x7b
 1601 074b 56070000 		.4byte	0x756
 1602 074f 12       		.uleb128 0x12
 1603 0750 66030000 		.4byte	0x366
 1604 0754 0B       		.byte	0xb
 1605 0755 00       		.byte	0
 1606 0756 11       		.uleb128 0x11
 1607 0757 A8050000 		.4byte	0x5a8
 1608 075b 66070000 		.4byte	0x766
 1609 075f 12       		.uleb128 0x12
 1610 0760 66030000 		.4byte	0x366
 1611 0764 1B       		.byte	0x1b
 1612 0765 00       		.byte	0
 1613 0766 15       		.uleb128 0x15
 1614 0767 3D000000 		.4byte	.LASF94
 1615 076b 0A       		.byte	0xa
 1616 076c 6902     		.2byte	0x269
 1617 076e B4050000 		.4byte	0x5b4
 1618 0772 17       		.uleb128 0x17
 1619 0773 01       		.byte	0x1
 1620 0774 0B       		.byte	0xb
 1621 0775 6E       		.byte	0x6e
 1622 0776 99070000 		.4byte	0x799
 1623 077a 18       		.uleb128 0x18
 1624 077b BE030000 		.4byte	.LASF95
 1625 077f 00       		.sleb128 0
 1626 0780 18       		.uleb128 0x18
 1627 0781 55030000 		.4byte	.LASF96
 1628 0785 01       		.sleb128 1
 1629 0786 18       		.uleb128 0x18
 1630 0787 95000000 		.4byte	.LASF97
 1631 078b 02       		.sleb128 2
 1632 078c 18       		.uleb128 0x18
 1633 078d 5B010000 		.4byte	.LASF98
 1634 0791 03       		.sleb128 3
 1635 0792 18       		.uleb128 0x18
 1636 0793 B2020000 		.4byte	.LASF99
 1637 0797 04       		.sleb128 4
 1638 0798 00       		.byte	0
 1639 0799 04       		.uleb128 0x4
 1640 079a 4A030000 		.4byte	.LASF100
 1641 079e 0B       		.byte	0xb
ARM GAS  C:\Users\DNIEL~1\AppData\Local\Temp\cczvk6aO.s 			page 30


 1642 079f 74       		.byte	0x74
 1643 07a0 72070000 		.4byte	0x772
 1644 07a4 04       		.uleb128 0x4
 1645 07a5 F9050000 		.4byte	.LASF101
 1646 07a9 0C       		.byte	0xc
 1647 07aa 92       		.byte	0x92
 1648 07ab 7B000000 		.4byte	0x7b
 1649 07af 08       		.uleb128 0x8
 1650 07b0 01       		.byte	0x1
 1651 07b1 0C       		.byte	0xc
 1652 07b2 9A       		.byte	0x9a
 1653 07b3 EB070000 		.4byte	0x7eb
 1654 07b7 19       		.uleb128 0x19
 1655 07b8 444C4300 		.ascii	"DLC\000"
 1656 07bc 0C       		.byte	0xc
 1657 07bd 9B       		.byte	0x9b
 1658 07be 3E000000 		.4byte	0x3e
 1659 07c2 01       		.byte	0x1
 1660 07c3 04       		.byte	0x4
 1661 07c4 04       		.byte	0x4
 1662 07c5 02       		.byte	0x2
 1663 07c6 23       		.byte	0x23
 1664 07c7 00       		.uleb128 0
 1665 07c8 19       		.uleb128 0x19
 1666 07c9 52545200 		.ascii	"RTR\000"
 1667 07cd 0C       		.byte	0xc
 1668 07ce 9C       		.byte	0x9c
 1669 07cf 3E000000 		.4byte	0x3e
 1670 07d3 01       		.byte	0x1
 1671 07d4 01       		.byte	0x1
 1672 07d5 03       		.byte	0x3
 1673 07d6 02       		.byte	0x2
 1674 07d7 23       		.byte	0x23
 1675 07d8 00       		.uleb128 0
 1676 07d9 19       		.uleb128 0x19
 1677 07da 49444500 		.ascii	"IDE\000"
 1678 07de 0C       		.byte	0xc
 1679 07df 9D       		.byte	0x9d
 1680 07e0 3E000000 		.4byte	0x3e
 1681 07e4 01       		.byte	0x1
 1682 07e5 01       		.byte	0x1
 1683 07e6 02       		.byte	0x2
 1684 07e7 02       		.byte	0x2
 1685 07e8 23       		.byte	0x23
 1686 07e9 00       		.uleb128 0
 1687 07ea 00       		.byte	0
 1688 07eb 08       		.uleb128 0x8
 1689 07ec 04       		.byte	0x4
 1690 07ed 0C       		.byte	0xc
 1691 07ee A0       		.byte	0xa0
 1692 07ef 05080000 		.4byte	0x805
 1693 07f3 19       		.uleb128 0x19
 1694 07f4 53494400 		.ascii	"SID\000"
 1695 07f8 0C       		.byte	0xc
 1696 07f9 A1       		.byte	0xa1
 1697 07fa 7B000000 		.4byte	0x7b
 1698 07fe 04       		.byte	0x4
ARM GAS  C:\Users\DNIEL~1\AppData\Local\Temp\cczvk6aO.s 			page 31


 1699 07ff 0B       		.byte	0xb
 1700 0800 15       		.byte	0x15
 1701 0801 02       		.byte	0x2
 1702 0802 23       		.byte	0x23
 1703 0803 00       		.uleb128 0
 1704 0804 00       		.byte	0
 1705 0805 08       		.uleb128 0x8
 1706 0806 04       		.byte	0x4
 1707 0807 0C       		.byte	0xc
 1708 0808 A3       		.byte	0xa3
 1709 0809 1F080000 		.4byte	0x81f
 1710 080d 19       		.uleb128 0x19
 1711 080e 45494400 		.ascii	"EID\000"
 1712 0812 0C       		.byte	0xc
 1713 0813 A4       		.byte	0xa4
 1714 0814 7B000000 		.4byte	0x7b
 1715 0818 04       		.byte	0x4
 1716 0819 1D       		.byte	0x1d
 1717 081a 03       		.byte	0x3
 1718 081b 02       		.byte	0x2
 1719 081c 23       		.byte	0x23
 1720 081d 00       		.uleb128 0
 1721 081e 00       		.byte	0
 1722 081f 0E       		.uleb128 0xe
 1723 0820 04       		.byte	0x4
 1724 0821 0C       		.byte	0xc
 1725 0822 9F       		.byte	0x9f
 1726 0823 32080000 		.4byte	0x832
 1727 0827 1A       		.uleb128 0x1a
 1728 0828 EB070000 		.4byte	0x7eb
 1729 082c 1A       		.uleb128 0x1a
 1730 082d 05080000 		.4byte	0x805
 1731 0831 00       		.byte	0
 1732 0832 0E       		.uleb128 0xe
 1733 0833 08       		.byte	0x8
 1734 0834 0C       		.byte	0xc
 1735 0835 A7       		.byte	0xa7
 1736 0836 5C080000 		.4byte	0x85c
 1737 083a 0F       		.uleb128 0xf
 1738 083b BC020000 		.4byte	.LASF102
 1739 083f 0C       		.byte	0xc
 1740 0840 A8       		.byte	0xa8
 1741 0841 5C080000 		.4byte	0x85c
 1742 0845 0F       		.uleb128 0xf
 1743 0846 27050000 		.4byte	.LASF103
 1744 084a 0C       		.byte	0xc
 1745 084b A9       		.byte	0xa9
 1746 084c 6C080000 		.4byte	0x86c
 1747 0850 0F       		.uleb128 0xf
 1748 0851 69000000 		.4byte	.LASF104
 1749 0855 0C       		.byte	0xc
 1750 0856 AA       		.byte	0xaa
 1751 0857 C7040000 		.4byte	0x4c7
 1752 085b 00       		.byte	0
 1753 085c 11       		.uleb128 0x11
 1754 085d 3E000000 		.4byte	0x3e
 1755 0861 6C080000 		.4byte	0x86c
ARM GAS  C:\Users\DNIEL~1\AppData\Local\Temp\cczvk6aO.s 			page 32


 1756 0865 12       		.uleb128 0x12
 1757 0866 66030000 		.4byte	0x366
 1758 086a 07       		.byte	0x7
 1759 086b 00       		.byte	0
 1760 086c 11       		.uleb128 0x11
 1761 086d 57000000 		.4byte	0x57
 1762 0871 7C080000 		.4byte	0x87c
 1763 0875 12       		.uleb128 0x12
 1764 0876 66030000 		.4byte	0x366
 1765 087a 03       		.byte	0x3
 1766 087b 00       		.byte	0
 1767 087c 08       		.uleb128 0x8
 1768 087d 10       		.byte	0x10
 1769 087e 0C       		.byte	0xc
 1770 087f 99       		.byte	0x99
 1771 0880 9D080000 		.4byte	0x89d
 1772 0884 1B       		.uleb128 0x1b
 1773 0885 AF070000 		.4byte	0x7af
 1774 0889 02       		.byte	0x2
 1775 088a 23       		.byte	0x23
 1776 088b 00       		.uleb128 0
 1777 088c 1B       		.uleb128 0x1b
 1778 088d 1F080000 		.4byte	0x81f
 1779 0891 02       		.byte	0x2
 1780 0892 23       		.byte	0x23
 1781 0893 04       		.uleb128 0x4
 1782 0894 1B       		.uleb128 0x1b
 1783 0895 32080000 		.4byte	0x832
 1784 0899 02       		.byte	0x2
 1785 089a 23       		.byte	0x23
 1786 089b 08       		.uleb128 0x8
 1787 089c 00       		.byte	0
 1788 089d 04       		.uleb128 0x4
 1789 089e 01020000 		.4byte	.LASF105
 1790 08a2 0C       		.byte	0xc
 1791 08a3 AC       		.byte	0xac
 1792 08a4 7C080000 		.4byte	0x87c
 1793 08a8 08       		.uleb128 0x8
 1794 08a9 04       		.byte	0x4
 1795 08aa 0C       		.byte	0xc
 1796 08ab B4       		.byte	0xb4
 1797 08ac CD080000 		.4byte	0x8cd
 1798 08b0 07       		.uleb128 0x7
 1799 08b1 464D4900 		.ascii	"FMI\000"
 1800 08b5 0C       		.byte	0xc
 1801 08b6 B5       		.byte	0xb5
 1802 08b7 3E000000 		.4byte	0x3e
 1803 08bb 02       		.byte	0x2
 1804 08bc 23       		.byte	0x23
 1805 08bd 00       		.uleb128 0
 1806 08be 06       		.uleb128 0x6
 1807 08bf A8010000 		.4byte	.LASF106
 1808 08c3 0C       		.byte	0xc
 1809 08c4 B6       		.byte	0xb6
 1810 08c5 57000000 		.4byte	0x57
 1811 08c9 02       		.byte	0x2
 1812 08ca 23       		.byte	0x23
ARM GAS  C:\Users\DNIEL~1\AppData\Local\Temp\cczvk6aO.s 			page 33


 1813 08cb 02       		.uleb128 0x2
 1814 08cc 00       		.byte	0
 1815 08cd 08       		.uleb128 0x8
 1816 08ce 01       		.byte	0x1
 1817 08cf 0C       		.byte	0xc
 1818 08d0 B8       		.byte	0xb8
 1819 08d1 09090000 		.4byte	0x909
 1820 08d5 19       		.uleb128 0x19
 1821 08d6 444C4300 		.ascii	"DLC\000"
 1822 08da 0C       		.byte	0xc
 1823 08db B9       		.byte	0xb9
 1824 08dc 3E000000 		.4byte	0x3e
 1825 08e0 01       		.byte	0x1
 1826 08e1 04       		.byte	0x4
 1827 08e2 04       		.byte	0x4
 1828 08e3 02       		.byte	0x2
 1829 08e4 23       		.byte	0x23
 1830 08e5 00       		.uleb128 0
 1831 08e6 19       		.uleb128 0x19
 1832 08e7 52545200 		.ascii	"RTR\000"
 1833 08eb 0C       		.byte	0xc
 1834 08ec BA       		.byte	0xba
 1835 08ed 3E000000 		.4byte	0x3e
 1836 08f1 01       		.byte	0x1
 1837 08f2 01       		.byte	0x1
 1838 08f3 03       		.byte	0x3
 1839 08f4 02       		.byte	0x2
 1840 08f5 23       		.byte	0x23
 1841 08f6 00       		.uleb128 0
 1842 08f7 19       		.uleb128 0x19
 1843 08f8 49444500 		.ascii	"IDE\000"
 1844 08fc 0C       		.byte	0xc
 1845 08fd BB       		.byte	0xbb
 1846 08fe 3E000000 		.4byte	0x3e
 1847 0902 01       		.byte	0x1
 1848 0903 01       		.byte	0x1
 1849 0904 02       		.byte	0x2
 1850 0905 02       		.byte	0x2
 1851 0906 23       		.byte	0x23
 1852 0907 00       		.uleb128 0
 1853 0908 00       		.byte	0
 1854 0909 08       		.uleb128 0x8
 1855 090a 04       		.byte	0x4
 1856 090b 0C       		.byte	0xc
 1857 090c BE       		.byte	0xbe
 1858 090d 23090000 		.4byte	0x923
 1859 0911 19       		.uleb128 0x19
 1860 0912 53494400 		.ascii	"SID\000"
 1861 0916 0C       		.byte	0xc
 1862 0917 BF       		.byte	0xbf
 1863 0918 7B000000 		.4byte	0x7b
 1864 091c 04       		.byte	0x4
 1865 091d 0B       		.byte	0xb
 1866 091e 15       		.byte	0x15
 1867 091f 02       		.byte	0x2
 1868 0920 23       		.byte	0x23
 1869 0921 00       		.uleb128 0
ARM GAS  C:\Users\DNIEL~1\AppData\Local\Temp\cczvk6aO.s 			page 34


 1870 0922 00       		.byte	0
 1871 0923 08       		.uleb128 0x8
 1872 0924 04       		.byte	0x4
 1873 0925 0C       		.byte	0xc
 1874 0926 C1       		.byte	0xc1
 1875 0927 3D090000 		.4byte	0x93d
 1876 092b 19       		.uleb128 0x19
 1877 092c 45494400 		.ascii	"EID\000"
 1878 0930 0C       		.byte	0xc
 1879 0931 C2       		.byte	0xc2
 1880 0932 7B000000 		.4byte	0x7b
 1881 0936 04       		.byte	0x4
 1882 0937 1D       		.byte	0x1d
 1883 0938 03       		.byte	0x3
 1884 0939 02       		.byte	0x2
 1885 093a 23       		.byte	0x23
 1886 093b 00       		.uleb128 0
 1887 093c 00       		.byte	0
 1888 093d 0E       		.uleb128 0xe
 1889 093e 04       		.byte	0x4
 1890 093f 0C       		.byte	0xc
 1891 0940 BD       		.byte	0xbd
 1892 0941 50090000 		.4byte	0x950
 1893 0945 1A       		.uleb128 0x1a
 1894 0946 09090000 		.4byte	0x909
 1895 094a 1A       		.uleb128 0x1a
 1896 094b 23090000 		.4byte	0x923
 1897 094f 00       		.byte	0
 1898 0950 0E       		.uleb128 0xe
 1899 0951 08       		.byte	0x8
 1900 0952 0C       		.byte	0xc
 1901 0953 C5       		.byte	0xc5
 1902 0954 7A090000 		.4byte	0x97a
 1903 0958 0F       		.uleb128 0xf
 1904 0959 BC020000 		.4byte	.LASF102
 1905 095d 0C       		.byte	0xc
 1906 095e C6       		.byte	0xc6
 1907 095f 5C080000 		.4byte	0x85c
 1908 0963 0F       		.uleb128 0xf
 1909 0964 27050000 		.4byte	.LASF103
 1910 0968 0C       		.byte	0xc
 1911 0969 C7       		.byte	0xc7
 1912 096a 6C080000 		.4byte	0x86c
 1913 096e 0F       		.uleb128 0xf
 1914 096f 69000000 		.4byte	.LASF104
 1915 0973 0C       		.byte	0xc
 1916 0974 C8       		.byte	0xc8
 1917 0975 C7040000 		.4byte	0x4c7
 1918 0979 00       		.byte	0
 1919 097a 08       		.uleb128 0x8
 1920 097b 14       		.byte	0x14
 1921 097c 0C       		.byte	0xc
 1922 097d B3       		.byte	0xb3
 1923 097e A3090000 		.4byte	0x9a3
 1924 0982 1B       		.uleb128 0x1b
 1925 0983 A8080000 		.4byte	0x8a8
 1926 0987 02       		.byte	0x2
ARM GAS  C:\Users\DNIEL~1\AppData\Local\Temp\cczvk6aO.s 			page 35


 1927 0988 23       		.byte	0x23
 1928 0989 00       		.uleb128 0
 1929 098a 1B       		.uleb128 0x1b
 1930 098b CD080000 		.4byte	0x8cd
 1931 098f 02       		.byte	0x2
 1932 0990 23       		.byte	0x23
 1933 0991 04       		.uleb128 0x4
 1934 0992 1B       		.uleb128 0x1b
 1935 0993 3D090000 		.4byte	0x93d
 1936 0997 02       		.byte	0x2
 1937 0998 23       		.byte	0x23
 1938 0999 08       		.uleb128 0x8
 1939 099a 1B       		.uleb128 0x1b
 1940 099b 50090000 		.4byte	0x950
 1941 099f 02       		.byte	0x2
 1942 09a0 23       		.byte	0x23
 1943 09a1 0C       		.uleb128 0xc
 1944 09a2 00       		.byte	0
 1945 09a3 04       		.uleb128 0x4
 1946 09a4 19000000 		.4byte	.LASF107
 1947 09a8 0C       		.byte	0xc
 1948 09a9 CA       		.byte	0xca
 1949 09aa 7A090000 		.4byte	0x97a
 1950 09ae 08       		.uleb128 0x8
 1951 09af 08       		.byte	0x8
 1952 09b0 0C       		.byte	0xc
 1953 09b1 F4       		.byte	0xf4
 1954 09b2 D4090000 		.4byte	0x9d4
 1955 09b6 07       		.uleb128 0x7
 1956 09b7 6D637200 		.ascii	"mcr\000"
 1957 09bb 0C       		.byte	0xc
 1958 09bc FA       		.byte	0xfa
 1959 09bd 7B000000 		.4byte	0x7b
 1960 09c1 02       		.byte	0x2
 1961 09c2 23       		.byte	0x23
 1962 09c3 00       		.uleb128 0
 1963 09c4 0C       		.uleb128 0xc
 1964 09c5 62747200 		.ascii	"btr\000"
 1965 09c9 0C       		.byte	0xc
 1966 09ca 0001     		.2byte	0x100
 1967 09cc 7B000000 		.4byte	0x7b
 1968 09d0 02       		.byte	0x2
 1969 09d1 23       		.byte	0x23
 1970 09d2 04       		.uleb128 0x4
 1971 09d3 00       		.byte	0
 1972 09d4 15       		.uleb128 0x15
 1973 09d5 33000000 		.4byte	.LASF108
 1974 09d9 0C       		.byte	0xc
 1975 09da 0101     		.2byte	0x101
 1976 09dc AE090000 		.4byte	0x9ae
 1977 09e0 13       		.uleb128 0x13
 1978 09e1 38       		.byte	0x38
 1979 09e2 0C       		.byte	0xc
 1980 09e3 0601     		.2byte	0x106
 1981 09e5 800A0000 		.4byte	0xa80
 1982 09e9 14       		.uleb128 0x14
 1983 09ea DF000000 		.4byte	.LASF109
ARM GAS  C:\Users\DNIEL~1\AppData\Local\Temp\cczvk6aO.s 			page 36


 1984 09ee 0C       		.byte	0xc
 1985 09ef 0A01     		.2byte	0x10a
 1986 09f1 99070000 		.4byte	0x799
 1987 09f5 02       		.byte	0x2
 1988 09f6 23       		.byte	0x23
 1989 09f7 00       		.uleb128 0
 1990 09f8 14       		.uleb128 0x14
 1991 09f9 AD040000 		.4byte	.LASF110
 1992 09fd 0C       		.byte	0xc
 1993 09fe 0E01     		.2byte	0x10e
 1994 0a00 800A0000 		.4byte	0xa80
 1995 0a04 02       		.byte	0x2
 1996 0a05 23       		.byte	0x23
 1997 0a06 04       		.uleb128 0x4
 1998 0a07 14       		.uleb128 0x14
 1999 0a08 C1000000 		.4byte	.LASF111
 2000 0a0c 0C       		.byte	0xc
 2001 0a0d 1201     		.2byte	0x112
 2002 0a0f 9B030000 		.4byte	0x39b
 2003 0a13 02       		.byte	0x2
 2004 0a14 23       		.byte	0x23
 2005 0a15 08       		.uleb128 0x8
 2006 0a16 14       		.uleb128 0x14
 2007 0a17 BB050000 		.4byte	.LASF112
 2008 0a1b 0C       		.byte	0xc
 2009 0a1c 1601     		.2byte	0x116
 2010 0a1e 9B030000 		.4byte	0x39b
 2011 0a22 02       		.byte	0x2
 2012 0a23 23       		.byte	0x23
 2013 0a24 14       		.uleb128 0x14
 2014 0a25 14       		.uleb128 0x14
 2015 0a26 92010000 		.4byte	.LASF113
 2016 0a2a 0C       		.byte	0xc
 2017 0a2b 2301     		.2byte	0x123
 2018 0a2d 5F040000 		.4byte	0x45f
 2019 0a31 02       		.byte	0x2
 2020 0a32 23       		.byte	0x23
 2021 0a33 20       		.uleb128 0x20
 2022 0a34 14       		.uleb128 0x14
 2023 0a35 88040000 		.4byte	.LASF114
 2024 0a39 0C       		.byte	0xc
 2025 0a3a 2A01     		.2byte	0x12a
 2026 0a3c 5F040000 		.4byte	0x45f
 2027 0a40 02       		.byte	0x2
 2028 0a41 23       		.byte	0x23
 2029 0a42 24       		.uleb128 0x24
 2030 0a43 14       		.uleb128 0x14
 2031 0a44 64030000 		.4byte	.LASF115
 2032 0a48 0C       		.byte	0xc
 2033 0a49 3001     		.2byte	0x130
 2034 0a4b 5F040000 		.4byte	0x45f
 2035 0a4f 02       		.byte	0x2
 2036 0a50 23       		.byte	0x23
 2037 0a51 28       		.uleb128 0x28
 2038 0a52 14       		.uleb128 0x14
 2039 0a53 3E030000 		.4byte	.LASF116
 2040 0a57 0C       		.byte	0xc
ARM GAS  C:\Users\DNIEL~1\AppData\Local\Temp\cczvk6aO.s 			page 37


 2041 0a58 3501     		.2byte	0x135
 2042 0a5a 5F040000 		.4byte	0x45f
 2043 0a5e 02       		.byte	0x2
 2044 0a5f 23       		.byte	0x23
 2045 0a60 2C       		.uleb128 0x2c
 2046 0a61 14       		.uleb128 0x14
 2047 0a62 E5030000 		.4byte	.LASF117
 2048 0a66 0C       		.byte	0xc
 2049 0a67 3901     		.2byte	0x139
 2050 0a69 5F040000 		.4byte	0x45f
 2051 0a6d 02       		.byte	0x2
 2052 0a6e 23       		.byte	0x23
 2053 0a6f 30       		.uleb128 0x30
 2054 0a70 0C       		.uleb128 0xc
 2055 0a71 63616E00 		.ascii	"can\000"
 2056 0a75 0C       		.byte	0xc
 2057 0a76 3F01     		.2byte	0x13f
 2058 0a78 8B0A0000 		.4byte	0xa8b
 2059 0a7c 02       		.byte	0x2
 2060 0a7d 23       		.byte	0x23
 2061 0a7e 34       		.uleb128 0x34
 2062 0a7f 00       		.byte	0
 2063 0a80 09       		.uleb128 0x9
 2064 0a81 04       		.byte	0x4
 2065 0a82 860A0000 		.4byte	0xa86
 2066 0a86 10       		.uleb128 0x10
 2067 0a87 D4090000 		.4byte	0x9d4
 2068 0a8b 09       		.uleb128 0x9
 2069 0a8c 04       		.byte	0x4
 2070 0a8d 66070000 		.4byte	0x766
 2071 0a91 15       		.uleb128 0x15
 2072 0a92 C9020000 		.4byte	.LASF118
 2073 0a96 0C       		.byte	0xc
 2074 0a97 4001     		.2byte	0x140
 2075 0a99 E0090000 		.4byte	0x9e0
 2076 0a9d 1C       		.uleb128 0x1c
 2077 0a9e 01       		.byte	0x1
 2078 0a9f 2B000000 		.4byte	.LASF119
 2079 0aa3 01       		.byte	0x1
 2080 0aa4 44       		.byte	0x44
 2081 0aa5 01       		.byte	0x1
 2082 0aa6 00000000 		.4byte	.LFB118
 2083 0aaa 04000000 		.4byte	.LFE118
 2084 0aae 02       		.byte	0x2
 2085 0aaf 7D       		.byte	0x7d
 2086 0ab0 00       		.sleb128 0
 2087 0ab1 01       		.byte	0x1
 2088 0ab2 C10A0000 		.4byte	0xac1
 2089 0ab6 1D       		.uleb128 0x1d
 2090 0ab7 04000000 		.4byte	.LVL0
 2091 0abb 01       		.byte	0x1
 2092 0abc D30F0000 		.4byte	0xfd3
 2093 0ac0 00       		.byte	0
 2094 0ac1 1E       		.uleb128 0x1e
 2095 0ac2 01       		.byte	0x1
 2096 0ac3 C7000000 		.4byte	.LASF120
 2097 0ac7 01       		.byte	0x1
ARM GAS  C:\Users\DNIEL~1\AppData\Local\Temp\cczvk6aO.s 			page 38


 2098 0ac8 50       		.byte	0x50
 2099 0ac9 01       		.byte	0x1
 2100 0aca 00000000 		.4byte	.LFB119
 2101 0ace 40000000 		.4byte	.LFE119
 2102 0ad2 00000000 		.4byte	.LLST0
 2103 0ad6 01       		.byte	0x1
 2104 0ad7 1B0B0000 		.4byte	0xb1b
 2105 0adb 1F       		.uleb128 0x1f
 2106 0adc 7A040000 		.4byte	.LASF122
 2107 0ae0 01       		.byte	0x1
 2108 0ae1 50       		.byte	0x50
 2109 0ae2 1B0B0000 		.4byte	0xb1b
 2110 0ae6 20000000 		.4byte	.LLST1
 2111 0aea 20       		.uleb128 0x20
 2112 0aeb 16000000 		.4byte	.LVL3
 2113 0aef DE0F0000 		.4byte	0xfde
 2114 0af3 040B0000 		.4byte	0xb04
 2115 0af7 21       		.uleb128 0x21
 2116 0af8 01       		.byte	0x1
 2117 0af9 51       		.byte	0x51
 2118 0afa 02       		.byte	0x2
 2119 0afb 75       		.byte	0x75
 2120 0afc 00       		.sleb128 0
 2121 0afd 21       		.uleb128 0x21
 2122 0afe 01       		.byte	0x1
 2123 0aff 50       		.byte	0x50
 2124 0b00 02       		.byte	0x2
 2125 0b01 74       		.byte	0x74
 2126 0b02 08       		.sleb128 8
 2127 0b03 00       		.byte	0
 2128 0b04 22       		.uleb128 0x22
 2129 0b05 20000000 		.4byte	.LVL4
 2130 0b09 DE0F0000 		.4byte	0xfde
 2131 0b0d 21       		.uleb128 0x21
 2132 0b0e 01       		.byte	0x1
 2133 0b0f 51       		.byte	0x51
 2134 0b10 02       		.byte	0x2
 2135 0b11 75       		.byte	0x75
 2136 0b12 00       		.sleb128 0
 2137 0b13 21       		.uleb128 0x21
 2138 0b14 01       		.byte	0x1
 2139 0b15 50       		.byte	0x50
 2140 0b16 02       		.byte	0x2
 2141 0b17 74       		.byte	0x74
 2142 0b18 14       		.sleb128 20
 2143 0b19 00       		.byte	0
 2144 0b1a 00       		.byte	0
 2145 0b1b 09       		.uleb128 0x9
 2146 0b1c 04       		.byte	0x4
 2147 0b1d 910A0000 		.4byte	0xa91
 2148 0b21 1E       		.uleb128 0x1e
 2149 0b22 01       		.byte	0x1
 2150 0b23 78010000 		.4byte	.LASF121
 2151 0b27 01       		.byte	0x1
 2152 0b28 6B       		.byte	0x6b
 2153 0b29 01       		.byte	0x1
 2154 0b2a 00000000 		.4byte	.LFB120
ARM GAS  C:\Users\DNIEL~1\AppData\Local\Temp\cczvk6aO.s 			page 39


 2155 0b2e 3A000000 		.4byte	.LFE120
 2156 0b32 3E000000 		.4byte	.LLST2
 2157 0b36 01       		.byte	0x1
 2158 0b37 BC0B0000 		.4byte	0xbbc
 2159 0b3b 1F       		.uleb128 0x1f
 2160 0b3c 7A040000 		.4byte	.LASF122
 2161 0b40 01       		.byte	0x1
 2162 0b41 6B       		.byte	0x6b
 2163 0b42 1B0B0000 		.4byte	0xb1b
 2164 0b46 5E000000 		.4byte	.LLST3
 2165 0b4a 1F       		.uleb128 0x1f
 2166 0b4b AD040000 		.4byte	.LASF110
 2167 0b4f 01       		.byte	0x1
 2168 0b50 6B       		.byte	0x6b
 2169 0b51 800A0000 		.4byte	0xa80
 2170 0b55 7C000000 		.4byte	.LLST4
 2171 0b59 23       		.uleb128 0x23
 2172 0b5a 06000000 		.4byte	.LBB2
 2173 0b5e 0C000000 		.4byte	.LBE2
 2174 0b62 760B0000 		.4byte	0xb76
 2175 0b66 24       		.uleb128 0x24
 2176 0b67 746D7000 		.ascii	"tmp\000"
 2177 0b6b 01       		.byte	0x1
 2178 0b6c 6F       		.byte	0x6f
 2179 0b6d 7B000000 		.4byte	0x7b
 2180 0b71 9A000000 		.4byte	.LLST5
 2181 0b75 00       		.byte	0
 2182 0b76 23       		.uleb128 0x23
 2183 0b77 24000000 		.4byte	.LBB3
 2184 0b7b 2C000000 		.4byte	.LBE3
 2185 0b7f 930B0000 		.4byte	0xb93
 2186 0b83 24       		.uleb128 0x24
 2187 0b84 746D7000 		.ascii	"tmp\000"
 2188 0b88 01       		.byte	0x1
 2189 0b89 7B       		.byte	0x7b
 2190 0b8a 7B000000 		.4byte	0x7b
 2191 0b8e AD000000 		.4byte	.LLST6
 2192 0b92 00       		.byte	0
 2193 0b93 20       		.uleb128 0x20
 2194 0b94 1A000000 		.4byte	.LVL10
 2195 0b98 FD0F0000 		.4byte	0xffd
 2196 0b9c AB0B0000 		.4byte	0xbab
 2197 0ba0 21       		.uleb128 0x21
 2198 0ba1 01       		.byte	0x1
 2199 0ba2 51       		.byte	0x51
 2200 0ba3 01       		.byte	0x1
 2201 0ba4 31       		.byte	0x31
 2202 0ba5 21       		.uleb128 0x21
 2203 0ba6 01       		.byte	0x1
 2204 0ba7 50       		.byte	0x50
 2205 0ba8 01       		.byte	0x1
 2206 0ba9 36       		.byte	0x36
 2207 0baa 00       		.byte	0
 2208 0bab 22       		.uleb128 0x22
 2209 0bac 34000000 		.4byte	.LVL14
 2210 0bb0 1A100000 		.4byte	0x101a
 2211 0bb4 21       		.uleb128 0x21
ARM GAS  C:\Users\DNIEL~1\AppData\Local\Temp\cczvk6aO.s 			page 40


 2212 0bb5 01       		.byte	0x1
 2213 0bb6 50       		.byte	0x50
 2214 0bb7 02       		.byte	0x2
 2215 0bb8 74       		.byte	0x74
 2216 0bb9 00       		.sleb128 0
 2217 0bba 00       		.byte	0
 2218 0bbb 00       		.byte	0
 2219 0bbc 1E       		.uleb128 0x1e
 2220 0bbd 01       		.byte	0x1
 2221 0bbe B6030000 		.4byte	.LASF123
 2222 0bc2 01       		.byte	0x1
 2223 0bc3 85       		.byte	0x85
 2224 0bc4 01       		.byte	0x1
 2225 0bc5 00000000 		.4byte	.LFB121
 2226 0bc9 32000000 		.4byte	.LFE121
 2227 0bcd C0000000 		.4byte	.LLST7
 2228 0bd1 01       		.byte	0x1
 2229 0bd2 6B0C0000 		.4byte	0xc6b
 2230 0bd6 1F       		.uleb128 0x1f
 2231 0bd7 7A040000 		.4byte	.LASF122
 2232 0bdb 01       		.byte	0x1
 2233 0bdc 85       		.byte	0x85
 2234 0bdd 1B0B0000 		.4byte	0xb1b
 2235 0be1 E0000000 		.4byte	.LLST8
 2236 0be5 25       		.uleb128 0x25
 2237 0be6 00000000 		.4byte	.Ldebug_ranges0+0
 2238 0bea FE0B0000 		.4byte	0xbfe
 2239 0bee 24       		.uleb128 0x24
 2240 0bef 746D7000 		.ascii	"tmp\000"
 2241 0bf3 01       		.byte	0x1
 2242 0bf4 89       		.byte	0x89
 2243 0bf5 7B000000 		.4byte	0x7b
 2244 0bf9 FE000000 		.4byte	.LLST9
 2245 0bfd 00       		.byte	0
 2246 0bfe 23       		.uleb128 0x23
 2247 0bff 2A000000 		.4byte	.LBB6
 2248 0c03 32000000 		.4byte	.LBE6
 2249 0c07 1B0C0000 		.4byte	0xc1b
 2250 0c0b 24       		.uleb128 0x24
 2251 0c0c 746D7000 		.ascii	"tmp\000"
 2252 0c10 01       		.byte	0x1
 2253 0c11 91       		.byte	0x91
 2254 0c12 7B000000 		.4byte	0x7b
 2255 0c16 11010000 		.4byte	.LLST10
 2256 0c1a 00       		.byte	0
 2257 0c1b 20       		.uleb128 0x20
 2258 0c1c 0E000000 		.4byte	.LVL18
 2259 0c20 2F100000 		.4byte	0x102f
 2260 0c24 2F0C0000 		.4byte	0xc2f
 2261 0c28 21       		.uleb128 0x21
 2262 0c29 01       		.byte	0x1
 2263 0c2a 50       		.byte	0x50
 2264 0c2b 02       		.byte	0x2
 2265 0c2c 74       		.byte	0x74
 2266 0c2d 00       		.sleb128 0
 2267 0c2e 00       		.byte	0
 2268 0c2f 20       		.uleb128 0x20
ARM GAS  C:\Users\DNIEL~1\AppData\Local\Temp\cczvk6aO.s 			page 41


 2269 0c30 1C000000 		.4byte	.LVL19
 2270 0c34 44100000 		.4byte	0x1044
 2271 0c38 480C0000 		.4byte	0xc48
 2272 0c3c 21       		.uleb128 0x21
 2273 0c3d 01       		.byte	0x1
 2274 0c3e 51       		.byte	0x51
 2275 0c3f 01       		.byte	0x1
 2276 0c40 30       		.byte	0x30
 2277 0c41 21       		.uleb128 0x21
 2278 0c42 01       		.byte	0x1
 2279 0c43 50       		.byte	0x50
 2280 0c44 02       		.byte	0x2
 2281 0c45 74       		.byte	0x74
 2282 0c46 14       		.sleb128 20
 2283 0c47 00       		.byte	0
 2284 0c48 20       		.uleb128 0x20
 2285 0c49 26000000 		.4byte	.LVL20
 2286 0c4d 44100000 		.4byte	0x1044
 2287 0c51 610C0000 		.4byte	0xc61
 2288 0c55 21       		.uleb128 0x21
 2289 0c56 01       		.byte	0x1
 2290 0c57 51       		.byte	0x51
 2291 0c58 01       		.byte	0x1
 2292 0c59 30       		.byte	0x30
 2293 0c5a 21       		.uleb128 0x21
 2294 0c5b 01       		.byte	0x1
 2295 0c5c 50       		.byte	0x50
 2296 0c5d 02       		.byte	0x2
 2297 0c5e 74       		.byte	0x74
 2298 0c5f 08       		.sleb128 8
 2299 0c60 00       		.byte	0
 2300 0c61 26       		.uleb128 0x26
 2301 0c62 2A000000 		.4byte	.LVL21
 2302 0c66 5D100000 		.4byte	0x105d
 2303 0c6a 00       		.byte	0
 2304 0c6b 27       		.uleb128 0x27
 2305 0c6c 01       		.byte	0x1
 2306 0c6d 9D020000 		.4byte	.LASF127
 2307 0c71 01       		.byte	0x1
 2308 0c72 A9       		.byte	0xa9
 2309 0c73 01       		.byte	0x1
 2310 0c74 E4000000 		.4byte	0xe4
 2311 0c78 00000000 		.4byte	.LFB122
 2312 0c7c 52000000 		.4byte	.LFE122
 2313 0c80 24010000 		.4byte	.LLST11
 2314 0c84 01       		.byte	0x1
 2315 0c85 820D0000 		.4byte	0xd82
 2316 0c89 1F       		.uleb128 0x1f
 2317 0c8a 7A040000 		.4byte	.LASF122
 2318 0c8e 01       		.byte	0x1
 2319 0c8f A9       		.byte	0xa9
 2320 0c90 1B0B0000 		.4byte	0xb1b
 2321 0c94 44010000 		.4byte	.LLST12
 2322 0c98 1F       		.uleb128 0x1f
 2323 0c99 A2000000 		.4byte	.LASF124
 2324 0c9d 01       		.byte	0x1
 2325 0c9e AA       		.byte	0xaa
ARM GAS  C:\Users\DNIEL~1\AppData\Local\Temp\cczvk6aO.s 			page 42


 2326 0c9f A4070000 		.4byte	0x7a4
 2327 0ca3 78010000 		.4byte	.LLST13
 2328 0ca7 1F       		.uleb128 0x1f
 2329 0ca8 46010000 		.4byte	.LASF125
 2330 0cac 01       		.byte	0x1
 2331 0cad AB       		.byte	0xab
 2332 0cae 820D0000 		.4byte	0xd82
 2333 0cb2 AC010000 		.4byte	.LLST14
 2334 0cb6 1F       		.uleb128 0x1f
 2335 0cb7 F4010000 		.4byte	.LASF126
 2336 0cbb 01       		.byte	0x1
 2337 0cbc AC       		.byte	0xac
 2338 0cbd 05010000 		.4byte	0x105
 2339 0cc1 CA010000 		.4byte	.LLST15
 2340 0cc5 23       		.uleb128 0x23
 2341 0cc6 0C000000 		.4byte	.LBB7
 2342 0cca 12000000 		.4byte	.LBE7
 2343 0cce E20C0000 		.4byte	0xce2
 2344 0cd2 24       		.uleb128 0x24
 2345 0cd3 746D7000 		.ascii	"tmp\000"
 2346 0cd7 01       		.byte	0x1
 2347 0cd8 B1       		.byte	0xb1
 2348 0cd9 7B000000 		.4byte	0x7b
 2349 0cdd E8010000 		.4byte	.LLST16
 2350 0ce1 00       		.byte	0
 2351 0ce2 25       		.uleb128 0x25
 2352 0ce3 18000000 		.4byte	.Ldebug_ranges0+0x18
 2353 0ce7 2E0D0000 		.4byte	0xd2e
 2354 0ceb 24       		.uleb128 0x24
 2355 0cec 6D736700 		.ascii	"msg\000"
 2356 0cf0 01       		.byte	0x1
 2357 0cf1 B5       		.byte	0xb5
 2358 0cf2 E4000000 		.4byte	0xe4
 2359 0cf6 06020000 		.4byte	.LLST17
 2360 0cfa 23       		.uleb128 0x23
 2361 0cfb 32000000 		.4byte	.LBB9
 2362 0cff 38000000 		.4byte	.LBE9
 2363 0d03 170D0000 		.4byte	0xd17
 2364 0d07 24       		.uleb128 0x24
 2365 0d08 746D7000 		.ascii	"tmp\000"
 2366 0d0c 01       		.byte	0x1
 2367 0d0d B7       		.byte	0xb7
 2368 0d0e 7B000000 		.4byte	0x7b
 2369 0d12 19020000 		.4byte	.LLST18
 2370 0d16 00       		.byte	0
 2371 0d17 22       		.uleb128 0x22
 2372 0d18 2E000000 		.4byte	.LVL31
 2373 0d1c 67100000 		.4byte	0x1067
 2374 0d20 21       		.uleb128 0x21
 2375 0d21 01       		.byte	0x1
 2376 0d22 51       		.byte	0x51
 2377 0d23 02       		.byte	0x2
 2378 0d24 78       		.byte	0x78
 2379 0d25 00       		.sleb128 0
 2380 0d26 21       		.uleb128 0x21
 2381 0d27 01       		.byte	0x1
 2382 0d28 50       		.byte	0x50
ARM GAS  C:\Users\DNIEL~1\AppData\Local\Temp\cczvk6aO.s 			page 43


 2383 0d29 02       		.byte	0x2
 2384 0d2a 77       		.byte	0x77
 2385 0d2b 00       		.sleb128 0
 2386 0d2c 00       		.byte	0
 2387 0d2d 00       		.byte	0
 2388 0d2e 23       		.uleb128 0x23
 2389 0d2f 46000000 		.4byte	.LBB11
 2390 0d33 4C000000 		.4byte	.LBE11
 2391 0d37 4B0D0000 		.4byte	0xd4b
 2392 0d3b 24       		.uleb128 0x24
 2393 0d3c 746D7000 		.ascii	"tmp\000"
 2394 0d40 01       		.byte	0x1
 2395 0d41 BC       		.byte	0xbc
 2396 0d42 7B000000 		.4byte	0x7b
 2397 0d46 2C020000 		.4byte	.LLST19
 2398 0d4a 00       		.byte	0
 2399 0d4b 20       		.uleb128 0x20
 2400 0d4c 24000000 		.4byte	.LVL29
 2401 0d50 84100000 		.4byte	0x1084
 2402 0d54 650D0000 		.4byte	0xd65
 2403 0d58 21       		.uleb128 0x21
 2404 0d59 01       		.byte	0x1
 2405 0d5a 51       		.byte	0x51
 2406 0d5b 02       		.byte	0x2
 2407 0d5c 76       		.byte	0x76
 2408 0d5d 00       		.sleb128 0
 2409 0d5e 21       		.uleb128 0x21
 2410 0d5f 01       		.byte	0x1
 2411 0d60 50       		.byte	0x50
 2412 0d61 02       		.byte	0x2
 2413 0d62 74       		.byte	0x74
 2414 0d63 00       		.sleb128 0
 2415 0d64 00       		.byte	0
 2416 0d65 22       		.uleb128 0x22
 2417 0d66 46000000 		.4byte	.LVL35
 2418 0d6a A2100000 		.4byte	0x10a2
 2419 0d6e 21       		.uleb128 0x21
 2420 0d6f 01       		.byte	0x1
 2421 0d70 52       		.byte	0x52
 2422 0d71 02       		.byte	0x2
 2423 0d72 79       		.byte	0x79
 2424 0d73 00       		.sleb128 0
 2425 0d74 21       		.uleb128 0x21
 2426 0d75 01       		.byte	0x1
 2427 0d76 51       		.byte	0x51
 2428 0d77 02       		.byte	0x2
 2429 0d78 76       		.byte	0x76
 2430 0d79 00       		.sleb128 0
 2431 0d7a 21       		.uleb128 0x21
 2432 0d7b 01       		.byte	0x1
 2433 0d7c 50       		.byte	0x50
 2434 0d7d 02       		.byte	0x2
 2435 0d7e 74       		.byte	0x74
 2436 0d7f 00       		.sleb128 0
 2437 0d80 00       		.byte	0
 2438 0d81 00       		.byte	0
 2439 0d82 09       		.uleb128 0x9
ARM GAS  C:\Users\DNIEL~1\AppData\Local\Temp\cczvk6aO.s 			page 44


 2440 0d83 04       		.byte	0x4
 2441 0d84 880D0000 		.4byte	0xd88
 2442 0d88 10       		.uleb128 0x10
 2443 0d89 9D080000 		.4byte	0x89d
 2444 0d8d 27       		.uleb128 0x27
 2445 0d8e 01       		.byte	0x1
 2446 0d8f 70000000 		.4byte	.LASF128
 2447 0d93 01       		.byte	0x1
 2448 0d94 D6       		.byte	0xd6
 2449 0d95 01       		.byte	0x1
 2450 0d96 E4000000 		.4byte	0xe4
 2451 0d9a 00000000 		.4byte	.LFB123
 2452 0d9e 52000000 		.4byte	.LFE123
 2453 0da2 3F020000 		.4byte	.LLST20
 2454 0da6 01       		.byte	0x1
 2455 0da7 A40E0000 		.4byte	0xea4
 2456 0dab 1F       		.uleb128 0x1f
 2457 0dac 7A040000 		.4byte	.LASF122
 2458 0db0 01       		.byte	0x1
 2459 0db1 D6       		.byte	0xd6
 2460 0db2 1B0B0000 		.4byte	0xb1b
 2461 0db6 5F020000 		.4byte	.LLST21
 2462 0dba 1F       		.uleb128 0x1f
 2463 0dbb A2000000 		.4byte	.LASF124
 2464 0dbf 01       		.byte	0x1
 2465 0dc0 D7       		.byte	0xd7
 2466 0dc1 A4070000 		.4byte	0x7a4
 2467 0dc5 93020000 		.4byte	.LLST22
 2468 0dc9 1F       		.uleb128 0x1f
 2469 0dca 70030000 		.4byte	.LASF129
 2470 0dce 01       		.byte	0x1
 2471 0dcf D8       		.byte	0xd8
 2472 0dd0 A40E0000 		.4byte	0xea4
 2473 0dd4 C7020000 		.4byte	.LLST23
 2474 0dd8 1F       		.uleb128 0x1f
 2475 0dd9 F4010000 		.4byte	.LASF126
 2476 0ddd 01       		.byte	0x1
 2477 0dde D9       		.byte	0xd9
 2478 0ddf 05010000 		.4byte	0x105
 2479 0de3 E5020000 		.4byte	.LLST24
 2480 0de7 23       		.uleb128 0x23
 2481 0de8 0C000000 		.4byte	.LBB12
 2482 0dec 12000000 		.4byte	.LBE12
 2483 0df0 040E0000 		.4byte	0xe04
 2484 0df4 24       		.uleb128 0x24
 2485 0df5 746D7000 		.ascii	"tmp\000"
 2486 0df9 01       		.byte	0x1
 2487 0dfa DE       		.byte	0xde
 2488 0dfb 7B000000 		.4byte	0x7b
 2489 0dff 03030000 		.4byte	.LLST25
 2490 0e03 00       		.byte	0
 2491 0e04 25       		.uleb128 0x25
 2492 0e05 30000000 		.4byte	.Ldebug_ranges0+0x30
 2493 0e09 500E0000 		.4byte	0xe50
 2494 0e0d 24       		.uleb128 0x24
 2495 0e0e 6D736700 		.ascii	"msg\000"
 2496 0e12 01       		.byte	0x1
ARM GAS  C:\Users\DNIEL~1\AppData\Local\Temp\cczvk6aO.s 			page 45


 2497 0e13 E2       		.byte	0xe2
 2498 0e14 E4000000 		.4byte	0xe4
 2499 0e18 21030000 		.4byte	.LLST26
 2500 0e1c 23       		.uleb128 0x23
 2501 0e1d 32000000 		.4byte	.LBB14
 2502 0e21 38000000 		.4byte	.LBE14
 2503 0e25 390E0000 		.4byte	0xe39
 2504 0e29 24       		.uleb128 0x24
 2505 0e2a 746D7000 		.ascii	"tmp\000"
 2506 0e2e 01       		.byte	0x1
 2507 0e2f E4       		.byte	0xe4
 2508 0e30 7B000000 		.4byte	0x7b
 2509 0e34 34030000 		.4byte	.LLST27
 2510 0e38 00       		.byte	0
 2511 0e39 22       		.uleb128 0x22
 2512 0e3a 2E000000 		.4byte	.LVL45
 2513 0e3e 67100000 		.4byte	0x1067
 2514 0e42 21       		.uleb128 0x21
 2515 0e43 01       		.byte	0x1
 2516 0e44 51       		.byte	0x51
 2517 0e45 02       		.byte	0x2
 2518 0e46 78       		.byte	0x78
 2519 0e47 00       		.sleb128 0
 2520 0e48 21       		.uleb128 0x21
 2521 0e49 01       		.byte	0x1
 2522 0e4a 50       		.byte	0x50
 2523 0e4b 02       		.byte	0x2
 2524 0e4c 77       		.byte	0x77
 2525 0e4d 00       		.sleb128 0
 2526 0e4e 00       		.byte	0
 2527 0e4f 00       		.byte	0
 2528 0e50 23       		.uleb128 0x23
 2529 0e51 46000000 		.4byte	.LBB16
 2530 0e55 4C000000 		.4byte	.LBE16
 2531 0e59 6D0E0000 		.4byte	0xe6d
 2532 0e5d 24       		.uleb128 0x24
 2533 0e5e 746D7000 		.ascii	"tmp\000"
 2534 0e62 01       		.byte	0x1
 2535 0e63 E9       		.byte	0xe9
 2536 0e64 7B000000 		.4byte	0x7b
 2537 0e68 47030000 		.4byte	.LLST28
 2538 0e6c 00       		.byte	0
 2539 0e6d 20       		.uleb128 0x20
 2540 0e6e 24000000 		.4byte	.LVL43
 2541 0e72 C1100000 		.4byte	0x10c1
 2542 0e76 870E0000 		.4byte	0xe87
 2543 0e7a 21       		.uleb128 0x21
 2544 0e7b 01       		.byte	0x1
 2545 0e7c 51       		.byte	0x51
 2546 0e7d 02       		.byte	0x2
 2547 0e7e 76       		.byte	0x76
 2548 0e7f 00       		.sleb128 0
 2549 0e80 21       		.uleb128 0x21
 2550 0e81 01       		.byte	0x1
 2551 0e82 50       		.byte	0x50
 2552 0e83 02       		.byte	0x2
 2553 0e84 74       		.byte	0x74
ARM GAS  C:\Users\DNIEL~1\AppData\Local\Temp\cczvk6aO.s 			page 46


 2554 0e85 00       		.sleb128 0
 2555 0e86 00       		.byte	0
 2556 0e87 22       		.uleb128 0x22
 2557 0e88 46000000 		.4byte	.LVL49
 2558 0e8c DF100000 		.4byte	0x10df
 2559 0e90 21       		.uleb128 0x21
 2560 0e91 01       		.byte	0x1
 2561 0e92 52       		.byte	0x52
 2562 0e93 02       		.byte	0x2
 2563 0e94 79       		.byte	0x79
 2564 0e95 00       		.sleb128 0
 2565 0e96 21       		.uleb128 0x21
 2566 0e97 01       		.byte	0x1
 2567 0e98 51       		.byte	0x51
 2568 0e99 02       		.byte	0x2
 2569 0e9a 76       		.byte	0x76
 2570 0e9b 00       		.sleb128 0
 2571 0e9c 21       		.uleb128 0x21
 2572 0e9d 01       		.byte	0x1
 2573 0e9e 50       		.byte	0x50
 2574 0e9f 02       		.byte	0x2
 2575 0ea0 74       		.byte	0x74
 2576 0ea1 00       		.sleb128 0
 2577 0ea2 00       		.byte	0
 2578 0ea3 00       		.byte	0
 2579 0ea4 09       		.uleb128 0x9
 2580 0ea5 04       		.byte	0x4
 2581 0ea6 A3090000 		.4byte	0x9a3
 2582 0eaa 1E       		.uleb128 0x1e
 2583 0eab 01       		.byte	0x1
 2584 0eac 50040000 		.4byte	.LASF130
 2585 0eb0 01       		.byte	0x1
 2586 0eb1 FA       		.byte	0xfa
 2587 0eb2 01       		.byte	0x1
 2588 0eb3 00000000 		.4byte	.LFB124
 2589 0eb7 30000000 		.4byte	.LFE124
 2590 0ebb 5A030000 		.4byte	.LLST29
 2591 0ebf 01       		.byte	0x1
 2592 0ec0 360F0000 		.4byte	0xf36
 2593 0ec4 1F       		.uleb128 0x1f
 2594 0ec5 7A040000 		.4byte	.LASF122
 2595 0ec9 01       		.byte	0x1
 2596 0eca FA       		.byte	0xfa
 2597 0ecb 1B0B0000 		.4byte	0xb1b
 2598 0ecf 7A030000 		.4byte	.LLST30
 2599 0ed3 25       		.uleb128 0x25
 2600 0ed4 48000000 		.4byte	.Ldebug_ranges0+0x48
 2601 0ed8 EC0E0000 		.4byte	0xeec
 2602 0edc 24       		.uleb128 0x24
 2603 0edd 746D7000 		.ascii	"tmp\000"
 2604 0ee1 01       		.byte	0x1
 2605 0ee2 FE       		.byte	0xfe
 2606 0ee3 7B000000 		.4byte	0x7b
 2607 0ee7 AE030000 		.4byte	.LLST31
 2608 0eeb 00       		.byte	0
 2609 0eec 23       		.uleb128 0x23
 2610 0eed 10000000 		.4byte	.LBB19
ARM GAS  C:\Users\DNIEL~1\AppData\Local\Temp\cczvk6aO.s 			page 47


 2611 0ef1 18000000 		.4byte	.LBE19
 2612 0ef5 0A0F0000 		.4byte	0xf0a
 2613 0ef9 28       		.uleb128 0x28
 2614 0efa 746D7000 		.ascii	"tmp\000"
 2615 0efe 01       		.byte	0x1
 2616 0eff 0701     		.2byte	0x107
 2617 0f01 7B000000 		.4byte	0x7b
 2618 0f05 C1030000 		.4byte	.LLST32
 2619 0f09 00       		.byte	0
 2620 0f0a 26       		.uleb128 0x26
 2621 0f0b 1C000000 		.4byte	.LVL60
 2622 0f0f FE100000 		.4byte	0x10fe
 2623 0f13 20       		.uleb128 0x20
 2624 0f14 2A000000 		.4byte	.LVL61
 2625 0f18 13110000 		.4byte	0x1113
 2626 0f1c 2C0F0000 		.4byte	0xf2c
 2627 0f20 21       		.uleb128 0x21
 2628 0f21 01       		.byte	0x1
 2629 0f22 51       		.byte	0x51
 2630 0f23 01       		.byte	0x1
 2631 0f24 30       		.byte	0x30
 2632 0f25 21       		.uleb128 0x21
 2633 0f26 01       		.byte	0x1
 2634 0f27 50       		.byte	0x50
 2635 0f28 02       		.byte	0x2
 2636 0f29 74       		.byte	0x74
 2637 0f2a 2C       		.sleb128 44
 2638 0f2b 00       		.byte	0
 2639 0f2c 26       		.uleb128 0x26
 2640 0f2d 2E000000 		.4byte	.LVL62
 2641 0f31 5D100000 		.4byte	0x105d
 2642 0f35 00       		.byte	0
 2643 0f36 29       		.uleb128 0x29
 2644 0f37 01       		.byte	0x1
 2645 0f38 00000000 		.4byte	.LASF131
 2646 0f3c 01       		.byte	0x1
 2647 0f3d 1101     		.2byte	0x111
 2648 0f3f 01       		.byte	0x1
 2649 0f40 00000000 		.4byte	.LFB125
 2650 0f44 30000000 		.4byte	.LFE125
 2651 0f48 D4030000 		.4byte	.LLST33
 2652 0f4c 01       		.byte	0x1
 2653 0f4d C50F0000 		.4byte	0xfc5
 2654 0f51 2A       		.uleb128 0x2a
 2655 0f52 7A040000 		.4byte	.LASF122
 2656 0f56 01       		.byte	0x1
 2657 0f57 1101     		.2byte	0x111
 2658 0f59 1B0B0000 		.4byte	0xb1b
 2659 0f5d F4030000 		.4byte	.LLST34
 2660 0f61 25       		.uleb128 0x25
 2661 0f62 60000000 		.4byte	.Ldebug_ranges0+0x60
 2662 0f66 7B0F0000 		.4byte	0xf7b
 2663 0f6a 28       		.uleb128 0x28
 2664 0f6b 746D7000 		.ascii	"tmp\000"
 2665 0f6f 01       		.byte	0x1
 2666 0f70 1501     		.2byte	0x115
 2667 0f72 7B000000 		.4byte	0x7b
ARM GAS  C:\Users\DNIEL~1\AppData\Local\Temp\cczvk6aO.s 			page 48


 2668 0f76 28040000 		.4byte	.LLST35
 2669 0f7a 00       		.byte	0
 2670 0f7b 23       		.uleb128 0x23
 2671 0f7c 10000000 		.4byte	.LBB22
 2672 0f80 18000000 		.4byte	.LBE22
 2673 0f84 990F0000 		.4byte	0xf99
 2674 0f88 28       		.uleb128 0x28
 2675 0f89 746D7000 		.ascii	"tmp\000"
 2676 0f8d 01       		.byte	0x1
 2677 0f8e 1E01     		.2byte	0x11e
 2678 0f90 7B000000 		.4byte	0x7b
 2679 0f94 3B040000 		.4byte	.LLST36
 2680 0f98 00       		.byte	0
 2681 0f99 26       		.uleb128 0x26
 2682 0f9a 1C000000 		.4byte	.LVL71
 2683 0f9e 32110000 		.4byte	0x1132
 2684 0fa2 20       		.uleb128 0x20
 2685 0fa3 2A000000 		.4byte	.LVL72
 2686 0fa7 13110000 		.4byte	0x1113
 2687 0fab BB0F0000 		.4byte	0xfbb
 2688 0faf 21       		.uleb128 0x21
 2689 0fb0 01       		.byte	0x1
 2690 0fb1 51       		.byte	0x51
 2691 0fb2 01       		.byte	0x1
 2692 0fb3 30       		.byte	0x30
 2693 0fb4 21       		.uleb128 0x21
 2694 0fb5 01       		.byte	0x1
 2695 0fb6 50       		.byte	0x50
 2696 0fb7 02       		.byte	0x2
 2697 0fb8 74       		.byte	0x74
 2698 0fb9 30       		.sleb128 48
 2699 0fba 00       		.byte	0
 2700 0fbb 26       		.uleb128 0x26
 2701 0fbc 2E000000 		.4byte	.LVL73
 2702 0fc0 5D100000 		.4byte	0x105d
 2703 0fc4 00       		.byte	0
 2704 0fc5 2B       		.uleb128 0x2b
 2705 0fc6 FE030000 		.4byte	.LASF149
 2706 0fca 0E       		.byte	0xe
 2707 0fcb 9806     		.2byte	0x698
 2708 0fcd D7040000 		.4byte	0x4d7
 2709 0fd1 01       		.byte	0x1
 2710 0fd2 01       		.byte	0x1
 2711 0fd3 2C       		.uleb128 0x2c
 2712 0fd4 01       		.byte	0x1
 2713 0fd5 BE010000 		.4byte	.LASF136
 2714 0fd9 0C       		.byte	0xc
 2715 0fda 5501     		.2byte	0x155
 2716 0fdc 01       		.byte	0x1
 2717 0fdd 01       		.byte	0x1
 2718 0fde 2D       		.uleb128 0x2d
 2719 0fdf 01       		.byte	0x1
 2720 0fe0 61060000 		.4byte	.LASF132
 2721 0fe4 07       		.byte	0x7
 2722 0fe5 35       		.byte	0x35
 2723 0fe6 01       		.byte	0x1
 2724 0fe7 01       		.byte	0x1
ARM GAS  C:\Users\DNIEL~1\AppData\Local\Temp\cczvk6aO.s 			page 49


 2725 0fe8 F70F0000 		.4byte	0xff7
 2726 0fec 2E       		.uleb128 0x2e
 2727 0fed F70F0000 		.4byte	0xff7
 2728 0ff1 2E       		.uleb128 0x2e
 2729 0ff2 10010000 		.4byte	0x110
 2730 0ff6 00       		.byte	0
 2731 0ff7 09       		.uleb128 0x9
 2732 0ff8 04       		.byte	0x4
 2733 0ff9 9B030000 		.4byte	0x39b
 2734 0ffd 2F       		.uleb128 0x2f
 2735 0ffe 01       		.byte	0x1
 2736 0fff 19060000 		.4byte	.LASF138
 2737 1003 0D       		.byte	0xd
 2738 1004 96       		.byte	0x96
 2739 1005 01       		.byte	0x1
 2740 1006 E4000000 		.4byte	0xe4
 2741 100a 01       		.byte	0x1
 2742 100b 1A100000 		.4byte	0x101a
 2743 100f 2E       		.uleb128 0x2e
 2744 1010 B8000000 		.4byte	0xb8
 2745 1014 2E       		.uleb128 0x2e
 2746 1015 05010000 		.4byte	0x105
 2747 1019 00       		.byte	0
 2748 101a 30       		.uleb128 0x30
 2749 101b 01       		.byte	0x1
 2750 101c 12020000 		.4byte	.LASF133
 2751 1020 0C       		.byte	0xc
 2752 1021 5601     		.2byte	0x156
 2753 1023 01       		.byte	0x1
 2754 1024 01       		.byte	0x1
 2755 1025 2F100000 		.4byte	0x102f
 2756 1029 2E       		.uleb128 0x2e
 2757 102a 1B0B0000 		.4byte	0xb1b
 2758 102e 00       		.byte	0
 2759 102f 30       		.uleb128 0x30
 2760 1030 01       		.byte	0x1
 2761 1031 C1050000 		.4byte	.LASF134
 2762 1035 0C       		.byte	0xc
 2763 1036 5701     		.2byte	0x157
 2764 1038 01       		.byte	0x1
 2765 1039 01       		.byte	0x1
 2766 103a 44100000 		.4byte	0x1044
 2767 103e 2E       		.uleb128 0x2e
 2768 103f 1B0B0000 		.4byte	0xb1b
 2769 1043 00       		.byte	0
 2770 1044 2D       		.uleb128 0x2d
 2771 1045 01       		.byte	0x1
 2772 1046 A7050000 		.4byte	.LASF135
 2773 104a 07       		.byte	0x7
 2774 104b 37       		.byte	0x37
 2775 104c 01       		.byte	0x1
 2776 104d 01       		.byte	0x1
 2777 104e 5D100000 		.4byte	0x105d
 2778 1052 2E       		.uleb128 0x2e
 2779 1053 F70F0000 		.4byte	0xff7
 2780 1057 2E       		.uleb128 0x2e
 2781 1058 10010000 		.4byte	0x110
ARM GAS  C:\Users\DNIEL~1\AppData\Local\Temp\cczvk6aO.s 			page 50


 2782 105c 00       		.byte	0
 2783 105d 31       		.uleb128 0x31
 2784 105e 01       		.byte	0x1
 2785 105f 81010000 		.4byte	.LASF137
 2786 1063 0D       		.byte	0xd
 2787 1064 9C       		.byte	0x9c
 2788 1065 01       		.byte	0x1
 2789 1066 01       		.byte	0x1
 2790 1067 2F       		.uleb128 0x2f
 2791 1068 01       		.byte	0x1
 2792 1069 B4040000 		.4byte	.LASF139
 2793 106d 07       		.byte	0x7
 2794 106e 3B       		.byte	0x3b
 2795 106f 01       		.byte	0x1
 2796 1070 E4000000 		.4byte	0xe4
 2797 1074 01       		.byte	0x1
 2798 1075 84100000 		.4byte	0x1084
 2799 1079 2E       		.uleb128 0x2e
 2800 107a F70F0000 		.4byte	0xff7
 2801 107e 2E       		.uleb128 0x2e
 2802 107f 05010000 		.4byte	0x105
 2803 1083 00       		.byte	0
 2804 1084 32       		.uleb128 0x32
 2805 1085 01       		.byte	0x1
 2806 1086 84020000 		.4byte	.LASF140
 2807 108a 0C       		.byte	0xc
 2808 108b 5801     		.2byte	0x158
 2809 108d 01       		.byte	0x1
 2810 108e 9B000000 		.4byte	0x9b
 2811 1092 01       		.byte	0x1
 2812 1093 A2100000 		.4byte	0x10a2
 2813 1097 2E       		.uleb128 0x2e
 2814 1098 1B0B0000 		.4byte	0xb1b
 2815 109c 2E       		.uleb128 0x2e
 2816 109d A4070000 		.4byte	0x7a4
 2817 10a1 00       		.byte	0
 2818 10a2 30       		.uleb128 0x30
 2819 10a3 01       		.byte	0x1
 2820 10a4 CE050000 		.4byte	.LASF141
 2821 10a8 0C       		.byte	0xc
 2822 10a9 5A01     		.2byte	0x15a
 2823 10ab 01       		.byte	0x1
 2824 10ac 01       		.byte	0x1
 2825 10ad C1100000 		.4byte	0x10c1
 2826 10b1 2E       		.uleb128 0x2e
 2827 10b2 1B0B0000 		.4byte	0xb1b
 2828 10b6 2E       		.uleb128 0x2e
 2829 10b7 A4070000 		.4byte	0x7a4
 2830 10bb 2E       		.uleb128 0x2e
 2831 10bc 820D0000 		.4byte	0xd82
 2832 10c0 00       		.byte	0
 2833 10c1 32       		.uleb128 0x32
 2834 10c2 01       		.byte	0x1
 2835 10c3 02060000 		.4byte	.LASF142
 2836 10c7 0C       		.byte	0xc
 2837 10c8 5D01     		.2byte	0x15d
 2838 10ca 01       		.byte	0x1
ARM GAS  C:\Users\DNIEL~1\AppData\Local\Temp\cczvk6aO.s 			page 51


 2839 10cb 9B000000 		.4byte	0x9b
 2840 10cf 01       		.byte	0x1
 2841 10d0 DF100000 		.4byte	0x10df
 2842 10d4 2E       		.uleb128 0x2e
 2843 10d5 1B0B0000 		.4byte	0xb1b
 2844 10d9 2E       		.uleb128 0x2e
 2845 10da A4070000 		.4byte	0x7a4
 2846 10de 00       		.byte	0
 2847 10df 30       		.uleb128 0x30
 2848 10e0 01       		.byte	0x1
 2849 10e1 2E060000 		.4byte	.LASF143
 2850 10e5 0C       		.byte	0xc
 2851 10e6 5F01     		.2byte	0x15f
 2852 10e8 01       		.byte	0x1
 2853 10e9 01       		.byte	0x1
 2854 10ea FE100000 		.4byte	0x10fe
 2855 10ee 2E       		.uleb128 0x2e
 2856 10ef 1B0B0000 		.4byte	0xb1b
 2857 10f3 2E       		.uleb128 0x2e
 2858 10f4 A4070000 		.4byte	0x7a4
 2859 10f8 2E       		.uleb128 0x2e
 2860 10f9 A40E0000 		.4byte	0xea4
 2861 10fd 00       		.byte	0
 2862 10fe 30       		.uleb128 0x30
 2863 10ff 01       		.byte	0x1
 2864 1100 FC040000 		.4byte	.LASF144
 2865 1104 0C       		.byte	0xc
 2866 1105 6301     		.2byte	0x163
 2867 1107 01       		.byte	0x1
 2868 1108 01       		.byte	0x1
 2869 1109 13110000 		.4byte	0x1113
 2870 110d 2E       		.uleb128 0x2e
 2871 110e 1B0B0000 		.4byte	0xb1b
 2872 1112 00       		.byte	0
 2873 1113 2D       		.uleb128 0x2d
 2874 1114 01       		.byte	0x1
 2875 1115 31010000 		.4byte	.LASF145
 2876 1119 09       		.byte	0x9
 2877 111a BA       		.byte	0xba
 2878 111b 01       		.byte	0x1
 2879 111c 01       		.byte	0x1
 2880 111d 2C110000 		.4byte	0x112c
 2881 1121 2E       		.uleb128 0x2e
 2882 1122 2C110000 		.4byte	0x112c
 2883 1126 2E       		.uleb128 0x2e
 2884 1127 FA000000 		.4byte	0xfa
 2885 112b 00       		.byte	0
 2886 112c 09       		.uleb128 0x9
 2887 112d 04       		.byte	0x4
 2888 112e 5F040000 		.4byte	0x45f
 2889 1132 33       		.uleb128 0x33
 2890 1133 01       		.byte	0x1
 2891 1134 19010000 		.4byte	.LASF150
 2892 1138 0C       		.byte	0xc
 2893 1139 6401     		.2byte	0x164
 2894 113b 01       		.byte	0x1
 2895 113c 01       		.byte	0x1
ARM GAS  C:\Users\DNIEL~1\AppData\Local\Temp\cczvk6aO.s 			page 52


 2896 113d 2E       		.uleb128 0x2e
 2897 113e 1B0B0000 		.4byte	0xb1b
 2898 1142 00       		.byte	0
 2899 1143 00       		.byte	0
 2900              		.section	.debug_abbrev,"",%progbits
 2901              	.Ldebug_abbrev0:
 2902 0000 01       		.uleb128 0x1
 2903 0001 11       		.uleb128 0x11
 2904 0002 01       		.byte	0x1
 2905 0003 25       		.uleb128 0x25
 2906 0004 0E       		.uleb128 0xe
 2907 0005 13       		.uleb128 0x13
 2908 0006 0B       		.uleb128 0xb
 2909 0007 03       		.uleb128 0x3
 2910 0008 0E       		.uleb128 0xe
 2911 0009 1B       		.uleb128 0x1b
 2912 000a 0E       		.uleb128 0xe
 2913 000b 55       		.uleb128 0x55
 2914 000c 06       		.uleb128 0x6
 2915 000d 11       		.uleb128 0x11
 2916 000e 01       		.uleb128 0x1
 2917 000f 52       		.uleb128 0x52
 2918 0010 01       		.uleb128 0x1
 2919 0011 10       		.uleb128 0x10
 2920 0012 06       		.uleb128 0x6
 2921 0013 00       		.byte	0
 2922 0014 00       		.byte	0
 2923 0015 02       		.uleb128 0x2
 2924 0016 24       		.uleb128 0x24
 2925 0017 00       		.byte	0
 2926 0018 0B       		.uleb128 0xb
 2927 0019 0B       		.uleb128 0xb
 2928 001a 3E       		.uleb128 0x3e
 2929 001b 0B       		.uleb128 0xb
 2930 001c 03       		.uleb128 0x3
 2931 001d 08       		.uleb128 0x8
 2932 001e 00       		.byte	0
 2933 001f 00       		.byte	0
 2934 0020 03       		.uleb128 0x3
 2935 0021 24       		.uleb128 0x24
 2936 0022 00       		.byte	0
 2937 0023 0B       		.uleb128 0xb
 2938 0024 0B       		.uleb128 0xb
 2939 0025 3E       		.uleb128 0x3e
 2940 0026 0B       		.uleb128 0xb
 2941 0027 03       		.uleb128 0x3
 2942 0028 0E       		.uleb128 0xe
 2943 0029 00       		.byte	0
 2944 002a 00       		.byte	0
 2945 002b 04       		.uleb128 0x4
 2946 002c 16       		.uleb128 0x16
 2947 002d 00       		.byte	0
 2948 002e 03       		.uleb128 0x3
 2949 002f 0E       		.uleb128 0xe
 2950 0030 3A       		.uleb128 0x3a
 2951 0031 0B       		.uleb128 0xb
 2952 0032 3B       		.uleb128 0x3b
ARM GAS  C:\Users\DNIEL~1\AppData\Local\Temp\cczvk6aO.s 			page 53


 2953 0033 0B       		.uleb128 0xb
 2954 0034 49       		.uleb128 0x49
 2955 0035 13       		.uleb128 0x13
 2956 0036 00       		.byte	0
 2957 0037 00       		.byte	0
 2958 0038 05       		.uleb128 0x5
 2959 0039 13       		.uleb128 0x13
 2960 003a 01       		.byte	0x1
 2961 003b 03       		.uleb128 0x3
 2962 003c 0E       		.uleb128 0xe
 2963 003d 0B       		.uleb128 0xb
 2964 003e 0B       		.uleb128 0xb
 2965 003f 3A       		.uleb128 0x3a
 2966 0040 0B       		.uleb128 0xb
 2967 0041 3B       		.uleb128 0x3b
 2968 0042 0B       		.uleb128 0xb
 2969 0043 01       		.uleb128 0x1
 2970 0044 13       		.uleb128 0x13
 2971 0045 00       		.byte	0
 2972 0046 00       		.byte	0
 2973 0047 06       		.uleb128 0x6
 2974 0048 0D       		.uleb128 0xd
 2975 0049 00       		.byte	0
 2976 004a 03       		.uleb128 0x3
 2977 004b 0E       		.uleb128 0xe
 2978 004c 3A       		.uleb128 0x3a
 2979 004d 0B       		.uleb128 0xb
 2980 004e 3B       		.uleb128 0x3b
 2981 004f 0B       		.uleb128 0xb
 2982 0050 49       		.uleb128 0x49
 2983 0051 13       		.uleb128 0x13
 2984 0052 38       		.uleb128 0x38
 2985 0053 0A       		.uleb128 0xa
 2986 0054 00       		.byte	0
 2987 0055 00       		.byte	0
 2988 0056 07       		.uleb128 0x7
 2989 0057 0D       		.uleb128 0xd
 2990 0058 00       		.byte	0
 2991 0059 03       		.uleb128 0x3
 2992 005a 08       		.uleb128 0x8
 2993 005b 3A       		.uleb128 0x3a
 2994 005c 0B       		.uleb128 0xb
 2995 005d 3B       		.uleb128 0x3b
 2996 005e 0B       		.uleb128 0xb
 2997 005f 49       		.uleb128 0x49
 2998 0060 13       		.uleb128 0x13
 2999 0061 38       		.uleb128 0x38
 3000 0062 0A       		.uleb128 0xa
 3001 0063 00       		.byte	0
 3002 0064 00       		.byte	0
 3003 0065 08       		.uleb128 0x8
 3004 0066 13       		.uleb128 0x13
 3005 0067 01       		.byte	0x1
 3006 0068 0B       		.uleb128 0xb
 3007 0069 0B       		.uleb128 0xb
 3008 006a 3A       		.uleb128 0x3a
 3009 006b 0B       		.uleb128 0xb
ARM GAS  C:\Users\DNIEL~1\AppData\Local\Temp\cczvk6aO.s 			page 54


 3010 006c 3B       		.uleb128 0x3b
 3011 006d 0B       		.uleb128 0xb
 3012 006e 01       		.uleb128 0x1
 3013 006f 13       		.uleb128 0x13
 3014 0070 00       		.byte	0
 3015 0071 00       		.byte	0
 3016 0072 09       		.uleb128 0x9
 3017 0073 0F       		.uleb128 0xf
 3018 0074 00       		.byte	0
 3019 0075 0B       		.uleb128 0xb
 3020 0076 0B       		.uleb128 0xb
 3021 0077 49       		.uleb128 0x49
 3022 0078 13       		.uleb128 0x13
 3023 0079 00       		.byte	0
 3024 007a 00       		.byte	0
 3025 007b 0A       		.uleb128 0xa
 3026 007c 0F       		.uleb128 0xf
 3027 007d 00       		.byte	0
 3028 007e 0B       		.uleb128 0xb
 3029 007f 0B       		.uleb128 0xb
 3030 0080 00       		.byte	0
 3031 0081 00       		.byte	0
 3032 0082 0B       		.uleb128 0xb
 3033 0083 13       		.uleb128 0x13
 3034 0084 01       		.byte	0x1
 3035 0085 03       		.uleb128 0x3
 3036 0086 0E       		.uleb128 0xe
 3037 0087 0B       		.uleb128 0xb
 3038 0088 0B       		.uleb128 0xb
 3039 0089 3A       		.uleb128 0x3a
 3040 008a 0B       		.uleb128 0xb
 3041 008b 3B       		.uleb128 0x3b
 3042 008c 05       		.uleb128 0x5
 3043 008d 01       		.uleb128 0x1
 3044 008e 13       		.uleb128 0x13
 3045 008f 00       		.byte	0
 3046 0090 00       		.byte	0
 3047 0091 0C       		.uleb128 0xc
 3048 0092 0D       		.uleb128 0xd
 3049 0093 00       		.byte	0
 3050 0094 03       		.uleb128 0x3
 3051 0095 08       		.uleb128 0x8
 3052 0096 3A       		.uleb128 0x3a
 3053 0097 0B       		.uleb128 0xb
 3054 0098 3B       		.uleb128 0x3b
 3055 0099 05       		.uleb128 0x5
 3056 009a 49       		.uleb128 0x49
 3057 009b 13       		.uleb128 0x13
 3058 009c 38       		.uleb128 0x38
 3059 009d 0A       		.uleb128 0xa
 3060 009e 00       		.byte	0
 3061 009f 00       		.byte	0
 3062 00a0 0D       		.uleb128 0xd
 3063 00a1 35       		.uleb128 0x35
 3064 00a2 00       		.byte	0
 3065 00a3 49       		.uleb128 0x49
 3066 00a4 13       		.uleb128 0x13
ARM GAS  C:\Users\DNIEL~1\AppData\Local\Temp\cczvk6aO.s 			page 55


 3067 00a5 00       		.byte	0
 3068 00a6 00       		.byte	0
 3069 00a7 0E       		.uleb128 0xe
 3070 00a8 17       		.uleb128 0x17
 3071 00a9 01       		.byte	0x1
 3072 00aa 0B       		.uleb128 0xb
 3073 00ab 0B       		.uleb128 0xb
 3074 00ac 3A       		.uleb128 0x3a
 3075 00ad 0B       		.uleb128 0xb
 3076 00ae 3B       		.uleb128 0x3b
 3077 00af 0B       		.uleb128 0xb
 3078 00b0 01       		.uleb128 0x1
 3079 00b1 13       		.uleb128 0x13
 3080 00b2 00       		.byte	0
 3081 00b3 00       		.byte	0
 3082 00b4 0F       		.uleb128 0xf
 3083 00b5 0D       		.uleb128 0xd
 3084 00b6 00       		.byte	0
 3085 00b7 03       		.uleb128 0x3
 3086 00b8 0E       		.uleb128 0xe
 3087 00b9 3A       		.uleb128 0x3a
 3088 00ba 0B       		.uleb128 0xb
 3089 00bb 3B       		.uleb128 0x3b
 3090 00bc 0B       		.uleb128 0xb
 3091 00bd 49       		.uleb128 0x49
 3092 00be 13       		.uleb128 0x13
 3093 00bf 00       		.byte	0
 3094 00c0 00       		.byte	0
 3095 00c1 10       		.uleb128 0x10
 3096 00c2 26       		.uleb128 0x26
 3097 00c3 00       		.byte	0
 3098 00c4 49       		.uleb128 0x49
 3099 00c5 13       		.uleb128 0x13
 3100 00c6 00       		.byte	0
 3101 00c7 00       		.byte	0
 3102 00c8 11       		.uleb128 0x11
 3103 00c9 01       		.uleb128 0x1
 3104 00ca 01       		.byte	0x1
 3105 00cb 49       		.uleb128 0x49
 3106 00cc 13       		.uleb128 0x13
 3107 00cd 01       		.uleb128 0x1
 3108 00ce 13       		.uleb128 0x13
 3109 00cf 00       		.byte	0
 3110 00d0 00       		.byte	0
 3111 00d1 12       		.uleb128 0x12
 3112 00d2 21       		.uleb128 0x21
 3113 00d3 00       		.byte	0
 3114 00d4 49       		.uleb128 0x49
 3115 00d5 13       		.uleb128 0x13
 3116 00d6 2F       		.uleb128 0x2f
 3117 00d7 0B       		.uleb128 0xb
 3118 00d8 00       		.byte	0
 3119 00d9 00       		.byte	0
 3120 00da 13       		.uleb128 0x13
 3121 00db 13       		.uleb128 0x13
 3122 00dc 01       		.byte	0x1
 3123 00dd 0B       		.uleb128 0xb
ARM GAS  C:\Users\DNIEL~1\AppData\Local\Temp\cczvk6aO.s 			page 56


 3124 00de 0B       		.uleb128 0xb
 3125 00df 3A       		.uleb128 0x3a
 3126 00e0 0B       		.uleb128 0xb
 3127 00e1 3B       		.uleb128 0x3b
 3128 00e2 05       		.uleb128 0x5
 3129 00e3 01       		.uleb128 0x1
 3130 00e4 13       		.uleb128 0x13
 3131 00e5 00       		.byte	0
 3132 00e6 00       		.byte	0
 3133 00e7 14       		.uleb128 0x14
 3134 00e8 0D       		.uleb128 0xd
 3135 00e9 00       		.byte	0
 3136 00ea 03       		.uleb128 0x3
 3137 00eb 0E       		.uleb128 0xe
 3138 00ec 3A       		.uleb128 0x3a
 3139 00ed 0B       		.uleb128 0xb
 3140 00ee 3B       		.uleb128 0x3b
 3141 00ef 05       		.uleb128 0x5
 3142 00f0 49       		.uleb128 0x49
 3143 00f1 13       		.uleb128 0x13
 3144 00f2 38       		.uleb128 0x38
 3145 00f3 0A       		.uleb128 0xa
 3146 00f4 00       		.byte	0
 3147 00f5 00       		.byte	0
 3148 00f6 15       		.uleb128 0x15
 3149 00f7 16       		.uleb128 0x16
 3150 00f8 00       		.byte	0
 3151 00f9 03       		.uleb128 0x3
 3152 00fa 0E       		.uleb128 0xe
 3153 00fb 3A       		.uleb128 0x3a
 3154 00fc 0B       		.uleb128 0xb
 3155 00fd 3B       		.uleb128 0x3b
 3156 00fe 05       		.uleb128 0x5
 3157 00ff 49       		.uleb128 0x49
 3158 0100 13       		.uleb128 0x13
 3159 0101 00       		.byte	0
 3160 0102 00       		.byte	0
 3161 0103 16       		.uleb128 0x16
 3162 0104 13       		.uleb128 0x13
 3163 0105 01       		.byte	0x1
 3164 0106 0B       		.uleb128 0xb
 3165 0107 05       		.uleb128 0x5
 3166 0108 3A       		.uleb128 0x3a
 3167 0109 0B       		.uleb128 0xb
 3168 010a 3B       		.uleb128 0x3b
 3169 010b 05       		.uleb128 0x5
 3170 010c 01       		.uleb128 0x1
 3171 010d 13       		.uleb128 0x13
 3172 010e 00       		.byte	0
 3173 010f 00       		.byte	0
 3174 0110 17       		.uleb128 0x17
 3175 0111 04       		.uleb128 0x4
 3176 0112 01       		.byte	0x1
 3177 0113 0B       		.uleb128 0xb
 3178 0114 0B       		.uleb128 0xb
 3179 0115 3A       		.uleb128 0x3a
 3180 0116 0B       		.uleb128 0xb
ARM GAS  C:\Users\DNIEL~1\AppData\Local\Temp\cczvk6aO.s 			page 57


 3181 0117 3B       		.uleb128 0x3b
 3182 0118 0B       		.uleb128 0xb
 3183 0119 01       		.uleb128 0x1
 3184 011a 13       		.uleb128 0x13
 3185 011b 00       		.byte	0
 3186 011c 00       		.byte	0
 3187 011d 18       		.uleb128 0x18
 3188 011e 28       		.uleb128 0x28
 3189 011f 00       		.byte	0
 3190 0120 03       		.uleb128 0x3
 3191 0121 0E       		.uleb128 0xe
 3192 0122 1C       		.uleb128 0x1c
 3193 0123 0D       		.uleb128 0xd
 3194 0124 00       		.byte	0
 3195 0125 00       		.byte	0
 3196 0126 19       		.uleb128 0x19
 3197 0127 0D       		.uleb128 0xd
 3198 0128 00       		.byte	0
 3199 0129 03       		.uleb128 0x3
 3200 012a 08       		.uleb128 0x8
 3201 012b 3A       		.uleb128 0x3a
 3202 012c 0B       		.uleb128 0xb
 3203 012d 3B       		.uleb128 0x3b
 3204 012e 0B       		.uleb128 0xb
 3205 012f 49       		.uleb128 0x49
 3206 0130 13       		.uleb128 0x13
 3207 0131 0B       		.uleb128 0xb
 3208 0132 0B       		.uleb128 0xb
 3209 0133 0D       		.uleb128 0xd
 3210 0134 0B       		.uleb128 0xb
 3211 0135 0C       		.uleb128 0xc
 3212 0136 0B       		.uleb128 0xb
 3213 0137 38       		.uleb128 0x38
 3214 0138 0A       		.uleb128 0xa
 3215 0139 00       		.byte	0
 3216 013a 00       		.byte	0
 3217 013b 1A       		.uleb128 0x1a
 3218 013c 0D       		.uleb128 0xd
 3219 013d 00       		.byte	0
 3220 013e 49       		.uleb128 0x49
 3221 013f 13       		.uleb128 0x13
 3222 0140 00       		.byte	0
 3223 0141 00       		.byte	0
 3224 0142 1B       		.uleb128 0x1b
 3225 0143 0D       		.uleb128 0xd
 3226 0144 00       		.byte	0
 3227 0145 49       		.uleb128 0x49
 3228 0146 13       		.uleb128 0x13
 3229 0147 38       		.uleb128 0x38
 3230 0148 0A       		.uleb128 0xa
 3231 0149 00       		.byte	0
 3232 014a 00       		.byte	0
 3233 014b 1C       		.uleb128 0x1c
 3234 014c 2E       		.uleb128 0x2e
 3235 014d 01       		.byte	0x1
 3236 014e 3F       		.uleb128 0x3f
 3237 014f 0C       		.uleb128 0xc
ARM GAS  C:\Users\DNIEL~1\AppData\Local\Temp\cczvk6aO.s 			page 58


 3238 0150 03       		.uleb128 0x3
 3239 0151 0E       		.uleb128 0xe
 3240 0152 3A       		.uleb128 0x3a
 3241 0153 0B       		.uleb128 0xb
 3242 0154 3B       		.uleb128 0x3b
 3243 0155 0B       		.uleb128 0xb
 3244 0156 27       		.uleb128 0x27
 3245 0157 0C       		.uleb128 0xc
 3246 0158 11       		.uleb128 0x11
 3247 0159 01       		.uleb128 0x1
 3248 015a 12       		.uleb128 0x12
 3249 015b 01       		.uleb128 0x1
 3250 015c 40       		.uleb128 0x40
 3251 015d 0A       		.uleb128 0xa
 3252 015e 9742     		.uleb128 0x2117
 3253 0160 0C       		.uleb128 0xc
 3254 0161 01       		.uleb128 0x1
 3255 0162 13       		.uleb128 0x13
 3256 0163 00       		.byte	0
 3257 0164 00       		.byte	0
 3258 0165 1D       		.uleb128 0x1d
 3259 0166 898201   		.uleb128 0x4109
 3260 0169 00       		.byte	0
 3261 016a 11       		.uleb128 0x11
 3262 016b 01       		.uleb128 0x1
 3263 016c 9542     		.uleb128 0x2115
 3264 016e 0C       		.uleb128 0xc
 3265 016f 31       		.uleb128 0x31
 3266 0170 13       		.uleb128 0x13
 3267 0171 00       		.byte	0
 3268 0172 00       		.byte	0
 3269 0173 1E       		.uleb128 0x1e
 3270 0174 2E       		.uleb128 0x2e
 3271 0175 01       		.byte	0x1
 3272 0176 3F       		.uleb128 0x3f
 3273 0177 0C       		.uleb128 0xc
 3274 0178 03       		.uleb128 0x3
 3275 0179 0E       		.uleb128 0xe
 3276 017a 3A       		.uleb128 0x3a
 3277 017b 0B       		.uleb128 0xb
 3278 017c 3B       		.uleb128 0x3b
 3279 017d 0B       		.uleb128 0xb
 3280 017e 27       		.uleb128 0x27
 3281 017f 0C       		.uleb128 0xc
 3282 0180 11       		.uleb128 0x11
 3283 0181 01       		.uleb128 0x1
 3284 0182 12       		.uleb128 0x12
 3285 0183 01       		.uleb128 0x1
 3286 0184 40       		.uleb128 0x40
 3287 0185 06       		.uleb128 0x6
 3288 0186 9742     		.uleb128 0x2117
 3289 0188 0C       		.uleb128 0xc
 3290 0189 01       		.uleb128 0x1
 3291 018a 13       		.uleb128 0x13
 3292 018b 00       		.byte	0
 3293 018c 00       		.byte	0
 3294 018d 1F       		.uleb128 0x1f
ARM GAS  C:\Users\DNIEL~1\AppData\Local\Temp\cczvk6aO.s 			page 59


 3295 018e 05       		.uleb128 0x5
 3296 018f 00       		.byte	0
 3297 0190 03       		.uleb128 0x3
 3298 0191 0E       		.uleb128 0xe
 3299 0192 3A       		.uleb128 0x3a
 3300 0193 0B       		.uleb128 0xb
 3301 0194 3B       		.uleb128 0x3b
 3302 0195 0B       		.uleb128 0xb
 3303 0196 49       		.uleb128 0x49
 3304 0197 13       		.uleb128 0x13
 3305 0198 02       		.uleb128 0x2
 3306 0199 06       		.uleb128 0x6
 3307 019a 00       		.byte	0
 3308 019b 00       		.byte	0
 3309 019c 20       		.uleb128 0x20
 3310 019d 898201   		.uleb128 0x4109
 3311 01a0 01       		.byte	0x1
 3312 01a1 11       		.uleb128 0x11
 3313 01a2 01       		.uleb128 0x1
 3314 01a3 31       		.uleb128 0x31
 3315 01a4 13       		.uleb128 0x13
 3316 01a5 01       		.uleb128 0x1
 3317 01a6 13       		.uleb128 0x13
 3318 01a7 00       		.byte	0
 3319 01a8 00       		.byte	0
 3320 01a9 21       		.uleb128 0x21
 3321 01aa 8A8201   		.uleb128 0x410a
 3322 01ad 00       		.byte	0
 3323 01ae 02       		.uleb128 0x2
 3324 01af 0A       		.uleb128 0xa
 3325 01b0 9142     		.uleb128 0x2111
 3326 01b2 0A       		.uleb128 0xa
 3327 01b3 00       		.byte	0
 3328 01b4 00       		.byte	0
 3329 01b5 22       		.uleb128 0x22
 3330 01b6 898201   		.uleb128 0x4109
 3331 01b9 01       		.byte	0x1
 3332 01ba 11       		.uleb128 0x11
 3333 01bb 01       		.uleb128 0x1
 3334 01bc 31       		.uleb128 0x31
 3335 01bd 13       		.uleb128 0x13
 3336 01be 00       		.byte	0
 3337 01bf 00       		.byte	0
 3338 01c0 23       		.uleb128 0x23
 3339 01c1 0B       		.uleb128 0xb
 3340 01c2 01       		.byte	0x1
 3341 01c3 11       		.uleb128 0x11
 3342 01c4 01       		.uleb128 0x1
 3343 01c5 12       		.uleb128 0x12
 3344 01c6 01       		.uleb128 0x1
 3345 01c7 01       		.uleb128 0x1
 3346 01c8 13       		.uleb128 0x13
 3347 01c9 00       		.byte	0
 3348 01ca 00       		.byte	0
 3349 01cb 24       		.uleb128 0x24
 3350 01cc 34       		.uleb128 0x34
 3351 01cd 00       		.byte	0
ARM GAS  C:\Users\DNIEL~1\AppData\Local\Temp\cczvk6aO.s 			page 60


 3352 01ce 03       		.uleb128 0x3
 3353 01cf 08       		.uleb128 0x8
 3354 01d0 3A       		.uleb128 0x3a
 3355 01d1 0B       		.uleb128 0xb
 3356 01d2 3B       		.uleb128 0x3b
 3357 01d3 0B       		.uleb128 0xb
 3358 01d4 49       		.uleb128 0x49
 3359 01d5 13       		.uleb128 0x13
 3360 01d6 02       		.uleb128 0x2
 3361 01d7 06       		.uleb128 0x6
 3362 01d8 00       		.byte	0
 3363 01d9 00       		.byte	0
 3364 01da 25       		.uleb128 0x25
 3365 01db 0B       		.uleb128 0xb
 3366 01dc 01       		.byte	0x1
 3367 01dd 55       		.uleb128 0x55
 3368 01de 06       		.uleb128 0x6
 3369 01df 01       		.uleb128 0x1
 3370 01e0 13       		.uleb128 0x13
 3371 01e1 00       		.byte	0
 3372 01e2 00       		.byte	0
 3373 01e3 26       		.uleb128 0x26
 3374 01e4 898201   		.uleb128 0x4109
 3375 01e7 00       		.byte	0
 3376 01e8 11       		.uleb128 0x11
 3377 01e9 01       		.uleb128 0x1
 3378 01ea 31       		.uleb128 0x31
 3379 01eb 13       		.uleb128 0x13
 3380 01ec 00       		.byte	0
 3381 01ed 00       		.byte	0
 3382 01ee 27       		.uleb128 0x27
 3383 01ef 2E       		.uleb128 0x2e
 3384 01f0 01       		.byte	0x1
 3385 01f1 3F       		.uleb128 0x3f
 3386 01f2 0C       		.uleb128 0xc
 3387 01f3 03       		.uleb128 0x3
 3388 01f4 0E       		.uleb128 0xe
 3389 01f5 3A       		.uleb128 0x3a
 3390 01f6 0B       		.uleb128 0xb
 3391 01f7 3B       		.uleb128 0x3b
 3392 01f8 0B       		.uleb128 0xb
 3393 01f9 27       		.uleb128 0x27
 3394 01fa 0C       		.uleb128 0xc
 3395 01fb 49       		.uleb128 0x49
 3396 01fc 13       		.uleb128 0x13
 3397 01fd 11       		.uleb128 0x11
 3398 01fe 01       		.uleb128 0x1
 3399 01ff 12       		.uleb128 0x12
 3400 0200 01       		.uleb128 0x1
 3401 0201 40       		.uleb128 0x40
 3402 0202 06       		.uleb128 0x6
 3403 0203 9742     		.uleb128 0x2117
 3404 0205 0C       		.uleb128 0xc
 3405 0206 01       		.uleb128 0x1
 3406 0207 13       		.uleb128 0x13
 3407 0208 00       		.byte	0
 3408 0209 00       		.byte	0
ARM GAS  C:\Users\DNIEL~1\AppData\Local\Temp\cczvk6aO.s 			page 61


 3409 020a 28       		.uleb128 0x28
 3410 020b 34       		.uleb128 0x34
 3411 020c 00       		.byte	0
 3412 020d 03       		.uleb128 0x3
 3413 020e 08       		.uleb128 0x8
 3414 020f 3A       		.uleb128 0x3a
 3415 0210 0B       		.uleb128 0xb
 3416 0211 3B       		.uleb128 0x3b
 3417 0212 05       		.uleb128 0x5
 3418 0213 49       		.uleb128 0x49
 3419 0214 13       		.uleb128 0x13
 3420 0215 02       		.uleb128 0x2
 3421 0216 06       		.uleb128 0x6
 3422 0217 00       		.byte	0
 3423 0218 00       		.byte	0
 3424 0219 29       		.uleb128 0x29
 3425 021a 2E       		.uleb128 0x2e
 3426 021b 01       		.byte	0x1
 3427 021c 3F       		.uleb128 0x3f
 3428 021d 0C       		.uleb128 0xc
 3429 021e 03       		.uleb128 0x3
 3430 021f 0E       		.uleb128 0xe
 3431 0220 3A       		.uleb128 0x3a
 3432 0221 0B       		.uleb128 0xb
 3433 0222 3B       		.uleb128 0x3b
 3434 0223 05       		.uleb128 0x5
 3435 0224 27       		.uleb128 0x27
 3436 0225 0C       		.uleb128 0xc
 3437 0226 11       		.uleb128 0x11
 3438 0227 01       		.uleb128 0x1
 3439 0228 12       		.uleb128 0x12
 3440 0229 01       		.uleb128 0x1
 3441 022a 40       		.uleb128 0x40
 3442 022b 06       		.uleb128 0x6
 3443 022c 9742     		.uleb128 0x2117
 3444 022e 0C       		.uleb128 0xc
 3445 022f 01       		.uleb128 0x1
 3446 0230 13       		.uleb128 0x13
 3447 0231 00       		.byte	0
 3448 0232 00       		.byte	0
 3449 0233 2A       		.uleb128 0x2a
 3450 0234 05       		.uleb128 0x5
 3451 0235 00       		.byte	0
 3452 0236 03       		.uleb128 0x3
 3453 0237 0E       		.uleb128 0xe
 3454 0238 3A       		.uleb128 0x3a
 3455 0239 0B       		.uleb128 0xb
 3456 023a 3B       		.uleb128 0x3b
 3457 023b 05       		.uleb128 0x5
 3458 023c 49       		.uleb128 0x49
 3459 023d 13       		.uleb128 0x13
 3460 023e 02       		.uleb128 0x2
 3461 023f 06       		.uleb128 0x6
 3462 0240 00       		.byte	0
 3463 0241 00       		.byte	0
 3464 0242 2B       		.uleb128 0x2b
 3465 0243 34       		.uleb128 0x34
ARM GAS  C:\Users\DNIEL~1\AppData\Local\Temp\cczvk6aO.s 			page 62


 3466 0244 00       		.byte	0
 3467 0245 03       		.uleb128 0x3
 3468 0246 0E       		.uleb128 0xe
 3469 0247 3A       		.uleb128 0x3a
 3470 0248 0B       		.uleb128 0xb
 3471 0249 3B       		.uleb128 0x3b
 3472 024a 05       		.uleb128 0x5
 3473 024b 49       		.uleb128 0x49
 3474 024c 13       		.uleb128 0x13
 3475 024d 3F       		.uleb128 0x3f
 3476 024e 0C       		.uleb128 0xc
 3477 024f 3C       		.uleb128 0x3c
 3478 0250 0C       		.uleb128 0xc
 3479 0251 00       		.byte	0
 3480 0252 00       		.byte	0
 3481 0253 2C       		.uleb128 0x2c
 3482 0254 2E       		.uleb128 0x2e
 3483 0255 00       		.byte	0
 3484 0256 3F       		.uleb128 0x3f
 3485 0257 0C       		.uleb128 0xc
 3486 0258 03       		.uleb128 0x3
 3487 0259 0E       		.uleb128 0xe
 3488 025a 3A       		.uleb128 0x3a
 3489 025b 0B       		.uleb128 0xb
 3490 025c 3B       		.uleb128 0x3b
 3491 025d 05       		.uleb128 0x5
 3492 025e 27       		.uleb128 0x27
 3493 025f 0C       		.uleb128 0xc
 3494 0260 3C       		.uleb128 0x3c
 3495 0261 0C       		.uleb128 0xc
 3496 0262 00       		.byte	0
 3497 0263 00       		.byte	0
 3498 0264 2D       		.uleb128 0x2d
 3499 0265 2E       		.uleb128 0x2e
 3500 0266 01       		.byte	0x1
 3501 0267 3F       		.uleb128 0x3f
 3502 0268 0C       		.uleb128 0xc
 3503 0269 03       		.uleb128 0x3
 3504 026a 0E       		.uleb128 0xe
 3505 026b 3A       		.uleb128 0x3a
 3506 026c 0B       		.uleb128 0xb
 3507 026d 3B       		.uleb128 0x3b
 3508 026e 0B       		.uleb128 0xb
 3509 026f 27       		.uleb128 0x27
 3510 0270 0C       		.uleb128 0xc
 3511 0271 3C       		.uleb128 0x3c
 3512 0272 0C       		.uleb128 0xc
 3513 0273 01       		.uleb128 0x1
 3514 0274 13       		.uleb128 0x13
 3515 0275 00       		.byte	0
 3516 0276 00       		.byte	0
 3517 0277 2E       		.uleb128 0x2e
 3518 0278 05       		.uleb128 0x5
 3519 0279 00       		.byte	0
 3520 027a 49       		.uleb128 0x49
 3521 027b 13       		.uleb128 0x13
 3522 027c 00       		.byte	0
ARM GAS  C:\Users\DNIEL~1\AppData\Local\Temp\cczvk6aO.s 			page 63


 3523 027d 00       		.byte	0
 3524 027e 2F       		.uleb128 0x2f
 3525 027f 2E       		.uleb128 0x2e
 3526 0280 01       		.byte	0x1
 3527 0281 3F       		.uleb128 0x3f
 3528 0282 0C       		.uleb128 0xc
 3529 0283 03       		.uleb128 0x3
 3530 0284 0E       		.uleb128 0xe
 3531 0285 3A       		.uleb128 0x3a
 3532 0286 0B       		.uleb128 0xb
 3533 0287 3B       		.uleb128 0x3b
 3534 0288 0B       		.uleb128 0xb
 3535 0289 27       		.uleb128 0x27
 3536 028a 0C       		.uleb128 0xc
 3537 028b 49       		.uleb128 0x49
 3538 028c 13       		.uleb128 0x13
 3539 028d 3C       		.uleb128 0x3c
 3540 028e 0C       		.uleb128 0xc
 3541 028f 01       		.uleb128 0x1
 3542 0290 13       		.uleb128 0x13
 3543 0291 00       		.byte	0
 3544 0292 00       		.byte	0
 3545 0293 30       		.uleb128 0x30
 3546 0294 2E       		.uleb128 0x2e
 3547 0295 01       		.byte	0x1
 3548 0296 3F       		.uleb128 0x3f
 3549 0297 0C       		.uleb128 0xc
 3550 0298 03       		.uleb128 0x3
 3551 0299 0E       		.uleb128 0xe
 3552 029a 3A       		.uleb128 0x3a
 3553 029b 0B       		.uleb128 0xb
 3554 029c 3B       		.uleb128 0x3b
 3555 029d 05       		.uleb128 0x5
 3556 029e 27       		.uleb128 0x27
 3557 029f 0C       		.uleb128 0xc
 3558 02a0 3C       		.uleb128 0x3c
 3559 02a1 0C       		.uleb128 0xc
 3560 02a2 01       		.uleb128 0x1
 3561 02a3 13       		.uleb128 0x13
 3562 02a4 00       		.byte	0
 3563 02a5 00       		.byte	0
 3564 02a6 31       		.uleb128 0x31
 3565 02a7 2E       		.uleb128 0x2e
 3566 02a8 00       		.byte	0
 3567 02a9 3F       		.uleb128 0x3f
 3568 02aa 0C       		.uleb128 0xc
 3569 02ab 03       		.uleb128 0x3
 3570 02ac 0E       		.uleb128 0xe
 3571 02ad 3A       		.uleb128 0x3a
 3572 02ae 0B       		.uleb128 0xb
 3573 02af 3B       		.uleb128 0x3b
 3574 02b0 0B       		.uleb128 0xb
 3575 02b1 27       		.uleb128 0x27
 3576 02b2 0C       		.uleb128 0xc
 3577 02b3 3C       		.uleb128 0x3c
 3578 02b4 0C       		.uleb128 0xc
 3579 02b5 00       		.byte	0
ARM GAS  C:\Users\DNIEL~1\AppData\Local\Temp\cczvk6aO.s 			page 64


 3580 02b6 00       		.byte	0
 3581 02b7 32       		.uleb128 0x32
 3582 02b8 2E       		.uleb128 0x2e
 3583 02b9 01       		.byte	0x1
 3584 02ba 3F       		.uleb128 0x3f
 3585 02bb 0C       		.uleb128 0xc
 3586 02bc 03       		.uleb128 0x3
 3587 02bd 0E       		.uleb128 0xe
 3588 02be 3A       		.uleb128 0x3a
 3589 02bf 0B       		.uleb128 0xb
 3590 02c0 3B       		.uleb128 0x3b
 3591 02c1 05       		.uleb128 0x5
 3592 02c2 27       		.uleb128 0x27
 3593 02c3 0C       		.uleb128 0xc
 3594 02c4 49       		.uleb128 0x49
 3595 02c5 13       		.uleb128 0x13
 3596 02c6 3C       		.uleb128 0x3c
 3597 02c7 0C       		.uleb128 0xc
 3598 02c8 01       		.uleb128 0x1
 3599 02c9 13       		.uleb128 0x13
 3600 02ca 00       		.byte	0
 3601 02cb 00       		.byte	0
 3602 02cc 33       		.uleb128 0x33
 3603 02cd 2E       		.uleb128 0x2e
 3604 02ce 01       		.byte	0x1
 3605 02cf 3F       		.uleb128 0x3f
 3606 02d0 0C       		.uleb128 0xc
 3607 02d1 03       		.uleb128 0x3
 3608 02d2 0E       		.uleb128 0xe
 3609 02d3 3A       		.uleb128 0x3a
 3610 02d4 0B       		.uleb128 0xb
 3611 02d5 3B       		.uleb128 0x3b
 3612 02d6 05       		.uleb128 0x5
 3613 02d7 27       		.uleb128 0x27
 3614 02d8 0C       		.uleb128 0xc
 3615 02d9 3C       		.uleb128 0x3c
 3616 02da 0C       		.uleb128 0xc
 3617 02db 00       		.byte	0
 3618 02dc 00       		.byte	0
 3619 02dd 00       		.byte	0
 3620              		.section	.debug_loc,"",%progbits
 3621              	.Ldebug_loc0:
 3622              	.LLST0:
 3623 0000 00000000 		.4byte	.LFB119
 3624 0004 02000000 		.4byte	.LCFI0
 3625 0008 0200     		.2byte	0x2
 3626 000a 7D       		.byte	0x7d
 3627 000b 00       		.sleb128 0
 3628 000c 02000000 		.4byte	.LCFI0
 3629 0010 40000000 		.4byte	.LFE119
 3630 0014 0200     		.2byte	0x2
 3631 0016 7D       		.byte	0x7d
 3632 0017 10       		.sleb128 16
 3633 0018 00000000 		.4byte	0
 3634 001c 00000000 		.4byte	0
 3635              	.LLST1:
 3636 0020 00000000 		.4byte	.LVL1
ARM GAS  C:\Users\DNIEL~1\AppData\Local\Temp\cczvk6aO.s 			page 65


 3637 0024 10000000 		.4byte	.LVL2
 3638 0028 0100     		.2byte	0x1
 3639 002a 50       		.byte	0x50
 3640 002b 10000000 		.4byte	.LVL2
 3641 002f 40000000 		.4byte	.LFE119
 3642 0033 0100     		.2byte	0x1
 3643 0035 54       		.byte	0x54
 3644 0036 00000000 		.4byte	0
 3645 003a 00000000 		.4byte	0
 3646              	.LLST2:
 3647 003e 00000000 		.4byte	.LFB120
 3648 0042 02000000 		.4byte	.LCFI1
 3649 0046 0200     		.2byte	0x2
 3650 0048 7D       		.byte	0x7d
 3651 0049 00       		.sleb128 0
 3652 004a 02000000 		.4byte	.LCFI1
 3653 004e 3A000000 		.4byte	.LFE120
 3654 0052 0200     		.2byte	0x2
 3655 0054 7D       		.byte	0x7d
 3656 0055 10       		.sleb128 16
 3657 0056 00000000 		.4byte	0
 3658 005a 00000000 		.4byte	0
 3659              	.LLST3:
 3660 005e 00000000 		.4byte	.LVL5
 3661 0062 12000000 		.4byte	.LVL9
 3662 0066 0100     		.2byte	0x1
 3663 0068 50       		.byte	0x50
 3664 0069 12000000 		.4byte	.LVL9
 3665 006d 3A000000 		.4byte	.LFE120
 3666 0071 0100     		.2byte	0x1
 3667 0073 54       		.byte	0x54
 3668 0074 00000000 		.4byte	0
 3669 0078 00000000 		.4byte	0
 3670              	.LLST4:
 3671 007c 00000000 		.4byte	.LVL5
 3672 0080 12000000 		.4byte	.LVL9
 3673 0084 0100     		.2byte	0x1
 3674 0086 51       		.byte	0x51
 3675 0087 12000000 		.4byte	.LVL9
 3676 008b 3A000000 		.4byte	.LFE120
 3677 008f 0100     		.2byte	0x1
 3678 0091 55       		.byte	0x55
 3679 0092 00000000 		.4byte	0
 3680 0096 00000000 		.4byte	0
 3681              	.LLST5:
 3682 009a 0C000000 		.4byte	.LVL7
 3683 009e 0E000000 		.4byte	.LVL8
 3684 00a2 0100     		.2byte	0x1
 3685 00a4 53       		.byte	0x53
 3686 00a5 00000000 		.4byte	0
 3687 00a9 00000000 		.4byte	0
 3688              	.LLST6:
 3689 00ad 2A000000 		.4byte	.LVL12
 3690 00b1 2C000000 		.4byte	.LVL13
 3691 00b5 0100     		.2byte	0x1
 3692 00b7 53       		.byte	0x53
 3693 00b8 00000000 		.4byte	0
ARM GAS  C:\Users\DNIEL~1\AppData\Local\Temp\cczvk6aO.s 			page 66


 3694 00bc 00000000 		.4byte	0
 3695              	.LLST7:
 3696 00c0 00000000 		.4byte	.LFB121
 3697 00c4 02000000 		.4byte	.LCFI2
 3698 00c8 0200     		.2byte	0x2
 3699 00ca 7D       		.byte	0x7d
 3700 00cb 00       		.sleb128 0
 3701 00cc 02000000 		.4byte	.LCFI2
 3702 00d0 32000000 		.4byte	.LFE121
 3703 00d4 0200     		.2byte	0x2
 3704 00d6 7D       		.byte	0x7d
 3705 00d7 08       		.sleb128 8
 3706 00d8 00000000 		.4byte	0
 3707 00dc 00000000 		.4byte	0
 3708              	.LLST8:
 3709 00e0 00000000 		.4byte	.LVL15
 3710 00e4 0D000000 		.4byte	.LVL18-1
 3711 00e8 0100     		.2byte	0x1
 3712 00ea 50       		.byte	0x50
 3713 00eb 0D000000 		.4byte	.LVL18-1
 3714 00ef 32000000 		.4byte	.LFE121
 3715 00f3 0100     		.2byte	0x1
 3716 00f5 54       		.byte	0x54
 3717 00f6 00000000 		.4byte	0
 3718 00fa 00000000 		.4byte	0
 3719              	.LLST9:
 3720 00fe 0A000000 		.4byte	.LVL17
 3721 0102 0D000000 		.4byte	.LVL18-1
 3722 0106 0100     		.2byte	0x1
 3723 0108 53       		.byte	0x53
 3724 0109 00000000 		.4byte	0
 3725 010d 00000000 		.4byte	0
 3726              	.LLST10:
 3727 0111 30000000 		.4byte	.LVL23
 3728 0115 32000000 		.4byte	.LFE121
 3729 0119 0100     		.2byte	0x1
 3730 011b 53       		.byte	0x53
 3731 011c 00000000 		.4byte	0
 3732 0120 00000000 		.4byte	0
 3733              	.LLST11:
 3734 0124 00000000 		.4byte	.LFB122
 3735 0128 04000000 		.4byte	.LCFI3
 3736 012c 0200     		.2byte	0x2
 3737 012e 7D       		.byte	0x7d
 3738 012f 00       		.sleb128 0
 3739 0130 04000000 		.4byte	.LCFI3
 3740 0134 52000000 		.4byte	.LFE122
 3741 0138 0200     		.2byte	0x2
 3742 013a 7D       		.byte	0x7d
 3743 013b 20       		.sleb128 32
 3744 013c 00000000 		.4byte	0
 3745 0140 00000000 		.4byte	0
 3746              	.LLST12:
 3747 0144 00000000 		.4byte	.LVL24
 3748 0148 16000000 		.4byte	.LVL27
 3749 014c 0100     		.2byte	0x1
 3750 014e 50       		.byte	0x50
ARM GAS  C:\Users\DNIEL~1\AppData\Local\Temp\cczvk6aO.s 			page 67


 3751 014f 16000000 		.4byte	.LVL27
 3752 0153 20000000 		.4byte	.LVL28
 3753 0157 0100     		.2byte	0x1
 3754 0159 54       		.byte	0x54
 3755 015a 20000000 		.4byte	.LVL28
 3756 015e 23000000 		.4byte	.LVL29-1
 3757 0162 0100     		.2byte	0x1
 3758 0164 50       		.byte	0x50
 3759 0165 23000000 		.4byte	.LVL29-1
 3760 0169 52000000 		.4byte	.LFE122
 3761 016d 0100     		.2byte	0x1
 3762 016f 54       		.byte	0x54
 3763 0170 00000000 		.4byte	0
 3764 0174 00000000 		.4byte	0
 3765              	.LLST13:
 3766 0178 00000000 		.4byte	.LVL24
 3767 017c 16000000 		.4byte	.LVL27
 3768 0180 0100     		.2byte	0x1
 3769 0182 51       		.byte	0x51
 3770 0183 16000000 		.4byte	.LVL27
 3771 0187 20000000 		.4byte	.LVL28
 3772 018b 0100     		.2byte	0x1
 3773 018d 56       		.byte	0x56
 3774 018e 20000000 		.4byte	.LVL28
 3775 0192 23000000 		.4byte	.LVL29-1
 3776 0196 0100     		.2byte	0x1
 3777 0198 51       		.byte	0x51
 3778 0199 23000000 		.4byte	.LVL29-1
 3779 019d 52000000 		.4byte	.LFE122
 3780 01a1 0100     		.2byte	0x1
 3781 01a3 56       		.byte	0x56
 3782 01a4 00000000 		.4byte	0
 3783 01a8 00000000 		.4byte	0
 3784              	.LLST14:
 3785 01ac 00000000 		.4byte	.LVL24
 3786 01b0 16000000 		.4byte	.LVL27
 3787 01b4 0100     		.2byte	0x1
 3788 01b6 52       		.byte	0x52
 3789 01b7 16000000 		.4byte	.LVL27
 3790 01bb 52000000 		.4byte	.LFE122
 3791 01bf 0100     		.2byte	0x1
 3792 01c1 59       		.byte	0x59
 3793 01c2 00000000 		.4byte	0
 3794 01c6 00000000 		.4byte	0
 3795              	.LLST15:
 3796 01ca 00000000 		.4byte	.LVL24
 3797 01ce 0E000000 		.4byte	.LVL25
 3798 01d2 0100     		.2byte	0x1
 3799 01d4 53       		.byte	0x53
 3800 01d5 0E000000 		.4byte	.LVL25
 3801 01d9 52000000 		.4byte	.LFE122
 3802 01dd 0100     		.2byte	0x1
 3803 01df 58       		.byte	0x58
 3804 01e0 00000000 		.4byte	0
 3805 01e4 00000000 		.4byte	0
 3806              	.LLST16:
 3807 01e8 12000000 		.4byte	.LVL26
ARM GAS  C:\Users\DNIEL~1\AppData\Local\Temp\cczvk6aO.s 			page 68


 3808 01ec 23000000 		.4byte	.LVL29-1
 3809 01f0 0100     		.2byte	0x1
 3810 01f2 53       		.byte	0x53
 3811 01f3 26000000 		.4byte	.LVL30
 3812 01f7 2D000000 		.4byte	.LVL31-1
 3813 01fb 0100     		.2byte	0x1
 3814 01fd 53       		.byte	0x53
 3815 01fe 00000000 		.4byte	0
 3816 0202 00000000 		.4byte	0
 3817              	.LLST17:
 3818 0206 2E000000 		.4byte	.LVL31
 3819 020a 3C000000 		.4byte	.LVL34
 3820 020e 0100     		.2byte	0x1
 3821 0210 50       		.byte	0x50
 3822 0211 00000000 		.4byte	0
 3823 0215 00000000 		.4byte	0
 3824              	.LLST18:
 3825 0219 38000000 		.4byte	.LVL33
 3826 021d 3C000000 		.4byte	.LVL34
 3827 0221 0100     		.2byte	0x1
 3828 0223 53       		.byte	0x53
 3829 0224 00000000 		.4byte	0
 3830 0228 00000000 		.4byte	0
 3831              	.LLST19:
 3832 022c 4C000000 		.4byte	.LVL37
 3833 0230 52000000 		.4byte	.LFE122
 3834 0234 0100     		.2byte	0x1
 3835 0236 53       		.byte	0x53
 3836 0237 00000000 		.4byte	0
 3837 023b 00000000 		.4byte	0
 3838              	.LLST20:
 3839 023f 00000000 		.4byte	.LFB123
 3840 0243 04000000 		.4byte	.LCFI4
 3841 0247 0200     		.2byte	0x2
 3842 0249 7D       		.byte	0x7d
 3843 024a 00       		.sleb128 0
 3844 024b 04000000 		.4byte	.LCFI4
 3845 024f 52000000 		.4byte	.LFE123
 3846 0253 0200     		.2byte	0x2
 3847 0255 7D       		.byte	0x7d
 3848 0256 20       		.sleb128 32
 3849 0257 00000000 		.4byte	0
 3850 025b 00000000 		.4byte	0
 3851              	.LLST21:
 3852 025f 00000000 		.4byte	.LVL38
 3853 0263 16000000 		.4byte	.LVL41
 3854 0267 0100     		.2byte	0x1
 3855 0269 50       		.byte	0x50
 3856 026a 16000000 		.4byte	.LVL41
 3857 026e 20000000 		.4byte	.LVL42
 3858 0272 0100     		.2byte	0x1
 3859 0274 54       		.byte	0x54
 3860 0275 20000000 		.4byte	.LVL42
 3861 0279 23000000 		.4byte	.LVL43-1
 3862 027d 0100     		.2byte	0x1
 3863 027f 50       		.byte	0x50
 3864 0280 23000000 		.4byte	.LVL43-1
ARM GAS  C:\Users\DNIEL~1\AppData\Local\Temp\cczvk6aO.s 			page 69


 3865 0284 52000000 		.4byte	.LFE123
 3866 0288 0100     		.2byte	0x1
 3867 028a 54       		.byte	0x54
 3868 028b 00000000 		.4byte	0
 3869 028f 00000000 		.4byte	0
 3870              	.LLST22:
 3871 0293 00000000 		.4byte	.LVL38
 3872 0297 16000000 		.4byte	.LVL41
 3873 029b 0100     		.2byte	0x1
 3874 029d 51       		.byte	0x51
 3875 029e 16000000 		.4byte	.LVL41
 3876 02a2 20000000 		.4byte	.LVL42
 3877 02a6 0100     		.2byte	0x1
 3878 02a8 56       		.byte	0x56
 3879 02a9 20000000 		.4byte	.LVL42
 3880 02ad 23000000 		.4byte	.LVL43-1
 3881 02b1 0100     		.2byte	0x1
 3882 02b3 51       		.byte	0x51
 3883 02b4 23000000 		.4byte	.LVL43-1
 3884 02b8 52000000 		.4byte	.LFE123
 3885 02bc 0100     		.2byte	0x1
 3886 02be 56       		.byte	0x56
 3887 02bf 00000000 		.4byte	0
 3888 02c3 00000000 		.4byte	0
 3889              	.LLST23:
 3890 02c7 00000000 		.4byte	.LVL38
 3891 02cb 16000000 		.4byte	.LVL41
 3892 02cf 0100     		.2byte	0x1
 3893 02d1 52       		.byte	0x52
 3894 02d2 16000000 		.4byte	.LVL41
 3895 02d6 52000000 		.4byte	.LFE123
 3896 02da 0100     		.2byte	0x1
 3897 02dc 59       		.byte	0x59
 3898 02dd 00000000 		.4byte	0
 3899 02e1 00000000 		.4byte	0
 3900              	.LLST24:
 3901 02e5 00000000 		.4byte	.LVL38
 3902 02e9 0E000000 		.4byte	.LVL39
 3903 02ed 0100     		.2byte	0x1
 3904 02ef 53       		.byte	0x53
 3905 02f0 0E000000 		.4byte	.LVL39
 3906 02f4 52000000 		.4byte	.LFE123
 3907 02f8 0100     		.2byte	0x1
 3908 02fa 58       		.byte	0x58
 3909 02fb 00000000 		.4byte	0
 3910 02ff 00000000 		.4byte	0
 3911              	.LLST25:
 3912 0303 12000000 		.4byte	.LVL40
 3913 0307 23000000 		.4byte	.LVL43-1
 3914 030b 0100     		.2byte	0x1
 3915 030d 53       		.byte	0x53
 3916 030e 26000000 		.4byte	.LVL44
 3917 0312 2D000000 		.4byte	.LVL45-1
 3918 0316 0100     		.2byte	0x1
 3919 0318 53       		.byte	0x53
 3920 0319 00000000 		.4byte	0
 3921 031d 00000000 		.4byte	0
ARM GAS  C:\Users\DNIEL~1\AppData\Local\Temp\cczvk6aO.s 			page 70


 3922              	.LLST26:
 3923 0321 2E000000 		.4byte	.LVL45
 3924 0325 3C000000 		.4byte	.LVL48
 3925 0329 0100     		.2byte	0x1
 3926 032b 50       		.byte	0x50
 3927 032c 00000000 		.4byte	0
 3928 0330 00000000 		.4byte	0
 3929              	.LLST27:
 3930 0334 38000000 		.4byte	.LVL47
 3931 0338 3C000000 		.4byte	.LVL48
 3932 033c 0100     		.2byte	0x1
 3933 033e 53       		.byte	0x53
 3934 033f 00000000 		.4byte	0
 3935 0343 00000000 		.4byte	0
 3936              	.LLST28:
 3937 0347 4C000000 		.4byte	.LVL51
 3938 034b 52000000 		.4byte	.LFE123
 3939 034f 0100     		.2byte	0x1
 3940 0351 53       		.byte	0x53
 3941 0352 00000000 		.4byte	0
 3942 0356 00000000 		.4byte	0
 3943              	.LLST29:
 3944 035a 00000000 		.4byte	.LFB124
 3945 035e 02000000 		.4byte	.LCFI5
 3946 0362 0200     		.2byte	0x2
 3947 0364 7D       		.byte	0x7d
 3948 0365 00       		.sleb128 0
 3949 0366 02000000 		.4byte	.LCFI5
 3950 036a 30000000 		.4byte	.LFE124
 3951 036e 0200     		.2byte	0x2
 3952 0370 7D       		.byte	0x7d
 3953 0371 08       		.sleb128 8
 3954 0372 00000000 		.4byte	0
 3955 0376 00000000 		.4byte	0
 3956              	.LLST30:
 3957 037a 00000000 		.4byte	.LVL52
 3958 037e 10000000 		.4byte	.LVL56
 3959 0382 0100     		.2byte	0x1
 3960 0384 50       		.byte	0x50
 3961 0385 10000000 		.4byte	.LVL56
 3962 0389 18000000 		.4byte	.LVL59
 3963 038d 0100     		.2byte	0x1
 3964 038f 54       		.byte	0x54
 3965 0390 18000000 		.4byte	.LVL59
 3966 0394 1B000000 		.4byte	.LVL60-1
 3967 0398 0100     		.2byte	0x1
 3968 039a 50       		.byte	0x50
 3969 039b 1B000000 		.4byte	.LVL60-1
 3970 039f 30000000 		.4byte	.LFE124
 3971 03a3 0100     		.2byte	0x1
 3972 03a5 54       		.byte	0x54
 3973 03a6 00000000 		.4byte	0
 3974 03aa 00000000 		.4byte	0
 3975              	.LLST31:
 3976 03ae 0A000000 		.4byte	.LVL54
 3977 03b2 0C000000 		.4byte	.LVL55
 3978 03b6 0100     		.2byte	0x1
ARM GAS  C:\Users\DNIEL~1\AppData\Local\Temp\cczvk6aO.s 			page 71


 3979 03b8 53       		.byte	0x53
 3980 03b9 00000000 		.4byte	0
 3981 03bd 00000000 		.4byte	0
 3982              	.LLST32:
 3983 03c1 16000000 		.4byte	.LVL58
 3984 03c5 18000000 		.4byte	.LVL59
 3985 03c9 0100     		.2byte	0x1
 3986 03cb 53       		.byte	0x53
 3987 03cc 00000000 		.4byte	0
 3988 03d0 00000000 		.4byte	0
 3989              	.LLST33:
 3990 03d4 00000000 		.4byte	.LFB125
 3991 03d8 02000000 		.4byte	.LCFI6
 3992 03dc 0200     		.2byte	0x2
 3993 03de 7D       		.byte	0x7d
 3994 03df 00       		.sleb128 0
 3995 03e0 02000000 		.4byte	.LCFI6
 3996 03e4 30000000 		.4byte	.LFE125
 3997 03e8 0200     		.2byte	0x2
 3998 03ea 7D       		.byte	0x7d
 3999 03eb 08       		.sleb128 8
 4000 03ec 00000000 		.4byte	0
 4001 03f0 00000000 		.4byte	0
 4002              	.LLST34:
 4003 03f4 00000000 		.4byte	.LVL63
 4004 03f8 10000000 		.4byte	.LVL67
 4005 03fc 0100     		.2byte	0x1
 4006 03fe 50       		.byte	0x50
 4007 03ff 10000000 		.4byte	.LVL67
 4008 0403 18000000 		.4byte	.LVL70
 4009 0407 0100     		.2byte	0x1
 4010 0409 54       		.byte	0x54
 4011 040a 18000000 		.4byte	.LVL70
 4012 040e 1B000000 		.4byte	.LVL71-1
 4013 0412 0100     		.2byte	0x1
 4014 0414 50       		.byte	0x50
 4015 0415 1B000000 		.4byte	.LVL71-1
 4016 0419 30000000 		.4byte	.LFE125
 4017 041d 0100     		.2byte	0x1
 4018 041f 54       		.byte	0x54
 4019 0420 00000000 		.4byte	0
 4020 0424 00000000 		.4byte	0
 4021              	.LLST35:
 4022 0428 0A000000 		.4byte	.LVL65
 4023 042c 0C000000 		.4byte	.LVL66
 4024 0430 0100     		.2byte	0x1
 4025 0432 53       		.byte	0x53
 4026 0433 00000000 		.4byte	0
 4027 0437 00000000 		.4byte	0
 4028              	.LLST36:
 4029 043b 16000000 		.4byte	.LVL69
 4030 043f 18000000 		.4byte	.LVL70
 4031 0443 0100     		.2byte	0x1
 4032 0445 53       		.byte	0x53
 4033 0446 00000000 		.4byte	0
 4034 044a 00000000 		.4byte	0
 4035              		.section	.debug_aranges,"",%progbits
ARM GAS  C:\Users\DNIEL~1\AppData\Local\Temp\cczvk6aO.s 			page 72


 4036 0000 54000000 		.4byte	0x54
 4037 0004 0200     		.2byte	0x2
 4038 0006 00000000 		.4byte	.Ldebug_info0
 4039 000a 04       		.byte	0x4
 4040 000b 00       		.byte	0
 4041 000c 0000     		.2byte	0
 4042 000e 0000     		.2byte	0
 4043 0010 00000000 		.4byte	.LFB118
 4044 0014 04000000 		.4byte	.LFE118-.LFB118
 4045 0018 00000000 		.4byte	.LFB119
 4046 001c 40000000 		.4byte	.LFE119-.LFB119
 4047 0020 00000000 		.4byte	.LFB120
 4048 0024 3A000000 		.4byte	.LFE120-.LFB120
 4049 0028 00000000 		.4byte	.LFB121
 4050 002c 32000000 		.4byte	.LFE121-.LFB121
 4051 0030 00000000 		.4byte	.LFB122
 4052 0034 52000000 		.4byte	.LFE122-.LFB122
 4053 0038 00000000 		.4byte	.LFB123
 4054 003c 52000000 		.4byte	.LFE123-.LFB123
 4055 0040 00000000 		.4byte	.LFB124
 4056 0044 30000000 		.4byte	.LFE124-.LFB124
 4057 0048 00000000 		.4byte	.LFB125
 4058 004c 30000000 		.4byte	.LFE125-.LFB125
 4059 0050 00000000 		.4byte	0
 4060 0054 00000000 		.4byte	0
 4061              		.section	.debug_ranges,"",%progbits
 4062              	.Ldebug_ranges0:
 4063 0000 02000000 		.4byte	.LBB4
 4064 0004 04000000 		.4byte	.LBE4
 4065 0008 06000000 		.4byte	.LBB5
 4066 000c 0A000000 		.4byte	.LBE5
 4067 0010 00000000 		.4byte	0
 4068 0014 00000000 		.4byte	0
 4069 0018 12000000 		.4byte	.LBB8
 4070 001c 16000000 		.4byte	.LBE8
 4071 0020 26000000 		.4byte	.LBB10
 4072 0024 3C000000 		.4byte	.LBE10
 4073 0028 00000000 		.4byte	0
 4074 002c 00000000 		.4byte	0
 4075 0030 12000000 		.4byte	.LBB13
 4076 0034 16000000 		.4byte	.LBE13
 4077 0038 26000000 		.4byte	.LBB15
 4078 003c 3C000000 		.4byte	.LBE15
 4079 0040 00000000 		.4byte	0
 4080 0044 00000000 		.4byte	0
 4081 0048 02000000 		.4byte	.LBB17
 4082 004c 04000000 		.4byte	.LBE17
 4083 0050 06000000 		.4byte	.LBB18
 4084 0054 0A000000 		.4byte	.LBE18
 4085 0058 00000000 		.4byte	0
 4086 005c 00000000 		.4byte	0
 4087 0060 02000000 		.4byte	.LBB20
 4088 0064 04000000 		.4byte	.LBE20
 4089 0068 06000000 		.4byte	.LBB21
 4090 006c 0A000000 		.4byte	.LBE21
 4091 0070 00000000 		.4byte	0
 4092 0074 00000000 		.4byte	0
ARM GAS  C:\Users\DNIEL~1\AppData\Local\Temp\cczvk6aO.s 			page 73


 4093 0078 00000000 		.4byte	.LFB118
 4094 007c 04000000 		.4byte	.LFE118
 4095 0080 00000000 		.4byte	.LFB119
 4096 0084 40000000 		.4byte	.LFE119
 4097 0088 00000000 		.4byte	.LFB120
 4098 008c 3A000000 		.4byte	.LFE120
 4099 0090 00000000 		.4byte	.LFB121
 4100 0094 32000000 		.4byte	.LFE121
 4101 0098 00000000 		.4byte	.LFB122
 4102 009c 52000000 		.4byte	.LFE122
 4103 00a0 00000000 		.4byte	.LFB123
 4104 00a4 52000000 		.4byte	.LFE123
 4105 00a8 00000000 		.4byte	.LFB124
 4106 00ac 30000000 		.4byte	.LFE124
 4107 00b0 00000000 		.4byte	.LFB125
 4108 00b4 30000000 		.4byte	.LFE125
 4109 00b8 00000000 		.4byte	0
 4110 00bc 00000000 		.4byte	0
 4111              		.section	.debug_line,"",%progbits
 4112              	.Ldebug_line0:
 4113 0000 3D030000 		.section	.debug_str,"MS",%progbits,1
 4113      02004E02 
 4113      00000201 
 4113      FB0E0D00 
 4113      01010101 
 4114              	.LASF131:
 4115 0000 63616E57 		.ascii	"canWakeup\000"
 4115      616B6575 
 4115      7000
 4116              	.LASF17:
 4117 000a 74726566 		.ascii	"trefs_t\000"
 4117      735F7400 
 4118              	.LASF37:
 4119 0012 705F7469 		.ascii	"p_time\000"
 4119      6D6500
 4120              	.LASF107:
 4121 0019 43414E52 		.ascii	"CANRxFrame\000"
 4121      78467261 
 4121      6D6500
 4122              	.LASF65:
 4123 0024 7264796D 		.ascii	"rdymsg\000"
 4123      736700
 4124              	.LASF119:
 4125 002b 63616E49 		.ascii	"canInit\000"
 4125      6E697400 
 4126              	.LASF108:
 4127 0033 43414E43 		.ascii	"CANConfig\000"
 4127      6F6E6669 
 4127      6700
 4128              	.LASF94:
 4129 003d 43414E5F 		.ascii	"CAN_TypeDef\000"
 4129      54797065 
 4129      44656600 
 4130              	.LASF12:
 4131 0049 6C6F6E67 		.ascii	"long long unsigned int\000"
 4131      206C6F6E 
 4131      6720756E 
ARM GAS  C:\Users\DNIEL~1\AppData\Local\Temp\cczvk6aO.s 			page 74


 4131      7369676E 
 4131      65642069 
 4132              	.LASF66:
 4133 0060 65786974 		.ascii	"exitcode\000"
 4133      636F6465 
 4133      00
 4134              	.LASF104:
 4135 0069 64617461 		.ascii	"data32\000"
 4135      333200
 4136              	.LASF128:
 4137 0070 63616E52 		.ascii	"canReceive\000"
 4137      65636569 
 4137      766500
 4138              	.LASF11:
 4139 007b 6C6F6E67 		.ascii	"long long int\000"
 4139      206C6F6E 
 4139      6720696E 
 4139      7400
 4140              	.LASF1:
 4141 0089 7369676E 		.ascii	"signed char\000"
 4141      65642063 
 4141      68617200 
 4142              	.LASF97:
 4143 0095 43414E5F 		.ascii	"CAN_STARTING\000"
 4143      53544152 
 4143      54494E47 
 4143      00
 4144              	.LASF124:
 4145 00a2 6D61696C 		.ascii	"mailbox\000"
 4145      626F7800 
 4146              	.LASF44:
 4147 00aa 705F6D70 		.ascii	"p_mpool\000"
 4147      6F6F6C00 
 4148              	.LASF13:
 4149 00b2 626F6F6C 		.ascii	"bool_t\000"
 4149      5F7400
 4150              	.LASF55:
 4151 00b9 6D5F7175 		.ascii	"m_queue\000"
 4151      65756500 
 4152              	.LASF111:
 4153 00c1 74787365 		.ascii	"txsem\000"
 4153      6D00
 4154              	.LASF120:
 4155 00c7 63616E4F 		.ascii	"canObjectInit\000"
 4155      626A6563 
 4155      74496E69 
 4155      7400
 4156              	.LASF18:
 4157 00d5 74736C69 		.ascii	"tslices_t\000"
 4157      6365735F 
 4157      7400
 4158              	.LASF109:
 4159 00df 73746174 		.ascii	"state\000"
 4159      6500
 4160              	.LASF71:
 4161 00e5 54444C52 		.ascii	"TDLR\000"
 4161      00
ARM GAS  C:\Users\DNIEL~1\AppData\Local\Temp\cczvk6aO.s 			page 75


 4162              	.LASF8:
 4163 00ea 6C6F6E67 		.ascii	"long int\000"
 4163      20696E74 
 4163      00
 4164              	.LASF16:
 4165 00f3 74737461 		.ascii	"tstate_t\000"
 4165      74655F74 
 4165      00
 4166              	.LASF73:
 4167 00fc 43414E5F 		.ascii	"CAN_TxMailBox_TypeDef\000"
 4167      54784D61 
 4167      696C426F 
 4167      785F5479 
 4167      70654465 
 4168              	.LASF35:
 4169 0112 705F7265 		.ascii	"p_refs\000"
 4169      667300
 4170              	.LASF150:
 4171 0119 63616E5F 		.ascii	"can_lld_wakeup\000"
 4171      6C6C645F 
 4171      77616B65 
 4171      757000
 4172              	.LASF5:
 4173 0128 75696E74 		.ascii	"uint16_t\000"
 4173      31365F74 
 4173      00
 4174              	.LASF145:
 4175 0131 63684576 		.ascii	"chEvtBroadcastFlagsI\000"
 4175      7442726F 
 4175      61646361 
 4175      7374466C 
 4175      61677349 
 4176              	.LASF125:
 4177 0146 63746670 		.ascii	"ctfp\000"
 4177      00
 4178              	.LASF30:
 4179 014b 705F6E65 		.ascii	"p_newer\000"
 4179      77657200 
 4180              	.LASF52:
 4181 0153 735F7175 		.ascii	"s_queue\000"
 4181      65756500 
 4182              	.LASF98:
 4183 015b 43414E5F 		.ascii	"CAN_READY\000"
 4183      52454144 
 4183      5900
 4184              	.LASF6:
 4185 0165 73686F72 		.ascii	"short unsigned int\000"
 4185      7420756E 
 4185      7369676E 
 4185      65642069 
 4185      6E7400
 4186              	.LASF121:
 4187 0178 63616E53 		.ascii	"canStart\000"
 4187      74617274 
 4187      00
 4188              	.LASF137:
 4189 0181 63685363 		.ascii	"chSchRescheduleS\000"
ARM GAS  C:\Users\DNIEL~1\AppData\Local\Temp\cczvk6aO.s 			page 76


 4189      68526573 
 4189      63686564 
 4189      756C6553 
 4189      00
 4190              	.LASF113:
 4191 0192 72786675 		.ascii	"rxfull_event\000"
 4191      6C6C5F65 
 4191      76656E74 
 4191      00
 4192              	.LASF47:
 4193 019f 72656761 		.ascii	"regarm_t\000"
 4193      726D5F74 
 4193      00
 4194              	.LASF106:
 4195 01a8 54494D45 		.ascii	"TIME\000"
 4195      00
 4196              	.LASF70:
 4197 01ad 54445452 		.ascii	"TDTR\000"
 4197      00
 4198              	.LASF63:
 4199 01b2 4576656E 		.ascii	"EventSource\000"
 4199      74536F75 
 4199      72636500 
 4200              	.LASF136:
 4201 01be 63616E5F 		.ascii	"can_lld_init\000"
 4201      6C6C645F 
 4201      696E6974 
 4201      00
 4202              	.LASF24:
 4203 01cb 636E745F 		.ascii	"cnt_t\000"
 4203      7400
 4204              	.LASF0:
 4205 01d1 756E7369 		.ascii	"unsigned int\000"
 4205      676E6564 
 4205      20696E74 
 4205      00
 4206              	.LASF82:
 4207 01de 7354784D 		.ascii	"sTxMailBox\000"
 4207      61696C42 
 4207      6F7800
 4208              	.LASF39:
 4209 01e9 705F6D73 		.ascii	"p_msgqueue\000"
 4209      67717565 
 4209      756500
 4210              	.LASF126:
 4211 01f4 74696D65 		.ascii	"timeout\000"
 4211      6F757400 
 4212              	.LASF74:
 4213 01fc 52445452 		.ascii	"RDTR\000"
 4213      00
 4214              	.LASF105:
 4215 0201 43414E54 		.ascii	"CANTxFrame\000"
 4215      78467261 
 4215      6D6500
 4216              	.LASF53:
 4217 020c 735F636E 		.ascii	"s_cnt\000"
 4217      7400
ARM GAS  C:\Users\DNIEL~1\AppData\Local\Temp\cczvk6aO.s 			page 77


 4218              	.LASF133:
 4219 0212 63616E5F 		.ascii	"can_lld_start\000"
 4219      6C6C645F 
 4219      73746172 
 4219      7400
 4220              	.LASF80:
 4221 0220 52463152 		.ascii	"RF1R\000"
 4221      00
 4222              	.LASF78:
 4223 0225 43414E5F 		.ascii	"CAN_FilterRegister_TypeDef\000"
 4223      46696C74 
 4223      65725265 
 4223      67697374 
 4223      65725F54 
 4224              	.LASF20:
 4225 0240 6D73675F 		.ascii	"msg_t\000"
 4225      7400
 4226              	.LASF59:
 4227 0246 656C5F6E 		.ascii	"el_next\000"
 4227      65787400 
 4228              	.LASF15:
 4229 024e 746D6F64 		.ascii	"tmode_t\000"
 4229      655F7400 
 4230              	.LASF46:
 4231 0256 54687265 		.ascii	"ThreadsList\000"
 4231      6164734C 
 4231      69737400 
 4232              	.LASF93:
 4233 0262 7346696C 		.ascii	"sFilterRegister\000"
 4233      74657252 
 4233      65676973 
 4233      74657200 
 4234              	.LASF21:
 4235 0272 6576656E 		.ascii	"eventmask_t\000"
 4235      746D6173 
 4235      6B5F7400 
 4236              	.LASF54:
 4237 027e 4D757465 		.ascii	"Mutex\000"
 4237      7800
 4238              	.LASF140:
 4239 0284 63616E5F 		.ascii	"can_lld_is_tx_empty\000"
 4239      6C6C645F 
 4239      69735F74 
 4239      785F656D 
 4239      70747900 
 4240              	.LASF91:
 4241 0298 46413152 		.ascii	"FA1R\000"
 4241      00
 4242              	.LASF127:
 4243 029d 63616E54 		.ascii	"canTransmit\000"
 4243      72616E73 
 4243      6D697400 
 4244              	.LASF50:
 4245 02a9 73697A65 		.ascii	"sizetype\000"
 4245      74797065 
 4245      00
 4246              	.LASF99:
ARM GAS  C:\Users\DNIEL~1\AppData\Local\Temp\cczvk6aO.s 			page 78


 4247 02b2 43414E5F 		.ascii	"CAN_SLEEP\000"
 4247      534C4545 
 4247      5000
 4248              	.LASF102:
 4249 02bc 64617461 		.ascii	"data8\000"
 4249      3800
 4250              	.LASF28:
 4251 02c2 705F7072 		.ascii	"p_prio\000"
 4251      696F00
 4252              	.LASF118:
 4253 02c9 43414E44 		.ascii	"CANDriver\000"
 4253      72697665 
 4253      7200
 4254              	.LASF146:
 4255 02d3 474E5520 		.ascii	"GNU C 4.7.4 20140401 (release) [ARM/embedded-4_7-br"
 4255      4320342E 
 4255      372E3420 
 4255      32303134 
 4255      30343031 
 4256 0306 616E6368 		.ascii	"anch revision 209195]\000"
 4256      20726576 
 4256      6973696F 
 4256      6E203230 
 4256      39313935 
 4257              	.LASF31:
 4258 031c 705F6F6C 		.ascii	"p_older\000"
 4258      64657200 
 4259              	.LASF45:
 4260 0324 54687265 		.ascii	"ThreadsQueue\000"
 4260      61647351 
 4260      75657565 
 4260      00
 4261              	.LASF72:
 4262 0331 54444852 		.ascii	"TDHR\000"
 4262      00
 4263              	.LASF61:
 4264 0336 656C5F6D 		.ascii	"el_mask\000"
 4264      61736B00 
 4265              	.LASF116:
 4266 033e 736C6565 		.ascii	"sleep_event\000"
 4266      705F6576 
 4266      656E7400 
 4267              	.LASF100:
 4268 034a 63616E73 		.ascii	"canstate_t\000"
 4268      74617465 
 4268      5F7400
 4269              	.LASF96:
 4270 0355 43414E5F 		.ascii	"CAN_STOP\000"
 4270      53544F50 
 4270      00
 4271              	.LASF89:
 4272 035e 46464131 		.ascii	"FFA1R\000"
 4272      5200
 4273              	.LASF115:
 4274 0364 6572726F 		.ascii	"error_event\000"
 4274      725F6576 
 4274      656E7400 
ARM GAS  C:\Users\DNIEL~1\AppData\Local\Temp\cczvk6aO.s 			page 79


 4275              	.LASF129:
 4276 0370 63726670 		.ascii	"crfp\000"
 4276      00
 4277              	.LASF81:
 4278 0375 52455345 		.ascii	"RESERVED0\000"
 4278      52564544 
 4278      3000
 4279              	.LASF84:
 4280 037f 52455345 		.ascii	"RESERVED1\000"
 4280      52564544 
 4280      3100
 4281              	.LASF86:
 4282 0389 52455345 		.ascii	"RESERVED2\000"
 4282      52564544 
 4282      3200
 4283              	.LASF88:
 4284 0393 52455345 		.ascii	"RESERVED3\000"
 4284      52564544 
 4284      3300
 4285              	.LASF90:
 4286 039d 52455345 		.ascii	"RESERVED4\000"
 4286      52564544 
 4286      3400
 4287              	.LASF27:
 4288 03a7 705F7072 		.ascii	"p_prev\000"
 4288      657600
 4289              	.LASF19:
 4290 03ae 74707269 		.ascii	"tprio_t\000"
 4290      6F5F7400 
 4291              	.LASF123:
 4292 03b6 63616E53 		.ascii	"canStop\000"
 4292      746F7000 
 4293              	.LASF95:
 4294 03be 43414E5F 		.ascii	"CAN_UNINIT\000"
 4294      554E494E 
 4294      495400
 4295              	.LASF14:
 4296 03c9 5F426F6F 		.ascii	"_Bool\000"
 4296      6C00
 4297              	.LASF7:
 4298 03cf 696E7433 		.ascii	"int32_t\000"
 4298      325F7400 
 4299              	.LASF2:
 4300 03d7 756E7369 		.ascii	"unsigned char\000"
 4300      676E6564 
 4300      20636861 
 4300      7200
 4301              	.LASF117:
 4302 03e5 77616B65 		.ascii	"wakeup_event\000"
 4302      75705F65 
 4302      76656E74 
 4302      00
 4303              	.LASF60:
 4304 03f2 656C5F6C 		.ascii	"el_listener\000"
 4304      69737465 
 4304      6E657200 
 4305              	.LASF149:
ARM GAS  C:\Users\DNIEL~1\AppData\Local\Temp\cczvk6aO.s 			page 80


 4306 03fe 49544D5F 		.ascii	"ITM_RxBuffer\000"
 4306      52784275 
 4306      66666572 
 4306      00
 4307              	.LASF62:
 4308 040b 656C5F66 		.ascii	"el_flags\000"
 4308      6C616773 
 4308      00
 4309              	.LASF42:
 4310 0414 705F6D74 		.ascii	"p_mtxlist\000"
 4310      786C6973 
 4310      7400
 4311              	.LASF3:
 4312 041e 73686F72 		.ascii	"short int\000"
 4312      7420696E 
 4312      7400
 4313              	.LASF33:
 4314 0428 705F7374 		.ascii	"p_state\000"
 4314      61746500 
 4315              	.LASF36:
 4316 0430 705F7072 		.ascii	"p_preempt\000"
 4316      65656D70 
 4316      7400
 4317              	.LASF68:
 4318 043a 65776D61 		.ascii	"ewmask\000"
 4318      736B00
 4319              	.LASF26:
 4320 0441 705F6E65 		.ascii	"p_next\000"
 4320      787400
 4321              	.LASF34:
 4322 0448 705F666C 		.ascii	"p_flags\000"
 4322      61677300 
 4323              	.LASF130:
 4324 0450 63616E53 		.ascii	"canSleep\000"
 4324      6C656570 
 4324      00
 4325              	.LASF85:
 4326 0459 464D3152 		.ascii	"FM1R\000"
 4326      00
 4327              	.LASF25:
 4328 045e 54687265 		.ascii	"Thread\000"
 4328      616400
 4329              	.LASF41:
 4330 0465 705F6570 		.ascii	"p_epending\000"
 4330      656E6469 
 4330      6E6700
 4331              	.LASF92:
 4332 0470 52455345 		.ascii	"RESERVED5\000"
 4332      52564544 
 4332      3500
 4333              	.LASF122:
 4334 047a 63616E70 		.ascii	"canp\000"
 4334      00
 4335              	.LASF9:
 4336 047f 75696E74 		.ascii	"uint32_t\000"
 4336      33325F74 
 4336      00
ARM GAS  C:\Users\DNIEL~1\AppData\Local\Temp\cczvk6aO.s 			page 81


 4337              	.LASF114:
 4338 0488 7478656D 		.ascii	"txempty_event\000"
 4338      7074795F 
 4338      6576656E 
 4338      7400
 4339              	.LASF10:
 4340 0496 6C6F6E67 		.ascii	"long unsigned int\000"
 4340      20756E73 
 4340      69676E65 
 4340      6420696E 
 4340      7400
 4341              	.LASF69:
 4342 04a8 63686172 		.ascii	"char\000"
 4342      00
 4343              	.LASF110:
 4344 04ad 636F6E66 		.ascii	"config\000"
 4344      696700
 4345              	.LASF139:
 4346 04b4 63685365 		.ascii	"chSemWaitTimeoutS\000"
 4346      6D576169 
 4346      7454696D 
 4346      656F7574 
 4346      5300
 4347              	.LASF76:
 4348 04c6 52444852 		.ascii	"RDHR\000"
 4348      00
 4349              	.LASF57:
 4350 04cb 6D5F6E65 		.ascii	"m_next\000"
 4350      787400
 4351              	.LASF23:
 4352 04d2 73797374 		.ascii	"systime_t\000"
 4352      696D655F 
 4352      7400
 4353              	.LASF43:
 4354 04dc 705F7265 		.ascii	"p_realprio\000"
 4354      616C7072 
 4354      696F00
 4355              	.LASF83:
 4356 04e7 73464946 		.ascii	"sFIFOMailBox\000"
 4356      4F4D6169 
 4356      6C426F78 
 4356      00
 4357              	.LASF49:
 4358 04f4 636F6E74 		.ascii	"context\000"
 4358      65787400 
 4359              	.LASF144:
 4360 04fc 63616E5F 		.ascii	"can_lld_sleep\000"
 4360      6C6C645F 
 4360      736C6565 
 4360      7000
 4361              	.LASF48:
 4362 050a 696E7463 		.ascii	"intctx\000"
 4362      747800
 4363              	.LASF51:
 4364 0511 53656D61 		.ascii	"Semaphore\000"
 4364      70686F72 
 4364      6500
ARM GAS  C:\Users\DNIEL~1\AppData\Local\Temp\cczvk6aO.s 			page 82


 4365              	.LASF22:
 4366 051b 666C6167 		.ascii	"flagsmask_t\000"
 4366      736D6173 
 4366      6B5F7400 
 4367              	.LASF103:
 4368 0527 64617461 		.ascii	"data16\000"
 4368      313600
 4369              	.LASF87:
 4370 052e 46533152 		.ascii	"FS1R\000"
 4370      00
 4371              	.LASF32:
 4372 0533 705F6E61 		.ascii	"p_name\000"
 4372      6D6500
 4373              	.LASF64:
 4374 053a 65735F6E 		.ascii	"es_next\000"
 4374      65787400 
 4375              	.LASF148:
 4376 0542 433A5C55 		.ascii	"C:\\Users\\D\341niel\\git\\Smarty\\smarty\\firmware"
 4376      73657273 
 4376      5C44E16E 
 4376      69656C5C 
 4376      6769745C 
 4377 056c 00       		.ascii	"\000"
 4378              	.LASF147:
 4379 056d 2E2E2F2E 		.ascii	"../../../ChibiOS/os/hal/src/can.c\000"
 4379      2E2F2E2E 
 4379      2F436869 
 4379      62694F53 
 4379      2F6F732F 
 4380              	.LASF77:
 4381 058f 43414E5F 		.ascii	"CAN_FIFOMailBox_TypeDef\000"
 4381      4649464F 
 4381      4D61696C 
 4381      426F785F 
 4381      54797065 
 4382              	.LASF135:
 4383 05a7 63685365 		.ascii	"chSemResetI\000"
 4383      6D526573 
 4383      65744900 
 4384              	.LASF4:
 4385 05b3 75696E74 		.ascii	"uint8_t\000"
 4385      385F7400 
 4386              	.LASF112:
 4387 05bb 72787365 		.ascii	"rxsem\000"
 4387      6D00
 4388              	.LASF134:
 4389 05c1 63616E5F 		.ascii	"can_lld_stop\000"
 4389      6C6C645F 
 4389      73746F70 
 4389      00
 4390              	.LASF141:
 4391 05ce 63616E5F 		.ascii	"can_lld_transmit\000"
 4391      6C6C645F 
 4391      7472616E 
 4391      736D6974 
 4391      00
 4392              	.LASF58:
ARM GAS  C:\Users\DNIEL~1\AppData\Local\Temp\cczvk6aO.s 			page 83


 4393 05df 4576656E 		.ascii	"EventListener\000"
 4393      744C6973 
 4393      74656E65 
 4393      7200
 4394              	.LASF67:
 4395 05ed 77746F62 		.ascii	"wtobjp\000"
 4395      6A7000
 4396              	.LASF79:
 4397 05f4 52463052 		.ascii	"RF0R\000"
 4397      00
 4398              	.LASF101:
 4399 05f9 63616E6D 		.ascii	"canmbx_t\000"
 4399      62785F74 
 4399      00
 4400              	.LASF142:
 4401 0602 63616E5F 		.ascii	"can_lld_is_rx_nonempty\000"
 4401      6C6C645F 
 4401      69735F72 
 4401      785F6E6F 
 4401      6E656D70 
 4402              	.LASF138:
 4403 0619 63685363 		.ascii	"chSchGoSleepTimeoutS\000"
 4403      68476F53 
 4403      6C656570 
 4403      54696D65 
 4403      6F757453 
 4404              	.LASF143:
 4405 062e 63616E5F 		.ascii	"can_lld_receive\000"
 4405      6C6C645F 
 4405      72656365 
 4405      69766500 
 4406              	.LASF40:
 4407 063e 705F6D73 		.ascii	"p_msg\000"
 4407      6700
 4408              	.LASF75:
 4409 0644 52444C52 		.ascii	"RDLR\000"
 4409      00
 4410              	.LASF56:
 4411 0649 6D5F6F77 		.ascii	"m_owner\000"
 4411      6E657200 
 4412              	.LASF29:
 4413 0651 705F6374 		.ascii	"p_ctx\000"
 4413      7800
 4414              	.LASF38:
 4415 0657 705F7761 		.ascii	"p_waiting\000"
 4415      6974696E 
 4415      6700
 4416              	.LASF132:
 4417 0661 63685365 		.ascii	"chSemInit\000"
 4417      6D496E69 
 4417      7400
 4418              		.ident	"GCC: (GNU Tools for ARM Embedded Processors) 4.7.4 20140401 (release) [ARM/embedded-4_7-br
ARM GAS  C:\Users\DNIEL~1\AppData\Local\Temp\cczvk6aO.s 			page 84


DEFINED SYMBOLS
                            *ABS*:00000000 can.c
C:\Users\DNIEL~1\AppData\Local\Temp\cczvk6aO.s:19     .text.canInit:00000000 $t
C:\Users\DNIEL~1\AppData\Local\Temp\cczvk6aO.s:25     .text.canInit:00000000 canInit
C:\Users\DNIEL~1\AppData\Local\Temp\cczvk6aO.s:41     .text.canObjectInit:00000000 $t
C:\Users\DNIEL~1\AppData\Local\Temp\cczvk6aO.s:47     .text.canObjectInit:00000000 canObjectInit
C:\Users\DNIEL~1\AppData\Local\Temp\cczvk6aO.s:109    .text.canStart:00000000 $t
C:\Users\DNIEL~1\AppData\Local\Temp\cczvk6aO.s:115    .text.canStart:00000000 canStart
C:\Users\DNIEL~1\AppData\Local\Temp\cczvk6aO.s:191    .text.canStop:00000000 $t
C:\Users\DNIEL~1\AppData\Local\Temp\cczvk6aO.s:197    .text.canStop:00000000 canStop
C:\Users\DNIEL~1\AppData\Local\Temp\cczvk6aO.s:258    .text.canTransmit:00000000 $t
C:\Users\DNIEL~1\AppData\Local\Temp\cczvk6aO.s:264    .text.canTransmit:00000000 canTransmit
C:\Users\DNIEL~1\AppData\Local\Temp\cczvk6aO.s:364    .text.canReceive:00000000 $t
C:\Users\DNIEL~1\AppData\Local\Temp\cczvk6aO.s:370    .text.canReceive:00000000 canReceive
C:\Users\DNIEL~1\AppData\Local\Temp\cczvk6aO.s:470    .text.canSleep:00000000 $t
C:\Users\DNIEL~1\AppData\Local\Temp\cczvk6aO.s:476    .text.canSleep:00000000 canSleep
C:\Users\DNIEL~1\AppData\Local\Temp\cczvk6aO.s:542    .text.canWakeup:00000000 $t
C:\Users\DNIEL~1\AppData\Local\Temp\cczvk6aO.s:548    .text.canWakeup:00000000 canWakeup
                     .debug_frame:00000010 $d

UNDEFINED SYMBOLS
can_lld_init
chSemInit
chSchGoSleepTimeoutS
can_lld_start
can_lld_stop
chSemResetI
chSchRescheduleS
can_lld_is_tx_empty
chSemWaitTimeoutS
can_lld_transmit
can_lld_is_rx_nonempty
can_lld_receive
can_lld_sleep
chEvtBroadcastFlagsI
can_lld_wakeup
