ARM GAS  C:\Users\DNIEL~1\AppData\Local\Temp\ccRVTa3G.s 			page 1


   1              		.syntax unified
   2              		.cpu cortex-m4
   3              		.fpu softvfp
   4              		.eabi_attribute 20, 1
   5              		.eabi_attribute 21, 1
   6              		.eabi_attribute 23, 3
   7              		.eabi_attribute 24, 1
   8              		.eabi_attribute 25, 1
   9              		.eabi_attribute 26, 1
  10              		.eabi_attribute 30, 2
  11              		.eabi_attribute 18, 4
  12              		.thumb
  13              		.file	"can_comm.c"
  20 0000 66040000 		.text
  20      0200EB02 
  20      00000201 
  20      FB0E0D00 
  20      01010101 
  21              	.Ltext0:
  22              		.cfi_sections	.debug_frame
  23              		.section	.text.can_tx,"ax",%progbits
  24              		.align	2
  25              		.p2align 4,,15
  26              		.thumb
  27              		.thumb_func
  28              		.type	can_tx, %function
  29              	can_tx:
  30              	.LFB119:
  31              		.file 1 "src/can_comm.c"
  32              		.loc 1 176 0
  33              		.cfi_startproc
  34              		@ args = 0, pretend = 0, frame = 0
  35              		@ frame_needed = 0, uses_anonymous_args = 0
  36              	.LVL0:
  37 0000 38B5     		push	{r3, r4, r5, lr}
  38              	.LCFI0:
  39              		.cfi_def_cfa_offset 16
  40              		.loc 1 179 0
  41 0002 164C     		ldr	r4, .L7
  42              		.cfi_offset 14, -4
  43              		.cfi_offset 5, -8
  44              		.cfi_offset 4, -12
  45              		.cfi_offset 3, -16
  46 0004 1648     		ldr	r0, .L7+4
  47              	.LVL1:
  48 0006 A269     		ldr	r2, [r4, #24]
  49              		.loc 1 180 0
  50 0008 164B     		ldr	r3, .L7+8
  51              		.loc 1 179 0
  52 000a 9061     		str	r0, [r2, #24]
  53              		.loc 1 180 0
ARM GAS  C:\Users\DNIEL~1\AppData\Local\Temp\ccRVTa3G.s 			page 2


  54 000c 93F800C0 		ldrb	ip, [r3, #0]	@ zero_extendqisi2
  55              		.loc 1 181 0
  56 0010 5868     		ldr	r0, [r3, #4]
  57 0012 154D     		ldr	r5, .L7+12
  58              		.loc 1 182 0
  59 0014 4CF02001 		orr	r1, ip, #32
  60              		.loc 1 181 0
  61 0018 65F31C00 		bfi	r0, r5, #0, #29
  62              		.loc 1 183 0
  63 001c 01F0EF0C 		and	ip, r1, #239
  64 0020 0825     		movs	r5, #8
  65 0022 65F3030C 		bfi	ip, r5, #0, #4
  66              		.loc 1 181 0
  67 0026 5860     		str	r0, [r3, #4]
  68              		.loc 1 183 0
  69 0028 83F800C0 		strb	ip, [r3, #0]
  70              		.loc 1 189 0
  71 002c 527F     		ldrb	r2, [r2, #29]	@ zero_extendqisi2
  72              		.loc 1 184 0
  73 002e 0F48     		ldr	r0, .L7+16
  74              		.loc 1 185 0
  75 0030 4FF0FF11 		mov	r1, #16711935
  76              		.loc 1 189 0
  77 0034 12F0040F 		tst	r2, #4
  78              		.loc 1 184 0
  79 0038 9860     		str	r0, [r3, #8]
  80              		.loc 1 185 0
  81 003a D960     		str	r1, [r3, #12]
  82              		.loc 1 189 0
  83 003c 0CD1     		bne	.L2
  84              	.L4:
  85              		.loc 1 190 0
  86 003e 6422     		movs	r2, #100
  87 0040 0849     		ldr	r1, .L7+8
  88 0042 0B48     		ldr	r0, .L7+20
  89 0044 FFF7FEFF 		bl	canTransmit
  90              		.loc 1 191 0
  91 0048 6420     		movs	r0, #100
  92 004a FFF7FEFF 		bl	chThdSleep
  93              		.loc 1 189 0
  94 004e A269     		ldr	r2, [r4, #24]
  95 0050 537F     		ldrb	r3, [r2, #29]	@ zero_extendqisi2
  96 0052 13F0040F 		tst	r3, #4
  97 0056 F2D0     		beq	.L4
  98              	.L2:
  99              		.loc 1 194 0
 100 0058 0020     		movs	r0, #0
 101 005a 38BD     		pop	{r3, r4, r5, pc}
 102              	.L8:
 103              		.align	2
 104              	.L7:
 105 005c 00000000 		.word	rlist
 106 0060 00000000 		.word	.LC0
 107 0064 00000000 		.word	.LANCHOR0
 108 0068 67452301 		.word	19088743
 109 006c AA55AA55 		.word	1437226410
 110 0070 00000000 		.word	CAND1
ARM GAS  C:\Users\DNIEL~1\AppData\Local\Temp\ccRVTa3G.s 			page 3


 111              		.cfi_endproc
 112              	.LFE119:
 113              		.size	can_tx, .-can_tx
 114 0074 AFF30080 		.section	.text.can_rx,"ax",%progbits
 114      AFF30080 
 114      AFF30080 
 115              		.align	2
 116              		.p2align 4,,15
 117              		.thumb
 118              		.thumb_func
 119              		.type	can_rx, %function
 120              	can_rx:
 121              	.LFB118:
 122              		.loc 1 85 0
 123              		.cfi_startproc
 124              		@ args = 0, pretend = 0, frame = 16
 125              		@ frame_needed = 0, uses_anonymous_args = 0
 126              	.LVL2:
 127 0000 2DE9F04F 		push	{r4, r5, r6, r7, r8, r9, sl, fp, lr}
 128              	.LCFI1:
 129              		.cfi_def_cfa_offset 36
 130              		.loc 1 91 0
 131 0004 7E4D     		ldr	r5, .L68
 132              		.cfi_offset 14, -4
 133              		.cfi_offset 11, -8
 134              		.cfi_offset 10, -12
 135              		.cfi_offset 9, -16
 136              		.cfi_offset 8, -20
 137              		.cfi_offset 7, -24
 138              		.cfi_offset 6, -28
 139              		.cfi_offset 5, -32
 140              		.cfi_offset 4, -36
 141 0006 7F48     		ldr	r0, .L68+4
 142              	.LVL3:
 143 0008 AC69     		ldr	r4, [r5, #24]
 144              		.loc 1 87 0
 145 000a 7F4A     		ldr	r2, .L68+8
 146              		.loc 1 85 0
 147 000c 7F4B     		ldr	r3, .L68+12
 148              		.loc 1 91 0
 149 000e A061     		str	r0, [r4, #24]
 150              		.loc 1 85 0
 151 0010 85B0     		sub	sp, sp, #20
 152              	.LCFI2:
 153              		.cfi_def_cfa_offset 56
 154              		.loc 1 87 0
 155 0012 0021     		movs	r1, #0
 156 0014 1160     		str	r1, [r2, #0]
 157              		.loc 1 92 0
 158 0016 7E48     		ldr	r0, .L68+16
 159 0018 6946     		mov	r1, sp
 160 001a 0122     		movs	r2, #1
 161              		.loc 1 85 0
 162 001c 03F50054 		add	r4, r3, #8192
 163              		.loc 1 92 0
 164 0020 FFF7FEFF 		bl	chEvtRegisterMask
 165              		.loc 1 85 0
ARM GAS  C:\Users\DNIEL~1\AppData\Local\Temp\ccRVTa3G.s 			page 4


 166 0024 2546     		mov	r5, r4
 167 0026 0A34     		adds	r4, r4, #10
 168              	.L48:
 169              		.loc 1 93 0 discriminator 1
 170 0028 754F     		ldr	r7, .L68
 171 002a B969     		ldr	r1, [r7, #24]
 172 002c 91F81DC0 		ldrb	ip, [r1, #29]	@ zero_extendqisi2
 173 0030 1CF0040F 		tst	ip, #4
 174 0034 54D1     		bne	.L61
 175              	.L26:
 176              		.loc 1 94 0
 177 0036 4FF0FF30 		mov	r0, #-1
 178 003a 6421     		movs	r1, #100
 179 003c FFF7FEFF 		bl	chEvtWaitAnyTimeout
 180 0040 0028     		cmp	r0, #0
 181 0042 F1D0     		beq	.L48
 182              		.loc 1 96 0
 183 0044 7349     		ldr	r1, .L68+20
 184 0046 7448     		ldr	r0, .L68+24
 185 0048 724E     		ldr	r6, .L68+20
 186 004a 0022     		movs	r2, #0
 187 004c FFF7FEFF 		bl	canReceive
 188 0050 0146     		mov	r1, r0
 189 0052 0028     		cmp	r0, #0
 190 0054 E8D1     		bne	.L48
 191              	.L25:
 192              		.loc 1 98 0
 193 0056 B368     		ldr	r3, [r6, #8]
 194 0058 704F     		ldr	r7, .L68+28
 195 005a C3F31C00 		ubfx	r0, r3, #0, #29
 196 005e C0F30F23 		ubfx	r3, r0, #8, #16
 197 0062 3B80     		strh	r3, [r7, #0]	@ movhi
 198              		.loc 1 99 0
 199 0064 6E4F     		ldr	r7, .L68+32
 200              		.loc 1 101 0
 201 0066 A3F1100C 		sub	ip, r3, #16
 202              		.loc 1 99 0
 203 006a C0B2     		uxtb	r0, r0
 204              		.loc 1 101 0
 205 006c 1FFA8CF2 		uxth	r2, ip
 206              		.loc 1 99 0
 207 0070 3880     		strh	r0, [r7, #0]	@ movhi
 208              		.loc 1 104 0
 209 0072 A3F1200E 		sub	lr, r3, #32
 210 0076 6B4F     		ldr	r7, .L68+36
 211              		.loc 1 101 0
 212 0078 0F2A     		cmp	r2, #15
 213              		.loc 1 104 0
 214 007a 1FFA8EFC 		uxth	ip, lr
 215              		.loc 1 102 0
 216 007e 98BF     		it	ls
 217 0080 3970     		strbls	r1, [r7, #0]
 218              		.loc 1 104 0
 219 0082 BCF10F0F 		cmp	ip, #15
 220 0086 01D8     		bhi	.L14
 221              		.loc 1 105 0
 222 0088 0121     		movs	r1, #1
ARM GAS  C:\Users\DNIEL~1\AppData\Local\Temp\ccRVTa3G.s 			page 5


 223 008a 3970     		strb	r1, [r7, #0]
 224              	.L14:
 225              		.loc 1 107 0
 226 008c A3F13002 		sub	r2, r3, #48
 227 0090 1FFA82FE 		uxth	lr, r2
 228 0094 BEF10F0F 		cmp	lr, #15
 229 0098 01D8     		bhi	.L15
 230              		.loc 1 108 0
 231 009a 0221     		movs	r1, #2
 232 009c 3970     		strb	r1, [r7, #0]
 233              	.L15:
 234              		.loc 1 110 0
 235 009e A3F1400E 		sub	lr, r3, #64
 236 00a2 1FFA8EFC 		uxth	ip, lr
 237 00a6 BCF11F0F 		cmp	ip, #31
 238 00aa 08D8     		bhi	.L60
 239              		.loc 1 111 0
 240 00ac 0322     		movs	r2, #3
 241              		.loc 1 133 0
 242 00ae 0128     		cmp	r0, #1
 243              		.loc 1 111 0
 244 00b0 3A70     		strb	r2, [r7, #0]
 245              		.loc 1 133 0
 246 00b2 1DD0     		beq	.L62
 247              		.loc 1 147 0
 248 00b4 0228     		cmp	r0, #2
 249 00b6 65D0     		beq	.L63
 250              	.L22:
 251              		.loc 1 156 0
 252 00b8 534A     		ldr	r2, .L68+8
 253 00ba 0823     		movs	r3, #8
 254 00bc 1360     		str	r3, [r2, #0]
 255              	.L60:
 256              		.loc 1 157 0
 257 00be 0420     		movs	r0, #4
 258 00c0 3870     		strb	r0, [r7, #0]
 259              		.loc 1 96 0
 260 00c2 5449     		ldr	r1, .L68+20
 261 00c4 5448     		ldr	r0, .L68+24
 262 00c6 0022     		movs	r2, #0
 263 00c8 FFF7FEFF 		bl	canReceive
 264 00cc 0146     		mov	r1, r0
 265 00ce 0028     		cmp	r0, #0
 266 00d0 C1D0     		beq	.L25
 267              		.loc 1 93 0
 268 00d2 4B4F     		ldr	r7, .L68
 269 00d4 B969     		ldr	r1, [r7, #24]
 270 00d6 91F81DC0 		ldrb	ip, [r1, #29]	@ zero_extendqisi2
 271 00da 1CF0040F 		tst	ip, #4
 272 00de AAD0     		beq	.L26
 273              	.L61:
 274              		.loc 1 168 0
 275 00e0 4B48     		ldr	r0, .L68+16
 276 00e2 6946     		mov	r1, sp
 277 00e4 FFF7FEFF 		bl	chEvtUnregister
 278              		.loc 1 170 0
 279 00e8 0020     		movs	r0, #0
ARM GAS  C:\Users\DNIEL~1\AppData\Local\Temp\ccRVTa3G.s 			page 6


 280 00ea 05B0     		add	sp, sp, #20
 281 00ec BDE8F08F 		pop	{r4, r5, r6, r7, r8, r9, sl, fp, pc}
 282              	.L62:
 283              		.loc 1 135 0
 284 00f0 4D49     		ldr	r1, .L68+40
 285              		.loc 1 137 0
 286 00f2 484A     		ldr	r2, .L68+20
 287              		.loc 1 135 0
 288 00f4 51F80A1C 		ldr	r1, [r1, #-10]
 289              		.loc 1 137 0
 290 00f8 92F80CE0 		ldrb	lr, [r2, #12]	@ zero_extendqisi2
 291              		.loc 1 138 0
 292 00fc 92F80DC0 		ldrb	ip, [r2, #13]	@ zero_extendqisi2
 293              		.loc 1 139 0
 294 0100 92F80E80 		ldrb	r8, [r2, #14]	@ zero_extendqisi2
 295              		.loc 1 140 0
 296 0104 92F80F90 		ldrb	r9, [r2, #15]	@ zero_extendqisi2
 297              		.loc 1 141 0
 298 0108 B2F810A0 		ldrh	sl, [r2, #16]
 299              		.loc 1 142 0
 300 010c B2F812B0 		ldrh	fp, [r2, #18]
 301 0110 454A     		ldr	r2, .L68+40
 302              		.loc 1 135 0
 303 0112 9942     		cmp	r1, r3
 304 0114 5AD0     		beq	.L64
 305              	.L31:
 306              		.loc 1 142 0
 307 0116 454A     		ldr	r2, .L68+44
 308 0118 88B1     		cbz	r0, .L21
 309              		.loc 1 135 0
 310 011a 52F80A0C 		ldr	r0, [r2, #-10]
 311 011e 9842     		cmp	r0, r3
 312 0120 61D0     		beq	.L65
 313              	.L33:
 314              	.LVL4:
 315              		.loc 1 142 0
 316 0122 1032     		adds	r2, r2, #16
 317              		.loc 1 134 0
 318 0124 A242     		cmp	r2, r4
 319 0126 0AD1     		bne	.L21
 320 0128 C6E7     		b	.L22
 321              	.L20:
 322              		.loc 1 142 0
 323 012a 02F11001 		add	r1, r2, #16
 324              		.loc 1 135 0
 325 012e 51F80A0C 		ldr	r0, [r1, #-10]
 326 0132 9842     		cmp	r0, r3
 327 0134 19D0     		beq	.L66
 328              	.L36:
 329              		.loc 1 142 0
 330 0136 01F11002 		add	r2, r1, #16
 331              		.loc 1 134 0
 332 013a A242     		cmp	r2, r4
 333 013c BCD0     		beq	.L22
 334              	.L21:
 335              		.loc 1 135 0
 336 013e 52F80A0C 		ldr	r0, [r2, #-10]
ARM GAS  C:\Users\DNIEL~1\AppData\Local\Temp\ccRVTa3G.s 			page 7


 337 0142 9842     		cmp	r0, r3
 338 0144 F1D1     		bne	.L20
 339              		.loc 1 142 0
 340 0146 02F11001 		add	r1, r2, #16
 341              		.loc 1 137 0
 342 014a 02F806EC 		strb	lr, [r2, #-6]
 343              		.loc 1 135 0
 344 014e 51F80A0C 		ldr	r0, [r1, #-10]
 345              		.loc 1 138 0
 346 0152 02F805CC 		strb	ip, [r2, #-5]
 347              		.loc 1 135 0
 348 0156 9842     		cmp	r0, r3
 349              		.loc 1 139 0
 350 0158 02F8048C 		strb	r8, [r2, #-4]
 351              		.loc 1 140 0
 352 015c 02F8039C 		strb	r9, [r2, #-3]
 353              		.loc 1 141 0
 354 0160 A2F800A0 		strh	sl, [r2, #0]	@ movhi
 355              		.loc 1 142 0
 356 0164 A2F802B0 		strh	fp, [r2, #2]	@ movhi
 357              		.loc 1 135 0
 358 0168 E5D1     		bne	.L36
 359              	.L66:
 360              		.loc 1 137 0
 361 016a 01F806EC 		strb	lr, [r1, #-6]
 362              		.loc 1 138 0
 363 016e 01F805CC 		strb	ip, [r1, #-5]
 364              		.loc 1 139 0
 365 0172 01F8048C 		strb	r8, [r1, #-4]
 366              		.loc 1 140 0
 367 0176 01F8039C 		strb	r9, [r1, #-3]
 368              		.loc 1 141 0
 369 017a A2F810A0 		strh	sl, [r2, #16]	@ movhi
 370              		.loc 1 142 0
 371 017e A1F802B0 		strh	fp, [r1, #2]	@ movhi
 372 0182 D8E7     		b	.L36
 373              	.L63:
 374              		.loc 1 149 0
 375 0184 2148     		ldr	r0, .L68+12
 376              		.loc 1 151 0
 377 0186 2349     		ldr	r1, .L68+20
 378              		.loc 1 149 0
 379 0188 0268     		ldr	r2, [r0, #0]
 380              		.loc 1 152 0
 381 018a B1F80EE0 		ldrh	lr, [r1, #14]
 382              		.loc 1 151 0
 383 018e 8889     		ldrh	r0, [r1, #12]
 384              		.loc 1 152 0
 385 0190 1E49     		ldr	r1, .L68+12
 386              		.loc 1 149 0
 387 0192 9342     		cmp	r3, r2
 388 0194 16D0     		beq	.L67
 389              	.L38:
 390 0196 0121     		movs	r1, #1
 391              		.loc 1 152 0
 392 0198 254A     		ldr	r2, .L68+48
 393 019a 29B1     		cbz	r1, .L24
ARM GAS  C:\Users\DNIEL~1\AppData\Local\Temp\ccRVTa3G.s 			page 8


 394              		.loc 1 149 0
 395 019c 1168     		ldr	r1, [r2, #0]
 396 019e 8B42     		cmp	r3, r1
 397 01a0 0CD0     		beq	.L55
 398              	.L43:
 399              		.loc 1 152 0
 400 01a2 1032     		adds	r2, r2, #16
 401              		.loc 1 148 0
 402 01a4 AA42     		cmp	r2, r5
 403 01a6 87D0     		beq	.L22
 404              	.L24:
 405              		.loc 1 149 0
 406 01a8 1168     		ldr	r1, [r2, #0]
 407 01aa 8B42     		cmp	r3, r1
 408 01ac 1169     		ldr	r1, [r2, #16]
 409              		.loc 1 151 0
 410 01ae 04BF     		itt	eq
 411 01b0 1081     		strheq	r0, [r2, #8]	@ movhi
 412              		.loc 1 152 0
 413 01b2 A2F80EE0 		strheq	lr, [r2, #14]	@ movhi
 414 01b6 1032     		adds	r2, r2, #16
 415              		.loc 1 149 0
 416 01b8 8B42     		cmp	r3, r1
 417 01ba F2D1     		bne	.L43
 418              	.L55:
 419              		.loc 1 151 0
 420 01bc 1081     		strh	r0, [r2, #8]	@ movhi
 421              		.loc 1 152 0
 422 01be A2F80EE0 		strh	lr, [r2, #14]	@ movhi
 423 01c2 EEE7     		b	.L43
 424              	.L67:
 425              		.loc 1 151 0
 426 01c4 0881     		strh	r0, [r1, #8]	@ movhi
 427              		.loc 1 152 0
 428 01c6 A1F80EE0 		strh	lr, [r1, #14]	@ movhi
 429 01ca E4E7     		b	.L38
 430              	.L64:
 431              		.loc 1 137 0
 432 01cc 02F806EC 		strb	lr, [r2, #-6]
 433              		.loc 1 138 0
 434 01d0 02F805CC 		strb	ip, [r2, #-5]
 435              		.loc 1 139 0
 436 01d4 02F8048C 		strb	r8, [r2, #-4]
 437              		.loc 1 140 0
 438 01d8 02F8039C 		strb	r9, [r2, #-3]
 439              		.loc 1 141 0
 440 01dc A2F800A0 		strh	sl, [r2, #0]	@ movhi
 441              		.loc 1 142 0
 442 01e0 A2F802B0 		strh	fp, [r2, #2]	@ movhi
 443 01e4 97E7     		b	.L31
 444              	.L65:
 445              		.loc 1 137 0
 446 01e6 02F806EC 		strb	lr, [r2, #-6]
 447              		.loc 1 138 0
 448 01ea 02F805CC 		strb	ip, [r2, #-5]
 449              		.loc 1 139 0
 450 01ee 02F8048C 		strb	r8, [r2, #-4]
ARM GAS  C:\Users\DNIEL~1\AppData\Local\Temp\ccRVTa3G.s 			page 9


 451              		.loc 1 140 0
 452 01f2 02F8039C 		strb	r9, [r2, #-3]
 453              		.loc 1 141 0
 454 01f6 A2F800A0 		strh	sl, [r2, #0]	@ movhi
 455              		.loc 1 142 0
 456 01fa A2F802B0 		strh	fp, [r2, #2]	@ movhi
 457 01fe 90E7     		b	.L33
 458              	.L69:
 459              		.align	2
 460              	.L68:
 461 0200 00000000 		.word	rlist
 462 0204 0C000000 		.word	.LC1
 463 0208 00000000 		.word	.LANCHOR1
 464 020c 00000000 		.word	.LANCHOR6
 465 0210 20000000 		.word	CAND1+32
 466 0214 00000000 		.word	.LANCHOR2
 467 0218 00000000 		.word	CAND1
 468 021c 00000000 		.word	.LANCHOR3
 469 0220 00000000 		.word	.LANCHOR4
 470 0224 00000000 		.word	.LANCHOR5
 471 0228 0A000000 		.word	.LANCHOR6+10
 472 022c 1A000000 		.word	.LANCHOR6+26
 473 0230 10000000 		.word	.LANCHOR6+16
 474              		.cfi_endproc
 475              	.LFE118:
 476              		.size	can_rx, .-can_rx
 477 0234 AFF30080 		.section	.text.can_commInit,"ax",%progbits
 477      AFF30080 
 477      AFF30080 
 478              		.align	2
 479              		.p2align 4,,15
 480              		.global	can_commInit
 481              		.thumb
 482              		.thumb_func
 483              		.type	can_commInit, %function
 484              	can_commInit:
 485              	.LFB120:
 486              		.loc 1 209 0
 487              		.cfi_startproc
 488              		@ args = 0, pretend = 0, frame = 0
 489              		@ frame_needed = 0, uses_anonymous_args = 0
 490 0000 10B5     		push	{r4, lr}
 491              	.LCFI3:
 492              		.cfi_def_cfa_offset 8
 493              		.loc 1 210 0
 494 0002 0C48     		ldr	r0, .L71
 495 0004 0C49     		ldr	r1, .L71+4
 496              		.loc 1 209 0
 497 0006 82B0     		sub	sp, sp, #8
 498              	.LCFI4:
 499              		.cfi_def_cfa_offset 16
 500              		.loc 1 210 0
 501              		.cfi_offset 14, -4
 502              		.cfi_offset 4, -8
 503 0008 FFF7FEFF 		bl	canStart
 504              		.loc 1 211 0
 505 000c 0024     		movs	r4, #0
ARM GAS  C:\Users\DNIEL~1\AppData\Local\Temp\ccRVTa3G.s 			page 10


 506 000e 4722     		movs	r2, #71
 507 0010 4FF4D871 		mov	r1, #432
 508 0014 094B     		ldr	r3, .L71+8
 509 0016 0A48     		ldr	r0, .L71+12
 510 0018 0094     		str	r4, [sp, #0]
 511 001a FFF7FEFF 		bl	chThdCreateStatic
 512              		.loc 1 212 0
 513 001e 094B     		ldr	r3, .L71+16
 514 0020 0948     		ldr	r0, .L71+20
 515 0022 0094     		str	r4, [sp, #0]
 516 0024 4FF4D871 		mov	r1, #432
 517 0028 4722     		movs	r2, #71
 518 002a FFF7FEFF 		bl	chThdCreateStatic
 519              		.loc 1 213 0
 520 002e 02B0     		add	sp, sp, #8
 521 0030 10BD     		pop	{r4, pc}
 522              	.L72:
 523 0032 00BF     		.align	2
 524              	.L71:
 525 0034 00000000 		.word	CAND1
 526 0038 00000000 		.word	.LANCHOR7
 527 003c 00000000 		.word	can_rx
 528 0040 00000000 		.word	.LANCHOR8
 529 0044 00000000 		.word	can_tx
 530 0048 00000000 		.word	.LANCHOR9
 531              		.cfi_endproc
 532              	.LFE120:
 533              		.size	can_commInit, .-can_commInit
 534 004c AFF30080 		.section	.text.cmd_can_commvalues,"ax",%progbits
 535              		.align	2
 536              		.p2align 4,,15
 537              		.global	cmd_can_commvalues
 538              		.thumb
 539              		.thumb_func
 540              		.type	cmd_can_commvalues, %function
 541              	cmd_can_commvalues:
 542              	.LFB121:
 543              		.loc 1 215 0
 544              		.cfi_startproc
 545              		@ args = 0, pretend = 0, frame = 0
 546              		@ frame_needed = 0, uses_anonymous_args = 0
 547              	.LVL5:
 548 0000 38B5     		push	{r3, r4, r5, lr}
 549              	.LCFI5:
 550              		.cfi_def_cfa_offset 16
 551              		.loc 1 219 0
 552 0002 1749     		ldr	r1, .L76
 553              	.LVL6:
 554              		.loc 1 223 0
 555 0004 174D     		ldr	r5, .L76+4
 556              		.cfi_offset 14, -4
 557              		.cfi_offset 5, -8
 558              		.cfi_offset 4, -12
 559              		.cfi_offset 3, -16
 560              		.loc 1 215 0
 561 0006 0446     		mov	r4, r0
 562              		.loc 1 219 0
ARM GAS  C:\Users\DNIEL~1\AppData\Local\Temp\ccRVTa3G.s 			page 11


 563 0008 FFF7FEFF 		bl	chprintf
 564              	.LVL7:
 565              		.loc 1 220 0
 566 000c 2046     		mov	r0, r4
 567 000e 1649     		ldr	r1, .L76+8
 568 0010 FFF7FEFF 		bl	chprintf
 569              		.loc 1 221 0
 570 0014 1AE0     		b	.L74
 571              	.L75:
 572              		.loc 1 222 0
 573 0016 0022     		movs	r2, #0
 574 0018 1346     		mov	r3, r2
 575 001a 2046     		mov	r0, r4
 576 001c 1349     		ldr	r1, .L76+12
 577 001e FFF7FEFF 		bl	chprintf
 578              		.loc 1 223 0
 579 0022 6A68     		ldr	r2, [r5, #4]
 580 0024 1249     		ldr	r1, .L76+16
 581 0026 22F06042 		bic	r2, r2, #-536870912
 582 002a 2046     		mov	r0, r4
 583 002c FFF7FEFF 		bl	chprintf
 584              		.loc 1 224 0
 585 0030 2046     		mov	r0, r4
 586 0032 1049     		ldr	r1, .L76+20
 587 0034 AA68     		ldr	r2, [r5, #8]
 588 0036 FFF7FEFF 		bl	chprintf
 589              		.loc 1 225 0
 590 003a 2046     		mov	r0, r4
 591 003c 0E49     		ldr	r1, .L76+24
 592 003e EA68     		ldr	r2, [r5, #12]
 593 0040 FFF7FEFF 		bl	chprintf
 594              		.loc 1 227 0
 595 0044 4FF47A70 		mov	r0, #1000
 596 0048 FFF7FEFF 		bl	chThdSleep
 597              	.L74:
 598              		.loc 1 221 0 discriminator 1
 599 004c 2168     		ldr	r1, [r4, #0]
 600 004e 2046     		mov	r0, r4
 601 0050 4B69     		ldr	r3, [r1, #20]
 602 0052 0021     		movs	r1, #0
 603 0054 9847     		blx	r3
 604 0056 B0F1FF3F 		cmp	r0, #-1
 605 005a DCD0     		beq	.L75
 606              		.loc 1 229 0
 607 005c 38BD     		pop	{r3, r4, r5, pc}
 608              	.L77:
 609 005e 00BF     		.align	2
 610              	.L76:
 611 0060 18000000 		.word	.LC2
 612 0064 00000000 		.word	.LANCHOR0
 613 0068 1C000000 		.word	.LC3
 614 006c 24000000 		.word	.LC4
 615 0070 30000000 		.word	.LC5
 616 0074 40000000 		.word	.LC6
 617 0078 54000000 		.word	.LC7
 618              		.cfi_endproc
 619              	.LFE121:
ARM GAS  C:\Users\DNIEL~1\AppData\Local\Temp\ccRVTa3G.s 			page 12


 620              		.size	cmd_can_commvalues, .-cmd_can_commvalues
 621 007c AFF30080 		.section	.text.cmd_canmppttest,"ax",%progbits
 622              		.align	2
 623              		.p2align 4,,15
 624              		.global	cmd_canmppttest
 625              		.thumb
 626              		.thumb_func
 627              		.type	cmd_canmppttest, %function
 628              	cmd_canmppttest:
 629              	.LFB122:
 630              		.loc 1 231 0
 631              		.cfi_startproc
 632              		@ args = 0, pretend = 0, frame = 0
 633              		@ frame_needed = 0, uses_anonymous_args = 0
 634              	.LVL8:
 635 0000 F8B5     		push	{r3, r4, r5, r6, r7, lr}
 636              	.LCFI6:
 637              		.cfi_def_cfa_offset 24
 638              		.loc 1 235 0
 639 0002 3A49     		ldr	r1, .L81
 640              	.LVL9:
 641              		.loc 1 241 0
 642 0004 3A4E     		ldr	r6, .L81+4
 643              		.cfi_offset 14, -4
 644              		.cfi_offset 7, -8
 645              		.cfi_offset 6, -12
 646              		.cfi_offset 5, -16
 647              		.cfi_offset 4, -20
 648              		.cfi_offset 3, -24
 649              		.loc 1 249 0
 650 0006 3B4D     		ldr	r5, .L81+8
 651              		.loc 1 257 0
 652 0008 3B4F     		ldr	r7, .L81+12
 653              		.loc 1 231 0
 654 000a 0446     		mov	r4, r0
 655              		.loc 1 235 0
 656 000c FFF7FEFF 		bl	chprintf
 657              	.LVL10:
 658              		.loc 1 236 0
 659 0010 2046     		mov	r0, r4
 660 0012 3A49     		ldr	r1, .L81+16
 661 0014 FFF7FEFF 		bl	chprintf
 662              		.loc 1 237 0
 663 0018 5FE0     		b	.L79
 664              	.L80:
 665              		.loc 1 238 0
 666 001a 0022     		movs	r2, #0
 667 001c 1346     		mov	r3, r2
 668 001e 3849     		ldr	r1, .L81+20
 669 0020 2046     		mov	r0, r4
 670 0022 FFF7FEFF 		bl	chprintf
 671              		.loc 1 240 0
 672 0026 2046     		mov	r0, r4
 673 0028 3649     		ldr	r1, .L81+24
 674 002a FFF7FEFF 		bl	chprintf
 675              		.loc 1 241 0
 676 002e 7368     		ldr	r3, [r6, #4]
ARM GAS  C:\Users\DNIEL~1\AppData\Local\Temp\ccRVTa3G.s 			page 13


 677 0030 3549     		ldr	r1, .L81+28
 678 0032 23F06042 		bic	r2, r3, #-536870912
 679 0036 2046     		mov	r0, r4
 680 0038 FFF7FEFF 		bl	chprintf
 681              		.loc 1 242 0
 682 003c 2046     		mov	r0, r4
 683 003e 3349     		ldr	r1, .L81+32
 684 0040 B268     		ldr	r2, [r6, #8]
 685 0042 FFF7FEFF 		bl	chprintf
 686              		.loc 1 243 0
 687 0046 F268     		ldr	r2, [r6, #12]
 688 0048 3149     		ldr	r1, .L81+36
 689 004a 2046     		mov	r0, r4
 690 004c FFF7FEFF 		bl	chprintf
 691              		.loc 1 244 0
 692 0050 2046     		mov	r0, r4
 693 0052 3049     		ldr	r1, .L81+40
 694 0054 FFF7FEFF 		bl	chprintf
 695              		.loc 1 248 0
 696 0058 2046     		mov	r0, r4
 697 005a 2F49     		ldr	r1, .L81+44
 698 005c FFF7FEFF 		bl	chprintf
 699              		.loc 1 249 0
 700 0060 AA68     		ldr	r2, [r5, #8]
 701 0062 2E49     		ldr	r1, .L81+48
 702 0064 22F06042 		bic	r2, r2, #-536870912
 703 0068 2046     		mov	r0, r4
 704 006a FFF7FEFF 		bl	chprintf
 705              		.loc 1 250 0
 706 006e 2046     		mov	r0, r4
 707 0070 2B49     		ldr	r1, .L81+52
 708 0072 2A7B     		ldrb	r2, [r5, #12]	@ zero_extendqisi2
 709 0074 FFF7FEFF 		bl	chprintf
 710              		.loc 1 251 0
 711 0078 2046     		mov	r0, r4
 712 007a 2A49     		ldr	r1, .L81+56
 713 007c 6A7B     		ldrb	r2, [r5, #13]	@ zero_extendqisi2
 714 007e FFF7FEFF 		bl	chprintf
 715              		.loc 1 252 0
 716 0082 2046     		mov	r0, r4
 717 0084 2849     		ldr	r1, .L81+60
 718 0086 AA7B     		ldrb	r2, [r5, #14]	@ zero_extendqisi2
 719 0088 FFF7FEFF 		bl	chprintf
 720              		.loc 1 253 0
 721 008c 2046     		mov	r0, r4
 722 008e 2749     		ldr	r1, .L81+64
 723 0090 EA7B     		ldrb	r2, [r5, #15]	@ zero_extendqisi2
 724 0092 FFF7FEFF 		bl	chprintf
 725              		.loc 1 254 0
 726 0096 2046     		mov	r0, r4
 727 0098 2549     		ldr	r1, .L81+68
 728 009a 2A8A     		ldrh	r2, [r5, #16]
 729 009c FFF7FEFF 		bl	chprintf
 730              		.loc 1 255 0
 731 00a0 6A8A     		ldrh	r2, [r5, #18]
 732 00a2 2449     		ldr	r1, .L81+72
 733 00a4 2046     		mov	r0, r4
ARM GAS  C:\Users\DNIEL~1\AppData\Local\Temp\ccRVTa3G.s 			page 14


 734 00a6 FFF7FEFF 		bl	chprintf
 735              		.loc 1 256 0
 736 00aa 2046     		mov	r0, r4
 737 00ac 1949     		ldr	r1, .L81+40
 738 00ae FFF7FEFF 		bl	chprintf
 739              		.loc 1 257 0
 740 00b2 2046     		mov	r0, r4
 741 00b4 2049     		ldr	r1, .L81+76
 742 00b6 3A68     		ldr	r2, [r7, #0]
 743 00b8 FFF7FEFF 		bl	chprintf
 744              		.loc 1 258 0
 745 00bc 1F48     		ldr	r0, .L81+80
 746 00be 2049     		ldr	r1, .L81+84
 747 00c0 0288     		ldrh	r2, [r0, #0]
 748 00c2 2046     		mov	r0, r4
 749 00c4 FFF7FEFF 		bl	chprintf
 750              		.loc 1 259 0
 751 00c8 1E4B     		ldr	r3, .L81+88
 752 00ca 1F49     		ldr	r1, .L81+92
 753 00cc 1A88     		ldrh	r2, [r3, #0]
 754 00ce 2046     		mov	r0, r4
 755 00d0 FFF7FEFF 		bl	chprintf
 756              		.loc 1 261 0
 757 00d4 FA20     		movs	r0, #250
 758 00d6 FFF7FEFF 		bl	chThdSleep
 759              	.L79:
 760              		.loc 1 237 0 discriminator 1
 761 00da 2168     		ldr	r1, [r4, #0]
 762 00dc 2046     		mov	r0, r4
 763 00de 4A69     		ldr	r2, [r1, #20]
 764 00e0 0021     		movs	r1, #0
 765 00e2 9047     		blx	r2
 766 00e4 B0F1FF3F 		cmp	r0, #-1
 767 00e8 97D0     		beq	.L80
 768              		.loc 1 263 0
 769 00ea F8BD     		pop	{r3, r4, r5, r6, r7, pc}
 770              	.L82:
 771              		.align	2
 772              	.L81:
 773 00ec 18000000 		.word	.LC2
 774 00f0 00000000 		.word	.LANCHOR0
 775 00f4 00000000 		.word	.LANCHOR2
 776 00f8 00000000 		.word	.LANCHOR1
 777 00fc 1C000000 		.word	.LC3
 778 0100 24000000 		.word	.LC4
 779 0104 68000000 		.word	.LC8
 780 0108 90000000 		.word	.LC9
 781 010c B0000000 		.word	.LC10
 782 0110 D0000000 		.word	.LC11
 783 0114 F0000000 		.word	.LC12
 784 0118 F4000000 		.word	.LC13
 785 011c 1C010000 		.word	.LC14
 786 0120 3C010000 		.word	.LC15
 787 0124 5C010000 		.word	.LC16
 788 0128 7C010000 		.word	.LC17
 789 012c 9C010000 		.word	.LC18
 790 0130 BC010000 		.word	.LC19
ARM GAS  C:\Users\DNIEL~1\AppData\Local\Temp\ccRVTa3G.s 			page 15


 791 0134 DC010000 		.word	.LC20
 792 0138 FC010000 		.word	.LC21
 793 013c 00000000 		.word	.LANCHOR3
 794 0140 1C020000 		.word	.LC22
 795 0144 00000000 		.word	.LANCHOR4
 796 0148 3C020000 		.word	.LC23
 797              		.cfi_endproc
 798              	.LFE122:
 799              		.size	cmd_canmppttest, .-cmd_canmppttest
 800 014c AFF30080 		.section	.text.cmd_candata,"ax",%progbits
 801              		.align	2
 802              		.p2align 4,,15
 803              		.global	cmd_candata
 804              		.thumb
 805              		.thumb_func
 806              		.type	cmd_candata, %function
 807              	cmd_candata:
 808              	.LFB123:
 809              		.loc 1 265 0
 810              		.cfi_startproc
 811              		@ args = 0, pretend = 0, frame = 0
 812              		@ frame_needed = 0, uses_anonymous_args = 0
 813              	.LVL11:
 814 0000 2DE9F047 		push	{r4, r5, r6, r7, r8, r9, sl, lr}
 815              	.LCFI7:
 816              		.cfi_def_cfa_offset 32
 817              		.loc 1 265 0
 818 0004 0446     		mov	r4, r0
 819              		.cfi_offset 14, -4
 820              		.cfi_offset 10, -8
 821              		.cfi_offset 9, -12
 822              		.cfi_offset 8, -16
 823              		.cfi_offset 7, -20
 824              		.cfi_offset 6, -24
 825              		.cfi_offset 5, -28
 826              		.cfi_offset 4, -32
 827 0006 8A46     		mov	sl, r1
 828              		.loc 1 272 0
 829 0008 3749     		ldr	r1, .L87
 830              	.LVL12:
 831              	.LBB2:
 832              		.loc 1 282 0
 833 000a DFF81891 		ldr	r9, .L87+60
 834              	.LBE2:
 835              		.loc 1 265 0
 836 000e 9046     		mov	r8, r2
 837              		.loc 1 272 0
 838 0010 FFF7FEFF 		bl	chprintf
 839              	.LVL13:
 840              		.loc 1 273 0
 841 0014 2046     		mov	r0, r4
 842 0016 3549     		ldr	r1, .L87+4
 843 0018 FFF7FEFF 		bl	chprintf
 844              		.loc 1 274 0
 845 001c 54E0     		b	.L84
 846              	.L86:
 847              	.LBB3:
ARM GAS  C:\Users\DNIEL~1\AppData\Local\Temp\ccRVTa3G.s 			page 16


 848              		.loc 1 275 0
 849 001e 0022     		movs	r2, #0
 850 0020 2046     		mov	r0, r4
 851 0022 3349     		ldr	r1, .L87+8
 852 0024 1346     		mov	r3, r2
 853 0026 FFF7FEFF 		bl	chprintf
 854              		.loc 1 277 0
 855 002a BAF1020F 		cmp	sl, #2
 856 002e 55D1     		bne	.L85
 857              		.loc 1 277 0 is_stmt 0 discriminator 1
 858 0030 D8F80000 		ldr	r0, [r8, #0]
 859 0034 2F49     		ldr	r1, .L87+12
 860 0036 FFF7FEFF 		bl	strcmp
 861 003a 0028     		cmp	r0, #0
 862 003c 4ED1     		bne	.L85
 863              		.loc 1 279 0 is_stmt 1
 864 003e D8F80400 		ldr	r0, [r8, #4]
 865 0042 FFF7FEFF 		bl	atol
 866              	.LVL14:
 867              		.loc 1 281 0
 868 0046 05B2     		sxth	r5, r0
 869 0048 2A46     		mov	r2, r5
 870 004a 2046     		mov	r0, r4
 871              	.LVL15:
 872 004c 2A49     		ldr	r1, .L87+16
 873 004e 2023     		movs	r3, #32
 874 0050 FFF7FEFF 		bl	chprintf
 875              		.loc 1 282 0
 876 0054 2B01     		lsls	r3, r5, #4
 877 0056 09EB0306 		add	r6, r9, r3
 878 005a 2A46     		mov	r2, r5
 879 005c 59F80330 		ldr	r3, [r9, r3]
 880 0060 2649     		ldr	r1, .L87+20
 881 0062 2046     		mov	r0, r4
 882 0064 FFF7FEFF 		bl	chprintf
 883              		.loc 1 283 0
 884 0068 2046     		mov	r0, r4
 885 006a 2A46     		mov	r2, r5
 886 006c 3379     		ldrb	r3, [r6, #4]	@ zero_extendqisi2
 887 006e 2449     		ldr	r1, .L87+24
 888 0070 FFF7FEFF 		bl	chprintf
 889              		.loc 1 284 0
 890 0074 2046     		mov	r0, r4
 891 0076 2A46     		mov	r2, r5
 892 0078 7379     		ldrb	r3, [r6, #5]	@ zero_extendqisi2
 893 007a 2249     		ldr	r1, .L87+28
 894 007c FFF7FEFF 		bl	chprintf
 895              		.loc 1 285 0
 896 0080 2046     		mov	r0, r4
 897 0082 2A46     		mov	r2, r5
 898 0084 B379     		ldrb	r3, [r6, #6]	@ zero_extendqisi2
 899 0086 2049     		ldr	r1, .L87+32
 900 0088 FFF7FEFF 		bl	chprintf
 901              		.loc 1 286 0
 902 008c 2046     		mov	r0, r4
 903 008e 2A46     		mov	r2, r5
 904 0090 F379     		ldrb	r3, [r6, #7]	@ zero_extendqisi2
ARM GAS  C:\Users\DNIEL~1\AppData\Local\Temp\ccRVTa3G.s 			page 17


 905 0092 1E49     		ldr	r1, .L87+36
 906 0094 FFF7FEFF 		bl	chprintf
 907              		.loc 1 287 0
 908 0098 2A46     		mov	r2, r5
 909 009a 3389     		ldrh	r3, [r6, #8]
 910 009c 1C49     		ldr	r1, .L87+40
 911 009e 2046     		mov	r0, r4
 912 00a0 FFF7FEFF 		bl	chprintf
 913              		.loc 1 288 0
 914 00a4 2046     		mov	r0, r4
 915 00a6 2A46     		mov	r2, r5
 916 00a8 7389     		ldrh	r3, [r6, #10]
 917 00aa 1A49     		ldr	r1, .L87+44
 918 00ac FFF7FEFF 		bl	chprintf
 919              		.loc 1 289 0
 920 00b0 2046     		mov	r0, r4
 921 00b2 2A46     		mov	r2, r5
 922 00b4 B389     		ldrh	r3, [r6, #12]
 923 00b6 1849     		ldr	r1, .L87+48
 924 00b8 FFF7FEFF 		bl	chprintf
 925              		.loc 1 290 0
 926 00bc 2046     		mov	r0, r4
 927 00be 1749     		ldr	r1, .L87+52
 928 00c0 F389     		ldrh	r3, [r6, #14]
 929 00c2 2A46     		mov	r2, r5
 930 00c4 FFF7FEFF 		bl	chprintf
 931              	.LVL16:
 932              	.L84:
 933              	.LBE3:
 934              		.loc 1 274 0 discriminator 1
 935 00c8 2168     		ldr	r1, [r4, #0]
 936 00ca 2046     		mov	r0, r4
 937 00cc 4A69     		ldr	r2, [r1, #20]
 938 00ce 0021     		movs	r1, #0
 939 00d0 9047     		blx	r2
 940 00d2 B0F1FF3F 		cmp	r0, #-1
 941 00d6 A2D0     		beq	.L86
 942              		.loc 1 298 0
 943 00d8 BDE8F087 		pop	{r4, r5, r6, r7, r8, r9, sl, pc}
 944              	.L85:
 945              	.LBB4:
 946              		.loc 1 294 0
 947 00dc 1049     		ldr	r1, .L87+56
 948 00de 2046     		mov	r0, r4
 949              	.LBE4:
 950              		.loc 1 298 0
 951 00e0 BDE8F047 		pop	{r4, r5, r6, r7, r8, r9, sl, lr}
 952              	.LBB5:
 953              		.loc 1 294 0
 954 00e4 FFF7FEBF 		b	chprintf
 955              	.L88:
 956              		.align	2
 957              	.L87:
 958 00e8 18000000 		.word	.LC2
 959 00ec 1C000000 		.word	.LC3
 960 00f0 24000000 		.word	.LC4
 961 00f4 5C020000 		.word	.LC24
ARM GAS  C:\Users\DNIEL~1\AppData\Local\Temp\ccRVTa3G.s 			page 18


 962 00f8 60020000 		.word	.LC25
 963 00fc 94020000 		.word	.LC26
 964 0100 C0020000 		.word	.LC27
 965 0104 EC020000 		.word	.LC28
 966 0108 18030000 		.word	.LC29
 967 010c 44030000 		.word	.LC30
 968 0110 70030000 		.word	.LC31
 969 0114 9C030000 		.word	.LC32
 970 0118 C8030000 		.word	.LC33
 971 011c F4030000 		.word	.LC34
 972 0120 20040000 		.word	.LC35
 973 0124 00000000 		.word	.LANCHOR6
 974              	.LBE5:
 975              		.cfi_endproc
 976              	.LFE123:
 977              		.size	cmd_candata, .-cmd_candata
 978              		.global	canstate
 979 0128 AFF30080 		.section	.bss.can_tx_wa,"aw",%nobits
 979      AFF30080 
 980              		.align	3
 981              		.set	.LANCHOR9,. + 0
 982              		.type	can_tx_wa, %object
 983              		.size	can_tx_wa, 432
 984              	can_tx_wa:
 985 0000 00000000 		.space	432
 985      00000000 
 985      00000000 
 985      00000000 
 985      00000000 
 986              		.section	.bss.id,"aw",%nobits
 987              		.align	1
 988              		.set	.LANCHOR3,. + 0
 989              		.type	id, %object
 990              		.size	id, 2
 991              	id:
 992 0000 0000     		.space	2
 993              		.section	.bss.txmsg,"aw",%nobits
 994              		.align	2
 995              		.set	.LANCHOR0,. + 0
 996              		.type	txmsg, %object
 997              		.size	txmsg, 16
 998              	txmsg:
 999 0000 00000000 		.space	16
 999      00000000 
 999      00000000 
 999      00000000 
 1000              		.section	.bss.seged,"aw",%nobits
 1001              		.align	2
 1002              		.set	.LANCHOR1,. + 0
 1003              		.type	seged, %object
 1004              		.size	seged, 4
 1005              	seged:
 1006 0000 00000000 		.space	4
 1007              		.section	.bss.can_rx_wa,"aw",%nobits
 1008              		.align	3
 1009              		.set	.LANCHOR8,. + 0
 1010              		.type	can_rx_wa, %object
ARM GAS  C:\Users\DNIEL~1\AppData\Local\Temp\ccRVTa3G.s 			page 19


 1011              		.size	can_rx_wa, 432
 1012              	can_rx_wa:
 1013 0000 00000000 		.space	432
 1013      00000000 
 1013      00000000 
 1013      00000000 
 1013      00000000 
 1014              		.section	.data.lcitems,"aw",%progbits
 1015              		.align	2
 1016              		.set	.LANCHOR6,. + 0
 1017              		.type	lcitems, %object
 1018              		.size	lcitems, 512
 1019              	lcitems:
 1020 0000 40000000 		.word	64
 1021 0004 00       		.byte	0
 1022 0005 00       		.byte	0
 1023 0006 00       		.byte	0
 1024 0007 00       		.byte	0
 1025 0008 0000     		.short	0
 1026 000a 0000     		.short	0
 1027 000c 0000     		.short	0
 1028 000e 0000     		.short	0
 1029 0010 41000000 		.word	65
 1030 0014 00       		.byte	0
 1031 0015 00       		.byte	0
 1032 0016 00       		.byte	0
 1033 0017 00       		.byte	0
 1034 0018 0000     		.short	0
 1035 001a 0000     		.short	0
 1036 001c 0000     		.short	0
 1037 001e 0000     		.short	0
 1038 0020 42000000 		.word	66
 1039 0024 00       		.byte	0
 1040 0025 00       		.byte	0
 1041 0026 00       		.byte	0
 1042 0027 00       		.byte	0
 1043 0028 0000     		.short	0
 1044 002a 0000     		.short	0
 1045 002c 0000     		.short	0
 1046 002e 0000     		.short	0
 1047 0030 43000000 		.word	67
 1048 0034 00       		.byte	0
 1049 0035 00       		.byte	0
 1050 0036 00       		.byte	0
 1051 0037 00       		.byte	0
 1052 0038 0000     		.short	0
 1053 003a 0000     		.short	0
 1054 003c 0000     		.short	0
 1055 003e 0000     		.short	0
 1056 0040 44000000 		.word	68
 1057 0044 00       		.byte	0
 1058 0045 00       		.byte	0
 1059 0046 00       		.byte	0
 1060 0047 00       		.byte	0
 1061 0048 0000     		.short	0
 1062 004a 0000     		.short	0
 1063 004c 0000     		.short	0
ARM GAS  C:\Users\DNIEL~1\AppData\Local\Temp\ccRVTa3G.s 			page 20


 1064 004e 0000     		.short	0
 1065 0050 45000000 		.word	69
 1066 0054 00       		.byte	0
 1067 0055 00       		.byte	0
 1068 0056 00       		.byte	0
 1069 0057 00       		.byte	0
 1070 0058 0000     		.short	0
 1071 005a 0000     		.short	0
 1072 005c 0000     		.short	0
 1073 005e 0000     		.short	0
 1074 0060 46000000 		.word	70
 1075 0064 00       		.byte	0
 1076 0065 00       		.byte	0
 1077 0066 00       		.byte	0
 1078 0067 00       		.byte	0
 1079 0068 0000     		.short	0
 1080 006a 0000     		.short	0
 1081 006c 0000     		.short	0
 1082 006e 0000     		.short	0
 1083 0070 47000000 		.word	71
 1084 0074 00       		.byte	0
 1085 0075 00       		.byte	0
 1086 0076 00       		.byte	0
 1087 0077 00       		.byte	0
 1088 0078 0000     		.short	0
 1089 007a 0000     		.short	0
 1090 007c 0000     		.short	0
 1091 007e 0000     		.short	0
 1092 0080 48000000 		.word	72
 1093 0084 00       		.byte	0
 1094 0085 00       		.byte	0
 1095 0086 00       		.byte	0
 1096 0087 00       		.byte	0
 1097 0088 0000     		.short	0
 1098 008a 0000     		.short	0
 1099 008c 0000     		.short	0
 1100 008e 0000     		.short	0
 1101 0090 49000000 		.word	73
 1102 0094 00       		.byte	0
 1103 0095 00       		.byte	0
 1104 0096 00       		.byte	0
 1105 0097 00       		.byte	0
 1106 0098 0000     		.short	0
 1107 009a 0000     		.short	0
 1108 009c 0000     		.short	0
 1109 009e 0000     		.short	0
 1110 00a0 4A000000 		.word	74
 1111 00a4 00       		.byte	0
 1112 00a5 00       		.byte	0
 1113 00a6 00       		.byte	0
 1114 00a7 00       		.byte	0
 1115 00a8 0000     		.short	0
 1116 00aa 0000     		.short	0
 1117 00ac 0000     		.short	0
 1118 00ae 0000     		.short	0
 1119 00b0 4B000000 		.word	75
 1120 00b4 00       		.byte	0
ARM GAS  C:\Users\DNIEL~1\AppData\Local\Temp\ccRVTa3G.s 			page 21


 1121 00b5 00       		.byte	0
 1122 00b6 00       		.byte	0
 1123 00b7 00       		.byte	0
 1124 00b8 0000     		.short	0
 1125 00ba 0000     		.short	0
 1126 00bc 0000     		.short	0
 1127 00be 0000     		.short	0
 1128 00c0 4C000000 		.word	76
 1129 00c4 00       		.byte	0
 1130 00c5 00       		.byte	0
 1131 00c6 00       		.byte	0
 1132 00c7 00       		.byte	0
 1133 00c8 0000     		.short	0
 1134 00ca 0000     		.short	0
 1135 00cc 0000     		.short	0
 1136 00ce 0000     		.short	0
 1137 00d0 4D000000 		.word	77
 1138 00d4 00       		.byte	0
 1139 00d5 00       		.byte	0
 1140 00d6 00       		.byte	0
 1141 00d7 00       		.byte	0
 1142 00d8 0000     		.short	0
 1143 00da 0000     		.short	0
 1144 00dc 0000     		.short	0
 1145 00de 0000     		.short	0
 1146 00e0 4E000000 		.word	78
 1147 00e4 00       		.byte	0
 1148 00e5 00       		.byte	0
 1149 00e6 00       		.byte	0
 1150 00e7 00       		.byte	0
 1151 00e8 0000     		.short	0
 1152 00ea 0000     		.short	0
 1153 00ec 0000     		.short	0
 1154 00ee 0000     		.short	0
 1155 00f0 4F000000 		.word	79
 1156 00f4 00       		.byte	0
 1157 00f5 00       		.byte	0
 1158 00f6 00       		.byte	0
 1159 00f7 00       		.byte	0
 1160 00f8 0000     		.short	0
 1161 00fa 0000     		.short	0
 1162 00fc 0000     		.short	0
 1163 00fe 0000     		.short	0
 1164 0100 50000000 		.word	80
 1165 0104 00       		.byte	0
 1166 0105 00       		.byte	0
 1167 0106 00       		.byte	0
 1168 0107 00       		.byte	0
 1169 0108 0000     		.short	0
 1170 010a 0000     		.short	0
 1171 010c 0000     		.short	0
 1172 010e 0000     		.short	0
 1173 0110 51000000 		.word	81
 1174 0114 00       		.byte	0
 1175 0115 00       		.byte	0
 1176 0116 00       		.byte	0
 1177 0117 00       		.byte	0
ARM GAS  C:\Users\DNIEL~1\AppData\Local\Temp\ccRVTa3G.s 			page 22


 1178 0118 0000     		.short	0
 1179 011a 0000     		.short	0
 1180 011c 0000     		.short	0
 1181 011e 0000     		.short	0
 1182 0120 52000000 		.word	82
 1183 0124 00       		.byte	0
 1184 0125 00       		.byte	0
 1185 0126 00       		.byte	0
 1186 0127 00       		.byte	0
 1187 0128 0000     		.short	0
 1188 012a 0000     		.short	0
 1189 012c 0000     		.short	0
 1190 012e 0000     		.short	0
 1191 0130 53000000 		.word	83
 1192 0134 00       		.byte	0
 1193 0135 00       		.byte	0
 1194 0136 00       		.byte	0
 1195 0137 00       		.byte	0
 1196 0138 0000     		.short	0
 1197 013a 0000     		.short	0
 1198 013c 0000     		.short	0
 1199 013e 0000     		.short	0
 1200 0140 54000000 		.word	84
 1201 0144 00       		.byte	0
 1202 0145 00       		.byte	0
 1203 0146 00       		.byte	0
 1204 0147 00       		.byte	0
 1205 0148 0000     		.short	0
 1206 014a 0000     		.short	0
 1207 014c 0000     		.short	0
 1208 014e 0000     		.short	0
 1209 0150 55000000 		.word	85
 1210 0154 00       		.byte	0
 1211 0155 00       		.byte	0
 1212 0156 00       		.byte	0
 1213 0157 00       		.byte	0
 1214 0158 0000     		.short	0
 1215 015a 0000     		.short	0
 1216 015c 0000     		.short	0
 1217 015e 0000     		.short	0
 1218 0160 56000000 		.word	86
 1219 0164 00       		.byte	0
 1220 0165 00       		.byte	0
 1221 0166 00       		.byte	0
 1222 0167 00       		.byte	0
 1223 0168 0000     		.short	0
 1224 016a 0000     		.short	0
 1225 016c 0000     		.short	0
 1226 016e 0000     		.short	0
 1227 0170 57000000 		.word	87
 1228 0174 00       		.byte	0
 1229 0175 00       		.byte	0
 1230 0176 00       		.byte	0
 1231 0177 00       		.byte	0
 1232 0178 0000     		.short	0
 1233 017a 0000     		.short	0
 1234 017c 0000     		.short	0
ARM GAS  C:\Users\DNIEL~1\AppData\Local\Temp\ccRVTa3G.s 			page 23


 1235 017e 0000     		.short	0
 1236 0180 58000000 		.word	88
 1237 0184 00       		.byte	0
 1238 0185 00       		.byte	0
 1239 0186 00       		.byte	0
 1240 0187 00       		.byte	0
 1241 0188 0000     		.short	0
 1242 018a 0000     		.short	0
 1243 018c 0000     		.short	0
 1244 018e 0000     		.short	0
 1245 0190 59000000 		.word	89
 1246 0194 00       		.byte	0
 1247 0195 00       		.byte	0
 1248 0196 00       		.byte	0
 1249 0197 00       		.byte	0
 1250 0198 0000     		.short	0
 1251 019a 0000     		.short	0
 1252 019c 0000     		.short	0
 1253 019e 0000     		.short	0
 1254 01a0 5A000000 		.word	90
 1255 01a4 00       		.byte	0
 1256 01a5 00       		.byte	0
 1257 01a6 00       		.byte	0
 1258 01a7 00       		.byte	0
 1259 01a8 0000     		.short	0
 1260 01aa 0000     		.short	0
 1261 01ac 0000     		.short	0
 1262 01ae 0000     		.short	0
 1263 01b0 5B000000 		.word	91
 1264 01b4 00       		.byte	0
 1265 01b5 00       		.byte	0
 1266 01b6 00       		.byte	0
 1267 01b7 00       		.byte	0
 1268 01b8 0000     		.short	0
 1269 01ba 0000     		.short	0
 1270 01bc 0000     		.short	0
 1271 01be 0000     		.short	0
 1272 01c0 5C000000 		.word	92
 1273 01c4 00       		.byte	0
 1274 01c5 00       		.byte	0
 1275 01c6 00       		.byte	0
 1276 01c7 00       		.byte	0
 1277 01c8 0000     		.short	0
 1278 01ca 0000     		.short	0
 1279 01cc 0000     		.short	0
 1280 01ce 0000     		.short	0
 1281 01d0 5D000000 		.word	93
 1282 01d4 00       		.byte	0
 1283 01d5 00       		.byte	0
 1284 01d6 00       		.byte	0
 1285 01d7 00       		.byte	0
 1286 01d8 0000     		.short	0
 1287 01da 0000     		.short	0
 1288 01dc 0000     		.short	0
 1289 01de 0000     		.short	0
 1290 01e0 5E000000 		.word	94
 1291 01e4 00       		.byte	0
ARM GAS  C:\Users\DNIEL~1\AppData\Local\Temp\ccRVTa3G.s 			page 24


 1292 01e5 00       		.byte	0
 1293 01e6 00       		.byte	0
 1294 01e7 00       		.byte	0
 1295 01e8 0000     		.short	0
 1296 01ea 0000     		.short	0
 1297 01ec 0000     		.short	0
 1298 01ee 0000     		.short	0
 1299 01f0 5F000000 		.word	95
 1300 01f4 00       		.byte	0
 1301 01f5 00       		.byte	0
 1302 01f6 00       		.byte	0
 1303 01f7 00       		.byte	0
 1304 01f8 0000     		.short	0
 1305 01fa 0000     		.short	0
 1306 01fc 0000     		.short	0
 1307 01fe 0000     		.short	0
 1308              		.section	.rodata.str1.4,"aMS",%progbits,1
 1309              		.align	2
 1310              	.LC0:
 1311 0000 7472616E 		.ascii	"transmitter\000"
 1311      736D6974 
 1311      74657200 
 1312              	.LC1:
 1313 000c 72656365 		.ascii	"receiver\000"
 1313      69766572 
 1313      00
 1314 0015 000000   		.space	3
 1315              	.LC2:
 1316 0018 1B6300   		.ascii	"\033c\000"
 1317 001b 00       		.space	1
 1318              	.LC3:
 1319 001c 1B5B324A 		.ascii	"\033[2J\000"
 1319      00
 1320 0021 000000   		.space	3
 1321              	.LC4:
 1322 0024 1B5B2564 		.ascii	"\033[%d;%dH\000"
 1322      3B256448 
 1322      00
 1323 002d 000000   		.space	3
 1324              	.LC5:
 1325 0030 52582E45 		.ascii	"RX.EID : %x \015\012\000"
 1325      4944203A 
 1325      20257820 
 1325      0D0A00
 1326 003f 00       		.space	1
 1327              	.LC6:
 1328 0040 52582E44 		.ascii	"RX.DATA1 : %x \015\012\000"
 1328      41544131 
 1328      203A2025 
 1328      78200D0A 
 1328      00
 1329 0051 000000   		.space	3
 1330              	.LC7:
 1331 0054 52582E44 		.ascii	"RX.DATA2 : %x \015\012\000"
 1331      41544132 
 1331      203A2025 
 1331      78200D0A 
ARM GAS  C:\Users\DNIEL~1\AppData\Local\Temp\ccRVTa3G.s 			page 25


 1331      00
 1332 0065 000000   		.space	3
 1333              	.LC8:
 1334 0068 2D2D2D2D 		.ascii	"----------- CAN Transmit ------------\015\012\000"
 1334      2D2D2D2D 
 1334      2D2D2D20 
 1334      43414E20 
 1334      5472616E 
 1335              	.LC9:
 1336 0090 54582E45 		.ascii	"TX.EID              : %15x \015\012\000"
 1336      49442020 
 1336      20202020 
 1336      20202020 
 1336      20202020 
 1337 00ae 0000     		.space	2
 1338              	.LC10:
 1339 00b0 54582E44 		.ascii	"TX.DATA32_1         : %15x \015\012\000"
 1339      41544133 
 1339      325F3120 
 1339      20202020 
 1339      20202020 
 1340 00ce 0000     		.space	2
 1341              	.LC11:
 1342 00d0 54582E44 		.ascii	"TX.DATA32_2         : %15x \015\012\000"
 1342      41544133 
 1342      325F3220 
 1342      20202020 
 1342      20202020 
 1343 00ee 0000     		.space	2
 1344              	.LC12:
 1345 00f0 0D0A00   		.ascii	"\015\012\000"
 1346 00f3 00       		.space	1
 1347              	.LC13:
 1348 00f4 2D2D2D2D 		.ascii	"----------- CAN Receive -------------\015\012\000"
 1348      2D2D2D2D 
 1348      2D2D2D20 
 1348      43414E20 
 1348      52656365 
 1349              	.LC14:
 1350 011c 52582E45 		.ascii	"RX.EID              : %15x \015\012\000"
 1350      49442020 
 1350      20202020 
 1350      20202020 
 1350      20202020 
 1351 013a 0000     		.space	2
 1352              	.LC15:
 1353 013c 52582E44 		.ascii	"RX.DATA8_1 (NTC)    : %15d \015\012\000"
 1353      41544138 
 1353      5F312028 
 1353      4E544329 
 1353      20202020 
 1354 015a 0000     		.space	2
 1355              	.LC16:
 1356 015c 52582E44 		.ascii	"RX.DATA8_2 (IN_CUR) : %15d \015\012\000"
 1356      41544138 
 1356      5F322028 
 1356      494E5F43 
ARM GAS  C:\Users\DNIEL~1\AppData\Local\Temp\ccRVTa3G.s 			page 26


 1356      55522920 
 1357 017a 0000     		.space	2
 1358              	.LC17:
 1359 017c 52582E44 		.ascii	"RX.DATA8_3 (OUT_CUR): %15d \015\012\000"
 1359      41544138 
 1359      5F332028 
 1359      4F55545F 
 1359      43555229 
 1360 019a 0000     		.space	2
 1361              	.LC18:
 1362 019c 52582E44 		.ascii	"RX.DATA8_4 (EFF)    : %15d \015\012\000"
 1362      41544138 
 1362      5F342028 
 1362      45464629 
 1362      20202020 
 1363 01ba 0000     		.space	2
 1364              	.LC19:
 1365 01bc 52582E44 		.ascii	"RX.DATA8_5 (VIN)    : %15d \015\012\000"
 1365      41544138 
 1365      5F352028 
 1365      56494E29 
 1365      20202020 
 1366 01da 0000     		.space	2
 1367              	.LC20:
 1368 01dc 52582E44 		.ascii	"RX.DATA8_5 (VOUT)   : %15d \015\012\000"
 1368      41544138 
 1368      5F352028 
 1368      564F5554 
 1368      29202020 
 1369 01fa 0000     		.space	2
 1370              	.LC21:
 1371 01fc 73656765 		.ascii	"seged               : %15d \015\012\000"
 1371      64202020 
 1371      20202020 
 1371      20202020 
 1371      20202020 
 1372 021a 0000     		.space	2
 1373              	.LC22:
 1374 021c 69642020 		.ascii	"id                  : %15x \015\012\000"
 1374      20202020 
 1374      20202020 
 1374      20202020 
 1374      20202020 
 1375 023a 0000     		.space	2
 1376              	.LC23:
 1377 023c 6D657373 		.ascii	"messages            : %15x \015\012\000"
 1377      61676573 
 1377      20202020 
 1377      20202020 
 1377      20202020 
 1378 025a 0000     		.space	2
 1379              	.LC24:
 1380 025c 6C6300   		.ascii	"lc\000"
 1381 025f 00       		.space	1
 1382              	.LC25:
 1383 0260 2D2D2D2D 		.ascii	"-------------- luxCControl %d/%d --------------\015"
 1383      2D2D2D2D 
ARM GAS  C:\Users\DNIEL~1\AppData\Local\Temp\ccRVTa3G.s 			page 27


 1383      2D2D2D2D 
 1383      2D2D206C 
 1383      75784343 
 1384 0290 0A00     		.ascii	"\012\000"
 1385 0292 0000     		.space	2
 1386              	.LC26:
 1387 0294 6C636974 		.ascii	"lcitems[%d].id         (ID)     : %15x \015\012\000"
 1387      656D735B 
 1387      25645D2E 
 1387      69642020 
 1387      20202020 
 1388 02be 0000     		.space	2
 1389              	.LC27:
 1390 02c0 6C636974 		.ascii	"lcitems[%d].temp       (NTC)    : %15d \015\012\000"
 1390      656D735B 
 1390      25645D2E 
 1390      74656D70 
 1390      20202020 
 1391 02ea 0000     		.space	2
 1392              	.LC28:
 1393 02ec 6C636974 		.ascii	"lcitems[%d].curr_in    (IN_CUR) : %15d \015\012\000"
 1393      656D735B 
 1393      25645D2E 
 1393      63757272 
 1393      5F696E20 
 1394 0316 0000     		.space	2
 1395              	.LC29:
 1396 0318 6C636974 		.ascii	"lcitems[%d].curr_out   (OUT_CUR): %15d \015\012\000"
 1396      656D735B 
 1396      25645D2E 
 1396      63757272 
 1396      5F6F7574 
 1397 0342 0000     		.space	2
 1398              	.LC30:
 1399 0344 6C636974 		.ascii	"lcitems[%d].efficiency (EFF)    : %15d \015\012\000"
 1399      656D735B 
 1399      25645D2E 
 1399      65666669 
 1399      6369656E 
 1400 036e 0000     		.space	2
 1401              	.LC31:
 1402 0370 6C636974 		.ascii	"lcitems[%d].status     (STATUS) : %15d \015\012\000"
 1402      656D735B 
 1402      25645D2E 
 1402      73746174 
 1402      75732020 
 1403 039a 0000     		.space	2
 1404              	.LC32:
 1405 039c 6C636974 		.ascii	"lcitems[%d].volt_in    (VIN)    : %15d \015\012\000"
 1405      656D735B 
 1405      25645D2E 
 1405      766F6C74 
 1405      5F696E20 
 1406 03c6 0000     		.space	2
 1407              	.LC33:
 1408 03c8 6C636974 		.ascii	"lcitems[%d].volt_out   (VOUT)   : %15d \015\012\000"
 1408      656D735B 
ARM GAS  C:\Users\DNIEL~1\AppData\Local\Temp\ccRVTa3G.s 			page 28


 1408      25645D2E 
 1408      766F6C74 
 1408      5F6F7574 
 1409 03f2 0000     		.space	2
 1410              	.LC34:
 1411 03f4 6C636974 		.ascii	"lcitems[%d].pwm        (PWM)    : %15d \015\012\000"
 1411      656D735B 
 1411      25645D2E 
 1411      70776D20 
 1411      20202020 
 1412 041e 0000     		.space	2
 1413              	.LC35:
 1414 0420 54686973 		.ascii	"This not good parameters!\015\012\000"
 1414      206E6F74 
 1414      20676F6F 
 1414      64207061 
 1414      72616D65 
 1415              		.section	.bss.canstate,"aw",%nobits
 1416              		.set	.LANCHOR5,. + 0
 1417              		.type	canstate, %object
 1418              		.size	canstate, 1
 1419              	canstate:
 1420 0000 00       		.space	1
 1421              		.section	.bss.messages,"aw",%nobits
 1422              		.align	1
 1423              		.set	.LANCHOR4,. + 0
 1424              		.type	messages, %object
 1425              		.size	messages, 2
 1426              	messages:
 1427 0000 0000     		.space	2
 1428              		.section	.bss.rxmsg,"aw",%nobits
 1429              		.align	2
 1430              		.set	.LANCHOR2,. + 0
 1431              		.type	rxmsg, %object
 1432              		.size	rxmsg, 20
 1433              	rxmsg:
 1434 0000 00000000 		.space	20
 1434      00000000 
 1434      00000000 
 1434      00000000 
 1434      00000000 
 1435              		.section	.rodata.cancfg,"a",%progbits
 1436              		.align	2
 1437              		.set	.LANCHOR7,. + 0
 1438              		.type	cancfg, %object
 1439              		.size	cancfg, 16
 1440              	cancfg:
 1441 0000 40000000 		.word	64
 1442 0004 06001800 		.word	1572870
 1443 0008 00000000 		.word	0
 1444 000c 00000000 		.word	0
 1445              		.text
 1446              	.Letext0: