ARM GAS  C:\Users\DNIEL~1\AppData\Local\Temp\ccvraDsu.s 			page 1


   1              		.syntax unified
   2              		.cpu cortex-m4
   3              		.fpu softvfp
   4              		.eabi_attribute 20, 1
   5              		.eabi_attribute 21, 1
   6              		.eabi_attribute 23, 3
   7              		.eabi_attribute 24, 1
   8              		.eabi_attribute 25, 1
   9              		.eabi_attribute 26, 1
  10              		.eabi_attribute 30, 2
  11              		.eabi_attribute 34, 1
  12              		.eabi_attribute 18, 4
  13              		.thumb
  14              		.file	"can_lld.c"
  15              		.text
  16              	.Ltext0:
  17              		.cfi_sections	.debug_frame
  18              		.section	.text.Vector8C,"ax",%progbits
  19              		.align	2
  20              		.p2align 4,,15
  21              		.global	Vector8C
  22              		.thumb
  23              		.thumb_func
  24              		.type	Vector8C, %function
  25              	Vector8C:
  26              	.LFB118:
  27              		.file 1 "../../../ChibiOS/os/hal/platforms/STM32/can_lld.c"
  28              		.loc 1 60 0
  29              		.cfi_startproc
  30              		@ args = 0, pretend = 0, frame = 0
  31              		@ frame_needed = 0, uses_anonymous_args = 0
  32              		.loc 1 65 0
  33 0000 4FF4C843 		mov	r3, #25600
  34 0004 C4F20003 		movt	r3, 16384
  35 0008 40F20112 		movw	r2, #257
  36 000c C0F20102 		movt	r2, 1
  37              		.loc 1 60 0
  38 0010 10B5     		push	{r4, lr}
  39              	.LCFI0:
  40              		.cfi_def_cfa_offset 8
  41              		.cfi_offset 4, -8
  42              		.cfi_offset 14, -4
  43              		.loc 1 65 0
  44 0012 9A60     		str	r2, [r3, #8]
  45              	.LBB2:
  46              		.loc 1 66 0
  47 0014 2023     		movs	r3, #32
  48              	.LVL0:
  49              	@ 66 "../../../ChibiOS/os/hal/platforms/STM32/can_lld.c" 1
  50 0016 83F31188 		msr     BASEPRI, r3
  51              	@ 0 "" 2
  52              	.LVL1:
  53              		.thumb
  54              	.LBE2:
  55              		.loc 1 67 0
  56 001a 0A4C     		ldr	r4, .L7
  57 001c 2069     		ldr	r0, [r4, #16]
ARM GAS  C:\Users\DNIEL~1\AppData\Local\Temp\ccvraDsu.s 			page 2


  58 001e 0028     		cmp	r0, #0
  59 0020 05DA     		bge	.L3
  60              	.L4:
  61              		.loc 1 68 0
  62 0022 0948     		ldr	r0, .L7+4
  63 0024 FFF7FEFF 		bl	chSemSignalI
  64              	.LVL2:
  65              		.loc 1 67 0
  66 0028 2169     		ldr	r1, [r4, #16]
  67 002a 0029     		cmp	r1, #0
  68 002c F9DB     		blt	.L4
  69              	.LVL3:
  70              	.L3:
  71              		.loc 1 69 0
  72 002e 0748     		ldr	r0, .L7+8
  73 0030 0021     		movs	r1, #0
  74 0032 FFF7FEFF 		bl	chEvtBroadcastFlagsI
  75              	.LVL4:
  76              	.LBB3:
  77              		.loc 1 70 0
  78 0036 0023     		movs	r3, #0
  79              	.LVL5:
  80              	@ 70 "../../../ChibiOS/os/hal/platforms/STM32/can_lld.c" 1
  81 0038 83F31188 		msr     BASEPRI, r3
  82              	@ 0 "" 2
  83              	.LVL6:
  84              		.thumb
  85              	.LBE3:
  86              		.loc 1 73 0
  87 003c BDE81040 		pop	{r4, lr}
  88              		.loc 1 72 0
  89 0040 FFF7FEBF 		b	_port_irq_epilogue
  90              	.LVL7:
  91              	.L8:
  92              		.align	2
  93              	.L7:
  94 0044 00000000 		.word	.LANCHOR0
  95 0048 08000000 		.word	.LANCHOR0+8
  96 004c 24000000 		.word	.LANCHOR0+36
  97              		.cfi_endproc
  98              	.LFE118:
  99              		.size	Vector8C, .-Vector8C
 100              		.section	.text.Vector90,"ax",%progbits
 101              		.align	2
 102              		.p2align 4,,15
 103              		.global	Vector90
 104              		.thumb
 105              		.thumb_func
 106              		.type	Vector90, %function
 107              	Vector90:
 108              	.LFB119:
 109              		.loc 1 80 0
 110              		.cfi_startproc
 111              		@ args = 0, pretend = 0, frame = 0
 112              		@ frame_needed = 0, uses_anonymous_args = 0
 113 0000 38B5     		push	{r3, r4, r5, lr}
 114              	.LCFI1:
ARM GAS  C:\Users\DNIEL~1\AppData\Local\Temp\ccvraDsu.s 			page 3


 115              		.cfi_def_cfa_offset 16
 116              		.cfi_offset 3, -16
 117              		.cfi_offset 4, -12
 118              		.cfi_offset 5, -8
 119              		.cfi_offset 14, -4
 120              		.loc 1 85 0
 121 0002 4FF4C843 		mov	r3, #25600
 122 0006 C4F20003 		movt	r3, 16384
 123 000a DD68     		ldr	r5, [r3, #12]
 124              	.LVL8:
 125              		.loc 1 86 0
 126 000c AA07     		lsls	r2, r5, #30
 127 000e 17D0     		beq	.L10
 128              		.loc 1 88 0
 129 0010 5A69     		ldr	r2, [r3, #20]
 130 0012 22F00200 		bic	r0, r2, #2
 131 0016 5861     		str	r0, [r3, #20]
 132              	.LBB4:
 133              		.loc 1 89 0
 134 0018 2023     		movs	r3, #32
 135              	.LVL9:
 136              	@ 89 "../../../ChibiOS/os/hal/platforms/STM32/can_lld.c" 1
 137 001a 83F31188 		msr     BASEPRI, r3
 138              	@ 0 "" 2
 139              	.LVL10:
 140              		.thumb
 141              	.LBE4:
 142              		.loc 1 90 0
 143 001e 134C     		ldr	r4, .L22
 144 0020 E169     		ldr	r1, [r4, #28]
 145 0022 0029     		cmp	r1, #0
 146 0024 05DA     		bge	.L12
 147              	.L18:
 148              		.loc 1 91 0
 149 0026 1248     		ldr	r0, .L22+4
 150 0028 FFF7FEFF 		bl	chSemSignalI
 151              	.LVL11:
 152              		.loc 1 90 0
 153 002c E369     		ldr	r3, [r4, #28]
 154 002e 002B     		cmp	r3, #0
 155 0030 F9DB     		blt	.L18
 156              	.LVL12:
 157              	.L12:
 158              		.loc 1 92 0
 159 0032 1048     		ldr	r0, .L22+8
 160 0034 0021     		movs	r1, #0
 161 0036 FFF7FEFF 		bl	chEvtBroadcastFlagsI
 162              	.LVL13:
 163              	.LBB5:
 164              		.loc 1 93 0
 165 003a 0023     		movs	r3, #0
 166              	.LVL14:
 167              	@ 93 "../../../ChibiOS/os/hal/platforms/STM32/can_lld.c" 1
 168 003c 83F31188 		msr     BASEPRI, r3
 169              	@ 0 "" 2
 170              	.LVL15:
 171              		.thumb
ARM GAS  C:\Users\DNIEL~1\AppData\Local\Temp\ccvraDsu.s 			page 4


 172              	.L10:
 173              	.LBE5:
 174              		.loc 1 95 0
 175 0040 EB06     		lsls	r3, r5, #27
 176              	.LVL16:
 177 0042 0ED5     		bpl	.L13
 178              		.loc 1 97 0
 179 0044 4FF4C842 		mov	r2, #25600
 180 0048 C4F20002 		movt	r2, 16384
 181 004c 1021     		movs	r1, #16
 182 004e D160     		str	r1, [r2, #12]
 183              	.LBB6:
 184              		.loc 1 98 0
 185 0050 2023     		movs	r3, #32
 186              	.LVL17:
 187              	@ 98 "../../../ChibiOS/os/hal/platforms/STM32/can_lld.c" 1
 188 0052 83F31188 		msr     BASEPRI, r3
 189              	@ 0 "" 2
 190              	.LVL18:
 191              		.thumb
 192              	.LBE6:
 193              		.loc 1 99 0
 194 0056 0848     		ldr	r0, .L22+12
 195 0058 FFF7FEFF 		bl	chEvtBroadcastFlagsI
 196              	.LVL19:
 197              	.LBB7:
 198              		.loc 1 100 0
 199 005c 0023     		movs	r3, #0
 200              	.LVL20:
 201              	@ 100 "../../../ChibiOS/os/hal/platforms/STM32/can_lld.c" 1
 202 005e 83F31188 		msr     BASEPRI, r3
 203              	@ 0 "" 2
 204              	.LVL21:
 205              		.thumb
 206              	.L13:
 207              	.LBE7:
 208              		.loc 1 104 0
 209 0062 BDE83840 		pop	{r3, r4, r5, lr}
 210              		.loc 1 103 0
 211 0066 FFF7FEBF 		b	_port_irq_epilogue
 212              	.LVL22:
 213              	.L23:
 214 006a 00BF     		.align	2
 215              	.L22:
 216 006c 00000000 		.word	.LANCHOR0
 217 0070 14000000 		.word	.LANCHOR0+20
 218 0074 20000000 		.word	.LANCHOR0+32
 219 0078 28000000 		.word	.LANCHOR0+40
 220              		.cfi_endproc
 221              	.LFE119:
 222              		.size	Vector90, .-Vector90
 223 007c AFF30080 		.section	.text.Vector94,"ax",%progbits
 224              		.align	2
 225              		.p2align 4,,15
 226              		.global	Vector94
 227              		.thumb
 228              		.thumb_func
ARM GAS  C:\Users\DNIEL~1\AppData\Local\Temp\ccvraDsu.s 			page 5


 229              		.type	Vector94, %function
 230              	Vector94:
 231              	.LFB120:
 232              		.loc 1 111 0
 233              		.cfi_startproc
 234              		@ args = 0, pretend = 0, frame = 0
 235              		@ frame_needed = 0, uses_anonymous_args = 0
 236 0000 08B5     		push	{r3, lr}
 237              	.LCFI2:
 238              		.cfi_def_cfa_offset 8
 239              		.cfi_offset 3, -8
 240              		.cfi_offset 14, -4
 241              		.loc 1 115 0
 242 0002 FFF7FEFF 		bl	port_halt
 243              	.LVL23:
 244              		.loc 1 118 0
 245 0006 BDE80840 		pop	{r3, lr}
 246              		.loc 1 117 0
 247 000a FFF7FEBF 		b	_port_irq_epilogue
 248              	.LVL24:
 249              		.cfi_endproc
 250              	.LFE120:
 251              		.size	Vector94, .-Vector94
 252 000e 00BF     		.section	.text.Vector98,"ax",%progbits
 253              		.align	2
 254              		.p2align 4,,15
 255              		.global	Vector98
 256              		.thumb
 257              		.thumb_func
 258              		.type	Vector98, %function
 259              	Vector98:
 260              	.LFB121:
 261              		.loc 1 125 0
 262              		.cfi_startproc
 263              		@ args = 0, pretend = 0, frame = 0
 264              		@ frame_needed = 0, uses_anonymous_args = 0
 265              		.loc 1 130 0
 266 0000 4FF4C843 		mov	r3, #25600
 267 0004 C4F20003 		movt	r3, 16384
 268              		.loc 1 125 0
 269 0008 10B5     		push	{r4, lr}
 270              	.LCFI3:
 271              		.cfi_def_cfa_offset 8
 272              		.cfi_offset 4, -8
 273              		.cfi_offset 14, -4
 274              		.loc 1 130 0
 275 000a 5C68     		ldr	r4, [r3, #4]
 276              	.LVL25:
 277              		.loc 1 131 0
 278 000c 1C22     		movs	r2, #28
 279 000e 5A60     		str	r2, [r3, #4]
 280              		.loc 1 133 0
 281 0010 2207     		lsls	r2, r4, #28
 282 0012 22D4     		bmi	.L38
 283              	.LVL26:
 284              	.L26:
 285              		.loc 1 141 0
ARM GAS  C:\Users\DNIEL~1\AppData\Local\Temp\ccvraDsu.s 			page 6


 286 0014 6307     		lsls	r3, r4, #29
 287              	.LVL27:
 288 0016 1CD5     		bpl	.L27
 289              	.LBB8:
 290              		.loc 1 143 0
 291 0018 4FF4C840 		mov	r0, #25600
 292 001c C4F20000 		movt	r0, 16384
 293 0020 8269     		ldr	r2, [r0, #24]
 294              	.LVL28:
 295              		.loc 1 145 0
 296 0022 8169     		ldr	r1, [r0, #24]
 297              		.loc 1 147 0
 298 0024 12F0700F 		tst	r2, #112
 299              		.loc 1 145 0
 300 0028 21F07003 		bic	r3, r1, #112
 301              		.loc 1 146 0
 302 002c 02F00701 		and	r1, r2, #7
 303              	.LVL29:
 304              		.loc 1 145 0
 305 0030 8361     		str	r3, [r0, #24]
 306              		.loc 1 148 0
 307 0032 18BF     		it	ne
 308 0034 41F00801 		orrne	r1, r1, #8
 309              	.LVL30:
 310              	.LBB9:
 311              		.loc 1 150 0
 312 0038 2023     		movs	r3, #32
 313              	.LVL31:
 314              	@ 150 "../../../ChibiOS/os/hal/platforms/STM32/can_lld.c" 1
 315 003a 83F31188 		msr     BASEPRI, r3
 316              	@ 0 "" 2
 317              	.LVL32:
 318              		.thumb
 319              	.LBE9:
 320              		.loc 1 153 0
 321 003e 1048     		ldr	r0, .L39
 322 0040 0F2A     		cmp	r2, #15
 323 0042 98BF     		it	ls
 324 0044 41F00101 		orrls	r1, r1, #1
 325              	.LVL33:
 326 0048 FFF7FEFF 		bl	chEvtBroadcastFlagsI
 327              	.LVL34:
 328              	.LBB10:
 329              		.loc 1 154 0
 330 004c 0023     		movs	r3, #0
 331              	.LVL35:
 332              	@ 154 "../../../ChibiOS/os/hal/platforms/STM32/can_lld.c" 1
 333 004e 83F31188 		msr     BASEPRI, r3
 334              	@ 0 "" 2
 335              	.LVL36:
 336              		.thumb
 337              	.L27:
 338              	.LBE10:
 339              	.LBE8:
 340              		.loc 1 158 0
 341 0052 BDE81040 		pop	{r4, lr}
 342              		.loc 1 157 0
ARM GAS  C:\Users\DNIEL~1\AppData\Local\Temp\ccvraDsu.s 			page 7


 343 0056 FFF7FEBF 		b	_port_irq_epilogue
 344              	.LVL37:
 345              	.L38:
 346              		.loc 1 134 0
 347 005a 0A48     		ldr	r0, .L39+4
 348              		.loc 1 135 0
 349 005c 426B     		ldr	r2, [r0, #52]
 350 005e 1168     		ldr	r1, [r2, #0]
 351              		.loc 1 134 0
 352 0060 0323     		movs	r3, #3
 353              		.loc 1 135 0
 354 0062 21F00201 		bic	r1, r1, #2
 355              		.loc 1 134 0
 356 0066 0370     		strb	r3, [r0, #0]
 357              	.LBB11:
 358              		.loc 1 136 0
 359 0068 2023     		movs	r3, #32
 360              	.LVL38:
 361              	.LBE11:
 362              		.loc 1 135 0
 363 006a 1160     		str	r1, [r2, #0]
 364              	.LBB12:
 365              		.loc 1 136 0
 366              	@ 136 "../../../ChibiOS/os/hal/platforms/STM32/can_lld.c" 1
 367 006c 83F31188 		msr     BASEPRI, r3
 368              	@ 0 "" 2
 369              	.LVL39:
 370              		.thumb
 371              	.LBE12:
 372              		.loc 1 137 0
 373 0070 0021     		movs	r1, #0
 374 0072 3030     		adds	r0, r0, #48
 375 0074 FFF7FEFF 		bl	chEvtBroadcastFlagsI
 376              	.LVL40:
 377              	.LBB13:
 378              		.loc 1 138 0
 379 0078 0023     		movs	r3, #0
 380              	@ 138 "../../../ChibiOS/os/hal/platforms/STM32/can_lld.c" 1
 381 007a 83F31188 		msr     BASEPRI, r3
 382              	@ 0 "" 2
 383              	.LVL41:
 384              		.thumb
 385 007e C9E7     		b	.L26
 386              	.L40:
 387              		.align	2
 388              	.L39:
 389 0080 28000000 		.word	.LANCHOR0+40
 390 0084 00000000 		.word	.LANCHOR0
 391              	.LBE13:
 392              		.cfi_endproc
 393              	.LFE121:
 394              		.size	Vector98, .-Vector98
 395 0088 AFF30080 		.section	.text.can_lld_init,"ax",%progbits
 395      AFF30080 
 396              		.align	2
 397              		.p2align 4,,15
 398              		.global	can_lld_init
ARM GAS  C:\Users\DNIEL~1\AppData\Local\Temp\ccvraDsu.s 			page 8


 399              		.thumb
 400              		.thumb_func
 401              		.type	can_lld_init, %function
 402              	can_lld_init:
 403              	.LFB122:
 404              		.loc 1 169 0
 405              		.cfi_startproc
 406              		@ args = 0, pretend = 0, frame = 0
 407              		@ frame_needed = 0, uses_anonymous_args = 0
 408 0000 10B5     		push	{r4, lr}
 409              	.LCFI4:
 410              		.cfi_def_cfa_offset 8
 411              		.cfi_offset 4, -8
 412              		.cfi_offset 14, -4
 413              		.loc 1 173 0
 414 0002 40F20004 		movw	r4, #:lower16:.LANCHOR0
 415 0006 C0F20004 		movt	r4, #:upper16:.LANCHOR0
 416 000a 2046     		mov	r0, r4
 417 000c FFF7FEFF 		bl	canObjectInit
 418              	.LVL42:
 419              		.loc 1 174 0
 420 0010 4FF4C843 		mov	r3, #25600
 421 0014 C4F20003 		movt	r3, 16384
 422 0018 6363     		str	r3, [r4, #52]
 423 001a 10BD     		pop	{r4, pc}
 424              		.cfi_endproc
 425              	.LFE122:
 426              		.size	can_lld_init, .-can_lld_init
 427 001c AFF30080 		.section	.text.can_lld_start,"ax",%progbits
 428              		.align	2
 429              		.p2align 4,,15
 430              		.global	can_lld_start
 431              		.thumb
 432              		.thumb_func
 433              		.type	can_lld_start, %function
 434              	can_lld_start:
 435              	.LFB123:
 436              		.loc 1 185 0
 437              		.cfi_startproc
 438              		@ args = 0, pretend = 0, frame = 0
 439              		@ frame_needed = 0, uses_anonymous_args = 0
 440              	.LVL43:
 441 0000 2DE9F843 		push	{r3, r4, r5, r6, r7, r8, r9, lr}
 442              	.LCFI5:
 443              		.cfi_def_cfa_offset 32
 444              		.cfi_offset 3, -32
 445              		.cfi_offset 4, -28
 446              		.cfi_offset 5, -24
 447              		.cfi_offset 6, -20
 448              		.cfi_offset 7, -16
 449              		.cfi_offset 8, -12
 450              		.cfi_offset 9, -8
 451              		.cfi_offset 14, -4
 452              		.loc 1 189 0
 453 0004 9D4B     		ldr	r3, .L102
 454 0006 9842     		cmp	r0, r3
 455              		.loc 1 185 0
ARM GAS  C:\Users\DNIEL~1\AppData\Local\Temp\ccvraDsu.s 			page 9


 456 0008 0446     		mov	r4, r0
 457              		.loc 1 189 0
 458 000a 00F01D81 		beq	.L97
 459              	.LVL44:
 460              	.L43:
 461              		.loc 1 204 0
 462 000e 636B     		ldr	r3, [r4, #52]
 463              		.loc 1 203 0
 464 0010 0226     		movs	r6, #2
 465              		.loc 1 204 0
 466 0012 0120     		movs	r0, #1
 467              		.loc 1 203 0
 468 0014 2670     		strb	r6, [r4, #0]
 469              		.loc 1 204 0
 470 0016 1860     		str	r0, [r3, #0]
 471              		.loc 1 205 0
 472 0018 5A68     		ldr	r2, [r3, #4]
 473 001a D107     		lsls	r1, r2, #31
 474 001c 07D4     		bmi	.L44
 475              	.L63:
 476              		.loc 1 206 0
 477 001e 0121     		movs	r1, #1
 478 0020 0620     		movs	r0, #6
 479 0022 FFF7FEFF 		bl	chSchGoSleepTimeoutS
 480              	.LVL45:
 481              		.loc 1 205 0
 482 0026 636B     		ldr	r3, [r4, #52]
 483 0028 5968     		ldr	r1, [r3, #4]
 484 002a CA07     		lsls	r2, r1, #31
 485 002c F7D5     		bpl	.L63
 486              	.L44:
 487              		.loc 1 208 0
 488 002e 6668     		ldr	r6, [r4, #4]
 489 0030 7068     		ldr	r0, [r6, #4]
 490              		.loc 1 210 0
 491 0032 3268     		ldr	r2, [r6, #0]
 492              		.loc 1 208 0
 493 0034 D861     		str	r0, [r3, #28]
 494              		.loc 1 210 0
 495 0036 1A60     		str	r2, [r3, #0]
 496              		.loc 1 212 0
 497 0038 D3F80012 		ldr	r1, [r3, #512]
 498              		.loc 1 213 0
 499 003c D6F808C0 		ldr	ip, [r6, #8]
 500              		.loc 1 212 0
 501 0040 41F00100 		orr	r0, r1, #1
 502 0044 C3F80002 		str	r0, [r3, #512]
 503              		.loc 1 213 0
 504 0048 BCF1000F 		cmp	ip, #0
 505 004c 00F0E080 		beq	.L46
 506              	.LBB14:
 507              		.loc 1 217 0
 508 0050 0027     		movs	r7, #0
 509 0052 C3F81C72 		str	r7, [r3, #540]
 510              		.loc 1 221 0
 511 0056 3946     		mov	r1, r7
 512              		.loc 1 218 0
ARM GAS  C:\Users\DNIEL~1\AppData\Local\Temp\ccvraDsu.s 			page 10


 513 0058 C3F80472 		str	r7, [r3, #516]
 514              		.loc 1 221 0
 515 005c 03F51072 		add	r2, r3, #576
 516              	.LVL46:
 517              		.loc 1 219 0
 518 0060 C3F80C72 		str	r7, [r3, #524]
 519              		.loc 1 222 0
 520 0064 0125     		movs	r5, #1
 521              		.loc 1 223 0
 522 0066 3846     		mov	r0, r7
 523              		.loc 1 220 0
 524 0068 C3F81472 		str	r7, [r3, #532]
 525 006c 92E0     		b	.L54
 526              	.LVL47:
 527              	.L100:
 528              		.loc 1 225 0
 529 006e F368     		ldr	r3, [r6, #12]
 530              	.LVL48:
 531 0070 5E5C     		ldrb	r6, [r3, r1]	@ zero_extendqisi2
 532 0072 03EB010C 		add	ip, r3, r1
 533              		.loc 1 226 0
 534 0076 636B     		ldr	r3, [r4, #52]
 535              		.loc 1 225 0
 536 0078 16F0010F 		tst	r6, #1
 537              		.loc 1 226 0
 538 007c 1EBF     		ittt	ne
 539 007e D3F80482 		ldrne	r8, [r3, #516]
 540 0082 45EA0808 		orrne	r8, r5, r8
 541 0086 C3F80482 		strne	r8, [r3, #516]
 542              		.loc 1 227 0
 543 008a 06F00208 		and	r8, r6, #2
 544 008e 5FFA88F8 		uxtb	r8, r8
 545 0092 B8F1000F 		cmp	r8, #0
 546 0096 05D0     		beq	.L50
 547              		.loc 1 228 0
 548 0098 D3F80C82 		ldr	r8, [r3, #524]
 549 009c 45EA0808 		orr	r8, r5, r8
 550 00a0 C3F80C82 		str	r8, [r3, #524]
 551              	.L50:
 552              		.loc 1 229 0
 553 00a4 06F00406 		and	r6, r6, #4
 554 00a8 F6B2     		uxtb	r6, r6
 555 00aa 26B1     		cbz	r6, .L51
 556              		.loc 1 230 0
 557 00ac D3F81462 		ldr	r6, [r3, #532]
 558 00b0 2E43     		orrs	r6, r6, r5
 559 00b2 C3F81462 		str	r6, [r3, #532]
 560              	.L51:
 561              		.loc 1 232 0
 562 00b6 DCF80860 		ldr	r6, [ip, #8]
 563              		.loc 1 231 0
 564 00ba DCF80480 		ldr	r8, [ip, #4]
 565 00be C2F80080 		str	r8, [r2, #0]
 566              		.loc 1 232 0
 567 00c2 5660     		str	r6, [r2, #4]
 568              		.loc 1 233 0
 569 00c4 D3F81C62 		ldr	r6, [r3, #540]
ARM GAS  C:\Users\DNIEL~1\AppData\Local\Temp\ccvraDsu.s 			page 11


 570 00c8 2E43     		orrs	r6, r6, r5
 571 00ca C3F81C62 		str	r6, [r3, #540]
 572              	.LVL49:
 573              	.L52:
 574              	.LBB15:
 575              		.loc 1 240 0
 576 00ce 0023     		movs	r3, #0
 577              	.LVL50:
 578              	@ 240 "../../../ChibiOS/os/hal/platforms/STM32/can_lld.c" 1
 579 00d0 83F31188 		msr     BASEPRI, r3
 580              	@ 0 "" 2
 581              	.LVL51:
 582              		.thumb
 583              	.LBE15:
 584              	.LBB16:
 585              		.loc 1 243 0
 586 00d4 2023     		movs	r3, #32
 587              	.LVL52:
 588              	.LBE16:
 589              		.loc 1 241 0
 590 00d6 0832     		adds	r2, r2, #8
 591              	.LVL53:
 592              		.loc 1 242 0
 593 00d8 6D00     		lsls	r5, r5, #1
 594              	.LBB17:
 595              		.loc 1 243 0
 596              	@ 243 "../../../ChibiOS/os/hal/platforms/STM32/can_lld.c" 1
 597 00da 83F31188 		msr     BASEPRI, r3
 598              	@ 0 "" 2
 599              	.LVL54:
 600              		.thumb
 601 00de 0C31     		adds	r1, r1, #12
 602              	.LBE17:
 603              		.loc 1 223 0
 604 00e0 0130     		adds	r0, r0, #1
 605              	.LVL55:
 606 00e2 B1F5A87F 		cmp	r1, #336
 607 00e6 00F0AD80 		beq	.L98
 608 00ea 6368     		ldr	r3, [r4, #4]
 609              	.LVL56:
 610 00ec 9E68     		ldr	r6, [r3, #8]
 611              		.loc 1 224 0
 612 00ee B042     		cmp	r0, r6
 613 00f0 56D2     		bcs	.L66
 614              		.loc 1 225 0
 615 00f2 DB68     		ldr	r3, [r3, #12]
 616 00f4 5E5C     		ldrb	r6, [r3, r1]	@ zero_extendqisi2
 617 00f6 03EB0109 		add	r9, r3, r1
 618 00fa F307     		lsls	r3, r6, #31
 619 00fc 40F18680 		bpl	.L99
 620              		.loc 1 226 0
 621 0100 636B     		ldr	r3, [r4, #52]
 622 0102 D3F804C2 		ldr	ip, [r3, #516]
 623 0106 45EA0C08 		orr	r8, r5, ip
 624 010a C3F80482 		str	r8, [r3, #516]
 625              	.L90:
 626              		.loc 1 227 0
ARM GAS  C:\Users\DNIEL~1\AppData\Local\Temp\ccvraDsu.s 			page 12


 627 010e 06F0020C 		and	ip, r6, #2
 628 0112 5FFA8CF8 		uxtb	r8, ip
 629 0116 B8F1000F 		cmp	r8, #0
 630 011a 05D0     		beq	.L68
 631              		.loc 1 228 0
 632 011c D3F80CC2 		ldr	ip, [r3, #524]
 633 0120 45EA0C08 		orr	r8, r5, ip
 634 0124 C3F80C82 		str	r8, [r3, #524]
 635              	.L68:
 636              		.loc 1 229 0
 637 0128 06F00406 		and	r6, r6, #4
 638 012c F6B2     		uxtb	r6, r6
 639 012e 26B1     		cbz	r6, .L69
 640              		.loc 1 230 0
 641 0130 D3F81462 		ldr	r6, [r3, #532]
 642 0134 2E43     		orrs	r6, r6, r5
 643 0136 C3F81462 		str	r6, [r3, #532]
 644              	.L69:
 645              		.loc 1 232 0
 646 013a D9F80860 		ldr	r6, [r9, #8]
 647              		.loc 1 231 0
 648 013e D9F804C0 		ldr	ip, [r9, #4]
 649 0142 C2F800C0 		str	ip, [r2, #0]
 650              		.loc 1 232 0
 651 0146 5660     		str	r6, [r2, #4]
 652              		.loc 1 233 0
 653 0148 D3F81C62 		ldr	r6, [r3, #540]
 654 014c 2E43     		orrs	r6, r6, r5
 655 014e C3F81C62 		str	r6, [r3, #540]
 656              	.L86:
 657              	.LBB18:
 658              		.loc 1 240 0
 659 0152 0023     		movs	r3, #0
 660              	@ 240 "../../../ChibiOS/os/hal/platforms/STM32/can_lld.c" 1
 661 0154 83F31188 		msr     BASEPRI, r3
 662              	@ 0 "" 2
 663              	.LVL57:
 664              		.thumb
 665              	.LBE18:
 666              	.LBB19:
 667              		.loc 1 243 0
 668 0158 2023     		movs	r3, #32
 669              	.LVL58:
 670              	.LBE19:
 671              		.loc 1 241 0
 672 015a 02F10808 		add	r8, r2, #8
 673              	.LVL59:
 674              		.loc 1 242 0
 675 015e 6D00     		lsls	r5, r5, #1
 676              	.LBB20:
 677              		.loc 1 243 0
 678              	@ 243 "../../../ChibiOS/os/hal/platforms/STM32/can_lld.c" 1
 679 0160 83F31188 		msr     BASEPRI, r3
 680              	@ 0 "" 2
 681              	.LVL60:
 682              		.thumb
 683 0164 6368     		ldr	r3, [r4, #4]
ARM GAS  C:\Users\DNIEL~1\AppData\Local\Temp\ccvraDsu.s 			page 13


 684              	.LVL61:
 685 0166 9E68     		ldr	r6, [r3, #8]
 686              	.LBE20:
 687              		.loc 1 223 0
 688 0168 00F1010C 		add	ip, r0, #1
 689              	.LVL62:
 690              		.loc 1 224 0
 691 016c B445     		cmp	ip, r6
 692 016e 01F10C09 		add	r9, r1, #12
 693 0172 18D3     		bcc	.L91
 694              		.loc 1 236 0
 695 0174 9760     		str	r7, [r2, #8]
 696              		.loc 1 237 0
 697 0176 C8F80470 		str	r7, [r8, #4]
 698              	.L92:
 699              	.LBB21:
 700              		.loc 1 240 0
 701 017a 0023     		movs	r3, #0
 702              	@ 240 "../../../ChibiOS/os/hal/platforms/STM32/can_lld.c" 1
 703 017c 83F31188 		msr     BASEPRI, r3
 704              	@ 0 "" 2
 705              	.LVL63:
 706              		.thumb
 707              	.LBE21:
 708              	.LBB22:
 709              		.loc 1 243 0
 710 0180 2023     		movs	r3, #32
 711              	.LVL64:
 712              	.LBE22:
 713              		.loc 1 241 0
 714 0182 1032     		adds	r2, r2, #16
 715              	.LVL65:
 716              		.loc 1 242 0
 717 0184 6D00     		lsls	r5, r5, #1
 718              	.LVL66:
 719              	.LBB23:
 720              		.loc 1 243 0
 721              	@ 243 "../../../ChibiOS/os/hal/platforms/STM32/can_lld.c" 1
 722 0186 83F31188 		msr     BASEPRI, r3
 723              	@ 0 "" 2
 724              	.LVL67:
 725              		.thumb
 726 018a 6668     		ldr	r6, [r4, #4]
 727 018c D6F808C0 		ldr	ip, [r6, #8]
 728              	.LBE23:
 729              		.loc 1 223 0
 730 0190 0230     		adds	r0, r0, #2
 731              	.LVL68:
 732 0192 1831     		adds	r1, r1, #24
 733              	.LVL69:
 734              	.L54:
 735              		.loc 1 224 0
 736 0194 6045     		cmp	r0, ip
 737 0196 FFF46AAF 		bcc	.L100
 738              		.loc 1 236 0
 739 019a 1760     		str	r7, [r2, #0]
 740              		.loc 1 237 0
ARM GAS  C:\Users\DNIEL~1\AppData\Local\Temp\ccvraDsu.s 			page 14


 741 019c 5760     		str	r7, [r2, #4]
 742 019e 96E7     		b	.L52
 743              	.LVL70:
 744              	.L66:
 745              		.loc 1 236 0
 746 01a0 1760     		str	r7, [r2, #0]
 747              		.loc 1 237 0
 748 01a2 5760     		str	r7, [r2, #4]
 749 01a4 D5E7     		b	.L86
 750              	.LVL71:
 751              	.L91:
 752              		.loc 1 225 0
 753 01a6 DB68     		ldr	r3, [r3, #12]
 754 01a8 13F80960 		ldrb	r6, [r3, r9]	@ zero_extendqisi2
 755 01ac 9944     		add	r9, r3, r9
 756 01ae F307     		lsls	r3, r6, #31
 757 01b0 2AD5     		bpl	.L101
 758              		.loc 1 226 0
 759 01b2 636B     		ldr	r3, [r4, #52]
 760 01b4 D3F804C2 		ldr	ip, [r3, #516]
 761 01b8 45EA0C0C 		orr	ip, r5, ip
 762 01bc C3F804C2 		str	ip, [r3, #516]
 763              	.L96:
 764              		.loc 1 227 0
 765 01c0 06F0020C 		and	ip, r6, #2
 766 01c4 5FFA8CFC 		uxtb	ip, ip
 767 01c8 BCF1000F 		cmp	ip, #0
 768 01cc 05D0     		beq	.L72
 769              		.loc 1 228 0
 770 01ce D3F80CC2 		ldr	ip, [r3, #524]
 771 01d2 45EA0C0C 		orr	ip, r5, ip
 772 01d6 C3F80CC2 		str	ip, [r3, #524]
 773              	.L72:
 774              		.loc 1 229 0
 775 01da 06F00406 		and	r6, r6, #4
 776 01de F6B2     		uxtb	r6, r6
 777 01e0 26B1     		cbz	r6, .L73
 778              		.loc 1 230 0
 779 01e2 D3F81462 		ldr	r6, [r3, #532]
 780 01e6 2E43     		orrs	r6, r6, r5
 781 01e8 C3F81462 		str	r6, [r3, #532]
 782              	.L73:
 783              		.loc 1 232 0
 784 01ec D9F80860 		ldr	r6, [r9, #8]
 785              		.loc 1 231 0
 786 01f0 D9F804C0 		ldr	ip, [r9, #4]
 787 01f4 C2F808C0 		str	ip, [r2, #8]
 788              		.loc 1 232 0
 789 01f8 C8F80460 		str	r6, [r8, #4]
 790              		.loc 1 233 0
 791 01fc D3F81C62 		ldr	r6, [r3, #540]
 792 0200 2E43     		orrs	r6, r6, r5
 793 0202 C3F81C62 		str	r6, [r3, #540]
 794 0206 B8E7     		b	.L92
 795              	.L101:
 796 0208 636B     		ldr	r3, [r4, #52]
 797 020a D9E7     		b	.L96
ARM GAS  C:\Users\DNIEL~1\AppData\Local\Temp\ccvraDsu.s 			page 15


 798              	.LVL72:
 799              	.L99:
 800 020c 636B     		ldr	r3, [r4, #52]
 801 020e 7EE7     		b	.L90
 802              	.LVL73:
 803              	.L46:
 804              	.LBE14:
 805              		.loc 1 252 0
 806 0210 0122     		movs	r2, #1
 807              		.loc 1 248 0
 808 0212 C3F840C2 		str	ip, [r3, #576]
 809              		.loc 1 249 0
 810 0216 C3F844C2 		str	ip, [r3, #580]
 811              		.loc 1 250 0
 812 021a C3F804C2 		str	ip, [r3, #516]
 813              		.loc 1 251 0
 814 021e C3F814C2 		str	ip, [r3, #532]
 815              		.loc 1 252 0
 816 0222 C3F80C22 		str	r2, [r3, #524]
 817              		.loc 1 253 0
 818 0226 C3F81C22 		str	r2, [r3, #540]
 819              	.L53:
 820              		.loc 1 255 0
 821 022a D3F80012 		ldr	r1, [r3, #512]
 822              		.loc 1 257 0
 823 022e 48F65B70 		movw	r0, #36699
 824              		.loc 1 255 0
 825 0232 21F00102 		bic	r2, r1, #1
 826              		.loc 1 257 0
 827 0236 C0F20100 		movt	r0, 1
 828              		.loc 1 255 0
 829 023a C3F80022 		str	r2, [r3, #512]
 830              		.loc 1 257 0
 831 023e 5861     		str	r0, [r3, #20]
 832 0240 BDE8F883 		pop	{r3, r4, r5, r6, r7, r8, r9, pc}
 833              	.LVL74:
 834              	.L98:
 835 0244 636B     		ldr	r3, [r4, #52]
 836              	.LVL75:
 837 0246 F0E7     		b	.L53
 838              	.LVL76:
 839              	.L97:
 840              		.loc 1 190 0
 841 0248 1320     		movs	r0, #19
 842              	.LVL77:
 843 024a B021     		movs	r1, #176
 844 024c FFF7FEFF 		bl	nvicEnableVector
 845              	.LVL78:
 846              		.loc 1 192 0
 847 0250 1420     		movs	r0, #20
 848 0252 B021     		movs	r1, #176
 849 0254 FFF7FEFF 		bl	nvicEnableVector
 850              	.LVL79:
 851              		.loc 1 194 0
 852 0258 1520     		movs	r0, #21
 853 025a B021     		movs	r1, #176
 854 025c FFF7FEFF 		bl	nvicEnableVector
ARM GAS  C:\Users\DNIEL~1\AppData\Local\Temp\ccvraDsu.s 			page 16


 855              	.LVL80:
 856              		.loc 1 196 0
 857 0260 1620     		movs	r0, #22
 858 0262 B021     		movs	r1, #176
 859 0264 FFF7FEFF 		bl	nvicEnableVector
 860              	.LVL81:
 861              		.loc 1 198 0
 862 0268 4FF46050 		mov	r0, #14336
 863 026c C4F20200 		movt	r0, 16386
 864 0270 026C     		ldr	r2, [r0, #64]
 865 0272 42F00071 		orr	r1, r2, #33554432
 866 0276 0164     		str	r1, [r0, #64]
 867 0278 C9E6     		b	.L43
 868              	.L103:
 869 027a 00BF     		.align	2
 870              	.L102:
 871 027c 00000000 		.word	.LANCHOR0
 872              		.cfi_endproc
 873              	.LFE123:
 874              		.size	can_lld_start, .-can_lld_start
 875              		.section	.text.can_lld_stop,"ax",%progbits
 876              		.align	2
 877              		.p2align 4,,15
 878              		.global	can_lld_stop
 879              		.thumb
 880              		.thumb_func
 881              		.type	can_lld_stop, %function
 882              	can_lld_stop:
 883              	.LFB124:
 884              		.loc 1 270 0
 885              		.cfi_startproc
 886              		@ args = 0, pretend = 0, frame = 0
 887              		@ frame_needed = 0, uses_anonymous_args = 0
 888              	.LVL82:
 889 0000 08B5     		push	{r3, lr}
 890              	.LCFI6:
 891              		.cfi_def_cfa_offset 8
 892              		.cfi_offset 3, -8
 893              		.cfi_offset 14, -4
 894              		.loc 1 273 0
 895 0002 0378     		ldrb	r3, [r0, #0]	@ zero_extendqisi2
 896 0004 032B     		cmp	r3, #3
 897 0006 00D0     		beq	.L106
 898              	.LVL83:
 899              	.L104:
 900 0008 08BD     		pop	{r3, pc}
 901              	.LVL84:
 902              	.L106:
 903              		.loc 1 275 0
 904 000a 1149     		ldr	r1, .L107
 905 000c 8842     		cmp	r0, r1
 906 000e FBD1     		bne	.L104
 907              		.loc 1 276 0
 908 0010 4FF4C843 		mov	r3, #25600
 909 0014 C4F20003 		movt	r3, 16384
 910 0018 0222     		movs	r2, #2
 911 001a C0F20102 		movt	r2, 1
ARM GAS  C:\Users\DNIEL~1\AppData\Local\Temp\ccvraDsu.s 			page 17


 912              		.loc 1 277 0
 913 001e 0021     		movs	r1, #0
 914              		.loc 1 276 0
 915 0020 1A60     		str	r2, [r3, #0]
 916              		.loc 1 278 0
 917 0022 1320     		movs	r0, #19
 918              	.LVL85:
 919              		.loc 1 277 0
 920 0024 5961     		str	r1, [r3, #20]
 921              		.loc 1 278 0
 922 0026 FFF7FEFF 		bl	nvicDisableVector
 923              	.LVL86:
 924              		.loc 1 279 0
 925 002a 1420     		movs	r0, #20
 926 002c FFF7FEFF 		bl	nvicDisableVector
 927              	.LVL87:
 928              		.loc 1 280 0
 929 0030 1520     		movs	r0, #21
 930 0032 FFF7FEFF 		bl	nvicDisableVector
 931              	.LVL88:
 932              		.loc 1 281 0
 933 0036 1620     		movs	r0, #22
 934 0038 FFF7FEFF 		bl	nvicDisableVector
 935              	.LVL89:
 936              		.loc 1 282 0
 937 003c 4FF46050 		mov	r0, #14336
 938 0040 C4F20200 		movt	r0, 16386
 939 0044 036C     		ldr	r3, [r0, #64]
 940 0046 23F00072 		bic	r2, r3, #33554432
 941 004a 0264     		str	r2, [r0, #64]
 942 004c DCE7     		b	.L104
 943              	.L108:
 944 004e 00BF     		.align	2
 945              	.L107:
 946 0050 00000000 		.word	.LANCHOR0
 947              		.cfi_endproc
 948              	.LFE124:
 949              		.size	can_lld_stop, .-can_lld_stop
 950 0054 AFF30080 		.section	.text.can_lld_can_transmit,"ax",%progbits
 950      AFF30080 
 950      AFF30080 
 951              		.align	2
 952              		.p2align 4,,15
 953              		.global	can_lld_can_transmit
 954              		.thumb
 955              		.thumb_func
 956              		.type	can_lld_can_transmit, %function
 957              	can_lld_can_transmit:
 958              	.LFB125:
 959              		.loc 1 299 0
 960              		.cfi_startproc
 961              		@ args = 0, pretend = 0, frame = 0
 962              		@ frame_needed = 0, uses_anonymous_args = 0
 963              		@ link register save eliminated.
 964              	.LVL90:
 965              		.loc 1 301 0
 966 0000 436B     		ldr	r3, [r0, #52]
ARM GAS  C:\Users\DNIEL~1\AppData\Local\Temp\ccvraDsu.s 			page 18


 967 0002 9868     		ldr	r0, [r3, #8]
 968              	.LVL91:
 969 0004 10F0E05F 		tst	r0, #469762048
 970              		.loc 1 302 0
 971 0008 0CBF     		ite	eq
 972 000a 0020     		moveq	r0, #0
 973 000c 0120     		movne	r0, #1
 974 000e 7047     		bx	lr
 975              		.cfi_endproc
 976              	.LFE125:
 977              		.size	can_lld_can_transmit, .-can_lld_can_transmit
 978              		.section	.text.can_lld_transmit,"ax",%progbits
 979              		.align	2
 980              		.p2align 4,,15
 981              		.global	can_lld_transmit
 982              		.thumb
 983              		.thumb_func
 984              		.type	can_lld_transmit, %function
 985              	can_lld_transmit:
 986              	.LFB126:
 987              		.loc 1 312 0
 988              		.cfi_startproc
 989              		@ args = 0, pretend = 0, frame = 0
 990              		@ frame_needed = 0, uses_anonymous_args = 0
 991              		@ link register save eliminated.
 992              	.LVL92:
 993 0000 70B4     		push	{r4, r5, r6}
 994              	.LCFI7:
 995              		.cfi_def_cfa_offset 12
 996              		.cfi_offset 4, -12
 997              		.cfi_offset 5, -8
 998              		.cfi_offset 6, -4
 999              		.loc 1 317 0
 1000 0002 436B     		ldr	r3, [r0, #52]
 1001              		.loc 1 320 0
 1002 0004 0878     		ldrb	r0, [r1, #0]	@ zero_extendqisi2
 1003              	.LVL93:
 1004              		.loc 1 317 0
 1005 0006 9C68     		ldr	r4, [r3, #8]
 1006 0008 C4F30162 		ubfx	r2, r4, #24, #2
 1007 000c 1832     		adds	r2, r2, #24
 1008              		.loc 1 320 0
 1009 000e 00F02005 		and	r5, r0, #32
 1010              		.loc 1 317 0
 1011 0012 1401     		lsls	r4, r2, #4
 1012              		.loc 1 320 0
 1013 0014 EEB2     		uxtb	r6, r5
 1014              		.loc 1 317 0
 1015 0016 1A19     		adds	r2, r3, r4
 1016              	.LVL94:
 1017              		.loc 1 320 0
 1018 0018 8EB9     		cbnz	r6, .L113
 1019              		.loc 1 324 0
 1020 001a 8D88     		ldrh	r5, [r1, #4]
 1021 001c C0F30016 		ubfx	r6, r0, #4, #1
 1022 0020 6D05     		lsls	r5, r5, #21
 1023 0022 45EA4605 		orr	r5, r5, r6, lsl #1
ARM GAS  C:\Users\DNIEL~1\AppData\Local\Temp\ccvraDsu.s 			page 19


 1024              	.LVL95:
 1025              	.L112:
 1026              		.loc 1 325 0
 1027 0026 00F00F00 		and	r0, r0, #15
 1028 002a 5060     		str	r0, [r2, #4]
 1029              		.loc 1 326 0
 1030 002c 8868     		ldr	r0, [r1, #8]
 1031 002e 9060     		str	r0, [r2, #8]
 1032              		.loc 1 327 0
 1033 0030 C868     		ldr	r0, [r1, #12]
 1034              		.loc 1 328 0
 1035 0032 45F00101 		orr	r1, r5, #1
 1036              	.LVL96:
 1037              		.loc 1 327 0
 1038 0036 D060     		str	r0, [r2, #12]
 1039              		.loc 1 328 0
 1040 0038 1951     		str	r1, [r3, r4]
 1041              		.loc 1 329 0
 1042 003a 70BC     		pop	{r4, r5, r6}
 1043 003c 7047     		bx	lr
 1044              	.LVL97:
 1045              	.L113:
 1046              		.loc 1 321 0
 1047 003e 4E68     		ldr	r6, [r1, #4]
 1048 0040 C0F30015 		ubfx	r5, r0, #4, #1
 1049 0044 6D00     		lsls	r5, r5, #1
 1050 0046 45EAC605 		orr	r5, r5, r6, lsl #3
 1051 004a 45F00405 		orr	r5, r5, #4
 1052              	.LVL98:
 1053 004e EAE7     		b	.L112
 1054              		.cfi_endproc
 1055              	.LFE126:
 1056              		.size	can_lld_transmit, .-can_lld_transmit
 1057              		.section	.text.can_lld_can_receive,"ax",%progbits
 1058              		.align	2
 1059              		.p2align 4,,15
 1060              		.global	can_lld_can_receive
 1061              		.thumb
 1062              		.thumb_func
 1063              		.type	can_lld_can_receive, %function
 1064              	can_lld_can_receive:
 1065              	.LFB127:
 1066              		.loc 1 342 0
 1067              		.cfi_startproc
 1068              		@ args = 0, pretend = 0, frame = 0
 1069              		@ frame_needed = 0, uses_anonymous_args = 0
 1070              		@ link register save eliminated.
 1071              	.LVL99:
 1072              		.loc 1 344 0
 1073 0000 436B     		ldr	r3, [r0, #52]
 1074 0002 D868     		ldr	r0, [r3, #12]
 1075              	.LVL100:
 1076              		.loc 1 345 0
 1077 0004 10F00300 		ands	r0, r0, #3
 1078 0008 18BF     		it	ne
 1079 000a 0120     		movne	r0, #1
 1080 000c 7047     		bx	lr
ARM GAS  C:\Users\DNIEL~1\AppData\Local\Temp\ccvraDsu.s 			page 20


 1081              		.cfi_endproc
 1082              	.LFE127:
 1083              		.size	can_lld_can_receive, .-can_lld_can_receive
 1084 000e 00BF     		.section	.text.can_lld_receive,"ax",%progbits
 1085              		.align	2
 1086              		.p2align 4,,15
 1087              		.global	can_lld_receive
 1088              		.thumb
 1089              		.thumb_func
 1090              		.type	can_lld_receive, %function
 1091              	can_lld_receive:
 1092              	.LFB128:
 1093              		.loc 1 355 0
 1094              		.cfi_startproc
 1095              		@ args = 0, pretend = 0, frame = 0
 1096              		@ frame_needed = 0, uses_anonymous_args = 0
 1097              		@ link register save eliminated.
 1098              	.LVL101:
 1099 0000 30B4     		push	{r4, r5}
 1100              	.LCFI8:
 1101              		.cfi_def_cfa_offset 8
 1102              		.cfi_offset 4, -8
 1103              		.cfi_offset 5, -4
 1104              		.loc 1 359 0
 1105 0002 436B     		ldr	r3, [r0, #52]
 1106              		.loc 1 360 0
 1107 0004 0A79     		ldrb	r2, [r1, #4]	@ zero_extendqisi2
 1108              		.loc 1 359 0
 1109 0006 D3F8B031 		ldr	r3, [r3, #432]
 1110              	.LVL102:
 1111              		.loc 1 360 0
 1112 000a C3F34004 		ubfx	r4, r3, #1, #1
 1113 000e 64F30412 		bfi	r2, r4, #4, #1
 1114              		.loc 1 361 0
 1115 0012 C3F38005 		ubfx	r5, r3, #2, #1
 1116 0016 65F34512 		bfi	r2, r5, #5, #1
 1117              		.loc 1 362 0
 1118 001a D4B2     		uxtb	r4, r2
 1119 001c 04F02005 		and	r5, r4, #32
 1120 0020 EDB2     		uxtb	r5, r5
 1121              		.loc 1 361 0
 1122 0022 0A71     		strb	r2, [r1, #4]
 1123              		.loc 1 362 0
 1124 0024 002D     		cmp	r5, #0
 1125 0026 23D0     		beq	.L116
 1126              		.loc 1 363 0
 1127 0028 8A68     		ldr	r2, [r1, #8]
 1128 002a DB08     		lsrs	r3, r3, #3
 1129              	.LVL103:
 1130 002c 63F31C02 		bfi	r2, r3, #0, #29
 1131 0030 8A60     		str	r2, [r1, #8]
 1132              	.L117:
 1133              		.loc 1 366 0
 1134 0032 426B     		ldr	r2, [r0, #52]
 1135 0034 D2F8B421 		ldr	r2, [r2, #436]
 1136              	.LVL104:
 1137              		.loc 1 367 0
ARM GAS  C:\Users\DNIEL~1\AppData\Local\Temp\ccvraDsu.s 			page 21


 1138 0038 2346     		mov	r3, r4
 1139 003a 62F30303 		bfi	r3, r2, #0, #4
 1140              		.loc 1 368 0
 1141 003e 140A     		lsrs	r4, r2, #8
 1142              		.loc 1 367 0
 1143 0040 0B71     		strb	r3, [r1, #4]
 1144              		.loc 1 368 0
 1145 0042 0C70     		strb	r4, [r1, #0]
 1146              		.loc 1 370 0
 1147 0044 436B     		ldr	r3, [r0, #52]
 1148 0046 D3F8B831 		ldr	r3, [r3, #440]
 1149 004a CB60     		str	r3, [r1, #12]
 1150              		.loc 1 371 0
 1151 004c 436B     		ldr	r3, [r0, #52]
 1152 004e D3F8BC31 		ldr	r3, [r3, #444]
 1153 0052 0B61     		str	r3, [r1, #16]
 1154              		.loc 1 374 0
 1155 0054 406B     		ldr	r0, [r0, #52]
 1156              	.LVL105:
 1157              		.loc 1 369 0
 1158 0056 120C     		lsrs	r2, r2, #16
 1159              	.LVL106:
 1160 0058 4A80     		strh	r2, [r1, #2]	@ movhi
 1161              		.loc 1 374 0
 1162 005a 2021     		movs	r1, #32
 1163              	.LVL107:
 1164 005c C160     		str	r1, [r0, #12]
 1165              		.loc 1 378 0
 1166 005e C368     		ldr	r3, [r0, #12]
 1167 0060 9A07     		lsls	r2, r3, #30
 1168 0062 03D1     		bne	.L115
 1169              		.loc 1 379 0
 1170 0064 4269     		ldr	r2, [r0, #20]
 1171 0066 42F00201 		orr	r1, r2, #2
 1172 006a 4161     		str	r1, [r0, #20]
 1173              	.L115:
 1174              		.loc 1 380 0
 1175 006c 30BC     		pop	{r4, r5}
 1176 006e 7047     		bx	lr
 1177              	.LVL108:
 1178              	.L116:
 1179              		.loc 1 365 0
 1180 0070 0A89     		ldrh	r2, [r1, #8]
 1181 0072 5B0D     		lsrs	r3, r3, #21
 1182              	.LVL109:
 1183 0074 63F30A02 		bfi	r2, r3, #0, #11
 1184 0078 0A81     		strh	r2, [r1, #8]	@ movhi
 1185 007a DAE7     		b	.L117
 1186              		.cfi_endproc
 1187              	.LFE128:
 1188              		.size	can_lld_receive, .-can_lld_receive
 1189 007c AFF30080 		.section	.text.can_lld_sleep,"ax",%progbits
 1190              		.align	2
 1191              		.p2align 4,,15
 1192              		.global	can_lld_sleep
 1193              		.thumb
 1194              		.thumb_func
ARM GAS  C:\Users\DNIEL~1\AppData\Local\Temp\ccvraDsu.s 			page 22


 1195              		.type	can_lld_sleep, %function
 1196              	can_lld_sleep:
 1197              	.LFB129:
 1198              		.loc 1 390 0
 1199              		.cfi_startproc
 1200              		@ args = 0, pretend = 0, frame = 0
 1201              		@ frame_needed = 0, uses_anonymous_args = 0
 1202              		@ link register save eliminated.
 1203              	.LVL110:
 1204              		.loc 1 392 0
 1205 0000 436B     		ldr	r3, [r0, #52]
 1206 0002 1A68     		ldr	r2, [r3, #0]
 1207 0004 42F00200 		orr	r0, r2, #2
 1208              	.LVL111:
 1209 0008 1860     		str	r0, [r3, #0]
 1210 000a 7047     		bx	lr
 1211              		.cfi_endproc
 1212              	.LFE129:
 1213              		.size	can_lld_sleep, .-can_lld_sleep
 1214 000c AFF30080 		.section	.text.can_lld_wakeup,"ax",%progbits
 1215              		.align	2
 1216              		.p2align 4,,15
 1217              		.global	can_lld_wakeup
 1218              		.thumb
 1219              		.thumb_func
 1220              		.type	can_lld_wakeup, %function
 1221              	can_lld_wakeup:
 1222              	.LFB130:
 1223              		.loc 1 402 0
 1224              		.cfi_startproc
 1225              		@ args = 0, pretend = 0, frame = 0
 1226              		@ frame_needed = 0, uses_anonymous_args = 0
 1227              		@ link register save eliminated.
 1228              	.LVL112:
 1229              		.loc 1 404 0
 1230 0000 436B     		ldr	r3, [r0, #52]
 1231 0002 1A68     		ldr	r2, [r3, #0]
 1232 0004 22F00200 		bic	r0, r2, #2
 1233              	.LVL113:
 1234 0008 1860     		str	r0, [r3, #0]
 1235 000a 7047     		bx	lr
 1236              		.cfi_endproc
 1237              	.LFE130:
 1238              		.size	can_lld_wakeup, .-can_lld_wakeup
 1239              		.global	CAND1
 1240 000c AFF30080 		.section	.bss.CAND1,"aw",%nobits
 1241              		.align	2
 1242              		.set	.LANCHOR0,. + 0
 1243              		.type	CAND1, %object
 1244              		.size	CAND1, 56
 1245              	CAND1:
 1246 0000 00000000 		.space	56
 1246      00000000 
 1246      00000000 
 1246      00000000 
 1246      00000000 
 1247              		.text
ARM GAS  C:\Users\DNIEL~1\AppData\Local\Temp\ccvraDsu.s 			page 23


 1248              	.Letext0:
 1249              		.file 2 "c:\\chibistudio\\tools\\gnu tools arm embedded\\4.7 2014q2\\bin\\../lib/gcc/arm-none-eabi
 1250              		.file 3 "../../../ChibiOS/os/ports/GCC/ARMCMx/chtypes.h"
 1251              		.file 4 "../../../ChibiOS/os/kernel/include/chlists.h"
 1252              		.file 5 "../../../ChibiOS/os/kernel/include/chthreads.h"
 1253              		.file 6 "../../../ChibiOS/os/ports/GCC/ARMCMx/chcore_v7m.h"
 1254              		.file 7 "../../../ChibiOS/os/kernel/include/chsem.h"
 1255              		.file 8 "../../../ChibiOS/os/kernel/include/chmtx.h"
 1256              		.file 9 "../../../ChibiOS/os/kernel/include/chevents.h"
 1257              		.file 10 "../../../ChibiOS/os/hal/platforms/STM32F4xx/stm32f4xx.h"
 1258              		.file 11 "../../../ChibiOS/os/hal/include/can.h"
 1259              		.file 12 "../../../ChibiOS/os/hal/platforms/STM32/can_lld.h"
 1260              		.file 13 "../../../ChibiOS/os/ports/common/ARMCMx/CMSIS/include/core_cm4.h"
 1261              		.file 14 "../../../ChibiOS/os/ports/common/ARMCMx/nvic.h"
 1262              		.file 15 "../../../ChibiOS/os/kernel/include/chschd.h"