ARM GAS  C:\Users\DNIEL~1\AppData\Local\Temp\ccRVTa3G.s 			page 1


   1              		.syntax unified
   2              		.cpu cortex-m4
   3              		.fpu softvfp
   4              		.eabi_attribute 20, 1
   5              		.eabi_attribute 21, 1
   6              		.eabi_attribute 23, 3
   7              		.eabi_attribute 24, 1
   8              		.eabi_attribute 25, 1
   9              		.eabi_attribute 26, 1
  10              		.eabi_attribute 30, 2
  11              		.eabi_attribute 18, 4
  12              		.thumb
  13              		.file	"can_comm.c"
  14              		.section	.debug_abbrev,"",%progbits
  15              	.Ldebug_abbrev0:
  16              		.section	.debug_info,"",%progbits
  17              	.Ldebug_info0:
  18              		.section	.debug_line,"",%progbits
  19              	.Ldebug_line0:
  20 0000 66040000 		.text
  20      0200EB02 
  20      00000201 
  20      FB0E0D00 
  20      01010101 
  21              	.Ltext0:
  22              		.cfi_sections	.debug_frame
  23              		.section	.text.can_tx,"ax",%progbits
  24              		.align	2
  25              		.p2align 4,,15
  26              		.thumb
  27              		.thumb_func
  28              		.type	can_tx, %function
  29              	can_tx:
  30              	.LFB119:
  31              		.file 1 "src/can_comm.c"
  32              		.loc 1 176 0
  33              		.cfi_startproc
  34              		@ args = 0, pretend = 0, frame = 0
  35              		@ frame_needed = 0, uses_anonymous_args = 0
  36              	.LVL0:
  37 0000 38B5     		push	{r3, r4, r5, lr}
  38              	.LCFI0:
  39              		.cfi_def_cfa_offset 16
  40              		.loc 1 179 0
  41 0002 164C     		ldr	r4, .L7
  42              		.cfi_offset 14, -4
  43              		.cfi_offset 5, -8
  44              		.cfi_offset 4, -12
  45              		.cfi_offset 3, -16
  46 0004 1648     		ldr	r0, .L7+4
  47              	.LVL1:
  48 0006 A269     		ldr	r2, [r4, #24]
  49              		.loc 1 180 0
  50 0008 164B     		ldr	r3, .L7+8
  51              		.loc 1 179 0
  52 000a 9061     		str	r0, [r2, #24]
  53              		.loc 1 180 0
ARM GAS  C:\Users\DNIEL~1\AppData\Local\Temp\ccRVTa3G.s 			page 2


  54 000c 93F800C0 		ldrb	ip, [r3, #0]	@ zero_extendqisi2
  55              		.loc 1 181 0
  56 0010 5868     		ldr	r0, [r3, #4]
  57 0012 154D     		ldr	r5, .L7+12
  58              		.loc 1 182 0
  59 0014 4CF02001 		orr	r1, ip, #32
  60              		.loc 1 181 0
  61 0018 65F31C00 		bfi	r0, r5, #0, #29
  62              		.loc 1 183 0
  63 001c 01F0EF0C 		and	ip, r1, #239
  64 0020 0825     		movs	r5, #8
  65 0022 65F3030C 		bfi	ip, r5, #0, #4
  66              		.loc 1 181 0
  67 0026 5860     		str	r0, [r3, #4]
  68              		.loc 1 183 0
  69 0028 83F800C0 		strb	ip, [r3, #0]
  70              		.loc 1 189 0
  71 002c 527F     		ldrb	r2, [r2, #29]	@ zero_extendqisi2
  72              		.loc 1 184 0
  73 002e 0F48     		ldr	r0, .L7+16
  74              		.loc 1 185 0
  75 0030 4FF0FF11 		mov	r1, #16711935
  76              		.loc 1 189 0
  77 0034 12F0040F 		tst	r2, #4
  78              		.loc 1 184 0
  79 0038 9860     		str	r0, [r3, #8]
  80              		.loc 1 185 0
  81 003a D960     		str	r1, [r3, #12]
  82              		.loc 1 189 0
  83 003c 0CD1     		bne	.L2
  84              	.L4:
  85              		.loc 1 190 0
  86 003e 6422     		movs	r2, #100
  87 0040 0849     		ldr	r1, .L7+8
  88 0042 0B48     		ldr	r0, .L7+20
  89 0044 FFF7FEFF 		bl	canTransmit
  90              		.loc 1 191 0
  91 0048 6420     		movs	r0, #100
  92 004a FFF7FEFF 		bl	chThdSleep
  93              		.loc 1 189 0
  94 004e A269     		ldr	r2, [r4, #24]
  95 0050 537F     		ldrb	r3, [r2, #29]	@ zero_extendqisi2
  96 0052 13F0040F 		tst	r3, #4
  97 0056 F2D0     		beq	.L4
  98              	.L2:
  99              		.loc 1 194 0
 100 0058 0020     		movs	r0, #0
 101 005a 38BD     		pop	{r3, r4, r5, pc}
 102              	.L8:
 103              		.align	2
 104              	.L7:
 105 005c 00000000 		.word	rlist
 106 0060 00000000 		.word	.LC0
 107 0064 00000000 		.word	.LANCHOR0
 108 0068 67452301 		.word	19088743
 109 006c AA55AA55 		.word	1437226410
 110 0070 00000000 		.word	CAND1
ARM GAS  C:\Users\DNIEL~1\AppData\Local\Temp\ccRVTa3G.s 			page 3


 111              		.cfi_endproc
 112              	.LFE119:
 113              		.size	can_tx, .-can_tx
 114 0074 AFF30080 		.section	.text.can_rx,"ax",%progbits
 114      AFF30080 
 114      AFF30080 
 115              		.align	2
 116              		.p2align 4,,15
 117              		.thumb
 118              		.thumb_func
 119              		.type	can_rx, %function
 120              	can_rx:
 121              	.LFB118:
 122              		.loc 1 85 0
 123              		.cfi_startproc
 124              		@ args = 0, pretend = 0, frame = 16
 125              		@ frame_needed = 0, uses_anonymous_args = 0
 126              	.LVL2:
 127 0000 2DE9F04F 		push	{r4, r5, r6, r7, r8, r9, sl, fp, lr}
 128              	.LCFI1:
 129              		.cfi_def_cfa_offset 36
 130              		.loc 1 91 0
 131 0004 7E4D     		ldr	r5, .L68
 132              		.cfi_offset 14, -4
 133              		.cfi_offset 11, -8
 134              		.cfi_offset 10, -12
 135              		.cfi_offset 9, -16
 136              		.cfi_offset 8, -20
 137              		.cfi_offset 7, -24
 138              		.cfi_offset 6, -28
 139              		.cfi_offset 5, -32
 140              		.cfi_offset 4, -36
 141 0006 7F48     		ldr	r0, .L68+4
 142              	.LVL3:
 143 0008 AC69     		ldr	r4, [r5, #24]
 144              		.loc 1 87 0
 145 000a 7F4A     		ldr	r2, .L68+8
 146              		.loc 1 85 0
 147 000c 7F4B     		ldr	r3, .L68+12
 148              		.loc 1 91 0
 149 000e A061     		str	r0, [r4, #24]
 150              		.loc 1 85 0
 151 0010 85B0     		sub	sp, sp, #20
 152              	.LCFI2:
 153              		.cfi_def_cfa_offset 56
 154              		.loc 1 87 0
 155 0012 0021     		movs	r1, #0
 156 0014 1160     		str	r1, [r2, #0]
 157              		.loc 1 92 0
 158 0016 7E48     		ldr	r0, .L68+16
 159 0018 6946     		mov	r1, sp
 160 001a 0122     		movs	r2, #1
 161              		.loc 1 85 0
 162 001c 03F50054 		add	r4, r3, #8192
 163              		.loc 1 92 0
 164 0020 FFF7FEFF 		bl	chEvtRegisterMask
 165              		.loc 1 85 0
ARM GAS  C:\Users\DNIEL~1\AppData\Local\Temp\ccRVTa3G.s 			page 4


 166 0024 2546     		mov	r5, r4
 167 0026 0A34     		adds	r4, r4, #10
 168              	.L48:
 169              		.loc 1 93 0 discriminator 1
 170 0028 754F     		ldr	r7, .L68
 171 002a B969     		ldr	r1, [r7, #24]
 172 002c 91F81DC0 		ldrb	ip, [r1, #29]	@ zero_extendqisi2
 173 0030 1CF0040F 		tst	ip, #4
 174 0034 54D1     		bne	.L61
 175              	.L26:
 176              		.loc 1 94 0
 177 0036 4FF0FF30 		mov	r0, #-1
 178 003a 6421     		movs	r1, #100
 179 003c FFF7FEFF 		bl	chEvtWaitAnyTimeout
 180 0040 0028     		cmp	r0, #0
 181 0042 F1D0     		beq	.L48
 182              		.loc 1 96 0
 183 0044 7349     		ldr	r1, .L68+20
 184 0046 7448     		ldr	r0, .L68+24
 185 0048 724E     		ldr	r6, .L68+20
 186 004a 0022     		movs	r2, #0
 187 004c FFF7FEFF 		bl	canReceive
 188 0050 0146     		mov	r1, r0
 189 0052 0028     		cmp	r0, #0
 190 0054 E8D1     		bne	.L48
 191              	.L25:
 192              		.loc 1 98 0
 193 0056 B368     		ldr	r3, [r6, #8]
 194 0058 704F     		ldr	r7, .L68+28
 195 005a C3F31C00 		ubfx	r0, r3, #0, #29
 196 005e C0F30F23 		ubfx	r3, r0, #8, #16
 197 0062 3B80     		strh	r3, [r7, #0]	@ movhi
 198              		.loc 1 99 0
 199 0064 6E4F     		ldr	r7, .L68+32
 200              		.loc 1 101 0
 201 0066 A3F1100C 		sub	ip, r3, #16
 202              		.loc 1 99 0
 203 006a C0B2     		uxtb	r0, r0
 204              		.loc 1 101 0
 205 006c 1FFA8CF2 		uxth	r2, ip
 206              		.loc 1 99 0
 207 0070 3880     		strh	r0, [r7, #0]	@ movhi
 208              		.loc 1 104 0
 209 0072 A3F1200E 		sub	lr, r3, #32
 210 0076 6B4F     		ldr	r7, .L68+36
 211              		.loc 1 101 0
 212 0078 0F2A     		cmp	r2, #15
 213              		.loc 1 104 0
 214 007a 1FFA8EFC 		uxth	ip, lr
 215              		.loc 1 102 0
 216 007e 98BF     		it	ls
 217 0080 3970     		strbls	r1, [r7, #0]
 218              		.loc 1 104 0
 219 0082 BCF10F0F 		cmp	ip, #15
 220 0086 01D8     		bhi	.L14
 221              		.loc 1 105 0
 222 0088 0121     		movs	r1, #1
ARM GAS  C:\Users\DNIEL~1\AppData\Local\Temp\ccRVTa3G.s 			page 5


 223 008a 3970     		strb	r1, [r7, #0]
 224              	.L14:
 225              		.loc 1 107 0
 226 008c A3F13002 		sub	r2, r3, #48
 227 0090 1FFA82FE 		uxth	lr, r2
 228 0094 BEF10F0F 		cmp	lr, #15
 229 0098 01D8     		bhi	.L15
 230              		.loc 1 108 0
 231 009a 0221     		movs	r1, #2
 232 009c 3970     		strb	r1, [r7, #0]
 233              	.L15:
 234              		.loc 1 110 0
 235 009e A3F1400E 		sub	lr, r3, #64
 236 00a2 1FFA8EFC 		uxth	ip, lr
 237 00a6 BCF11F0F 		cmp	ip, #31
 238 00aa 08D8     		bhi	.L60
 239              		.loc 1 111 0
 240 00ac 0322     		movs	r2, #3
 241              		.loc 1 133 0
 242 00ae 0128     		cmp	r0, #1
 243              		.loc 1 111 0
 244 00b0 3A70     		strb	r2, [r7, #0]
 245              		.loc 1 133 0
 246 00b2 1DD0     		beq	.L62
 247              		.loc 1 147 0
 248 00b4 0228     		cmp	r0, #2
 249 00b6 65D0     		beq	.L63
 250              	.L22:
 251              		.loc 1 156 0
 252 00b8 534A     		ldr	r2, .L68+8
 253 00ba 0823     		movs	r3, #8
 254 00bc 1360     		str	r3, [r2, #0]
 255              	.L60:
 256              		.loc 1 157 0
 257 00be 0420     		movs	r0, #4
 258 00c0 3870     		strb	r0, [r7, #0]
 259              		.loc 1 96 0
 260 00c2 5449     		ldr	r1, .L68+20
 261 00c4 5448     		ldr	r0, .L68+24
 262 00c6 0022     		movs	r2, #0
 263 00c8 FFF7FEFF 		bl	canReceive
 264 00cc 0146     		mov	r1, r0
 265 00ce 0028     		cmp	r0, #0
 266 00d0 C1D0     		beq	.L25
 267              		.loc 1 93 0
 268 00d2 4B4F     		ldr	r7, .L68
 269 00d4 B969     		ldr	r1, [r7, #24]
 270 00d6 91F81DC0 		ldrb	ip, [r1, #29]	@ zero_extendqisi2
 271 00da 1CF0040F 		tst	ip, #4
 272 00de AAD0     		beq	.L26
 273              	.L61:
 274              		.loc 1 168 0
 275 00e0 4B48     		ldr	r0, .L68+16
 276 00e2 6946     		mov	r1, sp
 277 00e4 FFF7FEFF 		bl	chEvtUnregister
 278              		.loc 1 170 0
 279 00e8 0020     		movs	r0, #0
ARM GAS  C:\Users\DNIEL~1\AppData\Local\Temp\ccRVTa3G.s 			page 6


 280 00ea 05B0     		add	sp, sp, #20
 281 00ec BDE8F08F 		pop	{r4, r5, r6, r7, r8, r9, sl, fp, pc}
 282              	.L62:
 283              		.loc 1 135 0
 284 00f0 4D49     		ldr	r1, .L68+40
 285              		.loc 1 137 0
 286 00f2 484A     		ldr	r2, .L68+20
 287              		.loc 1 135 0
 288 00f4 51F80A1C 		ldr	r1, [r1, #-10]
 289              		.loc 1 137 0
 290 00f8 92F80CE0 		ldrb	lr, [r2, #12]	@ zero_extendqisi2
 291              		.loc 1 138 0
 292 00fc 92F80DC0 		ldrb	ip, [r2, #13]	@ zero_extendqisi2
 293              		.loc 1 139 0
 294 0100 92F80E80 		ldrb	r8, [r2, #14]	@ zero_extendqisi2
 295              		.loc 1 140 0
 296 0104 92F80F90 		ldrb	r9, [r2, #15]	@ zero_extendqisi2
 297              		.loc 1 141 0
 298 0108 B2F810A0 		ldrh	sl, [r2, #16]
 299              		.loc 1 142 0
 300 010c B2F812B0 		ldrh	fp, [r2, #18]
 301 0110 454A     		ldr	r2, .L68+40
 302              		.loc 1 135 0
 303 0112 9942     		cmp	r1, r3
 304 0114 5AD0     		beq	.L64
 305              	.L31:
 306              		.loc 1 142 0
 307 0116 454A     		ldr	r2, .L68+44
 308 0118 88B1     		cbz	r0, .L21
 309              		.loc 1 135 0
 310 011a 52F80A0C 		ldr	r0, [r2, #-10]
 311 011e 9842     		cmp	r0, r3
 312 0120 61D0     		beq	.L65
 313              	.L33:
 314              	.LVL4:
 315              		.loc 1 142 0
 316 0122 1032     		adds	r2, r2, #16
 317              		.loc 1 134 0
 318 0124 A242     		cmp	r2, r4
 319 0126 0AD1     		bne	.L21
 320 0128 C6E7     		b	.L22
 321              	.L20:
 322              		.loc 1 142 0
 323 012a 02F11001 		add	r1, r2, #16
 324              		.loc 1 135 0
 325 012e 51F80A0C 		ldr	r0, [r1, #-10]
 326 0132 9842     		cmp	r0, r3
 327 0134 19D0     		beq	.L66
 328              	.L36:
 329              		.loc 1 142 0
 330 0136 01F11002 		add	r2, r1, #16
 331              		.loc 1 134 0
 332 013a A242     		cmp	r2, r4
 333 013c BCD0     		beq	.L22
 334              	.L21:
 335              		.loc 1 135 0
 336 013e 52F80A0C 		ldr	r0, [r2, #-10]
ARM GAS  C:\Users\DNIEL~1\AppData\Local\Temp\ccRVTa3G.s 			page 7


 337 0142 9842     		cmp	r0, r3
 338 0144 F1D1     		bne	.L20
 339              		.loc 1 142 0
 340 0146 02F11001 		add	r1, r2, #16
 341              		.loc 1 137 0
 342 014a 02F806EC 		strb	lr, [r2, #-6]
 343              		.loc 1 135 0
 344 014e 51F80A0C 		ldr	r0, [r1, #-10]
 345              		.loc 1 138 0
 346 0152 02F805CC 		strb	ip, [r2, #-5]
 347              		.loc 1 135 0
 348 0156 9842     		cmp	r0, r3
 349              		.loc 1 139 0
 350 0158 02F8048C 		strb	r8, [r2, #-4]
 351              		.loc 1 140 0
 352 015c 02F8039C 		strb	r9, [r2, #-3]
 353              		.loc 1 141 0
 354 0160 A2F800A0 		strh	sl, [r2, #0]	@ movhi
 355              		.loc 1 142 0
 356 0164 A2F802B0 		strh	fp, [r2, #2]	@ movhi
 357              		.loc 1 135 0
 358 0168 E5D1     		bne	.L36
 359              	.L66:
 360              		.loc 1 137 0
 361 016a 01F806EC 		strb	lr, [r1, #-6]
 362              		.loc 1 138 0
 363 016e 01F805CC 		strb	ip, [r1, #-5]
 364              		.loc 1 139 0
 365 0172 01F8048C 		strb	r8, [r1, #-4]
 366              		.loc 1 140 0
 367 0176 01F8039C 		strb	r9, [r1, #-3]
 368              		.loc 1 141 0
 369 017a A2F810A0 		strh	sl, [r2, #16]	@ movhi
 370              		.loc 1 142 0
 371 017e A1F802B0 		strh	fp, [r1, #2]	@ movhi
 372 0182 D8E7     		b	.L36
 373              	.L63:
 374              		.loc 1 149 0
 375 0184 2148     		ldr	r0, .L68+12
 376              		.loc 1 151 0
 377 0186 2349     		ldr	r1, .L68+20
 378              		.loc 1 149 0
 379 0188 0268     		ldr	r2, [r0, #0]
 380              		.loc 1 152 0
 381 018a B1F80EE0 		ldrh	lr, [r1, #14]
 382              		.loc 1 151 0
 383 018e 8889     		ldrh	r0, [r1, #12]
 384              		.loc 1 152 0
 385 0190 1E49     		ldr	r1, .L68+12
 386              		.loc 1 149 0
 387 0192 9342     		cmp	r3, r2
 388 0194 16D0     		beq	.L67
 389              	.L38:
 390 0196 0121     		movs	r1, #1
 391              		.loc 1 152 0
 392 0198 254A     		ldr	r2, .L68+48
 393 019a 29B1     		cbz	r1, .L24
ARM GAS  C:\Users\DNIEL~1\AppData\Local\Temp\ccRVTa3G.s 			page 8


 394              		.loc 1 149 0
 395 019c 1168     		ldr	r1, [r2, #0]
 396 019e 8B42     		cmp	r3, r1
 397 01a0 0CD0     		beq	.L55
 398              	.L43:
 399              		.loc 1 152 0
 400 01a2 1032     		adds	r2, r2, #16
 401              		.loc 1 148 0
 402 01a4 AA42     		cmp	r2, r5
 403 01a6 87D0     		beq	.L22
 404              	.L24:
 405              		.loc 1 149 0
 406 01a8 1168     		ldr	r1, [r2, #0]
 407 01aa 8B42     		cmp	r3, r1
 408 01ac 1169     		ldr	r1, [r2, #16]
 409              		.loc 1 151 0
 410 01ae 04BF     		itt	eq
 411 01b0 1081     		strheq	r0, [r2, #8]	@ movhi
 412              		.loc 1 152 0
 413 01b2 A2F80EE0 		strheq	lr, [r2, #14]	@ movhi
 414 01b6 1032     		adds	r2, r2, #16
 415              		.loc 1 149 0
 416 01b8 8B42     		cmp	r3, r1
 417 01ba F2D1     		bne	.L43
 418              	.L55:
 419              		.loc 1 151 0
 420 01bc 1081     		strh	r0, [r2, #8]	@ movhi
 421              		.loc 1 152 0
 422 01be A2F80EE0 		strh	lr, [r2, #14]	@ movhi
 423 01c2 EEE7     		b	.L43
 424              	.L67:
 425              		.loc 1 151 0
 426 01c4 0881     		strh	r0, [r1, #8]	@ movhi
 427              		.loc 1 152 0
 428 01c6 A1F80EE0 		strh	lr, [r1, #14]	@ movhi
 429 01ca E4E7     		b	.L38
 430              	.L64:
 431              		.loc 1 137 0
 432 01cc 02F806EC 		strb	lr, [r2, #-6]
 433              		.loc 1 138 0
 434 01d0 02F805CC 		strb	ip, [r2, #-5]
 435              		.loc 1 139 0
 436 01d4 02F8048C 		strb	r8, [r2, #-4]
 437              		.loc 1 140 0
 438 01d8 02F8039C 		strb	r9, [r2, #-3]
 439              		.loc 1 141 0
 440 01dc A2F800A0 		strh	sl, [r2, #0]	@ movhi
 441              		.loc 1 142 0
 442 01e0 A2F802B0 		strh	fp, [r2, #2]	@ movhi
 443 01e4 97E7     		b	.L31
 444              	.L65:
 445              		.loc 1 137 0
 446 01e6 02F806EC 		strb	lr, [r2, #-6]
 447              		.loc 1 138 0
 448 01ea 02F805CC 		strb	ip, [r2, #-5]
 449              		.loc 1 139 0
 450 01ee 02F8048C 		strb	r8, [r2, #-4]
ARM GAS  C:\Users\DNIEL~1\AppData\Local\Temp\ccRVTa3G.s 			page 9


 451              		.loc 1 140 0
 452 01f2 02F8039C 		strb	r9, [r2, #-3]
 453              		.loc 1 141 0
 454 01f6 A2F800A0 		strh	sl, [r2, #0]	@ movhi
 455              		.loc 1 142 0
 456 01fa A2F802B0 		strh	fp, [r2, #2]	@ movhi
 457 01fe 90E7     		b	.L33
 458              	.L69:
 459              		.align	2
 460              	.L68:
 461 0200 00000000 		.word	rlist
 462 0204 0C000000 		.word	.LC1
 463 0208 00000000 		.word	.LANCHOR1
 464 020c 00000000 		.word	.LANCHOR6
 465 0210 20000000 		.word	CAND1+32
 466 0214 00000000 		.word	.LANCHOR2
 467 0218 00000000 		.word	CAND1
 468 021c 00000000 		.word	.LANCHOR3
 469 0220 00000000 		.word	.LANCHOR4
 470 0224 00000000 		.word	.LANCHOR5
 471 0228 0A000000 		.word	.LANCHOR6+10
 472 022c 1A000000 		.word	.LANCHOR6+26
 473 0230 10000000 		.word	.LANCHOR6+16
 474              		.cfi_endproc
 475              	.LFE118:
 476              		.size	can_rx, .-can_rx
 477 0234 AFF30080 		.section	.text.can_commInit,"ax",%progbits
 477      AFF30080 
 477      AFF30080 
 478              		.align	2
 479              		.p2align 4,,15
 480              		.global	can_commInit
 481              		.thumb
 482              		.thumb_func
 483              		.type	can_commInit, %function
 484              	can_commInit:
 485              	.LFB120:
 486              		.loc 1 209 0
 487              		.cfi_startproc
 488              		@ args = 0, pretend = 0, frame = 0
 489              		@ frame_needed = 0, uses_anonymous_args = 0
 490 0000 10B5     		push	{r4, lr}
 491              	.LCFI3:
 492              		.cfi_def_cfa_offset 8
 493              		.loc 1 210 0
 494 0002 0C48     		ldr	r0, .L71
 495 0004 0C49     		ldr	r1, .L71+4
 496              		.loc 1 209 0
 497 0006 82B0     		sub	sp, sp, #8
 498              	.LCFI4:
 499              		.cfi_def_cfa_offset 16
 500              		.loc 1 210 0
 501              		.cfi_offset 14, -4
 502              		.cfi_offset 4, -8
 503 0008 FFF7FEFF 		bl	canStart
 504              		.loc 1 211 0
 505 000c 0024     		movs	r4, #0
ARM GAS  C:\Users\DNIEL~1\AppData\Local\Temp\ccRVTa3G.s 			page 10


 506 000e 4722     		movs	r2, #71
 507 0010 4FF4D871 		mov	r1, #432
 508 0014 094B     		ldr	r3, .L71+8
 509 0016 0A48     		ldr	r0, .L71+12
 510 0018 0094     		str	r4, [sp, #0]
 511 001a FFF7FEFF 		bl	chThdCreateStatic
 512              		.loc 1 212 0
 513 001e 094B     		ldr	r3, .L71+16
 514 0020 0948     		ldr	r0, .L71+20
 515 0022 0094     		str	r4, [sp, #0]
 516 0024 4FF4D871 		mov	r1, #432
 517 0028 4722     		movs	r2, #71
 518 002a FFF7FEFF 		bl	chThdCreateStatic
 519              		.loc 1 213 0
 520 002e 02B0     		add	sp, sp, #8
 521 0030 10BD     		pop	{r4, pc}
 522              	.L72:
 523 0032 00BF     		.align	2
 524              	.L71:
 525 0034 00000000 		.word	CAND1
 526 0038 00000000 		.word	.LANCHOR7
 527 003c 00000000 		.word	can_rx
 528 0040 00000000 		.word	.LANCHOR8
 529 0044 00000000 		.word	can_tx
 530 0048 00000000 		.word	.LANCHOR9
 531              		.cfi_endproc
 532              	.LFE120:
 533              		.size	can_commInit, .-can_commInit
 534 004c AFF30080 		.section	.text.cmd_can_commvalues,"ax",%progbits
 535              		.align	2
 536              		.p2align 4,,15
 537              		.global	cmd_can_commvalues
 538              		.thumb
 539              		.thumb_func
 540              		.type	cmd_can_commvalues, %function
 541              	cmd_can_commvalues:
 542              	.LFB121:
 543              		.loc 1 215 0
 544              		.cfi_startproc
 545              		@ args = 0, pretend = 0, frame = 0
 546              		@ frame_needed = 0, uses_anonymous_args = 0
 547              	.LVL5:
 548 0000 38B5     		push	{r3, r4, r5, lr}
 549              	.LCFI5:
 550              		.cfi_def_cfa_offset 16
 551              		.loc 1 219 0
 552 0002 1749     		ldr	r1, .L76
 553              	.LVL6:
 554              		.loc 1 223 0
 555 0004 174D     		ldr	r5, .L76+4
 556              		.cfi_offset 14, -4
 557              		.cfi_offset 5, -8
 558              		.cfi_offset 4, -12
 559              		.cfi_offset 3, -16
 560              		.loc 1 215 0
 561 0006 0446     		mov	r4, r0
 562              		.loc 1 219 0
ARM GAS  C:\Users\DNIEL~1\AppData\Local\Temp\ccRVTa3G.s 			page 11


 563 0008 FFF7FEFF 		bl	chprintf
 564              	.LVL7:
 565              		.loc 1 220 0
 566 000c 2046     		mov	r0, r4
 567 000e 1649     		ldr	r1, .L76+8
 568 0010 FFF7FEFF 		bl	chprintf
 569              		.loc 1 221 0
 570 0014 1AE0     		b	.L74
 571              	.L75:
 572              		.loc 1 222 0
 573 0016 0022     		movs	r2, #0
 574 0018 1346     		mov	r3, r2
 575 001a 2046     		mov	r0, r4
 576 001c 1349     		ldr	r1, .L76+12
 577 001e FFF7FEFF 		bl	chprintf
 578              		.loc 1 223 0
 579 0022 6A68     		ldr	r2, [r5, #4]
 580 0024 1249     		ldr	r1, .L76+16
 581 0026 22F06042 		bic	r2, r2, #-536870912
 582 002a 2046     		mov	r0, r4
 583 002c FFF7FEFF 		bl	chprintf
 584              		.loc 1 224 0
 585 0030 2046     		mov	r0, r4
 586 0032 1049     		ldr	r1, .L76+20
 587 0034 AA68     		ldr	r2, [r5, #8]
 588 0036 FFF7FEFF 		bl	chprintf
 589              		.loc 1 225 0
 590 003a 2046     		mov	r0, r4
 591 003c 0E49     		ldr	r1, .L76+24
 592 003e EA68     		ldr	r2, [r5, #12]
 593 0040 FFF7FEFF 		bl	chprintf
 594              		.loc 1 227 0
 595 0044 4FF47A70 		mov	r0, #1000
 596 0048 FFF7FEFF 		bl	chThdSleep
 597              	.L74:
 598              		.loc 1 221 0 discriminator 1
 599 004c 2168     		ldr	r1, [r4, #0]
 600 004e 2046     		mov	r0, r4
 601 0050 4B69     		ldr	r3, [r1, #20]
 602 0052 0021     		movs	r1, #0
 603 0054 9847     		blx	r3
 604 0056 B0F1FF3F 		cmp	r0, #-1
 605 005a DCD0     		beq	.L75
 606              		.loc 1 229 0
 607 005c 38BD     		pop	{r3, r4, r5, pc}
 608              	.L77:
 609 005e 00BF     		.align	2
 610              	.L76:
 611 0060 18000000 		.word	.LC2
 612 0064 00000000 		.word	.LANCHOR0
 613 0068 1C000000 		.word	.LC3
 614 006c 24000000 		.word	.LC4
 615 0070 30000000 		.word	.LC5
 616 0074 40000000 		.word	.LC6
 617 0078 54000000 		.word	.LC7
 618              		.cfi_endproc
 619              	.LFE121:
ARM GAS  C:\Users\DNIEL~1\AppData\Local\Temp\ccRVTa3G.s 			page 12


 620              		.size	cmd_can_commvalues, .-cmd_can_commvalues
 621 007c AFF30080 		.section	.text.cmd_canmppttest,"ax",%progbits
 622              		.align	2
 623              		.p2align 4,,15
 624              		.global	cmd_canmppttest
 625              		.thumb
 626              		.thumb_func
 627              		.type	cmd_canmppttest, %function
 628              	cmd_canmppttest:
 629              	.LFB122:
 630              		.loc 1 231 0
 631              		.cfi_startproc
 632              		@ args = 0, pretend = 0, frame = 0
 633              		@ frame_needed = 0, uses_anonymous_args = 0
 634              	.LVL8:
 635 0000 F8B5     		push	{r3, r4, r5, r6, r7, lr}
 636              	.LCFI6:
 637              		.cfi_def_cfa_offset 24
 638              		.loc 1 235 0
 639 0002 3A49     		ldr	r1, .L81
 640              	.LVL9:
 641              		.loc 1 241 0
 642 0004 3A4E     		ldr	r6, .L81+4
 643              		.cfi_offset 14, -4
 644              		.cfi_offset 7, -8
 645              		.cfi_offset 6, -12
 646              		.cfi_offset 5, -16
 647              		.cfi_offset 4, -20
 648              		.cfi_offset 3, -24
 649              		.loc 1 249 0
 650 0006 3B4D     		ldr	r5, .L81+8
 651              		.loc 1 257 0
 652 0008 3B4F     		ldr	r7, .L81+12
 653              		.loc 1 231 0
 654 000a 0446     		mov	r4, r0
 655              		.loc 1 235 0
 656 000c FFF7FEFF 		bl	chprintf
 657              	.LVL10:
 658              		.loc 1 236 0
 659 0010 2046     		mov	r0, r4
 660 0012 3A49     		ldr	r1, .L81+16
 661 0014 FFF7FEFF 		bl	chprintf
 662              		.loc 1 237 0
 663 0018 5FE0     		b	.L79
 664              	.L80:
 665              		.loc 1 238 0
 666 001a 0022     		movs	r2, #0
 667 001c 1346     		mov	r3, r2
 668 001e 3849     		ldr	r1, .L81+20
 669 0020 2046     		mov	r0, r4
 670 0022 FFF7FEFF 		bl	chprintf
 671              		.loc 1 240 0
 672 0026 2046     		mov	r0, r4
 673 0028 3649     		ldr	r1, .L81+24
 674 002a FFF7FEFF 		bl	chprintf
 675              		.loc 1 241 0
 676 002e 7368     		ldr	r3, [r6, #4]
ARM GAS  C:\Users\DNIEL~1\AppData\Local\Temp\ccRVTa3G.s 			page 13


 677 0030 3549     		ldr	r1, .L81+28
 678 0032 23F06042 		bic	r2, r3, #-536870912
 679 0036 2046     		mov	r0, r4
 680 0038 FFF7FEFF 		bl	chprintf
 681              		.loc 1 242 0
 682 003c 2046     		mov	r0, r4
 683 003e 3349     		ldr	r1, .L81+32
 684 0040 B268     		ldr	r2, [r6, #8]
 685 0042 FFF7FEFF 		bl	chprintf
 686              		.loc 1 243 0
 687 0046 F268     		ldr	r2, [r6, #12]
 688 0048 3149     		ldr	r1, .L81+36
 689 004a 2046     		mov	r0, r4
 690 004c FFF7FEFF 		bl	chprintf
 691              		.loc 1 244 0
 692 0050 2046     		mov	r0, r4
 693 0052 3049     		ldr	r1, .L81+40
 694 0054 FFF7FEFF 		bl	chprintf
 695              		.loc 1 248 0
 696 0058 2046     		mov	r0, r4
 697 005a 2F49     		ldr	r1, .L81+44
 698 005c FFF7FEFF 		bl	chprintf
 699              		.loc 1 249 0
 700 0060 AA68     		ldr	r2, [r5, #8]
 701 0062 2E49     		ldr	r1, .L81+48
 702 0064 22F06042 		bic	r2, r2, #-536870912
 703 0068 2046     		mov	r0, r4
 704 006a FFF7FEFF 		bl	chprintf
 705              		.loc 1 250 0
 706 006e 2046     		mov	r0, r4
 707 0070 2B49     		ldr	r1, .L81+52
 708 0072 2A7B     		ldrb	r2, [r5, #12]	@ zero_extendqisi2
 709 0074 FFF7FEFF 		bl	chprintf
 710              		.loc 1 251 0
 711 0078 2046     		mov	r0, r4
 712 007a 2A49     		ldr	r1, .L81+56
 713 007c 6A7B     		ldrb	r2, [r5, #13]	@ zero_extendqisi2
 714 007e FFF7FEFF 		bl	chprintf
 715              		.loc 1 252 0
 716 0082 2046     		mov	r0, r4
 717 0084 2849     		ldr	r1, .L81+60
 718 0086 AA7B     		ldrb	r2, [r5, #14]	@ zero_extendqisi2
 719 0088 FFF7FEFF 		bl	chprintf
 720              		.loc 1 253 0
 721 008c 2046     		mov	r0, r4
 722 008e 2749     		ldr	r1, .L81+64
 723 0090 EA7B     		ldrb	r2, [r5, #15]	@ zero_extendqisi2
 724 0092 FFF7FEFF 		bl	chprintf
 725              		.loc 1 254 0
 726 0096 2046     		mov	r0, r4
 727 0098 2549     		ldr	r1, .L81+68
 728 009a 2A8A     		ldrh	r2, [r5, #16]
 729 009c FFF7FEFF 		bl	chprintf
 730              		.loc 1 255 0
 731 00a0 6A8A     		ldrh	r2, [r5, #18]
 732 00a2 2449     		ldr	r1, .L81+72
 733 00a4 2046     		mov	r0, r4
ARM GAS  C:\Users\DNIEL~1\AppData\Local\Temp\ccRVTa3G.s 			page 14


 734 00a6 FFF7FEFF 		bl	chprintf
 735              		.loc 1 256 0
 736 00aa 2046     		mov	r0, r4
 737 00ac 1949     		ldr	r1, .L81+40
 738 00ae FFF7FEFF 		bl	chprintf
 739              		.loc 1 257 0
 740 00b2 2046     		mov	r0, r4
 741 00b4 2049     		ldr	r1, .L81+76
 742 00b6 3A68     		ldr	r2, [r7, #0]
 743 00b8 FFF7FEFF 		bl	chprintf
 744              		.loc 1 258 0
 745 00bc 1F48     		ldr	r0, .L81+80
 746 00be 2049     		ldr	r1, .L81+84
 747 00c0 0288     		ldrh	r2, [r0, #0]
 748 00c2 2046     		mov	r0, r4
 749 00c4 FFF7FEFF 		bl	chprintf
 750              		.loc 1 259 0
 751 00c8 1E4B     		ldr	r3, .L81+88
 752 00ca 1F49     		ldr	r1, .L81+92
 753 00cc 1A88     		ldrh	r2, [r3, #0]
 754 00ce 2046     		mov	r0, r4
 755 00d0 FFF7FEFF 		bl	chprintf
 756              		.loc 1 261 0
 757 00d4 FA20     		movs	r0, #250
 758 00d6 FFF7FEFF 		bl	chThdSleep
 759              	.L79:
 760              		.loc 1 237 0 discriminator 1
 761 00da 2168     		ldr	r1, [r4, #0]
 762 00dc 2046     		mov	r0, r4
 763 00de 4A69     		ldr	r2, [r1, #20]
 764 00e0 0021     		movs	r1, #0
 765 00e2 9047     		blx	r2
 766 00e4 B0F1FF3F 		cmp	r0, #-1
 767 00e8 97D0     		beq	.L80
 768              		.loc 1 263 0
 769 00ea F8BD     		pop	{r3, r4, r5, r6, r7, pc}
 770              	.L82:
 771              		.align	2
 772              	.L81:
 773 00ec 18000000 		.word	.LC2
 774 00f0 00000000 		.word	.LANCHOR0
 775 00f4 00000000 		.word	.LANCHOR2
 776 00f8 00000000 		.word	.LANCHOR1
 777 00fc 1C000000 		.word	.LC3
 778 0100 24000000 		.word	.LC4
 779 0104 68000000 		.word	.LC8
 780 0108 90000000 		.word	.LC9
 781 010c B0000000 		.word	.LC10
 782 0110 D0000000 		.word	.LC11
 783 0114 F0000000 		.word	.LC12
 784 0118 F4000000 		.word	.LC13
 785 011c 1C010000 		.word	.LC14
 786 0120 3C010000 		.word	.LC15
 787 0124 5C010000 		.word	.LC16
 788 0128 7C010000 		.word	.LC17
 789 012c 9C010000 		.word	.LC18
 790 0130 BC010000 		.word	.LC19
ARM GAS  C:\Users\DNIEL~1\AppData\Local\Temp\ccRVTa3G.s 			page 15


 791 0134 DC010000 		.word	.LC20
 792 0138 FC010000 		.word	.LC21
 793 013c 00000000 		.word	.LANCHOR3
 794 0140 1C020000 		.word	.LC22
 795 0144 00000000 		.word	.LANCHOR4
 796 0148 3C020000 		.word	.LC23
 797              		.cfi_endproc
 798              	.LFE122:
 799              		.size	cmd_canmppttest, .-cmd_canmppttest
 800 014c AFF30080 		.section	.text.cmd_candata,"ax",%progbits
 801              		.align	2
 802              		.p2align 4,,15
 803              		.global	cmd_candata
 804              		.thumb
 805              		.thumb_func
 806              		.type	cmd_candata, %function
 807              	cmd_candata:
 808              	.LFB123:
 809              		.loc 1 265 0
 810              		.cfi_startproc
 811              		@ args = 0, pretend = 0, frame = 0
 812              		@ frame_needed = 0, uses_anonymous_args = 0
 813              	.LVL11:
 814 0000 2DE9F047 		push	{r4, r5, r6, r7, r8, r9, sl, lr}
 815              	.LCFI7:
 816              		.cfi_def_cfa_offset 32
 817              		.loc 1 265 0
 818 0004 0446     		mov	r4, r0
 819              		.cfi_offset 14, -4
 820              		.cfi_offset 10, -8
 821              		.cfi_offset 9, -12
 822              		.cfi_offset 8, -16
 823              		.cfi_offset 7, -20
 824              		.cfi_offset 6, -24
 825              		.cfi_offset 5, -28
 826              		.cfi_offset 4, -32
 827 0006 8A46     		mov	sl, r1
 828              		.loc 1 272 0
 829 0008 3749     		ldr	r1, .L87
 830              	.LVL12:
 831              	.LBB2:
 832              		.loc 1 282 0
 833 000a DFF81891 		ldr	r9, .L87+60
 834              	.LBE2:
 835              		.loc 1 265 0
 836 000e 9046     		mov	r8, r2
 837              		.loc 1 272 0
 838 0010 FFF7FEFF 		bl	chprintf
 839              	.LVL13:
 840              		.loc 1 273 0
 841 0014 2046     		mov	r0, r4
 842 0016 3549     		ldr	r1, .L87+4
 843 0018 FFF7FEFF 		bl	chprintf
 844              		.loc 1 274 0
 845 001c 54E0     		b	.L84
 846              	.L86:
 847              	.LBB3:
ARM GAS  C:\Users\DNIEL~1\AppData\Local\Temp\ccRVTa3G.s 			page 16


 848              		.loc 1 275 0
 849 001e 0022     		movs	r2, #0
 850 0020 2046     		mov	r0, r4
 851 0022 3349     		ldr	r1, .L87+8
 852 0024 1346     		mov	r3, r2
 853 0026 FFF7FEFF 		bl	chprintf
 854              		.loc 1 277 0
 855 002a BAF1020F 		cmp	sl, #2
 856 002e 55D1     		bne	.L85
 857              		.loc 1 277 0 is_stmt 0 discriminator 1
 858 0030 D8F80000 		ldr	r0, [r8, #0]
 859 0034 2F49     		ldr	r1, .L87+12
 860 0036 FFF7FEFF 		bl	strcmp
 861 003a 0028     		cmp	r0, #0
 862 003c 4ED1     		bne	.L85
 863              		.loc 1 279 0 is_stmt 1
 864 003e D8F80400 		ldr	r0, [r8, #4]
 865 0042 FFF7FEFF 		bl	atol
 866              	.LVL14:
 867              		.loc 1 281 0
 868 0046 05B2     		sxth	r5, r0
 869 0048 2A46     		mov	r2, r5
 870 004a 2046     		mov	r0, r4
 871              	.LVL15:
 872 004c 2A49     		ldr	r1, .L87+16
 873 004e 2023     		movs	r3, #32
 874 0050 FFF7FEFF 		bl	chprintf
 875              		.loc 1 282 0
 876 0054 2B01     		lsls	r3, r5, #4
 877 0056 09EB0306 		add	r6, r9, r3
 878 005a 2A46     		mov	r2, r5
 879 005c 59F80330 		ldr	r3, [r9, r3]
 880 0060 2649     		ldr	r1, .L87+20
 881 0062 2046     		mov	r0, r4
 882 0064 FFF7FEFF 		bl	chprintf
 883              		.loc 1 283 0
 884 0068 2046     		mov	r0, r4
 885 006a 2A46     		mov	r2, r5
 886 006c 3379     		ldrb	r3, [r6, #4]	@ zero_extendqisi2
 887 006e 2449     		ldr	r1, .L87+24
 888 0070 FFF7FEFF 		bl	chprintf
 889              		.loc 1 284 0
 890 0074 2046     		mov	r0, r4
 891 0076 2A46     		mov	r2, r5
 892 0078 7379     		ldrb	r3, [r6, #5]	@ zero_extendqisi2
 893 007a 2249     		ldr	r1, .L87+28
 894 007c FFF7FEFF 		bl	chprintf
 895              		.loc 1 285 0
 896 0080 2046     		mov	r0, r4
 897 0082 2A46     		mov	r2, r5
 898 0084 B379     		ldrb	r3, [r6, #6]	@ zero_extendqisi2
 899 0086 2049     		ldr	r1, .L87+32
 900 0088 FFF7FEFF 		bl	chprintf
 901              		.loc 1 286 0
 902 008c 2046     		mov	r0, r4
 903 008e 2A46     		mov	r2, r5
 904 0090 F379     		ldrb	r3, [r6, #7]	@ zero_extendqisi2
ARM GAS  C:\Users\DNIEL~1\AppData\Local\Temp\ccRVTa3G.s 			page 17


 905 0092 1E49     		ldr	r1, .L87+36
 906 0094 FFF7FEFF 		bl	chprintf
 907              		.loc 1 287 0
 908 0098 2A46     		mov	r2, r5
 909 009a 3389     		ldrh	r3, [r6, #8]
 910 009c 1C49     		ldr	r1, .L87+40
 911 009e 2046     		mov	r0, r4
 912 00a0 FFF7FEFF 		bl	chprintf
 913              		.loc 1 288 0
 914 00a4 2046     		mov	r0, r4
 915 00a6 2A46     		mov	r2, r5
 916 00a8 7389     		ldrh	r3, [r6, #10]
 917 00aa 1A49     		ldr	r1, .L87+44
 918 00ac FFF7FEFF 		bl	chprintf
 919              		.loc 1 289 0
 920 00b0 2046     		mov	r0, r4
 921 00b2 2A46     		mov	r2, r5
 922 00b4 B389     		ldrh	r3, [r6, #12]
 923 00b6 1849     		ldr	r1, .L87+48
 924 00b8 FFF7FEFF 		bl	chprintf
 925              		.loc 1 290 0
 926 00bc 2046     		mov	r0, r4
 927 00be 1749     		ldr	r1, .L87+52
 928 00c0 F389     		ldrh	r3, [r6, #14]
 929 00c2 2A46     		mov	r2, r5
 930 00c4 FFF7FEFF 		bl	chprintf
 931              	.LVL16:
 932              	.L84:
 933              	.LBE3:
 934              		.loc 1 274 0 discriminator 1
 935 00c8 2168     		ldr	r1, [r4, #0]
 936 00ca 2046     		mov	r0, r4
 937 00cc 4A69     		ldr	r2, [r1, #20]
 938 00ce 0021     		movs	r1, #0
 939 00d0 9047     		blx	r2
 940 00d2 B0F1FF3F 		cmp	r0, #-1
 941 00d6 A2D0     		beq	.L86
 942              		.loc 1 298 0
 943 00d8 BDE8F087 		pop	{r4, r5, r6, r7, r8, r9, sl, pc}
 944              	.L85:
 945              	.LBB4:
 946              		.loc 1 294 0
 947 00dc 1049     		ldr	r1, .L87+56
 948 00de 2046     		mov	r0, r4
 949              	.LBE4:
 950              		.loc 1 298 0
 951 00e0 BDE8F047 		pop	{r4, r5, r6, r7, r8, r9, sl, lr}
 952              	.LBB5:
 953              		.loc 1 294 0
 954 00e4 FFF7FEBF 		b	chprintf
 955              	.L88:
 956              		.align	2
 957              	.L87:
 958 00e8 18000000 		.word	.LC2
 959 00ec 1C000000 		.word	.LC3
 960 00f0 24000000 		.word	.LC4
 961 00f4 5C020000 		.word	.LC24
ARM GAS  C:\Users\DNIEL~1\AppData\Local\Temp\ccRVTa3G.s 			page 18


 962 00f8 60020000 		.word	.LC25
 963 00fc 94020000 		.word	.LC26
 964 0100 C0020000 		.word	.LC27
 965 0104 EC020000 		.word	.LC28
 966 0108 18030000 		.word	.LC29
 967 010c 44030000 		.word	.LC30
 968 0110 70030000 		.word	.LC31
 969 0114 9C030000 		.word	.LC32
 970 0118 C8030000 		.word	.LC33
 971 011c F4030000 		.word	.LC34
 972 0120 20040000 		.word	.LC35
 973 0124 00000000 		.word	.LANCHOR6
 974              	.LBE5:
 975              		.cfi_endproc
 976              	.LFE123:
 977              		.size	cmd_candata, .-cmd_candata
 978              		.global	canstate
 979 0128 AFF30080 		.section	.bss.can_tx_wa,"aw",%nobits
 979      AFF30080 
 980              		.align	3
 981              		.set	.LANCHOR9,. + 0
 982              		.type	can_tx_wa, %object
 983              		.size	can_tx_wa, 432
 984              	can_tx_wa:
 985 0000 00000000 		.space	432
 985      00000000 
 985      00000000 
 985      00000000 
 985      00000000 
 986              		.section	.bss.id,"aw",%nobits
 987              		.align	1
 988              		.set	.LANCHOR3,. + 0
 989              		.type	id, %object
 990              		.size	id, 2
 991              	id:
 992 0000 0000     		.space	2
 993              		.section	.bss.txmsg,"aw",%nobits
 994              		.align	2
 995              		.set	.LANCHOR0,. + 0
 996              		.type	txmsg, %object
 997              		.size	txmsg, 16
 998              	txmsg:
 999 0000 00000000 		.space	16
 999      00000000 
 999      00000000 
 999      00000000 
 1000              		.section	.bss.seged,"aw",%nobits
 1001              		.align	2
 1002              		.set	.LANCHOR1,. + 0
 1003              		.type	seged, %object
 1004              		.size	seged, 4
 1005              	seged:
 1006 0000 00000000 		.space	4
 1007              		.section	.bss.can_rx_wa,"aw",%nobits
 1008              		.align	3
 1009              		.set	.LANCHOR8,. + 0
 1010              		.type	can_rx_wa, %object
ARM GAS  C:\Users\DNIEL~1\AppData\Local\Temp\ccRVTa3G.s 			page 19


 1011              		.size	can_rx_wa, 432
 1012              	can_rx_wa:
 1013 0000 00000000 		.space	432
 1013      00000000 
 1013      00000000 
 1013      00000000 
 1013      00000000 
 1014              		.section	.data.lcitems,"aw",%progbits
 1015              		.align	2
 1016              		.set	.LANCHOR6,. + 0
 1017              		.type	lcitems, %object
 1018              		.size	lcitems, 512
 1019              	lcitems:
 1020 0000 40000000 		.word	64
 1021 0004 00       		.byte	0
 1022 0005 00       		.byte	0
 1023 0006 00       		.byte	0
 1024 0007 00       		.byte	0
 1025 0008 0000     		.short	0
 1026 000a 0000     		.short	0
 1027 000c 0000     		.short	0
 1028 000e 0000     		.short	0
 1029 0010 41000000 		.word	65
 1030 0014 00       		.byte	0
 1031 0015 00       		.byte	0
 1032 0016 00       		.byte	0
 1033 0017 00       		.byte	0
 1034 0018 0000     		.short	0
 1035 001a 0000     		.short	0
 1036 001c 0000     		.short	0
 1037 001e 0000     		.short	0
 1038 0020 42000000 		.word	66
 1039 0024 00       		.byte	0
 1040 0025 00       		.byte	0
 1041 0026 00       		.byte	0
 1042 0027 00       		.byte	0
 1043 0028 0000     		.short	0
 1044 002a 0000     		.short	0
 1045 002c 0000     		.short	0
 1046 002e 0000     		.short	0
 1047 0030 43000000 		.word	67
 1048 0034 00       		.byte	0
 1049 0035 00       		.byte	0
 1050 0036 00       		.byte	0
 1051 0037 00       		.byte	0
 1052 0038 0000     		.short	0
 1053 003a 0000     		.short	0
 1054 003c 0000     		.short	0
 1055 003e 0000     		.short	0
 1056 0040 44000000 		.word	68
 1057 0044 00       		.byte	0
 1058 0045 00       		.byte	0
 1059 0046 00       		.byte	0
 1060 0047 00       		.byte	0
 1061 0048 0000     		.short	0
 1062 004a 0000     		.short	0
 1063 004c 0000     		.short	0
ARM GAS  C:\Users\DNIEL~1\AppData\Local\Temp\ccRVTa3G.s 			page 20


 1064 004e 0000     		.short	0
 1065 0050 45000000 		.word	69
 1066 0054 00       		.byte	0
 1067 0055 00       		.byte	0
 1068 0056 00       		.byte	0
 1069 0057 00       		.byte	0
 1070 0058 0000     		.short	0
 1071 005a 0000     		.short	0
 1072 005c 0000     		.short	0
 1073 005e 0000     		.short	0
 1074 0060 46000000 		.word	70
 1075 0064 00       		.byte	0
 1076 0065 00       		.byte	0
 1077 0066 00       		.byte	0
 1078 0067 00       		.byte	0
 1079 0068 0000     		.short	0
 1080 006a 0000     		.short	0
 1081 006c 0000     		.short	0
 1082 006e 0000     		.short	0
 1083 0070 47000000 		.word	71
 1084 0074 00       		.byte	0
 1085 0075 00       		.byte	0
 1086 0076 00       		.byte	0
 1087 0077 00       		.byte	0
 1088 0078 0000     		.short	0
 1089 007a 0000     		.short	0
 1090 007c 0000     		.short	0
 1091 007e 0000     		.short	0
 1092 0080 48000000 		.word	72
 1093 0084 00       		.byte	0
 1094 0085 00       		.byte	0
 1095 0086 00       		.byte	0
 1096 0087 00       		.byte	0
 1097 0088 0000     		.short	0
 1098 008a 0000     		.short	0
 1099 008c 0000     		.short	0
 1100 008e 0000     		.short	0
 1101 0090 49000000 		.word	73
 1102 0094 00       		.byte	0
 1103 0095 00       		.byte	0
 1104 0096 00       		.byte	0
 1105 0097 00       		.byte	0
 1106 0098 0000     		.short	0
 1107 009a 0000     		.short	0
 1108 009c 0000     		.short	0
 1109 009e 0000     		.short	0
 1110 00a0 4A000000 		.word	74
 1111 00a4 00       		.byte	0
 1112 00a5 00       		.byte	0
 1113 00a6 00       		.byte	0
 1114 00a7 00       		.byte	0
 1115 00a8 0000     		.short	0
 1116 00aa 0000     		.short	0
 1117 00ac 0000     		.short	0
 1118 00ae 0000     		.short	0
 1119 00b0 4B000000 		.word	75
 1120 00b4 00       		.byte	0
ARM GAS  C:\Users\DNIEL~1\AppData\Local\Temp\ccRVTa3G.s 			page 21


 1121 00b5 00       		.byte	0
 1122 00b6 00       		.byte	0
 1123 00b7 00       		.byte	0
 1124 00b8 0000     		.short	0
 1125 00ba 0000     		.short	0
 1126 00bc 0000     		.short	0
 1127 00be 0000     		.short	0
 1128 00c0 4C000000 		.word	76
 1129 00c4 00       		.byte	0
 1130 00c5 00       		.byte	0
 1131 00c6 00       		.byte	0
 1132 00c7 00       		.byte	0
 1133 00c8 0000     		.short	0
 1134 00ca 0000     		.short	0
 1135 00cc 0000     		.short	0
 1136 00ce 0000     		.short	0
 1137 00d0 4D000000 		.word	77
 1138 00d4 00       		.byte	0
 1139 00d5 00       		.byte	0
 1140 00d6 00       		.byte	0
 1141 00d7 00       		.byte	0
 1142 00d8 0000     		.short	0
 1143 00da 0000     		.short	0
 1144 00dc 0000     		.short	0
 1145 00de 0000     		.short	0
 1146 00e0 4E000000 		.word	78
 1147 00e4 00       		.byte	0
 1148 00e5 00       		.byte	0
 1149 00e6 00       		.byte	0
 1150 00e7 00       		.byte	0
 1151 00e8 0000     		.short	0
 1152 00ea 0000     		.short	0
 1153 00ec 0000     		.short	0
 1154 00ee 0000     		.short	0
 1155 00f0 4F000000 		.word	79
 1156 00f4 00       		.byte	0
 1157 00f5 00       		.byte	0
 1158 00f6 00       		.byte	0
 1159 00f7 00       		.byte	0
 1160 00f8 0000     		.short	0
 1161 00fa 0000     		.short	0
 1162 00fc 0000     		.short	0
 1163 00fe 0000     		.short	0
 1164 0100 50000000 		.word	80
 1165 0104 00       		.byte	0
 1166 0105 00       		.byte	0
 1167 0106 00       		.byte	0
 1168 0107 00       		.byte	0
 1169 0108 0000     		.short	0
 1170 010a 0000     		.short	0
 1171 010c 0000     		.short	0
 1172 010e 0000     		.short	0
 1173 0110 51000000 		.word	81
 1174 0114 00       		.byte	0
 1175 0115 00       		.byte	0
 1176 0116 00       		.byte	0
 1177 0117 00       		.byte	0
ARM GAS  C:\Users\DNIEL~1\AppData\Local\Temp\ccRVTa3G.s 			page 22


 1178 0118 0000     		.short	0
 1179 011a 0000     		.short	0
 1180 011c 0000     		.short	0
 1181 011e 0000     		.short	0
 1182 0120 52000000 		.word	82
 1183 0124 00       		.byte	0
 1184 0125 00       		.byte	0
 1185 0126 00       		.byte	0
 1186 0127 00       		.byte	0
 1187 0128 0000     		.short	0
 1188 012a 0000     		.short	0
 1189 012c 0000     		.short	0
 1190 012e 0000     		.short	0
 1191 0130 53000000 		.word	83
 1192 0134 00       		.byte	0
 1193 0135 00       		.byte	0
 1194 0136 00       		.byte	0
 1195 0137 00       		.byte	0
 1196 0138 0000     		.short	0
 1197 013a 0000     		.short	0
 1198 013c 0000     		.short	0
 1199 013e 0000     		.short	0
 1200 0140 54000000 		.word	84
 1201 0144 00       		.byte	0
 1202 0145 00       		.byte	0
 1203 0146 00       		.byte	0
 1204 0147 00       		.byte	0
 1205 0148 0000     		.short	0
 1206 014a 0000     		.short	0
 1207 014c 0000     		.short	0
 1208 014e 0000     		.short	0
 1209 0150 55000000 		.word	85
 1210 0154 00       		.byte	0
 1211 0155 00       		.byte	0
 1212 0156 00       		.byte	0
 1213 0157 00       		.byte	0
 1214 0158 0000     		.short	0
 1215 015a 0000     		.short	0
 1216 015c 0000     		.short	0
 1217 015e 0000     		.short	0
 1218 0160 56000000 		.word	86
 1219 0164 00       		.byte	0
 1220 0165 00       		.byte	0
 1221 0166 00       		.byte	0
 1222 0167 00       		.byte	0
 1223 0168 0000     		.short	0
 1224 016a 0000     		.short	0
 1225 016c 0000     		.short	0
 1226 016e 0000     		.short	0
 1227 0170 57000000 		.word	87
 1228 0174 00       		.byte	0
 1229 0175 00       		.byte	0
 1230 0176 00       		.byte	0
 1231 0177 00       		.byte	0
 1232 0178 0000     		.short	0
 1233 017a 0000     		.short	0
 1234 017c 0000     		.short	0
ARM GAS  C:\Users\DNIEL~1\AppData\Local\Temp\ccRVTa3G.s 			page 23


 1235 017e 0000     		.short	0
 1236 0180 58000000 		.word	88
 1237 0184 00       		.byte	0
 1238 0185 00       		.byte	0
 1239 0186 00       		.byte	0
 1240 0187 00       		.byte	0
 1241 0188 0000     		.short	0
 1242 018a 0000     		.short	0
 1243 018c 0000     		.short	0
 1244 018e 0000     		.short	0
 1245 0190 59000000 		.word	89
 1246 0194 00       		.byte	0
 1247 0195 00       		.byte	0
 1248 0196 00       		.byte	0
 1249 0197 00       		.byte	0
 1250 0198 0000     		.short	0
 1251 019a 0000     		.short	0
 1252 019c 0000     		.short	0
 1253 019e 0000     		.short	0
 1254 01a0 5A000000 		.word	90
 1255 01a4 00       		.byte	0
 1256 01a5 00       		.byte	0
 1257 01a6 00       		.byte	0
 1258 01a7 00       		.byte	0
 1259 01a8 0000     		.short	0
 1260 01aa 0000     		.short	0
 1261 01ac 0000     		.short	0
 1262 01ae 0000     		.short	0
 1263 01b0 5B000000 		.word	91
 1264 01b4 00       		.byte	0
 1265 01b5 00       		.byte	0
 1266 01b6 00       		.byte	0
 1267 01b7 00       		.byte	0
 1268 01b8 0000     		.short	0
 1269 01ba 0000     		.short	0
 1270 01bc 0000     		.short	0
 1271 01be 0000     		.short	0
 1272 01c0 5C000000 		.word	92
 1273 01c4 00       		.byte	0
 1274 01c5 00       		.byte	0
 1275 01c6 00       		.byte	0
 1276 01c7 00       		.byte	0
 1277 01c8 0000     		.short	0
 1278 01ca 0000     		.short	0
 1279 01cc 0000     		.short	0
 1280 01ce 0000     		.short	0
 1281 01d0 5D000000 		.word	93
 1282 01d4 00       		.byte	0
 1283 01d5 00       		.byte	0
 1284 01d6 00       		.byte	0
 1285 01d7 00       		.byte	0
 1286 01d8 0000     		.short	0
 1287 01da 0000     		.short	0
 1288 01dc 0000     		.short	0
 1289 01de 0000     		.short	0
 1290 01e0 5E000000 		.word	94
 1291 01e4 00       		.byte	0
ARM GAS  C:\Users\DNIEL~1\AppData\Local\Temp\ccRVTa3G.s 			page 24


 1292 01e5 00       		.byte	0
 1293 01e6 00       		.byte	0
 1294 01e7 00       		.byte	0
 1295 01e8 0000     		.short	0
 1296 01ea 0000     		.short	0
 1297 01ec 0000     		.short	0
 1298 01ee 0000     		.short	0
 1299 01f0 5F000000 		.word	95
 1300 01f4 00       		.byte	0
 1301 01f5 00       		.byte	0
 1302 01f6 00       		.byte	0
 1303 01f7 00       		.byte	0
 1304 01f8 0000     		.short	0
 1305 01fa 0000     		.short	0
 1306 01fc 0000     		.short	0
 1307 01fe 0000     		.short	0
 1308              		.section	.rodata.str1.4,"aMS",%progbits,1
 1309              		.align	2
 1310              	.LC0:
 1311 0000 7472616E 		.ascii	"transmitter\000"
 1311      736D6974 
 1311      74657200 
 1312              	.LC1:
 1313 000c 72656365 		.ascii	"receiver\000"
 1313      69766572 
 1313      00
 1314 0015 000000   		.space	3
 1315              	.LC2:
 1316 0018 1B6300   		.ascii	"\033c\000"
 1317 001b 00       		.space	1
 1318              	.LC3:
 1319 001c 1B5B324A 		.ascii	"\033[2J\000"
 1319      00
 1320 0021 000000   		.space	3
 1321              	.LC4:
 1322 0024 1B5B2564 		.ascii	"\033[%d;%dH\000"
 1322      3B256448 
 1322      00
 1323 002d 000000   		.space	3
 1324              	.LC5:
 1325 0030 52582E45 		.ascii	"RX.EID : %x \015\012\000"
 1325      4944203A 
 1325      20257820 
 1325      0D0A00
 1326 003f 00       		.space	1
 1327              	.LC6:
 1328 0040 52582E44 		.ascii	"RX.DATA1 : %x \015\012\000"
 1328      41544131 
 1328      203A2025 
 1328      78200D0A 
 1328      00
 1329 0051 000000   		.space	3
 1330              	.LC7:
 1331 0054 52582E44 		.ascii	"RX.DATA2 : %x \015\012\000"
 1331      41544132 
 1331      203A2025 
 1331      78200D0A 
ARM GAS  C:\Users\DNIEL~1\AppData\Local\Temp\ccRVTa3G.s 			page 25


 1331      00
 1332 0065 000000   		.space	3
 1333              	.LC8:
 1334 0068 2D2D2D2D 		.ascii	"----------- CAN Transmit ------------\015\012\000"
 1334      2D2D2D2D 
 1334      2D2D2D20 
 1334      43414E20 
 1334      5472616E 
 1335              	.LC9:
 1336 0090 54582E45 		.ascii	"TX.EID              : %15x \015\012\000"
 1336      49442020 
 1336      20202020 
 1336      20202020 
 1336      20202020 
 1337 00ae 0000     		.space	2
 1338              	.LC10:
 1339 00b0 54582E44 		.ascii	"TX.DATA32_1         : %15x \015\012\000"
 1339      41544133 
 1339      325F3120 
 1339      20202020 
 1339      20202020 
 1340 00ce 0000     		.space	2
 1341              	.LC11:
 1342 00d0 54582E44 		.ascii	"TX.DATA32_2         : %15x \015\012\000"
 1342      41544133 
 1342      325F3220 
 1342      20202020 
 1342      20202020 
 1343 00ee 0000     		.space	2
 1344              	.LC12:
 1345 00f0 0D0A00   		.ascii	"\015\012\000"
 1346 00f3 00       		.space	1
 1347              	.LC13:
 1348 00f4 2D2D2D2D 		.ascii	"----------- CAN Receive -------------\015\012\000"
 1348      2D2D2D2D 
 1348      2D2D2D20 
 1348      43414E20 
 1348      52656365 
 1349              	.LC14:
 1350 011c 52582E45 		.ascii	"RX.EID              : %15x \015\012\000"
 1350      49442020 
 1350      20202020 
 1350      20202020 
 1350      20202020 
 1351 013a 0000     		.space	2
 1352              	.LC15:
 1353 013c 52582E44 		.ascii	"RX.DATA8_1 (NTC)    : %15d \015\012\000"
 1353      41544138 
 1353      5F312028 
 1353      4E544329 
 1353      20202020 
 1354 015a 0000     		.space	2
 1355              	.LC16:
 1356 015c 52582E44 		.ascii	"RX.DATA8_2 (IN_CUR) : %15d \015\012\000"
 1356      41544138 
 1356      5F322028 
 1356      494E5F43 
ARM GAS  C:\Users\DNIEL~1\AppData\Local\Temp\ccRVTa3G.s 			page 26


 1356      55522920 
 1357 017a 0000     		.space	2
 1358              	.LC17:
 1359 017c 52582E44 		.ascii	"RX.DATA8_3 (OUT_CUR): %15d \015\012\000"
 1359      41544138 
 1359      5F332028 
 1359      4F55545F 
 1359      43555229 
 1360 019a 0000     		.space	2
 1361              	.LC18:
 1362 019c 52582E44 		.ascii	"RX.DATA8_4 (EFF)    : %15d \015\012\000"
 1362      41544138 
 1362      5F342028 
 1362      45464629 
 1362      20202020 
 1363 01ba 0000     		.space	2
 1364              	.LC19:
 1365 01bc 52582E44 		.ascii	"RX.DATA8_5 (VIN)    : %15d \015\012\000"
 1365      41544138 
 1365      5F352028 
 1365      56494E29 
 1365      20202020 
 1366 01da 0000     		.space	2
 1367              	.LC20:
 1368 01dc 52582E44 		.ascii	"RX.DATA8_5 (VOUT)   : %15d \015\012\000"
 1368      41544138 
 1368      5F352028 
 1368      564F5554 
 1368      29202020 
 1369 01fa 0000     		.space	2
 1370              	.LC21:
 1371 01fc 73656765 		.ascii	"seged               : %15d \015\012\000"
 1371      64202020 
 1371      20202020 
 1371      20202020 
 1371      20202020 
 1372 021a 0000     		.space	2
 1373              	.LC22:
 1374 021c 69642020 		.ascii	"id                  : %15x \015\012\000"
 1374      20202020 
 1374      20202020 
 1374      20202020 
 1374      20202020 
 1375 023a 0000     		.space	2
 1376              	.LC23:
 1377 023c 6D657373 		.ascii	"messages            : %15x \015\012\000"
 1377      61676573 
 1377      20202020 
 1377      20202020 
 1377      20202020 
 1378 025a 0000     		.space	2
 1379              	.LC24:
 1380 025c 6C6300   		.ascii	"lc\000"
 1381 025f 00       		.space	1
 1382              	.LC25:
 1383 0260 2D2D2D2D 		.ascii	"-------------- luxCControl %d/%d --------------\015"
 1383      2D2D2D2D 
ARM GAS  C:\Users\DNIEL~1\AppData\Local\Temp\ccRVTa3G.s 			page 27


 1383      2D2D2D2D 
 1383      2D2D206C 
 1383      75784343 
 1384 0290 0A00     		.ascii	"\012\000"
 1385 0292 0000     		.space	2
 1386              	.LC26:
 1387 0294 6C636974 		.ascii	"lcitems[%d].id         (ID)     : %15x \015\012\000"
 1387      656D735B 
 1387      25645D2E 
 1387      69642020 
 1387      20202020 
 1388 02be 0000     		.space	2
 1389              	.LC27:
 1390 02c0 6C636974 		.ascii	"lcitems[%d].temp       (NTC)    : %15d \015\012\000"
 1390      656D735B 
 1390      25645D2E 
 1390      74656D70 
 1390      20202020 
 1391 02ea 0000     		.space	2
 1392              	.LC28:
 1393 02ec 6C636974 		.ascii	"lcitems[%d].curr_in    (IN_CUR) : %15d \015\012\000"
 1393      656D735B 
 1393      25645D2E 
 1393      63757272 
 1393      5F696E20 
 1394 0316 0000     		.space	2
 1395              	.LC29:
 1396 0318 6C636974 		.ascii	"lcitems[%d].curr_out   (OUT_CUR): %15d \015\012\000"
 1396      656D735B 
 1396      25645D2E 
 1396      63757272 
 1396      5F6F7574 
 1397 0342 0000     		.space	2
 1398              	.LC30:
 1399 0344 6C636974 		.ascii	"lcitems[%d].efficiency (EFF)    : %15d \015\012\000"
 1399      656D735B 
 1399      25645D2E 
 1399      65666669 
 1399      6369656E 
 1400 036e 0000     		.space	2
 1401              	.LC31:
 1402 0370 6C636974 		.ascii	"lcitems[%d].status     (STATUS) : %15d \015\012\000"
 1402      656D735B 
 1402      25645D2E 
 1402      73746174 
 1402      75732020 
 1403 039a 0000     		.space	2
 1404              	.LC32:
 1405 039c 6C636974 		.ascii	"lcitems[%d].volt_in    (VIN)    : %15d \015\012\000"
 1405      656D735B 
 1405      25645D2E 
 1405      766F6C74 
 1405      5F696E20 
 1406 03c6 0000     		.space	2
 1407              	.LC33:
 1408 03c8 6C636974 		.ascii	"lcitems[%d].volt_out   (VOUT)   : %15d \015\012\000"
 1408      656D735B 
ARM GAS  C:\Users\DNIEL~1\AppData\Local\Temp\ccRVTa3G.s 			page 28


 1408      25645D2E 
 1408      766F6C74 
 1408      5F6F7574 
 1409 03f2 0000     		.space	2
 1410              	.LC34:
 1411 03f4 6C636974 		.ascii	"lcitems[%d].pwm        (PWM)    : %15d \015\012\000"
 1411      656D735B 
 1411      25645D2E 
 1411      70776D20 
 1411      20202020 
 1412 041e 0000     		.space	2
 1413              	.LC35:
 1414 0420 54686973 		.ascii	"This not good parameters!\015\012\000"
 1414      206E6F74 
 1414      20676F6F 
 1414      64207061 
 1414      72616D65 
 1415              		.section	.bss.canstate,"aw",%nobits
 1416              		.set	.LANCHOR5,. + 0
 1417              		.type	canstate, %object
 1418              		.size	canstate, 1
 1419              	canstate:
 1420 0000 00       		.space	1
 1421              		.section	.bss.messages,"aw",%nobits
 1422              		.align	1
 1423              		.set	.LANCHOR4,. + 0
 1424              		.type	messages, %object
 1425              		.size	messages, 2
 1426              	messages:
 1427 0000 0000     		.space	2
 1428              		.section	.bss.rxmsg,"aw",%nobits
 1429              		.align	2
 1430              		.set	.LANCHOR2,. + 0
 1431              		.type	rxmsg, %object
 1432              		.size	rxmsg, 20
 1433              	rxmsg:
 1434 0000 00000000 		.space	20
 1434      00000000 
 1434      00000000 
 1434      00000000 
 1434      00000000 
 1435              		.section	.rodata.cancfg,"a",%progbits
 1436              		.align	2
 1437              		.set	.LANCHOR7,. + 0
 1438              		.type	cancfg, %object
 1439              		.size	cancfg, 16
 1440              	cancfg:
 1441 0000 40000000 		.word	64
 1442 0004 06001800 		.word	1572870
 1443 0008 00000000 		.word	0
 1444 000c 00000000 		.word	0
 1445              		.text
 1446              	.Letext0:
 1447              		.section	.debug_loc,"",%progbits
 1448              	.Ldebug_loc0:
 1449              	.LLST0:
 1450 0000 00000000 		.4byte	.LFB119
ARM GAS  C:\Users\DNIEL~1\AppData\Local\Temp\ccRVTa3G.s 			page 29


 1451 0004 02000000 		.4byte	.LCFI0
 1452 0008 0200     		.2byte	0x2
 1453 000a 7D       		.byte	0x7d
 1454 000b 00       		.sleb128 0
 1455 000c 02000000 		.4byte	.LCFI0
 1456 0010 74000000 		.4byte	.LFE119
 1457 0014 0200     		.2byte	0x2
 1458 0016 7D       		.byte	0x7d
 1459 0017 10       		.sleb128 16
 1460 0018 00000000 		.4byte	0x0
 1461 001c 00000000 		.4byte	0x0
 1462              	.LLST1:
 1463 0020 00000000 		.4byte	.LVL0
 1464 0024 06000000 		.4byte	.LVL1
 1465 0028 0100     		.2byte	0x1
 1466 002a 50       		.byte	0x50
 1467 002b 00000000 		.4byte	0x0
 1468 002f 00000000 		.4byte	0x0
 1469              	.LLST2:
 1470 0033 00000000 		.4byte	.LFB118
 1471 0037 04000000 		.4byte	.LCFI1
 1472 003b 0200     		.2byte	0x2
 1473 003d 7D       		.byte	0x7d
 1474 003e 00       		.sleb128 0
 1475 003f 04000000 		.4byte	.LCFI1
 1476 0043 12000000 		.4byte	.LCFI2
 1477 0047 0200     		.2byte	0x2
 1478 0049 7D       		.byte	0x7d
 1479 004a 24       		.sleb128 36
 1480 004b 12000000 		.4byte	.LCFI2
 1481 004f 34020000 		.4byte	.LFE118
 1482 0053 0200     		.2byte	0x2
 1483 0055 7D       		.byte	0x7d
 1484 0056 38       		.sleb128 56
 1485 0057 00000000 		.4byte	0x0
 1486 005b 00000000 		.4byte	0x0
 1487              	.LLST3:
 1488 005f 00000000 		.4byte	.LVL2
 1489 0063 08000000 		.4byte	.LVL3
 1490 0067 0100     		.2byte	0x1
 1491 0069 50       		.byte	0x50
 1492 006a 00000000 		.4byte	0x0
 1493 006e 00000000 		.4byte	0x0
 1494              	.LLST4:
 1495 0072 00000000 		.4byte	.LFB120
 1496 0076 02000000 		.4byte	.LCFI3
 1497 007a 0200     		.2byte	0x2
 1498 007c 7D       		.byte	0x7d
 1499 007d 00       		.sleb128 0
 1500 007e 02000000 		.4byte	.LCFI3
 1501 0082 08000000 		.4byte	.LCFI4
 1502 0086 0200     		.2byte	0x2
 1503 0088 7D       		.byte	0x7d
 1504 0089 08       		.sleb128 8
 1505 008a 08000000 		.4byte	.LCFI4
 1506 008e 4C000000 		.4byte	.LFE120
 1507 0092 0200     		.2byte	0x2
ARM GAS  C:\Users\DNIEL~1\AppData\Local\Temp\ccRVTa3G.s 			page 30


 1508 0094 7D       		.byte	0x7d
 1509 0095 10       		.sleb128 16
 1510 0096 00000000 		.4byte	0x0
 1511 009a 00000000 		.4byte	0x0
 1512              	.LLST5:
 1513 009e 00000000 		.4byte	.LFB121
 1514 00a2 02000000 		.4byte	.LCFI5
 1515 00a6 0200     		.2byte	0x2
 1516 00a8 7D       		.byte	0x7d
 1517 00a9 00       		.sleb128 0
 1518 00aa 02000000 		.4byte	.LCFI5
 1519 00ae 7C000000 		.4byte	.LFE121
 1520 00b2 0200     		.2byte	0x2
 1521 00b4 7D       		.byte	0x7d
 1522 00b5 10       		.sleb128 16
 1523 00b6 00000000 		.4byte	0x0
 1524 00ba 00000000 		.4byte	0x0
 1525              	.LLST6:
 1526 00be 00000000 		.4byte	.LVL5
 1527 00c2 0B000000 		.4byte	.LVL7-1
 1528 00c6 0100     		.2byte	0x1
 1529 00c8 50       		.byte	0x50
 1530 00c9 0B000000 		.4byte	.LVL7-1
 1531 00cd 7C000000 		.4byte	.LFE121
 1532 00d1 0100     		.2byte	0x1
 1533 00d3 54       		.byte	0x54
 1534 00d4 00000000 		.4byte	0x0
 1535 00d8 00000000 		.4byte	0x0
 1536              	.LLST7:
 1537 00dc 00000000 		.4byte	.LVL5
 1538 00e0 04000000 		.4byte	.LVL6
 1539 00e4 0100     		.2byte	0x1
 1540 00e6 51       		.byte	0x51
 1541 00e7 00000000 		.4byte	0x0
 1542 00eb 00000000 		.4byte	0x0
 1543              	.LLST8:
 1544 00ef 00000000 		.4byte	.LVL5
 1545 00f3 0B000000 		.4byte	.LVL7-1
 1546 00f7 0100     		.2byte	0x1
 1547 00f9 52       		.byte	0x52
 1548 00fa 00000000 		.4byte	0x0
 1549 00fe 00000000 		.4byte	0x0
 1550              	.LLST9:
 1551 0102 00000000 		.4byte	.LFB122
 1552 0106 02000000 		.4byte	.LCFI6
 1553 010a 0200     		.2byte	0x2
 1554 010c 7D       		.byte	0x7d
 1555 010d 00       		.sleb128 0
 1556 010e 02000000 		.4byte	.LCFI6
 1557 0112 4C010000 		.4byte	.LFE122
 1558 0116 0200     		.2byte	0x2
 1559 0118 7D       		.byte	0x7d
 1560 0119 18       		.sleb128 24
 1561 011a 00000000 		.4byte	0x0
 1562 011e 00000000 		.4byte	0x0
 1563              	.LLST10:
 1564 0122 00000000 		.4byte	.LVL8
ARM GAS  C:\Users\DNIEL~1\AppData\Local\Temp\ccRVTa3G.s 			page 31


 1565 0126 0F000000 		.4byte	.LVL10-1
 1566 012a 0100     		.2byte	0x1
 1567 012c 50       		.byte	0x50
 1568 012d 0F000000 		.4byte	.LVL10-1
 1569 0131 4C010000 		.4byte	.LFE122
 1570 0135 0100     		.2byte	0x1
 1571 0137 54       		.byte	0x54
 1572 0138 00000000 		.4byte	0x0
 1573 013c 00000000 		.4byte	0x0
 1574              	.LLST11:
 1575 0140 00000000 		.4byte	.LVL8
 1576 0144 04000000 		.4byte	.LVL9
 1577 0148 0100     		.2byte	0x1
 1578 014a 51       		.byte	0x51
 1579 014b 00000000 		.4byte	0x0
 1580 014f 00000000 		.4byte	0x0
 1581              	.LLST12:
 1582 0153 00000000 		.4byte	.LVL8
 1583 0157 0F000000 		.4byte	.LVL10-1
 1584 015b 0100     		.2byte	0x1
 1585 015d 52       		.byte	0x52
 1586 015e 00000000 		.4byte	0x0
 1587 0162 00000000 		.4byte	0x0
 1588              	.LLST13:
 1589 0166 00000000 		.4byte	.LFB123
 1590 016a 04000000 		.4byte	.LCFI7
 1591 016e 0200     		.2byte	0x2
 1592 0170 7D       		.byte	0x7d
 1593 0171 00       		.sleb128 0
 1594 0172 04000000 		.4byte	.LCFI7
 1595 0176 28010000 		.4byte	.LFE123
 1596 017a 0200     		.2byte	0x2
 1597 017c 7D       		.byte	0x7d
 1598 017d 20       		.sleb128 32
 1599 017e 00000000 		.4byte	0x0
 1600 0182 00000000 		.4byte	0x0
 1601              	.LLST14:
 1602 0186 00000000 		.4byte	.LVL11
 1603 018a 13000000 		.4byte	.LVL13-1
 1604 018e 0100     		.2byte	0x1
 1605 0190 50       		.byte	0x50
 1606 0191 13000000 		.4byte	.LVL13-1
 1607 0195 28010000 		.4byte	.LFE123
 1608 0199 0100     		.2byte	0x1
 1609 019b 54       		.byte	0x54
 1610 019c 00000000 		.4byte	0x0
 1611 01a0 00000000 		.4byte	0x0
 1612              	.LLST15:
 1613 01a4 00000000 		.4byte	.LVL11
 1614 01a8 0A000000 		.4byte	.LVL12
 1615 01ac 0100     		.2byte	0x1
 1616 01ae 51       		.byte	0x51
 1617 01af 0A000000 		.4byte	.LVL12
 1618 01b3 28010000 		.4byte	.LFE123
 1619 01b7 0100     		.2byte	0x1
 1620 01b9 5A       		.byte	0x5a
 1621 01ba 00000000 		.4byte	0x0
ARM GAS  C:\Users\DNIEL~1\AppData\Local\Temp\ccRVTa3G.s 			page 32


 1622 01be 00000000 		.4byte	0x0
 1623              	.LLST16:
 1624 01c2 00000000 		.4byte	.LVL11
 1625 01c6 13000000 		.4byte	.LVL13-1
 1626 01ca 0100     		.2byte	0x1
 1627 01cc 52       		.byte	0x52
 1628 01cd 13000000 		.4byte	.LVL13-1
 1629 01d1 28010000 		.4byte	.LFE123
 1630 01d5 0100     		.2byte	0x1
 1631 01d7 58       		.byte	0x58
 1632 01d8 00000000 		.4byte	0x0
 1633 01dc 00000000 		.4byte	0x0
 1634              	.LLST17:
 1635 01e0 46000000 		.4byte	.LVL14
 1636 01e4 4C000000 		.4byte	.LVL15
 1637 01e8 0100     		.2byte	0x1
 1638 01ea 50       		.byte	0x50
 1639 01eb 4C000000 		.4byte	.LVL15
 1640 01ef C8000000 		.4byte	.LVL16
 1641 01f3 0100     		.2byte	0x1
 1642 01f5 55       		.byte	0x55
 1643 01f6 00000000 		.4byte	0x0
 1644 01fa 00000000 		.4byte	0x0
 1645              		.file 2 "c:\\program files (x86)\\codesourcery\\sourcery g++ lite\\bin\\../lib/gcc/arm-none-eabi/4
 1646              		.file 3 "c:\\program files (x86)\\codesourcery\\sourcery g++ lite\\bin\\../lib/gcc/arm-none-eabi/4
 1647              		.file 4 "../../../ChibiOS/os/ports/GCC/ARMCMx/chtypes.h"
 1648              		.file 5 "../../../ChibiOS/os/kernel/include/chlists.h"
 1649              		.file 6 "../../../ChibiOS/os/kernel/include/chthreads.h"
 1650              		.file 7 "../../../ChibiOS/os/ports/GCC/ARMCMx/chcore_v7m.h"
 1651              		.file 8 "../../../ChibiOS/os/kernel/include/chschd.h"
 1652              		.file 9 "../../../ChibiOS/os/kernel/include/chsem.h"
 1653              		.file 10 "../../../ChibiOS/os/kernel/include/chmtx.h"
 1654              		.file 11 "../../../ChibiOS/os/kernel/include/chevents.h"
 1655              		.file 12 "../../../ChibiOS/os/kernel/include/chstreams.h"
 1656              		.file 13 "../../../ChibiOS/os/hal/platforms/STM32F4xx/stm32f4xx.h"
 1657              		.file 14 "../../../ChibiOS/os/hal/include/io_channel.h"
 1658              		.file 15 "../../../ChibiOS/os/hal/include/can.h"
 1659              		.file 16 "../../../ChibiOS/os/hal/platforms/STM32/can_lld.h"
 1660              		.file 17 "include/can_items.h"
 1661              		.file 18 "../../../ChibiOS/os/ports/common/ARMCMx/CMSIS/include/core_cm4.h"
 1662              		.file 19 "<built-in>"
 1663              		.section	.debug_info
 1664 0000 22110000 		.4byte	0x1122
 1665 0004 0200     		.2byte	0x2
 1666 0006 00000000 		.4byte	.Ldebug_abbrev0
 1667 000a 04       		.byte	0x4
 1668 000b 01       		.uleb128 0x1
 1669 000c F6000000 		.4byte	.LASF176
 1670 0010 01       		.byte	0x1
 1671 0011 7B050000 		.4byte	.LASF177
 1672 0015 61060000 		.4byte	.LASF178
 1673 0019 00000000 		.4byte	0x0
 1674 001d 00000000 		.4byte	0x0
 1675 0021 28000000 		.4byte	.Ldebug_ranges0+0x28
 1676 0025 00000000 		.4byte	.Ldebug_line0
 1677 0029 02       		.uleb128 0x2
 1678 002a 33000000 		.4byte	.LASF10
ARM GAS  C:\Users\DNIEL~1\AppData\Local\Temp\ccRVTa3G.s 			page 33


 1679 002e 02       		.byte	0x2
 1680 002f D3       		.byte	0xd3
 1681 0030 34000000 		.4byte	0x34
 1682 0034 03       		.uleb128 0x3
 1683 0035 04       		.byte	0x4
 1684 0036 07       		.byte	0x7
 1685 0037 04020000 		.4byte	.LASF0
 1686 003b 03       		.uleb128 0x3
 1687 003c 01       		.byte	0x1
 1688 003d 06       		.byte	0x6
 1689 003e CF000000 		.4byte	.LASF1
 1690 0042 03       		.uleb128 0x3
 1691 0043 01       		.byte	0x1
 1692 0044 08       		.byte	0x8
 1693 0045 14040000 		.4byte	.LASF2
 1694 0049 03       		.uleb128 0x3
 1695 004a 02       		.byte	0x2
 1696 004b 05       		.byte	0x5
 1697 004c 5B040000 		.4byte	.LASF3
 1698 0050 03       		.uleb128 0x3
 1699 0051 02       		.byte	0x2
 1700 0052 07       		.byte	0x7
 1701 0053 52020000 		.4byte	.LASF4
 1702 0057 04       		.uleb128 0x4
 1703 0058 04       		.byte	0x4
 1704 0059 05       		.byte	0x5
 1705 005a 696E7400 		.ascii	"int\000"
 1706 005e 03       		.uleb128 0x3
 1707 005f 08       		.byte	0x8
 1708 0060 05       		.byte	0x5
 1709 0061 C1000000 		.4byte	.LASF5
 1710 0065 03       		.uleb128 0x3
 1711 0066 08       		.byte	0x8
 1712 0067 07       		.byte	0x7
 1713 0068 71000000 		.4byte	.LASF6
 1714 006c 03       		.uleb128 0x3
 1715 006d 04       		.byte	0x4
 1716 006e 05       		.byte	0x5
 1717 006f 17010000 		.4byte	.LASF7
 1718 0073 05       		.uleb128 0x5
 1719 0074 04       		.byte	0x4
 1720 0075 03       		.uleb128 0x3
 1721 0076 04       		.byte	0x4
 1722 0077 07       		.byte	0x7
 1723 0078 07050000 		.4byte	.LASF8
 1724 007c 06       		.uleb128 0x6
 1725 007d 04       		.byte	0x4
 1726 007e 82000000 		.4byte	0x82
 1727 0082 03       		.uleb128 0x3
 1728 0083 01       		.byte	0x1
 1729 0084 08       		.byte	0x8
 1730 0085 19050000 		.4byte	.LASF9
 1731 0089 06       		.uleb128 0x6
 1732 008a 04       		.byte	0x4
 1733 008b 8F000000 		.4byte	0x8f
 1734 008f 07       		.uleb128 0x7
 1735 0090 82000000 		.4byte	0x82
ARM GAS  C:\Users\DNIEL~1\AppData\Local\Temp\ccRVTa3G.s 			page 34


 1736 0094 02       		.uleb128 0x2
 1737 0095 06060000 		.4byte	.LASF11
 1738 0099 03       		.byte	0x3
 1739 009a 2A       		.byte	0x2a
 1740 009b 42000000 		.4byte	0x42
 1741 009f 02       		.uleb128 0x2
 1742 00a0 B9000000 		.4byte	.LASF12
 1743 00a4 03       		.byte	0x3
 1744 00a5 35       		.byte	0x35
 1745 00a6 49000000 		.4byte	0x49
 1746 00aa 02       		.uleb128 0x2
 1747 00ab 5F010000 		.4byte	.LASF13
 1748 00af 03       		.byte	0x3
 1749 00b0 36       		.byte	0x36
 1750 00b1 50000000 		.4byte	0x50
 1751 00b5 02       		.uleb128 0x2
 1752 00b6 0C040000 		.4byte	.LASF14
 1753 00ba 03       		.byte	0x3
 1754 00bb 4F       		.byte	0x4f
 1755 00bc 6C000000 		.4byte	0x6c
 1756 00c0 02       		.uleb128 0x2
 1757 00c1 A0050000 		.4byte	.LASF15
 1758 00c5 03       		.byte	0x3
 1759 00c6 50       		.byte	0x50
 1760 00c7 75000000 		.4byte	0x75
 1761 00cb 02       		.uleb128 0x2
 1762 00cc 4C000000 		.4byte	.LASF16
 1763 00d0 03       		.byte	0x3
 1764 00d1 78       		.byte	0x78
 1765 00d2 65000000 		.4byte	0x65
 1766 00d6 02       		.uleb128 0x2
 1767 00d7 A1020000 		.4byte	.LASF17
 1768 00db 04       		.byte	0x4
 1769 00dc 28       		.byte	0x28
 1770 00dd 94000000 		.4byte	0x94
 1771 00e1 02       		.uleb128 0x2
 1772 00e2 30010000 		.4byte	.LASF18
 1773 00e6 04       		.byte	0x4
 1774 00e7 29       		.byte	0x29
 1775 00e8 94000000 		.4byte	0x94
 1776 00ec 02       		.uleb128 0x2
 1777 00ed B8030000 		.4byte	.LASF19
 1778 00f1 04       		.byte	0x4
 1779 00f2 2A       		.byte	0x2a
 1780 00f3 94000000 		.4byte	0x94
 1781 00f7 02       		.uleb128 0x2
 1782 00f8 02010000 		.4byte	.LASF20
 1783 00fc 04       		.byte	0x4
 1784 00fd 2B       		.byte	0x2b
 1785 00fe 94000000 		.4byte	0x94
 1786 0102 02       		.uleb128 0x2
 1787 0103 F9030000 		.4byte	.LASF21
 1788 0107 04       		.byte	0x4
 1789 0108 2C       		.byte	0x2c
 1790 0109 C0000000 		.4byte	0xc0
 1791 010d 02       		.uleb128 0x2
 1792 010e 8C020000 		.4byte	.LASF22
ARM GAS  C:\Users\DNIEL~1\AppData\Local\Temp\ccRVTa3G.s 			page 35


 1793 0112 04       		.byte	0x4
 1794 0113 2D       		.byte	0x2d
 1795 0114 B5000000 		.4byte	0xb5
 1796 0118 02       		.uleb128 0x2
 1797 0119 C5020000 		.4byte	.LASF23
 1798 011d 04       		.byte	0x4
 1799 011e 2F       		.byte	0x2f
 1800 011f C0000000 		.4byte	0xc0
 1801 0123 02       		.uleb128 0x2
 1802 0124 94050000 		.4byte	.LASF24
 1803 0128 04       		.byte	0x4
 1804 0129 30       		.byte	0x30
 1805 012a C0000000 		.4byte	0xc0
 1806 012e 02       		.uleb128 0x2
 1807 012f 45050000 		.4byte	.LASF25
 1808 0133 04       		.byte	0x4
 1809 0134 31       		.byte	0x31
 1810 0135 C0000000 		.4byte	0xc0
 1811 0139 02       		.uleb128 0x2
 1812 013a FE010000 		.4byte	.LASF26
 1813 013e 04       		.byte	0x4
 1814 013f 32       		.byte	0x32
 1815 0140 B5000000 		.4byte	0xb5
 1816 0144 02       		.uleb128 0x2
 1817 0145 B1040000 		.4byte	.LASF27
 1818 0149 05       		.byte	0x5
 1819 014a 23       		.byte	0x23
 1820 014b 4F010000 		.4byte	0x14f
 1821 014f 08       		.uleb128 0x8
 1822 0150 B1040000 		.4byte	.LASF27
 1823 0154 48       		.byte	0x48
 1824 0155 06       		.byte	0x6
 1825 0156 57       		.byte	0x57
 1826 0157 74020000 		.4byte	0x274
 1827 015b 09       		.uleb128 0x9
 1828 015c 85040000 		.4byte	.LASF28
 1829 0160 06       		.byte	0x6
 1830 0161 58       		.byte	0x58
 1831 0162 99020000 		.4byte	0x299
 1832 0166 02       		.byte	0x2
 1833 0167 23       		.byte	0x23
 1834 0168 00       		.uleb128 0x0
 1835 0169 09       		.uleb128 0x9
 1836 016a F2030000 		.4byte	.LASF29
 1837 016e 06       		.byte	0x6
 1838 016f 5A       		.byte	0x5a
 1839 0170 99020000 		.4byte	0x299
 1840 0174 02       		.byte	0x2
 1841 0175 23       		.byte	0x23
 1842 0176 04       		.uleb128 0x4
 1843 0177 09       		.uleb128 0x9
 1844 0178 AC000000 		.4byte	.LASF30
 1845 017c 06       		.byte	0x6
 1846 017d 5C       		.byte	0x5c
 1847 017e 02010000 		.4byte	0x102
 1848 0182 02       		.byte	0x2
 1849 0183 23       		.byte	0x23
ARM GAS  C:\Users\DNIEL~1\AppData\Local\Temp\ccRVTa3G.s 			page 36


 1850 0184 08       		.uleb128 0x8
 1851 0185 09       		.uleb128 0x9
 1852 0186 D6060000 		.4byte	.LASF31
 1853 018a 06       		.byte	0x6
 1854 018b 5D       		.byte	0x5d
 1855 018c 70030000 		.4byte	0x370
 1856 0190 02       		.byte	0x2
 1857 0191 23       		.byte	0x23
 1858 0192 0C       		.uleb128 0xc
 1859 0193 09       		.uleb128 0x9
 1860 0194 79010000 		.4byte	.LASF32
 1861 0198 06       		.byte	0x6
 1862 0199 5F       		.byte	0x5f
 1863 019a 99020000 		.4byte	0x299
 1864 019e 02       		.byte	0x2
 1865 019f 23       		.byte	0x23
 1866 01a0 10       		.uleb128 0x10
 1867 01a1 09       		.uleb128 0x9
 1868 01a2 3A030000 		.4byte	.LASF33
 1869 01a6 06       		.byte	0x6
 1870 01a7 60       		.byte	0x60
 1871 01a8 99020000 		.4byte	0x299
 1872 01ac 02       		.byte	0x2
 1873 01ad 23       		.byte	0x23
 1874 01ae 14       		.uleb128 0x14
 1875 01af 09       		.uleb128 0x9
 1876 01b0 BF050000 		.4byte	.LASF34
 1877 01b4 06       		.byte	0x6
 1878 01b5 67       		.byte	0x67
 1879 01b6 89000000 		.4byte	0x89
 1880 01ba 02       		.byte	0x2
 1881 01bb 23       		.byte	0x23
 1882 01bc 18       		.uleb128 0x18
 1883 01bd 09       		.uleb128 0x9
 1884 01be 65040000 		.4byte	.LASF35
 1885 01c2 06       		.byte	0x6
 1886 01c3 72       		.byte	0x72
 1887 01c4 E1000000 		.4byte	0xe1
 1888 01c8 02       		.byte	0x2
 1889 01c9 23       		.byte	0x23
 1890 01ca 1C       		.uleb128 0x1c
 1891 01cb 09       		.uleb128 0x9
 1892 01cc A4040000 		.4byte	.LASF36
 1893 01d0 06       		.byte	0x6
 1894 01d1 76       		.byte	0x76
 1895 01d2 D6000000 		.4byte	0xd6
 1896 01d6 02       		.byte	0x2
 1897 01d7 23       		.byte	0x23
 1898 01d8 1D       		.uleb128 0x1d
 1899 01d9 09       		.uleb128 0x9
 1900 01da 4F010000 		.4byte	.LASF37
 1901 01de 06       		.byte	0x6
 1902 01df 7B       		.byte	0x7b
 1903 01e0 EC000000 		.4byte	0xec
 1904 01e4 02       		.byte	0x2
 1905 01e5 23       		.byte	0x23
 1906 01e6 1E       		.uleb128 0x1e
ARM GAS  C:\Users\DNIEL~1\AppData\Local\Temp\ccRVTa3G.s 			page 37


 1907 01e7 09       		.uleb128 0x9
 1908 01e8 6D040000 		.4byte	.LASF38
 1909 01ec 06       		.byte	0x6
 1910 01ed 81       		.byte	0x81
 1911 01ee F7000000 		.4byte	0xf7
 1912 01f2 02       		.byte	0x2
 1913 01f3 23       		.byte	0x23
 1914 01f4 1F       		.uleb128 0x1f
 1915 01f5 09       		.uleb128 0x9
 1916 01f6 68010000 		.4byte	.LASF39
 1917 01fa 06       		.byte	0x6
 1918 01fb 88       		.byte	0x88
 1919 01fc 98030000 		.4byte	0x398
 1920 0200 02       		.byte	0x2
 1921 0201 23       		.byte	0x23
 1922 0202 20       		.uleb128 0x20
 1923 0203 0A       		.uleb128 0xa
 1924 0204 705F7500 		.ascii	"p_u\000"
 1925 0208 06       		.byte	0x6
 1926 0209 AD       		.byte	0xad
 1927 020a FD040000 		.4byte	0x4fd
 1928 020e 02       		.byte	0x2
 1929 020f 23       		.byte	0x23
 1930 0210 24       		.uleb128 0x24
 1931 0211 09       		.uleb128 0x9
 1932 0212 DC060000 		.4byte	.LASF40
 1933 0216 06       		.byte	0x6
 1934 0217 B2       		.byte	0xb2
 1935 0218 C1020000 		.4byte	0x2c1
 1936 021c 02       		.byte	0x2
 1937 021d 23       		.byte	0x23
 1938 021e 28       		.uleb128 0x28
 1939 021f 09       		.uleb128 0x9
 1940 0220 22020000 		.4byte	.LASF41
 1941 0224 06       		.byte	0x6
 1942 0225 B8       		.byte	0xb8
 1943 0226 9F020000 		.4byte	0x29f
 1944 022a 02       		.byte	0x2
 1945 022b 23       		.byte	0x23
 1946 022c 2C       		.uleb128 0x2c
 1947 022d 09       		.uleb128 0x9
 1948 022e 5B060000 		.4byte	.LASF42
 1949 0232 06       		.byte	0x6
 1950 0233 BC       		.byte	0xbc
 1951 0234 0D010000 		.4byte	0x10d
 1952 0238 02       		.byte	0x2
 1953 0239 23       		.byte	0x23
 1954 023a 34       		.uleb128 0x34
 1955 023b 09       		.uleb128 0x9
 1956 023c C9040000 		.4byte	.LASF43
 1957 0240 06       		.byte	0x6
 1958 0241 C2       		.byte	0xc2
 1959 0242 18010000 		.4byte	0x118
 1960 0246 02       		.byte	0x2
 1961 0247 23       		.byte	0x23
 1962 0248 38       		.uleb128 0x38
 1963 0249 09       		.uleb128 0x9
ARM GAS  C:\Users\DNIEL~1\AppData\Local\Temp\ccRVTa3G.s 			page 38


 1964 024a 51040000 		.4byte	.LASF44
 1965 024e 06       		.byte	0x6
 1966 024f C9       		.byte	0xc9
 1967 0250 32050000 		.4byte	0x532
 1968 0254 02       		.byte	0x2
 1969 0255 23       		.byte	0x23
 1970 0256 3C       		.uleb128 0x3c
 1971 0257 09       		.uleb128 0x9
 1972 0258 4F050000 		.4byte	.LASF45
 1973 025c 06       		.byte	0x6
 1974 025d CD       		.byte	0xcd
 1975 025e 02010000 		.4byte	0x102
 1976 0262 02       		.byte	0x2
 1977 0263 23       		.byte	0x23
 1978 0264 40       		.uleb128 0x40
 1979 0265 09       		.uleb128 0x9
 1980 0266 B8010000 		.4byte	.LASF46
 1981 026a 06       		.byte	0x6
 1982 026b D3       		.byte	0xd3
 1983 026c 73000000 		.4byte	0x73
 1984 0270 02       		.byte	0x2
 1985 0271 23       		.byte	0x23
 1986 0272 44       		.uleb128 0x44
 1987 0273 00       		.byte	0x0
 1988 0274 0B       		.uleb128 0xb
 1989 0275 08       		.byte	0x8
 1990 0276 05       		.byte	0x5
 1991 0277 5A       		.byte	0x5a
 1992 0278 99020000 		.4byte	0x299
 1993 027c 09       		.uleb128 0x9
 1994 027d 85040000 		.4byte	.LASF28
 1995 0281 05       		.byte	0x5
 1996 0282 5B       		.byte	0x5b
 1997 0283 99020000 		.4byte	0x299
 1998 0287 02       		.byte	0x2
 1999 0288 23       		.byte	0x23
 2000 0289 00       		.uleb128 0x0
 2001 028a 09       		.uleb128 0x9
 2002 028b F2030000 		.4byte	.LASF29
 2003 028f 05       		.byte	0x5
 2004 0290 5D       		.byte	0x5d
 2005 0291 99020000 		.4byte	0x299
 2006 0295 02       		.byte	0x2
 2007 0296 23       		.byte	0x23
 2008 0297 04       		.uleb128 0x4
 2009 0298 00       		.byte	0x0
 2010 0299 06       		.uleb128 0x6
 2011 029a 04       		.byte	0x4
 2012 029b 44010000 		.4byte	0x144
 2013 029f 02       		.uleb128 0x2
 2014 02a0 48030000 		.4byte	.LASF47
 2015 02a4 05       		.byte	0x5
 2016 02a5 5F       		.byte	0x5f
 2017 02a6 74020000 		.4byte	0x274
 2018 02aa 0B       		.uleb128 0xb
 2019 02ab 04       		.byte	0x4
 2020 02ac 05       		.byte	0x5
ARM GAS  C:\Users\DNIEL~1\AppData\Local\Temp\ccRVTa3G.s 			page 39


 2021 02ad 64       		.byte	0x64
 2022 02ae C1020000 		.4byte	0x2c1
 2023 02b2 09       		.uleb128 0x9
 2024 02b3 85040000 		.4byte	.LASF28
 2025 02b7 05       		.byte	0x5
 2026 02b8 66       		.byte	0x66
 2027 02b9 99020000 		.4byte	0x299
 2028 02bd 02       		.byte	0x2
 2029 02be 23       		.byte	0x23
 2030 02bf 00       		.uleb128 0x0
 2031 02c0 00       		.byte	0x0
 2032 02c1 02       		.uleb128 0x2
 2033 02c2 A9020000 		.4byte	.LASF48
 2034 02c6 05       		.byte	0x5
 2035 02c7 69       		.byte	0x69
 2036 02c8 AA020000 		.4byte	0x2aa
 2037 02cc 02       		.uleb128 0x2
 2038 02cd C0010000 		.4byte	.LASF49
 2039 02d1 07       		.byte	0x7
 2040 02d2 DE       		.byte	0xde
 2041 02d3 73000000 		.4byte	0x73
 2042 02d7 02       		.uleb128 0x2
 2043 02d8 E5020000 		.4byte	.LASF50
 2044 02dc 07       		.byte	0x7
 2045 02dd E4       		.byte	0xe4
 2046 02de CB000000 		.4byte	0xcb
 2047 02e2 0C       		.uleb128 0xc
 2048 02e3 74050000 		.4byte	.LASF51
 2049 02e7 24       		.byte	0x24
 2050 02e8 07       		.byte	0x7
 2051 02e9 0501     		.2byte	0x105
 2052 02eb 70030000 		.4byte	0x370
 2053 02ef 0D       		.uleb128 0xd
 2054 02f0 723400   		.ascii	"r4\000"
 2055 02f3 07       		.byte	0x7
 2056 02f4 1801     		.2byte	0x118
 2057 02f6 CC020000 		.4byte	0x2cc
 2058 02fa 02       		.byte	0x2
 2059 02fb 23       		.byte	0x23
 2060 02fc 00       		.uleb128 0x0
 2061 02fd 0D       		.uleb128 0xd
 2062 02fe 723500   		.ascii	"r5\000"
 2063 0301 07       		.byte	0x7
 2064 0302 1901     		.2byte	0x119
 2065 0304 CC020000 		.4byte	0x2cc
 2066 0308 02       		.byte	0x2
 2067 0309 23       		.byte	0x23
 2068 030a 04       		.uleb128 0x4
 2069 030b 0D       		.uleb128 0xd
 2070 030c 723600   		.ascii	"r6\000"
 2071 030f 07       		.byte	0x7
 2072 0310 1A01     		.2byte	0x11a
 2073 0312 CC020000 		.4byte	0x2cc
 2074 0316 02       		.byte	0x2
 2075 0317 23       		.byte	0x23
 2076 0318 08       		.uleb128 0x8
 2077 0319 0D       		.uleb128 0xd
ARM GAS  C:\Users\DNIEL~1\AppData\Local\Temp\ccRVTa3G.s 			page 40


 2078 031a 723700   		.ascii	"r7\000"
 2079 031d 07       		.byte	0x7
 2080 031e 1B01     		.2byte	0x11b
 2081 0320 CC020000 		.4byte	0x2cc
 2082 0324 02       		.byte	0x2
 2083 0325 23       		.byte	0x23
 2084 0326 0C       		.uleb128 0xc
 2085 0327 0D       		.uleb128 0xd
 2086 0328 723800   		.ascii	"r8\000"
 2087 032b 07       		.byte	0x7
 2088 032c 1C01     		.2byte	0x11c
 2089 032e CC020000 		.4byte	0x2cc
 2090 0332 02       		.byte	0x2
 2091 0333 23       		.byte	0x23
 2092 0334 10       		.uleb128 0x10
 2093 0335 0D       		.uleb128 0xd
 2094 0336 723900   		.ascii	"r9\000"
 2095 0339 07       		.byte	0x7
 2096 033a 1D01     		.2byte	0x11d
 2097 033c CC020000 		.4byte	0x2cc
 2098 0340 02       		.byte	0x2
 2099 0341 23       		.byte	0x23
 2100 0342 14       		.uleb128 0x14
 2101 0343 0D       		.uleb128 0xd
 2102 0344 72313000 		.ascii	"r10\000"
 2103 0348 07       		.byte	0x7
 2104 0349 1E01     		.2byte	0x11e
 2105 034b CC020000 		.4byte	0x2cc
 2106 034f 02       		.byte	0x2
 2107 0350 23       		.byte	0x23
 2108 0351 18       		.uleb128 0x18
 2109 0352 0D       		.uleb128 0xd
 2110 0353 72313100 		.ascii	"r11\000"
 2111 0357 07       		.byte	0x7
 2112 0358 1F01     		.2byte	0x11f
 2113 035a CC020000 		.4byte	0x2cc
 2114 035e 02       		.byte	0x2
 2115 035f 23       		.byte	0x23
 2116 0360 1C       		.uleb128 0x1c
 2117 0361 0D       		.uleb128 0xd
 2118 0362 6C7200   		.ascii	"lr\000"
 2119 0365 07       		.byte	0x7
 2120 0366 2001     		.2byte	0x120
 2121 0368 CC020000 		.4byte	0x2cc
 2122 036c 02       		.byte	0x2
 2123 036d 23       		.byte	0x23
 2124 036e 20       		.uleb128 0x20
 2125 036f 00       		.byte	0x0
 2126 0370 0C       		.uleb128 0xc
 2127 0371 67050000 		.4byte	.LASF52
 2128 0375 04       		.byte	0x4
 2129 0376 07       		.byte	0x7
 2130 0377 2A01     		.2byte	0x12a
 2131 0379 8D030000 		.4byte	0x38d
 2132 037d 0D       		.uleb128 0xd
 2133 037e 72313300 		.ascii	"r13\000"
 2134 0382 07       		.byte	0x7
ARM GAS  C:\Users\DNIEL~1\AppData\Local\Temp\ccRVTa3G.s 			page 41


 2135 0383 2B01     		.2byte	0x12b
 2136 0385 8D030000 		.4byte	0x38d
 2137 0389 02       		.byte	0x2
 2138 038a 23       		.byte	0x23
 2139 038b 00       		.uleb128 0x0
 2140 038c 00       		.byte	0x0
 2141 038d 06       		.uleb128 0x6
 2142 038e 04       		.byte	0x4
 2143 038f E2020000 		.4byte	0x2e2
 2144 0393 0E       		.uleb128 0xe
 2145 0394 C0000000 		.4byte	0xc0
 2146 0398 0E       		.uleb128 0xe
 2147 0399 2E010000 		.4byte	0x12e
 2148 039d 0B       		.uleb128 0xb
 2149 039e 1C       		.byte	0x1c
 2150 039f 08       		.byte	0x8
 2151 03a0 57       		.byte	0x57
 2152 03a1 FA030000 		.4byte	0x3fa
 2153 03a5 09       		.uleb128 0x9
 2154 03a6 E9040000 		.4byte	.LASF53
 2155 03aa 08       		.byte	0x8
 2156 03ab 58       		.byte	0x58
 2157 03ac 9F020000 		.4byte	0x29f
 2158 03b0 02       		.byte	0x2
 2159 03b1 23       		.byte	0x23
 2160 03b2 00       		.uleb128 0x0
 2161 03b3 09       		.uleb128 0x9
 2162 03b4 77040000 		.4byte	.LASF54
 2163 03b8 08       		.byte	0x8
 2164 03b9 59       		.byte	0x59
 2165 03ba 02010000 		.4byte	0x102
 2166 03be 02       		.byte	0x2
 2167 03bf 23       		.byte	0x23
 2168 03c0 08       		.uleb128 0x8
 2169 03c1 09       		.uleb128 0x9
 2170 03c2 42030000 		.4byte	.LASF55
 2171 03c6 08       		.byte	0x8
 2172 03c7 5B       		.byte	0x5b
 2173 03c8 70030000 		.4byte	0x370
 2174 03cc 02       		.byte	0x2
 2175 03cd 23       		.byte	0x23
 2176 03ce 0C       		.uleb128 0xc
 2177 03cf 09       		.uleb128 0x9
 2178 03d0 B0010000 		.4byte	.LASF56
 2179 03d4 08       		.byte	0x8
 2180 03d5 5E       		.byte	0x5e
 2181 03d6 99020000 		.4byte	0x299
 2182 03da 02       		.byte	0x2
 2183 03db 23       		.byte	0x23
 2184 03dc 10       		.uleb128 0x10
 2185 03dd 09       		.uleb128 0x9
 2186 03de 64030000 		.4byte	.LASF57
 2187 03e2 08       		.byte	0x8
 2188 03e3 5F       		.byte	0x5f
 2189 03e4 99020000 		.4byte	0x299
 2190 03e8 02       		.byte	0x2
 2191 03e9 23       		.byte	0x23
ARM GAS  C:\Users\DNIEL~1\AppData\Local\Temp\ccRVTa3G.s 			page 42


 2192 03ea 14       		.uleb128 0x14
 2193 03eb 09       		.uleb128 0x9
 2194 03ec 5A030000 		.4byte	.LASF58
 2195 03f0 08       		.byte	0x8
 2196 03f1 62       		.byte	0x62
 2197 03f2 99020000 		.4byte	0x299
 2198 03f6 02       		.byte	0x2
 2199 03f7 23       		.byte	0x23
 2200 03f8 18       		.uleb128 0x18
 2201 03f9 00       		.byte	0x0
 2202 03fa 02       		.uleb128 0x2
 2203 03fb D5050000 		.4byte	.LASF59
 2204 03ff 08       		.byte	0x8
 2205 0400 64       		.byte	0x64
 2206 0401 9D030000 		.4byte	0x39d
 2207 0405 08       		.uleb128 0x8
 2208 0406 8A050000 		.4byte	.LASF60
 2209 040a 0C       		.byte	0xc
 2210 040b 09       		.byte	0x9
 2211 040c 25       		.byte	0x25
 2212 040d 2E040000 		.4byte	0x42e
 2213 0411 09       		.uleb128 0x9
 2214 0412 81010000 		.4byte	.LASF61
 2215 0416 09       		.byte	0x9
 2216 0417 26       		.byte	0x26
 2217 0418 9F020000 		.4byte	0x29f
 2218 041c 02       		.byte	0x2
 2219 041d 23       		.byte	0x23
 2220 041e 00       		.uleb128 0x0
 2221 041f 09       		.uleb128 0x9
 2222 0420 42020000 		.4byte	.LASF62
 2223 0424 09       		.byte	0x9
 2224 0425 28       		.byte	0x28
 2225 0426 39010000 		.4byte	0x139
 2226 042a 02       		.byte	0x2
 2227 042b 23       		.byte	0x23
 2228 042c 08       		.uleb128 0x8
 2229 042d 00       		.byte	0x0
 2230 042e 02       		.uleb128 0x2
 2231 042f 8A050000 		.4byte	.LASF60
 2232 0433 09       		.byte	0x9
 2233 0434 29       		.byte	0x29
 2234 0435 05040000 		.4byte	0x405
 2235 0439 08       		.uleb128 0x8
 2236 043a D1020000 		.4byte	.LASF63
 2237 043e 10       		.byte	0x10
 2238 043f 0A       		.byte	0xa
 2239 0440 25       		.byte	0x25
 2240 0441 70040000 		.4byte	0x470
 2241 0445 09       		.uleb128 0x9
 2242 0446 E8000000 		.4byte	.LASF64
 2243 044a 0A       		.byte	0xa
 2244 044b 26       		.byte	0x26
 2245 044c 9F020000 		.4byte	0x29f
 2246 0450 02       		.byte	0x2
 2247 0451 23       		.byte	0x23
 2248 0452 00       		.uleb128 0x0
ARM GAS  C:\Users\DNIEL~1\AppData\Local\Temp\ccRVTa3G.s 			page 43


 2249 0453 09       		.uleb128 0x9
 2250 0454 C6060000 		.4byte	.LASF65
 2251 0458 0A       		.byte	0xa
 2252 0459 28       		.byte	0x28
 2253 045a 99020000 		.4byte	0x299
 2254 045e 02       		.byte	0x2
 2255 045f 23       		.byte	0x23
 2256 0460 08       		.uleb128 0x8
 2257 0461 09       		.uleb128 0x9
 2258 0462 3E050000 		.4byte	.LASF66
 2259 0466 0A       		.byte	0xa
 2260 0467 2A       		.byte	0x2a
 2261 0468 70040000 		.4byte	0x470
 2262 046c 02       		.byte	0x2
 2263 046d 23       		.byte	0x23
 2264 046e 0C       		.uleb128 0xc
 2265 046f 00       		.byte	0x0
 2266 0470 06       		.uleb128 0x6
 2267 0471 04       		.byte	0x4
 2268 0472 39040000 		.4byte	0x439
 2269 0476 02       		.uleb128 0x2
 2270 0477 D1020000 		.4byte	.LASF63
 2271 047b 0A       		.byte	0xa
 2272 047c 2C       		.byte	0x2c
 2273 047d 39040000 		.4byte	0x439
 2274 0481 02       		.uleb128 0x2
 2275 0482 23060000 		.4byte	.LASF67
 2276 0486 0B       		.byte	0xb
 2277 0487 25       		.byte	0x25
 2278 0488 8C040000 		.4byte	0x48c
 2279 048c 08       		.uleb128 0x8
 2280 048d 23060000 		.4byte	.LASF67
 2281 0491 10       		.byte	0x10
 2282 0492 0B       		.byte	0xb
 2283 0493 2A       		.byte	0x2a
 2284 0494 D1040000 		.4byte	0x4d1
 2285 0498 09       		.uleb128 0x9
 2286 0499 92020000 		.4byte	.LASF68
 2287 049d 0B       		.byte	0xb
 2288 049e 2B       		.byte	0x2b
 2289 049f D1040000 		.4byte	0x4d1
 2290 04a3 02       		.byte	0x2
 2291 04a4 23       		.byte	0x23
 2292 04a5 00       		.uleb128 0x0
 2293 04a6 09       		.uleb128 0x9
 2294 04a7 2F040000 		.4byte	.LASF69
 2295 04ab 0B       		.byte	0xb
 2296 04ac 2E       		.byte	0x2e
 2297 04ad 99020000 		.4byte	0x299
 2298 04b1 02       		.byte	0x2
 2299 04b2 23       		.byte	0x23
 2300 04b3 04       		.uleb128 0x4
 2301 04b4 09       		.uleb128 0x9
 2302 04b5 6C030000 		.4byte	.LASF70
 2303 04b9 0B       		.byte	0xb
 2304 04ba 30       		.byte	0x30
 2305 04bb 18010000 		.4byte	0x118
ARM GAS  C:\Users\DNIEL~1\AppData\Local\Temp\ccRVTa3G.s 			page 44


 2306 04bf 02       		.byte	0x2
 2307 04c0 23       		.byte	0x23
 2308 04c1 08       		.uleb128 0x8
 2309 04c2 09       		.uleb128 0x9
 2310 04c3 48040000 		.4byte	.LASF71
 2311 04c7 0B       		.byte	0xb
 2312 04c8 33       		.byte	0x33
 2313 04c9 23010000 		.4byte	0x123
 2314 04cd 02       		.byte	0x2
 2315 04ce 23       		.byte	0x23
 2316 04cf 0C       		.uleb128 0xc
 2317 04d0 00       		.byte	0x0
 2318 04d1 06       		.uleb128 0x6
 2319 04d2 04       		.byte	0x4
 2320 04d3 81040000 		.4byte	0x481
 2321 04d7 08       		.uleb128 0x8
 2322 04d8 D3010000 		.4byte	.LASF72
 2323 04dc 04       		.byte	0x4
 2324 04dd 0B       		.byte	0xb
 2325 04de 3A       		.byte	0x3a
 2326 04df F2040000 		.4byte	0x4f2
 2327 04e3 09       		.uleb128 0x9
 2328 04e4 C6050000 		.4byte	.LASF73
 2329 04e8 0B       		.byte	0xb
 2330 04e9 3B       		.byte	0x3b
 2331 04ea D1040000 		.4byte	0x4d1
 2332 04ee 02       		.byte	0x2
 2333 04ef 23       		.byte	0x23
 2334 04f0 00       		.uleb128 0x0
 2335 04f1 00       		.byte	0x0
 2336 04f2 02       		.uleb128 0x2
 2337 04f3 D3010000 		.4byte	.LASF72
 2338 04f7 0B       		.byte	0xb
 2339 04f8 3E       		.byte	0x3e
 2340 04f9 D7040000 		.4byte	0x4d7
 2341 04fd 0F       		.uleb128 0xf
 2342 04fe 04       		.byte	0x4
 2343 04ff 06       		.byte	0x6
 2344 0500 8F       		.byte	0x8f
 2345 0501 32050000 		.4byte	0x532
 2346 0505 10       		.uleb128 0x10
 2347 0506 45000000 		.4byte	.LASF74
 2348 050a 06       		.byte	0x6
 2349 050b 96       		.byte	0x96
 2350 050c 0D010000 		.4byte	0x10d
 2351 0510 10       		.uleb128 0x10
 2352 0511 97000000 		.4byte	.LASF75
 2353 0515 06       		.byte	0x6
 2354 0516 9D       		.byte	0x9d
 2355 0517 0D010000 		.4byte	0x10d
 2356 051b 10       		.uleb128 0x10
 2357 051c 31060000 		.4byte	.LASF76
 2358 0520 06       		.byte	0x6
 2359 0521 A4       		.byte	0xa4
 2360 0522 73000000 		.4byte	0x73
 2361 0526 10       		.uleb128 0x10
 2362 0527 7E040000 		.4byte	.LASF77
ARM GAS  C:\Users\DNIEL~1\AppData\Local\Temp\ccRVTa3G.s 			page 45


 2363 052b 06       		.byte	0x6
 2364 052c AB       		.byte	0xab
 2365 052d 18010000 		.4byte	0x118
 2366 0531 00       		.byte	0x0
 2367 0532 06       		.uleb128 0x6
 2368 0533 04       		.byte	0x4
 2369 0534 76040000 		.4byte	0x476
 2370 0538 06       		.uleb128 0x6
 2371 0539 04       		.byte	0x4
 2372 053a 3E050000 		.4byte	0x53e
 2373 053e 11       		.uleb128 0x11
 2374 053f 01       		.byte	0x1
 2375 0540 0D010000 		.4byte	0x10d
 2376 0544 4E050000 		.4byte	0x54e
 2377 0548 12       		.uleb128 0x12
 2378 0549 73000000 		.4byte	0x73
 2379 054d 00       		.byte	0x0
 2380 054e 06       		.uleb128 0x6
 2381 054f 04       		.byte	0x4
 2382 0550 94000000 		.4byte	0x94
 2383 0554 08       		.uleb128 0x8
 2384 0555 8C040000 		.4byte	.LASF78
 2385 0559 10       		.byte	0x10
 2386 055a 0C       		.byte	0xc
 2387 055b 41       		.byte	0x41
 2388 055c 99050000 		.4byte	0x599
 2389 0560 09       		.uleb128 0x9
 2390 0561 F0020000 		.4byte	.LASF79
 2391 0565 0C       		.byte	0xc
 2392 0566 42       		.byte	0x42
 2393 0567 BE050000 		.4byte	0x5be
 2394 056b 02       		.byte	0x2
 2395 056c 23       		.byte	0x23
 2396 056d 00       		.uleb128 0x0
 2397 056e 09       		.uleb128 0x9
 2398 056f 9A030000 		.4byte	.LASF80
 2399 0573 0C       		.byte	0xc
 2400 0574 42       		.byte	0x42
 2401 0575 DE050000 		.4byte	0x5de
 2402 0579 02       		.byte	0x2
 2403 057a 23       		.byte	0x23
 2404 057b 04       		.uleb128 0x4
 2405 057c 0A       		.uleb128 0xa
 2406 057d 70757400 		.ascii	"put\000"
 2407 0581 0C       		.byte	0xc
 2408 0582 42       		.byte	0x42
 2409 0583 F9050000 		.4byte	0x5f9
 2410 0587 02       		.byte	0x2
 2411 0588 23       		.byte	0x23
 2412 0589 08       		.uleb128 0x8
 2413 058a 0A       		.uleb128 0xa
 2414 058b 67657400 		.ascii	"get\000"
 2415 058f 0C       		.byte	0xc
 2416 0590 42       		.byte	0x42
 2417 0591 38050000 		.4byte	0x538
 2418 0595 02       		.byte	0x2
 2419 0596 23       		.byte	0x23
ARM GAS  C:\Users\DNIEL~1\AppData\Local\Temp\ccRVTa3G.s 			page 46


 2420 0597 0C       		.uleb128 0xc
 2421 0598 00       		.byte	0x0
 2422 0599 11       		.uleb128 0x11
 2423 059a 01       		.byte	0x1
 2424 059b 29000000 		.4byte	0x29
 2425 059f B3050000 		.4byte	0x5b3
 2426 05a3 12       		.uleb128 0x12
 2427 05a4 73000000 		.4byte	0x73
 2428 05a8 12       		.uleb128 0x12
 2429 05a9 B3050000 		.4byte	0x5b3
 2430 05ad 12       		.uleb128 0x12
 2431 05ae 29000000 		.4byte	0x29
 2432 05b2 00       		.byte	0x0
 2433 05b3 06       		.uleb128 0x6
 2434 05b4 04       		.byte	0x4
 2435 05b5 B9050000 		.4byte	0x5b9
 2436 05b9 07       		.uleb128 0x7
 2437 05ba 94000000 		.4byte	0x94
 2438 05be 06       		.uleb128 0x6
 2439 05bf 04       		.byte	0x4
 2440 05c0 99050000 		.4byte	0x599
 2441 05c4 11       		.uleb128 0x11
 2442 05c5 01       		.byte	0x1
 2443 05c6 29000000 		.4byte	0x29
 2444 05ca DE050000 		.4byte	0x5de
 2445 05ce 12       		.uleb128 0x12
 2446 05cf 73000000 		.4byte	0x73
 2447 05d3 12       		.uleb128 0x12
 2448 05d4 4E050000 		.4byte	0x54e
 2449 05d8 12       		.uleb128 0x12
 2450 05d9 29000000 		.4byte	0x29
 2451 05dd 00       		.byte	0x0
 2452 05de 06       		.uleb128 0x6
 2453 05df 04       		.byte	0x4
 2454 05e0 C4050000 		.4byte	0x5c4
 2455 05e4 11       		.uleb128 0x11
 2456 05e5 01       		.byte	0x1
 2457 05e6 0D010000 		.4byte	0x10d
 2458 05ea F9050000 		.4byte	0x5f9
 2459 05ee 12       		.uleb128 0x12
 2460 05ef 73000000 		.4byte	0x73
 2461 05f3 12       		.uleb128 0x12
 2462 05f4 94000000 		.4byte	0x94
 2463 05f8 00       		.byte	0x0
 2464 05f9 06       		.uleb128 0x6
 2465 05fa 04       		.byte	0x4
 2466 05fb E4050000 		.4byte	0x5e4
 2467 05ff 0B       		.uleb128 0xb
 2468 0600 04       		.byte	0x4
 2469 0601 0C       		.byte	0xc
 2470 0602 4A       		.byte	0x4a
 2471 0603 16060000 		.4byte	0x616
 2472 0607 0A       		.uleb128 0xa
 2473 0608 766D7400 		.ascii	"vmt\000"
 2474 060c 0C       		.byte	0xc
 2475 060d 4C       		.byte	0x4c
 2476 060e 16060000 		.4byte	0x616
ARM GAS  C:\Users\DNIEL~1\AppData\Local\Temp\ccRVTa3G.s 			page 47


 2477 0612 02       		.byte	0x2
 2478 0613 23       		.byte	0x23
 2479 0614 00       		.uleb128 0x0
 2480 0615 00       		.byte	0x0
 2481 0616 06       		.uleb128 0x6
 2482 0617 04       		.byte	0x4
 2483 0618 1C060000 		.4byte	0x61c
 2484 061c 07       		.uleb128 0x7
 2485 061d 54050000 		.4byte	0x554
 2486 0621 02       		.uleb128 0x2
 2487 0622 DF010000 		.4byte	.LASF81
 2488 0626 0C       		.byte	0xc
 2489 0627 4E       		.byte	0x4e
 2490 0628 FF050000 		.4byte	0x5ff
 2491 062c 13       		.uleb128 0x13
 2492 062d C0000000 		.4byte	0xc0
 2493 0631 3C060000 		.4byte	0x63c
 2494 0635 14       		.uleb128 0x14
 2495 0636 34000000 		.4byte	0x34
 2496 063a 07       		.byte	0x7
 2497 063b 00       		.byte	0x0
 2498 063c 13       		.uleb128 0x13
 2499 063d C0000000 		.4byte	0xc0
 2500 0641 4C060000 		.4byte	0x64c
 2501 0645 14       		.uleb128 0x14
 2502 0646 34000000 		.4byte	0x34
 2503 064a 01       		.byte	0x1
 2504 064b 00       		.byte	0x0
 2505 064c 0E       		.uleb128 0xe
 2506 064d B5000000 		.4byte	0xb5
 2507 0651 15       		.uleb128 0x15
 2508 0652 10       		.byte	0x10
 2509 0653 0D       		.byte	0xd
 2510 0654 5101     		.2byte	0x151
 2511 0656 97060000 		.4byte	0x697
 2512 065a 0D       		.uleb128 0xd
 2513 065b 54495200 		.ascii	"TIR\000"
 2514 065f 0D       		.byte	0xd
 2515 0660 5301     		.2byte	0x153
 2516 0662 93030000 		.4byte	0x393
 2517 0666 02       		.byte	0x2
 2518 0667 23       		.byte	0x23
 2519 0668 00       		.uleb128 0x0
 2520 0669 16       		.uleb128 0x16
 2521 066a CE010000 		.4byte	.LASF82
 2522 066e 0D       		.byte	0xd
 2523 066f 5401     		.2byte	0x154
 2524 0671 93030000 		.4byte	0x393
 2525 0675 02       		.byte	0x2
 2526 0676 23       		.byte	0x23
 2527 0677 04       		.uleb128 0x4
 2528 0678 16       		.uleb128 0x16
 2529 0679 12010000 		.4byte	.LASF83
 2530 067d 0D       		.byte	0xd
 2531 067e 5501     		.2byte	0x155
 2532 0680 93030000 		.4byte	0x393
 2533 0684 02       		.byte	0x2
ARM GAS  C:\Users\DNIEL~1\AppData\Local\Temp\ccRVTa3G.s 			page 48


 2534 0685 23       		.byte	0x23
 2535 0686 08       		.uleb128 0x8
 2536 0687 16       		.uleb128 0x16
 2537 0688 55030000 		.4byte	.LASF84
 2538 068c 0D       		.byte	0xd
 2539 068d 5601     		.2byte	0x156
 2540 068f 93030000 		.4byte	0x393
 2541 0693 02       		.byte	0x2
 2542 0694 23       		.byte	0x23
 2543 0695 0C       		.uleb128 0xc
 2544 0696 00       		.byte	0x0
 2545 0697 17       		.uleb128 0x17
 2546 0698 39010000 		.4byte	.LASF85
 2547 069c 0D       		.byte	0xd
 2548 069d 5701     		.2byte	0x157
 2549 069f 51060000 		.4byte	0x651
 2550 06a3 15       		.uleb128 0x15
 2551 06a4 10       		.byte	0x10
 2552 06a5 0D       		.byte	0xd
 2553 06a6 5D01     		.2byte	0x15d
 2554 06a8 E9060000 		.4byte	0x6e9
 2555 06ac 0D       		.uleb128 0xd
 2556 06ad 52495200 		.ascii	"RIR\000"
 2557 06b1 0D       		.byte	0xd
 2558 06b2 5F01     		.2byte	0x15f
 2559 06b4 93030000 		.4byte	0x393
 2560 06b8 02       		.byte	0x2
 2561 06b9 23       		.byte	0x23
 2562 06ba 00       		.uleb128 0x0
 2563 06bb 16       		.uleb128 0x16
 2564 06bc 2D020000 		.4byte	.LASF86
 2565 06c0 0D       		.byte	0xd
 2566 06c1 6001     		.2byte	0x160
 2567 06c3 93030000 		.4byte	0x393
 2568 06c7 02       		.byte	0x2
 2569 06c8 23       		.byte	0x23
 2570 06c9 04       		.uleb128 0x4
 2571 06ca 16       		.uleb128 0x16
 2572 06cb BC060000 		.4byte	.LASF87
 2573 06cf 0D       		.byte	0xd
 2574 06d0 6101     		.2byte	0x161
 2575 06d2 93030000 		.4byte	0x393
 2576 06d6 02       		.byte	0x2
 2577 06d7 23       		.byte	0x23
 2578 06d8 08       		.uleb128 0x8
 2579 06d9 16       		.uleb128 0x16
 2580 06da 30050000 		.4byte	.LASF88
 2581 06de 0D       		.byte	0xd
 2582 06df 6201     		.2byte	0x162
 2583 06e1 93030000 		.4byte	0x393
 2584 06e5 02       		.byte	0x2
 2585 06e6 23       		.byte	0x23
 2586 06e7 0C       		.uleb128 0xc
 2587 06e8 00       		.byte	0x0
 2588 06e9 17       		.uleb128 0x17
 2589 06ea DF050000 		.4byte	.LASF89
 2590 06ee 0D       		.byte	0xd
ARM GAS  C:\Users\DNIEL~1\AppData\Local\Temp\ccRVTa3G.s 			page 49


 2591 06ef 6301     		.2byte	0x163
 2592 06f1 A3060000 		.4byte	0x6a3
 2593 06f5 15       		.uleb128 0x15
 2594 06f6 08       		.byte	0x8
 2595 06f7 0D       		.byte	0xd
 2596 06f8 6901     		.2byte	0x169
 2597 06fa 1D070000 		.4byte	0x71d
 2598 06fe 0D       		.uleb128 0xd
 2599 06ff 46523100 		.ascii	"FR1\000"
 2600 0703 0D       		.byte	0xd
 2601 0704 6B01     		.2byte	0x16b
 2602 0706 93030000 		.4byte	0x393
 2603 070a 02       		.byte	0x2
 2604 070b 23       		.byte	0x23
 2605 070c 00       		.uleb128 0x0
 2606 070d 0D       		.uleb128 0xd
 2607 070e 46523200 		.ascii	"FR2\000"
 2608 0712 0D       		.byte	0xd
 2609 0713 6C01     		.2byte	0x16c
 2610 0715 93030000 		.4byte	0x393
 2611 0719 02       		.byte	0x2
 2612 071a 23       		.byte	0x23
 2613 071b 04       		.uleb128 0x4
 2614 071c 00       		.byte	0x0
 2615 071d 17       		.uleb128 0x17
 2616 071e 71020000 		.4byte	.LASF90
 2617 0722 0D       		.byte	0xd
 2618 0723 6D01     		.2byte	0x16d
 2619 0725 F5060000 		.4byte	0x6f5
 2620 0729 18       		.uleb128 0x18
 2621 072a 2003     		.2byte	0x320
 2622 072c 0D       		.byte	0xd
 2623 072d 7301     		.2byte	0x173
 2624 072f 8B080000 		.4byte	0x88b
 2625 0733 0D       		.uleb128 0xd
 2626 0734 4D435200 		.ascii	"MCR\000"
 2627 0738 0D       		.byte	0xd
 2628 0739 7501     		.2byte	0x175
 2629 073b 93030000 		.4byte	0x393
 2630 073f 02       		.byte	0x2
 2631 0740 23       		.byte	0x23
 2632 0741 00       		.uleb128 0x0
 2633 0742 0D       		.uleb128 0xd
 2634 0743 4D535200 		.ascii	"MSR\000"
 2635 0747 0D       		.byte	0xd
 2636 0748 7601     		.2byte	0x176
 2637 074a 93030000 		.4byte	0x393
 2638 074e 02       		.byte	0x2
 2639 074f 23       		.byte	0x23
 2640 0750 04       		.uleb128 0x4
 2641 0751 0D       		.uleb128 0xd
 2642 0752 54535200 		.ascii	"TSR\000"
 2643 0756 0D       		.byte	0xd
 2644 0757 7701     		.2byte	0x177
 2645 0759 93030000 		.4byte	0x393
 2646 075d 02       		.byte	0x2
 2647 075e 23       		.byte	0x23
ARM GAS  C:\Users\DNIEL~1\AppData\Local\Temp\ccRVTa3G.s 			page 50


 2648 075f 08       		.uleb128 0x8
 2649 0760 16       		.uleb128 0x16
 2650 0761 9E010000 		.4byte	.LASF91
 2651 0765 0D       		.byte	0xd
 2652 0766 7801     		.2byte	0x178
 2653 0768 93030000 		.4byte	0x393
 2654 076c 02       		.byte	0x2
 2655 076d 23       		.byte	0x23
 2656 076e 0C       		.uleb128 0xc
 2657 076f 16       		.uleb128 0x16
 2658 0770 65020000 		.4byte	.LASF92
 2659 0774 0D       		.byte	0xd
 2660 0775 7901     		.2byte	0x179
 2661 0777 93030000 		.4byte	0x393
 2662 077b 02       		.byte	0x2
 2663 077c 23       		.byte	0x23
 2664 077d 10       		.uleb128 0x10
 2665 077e 0D       		.uleb128 0xd
 2666 077f 49455200 		.ascii	"IER\000"
 2667 0783 0D       		.byte	0xd
 2668 0784 7A01     		.2byte	0x17a
 2669 0786 93030000 		.4byte	0x393
 2670 078a 02       		.byte	0x2
 2671 078b 23       		.byte	0x23
 2672 078c 14       		.uleb128 0x14
 2673 078d 0D       		.uleb128 0xd
 2674 078e 45535200 		.ascii	"ESR\000"
 2675 0792 0D       		.byte	0xd
 2676 0793 7B01     		.2byte	0x17b
 2677 0795 93030000 		.4byte	0x393
 2678 0799 02       		.byte	0x2
 2679 079a 23       		.byte	0x23
 2680 079b 18       		.uleb128 0x18
 2681 079c 0D       		.uleb128 0xd
 2682 079d 42545200 		.ascii	"BTR\000"
 2683 07a1 0D       		.byte	0xd
 2684 07a2 7C01     		.2byte	0x17c
 2685 07a4 93030000 		.4byte	0x393
 2686 07a8 02       		.byte	0x2
 2687 07a9 23       		.byte	0x23
 2688 07aa 1C       		.uleb128 0x1c
 2689 07ab 16       		.uleb128 0x16
 2690 07ac C0030000 		.4byte	.LASF93
 2691 07b0 0D       		.byte	0xd
 2692 07b1 7D01     		.2byte	0x17d
 2693 07b3 8B080000 		.4byte	0x88b
 2694 07b7 02       		.byte	0x2
 2695 07b8 23       		.byte	0x23
 2696 07b9 20       		.uleb128 0x20
 2697 07ba 16       		.uleb128 0x16
 2698 07bb 17020000 		.4byte	.LASF94
 2699 07bf 0D       		.byte	0xd
 2700 07c0 7E01     		.2byte	0x17e
 2701 07c2 9B080000 		.4byte	0x89b
 2702 07c6 03       		.byte	0x3
 2703 07c7 23       		.byte	0x23
 2704 07c8 8003     		.uleb128 0x180
ARM GAS  C:\Users\DNIEL~1\AppData\Local\Temp\ccRVTa3G.s 			page 51


 2705 07ca 16       		.uleb128 0x16
 2706 07cb 5A050000 		.4byte	.LASF95
 2707 07cf 0D       		.byte	0xd
 2708 07d0 7F01     		.2byte	0x17f
 2709 07d2 AB080000 		.4byte	0x8ab
 2710 07d6 03       		.byte	0x3
 2711 07d7 23       		.byte	0x23
 2712 07d8 B003     		.uleb128 0x1b0
 2713 07da 16       		.uleb128 0x16
 2714 07db CA030000 		.4byte	.LASF96
 2715 07df 0D       		.byte	0xd
 2716 07e0 8001     		.2byte	0x180
 2717 07e2 BB080000 		.4byte	0x8bb
 2718 07e6 03       		.byte	0x3
 2719 07e7 23       		.byte	0x23
 2720 07e8 D003     		.uleb128 0x1d0
 2721 07ea 0D       		.uleb128 0xd
 2722 07eb 464D5200 		.ascii	"FMR\000"
 2723 07ef 0D       		.byte	0xd
 2724 07f0 8101     		.2byte	0x181
 2725 07f2 93030000 		.4byte	0x393
 2726 07f6 03       		.byte	0x3
 2727 07f7 23       		.byte	0x23
 2728 07f8 8004     		.uleb128 0x200
 2729 07fa 16       		.uleb128 0x16
 2730 07fb AC040000 		.4byte	.LASF97
 2731 07ff 0D       		.byte	0xd
 2732 0800 8201     		.2byte	0x182
 2733 0802 93030000 		.4byte	0x393
 2734 0806 03       		.byte	0x3
 2735 0807 23       		.byte	0x23
 2736 0808 8404     		.uleb128 0x204
 2737 080a 16       		.uleb128 0x16
 2738 080b D4030000 		.4byte	.LASF98
 2739 080f 0D       		.byte	0xd
 2740 0810 8301     		.2byte	0x183
 2741 0812 C0000000 		.4byte	0xc0
 2742 0816 03       		.byte	0x3
 2743 0817 23       		.byte	0x23
 2744 0818 8804     		.uleb128 0x208
 2745 081a 16       		.uleb128 0x16
 2746 081b A0000000 		.4byte	.LASF99
 2747 081f 0D       		.byte	0xd
 2748 0820 8401     		.2byte	0x184
 2749 0822 93030000 		.4byte	0x393
 2750 0826 03       		.byte	0x3
 2751 0827 23       		.byte	0x23
 2752 0828 8C04     		.uleb128 0x20c
 2753 082a 16       		.uleb128 0x16
 2754 082b DE030000 		.4byte	.LASF100
 2755 082f 0D       		.byte	0xd
 2756 0830 8501     		.2byte	0x185
 2757 0832 C0000000 		.4byte	0xc0
 2758 0836 03       		.byte	0x3
 2759 0837 23       		.byte	0x23
 2760 0838 9004     		.uleb128 0x210
 2761 083a 16       		.uleb128 0x16
ARM GAS  C:\Users\DNIEL~1\AppData\Local\Temp\ccRVTa3G.s 			page 52


 2762 083b 94030000 		.4byte	.LASF101
 2763 083f 0D       		.byte	0xd
 2764 0840 8601     		.2byte	0x186
 2765 0842 93030000 		.4byte	0x393
 2766 0846 03       		.byte	0x3
 2767 0847 23       		.byte	0x23
 2768 0848 9404     		.uleb128 0x214
 2769 084a 16       		.uleb128 0x16
 2770 084b E8030000 		.4byte	.LASF102
 2771 084f 0D       		.byte	0xd
 2772 0850 8701     		.2byte	0x187
 2773 0852 C0000000 		.4byte	0xc0
 2774 0856 03       		.byte	0x3
 2775 0857 23       		.byte	0x23
 2776 0858 9804     		.uleb128 0x218
 2777 085a 16       		.uleb128 0x16
 2778 085b FB020000 		.4byte	.LASF103
 2779 085f 0D       		.byte	0xd
 2780 0860 8801     		.2byte	0x188
 2781 0862 93030000 		.4byte	0x393
 2782 0866 03       		.byte	0x3
 2783 0867 23       		.byte	0x23
 2784 0868 9C04     		.uleb128 0x21c
 2785 086a 16       		.uleb128 0x16
 2786 086b D4040000 		.4byte	.LASF104
 2787 086f 0D       		.byte	0xd
 2788 0870 8901     		.2byte	0x189
 2789 0872 2C060000 		.4byte	0x62c
 2790 0876 03       		.byte	0x3
 2791 0877 23       		.byte	0x23
 2792 0878 A004     		.uleb128 0x220
 2793 087a 16       		.uleb128 0x16
 2794 087b B5020000 		.4byte	.LASF105
 2795 087f 0D       		.byte	0xd
 2796 0880 8A01     		.2byte	0x18a
 2797 0882 CB080000 		.4byte	0x8cb
 2798 0886 03       		.byte	0x3
 2799 0887 23       		.byte	0x23
 2800 0888 C004     		.uleb128 0x240
 2801 088a 00       		.byte	0x0
 2802 088b 13       		.uleb128 0x13
 2803 088c C0000000 		.4byte	0xc0
 2804 0890 9B080000 		.4byte	0x89b
 2805 0894 14       		.uleb128 0x14
 2806 0895 34000000 		.4byte	0x34
 2807 0899 57       		.byte	0x57
 2808 089a 00       		.byte	0x0
 2809 089b 13       		.uleb128 0x13
 2810 089c 97060000 		.4byte	0x697
 2811 08a0 AB080000 		.4byte	0x8ab
 2812 08a4 14       		.uleb128 0x14
 2813 08a5 34000000 		.4byte	0x34
 2814 08a9 02       		.byte	0x2
 2815 08aa 00       		.byte	0x0
 2816 08ab 13       		.uleb128 0x13
 2817 08ac E9060000 		.4byte	0x6e9
 2818 08b0 BB080000 		.4byte	0x8bb
ARM GAS  C:\Users\DNIEL~1\AppData\Local\Temp\ccRVTa3G.s 			page 53


 2819 08b4 14       		.uleb128 0x14
 2820 08b5 34000000 		.4byte	0x34
 2821 08b9 01       		.byte	0x1
 2822 08ba 00       		.byte	0x0
 2823 08bb 13       		.uleb128 0x13
 2824 08bc C0000000 		.4byte	0xc0
 2825 08c0 CB080000 		.4byte	0x8cb
 2826 08c4 14       		.uleb128 0x14
 2827 08c5 34000000 		.4byte	0x34
 2828 08c9 0B       		.byte	0xb
 2829 08ca 00       		.byte	0x0
 2830 08cb 13       		.uleb128 0x13
 2831 08cc 1D070000 		.4byte	0x71d
 2832 08d0 DB080000 		.4byte	0x8db
 2833 08d4 14       		.uleb128 0x14
 2834 08d5 34000000 		.4byte	0x34
 2835 08d9 1B       		.byte	0x1b
 2836 08da 00       		.byte	0x0
 2837 08db 17       		.uleb128 0x17
 2838 08dc 5F000000 		.4byte	.LASF106
 2839 08e0 0D       		.byte	0xd
 2840 08e1 8B01     		.2byte	0x18b
 2841 08e3 29070000 		.4byte	0x729
 2842 08e7 08       		.uleb128 0x8
 2843 08e8 88000000 		.4byte	.LASF107
 2844 08ec 20       		.byte	0x20
 2845 08ed 0E       		.byte	0xe
 2846 08ee 46       		.byte	0x46
 2847 08ef 64090000 		.4byte	0x964
 2848 08f3 09       		.uleb128 0x9
 2849 08f4 F0020000 		.4byte	.LASF79
 2850 08f8 0E       		.byte	0xe
 2851 08f9 47       		.byte	0x47
 2852 08fa BE050000 		.4byte	0x5be
 2853 08fe 02       		.byte	0x2
 2854 08ff 23       		.byte	0x23
 2855 0900 00       		.uleb128 0x0
 2856 0901 09       		.uleb128 0x9
 2857 0902 9A030000 		.4byte	.LASF80
 2858 0906 0E       		.byte	0xe
 2859 0907 47       		.byte	0x47
 2860 0908 DE050000 		.4byte	0x5de
 2861 090c 02       		.byte	0x2
 2862 090d 23       		.byte	0x23
 2863 090e 04       		.uleb128 0x4
 2864 090f 0A       		.uleb128 0xa
 2865 0910 70757400 		.ascii	"put\000"
 2866 0914 0E       		.byte	0xe
 2867 0915 47       		.byte	0x47
 2868 0916 F9050000 		.4byte	0x5f9
 2869 091a 02       		.byte	0x2
 2870 091b 23       		.byte	0x23
 2871 091c 08       		.uleb128 0x8
 2872 091d 0A       		.uleb128 0xa
 2873 091e 67657400 		.ascii	"get\000"
 2874 0922 0E       		.byte	0xe
 2875 0923 47       		.byte	0x47
ARM GAS  C:\Users\DNIEL~1\AppData\Local\Temp\ccRVTa3G.s 			page 54


 2876 0924 38050000 		.4byte	0x538
 2877 0928 02       		.byte	0x2
 2878 0929 23       		.byte	0x23
 2879 092a 0C       		.uleb128 0xc
 2880 092b 09       		.uleb128 0x9
 2881 092c F6020000 		.4byte	.LASF108
 2882 0930 0E       		.byte	0xe
 2883 0931 47       		.byte	0x47
 2884 0932 7E090000 		.4byte	0x97e
 2885 0936 02       		.byte	0x2
 2886 0937 23       		.byte	0x23
 2887 0938 10       		.uleb128 0x10
 2888 0939 09       		.uleb128 0x9
 2889 093a 3D020000 		.4byte	.LASF109
 2890 093e 0E       		.byte	0xe
 2891 093f 47       		.byte	0x47
 2892 0940 99090000 		.4byte	0x999
 2893 0944 02       		.byte	0x2
 2894 0945 23       		.byte	0x23
 2895 0946 14       		.uleb128 0x14
 2896 0947 09       		.uleb128 0x9
 2897 0948 9A020000 		.4byte	.LASF110
 2898 094c 0E       		.byte	0xe
 2899 094d 47       		.byte	0x47
 2900 094e BE090000 		.4byte	0x9be
 2901 0952 02       		.byte	0x2
 2902 0953 23       		.byte	0x23
 2903 0954 18       		.uleb128 0x18
 2904 0955 09       		.uleb128 0x9
 2905 0956 B3000000 		.4byte	.LASF111
 2906 095a 0E       		.byte	0xe
 2907 095b 47       		.byte	0x47
 2908 095c E3090000 		.4byte	0x9e3
 2909 0960 02       		.byte	0x2
 2910 0961 23       		.byte	0x23
 2911 0962 1C       		.uleb128 0x1c
 2912 0963 00       		.byte	0x0
 2913 0964 11       		.uleb128 0x11
 2914 0965 01       		.byte	0x1
 2915 0966 0D010000 		.4byte	0x10d
 2916 096a 7E090000 		.4byte	0x97e
 2917 096e 12       		.uleb128 0x12
 2918 096f 73000000 		.4byte	0x73
 2919 0973 12       		.uleb128 0x12
 2920 0974 94000000 		.4byte	0x94
 2921 0978 12       		.uleb128 0x12
 2922 0979 2E010000 		.4byte	0x12e
 2923 097d 00       		.byte	0x0
 2924 097e 06       		.uleb128 0x6
 2925 097f 04       		.byte	0x4
 2926 0980 64090000 		.4byte	0x964
 2927 0984 11       		.uleb128 0x11
 2928 0985 01       		.byte	0x1
 2929 0986 0D010000 		.4byte	0x10d
 2930 098a 99090000 		.4byte	0x999
 2931 098e 12       		.uleb128 0x12
 2932 098f 73000000 		.4byte	0x73
ARM GAS  C:\Users\DNIEL~1\AppData\Local\Temp\ccRVTa3G.s 			page 55


 2933 0993 12       		.uleb128 0x12
 2934 0994 2E010000 		.4byte	0x12e
 2935 0998 00       		.byte	0x0
 2936 0999 06       		.uleb128 0x6
 2937 099a 04       		.byte	0x4
 2938 099b 84090000 		.4byte	0x984
 2939 099f 11       		.uleb128 0x11
 2940 09a0 01       		.byte	0x1
 2941 09a1 29000000 		.4byte	0x29
 2942 09a5 BE090000 		.4byte	0x9be
 2943 09a9 12       		.uleb128 0x12
 2944 09aa 73000000 		.4byte	0x73
 2945 09ae 12       		.uleb128 0x12
 2946 09af B3050000 		.4byte	0x5b3
 2947 09b3 12       		.uleb128 0x12
 2948 09b4 29000000 		.4byte	0x29
 2949 09b8 12       		.uleb128 0x12
 2950 09b9 2E010000 		.4byte	0x12e
 2951 09bd 00       		.byte	0x0
 2952 09be 06       		.uleb128 0x6
 2953 09bf 04       		.byte	0x4
 2954 09c0 9F090000 		.4byte	0x99f
 2955 09c4 11       		.uleb128 0x11
 2956 09c5 01       		.byte	0x1
 2957 09c6 29000000 		.4byte	0x29
 2958 09ca E3090000 		.4byte	0x9e3
 2959 09ce 12       		.uleb128 0x12
 2960 09cf 73000000 		.4byte	0x73
 2961 09d3 12       		.uleb128 0x12
 2962 09d4 4E050000 		.4byte	0x54e
 2963 09d8 12       		.uleb128 0x12
 2964 09d9 29000000 		.4byte	0x29
 2965 09dd 12       		.uleb128 0x12
 2966 09de 2E010000 		.4byte	0x12e
 2967 09e2 00       		.byte	0x0
 2968 09e3 06       		.uleb128 0x6
 2969 09e4 04       		.byte	0x4
 2970 09e5 C4090000 		.4byte	0x9c4
 2971 09e9 0B       		.uleb128 0xb
 2972 09ea 04       		.byte	0x4
 2973 09eb 0E       		.byte	0xe
 2974 09ec 51       		.byte	0x51
 2975 09ed 000A0000 		.4byte	0xa00
 2976 09f1 0A       		.uleb128 0xa
 2977 09f2 766D7400 		.ascii	"vmt\000"
 2978 09f6 0E       		.byte	0xe
 2979 09f7 53       		.byte	0x53
 2980 09f8 000A0000 		.4byte	0xa00
 2981 09fc 02       		.byte	0x2
 2982 09fd 23       		.byte	0x23
 2983 09fe 00       		.uleb128 0x0
 2984 09ff 00       		.byte	0x0
 2985 0a00 06       		.uleb128 0x6
 2986 0a01 04       		.byte	0x4
 2987 0a02 060A0000 		.4byte	0xa06
 2988 0a06 07       		.uleb128 0x7
 2989 0a07 E7080000 		.4byte	0x8e7
ARM GAS  C:\Users\DNIEL~1\AppData\Local\Temp\ccRVTa3G.s 			page 56


 2990 0a0b 02       		.uleb128 0x2
 2991 0a0c B0060000 		.4byte	.LASF112
 2992 0a10 0E       		.byte	0xe
 2993 0a11 55       		.byte	0x55
 2994 0a12 E9090000 		.4byte	0x9e9
 2995 0a16 19       		.uleb128 0x19
 2996 0a17 01       		.byte	0x1
 2997 0a18 0F       		.byte	0xf
 2998 0a19 62       		.byte	0x62
 2999 0a1a 3D0A0000 		.4byte	0xa3d
 3000 0a1e 1A       		.uleb128 0x1a
 3001 0a1f 01040000 		.4byte	.LASF113
 3002 0a23 00       		.sleb128 0
 3003 0a24 1A       		.uleb128 0x1a
 3004 0a25 8B030000 		.4byte	.LASF114
 3005 0a29 01       		.sleb128 1
 3006 0a2a 1A       		.uleb128 0x1a
 3007 0a2b DB000000 		.4byte	.LASF115
 3008 0a2f 02       		.sleb128 2
 3009 0a30 1A       		.uleb128 0x1a
 3010 0a31 94010000 		.4byte	.LASF116
 3011 0a35 03       		.sleb128 3
 3012 0a36 1A       		.uleb128 0x1a
 3013 0a37 10030000 		.4byte	.LASF117
 3014 0a3b 04       		.sleb128 4
 3015 0a3c 00       		.byte	0x0
 3016 0a3d 02       		.uleb128 0x2
 3017 0a3e 80030000 		.4byte	.LASF118
 3018 0a42 0F       		.byte	0xf
 3019 0a43 68       		.byte	0x68
 3020 0a44 160A0000 		.4byte	0xa16
 3021 0a48 0B       		.uleb128 0xb
 3022 0a49 01       		.byte	0x1
 3023 0a4a 10       		.byte	0x10
 3024 0a4b 78       		.byte	0x78
 3025 0a4c 840A0000 		.4byte	0xa84
 3026 0a50 1B       		.uleb128 0x1b
 3027 0a51 444C4300 		.ascii	"DLC\000"
 3028 0a55 10       		.byte	0x10
 3029 0a56 79       		.byte	0x79
 3030 0a57 94000000 		.4byte	0x94
 3031 0a5b 01       		.byte	0x1
 3032 0a5c 04       		.byte	0x4
 3033 0a5d 04       		.byte	0x4
 3034 0a5e 02       		.byte	0x2
 3035 0a5f 23       		.byte	0x23
 3036 0a60 00       		.uleb128 0x0
 3037 0a61 1B       		.uleb128 0x1b
 3038 0a62 52545200 		.ascii	"RTR\000"
 3039 0a66 10       		.byte	0x10
 3040 0a67 7A       		.byte	0x7a
 3041 0a68 94000000 		.4byte	0x94
 3042 0a6c 01       		.byte	0x1
 3043 0a6d 01       		.byte	0x1
 3044 0a6e 03       		.byte	0x3
 3045 0a6f 02       		.byte	0x2
 3046 0a70 23       		.byte	0x23
ARM GAS  C:\Users\DNIEL~1\AppData\Local\Temp\ccRVTa3G.s 			page 57


 3047 0a71 00       		.uleb128 0x0
 3048 0a72 1B       		.uleb128 0x1b
 3049 0a73 49444500 		.ascii	"IDE\000"
 3050 0a77 10       		.byte	0x10
 3051 0a78 7B       		.byte	0x7b
 3052 0a79 94000000 		.4byte	0x94
 3053 0a7d 01       		.byte	0x1
 3054 0a7e 01       		.byte	0x1
 3055 0a7f 02       		.byte	0x2
 3056 0a80 02       		.byte	0x2
 3057 0a81 23       		.byte	0x23
 3058 0a82 00       		.uleb128 0x0
 3059 0a83 00       		.byte	0x0
 3060 0a84 0B       		.uleb128 0xb
 3061 0a85 04       		.byte	0x4
 3062 0a86 10       		.byte	0x10
 3063 0a87 7E       		.byte	0x7e
 3064 0a88 9E0A0000 		.4byte	0xa9e
 3065 0a8c 1B       		.uleb128 0x1b
 3066 0a8d 53494400 		.ascii	"SID\000"
 3067 0a91 10       		.byte	0x10
 3068 0a92 7F       		.byte	0x7f
 3069 0a93 C0000000 		.4byte	0xc0
 3070 0a97 04       		.byte	0x4
 3071 0a98 0B       		.byte	0xb
 3072 0a99 15       		.byte	0x15
 3073 0a9a 02       		.byte	0x2
 3074 0a9b 23       		.byte	0x23
 3075 0a9c 00       		.uleb128 0x0
 3076 0a9d 00       		.byte	0x0
 3077 0a9e 0B       		.uleb128 0xb
 3078 0a9f 04       		.byte	0x4
 3079 0aa0 10       		.byte	0x10
 3080 0aa1 81       		.byte	0x81
 3081 0aa2 B80A0000 		.4byte	0xab8
 3082 0aa6 1B       		.uleb128 0x1b
 3083 0aa7 45494400 		.ascii	"EID\000"
 3084 0aab 10       		.byte	0x10
 3085 0aac 82       		.byte	0x82
 3086 0aad C0000000 		.4byte	0xc0
 3087 0ab1 04       		.byte	0x4
 3088 0ab2 1D       		.byte	0x1d
 3089 0ab3 03       		.byte	0x3
 3090 0ab4 02       		.byte	0x2
 3091 0ab5 23       		.byte	0x23
 3092 0ab6 00       		.uleb128 0x0
 3093 0ab7 00       		.byte	0x0
 3094 0ab8 0F       		.uleb128 0xf
 3095 0ab9 04       		.byte	0x4
 3096 0aba 10       		.byte	0x10
 3097 0abb 7D       		.byte	0x7d
 3098 0abc CB0A0000 		.4byte	0xacb
 3099 0ac0 1C       		.uleb128 0x1c
 3100 0ac1 840A0000 		.4byte	0xa84
 3101 0ac5 1C       		.uleb128 0x1c
 3102 0ac6 9E0A0000 		.4byte	0xa9e
 3103 0aca 00       		.byte	0x0
ARM GAS  C:\Users\DNIEL~1\AppData\Local\Temp\ccRVTa3G.s 			page 58


 3104 0acb 0F       		.uleb128 0xf
 3105 0acc 08       		.byte	0x8
 3106 0acd 10       		.byte	0x10
 3107 0ace 85       		.byte	0x85
 3108 0acf F50A0000 		.4byte	0xaf5
 3109 0ad3 10       		.uleb128 0x10
 3110 0ad4 21030000 		.4byte	.LASF119
 3111 0ad8 10       		.byte	0x10
 3112 0ad9 86       		.byte	0x86
 3113 0ada F50A0000 		.4byte	0xaf5
 3114 0ade 10       		.uleb128 0x10
 3115 0adf A9050000 		.4byte	.LASF120
 3116 0ae3 10       		.byte	0x10
 3117 0ae4 87       		.byte	0x87
 3118 0ae5 050B0000 		.4byte	0xb05
 3119 0ae9 10       		.uleb128 0x10
 3120 0aea A5000000 		.4byte	.LASF121
 3121 0aee 10       		.byte	0x10
 3122 0aef 88       		.byte	0x88
 3123 0af0 3C060000 		.4byte	0x63c
 3124 0af4 00       		.byte	0x0
 3125 0af5 13       		.uleb128 0x13
 3126 0af6 94000000 		.4byte	0x94
 3127 0afa 050B0000 		.4byte	0xb05
 3128 0afe 14       		.uleb128 0x14
 3129 0aff 34000000 		.4byte	0x34
 3130 0b03 07       		.byte	0x7
 3131 0b04 00       		.byte	0x0
 3132 0b05 13       		.uleb128 0x13
 3133 0b06 AA000000 		.4byte	0xaa
 3134 0b0a 150B0000 		.4byte	0xb15
 3135 0b0e 14       		.uleb128 0x14
 3136 0b0f 34000000 		.4byte	0x34
 3137 0b13 03       		.byte	0x3
 3138 0b14 00       		.byte	0x0
 3139 0b15 0B       		.uleb128 0xb
 3140 0b16 10       		.byte	0x10
 3141 0b17 10       		.byte	0x10
 3142 0b18 77       		.byte	0x77
 3143 0b19 360B0000 		.4byte	0xb36
 3144 0b1d 1D       		.uleb128 0x1d
 3145 0b1e 480A0000 		.4byte	0xa48
 3146 0b22 02       		.byte	0x2
 3147 0b23 23       		.byte	0x23
 3148 0b24 00       		.uleb128 0x0
 3149 0b25 1D       		.uleb128 0x1d
 3150 0b26 B80A0000 		.4byte	0xab8
 3151 0b2a 02       		.byte	0x2
 3152 0b2b 23       		.byte	0x23
 3153 0b2c 04       		.uleb128 0x4
 3154 0b2d 1D       		.uleb128 0x1d
 3155 0b2e CB0A0000 		.4byte	0xacb
 3156 0b32 02       		.byte	0x2
 3157 0b33 23       		.byte	0x23
 3158 0b34 08       		.uleb128 0x8
 3159 0b35 00       		.byte	0x0
 3160 0b36 02       		.uleb128 0x2
ARM GAS  C:\Users\DNIEL~1\AppData\Local\Temp\ccRVTa3G.s 			page 59


 3161 0b37 32020000 		.4byte	.LASF122
 3162 0b3b 10       		.byte	0x10
 3163 0b3c 8A       		.byte	0x8a
 3164 0b3d 150B0000 		.4byte	0xb15
 3165 0b41 0B       		.uleb128 0xb
 3166 0b42 04       		.byte	0x4
 3167 0b43 10       		.byte	0x10
 3168 0b44 92       		.byte	0x92
 3169 0b45 660B0000 		.4byte	0xb66
 3170 0b49 0A       		.uleb128 0xa
 3171 0b4a 464D4900 		.ascii	"FMI\000"
 3172 0b4e 10       		.byte	0x10
 3173 0b4f 93       		.byte	0x93
 3174 0b50 94000000 		.4byte	0x94
 3175 0b54 02       		.byte	0x2
 3176 0b55 23       		.byte	0x23
 3177 0b56 00       		.uleb128 0x0
 3178 0b57 09       		.uleb128 0x9
 3179 0b58 C9010000 		.4byte	.LASF123
 3180 0b5c 10       		.byte	0x10
 3181 0b5d 94       		.byte	0x94
 3182 0b5e AA000000 		.4byte	0xaa
 3183 0b62 02       		.byte	0x2
 3184 0b63 23       		.byte	0x23
 3185 0b64 02       		.uleb128 0x2
 3186 0b65 00       		.byte	0x0
 3187 0b66 0B       		.uleb128 0xb
 3188 0b67 01       		.byte	0x1
 3189 0b68 10       		.byte	0x10
 3190 0b69 96       		.byte	0x96
 3191 0b6a A20B0000 		.4byte	0xba2
 3192 0b6e 1B       		.uleb128 0x1b
 3193 0b6f 444C4300 		.ascii	"DLC\000"
 3194 0b73 10       		.byte	0x10
 3195 0b74 97       		.byte	0x97
 3196 0b75 94000000 		.4byte	0x94
 3197 0b79 01       		.byte	0x1
 3198 0b7a 04       		.byte	0x4
 3199 0b7b 04       		.byte	0x4
 3200 0b7c 02       		.byte	0x2
 3201 0b7d 23       		.byte	0x23
 3202 0b7e 00       		.uleb128 0x0
 3203 0b7f 1B       		.uleb128 0x1b
 3204 0b80 52545200 		.ascii	"RTR\000"
 3205 0b84 10       		.byte	0x10
 3206 0b85 98       		.byte	0x98
 3207 0b86 94000000 		.4byte	0x94
 3208 0b8a 01       		.byte	0x1
 3209 0b8b 01       		.byte	0x1
 3210 0b8c 03       		.byte	0x3
 3211 0b8d 02       		.byte	0x2
 3212 0b8e 23       		.byte	0x23
 3213 0b8f 00       		.uleb128 0x0
 3214 0b90 1B       		.uleb128 0x1b
 3215 0b91 49444500 		.ascii	"IDE\000"
 3216 0b95 10       		.byte	0x10
 3217 0b96 99       		.byte	0x99
ARM GAS  C:\Users\DNIEL~1\AppData\Local\Temp\ccRVTa3G.s 			page 60


 3218 0b97 94000000 		.4byte	0x94
 3219 0b9b 01       		.byte	0x1
 3220 0b9c 01       		.byte	0x1
 3221 0b9d 02       		.byte	0x2
 3222 0b9e 02       		.byte	0x2
 3223 0b9f 23       		.byte	0x23
 3224 0ba0 00       		.uleb128 0x0
 3225 0ba1 00       		.byte	0x0
 3226 0ba2 0B       		.uleb128 0xb
 3227 0ba3 04       		.byte	0x4
 3228 0ba4 10       		.byte	0x10
 3229 0ba5 9C       		.byte	0x9c
 3230 0ba6 BC0B0000 		.4byte	0xbbc
 3231 0baa 1B       		.uleb128 0x1b
 3232 0bab 53494400 		.ascii	"SID\000"
 3233 0baf 10       		.byte	0x10
 3234 0bb0 9D       		.byte	0x9d
 3235 0bb1 C0000000 		.4byte	0xc0
 3236 0bb5 04       		.byte	0x4
 3237 0bb6 0B       		.byte	0xb
 3238 0bb7 15       		.byte	0x15
 3239 0bb8 02       		.byte	0x2
 3240 0bb9 23       		.byte	0x23
 3241 0bba 00       		.uleb128 0x0
 3242 0bbb 00       		.byte	0x0
 3243 0bbc 0B       		.uleb128 0xb
 3244 0bbd 04       		.byte	0x4
 3245 0bbe 10       		.byte	0x10
 3246 0bbf 9F       		.byte	0x9f
 3247 0bc0 D60B0000 		.4byte	0xbd6
 3248 0bc4 1B       		.uleb128 0x1b
 3249 0bc5 45494400 		.ascii	"EID\000"
 3250 0bc9 10       		.byte	0x10
 3251 0bca A0       		.byte	0xa0
 3252 0bcb C0000000 		.4byte	0xc0
 3253 0bcf 04       		.byte	0x4
 3254 0bd0 1D       		.byte	0x1d
 3255 0bd1 03       		.byte	0x3
 3256 0bd2 02       		.byte	0x2
 3257 0bd3 23       		.byte	0x23
 3258 0bd4 00       		.uleb128 0x0
 3259 0bd5 00       		.byte	0x0
 3260 0bd6 0F       		.uleb128 0xf
 3261 0bd7 04       		.byte	0x4
 3262 0bd8 10       		.byte	0x10
 3263 0bd9 9B       		.byte	0x9b
 3264 0bda E90B0000 		.4byte	0xbe9
 3265 0bde 1C       		.uleb128 0x1c
 3266 0bdf A20B0000 		.4byte	0xba2
 3267 0be3 1C       		.uleb128 0x1c
 3268 0be4 BC0B0000 		.4byte	0xbbc
 3269 0be8 00       		.byte	0x0
 3270 0be9 0F       		.uleb128 0xf
 3271 0bea 08       		.byte	0x8
 3272 0beb 10       		.byte	0x10
 3273 0bec A3       		.byte	0xa3
 3274 0bed 130C0000 		.4byte	0xc13
ARM GAS  C:\Users\DNIEL~1\AppData\Local\Temp\ccRVTa3G.s 			page 61


 3275 0bf1 10       		.uleb128 0x10
 3276 0bf2 21030000 		.4byte	.LASF119
 3277 0bf6 10       		.byte	0x10
 3278 0bf7 A4       		.byte	0xa4
 3279 0bf8 F50A0000 		.4byte	0xaf5
 3280 0bfc 10       		.uleb128 0x10
 3281 0bfd A9050000 		.4byte	.LASF120
 3282 0c01 10       		.byte	0x10
 3283 0c02 A5       		.byte	0xa5
 3284 0c03 050B0000 		.4byte	0xb05
 3285 0c07 10       		.uleb128 0x10
 3286 0c08 A5000000 		.4byte	.LASF121
 3287 0c0c 10       		.byte	0x10
 3288 0c0d A6       		.byte	0xa6
 3289 0c0e 3C060000 		.4byte	0x63c
 3290 0c12 00       		.byte	0x0
 3291 0c13 0B       		.uleb128 0xb
 3292 0c14 14       		.byte	0x14
 3293 0c15 10       		.byte	0x10
 3294 0c16 91       		.byte	0x91
 3295 0c17 3C0C0000 		.4byte	0xc3c
 3296 0c1b 1D       		.uleb128 0x1d
 3297 0c1c 410B0000 		.4byte	0xb41
 3298 0c20 02       		.byte	0x2
 3299 0c21 23       		.byte	0x23
 3300 0c22 00       		.uleb128 0x0
 3301 0c23 1D       		.uleb128 0x1d
 3302 0c24 660B0000 		.4byte	0xb66
 3303 0c28 02       		.byte	0x2
 3304 0c29 23       		.byte	0x23
 3305 0c2a 04       		.uleb128 0x4
 3306 0c2b 1D       		.uleb128 0x1d
 3307 0c2c D60B0000 		.4byte	0xbd6
 3308 0c30 02       		.byte	0x2
 3309 0c31 23       		.byte	0x23
 3310 0c32 08       		.uleb128 0x8
 3311 0c33 1D       		.uleb128 0x1d
 3312 0c34 E90B0000 		.4byte	0xbe9
 3313 0c38 02       		.byte	0x2
 3314 0c39 23       		.byte	0x23
 3315 0c3a 0C       		.uleb128 0xc
 3316 0c3b 00       		.byte	0x0
 3317 0c3c 02       		.uleb128 0x2
 3318 0c3d 3A000000 		.4byte	.LASF124
 3319 0c41 10       		.byte	0x10
 3320 0c42 A8       		.byte	0xa8
 3321 0c43 130C0000 		.4byte	0xc13
 3322 0c47 0B       		.uleb128 0xb
 3323 0c48 0C       		.byte	0xc
 3324 0c49 10       		.byte	0x10
 3325 0c4a AE       		.byte	0xae
 3326 0c4b 9F0C0000 		.4byte	0xc9f
 3327 0c4f 1E       		.uleb128 0x1e
 3328 0c50 1E050000 		.4byte	.LASF125
 3329 0c54 10       		.byte	0x10
 3330 0c55 B4       		.byte	0xb4
 3331 0c56 C0000000 		.4byte	0xc0
ARM GAS  C:\Users\DNIEL~1\AppData\Local\Temp\ccRVTa3G.s 			page 62


 3332 0c5a 04       		.byte	0x4
 3333 0c5b 01       		.byte	0x1
 3334 0c5c 1F       		.byte	0x1f
 3335 0c5d 02       		.byte	0x2
 3336 0c5e 23       		.byte	0x23
 3337 0c5f 00       		.uleb128 0x0
 3338 0c60 1E       		.uleb128 0x1e
 3339 0c61 1A000000 		.4byte	.LASF126
 3340 0c65 10       		.byte	0x10
 3341 0c66 BA       		.byte	0xba
 3342 0c67 C0000000 		.4byte	0xc0
 3343 0c6b 04       		.byte	0x4
 3344 0c6c 01       		.byte	0x1
 3345 0c6d 1E       		.byte	0x1e
 3346 0c6e 02       		.byte	0x2
 3347 0c6f 23       		.byte	0x23
 3348 0c70 00       		.uleb128 0x0
 3349 0c71 1E       		.uleb128 0x1e
 3350 0c72 DE040000 		.4byte	.LASF127
 3351 0c76 10       		.byte	0x10
 3352 0c77 C0       		.byte	0xc0
 3353 0c78 C0000000 		.4byte	0xc0
 3354 0c7c 04       		.byte	0x4
 3355 0c7d 01       		.byte	0x1
 3356 0c7e 1D       		.byte	0x1d
 3357 0c7f 02       		.byte	0x2
 3358 0c80 23       		.byte	0x23
 3359 0c81 00       		.uleb128 0x0
 3360 0c82 09       		.uleb128 0x9
 3361 0c83 6F010000 		.4byte	.LASF128
 3362 0c87 10       		.byte	0x10
 3363 0c88 C4       		.byte	0xc4
 3364 0c89 C0000000 		.4byte	0xc0
 3365 0c8d 02       		.byte	0x2
 3366 0c8e 23       		.byte	0x23
 3367 0c8f 04       		.uleb128 0x4
 3368 0c90 09       		.uleb128 0x9
 3369 0c91 48020000 		.4byte	.LASF129
 3370 0c95 10       		.byte	0x10
 3371 0c96 C8       		.byte	0xc8
 3372 0c97 C0000000 		.4byte	0xc0
 3373 0c9b 02       		.byte	0x2
 3374 0c9c 23       		.byte	0x23
 3375 0c9d 08       		.uleb128 0x8
 3376 0c9e 00       		.byte	0x0
 3377 0c9f 02       		.uleb128 0x2
 3378 0ca0 49060000 		.4byte	.LASF130
 3379 0ca4 10       		.byte	0x10
 3380 0ca5 C9       		.byte	0xc9
 3381 0ca6 470C0000 		.4byte	0xc47
 3382 0caa 0B       		.uleb128 0xb
 3383 0cab 10       		.byte	0x10
 3384 0cac 10       		.byte	0x10
 3385 0cad CE       		.byte	0xce
 3386 0cae EB0C0000 		.4byte	0xceb
 3387 0cb2 0A       		.uleb128 0xa
 3388 0cb3 6D637200 		.ascii	"mcr\000"
ARM GAS  C:\Users\DNIEL~1\AppData\Local\Temp\ccRVTa3G.s 			page 63


 3389 0cb7 10       		.byte	0x10
 3390 0cb8 D4       		.byte	0xd4
 3391 0cb9 C0000000 		.4byte	0xc0
 3392 0cbd 02       		.byte	0x2
 3393 0cbe 23       		.byte	0x23
 3394 0cbf 00       		.uleb128 0x0
 3395 0cc0 0A       		.uleb128 0xa
 3396 0cc1 62747200 		.ascii	"btr\000"
 3397 0cc5 10       		.byte	0x10
 3398 0cc6 DA       		.byte	0xda
 3399 0cc7 C0000000 		.4byte	0xc0
 3400 0ccb 02       		.byte	0x2
 3401 0ccc 23       		.byte	0x23
 3402 0ccd 04       		.uleb128 0x4
 3403 0cce 0A       		.uleb128 0xa
 3404 0ccf 6E756D00 		.ascii	"num\000"
 3405 0cd3 10       		.byte	0x10
 3406 0cd4 E0       		.byte	0xe0
 3407 0cd5 C0000000 		.4byte	0xc0
 3408 0cd9 02       		.byte	0x2
 3409 0cda 23       		.byte	0x23
 3410 0cdb 08       		.uleb128 0x8
 3411 0cdc 09       		.uleb128 0x9
 3412 0cdd CE060000 		.4byte	.LASF131
 3413 0ce1 10       		.byte	0x10
 3414 0ce2 E6       		.byte	0xe6
 3415 0ce3 EB0C0000 		.4byte	0xceb
 3416 0ce7 02       		.byte	0x2
 3417 0ce8 23       		.byte	0x23
 3418 0ce9 0C       		.uleb128 0xc
 3419 0cea 00       		.byte	0x0
 3420 0ceb 06       		.uleb128 0x6
 3421 0cec 04       		.byte	0x4
 3422 0ced F10C0000 		.4byte	0xcf1
 3423 0cf1 07       		.uleb128 0x7
 3424 0cf2 9F0C0000 		.4byte	0xc9f
 3425 0cf6 02       		.uleb128 0x2
 3426 0cf7 55000000 		.4byte	.LASF132
 3427 0cfb 10       		.byte	0x10
 3428 0cfc E7       		.byte	0xe7
 3429 0cfd AA0C0000 		.4byte	0xcaa
 3430 0d01 0B       		.uleb128 0xb
 3431 0d02 38       		.byte	0x38
 3432 0d03 10       		.byte	0x10
 3433 0d04 EC       		.byte	0xec
 3434 0d05 9C0D0000 		.4byte	0xd9c
 3435 0d09 09       		.uleb128 0x9
 3436 0d0a 0C010000 		.4byte	.LASF133
 3437 0d0e 10       		.byte	0x10
 3438 0d0f F0       		.byte	0xf0
 3439 0d10 3D0A0000 		.4byte	0xa3d
 3440 0d14 02       		.byte	0x2
 3441 0d15 23       		.byte	0x23
 3442 0d16 00       		.uleb128 0x0
 3443 0d17 09       		.uleb128 0x9
 3444 0d18 23050000 		.4byte	.LASF134
 3445 0d1c 10       		.byte	0x10
ARM GAS  C:\Users\DNIEL~1\AppData\Local\Temp\ccRVTa3G.s 			page 64


 3446 0d1d F4       		.byte	0xf4
 3447 0d1e 9C0D0000 		.4byte	0xd9c
 3448 0d22 02       		.byte	0x2
 3449 0d23 23       		.byte	0x23
 3450 0d24 04       		.uleb128 0x4
 3451 0d25 09       		.uleb128 0x9
 3452 0d26 F0000000 		.4byte	.LASF135
 3453 0d2a 10       		.byte	0x10
 3454 0d2b F8       		.byte	0xf8
 3455 0d2c 2E040000 		.4byte	0x42e
 3456 0d30 02       		.byte	0x2
 3457 0d31 23       		.byte	0x23
 3458 0d32 08       		.uleb128 0x8
 3459 0d33 09       		.uleb128 0x9
 3460 0d34 0E060000 		.4byte	.LASF136
 3461 0d38 10       		.byte	0x10
 3462 0d39 FC       		.byte	0xfc
 3463 0d3a 2E040000 		.4byte	0x42e
 3464 0d3e 02       		.byte	0x2
 3465 0d3f 23       		.byte	0x23
 3466 0d40 14       		.uleb128 0x14
 3467 0d41 16       		.uleb128 0x16
 3468 0d42 A3010000 		.4byte	.LASF137
 3469 0d46 10       		.byte	0x10
 3470 0d47 0601     		.2byte	0x106
 3471 0d49 F2040000 		.4byte	0x4f2
 3472 0d4d 02       		.byte	0x2
 3473 0d4e 23       		.byte	0x23
 3474 0d4f 20       		.uleb128 0x20
 3475 0d50 16       		.uleb128 0x16
 3476 0d51 F1040000 		.4byte	.LASF138
 3477 0d55 10       		.byte	0x10
 3478 0d56 0A01     		.2byte	0x10a
 3479 0d58 F2040000 		.4byte	0x4f2
 3480 0d5c 02       		.byte	0x2
 3481 0d5d 23       		.byte	0x23
 3482 0d5e 24       		.uleb128 0x24
 3483 0d5f 16       		.uleb128 0x16
 3484 0d60 9F030000 		.4byte	.LASF139
 3485 0d64 10       		.byte	0x10
 3486 0d65 0E01     		.2byte	0x10e
 3487 0d67 F2040000 		.4byte	0x4f2
 3488 0d6b 02       		.byte	0x2
 3489 0d6c 23       		.byte	0x23
 3490 0d6d 28       		.uleb128 0x28
 3491 0d6e 16       		.uleb128 0x16
 3492 0d6f 74030000 		.4byte	.LASF140
 3493 0d73 10       		.byte	0x10
 3494 0d74 1301     		.2byte	0x113
 3495 0d76 F2040000 		.4byte	0x4f2
 3496 0d7a 02       		.byte	0x2
 3497 0d7b 23       		.byte	0x23
 3498 0d7c 2C       		.uleb128 0x2c
 3499 0d7d 16       		.uleb128 0x16
 3500 0d7e 22040000 		.4byte	.LASF141
 3501 0d82 10       		.byte	0x10
 3502 0d83 1701     		.2byte	0x117
ARM GAS  C:\Users\DNIEL~1\AppData\Local\Temp\ccRVTa3G.s 			page 65


 3503 0d85 F2040000 		.4byte	0x4f2
 3504 0d89 02       		.byte	0x2
 3505 0d8a 23       		.byte	0x23
 3506 0d8b 30       		.uleb128 0x30
 3507 0d8c 0D       		.uleb128 0xd
 3508 0d8d 63616E00 		.ascii	"can\000"
 3509 0d91 10       		.byte	0x10
 3510 0d92 1D01     		.2byte	0x11d
 3511 0d94 A70D0000 		.4byte	0xda7
 3512 0d98 02       		.byte	0x2
 3513 0d99 23       		.byte	0x23
 3514 0d9a 34       		.uleb128 0x34
 3515 0d9b 00       		.byte	0x0
 3516 0d9c 06       		.uleb128 0x6
 3517 0d9d 04       		.byte	0x4
 3518 0d9e A20D0000 		.4byte	0xda2
 3519 0da2 07       		.uleb128 0x7
 3520 0da3 F60C0000 		.4byte	0xcf6
 3521 0da7 06       		.uleb128 0x6
 3522 0da8 04       		.byte	0x4
 3523 0da9 DB080000 		.4byte	0x8db
 3524 0dad 17       		.uleb128 0x17
 3525 0dae 27030000 		.4byte	.LASF142
 3526 0db2 10       		.byte	0x10
 3527 0db3 1E01     		.2byte	0x11e
 3528 0db5 010D0000 		.4byte	0xd01
 3529 0db9 06       		.uleb128 0x6
 3530 0dba 04       		.byte	0x4
 3531 0dbb 21060000 		.4byte	0x621
 3532 0dbf 06       		.uleb128 0x6
 3533 0dc0 04       		.byte	0x4
 3534 0dc1 7C000000 		.4byte	0x7c
 3535 0dc5 08       		.uleb128 0x8
 3536 0dc6 B0050000 		.4byte	.LASF143
 3537 0dca 10       		.byte	0x10
 3538 0dcb 11       		.byte	0x11
 3539 0dcc 06       		.byte	0x6
 3540 0dcd 4F0E0000 		.4byte	0xe4f
 3541 0dd1 0A       		.uleb128 0xa
 3542 0dd2 696400   		.ascii	"id\000"
 3543 0dd5 11       		.byte	0x11
 3544 0dd6 08       		.byte	0x8
 3545 0dd7 C0000000 		.4byte	0xc0
 3546 0ddb 02       		.byte	0x2
 3547 0ddc 23       		.byte	0x23
 3548 0ddd 00       		.uleb128 0x0
 3549 0dde 09       		.uleb128 0x9
 3550 0ddf 6F050000 		.4byte	.LASF144
 3551 0de3 11       		.byte	0x11
 3552 0de4 09       		.byte	0x9
 3553 0de5 94000000 		.4byte	0x94
 3554 0de9 02       		.byte	0x2
 3555 0dea 23       		.byte	0x23
 3556 0deb 04       		.uleb128 0x4
 3557 0dec 09       		.uleb128 0x9
 3558 0ded E6060000 		.4byte	.LASF145
 3559 0df1 11       		.byte	0x11
ARM GAS  C:\Users\DNIEL~1\AppData\Local\Temp\ccRVTa3G.s 			page 66


 3560 0df2 0A       		.byte	0xa
 3561 0df3 94000000 		.4byte	0x94
 3562 0df7 02       		.byte	0x2
 3563 0df8 23       		.byte	0x23
 3564 0df9 05       		.uleb128 0x5
 3565 0dfa 09       		.uleb128 0x9
 3566 0dfb F7050000 		.4byte	.LASF146
 3567 0dff 11       		.byte	0x11
 3568 0e00 0B       		.byte	0xb
 3569 0e01 94000000 		.4byte	0x94
 3570 0e05 02       		.byte	0x2
 3571 0e06 23       		.byte	0x23
 3572 0e07 06       		.uleb128 0x6
 3573 0e08 09       		.uleb128 0x9
 3574 0e09 0F000000 		.4byte	.LASF147
 3575 0e0d 11       		.byte	0x11
 3576 0e0e 0C       		.byte	0xc
 3577 0e0f 94000000 		.4byte	0x94
 3578 0e13 02       		.byte	0x2
 3579 0e14 23       		.byte	0x23
 3580 0e15 07       		.uleb128 0x7
 3581 0e16 09       		.uleb128 0x9
 3582 0e17 CE050000 		.4byte	.LASF148
 3583 0e1b 11       		.byte	0x11
 3584 0e1c 0D       		.byte	0xd
 3585 0e1d AA000000 		.4byte	0xaa
 3586 0e21 02       		.byte	0x2
 3587 0e22 23       		.byte	0x23
 3588 0e23 08       		.uleb128 0x8
 3589 0e24 09       		.uleb128 0x9
 3590 0e25 FF040000 		.4byte	.LASF149
 3591 0e29 11       		.byte	0x11
 3592 0e2a 0E       		.byte	0xe
 3593 0e2b AA000000 		.4byte	0xaa
 3594 0e2f 02       		.byte	0x2
 3595 0e30 23       		.byte	0x23
 3596 0e31 0A       		.uleb128 0xa
 3597 0e32 09       		.uleb128 0x9
 3598 0e33 06000000 		.4byte	.LASF150
 3599 0e37 11       		.byte	0x11
 3600 0e38 0F       		.byte	0xf
 3601 0e39 AA000000 		.4byte	0xaa
 3602 0e3d 02       		.byte	0x2
 3603 0e3e 23       		.byte	0x23
 3604 0e3f 0C       		.uleb128 0xc
 3605 0e40 0A       		.uleb128 0xa
 3606 0e41 70776D00 		.ascii	"pwm\000"
 3607 0e45 11       		.byte	0x11
 3608 0e46 10       		.byte	0x10
 3609 0e47 AA000000 		.4byte	0xaa
 3610 0e4b 02       		.byte	0x2
 3611 0e4c 23       		.byte	0x23
 3612 0e4d 0E       		.uleb128 0xe
 3613 0e4e 00       		.byte	0x0
 3614 0e4f 1F       		.uleb128 0x1f
 3615 0e50 00030000 		.4byte	.LASF179
 3616 0e54 01       		.byte	0x1
ARM GAS  C:\Users\DNIEL~1\AppData\Local\Temp\ccRVTa3G.s 			page 67


 3617 0e55 01       		.byte	0x1
 3618 0e56 22       		.byte	0x22
 3619 0e57 800E0000 		.4byte	0xe80
 3620 0e5b 1A       		.uleb128 0x1a
 3621 0e5c 09030000 		.4byte	.LASF151
 3622 0e60 00       		.sleb128 0
 3623 0e61 1A       		.uleb128 0x1a
 3624 0e62 14060000 		.4byte	.LASF152
 3625 0e66 01       		.sleb128 1
 3626 0e67 1A       		.uleb128 0x1a
 3627 0e68 1B060000 		.4byte	.LASF153
 3628 0e6c 02       		.sleb128 2
 3629 0e6d 1A       		.uleb128 0x1a
 3630 0e6e 6A020000 		.4byte	.LASF154
 3631 0e72 03       		.sleb128 3
 3632 0e73 1A       		.uleb128 0x1a
 3633 0e74 31030000 		.4byte	.LASF155
 3634 0e78 04       		.sleb128 4
 3635 0e79 1A       		.uleb128 0x1a
 3636 0e7a 89010000 		.4byte	.LASF156
 3637 0e7e 05       		.sleb128 5
 3638 0e7f 00       		.byte	0x0
 3639 0e80 20       		.uleb128 0x20
 3640 0e81 B8040000 		.4byte	.LASF157
 3641 0e85 01       		.byte	0x1
 3642 0e86 B0       		.byte	0xb0
 3643 0e87 01       		.byte	0x1
 3644 0e88 0D010000 		.4byte	0x10d
 3645 0e8c 00000000 		.4byte	.LFB119
 3646 0e90 74000000 		.4byte	.LFE119
 3647 0e94 00000000 		.4byte	.LLST0
 3648 0e98 AA0E0000 		.4byte	0xeaa
 3649 0e9c 21       		.uleb128 0x21
 3650 0e9d 7000     		.ascii	"p\000"
 3651 0e9f 01       		.byte	0x1
 3652 0ea0 B0       		.byte	0xb0
 3653 0ea1 73000000 		.4byte	0x73
 3654 0ea5 20000000 		.4byte	.LLST1
 3655 0ea9 00       		.byte	0x0
 3656 0eaa 20       		.uleb128 0x20
 3657 0eab D7020000 		.4byte	.LASF158
 3658 0eaf 01       		.byte	0x1
 3659 0eb0 55       		.byte	0x55
 3660 0eb1 01       		.byte	0x1
 3661 0eb2 0D010000 		.4byte	0x10d
 3662 0eb6 00000000 		.4byte	.LFB118
 3663 0eba 34020000 		.4byte	.LFE118
 3664 0ebe 33000000 		.4byte	.LLST2
 3665 0ec2 EA0E0000 		.4byte	0xeea
 3666 0ec6 21       		.uleb128 0x21
 3667 0ec7 7000     		.ascii	"p\000"
 3668 0ec9 01       		.byte	0x1
 3669 0eca 55       		.byte	0x55
 3670 0ecb 73000000 		.4byte	0x73
 3671 0ecf 5F000000 		.4byte	.LLST3
 3672 0ed3 22       		.uleb128 0x22
 3673 0ed4 656C00   		.ascii	"el\000"
ARM GAS  C:\Users\DNIEL~1\AppData\Local\Temp\ccRVTa3G.s 			page 68


 3674 0ed7 01       		.byte	0x1
 3675 0ed8 56       		.byte	0x56
 3676 0ed9 81040000 		.4byte	0x481
 3677 0edd 02       		.byte	0x2
 3678 0ede 91       		.byte	0x91
 3679 0edf 48       		.sleb128 -56
 3680 0ee0 23       		.uleb128 0x23
 3681 0ee1 6900     		.ascii	"i\000"
 3682 0ee3 01       		.byte	0x1
 3683 0ee4 58       		.byte	0x58
 3684 0ee5 57000000 		.4byte	0x57
 3685 0ee9 00       		.byte	0x0
 3686 0eea 24       		.uleb128 0x24
 3687 0eeb 01       		.byte	0x1
 3688 0eec AB030000 		.4byte	.LASF180
 3689 0ef0 01       		.byte	0x1
 3690 0ef1 D1       		.byte	0xd1
 3691 0ef2 01       		.byte	0x1
 3692 0ef3 00000000 		.4byte	.LFB120
 3693 0ef7 4C000000 		.4byte	.LFE120
 3694 0efb 72000000 		.4byte	.LLST4
 3695 0eff 25       		.uleb128 0x25
 3696 0f00 01       		.byte	0x1
 3697 0f01 20000000 		.4byte	.LASF161
 3698 0f05 01       		.byte	0x1
 3699 0f06 D7       		.byte	0xd7
 3700 0f07 01       		.byte	0x1
 3701 0f08 00000000 		.4byte	.LFB121
 3702 0f0c 7C000000 		.4byte	.LFE121
 3703 0f10 9E000000 		.4byte	.LLST5
 3704 0f14 460F0000 		.4byte	0xf46
 3705 0f18 21       		.uleb128 0x21
 3706 0f19 63687000 		.ascii	"chp\000"
 3707 0f1d 01       		.byte	0x1
 3708 0f1e D7       		.byte	0xd7
 3709 0f1f B90D0000 		.4byte	0xdb9
 3710 0f23 BE000000 		.4byte	.LLST6
 3711 0f27 26       		.uleb128 0x26
 3712 0f28 44060000 		.4byte	.LASF159
 3713 0f2c 01       		.byte	0x1
 3714 0f2d D7       		.byte	0xd7
 3715 0f2e 57000000 		.4byte	0x57
 3716 0f32 DC000000 		.4byte	.LLST7
 3717 0f36 26       		.uleb128 0x26
 3718 0f37 C1060000 		.4byte	.LASF160
 3719 0f3b 01       		.byte	0x1
 3720 0f3c D7       		.byte	0xd7
 3721 0f3d BF0D0000 		.4byte	0xdbf
 3722 0f41 EF000000 		.4byte	.LLST8
 3723 0f45 00       		.byte	0x0
 3724 0f46 25       		.uleb128 0x25
 3725 0f47 01       		.byte	0x1
 3726 0f48 20010000 		.4byte	.LASF162
 3727 0f4c 01       		.byte	0x1
 3728 0f4d E7       		.byte	0xe7
 3729 0f4e 01       		.byte	0x1
 3730 0f4f 00000000 		.4byte	.LFB122
ARM GAS  C:\Users\DNIEL~1\AppData\Local\Temp\ccRVTa3G.s 			page 69


 3731 0f53 4C010000 		.4byte	.LFE122
 3732 0f57 02010000 		.4byte	.LLST9
 3733 0f5b 8D0F0000 		.4byte	0xf8d
 3734 0f5f 21       		.uleb128 0x21
 3735 0f60 63687000 		.ascii	"chp\000"
 3736 0f64 01       		.byte	0x1
 3737 0f65 E7       		.byte	0xe7
 3738 0f66 B90D0000 		.4byte	0xdb9
 3739 0f6a 22010000 		.4byte	.LLST10
 3740 0f6e 26       		.uleb128 0x26
 3741 0f6f 44060000 		.4byte	.LASF159
 3742 0f73 01       		.byte	0x1
 3743 0f74 E7       		.byte	0xe7
 3744 0f75 57000000 		.4byte	0x57
 3745 0f79 40010000 		.4byte	.LLST11
 3746 0f7d 26       		.uleb128 0x26
 3747 0f7e C1060000 		.4byte	.LASF160
 3748 0f82 01       		.byte	0x1
 3749 0f83 E7       		.byte	0xe7
 3750 0f84 BF0D0000 		.4byte	0xdbf
 3751 0f88 53010000 		.4byte	.LLST12
 3752 0f8c 00       		.byte	0x0
 3753 0f8d 27       		.uleb128 0x27
 3754 0f8e 01       		.byte	0x1
 3755 0f8f 38060000 		.4byte	.LASF163
 3756 0f93 01       		.byte	0x1
 3757 0f94 0901     		.2byte	0x109
 3758 0f96 01       		.byte	0x1
 3759 0f97 00000000 		.4byte	.LFB123
 3760 0f9b 28010000 		.4byte	.LFE123
 3761 0f9f 66010000 		.4byte	.LLST13
 3762 0fa3 FC0F0000 		.4byte	0xffc
 3763 0fa7 28       		.uleb128 0x28
 3764 0fa8 63687000 		.ascii	"chp\000"
 3765 0fac 01       		.byte	0x1
 3766 0fad 0901     		.2byte	0x109
 3767 0faf B90D0000 		.4byte	0xdb9
 3768 0fb3 86010000 		.4byte	.LLST14
 3769 0fb7 29       		.uleb128 0x29
 3770 0fb8 44060000 		.4byte	.LASF159
 3771 0fbc 01       		.byte	0x1
 3772 0fbd 0901     		.2byte	0x109
 3773 0fbf 57000000 		.4byte	0x57
 3774 0fc3 A4010000 		.4byte	.LLST15
 3775 0fc7 29       		.uleb128 0x29
 3776 0fc8 C1060000 		.4byte	.LASF160
 3777 0fcc 01       		.byte	0x1
 3778 0fcd 0901     		.2byte	0x109
 3779 0fcf BF0D0000 		.4byte	0xdbf
 3780 0fd3 C2010000 		.4byte	.LLST16
 3781 0fd7 2A       		.uleb128 0x2a
 3782 0fd8 646200   		.ascii	"db\000"
 3783 0fdb 01       		.byte	0x1
 3784 0fdc 0E01     		.2byte	0x10e
 3785 0fde 9F000000 		.4byte	0x9f
 3786 0fe2 E0010000 		.4byte	.LLST17
 3787 0fe6 2B       		.uleb128 0x2b
ARM GAS  C:\Users\DNIEL~1\AppData\Local\Temp\ccRVTa3G.s 			page 70


 3788 0fe7 00000000 		.4byte	.Ldebug_ranges0+0x0
 3789 0feb 2C       		.uleb128 0x2c
 3790 0fec 01       		.byte	0x1
 3791 0fed DE020000 		.4byte	.LASF181
 3792 0ff1 13       		.byte	0x13
 3793 0ff2 00       		.byte	0x0
 3794 0ff3 57000000 		.4byte	0x57
 3795 0ff7 01       		.byte	0x1
 3796 0ff8 2D       		.uleb128 0x2d
 3797 0ff9 00       		.byte	0x0
 3798 0ffa 00       		.byte	0x0
 3799 0ffb 00       		.byte	0x0
 3800 0ffc 2E       		.uleb128 0x2e
 3801 0ffd 00060000 		.4byte	.LASF164
 3802 1001 08       		.byte	0x8
 3803 1002 68       		.byte	0x68
 3804 1003 FA030000 		.4byte	0x3fa
 3805 1007 01       		.byte	0x1
 3806 1008 01       		.byte	0x1
 3807 1009 2F       		.uleb128 0x2f
 3808 100a 3B040000 		.4byte	.LASF165
 3809 100e 12       		.byte	0x12
 3810 100f 9806     		.2byte	0x698
 3811 1011 4C060000 		.4byte	0x64c
 3812 1015 01       		.byte	0x1
 3813 1016 01       		.byte	0x1
 3814 1017 2F       		.uleb128 0x2f
 3815 1018 11020000 		.4byte	.LASF166
 3816 101c 10       		.byte	0x10
 3817 101d 2901     		.2byte	0x129
 3818 101f AD0D0000 		.4byte	0xdad
 3819 1023 01       		.byte	0x1
 3820 1024 01       		.byte	0x1
 3821 1025 13       		.uleb128 0x13
 3822 1026 C50D0000 		.4byte	0xdc5
 3823 102a 35100000 		.4byte	0x1035
 3824 102e 14       		.uleb128 0x14
 3825 102f 34000000 		.4byte	0x34
 3826 1033 1F       		.byte	0x1f
 3827 1034 00       		.byte	0x0
 3828 1035 30       		.uleb128 0x30
 3829 1036 53060000 		.4byte	.LASF167
 3830 103a 11       		.byte	0x11
 3831 103b 13       		.byte	0x13
 3832 103c 25100000 		.4byte	0x1025
 3833 1040 05       		.byte	0x5
 3834 1041 03       		.byte	0x3
 3835 1042 00000000 		.4byte	lcitems
 3836 1046 2E       		.uleb128 0x2e
 3837 1047 35050000 		.4byte	.LASF168
 3838 104b 01       		.byte	0x1
 3839 104c 2A       		.byte	0x2a
 3840 104d 4F0E0000 		.4byte	0xe4f
 3841 1051 01       		.byte	0x1
 3842 1052 01       		.byte	0x1
 3843 1053 30       		.uleb128 0x30
 3844 1054 6B000000 		.4byte	.LASF169
ARM GAS  C:\Users\DNIEL~1\AppData\Local\Temp\ccRVTa3G.s 			page 71


 3845 1058 01       		.byte	0x1
 3846 1059 2C       		.byte	0x2c
 3847 105a 360B0000 		.4byte	0xb36
 3848 105e 05       		.byte	0x5
 3849 105f 03       		.byte	0x3
 3850 1060 00000000 		.4byte	txmsg
 3851 1064 30       		.uleb128 0x30
 3852 1065 00000000 		.4byte	.LASF170
 3853 1069 01       		.byte	0x1
 3854 106a 2D       		.byte	0x2d
 3855 106b 3C0C0000 		.4byte	0xc3c
 3856 106f 05       		.byte	0x5
 3857 1070 03       		.byte	0x3
 3858 1071 00000000 		.4byte	rxmsg
 3859 1075 30       		.uleb128 0x30
 3860 1076 1A030000 		.4byte	.LASF171
 3861 107a 01       		.byte	0x1
 3862 107b 45       		.byte	0x45
 3863 107c A20D0000 		.4byte	0xda2
 3864 1080 05       		.byte	0x5
 3865 1081 03       		.byte	0x3
 3866 1082 00000000 		.4byte	cancfg
 3867 1086 30       		.uleb128 0x30
 3868 1087 2A050000 		.4byte	.LASF172
 3869 108b 01       		.byte	0x1
 3870 108c 4D       		.byte	0x4d
 3871 108d 57000000 		.4byte	0x57
 3872 1091 05       		.byte	0x5
 3873 1092 03       		.byte	0x3
 3874 1093 00000000 		.4byte	seged
 3875 1097 22       		.uleb128 0x22
 3876 1098 696400   		.ascii	"id\000"
 3877 109b 01       		.byte	0x1
 3878 109c 4E       		.byte	0x4e
 3879 109d AA000000 		.4byte	0xaa
 3880 10a1 05       		.byte	0x5
 3881 10a2 03       		.byte	0x3
 3882 10a3 00000000 		.4byte	id
 3883 10a7 30       		.uleb128 0x30
 3884 10a8 56010000 		.4byte	.LASF173
 3885 10ac 01       		.byte	0x1
 3886 10ad 4F       		.byte	0x4f
 3887 10ae AA000000 		.4byte	0xaa
 3888 10b2 05       		.byte	0x5
 3889 10b3 03       		.byte	0x3
 3890 10b4 00000000 		.4byte	messages
 3891 10b8 13       		.uleb128 0x13
 3892 10b9 D7020000 		.4byte	0x2d7
 3893 10bd C8100000 		.4byte	0x10c8
 3894 10c1 14       		.uleb128 0x14
 3895 10c2 34000000 		.4byte	0x34
 3896 10c6 35       		.byte	0x35
 3897 10c7 00       		.byte	0x0
 3898 10c8 30       		.uleb128 0x30
 3899 10c9 F4010000 		.4byte	.LASF174
 3900 10cd 01       		.byte	0x1
 3901 10ce 54       		.byte	0x54
ARM GAS  C:\Users\DNIEL~1\AppData\Local\Temp\ccRVTa3G.s 			page 72


 3902 10cf B8100000 		.4byte	0x10b8
 3903 10d3 05       		.byte	0x5
 3904 10d4 03       		.byte	0x3
 3905 10d5 00000000 		.4byte	can_rx_wa
 3906 10d9 30       		.uleb128 0x30
 3907 10da BF040000 		.4byte	.LASF175
 3908 10de 01       		.byte	0x1
 3909 10df AF       		.byte	0xaf
 3910 10e0 B8100000 		.4byte	0x10b8
 3911 10e4 05       		.byte	0x5
 3912 10e5 03       		.byte	0x3
 3913 10e6 00000000 		.4byte	can_tx_wa
 3914 10ea 2E       		.uleb128 0x2e
 3915 10eb 00060000 		.4byte	.LASF164
 3916 10ef 08       		.byte	0x8
 3917 10f0 68       		.byte	0x68
 3918 10f1 FA030000 		.4byte	0x3fa
 3919 10f5 01       		.byte	0x1
 3920 10f6 01       		.byte	0x1
 3921 10f7 2F       		.uleb128 0x2f
 3922 10f8 3B040000 		.4byte	.LASF165
 3923 10fc 12       		.byte	0x12
 3924 10fd 9806     		.2byte	0x698
 3925 10ff 4C060000 		.4byte	0x64c
 3926 1103 01       		.byte	0x1
 3927 1104 01       		.byte	0x1
 3928 1105 2F       		.uleb128 0x2f
 3929 1106 11020000 		.4byte	.LASF166
 3930 110a 10       		.byte	0x10
 3931 110b 2901     		.2byte	0x129
 3932 110d AD0D0000 		.4byte	0xdad
 3933 1111 01       		.byte	0x1
 3934 1112 01       		.byte	0x1
 3935 1113 31       		.uleb128 0x31
 3936 1114 35050000 		.4byte	.LASF168
 3937 1118 01       		.byte	0x1
 3938 1119 2A       		.byte	0x2a
 3939 111a 4F0E0000 		.4byte	0xe4f
 3940 111e 01       		.byte	0x1
 3941 111f 05       		.byte	0x5
 3942 1120 03       		.byte	0x3
 3943 1121 00000000 		.4byte	canstate
 3944 1125 00       		.byte	0x0
 3945              		.section	.debug_abbrev
 3946 0000 01       		.uleb128 0x1
 3947 0001 11       		.uleb128 0x11
 3948 0002 01       		.byte	0x1
 3949 0003 25       		.uleb128 0x25
 3950 0004 0E       		.uleb128 0xe
 3951 0005 13       		.uleb128 0x13
 3952 0006 0B       		.uleb128 0xb
 3953 0007 03       		.uleb128 0x3
 3954 0008 0E       		.uleb128 0xe
 3955 0009 1B       		.uleb128 0x1b
 3956 000a 0E       		.uleb128 0xe
 3957 000b 11       		.uleb128 0x11
 3958 000c 01       		.uleb128 0x1
ARM GAS  C:\Users\DNIEL~1\AppData\Local\Temp\ccRVTa3G.s 			page 73


 3959 000d 52       		.uleb128 0x52
 3960 000e 01       		.uleb128 0x1
 3961 000f 55       		.uleb128 0x55
 3962 0010 06       		.uleb128 0x6
 3963 0011 10       		.uleb128 0x10
 3964 0012 06       		.uleb128 0x6
 3965 0013 00       		.byte	0x0
 3966 0014 00       		.byte	0x0
 3967 0015 02       		.uleb128 0x2
 3968 0016 16       		.uleb128 0x16
 3969 0017 00       		.byte	0x0
 3970 0018 03       		.uleb128 0x3
 3971 0019 0E       		.uleb128 0xe
 3972 001a 3A       		.uleb128 0x3a
 3973 001b 0B       		.uleb128 0xb
 3974 001c 3B       		.uleb128 0x3b
 3975 001d 0B       		.uleb128 0xb
 3976 001e 49       		.uleb128 0x49
 3977 001f 13       		.uleb128 0x13
 3978 0020 00       		.byte	0x0
 3979 0021 00       		.byte	0x0
 3980 0022 03       		.uleb128 0x3
 3981 0023 24       		.uleb128 0x24
 3982 0024 00       		.byte	0x0
 3983 0025 0B       		.uleb128 0xb
 3984 0026 0B       		.uleb128 0xb
 3985 0027 3E       		.uleb128 0x3e
 3986 0028 0B       		.uleb128 0xb
 3987 0029 03       		.uleb128 0x3
 3988 002a 0E       		.uleb128 0xe
 3989 002b 00       		.byte	0x0
 3990 002c 00       		.byte	0x0
 3991 002d 04       		.uleb128 0x4
 3992 002e 24       		.uleb128 0x24
 3993 002f 00       		.byte	0x0
 3994 0030 0B       		.uleb128 0xb
 3995 0031 0B       		.uleb128 0xb
 3996 0032 3E       		.uleb128 0x3e
 3997 0033 0B       		.uleb128 0xb
 3998 0034 03       		.uleb128 0x3
 3999 0035 08       		.uleb128 0x8
 4000 0036 00       		.byte	0x0
 4001 0037 00       		.byte	0x0
 4002 0038 05       		.uleb128 0x5
 4003 0039 0F       		.uleb128 0xf
 4004 003a 00       		.byte	0x0
 4005 003b 0B       		.uleb128 0xb
 4006 003c 0B       		.uleb128 0xb
 4007 003d 00       		.byte	0x0
 4008 003e 00       		.byte	0x0
 4009 003f 06       		.uleb128 0x6
 4010 0040 0F       		.uleb128 0xf
 4011 0041 00       		.byte	0x0
 4012 0042 0B       		.uleb128 0xb
 4013 0043 0B       		.uleb128 0xb
 4014 0044 49       		.uleb128 0x49
 4015 0045 13       		.uleb128 0x13
ARM GAS  C:\Users\DNIEL~1\AppData\Local\Temp\ccRVTa3G.s 			page 74


 4016 0046 00       		.byte	0x0
 4017 0047 00       		.byte	0x0
 4018 0048 07       		.uleb128 0x7
 4019 0049 26       		.uleb128 0x26
 4020 004a 00       		.byte	0x0
 4021 004b 49       		.uleb128 0x49
 4022 004c 13       		.uleb128 0x13
 4023 004d 00       		.byte	0x0
 4024 004e 00       		.byte	0x0
 4025 004f 08       		.uleb128 0x8
 4026 0050 13       		.uleb128 0x13
 4027 0051 01       		.byte	0x1
 4028 0052 03       		.uleb128 0x3
 4029 0053 0E       		.uleb128 0xe
 4030 0054 0B       		.uleb128 0xb
 4031 0055 0B       		.uleb128 0xb
 4032 0056 3A       		.uleb128 0x3a
 4033 0057 0B       		.uleb128 0xb
 4034 0058 3B       		.uleb128 0x3b
 4035 0059 0B       		.uleb128 0xb
 4036 005a 01       		.uleb128 0x1
 4037 005b 13       		.uleb128 0x13
 4038 005c 00       		.byte	0x0
 4039 005d 00       		.byte	0x0
 4040 005e 09       		.uleb128 0x9
 4041 005f 0D       		.uleb128 0xd
 4042 0060 00       		.byte	0x0
 4043 0061 03       		.uleb128 0x3
 4044 0062 0E       		.uleb128 0xe
 4045 0063 3A       		.uleb128 0x3a
 4046 0064 0B       		.uleb128 0xb
 4047 0065 3B       		.uleb128 0x3b
 4048 0066 0B       		.uleb128 0xb
 4049 0067 49       		.uleb128 0x49
 4050 0068 13       		.uleb128 0x13
 4051 0069 38       		.uleb128 0x38
 4052 006a 0A       		.uleb128 0xa
 4053 006b 00       		.byte	0x0
 4054 006c 00       		.byte	0x0
 4055 006d 0A       		.uleb128 0xa
 4056 006e 0D       		.uleb128 0xd
 4057 006f 00       		.byte	0x0
 4058 0070 03       		.uleb128 0x3
 4059 0071 08       		.uleb128 0x8
 4060 0072 3A       		.uleb128 0x3a
 4061 0073 0B       		.uleb128 0xb
 4062 0074 3B       		.uleb128 0x3b
 4063 0075 0B       		.uleb128 0xb
 4064 0076 49       		.uleb128 0x49
 4065 0077 13       		.uleb128 0x13
 4066 0078 38       		.uleb128 0x38
 4067 0079 0A       		.uleb128 0xa
 4068 007a 00       		.byte	0x0
 4069 007b 00       		.byte	0x0
 4070 007c 0B       		.uleb128 0xb
 4071 007d 13       		.uleb128 0x13
 4072 007e 01       		.byte	0x1
ARM GAS  C:\Users\DNIEL~1\AppData\Local\Temp\ccRVTa3G.s 			page 75


 4073 007f 0B       		.uleb128 0xb
 4074 0080 0B       		.uleb128 0xb
 4075 0081 3A       		.uleb128 0x3a
 4076 0082 0B       		.uleb128 0xb
 4077 0083 3B       		.uleb128 0x3b
 4078 0084 0B       		.uleb128 0xb
 4079 0085 01       		.uleb128 0x1
 4080 0086 13       		.uleb128 0x13
 4081 0087 00       		.byte	0x0
 4082 0088 00       		.byte	0x0
 4083 0089 0C       		.uleb128 0xc
 4084 008a 13       		.uleb128 0x13
 4085 008b 01       		.byte	0x1
 4086 008c 03       		.uleb128 0x3
 4087 008d 0E       		.uleb128 0xe
 4088 008e 0B       		.uleb128 0xb
 4089 008f 0B       		.uleb128 0xb
 4090 0090 3A       		.uleb128 0x3a
 4091 0091 0B       		.uleb128 0xb
 4092 0092 3B       		.uleb128 0x3b
 4093 0093 05       		.uleb128 0x5
 4094 0094 01       		.uleb128 0x1
 4095 0095 13       		.uleb128 0x13
 4096 0096 00       		.byte	0x0
 4097 0097 00       		.byte	0x0
 4098 0098 0D       		.uleb128 0xd
 4099 0099 0D       		.uleb128 0xd
 4100 009a 00       		.byte	0x0
 4101 009b 03       		.uleb128 0x3
 4102 009c 08       		.uleb128 0x8
 4103 009d 3A       		.uleb128 0x3a
 4104 009e 0B       		.uleb128 0xb
 4105 009f 3B       		.uleb128 0x3b
 4106 00a0 05       		.uleb128 0x5
 4107 00a1 49       		.uleb128 0x49
 4108 00a2 13       		.uleb128 0x13
 4109 00a3 38       		.uleb128 0x38
 4110 00a4 0A       		.uleb128 0xa
 4111 00a5 00       		.byte	0x0
 4112 00a6 00       		.byte	0x0
 4113 00a7 0E       		.uleb128 0xe
 4114 00a8 35       		.uleb128 0x35
 4115 00a9 00       		.byte	0x0
 4116 00aa 49       		.uleb128 0x49
 4117 00ab 13       		.uleb128 0x13
 4118 00ac 00       		.byte	0x0
 4119 00ad 00       		.byte	0x0
 4120 00ae 0F       		.uleb128 0xf
 4121 00af 17       		.uleb128 0x17
 4122 00b0 01       		.byte	0x1
 4123 00b1 0B       		.uleb128 0xb
 4124 00b2 0B       		.uleb128 0xb
 4125 00b3 3A       		.uleb128 0x3a
 4126 00b4 0B       		.uleb128 0xb
 4127 00b5 3B       		.uleb128 0x3b
 4128 00b6 0B       		.uleb128 0xb
 4129 00b7 01       		.uleb128 0x1
ARM GAS  C:\Users\DNIEL~1\AppData\Local\Temp\ccRVTa3G.s 			page 76


 4130 00b8 13       		.uleb128 0x13
 4131 00b9 00       		.byte	0x0
 4132 00ba 00       		.byte	0x0
 4133 00bb 10       		.uleb128 0x10
 4134 00bc 0D       		.uleb128 0xd
 4135 00bd 00       		.byte	0x0
 4136 00be 03       		.uleb128 0x3
 4137 00bf 0E       		.uleb128 0xe
 4138 00c0 3A       		.uleb128 0x3a
 4139 00c1 0B       		.uleb128 0xb
 4140 00c2 3B       		.uleb128 0x3b
 4141 00c3 0B       		.uleb128 0xb
 4142 00c4 49       		.uleb128 0x49
 4143 00c5 13       		.uleb128 0x13
 4144 00c6 00       		.byte	0x0
 4145 00c7 00       		.byte	0x0
 4146 00c8 11       		.uleb128 0x11
 4147 00c9 15       		.uleb128 0x15
 4148 00ca 01       		.byte	0x1
 4149 00cb 27       		.uleb128 0x27
 4150 00cc 0C       		.uleb128 0xc
 4151 00cd 49       		.uleb128 0x49
 4152 00ce 13       		.uleb128 0x13
 4153 00cf 01       		.uleb128 0x1
 4154 00d0 13       		.uleb128 0x13
 4155 00d1 00       		.byte	0x0
 4156 00d2 00       		.byte	0x0
 4157 00d3 12       		.uleb128 0x12
 4158 00d4 05       		.uleb128 0x5
 4159 00d5 00       		.byte	0x0
 4160 00d6 49       		.uleb128 0x49
 4161 00d7 13       		.uleb128 0x13
 4162 00d8 00       		.byte	0x0
 4163 00d9 00       		.byte	0x0
 4164 00da 13       		.uleb128 0x13
 4165 00db 01       		.uleb128 0x1
 4166 00dc 01       		.byte	0x1
 4167 00dd 49       		.uleb128 0x49
 4168 00de 13       		.uleb128 0x13
 4169 00df 01       		.uleb128 0x1
 4170 00e0 13       		.uleb128 0x13
 4171 00e1 00       		.byte	0x0
 4172 00e2 00       		.byte	0x0
 4173 00e3 14       		.uleb128 0x14
 4174 00e4 21       		.uleb128 0x21
 4175 00e5 00       		.byte	0x0
 4176 00e6 49       		.uleb128 0x49
 4177 00e7 13       		.uleb128 0x13
 4178 00e8 2F       		.uleb128 0x2f
 4179 00e9 0B       		.uleb128 0xb
 4180 00ea 00       		.byte	0x0
 4181 00eb 00       		.byte	0x0
 4182 00ec 15       		.uleb128 0x15
 4183 00ed 13       		.uleb128 0x13
 4184 00ee 01       		.byte	0x1
 4185 00ef 0B       		.uleb128 0xb
 4186 00f0 0B       		.uleb128 0xb
ARM GAS  C:\Users\DNIEL~1\AppData\Local\Temp\ccRVTa3G.s 			page 77


 4187 00f1 3A       		.uleb128 0x3a
 4188 00f2 0B       		.uleb128 0xb
 4189 00f3 3B       		.uleb128 0x3b
 4190 00f4 05       		.uleb128 0x5
 4191 00f5 01       		.uleb128 0x1
 4192 00f6 13       		.uleb128 0x13
 4193 00f7 00       		.byte	0x0
 4194 00f8 00       		.byte	0x0
 4195 00f9 16       		.uleb128 0x16
 4196 00fa 0D       		.uleb128 0xd
 4197 00fb 00       		.byte	0x0
 4198 00fc 03       		.uleb128 0x3
 4199 00fd 0E       		.uleb128 0xe
 4200 00fe 3A       		.uleb128 0x3a
 4201 00ff 0B       		.uleb128 0xb
 4202 0100 3B       		.uleb128 0x3b
 4203 0101 05       		.uleb128 0x5
 4204 0102 49       		.uleb128 0x49
 4205 0103 13       		.uleb128 0x13
 4206 0104 38       		.uleb128 0x38
 4207 0105 0A       		.uleb128 0xa
 4208 0106 00       		.byte	0x0
 4209 0107 00       		.byte	0x0
 4210 0108 17       		.uleb128 0x17
 4211 0109 16       		.uleb128 0x16
 4212 010a 00       		.byte	0x0
 4213 010b 03       		.uleb128 0x3
 4214 010c 0E       		.uleb128 0xe
 4215 010d 3A       		.uleb128 0x3a
 4216 010e 0B       		.uleb128 0xb
 4217 010f 3B       		.uleb128 0x3b
 4218 0110 05       		.uleb128 0x5
 4219 0111 49       		.uleb128 0x49
 4220 0112 13       		.uleb128 0x13
 4221 0113 00       		.byte	0x0
 4222 0114 00       		.byte	0x0
 4223 0115 18       		.uleb128 0x18
 4224 0116 13       		.uleb128 0x13
 4225 0117 01       		.byte	0x1
 4226 0118 0B       		.uleb128 0xb
 4227 0119 05       		.uleb128 0x5
 4228 011a 3A       		.uleb128 0x3a
 4229 011b 0B       		.uleb128 0xb
 4230 011c 3B       		.uleb128 0x3b
 4231 011d 05       		.uleb128 0x5
 4232 011e 01       		.uleb128 0x1
 4233 011f 13       		.uleb128 0x13
 4234 0120 00       		.byte	0x0
 4235 0121 00       		.byte	0x0
 4236 0122 19       		.uleb128 0x19
 4237 0123 04       		.uleb128 0x4
 4238 0124 01       		.byte	0x1
 4239 0125 0B       		.uleb128 0xb
 4240 0126 0B       		.uleb128 0xb
 4241 0127 3A       		.uleb128 0x3a
 4242 0128 0B       		.uleb128 0xb
 4243 0129 3B       		.uleb128 0x3b
ARM GAS  C:\Users\DNIEL~1\AppData\Local\Temp\ccRVTa3G.s 			page 78


 4244 012a 0B       		.uleb128 0xb
 4245 012b 01       		.uleb128 0x1
 4246 012c 13       		.uleb128 0x13
 4247 012d 00       		.byte	0x0
 4248 012e 00       		.byte	0x0
 4249 012f 1A       		.uleb128 0x1a
 4250 0130 28       		.uleb128 0x28
 4251 0131 00       		.byte	0x0
 4252 0132 03       		.uleb128 0x3
 4253 0133 0E       		.uleb128 0xe
 4254 0134 1C       		.uleb128 0x1c
 4255 0135 0D       		.uleb128 0xd
 4256 0136 00       		.byte	0x0
 4257 0137 00       		.byte	0x0
 4258 0138 1B       		.uleb128 0x1b
 4259 0139 0D       		.uleb128 0xd
 4260 013a 00       		.byte	0x0
 4261 013b 03       		.uleb128 0x3
 4262 013c 08       		.uleb128 0x8
 4263 013d 3A       		.uleb128 0x3a
 4264 013e 0B       		.uleb128 0xb
 4265 013f 3B       		.uleb128 0x3b
 4266 0140 0B       		.uleb128 0xb
 4267 0141 49       		.uleb128 0x49
 4268 0142 13       		.uleb128 0x13
 4269 0143 0B       		.uleb128 0xb
 4270 0144 0B       		.uleb128 0xb
 4271 0145 0D       		.uleb128 0xd
 4272 0146 0B       		.uleb128 0xb
 4273 0147 0C       		.uleb128 0xc
 4274 0148 0B       		.uleb128 0xb
 4275 0149 38       		.uleb128 0x38
 4276 014a 0A       		.uleb128 0xa
 4277 014b 00       		.byte	0x0
 4278 014c 00       		.byte	0x0
 4279 014d 1C       		.uleb128 0x1c
 4280 014e 0D       		.uleb128 0xd
 4281 014f 00       		.byte	0x0
 4282 0150 49       		.uleb128 0x49
 4283 0151 13       		.uleb128 0x13
 4284 0152 00       		.byte	0x0
 4285 0153 00       		.byte	0x0
 4286 0154 1D       		.uleb128 0x1d
 4287 0155 0D       		.uleb128 0xd
 4288 0156 00       		.byte	0x0
 4289 0157 49       		.uleb128 0x49
 4290 0158 13       		.uleb128 0x13
 4291 0159 38       		.uleb128 0x38
 4292 015a 0A       		.uleb128 0xa
 4293 015b 00       		.byte	0x0
 4294 015c 00       		.byte	0x0
 4295 015d 1E       		.uleb128 0x1e
 4296 015e 0D       		.uleb128 0xd
 4297 015f 00       		.byte	0x0
 4298 0160 03       		.uleb128 0x3
 4299 0161 0E       		.uleb128 0xe
 4300 0162 3A       		.uleb128 0x3a
ARM GAS  C:\Users\DNIEL~1\AppData\Local\Temp\ccRVTa3G.s 			page 79


 4301 0163 0B       		.uleb128 0xb
 4302 0164 3B       		.uleb128 0x3b
 4303 0165 0B       		.uleb128 0xb
 4304 0166 49       		.uleb128 0x49
 4305 0167 13       		.uleb128 0x13
 4306 0168 0B       		.uleb128 0xb
 4307 0169 0B       		.uleb128 0xb
 4308 016a 0D       		.uleb128 0xd
 4309 016b 0B       		.uleb128 0xb
 4310 016c 0C       		.uleb128 0xc
 4311 016d 0B       		.uleb128 0xb
 4312 016e 38       		.uleb128 0x38
 4313 016f 0A       		.uleb128 0xa
 4314 0170 00       		.byte	0x0
 4315 0171 00       		.byte	0x0
 4316 0172 1F       		.uleb128 0x1f
 4317 0173 04       		.uleb128 0x4
 4318 0174 01       		.byte	0x1
 4319 0175 03       		.uleb128 0x3
 4320 0176 0E       		.uleb128 0xe
 4321 0177 0B       		.uleb128 0xb
 4322 0178 0B       		.uleb128 0xb
 4323 0179 3A       		.uleb128 0x3a
 4324 017a 0B       		.uleb128 0xb
 4325 017b 3B       		.uleb128 0x3b
 4326 017c 0B       		.uleb128 0xb
 4327 017d 01       		.uleb128 0x1
 4328 017e 13       		.uleb128 0x13
 4329 017f 00       		.byte	0x0
 4330 0180 00       		.byte	0x0
 4331 0181 20       		.uleb128 0x20
 4332 0182 2E       		.uleb128 0x2e
 4333 0183 01       		.byte	0x1
 4334 0184 03       		.uleb128 0x3
 4335 0185 0E       		.uleb128 0xe
 4336 0186 3A       		.uleb128 0x3a
 4337 0187 0B       		.uleb128 0xb
 4338 0188 3B       		.uleb128 0x3b
 4339 0189 0B       		.uleb128 0xb
 4340 018a 27       		.uleb128 0x27
 4341 018b 0C       		.uleb128 0xc
 4342 018c 49       		.uleb128 0x49
 4343 018d 13       		.uleb128 0x13
 4344 018e 11       		.uleb128 0x11
 4345 018f 01       		.uleb128 0x1
 4346 0190 12       		.uleb128 0x12
 4347 0191 01       		.uleb128 0x1
 4348 0192 40       		.uleb128 0x40
 4349 0193 06       		.uleb128 0x6
 4350 0194 01       		.uleb128 0x1
 4351 0195 13       		.uleb128 0x13
 4352 0196 00       		.byte	0x0
 4353 0197 00       		.byte	0x0
 4354 0198 21       		.uleb128 0x21
 4355 0199 05       		.uleb128 0x5
 4356 019a 00       		.byte	0x0
 4357 019b 03       		.uleb128 0x3
ARM GAS  C:\Users\DNIEL~1\AppData\Local\Temp\ccRVTa3G.s 			page 80


 4358 019c 08       		.uleb128 0x8
 4359 019d 3A       		.uleb128 0x3a
 4360 019e 0B       		.uleb128 0xb
 4361 019f 3B       		.uleb128 0x3b
 4362 01a0 0B       		.uleb128 0xb
 4363 01a1 49       		.uleb128 0x49
 4364 01a2 13       		.uleb128 0x13
 4365 01a3 02       		.uleb128 0x2
 4366 01a4 06       		.uleb128 0x6
 4367 01a5 00       		.byte	0x0
 4368 01a6 00       		.byte	0x0
 4369 01a7 22       		.uleb128 0x22
 4370 01a8 34       		.uleb128 0x34
 4371 01a9 00       		.byte	0x0
 4372 01aa 03       		.uleb128 0x3
 4373 01ab 08       		.uleb128 0x8
 4374 01ac 3A       		.uleb128 0x3a
 4375 01ad 0B       		.uleb128 0xb
 4376 01ae 3B       		.uleb128 0x3b
 4377 01af 0B       		.uleb128 0xb
 4378 01b0 49       		.uleb128 0x49
 4379 01b1 13       		.uleb128 0x13
 4380 01b2 02       		.uleb128 0x2
 4381 01b3 0A       		.uleb128 0xa
 4382 01b4 00       		.byte	0x0
 4383 01b5 00       		.byte	0x0
 4384 01b6 23       		.uleb128 0x23
 4385 01b7 34       		.uleb128 0x34
 4386 01b8 00       		.byte	0x0
 4387 01b9 03       		.uleb128 0x3
 4388 01ba 08       		.uleb128 0x8
 4389 01bb 3A       		.uleb128 0x3a
 4390 01bc 0B       		.uleb128 0xb
 4391 01bd 3B       		.uleb128 0x3b
 4392 01be 0B       		.uleb128 0xb
 4393 01bf 49       		.uleb128 0x49
 4394 01c0 13       		.uleb128 0x13
 4395 01c1 00       		.byte	0x0
 4396 01c2 00       		.byte	0x0
 4397 01c3 24       		.uleb128 0x24
 4398 01c4 2E       		.uleb128 0x2e
 4399 01c5 00       		.byte	0x0
 4400 01c6 3F       		.uleb128 0x3f
 4401 01c7 0C       		.uleb128 0xc
 4402 01c8 03       		.uleb128 0x3
 4403 01c9 0E       		.uleb128 0xe
 4404 01ca 3A       		.uleb128 0x3a
 4405 01cb 0B       		.uleb128 0xb
 4406 01cc 3B       		.uleb128 0x3b
 4407 01cd 0B       		.uleb128 0xb
 4408 01ce 27       		.uleb128 0x27
 4409 01cf 0C       		.uleb128 0xc
 4410 01d0 11       		.uleb128 0x11
 4411 01d1 01       		.uleb128 0x1
 4412 01d2 12       		.uleb128 0x12
 4413 01d3 01       		.uleb128 0x1
 4414 01d4 40       		.uleb128 0x40
ARM GAS  C:\Users\DNIEL~1\AppData\Local\Temp\ccRVTa3G.s 			page 81


 4415 01d5 06       		.uleb128 0x6
 4416 01d6 00       		.byte	0x0
 4417 01d7 00       		.byte	0x0
 4418 01d8 25       		.uleb128 0x25
 4419 01d9 2E       		.uleb128 0x2e
 4420 01da 01       		.byte	0x1
 4421 01db 3F       		.uleb128 0x3f
 4422 01dc 0C       		.uleb128 0xc
 4423 01dd 03       		.uleb128 0x3
 4424 01de 0E       		.uleb128 0xe
 4425 01df 3A       		.uleb128 0x3a
 4426 01e0 0B       		.uleb128 0xb
 4427 01e1 3B       		.uleb128 0x3b
 4428 01e2 0B       		.uleb128 0xb
 4429 01e3 27       		.uleb128 0x27
 4430 01e4 0C       		.uleb128 0xc
 4431 01e5 11       		.uleb128 0x11
 4432 01e6 01       		.uleb128 0x1
 4433 01e7 12       		.uleb128 0x12
 4434 01e8 01       		.uleb128 0x1
 4435 01e9 40       		.uleb128 0x40
 4436 01ea 06       		.uleb128 0x6
 4437 01eb 01       		.uleb128 0x1
 4438 01ec 13       		.uleb128 0x13
 4439 01ed 00       		.byte	0x0
 4440 01ee 00       		.byte	0x0
 4441 01ef 26       		.uleb128 0x26
 4442 01f0 05       		.uleb128 0x5
 4443 01f1 00       		.byte	0x0
 4444 01f2 03       		.uleb128 0x3
 4445 01f3 0E       		.uleb128 0xe
 4446 01f4 3A       		.uleb128 0x3a
 4447 01f5 0B       		.uleb128 0xb
 4448 01f6 3B       		.uleb128 0x3b
 4449 01f7 0B       		.uleb128 0xb
 4450 01f8 49       		.uleb128 0x49
 4451 01f9 13       		.uleb128 0x13
 4452 01fa 02       		.uleb128 0x2
 4453 01fb 06       		.uleb128 0x6
 4454 01fc 00       		.byte	0x0
 4455 01fd 00       		.byte	0x0
 4456 01fe 27       		.uleb128 0x27
 4457 01ff 2E       		.uleb128 0x2e
 4458 0200 01       		.byte	0x1
 4459 0201 3F       		.uleb128 0x3f
 4460 0202 0C       		.uleb128 0xc
 4461 0203 03       		.uleb128 0x3
 4462 0204 0E       		.uleb128 0xe
 4463 0205 3A       		.uleb128 0x3a
 4464 0206 0B       		.uleb128 0xb
 4465 0207 3B       		.uleb128 0x3b
 4466 0208 05       		.uleb128 0x5
 4467 0209 27       		.uleb128 0x27
 4468 020a 0C       		.uleb128 0xc
 4469 020b 11       		.uleb128 0x11
 4470 020c 01       		.uleb128 0x1
 4471 020d 12       		.uleb128 0x12
ARM GAS  C:\Users\DNIEL~1\AppData\Local\Temp\ccRVTa3G.s 			page 82


 4472 020e 01       		.uleb128 0x1
 4473 020f 40       		.uleb128 0x40
 4474 0210 06       		.uleb128 0x6
 4475 0211 01       		.uleb128 0x1
 4476 0212 13       		.uleb128 0x13
 4477 0213 00       		.byte	0x0
 4478 0214 00       		.byte	0x0
 4479 0215 28       		.uleb128 0x28
 4480 0216 05       		.uleb128 0x5
 4481 0217 00       		.byte	0x0
 4482 0218 03       		.uleb128 0x3
 4483 0219 08       		.uleb128 0x8
 4484 021a 3A       		.uleb128 0x3a
 4485 021b 0B       		.uleb128 0xb
 4486 021c 3B       		.uleb128 0x3b
 4487 021d 05       		.uleb128 0x5
 4488 021e 49       		.uleb128 0x49
 4489 021f 13       		.uleb128 0x13
 4490 0220 02       		.uleb128 0x2
 4491 0221 06       		.uleb128 0x6
 4492 0222 00       		.byte	0x0
 4493 0223 00       		.byte	0x0
 4494 0224 29       		.uleb128 0x29
 4495 0225 05       		.uleb128 0x5
 4496 0226 00       		.byte	0x0
 4497 0227 03       		.uleb128 0x3
 4498 0228 0E       		.uleb128 0xe
 4499 0229 3A       		.uleb128 0x3a
 4500 022a 0B       		.uleb128 0xb
 4501 022b 3B       		.uleb128 0x3b
 4502 022c 05       		.uleb128 0x5
 4503 022d 49       		.uleb128 0x49
 4504 022e 13       		.uleb128 0x13
 4505 022f 02       		.uleb128 0x2
 4506 0230 06       		.uleb128 0x6
 4507 0231 00       		.byte	0x0
 4508 0232 00       		.byte	0x0
 4509 0233 2A       		.uleb128 0x2a
 4510 0234 34       		.uleb128 0x34
 4511 0235 00       		.byte	0x0
 4512 0236 03       		.uleb128 0x3
 4513 0237 08       		.uleb128 0x8
 4514 0238 3A       		.uleb128 0x3a
 4515 0239 0B       		.uleb128 0xb
 4516 023a 3B       		.uleb128 0x3b
 4517 023b 05       		.uleb128 0x5
 4518 023c 49       		.uleb128 0x49
 4519 023d 13       		.uleb128 0x13
 4520 023e 02       		.uleb128 0x2
 4521 023f 06       		.uleb128 0x6
 4522 0240 00       		.byte	0x0
 4523 0241 00       		.byte	0x0
 4524 0242 2B       		.uleb128 0x2b
 4525 0243 0B       		.uleb128 0xb
 4526 0244 01       		.byte	0x1
 4527 0245 55       		.uleb128 0x55
 4528 0246 06       		.uleb128 0x6
ARM GAS  C:\Users\DNIEL~1\AppData\Local\Temp\ccRVTa3G.s 			page 83


 4529 0247 00       		.byte	0x0
 4530 0248 00       		.byte	0x0
 4531 0249 2C       		.uleb128 0x2c
 4532 024a 2E       		.uleb128 0x2e
 4533 024b 01       		.byte	0x1
 4534 024c 3F       		.uleb128 0x3f
 4535 024d 0C       		.uleb128 0xc
 4536 024e 03       		.uleb128 0x3
 4537 024f 0E       		.uleb128 0xe
 4538 0250 3A       		.uleb128 0x3a
 4539 0251 0B       		.uleb128 0xb
 4540 0252 3B       		.uleb128 0x3b
 4541 0253 0B       		.uleb128 0xb
 4542 0254 49       		.uleb128 0x49
 4543 0255 13       		.uleb128 0x13
 4544 0256 3C       		.uleb128 0x3c
 4545 0257 0C       		.uleb128 0xc
 4546 0258 00       		.byte	0x0
 4547 0259 00       		.byte	0x0
 4548 025a 2D       		.uleb128 0x2d
 4549 025b 18       		.uleb128 0x18
 4550 025c 00       		.byte	0x0
 4551 025d 00       		.byte	0x0
 4552 025e 00       		.byte	0x0
 4553 025f 2E       		.uleb128 0x2e
 4554 0260 34       		.uleb128 0x34
 4555 0261 00       		.byte	0x0
 4556 0262 03       		.uleb128 0x3
 4557 0263 0E       		.uleb128 0xe
 4558 0264 3A       		.uleb128 0x3a
 4559 0265 0B       		.uleb128 0xb
 4560 0266 3B       		.uleb128 0x3b
 4561 0267 0B       		.uleb128 0xb
 4562 0268 49       		.uleb128 0x49
 4563 0269 13       		.uleb128 0x13
 4564 026a 3F       		.uleb128 0x3f
 4565 026b 0C       		.uleb128 0xc
 4566 026c 3C       		.uleb128 0x3c
 4567 026d 0C       		.uleb128 0xc
 4568 026e 00       		.byte	0x0
 4569 026f 00       		.byte	0x0
 4570 0270 2F       		.uleb128 0x2f
 4571 0271 34       		.uleb128 0x34
 4572 0272 00       		.byte	0x0
 4573 0273 03       		.uleb128 0x3
 4574 0274 0E       		.uleb128 0xe
 4575 0275 3A       		.uleb128 0x3a
 4576 0276 0B       		.uleb128 0xb
 4577 0277 3B       		.uleb128 0x3b
 4578 0278 05       		.uleb128 0x5
 4579 0279 49       		.uleb128 0x49
 4580 027a 13       		.uleb128 0x13
 4581 027b 3F       		.uleb128 0x3f
 4582 027c 0C       		.uleb128 0xc
 4583 027d 3C       		.uleb128 0x3c
 4584 027e 0C       		.uleb128 0xc
 4585 027f 00       		.byte	0x0
ARM GAS  C:\Users\DNIEL~1\AppData\Local\Temp\ccRVTa3G.s 			page 84


 4586 0280 00       		.byte	0x0
 4587 0281 30       		.uleb128 0x30
 4588 0282 34       		.uleb128 0x34
 4589 0283 00       		.byte	0x0
 4590 0284 03       		.uleb128 0x3
 4591 0285 0E       		.uleb128 0xe
 4592 0286 3A       		.uleb128 0x3a
 4593 0287 0B       		.uleb128 0xb
 4594 0288 3B       		.uleb128 0x3b
 4595 0289 0B       		.uleb128 0xb
 4596 028a 49       		.uleb128 0x49
 4597 028b 13       		.uleb128 0x13
 4598 028c 02       		.uleb128 0x2
 4599 028d 0A       		.uleb128 0xa
 4600 028e 00       		.byte	0x0
 4601 028f 00       		.byte	0x0
 4602 0290 31       		.uleb128 0x31
 4603 0291 34       		.uleb128 0x34
 4604 0292 00       		.byte	0x0
 4605 0293 03       		.uleb128 0x3
 4606 0294 0E       		.uleb128 0xe
 4607 0295 3A       		.uleb128 0x3a
 4608 0296 0B       		.uleb128 0xb
 4609 0297 3B       		.uleb128 0x3b
 4610 0298 0B       		.uleb128 0xb
 4611 0299 49       		.uleb128 0x49
 4612 029a 13       		.uleb128 0x13
 4613 029b 3F       		.uleb128 0x3f
 4614 029c 0C       		.uleb128 0xc
 4615 029d 02       		.uleb128 0x2
 4616 029e 0A       		.uleb128 0xa
 4617 029f 00       		.byte	0x0
 4618 02a0 00       		.byte	0x0
 4619 02a1 00       		.byte	0x0
 4620              		.section	.debug_pubnames,"",%progbits
 4621 0000 67000000 		.4byte	0x67
 4622 0004 0200     		.2byte	0x2
 4623 0006 00000000 		.4byte	.Ldebug_info0
 4624 000a 26110000 		.4byte	0x1126
 4625 000e EA0E0000 		.4byte	0xeea
 4626 0012 63616E5F 		.ascii	"can_commInit\000"
 4626      636F6D6D 
 4626      496E6974 
 4626      00
 4627 001f FF0E0000 		.4byte	0xeff
 4628 0023 636D645F 		.ascii	"cmd_can_commvalues\000"
 4628      63616E5F 
 4628      636F6D6D 
 4628      76616C75 
 4628      657300
 4629 0036 460F0000 		.4byte	0xf46
 4630 003a 636D645F 		.ascii	"cmd_canmppttest\000"
 4630      63616E6D 
 4630      70707474 
 4630      65737400 
 4631 004a 8D0F0000 		.4byte	0xf8d
 4632 004e 636D645F 		.ascii	"cmd_candata\000"
ARM GAS  C:\Users\DNIEL~1\AppData\Local\Temp\ccRVTa3G.s 			page 85


 4632      63616E64 
 4632      61746100 
 4633 005a 13110000 		.4byte	0x1113
 4634 005e 63616E73 		.ascii	"canstate\000"
 4634      74617465 
 4634      00
 4635 0067 00000000 		.4byte	0x0
 4636              		.section	.debug_pubtypes,"",%progbits
 4637 0000 05030000 		.4byte	0x305
 4638 0004 0200     		.2byte	0x2
 4639 0006 00000000 		.4byte	.Ldebug_info0
 4640 000a 26110000 		.4byte	0x1126
 4641 000e 29000000 		.4byte	0x29
 4642 0012 73697A65 		.ascii	"size_t\000"
 4642      5F7400
 4643 0019 94000000 		.4byte	0x94
 4644 001d 75696E74 		.ascii	"uint8_t\000"
 4644      385F7400 
 4645 0025 9F000000 		.4byte	0x9f
 4646 0029 696E7431 		.ascii	"int16_t\000"
 4646      365F7400 
 4647 0031 AA000000 		.4byte	0xaa
 4648 0035 75696E74 		.ascii	"uint16_t\000"
 4648      31365F74 
 4648      00
 4649 003e B5000000 		.4byte	0xb5
 4650 0042 696E7433 		.ascii	"int32_t\000"
 4650      325F7400 
 4651 004a C0000000 		.4byte	0xc0
 4652 004e 75696E74 		.ascii	"uint32_t\000"
 4652      33325F74 
 4652      00
 4653 0057 CB000000 		.4byte	0xcb
 4654 005b 75696E74 		.ascii	"uint64_t\000"
 4654      36345F74 
 4654      00
 4655 0064 D6000000 		.4byte	0xd6
 4656 0068 746D6F64 		.ascii	"tmode_t\000"
 4656      655F7400 
 4657 0070 E1000000 		.4byte	0xe1
 4658 0074 74737461 		.ascii	"tstate_t\000"
 4658      74655F74 
 4658      00
 4659 007d EC000000 		.4byte	0xec
 4660 0081 74726566 		.ascii	"trefs_t\000"
 4660      735F7400 
 4661 0089 F7000000 		.4byte	0xf7
 4662 008d 74736C69 		.ascii	"tslices_t\000"
 4662      6365735F 
 4662      7400
 4663 0097 02010000 		.4byte	0x102
 4664 009b 74707269 		.ascii	"tprio_t\000"
 4664      6F5F7400 
 4665 00a3 0D010000 		.4byte	0x10d
 4666 00a7 6D73675F 		.ascii	"msg_t\000"
 4666      7400
 4667 00ad 18010000 		.4byte	0x118
ARM GAS  C:\Users\DNIEL~1\AppData\Local\Temp\ccRVTa3G.s 			page 86


 4668 00b1 6576656E 		.ascii	"eventmask_t\000"
 4668      746D6173 
 4668      6B5F7400 
 4669 00bd 23010000 		.4byte	0x123
 4670 00c1 666C6167 		.ascii	"flagsmask_t\000"
 4670      736D6173 
 4670      6B5F7400 
 4671 00cd 2E010000 		.4byte	0x12e
 4672 00d1 73797374 		.ascii	"systime_t\000"
 4672      696D655F 
 4672      7400
 4673 00db 39010000 		.4byte	0x139
 4674 00df 636E745F 		.ascii	"cnt_t\000"
 4674      7400
 4675 00e5 44010000 		.4byte	0x144
 4676 00e9 54687265 		.ascii	"Thread\000"
 4676      616400
 4677 00f0 9F020000 		.4byte	0x29f
 4678 00f4 54687265 		.ascii	"ThreadsQueue\000"
 4678      61647351 
 4678      75657565 
 4678      00
 4679 0101 C1020000 		.4byte	0x2c1
 4680 0105 54687265 		.ascii	"ThreadsList\000"
 4680      6164734C 
 4680      69737400 
 4681 0111 CC020000 		.4byte	0x2cc
 4682 0115 72656761 		.ascii	"regarm_t\000"
 4682      726D5F74 
 4682      00
 4683 011e D7020000 		.4byte	0x2d7
 4684 0122 73746B61 		.ascii	"stkalign_t\000"
 4684      6C69676E 
 4684      5F7400
 4685 012d E2020000 		.4byte	0x2e2
 4686 0131 696E7463 		.ascii	"intctx\000"
 4686      747800
 4687 0138 70030000 		.4byte	0x370
 4688 013c 636F6E74 		.ascii	"context\000"
 4688      65787400 
 4689 0144 FA030000 		.4byte	0x3fa
 4690 0148 52656164 		.ascii	"ReadyList\000"
 4690      794C6973 
 4690      7400
 4691 0152 05040000 		.4byte	0x405
 4692 0156 53656D61 		.ascii	"Semaphore\000"
 4692      70686F72 
 4692      6500
 4693 0160 2E040000 		.4byte	0x42e
 4694 0164 53656D61 		.ascii	"Semaphore\000"
 4694      70686F72 
 4694      6500
 4695 016e 39040000 		.4byte	0x439
 4696 0172 4D757465 		.ascii	"Mutex\000"
 4696      7800
 4697 0178 76040000 		.4byte	0x476
 4698 017c 4D757465 		.ascii	"Mutex\000"
ARM GAS  C:\Users\DNIEL~1\AppData\Local\Temp\ccRVTa3G.s 			page 87


 4698      7800
 4699 0182 81040000 		.4byte	0x481
 4700 0186 4576656E 		.ascii	"EventListener\000"
 4700      744C6973 
 4700      74656E65 
 4700      7200
 4701 0194 8C040000 		.4byte	0x48c
 4702 0198 4576656E 		.ascii	"EventListener\000"
 4702      744C6973 
 4702      74656E65 
 4702      7200
 4703 01a6 D7040000 		.4byte	0x4d7
 4704 01aa 4576656E 		.ascii	"EventSource\000"
 4704      74536F75 
 4704      72636500 
 4705 01b6 F2040000 		.4byte	0x4f2
 4706 01ba 4576656E 		.ascii	"EventSource\000"
 4706      74536F75 
 4706      72636500 
 4707 01c6 4F010000 		.4byte	0x14f
 4708 01ca 54687265 		.ascii	"Thread\000"
 4708      616400
 4709 01d1 54050000 		.4byte	0x554
 4710 01d5 42617365 		.ascii	"BaseSequentialStreamVMT\000"
 4710      53657175 
 4710      656E7469 
 4710      616C5374 
 4710      7265616D 
 4711 01ed 21060000 		.4byte	0x621
 4712 01f1 42617365 		.ascii	"BaseSequentialStream\000"
 4712      53657175 
 4712      656E7469 
 4712      616C5374 
 4712      7265616D 
 4713 0206 97060000 		.4byte	0x697
 4714 020a 43414E5F 		.ascii	"CAN_TxMailBox_TypeDef\000"
 4714      54784D61 
 4714      696C426F 
 4714      785F5479 
 4714      70654465 
 4715 0220 E9060000 		.4byte	0x6e9
 4716 0224 43414E5F 		.ascii	"CAN_FIFOMailBox_TypeDef\000"
 4716      4649464F 
 4716      4D61696C 
 4716      426F785F 
 4716      54797065 
 4717 023c 1D070000 		.4byte	0x71d
 4718 0240 43414E5F 		.ascii	"CAN_FilterRegister_TypeDef\000"
 4718      46696C74 
 4718      65725265 
 4718      67697374 
 4718      65725F54 
 4719 025b DB080000 		.4byte	0x8db
 4720 025f 43414E5F 		.ascii	"CAN_TypeDef\000"
 4720      54797065 
 4720      44656600 
 4721 026b E7080000 		.4byte	0x8e7
ARM GAS  C:\Users\DNIEL~1\AppData\Local\Temp\ccRVTa3G.s 			page 88


 4722 026f 42617365 		.ascii	"BaseChannelVMT\000"
 4722      4368616E 
 4722      6E656C56 
 4722      4D5400
 4723 027e 0B0A0000 		.4byte	0xa0b
 4724 0282 42617365 		.ascii	"BaseChannel\000"
 4724      4368616E 
 4724      6E656C00 
 4725 028e 3D0A0000 		.4byte	0xa3d
 4726 0292 63616E73 		.ascii	"canstate_t\000"
 4726      74617465 
 4726      5F7400
 4727 029d 360B0000 		.4byte	0xb36
 4728 02a1 43414E54 		.ascii	"CANTxFrame\000"
 4728      78467261 
 4728      6D6500
 4729 02ac 3C0C0000 		.4byte	0xc3c
 4730 02b0 43414E52 		.ascii	"CANRxFrame\000"
 4730      78467261 
 4730      6D6500
 4731 02bb 9F0C0000 		.4byte	0xc9f
 4732 02bf 43414E46 		.ascii	"CANFilter\000"
 4732      696C7465 
 4732      7200
 4733 02c9 F60C0000 		.4byte	0xcf6
 4734 02cd 43414E43 		.ascii	"CANConfig\000"
 4734      6F6E6669 
 4734      6700
 4735 02d7 AD0D0000 		.4byte	0xdad
 4736 02db 43414E44 		.ascii	"CANDriver\000"
 4736      72697665 
 4736      7200
 4737 02e5 C50D0000 		.4byte	0xdc5
 4738 02e9 6C757863 		.ascii	"luxcontrolItem\000"
 4738      6F6E7472 
 4738      6F6C4974 
 4738      656D00
 4739 02f8 4F0E0000 		.4byte	0xe4f
 4740 02fc 63616E53 		.ascii	"canState\000"
 4740      74617465 
 4740      00
 4741 0305 00000000 		.4byte	0x0
 4742              		.section	.debug_aranges,"",%progbits
 4743 0000 44000000 		.4byte	0x44
 4744 0004 0200     		.2byte	0x2
 4745 0006 00000000 		.4byte	.Ldebug_info0
 4746 000a 04       		.byte	0x4
 4747 000b 00       		.byte	0x0
 4748 000c 0000     		.2byte	0x0
 4749 000e 0000     		.2byte	0x0
 4750 0010 00000000 		.4byte	.LFB119
 4751 0014 74000000 		.4byte	.LFE119-.LFB119
 4752 0018 00000000 		.4byte	.LFB118
 4753 001c 34020000 		.4byte	.LFE118-.LFB118
 4754 0020 00000000 		.4byte	.LFB120
 4755 0024 4C000000 		.4byte	.LFE120-.LFB120
 4756 0028 00000000 		.4byte	.LFB121
ARM GAS  C:\Users\DNIEL~1\AppData\Local\Temp\ccRVTa3G.s 			page 89


 4757 002c 7C000000 		.4byte	.LFE121-.LFB121
 4758 0030 00000000 		.4byte	.LFB122
 4759 0034 4C010000 		.4byte	.LFE122-.LFB122
 4760 0038 00000000 		.4byte	.LFB123
 4761 003c 28010000 		.4byte	.LFE123-.LFB123
 4762 0040 00000000 		.4byte	0x0
 4763 0044 00000000 		.4byte	0x0
 4764              		.section	.debug_ranges,"",%progbits
 4765              	.Ldebug_ranges0:
 4766 0000 0A000000 		.4byte	.LBB2
 4767 0004 0E000000 		.4byte	.LBE2
 4768 0008 E4000000 		.4byte	.LBB5
 4769 000c 28010000 		.4byte	.LBE5
 4770 0010 DC000000 		.4byte	.LBB4
 4771 0014 E0000000 		.4byte	.LBE4
 4772 0018 1E000000 		.4byte	.LBB3
 4773 001c C8000000 		.4byte	.LBE3
 4774 0020 00000000 		.4byte	0x0
 4775 0024 00000000 		.4byte	0x0
 4776 0028 00000000 		.4byte	.LFB119
 4777 002c 74000000 		.4byte	.LFE119
 4778 0030 00000000 		.4byte	.LFB118
 4779 0034 34020000 		.4byte	.LFE118
 4780 0038 00000000 		.4byte	.LFB120
 4781 003c 4C000000 		.4byte	.LFE120
 4782 0040 00000000 		.4byte	.LFB121
 4783 0044 7C000000 		.4byte	.LFE121
 4784 0048 00000000 		.4byte	.LFB122
 4785 004c 4C010000 		.4byte	.LFE122
 4786 0050 00000000 		.4byte	.LFB123
 4787 0054 28010000 		.4byte	.LFE123
 4788 0058 00000000 		.4byte	0x0
 4789 005c 00000000 		.4byte	0x0
 4790              		.section	.debug_str,"MS",%progbits,1
 4791              	.LASF170:
 4792 0000 72786D73 		.ascii	"rxmsg\000"
 4792      6700
 4793              	.LASF150:
 4794 0006 766F6C74 		.ascii	"volt_out\000"
 4794      5F6F7574 
 4794      00
 4795              	.LASF147:
 4796 000f 65666669 		.ascii	"efficiency\000"
 4796      6369656E 
 4796      637900
 4797              	.LASF126:
 4798 001a 7363616C 		.ascii	"scale\000"
 4798      6500
 4799              	.LASF161:
 4800 0020 636D645F 		.ascii	"cmd_can_commvalues\000"
 4800      63616E5F 
 4800      636F6D6D 
 4800      76616C75 
 4800      657300
 4801              	.LASF10:
 4802 0033 73697A65 		.ascii	"size_t\000"
 4802      5F7400
ARM GAS  C:\Users\DNIEL~1\AppData\Local\Temp\ccRVTa3G.s 			page 90


 4803              	.LASF124:
 4804 003a 43414E52 		.ascii	"CANRxFrame\000"
 4804      78467261 
 4804      6D6500
 4805              	.LASF74:
 4806 0045 7264796D 		.ascii	"rdymsg\000"
 4806      736700
 4807              	.LASF16:
 4808 004c 75696E74 		.ascii	"uint64_t\000"
 4808      36345F74 
 4808      00
 4809              	.LASF132:
 4810 0055 43414E43 		.ascii	"CANConfig\000"
 4810      6F6E6669 
 4810      6700
 4811              	.LASF106:
 4812 005f 43414E5F 		.ascii	"CAN_TypeDef\000"
 4812      54797065 
 4812      44656600 
 4813              	.LASF169:
 4814 006b 74786D73 		.ascii	"txmsg\000"
 4814      6700
 4815              	.LASF6:
 4816 0071 6C6F6E67 		.ascii	"long long unsigned int\000"
 4816      206C6F6E 
 4816      6720756E 
 4816      7369676E 
 4816      65642069 
 4817              	.LASF107:
 4818 0088 42617365 		.ascii	"BaseChannelVMT\000"
 4818      4368616E 
 4818      6E656C56 
 4818      4D5400
 4819              	.LASF75:
 4820 0097 65786974 		.ascii	"exitcode\000"
 4820      636F6465 
 4820      00
 4821              	.LASF99:
 4822 00a0 46533152 		.ascii	"FS1R\000"
 4822      00
 4823              	.LASF121:
 4824 00a5 64617461 		.ascii	"data32\000"
 4824      333200
 4825              	.LASF30:
 4826 00ac 705F7072 		.ascii	"p_prio\000"
 4826      696F00
 4827              	.LASF111:
 4828 00b3 72656164 		.ascii	"readt\000"
 4828      7400
 4829              	.LASF12:
 4830 00b9 696E7431 		.ascii	"int16_t\000"
 4830      365F7400 
 4831              	.LASF5:
 4832 00c1 6C6F6E67 		.ascii	"long long int\000"
 4832      206C6F6E 
 4832      6720696E 
 4832      7400
ARM GAS  C:\Users\DNIEL~1\AppData\Local\Temp\ccRVTa3G.s 			page 91


 4833              	.LASF1:
 4834 00cf 7369676E 		.ascii	"signed char\000"
 4834      65642063 
 4834      68617200 
 4835              	.LASF115:
 4836 00db 43414E5F 		.ascii	"CAN_STARTING\000"
 4836      53544152 
 4836      54494E47 
 4836      00
 4837              	.LASF64:
 4838 00e8 6D5F7175 		.ascii	"m_queue\000"
 4838      65756500 
 4839              	.LASF135:
 4840 00f0 74787365 		.ascii	"txsem\000"
 4840      6D00
 4841              	.LASF176:
 4842 00f6 474E5520 		.ascii	"GNU C 4.5.2\000"
 4842      4320342E 
 4842      352E3200 
 4843              	.LASF20:
 4844 0102 74736C69 		.ascii	"tslices_t\000"
 4844      6365735F 
 4844      7400
 4845              	.LASF133:
 4846 010c 73746174 		.ascii	"state\000"
 4846      6500
 4847              	.LASF83:
 4848 0112 54444C52 		.ascii	"TDLR\000"
 4848      00
 4849              	.LASF7:
 4850 0117 6C6F6E67 		.ascii	"long int\000"
 4850      20696E74 
 4850      00
 4851              	.LASF162:
 4852 0120 636D645F 		.ascii	"cmd_canmppttest\000"
 4852      63616E6D 
 4852      70707474 
 4852      65737400 
 4853              	.LASF18:
 4854 0130 74737461 		.ascii	"tstate_t\000"
 4854      74655F74 
 4854      00
 4855              	.LASF85:
 4856 0139 43414E5F 		.ascii	"CAN_TxMailBox_TypeDef\000"
 4856      54784D61 
 4856      696C426F 
 4856      785F5479 
 4856      70654465 
 4857              	.LASF37:
 4858 014f 705F7265 		.ascii	"p_refs\000"
 4858      667300
 4859              	.LASF173:
 4860 0156 6D657373 		.ascii	"messages\000"
 4860      61676573 
 4860      00
 4861              	.LASF13:
 4862 015f 75696E74 		.ascii	"uint16_t\000"
ARM GAS  C:\Users\DNIEL~1\AppData\Local\Temp\ccRVTa3G.s 			page 92


 4862      31365F74 
 4862      00
 4863              	.LASF39:
 4864 0168 705F7469 		.ascii	"p_time\000"
 4864      6D6500
 4865              	.LASF128:
 4866 016f 72656769 		.ascii	"register1\000"
 4866      73746572 
 4866      3100
 4867              	.LASF32:
 4868 0179 705F6E65 		.ascii	"p_newer\000"
 4868      77657200 
 4869              	.LASF61:
 4870 0181 735F7175 		.ascii	"s_queue\000"
 4870      65756500 
 4871              	.LASF156:
 4872 0189 43414E5F 		.ascii	"CAN_NUM_CH\000"
 4872      4E554D5F 
 4872      434800
 4873              	.LASF116:
 4874 0194 43414E5F 		.ascii	"CAN_READY\000"
 4874      52454144 
 4874      5900
 4875              	.LASF91:
 4876 019e 52463052 		.ascii	"RF0R\000"
 4876      00
 4877              	.LASF137:
 4878 01a3 72786675 		.ascii	"rxfull_event\000"
 4878      6C6C5F65 
 4878      76656E74 
 4878      00
 4879              	.LASF56:
 4880 01b0 725F6E65 		.ascii	"r_newer\000"
 4880      77657200 
 4881              	.LASF46:
 4882 01b8 705F6D70 		.ascii	"p_mpool\000"
 4882      6F6F6C00 
 4883              	.LASF49:
 4884 01c0 72656761 		.ascii	"regarm_t\000"
 4884      726D5F74 
 4884      00
 4885              	.LASF123:
 4886 01c9 54494D45 		.ascii	"TIME\000"
 4886      00
 4887              	.LASF82:
 4888 01ce 54445452 		.ascii	"TDTR\000"
 4888      00
 4889              	.LASF72:
 4890 01d3 4576656E 		.ascii	"EventSource\000"
 4890      74536F75 
 4890      72636500 
 4891              	.LASF81:
 4892 01df 42617365 		.ascii	"BaseSequentialStream\000"
 4892      53657175 
 4892      656E7469 
 4892      616C5374 
 4892      7265616D 
ARM GAS  C:\Users\DNIEL~1\AppData\Local\Temp\ccRVTa3G.s 			page 93


 4893              	.LASF174:
 4894 01f4 63616E5F 		.ascii	"can_rx_wa\000"
 4894      72785F77 
 4894      6100
 4895              	.LASF26:
 4896 01fe 636E745F 		.ascii	"cnt_t\000"
 4896      7400
 4897              	.LASF0:
 4898 0204 756E7369 		.ascii	"unsigned int\000"
 4898      676E6564 
 4898      20696E74 
 4898      00
 4899              	.LASF166:
 4900 0211 43414E44 		.ascii	"CAND1\000"
 4900      3100
 4901              	.LASF94:
 4902 0217 7354784D 		.ascii	"sTxMailBox\000"
 4902      61696C42 
 4902      6F7800
 4903              	.LASF41:
 4904 0222 705F6D73 		.ascii	"p_msgqueue\000"
 4904      67717565 
 4904      756500
 4905              	.LASF86:
 4906 022d 52445452 		.ascii	"RDTR\000"
 4906      00
 4907              	.LASF122:
 4908 0232 43414E54 		.ascii	"CANTxFrame\000"
 4908      78467261 
 4908      6D6500
 4909              	.LASF109:
 4910 023d 67657474 		.ascii	"gett\000"
 4910      00
 4911              	.LASF62:
 4912 0242 735F636E 		.ascii	"s_cnt\000"
 4912      7400
 4913              	.LASF129:
 4914 0248 72656769 		.ascii	"register2\000"
 4914      73746572 
 4914      3200
 4915              	.LASF4:
 4916 0252 73686F72 		.ascii	"short unsigned int\000"
 4916      7420756E 
 4916      7369676E 
 4916      65642069 
 4916      6E7400
 4917              	.LASF92:
 4918 0265 52463152 		.ascii	"RF1R\000"
 4918      00
 4919              	.LASF154:
 4920 026a 43414E5F 		.ascii	"CAN_LC\000"
 4920      4C4300
 4921              	.LASF90:
 4922 0271 43414E5F 		.ascii	"CAN_FilterRegister_TypeDef\000"
 4922      46696C74 
 4922      65725265 
 4922      67697374 
ARM GAS  C:\Users\DNIEL~1\AppData\Local\Temp\ccRVTa3G.s 			page 94


 4922      65725F54 
 4923              	.LASF22:
 4924 028c 6D73675F 		.ascii	"msg_t\000"
 4924      7400
 4925              	.LASF68:
 4926 0292 656C5F6E 		.ascii	"el_next\000"
 4926      65787400 
 4927              	.LASF110:
 4928 029a 77726974 		.ascii	"writet\000"
 4928      657400
 4929              	.LASF17:
 4930 02a1 746D6F64 		.ascii	"tmode_t\000"
 4930      655F7400 
 4931              	.LASF48:
 4932 02a9 54687265 		.ascii	"ThreadsList\000"
 4932      6164734C 
 4932      69737400 
 4933              	.LASF105:
 4934 02b5 7346696C 		.ascii	"sFilterRegister\000"
 4934      74657252 
 4934      65676973 
 4934      74657200 
 4935              	.LASF23:
 4936 02c5 6576656E 		.ascii	"eventmask_t\000"
 4936      746D6173 
 4936      6B5F7400 
 4937              	.LASF63:
 4938 02d1 4D757465 		.ascii	"Mutex\000"
 4938      7800
 4939              	.LASF158:
 4940 02d7 63616E5F 		.ascii	"can_rx\000"
 4940      727800
 4941              	.LASF181:
 4942 02de 73747263 		.ascii	"strcmp\000"
 4942      6D7000
 4943              	.LASF50:
 4944 02e5 73746B61 		.ascii	"stkalign_t\000"
 4944      6C69676E 
 4944      5F7400
 4945              	.LASF79:
 4946 02f0 77726974 		.ascii	"write\000"
 4946      6500
 4947              	.LASF108:
 4948 02f6 70757474 		.ascii	"putt\000"
 4948      00
 4949              	.LASF103:
 4950 02fb 46413152 		.ascii	"FA1R\000"
 4950      00
 4951              	.LASF179:
 4952 0300 63616E53 		.ascii	"canState\000"
 4952      74617465 
 4952      00
 4953              	.LASF151:
 4954 0309 43414E5F 		.ascii	"CAN_SM\000"
 4954      534D00
 4955              	.LASF117:
 4956 0310 43414E5F 		.ascii	"CAN_SLEEP\000"
ARM GAS  C:\Users\DNIEL~1\AppData\Local\Temp\ccRVTa3G.s 			page 95


 4956      534C4545 
 4956      5000
 4957              	.LASF171:
 4958 031a 63616E63 		.ascii	"cancfg\000"
 4958      666700
 4959              	.LASF119:
 4960 0321 64617461 		.ascii	"data8\000"
 4960      3800
 4961              	.LASF142:
 4962 0327 43414E44 		.ascii	"CANDriver\000"
 4962      72697665 
 4962      7200
 4963              	.LASF155:
 4964 0331 43414E5F 		.ascii	"CAN_WAIT\000"
 4964      57414954 
 4964      00
 4965              	.LASF33:
 4966 033a 705F6F6C 		.ascii	"p_older\000"
 4966      64657200 
 4967              	.LASF55:
 4968 0342 725F6374 		.ascii	"r_ctx\000"
 4968      7800
 4969              	.LASF47:
 4970 0348 54687265 		.ascii	"ThreadsQueue\000"
 4970      61647351 
 4970      75657565 
 4970      00
 4971              	.LASF84:
 4972 0355 54444852 		.ascii	"TDHR\000"
 4972      00
 4973              	.LASF58:
 4974 035a 725F6375 		.ascii	"r_current\000"
 4974      7272656E 
 4974      7400
 4975              	.LASF57:
 4976 0364 725F6F6C 		.ascii	"r_older\000"
 4976      64657200 
 4977              	.LASF70:
 4978 036c 656C5F6D 		.ascii	"el_mask\000"
 4978      61736B00 
 4979              	.LASF140:
 4980 0374 736C6565 		.ascii	"sleep_event\000"
 4980      705F6576 
 4980      656E7400 
 4981              	.LASF118:
 4982 0380 63616E73 		.ascii	"canstate_t\000"
 4982      74617465 
 4982      5F7400
 4983              	.LASF114:
 4984 038b 43414E5F 		.ascii	"CAN_STOP\000"
 4984      53544F50 
 4984      00
 4985              	.LASF101:
 4986 0394 46464131 		.ascii	"FFA1R\000"
 4986      5200
 4987              	.LASF80:
 4988 039a 72656164 		.ascii	"read\000"
ARM GAS  C:\Users\DNIEL~1\AppData\Local\Temp\ccRVTa3G.s 			page 96


 4988      00
 4989              	.LASF139:
 4990 039f 6572726F 		.ascii	"error_event\000"
 4990      725F6576 
 4990      656E7400 
 4991              	.LASF180:
 4992 03ab 63616E5F 		.ascii	"can_commInit\000"
 4992      636F6D6D 
 4992      496E6974 
 4992      00
 4993              	.LASF19:
 4994 03b8 74726566 		.ascii	"trefs_t\000"
 4994      735F7400 
 4995              	.LASF93:
 4996 03c0 52455345 		.ascii	"RESERVED0\000"
 4996      52564544 
 4996      3000
 4997              	.LASF96:
 4998 03ca 52455345 		.ascii	"RESERVED1\000"
 4998      52564544 
 4998      3100
 4999              	.LASF98:
 5000 03d4 52455345 		.ascii	"RESERVED2\000"
 5000      52564544 
 5000      3200
 5001              	.LASF100:
 5002 03de 52455345 		.ascii	"RESERVED3\000"
 5002      52564544 
 5002      3300
 5003              	.LASF102:
 5004 03e8 52455345 		.ascii	"RESERVED4\000"
 5004      52564544 
 5004      3400
 5005              	.LASF29:
 5006 03f2 705F7072 		.ascii	"p_prev\000"
 5006      657600
 5007              	.LASF21:
 5008 03f9 74707269 		.ascii	"tprio_t\000"
 5008      6F5F7400 
 5009              	.LASF113:
 5010 0401 43414E5F 		.ascii	"CAN_UNINIT\000"
 5010      554E494E 
 5010      495400
 5011              	.LASF14:
 5012 040c 696E7433 		.ascii	"int32_t\000"
 5012      325F7400 
 5013              	.LASF2:
 5014 0414 756E7369 		.ascii	"unsigned char\000"
 5014      676E6564 
 5014      20636861 
 5014      7200
 5015              	.LASF141:
 5016 0422 77616B65 		.ascii	"wakeup_event\000"
 5016      75705F65 
 5016      76656E74 
 5016      00
 5017              	.LASF69:
ARM GAS  C:\Users\DNIEL~1\AppData\Local\Temp\ccRVTa3G.s 			page 97


 5018 042f 656C5F6C 		.ascii	"el_listener\000"
 5018      69737465 
 5018      6E657200 
 5019              	.LASF165:
 5020 043b 49544D5F 		.ascii	"ITM_RxBuffer\000"
 5020      52784275 
 5020      66666572 
 5020      00
 5021              	.LASF71:
 5022 0448 656C5F66 		.ascii	"el_flags\000"
 5022      6C616773 
 5022      00
 5023              	.LASF44:
 5024 0451 705F6D74 		.ascii	"p_mtxlist\000"
 5024      786C6973 
 5024      7400
 5025              	.LASF3:
 5026 045b 73686F72 		.ascii	"short int\000"
 5026      7420696E 
 5026      7400
 5027              	.LASF35:
 5028 0465 705F7374 		.ascii	"p_state\000"
 5028      61746500 
 5029              	.LASF38:
 5030 046d 705F7072 		.ascii	"p_preempt\000"
 5030      65656D70 
 5030      7400
 5031              	.LASF54:
 5032 0477 725F7072 		.ascii	"r_prio\000"
 5032      696F00
 5033              	.LASF77:
 5034 047e 65776D61 		.ascii	"ewmask\000"
 5034      736B00
 5035              	.LASF28:
 5036 0485 705F6E65 		.ascii	"p_next\000"
 5036      787400
 5037              	.LASF78:
 5038 048c 42617365 		.ascii	"BaseSequentialStreamVMT\000"
 5038      53657175 
 5038      656E7469 
 5038      616C5374 
 5038      7265616D 
 5039              	.LASF36:
 5040 04a4 705F666C 		.ascii	"p_flags\000"
 5040      61677300 
 5041              	.LASF97:
 5042 04ac 464D3152 		.ascii	"FM1R\000"
 5042      00
 5043              	.LASF27:
 5044 04b1 54687265 		.ascii	"Thread\000"
 5044      616400
 5045              	.LASF157:
 5046 04b8 63616E5F 		.ascii	"can_tx\000"
 5046      747800
 5047              	.LASF175:
 5048 04bf 63616E5F 		.ascii	"can_tx_wa\000"
 5048      74785F77 
ARM GAS  C:\Users\DNIEL~1\AppData\Local\Temp\ccRVTa3G.s 			page 98


 5048      6100
 5049              	.LASF43:
 5050 04c9 705F6570 		.ascii	"p_epending\000"
 5050      656E6469 
 5050      6E6700
 5051              	.LASF104:
 5052 04d4 52455345 		.ascii	"RESERVED5\000"
 5052      52564544 
 5052      3500
 5053              	.LASF127:
 5054 04de 61737369 		.ascii	"assignment\000"
 5054      676E6D65 
 5054      6E7400
 5055              	.LASF53:
 5056 04e9 725F7175 		.ascii	"r_queue\000"
 5056      65756500 
 5057              	.LASF138:
 5058 04f1 7478656D 		.ascii	"txempty_event\000"
 5058      7074795F 
 5058      6576656E 
 5058      7400
 5059              	.LASF149:
 5060 04ff 766F6C74 		.ascii	"volt_in\000"
 5060      5F696E00 
 5061              	.LASF8:
 5062 0507 6C6F6E67 		.ascii	"long unsigned int\000"
 5062      20756E73 
 5062      69676E65 
 5062      6420696E 
 5062      7400
 5063              	.LASF9:
 5064 0519 63686172 		.ascii	"char\000"
 5064      00
 5065              	.LASF125:
 5066 051e 6D6F6465 		.ascii	"mode\000"
 5066      00
 5067              	.LASF134:
 5068 0523 636F6E66 		.ascii	"config\000"
 5068      696700
 5069              	.LASF172:
 5070 052a 73656765 		.ascii	"seged\000"
 5070      6400
 5071              	.LASF88:
 5072 0530 52444852 		.ascii	"RDHR\000"
 5072      00
 5073              	.LASF168:
 5074 0535 63616E73 		.ascii	"canstate\000"
 5074      74617465 
 5074      00
 5075              	.LASF66:
 5076 053e 6D5F6E65 		.ascii	"m_next\000"
 5076      787400
 5077              	.LASF25:
 5078 0545 73797374 		.ascii	"systime_t\000"
 5078      696D655F 
 5078      7400
 5079              	.LASF45:
ARM GAS  C:\Users\DNIEL~1\AppData\Local\Temp\ccRVTa3G.s 			page 99


 5080 054f 705F7265 		.ascii	"p_realprio\000"
 5080      616C7072 
 5080      696F00
 5081              	.LASF95:
 5082 055a 73464946 		.ascii	"sFIFOMailBox\000"
 5082      4F4D6169 
 5082      6C426F78 
 5082      00
 5083              	.LASF52:
 5084 0567 636F6E74 		.ascii	"context\000"
 5084      65787400 
 5085              	.LASF144:
 5086 056f 74656D70 		.ascii	"temp\000"
 5086      00
 5087              	.LASF51:
 5088 0574 696E7463 		.ascii	"intctx\000"
 5088      747800
 5089              	.LASF177:
 5090 057b 7372632F 		.ascii	"src/can_comm.c\000"
 5090      63616E5F 
 5090      636F6D6D 
 5090      2E6300
 5091              	.LASF60:
 5092 058a 53656D61 		.ascii	"Semaphore\000"
 5092      70686F72 
 5092      6500
 5093              	.LASF24:
 5094 0594 666C6167 		.ascii	"flagsmask_t\000"
 5094      736D6173 
 5094      6B5F7400 
 5095              	.LASF15:
 5096 05a0 75696E74 		.ascii	"uint32_t\000"
 5096      33325F74 
 5096      00
 5097              	.LASF120:
 5098 05a9 64617461 		.ascii	"data16\000"
 5098      313600
 5099              	.LASF143:
 5100 05b0 6C757863 		.ascii	"luxcontrolItem\000"
 5100      6F6E7472 
 5100      6F6C4974 
 5100      656D00
 5101              	.LASF34:
 5102 05bf 705F6E61 		.ascii	"p_name\000"
 5102      6D6500
 5103              	.LASF73:
 5104 05c6 65735F6E 		.ascii	"es_next\000"
 5104      65787400 
 5105              	.LASF148:
 5106 05ce 73746174 		.ascii	"status\000"
 5106      757300
 5107              	.LASF59:
 5108 05d5 52656164 		.ascii	"ReadyList\000"
 5108      794C6973 
 5108      7400
 5109              	.LASF89:
 5110 05df 43414E5F 		.ascii	"CAN_FIFOMailBox_TypeDef\000"
ARM GAS  C:\Users\DNIEL~1\AppData\Local\Temp\ccRVTa3G.s 			page 100


 5110      4649464F 
 5110      4D61696C 
 5110      426F785F 
 5110      54797065 
 5111              	.LASF146:
 5112 05f7 63757272 		.ascii	"curr_out\000"
 5112      5F6F7574 
 5112      00
 5113              	.LASF164:
 5114 0600 726C6973 		.ascii	"rlist\000"
 5114      7400
 5115              	.LASF11:
 5116 0606 75696E74 		.ascii	"uint8_t\000"
 5116      385F7400 
 5117              	.LASF136:
 5118 060e 72787365 		.ascii	"rxsem\000"
 5118      6D00
 5119              	.LASF152:
 5120 0614 43414E5F 		.ascii	"CAN_ML\000"
 5120      4D4C00
 5121              	.LASF153:
 5122 061b 43414E5F 		.ascii	"CAN_RPY\000"
 5122      52505900 
 5123              	.LASF67:
 5124 0623 4576656E 		.ascii	"EventListener\000"
 5124      744C6973 
 5124      74656E65 
 5124      7200
 5125              	.LASF76:
 5126 0631 77746F62 		.ascii	"wtobjp\000"
 5126      6A7000
 5127              	.LASF163:
 5128 0638 636D645F 		.ascii	"cmd_candata\000"
 5128      63616E64 
 5128      61746100 
 5129              	.LASF159:
 5130 0644 61726763 		.ascii	"argc\000"
 5130      00
 5131              	.LASF130:
 5132 0649 43414E46 		.ascii	"CANFilter\000"
 5132      696C7465 
 5132      7200
 5133              	.LASF167:
 5134 0653 6C636974 		.ascii	"lcitems\000"
 5134      656D7300 
 5135              	.LASF42:
 5136 065b 705F6D73 		.ascii	"p_msg\000"
 5136      6700
 5137              	.LASF178:
 5138 0661 433A5C55 		.ascii	"C:\\Users\\D\341niel\\Dropbox\\Solar Racing\\Szoftv"
 5138      73657273 
 5138      5C44E16E 
 5138      69656C5C 
 5138      44726F70 
 5139 068c 65725C53 		.ascii	"er\\Smarty\\Smarty_v7\\smarty\\firmware\000"
 5139      6D617274 
 5139      795C536D 
ARM GAS  C:\Users\DNIEL~1\AppData\Local\Temp\ccRVTa3G.s 			page 101


 5139      61727479 
 5139      5F76375C 
 5140              	.LASF112:
 5141 06b0 42617365 		.ascii	"BaseChannel\000"
 5141      4368616E 
 5141      6E656C00 
 5142              	.LASF87:
 5143 06bc 52444C52 		.ascii	"RDLR\000"
 5143      00
 5144              	.LASF160:
 5145 06c1 61726776 		.ascii	"argv\000"
 5145      00
 5146              	.LASF65:
 5147 06c6 6D5F6F77 		.ascii	"m_owner\000"
 5147      6E657200 
 5148              	.LASF131:
 5149 06ce 66696C74 		.ascii	"filters\000"
 5149      65727300 
 5150              	.LASF31:
 5151 06d6 705F6374 		.ascii	"p_ctx\000"
 5151      7800
 5152              	.LASF40:
 5153 06dc 705F7761 		.ascii	"p_waiting\000"
 5153      6974696E 
 5153      6700
 5154              	.LASF145:
 5155 06e6 63757272 		.ascii	"curr_in\000"
 5155      5F696E00 
 5156              		.ident	"GCC: (Sourcery G++ Lite 2011.03-42) 4.5.2"
ARM GAS  C:\Users\DNIEL~1\AppData\Local\Temp\ccRVTa3G.s 			page 102


DEFINED SYMBOLS
                            *ABS*:00000000 can_comm.c
C:\Users\DNIEL~1\AppData\Local\Temp\ccRVTa3G.s:24     .text.can_tx:00000000 $t
C:\Users\DNIEL~1\AppData\Local\Temp\ccRVTa3G.s:29     .text.can_tx:00000000 can_tx
C:\Users\DNIEL~1\AppData\Local\Temp\ccRVTa3G.s:105    .text.can_tx:0000005c $d
C:\Users\DNIEL~1\AppData\Local\Temp\ccRVTa3G.s:115    .text.can_rx:00000000 $t
C:\Users\DNIEL~1\AppData\Local\Temp\ccRVTa3G.s:120    .text.can_rx:00000000 can_rx
C:\Users\DNIEL~1\AppData\Local\Temp\ccRVTa3G.s:461    .text.can_rx:00000200 $d
C:\Users\DNIEL~1\AppData\Local\Temp\ccRVTa3G.s:478    .text.can_commInit:00000000 $t
C:\Users\DNIEL~1\AppData\Local\Temp\ccRVTa3G.s:484    .text.can_commInit:00000000 can_commInit
C:\Users\DNIEL~1\AppData\Local\Temp\ccRVTa3G.s:525    .text.can_commInit:00000034 $d
C:\Users\DNIEL~1\AppData\Local\Temp\ccRVTa3G.s:535    .text.cmd_can_commvalues:00000000 $t
C:\Users\DNIEL~1\AppData\Local\Temp\ccRVTa3G.s:541    .text.cmd_can_commvalues:00000000 cmd_can_commvalues
C:\Users\DNIEL~1\AppData\Local\Temp\ccRVTa3G.s:611    .text.cmd_can_commvalues:00000060 $d
C:\Users\DNIEL~1\AppData\Local\Temp\ccRVTa3G.s:622    .text.cmd_canmppttest:00000000 $t
C:\Users\DNIEL~1\AppData\Local\Temp\ccRVTa3G.s:628    .text.cmd_canmppttest:00000000 cmd_canmppttest
C:\Users\DNIEL~1\AppData\Local\Temp\ccRVTa3G.s:773    .text.cmd_canmppttest:000000ec $d
C:\Users\DNIEL~1\AppData\Local\Temp\ccRVTa3G.s:801    .text.cmd_candata:00000000 $t
C:\Users\DNIEL~1\AppData\Local\Temp\ccRVTa3G.s:807    .text.cmd_candata:00000000 cmd_candata
C:\Users\DNIEL~1\AppData\Local\Temp\ccRVTa3G.s:958    .text.cmd_candata:000000e8 $d
C:\Users\DNIEL~1\AppData\Local\Temp\ccRVTa3G.s:1419   .bss.canstate:00000000 canstate
C:\Users\DNIEL~1\AppData\Local\Temp\ccRVTa3G.s:980    .bss.can_tx_wa:00000000 $d
C:\Users\DNIEL~1\AppData\Local\Temp\ccRVTa3G.s:984    .bss.can_tx_wa:00000000 can_tx_wa
C:\Users\DNIEL~1\AppData\Local\Temp\ccRVTa3G.s:987    .bss.id:00000000 $d
C:\Users\DNIEL~1\AppData\Local\Temp\ccRVTa3G.s:991    .bss.id:00000000 id
C:\Users\DNIEL~1\AppData\Local\Temp\ccRVTa3G.s:994    .bss.txmsg:00000000 $d
C:\Users\DNIEL~1\AppData\Local\Temp\ccRVTa3G.s:998    .bss.txmsg:00000000 txmsg
C:\Users\DNIEL~1\AppData\Local\Temp\ccRVTa3G.s:1001   .bss.seged:00000000 $d
C:\Users\DNIEL~1\AppData\Local\Temp\ccRVTa3G.s:1005   .bss.seged:00000000 seged
C:\Users\DNIEL~1\AppData\Local\Temp\ccRVTa3G.s:1008   .bss.can_rx_wa:00000000 $d
C:\Users\DNIEL~1\AppData\Local\Temp\ccRVTa3G.s:1012   .bss.can_rx_wa:00000000 can_rx_wa
C:\Users\DNIEL~1\AppData\Local\Temp\ccRVTa3G.s:1015   .data.lcitems:00000000 $d
C:\Users\DNIEL~1\AppData\Local\Temp\ccRVTa3G.s:1019   .data.lcitems:00000000 lcitems
C:\Users\DNIEL~1\AppData\Local\Temp\ccRVTa3G.s:1309   .rodata.str1.4:00000000 $d
C:\Users\DNIEL~1\AppData\Local\Temp\ccRVTa3G.s:1420   .bss.canstate:00000000 $d
C:\Users\DNIEL~1\AppData\Local\Temp\ccRVTa3G.s:1422   .bss.messages:00000000 $d
C:\Users\DNIEL~1\AppData\Local\Temp\ccRVTa3G.s:1426   .bss.messages:00000000 messages
C:\Users\DNIEL~1\AppData\Local\Temp\ccRVTa3G.s:1429   .bss.rxmsg:00000000 $d
C:\Users\DNIEL~1\AppData\Local\Temp\ccRVTa3G.s:1433   .bss.rxmsg:00000000 rxmsg
C:\Users\DNIEL~1\AppData\Local\Temp\ccRVTa3G.s:1436   .rodata.cancfg:00000000 $d
C:\Users\DNIEL~1\AppData\Local\Temp\ccRVTa3G.s:1440   .rodata.cancfg:00000000 cancfg
                     .debug_frame:00000010 $d
C:\Users\DNIEL~1\AppData\Local\Temp\ccRVTa3G.s:114    .text.can_tx:00000074 $t
C:\Users\DNIEL~1\AppData\Local\Temp\ccRVTa3G.s:477    .text.can_rx:00000234 $t
C:\Users\DNIEL~1\AppData\Local\Temp\ccRVTa3G.s:534    .text.can_commInit:0000004c $t
C:\Users\DNIEL~1\AppData\Local\Temp\ccRVTa3G.s:621    .text.cmd_can_commvalues:0000007c $t
C:\Users\DNIEL~1\AppData\Local\Temp\ccRVTa3G.s:800    .text.cmd_canmppttest:0000014c $t
C:\Users\DNIEL~1\AppData\Local\Temp\ccRVTa3G.s:979    .text.cmd_candata:00000128 $t

UNDEFINED SYMBOLS
canTransmit
chThdSleep
rlist
CAND1
chEvtRegisterMask
chEvtWaitAnyTimeout
canReceive
ARM GAS  C:\Users\DNIEL~1\AppData\Local\Temp\ccRVTa3G.s 			page 103


chEvtUnregister
canStart
chThdCreateStatic
chprintf
strcmp
atol
