ARM GAS  C:\Users\DNIEL~1\AppData\Local\Temp\ccENKQmc.s 			page 1


   1              		.syntax unified
   2              		.cpu cortex-m4
   3              		.fpu softvfp
   4              		.eabi_attribute 20, 1
   5              		.eabi_attribute 21, 1
   6              		.eabi_attribute 23, 3
   7              		.eabi_attribute 24, 1
   8              		.eabi_attribute 25, 1
   9              		.eabi_attribute 26, 1
  10              		.eabi_attribute 30, 2
  11              		.eabi_attribute 34, 1
  12              		.eabi_attribute 18, 4
  13              		.thumb
  14              		.file	"chcore_v7m.c"
  15              		.text
  16              	.Ltext0:
  17              		.cfi_sections	.debug_frame
  18              		.section	.text._port_switch_from_isr,"ax",%progbits
  19              		.align	2
  20              		.p2align 4,,15
  21              		.global	_port_switch_from_isr
  22              		.thumb
  23              		.thumb_func
  24              		.type	_port_switch_from_isr, %function
  25              	_port_switch_from_isr:
  26              	.LFB11:
  27              		.file 1 "../../../ChibiOS/os/ports/GCC/ARMCMx/chcore_v7m.c"
  28              		.loc 1 200 0
  29              		.cfi_startproc
  30              		@ Naked Function: prologue and epilogue provided by programmer.
  31              		@ args = 0, pretend = 0, frame = 0
  32              		@ frame_needed = 0, uses_anonymous_args = 0
  33              		.loc 1 203 0
  34 0000 FFF7FEFF 		bl	chSchDoReschedule
  35              	.LVL0:
  36              		.loc 1 205 0
  37              	@ 205 "../../../ChibiOS/os/ports/GCC/ARMCMx/chcore_v7m.c" 1
  38              		_port_exit_from_isr:
  39              	@ 0 "" 2
  40              		.loc 1 207 0
  41              	@ 207 "../../../ChibiOS/os/ports/GCC/ARMCMx/chcore_v7m.c" 1
  42 0004 00DF     		svc     #0
  43              	@ 0 "" 2
  44              		.loc 1 214 0
  45              		.thumb
  46              		.cfi_endproc
  47              	.LFE11:
  48              		.size	_port_switch_from_isr, .-_port_switch_from_isr
  49 0006 00BFAFF3 		.section	.text.SVCallVector,"ax",%progbits
  49      0080AFF3 
  49      0080
  50              		.align	2
  51              		.p2align 4,,15
  52              		.global	SVCallVector
  53              		.thumb
  54              		.thumb_func
  55              		.type	SVCallVector, %function
ARM GAS  C:\Users\DNIEL~1\AppData\Local\Temp\ccENKQmc.s 			page 2


  56              	SVCallVector:
  57              	.LFB8:
  58              		.loc 1 65 0
  59              		.cfi_startproc
  60              		@ args = 0, pretend = 0, frame = 0
  61              		@ frame_needed = 0, uses_anonymous_args = 0
  62              		@ link register save eliminated.
  63              		.loc 1 74 0
  64              	@ 74 "../../../ChibiOS/os/ports/GCC/ARMCMx/chcore_v7m.c" 1
  65 0000 EFF30983 		mrs     r3, PSP
  66              	@ 0 "" 2
  67              	.LVL1:
  68              		.loc 1 78 0
  69              		.thumb
  70 0004 2033     		adds	r3, r3, #32
  71              	.LVL2:
  72              		.loc 1 81 0
  73              	@ 81 "../../../ChibiOS/os/ports/GCC/ARMCMx/chcore_v7m.c" 1
  74 0006 83F30988 		msr     PSP, r3
  75              	@ 0 "" 2
  76              		.thumb
  77              	.LBB2:
  78              		.loc 1 82 0
  79 000a 0023     		movs	r3, #0
  80              	.LVL3:
  81              	@ 82 "../../../ChibiOS/os/ports/GCC/ARMCMx/chcore_v7m.c" 1
  82 000c 83F31188 		msr     BASEPRI, r3
  83              	@ 0 "" 2
  84              	.LVL4:
  85              		.thumb
  86 0010 7047     		bx	lr
  87              	.LBE2:
  88              		.cfi_endproc
  89              	.LFE8:
  90              		.size	SVCallVector, .-SVCallVector
  91 0012 00BFAFF3 		.section	.text._port_init,"ax",%progbits
  91      0080AFF3 
  91      0080AFF3 
  91      0080
  92              		.align	2
  93              		.p2align 4,,15
  94              		.global	_port_init
  95              		.thumb
  96              		.thumb_func
  97              		.type	_port_init, %function
  98              	_port_init:
  99              	.LFB9:
 100              		.loc 1 120 0
 101              		.cfi_startproc
 102              		@ args = 0, pretend = 0, frame = 0
 103              		@ frame_needed = 0, uses_anonymous_args = 0
 104 0000 08B5     		push	{r3, lr}
 105              	.LCFI0:
 106              		.cfi_def_cfa_offset 8
 107              		.cfi_offset 3, -8
 108              		.cfi_offset 14, -4
 109              		.loc 1 123 0
ARM GAS  C:\Users\DNIEL~1\AppData\Local\Temp\ccENKQmc.s 			page 3


 110 0002 4FF46D43 		mov	r3, #60672
 111 0006 CEF20003 		movt	r3, 57344
 112              		.loc 1 124 0
 113 000a 4FF44072 		mov	r2, #768
 114 000e C0F2FA52 		movt	r2, 1530
 115              		.loc 1 123 0
 116 0012 0021     		movs	r1, #0
 117 0014 9960     		str	r1, [r3, #8]
 118              		.loc 1 127 0
 119 0016 0720     		movs	r0, #7
 120 0018 1021     		movs	r1, #16
 121              		.loc 1 124 0
 122 001a DA60     		str	r2, [r3, #12]
 123              		.loc 1 127 0
 124 001c FFF7FEFF 		bl	nvicSetSystemHandlerPriority
 125              	.LVL5:
 126              		.loc 1 129 0
 127 0020 0A20     		movs	r0, #10
 128 0022 2021     		movs	r1, #32
 129 0024 FFF7FEFF 		bl	nvicSetSystemHandlerPriority
 130              	.LVL6:
 131              		.loc 1 131 0
 132 0028 0B20     		movs	r0, #11
 133 002a 8021     		movs	r1, #128
 134              		.loc 1 133 0
 135 002c BDE80840 		pop	{r3, lr}
 136              		.loc 1 131 0
 137 0030 FFF7FEBF 		b	nvicSetSystemHandlerPriority
 138              	.LVL7:
 139              		.cfi_endproc
 140              	.LFE9:
 141              		.size	_port_init, .-_port_init
 142 0034 AFF30080 		.section	.text._port_irq_epilogue,"ax",%progbits
 142      AFF30080 
 142      AFF30080 
 143              		.align	2
 144              		.p2align 4,,15
 145              		.global	_port_irq_epilogue
 146              		.thumb
 147              		.thumb_func
 148              		.type	_port_irq_epilogue, %function
 149              	_port_irq_epilogue:
 150              	.LFB10:
 151              		.loc 1 150 0
 152              		.cfi_startproc
 153              		@ args = 0, pretend = 0, frame = 0
 154              		@ frame_needed = 0, uses_anonymous_args = 0
 155              		@ link register save eliminated.
 156              	.LBB3:
 157              		.loc 1 152 0
 158 0000 2023     		movs	r3, #32
 159              	.LVL8:
 160              	@ 152 "../../../ChibiOS/os/ports/GCC/ARMCMx/chcore_v7m.c" 1
 161 0002 83F31188 		msr     BASEPRI, r3
 162              	@ 0 "" 2
 163              	.LVL9:
 164              		.thumb
ARM GAS  C:\Users\DNIEL~1\AppData\Local\Temp\ccENKQmc.s 			page 4


 165              	.LBE3:
 166              		.loc 1 153 0
 167 0006 4FF46D43 		mov	r3, #60672
 168              	.LVL10:
 169 000a CEF20003 		movt	r3, 57344
 170 000e 5868     		ldr	r0, [r3, #4]
 171 0010 10F40063 		ands	r3, r0, #2048
 172 0014 19D0     		beq	.L5
 173              	.LBB4:
 174              		.loc 1 163 0
 175              	@ 163 "../../../ChibiOS/os/ports/GCC/ARMCMx/chcore_v7m.c" 1
 176 0016 EFF30983 		mrs     r3, PSP
 177              	@ 0 "" 2
 178              	.LVL11:
 179              		.loc 1 168 0
 180              		.thumb
 181 001a 4FF08072 		mov	r2, #16777216
 182 001e 43F8042C 		str	r2, [r3, #-4]
 183              		.loc 1 167 0
 184 0022 A3F12001 		sub	r1, r3, #32
 185              	.LVL12:
 186              		.loc 1 172 0
 187              	@ 172 "../../../ChibiOS/os/ports/GCC/ARMCMx/chcore_v7m.c" 1
 188 0026 81F30988 		msr     PSP, r1
 189              	@ 0 "" 2
 190              		.loc 1 176 0
 191              		.thumb
 192 002a 0E49     		ldr	r1, .L12
 193              	.LVL13:
 194 002c 8A69     		ldr	r2, [r1, #24]
 195 002e 0968     		ldr	r1, [r1, #0]
 196 0030 D07F     		ldrb	r0, [r2, #31]	@ zero_extendqisi2
 197 0032 8968     		ldr	r1, [r1, #8]
 198 0034 9268     		ldr	r2, [r2, #8]
 199 0036 58B1     		cbz	r0, .L6
 200              		.loc 1 176 0 is_stmt 0 discriminator 1
 201 0038 9142     		cmp	r1, r2
 202 003a 94BF     		ite	ls
 203 003c 0022     		movls	r2, #0
 204 003e 0122     		movhi	r2, #1
 205 0040 62B1     		cbz	r2, .L8
 206              	.L11:
 207              		.loc 1 178 0 is_stmt 1
 208 0042 094A     		ldr	r2, .L12+4
 209 0044 43F8082C 		str	r2, [r3, #-8]
 210 0048 7047     		bx	lr
 211              	.LVL14:
 212              	.L5:
 213              	.LBE4:
 214              	.LBB5:
 215              		.loc 1 190 0
 216              	@ 190 "../../../ChibiOS/os/ports/GCC/ARMCMx/chcore_v7m.c" 1
 217 004a 83F31188 		msr     BASEPRI, r3
 218              	@ 0 "" 2
 219              	.LVL15:
 220              		.thumb
 221 004e 7047     		bx	lr
ARM GAS  C:\Users\DNIEL~1\AppData\Local\Temp\ccENKQmc.s 			page 5


 222              	.LVL16:
 223              	.L6:
 224              	.LBE5:
 225              	.LBB6:
 226              		.loc 1 176 0 discriminator 2
 227 0050 9142     		cmp	r1, r2
 228 0052 34BF     		ite	cc
 229 0054 0022     		movcc	r2, #0
 230 0056 0122     		movcs	r2, #1
 231 0058 002A     		cmp	r2, #0
 232 005a F2D1     		bne	.L11
 233              	.L8:
 234              		.loc 1 183 0
 235 005c 0348     		ldr	r0, .L12+8
 236 005e 43F8080C 		str	r0, [r3, #-8]
 237 0062 7047     		bx	lr
 238              	.L13:
 239              		.align	2
 240              	.L12:
 241 0064 00000000 		.word	rlist
 242 0068 00000000 		.word	_port_switch_from_isr
 243 006c 04000000 		.word	_port_exit_from_isr
 244              	.LBE6:
 245              		.cfi_endproc
 246              	.LFE10:
 247              		.size	_port_irq_epilogue, .-_port_irq_epilogue
 248              		.section	.text.SysTickVector,"ax",%progbits
 249              		.align	2
 250              		.p2align 4,,15
 251              		.global	SysTickVector
 252              		.thumb
 253              		.thumb_func
 254              		.type	SysTickVector, %function
 255              	SysTickVector:
 256              	.LFB7:
 257              		.loc 1 47 0
 258              		.cfi_startproc
 259              		@ args = 0, pretend = 0, frame = 0
 260              		@ frame_needed = 0, uses_anonymous_args = 0
 261 0000 08B5     		push	{r3, lr}
 262              	.LCFI1:
 263              		.cfi_def_cfa_offset 8
 264              		.cfi_offset 3, -8
 265              		.cfi_offset 14, -4
 266              	.LBB7:
 267              		.loc 1 51 0
 268 0002 2023     		movs	r3, #32
 269              	.LVL17:
 270              	@ 51 "../../../ChibiOS/os/ports/GCC/ARMCMx/chcore_v7m.c" 1
 271 0004 83F31188 		msr     BASEPRI, r3
 272              	@ 0 "" 2
 273              	.LVL18:
 274              		.thumb
 275              	.LBE7:
 276              		.loc 1 52 0
 277 0008 FFF7FEFF 		bl	chSysTimerHandlerI
 278              	.LVL19:
ARM GAS  C:\Users\DNIEL~1\AppData\Local\Temp\ccENKQmc.s 			page 6


 279              	.LBB8:
 280              		.loc 1 53 0
 281 000c 0023     		movs	r3, #0
 282              	.LVL20:
 283              	@ 53 "../../../ChibiOS/os/ports/GCC/ARMCMx/chcore_v7m.c" 1
 284 000e 83F31188 		msr     BASEPRI, r3
 285              	@ 0 "" 2
 286              	.LVL21:
 287              		.thumb
 288              	.LBE8:
 289              		.loc 1 56 0
 290 0012 BDE80840 		pop	{r3, lr}
 291              		.loc 1 55 0
 292 0016 FFF7FEBF 		b	_port_irq_epilogue
 293              	.LVL22:
 294              		.cfi_endproc
 295              	.LFE7:
 296              		.size	SysTickVector, .-SysTickVector
 297              		.section	.text._port_switch,"ax",%progbits
 298              		.align	2
 299              		.p2align 4,,15
 300              		.global	_port_switch
 301              		.thumb
 302              		.thumb_func
 303              		.type	_port_switch, %function
 304              	_port_switch:
 305              	.LFB12:
 306              		.loc 1 229 0
 307              		.cfi_startproc
 308              		@ Naked Function: prologue and epilogue provided by programmer.
 309              		@ args = 0, pretend = 0, frame = 0
 310              		@ frame_needed = 0, uses_anonymous_args = 0
 311              	.LVL23:
 312              		.loc 1 231 0
 313              	@ 231 "../../../ChibiOS/os/ports/GCC/ARMCMx/chcore_v7m.c" 1
 314 0000 2DE9F04F 		push    {r4, r5, r6, r7, r8, r9, r10, r11, lr}
 315              	@ 0 "" 2
 316              		.loc 1 237 0
 317              	@ 237 "../../../ChibiOS/os/ports/GCC/ARMCMx/chcore_v7m.c" 1
 318 0004 C1F80CD0 		str     sp, [r1, #12]                          
 319 0008 D0F80CD0 		ldr     sp, [r0, #12]
 320              	@ 0 "" 2
 321              		.loc 1 243 0
 322              	@ 243 "../../../ChibiOS/os/ports/GCC/ARMCMx/chcore_v7m.c" 1
 323 000c BDE8F08F 		pop     {r4, r5, r6, r7, r8, r9, r10, r11, pc}
 324              	@ 0 "" 2
 325              		.loc 1 245 0
 326              		.thumb
 327              		.cfi_endproc
 328              	.LFE12:
 329              		.size	_port_switch, .-_port_switch
 330              		.section	.text._port_thread_start,"ax",%progbits
 331              		.align	2
 332              		.p2align 4,,15
 333              		.global	_port_thread_start
 334              		.thumb
 335              		.thumb_func
ARM GAS  C:\Users\DNIEL~1\AppData\Local\Temp\ccENKQmc.s 			page 7


 336              		.type	_port_thread_start, %function
 337              	_port_thread_start:
 338              	.LFB13:
 339              		.loc 1 252 0
 340              		.cfi_startproc
 341              		@ args = 0, pretend = 0, frame = 0
 342              		@ frame_needed = 0, uses_anonymous_args = 0
 343              		@ link register save eliminated.
 344              	.LBB9:
 345              		.loc 1 254 0
 346 0000 0023     		movs	r3, #0
 347              	.LVL24:
 348              	@ 254 "../../../ChibiOS/os/ports/GCC/ARMCMx/chcore_v7m.c" 1
 349 0002 83F31188 		msr     BASEPRI, r3
 350              	@ 0 "" 2
 351              	.LVL25:
 352              		.thumb
 353              	.LBE9:
 354              		.loc 1 255 0
 355              	@ 255 "../../../ChibiOS/os/ports/GCC/ARMCMx/chcore_v7m.c" 1
 356 0006 2846     		mov     r0, r5                                 
 357 0008 A047     		blx     r4                                     
 358 000a FFF7FEFF 		bl      chThdExit
 359              	@ 0 "" 2
 360              		.thumb
 361 000e 7047     		bx	lr
 362              		.cfi_endproc
 363              	.LFE13:
 364              		.size	_port_thread_start, .-_port_thread_start
 365              		.text
 366              	.Letext0:
 367              		.file 2 "c:\\chibistudio\\tools\\gnu tools arm embedded\\4.7 2014q2\\bin\\../lib/gcc/arm-none-eabi
 368              		.file 3 "../../../ChibiOS/os/ports/GCC/ARMCMx/chtypes.h"
 369              		.file 4 "../../../ChibiOS/os/kernel/include/chlists.h"
 370              		.file 5 "../../../ChibiOS/os/kernel/include/chthreads.h"
 371              		.file 6 "../../../ChibiOS/os/ports/GCC/ARMCMx/chcore_v7m.h"
 372              		.file 7 "../../../ChibiOS/os/ports/common/ARMCMx/nvic.h"
 373              		.file 8 "../../../ChibiOS/os/kernel/include/chschd.h"
 374              		.file 9 "../../../ChibiOS/os/kernel/include/chmtx.h"
 375              		.file 10 "../../../ChibiOS/os/kernel/include/chsys.h"