ARM GAS  C:\Users\DNIEL~1\AppData\Local\Temp\ccLvSf85.s 			page 1


   1              		.syntax unified
   2              		.cpu cortex-m4
   3              		.fpu softvfp
   4              		.eabi_attribute 20, 1
   5              		.eabi_attribute 21, 1
   6              		.eabi_attribute 23, 3
   7              		.eabi_attribute 24, 1
   8              		.eabi_attribute 25, 1
   9              		.eabi_attribute 26, 1
  10              		.eabi_attribute 30, 2
  11              		.eabi_attribute 18, 4
  12              		.thumb
  13              		.file	"chdynamic.c"
  20 0000 73020000 		.text
  20      0200EC01 
  20      00000201 
  20      FB0E0D00 
  20      01010101 
  21              	.Ltext0:
  22              		.cfi_sections	.debug_frame
  23              		.section	.text.chThdAddRef,"ax",%progbits
  24              		.align	2
  25              		.p2align 4,,15
  26              		.global	chThdAddRef
  27              		.thumb
  28              		.thumb_func
  29              		.type	chThdAddRef, %function
  30              	chThdAddRef:
  31              	.LFB7:
  32              		.file 1 "../../../ChibiOS/os/kernel/src/chdynamic.c"
  33              		.loc 1 45 0
  34              		.cfi_startproc
  35              		@ args = 0, pretend = 0, frame = 0
  36              		@ frame_needed = 0, uses_anonymous_args = 0
  37              		@ link register save eliminated.
  38              	.LVL0:
  39              	.LBB2:
  40              		.loc 1 47 0
  41 0000 2023     		movs	r3, #32
  42              	.LVL1:
  43              	@ 47 "../../../ChibiOS/os/kernel/src/chdynamic.c" 1
  44 0002 83F31188 		msr     BASEPRI, r3
  45              	@ 0 "" 2
  46              	.LVL2:
  47              		.thumb
  48              	.LBE2:
  49              		.loc 1 49 0
  50 0006 817F     		ldrb	r1, [r0, #30]	@ zero_extendqisi2
  51 0008 4B1C     		adds	r3, r1, #1
  52              	.LVL3:
  53 000a 8377     		strb	r3, [r0, #30]
ARM GAS  C:\Users\DNIEL~1\AppData\Local\Temp\ccLvSf85.s 			page 2


  54              	.LBB3:
  55              		.loc 1 50 0
  56 000c 0023     		movs	r3, #0
  57              	.LVL4:
  58              	@ 50 "../../../ChibiOS/os/kernel/src/chdynamic.c" 1
  59 000e 83F31188 		msr     BASEPRI, r3
  60              	@ 0 "" 2
  61              	.LVL5:
  62              		.thumb
  63              	.LBE3:
  64              		.loc 1 52 0
  65 0012 7047     		bx	lr
  66              		.cfi_endproc
  67              	.LFE7:
  68              		.size	chThdAddRef, .-chThdAddRef
  69 0014 AFF30080 		.section	.text.chThdRelease,"ax",%progbits
  69      AFF30080 
  69      AFF30080 
  70              		.align	2
  71              		.p2align 4,,15
  72              		.global	chThdRelease
  73              		.thumb
  74              		.thumb_func
  75              		.type	chThdRelease, %function
  76              	chThdRelease:
  77              	.LFB8:
  78              		.loc 1 67 0
  79              		.cfi_startproc
  80              		@ args = 0, pretend = 0, frame = 0
  81              		@ frame_needed = 0, uses_anonymous_args = 0
  82              		@ link register save eliminated.
  83              	.LVL6:
  84              		.loc 1 67 0
  85 0000 0146     		mov	r1, r0
  86              	.LBB4:
  87              		.loc 1 70 0
  88 0002 2023     		movs	r3, #32
  89              	.LVL7:
  90              	@ 70 "../../../ChibiOS/os/kernel/src/chdynamic.c" 1
  91 0004 83F31188 		msr     BASEPRI, r3
  92              	@ 0 "" 2
  93              	.LVL8:
  94              		.thumb
  95              	.LBE4:
  96              		.loc 1 72 0
  97 0008 827F     		ldrb	r2, [r0, #30]	@ zero_extendqisi2
  98 000a 531E     		subs	r3, r2, #1
  99              	.LVL9:
 100 000c DAB2     		uxtb	r2, r3
 101 000e 8277     		strb	r2, [r0, #30]
 102              	.LVL10:
 103              	.LBB5:
 104              		.loc 1 73 0
 105 0010 0023     		movs	r3, #0
 106              	.LVL11:
 107              	@ 73 "../../../ChibiOS/os/kernel/src/chdynamic.c" 1
 108 0012 83F31188 		msr     BASEPRI, r3
ARM GAS  C:\Users\DNIEL~1\AppData\Local\Temp\ccLvSf85.s 			page 3


 109              	@ 0 "" 2
 110              	.LVL12:
 111              		.thumb
 112              	.LBE5:
 113              		.loc 1 78 0
 114 0016 22B9     		cbnz	r2, .L2
 115              		.loc 1 78 0 is_stmt 0 discriminator 1
 116 0018 90F81CC0 		ldrb	ip, [r0, #28]	@ zero_extendqisi2
 117 001c BCF10E0F 		cmp	ip, #14
 118 0020 00D0     		beq	.L7
 119              	.L2:
 120 0022 7047     		bx	lr
 121              	.L7:
 122              		.loc 1 79 0 is_stmt 1
 123 0024 437F     		ldrb	r3, [r0, #29]	@ zero_extendqisi2
 124              	.LVL13:
 125 0026 03F00303 		and	r3, r3, #3
 126 002a 012B     		cmp	r3, #1
 127 002c 09D0     		beq	.L4
 128 002e 022B     		cmp	r3, #2
 129 0030 F7D1     		bne	.L2
 130              		.loc 1 91 0
 131 0032 4369     		ldr	r3, [r0, #20]
 132 0034 0269     		ldr	r2, [r0, #16]
 133              	.LVL14:
 134              		.loc 1 93 0
 135 0036 406C     		ldr	r0, [r0, #68]
 136              	.LVL15:
 137              		.loc 1 91 0
 138 0038 1A61     		str	r2, [r3, #16]
 139 003a 0A69     		ldr	r2, [r1, #16]
 140 003c 5361     		str	r3, [r2, #20]
 141              		.loc 1 98 0
 142              		.loc 1 93 0
 143 003e FFF7FEBF 		b	chPoolFree
 144              	.LVL16:
 145              	.L4:
 146              		.loc 1 83 0
 147 0042 4369     		ldr	r3, [r0, #20]
 148 0044 0269     		ldr	r2, [r0, #16]
 149              	.LVL17:
 150 0046 1A61     		str	r2, [r3, #16]
 151 0048 0169     		ldr	r1, [r0, #16]
 152 004a 4B61     		str	r3, [r1, #20]
 153              		.loc 1 98 0
 154              		.loc 1 85 0
 155 004c FFF7FEBF 		b	chHeapFree
 156              		.cfi_endproc
 157              	.LFE8:
 158              		.size	chThdRelease, .-chThdRelease
 159              		.section	.text.chThdCreateFromHeap,"ax",%progbits
 160              		.align	2
 161              		.p2align 4,,15
 162              		.global	chThdCreateFromHeap
 163              		.thumb
 164              		.thumb_func
 165              		.type	chThdCreateFromHeap, %function
ARM GAS  C:\Users\DNIEL~1\AppData\Local\Temp\ccLvSf85.s 			page 4


 166              	chThdCreateFromHeap:
 167              	.LFB9:
 168              		.loc 1 124 0
 169              		.cfi_startproc
 170              		@ args = 4, pretend = 0, frame = 0
 171              		@ frame_needed = 0, uses_anonymous_args = 0
 172              	.LVL18:
 173 0000 70B5     		push	{r4, r5, r6, lr}
 174              	.LCFI0:
 175              		.cfi_def_cfa_offset 16
 176 0002 82B0     		sub	sp, sp, #8
 177              	.LCFI1:
 178              		.cfi_def_cfa_offset 24
 179              		.loc 1 124 0
 180 0004 0C46     		mov	r4, r1
 181              		.cfi_offset 14, -4
 182              		.cfi_offset 6, -8
 183              		.cfi_offset 5, -12
 184              		.cfi_offset 4, -16
 185 0006 1546     		mov	r5, r2
 186 0008 1E46     		mov	r6, r3
 187              		.loc 1 128 0
 188 000a FFF7FEFF 		bl	chHeapAlloc
 189              	.LVL19:
 190              		.loc 1 129 0
 191 000e A8B1     		cbz	r0, .L10
 192              	.LBB6:
 193              		.loc 1 141 0
 194 0010 2023     		movs	r3, #32
 195              	.LVL20:
 196              	@ 141 "../../../ChibiOS/os/kernel/src/chdynamic.c" 1
 197 0012 83F31188 		msr     BASEPRI, r3
 198              	@ 0 "" 2
 199              	.LVL21:
 200              		.thumb
 201              	.LBE6:
 202              		.loc 1 142 0
 203 0016 2146     		mov	r1, r4
 204 0018 069C     		ldr	r4, [sp, #24]
 205              	.LVL22:
 206 001a 3346     		mov	r3, r6
 207              	.LVL23:
 208 001c 2A46     		mov	r2, r5
 209 001e 0094     		str	r4, [sp, #0]
 210 0020 FFF7FEFF 		bl	chThdCreateI
 211              	.LVL24:
 212              		.loc 1 143 0
 213 0024 0123     		movs	r3, #1
 214 0026 4377     		strb	r3, [r0, #29]
 215              		.loc 1 144 0
 216 0028 0021     		movs	r1, #0
 217              		.loc 1 142 0
 218 002a 0446     		mov	r4, r0
 219              	.LVL25:
 220              		.loc 1 144 0
 221 002c FFF7FEFF 		bl	chSchWakeupS
 222              	.LVL26:
ARM GAS  C:\Users\DNIEL~1\AppData\Local\Temp\ccLvSf85.s 			page 5


 223              	.LBB7:
 224              		.loc 1 145 0
 225 0030 0023     		movs	r3, #0
 226              	.LVL27:
 227              	@ 145 "../../../ChibiOS/os/kernel/src/chdynamic.c" 1
 228 0032 83F31188 		msr     BASEPRI, r3
 229              	@ 0 "" 2
 230              	.LVL28:
 231              		.thumb
 232              	.L9:
 233              	.LBE7:
 234              		.loc 1 147 0
 235 0036 2046     		mov	r0, r4
 236 0038 02B0     		add	sp, sp, #8
 237 003a 70BD     		pop	{r4, r5, r6, pc}
 238              	.LVL29:
 239              	.L10:
 240              		.loc 1 130 0
 241 003c 0446     		mov	r4, r0
 242              	.LVL30:
 243 003e FAE7     		b	.L9
 244              		.cfi_endproc
 245              	.LFE9:
 246              		.size	chThdCreateFromHeap, .-chThdCreateFromHeap
 247              		.section	.text.chThdCreateFromMemoryPool,"ax",%progbits
 248              		.align	2
 249              		.p2align 4,,15
 250              		.global	chThdCreateFromMemoryPool
 251              		.thumb
 252              		.thumb_func
 253              		.type	chThdCreateFromMemoryPool, %function
 254              	chThdCreateFromMemoryPool:
 255              	.LFB10:
 256              		.loc 1 173 0
 257              		.cfi_startproc
 258              		@ args = 0, pretend = 0, frame = 0
 259              		@ frame_needed = 0, uses_anonymous_args = 0
 260              	.LVL31:
 261 0000 F0B5     		push	{r4, r5, r6, r7, lr}
 262              	.LCFI2:
 263              		.cfi_def_cfa_offset 20
 264 0002 83B0     		sub	sp, sp, #12
 265              	.LCFI3:
 266              		.cfi_def_cfa_offset 32
 267              		.loc 1 173 0
 268 0004 0446     		mov	r4, r0
 269              		.cfi_offset 14, -4
 270              		.cfi_offset 7, -8
 271              		.cfi_offset 6, -12
 272              		.cfi_offset 5, -16
 273              		.cfi_offset 4, -20
 274 0006 0D46     		mov	r5, r1
 275 0008 1646     		mov	r6, r2
 276 000a 1F46     		mov	r7, r3
 277              		.loc 1 179 0
 278 000c FFF7FEFF 		bl	chPoolAlloc
 279              	.LVL32:
ARM GAS  C:\Users\DNIEL~1\AppData\Local\Temp\ccLvSf85.s 			page 6


 280              		.loc 1 180 0
 281 0010 A8B1     		cbz	r0, .L13
 282              	.LBB8:
 283              		.loc 1 192 0
 284 0012 2023     		movs	r3, #32
 285              	.LVL33:
 286              	@ 192 "../../../ChibiOS/os/kernel/src/chdynamic.c" 1
 287 0014 83F31188 		msr     BASEPRI, r3
 288              	@ 0 "" 2
 289              	.LVL34:
 290              		.thumb
 291              	.LBE8:
 292              		.loc 1 193 0
 293 0018 6168     		ldr	r1, [r4, #4]
 294 001a 0097     		str	r7, [sp, #0]
 295 001c 2A46     		mov	r2, r5
 296 001e 3346     		mov	r3, r6
 297              	.LVL35:
 298 0020 FFF7FEFF 		bl	chThdCreateI
 299              	.LVL36:
 300              		.loc 1 194 0
 301 0024 0223     		movs	r3, #2
 302 0026 4377     		strb	r3, [r0, #29]
 303              		.loc 1 195 0
 304 0028 4464     		str	r4, [r0, #68]
 305              		.loc 1 196 0
 306 002a 0021     		movs	r1, #0
 307              		.loc 1 193 0
 308 002c 0546     		mov	r5, r0
 309              	.LVL37:
 310              		.loc 1 196 0
 311 002e FFF7FEFF 		bl	chSchWakeupS
 312              	.LVL38:
 313              	.LBB9:
 314              		.loc 1 197 0
 315 0032 0023     		movs	r3, #0
 316              	.LVL39:
 317              	@ 197 "../../../ChibiOS/os/kernel/src/chdynamic.c" 1
 318 0034 83F31188 		msr     BASEPRI, r3
 319              	@ 0 "" 2
 320              	.LVL40:
 321              		.thumb
 322              	.L12:
 323              	.LBE9:
 324              		.loc 1 199 0
 325 0038 2846     		mov	r0, r5
 326 003a 03B0     		add	sp, sp, #12
 327 003c F0BD     		pop	{r4, r5, r6, r7, pc}
 328              	.LVL41:
 329              	.L13:
 330              		.loc 1 181 0
 331 003e 0546     		mov	r5, r0
 332              	.LVL42:
 333 0040 FAE7     		b	.L12
 334              		.cfi_endproc
 335              	.LFE10:
 336              		.size	chThdCreateFromMemoryPool, .-chThdCreateFromMemoryPool
ARM GAS  C:\Users\DNIEL~1\AppData\Local\Temp\ccLvSf85.s 			page 7


 337 0042 00BFAFF3 		.text
 337      0080AFF3 
 337      0080AFF3 
 337      0080
 338              	.Letext0: