ARM GAS  C:\Users\DNIEL~1\AppData\Local\Temp\ccnGeUnA.s 			page 1


   1              		.syntax unified
   2              		.cpu cortex-m4
   3              		.fpu softvfp
   4              		.eabi_attribute 20, 1
   5              		.eabi_attribute 21, 1
   6              		.eabi_attribute 23, 3
   7              		.eabi_attribute 24, 1
   8              		.eabi_attribute 25, 1
   9              		.eabi_attribute 26, 1
  10              		.eabi_attribute 30, 2
  11              		.eabi_attribute 34, 1
  12              		.eabi_attribute 18, 4
  13              		.thumb
  14              		.file	"chmempools.c"
  15              		.text
  16              	.Ltext0:
  17              		.cfi_sections	.debug_frame
  18              		.section	.text.chPoolInit,"ax",%progbits
  19              		.align	2
  20              		.p2align 4,,15
  21              		.global	chPoolInit
  22              		.thumb
  23              		.thumb_func
  24              		.type	chPoolInit, %function
  25              	chPoolInit:
  26              	.LFB7:
  27              		.file 1 "../../../ChibiOS/os/kernel/src/chmempools.c"
  28              		.loc 1 62 0
  29              		.cfi_startproc
  30              		@ args = 0, pretend = 0, frame = 0
  31              		@ frame_needed = 0, uses_anonymous_args = 0
  32              		@ link register save eliminated.
  33              	.LVL0:
  34              		.loc 1 66 0
  35 0000 0023     		movs	r3, #0
  36 0002 0360     		str	r3, [r0, #0]
  37              		.loc 1 67 0
  38 0004 4160     		str	r1, [r0, #4]
  39              		.loc 1 68 0
  40 0006 8260     		str	r2, [r0, #8]
  41 0008 7047     		bx	lr
  42              		.cfi_endproc
  43              	.LFE7:
  44              		.size	chPoolInit, .-chPoolInit
  45 000a 00BFAFF3 		.section	.text.chPoolLoadArray,"ax",%progbits
  45      0080
  46              		.align	2
  47              		.p2align 4,,15
  48              		.global	chPoolLoadArray
  49              		.thumb
  50              		.thumb_func
  51              		.type	chPoolLoadArray, %function
  52              	chPoolLoadArray:
  53              	.LFB8:
  54              		.loc 1 84 0
  55              		.cfi_startproc
  56              		@ args = 0, pretend = 0, frame = 0
ARM GAS  C:\Users\DNIEL~1\AppData\Local\Temp\ccnGeUnA.s 			page 2


  57              		@ frame_needed = 0, uses_anonymous_args = 0
  58              		@ link register save eliminated.
  59              	.LVL1:
  60 0000 70B4     		push	{r4, r5, r6}
  61              	.LCFI0:
  62              		.cfi_def_cfa_offset 12
  63              		.cfi_offset 4, -12
  64              		.cfi_offset 5, -8
  65              		.cfi_offset 6, -4
  66              		.loc 1 88 0
  67 0002 002A     		cmp	r2, #0
  68 0004 36D0     		beq	.L2
  69 0006 013A     		subs	r2, r2, #1
  70              	.LVL2:
  71 0008 02F00105 		and	r5, r2, #1
  72              	.LVL3:
  73              	.LBB16:
  74              	.LBB17:
  75              		.loc 1 173 0
  76 000c 2023     		movs	r3, #32
  77              	.LVL4:
  78              	@ 173 "../../../ChibiOS/os/kernel/src/chmempools.c" 1
  79 000e 83F31188 		msr     BASEPRI, r3
  80              	@ 0 "" 2
  81              	.LVL5:
  82              		.thumb
  83              	.LBE17:
  84              	.LBB18:
  85              	.LBB19:
  86              		.loc 1 155 0
  87 0012 0468     		ldr	r4, [r0, #0]
  88              	.LBE19:
  89              	.LBE18:
  90              	.LBB27:
  91              		.loc 1 175 0
  92 0014 0023     		movs	r3, #0
  93              	.LVL6:
  94              	.LBE27:
  95              	.LBB28:
  96              	.LBB20:
  97              		.loc 1 155 0
  98 0016 0C60     		str	r4, [r1, #0]
  99              		.loc 1 156 0
 100 0018 0160     		str	r1, [r0, #0]
 101              	.LBE20:
 102              	.LBE28:
 103              	.LBB29:
 104              		.loc 1 175 0
 105              	@ 175 "../../../ChibiOS/os/kernel/src/chmempools.c" 1
 106 001a 83F31188 		msr     BASEPRI, r3
 107              	@ 0 "" 2
 108              	.LVL7:
 109              		.thumb
 110              	.LBE29:
 111              	.LBE16:
 112              		.loc 1 90 0
 113 001e 4368     		ldr	r3, [r0, #4]
ARM GAS  C:\Users\DNIEL~1\AppData\Local\Temp\ccnGeUnA.s 			page 3


 114              	.LVL8:
 115 0020 C918     		adds	r1, r1, r3
 116              	.LVL9:
 117              		.loc 1 88 0
 118 0022 3AB3     		cbz	r2, .L2
 119 0024 65B1     		cbz	r5, .L6
 120              	.LVL10:
 121              	.LBB45:
 122              	.LBB30:
 123              		.loc 1 173 0
 124 0026 2023     		movs	r3, #32
 125              	@ 173 "../../../ChibiOS/os/kernel/src/chmempools.c" 1
 126 0028 83F31188 		msr     BASEPRI, r3
 127              	@ 0 "" 2
 128              	.LVL11:
 129              		.thumb
 130              	.LBE30:
 131              	.LBB31:
 132              	.LBB21:
 133              		.loc 1 155 0
 134 002c 0468     		ldr	r4, [r0, #0]
 135              	.LBE21:
 136              	.LBE31:
 137              	.LBB32:
 138              		.loc 1 175 0
 139 002e 0023     		movs	r3, #0
 140              	.LVL12:
 141              	.LBE32:
 142              	.LBB33:
 143              	.LBB22:
 144              		.loc 1 155 0
 145 0030 0C60     		str	r4, [r1, #0]
 146              		.loc 1 156 0
 147 0032 0160     		str	r1, [r0, #0]
 148              	.LBE22:
 149              	.LBE33:
 150              	.LBB34:
 151              		.loc 1 175 0
 152              	@ 175 "../../../ChibiOS/os/kernel/src/chmempools.c" 1
 153 0034 83F31188 		msr     BASEPRI, r3
 154              	@ 0 "" 2
 155              	.LVL13:
 156              		.thumb
 157              	.LBE34:
 158              	.LBE45:
 159              		.loc 1 90 0
 160 0038 4368     		ldr	r3, [r0, #4]
 161              	.LVL14:
 162              		.loc 1 88 0
 163 003a 013A     		subs	r2, r2, #1
 164              	.LVL15:
 165              		.loc 1 90 0
 166 003c 1944     		add	r1, r1, r3
 167              	.LVL16:
 168              		.loc 1 88 0
 169 003e 19D0     		beq	.L2
 170              	.L6:
ARM GAS  C:\Users\DNIEL~1\AppData\Local\Temp\ccnGeUnA.s 			page 4


 171              	.LBB46:
 172              	.LBB35:
 173              		.loc 1 173 0
 174 0040 2023     		movs	r3, #32
 175              	@ 173 "../../../ChibiOS/os/kernel/src/chmempools.c" 1
 176 0042 83F31188 		msr     BASEPRI, r3
 177              	@ 0 "" 2
 178              	.LVL17:
 179              		.thumb
 180              	.LBE35:
 181              	.LBB36:
 182              	.LBB23:
 183              		.loc 1 155 0
 184 0046 0468     		ldr	r4, [r0, #0]
 185              	.LBE23:
 186              	.LBE36:
 187              	.LBB37:
 188              		.loc 1 175 0
 189 0048 0023     		movs	r3, #0
 190              	.LVL18:
 191              	.LBE37:
 192              	.LBB38:
 193              	.LBB24:
 194              		.loc 1 155 0
 195 004a 0C60     		str	r4, [r1, #0]
 196              		.loc 1 156 0
 197 004c 0160     		str	r1, [r0, #0]
 198              	.LBE24:
 199              	.LBE38:
 200              	.LBB39:
 201              		.loc 1 175 0
 202              	@ 175 "../../../ChibiOS/os/kernel/src/chmempools.c" 1
 203 004e 83F31188 		msr     BASEPRI, r3
 204              	@ 0 "" 2
 205              	.LVL19:
 206              		.thumb
 207              	.LBE39:
 208              	.LBE46:
 209              		.loc 1 90 0
 210 0052 4568     		ldr	r5, [r0, #4]
 211              		.loc 1 91 0
 212 0054 013A     		subs	r2, r2, #1
 213              		.loc 1 90 0
 214 0056 4C19     		adds	r4, r1, r5
 215              	.LBB47:
 216              	.LBB40:
 217              		.loc 1 173 0
 218 0058 2023     		movs	r3, #32
 219              	.LVL20:
 220              	@ 173 "../../../ChibiOS/os/kernel/src/chmempools.c" 1
 221 005a 83F31188 		msr     BASEPRI, r3
 222              	@ 0 "" 2
 223              	.LVL21:
 224              		.thumb
 225              	.LBE40:
 226              	.LBB41:
 227              	.LBB25:
ARM GAS  C:\Users\DNIEL~1\AppData\Local\Temp\ccnGeUnA.s 			page 5


 228              		.loc 1 155 0
 229 005e 0668     		ldr	r6, [r0, #0]
 230              	.LBE25:
 231              	.LBE41:
 232              	.LBB42:
 233              		.loc 1 175 0
 234 0060 0023     		movs	r3, #0
 235              	.LVL22:
 236              	.LBE42:
 237              	.LBB43:
 238              	.LBB26:
 239              		.loc 1 155 0
 240 0062 4E51     		str	r6, [r1, r5]
 241              		.loc 1 156 0
 242 0064 0460     		str	r4, [r0, #0]
 243              	.LBE26:
 244              	.LBE43:
 245              	.LBB44:
 246              		.loc 1 175 0
 247              	@ 175 "../../../ChibiOS/os/kernel/src/chmempools.c" 1
 248 0066 83F31188 		msr     BASEPRI, r3
 249              	@ 0 "" 2
 250              	.LVL23:
 251              		.thumb
 252              	.LBE44:
 253              	.LBE47:
 254              		.loc 1 90 0
 255 006a 4368     		ldr	r3, [r0, #4]
 256              	.LVL24:
 257              		.loc 1 88 0
 258 006c 013A     		subs	r2, r2, #1
 259              		.loc 1 90 0
 260 006e 04EB0301 		add	r1, r4, r3
 261              		.loc 1 88 0
 262 0072 E5D1     		bne	.L6
 263              	.LVL25:
 264              	.L2:
 265              		.loc 1 93 0
 266 0074 70BC     		pop	{r4, r5, r6}
 267 0076 7047     		bx	lr
 268              		.cfi_endproc
 269              	.LFE8:
 270              		.size	chPoolLoadArray, .-chPoolLoadArray
 271 0078 AFF30080 		.section	.text.chPoolAllocI,"ax",%progbits
 271      AFF30080 
 272              		.align	2
 273              		.p2align 4,,15
 274              		.global	chPoolAllocI
 275              		.thumb
 276              		.thumb_func
 277              		.type	chPoolAllocI, %function
 278              	chPoolAllocI:
 279              	.LFB9:
 280              		.loc 1 105 0
 281              		.cfi_startproc
 282              		@ args = 0, pretend = 0, frame = 0
 283              		@ frame_needed = 0, uses_anonymous_args = 0
ARM GAS  C:\Users\DNIEL~1\AppData\Local\Temp\ccnGeUnA.s 			page 6


 284              	.LVL26:
 285 0000 08B5     		push	{r3, lr}
 286              	.LCFI1:
 287              		.cfi_def_cfa_offset 8
 288              		.cfi_offset 3, -8
 289              		.cfi_offset 14, -4
 290              		.loc 1 105 0
 291 0002 0346     		mov	r3, r0
 292              		.loc 1 111 0
 293 0004 0068     		ldr	r0, [r0, #0]
 294              	.LVL27:
 295 0006 10B1     		cbz	r0, .L16
 296              		.loc 1 112 0
 297 0008 0168     		ldr	r1, [r0, #0]
 298 000a 1960     		str	r1, [r3, #0]
 299 000c 08BD     		pop	{r3, pc}
 300              	.L16:
 301              		.loc 1 113 0
 302 000e 9A68     		ldr	r2, [r3, #8]
 303 0010 0AB1     		cbz	r2, .L17
 304              		.loc 1 114 0
 305 0012 5868     		ldr	r0, [r3, #4]
 306              	.LVL28:
 307 0014 9047     		blx	r2
 308              	.LVL29:
 309              	.L17:
 310              		.loc 1 116 0
 311 0016 08BD     		pop	{r3, pc}
 312              		.cfi_endproc
 313              	.LFE9:
 314              		.size	chPoolAllocI, .-chPoolAllocI
 315 0018 AFF30080 		.section	.text.chPoolAlloc,"ax",%progbits
 315      AFF30080 
 316              		.align	2
 317              		.p2align 4,,15
 318              		.global	chPoolAlloc
 319              		.thumb
 320              		.thumb_func
 321              		.type	chPoolAlloc, %function
 322              	chPoolAlloc:
 323              	.LFB10:
 324              		.loc 1 128 0
 325              		.cfi_startproc
 326              		@ args = 0, pretend = 0, frame = 0
 327              		@ frame_needed = 0, uses_anonymous_args = 0
 328              	.LVL30:
 329 0000 08B5     		push	{r3, lr}
 330              	.LCFI2:
 331              		.cfi_def_cfa_offset 8
 332              		.cfi_offset 3, -8
 333              		.cfi_offset 14, -4
 334              		.loc 1 128 0
 335 0002 0246     		mov	r2, r0
 336              	.LBB48:
 337              		.loc 1 131 0
 338 0004 2023     		movs	r3, #32
 339              	.LVL31:
ARM GAS  C:\Users\DNIEL~1\AppData\Local\Temp\ccnGeUnA.s 			page 7


 340              	@ 131 "../../../ChibiOS/os/kernel/src/chmempools.c" 1
 341 0006 83F31188 		msr     BASEPRI, r3
 342              	@ 0 "" 2
 343              	.LVL32:
 344              		.thumb
 345              	.LBE48:
 346              	.LBB49:
 347              	.LBB50:
 348              		.loc 1 111 0
 349 000a 0068     		ldr	r0, [r0, #0]
 350              	.LVL33:
 351 000c 28B1     		cbz	r0, .L22
 352              		.loc 1 112 0
 353 000e 0168     		ldr	r1, [r0, #0]
 354 0010 1160     		str	r1, [r2, #0]
 355              	.LVL34:
 356              	.L23:
 357              	.LBE50:
 358              	.LBE49:
 359              	.LBB52:
 360              		.loc 1 133 0
 361 0012 0023     		movs	r3, #0
 362              	.LVL35:
 363              	@ 133 "../../../ChibiOS/os/kernel/src/chmempools.c" 1
 364 0014 83F31188 		msr     BASEPRI, r3
 365              	@ 0 "" 2
 366              	.LVL36:
 367              		.thumb
 368              	.LBE52:
 369              		.loc 1 135 0
 370 0018 08BD     		pop	{r3, pc}
 371              	.LVL37:
 372              	.L22:
 373              	.LBB53:
 374              	.LBB51:
 375              		.loc 1 113 0
 376 001a 9368     		ldr	r3, [r2, #8]
 377              	.LVL38:
 378 001c 002B     		cmp	r3, #0
 379 001e F8D0     		beq	.L23
 380              		.loc 1 114 0
 381 0020 5068     		ldr	r0, [r2, #4]
 382              	.LVL39:
 383 0022 9847     		blx	r3
 384              	.LVL40:
 385 0024 F5E7     		b	.L23
 386              	.LBE51:
 387              	.LBE53:
 388              		.cfi_endproc
 389              	.LFE10:
 390              		.size	chPoolAlloc, .-chPoolAlloc
 391 0026 00BFAFF3 		.section	.text.chPoolFreeI,"ax",%progbits
 391      0080AFF3 
 391      0080
 392              		.align	2
 393              		.p2align 4,,15
 394              		.global	chPoolFreeI
ARM GAS  C:\Users\DNIEL~1\AppData\Local\Temp\ccnGeUnA.s 			page 8


 395              		.thumb
 396              		.thumb_func
 397              		.type	chPoolFreeI, %function
 398              	chPoolFreeI:
 399              	.LFB11:
 400              		.loc 1 149 0
 401              		.cfi_startproc
 402              		@ args = 0, pretend = 0, frame = 0
 403              		@ frame_needed = 0, uses_anonymous_args = 0
 404              		@ link register save eliminated.
 405              	.LVL41:
 406              		.loc 1 155 0
 407 0000 0368     		ldr	r3, [r0, #0]
 408 0002 0B60     		str	r3, [r1, #0]
 409              		.loc 1 156 0
 410 0004 0160     		str	r1, [r0, #0]
 411 0006 7047     		bx	lr
 412              		.cfi_endproc
 413              	.LFE11:
 414              		.size	chPoolFreeI, .-chPoolFreeI
 415 0008 AFF30080 		.section	.text.chPoolFree,"ax",%progbits
 415      AFF30080 
 416              		.align	2
 417              		.p2align 4,,15
 418              		.global	chPoolFree
 419              		.thumb
 420              		.thumb_func
 421              		.type	chPoolFree, %function
 422              	chPoolFree:
 423              	.LFB12:
 424              		.loc 1 171 0
 425              		.cfi_startproc
 426              		@ args = 0, pretend = 0, frame = 0
 427              		@ frame_needed = 0, uses_anonymous_args = 0
 428              		@ link register save eliminated.
 429              	.LVL42:
 430              	.LBB54:
 431              		.loc 1 173 0
 432 0000 2023     		movs	r3, #32
 433              	.LVL43:
 434              	@ 173 "../../../ChibiOS/os/kernel/src/chmempools.c" 1
 435 0002 83F31188 		msr     BASEPRI, r3
 436              	@ 0 "" 2
 437              	.LVL44:
 438              		.thumb
 439              	.LBE54:
 440              	.LBB55:
 441              	.LBB56:
 442              		.loc 1 155 0
 443 0006 0268     		ldr	r2, [r0, #0]
 444              	.LBE56:
 445              	.LBE55:
 446              	.LBB58:
 447              		.loc 1 175 0
 448 0008 0023     		movs	r3, #0
 449              	.LVL45:
 450              	.LBE58:
ARM GAS  C:\Users\DNIEL~1\AppData\Local\Temp\ccnGeUnA.s 			page 9


 451              	.LBB59:
 452              	.LBB57:
 453              		.loc 1 155 0
 454 000a 0A60     		str	r2, [r1, #0]
 455              		.loc 1 156 0
 456 000c 0160     		str	r1, [r0, #0]
 457              	.LBE57:
 458              	.LBE59:
 459              	.LBB60:
 460              		.loc 1 175 0
 461              	@ 175 "../../../ChibiOS/os/kernel/src/chmempools.c" 1
 462 000e 83F31188 		msr     BASEPRI, r3
 463              	@ 0 "" 2
 464              	.LVL46:
 465              		.thumb
 466 0012 7047     		bx	lr
 467              	.LBE60:
 468              		.cfi_endproc
 469              	.LFE12:
 470              		.size	chPoolFree, .-chPoolFree
 471 0014 AFF30080 		.text
 471      AFF30080 
 471      AFF30080 
 472              	.Letext0:
 473              		.file 2 "c:\\chibistudio\\tools\\gnu tools arm embedded\\4.7 2014q2\\bin\\../lib/gcc/arm-none-eabi
 474              		.file 3 "c:\\chibistudio\\tools\\gnu tools arm embedded\\4.7 2014q2\\bin\\../lib/gcc/arm-none-eabi
 475              		.file 4 "../../../ChibiOS/os/kernel/include/chmemcore.h"
 476              		.file 5 "../../../ChibiOS/os/kernel/include/chmempools.h"