ARM GAS  C:\Users\DNIEL~1\AppData\Local\Temp\ccMEaWPX.s 			page 1


   1              		.syntax unified
   2              		.cpu cortex-m4
   3              		.fpu softvfp
   4              		.eabi_attribute 20, 1
   5              		.eabi_attribute 21, 1
   6              		.eabi_attribute 23, 3
   7              		.eabi_attribute 24, 1
   8              		.eabi_attribute 25, 1
   9              		.eabi_attribute 26, 1
  10              		.eabi_attribute 30, 2
  11              		.eabi_attribute 34, 1
  12              		.eabi_attribute 18, 4
  13              		.thumb
  14              		.file	"chmempools.c"
  15              		.text
  16              	.Ltext0:
  17              		.cfi_sections	.debug_frame
  18              		.section	.text.chPoolInit,"ax",%progbits
  19              		.align	2
  20              		.p2align 4,,15
  21              		.global	chPoolInit
  22              		.thumb
  23              		.thumb_func
  24              		.type	chPoolInit, %function
  25              	chPoolInit:
  26              	.LFB7:
  27              		.file 1 "../../../ChibiOS/os/kernel/src/chmempools.c"
  28              		.loc 1 57 0
  29              		.cfi_startproc
  30              		@ args = 0, pretend = 0, frame = 0
  31              		@ frame_needed = 0, uses_anonymous_args = 0
  32              		@ link register save eliminated.
  33              	.LVL0:
  34              		.loc 1 61 0
  35 0000 0023     		movs	r3, #0
  36 0002 0360     		str	r3, [r0, #0]
  37              		.loc 1 62 0
  38 0004 4160     		str	r1, [r0, #4]
  39              		.loc 1 63 0
  40 0006 8260     		str	r2, [r0, #8]
  41 0008 7047     		bx	lr
  42              		.cfi_endproc
  43              	.LFE7:
  44              		.size	chPoolInit, .-chPoolInit
  45 000a 00BFAFF3 		.section	.text.chPoolLoadArray,"ax",%progbits
  45      0080
  46              		.align	2
  47              		.p2align 4,,15
  48              		.global	chPoolLoadArray
  49              		.thumb
  50              		.thumb_func
  51              		.type	chPoolLoadArray, %function
  52              	chPoolLoadArray:
  53              	.LFB8:
  54              		.loc 1 79 0
  55              		.cfi_startproc
  56              		@ args = 0, pretend = 0, frame = 0
ARM GAS  C:\Users\DNIEL~1\AppData\Local\Temp\ccMEaWPX.s 			page 2


  57              		@ frame_needed = 0, uses_anonymous_args = 0
  58              		@ link register save eliminated.
  59              	.LVL1:
  60 0000 70B4     		push	{r4, r5, r6}
  61              	.LCFI0:
  62              		.cfi_def_cfa_offset 12
  63              		.cfi_offset 4, -12
  64              		.cfi_offset 5, -8
  65              		.cfi_offset 6, -4
  66              		.loc 1 83 0
  67 0002 002A     		cmp	r2, #0
  68 0004 36D0     		beq	.L2
  69 0006 013A     		subs	r2, r2, #1
  70              	.LVL2:
  71 0008 02F00105 		and	r5, r2, #1
  72              	.LVL3:
  73              	.LBB16:
  74              	.LBB17:
  75              		.loc 1 168 0
  76 000c 2023     		movs	r3, #32
  77              	.LVL4:
  78              	@ 168 "../../../ChibiOS/os/kernel/src/chmempools.c" 1
  79 000e 83F31188 		msr     BASEPRI, r3
  80              	@ 0 "" 2
  81              	.LVL5:
  82              		.thumb
  83              	.LBE17:
  84              	.LBB18:
  85              	.LBB19:
  86              		.loc 1 150 0
  87 0012 0468     		ldr	r4, [r0, #0]
  88              	.LBE19:
  89              	.LBE18:
  90              	.LBB27:
  91              		.loc 1 170 0
  92 0014 0023     		movs	r3, #0
  93              	.LVL6:
  94              	.LBE27:
  95              	.LBB28:
  96              	.LBB20:
  97              		.loc 1 150 0
  98 0016 0C60     		str	r4, [r1, #0]
  99              		.loc 1 151 0
 100 0018 0160     		str	r1, [r0, #0]
 101              	.LBE20:
 102              	.LBE28:
 103              	.LBB29:
 104              		.loc 1 170 0
 105              	@ 170 "../../../ChibiOS/os/kernel/src/chmempools.c" 1
 106 001a 83F31188 		msr     BASEPRI, r3
 107              	@ 0 "" 2
 108              	.LVL7:
 109              		.thumb
 110              	.LBE29:
 111              	.LBE16:
 112              		.loc 1 85 0
 113 001e 4368     		ldr	r3, [r0, #4]
ARM GAS  C:\Users\DNIEL~1\AppData\Local\Temp\ccMEaWPX.s 			page 3


 114              	.LVL8:
 115 0020 C918     		adds	r1, r1, r3
 116              	.LVL9:
 117              		.loc 1 83 0
 118 0022 3AB3     		cbz	r2, .L2
 119 0024 65B1     		cbz	r5, .L6
 120              	.LVL10:
 121              	.LBB45:
 122              	.LBB30:
 123              		.loc 1 168 0
 124 0026 2023     		movs	r3, #32
 125              	@ 168 "../../../ChibiOS/os/kernel/src/chmempools.c" 1
 126 0028 83F31188 		msr     BASEPRI, r3
 127              	@ 0 "" 2
 128              	.LVL11:
 129              		.thumb
 130              	.LBE30:
 131              	.LBB31:
 132              	.LBB21:
 133              		.loc 1 150 0
 134 002c 0468     		ldr	r4, [r0, #0]
 135              	.LBE21:
 136              	.LBE31:
 137              	.LBB32:
 138              		.loc 1 170 0
 139 002e 0023     		movs	r3, #0
 140              	.LVL12:
 141              	.LBE32:
 142              	.LBB33:
 143              	.LBB22:
 144              		.loc 1 150 0
 145 0030 0C60     		str	r4, [r1, #0]
 146              		.loc 1 151 0
 147 0032 0160     		str	r1, [r0, #0]
 148              	.LBE22:
 149              	.LBE33:
 150              	.LBB34:
 151              		.loc 1 170 0
 152              	@ 170 "../../../ChibiOS/os/kernel/src/chmempools.c" 1
 153 0034 83F31188 		msr     BASEPRI, r3
 154              	@ 0 "" 2
 155              	.LVL13:
 156              		.thumb
 157              	.LBE34:
 158              	.LBE45:
 159              		.loc 1 85 0
 160 0038 4368     		ldr	r3, [r0, #4]
 161              	.LVL14:
 162              		.loc 1 83 0
 163 003a 013A     		subs	r2, r2, #1
 164              	.LVL15:
 165              		.loc 1 85 0
 166 003c 1944     		add	r1, r1, r3
 167              	.LVL16:
 168              		.loc 1 83 0
 169 003e 19D0     		beq	.L2
 170              	.L6:
ARM GAS  C:\Users\DNIEL~1\AppData\Local\Temp\ccMEaWPX.s 			page 4


 171              	.LBB46:
 172              	.LBB35:
 173              		.loc 1 168 0
 174 0040 2023     		movs	r3, #32
 175              	@ 168 "../../../ChibiOS/os/kernel/src/chmempools.c" 1
 176 0042 83F31188 		msr     BASEPRI, r3
 177              	@ 0 "" 2
 178              	.LVL17:
 179              		.thumb
 180              	.LBE35:
 181              	.LBB36:
 182              	.LBB23:
 183              		.loc 1 150 0
 184 0046 0468     		ldr	r4, [r0, #0]
 185              	.LBE23:
 186              	.LBE36:
 187              	.LBB37:
 188              		.loc 1 170 0
 189 0048 0023     		movs	r3, #0
 190              	.LVL18:
 191              	.LBE37:
 192              	.LBB38:
 193              	.LBB24:
 194              		.loc 1 150 0
 195 004a 0C60     		str	r4, [r1, #0]
 196              		.loc 1 151 0
 197 004c 0160     		str	r1, [r0, #0]
 198              	.LBE24:
 199              	.LBE38:
 200              	.LBB39:
 201              		.loc 1 170 0
 202              	@ 170 "../../../ChibiOS/os/kernel/src/chmempools.c" 1
 203 004e 83F31188 		msr     BASEPRI, r3
 204              	@ 0 "" 2
 205              	.LVL19:
 206              		.thumb
 207              	.LBE39:
 208              	.LBE46:
 209              		.loc 1 85 0
 210 0052 4568     		ldr	r5, [r0, #4]
 211              		.loc 1 86 0
 212 0054 013A     		subs	r2, r2, #1
 213              		.loc 1 85 0
 214 0056 4C19     		adds	r4, r1, r5
 215              	.LBB47:
 216              	.LBB40:
 217              		.loc 1 168 0
 218 0058 2023     		movs	r3, #32
 219              	.LVL20:
 220              	@ 168 "../../../ChibiOS/os/kernel/src/chmempools.c" 1
 221 005a 83F31188 		msr     BASEPRI, r3
 222              	@ 0 "" 2
 223              	.LVL21:
 224              		.thumb
 225              	.LBE40:
 226              	.LBB41:
 227              	.LBB25:
ARM GAS  C:\Users\DNIEL~1\AppData\Local\Temp\ccMEaWPX.s 			page 5


 228              		.loc 1 150 0
 229 005e 0668     		ldr	r6, [r0, #0]
 230              	.LBE25:
 231              	.LBE41:
 232              	.LBB42:
 233              		.loc 1 170 0
 234 0060 0023     		movs	r3, #0
 235              	.LVL22:
 236              	.LBE42:
 237              	.LBB43:
 238              	.LBB26:
 239              		.loc 1 150 0
 240 0062 4E51     		str	r6, [r1, r5]
 241              		.loc 1 151 0
 242 0064 0460     		str	r4, [r0, #0]
 243              	.LBE26:
 244              	.LBE43:
 245              	.LBB44:
 246              		.loc 1 170 0
 247              	@ 170 "../../../ChibiOS/os/kernel/src/chmempools.c" 1
 248 0066 83F31188 		msr     BASEPRI, r3
 249              	@ 0 "" 2
 250              	.LVL23:
 251              		.thumb
 252              	.LBE44:
 253              	.LBE47:
 254              		.loc 1 85 0
 255 006a 4368     		ldr	r3, [r0, #4]
 256              	.LVL24:
 257              		.loc 1 83 0
 258 006c 013A     		subs	r2, r2, #1
 259              		.loc 1 85 0
 260 006e 04EB0301 		add	r1, r4, r3
 261              		.loc 1 83 0
 262 0072 E5D1     		bne	.L6
 263              	.LVL25:
 264              	.L2:
 265              		.loc 1 88 0
 266 0074 70BC     		pop	{r4, r5, r6}
 267 0076 7047     		bx	lr
 268              		.cfi_endproc
 269              	.LFE8:
 270              		.size	chPoolLoadArray, .-chPoolLoadArray
 271 0078 AFF30080 		.section	.text.chPoolAllocI,"ax",%progbits
 271      AFF30080 
 272              		.align	2
 273              		.p2align 4,,15
 274              		.global	chPoolAllocI
 275              		.thumb
 276              		.thumb_func
 277              		.type	chPoolAllocI, %function
 278              	chPoolAllocI:
 279              	.LFB9:
 280              		.loc 1 100 0
 281              		.cfi_startproc
 282              		@ args = 0, pretend = 0, frame = 0
 283              		@ frame_needed = 0, uses_anonymous_args = 0
ARM GAS  C:\Users\DNIEL~1\AppData\Local\Temp\ccMEaWPX.s 			page 6


 284              	.LVL26:
 285 0000 08B5     		push	{r3, lr}
 286              	.LCFI1:
 287              		.cfi_def_cfa_offset 8
 288              		.cfi_offset 3, -8
 289              		.cfi_offset 14, -4
 290              		.loc 1 100 0
 291 0002 0346     		mov	r3, r0
 292              		.loc 1 106 0
 293 0004 0068     		ldr	r0, [r0, #0]
 294              	.LVL27:
 295 0006 10B1     		cbz	r0, .L16
 296              		.loc 1 107 0
 297 0008 0168     		ldr	r1, [r0, #0]
 298 000a 1960     		str	r1, [r3, #0]
 299 000c 08BD     		pop	{r3, pc}
 300              	.L16:
 301              		.loc 1 108 0
 302 000e 9A68     		ldr	r2, [r3, #8]
 303 0010 0AB1     		cbz	r2, .L17
 304              		.loc 1 109 0
 305 0012 5868     		ldr	r0, [r3, #4]
 306              	.LVL28:
 307 0014 9047     		blx	r2
 308              	.LVL29:
 309              	.L17:
 310              		.loc 1 111 0
 311 0016 08BD     		pop	{r3, pc}
 312              		.cfi_endproc
 313              	.LFE9:
 314              		.size	chPoolAllocI, .-chPoolAllocI
 315 0018 AFF30080 		.section	.text.chPoolAlloc,"ax",%progbits
 315      AFF30080 
 316              		.align	2
 317              		.p2align 4,,15
 318              		.global	chPoolAlloc
 319              		.thumb
 320              		.thumb_func
 321              		.type	chPoolAlloc, %function
 322              	chPoolAlloc:
 323              	.LFB10:
 324              		.loc 1 123 0
 325              		.cfi_startproc
 326              		@ args = 0, pretend = 0, frame = 0
 327              		@ frame_needed = 0, uses_anonymous_args = 0
 328              	.LVL30:
 329 0000 08B5     		push	{r3, lr}
 330              	.LCFI2:
 331              		.cfi_def_cfa_offset 8
 332              		.cfi_offset 3, -8
 333              		.cfi_offset 14, -4
 334              		.loc 1 123 0
 335 0002 0246     		mov	r2, r0
 336              	.LBB48:
 337              		.loc 1 126 0
 338 0004 2023     		movs	r3, #32
 339              	.LVL31:
ARM GAS  C:\Users\DNIEL~1\AppData\Local\Temp\ccMEaWPX.s 			page 7


 340              	@ 126 "../../../ChibiOS/os/kernel/src/chmempools.c" 1
 341 0006 83F31188 		msr     BASEPRI, r3
 342              	@ 0 "" 2
 343              	.LVL32:
 344              		.thumb
 345              	.LBE48:
 346              	.LBB49:
 347              	.LBB50:
 348              		.loc 1 106 0
 349 000a 0068     		ldr	r0, [r0, #0]
 350              	.LVL33:
 351 000c 28B1     		cbz	r0, .L22
 352              		.loc 1 107 0
 353 000e 0168     		ldr	r1, [r0, #0]
 354 0010 1160     		str	r1, [r2, #0]
 355              	.LVL34:
 356              	.L23:
 357              	.LBE50:
 358              	.LBE49:
 359              	.LBB52:
 360              		.loc 1 128 0
 361 0012 0023     		movs	r3, #0
 362              	.LVL35:
 363              	@ 128 "../../../ChibiOS/os/kernel/src/chmempools.c" 1
 364 0014 83F31188 		msr     BASEPRI, r3
 365              	@ 0 "" 2
 366              	.LVL36:
 367              		.thumb
 368              	.LBE52:
 369              		.loc 1 130 0
 370 0018 08BD     		pop	{r3, pc}
 371              	.LVL37:
 372              	.L22:
 373              	.LBB53:
 374              	.LBB51:
 375              		.loc 1 108 0
 376 001a 9368     		ldr	r3, [r2, #8]
 377              	.LVL38:
 378 001c 002B     		cmp	r3, #0
 379 001e F8D0     		beq	.L23
 380              		.loc 1 109 0
 381 0020 5068     		ldr	r0, [r2, #4]
 382              	.LVL39:
 383 0022 9847     		blx	r3
 384              	.LVL40:
 385 0024 F5E7     		b	.L23
 386              	.LBE51:
 387              	.LBE53:
 388              		.cfi_endproc
 389              	.LFE10:
 390              		.size	chPoolAlloc, .-chPoolAlloc
 391 0026 00BFAFF3 		.section	.text.chPoolFreeI,"ax",%progbits
 391      0080AFF3 
 391      0080
 392              		.align	2
 393              		.p2align 4,,15
 394              		.global	chPoolFreeI
ARM GAS  C:\Users\DNIEL~1\AppData\Local\Temp\ccMEaWPX.s 			page 8


 395              		.thumb
 396              		.thumb_func
 397              		.type	chPoolFreeI, %function
 398              	chPoolFreeI:
 399              	.LFB11:
 400              		.loc 1 144 0
 401              		.cfi_startproc
 402              		@ args = 0, pretend = 0, frame = 0
 403              		@ frame_needed = 0, uses_anonymous_args = 0
 404              		@ link register save eliminated.
 405              	.LVL41:
 406              		.loc 1 150 0
 407 0000 0368     		ldr	r3, [r0, #0]
 408 0002 0B60     		str	r3, [r1, #0]
 409              		.loc 1 151 0
 410 0004 0160     		str	r1, [r0, #0]
 411 0006 7047     		bx	lr
 412              		.cfi_endproc
 413              	.LFE11:
 414              		.size	chPoolFreeI, .-chPoolFreeI
 415 0008 AFF30080 		.section	.text.chPoolFree,"ax",%progbits
 415      AFF30080 
 416              		.align	2
 417              		.p2align 4,,15
 418              		.global	chPoolFree
 419              		.thumb
 420              		.thumb_func
 421              		.type	chPoolFree, %function
 422              	chPoolFree:
 423              	.LFB12:
 424              		.loc 1 166 0
 425              		.cfi_startproc
 426              		@ args = 0, pretend = 0, frame = 0
 427              		@ frame_needed = 0, uses_anonymous_args = 0
 428              		@ link register save eliminated.
 429              	.LVL42:
 430              	.LBB54:
 431              		.loc 1 168 0
 432 0000 2023     		movs	r3, #32
 433              	.LVL43:
 434              	@ 168 "../../../ChibiOS/os/kernel/src/chmempools.c" 1
 435 0002 83F31188 		msr     BASEPRI, r3
 436              	@ 0 "" 2
 437              	.LVL44:
 438              		.thumb
 439              	.LBE54:
 440              	.LBB55:
 441              	.LBB56:
 442              		.loc 1 150 0
 443 0006 0268     		ldr	r2, [r0, #0]
 444              	.LBE56:
 445              	.LBE55:
 446              	.LBB58:
 447              		.loc 1 170 0
 448 0008 0023     		movs	r3, #0
 449              	.LVL45:
 450              	.LBE58:
ARM GAS  C:\Users\DNIEL~1\AppData\Local\Temp\ccMEaWPX.s 			page 9


 451              	.LBB59:
 452              	.LBB57:
 453              		.loc 1 150 0
 454 000a 0A60     		str	r2, [r1, #0]
 455              		.loc 1 151 0
 456 000c 0160     		str	r1, [r0, #0]
 457              	.LBE57:
 458              	.LBE59:
 459              	.LBB60:
 460              		.loc 1 170 0
 461              	@ 170 "../../../ChibiOS/os/kernel/src/chmempools.c" 1
 462 000e 83F31188 		msr     BASEPRI, r3
 463              	@ 0 "" 2
 464              	.LVL46:
 465              		.thumb
 466 0012 7047     		bx	lr
 467              	.LBE60:
 468              		.cfi_endproc
 469              	.LFE12:
 470              		.size	chPoolFree, .-chPoolFree
 471 0014 AFF30080 		.text
 471      AFF30080 
 471      AFF30080 
 472              	.Letext0:
 473              		.file 2 "c:\\chibistudio\\tools\\gnu tools arm embedded\\4.7 2014q2\\bin\\../lib/gcc/arm-none-eabi
 474              		.file 3 "c:\\chibistudio\\tools\\gnu tools arm embedded\\4.7 2014q2\\bin\\../lib/gcc/arm-none-eabi
 475              		.file 4 "../../../ChibiOS/os/kernel/include/chmemcore.h"
 476              		.file 5 "../../../ChibiOS/os/kernel/include/chmempools.h"
 477              		.section	.debug_info,"",%progbits
 478              	.Ldebug_info0:
 479 0000 1B040000 		.4byte	0x41b
 480 0004 0200     		.2byte	0x2
 481 0006 00000000 		.4byte	.Ldebug_abbrev0
 482 000a 04       		.byte	0x4
 483 000b 01       		.uleb128 0x1
 484 000c 71000000 		.4byte	.LASF27
 485 0010 01       		.byte	0x1
 486 0011 41010000 		.4byte	.LASF28
 487 0015 D5000000 		.4byte	.LASF29
 488 0019 A0010000 		.4byte	.Ldebug_ranges0+0x1a0
 489 001d 00000000 		.4byte	0
 490 0021 00000000 		.4byte	0
 491 0025 00000000 		.4byte	.Ldebug_line0
 492 0029 02       		.uleb128 0x2
 493 002a 04       		.byte	0x4
 494 002b 05       		.byte	0x5
 495 002c 696E7400 		.ascii	"int\000"
 496 0030 03       		.uleb128 0x3
 497 0031 00000000 		.4byte	.LASF2
 498 0035 02       		.byte	0x2
 499 0036 D5       		.byte	0xd5
 500 0037 3B000000 		.4byte	0x3b
 501 003b 04       		.uleb128 0x4
 502 003c 04       		.byte	0x4
 503 003d 07       		.byte	0x7
 504 003e 0D010000 		.4byte	.LASF0
 505 0042 04       		.uleb128 0x4
ARM GAS  C:\Users\DNIEL~1\AppData\Local\Temp\ccMEaWPX.s 			page 10


 506 0043 01       		.byte	0x1
 507 0044 06       		.byte	0x6
 508 0045 D8010000 		.4byte	.LASF1
 509 0049 03       		.uleb128 0x3
 510 004a 31010000 		.4byte	.LASF3
 511 004e 03       		.byte	0x3
 512 004f 2A       		.byte	0x2a
 513 0050 54000000 		.4byte	0x54
 514 0054 04       		.uleb128 0x4
 515 0055 01       		.byte	0x1
 516 0056 08       		.byte	0x8
 517 0057 6D010000 		.4byte	.LASF4
 518 005b 04       		.uleb128 0x4
 519 005c 02       		.byte	0x2
 520 005d 05       		.byte	0x5
 521 005e B0010000 		.4byte	.LASF5
 522 0062 04       		.uleb128 0x4
 523 0063 02       		.byte	0x2
 524 0064 07       		.byte	0x7
 525 0065 49000000 		.4byte	.LASF6
 526 0069 04       		.uleb128 0x4
 527 006a 04       		.byte	0x4
 528 006b 05       		.byte	0x5
 529 006c CF010000 		.4byte	.LASF7
 530 0070 03       		.uleb128 0x3
 531 0071 C6010000 		.4byte	.LASF8
 532 0075 03       		.byte	0x3
 533 0076 50       		.byte	0x50
 534 0077 7B000000 		.4byte	0x7b
 535 007b 04       		.uleb128 0x4
 536 007c 04       		.byte	0x4
 537 007d 07       		.byte	0x7
 538 007e 37000000 		.4byte	.LASF9
 539 0082 04       		.uleb128 0x4
 540 0083 08       		.byte	0x8
 541 0084 05       		.byte	0x5
 542 0085 84010000 		.4byte	.LASF10
 543 0089 04       		.uleb128 0x4
 544 008a 08       		.byte	0x8
 545 008b 07       		.byte	0x7
 546 008c 1A010000 		.4byte	.LASF11
 547 0090 05       		.uleb128 0x5
 548 0091 04       		.byte	0x4
 549 0092 04       		.uleb128 0x4
 550 0093 04       		.byte	0x4
 551 0094 07       		.byte	0x7
 552 0095 7B010000 		.4byte	.LASF12
 553 0099 03       		.uleb128 0x3
 554 009a 97010000 		.4byte	.LASF13
 555 009e 04       		.byte	0x4
 556 009f 25       		.byte	0x25
 557 00a0 A4000000 		.4byte	0xa4
 558 00a4 06       		.uleb128 0x6
 559 00a5 04       		.byte	0x4
 560 00a6 AA000000 		.4byte	0xaa
 561 00aa 07       		.uleb128 0x7
 562 00ab 01       		.byte	0x1
ARM GAS  C:\Users\DNIEL~1\AppData\Local\Temp\ccMEaWPX.s 			page 11


 563 00ac 90000000 		.4byte	0x90
 564 00b0 BA000000 		.4byte	0xba
 565 00b4 08       		.uleb128 0x8
 566 00b5 30000000 		.4byte	0x30
 567 00b9 00       		.byte	0
 568 00ba 09       		.uleb128 0x9
 569 00bb 26000000 		.4byte	.LASF30
 570 00bf 04       		.byte	0x4
 571 00c0 05       		.byte	0x5
 572 00c1 25       		.byte	0x25
 573 00c2 D5000000 		.4byte	0xd5
 574 00c6 0A       		.uleb128 0xa
 575 00c7 39010000 		.4byte	.LASF14
 576 00cb 05       		.byte	0x5
 577 00cc 26       		.byte	0x26
 578 00cd D5000000 		.4byte	0xd5
 579 00d1 02       		.byte	0x2
 580 00d2 23       		.byte	0x23
 581 00d3 00       		.uleb128 0
 582 00d4 00       		.byte	0
 583 00d5 06       		.uleb128 0x6
 584 00d6 04       		.byte	0x4
 585 00d7 BA000000 		.4byte	0xba
 586 00db 0B       		.uleb128 0xb
 587 00dc 0C       		.byte	0xc
 588 00dd 05       		.byte	0x5
 589 00de 2D       		.byte	0x2d
 590 00df 0E010000 		.4byte	0x10e
 591 00e3 0A       		.uleb128 0xa
 592 00e4 E4010000 		.4byte	.LASF15
 593 00e8 05       		.byte	0x5
 594 00e9 2E       		.byte	0x2e
 595 00ea D5000000 		.4byte	0xd5
 596 00ee 02       		.byte	0x2
 597 00ef 23       		.byte	0x23
 598 00f0 00       		.uleb128 0
 599 00f1 0A       		.uleb128 0xa
 600 00f2 07000000 		.4byte	.LASF16
 601 00f6 05       		.byte	0x5
 602 00f7 2F       		.byte	0x2f
 603 00f8 30000000 		.4byte	0x30
 604 00fc 02       		.byte	0x2
 605 00fd 23       		.byte	0x23
 606 00fe 04       		.uleb128 0x4
 607 00ff 0A       		.uleb128 0xa
 608 0100 A4010000 		.4byte	.LASF17
 609 0104 05       		.byte	0x5
 610 0105 31       		.byte	0x31
 611 0106 99000000 		.4byte	0x99
 612 010a 02       		.byte	0x2
 613 010b 23       		.byte	0x23
 614 010c 08       		.uleb128 0x8
 615 010d 00       		.byte	0
 616 010e 03       		.uleb128 0x3
 617 010f C5000000 		.4byte	.LASF18
 618 0113 05       		.byte	0x5
 619 0114 33       		.byte	0x33
ARM GAS  C:\Users\DNIEL~1\AppData\Local\Temp\ccMEaWPX.s 			page 12


 620 0115 DB000000 		.4byte	0xdb
 621 0119 04       		.uleb128 0x4
 622 011a 01       		.byte	0x1
 623 011b 08       		.byte	0x8
 624 011c 92010000 		.4byte	.LASF19
 625 0120 0C       		.uleb128 0xc
 626 0121 01       		.byte	0x1
 627 0122 00010000 		.4byte	.LASF31
 628 0126 01       		.byte	0x1
 629 0127 64       		.byte	0x64
 630 0128 01       		.byte	0x1
 631 0129 90000000 		.4byte	0x90
 632 012d 01       		.byte	0x1
 633 012e 48010000 		.4byte	0x148
 634 0132 0D       		.uleb128 0xd
 635 0133 6D7000   		.ascii	"mp\000"
 636 0136 01       		.byte	0x1
 637 0137 64       		.byte	0x64
 638 0138 48010000 		.4byte	0x148
 639 013c 0E       		.uleb128 0xe
 640 013d D0000000 		.4byte	.LASF20
 641 0141 01       		.byte	0x1
 642 0142 65       		.byte	0x65
 643 0143 90000000 		.4byte	0x90
 644 0147 00       		.byte	0
 645 0148 06       		.uleb128 0x6
 646 0149 04       		.byte	0x4
 647 014a 0E010000 		.4byte	0x10e
 648 014e 0F       		.uleb128 0xf
 649 014f 01       		.byte	0x1
 650 0150 65000000 		.4byte	.LASF21
 651 0154 01       		.byte	0x1
 652 0155 90       		.byte	0x90
 653 0156 01       		.byte	0x1
 654 0157 01       		.byte	0x1
 655 0158 7D010000 		.4byte	0x17d
 656 015c 0D       		.uleb128 0xd
 657 015d 6D7000   		.ascii	"mp\000"
 658 0160 01       		.byte	0x1
 659 0161 90       		.byte	0x90
 660 0162 48010000 		.4byte	0x148
 661 0166 10       		.uleb128 0x10
 662 0167 D0000000 		.4byte	.LASF20
 663 016b 01       		.byte	0x1
 664 016c 90       		.byte	0x90
 665 016d 90000000 		.4byte	0x90
 666 0171 11       		.uleb128 0x11
 667 0172 70687000 		.ascii	"php\000"
 668 0176 01       		.byte	0x1
 669 0177 91       		.byte	0x91
 670 0178 D5000000 		.4byte	0xd5
 671 017c 00       		.byte	0
 672 017d 0F       		.uleb128 0xf
 673 017e 01       		.byte	0x1
 674 017f BA000000 		.4byte	.LASF22
 675 0183 01       		.byte	0x1
 676 0184 A6       		.byte	0xa6
ARM GAS  C:\Users\DNIEL~1\AppData\Local\Temp\ccMEaWPX.s 			page 13


 677 0185 01       		.byte	0x1
 678 0186 01       		.byte	0x1
 679 0187 BF010000 		.4byte	0x1bf
 680 018b 0D       		.uleb128 0xd
 681 018c 6D7000   		.ascii	"mp\000"
 682 018f 01       		.byte	0x1
 683 0190 A6       		.byte	0xa6
 684 0191 48010000 		.4byte	0x148
 685 0195 10       		.uleb128 0x10
 686 0196 D0000000 		.4byte	.LASF20
 687 019a 01       		.byte	0x1
 688 019b A6       		.byte	0xa6
 689 019c 90000000 		.4byte	0x90
 690 01a0 12       		.uleb128 0x12
 691 01a1 B1010000 		.4byte	0x1b1
 692 01a5 11       		.uleb128 0x11
 693 01a6 746D7000 		.ascii	"tmp\000"
 694 01aa 01       		.byte	0x1
 695 01ab A8       		.byte	0xa8
 696 01ac 70000000 		.4byte	0x70
 697 01b0 00       		.byte	0
 698 01b1 13       		.uleb128 0x13
 699 01b2 11       		.uleb128 0x11
 700 01b3 746D7000 		.ascii	"tmp\000"
 701 01b7 01       		.byte	0x1
 702 01b8 AA       		.byte	0xaa
 703 01b9 70000000 		.4byte	0x70
 704 01bd 00       		.byte	0
 705 01be 00       		.byte	0
 706 01bf 14       		.uleb128 0x14
 707 01c0 01       		.byte	0x1
 708 01c1 EC010000 		.4byte	.LASF25
 709 01c5 01       		.byte	0x1
 710 01c6 39       		.byte	0x39
 711 01c7 01       		.byte	0x1
 712 01c8 00000000 		.4byte	.LFB7
 713 01cc 0A000000 		.4byte	.LFE7
 714 01d0 02       		.byte	0x2
 715 01d1 7D       		.byte	0x7d
 716 01d2 00       		.sleb128 0
 717 01d3 01       		.byte	0x1
 718 01d4 FF010000 		.4byte	0x1ff
 719 01d8 15       		.uleb128 0x15
 720 01d9 6D7000   		.ascii	"mp\000"
 721 01dc 01       		.byte	0x1
 722 01dd 39       		.byte	0x39
 723 01de 48010000 		.4byte	0x148
 724 01e2 01       		.byte	0x1
 725 01e3 50       		.byte	0x50
 726 01e4 16       		.uleb128 0x16
 727 01e5 32000000 		.4byte	.LASF23
 728 01e9 01       		.byte	0x1
 729 01ea 39       		.byte	0x39
 730 01eb 30000000 		.4byte	0x30
 731 01ef 01       		.byte	0x1
 732 01f0 51       		.byte	0x51
 733 01f1 16       		.uleb128 0x16
ARM GAS  C:\Users\DNIEL~1\AppData\Local\Temp\ccMEaWPX.s 			page 14


 734 01f2 5C000000 		.4byte	.LASF24
 735 01f6 01       		.byte	0x1
 736 01f7 39       		.byte	0x39
 737 01f8 99000000 		.4byte	0x99
 738 01fc 01       		.byte	0x1
 739 01fd 52       		.byte	0x52
 740 01fe 00       		.byte	0
 741 01ff 17       		.uleb128 0x17
 742 0200 01       		.byte	0x1
 743 0201 16000000 		.4byte	.LASF26
 744 0205 01       		.byte	0x1
 745 0206 4F       		.byte	0x4f
 746 0207 01       		.byte	0x1
 747 0208 00000000 		.4byte	.LFB8
 748 020c 78000000 		.4byte	.LFE8
 749 0210 00000000 		.4byte	.LLST0
 750 0214 01       		.byte	0x1
 751 0215 B9020000 		.4byte	0x2b9
 752 0219 15       		.uleb128 0x15
 753 021a 6D7000   		.ascii	"mp\000"
 754 021d 01       		.byte	0x1
 755 021e 4F       		.byte	0x4f
 756 021f 48010000 		.4byte	0x148
 757 0223 01       		.byte	0x1
 758 0224 50       		.byte	0x50
 759 0225 18       		.uleb128 0x18
 760 0226 7000     		.ascii	"p\000"
 761 0228 01       		.byte	0x1
 762 0229 4F       		.byte	0x4f
 763 022a 90000000 		.4byte	0x90
 764 022e 20000000 		.4byte	.LLST1
 765 0232 18       		.uleb128 0x18
 766 0233 6E00     		.ascii	"n\000"
 767 0235 01       		.byte	0x1
 768 0236 4F       		.byte	0x4f
 769 0237 30000000 		.4byte	0x30
 770 023b 3F000000 		.4byte	.LLST2
 771 023f 19       		.uleb128 0x19
 772 0240 7D010000 		.4byte	0x17d
 773 0244 0C000000 		.4byte	.LBB16
 774 0248 00000000 		.4byte	.Ldebug_ranges0+0
 775 024c 01       		.byte	0x1
 776 024d 54       		.byte	0x54
 777 024e 1A       		.uleb128 0x1a
 778 024f 95010000 		.4byte	0x195
 779 0253 6C000000 		.4byte	.LLST3
 780 0257 1A       		.uleb128 0x1a
 781 0258 8B010000 		.4byte	0x18b
 782 025c 8B000000 		.4byte	.LLST4
 783 0260 1B       		.uleb128 0x1b
 784 0261 28000000 		.4byte	.Ldebug_ranges0+0x28
 785 0265 73020000 		.4byte	0x273
 786 0269 1C       		.uleb128 0x1c
 787 026a A5010000 		.4byte	0x1a5
 788 026e 9E000000 		.4byte	.LLST5
 789 0272 00       		.byte	0
 790 0273 1D       		.uleb128 0x1d
ARM GAS  C:\Users\DNIEL~1\AppData\Local\Temp\ccMEaWPX.s 			page 15


 791 0274 4E010000 		.4byte	0x14e
 792 0278 12000000 		.4byte	.LBB18
 793 027c 50000000 		.4byte	.Ldebug_ranges0+0x50
 794 0280 01       		.byte	0x1
 795 0281 A9       		.byte	0xa9
 796 0282 A8020000 		.4byte	0x2a8
 797 0286 1A       		.uleb128 0x1a
 798 0287 66010000 		.4byte	0x166
 799 028b D2000000 		.4byte	.LLST6
 800 028f 1A       		.uleb128 0x1a
 801 0290 5C010000 		.4byte	0x15c
 802 0294 F1000000 		.4byte	.LLST7
 803 0298 1E       		.uleb128 0x1e
 804 0299 98000000 		.4byte	.Ldebug_ranges0+0x98
 805 029d 1C       		.uleb128 0x1c
 806 029e 71010000 		.4byte	0x171
 807 02a2 D2000000 		.4byte	.LLST6
 808 02a6 00       		.byte	0
 809 02a7 00       		.byte	0
 810 02a8 1E       		.uleb128 0x1e
 811 02a9 E0000000 		.4byte	.Ldebug_ranges0+0xe0
 812 02ad 1C       		.uleb128 0x1c
 813 02ae B2010000 		.4byte	0x1b2
 814 02b2 04010000 		.4byte	.LLST9
 815 02b6 00       		.byte	0
 816 02b7 00       		.byte	0
 817 02b8 00       		.byte	0
 818 02b9 1F       		.uleb128 0x1f
 819 02ba 20010000 		.4byte	0x120
 820 02be 00000000 		.4byte	.LFB9
 821 02c2 18000000 		.4byte	.LFE9
 822 02c6 38010000 		.4byte	.LLST10
 823 02ca 01       		.byte	0x1
 824 02cb E2020000 		.4byte	0x2e2
 825 02cf 1A       		.uleb128 0x1a
 826 02d0 32010000 		.4byte	0x132
 827 02d4 58010000 		.4byte	.LLST11
 828 02d8 1C       		.uleb128 0x1c
 829 02d9 3C010000 		.4byte	0x13c
 830 02dd 84010000 		.4byte	.LLST12
 831 02e1 00       		.byte	0
 832 02e2 20       		.uleb128 0x20
 833 02e3 01       		.byte	0x1
 834 02e4 BA010000 		.4byte	.LASF32
 835 02e8 01       		.byte	0x1
 836 02e9 7B       		.byte	0x7b
 837 02ea 01       		.byte	0x1
 838 02eb 90000000 		.4byte	0x90
 839 02ef 00000000 		.4byte	.LFB10
 840 02f3 26000000 		.4byte	.LFE10
 841 02f7 AE010000 		.4byte	.LLST13
 842 02fb 01       		.byte	0x1
 843 02fc 7E030000 		.4byte	0x37e
 844 0300 18       		.uleb128 0x18
 845 0301 6D7000   		.ascii	"mp\000"
 846 0304 01       		.byte	0x1
 847 0305 7B       		.byte	0x7b
ARM GAS  C:\Users\DNIEL~1\AppData\Local\Temp\ccMEaWPX.s 			page 16


 848 0306 48010000 		.4byte	0x148
 849 030a CE010000 		.4byte	.LLST14
 850 030e 21       		.uleb128 0x21
 851 030f D0000000 		.4byte	.LASF20
 852 0313 01       		.byte	0x1
 853 0314 7C       		.byte	0x7c
 854 0315 90000000 		.4byte	0x90
 855 0319 01       		.byte	0x1
 856 031a 50       		.byte	0x50
 857 031b 22       		.uleb128 0x22
 858 031c 04000000 		.4byte	.LBB48
 859 0320 0A000000 		.4byte	.LBE48
 860 0324 38030000 		.4byte	0x338
 861 0328 23       		.uleb128 0x23
 862 0329 746D7000 		.ascii	"tmp\000"
 863 032d 01       		.byte	0x1
 864 032e 7E       		.byte	0x7e
 865 032f 70000000 		.4byte	0x70
 866 0333 13020000 		.4byte	.LLST15
 867 0337 00       		.byte	0
 868 0338 1D       		.uleb128 0x1d
 869 0339 20010000 		.4byte	0x120
 870 033d 0A000000 		.4byte	.LBB49
 871 0341 28010000 		.4byte	.Ldebug_ranges0+0x128
 872 0345 01       		.byte	0x1
 873 0346 7F       		.byte	0x7f
 874 0347 64030000 		.4byte	0x364
 875 034b 1A       		.uleb128 0x1a
 876 034c 32010000 		.4byte	0x132
 877 0350 31020000 		.4byte	.LLST16
 878 0354 1E       		.uleb128 0x1e
 879 0355 40010000 		.4byte	.Ldebug_ranges0+0x140
 880 0359 1C       		.uleb128 0x1c
 881 035a 3C010000 		.4byte	0x13c
 882 035e 76020000 		.4byte	.LLST17
 883 0362 00       		.byte	0
 884 0363 00       		.byte	0
 885 0364 24       		.uleb128 0x24
 886 0365 12000000 		.4byte	.LBB52
 887 0369 18000000 		.4byte	.LBE52
 888 036d 23       		.uleb128 0x23
 889 036e 746D7000 		.ascii	"tmp\000"
 890 0372 01       		.byte	0x1
 891 0373 80       		.byte	0x80
 892 0374 70000000 		.4byte	0x70
 893 0378 A0020000 		.4byte	.LLST18
 894 037c 00       		.byte	0
 895 037d 00       		.byte	0
 896 037e 25       		.uleb128 0x25
 897 037f 4E010000 		.4byte	0x14e
 898 0383 00000000 		.4byte	.LFB11
 899 0387 08000000 		.4byte	.LFE11
 900 038b 02       		.byte	0x2
 901 038c 7D       		.byte	0x7d
 902 038d 00       		.sleb128 0
 903 038e 01       		.byte	0x1
 904 038f A9030000 		.4byte	0x3a9
ARM GAS  C:\Users\DNIEL~1\AppData\Local\Temp\ccMEaWPX.s 			page 17


 905 0393 26       		.uleb128 0x26
 906 0394 5C010000 		.4byte	0x15c
 907 0398 01       		.byte	0x1
 908 0399 50       		.byte	0x50
 909 039a 26       		.uleb128 0x26
 910 039b 66010000 		.4byte	0x166
 911 039f 01       		.byte	0x1
 912 03a0 51       		.byte	0x51
 913 03a1 27       		.uleb128 0x27
 914 03a2 71010000 		.4byte	0x171
 915 03a6 01       		.byte	0x1
 916 03a7 51       		.byte	0x51
 917 03a8 00       		.byte	0
 918 03a9 28       		.uleb128 0x28
 919 03aa 7D010000 		.4byte	0x17d
 920 03ae 00000000 		.4byte	.LFB12
 921 03b2 14000000 		.4byte	.LFE12
 922 03b6 02       		.byte	0x2
 923 03b7 7D       		.byte	0x7d
 924 03b8 00       		.sleb128 0
 925 03b9 01       		.byte	0x1
 926 03ba 26       		.uleb128 0x26
 927 03bb 8B010000 		.4byte	0x18b
 928 03bf 01       		.byte	0x1
 929 03c0 50       		.byte	0x50
 930 03c1 26       		.uleb128 0x26
 931 03c2 95010000 		.4byte	0x195
 932 03c6 01       		.byte	0x1
 933 03c7 51       		.byte	0x51
 934 03c8 22       		.uleb128 0x22
 935 03c9 00000000 		.4byte	.LBB54
 936 03cd 06000000 		.4byte	.LBE54
 937 03d1 DF030000 		.4byte	0x3df
 938 03d5 1C       		.uleb128 0x1c
 939 03d6 A5010000 		.4byte	0x1a5
 940 03da B3020000 		.4byte	.LLST19
 941 03de 00       		.byte	0
 942 03df 1D       		.uleb128 0x1d
 943 03e0 4E010000 		.4byte	0x14e
 944 03e4 06000000 		.4byte	.LBB55
 945 03e8 58010000 		.4byte	.Ldebug_ranges0+0x158
 946 03ec 01       		.byte	0x1
 947 03ed A9       		.byte	0xa9
 948 03ee 0E040000 		.4byte	0x40e
 949 03f2 26       		.uleb128 0x26
 950 03f3 66010000 		.4byte	0x166
 951 03f7 01       		.byte	0x1
 952 03f8 51       		.byte	0x51
 953 03f9 26       		.uleb128 0x26
 954 03fa 5C010000 		.4byte	0x15c
 955 03fe 01       		.byte	0x1
 956 03ff 50       		.byte	0x50
 957 0400 1E       		.uleb128 0x1e
 958 0401 70010000 		.4byte	.Ldebug_ranges0+0x170
 959 0405 27       		.uleb128 0x27
 960 0406 71010000 		.4byte	0x171
 961 040a 01       		.byte	0x1
ARM GAS  C:\Users\DNIEL~1\AppData\Local\Temp\ccMEaWPX.s 			page 18


 962 040b 51       		.byte	0x51
 963 040c 00       		.byte	0
 964 040d 00       		.byte	0
 965 040e 1E       		.uleb128 0x1e
 966 040f 88010000 		.4byte	.Ldebug_ranges0+0x188
 967 0413 1C       		.uleb128 0x1c
 968 0414 B2010000 		.4byte	0x1b2
 969 0418 C6020000 		.4byte	.LLST20
 970 041c 00       		.byte	0
 971 041d 00       		.byte	0
 972 041e 00       		.byte	0
 973              		.section	.debug_abbrev,"",%progbits
 974              	.Ldebug_abbrev0:
 975 0000 01       		.uleb128 0x1
 976 0001 11       		.uleb128 0x11
 977 0002 01       		.byte	0x1
 978 0003 25       		.uleb128 0x25
 979 0004 0E       		.uleb128 0xe
 980 0005 13       		.uleb128 0x13
 981 0006 0B       		.uleb128 0xb
 982 0007 03       		.uleb128 0x3
 983 0008 0E       		.uleb128 0xe
 984 0009 1B       		.uleb128 0x1b
 985 000a 0E       		.uleb128 0xe
 986 000b 55       		.uleb128 0x55
 987 000c 06       		.uleb128 0x6
 988 000d 11       		.uleb128 0x11
 989 000e 01       		.uleb128 0x1
 990 000f 52       		.uleb128 0x52
 991 0010 01       		.uleb128 0x1
 992 0011 10       		.uleb128 0x10
 993 0012 06       		.uleb128 0x6
 994 0013 00       		.byte	0
 995 0014 00       		.byte	0
 996 0015 02       		.uleb128 0x2
 997 0016 24       		.uleb128 0x24
 998 0017 00       		.byte	0
 999 0018 0B       		.uleb128 0xb
 1000 0019 0B       		.uleb128 0xb
 1001 001a 3E       		.uleb128 0x3e
 1002 001b 0B       		.uleb128 0xb
 1003 001c 03       		.uleb128 0x3
 1004 001d 08       		.uleb128 0x8
 1005 001e 00       		.byte	0
 1006 001f 00       		.byte	0
 1007 0020 03       		.uleb128 0x3
 1008 0021 16       		.uleb128 0x16
 1009 0022 00       		.byte	0
 1010 0023 03       		.uleb128 0x3
 1011 0024 0E       		.uleb128 0xe
 1012 0025 3A       		.uleb128 0x3a
 1013 0026 0B       		.uleb128 0xb
 1014 0027 3B       		.uleb128 0x3b
 1015 0028 0B       		.uleb128 0xb
 1016 0029 49       		.uleb128 0x49
 1017 002a 13       		.uleb128 0x13
 1018 002b 00       		.byte	0
ARM GAS  C:\Users\DNIEL~1\AppData\Local\Temp\ccMEaWPX.s 			page 19


 1019 002c 00       		.byte	0
 1020 002d 04       		.uleb128 0x4
 1021 002e 24       		.uleb128 0x24
 1022 002f 00       		.byte	0
 1023 0030 0B       		.uleb128 0xb
 1024 0031 0B       		.uleb128 0xb
 1025 0032 3E       		.uleb128 0x3e
 1026 0033 0B       		.uleb128 0xb
 1027 0034 03       		.uleb128 0x3
 1028 0035 0E       		.uleb128 0xe
 1029 0036 00       		.byte	0
 1030 0037 00       		.byte	0
 1031 0038 05       		.uleb128 0x5
 1032 0039 0F       		.uleb128 0xf
 1033 003a 00       		.byte	0
 1034 003b 0B       		.uleb128 0xb
 1035 003c 0B       		.uleb128 0xb
 1036 003d 00       		.byte	0
 1037 003e 00       		.byte	0
 1038 003f 06       		.uleb128 0x6
 1039 0040 0F       		.uleb128 0xf
 1040 0041 00       		.byte	0
 1041 0042 0B       		.uleb128 0xb
 1042 0043 0B       		.uleb128 0xb
 1043 0044 49       		.uleb128 0x49
 1044 0045 13       		.uleb128 0x13
 1045 0046 00       		.byte	0
 1046 0047 00       		.byte	0
 1047 0048 07       		.uleb128 0x7
 1048 0049 15       		.uleb128 0x15
 1049 004a 01       		.byte	0x1
 1050 004b 27       		.uleb128 0x27
 1051 004c 0C       		.uleb128 0xc
 1052 004d 49       		.uleb128 0x49
 1053 004e 13       		.uleb128 0x13
 1054 004f 01       		.uleb128 0x1
 1055 0050 13       		.uleb128 0x13
 1056 0051 00       		.byte	0
 1057 0052 00       		.byte	0
 1058 0053 08       		.uleb128 0x8
 1059 0054 05       		.uleb128 0x5
 1060 0055 00       		.byte	0
 1061 0056 49       		.uleb128 0x49
 1062 0057 13       		.uleb128 0x13
 1063 0058 00       		.byte	0
 1064 0059 00       		.byte	0
 1065 005a 09       		.uleb128 0x9
 1066 005b 13       		.uleb128 0x13
 1067 005c 01       		.byte	0x1
 1068 005d 03       		.uleb128 0x3
 1069 005e 0E       		.uleb128 0xe
 1070 005f 0B       		.uleb128 0xb
 1071 0060 0B       		.uleb128 0xb
 1072 0061 3A       		.uleb128 0x3a
 1073 0062 0B       		.uleb128 0xb
 1074 0063 3B       		.uleb128 0x3b
 1075 0064 0B       		.uleb128 0xb
ARM GAS  C:\Users\DNIEL~1\AppData\Local\Temp\ccMEaWPX.s 			page 20


 1076 0065 01       		.uleb128 0x1
 1077 0066 13       		.uleb128 0x13
 1078 0067 00       		.byte	0
 1079 0068 00       		.byte	0
 1080 0069 0A       		.uleb128 0xa
 1081 006a 0D       		.uleb128 0xd
 1082 006b 00       		.byte	0
 1083 006c 03       		.uleb128 0x3
 1084 006d 0E       		.uleb128 0xe
 1085 006e 3A       		.uleb128 0x3a
 1086 006f 0B       		.uleb128 0xb
 1087 0070 3B       		.uleb128 0x3b
 1088 0071 0B       		.uleb128 0xb
 1089 0072 49       		.uleb128 0x49
 1090 0073 13       		.uleb128 0x13
 1091 0074 38       		.uleb128 0x38
 1092 0075 0A       		.uleb128 0xa
 1093 0076 00       		.byte	0
 1094 0077 00       		.byte	0
 1095 0078 0B       		.uleb128 0xb
 1096 0079 13       		.uleb128 0x13
 1097 007a 01       		.byte	0x1
 1098 007b 0B       		.uleb128 0xb
 1099 007c 0B       		.uleb128 0xb
 1100 007d 3A       		.uleb128 0x3a
 1101 007e 0B       		.uleb128 0xb
 1102 007f 3B       		.uleb128 0x3b
 1103 0080 0B       		.uleb128 0xb
 1104 0081 01       		.uleb128 0x1
 1105 0082 13       		.uleb128 0x13
 1106 0083 00       		.byte	0
 1107 0084 00       		.byte	0
 1108 0085 0C       		.uleb128 0xc
 1109 0086 2E       		.uleb128 0x2e
 1110 0087 01       		.byte	0x1
 1111 0088 3F       		.uleb128 0x3f
 1112 0089 0C       		.uleb128 0xc
 1113 008a 03       		.uleb128 0x3
 1114 008b 0E       		.uleb128 0xe
 1115 008c 3A       		.uleb128 0x3a
 1116 008d 0B       		.uleb128 0xb
 1117 008e 3B       		.uleb128 0x3b
 1118 008f 0B       		.uleb128 0xb
 1119 0090 27       		.uleb128 0x27
 1120 0091 0C       		.uleb128 0xc
 1121 0092 49       		.uleb128 0x49
 1122 0093 13       		.uleb128 0x13
 1123 0094 20       		.uleb128 0x20
 1124 0095 0B       		.uleb128 0xb
 1125 0096 01       		.uleb128 0x1
 1126 0097 13       		.uleb128 0x13
 1127 0098 00       		.byte	0
 1128 0099 00       		.byte	0
 1129 009a 0D       		.uleb128 0xd
 1130 009b 05       		.uleb128 0x5
 1131 009c 00       		.byte	0
 1132 009d 03       		.uleb128 0x3
ARM GAS  C:\Users\DNIEL~1\AppData\Local\Temp\ccMEaWPX.s 			page 21


 1133 009e 08       		.uleb128 0x8
 1134 009f 3A       		.uleb128 0x3a
 1135 00a0 0B       		.uleb128 0xb
 1136 00a1 3B       		.uleb128 0x3b
 1137 00a2 0B       		.uleb128 0xb
 1138 00a3 49       		.uleb128 0x49
 1139 00a4 13       		.uleb128 0x13
 1140 00a5 00       		.byte	0
 1141 00a6 00       		.byte	0
 1142 00a7 0E       		.uleb128 0xe
 1143 00a8 34       		.uleb128 0x34
 1144 00a9 00       		.byte	0
 1145 00aa 03       		.uleb128 0x3
 1146 00ab 0E       		.uleb128 0xe
 1147 00ac 3A       		.uleb128 0x3a
 1148 00ad 0B       		.uleb128 0xb
 1149 00ae 3B       		.uleb128 0x3b
 1150 00af 0B       		.uleb128 0xb
 1151 00b0 49       		.uleb128 0x49
 1152 00b1 13       		.uleb128 0x13
 1153 00b2 00       		.byte	0
 1154 00b3 00       		.byte	0
 1155 00b4 0F       		.uleb128 0xf
 1156 00b5 2E       		.uleb128 0x2e
 1157 00b6 01       		.byte	0x1
 1158 00b7 3F       		.uleb128 0x3f
 1159 00b8 0C       		.uleb128 0xc
 1160 00b9 03       		.uleb128 0x3
 1161 00ba 0E       		.uleb128 0xe
 1162 00bb 3A       		.uleb128 0x3a
 1163 00bc 0B       		.uleb128 0xb
 1164 00bd 3B       		.uleb128 0x3b
 1165 00be 0B       		.uleb128 0xb
 1166 00bf 27       		.uleb128 0x27
 1167 00c0 0C       		.uleb128 0xc
 1168 00c1 20       		.uleb128 0x20
 1169 00c2 0B       		.uleb128 0xb
 1170 00c3 01       		.uleb128 0x1
 1171 00c4 13       		.uleb128 0x13
 1172 00c5 00       		.byte	0
 1173 00c6 00       		.byte	0
 1174 00c7 10       		.uleb128 0x10
 1175 00c8 05       		.uleb128 0x5
 1176 00c9 00       		.byte	0
 1177 00ca 03       		.uleb128 0x3
 1178 00cb 0E       		.uleb128 0xe
 1179 00cc 3A       		.uleb128 0x3a
 1180 00cd 0B       		.uleb128 0xb
 1181 00ce 3B       		.uleb128 0x3b
 1182 00cf 0B       		.uleb128 0xb
 1183 00d0 49       		.uleb128 0x49
 1184 00d1 13       		.uleb128 0x13
 1185 00d2 00       		.byte	0
 1186 00d3 00       		.byte	0
 1187 00d4 11       		.uleb128 0x11
 1188 00d5 34       		.uleb128 0x34
 1189 00d6 00       		.byte	0
ARM GAS  C:\Users\DNIEL~1\AppData\Local\Temp\ccMEaWPX.s 			page 22


 1190 00d7 03       		.uleb128 0x3
 1191 00d8 08       		.uleb128 0x8
 1192 00d9 3A       		.uleb128 0x3a
 1193 00da 0B       		.uleb128 0xb
 1194 00db 3B       		.uleb128 0x3b
 1195 00dc 0B       		.uleb128 0xb
 1196 00dd 49       		.uleb128 0x49
 1197 00de 13       		.uleb128 0x13
 1198 00df 00       		.byte	0
 1199 00e0 00       		.byte	0
 1200 00e1 12       		.uleb128 0x12
 1201 00e2 0B       		.uleb128 0xb
 1202 00e3 01       		.byte	0x1
 1203 00e4 01       		.uleb128 0x1
 1204 00e5 13       		.uleb128 0x13
 1205 00e6 00       		.byte	0
 1206 00e7 00       		.byte	0
 1207 00e8 13       		.uleb128 0x13
 1208 00e9 0B       		.uleb128 0xb
 1209 00ea 01       		.byte	0x1
 1210 00eb 00       		.byte	0
 1211 00ec 00       		.byte	0
 1212 00ed 14       		.uleb128 0x14
 1213 00ee 2E       		.uleb128 0x2e
 1214 00ef 01       		.byte	0x1
 1215 00f0 3F       		.uleb128 0x3f
 1216 00f1 0C       		.uleb128 0xc
 1217 00f2 03       		.uleb128 0x3
 1218 00f3 0E       		.uleb128 0xe
 1219 00f4 3A       		.uleb128 0x3a
 1220 00f5 0B       		.uleb128 0xb
 1221 00f6 3B       		.uleb128 0x3b
 1222 00f7 0B       		.uleb128 0xb
 1223 00f8 27       		.uleb128 0x27
 1224 00f9 0C       		.uleb128 0xc
 1225 00fa 11       		.uleb128 0x11
 1226 00fb 01       		.uleb128 0x1
 1227 00fc 12       		.uleb128 0x12
 1228 00fd 01       		.uleb128 0x1
 1229 00fe 40       		.uleb128 0x40
 1230 00ff 0A       		.uleb128 0xa
 1231 0100 9742     		.uleb128 0x2117
 1232 0102 0C       		.uleb128 0xc
 1233 0103 01       		.uleb128 0x1
 1234 0104 13       		.uleb128 0x13
 1235 0105 00       		.byte	0
 1236 0106 00       		.byte	0
 1237 0107 15       		.uleb128 0x15
 1238 0108 05       		.uleb128 0x5
 1239 0109 00       		.byte	0
 1240 010a 03       		.uleb128 0x3
 1241 010b 08       		.uleb128 0x8
 1242 010c 3A       		.uleb128 0x3a
 1243 010d 0B       		.uleb128 0xb
 1244 010e 3B       		.uleb128 0x3b
 1245 010f 0B       		.uleb128 0xb
 1246 0110 49       		.uleb128 0x49
ARM GAS  C:\Users\DNIEL~1\AppData\Local\Temp\ccMEaWPX.s 			page 23


 1247 0111 13       		.uleb128 0x13
 1248 0112 02       		.uleb128 0x2
 1249 0113 0A       		.uleb128 0xa
 1250 0114 00       		.byte	0
 1251 0115 00       		.byte	0
 1252 0116 16       		.uleb128 0x16
 1253 0117 05       		.uleb128 0x5
 1254 0118 00       		.byte	0
 1255 0119 03       		.uleb128 0x3
 1256 011a 0E       		.uleb128 0xe
 1257 011b 3A       		.uleb128 0x3a
 1258 011c 0B       		.uleb128 0xb
 1259 011d 3B       		.uleb128 0x3b
 1260 011e 0B       		.uleb128 0xb
 1261 011f 49       		.uleb128 0x49
 1262 0120 13       		.uleb128 0x13
 1263 0121 02       		.uleb128 0x2
 1264 0122 0A       		.uleb128 0xa
 1265 0123 00       		.byte	0
 1266 0124 00       		.byte	0
 1267 0125 17       		.uleb128 0x17
 1268 0126 2E       		.uleb128 0x2e
 1269 0127 01       		.byte	0x1
 1270 0128 3F       		.uleb128 0x3f
 1271 0129 0C       		.uleb128 0xc
 1272 012a 03       		.uleb128 0x3
 1273 012b 0E       		.uleb128 0xe
 1274 012c 3A       		.uleb128 0x3a
 1275 012d 0B       		.uleb128 0xb
 1276 012e 3B       		.uleb128 0x3b
 1277 012f 0B       		.uleb128 0xb
 1278 0130 27       		.uleb128 0x27
 1279 0131 0C       		.uleb128 0xc
 1280 0132 11       		.uleb128 0x11
 1281 0133 01       		.uleb128 0x1
 1282 0134 12       		.uleb128 0x12
 1283 0135 01       		.uleb128 0x1
 1284 0136 40       		.uleb128 0x40
 1285 0137 06       		.uleb128 0x6
 1286 0138 9742     		.uleb128 0x2117
 1287 013a 0C       		.uleb128 0xc
 1288 013b 01       		.uleb128 0x1
 1289 013c 13       		.uleb128 0x13
 1290 013d 00       		.byte	0
 1291 013e 00       		.byte	0
 1292 013f 18       		.uleb128 0x18
 1293 0140 05       		.uleb128 0x5
 1294 0141 00       		.byte	0
 1295 0142 03       		.uleb128 0x3
 1296 0143 08       		.uleb128 0x8
 1297 0144 3A       		.uleb128 0x3a
 1298 0145 0B       		.uleb128 0xb
 1299 0146 3B       		.uleb128 0x3b
 1300 0147 0B       		.uleb128 0xb
 1301 0148 49       		.uleb128 0x49
 1302 0149 13       		.uleb128 0x13
 1303 014a 02       		.uleb128 0x2
ARM GAS  C:\Users\DNIEL~1\AppData\Local\Temp\ccMEaWPX.s 			page 24


 1304 014b 06       		.uleb128 0x6
 1305 014c 00       		.byte	0
 1306 014d 00       		.byte	0
 1307 014e 19       		.uleb128 0x19
 1308 014f 1D       		.uleb128 0x1d
 1309 0150 01       		.byte	0x1
 1310 0151 31       		.uleb128 0x31
 1311 0152 13       		.uleb128 0x13
 1312 0153 52       		.uleb128 0x52
 1313 0154 01       		.uleb128 0x1
 1314 0155 55       		.uleb128 0x55
 1315 0156 06       		.uleb128 0x6
 1316 0157 58       		.uleb128 0x58
 1317 0158 0B       		.uleb128 0xb
 1318 0159 59       		.uleb128 0x59
 1319 015a 0B       		.uleb128 0xb
 1320 015b 00       		.byte	0
 1321 015c 00       		.byte	0
 1322 015d 1A       		.uleb128 0x1a
 1323 015e 05       		.uleb128 0x5
 1324 015f 00       		.byte	0
 1325 0160 31       		.uleb128 0x31
 1326 0161 13       		.uleb128 0x13
 1327 0162 02       		.uleb128 0x2
 1328 0163 06       		.uleb128 0x6
 1329 0164 00       		.byte	0
 1330 0165 00       		.byte	0
 1331 0166 1B       		.uleb128 0x1b
 1332 0167 0B       		.uleb128 0xb
 1333 0168 01       		.byte	0x1
 1334 0169 55       		.uleb128 0x55
 1335 016a 06       		.uleb128 0x6
 1336 016b 01       		.uleb128 0x1
 1337 016c 13       		.uleb128 0x13
 1338 016d 00       		.byte	0
 1339 016e 00       		.byte	0
 1340 016f 1C       		.uleb128 0x1c
 1341 0170 34       		.uleb128 0x34
 1342 0171 00       		.byte	0
 1343 0172 31       		.uleb128 0x31
 1344 0173 13       		.uleb128 0x13
 1345 0174 02       		.uleb128 0x2
 1346 0175 06       		.uleb128 0x6
 1347 0176 00       		.byte	0
 1348 0177 00       		.byte	0
 1349 0178 1D       		.uleb128 0x1d
 1350 0179 1D       		.uleb128 0x1d
 1351 017a 01       		.byte	0x1
 1352 017b 31       		.uleb128 0x31
 1353 017c 13       		.uleb128 0x13
 1354 017d 52       		.uleb128 0x52
 1355 017e 01       		.uleb128 0x1
 1356 017f 55       		.uleb128 0x55
 1357 0180 06       		.uleb128 0x6
 1358 0181 58       		.uleb128 0x58
 1359 0182 0B       		.uleb128 0xb
 1360 0183 59       		.uleb128 0x59
ARM GAS  C:\Users\DNIEL~1\AppData\Local\Temp\ccMEaWPX.s 			page 25


 1361 0184 0B       		.uleb128 0xb
 1362 0185 01       		.uleb128 0x1
 1363 0186 13       		.uleb128 0x13
 1364 0187 00       		.byte	0
 1365 0188 00       		.byte	0
 1366 0189 1E       		.uleb128 0x1e
 1367 018a 0B       		.uleb128 0xb
 1368 018b 01       		.byte	0x1
 1369 018c 55       		.uleb128 0x55
 1370 018d 06       		.uleb128 0x6
 1371 018e 00       		.byte	0
 1372 018f 00       		.byte	0
 1373 0190 1F       		.uleb128 0x1f
 1374 0191 2E       		.uleb128 0x2e
 1375 0192 01       		.byte	0x1
 1376 0193 31       		.uleb128 0x31
 1377 0194 13       		.uleb128 0x13
 1378 0195 11       		.uleb128 0x11
 1379 0196 01       		.uleb128 0x1
 1380 0197 12       		.uleb128 0x12
 1381 0198 01       		.uleb128 0x1
 1382 0199 40       		.uleb128 0x40
 1383 019a 06       		.uleb128 0x6
 1384 019b 9642     		.uleb128 0x2116
 1385 019d 0C       		.uleb128 0xc
 1386 019e 01       		.uleb128 0x1
 1387 019f 13       		.uleb128 0x13
 1388 01a0 00       		.byte	0
 1389 01a1 00       		.byte	0
 1390 01a2 20       		.uleb128 0x20
 1391 01a3 2E       		.uleb128 0x2e
 1392 01a4 01       		.byte	0x1
 1393 01a5 3F       		.uleb128 0x3f
 1394 01a6 0C       		.uleb128 0xc
 1395 01a7 03       		.uleb128 0x3
 1396 01a8 0E       		.uleb128 0xe
 1397 01a9 3A       		.uleb128 0x3a
 1398 01aa 0B       		.uleb128 0xb
 1399 01ab 3B       		.uleb128 0x3b
 1400 01ac 0B       		.uleb128 0xb
 1401 01ad 27       		.uleb128 0x27
 1402 01ae 0C       		.uleb128 0xc
 1403 01af 49       		.uleb128 0x49
 1404 01b0 13       		.uleb128 0x13
 1405 01b1 11       		.uleb128 0x11
 1406 01b2 01       		.uleb128 0x1
 1407 01b3 12       		.uleb128 0x12
 1408 01b4 01       		.uleb128 0x1
 1409 01b5 40       		.uleb128 0x40
 1410 01b6 06       		.uleb128 0x6
 1411 01b7 9642     		.uleb128 0x2116
 1412 01b9 0C       		.uleb128 0xc
 1413 01ba 01       		.uleb128 0x1
 1414 01bb 13       		.uleb128 0x13
 1415 01bc 00       		.byte	0
 1416 01bd 00       		.byte	0
 1417 01be 21       		.uleb128 0x21
ARM GAS  C:\Users\DNIEL~1\AppData\Local\Temp\ccMEaWPX.s 			page 26


 1418 01bf 34       		.uleb128 0x34
 1419 01c0 00       		.byte	0
 1420 01c1 03       		.uleb128 0x3
 1421 01c2 0E       		.uleb128 0xe
 1422 01c3 3A       		.uleb128 0x3a
 1423 01c4 0B       		.uleb128 0xb
 1424 01c5 3B       		.uleb128 0x3b
 1425 01c6 0B       		.uleb128 0xb
 1426 01c7 49       		.uleb128 0x49
 1427 01c8 13       		.uleb128 0x13
 1428 01c9 02       		.uleb128 0x2
 1429 01ca 0A       		.uleb128 0xa
 1430 01cb 00       		.byte	0
 1431 01cc 00       		.byte	0
 1432 01cd 22       		.uleb128 0x22
 1433 01ce 0B       		.uleb128 0xb
 1434 01cf 01       		.byte	0x1
 1435 01d0 11       		.uleb128 0x11
 1436 01d1 01       		.uleb128 0x1
 1437 01d2 12       		.uleb128 0x12
 1438 01d3 01       		.uleb128 0x1
 1439 01d4 01       		.uleb128 0x1
 1440 01d5 13       		.uleb128 0x13
 1441 01d6 00       		.byte	0
 1442 01d7 00       		.byte	0
 1443 01d8 23       		.uleb128 0x23
 1444 01d9 34       		.uleb128 0x34
 1445 01da 00       		.byte	0
 1446 01db 03       		.uleb128 0x3
 1447 01dc 08       		.uleb128 0x8
 1448 01dd 3A       		.uleb128 0x3a
 1449 01de 0B       		.uleb128 0xb
 1450 01df 3B       		.uleb128 0x3b
 1451 01e0 0B       		.uleb128 0xb
 1452 01e1 49       		.uleb128 0x49
 1453 01e2 13       		.uleb128 0x13
 1454 01e3 02       		.uleb128 0x2
 1455 01e4 06       		.uleb128 0x6
 1456 01e5 00       		.byte	0
 1457 01e6 00       		.byte	0
 1458 01e7 24       		.uleb128 0x24
 1459 01e8 0B       		.uleb128 0xb
 1460 01e9 01       		.byte	0x1
 1461 01ea 11       		.uleb128 0x11
 1462 01eb 01       		.uleb128 0x1
 1463 01ec 12       		.uleb128 0x12
 1464 01ed 01       		.uleb128 0x1
 1465 01ee 00       		.byte	0
 1466 01ef 00       		.byte	0
 1467 01f0 25       		.uleb128 0x25
 1468 01f1 2E       		.uleb128 0x2e
 1469 01f2 01       		.byte	0x1
 1470 01f3 31       		.uleb128 0x31
 1471 01f4 13       		.uleb128 0x13
 1472 01f5 11       		.uleb128 0x11
 1473 01f6 01       		.uleb128 0x1
 1474 01f7 12       		.uleb128 0x12
ARM GAS  C:\Users\DNIEL~1\AppData\Local\Temp\ccMEaWPX.s 			page 27


 1475 01f8 01       		.uleb128 0x1
 1476 01f9 40       		.uleb128 0x40
 1477 01fa 0A       		.uleb128 0xa
 1478 01fb 9742     		.uleb128 0x2117
 1479 01fd 0C       		.uleb128 0xc
 1480 01fe 01       		.uleb128 0x1
 1481 01ff 13       		.uleb128 0x13
 1482 0200 00       		.byte	0
 1483 0201 00       		.byte	0
 1484 0202 26       		.uleb128 0x26
 1485 0203 05       		.uleb128 0x5
 1486 0204 00       		.byte	0
 1487 0205 31       		.uleb128 0x31
 1488 0206 13       		.uleb128 0x13
 1489 0207 02       		.uleb128 0x2
 1490 0208 0A       		.uleb128 0xa
 1491 0209 00       		.byte	0
 1492 020a 00       		.byte	0
 1493 020b 27       		.uleb128 0x27
 1494 020c 34       		.uleb128 0x34
 1495 020d 00       		.byte	0
 1496 020e 31       		.uleb128 0x31
 1497 020f 13       		.uleb128 0x13
 1498 0210 02       		.uleb128 0x2
 1499 0211 0A       		.uleb128 0xa
 1500 0212 00       		.byte	0
 1501 0213 00       		.byte	0
 1502 0214 28       		.uleb128 0x28
 1503 0215 2E       		.uleb128 0x2e
 1504 0216 01       		.byte	0x1
 1505 0217 31       		.uleb128 0x31
 1506 0218 13       		.uleb128 0x13
 1507 0219 11       		.uleb128 0x11
 1508 021a 01       		.uleb128 0x1
 1509 021b 12       		.uleb128 0x12
 1510 021c 01       		.uleb128 0x1
 1511 021d 40       		.uleb128 0x40
 1512 021e 0A       		.uleb128 0xa
 1513 021f 9742     		.uleb128 0x2117
 1514 0221 0C       		.uleb128 0xc
 1515 0222 00       		.byte	0
 1516 0223 00       		.byte	0
 1517 0224 00       		.byte	0
 1518              		.section	.debug_loc,"",%progbits
 1519              	.Ldebug_loc0:
 1520              	.LLST0:
 1521 0000 00000000 		.4byte	.LFB8
 1522 0004 02000000 		.4byte	.LCFI0
 1523 0008 0200     		.2byte	0x2
 1524 000a 7D       		.byte	0x7d
 1525 000b 00       		.sleb128 0
 1526 000c 02000000 		.4byte	.LCFI0
 1527 0010 78000000 		.4byte	.LFE8
 1528 0014 0200     		.2byte	0x2
 1529 0016 7D       		.byte	0x7d
 1530 0017 0C       		.sleb128 12
 1531 0018 00000000 		.4byte	0
ARM GAS  C:\Users\DNIEL~1\AppData\Local\Temp\ccMEaWPX.s 			page 28


 1532 001c 00000000 		.4byte	0
 1533              	.LLST1:
 1534 0020 00000000 		.4byte	.LVL1
 1535 0024 22000000 		.4byte	.LVL9
 1536 0028 0100     		.2byte	0x1
 1537 002a 51       		.byte	0x51
 1538 002b 22000000 		.4byte	.LVL9
 1539 002f 3E000000 		.4byte	.LVL16
 1540 0033 0200     		.2byte	0x2
 1541 0035 70       		.byte	0x70
 1542 0036 00       		.sleb128 0
 1543 0037 00000000 		.4byte	0
 1544 003b 00000000 		.4byte	0
 1545              	.LLST2:
 1546 003f 00000000 		.4byte	.LVL1
 1547 0043 08000000 		.4byte	.LVL2
 1548 0047 0100     		.2byte	0x1
 1549 0049 52       		.byte	0x52
 1550 004a 08000000 		.4byte	.LVL2
 1551 004e 3C000000 		.4byte	.LVL15
 1552 0052 0300     		.2byte	0x3
 1553 0054 72       		.byte	0x72
 1554 0055 01       		.sleb128 1
 1555 0056 9F       		.byte	0x9f
 1556 0057 3C000000 		.4byte	.LVL15
 1557 005b 3E000000 		.4byte	.LVL16
 1558 005f 0300     		.2byte	0x3
 1559 0061 72       		.byte	0x72
 1560 0062 02       		.sleb128 2
 1561 0063 9F       		.byte	0x9f
 1562 0064 00000000 		.4byte	0
 1563 0068 00000000 		.4byte	0
 1564              	.LLST3:
 1565 006c 0C000000 		.4byte	.LVL3
 1566 0070 22000000 		.4byte	.LVL9
 1567 0074 0100     		.2byte	0x1
 1568 0076 51       		.byte	0x51
 1569 0077 22000000 		.4byte	.LVL9
 1570 007b 26000000 		.4byte	.LVL10
 1571 007f 0200     		.2byte	0x2
 1572 0081 70       		.byte	0x70
 1573 0082 00       		.sleb128 0
 1574 0083 00000000 		.4byte	0
 1575 0087 00000000 		.4byte	0
 1576              	.LLST4:
 1577 008b 0C000000 		.4byte	.LVL3
 1578 008f 74000000 		.4byte	.LVL25
 1579 0093 0100     		.2byte	0x1
 1580 0095 50       		.byte	0x50
 1581 0096 00000000 		.4byte	0
 1582 009a 00000000 		.4byte	0
 1583              	.LLST5:
 1584 009e 12000000 		.4byte	.LVL5
 1585 00a2 16000000 		.4byte	.LVL6
 1586 00a6 0100     		.2byte	0x1
 1587 00a8 53       		.byte	0x53
 1588 00a9 2C000000 		.4byte	.LVL11
ARM GAS  C:\Users\DNIEL~1\AppData\Local\Temp\ccMEaWPX.s 			page 29


 1589 00ad 30000000 		.4byte	.LVL12
 1590 00b1 0100     		.2byte	0x1
 1591 00b3 53       		.byte	0x53
 1592 00b4 46000000 		.4byte	.LVL17
 1593 00b8 4A000000 		.4byte	.LVL18
 1594 00bc 0100     		.2byte	0x1
 1595 00be 53       		.byte	0x53
 1596 00bf 5E000000 		.4byte	.LVL21
 1597 00c3 62000000 		.4byte	.LVL22
 1598 00c7 0100     		.2byte	0x1
 1599 00c9 53       		.byte	0x53
 1600 00ca 00000000 		.4byte	0
 1601 00ce 00000000 		.4byte	0
 1602              	.LLST6:
 1603 00d2 12000000 		.4byte	.LVL5
 1604 00d6 22000000 		.4byte	.LVL9
 1605 00da 0100     		.2byte	0x1
 1606 00dc 51       		.byte	0x51
 1607 00dd 22000000 		.4byte	.LVL9
 1608 00e1 2C000000 		.4byte	.LVL11
 1609 00e5 0200     		.2byte	0x2
 1610 00e7 70       		.byte	0x70
 1611 00e8 00       		.sleb128 0
 1612 00e9 00000000 		.4byte	0
 1613 00ed 00000000 		.4byte	0
 1614              	.LLST7:
 1615 00f1 12000000 		.4byte	.LVL5
 1616 00f5 74000000 		.4byte	.LVL25
 1617 00f9 0100     		.2byte	0x1
 1618 00fb 50       		.byte	0x50
 1619 00fc 00000000 		.4byte	0
 1620 0100 00000000 		.4byte	0
 1621              	.LLST9:
 1622 0104 1E000000 		.4byte	.LVL7
 1623 0108 20000000 		.4byte	.LVL8
 1624 010c 0100     		.2byte	0x1
 1625 010e 53       		.byte	0x53
 1626 010f 38000000 		.4byte	.LVL13
 1627 0113 3A000000 		.4byte	.LVL14
 1628 0117 0100     		.2byte	0x1
 1629 0119 53       		.byte	0x53
 1630 011a 52000000 		.4byte	.LVL19
 1631 011e 5A000000 		.4byte	.LVL20
 1632 0122 0100     		.2byte	0x1
 1633 0124 53       		.byte	0x53
 1634 0125 6A000000 		.4byte	.LVL23
 1635 0129 6C000000 		.4byte	.LVL24
 1636 012d 0100     		.2byte	0x1
 1637 012f 53       		.byte	0x53
 1638 0130 00000000 		.4byte	0
 1639 0134 00000000 		.4byte	0
 1640              	.LLST10:
 1641 0138 00000000 		.4byte	.LFB9
 1642 013c 02000000 		.4byte	.LCFI1
 1643 0140 0200     		.2byte	0x2
 1644 0142 7D       		.byte	0x7d
 1645 0143 00       		.sleb128 0
ARM GAS  C:\Users\DNIEL~1\AppData\Local\Temp\ccMEaWPX.s 			page 30


 1646 0144 02000000 		.4byte	.LCFI1
 1647 0148 18000000 		.4byte	.LFE9
 1648 014c 0200     		.2byte	0x2
 1649 014e 7D       		.byte	0x7d
 1650 014f 08       		.sleb128 8
 1651 0150 00000000 		.4byte	0
 1652 0154 00000000 		.4byte	0
 1653              	.LLST11:
 1654 0158 00000000 		.4byte	.LVL26
 1655 015c 06000000 		.4byte	.LVL27
 1656 0160 0100     		.2byte	0x1
 1657 0162 50       		.byte	0x50
 1658 0163 06000000 		.4byte	.LVL27
 1659 0167 15000000 		.4byte	.LVL29-1
 1660 016b 0100     		.2byte	0x1
 1661 016d 53       		.byte	0x53
 1662 016e 15000000 		.4byte	.LVL29-1
 1663 0172 18000000 		.4byte	.LFE9
 1664 0176 0400     		.2byte	0x4
 1665 0178 F3       		.byte	0xf3
 1666 0179 01       		.uleb128 0x1
 1667 017a 50       		.byte	0x50
 1668 017b 9F       		.byte	0x9f
 1669 017c 00000000 		.4byte	0
 1670 0180 00000000 		.4byte	0
 1671              	.LLST12:
 1672 0184 06000000 		.4byte	.LVL27
 1673 0188 14000000 		.4byte	.LVL28
 1674 018c 0100     		.2byte	0x1
 1675 018e 50       		.byte	0x50
 1676 018f 14000000 		.4byte	.LVL28
 1677 0193 15000000 		.4byte	.LVL29-1
 1678 0197 0200     		.2byte	0x2
 1679 0199 73       		.byte	0x73
 1680 019a 00       		.sleb128 0
 1681 019b 16000000 		.4byte	.LVL29
 1682 019f 18000000 		.4byte	.LFE9
 1683 01a3 0100     		.2byte	0x1
 1684 01a5 50       		.byte	0x50
 1685 01a6 00000000 		.4byte	0
 1686 01aa 00000000 		.4byte	0
 1687              	.LLST13:
 1688 01ae 00000000 		.4byte	.LFB10
 1689 01b2 02000000 		.4byte	.LCFI2
 1690 01b6 0200     		.2byte	0x2
 1691 01b8 7D       		.byte	0x7d
 1692 01b9 00       		.sleb128 0
 1693 01ba 02000000 		.4byte	.LCFI2
 1694 01be 26000000 		.4byte	.LFE10
 1695 01c2 0200     		.2byte	0x2
 1696 01c4 7D       		.byte	0x7d
 1697 01c5 08       		.sleb128 8
 1698 01c6 00000000 		.4byte	0
 1699 01ca 00000000 		.4byte	0
 1700              	.LLST14:
 1701 01ce 00000000 		.4byte	.LVL30
 1702 01d2 0C000000 		.4byte	.LVL33
ARM GAS  C:\Users\DNIEL~1\AppData\Local\Temp\ccMEaWPX.s 			page 31


 1703 01d6 0100     		.2byte	0x1
 1704 01d8 50       		.byte	0x50
 1705 01d9 0C000000 		.4byte	.LVL33
 1706 01dd 12000000 		.4byte	.LVL34
 1707 01e1 0100     		.2byte	0x1
 1708 01e3 52       		.byte	0x52
 1709 01e4 12000000 		.4byte	.LVL34
 1710 01e8 1A000000 		.4byte	.LVL37
 1711 01ec 0400     		.2byte	0x4
 1712 01ee F3       		.byte	0xf3
 1713 01ef 01       		.uleb128 0x1
 1714 01f0 50       		.byte	0x50
 1715 01f1 9F       		.byte	0x9f
 1716 01f2 1A000000 		.4byte	.LVL37
 1717 01f6 23000000 		.4byte	.LVL40-1
 1718 01fa 0100     		.2byte	0x1
 1719 01fc 52       		.byte	0x52
 1720 01fd 23000000 		.4byte	.LVL40-1
 1721 0201 26000000 		.4byte	.LFE10
 1722 0205 0400     		.2byte	0x4
 1723 0207 F3       		.byte	0xf3
 1724 0208 01       		.uleb128 0x1
 1725 0209 50       		.byte	0x50
 1726 020a 9F       		.byte	0x9f
 1727 020b 00000000 		.4byte	0
 1728 020f 00000000 		.4byte	0
 1729              	.LLST15:
 1730 0213 0A000000 		.4byte	.LVL32
 1731 0217 14000000 		.4byte	.LVL35
 1732 021b 0100     		.2byte	0x1
 1733 021d 53       		.byte	0x53
 1734 021e 1A000000 		.4byte	.LVL37
 1735 0222 1C000000 		.4byte	.LVL38
 1736 0226 0100     		.2byte	0x1
 1737 0228 53       		.byte	0x53
 1738 0229 00000000 		.4byte	0
 1739 022d 00000000 		.4byte	0
 1740              	.LLST16:
 1741 0231 0A000000 		.4byte	.LVL32
 1742 0235 0C000000 		.4byte	.LVL33
 1743 0239 0100     		.2byte	0x1
 1744 023b 50       		.byte	0x50
 1745 023c 0C000000 		.4byte	.LVL33
 1746 0240 12000000 		.4byte	.LVL34
 1747 0244 0100     		.2byte	0x1
 1748 0246 52       		.byte	0x52
 1749 0247 12000000 		.4byte	.LVL34
 1750 024b 1A000000 		.4byte	.LVL37
 1751 024f 0400     		.2byte	0x4
 1752 0251 F3       		.byte	0xf3
 1753 0252 01       		.uleb128 0x1
 1754 0253 50       		.byte	0x50
 1755 0254 9F       		.byte	0x9f
 1756 0255 1A000000 		.4byte	.LVL37
 1757 0259 23000000 		.4byte	.LVL40-1
 1758 025d 0100     		.2byte	0x1
 1759 025f 52       		.byte	0x52
ARM GAS  C:\Users\DNIEL~1\AppData\Local\Temp\ccMEaWPX.s 			page 32


 1760 0260 23000000 		.4byte	.LVL40-1
 1761 0264 26000000 		.4byte	.LFE10
 1762 0268 0400     		.2byte	0x4
 1763 026a F3       		.byte	0xf3
 1764 026b 01       		.uleb128 0x1
 1765 026c 50       		.byte	0x50
 1766 026d 9F       		.byte	0x9f
 1767 026e 00000000 		.4byte	0
 1768 0272 00000000 		.4byte	0
 1769              	.LLST17:
 1770 0276 0C000000 		.4byte	.LVL33
 1771 027a 22000000 		.4byte	.LVL39
 1772 027e 0100     		.2byte	0x1
 1773 0280 50       		.byte	0x50
 1774 0281 22000000 		.4byte	.LVL39
 1775 0285 23000000 		.4byte	.LVL40-1
 1776 0289 0200     		.2byte	0x2
 1777 028b 72       		.byte	0x72
 1778 028c 00       		.sleb128 0
 1779 028d 24000000 		.4byte	.LVL40
 1780 0291 26000000 		.4byte	.LFE10
 1781 0295 0100     		.2byte	0x1
 1782 0297 50       		.byte	0x50
 1783 0298 00000000 		.4byte	0
 1784 029c 00000000 		.4byte	0
 1785              	.LLST18:
 1786 02a0 18000000 		.4byte	.LVL36
 1787 02a4 1A000000 		.4byte	.LVL37
 1788 02a8 0100     		.2byte	0x1
 1789 02aa 53       		.byte	0x53
 1790 02ab 00000000 		.4byte	0
 1791 02af 00000000 		.4byte	0
 1792              	.LLST19:
 1793 02b3 06000000 		.4byte	.LVL44
 1794 02b7 0A000000 		.4byte	.LVL45
 1795 02bb 0100     		.2byte	0x1
 1796 02bd 53       		.byte	0x53
 1797 02be 00000000 		.4byte	0
 1798 02c2 00000000 		.4byte	0
 1799              	.LLST20:
 1800 02c6 12000000 		.4byte	.LVL46
 1801 02ca 14000000 		.4byte	.LFE12
 1802 02ce 0100     		.2byte	0x1
 1803 02d0 53       		.byte	0x53
 1804 02d1 00000000 		.4byte	0
 1805 02d5 00000000 		.4byte	0
 1806              		.section	.debug_aranges,"",%progbits
 1807 0000 44000000 		.4byte	0x44
 1808 0004 0200     		.2byte	0x2
 1809 0006 00000000 		.4byte	.Ldebug_info0
 1810 000a 04       		.byte	0x4
 1811 000b 00       		.byte	0
 1812 000c 0000     		.2byte	0
 1813 000e 0000     		.2byte	0
 1814 0010 00000000 		.4byte	.LFB7
 1815 0014 0A000000 		.4byte	.LFE7-.LFB7
 1816 0018 00000000 		.4byte	.LFB8
ARM GAS  C:\Users\DNIEL~1\AppData\Local\Temp\ccMEaWPX.s 			page 33


 1817 001c 78000000 		.4byte	.LFE8-.LFB8
 1818 0020 00000000 		.4byte	.LFB9
 1819 0024 18000000 		.4byte	.LFE9-.LFB9
 1820 0028 00000000 		.4byte	.LFB10
 1821 002c 26000000 		.4byte	.LFE10-.LFB10
 1822 0030 00000000 		.4byte	.LFB11
 1823 0034 08000000 		.4byte	.LFE11-.LFB11
 1824 0038 00000000 		.4byte	.LFB12
 1825 003c 14000000 		.4byte	.LFE12-.LFB12
 1826 0040 00000000 		.4byte	0
 1827 0044 00000000 		.4byte	0
 1828              		.section	.debug_ranges,"",%progbits
 1829              	.Ldebug_ranges0:
 1830 0000 0C000000 		.4byte	.LBB16
 1831 0004 1E000000 		.4byte	.LBE16
 1832 0008 26000000 		.4byte	.LBB45
 1833 000c 38000000 		.4byte	.LBE45
 1834 0010 40000000 		.4byte	.LBB46
 1835 0014 52000000 		.4byte	.LBE46
 1836 0018 58000000 		.4byte	.LBB47
 1837 001c 6A000000 		.4byte	.LBE47
 1838 0020 00000000 		.4byte	0
 1839 0024 00000000 		.4byte	0
 1840 0028 0C000000 		.4byte	.LBB17
 1841 002c 12000000 		.4byte	.LBE17
 1842 0030 26000000 		.4byte	.LBB30
 1843 0034 2C000000 		.4byte	.LBE30
 1844 0038 40000000 		.4byte	.LBB35
 1845 003c 46000000 		.4byte	.LBE35
 1846 0040 58000000 		.4byte	.LBB40
 1847 0044 5E000000 		.4byte	.LBE40
 1848 0048 00000000 		.4byte	0
 1849 004c 00000000 		.4byte	0
 1850 0050 12000000 		.4byte	.LBB18
 1851 0054 14000000 		.4byte	.LBE18
 1852 0058 16000000 		.4byte	.LBB28
 1853 005c 1A000000 		.4byte	.LBE28
 1854 0060 2C000000 		.4byte	.LBB31
 1855 0064 2E000000 		.4byte	.LBE31
 1856 0068 30000000 		.4byte	.LBB33
 1857 006c 34000000 		.4byte	.LBE33
 1858 0070 46000000 		.4byte	.LBB36
 1859 0074 48000000 		.4byte	.LBE36
 1860 0078 4A000000 		.4byte	.LBB38
 1861 007c 4E000000 		.4byte	.LBE38
 1862 0080 5E000000 		.4byte	.LBB41
 1863 0084 60000000 		.4byte	.LBE41
 1864 0088 62000000 		.4byte	.LBB43
 1865 008c 66000000 		.4byte	.LBE43
 1866 0090 00000000 		.4byte	0
 1867 0094 00000000 		.4byte	0
 1868 0098 12000000 		.4byte	.LBB19
 1869 009c 14000000 		.4byte	.LBE19
 1870 00a0 16000000 		.4byte	.LBB20
 1871 00a4 1A000000 		.4byte	.LBE20
 1872 00a8 2C000000 		.4byte	.LBB21
 1873 00ac 2E000000 		.4byte	.LBE21
ARM GAS  C:\Users\DNIEL~1\AppData\Local\Temp\ccMEaWPX.s 			page 34


 1874 00b0 30000000 		.4byte	.LBB22
 1875 00b4 34000000 		.4byte	.LBE22
 1876 00b8 46000000 		.4byte	.LBB23
 1877 00bc 48000000 		.4byte	.LBE23
 1878 00c0 4A000000 		.4byte	.LBB24
 1879 00c4 4E000000 		.4byte	.LBE24
 1880 00c8 5E000000 		.4byte	.LBB25
 1881 00cc 60000000 		.4byte	.LBE25
 1882 00d0 62000000 		.4byte	.LBB26
 1883 00d4 66000000 		.4byte	.LBE26
 1884 00d8 00000000 		.4byte	0
 1885 00dc 00000000 		.4byte	0
 1886 00e0 14000000 		.4byte	.LBB27
 1887 00e4 16000000 		.4byte	.LBE27
 1888 00e8 1A000000 		.4byte	.LBB29
 1889 00ec 1E000000 		.4byte	.LBE29
 1890 00f0 2E000000 		.4byte	.LBB32
 1891 00f4 30000000 		.4byte	.LBE32
 1892 00f8 34000000 		.4byte	.LBB34
 1893 00fc 38000000 		.4byte	.LBE34
 1894 0100 48000000 		.4byte	.LBB37
 1895 0104 4A000000 		.4byte	.LBE37
 1896 0108 4E000000 		.4byte	.LBB39
 1897 010c 52000000 		.4byte	.LBE39
 1898 0110 60000000 		.4byte	.LBB42
 1899 0114 62000000 		.4byte	.LBE42
 1900 0118 66000000 		.4byte	.LBB44
 1901 011c 6A000000 		.4byte	.LBE44
 1902 0120 00000000 		.4byte	0
 1903 0124 00000000 		.4byte	0
 1904 0128 0A000000 		.4byte	.LBB49
 1905 012c 12000000 		.4byte	.LBE49
 1906 0130 1A000000 		.4byte	.LBB53
 1907 0134 26000000 		.4byte	.LBE53
 1908 0138 00000000 		.4byte	0
 1909 013c 00000000 		.4byte	0
 1910 0140 0A000000 		.4byte	.LBB50
 1911 0144 12000000 		.4byte	.LBE50
 1912 0148 1A000000 		.4byte	.LBB51
 1913 014c 26000000 		.4byte	.LBE51
 1914 0150 00000000 		.4byte	0
 1915 0154 00000000 		.4byte	0
 1916 0158 06000000 		.4byte	.LBB55
 1917 015c 08000000 		.4byte	.LBE55
 1918 0160 0A000000 		.4byte	.LBB59
 1919 0164 0E000000 		.4byte	.LBE59
 1920 0168 00000000 		.4byte	0
 1921 016c 00000000 		.4byte	0
 1922 0170 06000000 		.4byte	.LBB56
 1923 0174 08000000 		.4byte	.LBE56
 1924 0178 0A000000 		.4byte	.LBB57
 1925 017c 0E000000 		.4byte	.LBE57
 1926 0180 00000000 		.4byte	0
 1927 0184 00000000 		.4byte	0
 1928 0188 08000000 		.4byte	.LBB58
 1929 018c 0A000000 		.4byte	.LBE58
 1930 0190 0E000000 		.4byte	.LBB60
ARM GAS  C:\Users\DNIEL~1\AppData\Local\Temp\ccMEaWPX.s 			page 35


 1931 0194 14000000 		.4byte	.LBE60
 1932 0198 00000000 		.4byte	0
 1933 019c 00000000 		.4byte	0
 1934 01a0 00000000 		.4byte	.LFB7
 1935 01a4 0A000000 		.4byte	.LFE7
 1936 01a8 00000000 		.4byte	.LFB8
 1937 01ac 78000000 		.4byte	.LFE8
 1938 01b0 00000000 		.4byte	.LFB9
 1939 01b4 18000000 		.4byte	.LFE9
 1940 01b8 00000000 		.4byte	.LFB10
 1941 01bc 26000000 		.4byte	.LFE10
 1942 01c0 00000000 		.4byte	.LFB11
 1943 01c4 08000000 		.4byte	.LFE11
 1944 01c8 00000000 		.4byte	.LFB12
 1945 01cc 14000000 		.4byte	.LFE12
 1946 01d0 00000000 		.4byte	0
 1947 01d4 00000000 		.4byte	0
 1948              		.section	.debug_line,"",%progbits
 1949              	.Ldebug_line0:
 1950 0000 65020000 		.section	.debug_str,"MS",%progbits,1
 1950      02007A01 
 1950      00000201 
 1950      FB0E0D00 
 1950      01010101 
 1951              	.LASF2:
 1952 0000 73697A65 		.ascii	"size_t\000"
 1952      5F7400
 1953              	.LASF16:
 1954 0007 6D705F6F 		.ascii	"mp_object_size\000"
 1954      626A6563 
 1954      745F7369 
 1954      7A6500
 1955              	.LASF26:
 1956 0016 6368506F 		.ascii	"chPoolLoadArray\000"
 1956      6F6C4C6F 
 1956      61644172 
 1956      72617900 
 1957              	.LASF30:
 1958 0026 706F6F6C 		.ascii	"pool_header\000"
 1958      5F686561 
 1958      64657200 
 1959              	.LASF23:
 1960 0032 73697A65 		.ascii	"size\000"
 1960      00
 1961              	.LASF9:
 1962 0037 6C6F6E67 		.ascii	"long unsigned int\000"
 1962      20756E73 
 1962      69676E65 
 1962      6420696E 
 1962      7400
 1963              	.LASF6:
 1964 0049 73686F72 		.ascii	"short unsigned int\000"
 1964      7420756E 
 1964      7369676E 
 1964      65642069 
 1964      6E7400
 1965              	.LASF24:
ARM GAS  C:\Users\DNIEL~1\AppData\Local\Temp\ccMEaWPX.s 			page 36


 1966 005c 70726F76 		.ascii	"provider\000"
 1966      69646572 
 1966      00
 1967              	.LASF21:
 1968 0065 6368506F 		.ascii	"chPoolFreeI\000"
 1968      6F6C4672 
 1968      65654900 
 1969              	.LASF27:
 1970 0071 474E5520 		.ascii	"GNU C 4.7.4 20140401 (release) [ARM/embedded-4_7-br"
 1970      4320342E 
 1970      372E3420 
 1970      32303134 
 1970      30343031 
 1971 00a4 616E6368 		.ascii	"anch revision 209195]\000"
 1971      20726576 
 1971      6973696F 
 1971      6E203230 
 1971      39313935 
 1972              	.LASF22:
 1973 00ba 6368506F 		.ascii	"chPoolFree\000"
 1973      6F6C4672 
 1973      656500
 1974              	.LASF18:
 1975 00c5 4D656D6F 		.ascii	"MemoryPool\000"
 1975      7279506F 
 1975      6F6C00
 1976              	.LASF20:
 1977 00d0 6F626A70 		.ascii	"objp\000"
 1977      00
 1978              	.LASF29:
 1979 00d5 433A5C55 		.ascii	"C:\\Users\\D\341niel\\git\\Smarty\\smarty\\firmware"
 1979      73657273 
 1979      5C44E16E 
 1979      69656C5C 
 1979      6769745C 
 1980 00ff 00       		.ascii	"\000"
 1981              	.LASF31:
 1982 0100 6368506F 		.ascii	"chPoolAllocI\000"
 1982      6F6C416C 
 1982      6C6F6349 
 1982      00
 1983              	.LASF0:
 1984 010d 756E7369 		.ascii	"unsigned int\000"
 1984      676E6564 
 1984      20696E74 
 1984      00
 1985              	.LASF11:
 1986 011a 6C6F6E67 		.ascii	"long long unsigned int\000"
 1986      206C6F6E 
 1986      6720756E 
 1986      7369676E 
 1986      65642069 
 1987              	.LASF3:
 1988 0131 75696E74 		.ascii	"uint8_t\000"
 1988      385F7400 
 1989              	.LASF14:
 1990 0139 70685F6E 		.ascii	"ph_next\000"
ARM GAS  C:\Users\DNIEL~1\AppData\Local\Temp\ccMEaWPX.s 			page 37


 1990      65787400 
 1991              	.LASF28:
 1992 0141 2E2E2F2E 		.ascii	"../../../ChibiOS/os/kernel/src/chmempools.c\000"
 1992      2E2F2E2E 
 1992      2F436869 
 1992      62694F53 
 1992      2F6F732F 
 1993              	.LASF4:
 1994 016d 756E7369 		.ascii	"unsigned char\000"
 1994      676E6564 
 1994      20636861 
 1994      7200
 1995              	.LASF12:
 1996 017b 73697A65 		.ascii	"sizetype\000"
 1996      74797065 
 1996      00
 1997              	.LASF10:
 1998 0184 6C6F6E67 		.ascii	"long long int\000"
 1998      206C6F6E 
 1998      6720696E 
 1998      7400
 1999              	.LASF19:
 2000 0192 63686172 		.ascii	"char\000"
 2000      00
 2001              	.LASF13:
 2002 0197 6D656D67 		.ascii	"memgetfunc_t\000"
 2002      65746675 
 2002      6E635F74 
 2002      00
 2003              	.LASF17:
 2004 01a4 6D705F70 		.ascii	"mp_provider\000"
 2004      726F7669 
 2004      64657200 
 2005              	.LASF5:
 2006 01b0 73686F72 		.ascii	"short int\000"
 2006      7420696E 
 2006      7400
 2007              	.LASF32:
 2008 01ba 6368506F 		.ascii	"chPoolAlloc\000"
 2008      6F6C416C 
 2008      6C6F6300 
 2009              	.LASF8:
 2010 01c6 75696E74 		.ascii	"uint32_t\000"
 2010      33325F74 
 2010      00
 2011              	.LASF7:
 2012 01cf 6C6F6E67 		.ascii	"long int\000"
 2012      20696E74 
 2012      00
 2013              	.LASF1:
 2014 01d8 7369676E 		.ascii	"signed char\000"
 2014      65642063 
 2014      68617200 
 2015              	.LASF15:
 2016 01e4 6D705F6E 		.ascii	"mp_next\000"
 2016      65787400 
 2017              	.LASF25:
ARM GAS  C:\Users\DNIEL~1\AppData\Local\Temp\ccMEaWPX.s 			page 38


 2018 01ec 6368506F 		.ascii	"chPoolInit\000"
 2018      6F6C496E 
 2018      697400
 2019              		.ident	"GCC: (GNU Tools for ARM Embedded Processors) 4.7.4 20140401 (release) [ARM/embedded-4_7-br
ARM GAS  C:\Users\DNIEL~1\AppData\Local\Temp\ccMEaWPX.s 			page 39


DEFINED SYMBOLS
                            *ABS*:00000000 chmempools.c
C:\Users\DNIEL~1\AppData\Local\Temp\ccMEaWPX.s:19     .text.chPoolInit:00000000 $t
C:\Users\DNIEL~1\AppData\Local\Temp\ccMEaWPX.s:25     .text.chPoolInit:00000000 chPoolInit
C:\Users\DNIEL~1\AppData\Local\Temp\ccMEaWPX.s:46     .text.chPoolLoadArray:00000000 $t
C:\Users\DNIEL~1\AppData\Local\Temp\ccMEaWPX.s:52     .text.chPoolLoadArray:00000000 chPoolLoadArray
C:\Users\DNIEL~1\AppData\Local\Temp\ccMEaWPX.s:272    .text.chPoolAllocI:00000000 $t
C:\Users\DNIEL~1\AppData\Local\Temp\ccMEaWPX.s:278    .text.chPoolAllocI:00000000 chPoolAllocI
C:\Users\DNIEL~1\AppData\Local\Temp\ccMEaWPX.s:316    .text.chPoolAlloc:00000000 $t
C:\Users\DNIEL~1\AppData\Local\Temp\ccMEaWPX.s:322    .text.chPoolAlloc:00000000 chPoolAlloc
C:\Users\DNIEL~1\AppData\Local\Temp\ccMEaWPX.s:392    .text.chPoolFreeI:00000000 $t
C:\Users\DNIEL~1\AppData\Local\Temp\ccMEaWPX.s:398    .text.chPoolFreeI:00000000 chPoolFreeI
C:\Users\DNIEL~1\AppData\Local\Temp\ccMEaWPX.s:416    .text.chPoolFree:00000000 $t
C:\Users\DNIEL~1\AppData\Local\Temp\ccMEaWPX.s:422    .text.chPoolFree:00000000 chPoolFree
                     .debug_frame:00000010 $d

NO UNDEFINED SYMBOLS
