ARM GAS  C:\Users\DNIEL~1\AppData\Local\Temp\cc7w35Mg.s 			page 1


   1              		.syntax unified
   2              		.cpu cortex-m4
   3              		.fpu softvfp
   4              		.eabi_attribute 20, 1
   5              		.eabi_attribute 21, 1
   6              		.eabi_attribute 23, 3
   7              		.eabi_attribute 24, 1
   8              		.eabi_attribute 25, 1
   9              		.eabi_attribute 26, 1
  10              		.eabi_attribute 30, 2
  11              		.eabi_attribute 34, 1
  12              		.eabi_attribute 18, 4
  13              		.thumb
  14              		.file	"chmsg.c"
  15              		.text
  16              	.Ltext0:
  17              		.cfi_sections	.debug_frame
  18              		.section	.text.chMsgSend,"ax",%progbits
  19              		.align	2
  20              		.p2align 4,,15
  21              		.global	chMsgSend
  22              		.thumb
  23              		.thumb_func
  24              		.type	chMsgSend, %function
  25              	chMsgSend:
  26              	.LFB7:
  27              		.file 1 "../../../ChibiOS/os/kernel/src/chmsg.c"
  28              		.loc 1 75 0
  29              		.cfi_startproc
  30              		@ args = 0, pretend = 0, frame = 0
  31              		@ frame_needed = 0, uses_anonymous_args = 0
  32              	.LVL0:
  33              		.loc 1 76 0
  34 0000 0E4B     		ldr	r3, .L5
  35              		.loc 1 75 0
  36 0002 70B5     		push	{r4, r5, r6, lr}
  37              	.LCFI0:
  38              		.cfi_def_cfa_offset 16
  39              		.cfi_offset 4, -16
  40              		.cfi_offset 5, -12
  41              		.cfi_offset 6, -8
  42              		.cfi_offset 14, -4
  43              		.loc 1 76 0
  44 0004 9C69     		ldr	r4, [r3, #24]
  45              	.LVL1:
  46              	.LBB10:
  47              		.loc 1 80 0
  48 0006 2023     		movs	r3, #32
  49              	.LVL2:
  50              	@ 80 "../../../ChibiOS/os/kernel/src/chmsg.c" 1
  51 0008 83F31188 		msr     BASEPRI, r3
  52              	@ 0 "" 2
  53              	.LVL3:
  54              		.thumb
  55              	.LBE10:
  56              		.loc 1 82 0
  57 000c 00F12C05 		add	r5, r0, #44
ARM GAS  C:\Users\DNIEL~1\AppData\Local\Temp\cc7w35Mg.s 			page 2


  58 0010 6562     		str	r5, [r4, #36]
  59              	.LVL4:
  60              		.loc 1 84 0
  61 0012 067F     		ldrb	r6, [r0, #28]	@ zero_extendqisi2
  62              	.LBB11:
  63              	.LBB12:
  64              		.file 2 "../../../ChibiOS/os/kernel/include/chinline.h"
  65              		.loc 2 55 0
  66 0014 036B     		ldr	r3, [r0, #48]
  67              	.LVL5:
  68              		.loc 2 54 0
  69 0016 2560     		str	r5, [r4, #0]
  70              	.LBE12:
  71              	.LBE11:
  72              		.loc 1 84 0
  73 0018 0C2E     		cmp	r6, #12
  74              		.loc 1 81 0
  75 001a 6163     		str	r1, [r4, #52]
  76              	.LBB14:
  77              	.LBB13:
  78              		.loc 2 55 0
  79 001c 6360     		str	r3, [r4, #4]
  80              		.loc 2 56 0
  81 001e 0463     		str	r4, [r0, #48]
  82 0020 1C60     		str	r4, [r3, #0]
  83              	.LBE13:
  84              	.LBE14:
  85              		.loc 1 84 0
  86 0022 07D0     		beq	.L4
  87              	.LVL6:
  88              	.L2:
  89              		.loc 1 86 0
  90 0024 0A20     		movs	r0, #10
  91 0026 FFF7FEFF 		bl	chSchGoSleepS
  92              	.LVL7:
  93              		.loc 1 87 0
  94 002a 606A     		ldr	r0, [r4, #36]
  95              	.LVL8:
  96              	.LBB15:
  97              		.loc 1 88 0
  98 002c 0023     		movs	r3, #0
  99              	.LVL9:
 100              	@ 88 "../../../ChibiOS/os/kernel/src/chmsg.c" 1
 101 002e 83F31188 		msr     BASEPRI, r3
 102              	@ 0 "" 2
 103              	.LVL10:
 104              		.thumb
 105              	.LBE15:
 106              		.loc 1 90 0
 107 0032 70BD     		pop	{r4, r5, r6, pc}
 108              	.LVL11:
 109              	.L4:
 110              		.loc 1 85 0
 111 0034 FFF7FEFF 		bl	chSchReadyI
 112              	.LVL12:
 113 0038 F4E7     		b	.L2
 114              	.L6:
ARM GAS  C:\Users\DNIEL~1\AppData\Local\Temp\cc7w35Mg.s 			page 3


 115 003a 00BF     		.align	2
 116              	.L5:
 117 003c 00000000 		.word	rlist
 118              		.cfi_endproc
 119              	.LFE7:
 120              		.size	chMsgSend, .-chMsgSend
 121              		.section	.text.chMsgWait,"ax",%progbits
 122              		.align	2
 123              		.p2align 4,,15
 124              		.global	chMsgWait
 125              		.thumb
 126              		.thumb_func
 127              		.type	chMsgWait, %function
 128              	chMsgWait:
 129              	.LFB8:
 130              		.loc 1 106 0
 131              		.cfi_startproc
 132              		@ args = 0, pretend = 0, frame = 0
 133              		@ frame_needed = 0, uses_anonymous_args = 0
 134 0000 10B5     		push	{r4, lr}
 135              	.LCFI1:
 136              		.cfi_def_cfa_offset 8
 137              		.cfi_offset 4, -8
 138              		.cfi_offset 14, -4
 139              	.LBB16:
 140              		.loc 1 109 0
 141 0002 2023     		movs	r3, #32
 142              	.LVL13:
 143              	@ 109 "../../../ChibiOS/os/kernel/src/chmsg.c" 1
 144 0004 83F31188 		msr     BASEPRI, r3
 145              	@ 0 "" 2
 146              	.LVL14:
 147              		.thumb
 148              	.LBE16:
 149              		.loc 1 110 0
 150 0008 0B4C     		ldr	r4, .L10
 151 000a A369     		ldr	r3, [r4, #24]
 152              	.LVL15:
 153 000c 1A46     		mov	r2, r3
 154 000e 52F82C0F 		ldr	r0, [r2, #44]!
 155 0012 9042     		cmp	r0, r2
 156 0014 08D0     		beq	.L9
 157              	.L8:
 158              	.LVL16:
 159              	.LBB17:
 160              	.LBB18:
 161              		.loc 2 62 0
 162 0016 0168     		ldr	r1, [r0, #0]
 163 0018 D962     		str	r1, [r3, #44]
 164 001a 4A60     		str	r2, [r1, #4]
 165              	.LBE18:
 166              	.LBE17:
 167              		.loc 1 113 0
 168 001c 0B22     		movs	r2, #11
 169              	.LBB19:
 170              		.loc 1 114 0
 171 001e 0023     		movs	r3, #0
ARM GAS  C:\Users\DNIEL~1\AppData\Local\Temp\cc7w35Mg.s 			page 4


 172              	.LVL17:
 173              	.LBE19:
 174              		.loc 1 113 0
 175 0020 0277     		strb	r2, [r0, #28]
 176              	.LBB20:
 177              		.loc 1 114 0
 178              	@ 114 "../../../ChibiOS/os/kernel/src/chmsg.c" 1
 179 0022 83F31188 		msr     BASEPRI, r3
 180              	@ 0 "" 2
 181              	.LVL18:
 182              		.thumb
 183              	.LBE20:
 184              		.loc 1 116 0
 185 0026 10BD     		pop	{r4, pc}
 186              	.LVL19:
 187              	.L9:
 188              		.loc 1 111 0
 189 0028 0C20     		movs	r0, #12
 190 002a FFF7FEFF 		bl	chSchGoSleepS
 191              	.LVL20:
 192 002e A369     		ldr	r3, [r4, #24]
 193 0030 1A46     		mov	r2, r3
 194 0032 52F82C0F 		ldr	r0, [r2, #44]!
 195 0036 EEE7     		b	.L8
 196              	.L11:
 197              		.align	2
 198              	.L10:
 199 0038 00000000 		.word	rlist
 200              		.cfi_endproc
 201              	.LFE8:
 202              		.size	chMsgWait, .-chMsgWait
 203 003c AFF30080 		.section	.text.chMsgRelease,"ax",%progbits
 204              		.align	2
 205              		.p2align 4,,15
 206              		.global	chMsgRelease
 207              		.thumb
 208              		.thumb_func
 209              		.type	chMsgRelease, %function
 210              	chMsgRelease:
 211              	.LFB9:
 212              		.loc 1 128 0
 213              		.cfi_startproc
 214              		@ args = 0, pretend = 0, frame = 0
 215              		@ frame_needed = 0, uses_anonymous_args = 0
 216              	.LVL21:
 217 0000 08B5     		push	{r3, lr}
 218              	.LCFI2:
 219              		.cfi_def_cfa_offset 8
 220              		.cfi_offset 3, -8
 221              		.cfi_offset 14, -4
 222              	.LBB21:
 223              		.loc 1 130 0
 224 0002 2023     		movs	r3, #32
 225              	.LVL22:
 226              	@ 130 "../../../ChibiOS/os/kernel/src/chmsg.c" 1
 227 0004 83F31188 		msr     BASEPRI, r3
 228              	@ 0 "" 2
ARM GAS  C:\Users\DNIEL~1\AppData\Local\Temp\cc7w35Mg.s 			page 5


 229              	.LVL23:
 230              		.thumb
 231              	.LBE21:
 232              		.loc 1 133 0
 233 0008 FFF7FEFF 		bl	chSchWakeupS
 234              	.LVL24:
 235              	.LBB22:
 236              		.loc 1 134 0
 237 000c 0023     		movs	r3, #0
 238              	.LVL25:
 239              	@ 134 "../../../ChibiOS/os/kernel/src/chmsg.c" 1
 240 000e 83F31188 		msr     BASEPRI, r3
 241              	@ 0 "" 2
 242              	.LVL26:
 243              		.thumb
 244 0012 08BD     		pop	{r3, pc}
 245              	.LBE22:
 246              		.cfi_endproc
 247              	.LFE9:
 248              		.size	chMsgRelease, .-chMsgRelease
 249 0014 AFF30080 		.text
 249      AFF30080 
 249      AFF30080 
 250              	.Letext0:
 251              		.file 3 "c:\\chibistudio\\tools\\gnu tools arm embedded\\4.7 2014q2\\bin\\../lib/gcc/arm-none-eabi
 252              		.file 4 "../../../ChibiOS/os/ports/GCC/ARMCMx/chtypes.h"
 253              		.file 5 "../../../ChibiOS/os/kernel/include/chlists.h"
 254              		.file 6 "../../../ChibiOS/os/kernel/include/chthreads.h"
 255              		.file 7 "../../../ChibiOS/os/ports/GCC/ARMCMx/chcore_v7m.h"
 256              		.file 8 "../../../ChibiOS/os/kernel/include/chschd.h"
 257              		.file 9 "../../../ChibiOS/os/kernel/include/chmtx.h"