ARM GAS  C:\Users\DNIEL~1\AppData\Local\Temp\ccjSd1Uf.s 			page 1


   1              		.syntax unified
   2              		.cpu cortex-m4
   3              		.fpu softvfp
   4              		.eabi_attribute 20, 1
   5              		.eabi_attribute 21, 1
   6              		.eabi_attribute 23, 3
   7              		.eabi_attribute 24, 1
   8              		.eabi_attribute 25, 1
   9              		.eabi_attribute 26, 1
  10              		.eabi_attribute 30, 2
  11              		.eabi_attribute 34, 1
  12              		.eabi_attribute 18, 4
  13              		.thumb
  14              		.file	"chprintf.c"
  15              		.text
  16              	.Ltext0:
  17              		.cfi_sections	.debug_frame
  18              		.section	.text.long_to_string_with_divisor.constprop.0,"ax",%progbits
  19              		.align	2
  20              		.p2align 4,,15
  21              		.thumb
  22              		.thumb_func
  23              		.type	long_to_string_with_divisor.constprop.0, %function
  24              	long_to_string_with_divisor.constprop.0:
  25              	.LFB12:
  26              		.file 1 "../../../ChibiOS/os/various/chprintf.c"
  27              		.loc 1 37 0
  28              		.cfi_startproc
  29              		@ args = 0, pretend = 0, frame = 0
  30              		@ frame_needed = 0, uses_anonymous_args = 0
  31              		@ link register save eliminated.
  32              	.LVL0:
  33 0000 F0B4     		push	{r4, r5, r6, r7}
  34              	.LCFI0:
  35              		.cfi_def_cfa_offset 16
  36              		.cfi_offset 4, -16
  37              		.cfi_offset 5, -12
  38              		.cfi_offset 6, -8
  39              		.cfi_offset 7, -4
  40              		.loc 1 52 0
  41 0002 00F10B0C 		add	ip, r0, #11
  42              		.loc 1 37 0
  43 0006 0746     		mov	r7, r0
  44              	.LVL1:
  45 0008 00F10A05 		add	r5, r0, #10
  46 000c 0C46     		mov	r4, r1
  47              	.LVL2:
  48              	.L3:
  49              		.loc 1 54 0
  50 000e B1FBF2F6 		udiv	r6, r1, r2
  51 0012 02FB1611 		mls	r1, r2, r6, r1
  52              	.LVL3:
  53              		.loc 1 55 0
  54 0016 01F13003 		add	r3, r1, #48
  55              	.LVL4:
  56              		.loc 1 56 0
  57 001a 392B     		cmp	r3, #57
ARM GAS  C:\Users\DNIEL~1\AppData\Local\Temp\ccjSd1Uf.s 			page 2


  58              		.loc 1 57 0
  59 001c C8BF     		it	gt
  60 001e 01F13703 		addgt	r3, r1, #55
  61              	.LVL5:
  62              		.loc 1 58 0
  63 0022 DBB2     		uxtb	r3, r3
  64              	.LVL6:
  65              		.loc 1 60 0
  66 0024 B4FBF2F4 		udiv	r4, r4, r2
  67              	.LVL7:
  68              		.loc 1 58 0
  69 0028 2846     		mov	r0, r5
  70              	.LVL8:
  71              		.loc 1 59 0
  72 002a 3146     		mov	r1, r6
  73              	.LVL9:
  74              		.loc 1 58 0
  75 002c 05F80139 		strb	r3, [r5], #-1
  76              	.LVL10:
  77              		.loc 1 60 0
  78 0030 002C     		cmp	r4, #0
  79 0032 ECD1     		bne	.L3
  80              	.LVL11:
  81              		.loc 1 62 0
  82 0034 C0EB0C02 		rsb	r2, r0, ip
  83              	.LVL12:
  84 0038 0146     		mov	r1, r0
  85              	.LVL13:
  86              		.loc 1 37 0
  87 003a B818     		adds	r0, r7, r2
  88              	.LVL14:
  89 003c FA43     		mvns	r2, r7
  90              	.LVL15:
  91 003e 8218     		adds	r2, r0, r2
  92 0040 D207     		lsls	r2, r2, #31
  93 0042 0AD5     		bpl	.L5
  94              	.LVL16:
  95              		.loc 1 64 0
  96 0044 07F8013B 		strb	r3, [r7], #1
  97              	.LVL17:
  98 0048 11F8013F 		ldrb	r3, [r1, #1]!	@ zero_extendqisi2
  99 004c 05E0     		b	.L5
 100              	.L15:
 101 004e 11F8013F 		ldrb	r3, [r1, #1]!	@ zero_extendqisi2
 102              	.LVL18:
 103 0052 7B70     		strb	r3, [r7, #1]
 104 0054 11F8013F 		ldrb	r3, [r1, #1]!	@ zero_extendqisi2
 105 0058 571C     		adds	r7, r2, #1
 106              	.LVL19:
 107              	.L5:
 108 005a 3A46     		mov	r2, r7
 109 005c 02F8013B 		strb	r3, [r2], #1
 110              		.loc 1 65 0
 111 0060 8242     		cmp	r2, r0
 112 0062 F4D1     		bne	.L15
 113              		.loc 1 68 0
 114 0064 F0BC     		pop	{r4, r5, r6, r7}
ARM GAS  C:\Users\DNIEL~1\AppData\Local\Temp\ccjSd1Uf.s 			page 3


 115 0066 7047     		bx	lr
 116              		.cfi_endproc
 117              	.LFE12:
 118              		.size	long_to_string_with_divisor.constprop.0, .-long_to_string_with_divisor.constprop.0
 119 0068 AFF30080 		.section	.text.chvprintf,"ax",%progbits
 119      AFF30080 
 120              		.align	2
 121              		.p2align 4,,15
 122              		.global	chvprintf
 123              		.thumb
 124              		.thumb_func
 125              		.type	chvprintf, %function
 126              	chvprintf:
 127              	.LFB10:
 128              		.loc 1 112 0
 129              		.cfi_startproc
 130              		@ args = 0, pretend = 0, frame = 32
 131              		@ frame_needed = 0, uses_anonymous_args = 0
 132              	.LVL20:
 133 0000 2DE9F04F 		push	{r4, r5, r6, r7, r8, r9, sl, fp, lr}
 134              	.LCFI1:
 135              		.cfi_def_cfa_offset 36
 136              		.cfi_offset 4, -36
 137              		.cfi_offset 5, -32
 138              		.cfi_offset 6, -28
 139              		.cfi_offset 7, -24
 140              		.cfi_offset 8, -20
 141              		.cfi_offset 9, -16
 142              		.cfi_offset 10, -12
 143              		.cfi_offset 11, -8
 144              		.cfi_offset 14, -4
 145 0004 89B0     		sub	sp, sp, #36
 146              	.LCFI2:
 147              		.cfi_def_cfa_offset 72
 148              		.loc 1 132 0
 149 0006 05AB     		add	r3, sp, #20
 150              		.loc 1 236 0
 151 0008 0DF1150C 		add	ip, sp, #21
 152              		.loc 1 112 0
 153 000c 0546     		mov	r5, r0
 154 000e C3EB0C00 		rsb	r0, r3, ip
 155              	.LVL21:
 156              		.loc 1 132 0
 157 0012 0293     		str	r3, [sp, #8]
 158              		.loc 1 236 0
 159 0014 CDF804C0 		str	ip, [sp, #4]
 160              		.loc 1 112 0
 161 0018 0C46     		mov	r4, r1
 162 001a 1646     		mov	r6, r2
 163 001c 0390     		str	r0, [sp, #12]
 164              	.LVL22:
 165              	.L112:
 166              		.loc 1 125 0
 167 001e 2746     		mov	r7, r4
 168 0020 17F8011B 		ldrb	r1, [r7], #1	@ zero_extendqisi2
 169              	.LVL23:
 170              		.loc 1 126 0
ARM GAS  C:\Users\DNIEL~1\AppData\Local\Temp\ccjSd1Uf.s 			page 4


 171 0024 59B1     		cbz	r1, .L16
 172              	.LVL24:
 173              	.L126:
 174              		.loc 1 128 0
 175 0026 2529     		cmp	r1, #37
 176 0028 0CD0     		beq	.L19
 177              		.loc 1 129 0
 178 002a 2B68     		ldr	r3, [r5, #0]
 179              		.loc 1 125 0
 180 002c 3C46     		mov	r4, r7
 181 002e 2746     		mov	r7, r4
 182              	.LVL25:
 183              		.loc 1 129 0
 184 0030 2846     		mov	r0, r5
 185 0032 9A68     		ldr	r2, [r3, #8]
 186              	.LVL26:
 187 0034 9047     		blx	r2
 188              	.LVL27:
 189              		.loc 1 125 0
 190 0036 17F8011B 		ldrb	r1, [r7], #1	@ zero_extendqisi2
 191              	.LVL28:
 192              		.loc 1 126 0
 193 003a 0029     		cmp	r1, #0
 194 003c F3D1     		bne	.L126
 195              	.LVL29:
 196              	.L16:
 197              		.loc 1 261 0
 198 003e 09B0     		add	sp, sp, #36
 199 0040 BDE8F08F 		pop	{r4, r5, r6, r7, r8, r9, sl, fp, pc}
 200              	.L19:
 201              	.LVL30:
 202              		.loc 1 135 0
 203 0044 6378     		ldrb	r3, [r4, #1]	@ zero_extendqisi2
 204 0046 2D2B     		cmp	r3, #45
 205 0048 00F07C81 		beq	.L127
 206              		.loc 1 134 0
 207 004c 4FF00009 		mov	r9, #0
 208              	.LVL31:
 209              	.L21:
 210              		.loc 1 140 0
 211 0050 2E2B     		cmp	r3, #46
 212 0052 00F05E81 		beq	.L22
 213              		.loc 1 140 0 is_stmt 0 discriminator 1
 214 0056 302B     		cmp	r3, #48
 215 0058 00F05B81 		beq	.L22
 216              		.loc 1 139 0 is_stmt 1
 217 005c 4FF02008 		mov	r8, #32
 218              	.LVL32:
 219              	.L23:
 220              		.loc 1 142 0
 221 0060 3C46     		mov	r4, r7
 222              		.loc 1 144 0
 223 0062 0027     		movs	r7, #0
 224              	.LVL33:
 225 0064 06E0     		b	.L26
 226              	.LVL34:
 227              	.L128:
ARM GAS  C:\Users\DNIEL~1\AppData\Local\Temp\ccjSd1Uf.s 			page 5


 228              		.loc 1 150 0
 229 0066 3178     		ldrb	r1, [r6, #0]	@ zero_extendqisi2
 230              	.LVL35:
 231 0068 0436     		adds	r6, r6, #4
 232              	.LVL36:
 233              	.L24:
 234              		.loc 1 153 0
 235 006a 07EB8707 		add	r7, r7, r7, lsl #2
 236              	.LVL37:
 237 006e 2378     		ldrb	r3, [r4, #0]	@ zero_extendqisi2
 238 0070 01EB4707 		add	r7, r1, r7, lsl #1
 239              	.LVL38:
 240              	.L26:
 241              		.loc 1 147 0
 242 0074 A3F13002 		sub	r2, r3, #48
 243              	.LVL39:
 244 0078 D1B2     		uxtb	r1, r2
 245              		.loc 1 146 0
 246 007a 0134     		adds	r4, r4, #1
 247              	.LVL40:
 248              		.loc 1 147 0
 249 007c 0929     		cmp	r1, #9
 250 007e F4D9     		bls	.L24
 251              	.LVL41:
 252              		.loc 1 149 0
 253 0080 2A2B     		cmp	r3, #42
 254 0082 F0D0     		beq	.L128
 255              	.LVL42:
 256              		.loc 1 156 0
 257 0084 2E2B     		cmp	r3, #46
 258 0086 00F04981 		beq	.L129
 259              		.loc 1 155 0
 260 008a 0021     		movs	r1, #0
 261              	.LVL43:
 262              	.L27:
 263              		.loc 1 170 0
 264 008c 6C2B     		cmp	r3, #108
 265 008e 00F03981 		beq	.L30
 266              		.loc 1 170 0 is_stmt 0 discriminator 1
 267 0092 4C2B     		cmp	r3, #76
 268 0094 00F03681 		beq	.L30
 269              	.LVL44:
 270              	.L32:
 271              		.loc 1 179 0 is_stmt 1
 272 0098 A3F14400 		sub	r0, r3, #68
 273 009c 3428     		cmp	r0, #52
 274 009e 00F22A81 		bhi	.L33
 275 00a2 DFE810F0 		tbh	[pc, r0, lsl #1]
 276              	.L40:
 277 00a6 1A01     		.2byte	(.L34-.L40)/2
 278 00a8 2801     		.2byte	(.L33-.L40)/2
 279 00aa 2801     		.2byte	(.L33-.L40)/2
 280 00ac 2801     		.2byte	(.L33-.L40)/2
 281 00ae 2801     		.2byte	(.L33-.L40)/2
 282 00b0 1A01     		.2byte	(.L34-.L40)/2
 283 00b2 2801     		.2byte	(.L33-.L40)/2
 284 00b4 2801     		.2byte	(.L33-.L40)/2
ARM GAS  C:\Users\DNIEL~1\AppData\Local\Temp\ccjSd1Uf.s 			page 6


 285 00b6 2801     		.2byte	(.L33-.L40)/2
 286 00b8 2801     		.2byte	(.L33-.L40)/2
 287 00ba 2801     		.2byte	(.L33-.L40)/2
 288 00bc 1801     		.2byte	(.L35-.L40)/2
 289 00be 2801     		.2byte	(.L33-.L40)/2
 290 00c0 2801     		.2byte	(.L33-.L40)/2
 291 00c2 2801     		.2byte	(.L33-.L40)/2
 292 00c4 2801     		.2byte	(.L33-.L40)/2
 293 00c6 2801     		.2byte	(.L33-.L40)/2
 294 00c8 1601     		.2byte	(.L63-.L40)/2
 295 00ca 2801     		.2byte	(.L33-.L40)/2
 296 00cc 2801     		.2byte	(.L33-.L40)/2
 297 00ce 0901     		.2byte	(.L37-.L40)/2
 298 00d0 2801     		.2byte	(.L33-.L40)/2
 299 00d2 2801     		.2byte	(.L33-.L40)/2
 300 00d4 2801     		.2byte	(.L33-.L40)/2
 301 00d6 2801     		.2byte	(.L33-.L40)/2
 302 00d8 2801     		.2byte	(.L33-.L40)/2
 303 00da 2801     		.2byte	(.L33-.L40)/2
 304 00dc 2801     		.2byte	(.L33-.L40)/2
 305 00de 2801     		.2byte	(.L33-.L40)/2
 306 00e0 2801     		.2byte	(.L33-.L40)/2
 307 00e2 2801     		.2byte	(.L33-.L40)/2
 308 00e4 CD00     		.2byte	(.L38-.L40)/2
 309 00e6 1A01     		.2byte	(.L34-.L40)/2
 310 00e8 2801     		.2byte	(.L33-.L40)/2
 311 00ea 2801     		.2byte	(.L33-.L40)/2
 312 00ec 2801     		.2byte	(.L33-.L40)/2
 313 00ee 2801     		.2byte	(.L33-.L40)/2
 314 00f0 1A01     		.2byte	(.L34-.L40)/2
 315 00f2 2801     		.2byte	(.L33-.L40)/2
 316 00f4 2801     		.2byte	(.L33-.L40)/2
 317 00f6 2801     		.2byte	(.L33-.L40)/2
 318 00f8 2801     		.2byte	(.L33-.L40)/2
 319 00fa 2801     		.2byte	(.L33-.L40)/2
 320 00fc 1801     		.2byte	(.L35-.L40)/2
 321 00fe 2801     		.2byte	(.L33-.L40)/2
 322 0100 2801     		.2byte	(.L33-.L40)/2
 323 0102 2801     		.2byte	(.L33-.L40)/2
 324 0104 3500     		.2byte	(.L39-.L40)/2
 325 0106 2801     		.2byte	(.L33-.L40)/2
 326 0108 1601     		.2byte	(.L63-.L40)/2
 327 010a 2801     		.2byte	(.L33-.L40)/2
 328 010c 2801     		.2byte	(.L33-.L40)/2
 329 010e 0901     		.2byte	(.L37-.L40)/2
 330              	.L39:
 331              	.LVL45:
 332              		.loc 1 186 0
 333 0110 3268     		ldr	r2, [r6, #0]
 334              		.loc 1 187 0
 335 0112 40F2000A 		movw	sl, #:lower16:.LC0
 336 0116 C0F2000A 		movt	sl, #:upper16:.LC0
 337 011a 002A     		cmp	r2, #0
 338 011c 18BF     		it	ne
 339 011e 9246     		movne	sl, r2
 340              		.loc 1 189 0
 341 0120 47F6FF70 		movw	r0, #32767
ARM GAS  C:\Users\DNIEL~1\AppData\Local\Temp\ccjSd1Uf.s 			page 7


 342              		.loc 1 190 0
 343 0124 9AF80030 		ldrb	r3, [sl, #0]	@ zero_extendqisi2
 344              	.LVL46:
 345              		.loc 1 186 0
 346 0128 0436     		adds	r6, r6, #4
 347              	.LVL47:
 348              		.loc 1 189 0
 349 012a 0029     		cmp	r1, #0
 350 012c 08BF     		it	eq
 351 012e 0146     		moveq	r1, r0
 352              	.LVL48:
 353              		.loc 1 190 0
 354 0130 002B     		cmp	r3, #0
 355 0132 00F01F81 		beq	.L66
 356              		.loc 1 112 0
 357 0136 0AEB0100 		add	r0, sl, r1
 358              		.loc 1 190 0
 359 013a 9AF80130 		ldrb	r3, [sl, #1]	@ zero_extendqisi2
 360 013e 6FEA0A01 		mvn	r1, sl
 361 0142 0A18     		adds	r2, r1, r0
 362 0144 02F00101 		and	r1, r2, #1
 363              		.loc 1 112 0
 364 0148 0AF1010B 		add	fp, sl, #1
 365              	.LVL49:
 366              		.loc 1 190 0
 367 014c D3B1     		cbz	r3, .L114
 368 014e 8345     		cmp	fp, r0
 369 0150 5B46     		mov	r3, fp
 370 0152 17D0     		beq	.L114
 371 0154 79B1     		cbz	r1, .L45
 372 0156 9BF80130 		ldrb	r3, [fp, #1]	@ zero_extendqisi2
 373              		.loc 1 112 0
 374 015a 0BF1010B 		add	fp, fp, #1
 375              	.LVL50:
 376              		.loc 1 190 0
 377 015e 8BB1     		cbz	r3, .L114
 378 0160 8345     		cmp	fp, r0
 379 0162 5B46     		mov	r3, fp
 380 0164 07D1     		bne	.L45
 381 0166 0DE0     		b	.L114
 382              	.LVL51:
 383              	.L44:
 384              		.loc 1 190 0 is_stmt 0 discriminator 2
 385 0168 9BF80110 		ldrb	r1, [fp, #1]	@ zero_extendqisi2
 386              		.loc 1 112 0 is_stmt 1 discriminator 2
 387 016c 0BF1010B 		add	fp, fp, #1
 388              	.LVL52:
 389              		.loc 1 190 0 discriminator 2
 390 0170 41B1     		cbz	r1, .L114
 391              		.loc 1 190 0 is_stmt 0
 392 0172 8345     		cmp	fp, r0
 393 0174 06D0     		beq	.L114
 394              	.L45:
 395              		.loc 1 112 0 is_stmt 1 discriminator 1
 396 0176 03F1010B 		add	fp, r3, #1
 397              	.LVL53:
 398              		.loc 1 190 0 discriminator 1
ARM GAS  C:\Users\DNIEL~1\AppData\Local\Temp\ccjSd1Uf.s 			page 8


 399 017a 5978     		ldrb	r1, [r3, #1]	@ zero_extendqisi2
 400 017c 5A46     		mov	r2, fp
 401 017e 531C     		adds	r3, r2, #1
 402 0180 0029     		cmp	r1, #0
 403 0182 F1D1     		bne	.L44
 404              	.L114:
 405 0184 CAEB0B0B 		rsb	fp, sl, fp
 406              	.LVL54:
 407              		.loc 1 240 0
 408 0188 CBEB0707 		rsb	r7, fp, r7
 409              	.LVL55:
 410              		.loc 1 185 0
 411 018c 4FF02008 		mov	r8, #32
 412              	.LVL56:
 413 0190 27EAE777 		bic	r7, r7, r7, asr #31
 414              	.LVL57:
 415              		.loc 1 242 0
 416 0194 B9F1000F 		cmp	r9, #0
 417 0198 63D0     		beq	.L130
 418              	.LVL58:
 419              	.L51:
 420              		.loc 1 253 0 discriminator 1
 421 019a BBF1000F 		cmp	fp, #0
 422 019e 27DD     		ble	.L57
 423              		.loc 1 254 0
 424 01a0 D146     		mov	r9, sl
 425 01a2 2868     		ldr	r0, [r5, #0]
 426 01a4 19F8011B 		ldrb	r1, [r9], #1	@ zero_extendqisi2
 427 01a8 8368     		ldr	r3, [r0, #8]
 428              		.loc 1 112 0
 429 01aa D344     		add	fp, sl, fp
 430              	.LVL59:
 431 01ac 6FEA0A0A 		mvn	sl, sl
 432              	.LVL60:
 433 01b0 0BEB0A02 		add	r2, fp, sl
 434              		.loc 1 254 0
 435 01b4 2846     		mov	r0, r5
 436 01b6 02F0010A 		and	sl, r2, #1
 437              	.LVL61:
 438 01ba 9847     		blx	r3
 439              	.LVL62:
 440              		.loc 1 253 0
 441 01bc D945     		cmp	r9, fp
 442 01be 17D0     		beq	.L57
 443 01c0 BAF1000F 		cmp	sl, #0
 444 01c4 03D0     		beq	.L56
 445              	.LVL63:
 446              		.loc 1 254 0
 447 01c6 2868     		ldr	r0, [r5, #0]
 448 01c8 19F8011B 		ldrb	r1, [r9], #1	@ zero_extendqisi2
 449 01cc 0BE0     		b	.L125
 450              	.L56:
 451 01ce 2868     		ldr	r0, [r5, #0]
 452 01d0 CA46     		mov	sl, r9
 453 01d2 8268     		ldr	r2, [r0, #8]
 454 01d4 1AF8011B 		ldrb	r1, [sl], #1	@ zero_extendqisi2
 455 01d8 2846     		mov	r0, r5
ARM GAS  C:\Users\DNIEL~1\AppData\Local\Temp\ccjSd1Uf.s 			page 9


 456 01da 9047     		blx	r2
 457              	.LVL64:
 458 01dc 2868     		ldr	r0, [r5, #0]
 459 01de 99F80110 		ldrb	r1, [r9, #1]	@ zero_extendqisi2
 460 01e2 0AF10109 		add	r9, sl, #1
 461              	.L125:
 462 01e6 8368     		ldr	r3, [r0, #8]
 463 01e8 2846     		mov	r0, r5
 464 01ea 9847     		blx	r3
 465              	.LVL65:
 466              		.loc 1 253 0
 467 01ec D945     		cmp	r9, fp
 468 01ee EED1     		bne	.L56
 469              	.L57:
 470              	.LVL66:
 471              		.loc 1 256 0
 472 01f0 002F     		cmp	r7, #0
 473 01f2 3FF414AF 		beq	.L112
 474              		.loc 1 257 0
 475 01f6 2968     		ldr	r1, [r5, #0]
 476 01f8 7B1E     		subs	r3, r7, #1
 477 01fa 8A68     		ldr	r2, [r1, #8]
 478              		.loc 1 256 0
 479 01fc 1F46     		mov	r7, r3
 480              	.LVL67:
 481              		.loc 1 257 0
 482 01fe 2846     		mov	r0, r5
 483 0200 4146     		mov	r1, r8
 484 0202 03F00109 		and	r9, r3, #1
 485 0206 9047     		blx	r2
 486              	.LVL68:
 487              		.loc 1 256 0
 488 0208 002F     		cmp	r7, #0
 489 020a 3FF408AF 		beq	.L112
 490 020e B9F1000F 		cmp	r9, #0
 491 0212 07D0     		beq	.L74
 492              		.loc 1 257 0
 493 0214 2968     		ldr	r1, [r5, #0]
 494 0216 2846     		mov	r0, r5
 495 0218 8B68     		ldr	r3, [r1, #8]
 496 021a 4146     		mov	r1, r8
 497 021c 9847     		blx	r3
 498              	.LVL69:
 499              		.loc 1 256 0
 500 021e 013F     		subs	r7, r7, #1
 501 0220 3FF4FDAE 		beq	.L112
 502              	.L74:
 503              		.loc 1 257 0
 504 0224 2868     		ldr	r0, [r5, #0]
 505 0226 4146     		mov	r1, r8
 506 0228 8268     		ldr	r2, [r0, #8]
 507 022a 2846     		mov	r0, r5
 508 022c 9047     		blx	r2
 509              	.LVL70:
 510 022e 2968     		ldr	r1, [r5, #0]
 511              		.loc 1 258 0
 512 0230 013F     		subs	r7, r7, #1
ARM GAS  C:\Users\DNIEL~1\AppData\Local\Temp\ccjSd1Uf.s 			page 10


 513              		.loc 1 257 0
 514 0232 8B68     		ldr	r3, [r1, #8]
 515 0234 2846     		mov	r0, r5
 516 0236 4146     		mov	r1, r8
 517 0238 9847     		blx	r3
 518              	.LVL71:
 519              		.loc 1 256 0
 520 023a 013F     		subs	r7, r7, #1
 521 023c F2D1     		bne	.L74
 522 023e EEE6     		b	.L112
 523              	.LVL72:
 524              	.L38:
 525              		.loc 1 182 0
 526 0240 3068     		ldr	r0, [r6, #0]
 527 0242 DDF80CB0 		ldr	fp, [sp, #12]
 528 0246 8DF81400 		strb	r0, [sp, #20]
 529              	.LVL73:
 530 024a 0436     		adds	r6, r6, #4
 531              	.LVL74:
 532              		.loc 1 181 0
 533 024c 4FF02008 		mov	r8, #32
 534              		.loc 1 133 0
 535 0250 0DF1140A 		add	sl, sp, #20
 536              	.LVL75:
 537              	.L41:
 538              		.loc 1 240 0
 539 0254 CBEB0707 		rsb	r7, fp, r7
 540              	.LVL76:
 541 0258 27EAE777 		bic	r7, r7, r7, asr #31
 542              	.LVL77:
 543              		.loc 1 242 0
 544 025c B9F1000F 		cmp	r9, #0
 545 0260 9BD1     		bne	.L51
 546              	.LVL78:
 547              	.L130:
 548              		.loc 1 243 0
 549 0262 7F42     		negs	r7, r7
 550              	.LVL79:
 551              		.loc 1 244 0
 552 0264 002F     		cmp	r7, #0
 553 0266 98D0     		beq	.L51
 554              		.loc 1 245 0
 555 0268 9AF80010 		ldrb	r1, [sl, #0]	@ zero_extendqisi2
 556 026c 2D29     		cmp	r1, #45
 557 026e 6ED0     		beq	.L131
 558              	.L99:
 559              		.loc 1 250 0
 560 0270 2968     		ldr	r1, [r5, #0]
 561 0272 2846     		mov	r0, r5
 562 0274 8A68     		ldr	r2, [r1, #8]
 563 0276 4146     		mov	r1, r8
 564 0278 6FEA0709 		mvn	r9, r7
 565              	.LVL80:
 566 027c 9047     		blx	r2
 567              	.LVL81:
 568              		.loc 1 251 0
 569 027e 0137     		adds	r7, r7, #1
ARM GAS  C:\Users\DNIEL~1\AppData\Local\Temp\ccjSd1Uf.s 			page 11


 570              	.LVL82:
 571 0280 09F00109 		and	r9, r9, #1
 572              	.LVL83:
 573 0284 89D0     		beq	.L51
 574 0286 B9F1000F 		cmp	r9, #0
 575 028a 07D0     		beq	.L75
 576              	.LVL84:
 577              		.loc 1 250 0
 578 028c 2B68     		ldr	r3, [r5, #0]
 579 028e 2846     		mov	r0, r5
 580 0290 9A68     		ldr	r2, [r3, #8]
 581 0292 4146     		mov	r1, r8
 582 0294 9047     		blx	r2
 583              	.LVL85:
 584              		.loc 1 251 0
 585 0296 0137     		adds	r7, r7, #1
 586              	.LVL86:
 587 0298 3FF47FAF 		beq	.L51
 588              	.LVL87:
 589              	.L75:
 590              		.loc 1 250 0 discriminator 1
 591 029c 2868     		ldr	r0, [r5, #0]
 592 029e 4146     		mov	r1, r8
 593 02a0 8368     		ldr	r3, [r0, #8]
 594 02a2 2846     		mov	r0, r5
 595 02a4 9847     		blx	r3
 596              	.LVL88:
 597 02a6 2968     		ldr	r1, [r5, #0]
 598              		.loc 1 251 0 discriminator 1
 599 02a8 0137     		adds	r7, r7, #1
 600              	.LVL89:
 601              		.loc 1 250 0 discriminator 1
 602 02aa 8A68     		ldr	r2, [r1, #8]
 603 02ac 2846     		mov	r0, r5
 604 02ae 4146     		mov	r1, r8
 605 02b0 9047     		blx	r2
 606              	.LVL90:
 607              		.loc 1 251 0 discriminator 1
 608 02b2 0137     		adds	r7, r7, #1
 609              	.LVL91:
 610 02b4 F2D1     		bne	.L75
 611 02b6 70E7     		b	.L51
 612              	.LVL92:
 613              	.L37:
 614              		.loc 1 179 0
 615 02b8 1022     		movs	r2, #16
 616              	.LVL93:
 617              	.L36:
 618              		.loc 1 230 0
 619 02ba 3168     		ldr	r1, [r6, #0]
 620              	.LVL94:
 621              	.LBB6:
 622              	.LBB7:
 623              		.loc 1 72 0
 624 02bc 05A8     		add	r0, sp, #20
 625 02be FFF7FEFF 		bl	long_to_string_with_divisor.constprop.0
 626              	.LVL95:
ARM GAS  C:\Users\DNIEL~1\AppData\Local\Temp\ccjSd1Uf.s 			page 12


 627 02c2 DDF808C0 		ldr	ip, [sp, #8]
 628              	.LBE7:
 629              	.LBE6:
 630              		.loc 1 230 0
 631 02c6 0436     		adds	r6, r6, #4
 632              	.LVL96:
 633              		.loc 1 133 0
 634 02c8 0DF1140A 		add	sl, sp, #20
 635 02cc CCEB000B 		rsb	fp, ip, r0
 636              		.loc 1 234 0
 637 02d0 C0E7     		b	.L41
 638              	.LVL97:
 639              	.L63:
 640              		.loc 1 179 0
 641 02d2 0A22     		movs	r2, #10
 642 02d4 F1E7     		b	.L36
 643              	.L35:
 644              	.LVL98:
 645 02d6 0822     		movs	r2, #8
 646 02d8 EFE7     		b	.L36
 647              	.LVL99:
 648              	.L34:
 649              		.loc 1 198 0
 650 02da 3168     		ldr	r1, [r6, #0]
 651              	.LVL100:
 652 02dc 0436     		adds	r6, r6, #4
 653              	.LVL101:
 654              		.loc 1 201 0
 655 02de 0029     		cmp	r1, #0
 656 02e0 41DB     		blt	.L132
 657              		.loc 1 132 0
 658 02e2 05A8     		add	r0, sp, #20
 659              	.LVL102:
 660              	.L48:
 661              	.LBB8:
 662              	.LBB9:
 663              		.loc 1 72 0
 664 02e4 0A22     		movs	r2, #10
 665 02e6 FFF7FEFF 		bl	long_to_string_with_divisor.constprop.0
 666              	.LVL103:
 667 02ea 029B     		ldr	r3, [sp, #8]
 668              	.LBE9:
 669              	.LBE8:
 670              		.loc 1 133 0
 671 02ec 0DF1140A 		add	sl, sp, #20
 672 02f0 C3EB000B 		rsb	fp, r3, r0
 673              		.loc 1 206 0
 674 02f4 AEE7     		b	.L41
 675              	.LVL104:
 676              	.L33:
 677              		.loc 1 236 0
 678 02f6 8DF81430 		strb	r3, [sp, #20]
 679              	.LVL105:
 680 02fa DDF80CB0 		ldr	fp, [sp, #12]
 681              		.loc 1 133 0
 682 02fe 0DF1140A 		add	sl, sp, #20
 683              		.loc 1 237 0
ARM GAS  C:\Users\DNIEL~1\AppData\Local\Temp\ccjSd1Uf.s 			page 13


 684 0302 A7E7     		b	.L41
 685              	.LVL106:
 686              	.L30:
 687              		.loc 1 172 0
 688 0304 2278     		ldrb	r2, [r4, #0]	@ zero_extendqisi2
 689 0306 002A     		cmp	r2, #0
 690 0308 3FF4C6AE 		beq	.L32
 691              	.LVL107:
 692              		.loc 1 173 0
 693 030c 0134     		adds	r4, r4, #1
 694              	.LVL108:
 695 030e 1346     		mov	r3, r2
 696 0310 C2E6     		b	.L32
 697              	.LVL109:
 698              	.L22:
 699 0312 7B78     		ldrb	r3, [r7, #1]	@ zero_extendqisi2
 700              		.loc 1 142 0
 701 0314 4FF03008 		mov	r8, #48
 702              		.loc 1 141 0
 703 0318 0137     		adds	r7, r7, #1
 704              	.LVL110:
 705 031a A1E6     		b	.L23
 706              	.LVL111:
 707              	.L129:
 708 031c 2046     		mov	r0, r4
 709              		.loc 1 156 0
 710 031e 0021     		movs	r1, #0
 711 0320 05E0     		b	.L29
 712              	.LVL112:
 713              	.L133:
 714              		.loc 1 162 0
 715 0322 3278     		ldrb	r2, [r6, #0]	@ zero_extendqisi2
 716              	.LVL113:
 717 0324 0436     		adds	r6, r6, #4
 718              	.LVL114:
 719              	.L28:
 720              		.loc 1 165 0
 721 0326 01EB8104 		add	r4, r1, r1, lsl #2
 722              	.LVL115:
 723              		.loc 1 166 0
 724 032a 02EB4401 		add	r1, r2, r4, lsl #1
 725              	.LVL116:
 726              	.L29:
 727              		.loc 1 158 0
 728 032e 10F8013B 		ldrb	r3, [r0], #1	@ zero_extendqisi2
 729              	.LVL117:
 730              		.loc 1 159 0
 731 0332 A3F13004 		sub	r4, r3, #48
 732 0336 E2B2     		uxtb	r2, r4
 733 0338 092A     		cmp	r2, #9
 734              		.loc 1 158 0
 735 033a 0446     		mov	r4, r0
 736              	.LVL118:
 737              		.loc 1 159 0
 738 033c F3D9     		bls	.L28
 739              		.loc 1 161 0
 740 033e 2A2B     		cmp	r3, #42
ARM GAS  C:\Users\DNIEL~1\AppData\Local\Temp\ccjSd1Uf.s 			page 14


 741 0340 EFD0     		beq	.L133
 742 0342 A3E6     		b	.L27
 743              	.LVL119:
 744              	.L127:
 745              		.loc 1 136 0
 746 0344 A71C     		adds	r7, r4, #2
 747              	.LVL120:
 748 0346 A378     		ldrb	r3, [r4, #2]	@ zero_extendqisi2
 749              		.loc 1 137 0
 750 0348 4FF00109 		mov	r9, #1
 751 034c 80E6     		b	.L21
 752              	.LVL121:
 753              	.L131:
 754              		.loc 1 245 0 discriminator 1
 755 034e B8F1300F 		cmp	r8, #48
 756 0352 8DD1     		bne	.L99
 757              		.loc 1 246 0
 758 0354 2A68     		ldr	r2, [r5, #0]
 759 0356 2846     		mov	r0, r5
 760 0358 9368     		ldr	r3, [r2, #8]
 761 035a 9847     		blx	r3
 762              	.LVL122:
 763 035c 0AF1010A 		add	sl, sl, #1
 764              	.LVL123:
 765              		.loc 1 247 0
 766 0360 0BF1FF3B 		add	fp, fp, #-1
 767              	.LVL124:
 768 0364 84E7     		b	.L99
 769              	.LVL125:
 770              	.L132:
 771              		.loc 1 202 0
 772 0366 2D22     		movs	r2, #45
 773 0368 8DF81420 		strb	r2, [sp, #20]
 774              	.LVL126:
 775              		.loc 1 203 0
 776 036c 4942     		negs	r1, r1
 777              	.LVL127:
 778              		.loc 1 202 0
 779 036e 0DF11500 		add	r0, sp, #21
 780 0372 B7E7     		b	.L48
 781              	.LVL128:
 782              	.L66:
 783              		.loc 1 190 0
 784 0374 9B46     		mov	fp, r3
 785              		.loc 1 185 0
 786 0376 4FF02008 		mov	r8, #32
 787 037a 6BE7     		b	.L41
 788              		.cfi_endproc
 789              	.LFE10:
 790              		.size	chvprintf, .-chvprintf
 791 037c AFF30080 		.section	.text.chsnprintf,"ax",%progbits
 792              		.align	2
 793              		.p2align 4,,15
 794              		.global	chsnprintf
 795              		.thumb
 796              		.thumb_func
 797              		.type	chsnprintf, %function
ARM GAS  C:\Users\DNIEL~1\AppData\Local\Temp\ccjSd1Uf.s 			page 15


 798              	chsnprintf:
 799              	.LFB11:
 800              		.loc 1 288 0
 801              		.cfi_startproc
 802              		@ args = 4, pretend = 8, frame = 24
 803              		@ frame_needed = 0, uses_anonymous_args = 1
 804              	.LVL129:
 805 0000 0CB4     		push	{r2, r3}
 806              	.LCFI3:
 807              		.cfi_def_cfa_offset 8
 808              		.cfi_offset 2, -8
 809              		.cfi_offset 3, -4
 810 0002 70B5     		push	{r4, r5, r6, lr}
 811              	.LCFI4:
 812              		.cfi_def_cfa_offset 24
 813              		.cfi_offset 4, -24
 814              		.cfi_offset 5, -20
 815              		.cfi_offset 6, -16
 816              		.cfi_offset 14, -12
 817 0004 86B0     		sub	sp, sp, #24
 818              	.LCFI5:
 819              		.cfi_def_cfa_offset 48
 820              		.loc 1 288 0
 821 0006 0AAC     		add	r4, sp, #40
 822 0008 0546     		mov	r5, r0
 823 000a 54F8046B 		ldr	r6, [r4], #4
 824              		.loc 1 295 0
 825 000e 4A1E     		subs	r2, r1, #1
 826 0010 0023     		movs	r3, #0
 827 0012 01A8     		add	r0, sp, #4
 828              	.LVL130:
 829 0014 2946     		mov	r1, r5
 830              	.LVL131:
 831 0016 FFF7FEFF 		bl	msObjectInit
 832              	.LVL132:
 833              		.loc 1 300 0
 834 001a 01A8     		add	r0, sp, #4
 835              	.LVL133:
 836 001c 3146     		mov	r1, r6
 837 001e 2246     		mov	r2, r4
 838              		.loc 1 299 0
 839 0020 0094     		str	r4, [sp, #0]
 840              		.loc 1 300 0
 841 0022 FFF7FEFF 		bl	chvprintf
 842              	.LVL134:
 843              		.loc 1 304 0
 844 0026 0498     		ldr	r0, [sp, #16]
 845 0028 0023     		movs	r3, #0
 846 002a 2B54     		strb	r3, [r5, r0]
 847              		.loc 1 306 0
 848 002c 06B0     		add	sp, sp, #24
 849 002e BDE87040 		pop	{r4, r5, r6, lr}
 850 0032 02B0     		add	sp, sp, #8
 851 0034 7047     		bx	lr
 852              		.cfi_endproc
 853              	.LFE11:
 854              		.size	chsnprintf, .-chsnprintf
ARM GAS  C:\Users\DNIEL~1\AppData\Local\Temp\ccjSd1Uf.s 			page 16


 855 0036 00BFAFF3 		.section	.rodata.str1.4,"aMS",%progbits,1
 855      0080AFF3 
 855      0080
 856              		.align	2
 857              	.LC0:
 858 0000 286E756C 		.ascii	"(null)\000"
 858      6C2900
 859 0007 00       		.text
 860              	.Letext0:
 861              		.file 2 "c:\\chibistudio\\tools\\gnu tools arm embedded\\4.7 2014q2\\bin\\../lib/gcc/arm-none-eabi
 862              		.file 3 "c:\\chibistudio\\tools\\gnu tools arm embedded\\4.7 2014q2\\bin\\../lib/gcc/arm-none-eabi
 863              		.file 4 "../../../ChibiOS/os/ports/GCC/ARMCMx/chtypes.h"
 864              		.file 5 "../../../ChibiOS/os/kernel/include/chstreams.h"
 865              		.file 6 "c:\\chibistudio\\tools\\gnu tools arm embedded\\4.7 2014q2\\bin\\../lib/gcc/arm-none-eabi
 866              		.file 7 "<built-in>"
 867              		.file 8 "../../../ChibiOS/os/various/memstreams.h"