ARM GAS  C:\Users\DNIEL~1\AppData\Local\Temp\ccjSd1Uf.s 			page 1


   1              		.syntax unified
   2              		.cpu cortex-m4
   3              		.fpu softvfp
   4              		.eabi_attribute 20, 1
   5              		.eabi_attribute 21, 1
   6              		.eabi_attribute 23, 3
   7              		.eabi_attribute 24, 1
   8              		.eabi_attribute 25, 1
   9              		.eabi_attribute 26, 1
  10              		.eabi_attribute 30, 2
  11              		.eabi_attribute 34, 1
  12              		.eabi_attribute 18, 4
  13              		.thumb
  14              		.file	"chprintf.c"
  15              		.text
  16              	.Ltext0:
  17              		.cfi_sections	.debug_frame
  18              		.section	.text.long_to_string_with_divisor.constprop.0,"ax",%progbits
  19              		.align	2
  20              		.p2align 4,,15
  21              		.thumb
  22              		.thumb_func
  23              		.type	long_to_string_with_divisor.constprop.0, %function
  24              	long_to_string_with_divisor.constprop.0:
  25              	.LFB12:
  26              		.file 1 "../../../ChibiOS/os/various/chprintf.c"
  27              		.loc 1 37 0
  28              		.cfi_startproc
  29              		@ args = 0, pretend = 0, frame = 0
  30              		@ frame_needed = 0, uses_anonymous_args = 0
  31              		@ link register save eliminated.
  32              	.LVL0:
  33 0000 F0B4     		push	{r4, r5, r6, r7}
  34              	.LCFI0:
  35              		.cfi_def_cfa_offset 16
  36              		.cfi_offset 4, -16
  37              		.cfi_offset 5, -12
  38              		.cfi_offset 6, -8
  39              		.cfi_offset 7, -4
  40              		.loc 1 52 0
  41 0002 00F10B0C 		add	ip, r0, #11
  42              		.loc 1 37 0
  43 0006 0746     		mov	r7, r0
  44              	.LVL1:
  45 0008 00F10A05 		add	r5, r0, #10
  46 000c 0C46     		mov	r4, r1
  47              	.LVL2:
  48              	.L3:
  49              		.loc 1 54 0
  50 000e B1FBF2F6 		udiv	r6, r1, r2
  51 0012 02FB1611 		mls	r1, r2, r6, r1
  52              	.LVL3:
  53              		.loc 1 55 0
  54 0016 01F13003 		add	r3, r1, #48
  55              	.LVL4:
  56              		.loc 1 56 0
  57 001a 392B     		cmp	r3, #57
ARM GAS  C:\Users\DNIEL~1\AppData\Local\Temp\ccjSd1Uf.s 			page 2


  58              		.loc 1 57 0
  59 001c C8BF     		it	gt
  60 001e 01F13703 		addgt	r3, r1, #55
  61              	.LVL5:
  62              		.loc 1 58 0
  63 0022 DBB2     		uxtb	r3, r3
  64              	.LVL6:
  65              		.loc 1 60 0
  66 0024 B4FBF2F4 		udiv	r4, r4, r2
  67              	.LVL7:
  68              		.loc 1 58 0
  69 0028 2846     		mov	r0, r5
  70              	.LVL8:
  71              		.loc 1 59 0
  72 002a 3146     		mov	r1, r6
  73              	.LVL9:
  74              		.loc 1 58 0
  75 002c 05F80139 		strb	r3, [r5], #-1
  76              	.LVL10:
  77              		.loc 1 60 0
  78 0030 002C     		cmp	r4, #0
  79 0032 ECD1     		bne	.L3
  80              	.LVL11:
  81              		.loc 1 62 0
  82 0034 C0EB0C02 		rsb	r2, r0, ip
  83              	.LVL12:
  84 0038 0146     		mov	r1, r0
  85              	.LVL13:
  86              		.loc 1 37 0
  87 003a B818     		adds	r0, r7, r2
  88              	.LVL14:
  89 003c FA43     		mvns	r2, r7
  90              	.LVL15:
  91 003e 8218     		adds	r2, r0, r2
  92 0040 D207     		lsls	r2, r2, #31
  93 0042 0AD5     		bpl	.L5
  94              	.LVL16:
  95              		.loc 1 64 0
  96 0044 07F8013B 		strb	r3, [r7], #1
  97              	.LVL17:
  98 0048 11F8013F 		ldrb	r3, [r1, #1]!	@ zero_extendqisi2
  99 004c 05E0     		b	.L5
 100              	.L15:
 101 004e 11F8013F 		ldrb	r3, [r1, #1]!	@ zero_extendqisi2
 102              	.LVL18:
 103 0052 7B70     		strb	r3, [r7, #1]
 104 0054 11F8013F 		ldrb	r3, [r1, #1]!	@ zero_extendqisi2
 105 0058 571C     		adds	r7, r2, #1
 106              	.LVL19:
 107              	.L5:
 108 005a 3A46     		mov	r2, r7
 109 005c 02F8013B 		strb	r3, [r2], #1
 110              		.loc 1 65 0
 111 0060 8242     		cmp	r2, r0
 112 0062 F4D1     		bne	.L15
 113              		.loc 1 68 0
 114 0064 F0BC     		pop	{r4, r5, r6, r7}
ARM GAS  C:\Users\DNIEL~1\AppData\Local\Temp\ccjSd1Uf.s 			page 3


 115 0066 7047     		bx	lr
 116              		.cfi_endproc
 117              	.LFE12:
 118              		.size	long_to_string_with_divisor.constprop.0, .-long_to_string_with_divisor.constprop.0
 119 0068 AFF30080 		.section	.text.chvprintf,"ax",%progbits
 119      AFF30080 
 120              		.align	2
 121              		.p2align 4,,15
 122              		.global	chvprintf
 123              		.thumb
 124              		.thumb_func
 125              		.type	chvprintf, %function
 126              	chvprintf:
 127              	.LFB10:
 128              		.loc 1 112 0
 129              		.cfi_startproc
 130              		@ args = 0, pretend = 0, frame = 32
 131              		@ frame_needed = 0, uses_anonymous_args = 0
 132              	.LVL20:
 133 0000 2DE9F04F 		push	{r4, r5, r6, r7, r8, r9, sl, fp, lr}
 134              	.LCFI1:
 135              		.cfi_def_cfa_offset 36
 136              		.cfi_offset 4, -36
 137              		.cfi_offset 5, -32
 138              		.cfi_offset 6, -28
 139              		.cfi_offset 7, -24
 140              		.cfi_offset 8, -20
 141              		.cfi_offset 9, -16
 142              		.cfi_offset 10, -12
 143              		.cfi_offset 11, -8
 144              		.cfi_offset 14, -4
 145 0004 89B0     		sub	sp, sp, #36
 146              	.LCFI2:
 147              		.cfi_def_cfa_offset 72
 148              		.loc 1 132 0
 149 0006 05AB     		add	r3, sp, #20
 150              		.loc 1 236 0
 151 0008 0DF1150C 		add	ip, sp, #21
 152              		.loc 1 112 0
 153 000c 0546     		mov	r5, r0
 154 000e C3EB0C00 		rsb	r0, r3, ip
 155              	.LVL21:
 156              		.loc 1 132 0
 157 0012 0293     		str	r3, [sp, #8]
 158              		.loc 1 236 0
 159 0014 CDF804C0 		str	ip, [sp, #4]
 160              		.loc 1 112 0
 161 0018 0C46     		mov	r4, r1
 162 001a 1646     		mov	r6, r2
 163 001c 0390     		str	r0, [sp, #12]
 164              	.LVL22:
 165              	.L112:
 166              		.loc 1 125 0
 167 001e 2746     		mov	r7, r4
 168 0020 17F8011B 		ldrb	r1, [r7], #1	@ zero_extendqisi2
 169              	.LVL23:
 170              		.loc 1 126 0
ARM GAS  C:\Users\DNIEL~1\AppData\Local\Temp\ccjSd1Uf.s 			page 4


 171 0024 59B1     		cbz	r1, .L16
 172              	.LVL24:
 173              	.L126:
 174              		.loc 1 128 0
 175 0026 2529     		cmp	r1, #37
 176 0028 0CD0     		beq	.L19
 177              		.loc 1 129 0
 178 002a 2B68     		ldr	r3, [r5, #0]
 179              		.loc 1 125 0
 180 002c 3C46     		mov	r4, r7
 181 002e 2746     		mov	r7, r4
 182              	.LVL25:
 183              		.loc 1 129 0
 184 0030 2846     		mov	r0, r5
 185 0032 9A68     		ldr	r2, [r3, #8]
 186              	.LVL26:
 187 0034 9047     		blx	r2
 188              	.LVL27:
 189              		.loc 1 125 0
 190 0036 17F8011B 		ldrb	r1, [r7], #1	@ zero_extendqisi2
 191              	.LVL28:
 192              		.loc 1 126 0
 193 003a 0029     		cmp	r1, #0
 194 003c F3D1     		bne	.L126
 195              	.LVL29:
 196              	.L16:
 197              		.loc 1 261 0
 198 003e 09B0     		add	sp, sp, #36
 199 0040 BDE8F08F 		pop	{r4, r5, r6, r7, r8, r9, sl, fp, pc}
 200              	.L19:
 201              	.LVL30:
 202              		.loc 1 135 0
 203 0044 6378     		ldrb	r3, [r4, #1]	@ zero_extendqisi2
 204 0046 2D2B     		cmp	r3, #45
 205 0048 00F07C81 		beq	.L127
 206              		.loc 1 134 0
 207 004c 4FF00009 		mov	r9, #0
 208              	.LVL31:
 209              	.L21:
 210              		.loc 1 140 0
 211 0050 2E2B     		cmp	r3, #46
 212 0052 00F05E81 		beq	.L22
 213              		.loc 1 140 0 is_stmt 0 discriminator 1
 214 0056 302B     		cmp	r3, #48
 215 0058 00F05B81 		beq	.L22
 216              		.loc 1 139 0 is_stmt 1
 217 005c 4FF02008 		mov	r8, #32
 218              	.LVL32:
 219              	.L23:
 220              		.loc 1 142 0
 221 0060 3C46     		mov	r4, r7
 222              		.loc 1 144 0
 223 0062 0027     		movs	r7, #0
 224              	.LVL33:
 225 0064 06E0     		b	.L26
 226              	.LVL34:
 227              	.L128:
ARM GAS  C:\Users\DNIEL~1\AppData\Local\Temp\ccjSd1Uf.s 			page 5


 228              		.loc 1 150 0
 229 0066 3178     		ldrb	r1, [r6, #0]	@ zero_extendqisi2
 230              	.LVL35:
 231 0068 0436     		adds	r6, r6, #4
 232              	.LVL36:
 233              	.L24:
 234              		.loc 1 153 0
 235 006a 07EB8707 		add	r7, r7, r7, lsl #2
 236              	.LVL37:
 237 006e 2378     		ldrb	r3, [r4, #0]	@ zero_extendqisi2
 238 0070 01EB4707 		add	r7, r1, r7, lsl #1
 239              	.LVL38:
 240              	.L26:
 241              		.loc 1 147 0
 242 0074 A3F13002 		sub	r2, r3, #48
 243              	.LVL39:
 244 0078 D1B2     		uxtb	r1, r2
 245              		.loc 1 146 0
 246 007a 0134     		adds	r4, r4, #1
 247              	.LVL40:
 248              		.loc 1 147 0
 249 007c 0929     		cmp	r1, #9
 250 007e F4D9     		bls	.L24
 251              	.LVL41:
 252              		.loc 1 149 0
 253 0080 2A2B     		cmp	r3, #42
 254 0082 F0D0     		beq	.L128
 255              	.LVL42:
 256              		.loc 1 156 0
 257 0084 2E2B     		cmp	r3, #46
 258 0086 00F04981 		beq	.L129
 259              		.loc 1 155 0
 260 008a 0021     		movs	r1, #0
 261              	.LVL43:
 262              	.L27:
 263              		.loc 1 170 0
 264 008c 6C2B     		cmp	r3, #108
 265 008e 00F03981 		beq	.L30
 266              		.loc 1 170 0 is_stmt 0 discriminator 1
 267 0092 4C2B     		cmp	r3, #76
 268 0094 00F03681 		beq	.L30
 269              	.LVL44:
 270              	.L32:
 271              		.loc 1 179 0 is_stmt 1
 272 0098 A3F14400 		sub	r0, r3, #68
 273 009c 3428     		cmp	r0, #52
 274 009e 00F22A81 		bhi	.L33
 275 00a2 DFE810F0 		tbh	[pc, r0, lsl #1]
 276              	.L40:
 277 00a6 1A01     		.2byte	(.L34-.L40)/2
 278 00a8 2801     		.2byte	(.L33-.L40)/2
 279 00aa 2801     		.2byte	(.L33-.L40)/2
 280 00ac 2801     		.2byte	(.L33-.L40)/2
 281 00ae 2801     		.2byte	(.L33-.L40)/2
 282 00b0 1A01     		.2byte	(.L34-.L40)/2
 283 00b2 2801     		.2byte	(.L33-.L40)/2
 284 00b4 2801     		.2byte	(.L33-.L40)/2
ARM GAS  C:\Users\DNIEL~1\AppData\Local\Temp\ccjSd1Uf.s 			page 6


 285 00b6 2801     		.2byte	(.L33-.L40)/2
 286 00b8 2801     		.2byte	(.L33-.L40)/2
 287 00ba 2801     		.2byte	(.L33-.L40)/2
 288 00bc 1801     		.2byte	(.L35-.L40)/2
 289 00be 2801     		.2byte	(.L33-.L40)/2
 290 00c0 2801     		.2byte	(.L33-.L40)/2
 291 00c2 2801     		.2byte	(.L33-.L40)/2
 292 00c4 2801     		.2byte	(.L33-.L40)/2
 293 00c6 2801     		.2byte	(.L33-.L40)/2
 294 00c8 1601     		.2byte	(.L63-.L40)/2
 295 00ca 2801     		.2byte	(.L33-.L40)/2
 296 00cc 2801     		.2byte	(.L33-.L40)/2
 297 00ce 0901     		.2byte	(.L37-.L40)/2
 298 00d0 2801     		.2byte	(.L33-.L40)/2
 299 00d2 2801     		.2byte	(.L33-.L40)/2
 300 00d4 2801     		.2byte	(.L33-.L40)/2
 301 00d6 2801     		.2byte	(.L33-.L40)/2
 302 00d8 2801     		.2byte	(.L33-.L40)/2
 303 00da 2801     		.2byte	(.L33-.L40)/2
 304 00dc 2801     		.2byte	(.L33-.L40)/2
 305 00de 2801     		.2byte	(.L33-.L40)/2
 306 00e0 2801     		.2byte	(.L33-.L40)/2
 307 00e2 2801     		.2byte	(.L33-.L40)/2
 308 00e4 CD00     		.2byte	(.L38-.L40)/2
 309 00e6 1A01     		.2byte	(.L34-.L40)/2
 310 00e8 2801     		.2byte	(.L33-.L40)/2
 311 00ea 2801     		.2byte	(.L33-.L40)/2
 312 00ec 2801     		.2byte	(.L33-.L40)/2
 313 00ee 2801     		.2byte	(.L33-.L40)/2
 314 00f0 1A01     		.2byte	(.L34-.L40)/2
 315 00f2 2801     		.2byte	(.L33-.L40)/2
 316 00f4 2801     		.2byte	(.L33-.L40)/2
 317 00f6 2801     		.2byte	(.L33-.L40)/2
 318 00f8 2801     		.2byte	(.L33-.L40)/2
 319 00fa 2801     		.2byte	(.L33-.L40)/2
 320 00fc 1801     		.2byte	(.L35-.L40)/2
 321 00fe 2801     		.2byte	(.L33-.L40)/2
 322 0100 2801     		.2byte	(.L33-.L40)/2
 323 0102 2801     		.2byte	(.L33-.L40)/2
 324 0104 3500     		.2byte	(.L39-.L40)/2
 325 0106 2801     		.2byte	(.L33-.L40)/2
 326 0108 1601     		.2byte	(.L63-.L40)/2
 327 010a 2801     		.2byte	(.L33-.L40)/2
 328 010c 2801     		.2byte	(.L33-.L40)/2
 329 010e 0901     		.2byte	(.L37-.L40)/2
 330              	.L39:
 331              	.LVL45:
 332              		.loc 1 186 0
 333 0110 3268     		ldr	r2, [r6, #0]
 334              		.loc 1 187 0
 335 0112 40F2000A 		movw	sl, #:lower16:.LC0
 336 0116 C0F2000A 		movt	sl, #:upper16:.LC0
 337 011a 002A     		cmp	r2, #0
 338 011c 18BF     		it	ne
 339 011e 9246     		movne	sl, r2
 340              		.loc 1 189 0
 341 0120 47F6FF70 		movw	r0, #32767
ARM GAS  C:\Users\DNIEL~1\AppData\Local\Temp\ccjSd1Uf.s 			page 7


 342              		.loc 1 190 0
 343 0124 9AF80030 		ldrb	r3, [sl, #0]	@ zero_extendqisi2
 344              	.LVL46:
 345              		.loc 1 186 0
 346 0128 0436     		adds	r6, r6, #4
 347              	.LVL47:
 348              		.loc 1 189 0
 349 012a 0029     		cmp	r1, #0
 350 012c 08BF     		it	eq
 351 012e 0146     		moveq	r1, r0
 352              	.LVL48:
 353              		.loc 1 190 0
 354 0130 002B     		cmp	r3, #0
 355 0132 00F01F81 		beq	.L66
 356              		.loc 1 112 0
 357 0136 0AEB0100 		add	r0, sl, r1
 358              		.loc 1 190 0
 359 013a 9AF80130 		ldrb	r3, [sl, #1]	@ zero_extendqisi2
 360 013e 6FEA0A01 		mvn	r1, sl
 361 0142 0A18     		adds	r2, r1, r0
 362 0144 02F00101 		and	r1, r2, #1
 363              		.loc 1 112 0
 364 0148 0AF1010B 		add	fp, sl, #1
 365              	.LVL49:
 366              		.loc 1 190 0
 367 014c D3B1     		cbz	r3, .L114
 368 014e 8345     		cmp	fp, r0
 369 0150 5B46     		mov	r3, fp
 370 0152 17D0     		beq	.L114
 371 0154 79B1     		cbz	r1, .L45
 372 0156 9BF80130 		ldrb	r3, [fp, #1]	@ zero_extendqisi2
 373              		.loc 1 112 0
 374 015a 0BF1010B 		add	fp, fp, #1
 375              	.LVL50:
 376              		.loc 1 190 0
 377 015e 8BB1     		cbz	r3, .L114
 378 0160 8345     		cmp	fp, r0
 379 0162 5B46     		mov	r3, fp
 380 0164 07D1     		bne	.L45
 381 0166 0DE0     		b	.L114
 382              	.LVL51:
 383              	.L44:
 384              		.loc 1 190 0 is_stmt 0 discriminator 2
 385 0168 9BF80110 		ldrb	r1, [fp, #1]	@ zero_extendqisi2
 386              		.loc 1 112 0 is_stmt 1 discriminator 2
 387 016c 0BF1010B 		add	fp, fp, #1
 388              	.LVL52:
 389              		.loc 1 190 0 discriminator 2
 390 0170 41B1     		cbz	r1, .L114
 391              		.loc 1 190 0 is_stmt 0
 392 0172 8345     		cmp	fp, r0
 393 0174 06D0     		beq	.L114
 394              	.L45:
 395              		.loc 1 112 0 is_stmt 1 discriminator 1
 396 0176 03F1010B 		add	fp, r3, #1
 397              	.LVL53:
 398              		.loc 1 190 0 discriminator 1
ARM GAS  C:\Users\DNIEL~1\AppData\Local\Temp\ccjSd1Uf.s 			page 8


 399 017a 5978     		ldrb	r1, [r3, #1]	@ zero_extendqisi2
 400 017c 5A46     		mov	r2, fp
 401 017e 531C     		adds	r3, r2, #1
 402 0180 0029     		cmp	r1, #0
 403 0182 F1D1     		bne	.L44
 404              	.L114:
 405 0184 CAEB0B0B 		rsb	fp, sl, fp
 406              	.LVL54:
 407              		.loc 1 240 0
 408 0188 CBEB0707 		rsb	r7, fp, r7
 409              	.LVL55:
 410              		.loc 1 185 0
 411 018c 4FF02008 		mov	r8, #32
 412              	.LVL56:
 413 0190 27EAE777 		bic	r7, r7, r7, asr #31
 414              	.LVL57:
 415              		.loc 1 242 0
 416 0194 B9F1000F 		cmp	r9, #0
 417 0198 63D0     		beq	.L130
 418              	.LVL58:
 419              	.L51:
 420              		.loc 1 253 0 discriminator 1
 421 019a BBF1000F 		cmp	fp, #0
 422 019e 27DD     		ble	.L57
 423              		.loc 1 254 0
 424 01a0 D146     		mov	r9, sl
 425 01a2 2868     		ldr	r0, [r5, #0]
 426 01a4 19F8011B 		ldrb	r1, [r9], #1	@ zero_extendqisi2
 427 01a8 8368     		ldr	r3, [r0, #8]
 428              		.loc 1 112 0
 429 01aa D344     		add	fp, sl, fp
 430              	.LVL59:
 431 01ac 6FEA0A0A 		mvn	sl, sl
 432              	.LVL60:
 433 01b0 0BEB0A02 		add	r2, fp, sl
 434              		.loc 1 254 0
 435 01b4 2846     		mov	r0, r5
 436 01b6 02F0010A 		and	sl, r2, #1
 437              	.LVL61:
 438 01ba 9847     		blx	r3
 439              	.LVL62:
 440              		.loc 1 253 0
 441 01bc D945     		cmp	r9, fp
 442 01be 17D0     		beq	.L57
 443 01c0 BAF1000F 		cmp	sl, #0
 444 01c4 03D0     		beq	.L56
 445              	.LVL63:
 446              		.loc 1 254 0
 447 01c6 2868     		ldr	r0, [r5, #0]
 448 01c8 19F8011B 		ldrb	r1, [r9], #1	@ zero_extendqisi2
 449 01cc 0BE0     		b	.L125
 450              	.L56:
 451 01ce 2868     		ldr	r0, [r5, #0]
 452 01d0 CA46     		mov	sl, r9
 453 01d2 8268     		ldr	r2, [r0, #8]
 454 01d4 1AF8011B 		ldrb	r1, [sl], #1	@ zero_extendqisi2
 455 01d8 2846     		mov	r0, r5
ARM GAS  C:\Users\DNIEL~1\AppData\Local\Temp\ccjSd1Uf.s 			page 9


 456 01da 9047     		blx	r2
 457              	.LVL64:
 458 01dc 2868     		ldr	r0, [r5, #0]
 459 01de 99F80110 		ldrb	r1, [r9, #1]	@ zero_extendqisi2
 460 01e2 0AF10109 		add	r9, sl, #1
 461              	.L125:
 462 01e6 8368     		ldr	r3, [r0, #8]
 463 01e8 2846     		mov	r0, r5
 464 01ea 9847     		blx	r3
 465              	.LVL65:
 466              		.loc 1 253 0
 467 01ec D945     		cmp	r9, fp
 468 01ee EED1     		bne	.L56
 469              	.L57:
 470              	.LVL66:
 471              		.loc 1 256 0
 472 01f0 002F     		cmp	r7, #0
 473 01f2 3FF414AF 		beq	.L112
 474              		.loc 1 257 0
 475 01f6 2968     		ldr	r1, [r5, #0]
 476 01f8 7B1E     		subs	r3, r7, #1
 477 01fa 8A68     		ldr	r2, [r1, #8]
 478              		.loc 1 256 0
 479 01fc 1F46     		mov	r7, r3
 480              	.LVL67:
 481              		.loc 1 257 0
 482 01fe 2846     		mov	r0, r5
 483 0200 4146     		mov	r1, r8
 484 0202 03F00109 		and	r9, r3, #1
 485 0206 9047     		blx	r2
 486              	.LVL68:
 487              		.loc 1 256 0
 488 0208 002F     		cmp	r7, #0
 489 020a 3FF408AF 		beq	.L112
 490 020e B9F1000F 		cmp	r9, #0
 491 0212 07D0     		beq	.L74
 492              		.loc 1 257 0
 493 0214 2968     		ldr	r1, [r5, #0]
 494 0216 2846     		mov	r0, r5
 495 0218 8B68     		ldr	r3, [r1, #8]
 496 021a 4146     		mov	r1, r8
 497 021c 9847     		blx	r3
 498              	.LVL69:
 499              		.loc 1 256 0
 500 021e 013F     		subs	r7, r7, #1
 501 0220 3FF4FDAE 		beq	.L112
 502              	.L74:
 503              		.loc 1 257 0
 504 0224 2868     		ldr	r0, [r5, #0]
 505 0226 4146     		mov	r1, r8
 506 0228 8268     		ldr	r2, [r0, #8]
 507 022a 2846     		mov	r0, r5
 508 022c 9047     		blx	r2
 509              	.LVL70:
 510 022e 2968     		ldr	r1, [r5, #0]
 511              		.loc 1 258 0
 512 0230 013F     		subs	r7, r7, #1
ARM GAS  C:\Users\DNIEL~1\AppData\Local\Temp\ccjSd1Uf.s 			page 10


 513              		.loc 1 257 0
 514 0232 8B68     		ldr	r3, [r1, #8]
 515 0234 2846     		mov	r0, r5
 516 0236 4146     		mov	r1, r8
 517 0238 9847     		blx	r3
 518              	.LVL71:
 519              		.loc 1 256 0
 520 023a 013F     		subs	r7, r7, #1
 521 023c F2D1     		bne	.L74
 522 023e EEE6     		b	.L112
 523              	.LVL72:
 524              	.L38:
 525              		.loc 1 182 0
 526 0240 3068     		ldr	r0, [r6, #0]
 527 0242 DDF80CB0 		ldr	fp, [sp, #12]
 528 0246 8DF81400 		strb	r0, [sp, #20]
 529              	.LVL73:
 530 024a 0436     		adds	r6, r6, #4
 531              	.LVL74:
 532              		.loc 1 181 0
 533 024c 4FF02008 		mov	r8, #32
 534              		.loc 1 133 0
 535 0250 0DF1140A 		add	sl, sp, #20
 536              	.LVL75:
 537              	.L41:
 538              		.loc 1 240 0
 539 0254 CBEB0707 		rsb	r7, fp, r7
 540              	.LVL76:
 541 0258 27EAE777 		bic	r7, r7, r7, asr #31
 542              	.LVL77:
 543              		.loc 1 242 0
 544 025c B9F1000F 		cmp	r9, #0
 545 0260 9BD1     		bne	.L51
 546              	.LVL78:
 547              	.L130:
 548              		.loc 1 243 0
 549 0262 7F42     		negs	r7, r7
 550              	.LVL79:
 551              		.loc 1 244 0
 552 0264 002F     		cmp	r7, #0
 553 0266 98D0     		beq	.L51
 554              		.loc 1 245 0
 555 0268 9AF80010 		ldrb	r1, [sl, #0]	@ zero_extendqisi2
 556 026c 2D29     		cmp	r1, #45
 557 026e 6ED0     		beq	.L131
 558              	.L99:
 559              		.loc 1 250 0
 560 0270 2968     		ldr	r1, [r5, #0]
 561 0272 2846     		mov	r0, r5
 562 0274 8A68     		ldr	r2, [r1, #8]
 563 0276 4146     		mov	r1, r8
 564 0278 6FEA0709 		mvn	r9, r7
 565              	.LVL80:
 566 027c 9047     		blx	r2
 567              	.LVL81:
 568              		.loc 1 251 0
 569 027e 0137     		adds	r7, r7, #1
ARM GAS  C:\Users\DNIEL~1\AppData\Local\Temp\ccjSd1Uf.s 			page 11


 570              	.LVL82:
 571 0280 09F00109 		and	r9, r9, #1
 572              	.LVL83:
 573 0284 89D0     		beq	.L51
 574 0286 B9F1000F 		cmp	r9, #0
 575 028a 07D0     		beq	.L75
 576              	.LVL84:
 577              		.loc 1 250 0
 578 028c 2B68     		ldr	r3, [r5, #0]
 579 028e 2846     		mov	r0, r5
 580 0290 9A68     		ldr	r2, [r3, #8]
 581 0292 4146     		mov	r1, r8
 582 0294 9047     		blx	r2
 583              	.LVL85:
 584              		.loc 1 251 0
 585 0296 0137     		adds	r7, r7, #1
 586              	.LVL86:
 587 0298 3FF47FAF 		beq	.L51
 588              	.LVL87:
 589              	.L75:
 590              		.loc 1 250 0 discriminator 1
 591 029c 2868     		ldr	r0, [r5, #0]
 592 029e 4146     		mov	r1, r8
 593 02a0 8368     		ldr	r3, [r0, #8]
 594 02a2 2846     		mov	r0, r5
 595 02a4 9847     		blx	r3
 596              	.LVL88:
 597 02a6 2968     		ldr	r1, [r5, #0]
 598              		.loc 1 251 0 discriminator 1
 599 02a8 0137     		adds	r7, r7, #1
 600              	.LVL89:
 601              		.loc 1 250 0 discriminator 1
 602 02aa 8A68     		ldr	r2, [r1, #8]
 603 02ac 2846     		mov	r0, r5
 604 02ae 4146     		mov	r1, r8
 605 02b0 9047     		blx	r2
 606              	.LVL90:
 607              		.loc 1 251 0 discriminator 1
 608 02b2 0137     		adds	r7, r7, #1
 609              	.LVL91:
 610 02b4 F2D1     		bne	.L75
 611 02b6 70E7     		b	.L51
 612              	.LVL92:
 613              	.L37:
 614              		.loc 1 179 0
 615 02b8 1022     		movs	r2, #16
 616              	.LVL93:
 617              	.L36:
 618              		.loc 1 230 0
 619 02ba 3168     		ldr	r1, [r6, #0]
 620              	.LVL94:
 621              	.LBB6:
 622              	.LBB7:
 623              		.loc 1 72 0
 624 02bc 05A8     		add	r0, sp, #20
 625 02be FFF7FEFF 		bl	long_to_string_with_divisor.constprop.0
 626              	.LVL95:
ARM GAS  C:\Users\DNIEL~1\AppData\Local\Temp\ccjSd1Uf.s 			page 12


 627 02c2 DDF808C0 		ldr	ip, [sp, #8]
 628              	.LBE7:
 629              	.LBE6:
 630              		.loc 1 230 0
 631 02c6 0436     		adds	r6, r6, #4
 632              	.LVL96:
 633              		.loc 1 133 0
 634 02c8 0DF1140A 		add	sl, sp, #20
 635 02cc CCEB000B 		rsb	fp, ip, r0
 636              		.loc 1 234 0
 637 02d0 C0E7     		b	.L41
 638              	.LVL97:
 639              	.L63:
 640              		.loc 1 179 0
 641 02d2 0A22     		movs	r2, #10
 642 02d4 F1E7     		b	.L36
 643              	.L35:
 644              	.LVL98:
 645 02d6 0822     		movs	r2, #8
 646 02d8 EFE7     		b	.L36
 647              	.LVL99:
 648              	.L34:
 649              		.loc 1 198 0
 650 02da 3168     		ldr	r1, [r6, #0]
 651              	.LVL100:
 652 02dc 0436     		adds	r6, r6, #4
 653              	.LVL101:
 654              		.loc 1 201 0
 655 02de 0029     		cmp	r1, #0
 656 02e0 41DB     		blt	.L132
 657              		.loc 1 132 0
 658 02e2 05A8     		add	r0, sp, #20
 659              	.LVL102:
 660              	.L48:
 661              	.LBB8:
 662              	.LBB9:
 663              		.loc 1 72 0
 664 02e4 0A22     		movs	r2, #10
 665 02e6 FFF7FEFF 		bl	long_to_string_with_divisor.constprop.0
 666              	.LVL103:
 667 02ea 029B     		ldr	r3, [sp, #8]
 668              	.LBE9:
 669              	.LBE8:
 670              		.loc 1 133 0
 671 02ec 0DF1140A 		add	sl, sp, #20
 672 02f0 C3EB000B 		rsb	fp, r3, r0
 673              		.loc 1 206 0
 674 02f4 AEE7     		b	.L41
 675              	.LVL104:
 676              	.L33:
 677              		.loc 1 236 0
 678 02f6 8DF81430 		strb	r3, [sp, #20]
 679              	.LVL105:
 680 02fa DDF80CB0 		ldr	fp, [sp, #12]
 681              		.loc 1 133 0
 682 02fe 0DF1140A 		add	sl, sp, #20
 683              		.loc 1 237 0
ARM GAS  C:\Users\DNIEL~1\AppData\Local\Temp\ccjSd1Uf.s 			page 13


 684 0302 A7E7     		b	.L41
 685              	.LVL106:
 686              	.L30:
 687              		.loc 1 172 0
 688 0304 2278     		ldrb	r2, [r4, #0]	@ zero_extendqisi2
 689 0306 002A     		cmp	r2, #0
 690 0308 3FF4C6AE 		beq	.L32
 691              	.LVL107:
 692              		.loc 1 173 0
 693 030c 0134     		adds	r4, r4, #1
 694              	.LVL108:
 695 030e 1346     		mov	r3, r2
 696 0310 C2E6     		b	.L32
 697              	.LVL109:
 698              	.L22:
 699 0312 7B78     		ldrb	r3, [r7, #1]	@ zero_extendqisi2
 700              		.loc 1 142 0
 701 0314 4FF03008 		mov	r8, #48
 702              		.loc 1 141 0
 703 0318 0137     		adds	r7, r7, #1
 704              	.LVL110:
 705 031a A1E6     		b	.L23
 706              	.LVL111:
 707              	.L129:
 708 031c 2046     		mov	r0, r4
 709              		.loc 1 156 0
 710 031e 0021     		movs	r1, #0
 711 0320 05E0     		b	.L29
 712              	.LVL112:
 713              	.L133:
 714              		.loc 1 162 0
 715 0322 3278     		ldrb	r2, [r6, #0]	@ zero_extendqisi2
 716              	.LVL113:
 717 0324 0436     		adds	r6, r6, #4
 718              	.LVL114:
 719              	.L28:
 720              		.loc 1 165 0
 721 0326 01EB8104 		add	r4, r1, r1, lsl #2
 722              	.LVL115:
 723              		.loc 1 166 0
 724 032a 02EB4401 		add	r1, r2, r4, lsl #1
 725              	.LVL116:
 726              	.L29:
 727              		.loc 1 158 0
 728 032e 10F8013B 		ldrb	r3, [r0], #1	@ zero_extendqisi2
 729              	.LVL117:
 730              		.loc 1 159 0
 731 0332 A3F13004 		sub	r4, r3, #48
 732 0336 E2B2     		uxtb	r2, r4
 733 0338 092A     		cmp	r2, #9
 734              		.loc 1 158 0
 735 033a 0446     		mov	r4, r0
 736              	.LVL118:
 737              		.loc 1 159 0
 738 033c F3D9     		bls	.L28
 739              		.loc 1 161 0
 740 033e 2A2B     		cmp	r3, #42
ARM GAS  C:\Users\DNIEL~1\AppData\Local\Temp\ccjSd1Uf.s 			page 14


 741 0340 EFD0     		beq	.L133
 742 0342 A3E6     		b	.L27
 743              	.LVL119:
 744              	.L127:
 745              		.loc 1 136 0
 746 0344 A71C     		adds	r7, r4, #2
 747              	.LVL120:
 748 0346 A378     		ldrb	r3, [r4, #2]	@ zero_extendqisi2
 749              		.loc 1 137 0
 750 0348 4FF00109 		mov	r9, #1
 751 034c 80E6     		b	.L21
 752              	.LVL121:
 753              	.L131:
 754              		.loc 1 245 0 discriminator 1
 755 034e B8F1300F 		cmp	r8, #48
 756 0352 8DD1     		bne	.L99
 757              		.loc 1 246 0
 758 0354 2A68     		ldr	r2, [r5, #0]
 759 0356 2846     		mov	r0, r5
 760 0358 9368     		ldr	r3, [r2, #8]
 761 035a 9847     		blx	r3
 762              	.LVL122:
 763 035c 0AF1010A 		add	sl, sl, #1
 764              	.LVL123:
 765              		.loc 1 247 0
 766 0360 0BF1FF3B 		add	fp, fp, #-1
 767              	.LVL124:
 768 0364 84E7     		b	.L99
 769              	.LVL125:
 770              	.L132:
 771              		.loc 1 202 0
 772 0366 2D22     		movs	r2, #45
 773 0368 8DF81420 		strb	r2, [sp, #20]
 774              	.LVL126:
 775              		.loc 1 203 0
 776 036c 4942     		negs	r1, r1
 777              	.LVL127:
 778              		.loc 1 202 0
 779 036e 0DF11500 		add	r0, sp, #21
 780 0372 B7E7     		b	.L48
 781              	.LVL128:
 782              	.L66:
 783              		.loc 1 190 0
 784 0374 9B46     		mov	fp, r3
 785              		.loc 1 185 0
 786 0376 4FF02008 		mov	r8, #32
 787 037a 6BE7     		b	.L41
 788              		.cfi_endproc
 789              	.LFE10:
 790              		.size	chvprintf, .-chvprintf
 791 037c AFF30080 		.section	.text.chsnprintf,"ax",%progbits
 792              		.align	2
 793              		.p2align 4,,15
 794              		.global	chsnprintf
 795              		.thumb
 796              		.thumb_func
 797              		.type	chsnprintf, %function
ARM GAS  C:\Users\DNIEL~1\AppData\Local\Temp\ccjSd1Uf.s 			page 15


 798              	chsnprintf:
 799              	.LFB11:
 800              		.loc 1 288 0
 801              		.cfi_startproc
 802              		@ args = 4, pretend = 8, frame = 24
 803              		@ frame_needed = 0, uses_anonymous_args = 1
 804              	.LVL129:
 805 0000 0CB4     		push	{r2, r3}
 806              	.LCFI3:
 807              		.cfi_def_cfa_offset 8
 808              		.cfi_offset 2, -8
 809              		.cfi_offset 3, -4
 810 0002 70B5     		push	{r4, r5, r6, lr}
 811              	.LCFI4:
 812              		.cfi_def_cfa_offset 24
 813              		.cfi_offset 4, -24
 814              		.cfi_offset 5, -20
 815              		.cfi_offset 6, -16
 816              		.cfi_offset 14, -12
 817 0004 86B0     		sub	sp, sp, #24
 818              	.LCFI5:
 819              		.cfi_def_cfa_offset 48
 820              		.loc 1 288 0
 821 0006 0AAC     		add	r4, sp, #40
 822 0008 0546     		mov	r5, r0
 823 000a 54F8046B 		ldr	r6, [r4], #4
 824              		.loc 1 295 0
 825 000e 4A1E     		subs	r2, r1, #1
 826 0010 0023     		movs	r3, #0
 827 0012 01A8     		add	r0, sp, #4
 828              	.LVL130:
 829 0014 2946     		mov	r1, r5
 830              	.LVL131:
 831 0016 FFF7FEFF 		bl	msObjectInit
 832              	.LVL132:
 833              		.loc 1 300 0
 834 001a 01A8     		add	r0, sp, #4
 835              	.LVL133:
 836 001c 3146     		mov	r1, r6
 837 001e 2246     		mov	r2, r4
 838              		.loc 1 299 0
 839 0020 0094     		str	r4, [sp, #0]
 840              		.loc 1 300 0
 841 0022 FFF7FEFF 		bl	chvprintf
 842              	.LVL134:
 843              		.loc 1 304 0
 844 0026 0498     		ldr	r0, [sp, #16]
 845 0028 0023     		movs	r3, #0
 846 002a 2B54     		strb	r3, [r5, r0]
 847              		.loc 1 306 0
 848 002c 06B0     		add	sp, sp, #24
 849 002e BDE87040 		pop	{r4, r5, r6, lr}
 850 0032 02B0     		add	sp, sp, #8
 851 0034 7047     		bx	lr
 852              		.cfi_endproc
 853              	.LFE11:
 854              		.size	chsnprintf, .-chsnprintf
ARM GAS  C:\Users\DNIEL~1\AppData\Local\Temp\ccjSd1Uf.s 			page 16


 855 0036 00BFAFF3 		.section	.rodata.str1.4,"aMS",%progbits,1
 855      0080AFF3 
 855      0080
 856              		.align	2
 857              	.LC0:
 858 0000 286E756C 		.ascii	"(null)\000"
 858      6C2900
 859 0007 00       		.text
 860              	.Letext0:
 861              		.file 2 "c:\\chibistudio\\tools\\gnu tools arm embedded\\4.7 2014q2\\bin\\../lib/gcc/arm-none-eabi
 862              		.file 3 "c:\\chibistudio\\tools\\gnu tools arm embedded\\4.7 2014q2\\bin\\../lib/gcc/arm-none-eabi
 863              		.file 4 "../../../ChibiOS/os/ports/GCC/ARMCMx/chtypes.h"
 864              		.file 5 "../../../ChibiOS/os/kernel/include/chstreams.h"
 865              		.file 6 "c:\\chibistudio\\tools\\gnu tools arm embedded\\4.7 2014q2\\bin\\../lib/gcc/arm-none-eabi
 866              		.file 7 "<built-in>"
 867              		.file 8 "../../../ChibiOS/os/various/memstreams.h"
 868              		.section	.debug_info,"",%progbits
 869              	.Ldebug_info0:
 870 0000 E4060000 		.4byte	0x6e4
 871 0004 0200     		.2byte	0x2
 872 0006 00000000 		.4byte	.Ldebug_abbrev0
 873 000a 04       		.byte	0x4
 874 000b 01       		.uleb128 0x1
 875 000c 4D010000 		.4byte	.LASF39
 876 0010 01       		.byte	0x1
 877 0011 00000000 		.4byte	.LASF40
 878 0015 16020000 		.4byte	.LASF41
 879 0019 00000000 		.4byte	.Ldebug_ranges0+0
 880 001d 00000000 		.4byte	0
 881 0021 00000000 		.4byte	0
 882 0025 00000000 		.4byte	.Ldebug_line0
 883 0029 02       		.uleb128 0x2
 884 002a 04       		.byte	0x4
 885 002b 05       		.byte	0x5
 886 002c 696E7400 		.ascii	"int\000"
 887 0030 03       		.uleb128 0x3
 888 0031 8C000000 		.4byte	.LASF2
 889 0035 02       		.byte	0x2
 890 0036 D5       		.byte	0xd5
 891 0037 3B000000 		.4byte	0x3b
 892 003b 04       		.uleb128 0x4
 893 003c 04       		.byte	0x4
 894 003d 07       		.byte	0x7
 895 003e B7000000 		.4byte	.LASF0
 896 0042 04       		.uleb128 0x4
 897 0043 01       		.byte	0x1
 898 0044 06       		.byte	0x6
 899 0045 54000000 		.4byte	.LASF1
 900 0049 03       		.uleb128 0x3
 901 004a 41020000 		.4byte	.LASF3
 902 004e 03       		.byte	0x3
 903 004f 2A       		.byte	0x2a
 904 0050 54000000 		.4byte	0x54
 905 0054 04       		.uleb128 0x4
 906 0055 01       		.byte	0x1
 907 0056 08       		.byte	0x8
 908 0057 BE010000 		.4byte	.LASF4
ARM GAS  C:\Users\DNIEL~1\AppData\Local\Temp\ccjSd1Uf.s 			page 17


 909 005b 04       		.uleb128 0x4
 910 005c 02       		.byte	0x2
 911 005d 05       		.byte	0x5
 912 005e CC010000 		.4byte	.LASF5
 913 0062 04       		.uleb128 0x4
 914 0063 02       		.byte	0x2
 915 0064 07       		.byte	0x7
 916 0065 EC000000 		.4byte	.LASF6
 917 0069 03       		.uleb128 0x3
 918 006a B6010000 		.4byte	.LASF7
 919 006e 03       		.byte	0x3
 920 006f 4F       		.byte	0x4f
 921 0070 74000000 		.4byte	0x74
 922 0074 04       		.uleb128 0x4
 923 0075 04       		.byte	0x4
 924 0076 05       		.byte	0x5
 925 0077 6E000000 		.4byte	.LASF8
 926 007b 04       		.uleb128 0x4
 927 007c 04       		.byte	0x4
 928 007d 07       		.byte	0x7
 929 007e C4000000 		.4byte	.LASF9
 930 0082 04       		.uleb128 0x4
 931 0083 08       		.byte	0x8
 932 0084 05       		.byte	0x5
 933 0085 46000000 		.4byte	.LASF10
 934 0089 04       		.uleb128 0x4
 935 008a 08       		.byte	0x8
 936 008b 07       		.byte	0x7
 937 008c 2F000000 		.4byte	.LASF11
 938 0090 03       		.uleb128 0x3
 939 0091 60000000 		.4byte	.LASF12
 940 0095 04       		.byte	0x4
 941 0096 2B       		.byte	0x2b
 942 0097 9B000000 		.4byte	0x9b
 943 009b 04       		.uleb128 0x4
 944 009c 01       		.byte	0x1
 945 009d 02       		.byte	0x2
 946 009e B0010000 		.4byte	.LASF13
 947 00a2 03       		.uleb128 0x3
 948 00a3 FF000000 		.4byte	.LASF14
 949 00a7 04       		.byte	0x4
 950 00a8 31       		.byte	0x31
 951 00a9 69000000 		.4byte	0x69
 952 00ad 05       		.uleb128 0x5
 953 00ae 04       		.byte	0x4
 954 00af 04       		.uleb128 0x4
 955 00b0 04       		.byte	0x4
 956 00b1 07       		.byte	0x7
 957 00b2 1D010000 		.4byte	.LASF15
 958 00b6 06       		.uleb128 0x6
 959 00b7 04       		.byte	0x4
 960 00b8 BC000000 		.4byte	0xbc
 961 00bc 07       		.uleb128 0x7
 962 00bd C1000000 		.4byte	0xc1
 963 00c1 04       		.uleb128 0x4
 964 00c2 01       		.byte	0x1
 965 00c3 08       		.byte	0x8
ARM GAS  C:\Users\DNIEL~1\AppData\Local\Temp\ccjSd1Uf.s 			page 18


 966 00c4 F4010000 		.4byte	.LASF16
 967 00c8 06       		.uleb128 0x6
 968 00c9 04       		.byte	0x4
 969 00ca CE000000 		.4byte	0xce
 970 00ce 08       		.uleb128 0x8
 971 00cf 01       		.byte	0x1
 972 00d0 A2000000 		.4byte	0xa2
 973 00d4 DE000000 		.4byte	0xde
 974 00d8 09       		.uleb128 0x9
 975 00d9 AD000000 		.4byte	0xad
 976 00dd 00       		.byte	0
 977 00de 06       		.uleb128 0x6
 978 00df 04       		.byte	0x4
 979 00e0 49000000 		.4byte	0x49
 980 00e4 0A       		.uleb128 0xa
 981 00e5 D6010000 		.4byte	.LASF21
 982 00e9 10       		.byte	0x10
 983 00ea 05       		.byte	0x5
 984 00eb 48       		.byte	0x48
 985 00ec 29010000 		.4byte	0x129
 986 00f0 0B       		.uleb128 0xb
 987 00f1 17010000 		.4byte	.LASF17
 988 00f5 05       		.byte	0x5
 989 00f6 49       		.byte	0x49
 990 00f7 4E010000 		.4byte	0x14e
 991 00fb 02       		.byte	0x2
 992 00fc 23       		.byte	0x23
 993 00fd 00       		.uleb128 0
 994 00fe 0B       		.uleb128 0xb
 995 00ff 53020000 		.4byte	.LASF18
 996 0103 05       		.byte	0x5
 997 0104 49       		.byte	0x49
 998 0105 6E010000 		.4byte	0x16e
 999 0109 02       		.byte	0x2
 1000 010a 23       		.byte	0x23
 1001 010b 04       		.uleb128 0x4
 1002 010c 0C       		.uleb128 0xc
 1003 010d 70757400 		.ascii	"put\000"
 1004 0111 05       		.byte	0x5
 1005 0112 49       		.byte	0x49
 1006 0113 89010000 		.4byte	0x189
 1007 0117 02       		.byte	0x2
 1008 0118 23       		.byte	0x23
 1009 0119 08       		.uleb128 0x8
 1010 011a 0C       		.uleb128 0xc
 1011 011b 67657400 		.ascii	"get\000"
 1012 011f 05       		.byte	0x5
 1013 0120 49       		.byte	0x49
 1014 0121 C8000000 		.4byte	0xc8
 1015 0125 02       		.byte	0x2
 1016 0126 23       		.byte	0x23
 1017 0127 0C       		.uleb128 0xc
 1018 0128 00       		.byte	0
 1019 0129 08       		.uleb128 0x8
 1020 012a 01       		.byte	0x1
 1021 012b 30000000 		.4byte	0x30
 1022 012f 43010000 		.4byte	0x143
ARM GAS  C:\Users\DNIEL~1\AppData\Local\Temp\ccjSd1Uf.s 			page 19


 1023 0133 09       		.uleb128 0x9
 1024 0134 AD000000 		.4byte	0xad
 1025 0138 09       		.uleb128 0x9
 1026 0139 43010000 		.4byte	0x143
 1027 013d 09       		.uleb128 0x9
 1028 013e 30000000 		.4byte	0x30
 1029 0142 00       		.byte	0
 1030 0143 06       		.uleb128 0x6
 1031 0144 04       		.byte	0x4
 1032 0145 49010000 		.4byte	0x149
 1033 0149 07       		.uleb128 0x7
 1034 014a 49000000 		.4byte	0x49
 1035 014e 06       		.uleb128 0x6
 1036 014f 04       		.byte	0x4
 1037 0150 29010000 		.4byte	0x129
 1038 0154 08       		.uleb128 0x8
 1039 0155 01       		.byte	0x1
 1040 0156 30000000 		.4byte	0x30
 1041 015a 6E010000 		.4byte	0x16e
 1042 015e 09       		.uleb128 0x9
 1043 015f AD000000 		.4byte	0xad
 1044 0163 09       		.uleb128 0x9
 1045 0164 DE000000 		.4byte	0xde
 1046 0168 09       		.uleb128 0x9
 1047 0169 30000000 		.4byte	0x30
 1048 016d 00       		.byte	0
 1049 016e 06       		.uleb128 0x6
 1050 016f 04       		.byte	0x4
 1051 0170 54010000 		.4byte	0x154
 1052 0174 08       		.uleb128 0x8
 1053 0175 01       		.byte	0x1
 1054 0176 A2000000 		.4byte	0xa2
 1055 017a 89010000 		.4byte	0x189
 1056 017e 09       		.uleb128 0x9
 1057 017f AD000000 		.4byte	0xad
 1058 0183 09       		.uleb128 0x9
 1059 0184 49000000 		.4byte	0x49
 1060 0188 00       		.byte	0
 1061 0189 06       		.uleb128 0x6
 1062 018a 04       		.byte	0x4
 1063 018b 74010000 		.4byte	0x174
 1064 018f 0D       		.uleb128 0xd
 1065 0190 04       		.byte	0x4
 1066 0191 05       		.byte	0x5
 1067 0192 51       		.byte	0x51
 1068 0193 A6010000 		.4byte	0x1a6
 1069 0197 0C       		.uleb128 0xc
 1070 0198 766D7400 		.ascii	"vmt\000"
 1071 019c 05       		.byte	0x5
 1072 019d 53       		.byte	0x53
 1073 019e A6010000 		.4byte	0x1a6
 1074 01a2 02       		.byte	0x2
 1075 01a3 23       		.byte	0x23
 1076 01a4 00       		.uleb128 0
 1077 01a5 00       		.byte	0
 1078 01a6 06       		.uleb128 0x6
 1079 01a7 04       		.byte	0x4
ARM GAS  C:\Users\DNIEL~1\AppData\Local\Temp\ccjSd1Uf.s 			page 20


 1080 01a8 AC010000 		.4byte	0x1ac
 1081 01ac 07       		.uleb128 0x7
 1082 01ad E4000000 		.4byte	0xe4
 1083 01b1 03       		.uleb128 0x3
 1084 01b2 A2000000 		.4byte	.LASF19
 1085 01b6 05       		.byte	0x5
 1086 01b7 55       		.byte	0x55
 1087 01b8 8F010000 		.4byte	0x18f
 1088 01bc 03       		.uleb128 0x3
 1089 01bd 3E010000 		.4byte	.LASF20
 1090 01c1 06       		.byte	0x6
 1091 01c2 28       		.byte	0x28
 1092 01c3 C7010000 		.4byte	0x1c7
 1093 01c7 0A       		.uleb128 0xa
 1094 01c8 82000000 		.4byte	.LASF22
 1095 01cc 04       		.byte	0x4
 1096 01cd 07       		.byte	0x7
 1097 01ce 00       		.byte	0
 1098 01cf E1010000 		.4byte	0x1e1
 1099 01d3 0E       		.uleb128 0xe
 1100 01d4 11020000 		.4byte	.LASF42
 1101 01d8 AD000000 		.4byte	0xad
 1102 01dc 02       		.byte	0x2
 1103 01dd 23       		.byte	0x23
 1104 01de 00       		.uleb128 0
 1105 01df 01       		.byte	0x1
 1106 01e0 00       		.byte	0
 1107 01e1 03       		.uleb128 0x3
 1108 01e2 27000000 		.4byte	.LASF23
 1109 01e6 06       		.byte	0x6
 1110 01e7 66       		.byte	0x66
 1111 01e8 BC010000 		.4byte	0x1bc
 1112 01ec 0A       		.uleb128 0xa
 1113 01ed 96010000 		.4byte	.LASF24
 1114 01f1 10       		.byte	0x10
 1115 01f2 08       		.byte	0x8
 1116 01f3 3D       		.byte	0x3d
 1117 01f4 31020000 		.4byte	0x231
 1118 01f8 0B       		.uleb128 0xb
 1119 01f9 17010000 		.4byte	.LASF17
 1120 01fd 08       		.byte	0x8
 1121 01fe 3E       		.byte	0x3e
 1122 01ff 4E010000 		.4byte	0x14e
 1123 0203 02       		.byte	0x2
 1124 0204 23       		.byte	0x23
 1125 0205 00       		.uleb128 0
 1126 0206 0B       		.uleb128 0xb
 1127 0207 53020000 		.4byte	.LASF18
 1128 020b 08       		.byte	0x8
 1129 020c 3E       		.byte	0x3e
 1130 020d 6E010000 		.4byte	0x16e
 1131 0211 02       		.byte	0x2
 1132 0212 23       		.byte	0x23
 1133 0213 04       		.uleb128 0x4
 1134 0214 0C       		.uleb128 0xc
 1135 0215 70757400 		.ascii	"put\000"
 1136 0219 08       		.byte	0x8
ARM GAS  C:\Users\DNIEL~1\AppData\Local\Temp\ccjSd1Uf.s 			page 21


 1137 021a 3E       		.byte	0x3e
 1138 021b 89010000 		.4byte	0x189
 1139 021f 02       		.byte	0x2
 1140 0220 23       		.byte	0x23
 1141 0221 08       		.uleb128 0x8
 1142 0222 0C       		.uleb128 0xc
 1143 0223 67657400 		.ascii	"get\000"
 1144 0227 08       		.byte	0x8
 1145 0228 3E       		.byte	0x3e
 1146 0229 C8000000 		.4byte	0xc8
 1147 022d 02       		.byte	0x2
 1148 022e 23       		.byte	0x23
 1149 022f 0C       		.uleb128 0xc
 1150 0230 00       		.byte	0
 1151 0231 0D       		.uleb128 0xd
 1152 0232 14       		.byte	0x14
 1153 0233 08       		.byte	0x8
 1154 0234 46       		.byte	0x46
 1155 0235 80020000 		.4byte	0x280
 1156 0239 0C       		.uleb128 0xc
 1157 023a 766D7400 		.ascii	"vmt\000"
 1158 023e 08       		.byte	0x8
 1159 023f 48       		.byte	0x48
 1160 0240 80020000 		.4byte	0x280
 1161 0244 02       		.byte	0x2
 1162 0245 23       		.byte	0x23
 1163 0246 00       		.uleb128 0
 1164 0247 0B       		.uleb128 0xb
 1165 0248 03020000 		.4byte	.LASF25
 1166 024c 08       		.byte	0x8
 1167 024d 49       		.byte	0x49
 1168 024e DE000000 		.4byte	0xde
 1169 0252 02       		.byte	0x2
 1170 0253 23       		.byte	0x23
 1171 0254 04       		.uleb128 0x4
 1172 0255 0B       		.uleb128 0xb
 1173 0256 E7000000 		.4byte	.LASF26
 1174 025a 08       		.byte	0x8
 1175 025b 49       		.byte	0x49
 1176 025c 30000000 		.4byte	0x30
 1177 0260 02       		.byte	0x2
 1178 0261 23       		.byte	0x23
 1179 0262 08       		.uleb128 0x8
 1180 0263 0C       		.uleb128 0xc
 1181 0264 656F7300 		.ascii	"eos\000"
 1182 0268 08       		.byte	0x8
 1183 0269 49       		.byte	0x49
 1184 026a 30000000 		.4byte	0x30
 1185 026e 02       		.byte	0x2
 1186 026f 23       		.byte	0x23
 1187 0270 0C       		.uleb128 0xc
 1188 0271 0B       		.uleb128 0xb
 1189 0272 0A020000 		.4byte	.LASF27
 1190 0276 08       		.byte	0x8
 1191 0277 49       		.byte	0x49
 1192 0278 30000000 		.4byte	0x30
 1193 027c 02       		.byte	0x2
ARM GAS  C:\Users\DNIEL~1\AppData\Local\Temp\ccjSd1Uf.s 			page 22


 1194 027d 23       		.byte	0x23
 1195 027e 10       		.uleb128 0x10
 1196 027f 00       		.byte	0
 1197 0280 06       		.uleb128 0x6
 1198 0281 04       		.byte	0x4
 1199 0282 86020000 		.4byte	0x286
 1200 0286 07       		.uleb128 0x7
 1201 0287 EC010000 		.4byte	0x1ec
 1202 028b 03       		.uleb128 0x3
 1203 028c A3010000 		.4byte	.LASF28
 1204 0290 08       		.byte	0x8
 1205 0291 4A       		.byte	0x4a
 1206 0292 31020000 		.4byte	0x231
 1207 0296 0F       		.uleb128 0xf
 1208 0297 58020000 		.4byte	.LASF31
 1209 029b 01       		.byte	0x1
 1210 029c 25       		.byte	0x25
 1211 029d 01       		.byte	0x1
 1212 029e F7020000 		.4byte	0x2f7
 1213 02a2 01       		.byte	0x1
 1214 02a3 F7020000 		.4byte	0x2f7
 1215 02a7 10       		.uleb128 0x10
 1216 02a8 7000     		.ascii	"p\000"
 1217 02aa 01       		.byte	0x1
 1218 02ab 25       		.byte	0x25
 1219 02ac F7020000 		.4byte	0x2f7
 1220 02b0 10       		.uleb128 0x10
 1221 02b1 6E756D00 		.ascii	"num\000"
 1222 02b5 01       		.byte	0x1
 1223 02b6 26       		.byte	0x26
 1224 02b7 74000000 		.4byte	0x74
 1225 02bb 11       		.uleb128 0x11
 1226 02bc EE010000 		.4byte	.LASF29
 1227 02c0 01       		.byte	0x1
 1228 02c1 27       		.byte	0x27
 1229 02c2 3B000000 		.4byte	0x3b
 1230 02c6 11       		.uleb128 0x11
 1231 02c7 36010000 		.4byte	.LASF30
 1232 02cb 01       		.byte	0x1
 1233 02cc 28       		.byte	0x28
 1234 02cd 74000000 		.4byte	0x74
 1235 02d1 12       		.uleb128 0x12
 1236 02d2 6900     		.ascii	"i\000"
 1237 02d4 01       		.byte	0x1
 1238 02d5 29       		.byte	0x29
 1239 02d6 29000000 		.4byte	0x29
 1240 02da 12       		.uleb128 0x12
 1241 02db 7100     		.ascii	"q\000"
 1242 02dd 01       		.byte	0x1
 1243 02de 2A       		.byte	0x2a
 1244 02df F7020000 		.4byte	0x2f7
 1245 02e3 12       		.uleb128 0x12
 1246 02e4 6C00     		.ascii	"l\000"
 1247 02e6 01       		.byte	0x1
 1248 02e7 2B       		.byte	0x2b
 1249 02e8 74000000 		.4byte	0x74
 1250 02ec 12       		.uleb128 0x12
ARM GAS  C:\Users\DNIEL~1\AppData\Local\Temp\ccjSd1Uf.s 			page 23


 1251 02ed 6C6C00   		.ascii	"ll\000"
 1252 02f0 01       		.byte	0x1
 1253 02f1 2B       		.byte	0x2b
 1254 02f2 74000000 		.4byte	0x74
 1255 02f6 00       		.byte	0
 1256 02f7 06       		.uleb128 0x6
 1257 02f8 04       		.byte	0x4
 1258 02f9 C1000000 		.4byte	0xc1
 1259 02fd 13       		.uleb128 0x13
 1260 02fe 96020000 		.4byte	0x296
 1261 0302 00000000 		.4byte	.LFB12
 1262 0306 68000000 		.4byte	.LFE12
 1263 030a 00000000 		.4byte	.LLST0
 1264 030e 01       		.byte	0x1
 1265 030f 59030000 		.4byte	0x359
 1266 0313 14       		.uleb128 0x14
 1267 0314 A7020000 		.4byte	0x2a7
 1268 0318 20000000 		.4byte	.LLST1
 1269 031c 14       		.uleb128 0x14
 1270 031d B0020000 		.4byte	0x2b0
 1271 0321 49000000 		.4byte	.LLST2
 1272 0325 14       		.uleb128 0x14
 1273 0326 BB020000 		.4byte	0x2bb
 1274 032a 6A000000 		.4byte	.LLST3
 1275 032e 15       		.uleb128 0x15
 1276 032f D1020000 		.4byte	0x2d1
 1277 0333 8B000000 		.4byte	.LLST4
 1278 0337 15       		.uleb128 0x15
 1279 0338 DA020000 		.4byte	0x2da
 1280 033c D4000000 		.4byte	.LLST5
 1281 0340 15       		.uleb128 0x15
 1282 0341 E3020000 		.4byte	0x2e3
 1283 0345 FD000000 		.4byte	.LLST6
 1284 0349 15       		.uleb128 0x15
 1285 034a EC020000 		.4byte	0x2ec
 1286 034e 26010000 		.4byte	.LLST7
 1287 0352 16       		.uleb128 0x16
 1288 0353 C6020000 		.4byte	0x2c6
 1289 0357 00       		.byte	0
 1290 0358 00       		.byte	0
 1291 0359 0F       		.uleb128 0xf
 1292 035a 05010000 		.4byte	.LASF32
 1293 035e 01       		.byte	0x1
 1294 035f 46       		.byte	0x46
 1295 0360 01       		.byte	0x1
 1296 0361 F7020000 		.4byte	0x2f7
 1297 0365 01       		.byte	0x1
 1298 0366 8A030000 		.4byte	0x38a
 1299 036a 10       		.uleb128 0x10
 1300 036b 7000     		.ascii	"p\000"
 1301 036d 01       		.byte	0x1
 1302 036e 46       		.byte	0x46
 1303 036f F7020000 		.4byte	0x2f7
 1304 0373 10       		.uleb128 0x10
 1305 0374 6E756D00 		.ascii	"num\000"
 1306 0378 01       		.byte	0x1
 1307 0379 46       		.byte	0x46
ARM GAS  C:\Users\DNIEL~1\AppData\Local\Temp\ccjSd1Uf.s 			page 24


 1308 037a 74000000 		.4byte	0x74
 1309 037e 11       		.uleb128 0x11
 1310 037f EE010000 		.4byte	.LASF29
 1311 0383 01       		.byte	0x1
 1312 0384 46       		.byte	0x46
 1313 0385 3B000000 		.4byte	0x3b
 1314 0389 00       		.byte	0
 1315 038a 17       		.uleb128 0x17
 1316 038b 01       		.byte	0x1
 1317 038c 49020000 		.4byte	.LASF43
 1318 0390 01       		.byte	0x1
 1319 0391 70       		.byte	0x70
 1320 0392 01       		.byte	0x1
 1321 0393 00000000 		.4byte	.LFB10
 1322 0397 7C030000 		.4byte	.LFE10
 1323 039b 4F010000 		.4byte	.LLST8
 1324 039f 01       		.byte	0x1
 1325 03a0 E8050000 		.4byte	0x5e8
 1326 03a4 18       		.uleb128 0x18
 1327 03a5 63687000 		.ascii	"chp\000"
 1328 03a9 01       		.byte	0x1
 1329 03aa 70       		.byte	0x70
 1330 03ab E8050000 		.4byte	0x5e8
 1331 03af 7C010000 		.4byte	.LLST9
 1332 03b3 18       		.uleb128 0x18
 1333 03b4 666D7400 		.ascii	"fmt\000"
 1334 03b8 01       		.byte	0x1
 1335 03b9 70       		.byte	0x70
 1336 03ba B6000000 		.4byte	0xb6
 1337 03be 9A010000 		.4byte	.LLST10
 1338 03c2 18       		.uleb128 0x18
 1339 03c3 617000   		.ascii	"ap\000"
 1340 03c6 01       		.byte	0x1
 1341 03c7 70       		.byte	0x70
 1342 03c8 E1010000 		.4byte	0x1e1
 1343 03cc 33020000 		.4byte	.LLST11
 1344 03d0 19       		.uleb128 0x19
 1345 03d1 7000     		.ascii	"p\000"
 1346 03d3 01       		.byte	0x1
 1347 03d4 71       		.byte	0x71
 1348 03d5 F7020000 		.4byte	0x2f7
 1349 03d9 43030000 		.4byte	.LLST12
 1350 03dd 19       		.uleb128 0x19
 1351 03de 7300     		.ascii	"s\000"
 1352 03e0 01       		.byte	0x1
 1353 03e1 71       		.byte	0x71
 1354 03e2 F7020000 		.4byte	0x2f7
 1355 03e6 08040000 		.4byte	.LLST13
 1356 03ea 19       		.uleb128 0x19
 1357 03eb 6300     		.ascii	"c\000"
 1358 03ed 01       		.byte	0x1
 1359 03ee 71       		.byte	0x71
 1360 03ef C1000000 		.4byte	0xc1
 1361 03f3 87040000 		.4byte	.LLST14
 1362 03f7 1A       		.uleb128 0x1a
 1363 03f8 9B000000 		.4byte	.LASF33
 1364 03fc 01       		.byte	0x1
ARM GAS  C:\Users\DNIEL~1\AppData\Local\Temp\ccjSd1Uf.s 			page 25


 1365 03fd 71       		.byte	0x71
 1366 03fe C1000000 		.4byte	0xc1
 1367 0402 74050000 		.4byte	.LLST15
 1368 0406 19       		.uleb128 0x19
 1369 0407 6900     		.ascii	"i\000"
 1370 0409 01       		.byte	0x1
 1371 040a 72       		.byte	0x72
 1372 040b 29000000 		.4byte	0x29
 1373 040f FF050000 		.4byte	.LLST16
 1374 0413 1A       		.uleb128 0x1a
 1375 0414 F9010000 		.4byte	.LASF34
 1376 0418 01       		.byte	0x1
 1377 0419 72       		.byte	0x72
 1378 041a 29000000 		.4byte	0x29
 1379 041e 35060000 		.4byte	.LLST17
 1380 0422 1A       		.uleb128 0x1a
 1381 0423 E1000000 		.4byte	.LASF35
 1382 0427 01       		.byte	0x1
 1383 0428 72       		.byte	0x72
 1384 0429 29000000 		.4byte	0x29
 1385 042d B1060000 		.4byte	.LLST18
 1386 0431 1A       		.uleb128 0x1a
 1387 0432 93000000 		.4byte	.LASF36
 1388 0436 01       		.byte	0x1
 1389 0437 73       		.byte	0x73
 1390 0438 90000000 		.4byte	0x90
 1391 043c 74070000 		.4byte	.LLST19
 1392 0440 1A       		.uleb128 0x1a
 1393 0441 D6000000 		.4byte	.LASF37
 1394 0445 01       		.byte	0x1
 1395 0446 73       		.byte	0x73
 1396 0447 90000000 		.4byte	0x90
 1397 044b 88070000 		.4byte	.LLST20
 1398 044f 19       		.uleb128 0x19
 1399 0450 6C00     		.ascii	"l\000"
 1400 0452 01       		.byte	0x1
 1401 0453 74       		.byte	0x74
 1402 0454 74000000 		.4byte	0x74
 1403 0458 E0070000 		.4byte	.LLST21
 1404 045c 1B       		.uleb128 0x1b
 1405 045d 67000000 		.4byte	.LASF38
 1406 0461 01       		.byte	0x1
 1407 0462 79       		.byte	0x79
 1408 0463 EE050000 		.4byte	0x5ee
 1409 0467 02       		.byte	0x2
 1410 0468 91       		.byte	0x91
 1411 0469 4C       		.sleb128 -52
 1412 046a 1C       		.uleb128 0x1c
 1413 046b 26010000 		.4byte	.LASF44
 1414 046f 01       		.byte	0x1
 1415 0470 E4       		.byte	0xe4
 1416 0471 BA020000 		.4byte	.L36
 1417 0475 1D       		.uleb128 0x1d
 1418 0476 59030000 		.4byte	0x359
 1419 047a BC020000 		.4byte	.LBB6
 1420 047e C6020000 		.4byte	.LBE6
 1421 0482 01       		.byte	0x1
ARM GAS  C:\Users\DNIEL~1\AppData\Local\Temp\ccjSd1Uf.s 			page 26


 1422 0483 E9       		.byte	0xe9
 1423 0484 AD040000 		.4byte	0x4ad
 1424 0488 1E       		.uleb128 0x1e
 1425 0489 7E030000 		.4byte	0x37e
 1426 048d 1E       		.uleb128 0x1e
 1427 048e 73030000 		.4byte	0x373
 1428 0492 14       		.uleb128 0x14
 1429 0493 6A030000 		.4byte	0x36a
 1430 0497 09080000 		.4byte	.LLST22
 1431 049b 1F       		.uleb128 0x1f
 1432 049c C2020000 		.4byte	.LVL95
 1433 04a0 FD020000 		.4byte	0x2fd
 1434 04a4 20       		.uleb128 0x20
 1435 04a5 01       		.byte	0x1
 1436 04a6 50       		.byte	0x50
 1437 04a7 03       		.byte	0x3
 1438 04a8 91       		.byte	0x91
 1439 04a9 40       		.sleb128 -64
 1440 04aa 06       		.byte	0x6
 1441 04ab 00       		.byte	0
 1442 04ac 00       		.byte	0
 1443 04ad 1D       		.uleb128 0x1d
 1444 04ae 59030000 		.4byte	0x359
 1445 04b2 E4020000 		.4byte	.LBB8
 1446 04b6 EC020000 		.4byte	.LBE8
 1447 04ba 01       		.byte	0x1
 1448 04bb CD       		.byte	0xcd
 1449 04bc EB040000 		.4byte	0x4eb
 1450 04c0 14       		.uleb128 0x14
 1451 04c1 7E030000 		.4byte	0x37e
 1452 04c5 1D080000 		.4byte	.LLST23
 1453 04c9 14       		.uleb128 0x14
 1454 04ca 73030000 		.4byte	0x373
 1455 04ce 31080000 		.4byte	.LLST24
 1456 04d2 14       		.uleb128 0x14
 1457 04d3 6A030000 		.4byte	0x36a
 1458 04d7 44080000 		.4byte	.LLST25
 1459 04db 1F       		.uleb128 0x1f
 1460 04dc EA020000 		.4byte	.LVL103
 1461 04e0 FD020000 		.4byte	0x2fd
 1462 04e4 20       		.uleb128 0x20
 1463 04e5 01       		.byte	0x1
 1464 04e6 52       		.byte	0x52
 1465 04e7 01       		.byte	0x1
 1466 04e8 3A       		.byte	0x3a
 1467 04e9 00       		.byte	0
 1468 04ea 00       		.byte	0
 1469 04eb 21       		.uleb128 0x21
 1470 04ec 36000000 		.4byte	.LVL27
 1471 04f0 FB040000 		.4byte	0x4fb
 1472 04f4 20       		.uleb128 0x20
 1473 04f5 01       		.byte	0x1
 1474 04f6 50       		.byte	0x50
 1475 04f7 02       		.byte	0x2
 1476 04f8 75       		.byte	0x75
 1477 04f9 00       		.sleb128 0
 1478 04fa 00       		.byte	0
ARM GAS  C:\Users\DNIEL~1\AppData\Local\Temp\ccjSd1Uf.s 			page 27


 1479 04fb 21       		.uleb128 0x21
 1480 04fc BC010000 		.4byte	.LVL62
 1481 0500 0B050000 		.4byte	0x50b
 1482 0504 20       		.uleb128 0x20
 1483 0505 01       		.byte	0x1
 1484 0506 50       		.byte	0x50
 1485 0507 02       		.byte	0x2
 1486 0508 75       		.byte	0x75
 1487 0509 00       		.sleb128 0
 1488 050a 00       		.byte	0
 1489 050b 21       		.uleb128 0x21
 1490 050c DC010000 		.4byte	.LVL64
 1491 0510 1B050000 		.4byte	0x51b
 1492 0514 20       		.uleb128 0x20
 1493 0515 01       		.byte	0x1
 1494 0516 50       		.byte	0x50
 1495 0517 02       		.byte	0x2
 1496 0518 75       		.byte	0x75
 1497 0519 00       		.sleb128 0
 1498 051a 00       		.byte	0
 1499 051b 21       		.uleb128 0x21
 1500 051c EC010000 		.4byte	.LVL65
 1501 0520 2B050000 		.4byte	0x52b
 1502 0524 20       		.uleb128 0x20
 1503 0525 01       		.byte	0x1
 1504 0526 50       		.byte	0x50
 1505 0527 02       		.byte	0x2
 1506 0528 75       		.byte	0x75
 1507 0529 00       		.sleb128 0
 1508 052a 00       		.byte	0
 1509 052b 21       		.uleb128 0x21
 1510 052c 08020000 		.4byte	.LVL68
 1511 0530 41050000 		.4byte	0x541
 1512 0534 20       		.uleb128 0x20
 1513 0535 01       		.byte	0x1
 1514 0536 51       		.byte	0x51
 1515 0537 02       		.byte	0x2
 1516 0538 78       		.byte	0x78
 1517 0539 00       		.sleb128 0
 1518 053a 20       		.uleb128 0x20
 1519 053b 01       		.byte	0x1
 1520 053c 50       		.byte	0x50
 1521 053d 02       		.byte	0x2
 1522 053e 75       		.byte	0x75
 1523 053f 00       		.sleb128 0
 1524 0540 00       		.byte	0
 1525 0541 21       		.uleb128 0x21
 1526 0542 1E020000 		.4byte	.LVL69
 1527 0546 57050000 		.4byte	0x557
 1528 054a 20       		.uleb128 0x20
 1529 054b 01       		.byte	0x1
 1530 054c 51       		.byte	0x51
 1531 054d 02       		.byte	0x2
 1532 054e 78       		.byte	0x78
 1533 054f 00       		.sleb128 0
 1534 0550 20       		.uleb128 0x20
 1535 0551 01       		.byte	0x1
ARM GAS  C:\Users\DNIEL~1\AppData\Local\Temp\ccjSd1Uf.s 			page 28


 1536 0552 50       		.byte	0x50
 1537 0553 02       		.byte	0x2
 1538 0554 75       		.byte	0x75
 1539 0555 00       		.sleb128 0
 1540 0556 00       		.byte	0
 1541 0557 21       		.uleb128 0x21
 1542 0558 2E020000 		.4byte	.LVL70
 1543 055c 6D050000 		.4byte	0x56d
 1544 0560 20       		.uleb128 0x20
 1545 0561 01       		.byte	0x1
 1546 0562 51       		.byte	0x51
 1547 0563 02       		.byte	0x2
 1548 0564 78       		.byte	0x78
 1549 0565 00       		.sleb128 0
 1550 0566 20       		.uleb128 0x20
 1551 0567 01       		.byte	0x1
 1552 0568 50       		.byte	0x50
 1553 0569 02       		.byte	0x2
 1554 056a 75       		.byte	0x75
 1555 056b 00       		.sleb128 0
 1556 056c 00       		.byte	0
 1557 056d 21       		.uleb128 0x21
 1558 056e 3A020000 		.4byte	.LVL71
 1559 0572 83050000 		.4byte	0x583
 1560 0576 20       		.uleb128 0x20
 1561 0577 01       		.byte	0x1
 1562 0578 51       		.byte	0x51
 1563 0579 02       		.byte	0x2
 1564 057a 78       		.byte	0x78
 1565 057b 00       		.sleb128 0
 1566 057c 20       		.uleb128 0x20
 1567 057d 01       		.byte	0x1
 1568 057e 50       		.byte	0x50
 1569 057f 02       		.byte	0x2
 1570 0580 75       		.byte	0x75
 1571 0581 00       		.sleb128 0
 1572 0582 00       		.byte	0
 1573 0583 21       		.uleb128 0x21
 1574 0584 7E020000 		.4byte	.LVL81
 1575 0588 99050000 		.4byte	0x599
 1576 058c 20       		.uleb128 0x20
 1577 058d 01       		.byte	0x1
 1578 058e 51       		.byte	0x51
 1579 058f 02       		.byte	0x2
 1580 0590 78       		.byte	0x78
 1581 0591 00       		.sleb128 0
 1582 0592 20       		.uleb128 0x20
 1583 0593 01       		.byte	0x1
 1584 0594 50       		.byte	0x50
 1585 0595 02       		.byte	0x2
 1586 0596 75       		.byte	0x75
 1587 0597 00       		.sleb128 0
 1588 0598 00       		.byte	0
 1589 0599 21       		.uleb128 0x21
 1590 059a 96020000 		.4byte	.LVL85
 1591 059e AF050000 		.4byte	0x5af
 1592 05a2 20       		.uleb128 0x20
ARM GAS  C:\Users\DNIEL~1\AppData\Local\Temp\ccjSd1Uf.s 			page 29


 1593 05a3 01       		.byte	0x1
 1594 05a4 51       		.byte	0x51
 1595 05a5 02       		.byte	0x2
 1596 05a6 78       		.byte	0x78
 1597 05a7 00       		.sleb128 0
 1598 05a8 20       		.uleb128 0x20
 1599 05a9 01       		.byte	0x1
 1600 05aa 50       		.byte	0x50
 1601 05ab 02       		.byte	0x2
 1602 05ac 75       		.byte	0x75
 1603 05ad 00       		.sleb128 0
 1604 05ae 00       		.byte	0
 1605 05af 21       		.uleb128 0x21
 1606 05b0 A6020000 		.4byte	.LVL88
 1607 05b4 C5050000 		.4byte	0x5c5
 1608 05b8 20       		.uleb128 0x20
 1609 05b9 01       		.byte	0x1
 1610 05ba 51       		.byte	0x51
 1611 05bb 02       		.byte	0x2
 1612 05bc 78       		.byte	0x78
 1613 05bd 00       		.sleb128 0
 1614 05be 20       		.uleb128 0x20
 1615 05bf 01       		.byte	0x1
 1616 05c0 50       		.byte	0x50
 1617 05c1 02       		.byte	0x2
 1618 05c2 75       		.byte	0x75
 1619 05c3 00       		.sleb128 0
 1620 05c4 00       		.byte	0
 1621 05c5 21       		.uleb128 0x21
 1622 05c6 B2020000 		.4byte	.LVL90
 1623 05ca DB050000 		.4byte	0x5db
 1624 05ce 20       		.uleb128 0x20
 1625 05cf 01       		.byte	0x1
 1626 05d0 51       		.byte	0x51
 1627 05d1 02       		.byte	0x2
 1628 05d2 78       		.byte	0x78
 1629 05d3 00       		.sleb128 0
 1630 05d4 20       		.uleb128 0x20
 1631 05d5 01       		.byte	0x1
 1632 05d6 50       		.byte	0x50
 1633 05d7 02       		.byte	0x2
 1634 05d8 75       		.byte	0x75
 1635 05d9 00       		.sleb128 0
 1636 05da 00       		.byte	0
 1637 05db 22       		.uleb128 0x22
 1638 05dc 5C030000 		.4byte	.LVL122
 1639 05e0 20       		.uleb128 0x20
 1640 05e1 01       		.byte	0x1
 1641 05e2 50       		.byte	0x50
 1642 05e3 02       		.byte	0x2
 1643 05e4 75       		.byte	0x75
 1644 05e5 00       		.sleb128 0
 1645 05e6 00       		.byte	0
 1646 05e7 00       		.byte	0
 1647 05e8 06       		.uleb128 0x6
 1648 05e9 04       		.byte	0x4
 1649 05ea B1010000 		.4byte	0x1b1
ARM GAS  C:\Users\DNIEL~1\AppData\Local\Temp\ccjSd1Uf.s 			page 30


 1650 05ee 23       		.uleb128 0x23
 1651 05ef C1000000 		.4byte	0xc1
 1652 05f3 FE050000 		.4byte	0x5fe
 1653 05f7 24       		.uleb128 0x24
 1654 05f8 AF000000 		.4byte	0xaf
 1655 05fc 0B       		.byte	0xb
 1656 05fd 00       		.byte	0
 1657 05fe 25       		.uleb128 0x25
 1658 05ff 01       		.byte	0x1
 1659 0600 77000000 		.4byte	.LASF45
 1660 0604 01       		.byte	0x1
 1661 0605 2001     		.2byte	0x120
 1662 0607 01       		.byte	0x1
 1663 0608 29000000 		.4byte	0x29
 1664 060c 00000000 		.4byte	.LFB11
 1665 0610 36000000 		.4byte	.LFE11
 1666 0614 57080000 		.4byte	.LLST26
 1667 0618 01       		.byte	0x1
 1668 0619 BE060000 		.4byte	0x6be
 1669 061d 26       		.uleb128 0x26
 1670 061e 73747200 		.ascii	"str\000"
 1671 0622 01       		.byte	0x1
 1672 0623 2001     		.2byte	0x120
 1673 0625 F7020000 		.4byte	0x2f7
 1674 0629 8F080000 		.4byte	.LLST27
 1675 062d 27       		.uleb128 0x27
 1676 062e E7000000 		.4byte	.LASF26
 1677 0632 01       		.byte	0x1
 1678 0633 2001     		.2byte	0x120
 1679 0635 30000000 		.4byte	0x30
 1680 0639 AD080000 		.4byte	.LLST28
 1681 063d 28       		.uleb128 0x28
 1682 063e 666D7400 		.ascii	"fmt\000"
 1683 0642 01       		.byte	0x1
 1684 0643 2001     		.2byte	0x120
 1685 0645 B6000000 		.4byte	0xb6
 1686 0649 02       		.byte	0x2
 1687 064a 91       		.byte	0x91
 1688 064b 78       		.sleb128 -8
 1689 064c 29       		.uleb128 0x29
 1690 064d 2A       		.uleb128 0x2a
 1691 064e 617000   		.ascii	"ap\000"
 1692 0651 01       		.byte	0x1
 1693 0652 2101     		.2byte	0x121
 1694 0654 E1010000 		.4byte	0x1e1
 1695 0658 02       		.byte	0x2
 1696 0659 91       		.byte	0x91
 1697 065a 50       		.sleb128 -48
 1698 065b 2A       		.uleb128 0x2a
 1699 065c 6D7300   		.ascii	"ms\000"
 1700 065f 01       		.byte	0x1
 1701 0660 2201     		.2byte	0x122
 1702 0662 8B020000 		.4byte	0x28b
 1703 0666 02       		.byte	0x2
 1704 0667 91       		.byte	0x91
 1705 0668 54       		.sleb128 -44
 1706 0669 2B       		.uleb128 0x2b
ARM GAS  C:\Users\DNIEL~1\AppData\Local\Temp\ccjSd1Uf.s 			page 31


 1707 066a 63687000 		.ascii	"chp\000"
 1708 066e 01       		.byte	0x1
 1709 066f 2301     		.2byte	0x123
 1710 0671 E8050000 		.4byte	0x5e8
 1711 0675 DB080000 		.4byte	.LLST29
 1712 0679 2C       		.uleb128 0x2c
 1713 067a 1A000000 		.4byte	.LVL132
 1714 067e BE060000 		.4byte	0x6be
 1715 0682 A1060000 		.4byte	0x6a1
 1716 0686 20       		.uleb128 0x20
 1717 0687 01       		.byte	0x1
 1718 0688 53       		.byte	0x53
 1719 0689 01       		.byte	0x1
 1720 068a 30       		.byte	0x30
 1721 068b 20       		.uleb128 0x20
 1722 068c 01       		.byte	0x1
 1723 068d 52       		.byte	0x52
 1724 068e 05       		.byte	0x5
 1725 068f F3       		.byte	0xf3
 1726 0690 01       		.uleb128 0x1
 1727 0691 51       		.byte	0x51
 1728 0692 31       		.byte	0x31
 1729 0693 1C       		.byte	0x1c
 1730 0694 20       		.uleb128 0x20
 1731 0695 01       		.byte	0x1
 1732 0696 51       		.byte	0x51
 1733 0697 02       		.byte	0x2
 1734 0698 75       		.byte	0x75
 1735 0699 00       		.sleb128 0
 1736 069a 20       		.uleb128 0x20
 1737 069b 01       		.byte	0x1
 1738 069c 50       		.byte	0x50
 1739 069d 02       		.byte	0x2
 1740 069e 91       		.byte	0x91
 1741 069f 44       		.sleb128 -60
 1742 06a0 00       		.byte	0
 1743 06a1 1F       		.uleb128 0x1f
 1744 06a2 26000000 		.4byte	.LVL134
 1745 06a6 8A030000 		.4byte	0x38a
 1746 06aa 20       		.uleb128 0x20
 1747 06ab 01       		.byte	0x1
 1748 06ac 52       		.byte	0x52
 1749 06ad 02       		.byte	0x2
 1750 06ae 74       		.byte	0x74
 1751 06af 00       		.sleb128 0
 1752 06b0 20       		.uleb128 0x20
 1753 06b1 01       		.byte	0x1
 1754 06b2 51       		.byte	0x51
 1755 06b3 02       		.byte	0x2
 1756 06b4 76       		.byte	0x76
 1757 06b5 00       		.sleb128 0
 1758 06b6 20       		.uleb128 0x20
 1759 06b7 01       		.byte	0x1
 1760 06b8 50       		.byte	0x50
 1761 06b9 02       		.byte	0x2
 1762 06ba 91       		.byte	0x91
 1763 06bb 44       		.sleb128 -60
ARM GAS  C:\Users\DNIEL~1\AppData\Local\Temp\ccjSd1Uf.s 			page 32


 1764 06bc 00       		.byte	0
 1765 06bd 00       		.byte	0
 1766 06be 2D       		.uleb128 0x2d
 1767 06bf 01       		.byte	0x1
 1768 06c0 0A010000 		.4byte	.LASF46
 1769 06c4 08       		.byte	0x8
 1770 06c5 57       		.byte	0x57
 1771 06c6 01       		.byte	0x1
 1772 06c7 01       		.byte	0x1
 1773 06c8 E1060000 		.4byte	0x6e1
 1774 06cc 09       		.uleb128 0x9
 1775 06cd E1060000 		.4byte	0x6e1
 1776 06d1 09       		.uleb128 0x9
 1777 06d2 DE000000 		.4byte	0xde
 1778 06d6 09       		.uleb128 0x9
 1779 06d7 30000000 		.4byte	0x30
 1780 06db 09       		.uleb128 0x9
 1781 06dc 30000000 		.4byte	0x30
 1782 06e0 00       		.byte	0
 1783 06e1 06       		.uleb128 0x6
 1784 06e2 04       		.byte	0x4
 1785 06e3 8B020000 		.4byte	0x28b
 1786 06e7 00       		.byte	0
 1787              		.section	.debug_abbrev,"",%progbits
 1788              	.Ldebug_abbrev0:
 1789 0000 01       		.uleb128 0x1
 1790 0001 11       		.uleb128 0x11
 1791 0002 01       		.byte	0x1
 1792 0003 25       		.uleb128 0x25
 1793 0004 0E       		.uleb128 0xe
 1794 0005 13       		.uleb128 0x13
 1795 0006 0B       		.uleb128 0xb
 1796 0007 03       		.uleb128 0x3
 1797 0008 0E       		.uleb128 0xe
 1798 0009 1B       		.uleb128 0x1b
 1799 000a 0E       		.uleb128 0xe
 1800 000b 55       		.uleb128 0x55
 1801 000c 06       		.uleb128 0x6
 1802 000d 11       		.uleb128 0x11
 1803 000e 01       		.uleb128 0x1
 1804 000f 52       		.uleb128 0x52
 1805 0010 01       		.uleb128 0x1
 1806 0011 10       		.uleb128 0x10
 1807 0012 06       		.uleb128 0x6
 1808 0013 00       		.byte	0
 1809 0014 00       		.byte	0
 1810 0015 02       		.uleb128 0x2
 1811 0016 24       		.uleb128 0x24
 1812 0017 00       		.byte	0
 1813 0018 0B       		.uleb128 0xb
 1814 0019 0B       		.uleb128 0xb
 1815 001a 3E       		.uleb128 0x3e
 1816 001b 0B       		.uleb128 0xb
 1817 001c 03       		.uleb128 0x3
 1818 001d 08       		.uleb128 0x8
 1819 001e 00       		.byte	0
 1820 001f 00       		.byte	0
ARM GAS  C:\Users\DNIEL~1\AppData\Local\Temp\ccjSd1Uf.s 			page 33


 1821 0020 03       		.uleb128 0x3
 1822 0021 16       		.uleb128 0x16
 1823 0022 00       		.byte	0
 1824 0023 03       		.uleb128 0x3
 1825 0024 0E       		.uleb128 0xe
 1826 0025 3A       		.uleb128 0x3a
 1827 0026 0B       		.uleb128 0xb
 1828 0027 3B       		.uleb128 0x3b
 1829 0028 0B       		.uleb128 0xb
 1830 0029 49       		.uleb128 0x49
 1831 002a 13       		.uleb128 0x13
 1832 002b 00       		.byte	0
 1833 002c 00       		.byte	0
 1834 002d 04       		.uleb128 0x4
 1835 002e 24       		.uleb128 0x24
 1836 002f 00       		.byte	0
 1837 0030 0B       		.uleb128 0xb
 1838 0031 0B       		.uleb128 0xb
 1839 0032 3E       		.uleb128 0x3e
 1840 0033 0B       		.uleb128 0xb
 1841 0034 03       		.uleb128 0x3
 1842 0035 0E       		.uleb128 0xe
 1843 0036 00       		.byte	0
 1844 0037 00       		.byte	0
 1845 0038 05       		.uleb128 0x5
 1846 0039 0F       		.uleb128 0xf
 1847 003a 00       		.byte	0
 1848 003b 0B       		.uleb128 0xb
 1849 003c 0B       		.uleb128 0xb
 1850 003d 00       		.byte	0
 1851 003e 00       		.byte	0
 1852 003f 06       		.uleb128 0x6
 1853 0040 0F       		.uleb128 0xf
 1854 0041 00       		.byte	0
 1855 0042 0B       		.uleb128 0xb
 1856 0043 0B       		.uleb128 0xb
 1857 0044 49       		.uleb128 0x49
 1858 0045 13       		.uleb128 0x13
 1859 0046 00       		.byte	0
 1860 0047 00       		.byte	0
 1861 0048 07       		.uleb128 0x7
 1862 0049 26       		.uleb128 0x26
 1863 004a 00       		.byte	0
 1864 004b 49       		.uleb128 0x49
 1865 004c 13       		.uleb128 0x13
 1866 004d 00       		.byte	0
 1867 004e 00       		.byte	0
 1868 004f 08       		.uleb128 0x8
 1869 0050 15       		.uleb128 0x15
 1870 0051 01       		.byte	0x1
 1871 0052 27       		.uleb128 0x27
 1872 0053 0C       		.uleb128 0xc
 1873 0054 49       		.uleb128 0x49
 1874 0055 13       		.uleb128 0x13
 1875 0056 01       		.uleb128 0x1
 1876 0057 13       		.uleb128 0x13
 1877 0058 00       		.byte	0
ARM GAS  C:\Users\DNIEL~1\AppData\Local\Temp\ccjSd1Uf.s 			page 34


 1878 0059 00       		.byte	0
 1879 005a 09       		.uleb128 0x9
 1880 005b 05       		.uleb128 0x5
 1881 005c 00       		.byte	0
 1882 005d 49       		.uleb128 0x49
 1883 005e 13       		.uleb128 0x13
 1884 005f 00       		.byte	0
 1885 0060 00       		.byte	0
 1886 0061 0A       		.uleb128 0xa
 1887 0062 13       		.uleb128 0x13
 1888 0063 01       		.byte	0x1
 1889 0064 03       		.uleb128 0x3
 1890 0065 0E       		.uleb128 0xe
 1891 0066 0B       		.uleb128 0xb
 1892 0067 0B       		.uleb128 0xb
 1893 0068 3A       		.uleb128 0x3a
 1894 0069 0B       		.uleb128 0xb
 1895 006a 3B       		.uleb128 0x3b
 1896 006b 0B       		.uleb128 0xb
 1897 006c 01       		.uleb128 0x1
 1898 006d 13       		.uleb128 0x13
 1899 006e 00       		.byte	0
 1900 006f 00       		.byte	0
 1901 0070 0B       		.uleb128 0xb
 1902 0071 0D       		.uleb128 0xd
 1903 0072 00       		.byte	0
 1904 0073 03       		.uleb128 0x3
 1905 0074 0E       		.uleb128 0xe
 1906 0075 3A       		.uleb128 0x3a
 1907 0076 0B       		.uleb128 0xb
 1908 0077 3B       		.uleb128 0x3b
 1909 0078 0B       		.uleb128 0xb
 1910 0079 49       		.uleb128 0x49
 1911 007a 13       		.uleb128 0x13
 1912 007b 38       		.uleb128 0x38
 1913 007c 0A       		.uleb128 0xa
 1914 007d 00       		.byte	0
 1915 007e 00       		.byte	0
 1916 007f 0C       		.uleb128 0xc
 1917 0080 0D       		.uleb128 0xd
 1918 0081 00       		.byte	0
 1919 0082 03       		.uleb128 0x3
 1920 0083 08       		.uleb128 0x8
 1921 0084 3A       		.uleb128 0x3a
 1922 0085 0B       		.uleb128 0xb
 1923 0086 3B       		.uleb128 0x3b
 1924 0087 0B       		.uleb128 0xb
 1925 0088 49       		.uleb128 0x49
 1926 0089 13       		.uleb128 0x13
 1927 008a 38       		.uleb128 0x38
 1928 008b 0A       		.uleb128 0xa
 1929 008c 00       		.byte	0
 1930 008d 00       		.byte	0
 1931 008e 0D       		.uleb128 0xd
 1932 008f 13       		.uleb128 0x13
 1933 0090 01       		.byte	0x1
 1934 0091 0B       		.uleb128 0xb
ARM GAS  C:\Users\DNIEL~1\AppData\Local\Temp\ccjSd1Uf.s 			page 35


 1935 0092 0B       		.uleb128 0xb
 1936 0093 3A       		.uleb128 0x3a
 1937 0094 0B       		.uleb128 0xb
 1938 0095 3B       		.uleb128 0x3b
 1939 0096 0B       		.uleb128 0xb
 1940 0097 01       		.uleb128 0x1
 1941 0098 13       		.uleb128 0x13
 1942 0099 00       		.byte	0
 1943 009a 00       		.byte	0
 1944 009b 0E       		.uleb128 0xe
 1945 009c 0D       		.uleb128 0xd
 1946 009d 00       		.byte	0
 1947 009e 03       		.uleb128 0x3
 1948 009f 0E       		.uleb128 0xe
 1949 00a0 49       		.uleb128 0x49
 1950 00a1 13       		.uleb128 0x13
 1951 00a2 38       		.uleb128 0x38
 1952 00a3 0A       		.uleb128 0xa
 1953 00a4 34       		.uleb128 0x34
 1954 00a5 0C       		.uleb128 0xc
 1955 00a6 00       		.byte	0
 1956 00a7 00       		.byte	0
 1957 00a8 0F       		.uleb128 0xf
 1958 00a9 2E       		.uleb128 0x2e
 1959 00aa 01       		.byte	0x1
 1960 00ab 03       		.uleb128 0x3
 1961 00ac 0E       		.uleb128 0xe
 1962 00ad 3A       		.uleb128 0x3a
 1963 00ae 0B       		.uleb128 0xb
 1964 00af 3B       		.uleb128 0x3b
 1965 00b0 0B       		.uleb128 0xb
 1966 00b1 27       		.uleb128 0x27
 1967 00b2 0C       		.uleb128 0xc
 1968 00b3 49       		.uleb128 0x49
 1969 00b4 13       		.uleb128 0x13
 1970 00b5 20       		.uleb128 0x20
 1971 00b6 0B       		.uleb128 0xb
 1972 00b7 01       		.uleb128 0x1
 1973 00b8 13       		.uleb128 0x13
 1974 00b9 00       		.byte	0
 1975 00ba 00       		.byte	0
 1976 00bb 10       		.uleb128 0x10
 1977 00bc 05       		.uleb128 0x5
 1978 00bd 00       		.byte	0
 1979 00be 03       		.uleb128 0x3
 1980 00bf 08       		.uleb128 0x8
 1981 00c0 3A       		.uleb128 0x3a
 1982 00c1 0B       		.uleb128 0xb
 1983 00c2 3B       		.uleb128 0x3b
 1984 00c3 0B       		.uleb128 0xb
 1985 00c4 49       		.uleb128 0x49
 1986 00c5 13       		.uleb128 0x13
 1987 00c6 00       		.byte	0
 1988 00c7 00       		.byte	0
 1989 00c8 11       		.uleb128 0x11
 1990 00c9 05       		.uleb128 0x5
 1991 00ca 00       		.byte	0
ARM GAS  C:\Users\DNIEL~1\AppData\Local\Temp\ccjSd1Uf.s 			page 36


 1992 00cb 03       		.uleb128 0x3
 1993 00cc 0E       		.uleb128 0xe
 1994 00cd 3A       		.uleb128 0x3a
 1995 00ce 0B       		.uleb128 0xb
 1996 00cf 3B       		.uleb128 0x3b
 1997 00d0 0B       		.uleb128 0xb
 1998 00d1 49       		.uleb128 0x49
 1999 00d2 13       		.uleb128 0x13
 2000 00d3 00       		.byte	0
 2001 00d4 00       		.byte	0
 2002 00d5 12       		.uleb128 0x12
 2003 00d6 34       		.uleb128 0x34
 2004 00d7 00       		.byte	0
 2005 00d8 03       		.uleb128 0x3
 2006 00d9 08       		.uleb128 0x8
 2007 00da 3A       		.uleb128 0x3a
 2008 00db 0B       		.uleb128 0xb
 2009 00dc 3B       		.uleb128 0x3b
 2010 00dd 0B       		.uleb128 0xb
 2011 00de 49       		.uleb128 0x49
 2012 00df 13       		.uleb128 0x13
 2013 00e0 00       		.byte	0
 2014 00e1 00       		.byte	0
 2015 00e2 13       		.uleb128 0x13
 2016 00e3 2E       		.uleb128 0x2e
 2017 00e4 01       		.byte	0x1
 2018 00e5 31       		.uleb128 0x31
 2019 00e6 13       		.uleb128 0x13
 2020 00e7 11       		.uleb128 0x11
 2021 00e8 01       		.uleb128 0x1
 2022 00e9 12       		.uleb128 0x12
 2023 00ea 01       		.uleb128 0x1
 2024 00eb 40       		.uleb128 0x40
 2025 00ec 06       		.uleb128 0x6
 2026 00ed 9742     		.uleb128 0x2117
 2027 00ef 0C       		.uleb128 0xc
 2028 00f0 01       		.uleb128 0x1
 2029 00f1 13       		.uleb128 0x13
 2030 00f2 00       		.byte	0
 2031 00f3 00       		.byte	0
 2032 00f4 14       		.uleb128 0x14
 2033 00f5 05       		.uleb128 0x5
 2034 00f6 00       		.byte	0
 2035 00f7 31       		.uleb128 0x31
 2036 00f8 13       		.uleb128 0x13
 2037 00f9 02       		.uleb128 0x2
 2038 00fa 06       		.uleb128 0x6
 2039 00fb 00       		.byte	0
 2040 00fc 00       		.byte	0
 2041 00fd 15       		.uleb128 0x15
 2042 00fe 34       		.uleb128 0x34
 2043 00ff 00       		.byte	0
 2044 0100 31       		.uleb128 0x31
 2045 0101 13       		.uleb128 0x13
 2046 0102 02       		.uleb128 0x2
 2047 0103 06       		.uleb128 0x6
 2048 0104 00       		.byte	0
ARM GAS  C:\Users\DNIEL~1\AppData\Local\Temp\ccjSd1Uf.s 			page 37


 2049 0105 00       		.byte	0
 2050 0106 16       		.uleb128 0x16
 2051 0107 05       		.uleb128 0x5
 2052 0108 00       		.byte	0
 2053 0109 31       		.uleb128 0x31
 2054 010a 13       		.uleb128 0x13
 2055 010b 1C       		.uleb128 0x1c
 2056 010c 0B       		.uleb128 0xb
 2057 010d 00       		.byte	0
 2058 010e 00       		.byte	0
 2059 010f 17       		.uleb128 0x17
 2060 0110 2E       		.uleb128 0x2e
 2061 0111 01       		.byte	0x1
 2062 0112 3F       		.uleb128 0x3f
 2063 0113 0C       		.uleb128 0xc
 2064 0114 03       		.uleb128 0x3
 2065 0115 0E       		.uleb128 0xe
 2066 0116 3A       		.uleb128 0x3a
 2067 0117 0B       		.uleb128 0xb
 2068 0118 3B       		.uleb128 0x3b
 2069 0119 0B       		.uleb128 0xb
 2070 011a 27       		.uleb128 0x27
 2071 011b 0C       		.uleb128 0xc
 2072 011c 11       		.uleb128 0x11
 2073 011d 01       		.uleb128 0x1
 2074 011e 12       		.uleb128 0x12
 2075 011f 01       		.uleb128 0x1
 2076 0120 40       		.uleb128 0x40
 2077 0121 06       		.uleb128 0x6
 2078 0122 9742     		.uleb128 0x2117
 2079 0124 0C       		.uleb128 0xc
 2080 0125 01       		.uleb128 0x1
 2081 0126 13       		.uleb128 0x13
 2082 0127 00       		.byte	0
 2083 0128 00       		.byte	0
 2084 0129 18       		.uleb128 0x18
 2085 012a 05       		.uleb128 0x5
 2086 012b 00       		.byte	0
 2087 012c 03       		.uleb128 0x3
 2088 012d 08       		.uleb128 0x8
 2089 012e 3A       		.uleb128 0x3a
 2090 012f 0B       		.uleb128 0xb
 2091 0130 3B       		.uleb128 0x3b
 2092 0131 0B       		.uleb128 0xb
 2093 0132 49       		.uleb128 0x49
 2094 0133 13       		.uleb128 0x13
 2095 0134 02       		.uleb128 0x2
 2096 0135 06       		.uleb128 0x6
 2097 0136 00       		.byte	0
 2098 0137 00       		.byte	0
 2099 0138 19       		.uleb128 0x19
 2100 0139 34       		.uleb128 0x34
 2101 013a 00       		.byte	0
 2102 013b 03       		.uleb128 0x3
 2103 013c 08       		.uleb128 0x8
 2104 013d 3A       		.uleb128 0x3a
 2105 013e 0B       		.uleb128 0xb
ARM GAS  C:\Users\DNIEL~1\AppData\Local\Temp\ccjSd1Uf.s 			page 38


 2106 013f 3B       		.uleb128 0x3b
 2107 0140 0B       		.uleb128 0xb
 2108 0141 49       		.uleb128 0x49
 2109 0142 13       		.uleb128 0x13
 2110 0143 02       		.uleb128 0x2
 2111 0144 06       		.uleb128 0x6
 2112 0145 00       		.byte	0
 2113 0146 00       		.byte	0
 2114 0147 1A       		.uleb128 0x1a
 2115 0148 34       		.uleb128 0x34
 2116 0149 00       		.byte	0
 2117 014a 03       		.uleb128 0x3
 2118 014b 0E       		.uleb128 0xe
 2119 014c 3A       		.uleb128 0x3a
 2120 014d 0B       		.uleb128 0xb
 2121 014e 3B       		.uleb128 0x3b
 2122 014f 0B       		.uleb128 0xb
 2123 0150 49       		.uleb128 0x49
 2124 0151 13       		.uleb128 0x13
 2125 0152 02       		.uleb128 0x2
 2126 0153 06       		.uleb128 0x6
 2127 0154 00       		.byte	0
 2128 0155 00       		.byte	0
 2129 0156 1B       		.uleb128 0x1b
 2130 0157 34       		.uleb128 0x34
 2131 0158 00       		.byte	0
 2132 0159 03       		.uleb128 0x3
 2133 015a 0E       		.uleb128 0xe
 2134 015b 3A       		.uleb128 0x3a
 2135 015c 0B       		.uleb128 0xb
 2136 015d 3B       		.uleb128 0x3b
 2137 015e 0B       		.uleb128 0xb
 2138 015f 49       		.uleb128 0x49
 2139 0160 13       		.uleb128 0x13
 2140 0161 02       		.uleb128 0x2
 2141 0162 0A       		.uleb128 0xa
 2142 0163 00       		.byte	0
 2143 0164 00       		.byte	0
 2144 0165 1C       		.uleb128 0x1c
 2145 0166 0A       		.uleb128 0xa
 2146 0167 00       		.byte	0
 2147 0168 03       		.uleb128 0x3
 2148 0169 0E       		.uleb128 0xe
 2149 016a 3A       		.uleb128 0x3a
 2150 016b 0B       		.uleb128 0xb
 2151 016c 3B       		.uleb128 0x3b
 2152 016d 0B       		.uleb128 0xb
 2153 016e 11       		.uleb128 0x11
 2154 016f 01       		.uleb128 0x1
 2155 0170 00       		.byte	0
 2156 0171 00       		.byte	0
 2157 0172 1D       		.uleb128 0x1d
 2158 0173 1D       		.uleb128 0x1d
 2159 0174 01       		.byte	0x1
 2160 0175 31       		.uleb128 0x31
 2161 0176 13       		.uleb128 0x13
 2162 0177 11       		.uleb128 0x11
ARM GAS  C:\Users\DNIEL~1\AppData\Local\Temp\ccjSd1Uf.s 			page 39


 2163 0178 01       		.uleb128 0x1
 2164 0179 12       		.uleb128 0x12
 2165 017a 01       		.uleb128 0x1
 2166 017b 58       		.uleb128 0x58
 2167 017c 0B       		.uleb128 0xb
 2168 017d 59       		.uleb128 0x59
 2169 017e 0B       		.uleb128 0xb
 2170 017f 01       		.uleb128 0x1
 2171 0180 13       		.uleb128 0x13
 2172 0181 00       		.byte	0
 2173 0182 00       		.byte	0
 2174 0183 1E       		.uleb128 0x1e
 2175 0184 05       		.uleb128 0x5
 2176 0185 00       		.byte	0
 2177 0186 31       		.uleb128 0x31
 2178 0187 13       		.uleb128 0x13
 2179 0188 00       		.byte	0
 2180 0189 00       		.byte	0
 2181 018a 1F       		.uleb128 0x1f
 2182 018b 898201   		.uleb128 0x4109
 2183 018e 01       		.byte	0x1
 2184 018f 11       		.uleb128 0x11
 2185 0190 01       		.uleb128 0x1
 2186 0191 31       		.uleb128 0x31
 2187 0192 13       		.uleb128 0x13
 2188 0193 00       		.byte	0
 2189 0194 00       		.byte	0
 2190 0195 20       		.uleb128 0x20
 2191 0196 8A8201   		.uleb128 0x410a
 2192 0199 00       		.byte	0
 2193 019a 02       		.uleb128 0x2
 2194 019b 0A       		.uleb128 0xa
 2195 019c 9142     		.uleb128 0x2111
 2196 019e 0A       		.uleb128 0xa
 2197 019f 00       		.byte	0
 2198 01a0 00       		.byte	0
 2199 01a1 21       		.uleb128 0x21
 2200 01a2 898201   		.uleb128 0x4109
 2201 01a5 01       		.byte	0x1
 2202 01a6 11       		.uleb128 0x11
 2203 01a7 01       		.uleb128 0x1
 2204 01a8 01       		.uleb128 0x1
 2205 01a9 13       		.uleb128 0x13
 2206 01aa 00       		.byte	0
 2207 01ab 00       		.byte	0
 2208 01ac 22       		.uleb128 0x22
 2209 01ad 898201   		.uleb128 0x4109
 2210 01b0 01       		.byte	0x1
 2211 01b1 11       		.uleb128 0x11
 2212 01b2 01       		.uleb128 0x1
 2213 01b3 00       		.byte	0
 2214 01b4 00       		.byte	0
 2215 01b5 23       		.uleb128 0x23
 2216 01b6 01       		.uleb128 0x1
 2217 01b7 01       		.byte	0x1
 2218 01b8 49       		.uleb128 0x49
 2219 01b9 13       		.uleb128 0x13
ARM GAS  C:\Users\DNIEL~1\AppData\Local\Temp\ccjSd1Uf.s 			page 40


 2220 01ba 01       		.uleb128 0x1
 2221 01bb 13       		.uleb128 0x13
 2222 01bc 00       		.byte	0
 2223 01bd 00       		.byte	0
 2224 01be 24       		.uleb128 0x24
 2225 01bf 21       		.uleb128 0x21
 2226 01c0 00       		.byte	0
 2227 01c1 49       		.uleb128 0x49
 2228 01c2 13       		.uleb128 0x13
 2229 01c3 2F       		.uleb128 0x2f
 2230 01c4 0B       		.uleb128 0xb
 2231 01c5 00       		.byte	0
 2232 01c6 00       		.byte	0
 2233 01c7 25       		.uleb128 0x25
 2234 01c8 2E       		.uleb128 0x2e
 2235 01c9 01       		.byte	0x1
 2236 01ca 3F       		.uleb128 0x3f
 2237 01cb 0C       		.uleb128 0xc
 2238 01cc 03       		.uleb128 0x3
 2239 01cd 0E       		.uleb128 0xe
 2240 01ce 3A       		.uleb128 0x3a
 2241 01cf 0B       		.uleb128 0xb
 2242 01d0 3B       		.uleb128 0x3b
 2243 01d1 05       		.uleb128 0x5
 2244 01d2 27       		.uleb128 0x27
 2245 01d3 0C       		.uleb128 0xc
 2246 01d4 49       		.uleb128 0x49
 2247 01d5 13       		.uleb128 0x13
 2248 01d6 11       		.uleb128 0x11
 2249 01d7 01       		.uleb128 0x1
 2250 01d8 12       		.uleb128 0x12
 2251 01d9 01       		.uleb128 0x1
 2252 01da 40       		.uleb128 0x40
 2253 01db 06       		.uleb128 0x6
 2254 01dc 9742     		.uleb128 0x2117
 2255 01de 0C       		.uleb128 0xc
 2256 01df 01       		.uleb128 0x1
 2257 01e0 13       		.uleb128 0x13
 2258 01e1 00       		.byte	0
 2259 01e2 00       		.byte	0
 2260 01e3 26       		.uleb128 0x26
 2261 01e4 05       		.uleb128 0x5
 2262 01e5 00       		.byte	0
 2263 01e6 03       		.uleb128 0x3
 2264 01e7 08       		.uleb128 0x8
 2265 01e8 3A       		.uleb128 0x3a
 2266 01e9 0B       		.uleb128 0xb
 2267 01ea 3B       		.uleb128 0x3b
 2268 01eb 05       		.uleb128 0x5
 2269 01ec 49       		.uleb128 0x49
 2270 01ed 13       		.uleb128 0x13
 2271 01ee 02       		.uleb128 0x2
 2272 01ef 06       		.uleb128 0x6
 2273 01f0 00       		.byte	0
 2274 01f1 00       		.byte	0
 2275 01f2 27       		.uleb128 0x27
 2276 01f3 05       		.uleb128 0x5
ARM GAS  C:\Users\DNIEL~1\AppData\Local\Temp\ccjSd1Uf.s 			page 41


 2277 01f4 00       		.byte	0
 2278 01f5 03       		.uleb128 0x3
 2279 01f6 0E       		.uleb128 0xe
 2280 01f7 3A       		.uleb128 0x3a
 2281 01f8 0B       		.uleb128 0xb
 2282 01f9 3B       		.uleb128 0x3b
 2283 01fa 05       		.uleb128 0x5
 2284 01fb 49       		.uleb128 0x49
 2285 01fc 13       		.uleb128 0x13
 2286 01fd 02       		.uleb128 0x2
 2287 01fe 06       		.uleb128 0x6
 2288 01ff 00       		.byte	0
 2289 0200 00       		.byte	0
 2290 0201 28       		.uleb128 0x28
 2291 0202 05       		.uleb128 0x5
 2292 0203 00       		.byte	0
 2293 0204 03       		.uleb128 0x3
 2294 0205 08       		.uleb128 0x8
 2295 0206 3A       		.uleb128 0x3a
 2296 0207 0B       		.uleb128 0xb
 2297 0208 3B       		.uleb128 0x3b
 2298 0209 05       		.uleb128 0x5
 2299 020a 49       		.uleb128 0x49
 2300 020b 13       		.uleb128 0x13
 2301 020c 02       		.uleb128 0x2
 2302 020d 0A       		.uleb128 0xa
 2303 020e 00       		.byte	0
 2304 020f 00       		.byte	0
 2305 0210 29       		.uleb128 0x29
 2306 0211 18       		.uleb128 0x18
 2307 0212 00       		.byte	0
 2308 0213 00       		.byte	0
 2309 0214 00       		.byte	0
 2310 0215 2A       		.uleb128 0x2a
 2311 0216 34       		.uleb128 0x34
 2312 0217 00       		.byte	0
 2313 0218 03       		.uleb128 0x3
 2314 0219 08       		.uleb128 0x8
 2315 021a 3A       		.uleb128 0x3a
 2316 021b 0B       		.uleb128 0xb
 2317 021c 3B       		.uleb128 0x3b
 2318 021d 05       		.uleb128 0x5
 2319 021e 49       		.uleb128 0x49
 2320 021f 13       		.uleb128 0x13
 2321 0220 02       		.uleb128 0x2
 2322 0221 0A       		.uleb128 0xa
 2323 0222 00       		.byte	0
 2324 0223 00       		.byte	0
 2325 0224 2B       		.uleb128 0x2b
 2326 0225 34       		.uleb128 0x34
 2327 0226 00       		.byte	0
 2328 0227 03       		.uleb128 0x3
 2329 0228 08       		.uleb128 0x8
 2330 0229 3A       		.uleb128 0x3a
 2331 022a 0B       		.uleb128 0xb
 2332 022b 3B       		.uleb128 0x3b
 2333 022c 05       		.uleb128 0x5
ARM GAS  C:\Users\DNIEL~1\AppData\Local\Temp\ccjSd1Uf.s 			page 42


 2334 022d 49       		.uleb128 0x49
 2335 022e 13       		.uleb128 0x13
 2336 022f 02       		.uleb128 0x2
 2337 0230 06       		.uleb128 0x6
 2338 0231 00       		.byte	0
 2339 0232 00       		.byte	0
 2340 0233 2C       		.uleb128 0x2c
 2341 0234 898201   		.uleb128 0x4109
 2342 0237 01       		.byte	0x1
 2343 0238 11       		.uleb128 0x11
 2344 0239 01       		.uleb128 0x1
 2345 023a 31       		.uleb128 0x31
 2346 023b 13       		.uleb128 0x13
 2347 023c 01       		.uleb128 0x1
 2348 023d 13       		.uleb128 0x13
 2349 023e 00       		.byte	0
 2350 023f 00       		.byte	0
 2351 0240 2D       		.uleb128 0x2d
 2352 0241 2E       		.uleb128 0x2e
 2353 0242 01       		.byte	0x1
 2354 0243 3F       		.uleb128 0x3f
 2355 0244 0C       		.uleb128 0xc
 2356 0245 03       		.uleb128 0x3
 2357 0246 0E       		.uleb128 0xe
 2358 0247 3A       		.uleb128 0x3a
 2359 0248 0B       		.uleb128 0xb
 2360 0249 3B       		.uleb128 0x3b
 2361 024a 0B       		.uleb128 0xb
 2362 024b 27       		.uleb128 0x27
 2363 024c 0C       		.uleb128 0xc
 2364 024d 3C       		.uleb128 0x3c
 2365 024e 0C       		.uleb128 0xc
 2366 024f 01       		.uleb128 0x1
 2367 0250 13       		.uleb128 0x13
 2368 0251 00       		.byte	0
 2369 0252 00       		.byte	0
 2370 0253 00       		.byte	0
 2371              		.section	.debug_loc,"",%progbits
 2372              	.Ldebug_loc0:
 2373              	.LLST0:
 2374 0000 00000000 		.4byte	.LFB12
 2375 0004 02000000 		.4byte	.LCFI0
 2376 0008 0200     		.2byte	0x2
 2377 000a 7D       		.byte	0x7d
 2378 000b 00       		.sleb128 0
 2379 000c 02000000 		.4byte	.LCFI0
 2380 0010 68000000 		.4byte	.LFE12
 2381 0014 0200     		.2byte	0x2
 2382 0016 7D       		.byte	0x7d
 2383 0017 10       		.sleb128 16
 2384 0018 00000000 		.4byte	0
 2385 001c 00000000 		.4byte	0
 2386              	.LLST1:
 2387 0020 00000000 		.4byte	.LVL0
 2388 0024 0E000000 		.4byte	.LVL2
 2389 0028 0100     		.2byte	0x1
 2390 002a 50       		.byte	0x50
ARM GAS  C:\Users\DNIEL~1\AppData\Local\Temp\ccjSd1Uf.s 			page 43


 2391 002b 0E000000 		.4byte	.LVL2
 2392 002f 52000000 		.4byte	.LVL18
 2393 0033 0100     		.2byte	0x1
 2394 0035 57       		.byte	0x57
 2395 0036 5A000000 		.4byte	.LVL19
 2396 003a 68000000 		.4byte	.LFE12
 2397 003e 0100     		.2byte	0x1
 2398 0040 57       		.byte	0x57
 2399 0041 00000000 		.4byte	0
 2400 0045 00000000 		.4byte	0
 2401              	.LLST2:
 2402 0049 00000000 		.4byte	.LVL0
 2403 004d 0E000000 		.4byte	.LVL2
 2404 0051 0100     		.2byte	0x1
 2405 0053 51       		.byte	0x51
 2406 0054 0E000000 		.4byte	.LVL2
 2407 0058 68000000 		.4byte	.LFE12
 2408 005c 0400     		.2byte	0x4
 2409 005e F3       		.byte	0xf3
 2410 005f 01       		.uleb128 0x1
 2411 0060 51       		.byte	0x51
 2412 0061 9F       		.byte	0x9f
 2413 0062 00000000 		.4byte	0
 2414 0066 00000000 		.4byte	0
 2415              	.LLST3:
 2416 006a 00000000 		.4byte	.LVL0
 2417 006e 38000000 		.4byte	.LVL12
 2418 0072 0100     		.2byte	0x1
 2419 0074 52       		.byte	0x52
 2420 0075 38000000 		.4byte	.LVL12
 2421 0079 68000000 		.4byte	.LFE12
 2422 007d 0400     		.2byte	0x4
 2423 007f F3       		.byte	0xf3
 2424 0080 01       		.uleb128 0x1
 2425 0081 52       		.byte	0x52
 2426 0082 9F       		.byte	0x9f
 2427 0083 00000000 		.4byte	0
 2428 0087 00000000 		.4byte	0
 2429              	.LLST4:
 2430 008b 16000000 		.4byte	.LVL3
 2431 008f 1A000000 		.4byte	.LVL4
 2432 0093 0100     		.2byte	0x1
 2433 0095 51       		.byte	0x51
 2434 0096 1A000000 		.4byte	.LVL4
 2435 009a 24000000 		.4byte	.LVL6
 2436 009e 0100     		.2byte	0x1
 2437 00a0 53       		.byte	0x53
 2438 00a1 34000000 		.4byte	.LVL11
 2439 00a5 38000000 		.4byte	.LVL12
 2440 00a9 0600     		.2byte	0x6
 2441 00ab 7C       		.byte	0x7c
 2442 00ac 00       		.sleb128 0
 2443 00ad 70       		.byte	0x70
 2444 00ae 00       		.sleb128 0
 2445 00af 1C       		.byte	0x1c
 2446 00b0 9F       		.byte	0x9f
 2447 00b1 38000000 		.4byte	.LVL12
ARM GAS  C:\Users\DNIEL~1\AppData\Local\Temp\ccjSd1Uf.s 			page 44


 2448 00b5 3E000000 		.4byte	.LVL15
 2449 00b9 0100     		.2byte	0x1
 2450 00bb 52       		.byte	0x52
 2451 00bc 3E000000 		.4byte	.LVL15
 2452 00c0 44000000 		.4byte	.LVL16
 2453 00c4 0600     		.2byte	0x6
 2454 00c6 7C       		.byte	0x7c
 2455 00c7 00       		.sleb128 0
 2456 00c8 71       		.byte	0x71
 2457 00c9 00       		.sleb128 0
 2458 00ca 1C       		.byte	0x1c
 2459 00cb 9F       		.byte	0x9f
 2460 00cc 00000000 		.4byte	0
 2461 00d0 00000000 		.4byte	0
 2462              	.LLST5:
 2463 00d4 08000000 		.4byte	.LVL1
 2464 00d8 0E000000 		.4byte	.LVL2
 2465 00dc 0100     		.2byte	0x1
 2466 00de 5C       		.byte	0x5c
 2467 00df 2A000000 		.4byte	.LVL8
 2468 00e3 3C000000 		.4byte	.LVL14
 2469 00e7 0100     		.2byte	0x1
 2470 00e9 50       		.byte	0x50
 2471 00ea 3C000000 		.4byte	.LVL14
 2472 00ee 44000000 		.4byte	.LVL16
 2473 00f2 0100     		.2byte	0x1
 2474 00f4 51       		.byte	0x51
 2475 00f5 00000000 		.4byte	0
 2476 00f9 00000000 		.4byte	0
 2477              	.LLST6:
 2478 00fd 08000000 		.4byte	.LVL1
 2479 0101 16000000 		.4byte	.LVL3
 2480 0105 0100     		.2byte	0x1
 2481 0107 51       		.byte	0x51
 2482 0108 30000000 		.4byte	.LVL10
 2483 010c 3A000000 		.4byte	.LVL13
 2484 0110 0100     		.2byte	0x1
 2485 0112 51       		.byte	0x51
 2486 0113 3A000000 		.4byte	.LVL13
 2487 0117 68000000 		.4byte	.LFE12
 2488 011b 0100     		.2byte	0x1
 2489 011d 56       		.byte	0x56
 2490 011e 00000000 		.4byte	0
 2491 0122 00000000 		.4byte	0
 2492              	.LLST7:
 2493 0126 08000000 		.4byte	.LVL1
 2494 012a 0E000000 		.4byte	.LVL2
 2495 012e 0100     		.2byte	0x1
 2496 0130 51       		.byte	0x51
 2497 0131 0E000000 		.4byte	.LVL2
 2498 0135 28000000 		.4byte	.LVL7
 2499 0139 0100     		.2byte	0x1
 2500 013b 54       		.byte	0x54
 2501 013c 30000000 		.4byte	.LVL10
 2502 0140 68000000 		.4byte	.LFE12
 2503 0144 0100     		.2byte	0x1
 2504 0146 54       		.byte	0x54
ARM GAS  C:\Users\DNIEL~1\AppData\Local\Temp\ccjSd1Uf.s 			page 45


 2505 0147 00000000 		.4byte	0
 2506 014b 00000000 		.4byte	0
 2507              	.LLST8:
 2508 014f 00000000 		.4byte	.LFB10
 2509 0153 04000000 		.4byte	.LCFI1
 2510 0157 0200     		.2byte	0x2
 2511 0159 7D       		.byte	0x7d
 2512 015a 00       		.sleb128 0
 2513 015b 04000000 		.4byte	.LCFI1
 2514 015f 06000000 		.4byte	.LCFI2
 2515 0163 0200     		.2byte	0x2
 2516 0165 7D       		.byte	0x7d
 2517 0166 24       		.sleb128 36
 2518 0167 06000000 		.4byte	.LCFI2
 2519 016b 7C030000 		.4byte	.LFE10
 2520 016f 0300     		.2byte	0x3
 2521 0171 7D       		.byte	0x7d
 2522 0172 C800     		.sleb128 72
 2523 0174 00000000 		.4byte	0
 2524 0178 00000000 		.4byte	0
 2525              	.LLST9:
 2526 017c 00000000 		.4byte	.LVL20
 2527 0180 12000000 		.4byte	.LVL21
 2528 0184 0100     		.2byte	0x1
 2529 0186 50       		.byte	0x50
 2530 0187 12000000 		.4byte	.LVL21
 2531 018b 7C030000 		.4byte	.LFE10
 2532 018f 0100     		.2byte	0x1
 2533 0191 55       		.byte	0x55
 2534 0192 00000000 		.4byte	0
 2535 0196 00000000 		.4byte	0
 2536              	.LLST10:
 2537 019a 00000000 		.4byte	.LVL20
 2538 019e 1E000000 		.4byte	.LVL22
 2539 01a2 0100     		.2byte	0x1
 2540 01a4 51       		.byte	0x51
 2541 01a5 1E000000 		.4byte	.LVL22
 2542 01a9 24000000 		.4byte	.LVL23
 2543 01ad 0100     		.2byte	0x1
 2544 01af 54       		.byte	0x54
 2545 01b0 24000000 		.4byte	.LVL23
 2546 01b4 30000000 		.4byte	.LVL25
 2547 01b8 0100     		.2byte	0x1
 2548 01ba 57       		.byte	0x57
 2549 01bb 30000000 		.4byte	.LVL25
 2550 01bf 3A000000 		.4byte	.LVL28
 2551 01c3 0100     		.2byte	0x1
 2552 01c5 54       		.byte	0x54
 2553 01c6 3A000000 		.4byte	.LVL28
 2554 01ca 64000000 		.4byte	.LVL33
 2555 01ce 0100     		.2byte	0x1
 2556 01d0 57       		.byte	0x57
 2557 01d1 64000000 		.4byte	.LVL33
 2558 01d5 12030000 		.4byte	.LVL109
 2559 01d9 0100     		.2byte	0x1
 2560 01db 54       		.byte	0x54
 2561 01dc 12030000 		.4byte	.LVL109
ARM GAS  C:\Users\DNIEL~1\AppData\Local\Temp\ccjSd1Uf.s 			page 46


 2562 01e0 1A030000 		.4byte	.LVL110
 2563 01e4 0300     		.2byte	0x3
 2564 01e6 77       		.byte	0x77
 2565 01e7 01       		.sleb128 1
 2566 01e8 9F       		.byte	0x9f
 2567 01e9 1A030000 		.4byte	.LVL110
 2568 01ed 1C030000 		.4byte	.LVL111
 2569 01f1 0100     		.2byte	0x1
 2570 01f3 57       		.byte	0x57
 2571 01f4 1C030000 		.4byte	.LVL111
 2572 01f8 22030000 		.4byte	.LVL112
 2573 01fc 0100     		.2byte	0x1
 2574 01fe 54       		.byte	0x54
 2575 01ff 22030000 		.4byte	.LVL112
 2576 0203 2E030000 		.4byte	.LVL116
 2577 0207 0100     		.2byte	0x1
 2578 0209 50       		.byte	0x50
 2579 020a 3C030000 		.4byte	.LVL118
 2580 020e 44030000 		.4byte	.LVL119
 2581 0212 0100     		.2byte	0x1
 2582 0214 50       		.byte	0x50
 2583 0215 44030000 		.4byte	.LVL119
 2584 0219 4E030000 		.4byte	.LVL121
 2585 021d 0100     		.2byte	0x1
 2586 021f 57       		.byte	0x57
 2587 0220 4E030000 		.4byte	.LVL121
 2588 0224 7C030000 		.4byte	.LFE10
 2589 0228 0100     		.2byte	0x1
 2590 022a 54       		.byte	0x54
 2591 022b 00000000 		.4byte	0
 2592 022f 00000000 		.4byte	0
 2593              	.LLST11:
 2594 0233 00000000 		.4byte	.LVL20
 2595 0237 1E000000 		.4byte	.LVL22
 2596 023b 0100     		.2byte	0x1
 2597 023d 52       		.byte	0x52
 2598 023e 1E000000 		.4byte	.LVL22
 2599 0242 34000000 		.4byte	.LVL26
 2600 0246 0300     		.2byte	0x3
 2601 0248 56       		.byte	0x56
 2602 0249 93       		.byte	0x93
 2603 024a 04       		.uleb128 0x4
 2604 024b 36000000 		.4byte	.LVL27
 2605 024f 3E000000 		.4byte	.LVL29
 2606 0253 0300     		.2byte	0x3
 2607 0255 56       		.byte	0x56
 2608 0256 93       		.byte	0x93
 2609 0257 04       		.uleb128 0x4
 2610 0258 3E000000 		.4byte	.LVL29
 2611 025c 66000000 		.4byte	.LVL34
 2612 0260 0100     		.2byte	0x1
 2613 0262 52       		.byte	0x52
 2614 0263 66000000 		.4byte	.LVL34
 2615 0267 6A000000 		.4byte	.LVL36
 2616 026b 0500     		.2byte	0x5
 2617 026d 76       		.byte	0x76
 2618 026e 04       		.sleb128 4
ARM GAS  C:\Users\DNIEL~1\AppData\Local\Temp\ccjSd1Uf.s 			page 47


 2619 026f 9F       		.byte	0x9f
 2620 0270 93       		.byte	0x93
 2621 0271 04       		.uleb128 0x4
 2622 0272 6A000000 		.4byte	.LVL36
 2623 0276 74000000 		.4byte	.LVL38
 2624 027a 0300     		.2byte	0x3
 2625 027c 56       		.byte	0x56
 2626 027d 93       		.byte	0x93
 2627 027e 04       		.uleb128 0x4
 2628 027f 74000000 		.4byte	.LVL38
 2629 0283 78000000 		.4byte	.LVL39
 2630 0287 0500     		.2byte	0x5
 2631 0289 76       		.byte	0x76
 2632 028a 04       		.sleb128 4
 2633 028b 9F       		.byte	0x9f
 2634 028c 93       		.byte	0x93
 2635 028d 04       		.uleb128 0x4
 2636 028e 80000000 		.4byte	.LVL41
 2637 0292 8C000000 		.4byte	.LVL43
 2638 0296 0500     		.2byte	0x5
 2639 0298 76       		.byte	0x76
 2640 0299 04       		.sleb128 4
 2641 029a 9F       		.byte	0x9f
 2642 029b 93       		.byte	0x93
 2643 029c 04       		.uleb128 0x4
 2644 029d 8C000000 		.4byte	.LVL43
 2645 02a1 2A010000 		.4byte	.LVL47
 2646 02a5 0300     		.2byte	0x3
 2647 02a7 56       		.byte	0x56
 2648 02a8 93       		.byte	0x93
 2649 02a9 04       		.uleb128 0x4
 2650 02aa 2A010000 		.4byte	.LVL47
 2651 02ae 40020000 		.4byte	.LVL72
 2652 02b2 0300     		.2byte	0x3
 2653 02b4 56       		.byte	0x56
 2654 02b5 93       		.byte	0x93
 2655 02b6 04       		.uleb128 0x4
 2656 02b7 40020000 		.4byte	.LVL72
 2657 02bb 4C020000 		.4byte	.LVL74
 2658 02bf 0500     		.2byte	0x5
 2659 02c1 76       		.byte	0x76
 2660 02c2 04       		.sleb128 4
 2661 02c3 9F       		.byte	0x9f
 2662 02c4 93       		.byte	0x93
 2663 02c5 04       		.uleb128 0x4
 2664 02c6 4C020000 		.4byte	.LVL74
 2665 02ca C8020000 		.4byte	.LVL96
 2666 02ce 0300     		.2byte	0x3
 2667 02d0 56       		.byte	0x56
 2668 02d1 93       		.byte	0x93
 2669 02d2 04       		.uleb128 0x4
 2670 02d3 C8020000 		.4byte	.LVL96
 2671 02d7 DE020000 		.4byte	.LVL101
 2672 02db 0300     		.2byte	0x3
 2673 02dd 56       		.byte	0x56
 2674 02de 93       		.byte	0x93
 2675 02df 04       		.uleb128 0x4
ARM GAS  C:\Users\DNIEL~1\AppData\Local\Temp\ccjSd1Uf.s 			page 48


 2676 02e0 DE020000 		.4byte	.LVL101
 2677 02e4 12030000 		.4byte	.LVL109
 2678 02e8 0300     		.2byte	0x3
 2679 02ea 56       		.byte	0x56
 2680 02eb 93       		.byte	0x93
 2681 02ec 04       		.uleb128 0x4
 2682 02ed 12030000 		.4byte	.LVL109
 2683 02f1 1C030000 		.4byte	.LVL111
 2684 02f5 0100     		.2byte	0x1
 2685 02f7 52       		.byte	0x52
 2686 02f8 22030000 		.4byte	.LVL112
 2687 02fc 26030000 		.4byte	.LVL114
 2688 0300 0500     		.2byte	0x5
 2689 0302 76       		.byte	0x76
 2690 0303 04       		.sleb128 4
 2691 0304 9F       		.byte	0x9f
 2692 0305 93       		.byte	0x93
 2693 0306 04       		.uleb128 0x4
 2694 0307 26030000 		.4byte	.LVL114
 2695 030b 2E030000 		.4byte	.LVL116
 2696 030f 0300     		.2byte	0x3
 2697 0311 56       		.byte	0x56
 2698 0312 93       		.byte	0x93
 2699 0313 04       		.uleb128 0x4
 2700 0314 2E030000 		.4byte	.LVL116
 2701 0318 44030000 		.4byte	.LVL119
 2702 031c 0500     		.2byte	0x5
 2703 031e 76       		.byte	0x76
 2704 031f 04       		.sleb128 4
 2705 0320 9F       		.byte	0x9f
 2706 0321 93       		.byte	0x93
 2707 0322 04       		.uleb128 0x4
 2708 0323 44030000 		.4byte	.LVL119
 2709 0327 4E030000 		.4byte	.LVL121
 2710 032b 0100     		.2byte	0x1
 2711 032d 52       		.byte	0x52
 2712 032e 4E030000 		.4byte	.LVL121
 2713 0332 7C030000 		.4byte	.LFE10
 2714 0336 0300     		.2byte	0x3
 2715 0338 56       		.byte	0x56
 2716 0339 93       		.byte	0x93
 2717 033a 04       		.uleb128 0x4
 2718 033b 00000000 		.4byte	0
 2719 033f 00000000 		.4byte	0
 2720              	.LLST12:
 2721 0343 44000000 		.4byte	.LVL30
 2722 0347 30010000 		.4byte	.LVL48
 2723 034b 0200     		.2byte	0x2
 2724 034d 91       		.byte	0x91
 2725 034e 40       		.sleb128 -64
 2726 034f 30010000 		.4byte	.LVL48
 2727 0353 4C010000 		.4byte	.LVL49
 2728 0357 0100     		.2byte	0x1
 2729 0359 5A       		.byte	0x5a
 2730 035a 4C010000 		.4byte	.LVL49
 2731 035e 68010000 		.4byte	.LVL51
 2732 0362 0100     		.2byte	0x1
ARM GAS  C:\Users\DNIEL~1\AppData\Local\Temp\ccjSd1Uf.s 			page 49


 2733 0364 5B       		.byte	0x5b
 2734 0365 68010000 		.4byte	.LVL51
 2735 0369 70010000 		.4byte	.LVL52
 2736 036d 0100     		.2byte	0x1
 2737 036f 52       		.byte	0x52
 2738 0370 70010000 		.4byte	.LVL52
 2739 0374 88010000 		.4byte	.LVL54
 2740 0378 0100     		.2byte	0x1
 2741 037a 5B       		.byte	0x5b
 2742 037b 40020000 		.4byte	.LVL72
 2743 037f 4A020000 		.4byte	.LVL73
 2744 0383 0200     		.2byte	0x2
 2745 0385 91       		.byte	0x91
 2746 0386 40       		.sleb128 -64
 2747 0387 4A020000 		.4byte	.LVL73
 2748 038b 54020000 		.4byte	.LVL75
 2749 038f 0300     		.2byte	0x3
 2750 0391 91       		.byte	0x91
 2751 0392 BC7F     		.sleb128 -68
 2752 0394 B8020000 		.4byte	.LVL92
 2753 0398 C8020000 		.4byte	.LVL96
 2754 039c 0200     		.2byte	0x2
 2755 039e 91       		.byte	0x91
 2756 039f 40       		.sleb128 -64
 2757 03a0 D2020000 		.4byte	.LVL97
 2758 03a4 E4020000 		.4byte	.LVL102
 2759 03a8 0200     		.2byte	0x2
 2760 03aa 91       		.byte	0x91
 2761 03ab 40       		.sleb128 -64
 2762 03ac E4020000 		.4byte	.LVL102
 2763 03b0 E9020000 		.4byte	.LVL103-1
 2764 03b4 0100     		.2byte	0x1
 2765 03b6 50       		.byte	0x50
 2766 03b7 F6020000 		.4byte	.LVL104
 2767 03bb FA020000 		.4byte	.LVL105
 2768 03bf 0200     		.2byte	0x2
 2769 03c1 91       		.byte	0x91
 2770 03c2 40       		.sleb128 -64
 2771 03c3 FA020000 		.4byte	.LVL105
 2772 03c7 04030000 		.4byte	.LVL106
 2773 03cb 0300     		.2byte	0x3
 2774 03cd 91       		.byte	0x91
 2775 03ce BC7F     		.sleb128 -68
 2776 03d0 04030000 		.4byte	.LVL106
 2777 03d4 4E030000 		.4byte	.LVL121
 2778 03d8 0200     		.2byte	0x2
 2779 03da 91       		.byte	0x91
 2780 03db 40       		.sleb128 -64
 2781 03dc 66030000 		.4byte	.LVL125
 2782 03e0 6C030000 		.4byte	.LVL126
 2783 03e4 0200     		.2byte	0x2
 2784 03e6 91       		.byte	0x91
 2785 03e7 40       		.sleb128 -64
 2786 03e8 6C030000 		.4byte	.LVL126
 2787 03ec 74030000 		.4byte	.LVL128
 2788 03f0 0300     		.2byte	0x3
 2789 03f2 91       		.byte	0x91
ARM GAS  C:\Users\DNIEL~1\AppData\Local\Temp\ccjSd1Uf.s 			page 50


 2790 03f3 BC7F     		.sleb128 -68
 2791 03f5 74030000 		.4byte	.LVL128
 2792 03f9 7C030000 		.4byte	.LFE10
 2793 03fd 0100     		.2byte	0x1
 2794 03ff 5A       		.byte	0x5a
 2795 0400 00000000 		.4byte	0
 2796 0404 00000000 		.4byte	0
 2797              	.LLST13:
 2798 0408 44000000 		.4byte	.LVL30
 2799 040c 2A010000 		.4byte	.LVL47
 2800 0410 0200     		.2byte	0x2
 2801 0412 91       		.byte	0x91
 2802 0413 40       		.sleb128 -64
 2803 0414 2A010000 		.4byte	.LVL47
 2804 0418 B0010000 		.4byte	.LVL60
 2805 041c 0100     		.2byte	0x1
 2806 041e 5A       		.byte	0x5a
 2807 041f B0010000 		.4byte	.LVL60
 2808 0423 BA010000 		.4byte	.LVL61
 2809 0427 0400     		.2byte	0x4
 2810 0429 7A       		.byte	0x7a
 2811 042a 00       		.sleb128 0
 2812 042b 20       		.byte	0x20
 2813 042c 9F       		.byte	0x9f
 2814 042d BA010000 		.4byte	.LVL61
 2815 0431 C6010000 		.4byte	.LVL63
 2816 0435 0300     		.2byte	0x3
 2817 0437 79       		.byte	0x79
 2818 0438 7F       		.sleb128 -1
 2819 0439 9F       		.byte	0x9f
 2820 043a 40020000 		.4byte	.LVL72
 2821 043e 54020000 		.4byte	.LVL75
 2822 0442 0200     		.2byte	0x2
 2823 0444 91       		.byte	0x91
 2824 0445 40       		.sleb128 -64
 2825 0446 54020000 		.4byte	.LVL75
 2826 044a 84020000 		.4byte	.LVL83
 2827 044e 0100     		.2byte	0x1
 2828 0450 5A       		.byte	0x5a
 2829 0451 B8020000 		.4byte	.LVL92
 2830 0455 4E030000 		.4byte	.LVL121
 2831 0459 0200     		.2byte	0x2
 2832 045b 91       		.byte	0x91
 2833 045c 40       		.sleb128 -64
 2834 045d 4E030000 		.4byte	.LVL121
 2835 0461 66030000 		.4byte	.LVL125
 2836 0465 0100     		.2byte	0x1
 2837 0467 5A       		.byte	0x5a
 2838 0468 66030000 		.4byte	.LVL125
 2839 046c 74030000 		.4byte	.LVL128
 2840 0470 0200     		.2byte	0x2
 2841 0472 91       		.byte	0x91
 2842 0473 40       		.sleb128 -64
 2843 0474 74030000 		.4byte	.LVL128
 2844 0478 7C030000 		.4byte	.LFE10
 2845 047c 0100     		.2byte	0x1
 2846 047e 5A       		.byte	0x5a
ARM GAS  C:\Users\DNIEL~1\AppData\Local\Temp\ccjSd1Uf.s 			page 51


 2847 047f 00000000 		.4byte	0
 2848 0483 00000000 		.4byte	0
 2849              	.LLST14:
 2850 0487 24000000 		.4byte	.LVL23
 2851 048b 26000000 		.4byte	.LVL24
 2852 048f 0200     		.2byte	0x2
 2853 0491 74       		.byte	0x74
 2854 0492 00       		.sleb128 0
 2855 0493 3A000000 		.4byte	.LVL28
 2856 0497 3E000000 		.4byte	.LVL29
 2857 049b 0200     		.2byte	0x2
 2858 049d 74       		.byte	0x74
 2859 049e 00       		.sleb128 0
 2860 049f 66000000 		.4byte	.LVL34
 2861 04a3 68000000 		.4byte	.LVL35
 2862 04a7 0100     		.2byte	0x1
 2863 04a9 53       		.byte	0x53
 2864 04aa 68000000 		.4byte	.LVL35
 2865 04ae 6A000000 		.4byte	.LVL36
 2866 04b2 0200     		.2byte	0x2
 2867 04b4 76       		.byte	0x76
 2868 04b5 00       		.sleb128 0
 2869 04b6 6A000000 		.4byte	.LVL36
 2870 04ba 74000000 		.4byte	.LVL38
 2871 04be 0100     		.2byte	0x1
 2872 04c0 51       		.byte	0x51
 2873 04c1 74000000 		.4byte	.LVL38
 2874 04c5 28010000 		.4byte	.LVL46
 2875 04c9 0100     		.2byte	0x1
 2876 04cb 53       		.byte	0x53
 2877 04cc 40020000 		.4byte	.LVL72
 2878 04d0 54020000 		.4byte	.LVL75
 2879 04d4 0100     		.2byte	0x1
 2880 04d6 53       		.byte	0x53
 2881 04d7 B8020000 		.4byte	.LVL92
 2882 04db BA020000 		.4byte	.LVL93
 2883 04df 0100     		.2byte	0x1
 2884 04e1 53       		.byte	0x53
 2885 04e2 D2020000 		.4byte	.LVL97
 2886 04e6 D6020000 		.4byte	.LVL98
 2887 04ea 0100     		.2byte	0x1
 2888 04ec 53       		.byte	0x53
 2889 04ed D6020000 		.4byte	.LVL98
 2890 04f1 DA020000 		.4byte	.LVL99
 2891 04f5 0200     		.2byte	0x2
 2892 04f7 38       		.byte	0x38
 2893 04f8 9F       		.byte	0x9f
 2894 04f9 DA020000 		.4byte	.LVL99
 2895 04fd E9020000 		.4byte	.LVL103-1
 2896 0501 0100     		.2byte	0x1
 2897 0503 53       		.byte	0x53
 2898 0504 F6020000 		.4byte	.LVL104
 2899 0508 0C030000 		.4byte	.LVL107
 2900 050c 0100     		.2byte	0x1
 2901 050e 53       		.byte	0x53
 2902 050f 0C030000 		.4byte	.LVL107
 2903 0513 0E030000 		.4byte	.LVL108
ARM GAS  C:\Users\DNIEL~1\AppData\Local\Temp\ccjSd1Uf.s 			page 52


 2904 0517 0200     		.2byte	0x2
 2905 0519 74       		.byte	0x74
 2906 051a 00       		.sleb128 0
 2907 051b 0E030000 		.4byte	.LVL108
 2908 051f 12030000 		.4byte	.LVL109
 2909 0523 0200     		.2byte	0x2
 2910 0525 74       		.byte	0x74
 2911 0526 7F       		.sleb128 -1
 2912 0527 1C030000 		.4byte	.LVL111
 2913 052b 22030000 		.4byte	.LVL112
 2914 052f 0100     		.2byte	0x1
 2915 0531 53       		.byte	0x53
 2916 0532 22030000 		.4byte	.LVL112
 2917 0536 24030000 		.4byte	.LVL113
 2918 053a 0200     		.2byte	0x2
 2919 053c 70       		.byte	0x70
 2920 053d 7F       		.sleb128 -1
 2921 053e 24030000 		.4byte	.LVL113
 2922 0542 26030000 		.4byte	.LVL114
 2923 0546 0200     		.2byte	0x2
 2924 0548 76       		.byte	0x76
 2925 0549 00       		.sleb128 0
 2926 054a 26030000 		.4byte	.LVL114
 2927 054e 2E030000 		.4byte	.LVL116
 2928 0552 0100     		.2byte	0x1
 2929 0554 52       		.byte	0x52
 2930 0555 32030000 		.4byte	.LVL117
 2931 0559 44030000 		.4byte	.LVL119
 2932 055d 0200     		.2byte	0x2
 2933 055f 70       		.byte	0x70
 2934 0560 7F       		.sleb128 -1
 2935 0561 66030000 		.4byte	.LVL125
 2936 0565 74030000 		.4byte	.LVL128
 2937 0569 0100     		.2byte	0x1
 2938 056b 53       		.byte	0x53
 2939 056c 00000000 		.4byte	0
 2940 0570 00000000 		.4byte	0
 2941              	.LLST15:
 2942 0574 50000000 		.4byte	.LVL31
 2943 0578 60000000 		.4byte	.LVL32
 2944 057c 0300     		.2byte	0x3
 2945 057e 08       		.byte	0x8
 2946 057f 20       		.byte	0x20
 2947 0580 9F       		.byte	0x9f
 2948 0581 60000000 		.4byte	.LVL32
 2949 0585 10010000 		.4byte	.LVL45
 2950 0589 0100     		.2byte	0x1
 2951 058b 58       		.byte	0x58
 2952 058c 10010000 		.4byte	.LVL45
 2953 0590 90010000 		.4byte	.LVL56
 2954 0594 0300     		.2byte	0x3
 2955 0596 08       		.byte	0x8
 2956 0597 20       		.byte	0x20
 2957 0598 9F       		.byte	0x9f
 2958 0599 90010000 		.4byte	.LVL56
 2959 059d 9A010000 		.4byte	.LVL58
 2960 05a1 0100     		.2byte	0x1
ARM GAS  C:\Users\DNIEL~1\AppData\Local\Temp\ccjSd1Uf.s 			page 53


 2961 05a3 58       		.byte	0x58
 2962 05a4 40020000 		.4byte	.LVL72
 2963 05a8 54020000 		.4byte	.LVL75
 2964 05ac 0300     		.2byte	0x3
 2965 05ae 08       		.byte	0x8
 2966 05af 20       		.byte	0x20
 2967 05b0 9F       		.byte	0x9f
 2968 05b1 54020000 		.4byte	.LVL75
 2969 05b5 62020000 		.4byte	.LVL78
 2970 05b9 0100     		.2byte	0x1
 2971 05bb 58       		.byte	0x58
 2972 05bc B8020000 		.4byte	.LVL92
 2973 05c0 12030000 		.4byte	.LVL109
 2974 05c4 0100     		.2byte	0x1
 2975 05c6 58       		.byte	0x58
 2976 05c7 12030000 		.4byte	.LVL109
 2977 05cb 1C030000 		.4byte	.LVL111
 2978 05cf 0300     		.2byte	0x3
 2979 05d1 08       		.byte	0x8
 2980 05d2 30       		.byte	0x30
 2981 05d3 9F       		.byte	0x9f
 2982 05d4 1C030000 		.4byte	.LVL111
 2983 05d8 44030000 		.4byte	.LVL119
 2984 05dc 0100     		.2byte	0x1
 2985 05de 58       		.byte	0x58
 2986 05df 66030000 		.4byte	.LVL125
 2987 05e3 74030000 		.4byte	.LVL128
 2988 05e7 0100     		.2byte	0x1
 2989 05e9 58       		.byte	0x58
 2990 05ea 74030000 		.4byte	.LVL128
 2991 05ee 7C030000 		.4byte	.LFE10
 2992 05f2 0300     		.2byte	0x3
 2993 05f4 08       		.byte	0x8
 2994 05f5 20       		.byte	0x20
 2995 05f6 9F       		.byte	0x9f
 2996 05f7 00000000 		.4byte	0
 2997 05fb 00000000 		.4byte	0
 2998              	.LLST16:
 2999 05ff 90010000 		.4byte	.LVL56
 3000 0603 9A010000 		.4byte	.LVL58
 3001 0607 0100     		.2byte	0x1
 3002 0609 5B       		.byte	0x5b
 3003 060a 9A010000 		.4byte	.LVL58
 3004 060e AC010000 		.4byte	.LVL59
 3005 0612 0300     		.2byte	0x3
 3006 0614 7B       		.byte	0x7b
 3007 0615 7F       		.sleb128 -1
 3008 0616 9F       		.byte	0x9f
 3009 0617 54020000 		.4byte	.LVL75
 3010 061b 84020000 		.4byte	.LVL83
 3011 061f 0100     		.2byte	0x1
 3012 0621 5B       		.byte	0x5b
 3013 0622 4E030000 		.4byte	.LVL121
 3014 0626 66030000 		.4byte	.LVL125
 3015 062a 0100     		.2byte	0x1
 3016 062c 5B       		.byte	0x5b
 3017 062d 00000000 		.4byte	0
ARM GAS  C:\Users\DNIEL~1\AppData\Local\Temp\ccjSd1Uf.s 			page 54


 3018 0631 00000000 		.4byte	0
 3019              	.LLST17:
 3020 0635 84000000 		.4byte	.LVL42
 3021 0639 8C000000 		.4byte	.LVL43
 3022 063d 0200     		.2byte	0x2
 3023 063f 30       		.byte	0x30
 3024 0640 9F       		.byte	0x9f
 3025 0641 8C000000 		.4byte	.LVL43
 3026 0645 30010000 		.4byte	.LVL48
 3027 0649 0100     		.2byte	0x1
 3028 064b 51       		.byte	0x51
 3029 064c 40020000 		.4byte	.LVL72
 3030 0650 54020000 		.4byte	.LVL75
 3031 0654 0100     		.2byte	0x1
 3032 0656 51       		.byte	0x51
 3033 0657 B8020000 		.4byte	.LVL92
 3034 065b BC020000 		.4byte	.LVL94
 3035 065f 0100     		.2byte	0x1
 3036 0661 51       		.byte	0x51
 3037 0662 D2020000 		.4byte	.LVL97
 3038 0666 DC020000 		.4byte	.LVL100
 3039 066a 0100     		.2byte	0x1
 3040 066c 51       		.byte	0x51
 3041 066d F6020000 		.4byte	.LVL104
 3042 0671 12030000 		.4byte	.LVL109
 3043 0675 0100     		.2byte	0x1
 3044 0677 51       		.byte	0x51
 3045 0678 1C030000 		.4byte	.LVL111
 3046 067c 22030000 		.4byte	.LVL112
 3047 0680 0200     		.2byte	0x2
 3048 0682 30       		.byte	0x30
 3049 0683 9F       		.byte	0x9f
 3050 0684 22030000 		.4byte	.LVL112
 3051 0688 2A030000 		.4byte	.LVL115
 3052 068c 0100     		.2byte	0x1
 3053 068e 51       		.byte	0x51
 3054 068f 2A030000 		.4byte	.LVL115
 3055 0693 2E030000 		.4byte	.LVL116
 3056 0697 0500     		.2byte	0x5
 3057 0699 74       		.byte	0x74
 3058 069a 00       		.sleb128 0
 3059 069b 31       		.byte	0x31
 3060 069c 24       		.byte	0x24
 3061 069d 9F       		.byte	0x9f
 3062 069e 2E030000 		.4byte	.LVL116
 3063 06a2 44030000 		.4byte	.LVL119
 3064 06a6 0100     		.2byte	0x1
 3065 06a8 51       		.byte	0x51
 3066 06a9 00000000 		.4byte	0
 3067 06ad 00000000 		.4byte	0
 3068              	.LLST18:
 3069 06b1 60000000 		.4byte	.LVL32
 3070 06b5 66000000 		.4byte	.LVL34
 3071 06b9 0200     		.2byte	0x2
 3072 06bb 30       		.byte	0x30
 3073 06bc 9F       		.byte	0x9f
 3074 06bd 66000000 		.4byte	.LVL34
ARM GAS  C:\Users\DNIEL~1\AppData\Local\Temp\ccjSd1Uf.s 			page 55


 3075 06c1 6E000000 		.4byte	.LVL37
 3076 06c5 0100     		.2byte	0x1
 3077 06c7 57       		.byte	0x57
 3078 06c8 74000000 		.4byte	.LVL38
 3079 06cc 8C010000 		.4byte	.LVL55
 3080 06d0 0100     		.2byte	0x1
 3081 06d2 57       		.byte	0x57
 3082 06d3 90010000 		.4byte	.LVL56
 3083 06d7 BC010000 		.4byte	.LVL62
 3084 06db 0100     		.2byte	0x1
 3085 06dd 57       		.byte	0x57
 3086 06de F0010000 		.4byte	.LVL66
 3087 06e2 FE010000 		.4byte	.LVL67
 3088 06e6 0100     		.2byte	0x1
 3089 06e8 57       		.byte	0x57
 3090 06e9 FE010000 		.4byte	.LVL67
 3091 06ed 07020000 		.4byte	.LVL68-1
 3092 06f1 0300     		.2byte	0x3
 3093 06f3 73       		.byte	0x73
 3094 06f4 01       		.sleb128 1
 3095 06f5 9F       		.byte	0x9f
 3096 06f6 07020000 		.4byte	.LVL68-1
 3097 06fa 1E020000 		.4byte	.LVL69
 3098 06fe 0300     		.2byte	0x3
 3099 0700 77       		.byte	0x77
 3100 0701 01       		.sleb128 1
 3101 0702 9F       		.byte	0x9f
 3102 0703 40020000 		.4byte	.LVL72
 3103 0707 80020000 		.4byte	.LVL82
 3104 070b 0100     		.2byte	0x1
 3105 070d 57       		.byte	0x57
 3106 070e 80020000 		.4byte	.LVL82
 3107 0712 84020000 		.4byte	.LVL83
 3108 0716 0300     		.2byte	0x3
 3109 0718 77       		.byte	0x77
 3110 0719 7F       		.sleb128 -1
 3111 071a 9F       		.byte	0x9f
 3112 071b 8C020000 		.4byte	.LVL84
 3113 071f 96020000 		.4byte	.LVL85
 3114 0723 0100     		.2byte	0x1
 3115 0725 57       		.byte	0x57
 3116 0726 96020000 		.4byte	.LVL85
 3117 072a 98020000 		.4byte	.LVL86
 3118 072e 0300     		.2byte	0x3
 3119 0730 77       		.byte	0x77
 3120 0731 01       		.sleb128 1
 3121 0732 9F       		.byte	0x9f
 3122 0733 98020000 		.4byte	.LVL86
 3123 0737 AA020000 		.4byte	.LVL89
 3124 073b 0100     		.2byte	0x1
 3125 073d 57       		.byte	0x57
 3126 073e B2020000 		.4byte	.LVL90
 3127 0742 B4020000 		.4byte	.LVL91
 3128 0746 0300     		.2byte	0x3
 3129 0748 77       		.byte	0x77
 3130 0749 01       		.sleb128 1
 3131 074a 9F       		.byte	0x9f
ARM GAS  C:\Users\DNIEL~1\AppData\Local\Temp\ccjSd1Uf.s 			page 56


 3132 074b B4020000 		.4byte	.LVL91
 3133 074f 12030000 		.4byte	.LVL109
 3134 0753 0100     		.2byte	0x1
 3135 0755 57       		.byte	0x57
 3136 0756 1C030000 		.4byte	.LVL111
 3137 075a 44030000 		.4byte	.LVL119
 3138 075e 0100     		.2byte	0x1
 3139 0760 57       		.byte	0x57
 3140 0761 4E030000 		.4byte	.LVL121
 3141 0765 7C030000 		.4byte	.LFE10
 3142 0769 0100     		.2byte	0x1
 3143 076b 57       		.byte	0x57
 3144 076c 00000000 		.4byte	0
 3145 0770 00000000 		.4byte	0
 3146              	.LLST19:
 3147 0774 04030000 		.4byte	.LVL106
 3148 0778 12030000 		.4byte	.LVL109
 3149 077c 0200     		.2byte	0x2
 3150 077e 31       		.byte	0x31
 3151 077f 9F       		.byte	0x9f
 3152 0780 00000000 		.4byte	0
 3153 0784 00000000 		.4byte	0
 3154              	.LLST20:
 3155 0788 44000000 		.4byte	.LVL30
 3156 078c 50000000 		.4byte	.LVL31
 3157 0790 0200     		.2byte	0x2
 3158 0792 30       		.byte	0x30
 3159 0793 9F       		.byte	0x9f
 3160 0794 50000000 		.4byte	.LVL31
 3161 0798 9A010000 		.4byte	.LVL58
 3162 079c 0100     		.2byte	0x1
 3163 079e 59       		.byte	0x59
 3164 079f 40020000 		.4byte	.LVL72
 3165 07a3 7C020000 		.4byte	.LVL80
 3166 07a7 0100     		.2byte	0x1
 3167 07a9 59       		.byte	0x59
 3168 07aa B8020000 		.4byte	.LVL92
 3169 07ae 44030000 		.4byte	.LVL119
 3170 07b2 0100     		.2byte	0x1
 3171 07b4 59       		.byte	0x59
 3172 07b5 44030000 		.4byte	.LVL119
 3173 07b9 46030000 		.4byte	.LVL120
 3174 07bd 0200     		.2byte	0x2
 3175 07bf 30       		.byte	0x30
 3176 07c0 9F       		.byte	0x9f
 3177 07c1 46030000 		.4byte	.LVL120
 3178 07c5 4E030000 		.4byte	.LVL121
 3179 07c9 0200     		.2byte	0x2
 3180 07cb 31       		.byte	0x31
 3181 07cc 9F       		.byte	0x9f
 3182 07cd 4E030000 		.4byte	.LVL121
 3183 07d1 7C030000 		.4byte	.LFE10
 3184 07d5 0100     		.2byte	0x1
 3185 07d7 59       		.byte	0x59
 3186 07d8 00000000 		.4byte	0
 3187 07dc 00000000 		.4byte	0
 3188              	.LLST21:
ARM GAS  C:\Users\DNIEL~1\AppData\Local\Temp\ccjSd1Uf.s 			page 57


 3189 07e0 BC020000 		.4byte	.LVL94
 3190 07e4 C1020000 		.4byte	.LVL95-1
 3191 07e8 0100     		.2byte	0x1
 3192 07ea 51       		.byte	0x51
 3193 07eb DC020000 		.4byte	.LVL100
 3194 07ef E9020000 		.4byte	.LVL103-1
 3195 07f3 0100     		.2byte	0x1
 3196 07f5 51       		.byte	0x51
 3197 07f6 66030000 		.4byte	.LVL125
 3198 07fa 74030000 		.4byte	.LVL128
 3199 07fe 0100     		.2byte	0x1
 3200 0800 51       		.byte	0x51
 3201 0801 00000000 		.4byte	0
 3202 0805 00000000 		.4byte	0
 3203              	.LLST22:
 3204 0809 C8020000 		.4byte	.LVL96
 3205 080d D2020000 		.4byte	.LVL97
 3206 0811 0200     		.2byte	0x2
 3207 0813 91       		.byte	0x91
 3208 0814 40       		.sleb128 -64
 3209 0815 00000000 		.4byte	0
 3210 0819 00000000 		.4byte	0
 3211              	.LLST23:
 3212 081d E4020000 		.4byte	.LVL102
 3213 0821 F6020000 		.4byte	.LVL104
 3214 0825 0200     		.2byte	0x2
 3215 0827 3A       		.byte	0x3a
 3216 0828 9F       		.byte	0x9f
 3217 0829 00000000 		.4byte	0
 3218 082d 00000000 		.4byte	0
 3219              	.LLST24:
 3220 0831 E4020000 		.4byte	.LVL102
 3221 0835 E9020000 		.4byte	.LVL103-1
 3222 0839 0100     		.2byte	0x1
 3223 083b 51       		.byte	0x51
 3224 083c 00000000 		.4byte	0
 3225 0840 00000000 		.4byte	0
 3226              	.LLST25:
 3227 0844 E4020000 		.4byte	.LVL102
 3228 0848 E9020000 		.4byte	.LVL103-1
 3229 084c 0100     		.2byte	0x1
 3230 084e 50       		.byte	0x50
 3231 084f 00000000 		.4byte	0
 3232 0853 00000000 		.4byte	0
 3233              	.LLST26:
 3234 0857 00000000 		.4byte	.LFB11
 3235 085b 02000000 		.4byte	.LCFI3
 3236 085f 0200     		.2byte	0x2
 3237 0861 7D       		.byte	0x7d
 3238 0862 00       		.sleb128 0
 3239 0863 02000000 		.4byte	.LCFI3
 3240 0867 04000000 		.4byte	.LCFI4
 3241 086b 0200     		.2byte	0x2
 3242 086d 7D       		.byte	0x7d
 3243 086e 08       		.sleb128 8
 3244 086f 04000000 		.4byte	.LCFI4
 3245 0873 06000000 		.4byte	.LCFI5
ARM GAS  C:\Users\DNIEL~1\AppData\Local\Temp\ccjSd1Uf.s 			page 58


 3246 0877 0200     		.2byte	0x2
 3247 0879 7D       		.byte	0x7d
 3248 087a 18       		.sleb128 24
 3249 087b 06000000 		.4byte	.LCFI5
 3250 087f 36000000 		.4byte	.LFE11
 3251 0883 0200     		.2byte	0x2
 3252 0885 7D       		.byte	0x7d
 3253 0886 30       		.sleb128 48
 3254 0887 00000000 		.4byte	0
 3255 088b 00000000 		.4byte	0
 3256              	.LLST27:
 3257 088f 00000000 		.4byte	.LVL129
 3258 0893 14000000 		.4byte	.LVL130
 3259 0897 0100     		.2byte	0x1
 3260 0899 50       		.byte	0x50
 3261 089a 14000000 		.4byte	.LVL130
 3262 089e 36000000 		.4byte	.LFE11
 3263 08a2 0100     		.2byte	0x1
 3264 08a4 55       		.byte	0x55
 3265 08a5 00000000 		.4byte	0
 3266 08a9 00000000 		.4byte	0
 3267              	.LLST28:
 3268 08ad 00000000 		.4byte	.LVL129
 3269 08b1 16000000 		.4byte	.LVL131
 3270 08b5 0100     		.2byte	0x1
 3271 08b7 51       		.byte	0x51
 3272 08b8 16000000 		.4byte	.LVL131
 3273 08bc 19000000 		.4byte	.LVL132-1
 3274 08c0 0300     		.2byte	0x3
 3275 08c2 72       		.byte	0x72
 3276 08c3 01       		.sleb128 1
 3277 08c4 9F       		.byte	0x9f
 3278 08c5 19000000 		.4byte	.LVL132-1
 3279 08c9 36000000 		.4byte	.LFE11
 3280 08cd 0400     		.2byte	0x4
 3281 08cf F3       		.byte	0xf3
 3282 08d0 01       		.uleb128 0x1
 3283 08d1 51       		.byte	0x51
 3284 08d2 9F       		.byte	0x9f
 3285 08d3 00000000 		.4byte	0
 3286 08d7 00000000 		.4byte	0
 3287              	.LLST29:
 3288 08db 1A000000 		.4byte	.LVL132
 3289 08df 1C000000 		.4byte	.LVL133
 3290 08e3 0300     		.2byte	0x3
 3291 08e5 91       		.byte	0x91
 3292 08e6 44       		.sleb128 -60
 3293 08e7 9F       		.byte	0x9f
 3294 08e8 1C000000 		.4byte	.LVL133
 3295 08ec 25000000 		.4byte	.LVL134-1
 3296 08f0 0100     		.2byte	0x1
 3297 08f2 50       		.byte	0x50
 3298 08f3 25000000 		.4byte	.LVL134-1
 3299 08f7 36000000 		.4byte	.LFE11
 3300 08fb 0300     		.2byte	0x3
 3301 08fd 91       		.byte	0x91
 3302 08fe 44       		.sleb128 -60
ARM GAS  C:\Users\DNIEL~1\AppData\Local\Temp\ccjSd1Uf.s 			page 59


 3303 08ff 9F       		.byte	0x9f
 3304 0900 00000000 		.4byte	0
 3305 0904 00000000 		.4byte	0
 3306              		.section	.debug_aranges,"",%progbits
 3307 0000 2C000000 		.4byte	0x2c
 3308 0004 0200     		.2byte	0x2
 3309 0006 00000000 		.4byte	.Ldebug_info0
 3310 000a 04       		.byte	0x4
 3311 000b 00       		.byte	0
 3312 000c 0000     		.2byte	0
 3313 000e 0000     		.2byte	0
 3314 0010 00000000 		.4byte	.LFB12
 3315 0014 68000000 		.4byte	.LFE12-.LFB12
 3316 0018 00000000 		.4byte	.LFB10
 3317 001c 7C030000 		.4byte	.LFE10-.LFB10
 3318 0020 00000000 		.4byte	.LFB11
 3319 0024 36000000 		.4byte	.LFE11-.LFB11
 3320 0028 00000000 		.4byte	0
 3321 002c 00000000 		.4byte	0
 3322              		.section	.debug_ranges,"",%progbits
 3323              	.Ldebug_ranges0:
 3324 0000 00000000 		.4byte	.LFB12
 3325 0004 68000000 		.4byte	.LFE12
 3326 0008 00000000 		.4byte	.LFB10
 3327 000c 7C030000 		.4byte	.LFE10
 3328 0010 00000000 		.4byte	.LFB11
 3329 0014 36000000 		.4byte	.LFE11
 3330 0018 00000000 		.4byte	0
 3331 001c 00000000 		.4byte	0
 3332              		.section	.debug_line,"",%progbits
 3333              	.Ldebug_line0:
 3334 0000 62030000 		.section	.debug_str,"MS",%progbits,1
 3334      0200C101 
 3334      00000201 
 3334      FB0E0D00 
 3334      01010101 
 3335              	.LASF40:
 3336 0000 2E2E2F2E 		.ascii	"../../../ChibiOS/os/various/chprintf.c\000"
 3336      2E2F2E2E 
 3336      2F436869 
 3336      62694F53 
 3336      2F6F732F 
 3337              	.LASF23:
 3338 0027 76615F6C 		.ascii	"va_list\000"
 3338      69737400 
 3339              	.LASF11:
 3340 002f 6C6F6E67 		.ascii	"long long unsigned int\000"
 3340      206C6F6E 
 3340      6720756E 
 3340      7369676E 
 3340      65642069 
 3341              	.LASF10:
 3342 0046 6C6F6E67 		.ascii	"long long int\000"
 3342      206C6F6E 
 3342      6720696E 
 3342      7400
 3343              	.LASF1:
ARM GAS  C:\Users\DNIEL~1\AppData\Local\Temp\ccjSd1Uf.s 			page 60


 3344 0054 7369676E 		.ascii	"signed char\000"
 3344      65642063 
 3344      68617200 
 3345              	.LASF12:
 3346 0060 626F6F6C 		.ascii	"bool_t\000"
 3346      5F7400
 3347              	.LASF38:
 3348 0067 746D7062 		.ascii	"tmpbuf\000"
 3348      756600
 3349              	.LASF8:
 3350 006e 6C6F6E67 		.ascii	"long int\000"
 3350      20696E74 
 3350      00
 3351              	.LASF45:
 3352 0077 6368736E 		.ascii	"chsnprintf\000"
 3352      7072696E 
 3352      746600
 3353              	.LASF22:
 3354 0082 5F5F7661 		.ascii	"__va_list\000"
 3354      5F6C6973 
 3354      7400
 3355              	.LASF2:
 3356 008c 73697A65 		.ascii	"size_t\000"
 3356      5F7400
 3357              	.LASF36:
 3358 0093 69735F6C 		.ascii	"is_long\000"
 3358      6F6E6700 
 3359              	.LASF33:
 3360 009b 66696C6C 		.ascii	"filler\000"
 3360      657200
 3361              	.LASF19:
 3362 00a2 42617365 		.ascii	"BaseSequentialStream\000"
 3362      53657175 
 3362      656E7469 
 3362      616C5374 
 3362      7265616D 
 3363              	.LASF0:
 3364 00b7 756E7369 		.ascii	"unsigned int\000"
 3364      676E6564 
 3364      20696E74 
 3364      00
 3365              	.LASF9:
 3366 00c4 6C6F6E67 		.ascii	"long unsigned int\000"
 3366      20756E73 
 3366      69676E65 
 3366      6420696E 
 3366      7400
 3367              	.LASF37:
 3368 00d6 6C656674 		.ascii	"left_align\000"
 3368      5F616C69 
 3368      676E00
 3369              	.LASF35:
 3370 00e1 77696474 		.ascii	"width\000"
 3370      6800
 3371              	.LASF26:
 3372 00e7 73697A65 		.ascii	"size\000"
 3372      00
ARM GAS  C:\Users\DNIEL~1\AppData\Local\Temp\ccjSd1Uf.s 			page 61


 3373              	.LASF6:
 3374 00ec 73686F72 		.ascii	"short unsigned int\000"
 3374      7420756E 
 3374      7369676E 
 3374      65642069 
 3374      6E7400
 3375              	.LASF14:
 3376 00ff 6D73675F 		.ascii	"msg_t\000"
 3376      7400
 3377              	.LASF32:
 3378 0105 6C746F61 		.ascii	"ltoa\000"
 3378      00
 3379              	.LASF46:
 3380 010a 6D734F62 		.ascii	"msObjectInit\000"
 3380      6A656374 
 3380      496E6974 
 3380      00
 3381              	.LASF17:
 3382 0117 77726974 		.ascii	"write\000"
 3382      6500
 3383              	.LASF15:
 3384 011d 73697A65 		.ascii	"sizetype\000"
 3384      74797065 
 3384      00
 3385              	.LASF44:
 3386 0126 756E7369 		.ascii	"unsigned_common\000"
 3386      676E6564 
 3386      5F636F6D 
 3386      6D6F6E00 
 3387              	.LASF30:
 3388 0136 64697669 		.ascii	"divisor\000"
 3388      736F7200 
 3389              	.LASF20:
 3390 013e 5F5F676E 		.ascii	"__gnuc_va_list\000"
 3390      75635F76 
 3390      615F6C69 
 3390      737400
 3391              	.LASF39:
 3392 014d 474E5520 		.ascii	"GNU C 4.7.4 20140401 (release) [ARM/embedded-4_7-br"
 3392      4320342E 
 3392      372E3420 
 3392      32303134 
 3392      30343031 
 3393 0180 616E6368 		.ascii	"anch revision 209195]\000"
 3393      20726576 
 3393      6973696F 
 3393      6E203230 
 3393      39313935 
 3394              	.LASF24:
 3395 0196 4D656D53 		.ascii	"MemStreamVMT\000"
 3395      74726561 
 3395      6D564D54 
 3395      00
 3396              	.LASF28:
 3397 01a3 4D656D6F 		.ascii	"MemoryStream\000"
 3397      72795374 
 3397      7265616D 
ARM GAS  C:\Users\DNIEL~1\AppData\Local\Temp\ccjSd1Uf.s 			page 62


 3397      00
 3398              	.LASF13:
 3399 01b0 5F426F6F 		.ascii	"_Bool\000"
 3399      6C00
 3400              	.LASF7:
 3401 01b6 696E7433 		.ascii	"int32_t\000"
 3401      325F7400 
 3402              	.LASF4:
 3403 01be 756E7369 		.ascii	"unsigned char\000"
 3403      676E6564 
 3403      20636861 
 3403      7200
 3404              	.LASF5:
 3405 01cc 73686F72 		.ascii	"short int\000"
 3405      7420696E 
 3405      7400
 3406              	.LASF21:
 3407 01d6 42617365 		.ascii	"BaseSequentialStreamVMT\000"
 3407      53657175 
 3407      656E7469 
 3407      616C5374 
 3407      7265616D 
 3408              	.LASF29:
 3409 01ee 72616469 		.ascii	"radix\000"
 3409      7800
 3410              	.LASF16:
 3411 01f4 63686172 		.ascii	"char\000"
 3411      00
 3412              	.LASF34:
 3413 01f9 70726563 		.ascii	"precision\000"
 3413      6973696F 
 3413      6E00
 3414              	.LASF25:
 3415 0203 62756666 		.ascii	"buffer\000"
 3415      657200
 3416              	.LASF27:
 3417 020a 6F666673 		.ascii	"offset\000"
 3417      657400
 3418              	.LASF42:
 3419 0211 5F5F6170 		.ascii	"__ap\000"
 3419      00
 3420              	.LASF41:
 3421 0216 433A5C55 		.ascii	"C:\\Users\\D\341niel\\git\\Smarty\\smarty\\firmware"
 3421      73657273 
 3421      5C44E16E 
 3421      69656C5C 
 3421      6769745C 
 3422 0240 00       		.ascii	"\000"
 3423              	.LASF3:
 3424 0241 75696E74 		.ascii	"uint8_t\000"
 3424      385F7400 
 3425              	.LASF43:
 3426 0249 63687670 		.ascii	"chvprintf\000"
 3426      72696E74 
 3426      6600
 3427              	.LASF18:
 3428 0253 72656164 		.ascii	"read\000"
ARM GAS  C:\Users\DNIEL~1\AppData\Local\Temp\ccjSd1Uf.s 			page 63


 3428      00
 3429              	.LASF31:
 3430 0258 6C6F6E67 		.ascii	"long_to_string_with_divisor\000"
 3430      5F746F5F 
 3430      73747269 
 3430      6E675F77 
 3430      6974685F 
 3431              		.ident	"GCC: (GNU Tools for ARM Embedded Processors) 4.7.4 20140401 (release) [ARM/embedded-4_7-br
ARM GAS  C:\Users\DNIEL~1\AppData\Local\Temp\ccjSd1Uf.s 			page 64


DEFINED SYMBOLS
                            *ABS*:00000000 chprintf.c
C:\Users\DNIEL~1\AppData\Local\Temp\ccjSd1Uf.s:19     .text.long_to_string_with_divisor.constprop.0:00000000 $t
C:\Users\DNIEL~1\AppData\Local\Temp\ccjSd1Uf.s:24     .text.long_to_string_with_divisor.constprop.0:00000000 long_to_string_with_divisor.constprop.0
C:\Users\DNIEL~1\AppData\Local\Temp\ccjSd1Uf.s:120    .text.chvprintf:00000000 $t
C:\Users\DNIEL~1\AppData\Local\Temp\ccjSd1Uf.s:126    .text.chvprintf:00000000 chvprintf
C:\Users\DNIEL~1\AppData\Local\Temp\ccjSd1Uf.s:277    .text.chvprintf:000000a6 $d
C:\Users\DNIEL~1\AppData\Local\Temp\ccjSd1Uf.s:333    .text.chvprintf:00000110 $t
C:\Users\DNIEL~1\AppData\Local\Temp\ccjSd1Uf.s:857    .rodata.str1.4:00000000 .LC0
C:\Users\DNIEL~1\AppData\Local\Temp\ccjSd1Uf.s:792    .text.chsnprintf:00000000 $t
C:\Users\DNIEL~1\AppData\Local\Temp\ccjSd1Uf.s:798    .text.chsnprintf:00000000 chsnprintf
C:\Users\DNIEL~1\AppData\Local\Temp\ccjSd1Uf.s:856    .rodata.str1.4:00000000 $d
                     .debug_frame:00000010 $d

UNDEFINED SYMBOLS
msObjectInit
