ARM GAS  C:\Users\DNIEL~1\AppData\Local\Temp\ccwyHgzk.s 			page 1


   1              		.syntax unified
   2              		.cpu cortex-m4
   3              		.fpu softvfp
   4              		.eabi_attribute 20, 1
   5              		.eabi_attribute 21, 1
   6              		.eabi_attribute 23, 3
   7              		.eabi_attribute 24, 1
   8              		.eabi_attribute 25, 1
   9              		.eabi_attribute 26, 1
  10              		.eabi_attribute 30, 2
  11              		.eabi_attribute 18, 4
  12              		.thumb
  13              		.file	"chqueues.c"
  20 0000 AF030000 		.text
  20      0200E801 
  20      00000201 
  20      FB0E0D00 
  20      01010101 
  21              	.Ltext0:
  22              		.cfi_sections	.debug_frame
  23              		.section	.text.qwait,"ax",%progbits
  24              		.align	2
  25              		.p2align 4,,15
  26              		.thumb
  27              		.thumb_func
  28              		.type	qwait, %function
  29              	qwait:
  30              	.LFB7:
  31              		.file 1 "../../../ChibiOS/os/kernel/src/chqueues.c"
  32              		.loc 1 63 0
  33              		.cfi_startproc
  34              		@ args = 0, pretend = 0, frame = 0
  35              		@ frame_needed = 0, uses_anonymous_args = 0
  36              		@ link register save eliminated.
  37              	.LVL0:
  38 0000 10B4     		push	{r4}
  39              	.LCFI0:
  40              		.cfi_def_cfa_offset 4
  41              		.loc 1 63 0
  42 0002 0346     		mov	r3, r0
  43              		.loc 1 65 0
  44 0004 19B9     		cbnz	r1, .L4
  45              		.cfi_offset 4, -4
  46              		.loc 1 70 0
  47 0006 4FF0FF30 		mov	r0, #-1
  48              	.LVL1:
  49 000a 10BC     		pop	{r4}
  50 000c 7047     		bx	lr
  51              	.L4:
  52              		.loc 1 67 0
  53 000e 064C     		ldr	r4, .L5
ARM GAS  C:\Users\DNIEL~1\AppData\Local\Temp\ccwyHgzk.s 			page 2


  54 0010 A269     		ldr	r2, [r4, #24]
  55 0012 5062     		str	r0, [r2, #36]
  56              	.LVL2:
  57              	.LBB12:
  58              	.LBB13:
  59              		.file 2 "../../../ChibiOS/os/kernel/include/chinline.h"
  60              		.loc 2 48 0
  61 0014 4468     		ldr	r4, [r0, #4]
  62              	.LVL3:
  63              		.loc 2 47 0
  64 0016 1060     		str	r0, [r2, #0]
  65              	.LBE13:
  66              	.LBE12:
  67              		.loc 1 69 0
  68 0018 0D20     		movs	r0, #13
  69              	.LBB15:
  70              	.LBB14:
  71              		.loc 2 48 0
  72 001a 5460     		str	r4, [r2, #4]
  73              		.loc 2 49 0
  74 001c 5A60     		str	r2, [r3, #4]
  75 001e 2260     		str	r2, [r4, #0]
  76              	.LBE14:
  77              	.LBE15:
  78              		.loc 1 70 0
  79 0020 10BC     		pop	{r4}
  80              		.loc 1 69 0
  81 0022 FFF7FEBF 		b	chSchGoSleepTimeoutS
  82              	.LVL4:
  83              	.L6:
  84 0026 00BF     		.align	2
  85              	.L5:
  86 0028 00000000 		.word	rlist
  87              		.cfi_endproc
  88              	.LFE7:
  89              		.size	qwait, .-qwait
  90 002c AFF30080 		.section	.text.chIQInit,"ax",%progbits
  91              		.align	2
  92              		.p2align 4,,15
  93              		.global	chIQInit
  94              		.thumb
  95              		.thumb_func
  96              		.type	chIQInit, %function
  97              	chIQInit:
  98              	.LFB8:
  99              		.loc 1 89 0
 100              		.cfi_startproc
 101              		@ args = 4, pretend = 0, frame = 0
 102              		@ frame_needed = 0, uses_anonymous_args = 0
 103              		@ link register save eliminated.
 104              	.LVL5:
 105 0000 10B4     		push	{r4}
 106              	.LCFI1:
 107              		.cfi_def_cfa_offset 4
 108              		.loc 1 95 0
 109 0002 C361     		str	r3, [r0, #28]
 110              		.loc 1 96 0
ARM GAS  C:\Users\DNIEL~1\AppData\Local\Temp\ccwyHgzk.s 			page 3


 111 0004 019B     		ldr	r3, [sp, #4]
 112              	.LVL6:
 113              		.loc 1 91 0
 114 0006 4060     		str	r0, [r0, #4]
 115              		.loc 1 94 0
 116 0008 8A18     		adds	r2, r1, r2
 117              	.LVL7:
 118              		.loc 1 92 0
 119 000a 0024     		movs	r4, #0
 120              		.cfi_offset 4, -4
 121              		.loc 1 91 0
 122 000c 0060     		str	r0, [r0, #0]
 123              		.loc 1 92 0
 124 000e 8460     		str	r4, [r0, #8]
 125              		.loc 1 93 0
 126 0010 4161     		str	r1, [r0, #20]
 127 0012 8161     		str	r1, [r0, #24]
 128 0014 C160     		str	r1, [r0, #12]
 129              		.loc 1 94 0
 130 0016 0261     		str	r2, [r0, #16]
 131              		.loc 1 96 0
 132 0018 0362     		str	r3, [r0, #32]
 133              		.loc 1 97 0
 134 001a 10BC     		pop	{r4}
 135 001c 7047     		bx	lr
 136              		.cfi_endproc
 137              	.LFE8:
 138              		.size	chIQInit, .-chIQInit
 139 001e 00BF     		.section	.text.chIQResetI,"ax",%progbits
 140              		.align	2
 141              		.p2align 4,,15
 142              		.global	chIQResetI
 143              		.thumb
 144              		.thumb_func
 145              		.type	chIQResetI, %function
 146              	chIQResetI:
 147              	.LFB9:
 148              		.loc 1 110 0
 149              		.cfi_startproc
 150              		@ args = 0, pretend = 0, frame = 0
 151              		@ frame_needed = 0, uses_anonymous_args = 0
 152              	.LVL8:
 153 0000 38B5     		push	{r3, r4, r5, lr}
 154              	.LCFI2:
 155              		.cfi_def_cfa_offset 16
 156              		.loc 1 114 0
 157 0002 C168     		ldr	r1, [r0, #12]
 158              		.loc 1 110 0
 159 0004 0446     		mov	r4, r0
 160              		.cfi_offset 14, -4
 161              		.cfi_offset 5, -8
 162              		.cfi_offset 4, -12
 163              		.cfi_offset 3, -16
 164              		.loc 1 116 0
 165 0006 0068     		ldr	r0, [r0, #0]
 166              	.LVL9:
 167              		.loc 1 114 0
ARM GAS  C:\Users\DNIEL~1\AppData\Local\Temp\ccwyHgzk.s 			page 4


 168 0008 6161     		str	r1, [r4, #20]
 169              		.loc 1 115 0
 170 000a 0023     		movs	r3, #0
 171              		.loc 1 116 0
 172 000c A042     		cmp	r0, r4
 173              		.loc 1 114 0
 174 000e A161     		str	r1, [r4, #24]
 175              		.loc 1 115 0
 176 0010 A360     		str	r3, [r4, #8]
 177              		.loc 1 116 0
 178 0012 0AD0     		beq	.L8
 179              		.loc 1 117 0
 180 0014 6FF00105 		mvn	r5, #1
 181              	.L11:
 182              	.LVL10:
 183              	.LBB16:
 184              	.LBB17:
 185              		.loc 2 55 0
 186 0018 0268     		ldr	r2, [r0, #0]
 187 001a 2260     		str	r2, [r4, #0]
 188 001c 5460     		str	r4, [r2, #4]
 189              	.LBE17:
 190              	.LBE16:
 191              		.loc 1 117 0
 192 001e FFF7FEFF 		bl	chSchReadyI
 193              	.LVL11:
 194 0022 4562     		str	r5, [r0, #36]
 195              		.loc 1 116 0
 196 0024 2068     		ldr	r0, [r4, #0]
 197 0026 A042     		cmp	r0, r4
 198 0028 F6D1     		bne	.L11
 199              	.LVL12:
 200              	.L8:
 201 002a 38BD     		pop	{r3, r4, r5, pc}
 202              		.cfi_endproc
 203              	.LFE9:
 204              		.size	chIQResetI, .-chIQResetI
 205 002c AFF30080 		.section	.text.chIQPutI,"ax",%progbits
 206              		.align	2
 207              		.p2align 4,,15
 208              		.global	chIQPutI
 209              		.thumb
 210              		.thumb_func
 211              		.type	chIQPutI, %function
 212              	chIQPutI:
 213              	.LFB10:
 214              		.loc 1 133 0
 215              		.cfi_startproc
 216              		@ args = 0, pretend = 0, frame = 0
 217              		@ frame_needed = 0, uses_anonymous_args = 0
 218              	.LVL13:
 219              		.loc 1 137 0
 220 0000 4269     		ldr	r2, [r0, #20]
 221              		.loc 1 133 0
 222 0002 08B5     		push	{r3, lr}
 223              	.LCFI3:
 224              		.cfi_def_cfa_offset 8
ARM GAS  C:\Users\DNIEL~1\AppData\Local\Temp\ccwyHgzk.s 			page 5


 225              		.loc 1 133 0
 226 0004 0346     		mov	r3, r0
 227              		.cfi_offset 14, -4
 228              		.cfi_offset 3, -8
 229              		.loc 1 137 0
 230 0006 8069     		ldr	r0, [r0, #24]
 231              	.LVL14:
 232 0008 8242     		cmp	r2, r0
 233 000a 19D0     		beq	.L14
 234 000c 9868     		ldr	r0, [r3, #8]
 235              	.L15:
 236              		.loc 1 140 0
 237 000e 0130     		adds	r0, r0, #1
 238 0010 9860     		str	r0, [r3, #8]
 239              		.loc 1 141 0
 240 0012 02F8011B 		strb	r1, [r2], #1
 241              		.loc 1 142 0
 242 0016 1969     		ldr	r1, [r3, #16]
 243              	.LVL15:
 244              		.loc 1 141 0
 245 0018 5A61     		str	r2, [r3, #20]
 246              		.loc 1 142 0
 247 001a 8A42     		cmp	r2, r1
 248              		.loc 1 143 0
 249 001c 28BF     		it	cs
 250 001e DA68     		ldrcs	r2, [r3, #12]
 251              		.loc 1 145 0
 252 0020 1868     		ldr	r0, [r3, #0]
 253              		.loc 1 143 0
 254 0022 28BF     		it	cs
 255 0024 5A61     		strcs	r2, [r3, #20]
 256              		.loc 1 145 0
 257 0026 9842     		cmp	r0, r3
 258 0028 08D0     		beq	.L19
 259              	.LVL16:
 260              	.LBB18:
 261              	.LBB19:
 262              		.loc 2 55 0
 263 002a 0268     		ldr	r2, [r0, #0]
 264 002c 1A60     		str	r2, [r3, #0]
 265 002e 5360     		str	r3, [r2, #4]
 266              	.LBE19:
 267              	.LBE18:
 268              		.loc 1 146 0
 269 0030 FFF7FEFF 		bl	chSchReadyI
 270              	.LVL17:
 271 0034 0023     		movs	r3, #0
 272 0036 4362     		str	r3, [r0, #36]
 273              		.loc 1 148 0
 274 0038 1846     		mov	r0, r3
 275 003a 08BD     		pop	{r3, pc}
 276              	.LVL18:
 277              	.L19:
 278 003c 0020     		movs	r0, #0
 279              		.loc 1 149 0
 280 003e 08BD     		pop	{r3, pc}
 281              	.LVL19:
ARM GAS  C:\Users\DNIEL~1\AppData\Local\Temp\ccwyHgzk.s 			page 6


 282              	.L14:
 283              		.loc 1 137 0 discriminator 1
 284 0040 9868     		ldr	r0, [r3, #8]
 285 0042 0028     		cmp	r0, #0
 286 0044 E3D0     		beq	.L15
 287              		.loc 1 138 0
 288 0046 6FF00300 		mvn	r0, #3
 289 004a 08BD     		pop	{r3, pc}
 290              		.cfi_endproc
 291              	.LFE10:
 292              		.size	chIQPutI, .-chIQPutI
 293 004c AFF30080 		.section	.text.chIQGetTimeout,"ax",%progbits
 294              		.align	2
 295              		.p2align 4,,15
 296              		.global	chIQGetTimeout
 297              		.thumb
 298              		.thumb_func
 299              		.type	chIQGetTimeout, %function
 300              	chIQGetTimeout:
 301              	.LFB11:
 302              		.loc 1 171 0
 303              		.cfi_startproc
 304              		@ args = 0, pretend = 0, frame = 0
 305              		@ frame_needed = 0, uses_anonymous_args = 0
 306              	.LVL20:
 307 0000 70B5     		push	{r4, r5, r6, lr}
 308              	.LCFI4:
 309              		.cfi_def_cfa_offset 16
 310              	.LBB20:
 311              		.loc 1 174 0
 312 0002 2023     		movs	r3, #32
 313              	.LVL21:
 314              	.LBE20:
 315              		.loc 1 171 0
 316 0004 0446     		mov	r4, r0
 317              		.cfi_offset 14, -4
 318              		.cfi_offset 6, -8
 319              		.cfi_offset 5, -12
 320              		.cfi_offset 4, -16
 321 0006 0D46     		mov	r5, r1
 322              	.LBB21:
 323              		.loc 1 174 0
 324              	@ 174 "../../../ChibiOS/os/kernel/src/chqueues.c" 1
 325 0008 83F31188 		msr     BASEPRI, r3
 326              	@ 0 "" 2
 327              	.LVL22:
 328              		.thumb
 329              	.LBE21:
 330              		.loc 1 175 0
 331 000c C369     		ldr	r3, [r0, #28]
 332              	.LVL23:
 333 000e 03B1     		cbz	r3, .L26
 334              		.loc 1 176 0
 335 0010 9847     		blx	r3
 336              	.LVL24:
 337              	.L26:
 338              		.loc 1 178 0 discriminator 1
ARM GAS  C:\Users\DNIEL~1\AppData\Local\Temp\ccwyHgzk.s 			page 7


 339 0012 A668     		ldr	r6, [r4, #8]
 340 0014 4EB9     		cbnz	r6, .L28
 341              	.LBB22:
 342              		.loc 1 180 0
 343 0016 2046     		mov	r0, r4
 344 0018 2946     		mov	r1, r5
 345 001a FFF7FEFF 		bl	qwait
 346              	.LVL25:
 347 001e 0028     		cmp	r0, #0
 348 0020 F7DA     		bge	.L26
 349              	.LBB23:
 350              		.loc 1 181 0
 351 0022 3346     		mov	r3, r6
 352              	.LVL26:
 353              	@ 181 "../../../ChibiOS/os/kernel/src/chqueues.c" 1
 354 0024 83F31188 		msr     BASEPRI, r3
 355              	@ 0 "" 2
 356              	.LVL27:
 357              		.thumb
 358              	.LBE23:
 359              		.loc 1 182 0
 360 0028 70BD     		pop	{r4, r5, r6, pc}
 361              	.LVL28:
 362              	.L28:
 363              	.LBE22:
 364              		.loc 1 187 0
 365 002a A369     		ldr	r3, [r4, #24]
 366              		.loc 1 188 0
 367 002c 2269     		ldr	r2, [r4, #16]
 368              		.loc 1 186 0
 369 002e 013E     		subs	r6, r6, #1
 370 0030 A660     		str	r6, [r4, #8]
 371              		.loc 1 187 0
 372 0032 13F8010B 		ldrb	r0, [r3], #1	@ zero_extendqisi2
 373              	.LVL29:
 374              		.loc 1 188 0
 375 0036 9342     		cmp	r3, r2
 376              		.loc 1 187 0
 377 0038 A361     		str	r3, [r4, #24]
 378              		.loc 1 189 0
 379 003a 24BF     		itt	cs
 380 003c E368     		ldrcs	r3, [r4, #12]
 381 003e A361     		strcs	r3, [r4, #24]
 382              	.LBB24:
 383              		.loc 1 191 0
 384 0040 0023     		movs	r3, #0
 385              	.LVL30:
 386              	@ 191 "../../../ChibiOS/os/kernel/src/chqueues.c" 1
 387 0042 83F31188 		msr     BASEPRI, r3
 388              	@ 0 "" 2
 389              	.LVL31:
 390              		.thumb
 391              	.LBE24:
 392              		.loc 1 193 0
 393 0046 70BD     		pop	{r4, r5, r6, pc}
 394              		.cfi_endproc
 395              	.LFE11:
ARM GAS  C:\Users\DNIEL~1\AppData\Local\Temp\ccwyHgzk.s 			page 8


 396              		.size	chIQGetTimeout, .-chIQGetTimeout
 397 0048 AFF30080 		.section	.text.chIQReadTimeout,"ax",%progbits
 397      AFF30080 
 398              		.align	2
 399              		.p2align 4,,15
 400              		.global	chIQReadTimeout
 401              		.thumb
 402              		.thumb_func
 403              		.type	chIQReadTimeout, %function
 404              	chIQReadTimeout:
 405              	.LFB12:
 406              		.loc 1 220 0
 407              		.cfi_startproc
 408              		@ args = 0, pretend = 0, frame = 0
 409              		@ frame_needed = 0, uses_anonymous_args = 0
 410              	.LVL32:
 411 0000 2DE9F047 		push	{r4, r5, r6, r7, r8, r9, sl, lr}
 412              	.LCFI5:
 413              		.cfi_def_cfa_offset 32
 414              		.loc 1 220 0
 415 0004 1D46     		mov	r5, r3
 416              		.cfi_offset 14, -4
 417              		.cfi_offset 10, -8
 418              		.cfi_offset 9, -12
 419              		.cfi_offset 8, -16
 420              		.cfi_offset 7, -20
 421              		.cfi_offset 6, -24
 422              		.cfi_offset 5, -28
 423              		.cfi_offset 4, -32
 424 0006 0446     		mov	r4, r0
 425 0008 0E46     		mov	r6, r1
 426 000a 9146     		mov	r9, r2
 427              		.loc 1 221 0
 428 000c D0F81C80 		ldr	r8, [r0, #28]
 429              	.LVL33:
 430              	.LBB25:
 431              		.loc 1 226 0
 432 0010 2023     		movs	r3, #32
 433              	.LVL34:
 434              	@ 226 "../../../ChibiOS/os/kernel/src/chqueues.c" 1
 435 0012 83F31188 		msr     BASEPRI, r3
 436              	@ 0 "" 2
 437              	.LVL35:
 438              		.loc 1 222 0
 439              		.thumb
 440 0016 0027     		movs	r7, #0
 441              	.LVL36:
 442              	.L35:
 443              	.LBE25:
 444              		.loc 1 228 0
 445 0018 B8F1000F 		cmp	r8, #0
 446 001c 01D0     		beq	.L36
 447              		.loc 1 229 0
 448 001e 2046     		mov	r0, r4
 449 0020 C047     		blx	r8
 450              	.LVL37:
 451              	.L36:
ARM GAS  C:\Users\DNIEL~1\AppData\Local\Temp\ccwyHgzk.s 			page 9


 452              		.loc 1 231 0 discriminator 1
 453 0022 D4F808A0 		ldr	sl, [r4, #8]
 454 0026 BAF1000F 		cmp	sl, #0
 455 002a 0BD1     		bne	.L38
 456              		.loc 1 232 0
 457 002c 2046     		mov	r0, r4
 458 002e 2946     		mov	r1, r5
 459 0030 FFF7FEFF 		bl	qwait
 460              	.LVL38:
 461 0034 0028     		cmp	r0, #0
 462 0036 F4D0     		beq	.L36
 463              	.LBB26:
 464              		.loc 1 233 0
 465 0038 5346     		mov	r3, sl
 466              	.LVL39:
 467              	@ 233 "../../../ChibiOS/os/kernel/src/chqueues.c" 1
 468 003a 83F31188 		msr     BASEPRI, r3
 469              	@ 0 "" 2
 470              	.LVL40:
 471              		.thumb
 472              	.L32:
 473              	.LBE26:
 474              		.loc 1 250 0
 475 003e 3846     		mov	r0, r7
 476 0040 BDE8F087 		pop	{r4, r5, r6, r7, r8, r9, sl, pc}
 477              	.LVL41:
 478              	.L38:
 479              		.loc 1 239 0
 480 0044 A369     		ldr	r3, [r4, #24]
 481              	.LVL42:
 482              		.loc 1 238 0
 483 0046 0AF1FF31 		add	r1, sl, #-1
 484 004a A160     		str	r1, [r4, #8]
 485              		.loc 1 239 0
 486 004c 13F8010B 		ldrb	r0, [r3], #1	@ zero_extendqisi2
 487 0050 F055     		strb	r0, [r6, r7]
 488              		.loc 1 240 0
 489 0052 2269     		ldr	r2, [r4, #16]
 490              		.loc 1 239 0
 491 0054 A361     		str	r3, [r4, #24]
 492              		.loc 1 240 0
 493 0056 9342     		cmp	r3, r2
 494              		.loc 1 241 0
 495 0058 24BF     		itt	cs
 496 005a E368     		ldrcs	r3, [r4, #12]
 497 005c A361     		strcs	r3, [r4, #24]
 498              	.LBB27:
 499              		.loc 1 243 0
 500 005e 0023     		movs	r3, #0
 501              	@ 243 "../../../ChibiOS/os/kernel/src/chqueues.c" 1
 502 0060 83F31188 		msr     BASEPRI, r3
 503              	@ 0 "" 2
 504              	.LVL43:
 505              		.thumb
 506              	.LBE27:
 507              		.loc 1 244 0
 508 0064 0137     		adds	r7, r7, #1
ARM GAS  C:\Users\DNIEL~1\AppData\Local\Temp\ccwyHgzk.s 			page 10


 509              	.LVL44:
 510              		.loc 1 245 0
 511 0066 4F45     		cmp	r7, r9
 512 0068 E9D0     		beq	.L32
 513              	.LBB28:
 514              		.loc 1 248 0
 515 006a 2023     		movs	r3, #32
 516              	.LVL45:
 517              	@ 248 "../../../ChibiOS/os/kernel/src/chqueues.c" 1
 518 006c 83F31188 		msr     BASEPRI, r3
 519              	@ 0 "" 2
 520              	.LVL46:
 521              		.thumb
 522              	.LBE28:
 523              		.loc 1 249 0
 524 0070 D2E7     		b	.L35
 525              		.cfi_endproc
 526              	.LFE12:
 527              		.size	chIQReadTimeout, .-chIQReadTimeout
 528 0072 00BFAFF3 		.section	.text.chOQInit,"ax",%progbits
 528      0080AFF3 
 528      0080AFF3 
 528      0080
 529              		.align	2
 530              		.p2align 4,,15
 531              		.global	chOQInit
 532              		.thumb
 533              		.thumb_func
 534              		.type	chOQInit, %function
 535              	chOQInit:
 536              	.LFB13:
 537              		.loc 1 269 0
 538              		.cfi_startproc
 539              		@ args = 4, pretend = 0, frame = 0
 540              		@ frame_needed = 0, uses_anonymous_args = 0
 541              		@ link register save eliminated.
 542              	.LVL47:
 543 0000 10B4     		push	{r4}
 544              	.LCFI6:
 545              		.cfi_def_cfa_offset 4
 546              		.loc 1 275 0
 547 0002 C361     		str	r3, [r0, #28]
 548              		.loc 1 276 0
 549 0004 019B     		ldr	r3, [sp, #4]
 550              	.LVL48:
 551              		.loc 1 271 0
 552 0006 4060     		str	r0, [r0, #4]
 553              		.loc 1 274 0
 554 0008 8C18     		adds	r4, r1, r2
 555              		.cfi_offset 4, -4
 556              		.loc 1 271 0
 557 000a 0060     		str	r0, [r0, #0]
 558              		.loc 1 272 0
 559 000c 8260     		str	r2, [r0, #8]
 560              		.loc 1 273 0
 561 000e 4161     		str	r1, [r0, #20]
 562 0010 8161     		str	r1, [r0, #24]
ARM GAS  C:\Users\DNIEL~1\AppData\Local\Temp\ccwyHgzk.s 			page 11


 563 0012 C160     		str	r1, [r0, #12]
 564              		.loc 1 274 0
 565 0014 0461     		str	r4, [r0, #16]
 566              		.loc 1 276 0
 567 0016 0362     		str	r3, [r0, #32]
 568              		.loc 1 277 0
 569 0018 10BC     		pop	{r4}
 570 001a 7047     		bx	lr
 571              		.cfi_endproc
 572              	.LFE13:
 573              		.size	chOQInit, .-chOQInit
 574 001c AFF30080 		.section	.text.chOQResetI,"ax",%progbits
 575              		.align	2
 576              		.p2align 4,,15
 577              		.global	chOQResetI
 578              		.thumb
 579              		.thumb_func
 580              		.type	chOQResetI, %function
 581              	chOQResetI:
 582              	.LFB14:
 583              		.loc 1 290 0
 584              		.cfi_startproc
 585              		@ args = 0, pretend = 0, frame = 0
 586              		@ frame_needed = 0, uses_anonymous_args = 0
 587              	.LVL49:
 588 0000 38B5     		push	{r3, r4, r5, lr}
 589              	.LCFI7:
 590              		.cfi_def_cfa_offset 16
 591              		.loc 1 295 0
 592 0002 0169     		ldr	r1, [r0, #16]
 593              		.loc 1 294 0
 594 0004 C368     		ldr	r3, [r0, #12]
 595              		.cfi_offset 14, -4
 596              		.cfi_offset 5, -8
 597              		.cfi_offset 4, -12
 598              		.cfi_offset 3, -16
 599              		.loc 1 290 0
 600 0006 0446     		mov	r4, r0
 601              		.loc 1 296 0
 602 0008 0068     		ldr	r0, [r0, #0]
 603              	.LVL50:
 604              		.loc 1 294 0
 605 000a 6361     		str	r3, [r4, #20]
 606              		.loc 1 295 0
 607 000c CA1A     		subs	r2, r1, r3
 608              		.loc 1 296 0
 609 000e A042     		cmp	r0, r4
 610              		.loc 1 294 0
 611 0010 A361     		str	r3, [r4, #24]
 612              		.loc 1 295 0
 613 0012 A260     		str	r2, [r4, #8]
 614              		.loc 1 296 0
 615 0014 0AD0     		beq	.L40
 616              		.loc 1 297 0
 617 0016 6FF00105 		mvn	r5, #1
 618              	.L43:
 619              	.LVL51:
ARM GAS  C:\Users\DNIEL~1\AppData\Local\Temp\ccwyHgzk.s 			page 12


 620              	.LBB29:
 621              	.LBB30:
 622              		.loc 2 55 0
 623 001a 0268     		ldr	r2, [r0, #0]
 624 001c 2260     		str	r2, [r4, #0]
 625 001e 5460     		str	r4, [r2, #4]
 626              	.LBE30:
 627              	.LBE29:
 628              		.loc 1 297 0
 629 0020 FFF7FEFF 		bl	chSchReadyI
 630              	.LVL52:
 631 0024 4562     		str	r5, [r0, #36]
 632              		.loc 1 296 0
 633 0026 2068     		ldr	r0, [r4, #0]
 634 0028 A042     		cmp	r0, r4
 635 002a F6D1     		bne	.L43
 636              	.LVL53:
 637              	.L40:
 638 002c 38BD     		pop	{r3, r4, r5, pc}
 639              		.cfi_endproc
 640              	.LFE14:
 641              		.size	chOQResetI, .-chOQResetI
 642 002e 00BF     		.section	.text.chOQPutTimeout,"ax",%progbits
 643              		.align	2
 644              		.p2align 4,,15
 645              		.global	chOQPutTimeout
 646              		.thumb
 647              		.thumb_func
 648              		.type	chOQPutTimeout, %function
 649              	chOQPutTimeout:
 650              	.LFB15:
 651              		.loc 1 322 0
 652              		.cfi_startproc
 653              		@ args = 0, pretend = 0, frame = 0
 654              		@ frame_needed = 0, uses_anonymous_args = 0
 655              	.LVL54:
 656 0000 F8B5     		push	{r3, r4, r5, r6, r7, lr}
 657              	.LCFI8:
 658              		.cfi_def_cfa_offset 24
 659              		.loc 1 322 0
 660 0002 0446     		mov	r4, r0
 661              		.cfi_offset 14, -4
 662              		.cfi_offset 7, -8
 663              		.cfi_offset 6, -12
 664              		.cfi_offset 5, -16
 665              		.cfi_offset 4, -20
 666              		.cfi_offset 3, -24
 667 0004 0D46     		mov	r5, r1
 668 0006 1646     		mov	r6, r2
 669              	.LBB31:
 670              		.loc 1 324 0
 671 0008 2023     		movs	r3, #32
 672              	.LVL55:
 673              	@ 324 "../../../ChibiOS/os/kernel/src/chqueues.c" 1
 674 000a 83F31188 		msr     BASEPRI, r3
 675              	@ 0 "" 2
 676              	.LVL56:
ARM GAS  C:\Users\DNIEL~1\AppData\Local\Temp\ccwyHgzk.s 			page 13


 677              		.thumb
 678              	.L46:
 679              	.LBE31:
 680              		.loc 1 325 0 discriminator 1
 681 000e A768     		ldr	r7, [r4, #8]
 682 0010 4FB9     		cbnz	r7, .L52
 683              	.LBB32:
 684              		.loc 1 328 0
 685 0012 2046     		mov	r0, r4
 686 0014 3146     		mov	r1, r6
 687 0016 FFF7FEFF 		bl	qwait
 688              	.LVL57:
 689 001a 0028     		cmp	r0, #0
 690 001c F7DA     		bge	.L46
 691              	.LBB33:
 692              		.loc 1 329 0
 693 001e 3B46     		mov	r3, r7
 694              	.LVL58:
 695              	@ 329 "../../../ChibiOS/os/kernel/src/chqueues.c" 1
 696 0020 83F31188 		msr     BASEPRI, r3
 697              	@ 0 "" 2
 698              	.LVL59:
 699              		.thumb
 700              	.LBE33:
 701              		.loc 1 330 0
 702 0024 F8BD     		pop	{r3, r4, r5, r6, r7, pc}
 703              	.LVL60:
 704              	.L52:
 705              	.LBE32:
 706              		.loc 1 335 0
 707 0026 6369     		ldr	r3, [r4, #20]
 708              	.LVL61:
 709              		.loc 1 334 0
 710 0028 013F     		subs	r7, r7, #1
 711 002a A760     		str	r7, [r4, #8]
 712              		.loc 1 335 0
 713 002c 03F8015B 		strb	r5, [r3], #1
 714              		.loc 1 336 0
 715 0030 2269     		ldr	r2, [r4, #16]
 716              		.loc 1 335 0
 717 0032 6361     		str	r3, [r4, #20]
 718              		.loc 1 336 0
 719 0034 9342     		cmp	r3, r2
 720              		.loc 1 337 0
 721 0036 24BF     		itt	cs
 722 0038 E368     		ldrcs	r3, [r4, #12]
 723 003a 6361     		strcs	r3, [r4, #20]
 724              		.loc 1 339 0
 725 003c E369     		ldr	r3, [r4, #28]
 726 003e 0BB1     		cbz	r3, .L50
 727              		.loc 1 340 0
 728 0040 2046     		mov	r0, r4
 729 0042 9847     		blx	r3
 730              	.L50:
 731              	.LBB34:
 732              		.loc 1 342 0
 733 0044 0023     		movs	r3, #0
ARM GAS  C:\Users\DNIEL~1\AppData\Local\Temp\ccwyHgzk.s 			page 14


 734              	.LVL62:
 735              	@ 342 "../../../ChibiOS/os/kernel/src/chqueues.c" 1
 736 0046 83F31188 		msr     BASEPRI, r3
 737              	@ 0 "" 2
 738              	.LVL63:
 739              		.thumb
 740              	.LBE34:
 741              		.loc 1 343 0
 742 004a 1846     		mov	r0, r3
 743              		.loc 1 344 0
 744 004c F8BD     		pop	{r3, r4, r5, r6, r7, pc}
 745              		.cfi_endproc
 746              	.LFE15:
 747              		.size	chOQPutTimeout, .-chOQPutTimeout
 748 004e 00BF     		.section	.text.chOQGetI,"ax",%progbits
 749              		.align	2
 750              		.p2align 4,,15
 751              		.global	chOQGetI
 752              		.thumb
 753              		.thumb_func
 754              		.type	chOQGetI, %function
 755              	chOQGetI:
 756              	.LFB16:
 757              		.loc 1 356 0
 758              		.cfi_startproc
 759              		@ args = 0, pretend = 0, frame = 0
 760              		@ frame_needed = 0, uses_anonymous_args = 0
 761              	.LVL64:
 762              		.loc 1 361 0
 763 0000 8269     		ldr	r2, [r0, #24]
 764 0002 4169     		ldr	r1, [r0, #20]
 765 0004 9142     		cmp	r1, r2
 766              		.loc 1 356 0
 767 0006 10B5     		push	{r4, lr}
 768              	.LCFI9:
 769              		.cfi_def_cfa_offset 8
 770              		.loc 1 356 0
 771 0008 0346     		mov	r3, r0
 772              		.loc 1 361 0
 773 000a 17D0     		beq	.L54
 774              		.cfi_offset 14, -4
 775              		.cfi_offset 4, -8
 776 000c 8168     		ldr	r1, [r0, #8]
 777              	.L55:
 778              		.loc 1 364 0
 779 000e 4C1C     		adds	r4, r1, #1
 780 0010 9C60     		str	r4, [r3, #8]
 781              		.loc 1 365 0
 782 0012 12F8014B 		ldrb	r4, [r2], #1	@ zero_extendqisi2
 783              	.LVL65:
 784              		.loc 1 366 0
 785 0016 1869     		ldr	r0, [r3, #16]
 786              	.LVL66:
 787              		.loc 1 365 0
 788 0018 9A61     		str	r2, [r3, #24]
 789              		.loc 1 366 0
 790 001a 8242     		cmp	r2, r0
ARM GAS  C:\Users\DNIEL~1\AppData\Local\Temp\ccwyHgzk.s 			page 15


 791              		.loc 1 367 0
 792 001c 28BF     		it	cs
 793 001e DA68     		ldrcs	r2, [r3, #12]
 794              		.loc 1 369 0
 795 0020 1868     		ldr	r0, [r3, #0]
 796              		.loc 1 367 0
 797 0022 28BF     		it	cs
 798 0024 9A61     		strcs	r2, [r3, #24]
 799              		.loc 1 369 0
 800 0026 9842     		cmp	r0, r3
 801 0028 06D0     		beq	.L58
 802              	.LVL67:
 803              	.LBB35:
 804              	.LBB36:
 805              		.loc 2 55 0
 806 002a 0268     		ldr	r2, [r0, #0]
 807 002c 1A60     		str	r2, [r3, #0]
 808 002e 5360     		str	r3, [r2, #4]
 809              	.LBE36:
 810              	.LBE35:
 811              		.loc 1 370 0
 812 0030 FFF7FEFF 		bl	chSchReadyI
 813              	.LVL68:
 814 0034 0023     		movs	r3, #0
 815 0036 4362     		str	r3, [r0, #36]
 816              	.L58:
 817              		.loc 1 372 0
 818 0038 2046     		mov	r0, r4
 819 003a 10BD     		pop	{r4, pc}
 820              	.LVL69:
 821              	.L54:
 822              		.loc 1 361 0 discriminator 1
 823 003c 8168     		ldr	r1, [r0, #8]
 824 003e 0029     		cmp	r1, #0
 825 0040 E5D0     		beq	.L55
 826              		.loc 1 362 0
 827 0042 6FF00200 		mvn	r0, #2
 828              	.LVL70:
 829              		.loc 1 373 0
 830 0046 10BD     		pop	{r4, pc}
 831              		.cfi_endproc
 832              	.LFE16:
 833              		.size	chOQGetI, .-chOQGetI
 834 0048 AFF30080 		.section	.text.chOQWriteTimeout,"ax",%progbits
 834      AFF30080 
 835              		.align	2
 836              		.p2align 4,,15
 837              		.global	chOQWriteTimeout
 838              		.thumb
 839              		.thumb_func
 840              		.type	chOQWriteTimeout, %function
 841              	chOQWriteTimeout:
 842              	.LFB17:
 843              		.loc 1 400 0
 844              		.cfi_startproc
 845              		@ args = 0, pretend = 0, frame = 0
 846              		@ frame_needed = 0, uses_anonymous_args = 0
ARM GAS  C:\Users\DNIEL~1\AppData\Local\Temp\ccwyHgzk.s 			page 16


 847              	.LVL71:
 848 0000 2DE9F047 		push	{r4, r5, r6, r7, r8, r9, sl, lr}
 849              	.LCFI10:
 850              		.cfi_def_cfa_offset 32
 851              		.loc 1 400 0
 852 0004 1E46     		mov	r6, r3
 853              		.cfi_offset 14, -4
 854              		.cfi_offset 10, -8
 855              		.cfi_offset 9, -12
 856              		.cfi_offset 8, -16
 857              		.cfi_offset 7, -20
 858              		.cfi_offset 6, -24
 859              		.cfi_offset 5, -28
 860              		.cfi_offset 4, -32
 861 0006 0446     		mov	r4, r0
 862 0008 0D46     		mov	r5, r1
 863 000a 1746     		mov	r7, r2
 864              		.loc 1 401 0
 865 000c D0F81C90 		ldr	r9, [r0, #28]
 866              	.LVL72:
 867              	.LBB37:
 868              		.loc 1 406 0
 869 0010 2023     		movs	r3, #32
 870              	.LVL73:
 871              	@ 406 "../../../ChibiOS/os/kernel/src/chqueues.c" 1
 872 0012 83F31188 		msr     BASEPRI, r3
 873              	@ 0 "" 2
 874              	.LVL74:
 875              		.loc 1 402 0
 876              		.thumb
 877 0016 4FF00008 		mov	r8, #0
 878              	.LVL75:
 879              	.L69:
 880              	.LBE37:
 881              		.loc 1 408 0 discriminator 1
 882 001a D4F808A0 		ldr	sl, [r4, #8]
 883 001e BAF1000F 		cmp	sl, #0
 884 0022 21D0     		beq	.L64
 885              	.LVL76:
 886              	.L70:
 887              		.loc 1 414 0
 888 0024 0AF1FF31 		add	r1, sl, #-1
 889 0028 A160     		str	r1, [r4, #8]
 890              		.loc 1 415 0
 891 002a 6369     		ldr	r3, [r4, #20]
 892              	.LVL77:
 893 002c 2878     		ldrb	r0, [r5, #0]	@ zero_extendqisi2
 894 002e 03F8010B 		strb	r0, [r3], #1
 895              		.loc 1 416 0
 896 0032 2269     		ldr	r2, [r4, #16]
 897              		.loc 1 415 0
 898 0034 6361     		str	r3, [r4, #20]
 899              	.LVL78:
 900              		.loc 1 416 0
 901 0036 9342     		cmp	r3, r2
 902              		.loc 1 417 0
 903 0038 24BF     		itt	cs
ARM GAS  C:\Users\DNIEL~1\AppData\Local\Temp\ccwyHgzk.s 			page 17


 904 003a E368     		ldrcs	r3, [r4, #12]
 905 003c 6361     		strcs	r3, [r4, #20]
 906              		.loc 1 419 0
 907 003e B9F1000F 		cmp	r9, #0
 908 0042 01D0     		beq	.L66
 909              		.loc 1 420 0
 910 0044 2046     		mov	r0, r4
 911 0046 C847     		blx	r9
 912              	.L66:
 913              	.LBB38:
 914              		.loc 1 422 0
 915 0048 0023     		movs	r3, #0
 916              	.LVL79:
 917              	@ 422 "../../../ChibiOS/os/kernel/src/chqueues.c" 1
 918 004a 83F31188 		msr     BASEPRI, r3
 919              	@ 0 "" 2
 920              	.LVL80:
 921              		.thumb
 922              	.LBE38:
 923              		.loc 1 424 0
 924 004e 013F     		subs	r7, r7, #1
 925              	.LVL81:
 926              		.loc 1 423 0
 927 0050 08F10108 		add	r8, r8, #1
 928              	.LVL82:
 929              		.loc 1 424 0
 930 0054 11D0     		beq	.L63
 931              		.loc 1 415 0
 932 0056 0135     		adds	r5, r5, #1
 933              	.LVL83:
 934              	.LBB39:
 935              		.loc 1 426 0
 936 0058 2023     		movs	r3, #32
 937              	.LVL84:
 938              	@ 426 "../../../ChibiOS/os/kernel/src/chqueues.c" 1
 939 005a 83F31188 		msr     BASEPRI, r3
 940              	@ 0 "" 2
 941              	.LVL85:
 942              		.thumb
 943              	.LBE39:
 944              		.loc 1 408 0
 945 005e D4F808A0 		ldr	sl, [r4, #8]
 946 0062 BAF1000F 		cmp	sl, #0
 947 0066 DDD1     		bne	.L70
 948              	.LVL86:
 949              	.L64:
 950              		.loc 1 409 0
 951 0068 2046     		mov	r0, r4
 952 006a 3146     		mov	r1, r6
 953 006c FFF7FEFF 		bl	qwait
 954              	.LVL87:
 955 0070 0028     		cmp	r0, #0
 956 0072 D2D0     		beq	.L69
 957              	.LBB40:
 958              		.loc 1 410 0
 959 0074 5346     		mov	r3, sl
 960              	.LVL88:
ARM GAS  C:\Users\DNIEL~1\AppData\Local\Temp\ccwyHgzk.s 			page 18


 961              	@ 410 "../../../ChibiOS/os/kernel/src/chqueues.c" 1
 962 0076 83F31188 		msr     BASEPRI, r3
 963              	@ 0 "" 2
 964              	.LVL89:
 965              		.thumb
 966              	.L63:
 967              	.LBE40:
 968              		.loc 1 428 0
 969 007a 4046     		mov	r0, r8
 970 007c BDE8F087 		pop	{r4, r5, r6, r7, r8, r9, sl, pc}
 971              		.cfi_endproc
 972              	.LFE17:
 973              		.size	chOQWriteTimeout, .-chOQWriteTimeout
 974              		.text
 975              	.Letext0: