ARM GAS  C:\Users\DNIEL~1\AppData\Local\Temp\ccTFjoEZ.s 			page 1


   1              		.syntax unified
   2              		.cpu cortex-m4
   3              		.fpu softvfp
   4              		.eabi_attribute 20, 1
   5              		.eabi_attribute 21, 1
   6              		.eabi_attribute 23, 3
   7              		.eabi_attribute 24, 1
   8              		.eabi_attribute 25, 1
   9              		.eabi_attribute 26, 1
  10              		.eabi_attribute 30, 2
  11              		.eabi_attribute 34, 1
  12              		.eabi_attribute 18, 4
  13              		.thumb
  14              		.file	"chrtclib.c"
  15              		.text
  16              	.Ltext0:
  17              		.cfi_sections	.debug_frame
  18              		.section	.text.stm32_rtc_bcd2tm,"ax",%progbits
  19              		.align	2
  20              		.p2align 4,,15
  21              		.thumb
  22              		.thumb_func
  23              		.type	stm32_rtc_bcd2tm, %function
  24              	stm32_rtc_bcd2tm:
  25              	.LFB118:
  26              		.file 1 "../../../ChibiOS/os/various/chrtclib.c"
  27              		.loc 1 52 0
  28              		.cfi_startproc
  29              		@ args = 0, pretend = 0, frame = 0
  30              		@ frame_needed = 0, uses_anonymous_args = 0
  31              		@ link register save eliminated.
  32              	.LVL0:
  33              		.loc 1 53 0
  34 0000 91E80C00 		ldmia	r1, {r2, r3}
  35              	.LVL1:
  36              		.loc 1 70 0
  37 0004 C2F34231 		ubfx	r1, r2, #13, #3
  38              	.LVL2:
  39              		.loc 1 52 0
  40 0008 2DE9F00F 		push	{r4, r5, r6, r7, r8, r9, sl, fp}
  41              	.LCFI0:
  42              		.cfi_def_cfa_offset 32
  43              		.cfi_offset 4, -32
  44              		.cfi_offset 5, -28
  45              		.cfi_offset 6, -24
  46              		.cfi_offset 7, -20
  47              		.cfi_offset 8, -16
  48              		.cfi_offset 9, -12
  49              		.cfi_offset 10, -8
  50              		.cfi_offset 11, -4
  51              		.loc 1 71 0
  52 000c 0729     		cmp	r1, #7
  53              		.loc 1 93 0
  54 000e C3F38055 		ubfx	r5, r3, #22, #1
  55              		.loc 1 78 0
  56 0012 C2F30037 		ubfx	r7, r2, #12, #1
  57              		.loc 1 93 0
ARM GAS  C:\Users\DNIEL~1\AppData\Local\Temp\ccTFjoEZ.s 			page 2


  58 0016 4FEA4508 		lsl	r8, r5, #1
  59              		.loc 1 72 0
  60 001a 08BF     		it	eq
  61 001c 0021     		moveq	r1, #0
  62              		.loc 1 93 0
  63 001e 08EB050B 		add	fp, r8, r5
  64              		.loc 1 68 0
  65 0022 4FF0FF34 		mov	r4, #-1
  66              		.loc 1 78 0
  67 0026 4FEA8709 		lsl	r9, r7, #2
  68              		.loc 1 92 0
  69 002a C3F30156 		ubfx	r6, r3, #20, #2
  70              		.loc 1 72 0
  71 002e 8161     		str	r1, [r0, #24]
  72              		.loc 1 82 0
  73 0030 C2F30351 		ubfx	r1, r2, #20, #4
  74              		.loc 1 75 0
  75 0034 C2F30115 		ubfx	r5, r2, #4, #2
  76              		.loc 1 78 0
  77 0038 B944     		add	r9, r9, r7
  78              		.loc 1 77 0
  79 003a C2F3032C 		ubfx	ip, r2, #8, #4
  80              		.loc 1 81 0
  81 003e C2F30347 		ubfx	r7, r2, #16, #4
  82              		.loc 1 82 0
  83 0042 01EB810A 		add	sl, r1, r1, lsl #2
  84              		.loc 1 93 0
  85 0046 4FEA8B08 		lsl	r8, fp, #2
  86              		.loc 1 89 0
  87 004a C3F30231 		ubfx	r1, r3, #12, #3
  88              		.loc 1 68 0
  89 004e 0462     		str	r4, [r0, #32]
  90              		.loc 1 92 0
  91 0050 06EB8606 		add	r6, r6, r6, lsl #2
  92              		.loc 1 86 0
  93 0054 C3F30214 		ubfx	r4, r3, #4, #3
  94              		.loc 1 74 0
  95 0058 02F00F02 		and	r2, r2, #15
  96              	.LVL3:
  97              		.loc 1 82 0
  98 005c 07EB4A0A 		add	sl, r7, sl, lsl #1
  99              		.loc 1 85 0
 100 0060 03F00F0B 		and	fp, r3, #15
 101              		.loc 1 88 0
 102 0064 C3F30327 		ubfx	r7, r3, #8, #4
 103              		.loc 1 75 0
 104 0068 05EB8505 		add	r5, r5, r5, lsl #2
 105              		.loc 1 78 0
 106 006c 0CEB490C 		add	ip, ip, r9, lsl #1
 107              		.loc 1 86 0
 108 0070 04EB8404 		add	r4, r4, r4, lsl #2
 109              		.loc 1 89 0
 110 0074 01EB8101 		add	r1, r1, r1, lsl #2
 111              		.loc 1 92 0
 112 0078 08EB4606 		add	r6, r8, r6, lsl #1
 113              		.loc 1 91 0
 114 007c C3F30343 		ubfx	r3, r3, #16, #4
ARM GAS  C:\Users\DNIEL~1\AppData\Local\Temp\ccTFjoEZ.s 			page 3


 115              	.LVL4:
 116              		.loc 1 75 0
 117 0080 02EB4505 		add	r5, r2, r5, lsl #1
 118              		.loc 1 83 0
 119 0084 0AF1640A 		add	sl, sl, #100
 120              		.loc 1 79 0
 121 0088 0CF1FF32 		add	r2, ip, #-1
 122              		.loc 1 86 0
 123 008c 0BEB4404 		add	r4, fp, r4, lsl #1
 124              		.loc 1 89 0
 125 0090 07EB4101 		add	r1, r7, r1, lsl #1
 126              		.loc 1 93 0
 127 0094 F318     		adds	r3, r6, r3
 128              		.loc 1 75 0
 129 0096 C560     		str	r5, [r0, #12]
 130              		.loc 1 79 0
 131 0098 0261     		str	r2, [r0, #16]
 132              		.loc 1 83 0
 133 009a C0F814A0 		str	sl, [r0, #20]
 134              		.loc 1 86 0
 135 009e 0460     		str	r4, [r0, #0]
 136              		.loc 1 89 0
 137 00a0 4160     		str	r1, [r0, #4]
 138              		.loc 1 93 0
 139 00a2 8360     		str	r3, [r0, #8]
 140              		.loc 1 94 0
 141 00a4 BDE8F00F 		pop	{r4, r5, r6, r7, r8, r9, sl, fp}
 142 00a8 7047     		bx	lr
 143              		.cfi_endproc
 144              	.LFE118:
 145              		.size	stm32_rtc_bcd2tm, .-stm32_rtc_bcd2tm
 146 00aa 00BFAFF3 		.section	.text.stm32_rtc_tm2bcd,"ax",%progbits
 146      0080
 147              		.align	2
 148              		.p2align 4,,15
 149              		.thumb
 150              		.thumb_func
 151              		.type	stm32_rtc_tm2bcd, %function
 152              	stm32_rtc_tm2bcd:
 153              	.LFB119:
 154              		.loc 1 104 0
 155              		.cfi_startproc
 156              		@ args = 0, pretend = 0, frame = 24
 157              		@ frame_needed = 0, uses_anonymous_args = 0
 158              		@ link register save eliminated.
 159              	.LVL5:
 160              		.loc 1 110 0
 161 0000 4269     		ldr	r2, [r0, #20]
 162              		.loc 1 104 0
 163 0002 2DE9F00F 		push	{r4, r5, r6, r7, r8, r9, sl, fp}
 164              	.LCFI1:
 165              		.cfi_def_cfa_offset 32
 166              		.cfi_offset 4, -32
 167              		.cfi_offset 5, -28
 168              		.cfi_offset 6, -24
 169              		.cfi_offset 7, -20
 170              		.cfi_offset 8, -16
ARM GAS  C:\Users\DNIEL~1\AppData\Local\Temp\ccTFjoEZ.s 			page 4


 171              		.cfi_offset 9, -12
 172              		.cfi_offset 10, -8
 173              		.cfi_offset 11, -4
 174              		.loc 1 111 0
 175 0006 4CF6CD43 		movw	r3, #52429
 176              		.loc 1 110 0
 177 000a 643A     		subs	r2, r2, #100
 178              	.LVL6:
 179              		.loc 1 111 0
 180 000c CCF6CC43 		movt	r3, 52428
 181 0010 A3FB0256 		umull	r5, r6, r3, r2
 182 0014 F508     		lsrs	r5, r6, #3
 183              		.loc 1 112 0
 184 0016 05EB850A 		add	sl, r5, r5, lsl #2
 185              		.loc 1 104 0
 186 001a 86B0     		sub	sp, sp, #24
 187              	.LCFI2:
 188              		.cfi_def_cfa_offset 56
 189              		.loc 1 111 0
 190 001c 2F05     		lsls	r7, r5, #20
 191              		.loc 1 112 0
 192 001e A2EB4A02 		sub	r2, r2, sl, lsl #1
 193              	.LVL7:
 194              		.loc 1 114 0
 195 0022 8469     		ldr	r4, [r0, #24]
 196              		.loc 1 111 0
 197 0024 07F47003 		and	r3, r7, #15728640
 198              		.loc 1 112 0
 199 0028 1604     		lsls	r6, r2, #16
 200              		.loc 1 111 0
 201 002a 0293     		str	r3, [sp, #8]
 202              		.loc 1 112 0
 203 002c 0396     		str	r6, [sp, #12]
 204              		.loc 1 114 0
 205 002e 002C     		cmp	r4, #0
 206 0030 66D0     		beq	.L7
 207              	.LVL8:
 208 0032 6407     		lsls	r4, r4, #29
 209              	.LVL9:
 210 0034 250C     		lsrs	r5, r4, #16
 211 0036 0495     		str	r5, [sp, #16]
 212              	.LVL10:
 213              	.L6:
 214              		.loc 1 120 0
 215 0038 0269     		ldr	r2, [r0, #16]
 216              		.loc 1 132 0
 217 003a D0F804C0 		ldr	ip, [r0, #4]
 218              		.loc 1 124 0
 219 003e C768     		ldr	r7, [r0, #12]
 220              		.loc 1 128 0
 221 0040 8668     		ldr	r6, [r0, #8]
 222              		.loc 1 136 0
 223 0042 D0F800B0 		ldr	fp, [r0, #0]
 224              		.loc 1 122 0
 225 0046 4CF6CD43 		movw	r3, #52429
 226 004a CCF6CC43 		movt	r3, 52428
 227              		.loc 1 120 0
ARM GAS  C:\Users\DNIEL~1\AppData\Local\Temp\ccTFjoEZ.s 			page 5


 228 004e 02F1010A 		add	sl, r2, #1
 229              	.LVL11:
 230              		.loc 1 134 0
 231 0052 A3FB0C94 		umull	r9, r4, r3, ip
 232              		.loc 1 122 0
 233 0056 A3FB0A80 		umull	r8, r0, r3, sl
 234              	.LVL12:
 235              		.loc 1 134 0
 236 005a E208     		lsrs	r2, r4, #3
 237              		.loc 1 122 0
 238 005c C008     		lsrs	r0, r0, #3
 239              		.loc 1 126 0
 240 005e A3FB0745 		umull	r4, r5, r3, r7
 241              		.loc 1 130 0
 242 0062 A3FB0684 		umull	r8, r4, r3, r6
 243              		.loc 1 134 0
 244 0066 02EB8209 		add	r9, r2, r2, lsl #2
 245              		.loc 1 122 0
 246 006a 00EB8008 		add	r8, r0, r0, lsl #2
 247              		.loc 1 130 0
 248 006e E408     		lsrs	r4, r4, #3
 249              		.loc 1 134 0
 250 0070 CDF81490 		str	r9, [sp, #20]
 251              		.loc 1 122 0
 252 0074 AAEB480A 		sub	sl, sl, r8, lsl #1
 253              		.loc 1 130 0
 254 0078 04EB8408 		add	r8, r4, r4, lsl #2
 255              		.loc 1 126 0
 256 007c ED08     		lsrs	r5, r5, #3
 257              		.loc 1 130 0
 258 007e CDF80480 		str	r8, [sp, #4]
 259              		.loc 1 134 0
 260 0082 DDF81480 		ldr	r8, [sp, #20]
 261              		.loc 1 138 0
 262 0086 A3FB0B93 		umull	r9, r3, r3, fp
 263              		.loc 1 126 0
 264 008a 05EB8509 		add	r9, r5, r5, lsl #2
 265 008e A7EB4907 		sub	r7, r7, r9, lsl #1
 266              		.loc 1 134 0
 267 0092 ACEB480C 		sub	ip, ip, r8, lsl #1
 268              		.loc 1 130 0
 269 0096 DDF80490 		ldr	r9, [sp, #4]
 270              		.loc 1 112 0
 271 009a DDF80C80 		ldr	r8, [sp, #12]
 272              		.loc 1 138 0
 273 009e DB08     		lsrs	r3, r3, #3
 274              		.loc 1 125 0
 275 00a0 2D01     		lsls	r5, r5, #4
 276              		.loc 1 130 0
 277 00a2 A6EB4906 		sub	r6, r6, r9, lsl #1
 278              		.loc 1 112 0
 279 00a6 48EA0A2A 		orr	sl, r8, sl, lsl #8
 280              		.loc 1 138 0
 281 00aa 03EB8309 		add	r9, r3, r3, lsl #2
 282              		.loc 1 134 0
 283 00ae 4FEA0C2C 		lsl	ip, ip, #8
 284              		.loc 1 118 0
ARM GAS  C:\Users\DNIEL~1\AppData\Local\Temp\ccTFjoEZ.s 			page 6


 285 00b2 4AEA070A 		orr	sl, sl, r7
 286              		.loc 1 130 0
 287 00b6 4CEA0646 		orr	r6, ip, r6, lsl #16
 288              		.loc 1 125 0
 289 00ba 05F03007 		and	r7, r5, #48
 290              		.loc 1 138 0
 291 00be ABEB4909 		sub	r9, fp, r9, lsl #1
 292              		.loc 1 129 0
 293 00c2 2405     		lsls	r4, r4, #20
 294              		.loc 1 121 0
 295 00c4 4AEA0705 		orr	r5, sl, r7
 296              		.loc 1 129 0
 297 00c8 04F44014 		and	r4, r4, #3145728
 298              		.loc 1 133 0
 299 00cc 1203     		lsls	r2, r2, #12
 300 00ce 46EA0906 		orr	r6, r6, r9
 301              		.loc 1 122 0
 302 00d2 029F     		ldr	r7, [sp, #8]
 303              		.loc 1 134 0
 304 00d4 2643     		orrs	r6, r6, r4
 305              		.loc 1 121 0
 306 00d6 0003     		lsls	r0, r0, #12
 307              		.loc 1 133 0
 308 00d8 02F4E044 		and	r4, r2, #28672
 309              		.loc 1 137 0
 310 00dc 46EA0402 		orr	r2, r6, r4
 311              		.loc 1 122 0
 312 00e0 3D43     		orrs	r5, r5, r7
 313              		.loc 1 121 0
 314 00e2 00F48050 		and	r0, r0, #4096
 315              		.loc 1 137 0
 316 00e6 1B01     		lsls	r3, r3, #4
 317              		.loc 1 126 0
 318 00e8 049C     		ldr	r4, [sp, #16]
 319              		.loc 1 125 0
 320 00ea 2843     		orrs	r0, r0, r5
 321              		.loc 1 137 0
 322 00ec 03F07003 		and	r3, r3, #112
 323              		.loc 1 126 0
 324 00f0 2043     		orrs	r0, r0, r4
 325              		.loc 1 138 0
 326 00f2 1343     		orrs	r3, r3, r2
 327 00f4 81E80900 		stmia	r1, {r0, r3}
 328              		.loc 1 139 0
 329 00f8 06B0     		add	sp, sp, #24
 330 00fa BDE8F00F 		pop	{r4, r5, r6, r7, r8, r9, sl, fp}
 331 00fe 7047     		bx	lr
 332              	.LVL13:
 333              	.L7:
 334              		.loc 1 114 0
 335 0100 4FF46047 		mov	r7, #57344
 336 0104 0497     		str	r7, [sp, #16]
 337 0106 97E7     		b	.L6
 338              		.cfi_endproc
 339              	.LFE119:
 340              		.size	stm32_rtc_tm2bcd, .-stm32_rtc_tm2bcd
 341 0108 AFF30080 		.section	.text.rtcGetTimeTm,"ax",%progbits
ARM GAS  C:\Users\DNIEL~1\AppData\Local\Temp\ccTFjoEZ.s 			page 7


 341      AFF30080 
 342              		.align	2
 343              		.p2align 4,,15
 344              		.global	rtcGetTimeTm
 345              		.thumb
 346              		.thumb_func
 347              		.type	rtcGetTimeTm, %function
 348              	rtcGetTimeTm:
 349              	.LFB120:
 350              		.loc 1 149 0
 351              		.cfi_startproc
 352              		@ args = 0, pretend = 0, frame = 16
 353              		@ frame_needed = 0, uses_anonymous_args = 0
 354              	.LVL14:
 355 0000 10B5     		push	{r4, lr}
 356              	.LCFI3:
 357              		.cfi_def_cfa_offset 8
 358              		.cfi_offset 4, -8
 359              		.cfi_offset 14, -4
 360 0002 84B0     		sub	sp, sp, #16
 361              	.LCFI4:
 362              		.cfi_def_cfa_offset 24
 363              		.loc 1 151 0
 364 0004 0023     		movs	r3, #0
 365              		.loc 1 149 0
 366 0006 0C46     		mov	r4, r1
 367              		.loc 1 156 0
 368 0008 6946     		mov	r1, sp
 369              	.LVL15:
 370              		.loc 1 151 0
 371 000a 0093     		str	r3, [sp, #0]
 372 000c 0193     		str	r3, [sp, #4]
 373 000e 0293     		str	r3, [sp, #8]
 374 0010 0393     		str	r3, [sp, #12]
 375              		.loc 1 156 0
 376 0012 FFF7FEFF 		bl	rtcGetTime
 377              	.LVL16:
 378              		.loc 1 157 0
 379 0016 2046     		mov	r0, r4
 380 0018 6946     		mov	r1, sp
 381 001a FFF7FEFF 		bl	stm32_rtc_bcd2tm
 382              	.LVL17:
 383              		.loc 1 158 0
 384 001e 04B0     		add	sp, sp, #16
 385 0020 10BD     		pop	{r4, pc}
 386              		.cfi_endproc
 387              	.LFE120:
 388              		.size	rtcGetTimeTm, .-rtcGetTimeTm
 389 0022 00BFAFF3 		.section	.text.rtcSetTimeTm,"ax",%progbits
 389      0080AFF3 
 389      0080AFF3 
 389      0080
 390              		.align	2
 391              		.p2align 4,,15
 392              		.global	rtcSetTimeTm
 393              		.thumb
 394              		.thumb_func
ARM GAS  C:\Users\DNIEL~1\AppData\Local\Temp\ccTFjoEZ.s 			page 8


 395              		.type	rtcSetTimeTm, %function
 396              	rtcSetTimeTm:
 397              	.LFB121:
 398              		.loc 1 168 0
 399              		.cfi_startproc
 400              		@ args = 0, pretend = 0, frame = 16
 401              		@ frame_needed = 0, uses_anonymous_args = 0
 402              	.LVL18:
 403 0000 10B5     		push	{r4, lr}
 404              	.LCFI5:
 405              		.cfi_def_cfa_offset 8
 406              		.cfi_offset 4, -8
 407              		.cfi_offset 14, -4
 408 0002 84B0     		sub	sp, sp, #16
 409              	.LCFI6:
 410              		.cfi_def_cfa_offset 24
 411              		.loc 1 170 0
 412 0004 0023     		movs	r3, #0
 413              		.loc 1 168 0
 414 0006 0446     		mov	r4, r0
 415              		.loc 1 175 0
 416 0008 0846     		mov	r0, r1
 417              	.LVL19:
 418 000a 6946     		mov	r1, sp
 419              	.LVL20:
 420              		.loc 1 170 0
 421 000c 0093     		str	r3, [sp, #0]
 422 000e 0193     		str	r3, [sp, #4]
 423 0010 0293     		str	r3, [sp, #8]
 424 0012 0393     		str	r3, [sp, #12]
 425              		.loc 1 175 0
 426 0014 FFF7FEFF 		bl	stm32_rtc_tm2bcd
 427              	.LVL21:
 428              		.loc 1 176 0
 429 0018 2046     		mov	r0, r4
 430 001a 6946     		mov	r1, sp
 431 001c FFF7FEFF 		bl	rtcSetTime
 432              	.LVL22:
 433              		.loc 1 177 0
 434 0020 04B0     		add	sp, sp, #16
 435 0022 10BD     		pop	{r4, pc}
 436              		.cfi_endproc
 437              	.LFE121:
 438              		.size	rtcSetTimeTm, .-rtcSetTimeTm
 439 0024 AFF30080 		.section	.text.rtcGetTimeUnixSec,"ax",%progbits
 439      AFF30080 
 439      AFF30080 
 440              		.align	2
 441              		.p2align 4,,15
 442              		.global	rtcGetTimeUnixSec
 443              		.thumb
 444              		.thumb_func
 445              		.type	rtcGetTimeUnixSec, %function
 446              	rtcGetTimeUnixSec:
 447              	.LFB122:
 448              		.loc 1 187 0
 449              		.cfi_startproc
ARM GAS  C:\Users\DNIEL~1\AppData\Local\Temp\ccTFjoEZ.s 			page 9


 450              		@ args = 0, pretend = 0, frame = 56
 451              		@ frame_needed = 0, uses_anonymous_args = 0
 452              	.LVL23:
 453 0000 00B5     		push	{lr}
 454              	.LCFI7:
 455              		.cfi_def_cfa_offset 4
 456              		.cfi_offset 14, -4
 457 0002 8FB0     		sub	sp, sp, #60
 458              	.LCFI8:
 459              		.cfi_def_cfa_offset 64
 460              		.loc 1 189 0
 461 0004 0023     		movs	r3, #0
 462              		.loc 1 195 0
 463 0006 01A9     		add	r1, sp, #4
 464              		.loc 1 189 0
 465 0008 0193     		str	r3, [sp, #4]
 466 000a 0293     		str	r3, [sp, #8]
 467 000c 0393     		str	r3, [sp, #12]
 468 000e 0493     		str	r3, [sp, #16]
 469              		.loc 1 195 0
 470 0010 FFF7FEFF 		bl	rtcGetTime
 471              	.LVL24:
 472              		.loc 1 196 0
 473 0014 05A8     		add	r0, sp, #20
 474 0016 01A9     		add	r1, sp, #4
 475 0018 FFF7FEFF 		bl	stm32_rtc_bcd2tm
 476              	.LVL25:
 477              		.loc 1 198 0
 478 001c 05A8     		add	r0, sp, #20
 479 001e FFF7FEFF 		bl	mktime
 480              	.LVL26:
 481              		.loc 1 199 0
 482 0022 0FB0     		add	sp, sp, #60
 483 0024 00BD     		pop	{pc}
 484              		.cfi_endproc
 485              	.LFE122:
 486              		.size	rtcGetTimeUnixSec, .-rtcGetTimeUnixSec
 487 0026 00BFAFF3 		.section	.text.rtcSetTimeUnixSec,"ax",%progbits
 487      0080AFF3 
 487      0080
 488              		.align	2
 489              		.p2align 4,,15
 490              		.global	rtcSetTimeUnixSec
 491              		.thumb
 492              		.thumb_func
 493              		.type	rtcSetTimeUnixSec, %function
 494              	rtcSetTimeUnixSec:
 495              	.LFB123:
 496              		.loc 1 210 0
 497              		.cfi_startproc
 498              		@ args = 0, pretend = 0, frame = 64
 499              		@ frame_needed = 0, uses_anonymous_args = 0
 500              	.LVL27:
 501 0000 10B5     		push	{r4, lr}
 502              	.LCFI9:
 503              		.cfi_def_cfa_offset 8
 504              		.cfi_offset 4, -8
ARM GAS  C:\Users\DNIEL~1\AppData\Local\Temp\ccTFjoEZ.s 			page 10


 505              		.cfi_offset 14, -4
 506 0002 90B0     		sub	sp, sp, #64
 507              	.LCFI10:
 508              		.cfi_def_cfa_offset 72
 509              		.loc 1 212 0
 510 0004 0023     		movs	r3, #0
 511              		.loc 1 210 0
 512 0006 0446     		mov	r4, r0
 513 0008 0191     		str	r1, [sp, #4]
 514              		.loc 1 218 0
 515 000a 01A8     		add	r0, sp, #4
 516              	.LVL28:
 517 000c 07A9     		add	r1, sp, #28
 518              	.LVL29:
 519              		.loc 1 212 0
 520 000e 0393     		str	r3, [sp, #12]
 521 0010 0493     		str	r3, [sp, #16]
 522 0012 0593     		str	r3, [sp, #20]
 523 0014 0693     		str	r3, [sp, #24]
 524              		.loc 1 218 0
 525 0016 FFF7FEFF 		bl	localtime_r
 526              	.LVL30:
 527              		.loc 1 219 0
 528 001a 07A8     		add	r0, sp, #28
 529 001c 03A9     		add	r1, sp, #12
 530 001e FFF7FEFF 		bl	stm32_rtc_tm2bcd
 531              	.LVL31:
 532              		.loc 1 220 0
 533 0022 2046     		mov	r0, r4
 534 0024 03A9     		add	r1, sp, #12
 535 0026 FFF7FEFF 		bl	rtcSetTime
 536              	.LVL32:
 537              		.loc 1 221 0
 538 002a 10B0     		add	sp, sp, #64
 539 002c 10BD     		pop	{r4, pc}
 540              		.cfi_endproc
 541              	.LFE123:
 542              		.size	rtcSetTimeUnixSec, .-rtcSetTimeUnixSec
 543 002e 00BF     		.section	.text.rtcGetTimeUnixUsec,"ax",%progbits
 544              		.align	2
 545              		.p2align 4,,15
 546              		.global	rtcGetTimeUnixUsec
 547              		.thumb
 548              		.thumb_func
 549              		.type	rtcGetTimeUnixUsec, %function
 550              	rtcGetTimeUnixUsec:
 551              	.LFB124:
 552              		.loc 1 231 0
 553              		.cfi_startproc
 554              		@ args = 0, pretend = 0, frame = 56
 555              		@ frame_needed = 0, uses_anonymous_args = 0
 556              	.LVL33:
 557 0000 10B5     		push	{r4, lr}
 558              	.LCFI11:
 559              		.cfi_def_cfa_offset 8
 560              		.cfi_offset 4, -8
 561              		.cfi_offset 14, -4
ARM GAS  C:\Users\DNIEL~1\AppData\Local\Temp\ccTFjoEZ.s 			page 11


 562 0002 8EB0     		sub	sp, sp, #56
 563              	.LCFI12:
 564              		.cfi_def_cfa_offset 64
 565              		.loc 1 234 0
 566 0004 0023     		movs	r3, #0
 567              		.loc 1 237 0
 568 0006 01A9     		add	r1, sp, #4
 569              		.loc 1 234 0
 570 0008 0193     		str	r3, [sp, #4]
 571 000a 0293     		str	r3, [sp, #8]
 572 000c 0393     		str	r3, [sp, #12]
 573 000e 0493     		str	r3, [sp, #16]
 574              		.loc 1 237 0
 575 0010 FFF7FEFF 		bl	rtcGetTime
 576              	.LVL34:
 577              		.loc 1 238 0
 578 0014 01A9     		add	r1, sp, #4
 579 0016 05A8     		add	r0, sp, #20
 580 0018 FFF7FEFF 		bl	stm32_rtc_bcd2tm
 581              	.LVL35:
 582              		.loc 1 240 0
 583 001c 05A8     		add	r0, sp, #20
 584 001e FFF7FEFF 		bl	mktime
 585              	.LVL36:
 586              		.loc 1 241 0
 587 0022 0499     		ldr	r1, [sp, #16]
 588 0024 4FF47A74 		mov	r4, #1000
 589 0028 04FB01F1 		mul	r1, r4, r1
 590 002c 0A46     		mov	r2, r1
 591 002e 44F24021 		movw	r1, #16960
 592 0032 0023     		movs	r3, #0
 593 0034 C0F20F01 		movt	r1, 15
 594 0038 C1FB0023 		smlal	r2, r3, r1, r0
 595              		.loc 1 245 0
 596 003c 1046     		mov	r0, r2
 597 003e 1946     		mov	r1, r3
 598 0040 0EB0     		add	sp, sp, #56
 599 0042 10BD     		pop	{r4, pc}
 600              		.cfi_endproc
 601              	.LFE124:
 602              		.size	rtcGetTimeUnixUsec, .-rtcGetTimeUnixUsec
 603 0044 AFF30080 		.text
 603      AFF30080 
 603      AFF30080 
 604              	.Letext0:
 605              		.file 2 "c:\\chibistudio\\tools\\gnu tools arm embedded\\4.7 2014q2\\bin\\../lib/gcc/arm-none-eabi
 606              		.file 3 "c:\\chibistudio\\tools\\gnu tools arm embedded\\4.7 2014q2\\bin\\../lib/gcc/arm-none-eabi
 607              		.file 4 "c:\\chibistudio\\tools\\gnu tools arm embedded\\4.7 2014q2\\bin\\../lib/gcc/arm-none-eabi
 608              		.file 5 "../../../ChibiOS/os/ports/GCC/ARMCMx/chtypes.h"
 609              		.file 6 "../../../ChibiOS/os/hal/platforms/STM32F4xx/stm32f4xx.h"
 610              		.file 7 "../../../ChibiOS/os/hal/include/rtc.h"
 611              		.file 8 "../../../ChibiOS/os/hal/platforms/STM32/RTCv2/rtc_lld.h"
 612              		.file 9 "../../../ChibiOS/os/ports/common/ARMCMx/CMSIS/include/core_cm4.h"