ARM GAS  C:\Users\DNIEL~1\AppData\Local\Temp\cctRj7Vu.s 			page 1


   1              		.syntax unified
   2              		.cpu cortex-m4
   3              		.fpu softvfp
   4              		.eabi_attribute 20, 1
   5              		.eabi_attribute 21, 1
   6              		.eabi_attribute 23, 3
   7              		.eabi_attribute 24, 1
   8              		.eabi_attribute 25, 1
   9              		.eabi_attribute 26, 1
  10              		.eabi_attribute 30, 2
  11              		.eabi_attribute 34, 1
  12              		.eabi_attribute 18, 4
  13              		.thumb
  14              		.file	"chschd.c"
  15              		.text
  16              	.Ltext0:
  17              		.cfi_sections	.debug_frame
  18              		.section	.text.wakeup,"ax",%progbits
  19              		.align	2
  20              		.p2align 4,,15
  21              		.thumb
  22              		.thumb_func
  23              		.type	wakeup, %function
  24              	wakeup:
  25              	.LFB10:
  26              		.file 1 "../../../ChibiOS/os/kernel/src/chschd.c"
  27              		.loc 1 136 0
  28              		.cfi_startproc
  29              		@ args = 0, pretend = 0, frame = 0
  30              		@ frame_needed = 0, uses_anonymous_args = 0
  31              		@ link register save eliminated.
  32              	.LVL0:
  33              	.LBB22:
  34              		.loc 1 139 0
  35 0000 2023     		movs	r3, #32
  36              	.LVL1:
  37              	@ 139 "../../../ChibiOS/os/kernel/src/chschd.c" 1
  38 0002 83F31188 		msr     BASEPRI, r3
  39              	@ 0 "" 2
  40              	.LVL2:
  41              		.thumb
  42              	.LBE22:
  43              		.loc 1 140 0
  44 0006 037F     		ldrb	r3, [r0, #28]	@ zero_extendqisi2
  45              	.LVL3:
  46 0008 0D2B     		cmp	r3, #13
  47 000a 11D8     		bhi	.L2
  48 000c DFE803F0 		tbb	[pc, r3]
  49              	.L6:
  50 0010 20       		.byte	(.L10-.L6)/2
  51 0011 10       		.byte	(.L2-.L6)/2
  52 0012 10       		.byte	(.L2-.L6)/2
  53 0013 07       		.byte	(.L4-.L6)/2
  54 0014 10       		.byte	(.L2-.L6)/2
  55 0015 0B       		.byte	(.L5-.L6)/2
  56 0016 10       		.byte	(.L2-.L6)/2
  57 0017 10       		.byte	(.L2-.L6)/2
ARM GAS  C:\Users\DNIEL~1\AppData\Local\Temp\cctRj7Vu.s 			page 2


  58 0018 10       		.byte	(.L2-.L6)/2
  59 0019 10       		.byte	(.L2-.L6)/2
  60 001a 10       		.byte	(.L2-.L6)/2
  61 001b 10       		.byte	(.L2-.L6)/2
  62 001c 10       		.byte	(.L2-.L6)/2
  63 001d 0B       		.byte	(.L5-.L6)/2
  64              		.align	1
  65              	.L4:
  66              		.loc 1 150 0
  67 001e 416A     		ldr	r1, [r0, #36]
  68 0020 8A68     		ldr	r2, [r1, #8]
  69 0022 531C     		adds	r3, r2, #1
  70 0024 8B60     		str	r3, [r1, #8]
  71              	.L5:
  72              	.LVL4:
  73              	.LBB23:
  74              	.LBB24:
  75              		.file 2 "../../../ChibiOS/os/kernel/include/chinline.h"
  76              		.loc 2 75 0
  77 0026 90E80C00 		ldmia	r0, {r2, r3}
  78 002a 1A60     		str	r2, [r3, #0]
  79              		.loc 2 76 0
  80 002c 0168     		ldr	r1, [r0, #0]
  81 002e 4B60     		str	r3, [r1, #4]
  82              	.LVL5:
  83              	.L2:
  84              	.LBE24:
  85              	.LBE23:
  86              		.loc 1 163 0
  87 0030 4FF0FF32 		mov	r2, #-1
  88 0034 4262     		str	r2, [r0, #36]
  89              	.LVL6:
  90 0036 8168     		ldr	r1, [r0, #8]
  91              	.LBB25:
  92              	.LBB26:
  93              		.loc 1 93 0
  94 0038 074B     		ldr	r3, .L12
  95              		.loc 1 92 0
  96 003a 0022     		movs	r2, #0
  97 003c 0277     		strb	r2, [r0, #28]
  98              	.LVL7:
  99              	.L8:
 100              		.loc 1 95 0
 101 003e 1B68     		ldr	r3, [r3, #0]
 102              	.LVL8:
 103              		.loc 1 96 0
 104 0040 9A68     		ldr	r2, [r3, #8]
 105 0042 8A42     		cmp	r2, r1
 106 0044 FBD2     		bcs	.L8
 107              		.loc 1 99 0
 108 0046 5968     		ldr	r1, [r3, #4]
 109              		.loc 1 98 0
 110 0048 0360     		str	r3, [r0, #0]
 111              		.loc 1 99 0
 112 004a 4160     		str	r1, [r0, #4]
 113              		.loc 1 100 0
 114 004c 0860     		str	r0, [r1, #0]
ARM GAS  C:\Users\DNIEL~1\AppData\Local\Temp\cctRj7Vu.s 			page 3


 115 004e 5860     		str	r0, [r3, #4]
 116              	.LVL9:
 117              	.L10:
 118              	.LBE26:
 119              	.LBE25:
 120              	.LBB27:
 121              		.loc 1 165 0
 122 0050 0023     		movs	r3, #0
 123              	.LVL10:
 124              	@ 165 "../../../ChibiOS/os/kernel/src/chschd.c" 1
 125 0052 83F31188 		msr     BASEPRI, r3
 126              	@ 0 "" 2
 127              	.LVL11:
 128              		.thumb
 129 0056 7047     		bx	lr
 130              	.L13:
 131              		.align	2
 132              	.L12:
 133 0058 00000000 		.word	.LANCHOR0
 134              	.LBE27:
 135              		.cfi_endproc
 136              	.LFE10:
 137              		.size	wakeup, .-wakeup
 138 005c AFF30080 		.section	.text._scheduler_init,"ax",%progbits
 139              		.align	2
 140              		.p2align 4,,15
 141              		.global	_scheduler_init
 142              		.thumb
 143              		.thumb_func
 144              		.type	_scheduler_init, %function
 145              	_scheduler_init:
 146              	.LFB7:
 147              		.loc 1 55 0
 148              		.cfi_startproc
 149              		@ args = 0, pretend = 0, frame = 0
 150              		@ frame_needed = 0, uses_anonymous_args = 0
 151              		@ link register save eliminated.
 152              		.loc 1 57 0
 153 0000 40F20003 		movw	r3, #:lower16:.LANCHOR0
 154 0004 C0F20003 		movt	r3, #:upper16:.LANCHOR0
 155              		.loc 1 58 0
 156 0008 0022     		movs	r2, #0
 157              		.loc 1 57 0
 158 000a 5B60     		str	r3, [r3, #4]
 159 000c 1B60     		str	r3, [r3, #0]
 160              		.loc 1 58 0
 161 000e 9A60     		str	r2, [r3, #8]
 162              		.loc 1 60 0
 163 0010 5B61     		str	r3, [r3, #20]
 164 0012 1B61     		str	r3, [r3, #16]
 165 0014 7047     		bx	lr
 166              		.cfi_endproc
 167              	.LFE7:
 168              		.size	_scheduler_init, .-_scheduler_init
 169 0016 00BFAFF3 		.section	.text.chSchReadyI,"ax",%progbits
 169      0080AFF3 
 169      0080
ARM GAS  C:\Users\DNIEL~1\AppData\Local\Temp\cctRj7Vu.s 			page 4


 170              		.align	2
 171              		.p2align 4,,15
 172              		.global	chSchReadyI
 173              		.thumb
 174              		.thumb_func
 175              		.type	chSchReadyI, %function
 176              	chSchReadyI:
 177              	.LFB8:
 178              		.loc 1 81 0
 179              		.cfi_startproc
 180              		@ args = 0, pretend = 0, frame = 0
 181              		@ frame_needed = 0, uses_anonymous_args = 0
 182              		@ link register save eliminated.
 183              	.LVL12:
 184              		.loc 1 92 0
 185 0000 0022     		movs	r2, #0
 186 0002 8168     		ldr	r1, [r0, #8]
 187              		.loc 1 93 0
 188 0004 054B     		ldr	r3, .L18
 189              		.loc 1 92 0
 190 0006 0277     		strb	r2, [r0, #28]
 191              	.LVL13:
 192              	.L16:
 193              		.loc 1 95 0 discriminator 1
 194 0008 1B68     		ldr	r3, [r3, #0]
 195              	.LVL14:
 196              		.loc 1 96 0 discriminator 1
 197 000a 9A68     		ldr	r2, [r3, #8]
 198 000c 8A42     		cmp	r2, r1
 199 000e FBD2     		bcs	.L16
 200              		.loc 1 99 0
 201 0010 5968     		ldr	r1, [r3, #4]
 202              		.loc 1 98 0
 203 0012 0360     		str	r3, [r0, #0]
 204              		.loc 1 99 0
 205 0014 4160     		str	r1, [r0, #4]
 206              		.loc 1 100 0
 207 0016 0860     		str	r0, [r1, #0]
 208 0018 5860     		str	r0, [r3, #4]
 209              		.loc 1 102 0
 210 001a 7047     		bx	lr
 211              	.L19:
 212              		.align	2
 213              	.L18:
 214 001c 00000000 		.word	.LANCHOR0
 215              		.cfi_endproc
 216              	.LFE8:
 217              		.size	chSchReadyI, .-chSchReadyI
 218              		.section	.text.chSchGoSleepS,"ax",%progbits
 219              		.align	2
 220              		.p2align 4,,15
 221              		.global	chSchGoSleepS
 222              		.thumb
 223              		.thumb_func
 224              		.type	chSchGoSleepS, %function
 225              	chSchGoSleepS:
 226              	.LFB9:
ARM GAS  C:\Users\DNIEL~1\AppData\Local\Temp\cctRj7Vu.s 			page 5


 227              		.loc 1 115 0
 228              		.cfi_startproc
 229              		@ args = 0, pretend = 0, frame = 0
 230              		@ frame_needed = 0, uses_anonymous_args = 0
 231              		@ link register save eliminated.
 232              	.LVL15:
 233              		.loc 1 120 0
 234 0000 40F20003 		movw	r3, #:lower16:.LANCHOR0
 235 0004 C0F20003 		movt	r3, #:upper16:.LANCHOR0
 236              		.loc 1 115 0
 237 0008 10B4     		push	{r4}
 238              	.LCFI0:
 239              		.cfi_def_cfa_offset 4
 240              		.cfi_offset 4, -4
 241              		.loc 1 120 0
 242 000a 9969     		ldr	r1, [r3, #24]
 243              	.LVL16:
 244              	.LBB28:
 245              	.LBB29:
 246              		.loc 2 60 0
 247 000c 1A68     		ldr	r2, [r3, #0]
 248              	.LBE29:
 249              	.LBE28:
 250              		.loc 1 120 0
 251 000e 0877     		strb	r0, [r1, #28]
 252              		.loc 1 124 0
 253 0010 1420     		movs	r0, #20
 254              	.LVL17:
 255              	.LBB32:
 256              	.LBB30:
 257              		.loc 2 62 0
 258 0012 1468     		ldr	r4, [r2, #0]
 259              	.LBE30:
 260              	.LBE32:
 261              		.loc 1 124 0
 262 0014 C877     		strb	r0, [r1, #31]
 263              	.LVL18:
 264              		.loc 1 127 0
 265 0016 0120     		movs	r0, #1
 266 0018 1077     		strb	r0, [r2, #28]
 267              		.loc 1 128 0
 268 001a 1046     		mov	r0, r2
 269              	.LBB33:
 270              	.LBB31:
 271              		.loc 2 62 0
 272 001c 6360     		str	r3, [r4, #4]
 273 001e 1C60     		str	r4, [r3, #0]
 274              	.LBE31:
 275              	.LBE33:
 276              		.loc 1 126 0
 277 0020 9A61     		str	r2, [r3, #24]
 278              		.loc 1 129 0
 279 0022 10BC     		pop	{r4}
 280              		.loc 1 128 0
 281 0024 FFF7FEBF 		b	_port_switch
 282              	.LVL19:
 283              		.cfi_endproc
ARM GAS  C:\Users\DNIEL~1\AppData\Local\Temp\cctRj7Vu.s 			page 6


 284              	.LFE9:
 285              		.size	chSchGoSleepS, .-chSchGoSleepS
 286 0028 AFF30080 		.section	.text.chSchGoSleepTimeoutS,"ax",%progbits
 286      AFF30080 
 287              		.align	2
 288              		.p2align 4,,15
 289              		.global	chSchGoSleepTimeoutS
 290              		.thumb
 291              		.thumb_func
 292              		.type	chSchGoSleepTimeoutS, %function
 293              	chSchGoSleepTimeoutS:
 294              	.LFB11:
 295              		.loc 1 189 0
 296              		.cfi_startproc
 297              		@ args = 0, pretend = 0, frame = 24
 298              		@ frame_needed = 0, uses_anonymous_args = 0
 299              	.LVL20:
 300 0000 30B5     		push	{r4, r5, lr}
 301              	.LCFI1:
 302              		.cfi_def_cfa_offset 12
 303              		.cfi_offset 4, -12
 304              		.cfi_offset 5, -8
 305              		.cfi_offset 14, -4
 306              		.loc 1 193 0
 307 0002 4B1C     		adds	r3, r1, #1
 308              		.loc 1 189 0
 309 0004 87B0     		sub	sp, sp, #28
 310              	.LCFI2:
 311              		.cfi_def_cfa_offset 40
 312              		.loc 1 189 0
 313 0006 0546     		mov	r5, r0
 314              		.loc 1 193 0
 315 0008 11D0     		beq	.L22
 316              	.LBB34:
 317              		.loc 1 196 0
 318 000a 0B4C     		ldr	r4, .L28
 319 000c 0B4A     		ldr	r2, .L28+4
 320 000e A369     		ldr	r3, [r4, #24]
 321 0010 01A8     		add	r0, sp, #4
 322              	.LVL21:
 323 0012 FFF7FEFF 		bl	chVTSetI
 324              	.LVL22:
 325              		.loc 1 197 0
 326 0016 2846     		mov	r0, r5
 327 0018 FFF7FEFF 		bl	chSchGoSleepS
 328              	.LVL23:
 329              		.loc 1 198 0
 330 001c 049B     		ldr	r3, [sp, #16]
 331 001e 13B1     		cbz	r3, .L24
 332              		.loc 1 199 0
 333 0020 01A8     		add	r0, sp, #4
 334 0022 FFF7FEFF 		bl	chVTResetI
 335              	.LVL24:
 336              	.L24:
 337              	.LBE34:
 338              		.loc 1 203 0
 339 0026 A069     		ldr	r0, [r4, #24]
ARM GAS  C:\Users\DNIEL~1\AppData\Local\Temp\cctRj7Vu.s 			page 7


 340              		.loc 1 204 0
 341 0028 406A     		ldr	r0, [r0, #36]
 342 002a 07B0     		add	sp, sp, #28
 343 002c 30BD     		pop	{r4, r5, pc}
 344              	.LVL25:
 345              	.L22:
 346              		.loc 1 202 0
 347 002e FFF7FEFF 		bl	chSchGoSleepS
 348              	.LVL26:
 349 0032 014C     		ldr	r4, .L28
 350 0034 F7E7     		b	.L24
 351              	.L29:
 352 0036 00BF     		.align	2
 353              	.L28:
 354 0038 00000000 		.word	.LANCHOR0
 355 003c 00000000 		.word	wakeup
 356              		.cfi_endproc
 357              	.LFE11:
 358              		.size	chSchGoSleepTimeoutS, .-chSchGoSleepTimeoutS
 359              		.section	.text.chSchWakeupS,"ax",%progbits
 360              		.align	2
 361              		.p2align 4,,15
 362              		.global	chSchWakeupS
 363              		.thumb
 364              		.thumb_func
 365              		.type	chSchWakeupS, %function
 366              	chSchWakeupS:
 367              	.LFB12:
 368              		.loc 1 225 0
 369              		.cfi_startproc
 370              		@ args = 0, pretend = 0, frame = 0
 371              		@ frame_needed = 0, uses_anonymous_args = 0
 372              		@ link register save eliminated.
 373              	.LVL27:
 374 0000 F0B4     		push	{r4, r5, r6, r7}
 375              	.LCFI3:
 376              		.cfi_def_cfa_offset 16
 377              		.cfi_offset 4, -16
 378              		.cfi_offset 5, -12
 379              		.cfi_offset 6, -8
 380              		.cfi_offset 7, -4
 381              		.loc 1 234 0
 382 0002 144F     		ldr	r7, .L38
 383 0004 8568     		ldr	r5, [r0, #8]
 384 0006 BE69     		ldr	r6, [r7, #24]
 385              		.loc 1 225 0
 386 0008 0446     		mov	r4, r0
 387              		.loc 1 234 0
 388 000a B068     		ldr	r0, [r6, #8]
 389              	.LVL28:
 390              		.loc 1 229 0
 391 000c 6162     		str	r1, [r4, #36]
 392              	.LBB35:
 393              	.LBB36:
 394              		.loc 1 92 0
 395 000e 0023     		movs	r3, #0
 396              	.LBE36:
ARM GAS  C:\Users\DNIEL~1\AppData\Local\Temp\cctRj7Vu.s 			page 8


 397              	.LBE35:
 398              		.loc 1 234 0
 399 0010 8542     		cmp	r5, r0
 400 0012 0CD8     		bhi	.L31
 401              	.LVL29:
 402              	.LBB38:
 403              	.LBB37:
 404              		.loc 1 92 0
 405 0014 2377     		strb	r3, [r4, #28]
 406              	.LVL30:
 407              		.loc 1 93 0
 408 0016 3946     		mov	r1, r7
 409              	.LVL31:
 410              	.L32:
 411              		.loc 1 95 0
 412 0018 0968     		ldr	r1, [r1, #0]
 413              	.LVL32:
 414              		.loc 1 96 0
 415 001a 8A68     		ldr	r2, [r1, #8]
 416 001c 9542     		cmp	r5, r2
 417 001e FBD9     		bls	.L32
 418              		.loc 1 99 0
 419 0020 4868     		ldr	r0, [r1, #4]
 420              		.loc 1 98 0
 421 0022 2160     		str	r1, [r4, #0]
 422              		.loc 1 99 0
 423 0024 6060     		str	r0, [r4, #4]
 424              		.loc 1 100 0
 425 0026 0460     		str	r4, [r0, #0]
 426 0028 4C60     		str	r4, [r1, #4]
 427              	.LBE37:
 428              	.LBE38:
 429              		.loc 1 242 0
 430 002a F0BC     		pop	{r4, r5, r6, r7}
 431 002c 7047     		bx	lr
 432              	.LVL33:
 433              	.L31:
 434              	.LBB39:
 435              	.LBB40:
 436              	.LBB41:
 437              		.loc 1 92 0
 438 002e 3377     		strb	r3, [r6, #28]
 439              	.LVL34:
 440              		.loc 1 93 0
 441 0030 3946     		mov	r1, r7
 442              	.LVL35:
 443              	.L34:
 444              		.loc 1 95 0
 445 0032 0968     		ldr	r1, [r1, #0]
 446              	.LVL36:
 447              		.loc 1 96 0
 448 0034 8A68     		ldr	r2, [r1, #8]
 449 0036 9042     		cmp	r0, r2
 450 0038 FBD9     		bls	.L34
 451              		.loc 1 99 0
 452 003a 4868     		ldr	r0, [r1, #4]
 453              		.loc 1 98 0
ARM GAS  C:\Users\DNIEL~1\AppData\Local\Temp\cctRj7Vu.s 			page 9


 454 003c 3160     		str	r1, [r6, #0]
 455              		.loc 1 99 0
 456 003e 7060     		str	r0, [r6, #4]
 457              		.loc 1 100 0
 458 0040 0660     		str	r6, [r0, #0]
 459 0042 4E60     		str	r6, [r1, #4]
 460              	.LBE41:
 461              	.LBE40:
 462              		.loc 1 239 0
 463 0044 0123     		movs	r3, #1
 464              		.loc 1 240 0
 465 0046 2046     		mov	r0, r4
 466 0048 3146     		mov	r1, r6
 467              	.LVL37:
 468              		.loc 1 239 0
 469 004a 2377     		strb	r3, [r4, #28]
 470              		.loc 1 238 0
 471 004c BC61     		str	r4, [r7, #24]
 472              	.LBE39:
 473              		.loc 1 242 0
 474 004e F0BC     		pop	{r4, r5, r6, r7}
 475              	.LBB42:
 476              		.loc 1 240 0
 477 0050 FFF7FEBF 		b	_port_switch
 478              	.LVL38:
 479              	.L39:
 480              		.align	2
 481              	.L38:
 482 0054 00000000 		.word	.LANCHOR0
 483              	.LBE42:
 484              		.cfi_endproc
 485              	.LFE12:
 486              		.size	chSchWakeupS, .-chSchWakeupS
 487 0058 AFF30080 		.section	.text.chSchDoRescheduleBehind,"ax",%progbits
 487      AFF30080 
 488              		.align	2
 489              		.p2align 4,,15
 490              		.global	chSchDoRescheduleBehind
 491              		.thumb
 492              		.thumb_func
 493              		.type	chSchDoRescheduleBehind, %function
 494              	chSchDoRescheduleBehind:
 495              	.LFB14:
 496              		.loc 1 304 0
 497              		.cfi_startproc
 498              		@ args = 0, pretend = 0, frame = 0
 499              		@ frame_needed = 0, uses_anonymous_args = 0
 500              		@ link register save eliminated.
 501              		.loc 1 307 0
 502 0000 0E4B     		ldr	r3, .L44
 503              	.LBB43:
 504              	.LBB44:
 505              		.loc 2 60 0
 506 0002 1868     		ldr	r0, [r3, #0]
 507              	.LBE44:
 508              	.LBE43:
 509              		.loc 1 307 0
ARM GAS  C:\Users\DNIEL~1\AppData\Local\Temp\cctRj7Vu.s 			page 10


 510 0004 9969     		ldr	r1, [r3, #24]
 511              	.LVL39:
 512              	.LBB47:
 513              	.LBB45:
 514              		.loc 2 62 0
 515 0006 0268     		ldr	r2, [r0, #0]
 516              	.LBE45:
 517              	.LBE47:
 518              		.loc 1 304 0
 519 0008 30B4     		push	{r4, r5}
 520              	.LCFI4:
 521              		.cfi_def_cfa_offset 8
 522              		.cfi_offset 4, -8
 523              		.cfi_offset 5, -4
 524              	.LBB48:
 525              	.LBB46:
 526              		.loc 2 62 0
 527 000a 5360     		str	r3, [r2, #4]
 528 000c 1A60     		str	r2, [r3, #0]
 529 000e 8C68     		ldr	r4, [r1, #8]
 530              	.LBE46:
 531              	.LBE48:
 532              		.loc 1 309 0
 533 0010 9861     		str	r0, [r3, #24]
 534              		.loc 1 310 0
 535 0012 0125     		movs	r5, #1
 536              		.loc 1 312 0
 537 0014 1423     		movs	r3, #20
 538              	.LBB49:
 539              	.LBB50:
 540              		.loc 1 92 0
 541 0016 0022     		movs	r2, #0
 542              	.LBE50:
 543              	.LBE49:
 544              		.loc 1 310 0
 545 0018 0577     		strb	r5, [r0, #28]
 546              		.loc 1 312 0
 547 001a CB77     		strb	r3, [r1, #31]
 548              	.LVL40:
 549              	.LBB52:
 550              	.LBB51:
 551              		.loc 1 92 0
 552 001c 0A77     		strb	r2, [r1, #28]
 553              	.LVL41:
 554 001e 0346     		mov	r3, r0
 555 0020 00E0     		b	.L42
 556              	.LVL42:
 557              	.L43:
 558 0022 1B68     		ldr	r3, [r3, #0]
 559              	.LVL43:
 560              	.L42:
 561              		.loc 1 96 0
 562 0024 9A68     		ldr	r2, [r3, #8]
 563 0026 A242     		cmp	r2, r4
 564 0028 FBD2     		bcs	.L43
 565              		.loc 1 99 0
 566 002a 5A68     		ldr	r2, [r3, #4]
ARM GAS  C:\Users\DNIEL~1\AppData\Local\Temp\cctRj7Vu.s 			page 11


 567              		.loc 1 98 0
 568 002c 0B60     		str	r3, [r1, #0]
 569              		.loc 1 99 0
 570 002e 4A60     		str	r2, [r1, #4]
 571              		.loc 1 100 0
 572 0030 1160     		str	r1, [r2, #0]
 573 0032 5960     		str	r1, [r3, #4]
 574              	.LBE51:
 575              	.LBE52:
 576              		.loc 1 316 0
 577 0034 30BC     		pop	{r4, r5}
 578              		.loc 1 315 0
 579 0036 FFF7FEBF 		b	_port_switch
 580              	.LVL44:
 581              	.L45:
 582 003a 00BF     		.align	2
 583              	.L44:
 584 003c 00000000 		.word	.LANCHOR0
 585              		.cfi_endproc
 586              	.LFE14:
 587              		.size	chSchDoRescheduleBehind, .-chSchDoRescheduleBehind
 588              		.section	.text.chSchDoRescheduleAhead,"ax",%progbits
 589              		.align	2
 590              		.p2align 4,,15
 591              		.global	chSchDoRescheduleAhead
 592              		.thumb
 593              		.thumb_func
 594              		.type	chSchDoRescheduleAhead, %function
 595              	chSchDoRescheduleAhead:
 596              	.LFB15:
 597              		.loc 1 329 0
 598              		.cfi_startproc
 599              		@ args = 0, pretend = 0, frame = 0
 600              		@ frame_needed = 0, uses_anonymous_args = 0
 601              		@ link register save eliminated.
 602              		.loc 1 332 0
 603 0000 0D4B     		ldr	r3, .L50
 604              	.LBB53:
 605              	.LBB54:
 606              		.loc 2 60 0
 607 0002 1868     		ldr	r0, [r3, #0]
 608              	.LBE54:
 609              	.LBE53:
 610              		.loc 1 332 0
 611 0004 9969     		ldr	r1, [r3, #24]
 612              	.LVL45:
 613              	.LBB57:
 614              	.LBB55:
 615              		.loc 2 62 0
 616 0006 0268     		ldr	r2, [r0, #0]
 617              	.LBE55:
 618              	.LBE57:
 619              		.loc 1 329 0
 620 0008 30B4     		push	{r4, r5}
 621              	.LCFI5:
 622              		.cfi_def_cfa_offset 8
 623              		.cfi_offset 4, -8
ARM GAS  C:\Users\DNIEL~1\AppData\Local\Temp\cctRj7Vu.s 			page 12


 624              		.cfi_offset 5, -4
 625              	.LBB58:
 626              	.LBB56:
 627              		.loc 2 62 0
 628 000a 5360     		str	r3, [r2, #4]
 629 000c 8C68     		ldr	r4, [r1, #8]
 630 000e 1A60     		str	r2, [r3, #0]
 631              	.LBE56:
 632              	.LBE58:
 633              		.loc 1 335 0
 634 0010 0125     		movs	r5, #1
 635              		.loc 1 334 0
 636 0012 9861     		str	r0, [r3, #24]
 637              		.loc 1 337 0
 638 0014 0023     		movs	r3, #0
 639              		.loc 1 335 0
 640 0016 0577     		strb	r5, [r0, #28]
 641              		.loc 1 337 0
 642 0018 0B77     		strb	r3, [r1, #28]
 643              	.LVL46:
 644 001a 0346     		mov	r3, r0
 645 001c 00E0     		b	.L48
 646              	.LVL47:
 647              	.L49:
 648 001e 1B68     		ldr	r3, [r3, #0]
 649              	.LVL48:
 650              	.L48:
 651              		.loc 1 341 0 discriminator 1
 652 0020 9A68     		ldr	r2, [r3, #8]
 653 0022 A242     		cmp	r2, r4
 654 0024 FBD8     		bhi	.L49
 655              		.loc 1 344 0
 656 0026 5A68     		ldr	r2, [r3, #4]
 657              		.loc 1 343 0
 658 0028 0B60     		str	r3, [r1, #0]
 659              		.loc 1 344 0
 660 002a 4A60     		str	r2, [r1, #4]
 661              		.loc 1 345 0
 662 002c 1160     		str	r1, [r2, #0]
 663 002e 5960     		str	r1, [r3, #4]
 664              		.loc 1 348 0
 665 0030 30BC     		pop	{r4, r5}
 666              		.loc 1 347 0
 667 0032 FFF7FEBF 		b	_port_switch
 668              	.LVL49:
 669              	.L51:
 670 0036 00BF     		.align	2
 671              	.L50:
 672 0038 00000000 		.word	.LANCHOR0
 673              		.cfi_endproc
 674              	.LFE15:
 675              		.size	chSchDoRescheduleAhead, .-chSchDoRescheduleAhead
 676 003c AFF30080 		.section	.text.chSchRescheduleS,"ax",%progbits
 677              		.align	2
 678              		.p2align 4,,15
 679              		.global	chSchRescheduleS
 680              		.thumb
ARM GAS  C:\Users\DNIEL~1\AppData\Local\Temp\cctRj7Vu.s 			page 13


 681              		.thumb_func
 682              		.type	chSchRescheduleS, %function
 683              	chSchRescheduleS:
 684              	.LFB13:
 685              		.loc 1 253 0
 686              		.cfi_startproc
 687              		@ args = 0, pretend = 0, frame = 0
 688              		@ frame_needed = 0, uses_anonymous_args = 0
 689              		@ link register save eliminated.
 690              		.loc 1 257 0
 691 0000 044B     		ldr	r3, .L55
 692 0002 1A68     		ldr	r2, [r3, #0]
 693 0004 9869     		ldr	r0, [r3, #24]
 694 0006 9168     		ldr	r1, [r2, #8]
 695 0008 8368     		ldr	r3, [r0, #8]
 696 000a 9942     		cmp	r1, r3
 697 000c 00D8     		bhi	.L54
 698 000e 7047     		bx	lr
 699              	.L54:
 700              		.loc 1 259 0
 701              		.loc 1 258 0
 702 0010 FFF7FEBF 		b	chSchDoRescheduleAhead
 703              	.LVL50:
 704              	.L56:
 705              		.align	2
 706              	.L55:
 707 0014 00000000 		.word	.LANCHOR0
 708              		.cfi_endproc
 709              	.LFE13:
 710              		.size	chSchRescheduleS, .-chSchRescheduleS
 711 0018 AFF30080 		.section	.text.chSchDoReschedule,"ax",%progbits
 711      AFF30080 
 712              		.align	2
 713              		.p2align 4,,15
 714              		.global	chSchDoReschedule
 715              		.thumb
 716              		.thumb_func
 717              		.type	chSchDoReschedule, %function
 718              	chSchDoReschedule:
 719              	.LFB16:
 720              		.loc 1 362 0
 721              		.cfi_startproc
 722              		@ args = 0, pretend = 0, frame = 0
 723              		@ frame_needed = 0, uses_anonymous_args = 0
 724              		@ link register save eliminated.
 725              		.loc 1 367 0
 726 0000 034B     		ldr	r3, .L60
 727 0002 9869     		ldr	r0, [r3, #24]
 728 0004 C17F     		ldrb	r1, [r0, #31]	@ zero_extendqisi2
 729 0006 09B1     		cbz	r1, .L59
 730              		.loc 1 382 0
 731              		.loc 1 375 0
 732 0008 FFF7FEBF 		b	chSchDoRescheduleAhead
 733              	.LVL51:
 734              	.L59:
 735              		.loc 1 382 0
 736              		.loc 1 370 0
ARM GAS  C:\Users\DNIEL~1\AppData\Local\Temp\cctRj7Vu.s 			page 14


 737 000c FFF7FEBF 		b	chSchDoRescheduleBehind
 738              	.LVL52:
 739              	.L61:
 740              		.align	2
 741              	.L60:
 742 0010 00000000 		.word	.LANCHOR0
 743              		.cfi_endproc
 744              	.LFE16:
 745              		.size	chSchDoReschedule, .-chSchDoReschedule
 746              		.global	rlist
 747 0014 AFF30080 		.section	.bss.rlist,"aw",%nobits
 747      AFF30080 
 747      AFF30080 
 748              		.align	2
 749              		.set	.LANCHOR0,. + 0
 750              		.type	rlist, %object
 751              		.size	rlist, 28
 752              	rlist:
 753 0000 00000000 		.space	28
 753      00000000 
 753      00000000 
 753      00000000 
 753      00000000 
 754              		.text
 755              	.Letext0:
 756              		.file 3 "c:\\chibistudio\\tools\\gnu tools arm embedded\\4.7 2014q2\\bin\\../lib/gcc/arm-none-eabi
 757              		.file 4 "../../../ChibiOS/os/ports/GCC/ARMCMx/chtypes.h"
 758              		.file 5 "../../../ChibiOS/os/kernel/include/chlists.h"
 759              		.file 6 "../../../ChibiOS/os/kernel/include/chthreads.h"
 760              		.file 7 "../../../ChibiOS/os/ports/GCC/ARMCMx/chcore_v7m.h"
 761              		.file 8 "../../../ChibiOS/os/kernel/include/chvt.h"
 762              		.file 9 "../../../ChibiOS/os/kernel/include/chschd.h"
 763              		.file 10 "../../../ChibiOS/os/kernel/include/chsem.h"
 764              		.file 11 "../../../ChibiOS/os/kernel/include/chmtx.h"