ARM GAS  C:\Users\DNIEL~1\AppData\Local\Temp\cc7apOwI.s 			page 1


   1              		.syntax unified
   2              		.cpu cortex-m4
   3              		.fpu softvfp
   4              		.eabi_attribute 20, 1
   5              		.eabi_attribute 21, 1
   6              		.eabi_attribute 23, 3
   7              		.eabi_attribute 24, 1
   8              		.eabi_attribute 25, 1
   9              		.eabi_attribute 26, 1
  10              		.eabi_attribute 30, 2
  11              		.eabi_attribute 18, 4
  12              		.thumb
  13              		.file	"chthreads.c"
  20 0000 92030000 		.text
  20      0200E501 
  20      00000201 
  20      FB0E0D00 
  20      01010101 
  21              	.Ltext0:
  22              		.cfi_sections	.debug_frame
  23              		.section	.text._thread_init,"ax",%progbits
  24              		.align	2
  25              		.p2align 4,,15
  26              		.global	_thread_init
  27              		.thumb
  28              		.thumb_func
  29              		.type	_thread_init, %function
  30              	_thread_init:
  31              	.LFB7:
  32              		.file 1 "../../../ChibiOS/os/kernel/src/chthreads.c"
  33              		.loc 1 69 0
  34              		.cfi_startproc
  35              		@ args = 0, pretend = 0, frame = 0
  36              		@ frame_needed = 0, uses_anonymous_args = 0
  37              		@ link register save eliminated.
  38              	.LVL0:
  39 0000 F0B4     		push	{r4, r5, r6, r7}
  40              	.LCFI0:
  41              		.cfi_def_cfa_offset 16
  42              		.loc 1 73 0
  43 0002 0022     		movs	r2, #0
  44              		.loc 1 92 0
  45 0004 0D4C     		ldr	r4, .L2
  46              		.cfi_offset 7, -4
  47              		.cfi_offset 6, -8
  48              		.cfi_offset 5, -12
  49              		.cfi_offset 4, -16
  50              		.loc 1 73 0
  51 0006 4277     		strb	r2, [r0, #29]
  52              		.loc 1 72 0
  53 0008 0226     		movs	r6, #2
ARM GAS  C:\Users\DNIEL~1\AppData\Local\Temp\cc7apOwI.s 			page 2


  54              		.loc 1 88 0
  55 000a 0125     		movs	r5, #1
  56              		.loc 1 75 0
  57 000c 1423     		movs	r3, #20
  58              		.loc 1 72 0
  59 000e 0677     		strb	r6, [r0, #28]
  60              		.loc 1 75 0
  61 0010 C377     		strb	r3, [r0, #31]
  62              		.loc 1 88 0
  63 0012 8577     		strb	r5, [r0, #30]
  64              		.loc 1 92 0
  65 0014 6569     		ldr	r5, [r4, #20]
  66              		.loc 1 78 0
  67 0016 0164     		str	r1, [r0, #64]
  68              		.loc 1 98 0
  69 0018 00F12C06 		add	r6, r0, #44
  70              		.loc 1 95 0
  71 001c 00F12807 		add	r7, r0, #40
  72              		.loc 1 92 0
  73 0020 0461     		str	r4, [r0, #16]
  74              		.loc 1 71 0
  75 0022 8160     		str	r1, [r0, #8]
  76              		.loc 1 92 0
  77 0024 4561     		str	r5, [r0, #20]
  78              		.loc 1 79 0
  79 0026 C263     		str	r2, [r0, #60]
  80              		.loc 1 92 0
  81 0028 6061     		str	r0, [r4, #20]
  82              		.loc 1 82 0
  83 002a 8263     		str	r2, [r0, #56]
  84              		.loc 1 85 0
  85 002c 0262     		str	r2, [r0, #32]
  86              		.loc 1 91 0
  87 002e 8261     		str	r2, [r0, #24]
  88              		.loc 1 92 0
  89 0030 2861     		str	r0, [r5, #16]
  90              		.loc 1 95 0
  91 0032 8762     		str	r7, [r0, #40]
  92              		.loc 1 98 0
  93 0034 0663     		str	r6, [r0, #48]
  94 0036 C662     		str	r6, [r0, #44]
  95              		.loc 1 107 0
  96 0038 F0BC     		pop	{r4, r5, r6, r7}
  97 003a 7047     		bx	lr
  98              	.L3:
  99              		.align	2
 100              	.L2:
 101 003c 00000000 		.word	rlist
 102              		.cfi_endproc
 103              	.LFE7:
 104              		.size	_thread_init, .-_thread_init
 105              		.section	.text.chThdCreateI,"ax",%progbits
 106              		.align	2
 107              		.p2align 4,,15
 108              		.global	chThdCreateI
 109              		.thumb
 110              		.thumb_func
ARM GAS  C:\Users\DNIEL~1\AppData\Local\Temp\cc7apOwI.s 			page 3


 111              		.type	chThdCreateI, %function
 112              	chThdCreateI:
 113              	.LFB8:
 114              		.loc 1 151 0
 115              		.cfi_startproc
 116              		@ args = 4, pretend = 0, frame = 0
 117              		@ frame_needed = 0, uses_anonymous_args = 0
 118              		@ link register save eliminated.
 119              	.LVL1:
 120              		.loc 1 160 0
 121 0000 2439     		subs	r1, r1, #36
 122              	.LVL2:
 123              		.loc 1 151 0
 124 0002 F0B4     		push	{r4, r5, r6, r7}
 125              	.LCFI1:
 126              		.cfi_def_cfa_offset 16
 127              		.loc 1 160 0
 128 0004 4718     		adds	r7, r0, r1
 129              		.cfi_offset 7, -4
 130              		.cfi_offset 6, -8
 131              		.cfi_offset 5, -12
 132              		.cfi_offset 4, -16
 133 0006 C760     		str	r7, [r0, #12]
 134 0008 4350     		str	r3, [r0, r1]
 135 000a 049B     		ldr	r3, [sp, #16]
 136              	.LVL3:
 137 000c 0F49     		ldr	r1, .L5
 138              	.LVL4:
 139 000e 7B60     		str	r3, [r7, #4]
 140 0010 3962     		str	r1, [r7, #32]
 141              	.LVL5:
 142              	.LBB10:
 143              	.LBB11:
 144              		.loc 1 73 0
 145 0012 0025     		movs	r5, #0
 146              		.loc 1 92 0
 147 0014 0E4E     		ldr	r6, .L5+4
 148              		.loc 1 73 0
 149 0016 4577     		strb	r5, [r0, #29]
 150              		.loc 1 72 0
 151 0018 0223     		movs	r3, #2
 152              		.loc 1 75 0
 153 001a 1421     		movs	r1, #20
 154              		.loc 1 88 0
 155 001c 0127     		movs	r7, #1
 156              	.LVL6:
 157              		.loc 1 75 0
 158 001e C177     		strb	r1, [r0, #31]
 159              		.loc 1 88 0
 160 0020 8777     		strb	r7, [r0, #30]
 161              		.loc 1 72 0
 162 0022 0377     		strb	r3, [r0, #28]
 163              		.loc 1 92 0
 164 0024 7369     		ldr	r3, [r6, #20]
 165              		.loc 1 78 0
 166 0026 0264     		str	r2, [r0, #64]
 167              		.loc 1 98 0
ARM GAS  C:\Users\DNIEL~1\AppData\Local\Temp\cc7apOwI.s 			page 4


 168 0028 00F12C01 		add	r1, r0, #44
 169              		.loc 1 95 0
 170 002c 00F12807 		add	r7, r0, #40
 171              		.loc 1 92 0
 172 0030 0661     		str	r6, [r0, #16]
 173              	.LVL7:
 174              		.loc 1 71 0
 175 0032 8260     		str	r2, [r0, #8]
 176              		.loc 1 92 0
 177 0034 4361     		str	r3, [r0, #20]
 178              		.loc 1 79 0
 179 0036 C563     		str	r5, [r0, #60]
 180              		.loc 1 92 0
 181 0038 7061     		str	r0, [r6, #20]
 182              		.loc 1 82 0
 183 003a 8563     		str	r5, [r0, #56]
 184              		.loc 1 85 0
 185 003c 0562     		str	r5, [r0, #32]
 186              		.loc 1 91 0
 187 003e 8561     		str	r5, [r0, #24]
 188              		.loc 1 92 0
 189 0040 1861     		str	r0, [r3, #16]
 190              		.loc 1 95 0
 191 0042 8762     		str	r7, [r0, #40]
 192              		.loc 1 98 0
 193 0044 0163     		str	r1, [r0, #48]
 194 0046 C162     		str	r1, [r0, #44]
 195              	.LBE11:
 196              	.LBE10:
 197              		.loc 1 162 0
 198 0048 F0BC     		pop	{r4, r5, r6, r7}
 199 004a 7047     		bx	lr
 200              	.L6:
 201              		.align	2
 202              	.L5:
 203 004c 00000000 		.word	_port_thread_start
 204 0050 00000000 		.word	rlist
 205              		.cfi_endproc
 206              	.LFE8:
 207              		.size	chThdCreateI, .-chThdCreateI
 208 0054 AFF30080 		.section	.text.chThdCreateStatic,"ax",%progbits
 208      AFF30080 
 208      AFF30080 
 209              		.align	2
 210              		.p2align 4,,15
 211              		.global	chThdCreateStatic
 212              		.thumb
 213              		.thumb_func
 214              		.type	chThdCreateStatic, %function
 215              	chThdCreateStatic:
 216              	.LFB9:
 217              		.loc 1 181 0
 218              		.cfi_startproc
 219              		@ args = 4, pretend = 0, frame = 0
 220              		@ frame_needed = 0, uses_anonymous_args = 0
 221              	.LVL8:
 222 0000 10B5     		push	{r4, lr}
ARM GAS  C:\Users\DNIEL~1\AppData\Local\Temp\cc7apOwI.s 			page 5


 223              	.LCFI2:
 224              		.cfi_def_cfa_offset 8
 225 0002 9C46     		mov	ip, r3
 226 0004 82B0     		sub	sp, sp, #8
 227              	.LCFI3:
 228              		.cfi_def_cfa_offset 16
 229              	.LBB12:
 230              		.loc 1 192 0
 231 0006 2023     		movs	r3, #32
 232              	.LVL9:
 233              	@ 192 "../../../ChibiOS/os/kernel/src/chthreads.c" 1
 234 0008 83F31188 		msr     BASEPRI, r3
 235              	@ 0 "" 2
 236              	.LVL10:
 237              		.thumb
 238              	.LBE12:
 239              		.loc 1 193 0
 240 000c 049C     		ldr	r4, [sp, #16]
 241              		.cfi_offset 14, -4
 242              		.cfi_offset 4, -8
 243 000e 6346     		mov	r3, ip
 244              	.LVL11:
 245 0010 0094     		str	r4, [sp, #0]
 246 0012 FFF7FEFF 		bl	chThdCreateI
 247              	.LVL12:
 248 0016 0021     		movs	r1, #0
 249 0018 0446     		mov	r4, r0
 250              	.LVL13:
 251 001a FFF7FEFF 		bl	chSchWakeupS
 252              	.LVL14:
 253              	.LBB13:
 254              		.loc 1 194 0
 255 001e 0023     		movs	r3, #0
 256              	.LVL15:
 257              	@ 194 "../../../ChibiOS/os/kernel/src/chthreads.c" 1
 258 0020 83F31188 		msr     BASEPRI, r3
 259              	@ 0 "" 2
 260              	.LVL16:
 261              		.thumb
 262              	.LBE13:
 263              		.loc 1 196 0
 264 0024 2046     		mov	r0, r4
 265 0026 02B0     		add	sp, sp, #8
 266 0028 10BD     		pop	{r4, pc}
 267              		.cfi_endproc
 268              	.LFE9:
 269              		.size	chThdCreateStatic, .-chThdCreateStatic
 270 002a 00BFAFF3 		.section	.text.chThdSetPriority,"ax",%progbits
 270      0080
 271              		.align	2
 272              		.p2align 4,,15
 273              		.global	chThdSetPriority
 274              		.thumb
 275              		.thumb_func
 276              		.type	chThdSetPriority, %function
 277              	chThdSetPriority:
 278              	.LFB10:
ARM GAS  C:\Users\DNIEL~1\AppData\Local\Temp\cc7apOwI.s 			page 6


 279              		.loc 1 210 0
 280              		.cfi_startproc
 281              		@ args = 0, pretend = 0, frame = 0
 282              		@ frame_needed = 0, uses_anonymous_args = 0
 283              	.LVL17:
 284 0000 10B5     		push	{r4, lr}
 285              	.LCFI4:
 286              		.cfi_def_cfa_offset 8
 287              	.LBB14:
 288              		.loc 1 215 0
 289 0002 2023     		movs	r3, #32
 290              	.LVL18:
 291              	@ 215 "../../../ChibiOS/os/kernel/src/chthreads.c" 1
 292 0004 83F31188 		msr     BASEPRI, r3
 293              	@ 0 "" 2
 294              	.LVL19:
 295              		.thumb
 296              	.LBE14:
 297              		.loc 1 217 0
 298 0008 084B     		ldr	r3, .L12
 299              	.LVL20:
 300 000a 9B69     		ldr	r3, [r3, #24]
 301 000c 1C6C     		ldr	r4, [r3, #64]
 302              		.cfi_offset 14, -4
 303              		.cfi_offset 4, -8
 304              	.LVL21:
 305              		.loc 1 218 0
 306 000e 9A68     		ldr	r2, [r3, #8]
 307 0010 9442     		cmp	r4, r2
 308 0012 01D0     		beq	.L9
 309              		.loc 1 218 0 is_stmt 0 discriminator 1
 310 0014 8242     		cmp	r2, r0
 311 0016 00D2     		bcs	.L10
 312              	.L9:
 313              		.loc 1 219 0 is_stmt 1
 314 0018 9860     		str	r0, [r3, #8]
 315              	.L10:
 316              		.loc 1 220 0
 317 001a 1864     		str	r0, [r3, #64]
 318              		.loc 1 225 0
 319 001c FFF7FEFF 		bl	chSchRescheduleS
 320              	.LVL22:
 321              	.LBB15:
 322              		.loc 1 226 0
 323 0020 0023     		movs	r3, #0
 324              	.LVL23:
 325              	@ 226 "../../../ChibiOS/os/kernel/src/chthreads.c" 1
 326 0022 83F31188 		msr     BASEPRI, r3
 327              	@ 0 "" 2
 328              	.LVL24:
 329              		.thumb
 330              	.LBE15:
 331              		.loc 1 228 0
 332 0026 2046     		mov	r0, r4
 333 0028 10BD     		pop	{r4, pc}
 334              	.L13:
 335 002a 00BF     		.align	2
ARM GAS  C:\Users\DNIEL~1\AppData\Local\Temp\cc7apOwI.s 			page 7


 336              	.L12:
 337 002c 00000000 		.word	rlist
 338              		.cfi_endproc
 339              	.LFE10:
 340              		.size	chThdSetPriority, .-chThdSetPriority
 341              		.section	.text.chThdResume,"ax",%progbits
 342              		.align	2
 343              		.p2align 4,,15
 344              		.global	chThdResume
 345              		.thumb
 346              		.thumb_func
 347              		.type	chThdResume, %function
 348              	chThdResume:
 349              	.LFB11:
 350              		.loc 1 243 0
 351              		.cfi_startproc
 352              		@ args = 0, pretend = 0, frame = 0
 353              		@ frame_needed = 0, uses_anonymous_args = 0
 354              	.LVL25:
 355 0000 10B5     		push	{r4, lr}
 356              	.LCFI5:
 357              		.cfi_def_cfa_offset 8
 358              	.LBB16:
 359              		.loc 1 245 0
 360 0002 2023     		movs	r3, #32
 361              	.LVL26:
 362              	.LBE16:
 363              		.loc 1 243 0
 364 0004 0446     		mov	r4, r0
 365              		.cfi_offset 14, -4
 366              		.cfi_offset 4, -8
 367              	.LBB17:
 368              		.loc 1 245 0
 369              	@ 245 "../../../ChibiOS/os/kernel/src/chthreads.c" 1
 370 0006 83F31188 		msr     BASEPRI, r3
 371              	@ 0 "" 2
 372              	.LVL27:
 373              		.thumb
 374              	.LBE17:
 375              		.loc 1 249 0
 376 000a 0021     		movs	r1, #0
 377 000c FFF7FEFF 		bl	chSchWakeupS
 378              	.LVL28:
 379              	.LBB18:
 380              		.loc 1 250 0
 381 0010 0023     		movs	r3, #0
 382              	.LVL29:
 383              	@ 250 "../../../ChibiOS/os/kernel/src/chthreads.c" 1
 384 0012 83F31188 		msr     BASEPRI, r3
 385              	@ 0 "" 2
 386              	.LVL30:
 387              		.thumb
 388              	.LBE18:
 389              		.loc 1 252 0
 390 0016 2046     		mov	r0, r4
 391 0018 10BD     		pop	{r4, pc}
 392              		.cfi_endproc
ARM GAS  C:\Users\DNIEL~1\AppData\Local\Temp\cc7apOwI.s 			page 8


 393              	.LFE11:
 394              		.size	chThdResume, .-chThdResume
 395 001a 00BFAFF3 		.section	.text.chThdTerminate,"ax",%progbits
 395      0080
 396              		.align	2
 397              		.p2align 4,,15
 398              		.global	chThdTerminate
 399              		.thumb
 400              		.thumb_func
 401              		.type	chThdTerminate, %function
 402              	chThdTerminate:
 403              	.LFB12:
 404              		.loc 1 266 0
 405              		.cfi_startproc
 406              		@ args = 0, pretend = 0, frame = 0
 407              		@ frame_needed = 0, uses_anonymous_args = 0
 408              		@ link register save eliminated.
 409              	.LVL31:
 410              	.LBB19:
 411              		.loc 1 268 0
 412 0000 2023     		movs	r3, #32
 413              	.LVL32:
 414              	@ 268 "../../../ChibiOS/os/kernel/src/chthreads.c" 1
 415 0002 83F31188 		msr     BASEPRI, r3
 416              	@ 0 "" 2
 417              	.LVL33:
 418              		.thumb
 419              	.LBE19:
 420              		.loc 1 269 0
 421 0006 417F     		ldrb	r1, [r0, #29]	@ zero_extendqisi2
 422 0008 41F00403 		orr	r3, r1, #4
 423              	.LVL34:
 424 000c 4377     		strb	r3, [r0, #29]
 425              	.LBB20:
 426              		.loc 1 270 0
 427 000e 0023     		movs	r3, #0
 428              	.LVL35:
 429              	@ 270 "../../../ChibiOS/os/kernel/src/chthreads.c" 1
 430 0010 83F31188 		msr     BASEPRI, r3
 431              	@ 0 "" 2
 432              	.LVL36:
 433              		.thumb
 434              	.LBE20:
 435              		.loc 1 271 0
 436 0014 7047     		bx	lr
 437              		.cfi_endproc
 438              	.LFE12:
 439              		.size	chThdTerminate, .-chThdTerminate
 440 0016 00BFAFF3 		.section	.text.chThdSleep,"ax",%progbits
 440      0080AFF3 
 440      0080
 441              		.align	2
 442              		.p2align 4,,15
 443              		.global	chThdSleep
 444              		.thumb
 445              		.thumb_func
 446              		.type	chThdSleep, %function
ARM GAS  C:\Users\DNIEL~1\AppData\Local\Temp\cc7apOwI.s 			page 9


 447              	chThdSleep:
 448              	.LFB13:
 449              		.loc 1 285 0
 450              		.cfi_startproc
 451              		@ args = 0, pretend = 0, frame = 0
 452              		@ frame_needed = 0, uses_anonymous_args = 0
 453              	.LVL37:
 454 0000 08B5     		push	{r3, lr}
 455              	.LCFI6:
 456              		.cfi_def_cfa_offset 8
 457              		.loc 1 285 0
 458 0002 0146     		mov	r1, r0
 459              	.LBB21:
 460              		.loc 1 289 0
 461 0004 2023     		movs	r3, #32
 462              		.cfi_offset 14, -4
 463              		.cfi_offset 3, -8
 464              	.LVL38:
 465              	@ 289 "../../../ChibiOS/os/kernel/src/chthreads.c" 1
 466 0006 83F31188 		msr     BASEPRI, r3
 467              	@ 0 "" 2
 468              	.LVL39:
 469              		.thumb
 470              	.LBE21:
 471              		.loc 1 290 0
 472 000a 0620     		movs	r0, #6
 473              	.LVL40:
 474 000c FFF7FEFF 		bl	chSchGoSleepTimeoutS
 475              	.LVL41:
 476              	.LBB22:
 477              		.loc 1 291 0
 478 0010 0023     		movs	r3, #0
 479              	.LVL42:
 480              	@ 291 "../../../ChibiOS/os/kernel/src/chthreads.c" 1
 481 0012 83F31188 		msr     BASEPRI, r3
 482              	@ 0 "" 2
 483              	.LVL43:
 484              		.thumb
 485              	.LBE22:
 486              		.loc 1 292 0
 487 0016 08BD     		pop	{r3, pc}
 488              		.cfi_endproc
 489              	.LFE13:
 490              		.size	chThdSleep, .-chThdSleep
 491 0018 AFF30080 		.section	.text.chThdSleepUntil,"ax",%progbits
 491      AFF30080 
 492              		.align	2
 493              		.p2align 4,,15
 494              		.global	chThdSleepUntil
 495              		.thumb
 496              		.thumb_func
 497              		.type	chThdSleepUntil, %function
 498              	chThdSleepUntil:
 499              	.LFB14:
 500              		.loc 1 302 0
 501              		.cfi_startproc
 502              		@ args = 0, pretend = 0, frame = 0
ARM GAS  C:\Users\DNIEL~1\AppData\Local\Temp\cc7apOwI.s 			page 10


 503              		@ frame_needed = 0, uses_anonymous_args = 0
 504              	.LVL44:
 505 0000 08B5     		push	{r3, lr}
 506              	.LCFI7:
 507              		.cfi_def_cfa_offset 8
 508              	.LBB23:
 509              		.loc 1 304 0
 510 0002 2023     		movs	r3, #32
 511              		.cfi_offset 14, -4
 512              		.cfi_offset 3, -8
 513              	.LVL45:
 514              	@ 304 "../../../ChibiOS/os/kernel/src/chthreads.c" 1
 515 0004 83F31188 		msr     BASEPRI, r3
 516              	@ 0 "" 2
 517              	.LVL46:
 518              		.thumb
 519              	.LBE23:
 520              		.loc 1 305 0
 521 0008 054B     		ldr	r3, .L19
 522              	.LVL47:
 523 000a D968     		ldr	r1, [r3, #12]
 524              	.LVL48:
 525 000c 411A     		subs	r1, r0, r1
 526              	.LVL49:
 527 000e 02D0     		beq	.L18
 528              		.loc 1 306 0
 529 0010 0620     		movs	r0, #6
 530 0012 FFF7FEFF 		bl	chSchGoSleepTimeoutS
 531              	.LVL50:
 532              	.L18:
 533              	.LBB24:
 534              		.loc 1 307 0
 535 0016 0023     		movs	r3, #0
 536              	.LVL51:
 537              	@ 307 "../../../ChibiOS/os/kernel/src/chthreads.c" 1
 538 0018 83F31188 		msr     BASEPRI, r3
 539              	@ 0 "" 2
 540              	.LVL52:
 541              		.thumb
 542              	.LBE24:
 543              		.loc 1 308 0
 544 001c 08BD     		pop	{r3, pc}
 545              	.L20:
 546 001e 00BF     		.align	2
 547              	.L19:
 548 0020 00000000 		.word	vtlist
 549              		.cfi_endproc
 550              	.LFE14:
 551              		.size	chThdSleepUntil, .-chThdSleepUntil
 552 0024 AFF30080 		.section	.text.chThdYield,"ax",%progbits
 552      AFF30080 
 552      AFF30080 
 553              		.align	2
 554              		.p2align 4,,15
 555              		.global	chThdYield
 556              		.thumb
 557              		.thumb_func
ARM GAS  C:\Users\DNIEL~1\AppData\Local\Temp\cc7apOwI.s 			page 11


 558              		.type	chThdYield, %function
 559              	chThdYield:
 560              	.LFB15:
 561              		.loc 1 317 0
 562              		.cfi_startproc
 563              		@ args = 0, pretend = 0, frame = 0
 564              		@ frame_needed = 0, uses_anonymous_args = 0
 565 0000 08B5     		push	{r3, lr}
 566              	.LCFI8:
 567              		.cfi_def_cfa_offset 8
 568              	.LBB25:
 569              		.loc 1 319 0
 570 0002 2023     		movs	r3, #32
 571              		.cfi_offset 14, -4
 572              		.cfi_offset 3, -8
 573              	.LVL53:
 574              	@ 319 "../../../ChibiOS/os/kernel/src/chthreads.c" 1
 575 0004 83F31188 		msr     BASEPRI, r3
 576              	@ 0 "" 2
 577              	.LVL54:
 578              		.thumb
 579              	.LBE25:
 580              		.loc 1 320 0
 581 0008 064A     		ldr	r2, .L23
 582 000a 9069     		ldr	r0, [r2, #24]
 583 000c 1168     		ldr	r1, [r2, #0]
 584 000e 8368     		ldr	r3, [r0, #8]
 585              	.LVL55:
 586 0010 8A68     		ldr	r2, [r1, #8]
 587 0012 9A42     		cmp	r2, r3
 588 0014 01D3     		bcc	.L22
 589              		.loc 1 320 0 is_stmt 0 discriminator 1
 590 0016 FFF7FEFF 		bl	chSchDoRescheduleBehind
 591              	.L22:
 592              	.LBB26:
 593              		.loc 1 321 0 is_stmt 1
 594 001a 0023     		movs	r3, #0
 595              	.LVL56:
 596              	@ 321 "../../../ChibiOS/os/kernel/src/chthreads.c" 1
 597 001c 83F31188 		msr     BASEPRI, r3
 598              	@ 0 "" 2
 599              	.LVL57:
 600              		.thumb
 601              	.LBE26:
 602              		.loc 1 322 0
 603 0020 08BD     		pop	{r3, pc}
 604              	.L24:
 605 0022 00BF     		.align	2
 606              	.L23:
 607 0024 00000000 		.word	rlist
 608              		.cfi_endproc
 609              	.LFE15:
 610              		.size	chThdYield, .-chThdYield
 611 0028 AFF30080 		.section	.text.chThdExitS,"ax",%progbits
 611      AFF30080 
 612              		.align	2
 613              		.p2align 4,,15
ARM GAS  C:\Users\DNIEL~1\AppData\Local\Temp\cc7apOwI.s 			page 12


 614              		.global	chThdExitS
 615              		.thumb
 616              		.thumb_func
 617              		.type	chThdExitS, %function
 618              	chThdExitS:
 619              	.LFB17:
 620              		.loc 1 359 0
 621              		.cfi_startproc
 622              		@ args = 0, pretend = 0, frame = 0
 623              		@ frame_needed = 0, uses_anonymous_args = 0
 624              	.LVL58:
 625              		.loc 1 360 0
 626 0000 0E4B     		ldr	r3, .L31
 627              		.loc 1 359 0
 628 0002 70B5     		push	{r4, r5, r6, lr}
 629              	.LCFI9:
 630              		.cfi_def_cfa_offset 16
 631              		.loc 1 360 0
 632 0004 9C69     		ldr	r4, [r3, #24]
 633              		.cfi_offset 14, -4
 634              		.cfi_offset 6, -8
 635              		.cfi_offset 5, -12
 636              		.cfi_offset 4, -16
 637              	.LVL59:
 638              		.loc 1 367 0
 639 0006 2546     		mov	r5, r4
 640              		.loc 1 362 0
 641 0008 6062     		str	r0, [r4, #36]
 642              		.loc 1 367 0
 643 000a 55F8280F 		ldr	r0, [r5, #40]!
 644              	.LVL60:
 645 000e A842     		cmp	r0, r5
 646 0010 06D0     		beq	.L26
 647              	.LVL61:
 648              	.L29:
 649              	.LBB27:
 650              	.LBB28:
 651              		.file 2 "../../../ChibiOS/os/kernel/include/chinline.h"
 652              		.loc 2 82 0
 653 0012 0168     		ldr	r1, [r0, #0]
 654 0014 A162     		str	r1, [r4, #40]
 655              	.LBE28:
 656              	.LBE27:
 657              		.loc 1 368 0
 658 0016 FFF7FEFF 		bl	chSchReadyI
 659              	.LVL62:
 660              		.loc 1 367 0
 661 001a A06A     		ldr	r0, [r4, #40]
 662 001c A842     		cmp	r0, r5
 663 001e F8D1     		bne	.L29
 664              	.LVL63:
 665              	.L26:
 666              		.loc 1 373 0
 667 0020 607F     		ldrb	r0, [r4, #29]	@ zero_extendqisi2
 668 0022 10F0030F 		tst	r0, #3
 669 0026 04D1     		bne	.L28
 670              		.loc 1 374 0
ARM GAS  C:\Users\DNIEL~1\AppData\Local\Temp\cc7apOwI.s 			page 13


 671 0028 6369     		ldr	r3, [r4, #20]
 672 002a 2169     		ldr	r1, [r4, #16]
 673 002c 1961     		str	r1, [r3, #16]
 674 002e 2269     		ldr	r2, [r4, #16]
 675 0030 5361     		str	r3, [r2, #20]
 676              	.L28:
 677              		.loc 1 376 0
 678 0032 0E20     		movs	r0, #14
 679              		.loc 1 379 0
 680 0034 BDE87040 		pop	{r4, r5, r6, lr}
 681              		.loc 1 376 0
 682 0038 FFF7FEBF 		b	chSchGoSleepS
 683              	.L32:
 684              		.align	2
 685              	.L31:
 686 003c 00000000 		.word	rlist
 687              		.cfi_endproc
 688              	.LFE17:
 689              		.size	chThdExitS, .-chThdExitS
 690              		.section	.text.chThdExit,"ax",%progbits
 691              		.align	2
 692              		.p2align 4,,15
 693              		.global	chThdExit
 694              		.thumb
 695              		.thumb_func
 696              		.type	chThdExit, %function
 697              	chThdExit:
 698              	.LFB16:
 699              		.loc 1 338 0
 700              		.cfi_startproc
 701              		@ args = 0, pretend = 0, frame = 0
 702              		@ frame_needed = 0, uses_anonymous_args = 0
 703              		@ link register save eliminated.
 704              	.LVL64:
 705              	.LBB29:
 706              		.loc 1 340 0
 707 0000 2023     		movs	r3, #32
 708              	.LVL65:
 709              	@ 340 "../../../ChibiOS/os/kernel/src/chthreads.c" 1
 710 0002 83F31188 		msr     BASEPRI, r3
 711              	@ 0 "" 2
 712              	.LVL66:
 713              		.thumb
 714              	.LBE29:
 715              		.loc 1 343 0
 716              		.loc 1 341 0
 717 0006 FFF7FEBF 		b	chThdExitS
 718              		.cfi_endproc
 719              	.LFE16:
 720              		.size	chThdExit, .-chThdExit
 721 000a 00BFAFF3 		.section	.text.chThdWait,"ax",%progbits
 721      0080
 722              		.align	2
 723              		.p2align 4,,15
 724              		.global	chThdWait
 725              		.thumb
 726              		.thumb_func
ARM GAS  C:\Users\DNIEL~1\AppData\Local\Temp\cc7apOwI.s 			page 14


 727              		.type	chThdWait, %function
 728              	chThdWait:
 729              	.LFB18:
 730              		.loc 1 413 0
 731              		.cfi_startproc
 732              		@ args = 0, pretend = 0, frame = 0
 733              		@ frame_needed = 0, uses_anonymous_args = 0
 734              	.LVL67:
 735 0000 38B5     		push	{r3, r4, r5, lr}
 736              	.LCFI10:
 737              		.cfi_def_cfa_offset 16
 738              		.loc 1 413 0
 739 0002 0446     		mov	r4, r0
 740              		.cfi_offset 14, -4
 741              		.cfi_offset 5, -8
 742              		.cfi_offset 4, -12
 743              		.cfi_offset 3, -16
 744              	.LBB30:
 745              		.loc 1 418 0
 746 0004 2023     		movs	r3, #32
 747              	.LVL68:
 748              	@ 418 "../../../ChibiOS/os/kernel/src/chthreads.c" 1
 749 0006 83F31188 		msr     BASEPRI, r3
 750              	@ 0 "" 2
 751              	.LVL69:
 752              		.thumb
 753              	.LBE30:
 754              		.loc 1 423 0
 755 000a 037F     		ldrb	r3, [r0, #28]	@ zero_extendqisi2
 756              	.LVL70:
 757 000c 0E2B     		cmp	r3, #14
 758 000e 07D0     		beq	.L35
 759              	.LBB31:
 760              	.LBB32:
 761              		.loc 2 75 0
 762 0010 826A     		ldr	r2, [r0, #40]
 763              	.LBE32:
 764              	.LBE31:
 765              		.loc 1 424 0
 766 0012 0848     		ldr	r0, .L36
 767              	.LVL71:
 768 0014 8169     		ldr	r1, [r0, #24]
 769              	.LVL72:
 770              		.loc 1 425 0
 771 0016 0720     		movs	r0, #7
 772              	.LVL73:
 773              	.LBB34:
 774              	.LBB33:
 775              		.loc 2 75 0
 776 0018 0A60     		str	r2, [r1, #0]
 777              		.loc 2 76 0
 778 001a A162     		str	r1, [r4, #40]
 779              	.LBE33:
 780              	.LBE34:
 781              		.loc 1 425 0
 782 001c FFF7FEFF 		bl	chSchGoSleepS
 783              	.LVL74:
ARM GAS  C:\Users\DNIEL~1\AppData\Local\Temp\cc7apOwI.s 			page 15


 784              	.L35:
 785              		.loc 1 427 0
 786 0020 656A     		ldr	r5, [r4, #36]
 787              	.LVL75:
 788              	.LBB35:
 789              		.loc 1 428 0
 790 0022 0023     		movs	r3, #0
 791              	.LVL76:
 792              	@ 428 "../../../ChibiOS/os/kernel/src/chthreads.c" 1
 793 0024 83F31188 		msr     BASEPRI, r3
 794              	@ 0 "" 2
 795              	.LVL77:
 796              		.thumb
 797              	.LBE35:
 798              		.loc 1 430 0
 799 0028 2046     		mov	r0, r4
 800 002a FFF7FEFF 		bl	chThdRelease
 801              	.LVL78:
 802              		.loc 1 433 0
 803 002e 2846     		mov	r0, r5
 804 0030 38BD     		pop	{r3, r4, r5, pc}
 805              	.L37:
 806 0032 00BF     		.align	2
 807              	.L36:
 808 0034 00000000 		.word	rlist
 809              		.cfi_endproc
 810              	.LFE18:
 811              		.size	chThdWait, .-chThdWait
 812 0038 AFF30080 		.text
 812      AFF30080 
 813              	.Letext0: