ARM GAS  C:\Users\DNIEL~1\AppData\Local\Temp\ccjxNbGp.s 			page 1


   1              		.syntax unified
   2              		.cpu cortex-m4
   3              		.fpu softvfp
   4              		.eabi_attribute 20, 1
   5              		.eabi_attribute 21, 1
   6              		.eabi_attribute 23, 3
   7              		.eabi_attribute 24, 1
   8              		.eabi_attribute 25, 1
   9              		.eabi_attribute 26, 1
  10              		.eabi_attribute 30, 2
  11              		.eabi_attribute 18, 4
  12              		.thumb
  13              		.file	"console.c"
  20 0000 6B050000 		.text
  20      0200CF03 
  20      00000201 
  20      FB0E0D00 
  20      01010101 
  21              	.Ltext0:
  22              		.cfi_sections	.debug_frame
  23              		.section	.text.cmd_alarm,"ax",%progbits
  24              		.align	2
  25              		.p2align 4,,15
  26              		.global	cmd_alarm
  27              		.thumb
  28              		.thumb_func
  29              		.type	cmd_alarm, %function
  30              	cmd_alarm:
  31              	.LFB129:
  32              		.file 1 "src/console.c"
  33              		.loc 1 241 0
  34              		.cfi_startproc
  35              		@ args = 0, pretend = 0, frame = 0
  36              		@ frame_needed = 0, uses_anonymous_args = 0
  37              	.LVL0:
  38              		.loc 1 245 0
  39 0000 0029     		cmp	r1, #0
  40              		.loc 1 241 0
  41 0002 70B5     		push	{r4, r5, r6, lr}
  42              	.LCFI0:
  43              		.cfi_def_cfa_offset 16
  44              		.loc 1 241 0
  45 0004 0446     		mov	r4, r0
  46              		.cfi_offset 14, -4
  47              		.cfi_offset 6, -8
  48              		.cfi_offset 5, -12
  49              		.cfi_offset 4, -16
  50 0006 1546     		mov	r5, r2
  51              		.loc 1 245 0
  52 0008 03DD     		ble	.L2
  53              		.loc 1 249 0
ARM GAS  C:\Users\DNIEL~1\AppData\Local\Temp\ccjxNbGp.s 			page 2


  54 000a 0129     		cmp	r1, #1
  55 000c 34D0     		beq	.L5
  56              		.loc 1 255 0
  57 000e 0229     		cmp	r1, #2
  58 0010 0DD0     		beq	.L6
  59              	.LVL1:
  60              	.L2:
  61              		.loc 1 267 0
  62 0012 2046     		mov	r0, r4
  63 0014 2249     		ldr	r1, .L7
  64 0016 FFF7FEFF 		bl	chprintf
  65              		.loc 1 268 0
  66 001a 2046     		mov	r0, r4
  67 001c 2149     		ldr	r1, .L7+4
  68 001e FFF7FEFF 		bl	chprintf
  69              		.loc 1 269 0
  70 0022 2149     		ldr	r1, .L7+8
  71 0024 2046     		mov	r0, r4
  72              		.loc 1 270 0
  73 0026 BDE87040 		pop	{r4, r5, r6, lr}
  74              		.loc 1 269 0
  75 002a FFF7FEBF 		b	chprintf
  76              	.LVL2:
  77              	.L6:
  78              		.loc 1 255 0 discriminator 1
  79 002e 1068     		ldr	r0, [r2, #0]
  80 0030 1E49     		ldr	r1, .L7+12
  81              	.LVL3:
  82 0032 FFF7FEFF 		bl	strcmp
  83 0036 0646     		mov	r6, r0
  84 0038 0028     		cmp	r0, #0
  85 003a EAD1     		bne	.L2
  86              		.loc 1 256 0
  87 003c 6868     		ldr	r0, [r5, #4]
  88              		.loc 1 257 0
  89 003e 1C4C     		ldr	r4, .L7+16
  90              	.LVL4:
  91              		.loc 1 256 0
  92 0040 FFF7FEFF 		bl	atol
  93              		.loc 1 257 0
  94 0044 1B49     		ldr	r1, .L7+20
  95              		.loc 1 258 0
  96 0046 1C4B     		ldr	r3, .L7+24
  97              		.loc 1 256 0
  98 0048 0246     		mov	r2, r0
  99              	.LVL5:
 100              		.loc 1 257 0
 101 004a 81FB0215 		smull	r1, r5, r1, r2
 102              	.LVL6:
 103 004e D117     		asrs	r1, r2, #31
 104 0050 C1EBA50C 		rsb	ip, r1, r5, asr #2
 105 0054 0CEB8C05 		add	r5, ip, ip, lsl #2
 106 0058 0CF07001 		and	r1, ip, #112
 107 005c A2EB450C 		sub	ip, r2, r5, lsl #1
 108 0060 41EA0C02 		orr	r2, r1, ip
 109              		.loc 1 259 0
 110 0064 1548     		ldr	r0, .L7+28
ARM GAS  C:\Users\DNIEL~1\AppData\Local\Temp\ccjxNbGp.s 			page 3


 111              	.LVL7:
 112              		.loc 1 258 0
 113 0066 42EA0303 		orr	r3, r2, r3
 114              		.loc 1 259 0
 115 006a 3146     		mov	r1, r6
 116 006c 2246     		mov	r2, r4
 117              		.loc 1 257 0
 118 006e 2360     		str	r3, [r4, #0]
 119              		.loc 1 270 0
 120 0070 BDE87040 		pop	{r4, r5, r6, lr}
 121              		.loc 1 259 0
 122 0074 FFF7FEBF 		b	rtcSetAlarm
 123              	.LVL8:
 124              	.L5:
 125              		.loc 1 249 0 discriminator 1
 126 0078 1149     		ldr	r1, .L7+32
 127              	.LVL9:
 128 007a 1068     		ldr	r0, [r2, #0]
 129              	.LVL10:
 130 007c FFF7FEFF 		bl	strcmp
 131              	.LVL11:
 132 0080 0146     		mov	r1, r0
 133 0082 0028     		cmp	r0, #0
 134 0084 C5D1     		bne	.L2
 135              		.loc 1 250 0
 136 0086 0A4D     		ldr	r5, .L7+16
 137              	.LVL12:
 138 0088 0C48     		ldr	r0, .L7+28
 139 008a 2A46     		mov	r2, r5
 140 008c FFF7FEFF 		bl	rtcGetAlarm
 141              		.loc 1 251 0
 142 0090 0C49     		ldr	r1, .L7+36
 143 0092 2A68     		ldr	r2, [r5, #0]
 144 0094 0C4B     		ldr	r3, .L7+40
 145 0096 2046     		mov	r0, r4
 146              		.loc 1 270 0
 147 0098 BDE87040 		pop	{r4, r5, r6, lr}
 148              		.loc 1 251 0
 149 009c FFF7FEBF 		b	chprintf
 150              	.L8:
 151              		.align	2
 152              	.L7:
 153 00a0 34000000 		.word	.LC4
 154 00a4 48000000 		.word	.LC5
 155 00a8 60000000 		.word	.LC6
 156 00ac 30000000 		.word	.LC3
 157 00b0 00000000 		.word	.LANCHOR0
 158 00b4 67666666 		.word	1717986919
 159 00b8 00808080 		.word	-2139062272
 160 00bc 00000000 		.word	RTCD1
 161 00c0 00000000 		.word	.LC0
 162 00c4 04000000 		.word	.LC1
 163 00c8 0C000000 		.word	.LC2
 164              		.cfi_endproc
 165              	.LFE129:
 166              		.size	cmd_alarm, .-cmd_alarm
 167 00cc AFF30080 		.section	.text.cmd_date,"ax",%progbits
ARM GAS  C:\Users\DNIEL~1\AppData\Local\Temp\ccjxNbGp.s 			page 4


 168              		.align	2
 169              		.p2align 4,,15
 170              		.global	cmd_date
 171              		.thumb
 172              		.thumb_func
 173              		.type	cmd_date, %function
 174              	cmd_date:
 175              	.LFB126:
 176              		.loc 1 167 0
 177              		.cfi_startproc
 178              		@ args = 0, pretend = 0, frame = 56
 179              		@ frame_needed = 0, uses_anonymous_args = 0
 180              	.LVL13:
 181 0000 10B5     		push	{r4, lr}
 182              	.LCFI1:
 183              		.cfi_def_cfa_offset 8
 184 0002 0446     		mov	r4, r0
 185              		.cfi_offset 14, -4
 186              		.cfi_offset 4, -8
 187 0004 8EB0     		sub	sp, sp, #56
 188              	.LCFI2:
 189              		.cfi_def_cfa_offset 64
 190              		.loc 1 171 0
 191 0006 19B1     		cbz	r1, .L10
 192              		.loc 1 175 0
 193 0008 0129     		cmp	r1, #1
 194 000a 2CD0     		beq	.L14
 195              		.loc 1 189 0
 196 000c 0229     		cmp	r1, #2
 197 000e 16D0     		beq	.L15
 198              	.LVL14:
 199              	.L10:
 200              		.loc 1 204 0
 201 0010 2849     		ldr	r1, .L17
 202 0012 2046     		mov	r0, r4
 203 0014 FFF7FEFF 		bl	chprintf
 204              		.loc 1 205 0
 205 0018 2046     		mov	r0, r4
 206 001a 2749     		ldr	r1, .L17+4
 207 001c FFF7FEFF 		bl	chprintf
 208              		.loc 1 206 0
 209 0020 2046     		mov	r0, r4
 210 0022 2649     		ldr	r1, .L17+8
 211 0024 FFF7FEFF 		bl	chprintf
 212              		.loc 1 207 0
 213 0028 2046     		mov	r0, r4
 214 002a 2549     		ldr	r1, .L17+12
 215 002c FFF7FEFF 		bl	chprintf
 216              		.loc 1 208 0
 217 0030 2046     		mov	r0, r4
 218 0032 2449     		ldr	r1, .L17+16
 219 0034 244A     		ldr	r2, .L17+20
 220 0036 FFF7FEFF 		bl	chprintf
 221              	.L9:
 222              		.loc 1 210 0
 223 003a 0EB0     		add	sp, sp, #56
 224 003c 10BD     		pop	{r4, pc}
ARM GAS  C:\Users\DNIEL~1\AppData\Local\Temp\ccjxNbGp.s 			page 5


 225              	.LVL15:
 226              	.L15:
 227              		.loc 1 189 0 discriminator 1
 228 003e 1068     		ldr	r0, [r2, #0]
 229 0040 2249     		ldr	r1, .L17+24
 230              	.LVL16:
 231 0042 0192     		str	r2, [sp, #4]
 232 0044 FFF7FEFF 		bl	strcmp
 233              	.LVL17:
 234 0048 019A     		ldr	r2, [sp, #4]
 235              	.LVL18:
 236 004a 0028     		cmp	r0, #0
 237 004c E0D1     		bne	.L10
 238              		.loc 1 190 0
 239 004e 5068     		ldr	r0, [r2, #4]
 240 0050 FFF7FEFF 		bl	atol
 241              	.LVL19:
 242 0054 1E4A     		ldr	r2, .L17+28
 243              		.loc 1 191 0
 244 0056 0028     		cmp	r0, #0
 245              		.loc 1 190 0
 246 0058 0146     		mov	r1, r0
 247 005a 1060     		str	r0, [r2, #0]
 248              		.loc 1 191 0
 249 005c D8DD     		ble	.L10
 250              		.loc 1 192 0
 251 005e 1D48     		ldr	r0, .L17+32
 252 0060 FFF7FEFF 		bl	rtcSetTimeUnixSec
 253              		.loc 1 193 0
 254 0064 E9E7     		b	.L9
 255              	.LVL20:
 256              	.L14:
 257              		.loc 1 175 0 discriminator 1
 258 0066 1068     		ldr	r0, [r2, #0]
 259 0068 1B49     		ldr	r1, .L17+36
 260              	.LVL21:
 261 006a FFF7FEFF 		bl	strcmp
 262              	.LVL22:
 263 006e 0028     		cmp	r0, #0
 264 0070 CED1     		bne	.L10
 265              		.loc 1 176 0
 266 0072 1848     		ldr	r0, .L17+32
 267 0074 FFF7FEFF 		bl	rtcGetTimeUnixSec
 268 0078 154B     		ldr	r3, .L17+28
 269              		.loc 1 178 0
 270 007a B0F1FF3F 		cmp	r0, #-1
 271              		.loc 1 176 0
 272 007e 1860     		str	r0, [r3, #0]
 273              		.loc 1 178 0
 274 0080 13D0     		beq	.L16
 275              		.loc 1 182 0
 276 0082 0246     		mov	r2, r0
 277 0084 154B     		ldr	r3, .L17+40
 278 0086 1649     		ldr	r1, .L17+44
 279 0088 2046     		mov	r0, r4
 280 008a FFF7FEFF 		bl	chprintf
 281              		.loc 1 183 0
ARM GAS  C:\Users\DNIEL~1\AppData\Local\Temp\ccjxNbGp.s 			page 6


 282 008e 03A9     		add	r1, sp, #12
 283 0090 1048     		ldr	r0, .L17+32
 284 0092 FFF7FEFF 		bl	rtcGetTimeTm
 285              		.loc 1 184 0
 286 0096 03A8     		add	r0, sp, #12
 287 0098 FFF7FEFF 		bl	asctime
 288 009c 1149     		ldr	r1, .L17+48
 289 009e 124B     		ldr	r3, .L17+52
 290 00a0 0246     		mov	r2, r0
 291 00a2 2046     		mov	r0, r4
 292 00a4 FFF7FEFF 		bl	chprintf
 293 00a8 C7E7     		b	.L9
 294              	.L16:
 295              		.loc 1 179 0
 296 00aa 2046     		mov	r0, r4
 297 00ac 0F49     		ldr	r1, .L17+56
 298 00ae FFF7FEFF 		bl	chprintf
 299 00b2 C2E7     		b	.L9
 300              	.L18:
 301              		.align	2
 302              	.L17:
 303 00b4 D8000000 		.word	.LC11
 304 00b8 EC000000 		.word	.LC12
 305 00bc 00010000 		.word	.LC13
 306 00c0 30010000 		.word	.LC14
 307 00c4 70010000 		.word	.LC15
 308 00c8 74010000 		.word	.LC16
 309 00cc 30000000 		.word	.LC3
 310 00d0 00000000 		.word	.LANCHOR1
 311 00d4 00000000 		.word	RTCD1
 312 00d8 00000000 		.word	.LC0
 313 00dc A4000000 		.word	.LC8
 314 00e0 04000000 		.word	.LC1
 315 00e4 B4000000 		.word	.LC9
 316 00e8 BC000000 		.word	.LC10
 317 00ec 84000000 		.word	.LC7
 318              		.cfi_endproc
 319              	.LFE126:
 320              		.size	cmd_date, .-cmd_date
 321              		.section	.text.cmd_test,"ax",%progbits
 322              		.align	2
 323              		.p2align 4,,15
 324              		.global	cmd_test
 325              		.thumb
 326              		.thumb_func
 327              		.type	cmd_test, %function
 328              	cmd_test:
 329              	.LFB125:
 330              		.loc 1 147 0
 331              		.cfi_startproc
 332              		@ args = 0, pretend = 0, frame = 0
 333              		@ frame_needed = 0, uses_anonymous_args = 0
 334              	.LVL23:
 335 0000 10B5     		push	{r4, lr}
 336              	.LCFI3:
 337              		.cfi_def_cfa_offset 8
 338              		.loc 1 151 0
ARM GAS  C:\Users\DNIEL~1\AppData\Local\Temp\ccjxNbGp.s 			page 7


 339 0002 0029     		cmp	r1, #0
 340              		.loc 1 147 0
 341 0004 82B0     		sub	sp, sp, #8
 342              	.LCFI4:
 343              		.cfi_def_cfa_offset 16
 344              		.loc 1 147 0
 345 0006 0446     		mov	r4, r0
 346              		.cfi_offset 14, -4
 347              		.cfi_offset 4, -8
 348              		.loc 1 151 0
 349 0008 05DD     		ble	.L20
 350              		.loc 1 152 0
 351 000a 0E49     		ldr	r1, .L23
 352              	.LVL24:
 353              		.loc 1 162 0
 354 000c 02B0     		add	sp, sp, #8
 355 000e BDE81040 		pop	{r4, lr}
 356              		.loc 1 152 0
 357 0012 FFF7FEBF 		b	chprintf
 358              	.LVL25:
 359              	.L20:
 360              		.loc 1 155 0
 361 0016 0C49     		ldr	r1, .L23+4
 362              	.LVL26:
 363 0018 0C4B     		ldr	r3, .L23+8
 364 001a 8A69     		ldr	r2, [r1, #24]
 365              	.LVL27:
 366 001c 4FF4D871 		mov	r1, #432
 367 0020 9268     		ldr	r2, [r2, #8]
 368 0022 0090     		str	r0, [sp, #0]
 369 0024 0020     		movs	r0, #0
 370 0026 FFF7FEFF 		bl	chThdCreateFromHeap
 371              	.LVL28:
 372              		.loc 1 157 0
 373 002a 20B1     		cbz	r0, .L22
 374              		.loc 1 162 0
 375 002c 02B0     		add	sp, sp, #8
 376 002e BDE81040 		pop	{r4, lr}
 377              		.loc 1 161 0
 378 0032 FFF7FEBF 		b	chThdWait
 379              	.LVL29:
 380              	.L22:
 381              		.loc 1 158 0
 382 0036 0649     		ldr	r1, .L23+12
 383 0038 2046     		mov	r0, r4
 384              	.LVL30:
 385              		.loc 1 162 0
 386 003a 02B0     		add	sp, sp, #8
 387 003c BDE81040 		pop	{r4, lr}
 388              		.loc 1 158 0
 389 0040 FFF7FEBF 		b	chprintf
 390              	.L24:
 391              		.align	2
 392              	.L23:
 393 0044 80010000 		.word	.LC17
 394 0048 00000000 		.word	rlist
 395 004c 00000000 		.word	TestThread
ARM GAS  C:\Users\DNIEL~1\AppData\Local\Temp\ccjxNbGp.s 			page 8


 396 0050 90010000 		.word	.LC18
 397              		.cfi_endproc
 398              	.LFE125:
 399              		.size	cmd_test, .-cmd_test
 400 0054 AFF30080 		.section	.text.cmd_threads,"ax",%progbits
 400      AFF30080 
 400      AFF30080 
 401              		.align	2
 402              		.p2align 4,,15
 403              		.global	cmd_threads
 404              		.thumb
 405              		.thumb_func
 406              		.type	cmd_threads, %function
 407              	cmd_threads:
 408              	.LFB124:
 409              		.loc 1 127 0
 410              		.cfi_startproc
 411              		@ args = 0, pretend = 0, frame = 0
 412              		@ frame_needed = 0, uses_anonymous_args = 0
 413              	.LVL31:
 414 0000 F0B5     		push	{r4, r5, r6, r7, lr}
 415              	.LCFI5:
 416              		.cfi_def_cfa_offset 20
 417              		.loc 1 132 0
 418 0002 0029     		cmp	r1, #0
 419              		.loc 1 127 0
 420 0004 85B0     		sub	sp, sp, #20
 421              	.LCFI6:
 422              		.cfi_def_cfa_offset 40
 423              		.loc 1 127 0
 424 0006 0546     		mov	r5, r0
 425              		.cfi_offset 14, -4
 426              		.cfi_offset 7, -8
 427              		.cfi_offset 6, -12
 428              		.cfi_offset 5, -16
 429              		.cfi_offset 4, -20
 430              		.loc 1 132 0
 431 0008 05DD     		ble	.L26
 432              		.loc 1 133 0
 433 000a 1349     		ldr	r1, .L29
 434              	.LVL32:
 435              		.loc 1 145 0
 436 000c 05B0     		add	sp, sp, #20
 437 000e BDE8F040 		pop	{r4, r5, r6, r7, lr}
 438              		.loc 1 133 0
 439 0012 FFF7FEBF 		b	chprintf
 440              	.LVL33:
 441              	.L26:
 442              		.loc 1 136 0
 443 0016 1149     		ldr	r1, .L29+4
 444              	.LVL34:
 445 0018 114E     		ldr	r6, .L29+8
 446 001a FFF7FEFF 		bl	chprintf
 447              	.LVL35:
 448              		.loc 1 137 0
 449 001e FFF7FEFF 		bl	chRegFirstThread
 450 0022 0446     		mov	r4, r0
ARM GAS  C:\Users\DNIEL~1\AppData\Local\Temp\ccjxNbGp.s 			page 9


 451              	.LVL36:
 452              	.L27:
 453              		.loc 1 139 0 discriminator 1
 454 0024 A168     		ldr	r1, [r4, #8]
 455 0026 E368     		ldr	r3, [r4, #12]
 456 0028 206A     		ldr	r0, [r4, #32]
 457              	.LVL37:
 458 002a 0091     		str	r1, [sp, #0]
 459              		.loc 1 141 0 discriminator 1
 460 002c A27F     		ldrb	r2, [r4, #30]	@ zero_extendqisi2
 461              		.loc 1 139 0 discriminator 1
 462 002e 0D49     		ldr	r1, .L29+12
 463              		.loc 1 141 0 discriminator 1
 464 0030 571E     		subs	r7, r2, #1
 465              		.loc 1 139 0 discriminator 1
 466 0032 0197     		str	r7, [sp, #4]
 467 0034 227F     		ldrb	r2, [r4, #28]	@ zero_extendqisi2
 468 0036 0390     		str	r0, [sp, #12]
 469 0038 56F82270 		ldr	r7, [r6, r2, lsl #2]
 470 003c 2846     		mov	r0, r5
 471 003e 2246     		mov	r2, r4
 472 0040 0297     		str	r7, [sp, #8]
 473 0042 FFF7FEFF 		bl	chprintf
 474              		.loc 1 143 0 discriminator 1
 475 0046 2046     		mov	r0, r4
 476 0048 FFF7FEFF 		bl	chRegNextThread
 477              	.LVL38:
 478              		.loc 1 144 0 discriminator 1
 479 004c 0446     		mov	r4, r0
 480 004e 0028     		cmp	r0, #0
 481 0050 E8D1     		bne	.L27
 482              		.loc 1 145 0
 483 0052 05B0     		add	sp, sp, #20
 484 0054 F0BD     		pop	{r4, r5, r6, r7, pc}
 485              	.L30:
 486 0056 00BF     		.align	2
 487              	.L29:
 488 0058 A0010000 		.word	.LC19
 489 005c B4010000 		.word	.LC20
 490 0060 00000000 		.word	.LANCHOR2
 491 0064 E4010000 		.word	.LC21
 492              		.cfi_endproc
 493              	.LFE124:
 494              		.size	cmd_threads, .-cmd_threads
 495 0068 AFF30080 		.section	.text.cmd_mem,"ax",%progbits
 495      AFF30080 
 496              		.align	2
 497              		.p2align 4,,15
 498              		.global	cmd_mem
 499              		.thumb
 500              		.thumb_func
 501              		.type	cmd_mem, %function
 502              	cmd_mem:
 503              	.LFB123:
 504              		.loc 1 113 0
 505              		.cfi_startproc
 506              		@ args = 0, pretend = 0, frame = 8
ARM GAS  C:\Users\DNIEL~1\AppData\Local\Temp\ccjxNbGp.s 			page 10


 507              		@ frame_needed = 0, uses_anonymous_args = 0
 508              	.LVL39:
 509 0000 30B5     		push	{r4, r5, lr}
 510              	.LCFI7:
 511              		.cfi_def_cfa_offset 12
 512              		.loc 1 117 0
 513 0002 0029     		cmp	r1, #0
 514              		.loc 1 113 0
 515 0004 83B0     		sub	sp, sp, #12
 516              	.LCFI8:
 517              		.cfi_def_cfa_offset 24
 518              		.loc 1 113 0
 519 0006 0446     		mov	r4, r0
 520              		.cfi_offset 14, -4
 521              		.cfi_offset 5, -8
 522              		.cfi_offset 4, -12
 523              		.loc 1 117 0
 524 0008 04DD     		ble	.L32
 525              		.loc 1 118 0
 526 000a 0E49     		ldr	r1, .L34
 527              	.LVL40:
 528 000c FFF7FEFF 		bl	chprintf
 529              	.LVL41:
 530              	.L31:
 531              		.loc 1 125 0
 532 0010 03B0     		add	sp, sp, #12
 533 0012 30BD     		pop	{r4, r5, pc}
 534              	.LVL42:
 535              	.L32:
 536              		.loc 1 121 0
 537 0014 01A9     		add	r1, sp, #4
 538              	.LVL43:
 539 0016 0020     		movs	r0, #0
 540 0018 FFF7FEFF 		bl	chHeapStatus
 541              	.LVL44:
 542 001c 0546     		mov	r5, r0
 543              	.LVL45:
 544              		.loc 1 122 0
 545 001e FFF7FEFF 		bl	chCoreStatus
 546              	.LVL46:
 547 0022 0949     		ldr	r1, .L34+4
 548 0024 0246     		mov	r2, r0
 549 0026 2046     		mov	r0, r4
 550 0028 FFF7FEFF 		bl	chprintf
 551              		.loc 1 123 0
 552 002c 2046     		mov	r0, r4
 553 002e 2A46     		mov	r2, r5
 554 0030 0649     		ldr	r1, .L34+8
 555 0032 FFF7FEFF 		bl	chprintf
 556              		.loc 1 124 0
 557 0036 2046     		mov	r0, r4
 558 0038 0549     		ldr	r1, .L34+12
 559              	.LVL47:
 560 003a 019A     		ldr	r2, [sp, #4]
 561 003c FFF7FEFF 		bl	chprintf
 562 0040 E6E7     		b	.L31
 563              	.L35:
ARM GAS  C:\Users\DNIEL~1\AppData\Local\Temp\ccjxNbGp.s 			page 11


 564 0042 00BF     		.align	2
 565              	.L34:
 566 0044 04020000 		.word	.LC22
 567 0048 14020000 		.word	.LC23
 568 004c 34020000 		.word	.LC24
 569 0050 4C020000 		.word	.LC25
 570              		.cfi_endproc
 571              	.LFE123:
 572              		.size	cmd_mem, .-cmd_mem
 573 0054 AFF30080 		.section	.text._getpid,"ax",%progbits
 573      AFF30080 
 573      AFF30080 
 574              		.align	2
 575              		.p2align 4,,15
 576              		.global	_getpid
 577              		.thumb
 578              		.thumb_func
 579              		.type	_getpid, %function
 580              	_getpid:
 581              	.LFB118:
 582              		.loc 1 29 0
 583              		.cfi_startproc
 584              		@ args = 0, pretend = 0, frame = 0
 585              		@ frame_needed = 0, uses_anonymous_args = 0
 586              		@ link register save eliminated.
 587              		.loc 1 29 0
 588 0000 0120     		movs	r0, #1
 589 0002 7047     		bx	lr
 590              		.cfi_endproc
 591              	.LFE118:
 592              		.size	_getpid, .-_getpid
 593 0004 AFF30080 		.section	.text._exit,"ax",%progbits
 593      AFF30080 
 593      AFF30080 
 594              		.align	2
 595              		.p2align 4,,15
 596              		.global	_exit
 597              		.thumb
 598              		.thumb_func
 599              		.type	_exit, %function
 600              	_exit:
 601              	.LFB119:
 602              		.loc 1 31 0
 603              		.cfi_startproc
 604              		@ Volatile: function does not return.
 605              		@ args = 0, pretend = 0, frame = 0
 606              		@ frame_needed = 0, uses_anonymous_args = 0
 607              		@ link register save eliminated.
 608              	.LVL48:
 609              		.loc 1 31 0
 610 0000 7047     		bx	lr
 611              		.cfi_endproc
 612              	.LFE119:
 613              		.size	_exit, .-_exit
 614 0002 00BFAFF3 		.section	.text._kill,"ax",%progbits
 614      0080AFF3 
 614      0080AFF3 
ARM GAS  C:\Users\DNIEL~1\AppData\Local\Temp\ccjxNbGp.s 			page 12


 614      0080
 615              		.align	2
 616              		.p2align 4,,15
 617              		.global	_kill
 618              		.thumb
 619              		.thumb_func
 620              		.type	_kill, %function
 621              	_kill:
 622              	.LFB120:
 623              		.loc 1 36 0
 624              		.cfi_startproc
 625              		@ args = 0, pretend = 0, frame = 0
 626              		@ frame_needed = 0, uses_anonymous_args = 0
 627              		@ link register save eliminated.
 628              	.LVL49:
 629              		.loc 1 39 0
 630 0000 024B     		ldr	r3, .L39
 631 0002 1622     		movs	r2, #22
 632 0004 1A60     		str	r2, [r3, #0]
 633              		.loc 1 41 0
 634 0006 4FF0FF30 		mov	r0, #-1
 635              	.LVL50:
 636 000a 7047     		bx	lr
 637              	.L40:
 638              		.align	2
 639              	.L39:
 640 000c 00000000 		.word	errno
 641              		.cfi_endproc
 642              	.LFE120:
 643              		.size	_kill, .-_kill
 644              		.section	.text.consoleInit,"ax",%progbits
 645              		.align	2
 646              		.p2align 4,,15
 647              		.global	consoleInit
 648              		.thumb
 649              		.thumb_func
 650              		.type	consoleInit, %function
 651              	consoleInit:
 652              	.LFB121:
 653              		.loc 1 96 0
 654              		.cfi_startproc
 655              		@ args = 0, pretend = 0, frame = 0
 656              		@ frame_needed = 0, uses_anonymous_args = 0
 657 0000 08B5     		push	{r3, lr}
 658              	.LCFI9:
 659              		.cfi_def_cfa_offset 8
 660              		.loc 1 98 0
 661 0002 0548     		ldr	r0, .L42
 662 0004 0549     		ldr	r1, .L42+4
 663              		.cfi_offset 14, -4
 664              		.cfi_offset 3, -8
 665 0006 FFF7FEFF 		bl	sdStart
 666              		.loc 1 99 0
 667 000a FFF7FEFF 		bl	shellInit
 668              		.loc 1 100 0
 669 000e 044B     		ldr	r3, .L42+8
 670 0010 0022     		movs	r2, #0
ARM GAS  C:\Users\DNIEL~1\AppData\Local\Temp\ccjxNbGp.s 			page 13


 671 0012 1A60     		str	r2, [r3, #0]
 672              		.loc 1 101 0
 673 0014 08BD     		pop	{r3, pc}
 674              	.L43:
 675 0016 00BF     		.align	2
 676              	.L42:
 677 0018 00000000 		.word	SD1
 678 001c 00000000 		.word	.LANCHOR3
 679 0020 00000000 		.word	.LANCHOR4
 680              		.cfi_endproc
 681              	.LFE121:
 682              		.size	consoleInit, .-consoleInit
 683 0024 AFF30080 		.section	.text.consoleStart,"ax",%progbits
 683      AFF30080 
 683      AFF30080 
 684              		.align	2
 685              		.p2align 4,,15
 686              		.global	consoleStart
 687              		.thumb
 688              		.thumb_func
 689              		.type	consoleStart, %function
 690              	consoleStart:
 691              	.LFB122:
 692              		.loc 1 103 0
 693              		.cfi_startproc
 694              		@ args = 0, pretend = 0, frame = 0
 695              		@ frame_needed = 0, uses_anonymous_args = 0
 696 0000 10B5     		push	{r4, lr}
 697              	.LCFI10:
 698              		.cfi_def_cfa_offset 8
 699              		.loc 1 104 0
 700 0002 0A4C     		ldr	r4, .L49
 701              		.cfi_offset 14, -4
 702              		.cfi_offset 4, -8
 703 0004 2068     		ldr	r0, [r4, #0]
 704 0006 40B1     		cbz	r0, .L47
 705              		.loc 1 107 0
 706 0008 037F     		ldrb	r3, [r0, #28]	@ zero_extendqisi2
 707 000a 0E2B     		cmp	r3, #14
 708 000c 00D0     		beq	.L48
 709 000e 10BD     		pop	{r4, pc}
 710              	.L48:
 711              		.loc 1 108 0
 712 0010 FFF7FEFF 		bl	chThdRelease
 713              		.loc 1 109 0
 714 0014 0020     		movs	r0, #0
 715 0016 2060     		str	r0, [r4, #0]
 716 0018 10BD     		pop	{r4, pc}
 717              	.L47:
 718              		.loc 1 105 0
 719 001a 0548     		ldr	r0, .L49+4
 720 001c 4FF41B61 		mov	r1, #2480
 721 0020 4022     		movs	r2, #64
 722 0022 FFF7FEFF 		bl	shellCreate
 723 0026 2060     		str	r0, [r4, #0]
 724 0028 10BD     		pop	{r4, pc}
 725              	.L50:
ARM GAS  C:\Users\DNIEL~1\AppData\Local\Temp\ccjxNbGp.s 			page 14


 726 002a 00BF     		.align	2
 727              	.L49:
 728 002c 00000000 		.word	.LANCHOR4
 729 0030 00000000 		.word	.LANCHOR5
 730              		.cfi_endproc
 731              	.LFE122:
 732              		.size	consoleStart, .-consoleStart
 733 0034 AFF30080 		.section	.text.func_sleep,"ax",%progbits
 733      AFF30080 
 733      AFF30080 
 734              		.align	2
 735              		.p2align 4,,15
 736              		.global	func_sleep
 737              		.thumb
 738              		.thumb_func
 739              		.type	func_sleep, %function
 740              	func_sleep:
 741              	.LFB127:
 742              		.loc 1 215 0
 743              		.cfi_startproc
 744              		@ args = 0, pretend = 0, frame = 0
 745              		@ frame_needed = 0, uses_anonymous_args = 0
 746              		@ link register save eliminated.
 747              	.LBB5:
 748              		.loc 1 216 0
 749 0000 2023     		movs	r3, #32
 750              	.LVL51:
 751              	@ 216 "src/console.c" 1
 752 0002 83F31188 		msr     BASEPRI, r3
 753              	@ 0 "" 2
 754              	.LVL52:
 755              		.thumb
 756              	.LBE5:
 757              		.loc 1 217 0
 758 0006 0849     		ldr	r1, .L52
 759              		.loc 1 218 0
 760 0008 084A     		ldr	r2, .L52+4
 761              		.loc 1 217 0
 762 000a 0869     		ldr	r0, [r1, #16]
 763              		.loc 1 219 0
 764 000c 084B     		ldr	r3, .L52+8
 765              	.LVL53:
 766              		.loc 1 217 0
 767 000e 40F00400 		orr	r0, r0, #4
 768 0012 0861     		str	r0, [r1, #16]
 769              		.loc 1 218 0
 770 0014 1068     		ldr	r0, [r2, #0]
 771 0016 40F00F01 		orr	r1, r0, #15
 772 001a 1160     		str	r1, [r2, #0]
 773              		.loc 1 219 0
 774 001c D868     		ldr	r0, [r3, #12]
 775 001e 20F47C52 		bic	r2, r0, #16128
 776 0022 DA60     		str	r2, [r3, #12]
 777              	.LBB6:
 778              	.LBB7:
 779              		.file 2 "../../../ChibiOS/os/ports/common/ARMCMx/CMSIS/include/core_cmInstr.h"
 780              		.loc 2 299 0
ARM GAS  C:\Users\DNIEL~1\AppData\Local\Temp\ccjxNbGp.s 			page 15


 781              	@ 299 "../../../ChibiOS/os/ports/common/ARMCMx/CMSIS/include/core_cmInstr.h" 1
 782 0024 30BF     		wfi
 783              	@ 0 "" 2
 784              		.thumb
 785              	.LBE7:
 786              	.LBE6:
 787              		.loc 1 222 0
 788 0026 7047     		bx	lr
 789              	.L53:
 790              		.align	2
 791              	.L52:
 792 0028 00ED00E0 		.word	-536810240
 793 002c 00700040 		.word	1073770496
 794 0030 00280040 		.word	1073752064
 795              		.cfi_endproc
 796              	.LFE127:
 797              		.size	func_sleep, .-func_sleep
 798 0034 AFF30080 		.section	.text.cmd_sleep,"ax",%progbits
 798      AFF30080 
 798      AFF30080 
 799              		.align	2
 800              		.p2align 4,,15
 801              		.global	cmd_sleep
 802              		.thumb
 803              		.thumb_func
 804              		.type	cmd_sleep, %function
 805              	cmd_sleep:
 806              	.LFB128:
 807              		.loc 1 224 0
 808              		.cfi_startproc
 809              		@ args = 0, pretend = 0, frame = 0
 810              		@ frame_needed = 0, uses_anonymous_args = 0
 811              	.LVL54:
 812              		.loc 1 226 0
 813 0000 0029     		cmp	r1, #0
 814              		.loc 1 224 0
 815 0002 10B5     		push	{r4, lr}
 816              	.LCFI11:
 817              		.cfi_def_cfa_offset 8
 818              		.loc 1 226 0
 819 0004 04DD     		ble	.L55
 820              		.cfi_offset 14, -4
 821              		.cfi_offset 4, -8
 822              		.loc 1 227 0
 823 0006 0749     		ldr	r1, .L56
 824              	.LVL55:
 825              		.loc 1 236 0
 826 0008 BDE81040 		pop	{r4, lr}
 827              		.loc 1 227 0
 828 000c FFF7FEBF 		b	chprintf
 829              	.LVL56:
 830              	.L55:
 831              		.loc 1 230 0
 832 0010 0549     		ldr	r1, .L56+4
 833              	.LVL57:
 834 0012 FFF7FEFF 		bl	chprintf
 835              	.LVL58:
ARM GAS  C:\Users\DNIEL~1\AppData\Local\Temp\ccjxNbGp.s 			page 16


 836              		.loc 1 232 0
 837 0016 C820     		movs	r0, #200
 838 0018 FFF7FEFF 		bl	chThdSleep
 839              		.loc 1 236 0
 840 001c BDE81040 		pop	{r4, lr}
 841              		.loc 1 235 0
 842 0020 FFF7FEBF 		b	func_sleep
 843              	.L57:
 844              		.align	2
 845              	.L56:
 846 0024 6C020000 		.word	.LC26
 847 0028 7C020000 		.word	.LC27
 848              		.cfi_endproc
 849              	.LFE128:
 850              		.size	cmd_sleep, .-cmd_sleep
 851              		.global	consoleThread
 852 002c AFF30080 		.section	.rodata.commands,"a",%progbits
 853              		.align	2
 854              		.type	commands, %object
 855              		.size	commands, 160
 856              	commands:
 857 0000 14030000 		.word	.LC43
 858 0004 00000000 		.word	cmd_mem
 859 0008 18030000 		.word	.LC44
 860 000c 00000000 		.word	cmd_threads
 861 0010 20030000 		.word	.LC45
 862 0014 00000000 		.word	cmd_test
 863 0018 28030000 		.word	.LC46
 864 001c 00000000 		.word	cmd_date
 865 0020 30030000 		.word	.LC47
 866 0024 00000000 		.word	cmd_alarm
 867 0028 38030000 		.word	.LC48
 868 002c 00000000 		.word	cmd_sleep
 869 0030 40030000 		.word	.LC49
 870 0034 00000000 		.word	cmd_mountsd
 871 0038 48030000 		.word	.LC50
 872 003c 00000000 		.word	cmd_umountsd
 873 0040 54030000 		.word	.LC51
 874 0044 00000000 		.word	cmd_tree
 875 0048 5C030000 		.word	.LC52
 876 004c 00000000 		.word	cmd_cat
 877 0050 60030000 		.word	.LC53
 878 0054 00000000 		.word	cmd_sdiotest
 879 0058 6C030000 		.word	.LC54
 880 005c 00000000 		.word	cmd_can_commvalues
 881 0060 78030000 		.word	.LC55
 882 0064 00000000 		.word	cmd_canmppttest
 883 0068 84030000 		.word	.LC56
 884 006c 00000000 		.word	cmd_candata
 885 0070 8C030000 		.word	.LC57
 886 0074 00000000 		.word	cmd_lightvalues
 887 0078 98030000 		.word	.LC58
 888 007c 00000000 		.word	cmd_speedvalues
 889 0080 A4030000 		.word	.LC59
 890 0084 00000000 		.word	cmd_measvalues
 891 0088 B0030000 		.word	.LC60
 892 008c 00000000 		.word	cmd_cruisevalues
ARM GAS  C:\Users\DNIEL~1\AppData\Local\Temp\ccjxNbGp.s 			page 17


 893 0090 C0030000 		.word	.LC61
 894 0094 00000000 		.word	cmd_setcruisevalues
 895 0098 00000000 		.word	0
 896 009c 00000000 		.word	0
 897              		.section	.bss.unix_time,"aw",%nobits
 898              		.align	2
 899              		.set	.LANCHOR1,. + 0
 900              		.type	unix_time, %object
 901              		.size	unix_time, 4
 902              	unix_time:
 903 0000 00000000 		.space	4
 904              		.section	.bss.consoleThread,"aw",%nobits
 905              		.align	2
 906              		.set	.LANCHOR4,. + 0
 907              		.type	consoleThread, %object
 908              		.size	consoleThread, 4
 909              	consoleThread:
 910 0000 00000000 		.space	4
 911              		.section	.bss.alarmspec,"aw",%nobits
 912              		.align	2
 913              		.set	.LANCHOR0,. + 0
 914              		.type	alarmspec, %object
 915              		.size	alarmspec, 4
 916              	alarmspec:
 917 0000 00000000 		.space	4
 918              		.section	.rodata.str1.4,"aMS",%progbits,1
 919              		.align	2
 920              	.LC0:
 921 0000 67657400 		.ascii	"get\000"
 922              	.LC1:
 923 0004 25442573 		.ascii	"%D%s\000"
 923      00
 924 0009 000000   		.space	3
 925              	.LC2:
 926 000c 202D2061 		.ascii	" - alarm in STM internal format\015\012\000"
 926      6C61726D 
 926      20696E20 
 926      53544D20 
 926      696E7465 
 927 002e 0000     		.space	2
 928              	.LC3:
 929 0030 73657400 		.ascii	"set\000"
 930              	.LC4:
 931 0034 55736167 		.ascii	"Usage: alarm get\015\012\000"
 931      653A2061 
 931      6C61726D 
 931      20676574 
 931      0D0A00
 932 0047 00       		.space	1
 933              	.LC5:
 934 0048 20202020 		.ascii	"       alarm set N\015\012\000"
 934      20202061 
 934      6C61726D 
 934      20736574 
 934      204E0D0A 
 935 005d 000000   		.space	3
 936              	.LC6:
ARM GAS  C:\Users\DNIEL~1\AppData\Local\Temp\ccjxNbGp.s 			page 18


 937 0060 77686572 		.ascii	"where N is alarm time in seconds\015\012\000"
 937      65204E20 
 937      69732061 
 937      6C61726D 
 937      2074696D 
 938 0083 00       		.space	1
 939              	.LC7:
 940 0084 696E636F 		.ascii	"incorrect time in RTC cell\015\012\000"
 940      72726563 
 940      74207469 
 940      6D652069 
 940      6E205254 
 941 00a1 000000   		.space	3
 942              	.LC8:
 943 00a4 202D2075 		.ascii	" - unix time\015\012\000"
 943      6E697820 
 943      74696D65 
 943      0D0A00
 944 00b3 00       		.space	1
 945              	.LC9:
 946 00b4 25732573 		.ascii	"%s%s\000"
 946      00
 947 00b9 000000   		.space	3
 948              	.LC10:
 949 00bc 202D2066 		.ascii	" - formatted time string\015\012\000"
 949      6F726D61 
 949      74746564 
 949      2074696D 
 949      65207374 
 950 00d7 00       		.space	1
 951              	.LC11:
 952 00d8 55736167 		.ascii	"Usage: date get\015\012\000"
 952      653A2064 
 952      61746520 
 952      6765740D 
 952      0A00
 953 00ea 0000     		.space	2
 954              	.LC12:
 955 00ec 20202020 		.ascii	"       date set N\015\012\000"
 955      20202064 
 955      61746520 
 955      73657420 
 955      4E0D0A00 
 956              	.LC13:
 957 0100 77686572 		.ascii	"where N is time in seconds sins Unix epoch\015\012\000"
 957      65204E20 
 957      69732074 
 957      696D6520 
 957      696E2073 
 958 012d 000000   		.space	3
 959              	.LC14:
 960 0130 796F7520 		.ascii	"you can get current N value from unix console by th"
 960      63616E20 
 960      67657420 
 960      63757272 
 960      656E7420 
 961 0163 6520636F 		.ascii	"e command\015\012\000"
ARM GAS  C:\Users\DNIEL~1\AppData\Local\Temp\ccjxNbGp.s 			page 19


 961      6D6D616E 
 961      640D0A00 
 962 016f 00       		.space	1
 963              	.LC15:
 964 0170 257300   		.ascii	"%s\000"
 965 0173 00       		.space	1
 966              	.LC16:
 967 0174 64617465 		.ascii	"date +%s\015\012\000"
 967      202B2573 
 967      0D0A00
 968 017f 00       		.space	1
 969              	.LC17:
 970 0180 55736167 		.ascii	"Usage: test\015\012\000"
 970      653A2074 
 970      6573740D 
 970      0A00
 971 018e 0000     		.space	2
 972              	.LC18:
 973 0190 6F757420 		.ascii	"out of memory\015\012\000"
 973      6F66206D 
 973      656D6F72 
 973      790D0A00 
 974              	.LC19:
 975 01a0 55736167 		.ascii	"Usage: threads\015\012\000"
 975      653A2074 
 975      68726561 
 975      64730D0A 
 975      00
 976 01b1 000000   		.space	3
 977              	.LC20:
 978 01b4 20202020 		.ascii	"    addr    stack prio refs     state time\015\012\000"
 978      61646472 
 978      20202020 
 978      73746163 
 978      6B207072 
 979 01e1 000000   		.space	3
 980              	.LC21:
 981 01e4 252E386C 		.ascii	"%.8lx %.8lx %4lu %4lu %9s %lu\015\012\000"
 981      7820252E 
 981      386C7820 
 981      25346C75 
 981      2025346C 
 982              	.LC22:
 983 0204 55736167 		.ascii	"Usage: mem\015\012\000"
 983      653A206D 
 983      656D0D0A 
 983      00
 984 0211 000000   		.space	3
 985              	.LC23:
 986 0214 636F7265 		.ascii	"core free memory : %u bytes\015\012\000"
 986      20667265 
 986      65206D65 
 986      6D6F7279 
 986      203A2025 
 987 0232 0000     		.space	2
 988              	.LC24:
 989 0234 68656170 		.ascii	"heap fragments   : %u\015\012\000"
ARM GAS  C:\Users\DNIEL~1\AppData\Local\Temp\ccjxNbGp.s 			page 20


 989      20667261 
 989      676D656E 
 989      74732020 
 989      203A2025 
 990              	.LC25:
 991 024c 68656170 		.ascii	"heap free total  : %u bytes\015\012\000"
 991      20667265 
 991      6520746F 
 991      74616C20 
 991      203A2025 
 992 026a 0000     		.space	2
 993              	.LC26:
 994 026c 55736167 		.ascii	"Usage: sleep\015\012\000"
 994      653A2073 
 994      6C656570 
 994      0D0A00
 995 027b 00       		.space	1
 996              	.LC27:
 997 027c 476F696E 		.ascii	"Going to sleep.\015\012\000"
 997      6720746F 
 997      20736C65 
 997      65702E0D 
 997      0A00
 998 028e 0000     		.space	2
 999              	.LC28:
 1000 0290 52454144 		.ascii	"READY\000"
 1000      5900
 1001 0296 0000     		.space	2
 1002              	.LC29:
 1003 0298 43555252 		.ascii	"CURRENT\000"
 1003      454E5400 
 1004              	.LC30:
 1005 02a0 53555350 		.ascii	"SUSPENDED\000"
 1005      454E4445 
 1005      4400
 1006 02aa 0000     		.space	2
 1007              	.LC31:
 1008 02ac 57545345 		.ascii	"WTSEM\000"
 1008      4D00
 1009 02b2 0000     		.space	2
 1010              	.LC32:
 1011 02b4 57544D54 		.ascii	"WTMTX\000"
 1011      5800
 1012 02ba 0000     		.space	2
 1013              	.LC33:
 1014 02bc 5754434F 		.ascii	"WTCOND\000"
 1014      4E4400
 1015 02c3 00       		.space	1
 1016              	.LC34:
 1017 02c4 534C4545 		.ascii	"SLEEPING\000"
 1017      50494E47 
 1017      00
 1018 02cd 000000   		.space	3
 1019              	.LC35:
 1020 02d0 57544558 		.ascii	"WTEXIT\000"
 1020      495400
 1021 02d7 00       		.space	1
ARM GAS  C:\Users\DNIEL~1\AppData\Local\Temp\ccjxNbGp.s 			page 21


 1022              	.LC36:
 1023 02d8 57544F52 		.ascii	"WTOREVT\000"
 1023      45565400 
 1024              	.LC37:
 1025 02e0 5754414E 		.ascii	"WTANDEVT\000"
 1025      44455654 
 1025      00
 1026 02e9 000000   		.space	3
 1027              	.LC38:
 1028 02ec 534E444D 		.ascii	"SNDMSGQ\000"
 1028      53475100 
 1029              	.LC39:
 1030 02f4 534E444D 		.ascii	"SNDMSG\000"
 1030      534700
 1031 02fb 00       		.space	1
 1032              	.LC40:
 1033 02fc 57544D53 		.ascii	"WTMSG\000"
 1033      4700
 1034 0302 0000     		.space	2
 1035              	.LC41:
 1036 0304 57545155 		.ascii	"WTQUEUE\000"
 1036      45554500 
 1037              	.LC42:
 1038 030c 46494E41 		.ascii	"FINAL\000"
 1038      4C00
 1039 0312 0000     		.space	2
 1040              	.LC43:
 1041 0314 6D656D00 		.ascii	"mem\000"
 1042              	.LC44:
 1043 0318 74687265 		.ascii	"threads\000"
 1043      61647300 
 1044              	.LC45:
 1045 0320 74657374 		.ascii	"test\000"
 1045      00
 1046 0325 000000   		.space	3
 1047              	.LC46:
 1048 0328 64617465 		.ascii	"date\000"
 1048      00
 1049 032d 000000   		.space	3
 1050              	.LC47:
 1051 0330 616C6172 		.ascii	"alarm\000"
 1051      6D00
 1052 0336 0000     		.space	2
 1053              	.LC48:
 1054 0338 736C6565 		.ascii	"sleep\000"
 1054      7000
 1055 033e 0000     		.space	2
 1056              	.LC49:
 1057 0340 6D6F756E 		.ascii	"mountsd\000"
 1057      74736400 
 1058              	.LC50:
 1059 0348 756D6F75 		.ascii	"umountsd\000"
 1059      6E747364 
 1059      00
 1060 0351 000000   		.space	3
 1061              	.LC51:
 1062 0354 74726565 		.ascii	"tree\000"
ARM GAS  C:\Users\DNIEL~1\AppData\Local\Temp\ccjxNbGp.s 			page 22


 1062      00
 1063 0359 000000   		.space	3
 1064              	.LC52:
 1065 035c 63617400 		.ascii	"cat\000"
 1066              	.LC53:
 1067 0360 7364696F 		.ascii	"sdiotest\000"
 1067      74657374 
 1067      00
 1068 0369 000000   		.space	3
 1069              	.LC54:
 1070 036c 63616E76 		.ascii	"canvalues\000"
 1070      616C7565 
 1070      7300
 1071 0376 0000     		.space	2
 1072              	.LC55:
 1073 0378 63616E6D 		.ascii	"canmppttest\000"
 1073      70707474 
 1073      65737400 
 1074              	.LC56:
 1075 0384 63616E64 		.ascii	"candata\000"
 1075      61746100 
 1076              	.LC57:
 1077 038c 6C696768 		.ascii	"lightvalues\000"
 1077      7476616C 
 1077      75657300 
 1078              	.LC58:
 1079 0398 73706565 		.ascii	"speedvalues\000"
 1079      6476616C 
 1079      75657300 
 1080              	.LC59:
 1081 03a4 6D656173 		.ascii	"measvalues\000"
 1081      76616C75 
 1081      657300
 1082 03af 00       		.space	1
 1083              	.LC60:
 1084 03b0 63727569 		.ascii	"cruisevalues\000"
 1084      73657661 
 1084      6C756573 
 1084      00
 1085 03bd 000000   		.space	3
 1086              	.LC61:
 1087 03c0 73657463 		.ascii	"setcruisevalues\000"
 1087      72756973 
 1087      6576616C 
 1087      75657300 
 1088              		.section	.rodata.shell_cfg1,"a",%progbits
 1089              		.align	2
 1090              		.set	.LANCHOR5,. + 0
 1091              		.type	shell_cfg1, %object
 1092              		.size	shell_cfg1, 8
 1093              	shell_cfg1:
 1094 0000 00000000 		.word	SD1
 1095 0004 00000000 		.word	commands
 1096              		.section	.data.ser_cfg,"aw",%progbits
 1097              		.align	2
 1098              		.set	.LANCHOR3,. + 0
 1099              		.type	ser_cfg, %object
ARM GAS  C:\Users\DNIEL~1\AppData\Local\Temp\ccjxNbGp.s 			page 23


 1100              		.size	ser_cfg, 12
 1101              	ser_cfg:
 1102 0000 00C20100 		.word	115200
 1103 0004 0000     		.short	0
 1104 0006 0000     		.short	0
 1105 0008 0000     		.short	0
 1106 000a 0000     		.space	2
 1107              		.section	.rodata.states.9755,"a",%progbits
 1108              		.align	2
 1109              		.set	.LANCHOR2,. + 0
 1110              		.type	states.9755, %object
 1111              		.size	states.9755, 60
 1112              	states.9755:
 1113 0000 90020000 		.word	.LC28
 1114 0004 98020000 		.word	.LC29
 1115 0008 A0020000 		.word	.LC30
 1116 000c AC020000 		.word	.LC31
 1117 0010 B4020000 		.word	.LC32
 1118 0014 BC020000 		.word	.LC33
 1119 0018 C4020000 		.word	.LC34
 1120 001c D0020000 		.word	.LC35
 1121 0020 D8020000 		.word	.LC36
 1122 0024 E0020000 		.word	.LC37
 1123 0028 EC020000 		.word	.LC38
 1124 002c F4020000 		.word	.LC39
 1125 0030 FC020000 		.word	.LC40
 1126 0034 04030000 		.word	.LC41
 1127 0038 0C030000 		.word	.LC42
 1128              		.text
 1129              	.Letext0: