ARM GAS  C:\Users\DNIEL~1\AppData\Local\Temp\ccyM1NLd.s 			page 1


   1              		.syntax unified
   2              		.cpu cortex-m4
   3              		.fpu softvfp
   4              		.eabi_attribute 20, 1
   5              		.eabi_attribute 21, 1
   6              		.eabi_attribute 23, 3
   7              		.eabi_attribute 24, 1
   8              		.eabi_attribute 25, 1
   9              		.eabi_attribute 26, 1
  10              		.eabi_attribute 30, 2
  11              		.eabi_attribute 18, 4
  12              		.thumb
  13              		.file	"crt0.c"
  20 0000 7B010000 		.text
  20      0200C900 
  20      00000201 
  20      FB0E0D00 
  20      01010101 
  21              	.Ltext0:
  22              		.cfi_sections	.debug_frame
  23              		.section	.text.__early_init,"ax",%progbits
  24              		.align	2
  25              		.p2align 4,,15
  26              		.weak	__early_init
  27              		.thumb
  28              		.thumb_func
  29              		.type	__early_init, %function
  30              	__early_init:
  31              	.LFB7:
  32              		.file 1 "../../../ChibiOS/os/ports/GCC/ARMCMx/crt0.c"
  33              		.loc 1 213 0
  34              		.cfi_startproc
  35              		@ args = 0, pretend = 0, frame = 0
  36              		@ frame_needed = 0, uses_anonymous_args = 0
  37              		@ link register save eliminated.
  38              		.loc 1 213 0
  39 0000 7047     		bx	lr
  40              		.cfi_endproc
  41              	.LFE7:
  42              		.size	__early_init, .-__early_init
  43 0002 00BFAFF3 		.section	.text.__late_init,"ax",%progbits
  43      0080AFF3 
  43      0080AFF3 
  43      0080
  44              		.align	2
  45              		.p2align 4,,15
  46              		.weak	__late_init
  47              		.thumb
  48              		.thumb_func
  49              		.type	__late_init, %function
  50              	__late_init:
ARM GAS  C:\Users\DNIEL~1\AppData\Local\Temp\ccyM1NLd.s 			page 2


  51              	.LFB8:
  52              		.loc 1 225 0
  53              		.cfi_startproc
  54              		@ args = 0, pretend = 0, frame = 0
  55              		@ frame_needed = 0, uses_anonymous_args = 0
  56              		@ link register save eliminated.
  57              		.loc 1 225 0
  58 0000 7047     		bx	lr
  59              		.cfi_endproc
  60              	.LFE8:
  61              		.size	__late_init, .-__late_init
  62 0002 00BFAFF3 		.section	.text._default_exit,"ax",%progbits
  62      0080AFF3 
  62      0080AFF3 
  62      0080
  63              		.align	2
  64              		.p2align 4,,15
  65              		.weak	_default_exit
  66              		.thumb
  67              		.thumb_func
  68              		.type	_default_exit, %function
  69              	_default_exit:
  70              	.LFB9:
  71              		.loc 1 236 0
  72              		.cfi_startproc
  73              		@ Naked Function: prologue and epilogue provided by programmer.
  74              		@ args = 0, pretend = 0, frame = 0
  75              		@ frame_needed = 0, uses_anonymous_args = 0
  76              	.L4:
  77 0000 FEE7     		b	.L4
  78              		.cfi_endproc
  79              	.LFE9:
  80              		.size	_default_exit, .-_default_exit
  81 0002 00BFAFF3 		.section	.text.ResetHandler,"ax",%progbits
  81      0080AFF3 
  81      0080AFF3 
  81      0080
  82              		.align	2
  83              		.p2align 4,,15
  84              		.global	ResetHandler
  85              		.thumb
  86              		.thumb_func
  87              		.type	ResetHandler, %function
  88              	ResetHandler:
  89              	.LFB10:
  90              		.loc 1 247 0
  91              		.cfi_startproc
  92              		@ Naked Function: prologue and epilogue provided by programmer.
  93              		@ args = 0, pretend = 0, frame = 0
  94              		@ frame_needed = 0, uses_anonymous_args = 0
  95              		.loc 1 253 0
  96              	@ 253 "../../../ChibiOS/os/ports/GCC/ARMCMx/crt0.c" 1
  97 0000 72B6     		cpsid   i
  98              	@ 0 "" 2
  99              	.LVL0:
 100              		.loc 1 255 0
 101              		.thumb
ARM GAS  C:\Users\DNIEL~1\AppData\Local\Temp\ccyM1NLd.s 			page 3


 102 0002 6348     		ldr	r0, .L55
 103              	@ 255 "../../../ChibiOS/os/ports/GCC/ARMCMx/crt0.c" 1
 104 0004 80F30988 		msr     PSP, r0
 105              	@ 0 "" 2
 106              	.LVL1:
 107              		.loc 1 275 0
 108              		.thumb
 109 0008 0223     		movs	r3, #2
 110              	@ 275 "../../../ChibiOS/os/ports/GCC/ARMCMx/crt0.c" 1
 111 000a 83F31488 		msr     CONTROL, r3
 112              	@ 0 "" 2
 113              		.loc 1 276 0
 114              	@ 276 "../../../ChibiOS/os/ports/GCC/ARMCMx/crt0.c" 1
 115 000e BFF36F8F 		isb
 116              	@ 0 "" 2
 117              	.LVL2:
 118              		.thumb
 119              	.LBB2:
 120              		.loc 1 280 0
 121 0012 604A     		ldr	r2, .L55+4
 122 0014 604C     		ldr	r4, .L55+8
 123 0016 A242     		cmp	r2, r4
 124 0018 17D2     		bcs	.L6
 125              		.loc 1 280 0 is_stmt 0 discriminator 2
 126 001a 1346     		mov	r3, r2
 127 001c 4FF05531 		mov	r1, #1431655765
 128 0020 43F8041B 		str	r1, [r3], #4
 129              	.LVL3:
 130 0024 D643     		mvns	r6, r2
 131 0026 A519     		adds	r5, r4, r6
 132 0028 A342     		cmp	r3, r4
 133 002a C5F38005 		ubfx	r5, r5, #2, #1
 134 002e 0CD2     		bcs	.L6
 135 0030 25B1     		cbz	r5, .L7
 136              		.loc 1 280 0
 137 0032 1960     		str	r1, [r3, #0]
 138 0034 02F10803 		add	r3, r2, #8
 139              	.LVL4:
 140 0038 A342     		cmp	r3, r4
 141 003a 06D2     		bcs	.L6
 142              	.L7:
 143              		.loc 1 280 0 discriminator 2
 144 003c 1A46     		mov	r2, r3
 145 003e 42F8041B 		str	r1, [r2], #4
 146 0042 5960     		str	r1, [r3, #4]
 147 0044 131D     		adds	r3, r2, #4
 148 0046 A342     		cmp	r3, r4
 149 0048 F8D3     		bcc	.L7
 150              	.L6:
 151              	.LVL5:
 152              	.LBE2:
 153              	.LBB3:
 154              		.loc 1 283 0 is_stmt 1 discriminator 1
 155 004a 544A     		ldr	r2, .L55+12
 156 004c 8242     		cmp	r2, r0
 157 004e 17D2     		bcs	.L8
 158              		.loc 1 283 0 is_stmt 0 discriminator 2
ARM GAS  C:\Users\DNIEL~1\AppData\Local\Temp\ccyM1NLd.s 			page 4


 159 0050 1346     		mov	r3, r2
 160 0052 4FF05531 		mov	r1, #1431655765
 161 0056 43F8041B 		str	r1, [r3], #4
 162              	.LVL6:
 163 005a D543     		mvns	r5, r2
 164 005c 4419     		adds	r4, r0, r5
 165 005e 8342     		cmp	r3, r0
 166 0060 C4F38004 		ubfx	r4, r4, #2, #1
 167 0064 0CD2     		bcs	.L8
 168 0066 24B1     		cbz	r4, .L9
 169              		.loc 1 283 0
 170 0068 1960     		str	r1, [r3, #0]
 171 006a 02F10803 		add	r3, r2, #8
 172              	.LVL7:
 173 006e 8342     		cmp	r3, r0
 174 0070 06D2     		bcs	.L8
 175              	.L9:
 176              		.loc 1 283 0 discriminator 2
 177 0072 1E46     		mov	r6, r3
 178 0074 46F8041B 		str	r1, [r6], #4
 179 0078 5960     		str	r1, [r3, #4]
 180 007a 331D     		adds	r3, r6, #4
 181 007c 8342     		cmp	r3, r0
 182 007e F8D3     		bcc	.L9
 183              	.L8:
 184              	.LBE3:
 185              		.loc 1 289 0 is_stmt 1
 186 0080 FFF7FEFF 		bl	__early_init
 187              	.LVL8:
 188              	.LBB4:
 189              		.loc 1 298 0
 190 0084 464C     		ldr	r4, .L55+16
 191 0086 4749     		ldr	r1, .L55+20
 192 0088 A142     		cmp	r1, r4
 193 008a 22D2     		bcs	.L10
 194 008c 4648     		ldr	r0, .L55+24
 195              		.loc 1 299 0
 196 008e 0246     		mov	r2, r0
 197 0090 0B46     		mov	r3, r1
 198 0092 52F8046B 		ldr	r6, [r2], #4
 199 0096 43F8046B 		str	r6, [r3], #4
 200              	.LVL9:
 201 009a CD43     		mvns	r5, r1
 202 009c 04EB050C 		add	ip, r4, r5
 203              		.loc 1 298 0
 204 00a0 A342     		cmp	r3, r4
 205 00a2 CCF38005 		ubfx	r5, ip, #2, #1
 206 00a6 14D2     		bcs	.L10
 207 00a8 3DB1     		cbz	r5, .L11
 208              		.loc 1 299 0
 209 00aa 1668     		ldr	r6, [r2, #0]
 210 00ac 1E60     		str	r6, [r3, #0]
 211 00ae 01F10803 		add	r3, r1, #8
 212              	.LVL10:
 213              		.loc 1 298 0
 214 00b2 A342     		cmp	r3, r4
 215              		.loc 1 299 0
ARM GAS  C:\Users\DNIEL~1\AppData\Local\Temp\ccyM1NLd.s 			page 5


 216 00b4 00F10802 		add	r2, r0, #8
 217              		.loc 1 298 0
 218 00b8 0BD2     		bcs	.L10
 219              	.L11:
 220              		.loc 1 299 0
 221 00ba 1146     		mov	r1, r2
 222 00bc 1846     		mov	r0, r3
 223 00be 51F8045B 		ldr	r5, [r1], #4
 224 00c2 40F8045B 		str	r5, [r0], #4
 225 00c6 5268     		ldr	r2, [r2, #4]
 226 00c8 5A60     		str	r2, [r3, #4]
 227 00ca 031D     		adds	r3, r0, #4
 228 00cc 0A1D     		adds	r2, r1, #4
 229              		.loc 1 298 0
 230 00ce A342     		cmp	r3, r4
 231 00d0 F3D3     		bcc	.L11
 232              	.L10:
 233              	.LVL11:
 234              	.LBE4:
 235              	.LBB5:
 236              		.loc 1 305 0 discriminator 1
 237 00d2 364A     		ldr	r2, .L55+28
 238 00d4 3648     		ldr	r0, .L55+32
 239 00d6 8242     		cmp	r2, r0
 240 00d8 17D2     		bcs	.L12
 241              		.loc 1 305 0 is_stmt 0 discriminator 2
 242 00da 1346     		mov	r3, r2
 243 00dc 0021     		movs	r1, #0
 244 00de 43F8041B 		str	r1, [r3], #4
 245              	.LVL12:
 246 00e2 D443     		mvns	r4, r2
 247 00e4 00EB040E 		add	lr, r0, r4
 248 00e8 8342     		cmp	r3, r0
 249 00ea CEF38004 		ubfx	r4, lr, #2, #1
 250 00ee 0CD2     		bcs	.L12
 251 00f0 24B1     		cbz	r4, .L13
 252              		.loc 1 305 0
 253 00f2 1960     		str	r1, [r3, #0]
 254 00f4 02F10803 		add	r3, r2, #8
 255              	.LVL13:
 256 00f8 8342     		cmp	r3, r0
 257 00fa 06D2     		bcs	.L12
 258              	.L13:
 259              		.loc 1 305 0 discriminator 2
 260 00fc 1E46     		mov	r6, r3
 261 00fe 46F8041B 		str	r1, [r6], #4
 262 0102 5960     		str	r1, [r3, #4]
 263 0104 331D     		adds	r3, r6, #4
 264 0106 8342     		cmp	r3, r0
 265 0108 F8D3     		bcc	.L13
 266              	.L12:
 267              	.LBE5:
 268              	.LBB6:
 269              		.loc 1 315 0 is_stmt 1
 270 010a 2A4D     		ldr	r5, .L55+36
 271 010c 2A4E     		ldr	r6, .L55+40
 272              	.LBE6:
ARM GAS  C:\Users\DNIEL~1\AppData\Local\Temp\ccyM1NLd.s 			page 6


 273              		.loc 1 309 0
 274 010e FFF7FEFF 		bl	__late_init
 275              	.LVL14:
 276              	.LBB7:
 277              		.loc 1 315 0
 278 0112 B542     		cmp	r5, r6
 279 0114 19D2     		bcs	.L14
 280              		.loc 1 316 0
 281 0116 2C46     		mov	r4, r5
 282 0118 E943     		mvns	r1, r5
 283 011a 54F8043B 		ldr	r3, [r4], #4
 284 011e 7718     		adds	r7, r6, r1
 285 0120 9847     		blx	r3
 286              	.LVL15:
 287              		.loc 1 315 0
 288 0122 B442     		cmp	r4, r6
 289 0124 C7F38007 		ubfx	r7, r7, #2, #1
 290 0128 0FD2     		bcs	.L14
 291 012a 2FB1     		cbz	r7, .L15
 292              		.loc 1 316 0
 293 012c 2368     		ldr	r3, [r4, #0]
 294              		.loc 1 317 0
 295 012e 05F10804 		add	r4, r5, #8
 296              		.loc 1 316 0
 297 0132 9847     		blx	r3
 298              	.LVL16:
 299              		.loc 1 315 0
 300 0134 B442     		cmp	r4, r6
 301 0136 08D2     		bcs	.L14
 302              	.L15:
 303              		.loc 1 316 0
 304 0138 2546     		mov	r5, r4
 305 013a 55F8042B 		ldr	r2, [r5], #4
 306 013e 9047     		blx	r2
 307 0140 6068     		ldr	r0, [r4, #4]
 308              		.loc 1 317 0
 309 0142 2C1D     		adds	r4, r5, #4
 310              		.loc 1 316 0
 311 0144 8047     		blx	r0
 312              		.loc 1 315 0
 313 0146 B442     		cmp	r4, r6
 314 0148 F6D3     		bcc	.L15
 315              	.L14:
 316              	.LBE7:
 317              	.LBB8:
 318              		.loc 1 329 0
 319 014a 1C4D     		ldr	r5, .L55+44
 320 014c 1C4E     		ldr	r6, .L55+48
 321              	.LBE8:
 322              		.loc 1 323 0
 323 014e FFF7FEFF 		bl	main
 324              	.LVL17:
 325              	.LBB9:
 326              		.loc 1 329 0
 327 0152 B542     		cmp	r5, r6
 328 0154 1AD2     		bcs	.L16
 329              		.loc 1 330 0
ARM GAS  C:\Users\DNIEL~1\AppData\Local\Temp\ccyM1NLd.s 			page 7


 330 0156 2C46     		mov	r4, r5
 331 0158 EF43     		mvns	r7, r5
 332 015a 54F8043B 		ldr	r3, [r4], #4
 333 015e 06EB070C 		add	ip, r6, r7
 334 0162 CCF38007 		ubfx	r7, ip, #2, #1
 335 0166 9847     		blx	r3
 336              	.LVL18:
 337              		.loc 1 329 0
 338 0168 B442     		cmp	r4, r6
 339 016a 0FD2     		bcs	.L16
 340 016c 2FB1     		cbz	r7, .L17
 341              		.loc 1 330 0
 342 016e 2268     		ldr	r2, [r4, #0]
 343              		.loc 1 331 0
 344 0170 05F10804 		add	r4, r5, #8
 345              		.loc 1 330 0
 346 0174 9047     		blx	r2
 347              	.LVL19:
 348              		.loc 1 329 0
 349 0176 B442     		cmp	r4, r6
 350 0178 08D2     		bcs	.L16
 351              	.L17:
 352              		.loc 1 330 0
 353 017a 2546     		mov	r5, r4
 354 017c 55F8040B 		ldr	r0, [r5], #4
 355 0180 8047     		blx	r0
 356 0182 6168     		ldr	r1, [r4, #4]
 357              		.loc 1 331 0
 358 0184 2C1D     		adds	r4, r5, #4
 359              		.loc 1 330 0
 360 0186 8847     		blx	r1
 361              		.loc 1 329 0
 362 0188 B442     		cmp	r4, r6
 363 018a F6D3     		bcc	.L17
 364              	.L16:
 365              	.LBE9:
 366              		.loc 1 338 0
 367              		.loc 1 337 0
 368 018c FFF7FEBF 		b	_default_exit
 369              	.L56:
 370              		.align	2
 371              	.L55:
 372 0190 00000000 		.word	__process_stack_end__
 373 0194 00000000 		.word	__main_stack_base__
 374 0198 00000000 		.word	__main_stack_end__
 375 019c 00000000 		.word	__process_stack_base__
 376 01a0 00000000 		.word	_edata
 377 01a4 00000000 		.word	_data
 378 01a8 00000000 		.word	_textdata
 379 01ac 00000000 		.word	_bss_start
 380 01b0 00000000 		.word	_bss_end
 381 01b4 00000000 		.word	__init_array_start
 382 01b8 00000000 		.word	__init_array_end
 383 01bc 00000000 		.word	__fini_array_start
 384 01c0 00000000 		.word	__fini_array_end
 385              		.cfi_endproc
 386              	.LFE10:
ARM GAS  C:\Users\DNIEL~1\AppData\Local\Temp\ccyM1NLd.s 			page 8


 387              		.size	ResetHandler, .-ResetHandler
 388 01c4 AFF30080 		.text
 388      AFF30080 
 388      AFF30080 
 389              	.Letext0: