ARM GAS  C:\Users\DNIEL~1\AppData\Local\Temp\ccjrwhqg.s 			page 1


   1              		.syntax unified
   2              		.cpu cortex-m4
   3              		.fpu softvfp
   4              		.eabi_attribute 20, 1
   5              		.eabi_attribute 21, 1
   6              		.eabi_attribute 23, 3
   7              		.eabi_attribute 24, 1
   8              		.eabi_attribute 25, 1
   9              		.eabi_attribute 26, 1
  10              		.eabi_attribute 30, 2
  11              		.eabi_attribute 34, 1
  12              		.eabi_attribute 18, 4
  13              		.thumb
  14              		.file	"cruise.c"
  15              		.text
  16              	.Ltext0:
  17              		.cfi_sections	.debug_frame
  18              		.section	.text.chprintf,"ax",%progbits
  19              		.align	2
  20              		.p2align 4,,15
  21              		.thumb
  22              		.thumb_func
  23              		.type	chprintf, %function
  24              	chprintf:
  25              	.LFB118:
  26              		.file 1 "../../../ChibiOS/os/various/chprintf.h"
  27              		.loc 1 69 0
  28              		.cfi_startproc
  29              		@ args = 4, pretend = 12, frame = 8
  30              		@ frame_needed = 0, uses_anonymous_args = 1
  31              	.LVL0:
  32 0000 0EB4     		push	{r1, r2, r3}
  33              	.LCFI0:
  34              		.cfi_def_cfa_offset 12
  35              		.cfi_offset 1, -12
  36              		.cfi_offset 2, -8
  37              		.cfi_offset 3, -4
  38 0002 00B5     		push	{lr}
  39              	.LCFI1:
  40              		.cfi_def_cfa_offset 16
  41              		.cfi_offset 14, -16
  42 0004 82B0     		sub	sp, sp, #8
  43              	.LCFI2:
  44              		.cfi_def_cfa_offset 24
  45              		.loc 1 69 0
  46 0006 03AB     		add	r3, sp, #12
  47 0008 53F8041B 		ldr	r1, [r3], #4
  48              		.loc 1 73 0
  49 000c 1A46     		mov	r2, r3
  50              		.loc 1 72 0
  51 000e 0193     		str	r3, [sp, #4]
  52              		.loc 1 73 0
  53 0010 FFF7FEFF 		bl	chvprintf
  54              	.LVL1:
  55              		.loc 1 75 0
  56 0014 02B0     		add	sp, sp, #8
  57 0016 5DF804EB 		pop	{lr}
ARM GAS  C:\Users\DNIEL~1\AppData\Local\Temp\ccjrwhqg.s 			page 2


  58 001a 03B0     		add	sp, sp, #12
  59 001c 7047     		bx	lr
  60              		.cfi_endproc
  61              	.LFE118:
  62              		.size	chprintf, .-chprintf
  63 001e 00BF     		.section	.text.cruiseInit,"ax",%progbits
  64              		.align	2
  65              		.p2align 4,,15
  66              		.global	cruiseInit
  67              		.thumb
  68              		.thumb_func
  69              		.type	cruiseInit, %function
  70              	cruiseInit:
  71              	.LFB119:
  72              		.file 2 "src/cruise.c"
  73              		.loc 2 47 0
  74              		.cfi_startproc
  75              		@ args = 0, pretend = 0, frame = 0
  76              		@ frame_needed = 0, uses_anonymous_args = 0
  77              		@ link register save eliminated.
  78 0000 2DE9F007 		push	{r4, r5, r6, r7, r8, r9, sl}
  79              	.LCFI3:
  80              		.cfi_def_cfa_offset 28
  81              		.cfi_offset 4, -28
  82              		.cfi_offset 5, -24
  83              		.cfi_offset 6, -20
  84              		.cfi_offset 7, -16
  85              		.cfi_offset 8, -12
  86              		.cfi_offset 9, -8
  87              		.cfi_offset 10, -4
  88              		.loc 2 51 0
  89 0004 40F2000C 		movw	ip, #:lower16:.LANCHOR2
  90              		.loc 2 48 0
  91 0008 40F20009 		movw	r9, #:lower16:.LANCHOR0
  92              		.loc 2 56 0
  93 000c 40F20004 		movw	r4, #:lower16:.LANCHOR6
  94              		.loc 2 50 0
  95 0010 40F20008 		movw	r8, #:lower16:.LANCHOR1
  96              		.loc 2 52 0
  97 0014 40F20007 		movw	r7, #:lower16:.LANCHOR3
  98              		.loc 2 53 0
  99 0018 40F20006 		movw	r6, #:lower16:.LANCHOR4
 100              		.loc 2 54 0
 101 001c 40F20005 		movw	r5, #:lower16:.LANCHOR5
 102              		.loc 2 50 0
 103 0020 0023     		movs	r3, #0
 104 0022 0022     		movs	r2, #0
 105              		.loc 2 48 0
 106 0024 C0F20009 		movt	r9, #:upper16:.LANCHOR0
 107              		.loc 2 56 0
 108 0028 C0F20004 		movt	r4, #:upper16:.LANCHOR6
 109              		.loc 2 50 0
 110 002c C0F20008 		movt	r8, #:upper16:.LANCHOR1
 111              		.loc 2 51 0
 112 0030 C0F2000C 		movt	ip, #:upper16:.LANCHOR2
 113              		.loc 2 52 0
 114 0034 C0F20007 		movt	r7, #:upper16:.LANCHOR3
ARM GAS  C:\Users\DNIEL~1\AppData\Local\Temp\ccjrwhqg.s 			page 3


 115              		.loc 2 53 0
 116 0038 C0F20006 		movt	r6, #:upper16:.LANCHOR4
 117              		.loc 2 54 0
 118 003c C0F20005 		movt	r5, #:upper16:.LANCHOR5
 119              		.loc 2 58 0
 120 0040 40F20000 		movw	r0, #:lower16:PWMD5
 121 0044 40F20001 		movw	r1, #:lower16:.LANCHOR7
 122              		.loc 2 48 0
 123 0048 4FF0000A 		mov	sl, #0
 124              		.loc 2 50 0
 125 004c C8E90023 		strd	r2, [r8]
 126              		.loc 2 51 0
 127 0050 CCE90023 		strd	r2, [ip]
 128              		.loc 2 52 0
 129 0054 C7E90023 		strd	r2, [r7]
 130              		.loc 2 53 0
 131 0058 C6E90023 		strd	r2, [r6]
 132              		.loc 2 54 0
 133 005c C5E90023 		strd	r2, [r5]
 134              		.loc 2 58 0
 135 0060 C0F20000 		movt	r0, #:upper16:PWMD5
 136              		.loc 2 56 0
 137 0064 4FF4FA73 		mov	r3, #500
 138              		.loc 2 58 0
 139 0068 C0F20001 		movt	r1, #:upper16:.LANCHOR7
 140              		.loc 2 48 0
 141 006c C9F800A0 		str	sl, [r9, #0]
 142              		.loc 2 56 0
 143 0070 2360     		str	r3, [r4, #0]
 144              		.loc 2 59 0
 145 0072 BDE8F007 		pop	{r4, r5, r6, r7, r8, r9, sl}
 146              		.loc 2 58 0
 147 0076 FFF7FEBF 		b	pwmStart
 148              	.LVL2:
 149              		.cfi_endproc
 150              	.LFE119:
 151              		.size	cruiseInit, .-cruiseInit
 152              		.global	__aeabi_i2d
 153              		.global	__aeabi_dmul
 154              		.global	__aeabi_dcmpgt
 155              		.global	__aeabi_dcmplt
 156              		.global	__aeabi_dadd
 157              		.global	__aeabi_dsub
 158              		.global	__aeabi_d2iz
 159 007a 00BFAFF3 		.section	.text.cruisePID,"ax",%progbits
 159      0080
 160              		.align	2
 161              		.p2align 4,,15
 162              		.global	cruisePID
 163              		.thumb
 164              		.thumb_func
 165              		.type	cruisePID, %function
 166              	cruisePID:
 167              	.LFB121:
 168              		.loc 2 68 0
 169              		.cfi_startproc
 170              		@ args = 36, pretend = 0, frame = 16
ARM GAS  C:\Users\DNIEL~1\AppData\Local\Temp\ccjrwhqg.s 			page 4


 171              		@ frame_needed = 0, uses_anonymous_args = 0
 172              	.LVL3:
 173 0000 2DE9F04F 		push	{r4, r5, r6, r7, r8, r9, sl, fp, lr}
 174              	.LCFI4:
 175              		.cfi_def_cfa_offset 36
 176              		.cfi_offset 4, -36
 177              		.cfi_offset 5, -32
 178              		.cfi_offset 6, -28
 179              		.cfi_offset 7, -24
 180              		.cfi_offset 8, -20
 181              		.cfi_offset 9, -16
 182              		.cfi_offset 10, -12
 183              		.cfi_offset 11, -8
 184              		.cfi_offset 14, -4
 185 0004 85B0     		sub	sp, sp, #20
 186              	.LCFI5:
 187              		.cfi_def_cfa_offset 56
 188              		.loc 2 71 0
 189 0006 081A     		subs	r0, r1, r0
 190              	.LVL4:
 191              		.loc 2 68 0
 192 0008 0292     		str	r2, [sp, #8]
 193 000a 0393     		str	r3, [sp, #12]
 194              		.loc 2 71 0
 195 000c FFF7FEFF 		bl	__aeabi_i2d
 196              	.LVL5:
 197 0010 574C     		ldr	r4, .L28
 198              		.loc 2 68 0
 199 0012 149F     		ldr	r7, [sp, #80]
 200 0014 159E     		ldr	r6, [sp, #84]
 201              		.loc 2 71 0
 202 0016 8246     		mov	sl, r0
 203 0018 8B46     		mov	fp, r1
 204              		.loc 2 74 0
 205 001a DDE90E23 		ldrd	r2, [sp, #56]
 206              		.loc 2 71 0
 207 001e C4E900AB 		strd	sl, [r4]
 208              		.loc 2 74 0
 209 0022 FFF7FEFF 		bl	__aeabi_dmul
 210              	.LVL6:
 211 0026 0446     		mov	r4, r0
 212              		.loc 2 75 0
 213 0028 3846     		mov	r0, r7
 214              		.loc 2 74 0
 215 002a 0D46     		mov	r5, r1
 216              		.loc 2 75 0
 217 002c FFF7FEFF 		bl	__aeabi_i2d
 218              	.LVL7:
 219 0030 8046     		mov	r8, r0
 220 0032 8946     		mov	r9, r1
 221 0034 2046     		mov	r0, r4
 222 0036 2946     		mov	r1, r5
 223 0038 4246     		mov	r2, r8
 224 003a 4B46     		mov	r3, r9
 225 003c FFF7FEFF 		bl	__aeabi_dcmpgt
 226              	.LVL8:
 227 0040 68B9     		cbnz	r0, .L7
ARM GAS  C:\Users\DNIEL~1\AppData\Local\Temp\ccjrwhqg.s 			page 5


 228              		.loc 2 78 0
 229 0042 7842     		negs	r0, r7
 230 0044 FFF7FEFF 		bl	__aeabi_i2d
 231              	.LVL9:
 232 0048 8046     		mov	r8, r0
 233 004a 8946     		mov	r9, r1
 234 004c 2046     		mov	r0, r4
 235 004e 2946     		mov	r1, r5
 236 0050 4246     		mov	r2, r8
 237 0052 4B46     		mov	r3, r9
 238 0054 FFF7FEFF 		bl	__aeabi_dcmplt
 239              	.LVL10:
 240 0058 0028     		cmp	r0, #0
 241 005a 00F08180 		beq	.L25
 242              	.L7:
 243              		.loc 2 79 0
 244 005e 4548     		ldr	r0, .L28+4
 245 0060 C0E90089 		strd	r8, [r0]
 246              	.L6:
 247              		.loc 2 84 0
 248 0064 444F     		ldr	r7, .L28+8
 249 0066 DDE91023 		ldrd	r2, [sp, #64]
 250 006a 5046     		mov	r0, sl
 251 006c 5946     		mov	r1, fp
 252 006e FFF7FEFF 		bl	__aeabi_dmul
 253              	.LVL11:
 254 0072 D7E90023 		ldrd	r2, [r7]
 255 0076 FFF7FEFF 		bl	__aeabi_dadd
 256              	.LVL12:
 257 007a 0446     		mov	r4, r0
 258              		.loc 2 85 0
 259 007c 3046     		mov	r0, r6
 260              		.loc 2 84 0
 261 007e 0D46     		mov	r5, r1
 262              		.loc 2 85 0
 263 0080 FFF7FEFF 		bl	__aeabi_i2d
 264              	.LVL13:
 265 0084 CDE90001 		strd	r0, [sp]
 266 0088 DDE90023 		ldrd	r2, [sp]
 267 008c 2046     		mov	r0, r4
 268 008e 2946     		mov	r1, r5
 269 0090 FFF7FEFF 		bl	__aeabi_dcmpgt
 270              	.LVL14:
 271 0094 60B9     		cbnz	r0, .L11
 272              		.loc 2 88 0
 273 0096 7042     		negs	r0, r6
 274 0098 FFF7FEFF 		bl	__aeabi_i2d
 275              	.LVL15:
 276 009c CDE90001 		strd	r0, [sp]
 277 00a0 DDE90023 		ldrd	r2, [sp]
 278 00a4 2046     		mov	r0, r4
 279 00a6 2946     		mov	r1, r5
 280 00a8 FFF7FEFF 		bl	__aeabi_dcmplt
 281              	.LVL16:
 282 00ac 0028     		cmp	r0, #0
 283 00ae 52D0     		beq	.L26
 284              	.L11:
ARM GAS  C:\Users\DNIEL~1\AppData\Local\Temp\ccjrwhqg.s 			page 6


 285              		.loc 2 89 0
 286 00b0 DDE90023 		ldrd	r2, [sp]
 287 00b4 C7E90023 		strd	r2, [r7]
 288              	.L10:
 289              		.loc 2 94 0
 290 00b8 40F20005 		movw	r5, #:lower16:.LANCHOR4
 291 00bc C0F20005 		movt	r5, #:upper16:.LANCHOR4
 292 00c0 D5E90023 		ldrd	r2, [r5]
 293 00c4 5046     		mov	r0, sl
 294 00c6 5946     		mov	r1, fp
 295 00c8 FFF7FEFF 		bl	__aeabi_dsub
 296              	.LVL17:
 297 00cc DDE91223 		ldrd	r2, [sp, #72]
 298 00d0 FFF7FEFF 		bl	__aeabi_dmul
 299              	.LVL18:
 300 00d4 0646     		mov	r6, r0
 301              		.loc 2 95 0
 302 00d6 1698     		ldr	r0, [sp, #88]
 303              		.loc 2 94 0
 304 00d8 0F46     		mov	r7, r1
 305              		.loc 2 95 0
 306 00da FFF7FEFF 		bl	__aeabi_i2d
 307              	.LVL19:
 308 00de 0446     		mov	r4, r0
 309 00e0 0D46     		mov	r5, r1
 310 00e2 3046     		mov	r0, r6
 311 00e4 3946     		mov	r1, r7
 312 00e6 2246     		mov	r2, r4
 313 00e8 2B46     		mov	r3, r5
 314 00ea FFF7FEFF 		bl	__aeabi_dcmpgt
 315              	.LVL20:
 316 00ee 68B9     		cbnz	r0, .L15
 317              		.loc 2 98 0
 318 00f0 1699     		ldr	r1, [sp, #88]
 319 00f2 4842     		negs	r0, r1
 320 00f4 FFF7FEFF 		bl	__aeabi_i2d
 321              	.LVL21:
 322 00f8 0446     		mov	r4, r0
 323 00fa 0D46     		mov	r5, r1
 324 00fc 3046     		mov	r0, r6
 325 00fe 3946     		mov	r1, r7
 326 0100 2246     		mov	r2, r4
 327 0102 2B46     		mov	r3, r5
 328 0104 FFF7FEFF 		bl	__aeabi_dcmplt
 329              	.LVL22:
 330 0108 0028     		cmp	r0, #0
 331 010a 1ED0     		beq	.L27
 332              	.L15:
 333              		.loc 2 99 0
 334 010c 1B48     		ldr	r0, .L28+12
 335 010e C0E90045 		strd	r4, [r0]
 336              	.L14:
 337              		.loc 2 104 0
 338 0112 4246     		mov	r2, r8
 339 0114 4B46     		mov	r3, r9
 340 0116 DDE90001 		ldrd	r0, [sp]
 341 011a FFF7FEFF 		bl	__aeabi_dadd
ARM GAS  C:\Users\DNIEL~1\AppData\Local\Temp\ccjrwhqg.s 			page 7


 342              	.LVL23:
 343 011e 2246     		mov	r2, r4
 344 0120 2B46     		mov	r3, r5
 345 0122 FFF7FEFF 		bl	__aeabi_dadd
 346              	.LVL24:
 347 0126 FFF7FEFF 		bl	__aeabi_d2iz
 348              	.LVL25:
 349              		.loc 2 106 0
 350 012a 029C     		ldr	r4, [sp, #8]
 351 012c A042     		cmp	r0, r4
 352 012e 1DDC     		bgt	.L17
 353 0130 039C     		ldr	r4, [sp, #12]
 354 0132 A042     		cmp	r0, r4
 355 0134 B8BF     		it	lt
 356 0136 2046     		movlt	r0, r4
 357              	.LVL26:
 358              	.L16:
 359              		.loc 2 112 0
 360 0138 40F20002 		movw	r2, #:lower16:.LANCHOR4
 361 013c C0F20002 		movt	r2, #:upper16:.LANCHOR4
 362 0140 C2E900AB 		strd	sl, [r2]
 363              		.loc 2 115 0
 364 0144 05B0     		add	sp, sp, #20
 365 0146 BDE8F08F 		pop	{r4, r5, r6, r7, r8, r9, sl, fp, pc}
 366              	.LVL27:
 367              	.L27:
 368              		.loc 2 94 0
 369 014a 0C4B     		ldr	r3, .L28+12
 370 014c 3446     		mov	r4, r6
 371 014e 3D46     		mov	r5, r7
 372 0150 C3E90067 		strd	r6, [r3]
 373 0154 DDE7     		b	.L14
 374              	.L26:
 375              		.loc 2 84 0
 376 0156 C7E90045 		strd	r4, [r7]
 377 015a CDE90045 		strd	r4, [sp]
 378 015e ABE7     		b	.L10
 379              	.L25:
 380              		.loc 2 74 0
 381 0160 044B     		ldr	r3, .L28+4
 382 0162 A046     		mov	r8, r4
 383 0164 A946     		mov	r9, r5
 384 0166 C3E90045 		strd	r4, [r3]
 385 016a 7BE7     		b	.L6
 386              	.LVL28:
 387              	.L17:
 388              		.loc 2 106 0
 389 016c 0298     		ldr	r0, [sp, #8]
 390              	.LVL29:
 391 016e E3E7     		b	.L16
 392              	.L29:
 393              		.align	2
 394              	.L28:
 395 0170 00000000 		.word	.LANCHOR5
 396 0174 00000000 		.word	.LANCHOR1
 397 0178 00000000 		.word	.LANCHOR2
 398 017c 00000000 		.word	.LANCHOR3
ARM GAS  C:\Users\DNIEL~1\AppData\Local\Temp\ccjrwhqg.s 			page 8


 399              		.cfi_endproc
 400              	.LFE121:
 401              		.size	cruisePID, .-cruisePID
 402              		.section	.text.cruiseCalc,"ax",%progbits
 403              		.align	2
 404              		.p2align 4,,15
 405              		.global	cruiseCalc
 406              		.thumb
 407              		.thumb_func
 408              		.type	cruiseCalc, %function
 409              	cruiseCalc:
 410              	.LFB120:
 411              		.loc 2 61 0
 412              		.cfi_startproc
 413              		@ args = 0, pretend = 0, frame = 0
 414              		@ frame_needed = 0, uses_anonymous_args = 0
 415 0000 70B5     		push	{r4, r5, r6, lr}
 416              	.LCFI6:
 417              		.cfi_def_cfa_offset 16
 418              		.cfi_offset 4, -16
 419              		.cfi_offset 5, -12
 420              		.cfi_offset 6, -8
 421              		.cfi_offset 14, -4
 422 0002 8AB0     		sub	sp, sp, #40
 423              	.LCFI7:
 424              		.cfi_def_cfa_offset 56
 425              		.loc 2 62 0
 426 0004 FFF7FEFF 		bl	speedGetRpm
 427              	.LVL30:
 428 0008 40F20002 		movw	r2, #:lower16:.LANCHOR8
 429 000c C0F20002 		movt	r2, #:upper16:.LANCHOR8
 430 0010 40F20003 		movw	r3, #:lower16:.LANCHOR6
 431 0014 C0F20003 		movt	r3, #:upper16:.LANCHOR6
 432 0018 05B2     		sxth	r5, r0
 433 001a B2F90000 		ldrsh	r0, [r2, #0]
 434 001e B3F90060 		ldrsh	r6, [r3, #0]
 435 0022 FFF7FEFF 		bl	__aeabi_i2d
 436              	.LVL31:
 437 0026 40F20004 		movw	r4, #:lower16:.LANCHOR9
 438 002a CDE90001 		strd	r0, [sp]
 439 002e C0F20004 		movt	r4, #:upper16:.LANCHOR9
 440 0032 B4F90000 		ldrsh	r0, [r4, #0]
 441 0036 FFF7FEFF 		bl	__aeabi_i2d
 442              	.LVL32:
 443 003a 40F20002 		movw	r2, #:lower16:.LANCHOR10
 444 003e CDE90201 		strd	r0, [sp, #8]
 445 0042 C0F20002 		movt	r2, #:upper16:.LANCHOR10
 446 0046 44F24024 		movw	r4, #16960
 447 004a B2F90000 		ldrsh	r0, [r2, #0]
 448 004e FFF7FEFF 		bl	__aeabi_i2d
 449              	.LVL33:
 450 0052 C0F20F04 		movt	r4, 15
 451 0056 4EF61033 		movw	r3, #60176
 452 005a CDE90401 		strd	r0, [sp, #16]
 453 005e 2246     		mov	r2, r4
 454 0060 3146     		mov	r1, r6
 455 0062 0694     		str	r4, [sp, #24]
ARM GAS  C:\Users\DNIEL~1\AppData\Local\Temp\ccjrwhqg.s 			page 9


 456 0064 0794     		str	r4, [sp, #28]
 457 0066 0894     		str	r4, [sp, #32]
 458 0068 2846     		mov	r0, r5
 459 006a C0F20903 		movt	r3, 9
 460 006e FFF7FEFF 		bl	cruisePID
 461              	.LVL34:
 462 0072 48F21F51 		movw	r1, #34079
 463              		.loc 2 64 0
 464 0076 40F20003 		movw	r3, #:lower16:PWMD5
 465 007a C0F20003 		movt	r3, #:upper16:PWMD5
 466              		.loc 2 62 0
 467 007e C5F2EB11 		movt	r1, 20971
 468 0082 81FB0025 		smull	r2, r5, r1, r0
 469 0086 C017     		asrs	r0, r0, #31
 470 0088 C0EB6515 		rsb	r5, r0, r5, asr #5
 471              		.loc 2 64 0
 472 008c 1989     		ldrh	r1, [r3, #8]
 473 008e ACB2     		uxth	r4, r5
 474 0090 48F6AD32 		movw	r2, #35757
 475 0094 04FB01F1 		mul	r1, r4, r1
 476 0098 C6F6DB02 		movt	r2, 26843
 477 009c 82FB0102 		smull	r0, r2, r2, r1
 478              		.loc 2 62 0
 479 00a0 40F20004 		movw	r4, #:lower16:.LANCHOR0
 480              		.loc 2 64 0
 481 00a4 C817     		asrs	r0, r1, #31
 482              		.loc 2 62 0
 483 00a6 C0F20004 		movt	r4, #:upper16:.LANCHOR0
 484              		.loc 2 64 0
 485 00aa C0EB2232 		rsb	r2, r0, r2, asr #12
 486 00ae 0221     		movs	r1, #2
 487 00b0 1846     		mov	r0, r3
 488 00b2 92B2     		uxth	r2, r2
 489              		.loc 2 62 0
 490 00b4 2560     		str	r5, [r4, #0]
 491              		.loc 2 65 0
 492 00b6 0AB0     		add	sp, sp, #40
 493 00b8 BDE87040 		pop	{r4, r5, r6, lr}
 494              		.loc 2 64 0
 495 00bc FFF7FEBF 		b	pwmEnableChannel
 496              	.LVL35:
 497              		.cfi_endproc
 498              	.LFE120:
 499              		.size	cruiseCalc, .-cruiseCalc
 500              		.section	.text.cmd_cruisevalues,"ax",%progbits
 501              		.align	2
 502              		.p2align 4,,15
 503              		.global	cmd_cruisevalues
 504              		.thumb
 505              		.thumb_func
 506              		.type	cmd_cruisevalues, %function
 507              	cmd_cruisevalues:
 508              	.LFB122:
 509              		.loc 2 117 0
 510              		.cfi_startproc
 511              		@ args = 0, pretend = 0, frame = 0
 512              		@ frame_needed = 0, uses_anonymous_args = 0
ARM GAS  C:\Users\DNIEL~1\AppData\Local\Temp\ccjrwhqg.s 			page 10


 513              	.LVL36:
 514 0000 2DE9F843 		push	{r3, r4, r5, r6, r7, r8, r9, lr}
 515              	.LCFI8:
 516              		.cfi_def_cfa_offset 32
 517              		.cfi_offset 3, -32
 518              		.cfi_offset 4, -28
 519              		.cfi_offset 5, -24
 520              		.cfi_offset 6, -20
 521              		.cfi_offset 7, -16
 522              		.cfi_offset 8, -12
 523              		.cfi_offset 9, -8
 524              		.cfi_offset 14, -4
 525              		.loc 2 121 0
 526 0004 2C49     		ldr	r1, .L34
 527              	.LVL37:
 528              		.loc 2 126 0
 529 0006 DFF8EC90 		ldr	r9, .L34+60
 530 000a DFF8EC80 		ldr	r8, .L34+64
 531              		.loc 2 127 0
 532 000e 2B4F     		ldr	r7, .L34+4
 533 0010 2B4E     		ldr	r6, .L34+8
 534              		.loc 2 117 0
 535 0012 0446     		mov	r4, r0
 536              		.loc 2 121 0
 537 0014 FFF7FEFF 		bl	chprintf
 538              	.LVL38:
 539              		.loc 2 122 0
 540 0018 2046     		mov	r0, r4
 541 001a 2A49     		ldr	r1, .L34+12
 542 001c FFF7FEFF 		bl	chprintf
 543              	.LVL39:
 544              		.loc 2 123 0
 545 0020 3DE0     		b	.L32
 546              	.LVL40:
 547              	.L33:
 548              		.loc 2 124 0
 549 0022 FFF7FEFF 		bl	chprintf
 550              	.LVL41:
 551              		.loc 2 126 0
 552 0026 D8E90001 		ldrd	r0, [r8]
 553 002a FFF7FEFF 		bl	__aeabi_d2iz
 554              	.LVL42:
 555 002e B9F90050 		ldrsh	r5, [r9, #0]
 556 0032 2549     		ldr	r1, .L34+16
 557 0034 0346     		mov	r3, r0
 558 0036 2A46     		mov	r2, r5
 559 0038 2046     		mov	r0, r4
 560 003a FFF7FEFF 		bl	chprintf
 561              	.LVL43:
 562              		.loc 2 127 0
 563 003e D6E90001 		ldrd	r0, [r6]
 564 0042 FFF7FEFF 		bl	__aeabi_d2iz
 565              	.LVL44:
 566 0046 B7F90050 		ldrsh	r5, [r7, #0]
 567 004a 2049     		ldr	r1, .L34+20
 568 004c 0346     		mov	r3, r0
 569 004e 2A46     		mov	r2, r5
ARM GAS  C:\Users\DNIEL~1\AppData\Local\Temp\ccjrwhqg.s 			page 11


 570 0050 2046     		mov	r0, r4
 571 0052 FFF7FEFF 		bl	chprintf
 572              	.LVL45:
 573              		.loc 2 128 0
 574 0056 1E48     		ldr	r0, .L34+24
 575 0058 1E49     		ldr	r1, .L34+28
 576 005a B0F90050 		ldrsh	r5, [r0, #0]
 577 005e D1E90001 		ldrd	r0, [r1]
 578 0062 FFF7FEFF 		bl	__aeabi_d2iz
 579              	.LVL46:
 580 0066 1C49     		ldr	r1, .L34+32
 581 0068 0346     		mov	r3, r0
 582 006a 2A46     		mov	r2, r5
 583 006c 2046     		mov	r0, r4
 584 006e FFF7FEFF 		bl	chprintf
 585              	.LVL47:
 586              		.loc 2 129 0
 587 0072 1A4B     		ldr	r3, .L34+36
 588 0074 1A49     		ldr	r1, .L34+40
 589 0076 1A68     		ldr	r2, [r3, #0]
 590 0078 2046     		mov	r0, r4
 591 007a FFF7FEFF 		bl	chprintf
 592              	.LVL48:
 593              		.loc 2 130 0
 594 007e 194A     		ldr	r2, .L34+44
 595 0080 1949     		ldr	r1, .L34+48
 596 0082 1268     		ldr	r2, [r2, #0]
 597 0084 2046     		mov	r0, r4
 598 0086 FFF7FEFF 		bl	chprintf
 599              	.LVL49:
 600              		.loc 2 131 0
 601 008a FFF7FEFF 		bl	speedGetRpm
 602              	.LVL50:
 603 008e 1749     		ldr	r1, .L34+52
 604 0090 0246     		mov	r2, r0
 605 0092 2046     		mov	r0, r4
 606 0094 FFF7FEFF 		bl	chprintf
 607              	.LVL51:
 608              		.loc 2 133 0
 609 0098 6420     		movs	r0, #100
 610 009a FFF7FEFF 		bl	chThdSleep
 611              	.LVL52:
 612              	.L32:
 613              		.loc 2 123 0 discriminator 1
 614 009e 2368     		ldr	r3, [r4, #0]
 615 00a0 0021     		movs	r1, #0
 616 00a2 5A69     		ldr	r2, [r3, #20]
 617 00a4 2046     		mov	r0, r4
 618 00a6 9047     		blx	r2
 619              	.LVL53:
 620              		.loc 2 124 0 discriminator 1
 621 00a8 0022     		movs	r2, #0
 622              		.loc 2 123 0 discriminator 1
 623 00aa 0130     		adds	r0, r0, #1
 624              		.loc 2 124 0 discriminator 1
 625 00ac 1346     		mov	r3, r2
 626 00ae 1049     		ldr	r1, .L34+56
ARM GAS  C:\Users\DNIEL~1\AppData\Local\Temp\ccjrwhqg.s 			page 12


 627 00b0 2046     		mov	r0, r4
 628              		.loc 2 123 0 discriminator 1
 629 00b2 B6D0     		beq	.L33
 630              	.LVL54:
 631              		.loc 2 135 0
 632 00b4 BDE8F883 		pop	{r3, r4, r5, r6, r7, r8, r9, pc}
 633              	.L35:
 634              		.align	2
 635              	.L34:
 636 00b8 00000000 		.word	.LC0
 637 00bc 00000000 		.word	.LANCHOR9
 638 00c0 00000000 		.word	.LANCHOR2
 639 00c4 04000000 		.word	.LC1
 640 00c8 18000000 		.word	.LC3
 641 00cc 30000000 		.word	.LC4
 642 00d0 00000000 		.word	.LANCHOR10
 643 00d4 00000000 		.word	.LANCHOR3
 644 00d8 48000000 		.word	.LC5
 645 00dc 00000000 		.word	.LANCHOR0
 646 00e0 60000000 		.word	.LC6
 647 00e4 00000000 		.word	.LANCHOR6
 648 00e8 6C000000 		.word	.LC7
 649 00ec 7C000000 		.word	.LC8
 650 00f0 0C000000 		.word	.LC2
 651 00f4 00000000 		.word	.LANCHOR8
 652 00f8 00000000 		.word	.LANCHOR1
 653              		.cfi_endproc
 654              	.LFE122:
 655              		.size	cmd_cruisevalues, .-cmd_cruisevalues
 656 00fc AFF30080 		.section	.text.cmd_setcruisevalues,"ax",%progbits
 657              		.align	2
 658              		.p2align 4,,15
 659              		.global	cmd_setcruisevalues
 660              		.thumb
 661              		.thumb_func
 662              		.type	cmd_setcruisevalues, %function
 663              	cmd_setcruisevalues:
 664              	.LFB123:
 665              		.loc 2 137 0
 666              		.cfi_startproc
 667              		@ args = 0, pretend = 0, frame = 0
 668              		@ frame_needed = 0, uses_anonymous_args = 0
 669              	.LVL55:
 670 0000 F8B5     		push	{r3, r4, r5, r6, r7, lr}
 671              	.LCFI9:
 672              		.cfi_def_cfa_offset 24
 673              		.cfi_offset 3, -24
 674              		.cfi_offset 4, -20
 675              		.cfi_offset 5, -16
 676              		.cfi_offset 6, -12
 677              		.cfi_offset 7, -8
 678              		.cfi_offset 14, -4
 679              		.loc 2 137 0
 680 0002 0446     		mov	r4, r0
 681 0004 0D46     		mov	r5, r1
 682              		.loc 2 143 0
 683 0006 5649     		ldr	r1, .L64+8
ARM GAS  C:\Users\DNIEL~1\AppData\Local\Temp\ccjrwhqg.s 			page 13


 684              	.LVL56:
 685              		.loc 2 137 0
 686 0008 1646     		mov	r6, r2
 687              		.loc 2 143 0
 688 000a FFF7FEFF 		bl	chprintf
 689              	.LVL57:
 690              		.loc 2 144 0
 691 000e 2046     		mov	r0, r4
 692 0010 5449     		ldr	r1, .L64+12
 693 0012 FFF7FEFF 		bl	chprintf
 694              	.LVL58:
 695              		.loc 2 145 0
 696 0016 2368     		ldr	r3, [r4, #0]
 697 0018 0021     		movs	r1, #0
 698 001a 2046     		mov	r0, r4
 699 001c 5A69     		ldr	r2, [r3, #20]
 700 001e 9047     		blx	r2
 701              	.LVL59:
 702 0020 0130     		adds	r0, r0, #1
 703 0022 00D0     		beq	.L58
 704 0024 F8BD     		pop	{r3, r4, r5, r6, r7, pc}
 705              	.L58:
 706              		.loc 2 146 0
 707 0026 0022     		movs	r2, #0
 708 0028 2046     		mov	r0, r4
 709 002a 4F49     		ldr	r1, .L64+16
 710 002c 1346     		mov	r3, r2
 711 002e FFF7FEFF 		bl	chprintf
 712              	.LVL60:
 713              		.loc 2 148 0
 714 0032 022D     		cmp	r5, #2
 715 0034 05D0     		beq	.L59
 716              	.LVL61:
 717              	.L38:
 718              	.LDL1:
 719              		.loc 2 199 0
 720 0036 4D49     		ldr	r1, .L64+20
 721 0038 2046     		mov	r0, r4
 722              		.loc 2 204 0
 723 003a BDE8F840 		pop	{r3, r4, r5, r6, r7, lr}
 724              		.loc 2 199 0
 725 003e FFF7FEBF 		b	chprintf
 726              	.LVL62:
 727              	.L59:
 728              		.loc 2 148 0 discriminator 1
 729 0042 3568     		ldr	r5, [r6, #0]
 730              	.LVL63:
 731 0044 4A49     		ldr	r1, .L64+24
 732 0046 2846     		mov	r0, r5
 733 0048 FFF7FEFF 		bl	strcmp
 734              	.LVL64:
 735 004c 0028     		cmp	r0, #0
 736 004e 4CD0     		beq	.L60
 737              	.L39:
 738              		.loc 2 158 0
 739 0050 2846     		mov	r0, r5
 740 0052 4849     		ldr	r1, .L64+28
ARM GAS  C:\Users\DNIEL~1\AppData\Local\Temp\ccjrwhqg.s 			page 14


 741 0054 FFF7FEFF 		bl	strcmp
 742              	.LVL65:
 743 0058 0028     		cmp	r0, #0
 744 005a 3BD0     		beq	.L52
 745              	.L43:
 746              		.loc 2 168 0
 747 005c 2846     		mov	r0, r5
 748 005e 4649     		ldr	r1, .L64+32
 749 0060 FFF7FEFF 		bl	strcmp
 750              	.LVL66:
 751 0064 0028     		cmp	r0, #0
 752 0066 2AD0     		beq	.L53
 753              	.L47:
 754              		.loc 2 178 0
 755 0068 2846     		mov	r0, r5
 756 006a 4449     		ldr	r1, .L64+36
 757 006c FFF7FEFF 		bl	strcmp
 758              	.LVL67:
 759 0070 0028     		cmp	r0, #0
 760 0072 E0D1     		bne	.L38
 761              		.loc 2 179 0
 762 0074 7068     		ldr	r0, [r6, #4]
 763 0076 FFF7FEFF 		bl	atol
 764              	.LVL68:
 765 007a 85B2     		uxth	r5, r0
 766              	.LVL69:
 767              		.loc 2 180 0
 768 007c 28B2     		sxth	r0, r5
 769              	.LVL70:
 770 007e 0028     		cmp	r0, #0
 771 0080 3BDD     		ble	.L61
 772              	.L48:
 773              		.loc 2 181 0
 774 0082 3F4E     		ldr	r6, .L64+40
 775              	.LVL71:
 776 0084 3580     		strh	r5, [r6, #0]	@ movhi
 777              	.L51:
 778              		.loc 2 192 0
 779 0086 3F48     		ldr	r0, .L64+44
 780 0088 3F49     		ldr	r1, .L64+48
 781 008a B0F90020 		ldrsh	r2, [r0, #0]
 782 008e 2046     		mov	r0, r4
 783 0090 FFF7FEFF 		bl	chprintf
 784              	.LVL72:
 785              		.loc 2 193 0
 786 0094 3D4B     		ldr	r3, .L64+52
 787 0096 3E49     		ldr	r1, .L64+56
 788 0098 B3F90020 		ldrsh	r2, [r3, #0]
 789 009c 2046     		mov	r0, r4
 790 009e FFF7FEFF 		bl	chprintf
 791              	.LVL73:
 792              		.loc 2 194 0
 793 00a2 2046     		mov	r0, r4
 794 00a4 B6F90020 		ldrsh	r2, [r6, #0]
 795 00a8 3A49     		ldr	r1, .L64+60
 796 00aa FFF7FEFF 		bl	chprintf
 797              	.LVL74:
ARM GAS  C:\Users\DNIEL~1\AppData\Local\Temp\ccjrwhqg.s 			page 15


 798              		.loc 2 195 0
 799 00ae 3A4A     		ldr	r2, .L64+64
 800 00b0 3A49     		ldr	r1, .L64+68
 801 00b2 1268     		ldr	r2, [r2, #0]
 802 00b4 2046     		mov	r0, r4
 803              		.loc 2 204 0
 804 00b6 BDE8F840 		pop	{r3, r4, r5, r6, r7, lr}
 805              		.loc 2 195 0
 806 00ba FFF7FEBF 		b	chprintf
 807              	.LVL75:
 808              	.L53:
 809              		.loc 2 169 0
 810 00be 7068     		ldr	r0, [r6, #4]
 811 00c0 FFF7FEFF 		bl	atol
 812              	.LVL76:
 813 00c4 87B2     		uxth	r7, r0
 814              	.LVL77:
 815              		.loc 2 170 0
 816 00c6 38B2     		sxth	r0, r7
 817              	.LVL78:
 818 00c8 0028     		cmp	r0, #0
 819 00ca 25DD     		ble	.L62
 820              	.L44:
 821              		.loc 2 171 0
 822 00cc 2F4A     		ldr	r2, .L64+52
 823 00ce 3568     		ldr	r5, [r6, #0]
 824 00d0 1780     		strh	r7, [r2, #0]	@ movhi
 825 00d2 C9E7     		b	.L47
 826              	.LVL79:
 827              	.L52:
 828              		.loc 2 159 0
 829 00d4 7068     		ldr	r0, [r6, #4]
 830 00d6 FFF7FEFF 		bl	atol
 831              	.LVL80:
 832 00da 87B2     		uxth	r7, r0
 833              	.LVL81:
 834              		.loc 2 160 0
 835 00dc 38B2     		sxth	r0, r7
 836              	.LVL82:
 837 00de 0028     		cmp	r0, #0
 838 00e0 29DD     		ble	.L63
 839              	.L40:
 840              		.loc 2 161 0
 841 00e2 284B     		ldr	r3, .L64+44
 842 00e4 3568     		ldr	r5, [r6, #0]
 843 00e6 1F80     		strh	r7, [r3, #0]	@ movhi
 844 00e8 B8E7     		b	.L43
 845              	.LVL83:
 846              	.L60:
 847              		.loc 2 149 0
 848 00ea 7068     		ldr	r0, [r6, #4]
 849 00ec FFF7FEFF 		bl	atol
 850              	.LVL84:
 851              		.loc 2 151 0
 852 00f0 2949     		ldr	r1, .L64+64
 853 00f2 3568     		ldr	r5, [r6, #0]
 854 00f4 00B2     		sxth	r0, r0
ARM GAS  C:\Users\DNIEL~1\AppData\Local\Temp\ccjrwhqg.s 			page 16


 855 00f6 0860     		str	r0, [r1, #0]
 856 00f8 AAE7     		b	.L39
 857              	.LVL85:
 858              	.L61:
 859              		.loc 2 180 0 discriminator 1
 860 00fa FFF7FEFF 		bl	__aeabi_i2d
 861              	.LVL86:
 862 00fe 16A3     		adr	r3, .L64
 863 0100 D3E90023 		ldrd	r2, [r3]
 864 0104 FFF7FEFF 		bl	__aeabi_dcmplt
 865              	.LVL87:
 866 0108 0028     		cmp	r0, #0
 867 010a BAD1     		bne	.L48
 868              		.loc 2 184 0
 869 010c 2046     		mov	r0, r4
 870 010e 2449     		ldr	r1, .L64+72
 871 0110 1B4E     		ldr	r6, .L64+40
 872              	.LVL88:
 873 0112 FFF7FEFF 		bl	chprintf
 874              	.LVL89:
 875 0116 B6E7     		b	.L51
 876              	.LVL90:
 877              	.L62:
 878              		.loc 2 170 0 discriminator 1
 879 0118 FFF7FEFF 		bl	__aeabi_i2d
 880              	.LVL91:
 881 011c 0EA3     		adr	r3, .L64
 882 011e D3E90023 		ldrd	r2, [r3]
 883 0122 FFF7FEFF 		bl	__aeabi_dcmplt
 884              	.LVL92:
 885 0126 0028     		cmp	r0, #0
 886 0128 D0D1     		bne	.L44
 887              		.loc 2 174 0
 888 012a 2046     		mov	r0, r4
 889 012c 1D49     		ldr	r1, .L64+76
 890 012e FFF7FEFF 		bl	chprintf
 891              	.LVL93:
 892 0132 3568     		ldr	r5, [r6, #0]
 893 0134 98E7     		b	.L47
 894              	.L63:
 895              		.loc 2 160 0 discriminator 1
 896 0136 FFF7FEFF 		bl	__aeabi_i2d
 897              	.LVL94:
 898 013a 07A3     		adr	r3, .L64
 899 013c D3E90023 		ldrd	r2, [r3]
 900 0140 FFF7FEFF 		bl	__aeabi_dcmplt
 901              	.LVL95:
 902 0144 0028     		cmp	r0, #0
 903 0146 CCD1     		bne	.L40
 904              		.loc 2 164 0
 905 0148 2046     		mov	r0, r4
 906 014a 1749     		ldr	r1, .L64+80
 907 014c FFF7FEFF 		bl	chprintf
 908              	.LVL96:
 909 0150 3568     		ldr	r5, [r6, #0]
 910 0152 83E7     		b	.L43
 911              	.L65:
ARM GAS  C:\Users\DNIEL~1\AppData\Local\Temp\ccjrwhqg.s 			page 17


 912 0154 AFF30080 		.align	3
 913              	.L64:
 914 0158 00000000 		.word	0
 915 015c 80842E41 		.word	1093567616
 916 0160 00000000 		.word	.LC0
 917 0164 04000000 		.word	.LC1
 918 0168 0C000000 		.word	.LC2
 919 016c 00010000 		.word	.LC16
 920 0170 90000000 		.word	.LC9
 921 0174 1C010000 		.word	.LC17
 922 0178 20010000 		.word	.LC18
 923 017c 24010000 		.word	.LC19
 924 0180 00000000 		.word	.LANCHOR10
 925 0184 00000000 		.word	.LANCHOR8
 926 0188 DC000000 		.word	.LC13
 927 018c 00000000 		.word	.LANCHOR9
 928 0190 E8000000 		.word	.LC14
 929 0194 F4000000 		.word	.LC15
 930 0198 00000000 		.word	.LANCHOR6
 931 019c 6C000000 		.word	.LC7
 932 01a0 C4000000 		.word	.LC12
 933 01a4 AC000000 		.word	.LC11
 934 01a8 94000000 		.word	.LC10
 935              		.cfi_endproc
 936              	.LFE123:
 937              		.size	cmd_setcruisevalues, .-cmd_setcruisevalues
 938 01ac AFF30080 		.section	.bss.P,"aw",%nobits
 939              		.align	3
 940              		.set	.LANCHOR1,. + 0
 941              		.type	P, %object
 942              		.size	P, 8
 943              	P:
 944 0000 00000000 		.space	8
 944      00000000 
 945              		.section	.data.K_D,"aw",%progbits
 946              		.align	1
 947              		.set	.LANCHOR10,. + 0
 948              		.type	K_D, %object
 949              		.size	K_D, 2
 950              	K_D:
 951 0000 F401     		.short	500
 952              		.section	.bss.set,"aw",%nobits
 953              		.align	2
 954              		.set	.LANCHOR6,. + 0
 955              		.type	set, %object
 956              		.size	set, 4
 957              	set:
 958 0000 00000000 		.space	4
 959              		.section	.data.K_I,"aw",%progbits
 960              		.align	1
 961              		.set	.LANCHOR9,. + 0
 962              		.type	K_I, %object
 963              		.size	K_I, 2
 964              	K_I:
 965 0000 0200     		.short	2
 966              		.section	.rodata.str1.4,"aMS",%progbits,1
 967              		.align	2
ARM GAS  C:\Users\DNIEL~1\AppData\Local\Temp\ccjrwhqg.s 			page 18


 968              	.LC0:
 969 0000 1B6300   		.ascii	"\033c\000"
 970 0003 00       		.space	1
 971              	.LC1:
 972 0004 1B5B324A 		.ascii	"\033[2J\000"
 972      00
 973 0009 000000   		.space	3
 974              	.LC2:
 975 000c 1B5B2564 		.ascii	"\033[%d;%dH\000"
 975      3B256448 
 975      00
 976 0015 000000   		.space	3
 977              	.LC3:
 978 0018 4B5F503A 		.ascii	"K_P: %15d - P: %15d\015\012\000"
 978      20253135 
 978      64202D20 
 978      503A2025 
 978      3135640D 
 979 002e 0000     		.space	2
 980              	.LC4:
 981 0030 4B5F493A 		.ascii	"K_I: %15d - I: %15d\015\012\000"
 981      20253135 
 981      64202D20 
 981      493A2025 
 981      3135640D 
 982 0046 0000     		.space	2
 983              	.LC5:
 984 0048 4B5F443A 		.ascii	"K_D: %15d - D: %15d\015\012\000"
 984      20253135 
 984      64202D20 
 984      443A2025 
 984      3135640D 
 985 005e 0000     		.space	2
 986              	.LC6:
 987 0060 70776D3A 		.ascii	"pwm: %15d\015\012\000"
 987      20253135 
 987      640D0A00 
 988              	.LC7:
 989 006c 73657420 		.ascii	"set rpm: %15d\015\012\000"
 989      72706D3A 
 989      20253135 
 989      640D0A00 
 990              	.LC8:
 991 007c 696E7075 		.ascii	"input rpm: %15d\015\012\000"
 991      74207270 
 991      6D3A2025 
 991      3135640D 
 991      0A00
 992 008e 0000     		.space	2
 993              	.LC9:
 994 0090 72706D00 		.ascii	"rpm\000"
 995              	.LC10:
 996 0094 54686973 		.ascii	"This not good K_P!\015\012\000"
 996      206E6F74 
 996      20676F6F 
 996      64204B5F 
 996      50210D0A 
ARM GAS  C:\Users\DNIEL~1\AppData\Local\Temp\ccjrwhqg.s 			page 19


 997 00a9 000000   		.space	3
 998              	.LC11:
 999 00ac 54686973 		.ascii	"This not good K_I!\015\012\000"
 999      206E6F74 
 999      20676F6F 
 999      64204B5F 
 999      49210D0A 
 1000 00c1 000000   		.space	3
 1001              	.LC12:
 1002 00c4 54686973 		.ascii	"This not good K_D!\015\012\000"
 1002      206E6F74 
 1002      20676F6F 
 1002      64204B5F 
 1002      44210D0A 
 1003 00d9 000000   		.space	3
 1004              	.LC13:
 1005 00dc 4B5F503A 		.ascii	"K_P: %15d\015\012\000"
 1005      20253135 
 1005      640D0A00 
 1006              	.LC14:
 1007 00e8 4B5F493A 		.ascii	"K_I: %15d\015\012\000"
 1007      20253135 
 1007      640D0A00 
 1008              	.LC15:
 1009 00f4 4B5F443A 		.ascii	"K_D: %15d\015\012\000"
 1009      20253135 
 1009      640D0A00 
 1010              	.LC16:
 1011 0100 54686973 		.ascii	"This not good command!\015\012\000"
 1011      206E6F74 
 1011      20676F6F 
 1011      6420636F 
 1011      6D6D616E 
 1012 0119 000000   		.space	3
 1013              	.LC17:
 1014 011c 4B5F5000 		.ascii	"K_P\000"
 1015              	.LC18:
 1016 0120 4B5F4900 		.ascii	"K_I\000"
 1017              	.LC19:
 1018 0124 4B5F4400 		.ascii	"K_D\000"
 1019              		.section	.bss.pwm,"aw",%nobits
 1020              		.align	2
 1021              		.set	.LANCHOR0,. + 0
 1022              		.type	pwm, %object
 1023              		.size	pwm, 4
 1024              	pwm:
 1025 0000 00000000 		.space	4
 1026              		.section	.data.cruise_pwmcfg,"aw",%progbits
 1027              		.align	2
 1028              		.set	.LANCHOR7,. + 0
 1029              		.type	cruise_pwmcfg, %object
 1030              		.size	cruise_pwmcfg, 52
 1031              	cruise_pwmcfg:
 1032 0000 80969800 		.word	10000000
 1033 0004 1027     		.short	10000
 1034 0006 0000     		.space	2
 1035 0008 00000000 		.word	0
ARM GAS  C:\Users\DNIEL~1\AppData\Local\Temp\ccjrwhqg.s 			page 20


 1036 000c 00000000 		.word	0
 1037 0010 00000000 		.word	0
 1038 0014 00000000 		.word	0
 1039 0018 00000000 		.word	0
 1040 001c 01000000 		.word	1
 1041 0020 00000000 		.word	0
 1042 0024 00000000 		.word	0
 1043 0028 00000000 		.word	0
 1044 002c 00000000 		.word	0
 1045 0030 00000000 		.word	0
 1046              		.section	.data.K_P,"aw",%progbits
 1047              		.align	1
 1048              		.set	.LANCHOR8,. + 0
 1049              		.type	K_P, %object
 1050              		.size	K_P, 2
 1051              	K_P:
 1052 0000 0500     		.short	5
 1053              		.section	.bss.D,"aw",%nobits
 1054              		.align	3
 1055              		.set	.LANCHOR3,. + 0
 1056              		.type	D, %object
 1057              		.size	D, 8
 1058              	D:
 1059 0000 00000000 		.space	8
 1059      00000000 
 1060              		.section	.bss.e,"aw",%nobits
 1061              		.align	3
 1062              		.set	.LANCHOR5,. + 0
 1063              		.type	e, %object
 1064              		.size	e, 8
 1065              	e:
 1066 0000 00000000 		.space	8
 1066      00000000 
 1067              		.section	.bss.eelozo,"aw",%nobits
 1068              		.align	3
 1069              		.set	.LANCHOR4,. + 0
 1070              		.type	eelozo, %object
 1071              		.size	eelozo, 8
 1072              	eelozo:
 1073 0000 00000000 		.space	8
 1073      00000000 
 1074              		.section	.bss.I,"aw",%nobits
 1075              		.align	3
 1076              		.set	.LANCHOR2,. + 0
 1077              		.type	I, %object
 1078              		.size	I, 8
 1079              	I:
 1080 0000 00000000 		.space	8
 1080      00000000 
 1081              		.text
 1082              	.Letext0:
 1083              		.file 3 "c:\\chibistudio\\tools\\gnu tools arm embedded\\4.7 2014q2\\bin\\../lib/gcc/arm-none-eabi
 1084              		.file 4 "c:\\chibistudio\\tools\\gnu tools arm embedded\\4.7 2014q2\\bin\\../lib/gcc/arm-none-eabi
 1085              		.file 5 "../../../ChibiOS/os/ports/GCC/ARMCMx/chtypes.h"
 1086              		.file 6 "../../../ChibiOS/os/kernel/include/chstreams.h"
 1087              		.file 7 "../../../ChibiOS/os/hal/include/io_channel.h"
 1088              		.file 8 "../../../ChibiOS/os/hal/platforms/STM32/TIMv1/stm32_tim.h"
ARM GAS  C:\Users\DNIEL~1\AppData\Local\Temp\ccjrwhqg.s 			page 21


 1089              		.file 9 "../../../ChibiOS/os/hal/include/pwm.h"
 1090              		.file 10 "../../../ChibiOS/os/hal/platforms/STM32/TIMv1/pwm_lld.h"
 1091              		.file 11 "c:\\chibistudio\\tools\\gnu tools arm embedded\\4.7 2014q2\\bin\\../lib/gcc/arm-none-eab
 1092              		.file 12 "<built-in>"
 1093              		.file 13 "../../../ChibiOS/os/ports/common/ARMCMx/CMSIS/include/core_cm4.h"
 1094              		.file 14 "../../../ChibiOS/os/kernel/include/chthreads.h"
 1095              		.file 15 "c:\\chibistudio\\tools\\gnu tools arm embedded\\4.7 2014q2\\bin\\../lib/gcc/arm-none-eab
 1096              		.file 16 "include/speed.h"
 1097              		.file 17 "c:\\chibistudio\\tools\\gnu tools arm embedded\\4.7 2014q2\\bin\\../lib/gcc/arm-none-eab
 1098              		.section	.debug_info,"",%progbits
 1099              	.Ldebug_info0:
 1100 0000 BA0D0000 		.4byte	0xdba
 1101 0004 0200     		.2byte	0x2
 1102 0006 00000000 		.4byte	.Ldebug_abbrev0
 1103 000a 04       		.byte	0x4
 1104 000b 01       		.uleb128 0x1
 1105 000c 0B020000 		.4byte	.LASF92
 1106 0010 01       		.byte	0x1
 1107 0011 59020000 		.4byte	.LASF93
 1108 0015 4B030000 		.4byte	.LASF94
 1109 0019 00000000 		.4byte	.Ldebug_ranges0+0
 1110 001d 00000000 		.4byte	0
 1111 0021 00000000 		.4byte	0
 1112 0025 00000000 		.4byte	.Ldebug_line0
 1113 0029 02       		.uleb128 0x2
 1114 002a 01       		.byte	0x1
 1115 002b 06       		.byte	0x6
 1116 002c CB000000 		.4byte	.LASF0
 1117 0030 02       		.uleb128 0x2
 1118 0031 01       		.byte	0x1
 1119 0032 08       		.byte	0x8
 1120 0033 85020000 		.4byte	.LASF1
 1121 0037 02       		.uleb128 0x2
 1122 0038 02       		.byte	0x2
 1123 0039 05       		.byte	0x5
 1124 003a A3020000 		.4byte	.LASF2
 1125 003e 02       		.uleb128 0x2
 1126 003f 02       		.byte	0x2
 1127 0040 07       		.byte	0x7
 1128 0041 86010000 		.4byte	.LASF3
 1129 0045 03       		.uleb128 0x3
 1130 0046 04       		.byte	0x4
 1131 0047 05       		.byte	0x5
 1132 0048 696E7400 		.ascii	"int\000"
 1133 004c 02       		.uleb128 0x2
 1134 004d 04       		.byte	0x4
 1135 004e 07       		.byte	0x7
 1136 004f 44010000 		.4byte	.LASF4
 1137 0053 02       		.uleb128 0x2
 1138 0054 08       		.byte	0x8
 1139 0055 05       		.byte	0x5
 1140 0056 BD000000 		.4byte	.LASF5
 1141 005a 02       		.uleb128 0x2
 1142 005b 08       		.byte	0x8
 1143 005c 07       		.byte	0x7
 1144 005d 4E000000 		.4byte	.LASF6
 1145 0061 02       		.uleb128 0x2
ARM GAS  C:\Users\DNIEL~1\AppData\Local\Temp\ccjrwhqg.s 			page 22


 1146 0062 04       		.byte	0x4
 1147 0063 05       		.byte	0x5
 1148 0064 F2000000 		.4byte	.LASF7
 1149 0068 02       		.uleb128 0x2
 1150 0069 04       		.byte	0x4
 1151 006a 07       		.byte	0x7
 1152 006b ED010000 		.4byte	.LASF8
 1153 006f 04       		.uleb128 0x4
 1154 0070 04       		.byte	0x4
 1155 0071 02       		.uleb128 0x2
 1156 0072 04       		.byte	0x4
 1157 0073 07       		.byte	0x7
 1158 0074 51010000 		.4byte	.LASF9
 1159 0078 05       		.uleb128 0x5
 1160 0079 04       		.byte	0x4
 1161 007a 7E000000 		.4byte	0x7e
 1162 007e 02       		.uleb128 0x2
 1163 007f 01       		.byte	0x1
 1164 0080 08       		.byte	0x8
 1165 0081 FE020000 		.4byte	.LASF10
 1166 0085 05       		.uleb128 0x5
 1167 0086 04       		.byte	0x4
 1168 0087 8B000000 		.4byte	0x8b
 1169 008b 06       		.uleb128 0x6
 1170 008c 7E000000 		.4byte	0x7e
 1171 0090 07       		.uleb128 0x7
 1172 0091 24000000 		.4byte	.LASF11
 1173 0095 03       		.byte	0x3
 1174 0096 D5       		.byte	0xd5
 1175 0097 4C000000 		.4byte	0x4c
 1176 009b 07       		.uleb128 0x7
 1177 009c 76030000 		.4byte	.LASF12
 1178 00a0 04       		.byte	0x4
 1179 00a1 2A       		.byte	0x2a
 1180 00a2 30000000 		.4byte	0x30
 1181 00a6 07       		.uleb128 0x7
 1182 00a7 AF000000 		.4byte	.LASF13
 1183 00ab 04       		.byte	0x4
 1184 00ac 35       		.byte	0x35
 1185 00ad 37000000 		.4byte	0x37
 1186 00b1 07       		.uleb128 0x7
 1187 00b2 0F010000 		.4byte	.LASF14
 1188 00b6 04       		.byte	0x4
 1189 00b7 36       		.byte	0x36
 1190 00b8 3E000000 		.4byte	0x3e
 1191 00bc 07       		.uleb128 0x7
 1192 00bd E5010000 		.4byte	.LASF15
 1193 00c1 04       		.byte	0x4
 1194 00c2 4F       		.byte	0x4f
 1195 00c3 61000000 		.4byte	0x61
 1196 00c7 07       		.uleb128 0x7
 1197 00c8 E2020000 		.4byte	.LASF16
 1198 00cc 04       		.byte	0x4
 1199 00cd 50       		.byte	0x50
 1200 00ce 71000000 		.4byte	0x71
 1201 00d2 02       		.uleb128 0x2
 1202 00d3 01       		.byte	0x1
ARM GAS  C:\Users\DNIEL~1\AppData\Local\Temp\ccjrwhqg.s 			page 23


 1203 00d4 02       		.byte	0x2
 1204 00d5 7A020000 		.4byte	.LASF17
 1205 00d9 07       		.uleb128 0x7
 1206 00da B2010000 		.4byte	.LASF18
 1207 00de 05       		.byte	0x5
 1208 00df 31       		.byte	0x31
 1209 00e0 BC000000 		.4byte	0xbc
 1210 00e4 07       		.uleb128 0x7
 1211 00e5 19030000 		.4byte	.LASF19
 1212 00e9 05       		.byte	0x5
 1213 00ea 35       		.byte	0x35
 1214 00eb C7000000 		.4byte	0xc7
 1215 00ef 08       		.uleb128 0x8
 1216 00f0 C7000000 		.4byte	0xc7
 1217 00f4 05       		.uleb128 0x5
 1218 00f5 04       		.byte	0x4
 1219 00f6 FA000000 		.4byte	0xfa
 1220 00fa 09       		.uleb128 0x9
 1221 00fb 01       		.byte	0x1
 1222 00fc D9000000 		.4byte	0xd9
 1223 0100 0A010000 		.4byte	0x10a
 1224 0104 0A       		.uleb128 0xa
 1225 0105 6F000000 		.4byte	0x6f
 1226 0109 00       		.byte	0
 1227 010a 05       		.uleb128 0x5
 1228 010b 04       		.byte	0x4
 1229 010c 9B000000 		.4byte	0x9b
 1230 0110 0B       		.uleb128 0xb
 1231 0111 AD020000 		.4byte	.LASF23
 1232 0115 10       		.byte	0x10
 1233 0116 06       		.byte	0x6
 1234 0117 48       		.byte	0x48
 1235 0118 55010000 		.4byte	0x155
 1236 011c 0C       		.uleb128 0xc
 1237 011d DA010000 		.4byte	.LASF20
 1238 0121 06       		.byte	0x6
 1239 0122 49       		.byte	0x49
 1240 0123 7A010000 		.4byte	0x17a
 1241 0127 02       		.byte	0x2
 1242 0128 23       		.byte	0x23
 1243 0129 00       		.uleb128 0
 1244 012a 0C       		.uleb128 0xc
 1245 012b A8030000 		.4byte	.LASF21
 1246 012f 06       		.byte	0x6
 1247 0130 49       		.byte	0x49
 1248 0131 9A010000 		.4byte	0x19a
 1249 0135 02       		.byte	0x2
 1250 0136 23       		.byte	0x23
 1251 0137 04       		.uleb128 0x4
 1252 0138 0D       		.uleb128 0xd
 1253 0139 70757400 		.ascii	"put\000"
 1254 013d 06       		.byte	0x6
 1255 013e 49       		.byte	0x49
 1256 013f B5010000 		.4byte	0x1b5
 1257 0143 02       		.byte	0x2
 1258 0144 23       		.byte	0x23
 1259 0145 08       		.uleb128 0x8
ARM GAS  C:\Users\DNIEL~1\AppData\Local\Temp\ccjrwhqg.s 			page 24


 1260 0146 0D       		.uleb128 0xd
 1261 0147 67657400 		.ascii	"get\000"
 1262 014b 06       		.byte	0x6
 1263 014c 49       		.byte	0x49
 1264 014d F4000000 		.4byte	0xf4
 1265 0151 02       		.byte	0x2
 1266 0152 23       		.byte	0x23
 1267 0153 0C       		.uleb128 0xc
 1268 0154 00       		.byte	0
 1269 0155 09       		.uleb128 0x9
 1270 0156 01       		.byte	0x1
 1271 0157 90000000 		.4byte	0x90
 1272 015b 6F010000 		.4byte	0x16f
 1273 015f 0A       		.uleb128 0xa
 1274 0160 6F000000 		.4byte	0x6f
 1275 0164 0A       		.uleb128 0xa
 1276 0165 6F010000 		.4byte	0x16f
 1277 0169 0A       		.uleb128 0xa
 1278 016a 90000000 		.4byte	0x90
 1279 016e 00       		.byte	0
 1280 016f 05       		.uleb128 0x5
 1281 0170 04       		.byte	0x4
 1282 0171 75010000 		.4byte	0x175
 1283 0175 06       		.uleb128 0x6
 1284 0176 9B000000 		.4byte	0x9b
 1285 017a 05       		.uleb128 0x5
 1286 017b 04       		.byte	0x4
 1287 017c 55010000 		.4byte	0x155
 1288 0180 09       		.uleb128 0x9
 1289 0181 01       		.byte	0x1
 1290 0182 90000000 		.4byte	0x90
 1291 0186 9A010000 		.4byte	0x19a
 1292 018a 0A       		.uleb128 0xa
 1293 018b 6F000000 		.4byte	0x6f
 1294 018f 0A       		.uleb128 0xa
 1295 0190 0A010000 		.4byte	0x10a
 1296 0194 0A       		.uleb128 0xa
 1297 0195 90000000 		.4byte	0x90
 1298 0199 00       		.byte	0
 1299 019a 05       		.uleb128 0x5
 1300 019b 04       		.byte	0x4
 1301 019c 80010000 		.4byte	0x180
 1302 01a0 09       		.uleb128 0x9
 1303 01a1 01       		.byte	0x1
 1304 01a2 D9000000 		.4byte	0xd9
 1305 01a6 B5010000 		.4byte	0x1b5
 1306 01aa 0A       		.uleb128 0xa
 1307 01ab 6F000000 		.4byte	0x6f
 1308 01af 0A       		.uleb128 0xa
 1309 01b0 9B000000 		.4byte	0x9b
 1310 01b4 00       		.byte	0
 1311 01b5 05       		.uleb128 0x5
 1312 01b6 04       		.byte	0x4
 1313 01b7 A0010000 		.4byte	0x1a0
 1314 01bb 0E       		.uleb128 0xe
 1315 01bc 04       		.byte	0x4
 1316 01bd 06       		.byte	0x6
ARM GAS  C:\Users\DNIEL~1\AppData\Local\Temp\ccjrwhqg.s 			page 25


 1317 01be 51       		.byte	0x51
 1318 01bf D2010000 		.4byte	0x1d2
 1319 01c3 0D       		.uleb128 0xd
 1320 01c4 766D7400 		.ascii	"vmt\000"
 1321 01c8 06       		.byte	0x6
 1322 01c9 53       		.byte	0x53
 1323 01ca D2010000 		.4byte	0x1d2
 1324 01ce 02       		.byte	0x2
 1325 01cf 23       		.byte	0x23
 1326 01d0 00       		.uleb128 0
 1327 01d1 00       		.byte	0
 1328 01d2 05       		.uleb128 0x5
 1329 01d3 04       		.byte	0x4
 1330 01d4 D8010000 		.4byte	0x1d8
 1331 01d8 06       		.uleb128 0x6
 1332 01d9 10010000 		.4byte	0x110
 1333 01dd 07       		.uleb128 0x7
 1334 01de 2F010000 		.4byte	.LASF22
 1335 01e2 06       		.byte	0x6
 1336 01e3 55       		.byte	0x55
 1337 01e4 BB010000 		.4byte	0x1bb
 1338 01e8 0F       		.uleb128 0xf
 1339 01e9 C7000000 		.4byte	0xc7
 1340 01ed F8010000 		.4byte	0x1f8
 1341 01f1 10       		.uleb128 0x10
 1342 01f2 68000000 		.4byte	0x68
 1343 01f6 03       		.byte	0x3
 1344 01f7 00       		.byte	0
 1345 01f8 08       		.uleb128 0x8
 1346 01f9 BC000000 		.4byte	0xbc
 1347 01fd 0B       		.uleb128 0xb
 1348 01fe 65000000 		.4byte	.LASF24
 1349 0202 20       		.byte	0x20
 1350 0203 07       		.byte	0x7
 1351 0204 4E       		.byte	0x4e
 1352 0205 7A020000 		.4byte	0x27a
 1353 0209 0C       		.uleb128 0xc
 1354 020a DA010000 		.4byte	.LASF20
 1355 020e 07       		.byte	0x7
 1356 020f 4F       		.byte	0x4f
 1357 0210 7A010000 		.4byte	0x17a
 1358 0214 02       		.byte	0x2
 1359 0215 23       		.byte	0x23
 1360 0216 00       		.uleb128 0
 1361 0217 0C       		.uleb128 0xc
 1362 0218 A8030000 		.4byte	.LASF21
 1363 021c 07       		.byte	0x7
 1364 021d 4F       		.byte	0x4f
 1365 021e 9A010000 		.4byte	0x19a
 1366 0222 02       		.byte	0x2
 1367 0223 23       		.byte	0x23
 1368 0224 04       		.uleb128 0x4
 1369 0225 0D       		.uleb128 0xd
 1370 0226 70757400 		.ascii	"put\000"
 1371 022a 07       		.byte	0x7
 1372 022b 4F       		.byte	0x4f
 1373 022c B5010000 		.4byte	0x1b5
ARM GAS  C:\Users\DNIEL~1\AppData\Local\Temp\ccjrwhqg.s 			page 26


 1374 0230 02       		.byte	0x2
 1375 0231 23       		.byte	0x23
 1376 0232 08       		.uleb128 0x8
 1377 0233 0D       		.uleb128 0xd
 1378 0234 67657400 		.ascii	"get\000"
 1379 0238 07       		.byte	0x7
 1380 0239 4F       		.byte	0x4f
 1381 023a F4000000 		.4byte	0xf4
 1382 023e 02       		.byte	0x2
 1383 023f 23       		.byte	0x23
 1384 0240 0C       		.uleb128 0xc
 1385 0241 0C       		.uleb128 0xc
 1386 0242 E0010000 		.4byte	.LASF25
 1387 0246 07       		.byte	0x7
 1388 0247 4F       		.byte	0x4f
 1389 0248 94020000 		.4byte	0x294
 1390 024c 02       		.byte	0x2
 1391 024d 23       		.byte	0x23
 1392 024e 10       		.uleb128 0x10
 1393 024f 0C       		.uleb128 0xc
 1394 0250 FB000000 		.4byte	.LASF26
 1395 0254 07       		.byte	0x7
 1396 0255 4F       		.byte	0x4f
 1397 0256 AF020000 		.4byte	0x2af
 1398 025a 02       		.byte	0x2
 1399 025b 23       		.byte	0x23
 1400 025c 14       		.uleb128 0x14
 1401 025d 0C       		.uleb128 0xc
 1402 025e C7010000 		.4byte	.LASF27
 1403 0262 07       		.byte	0x7
 1404 0263 4F       		.byte	0x4f
 1405 0264 D4020000 		.4byte	0x2d4
 1406 0268 02       		.byte	0x2
 1407 0269 23       		.byte	0x23
 1408 026a 18       		.uleb128 0x18
 1409 026b 0C       		.uleb128 0xc
 1410 026c 9F000000 		.4byte	.LASF28
 1411 0270 07       		.byte	0x7
 1412 0271 4F       		.byte	0x4f
 1413 0272 F9020000 		.4byte	0x2f9
 1414 0276 02       		.byte	0x2
 1415 0277 23       		.byte	0x23
 1416 0278 1C       		.uleb128 0x1c
 1417 0279 00       		.byte	0
 1418 027a 09       		.uleb128 0x9
 1419 027b 01       		.byte	0x1
 1420 027c D9000000 		.4byte	0xd9
 1421 0280 94020000 		.4byte	0x294
 1422 0284 0A       		.uleb128 0xa
 1423 0285 6F000000 		.4byte	0x6f
 1424 0289 0A       		.uleb128 0xa
 1425 028a 9B000000 		.4byte	0x9b
 1426 028e 0A       		.uleb128 0xa
 1427 028f E4000000 		.4byte	0xe4
 1428 0293 00       		.byte	0
 1429 0294 05       		.uleb128 0x5
 1430 0295 04       		.byte	0x4
ARM GAS  C:\Users\DNIEL~1\AppData\Local\Temp\ccjrwhqg.s 			page 27


 1431 0296 7A020000 		.4byte	0x27a
 1432 029a 09       		.uleb128 0x9
 1433 029b 01       		.byte	0x1
 1434 029c D9000000 		.4byte	0xd9
 1435 02a0 AF020000 		.4byte	0x2af
 1436 02a4 0A       		.uleb128 0xa
 1437 02a5 6F000000 		.4byte	0x6f
 1438 02a9 0A       		.uleb128 0xa
 1439 02aa E4000000 		.4byte	0xe4
 1440 02ae 00       		.byte	0
 1441 02af 05       		.uleb128 0x5
 1442 02b0 04       		.byte	0x4
 1443 02b1 9A020000 		.4byte	0x29a
 1444 02b5 09       		.uleb128 0x9
 1445 02b6 01       		.byte	0x1
 1446 02b7 90000000 		.4byte	0x90
 1447 02bb D4020000 		.4byte	0x2d4
 1448 02bf 0A       		.uleb128 0xa
 1449 02c0 6F000000 		.4byte	0x6f
 1450 02c4 0A       		.uleb128 0xa
 1451 02c5 6F010000 		.4byte	0x16f
 1452 02c9 0A       		.uleb128 0xa
 1453 02ca 90000000 		.4byte	0x90
 1454 02ce 0A       		.uleb128 0xa
 1455 02cf E4000000 		.4byte	0xe4
 1456 02d3 00       		.byte	0
 1457 02d4 05       		.uleb128 0x5
 1458 02d5 04       		.byte	0x4
 1459 02d6 B5020000 		.4byte	0x2b5
 1460 02da 09       		.uleb128 0x9
 1461 02db 01       		.byte	0x1
 1462 02dc 90000000 		.4byte	0x90
 1463 02e0 F9020000 		.4byte	0x2f9
 1464 02e4 0A       		.uleb128 0xa
 1465 02e5 6F000000 		.4byte	0x6f
 1466 02e9 0A       		.uleb128 0xa
 1467 02ea 0A010000 		.4byte	0x10a
 1468 02ee 0A       		.uleb128 0xa
 1469 02ef 90000000 		.4byte	0x90
 1470 02f3 0A       		.uleb128 0xa
 1471 02f4 E4000000 		.4byte	0xe4
 1472 02f8 00       		.byte	0
 1473 02f9 05       		.uleb128 0x5
 1474 02fa 04       		.byte	0x4
 1475 02fb DA020000 		.4byte	0x2da
 1476 02ff 0E       		.uleb128 0xe
 1477 0300 04       		.byte	0x4
 1478 0301 07       		.byte	0x7
 1479 0302 59       		.byte	0x59
 1480 0303 16030000 		.4byte	0x316
 1481 0307 0D       		.uleb128 0xd
 1482 0308 766D7400 		.ascii	"vmt\000"
 1483 030c 07       		.byte	0x7
 1484 030d 5B       		.byte	0x5b
 1485 030e 16030000 		.4byte	0x316
 1486 0312 02       		.byte	0x2
 1487 0313 23       		.byte	0x23
ARM GAS  C:\Users\DNIEL~1\AppData\Local\Temp\ccjrwhqg.s 			page 28


 1488 0314 00       		.uleb128 0
 1489 0315 00       		.byte	0
 1490 0316 05       		.uleb128 0x5
 1491 0317 04       		.byte	0x4
 1492 0318 1C030000 		.4byte	0x31c
 1493 031c 06       		.uleb128 0x6
 1494 031d FD010000 		.4byte	0x1fd
 1495 0321 07       		.uleb128 0x7
 1496 0322 88030000 		.4byte	.LASF29
 1497 0326 07       		.byte	0x7
 1498 0327 5D       		.byte	0x5d
 1499 0328 FF020000 		.4byte	0x2ff
 1500 032c 11       		.uleb128 0x11
 1501 032d 60       		.byte	0x60
 1502 032e 08       		.byte	0x8
 1503 032f 9E01     		.2byte	0x19e
 1504 0331 6F040000 		.4byte	0x46f
 1505 0335 12       		.uleb128 0x12
 1506 0336 43523100 		.ascii	"CR1\000"
 1507 033a 08       		.byte	0x8
 1508 033b 9F01     		.2byte	0x19f
 1509 033d EF000000 		.4byte	0xef
 1510 0341 02       		.byte	0x2
 1511 0342 23       		.byte	0x23
 1512 0343 00       		.uleb128 0
 1513 0344 12       		.uleb128 0x12
 1514 0345 43523200 		.ascii	"CR2\000"
 1515 0349 08       		.byte	0x8
 1516 034a A001     		.2byte	0x1a0
 1517 034c EF000000 		.4byte	0xef
 1518 0350 02       		.byte	0x2
 1519 0351 23       		.byte	0x23
 1520 0352 04       		.uleb128 0x4
 1521 0353 13       		.uleb128 0x13
 1522 0354 08030000 		.4byte	.LASF30
 1523 0358 08       		.byte	0x8
 1524 0359 A101     		.2byte	0x1a1
 1525 035b EF000000 		.4byte	0xef
 1526 035f 02       		.byte	0x2
 1527 0360 23       		.byte	0x23
 1528 0361 08       		.uleb128 0x8
 1529 0362 13       		.uleb128 0x13
 1530 0363 1F000000 		.4byte	.LASF31
 1531 0367 08       		.byte	0x8
 1532 0368 A201     		.2byte	0x1a2
 1533 036a EF000000 		.4byte	0xef
 1534 036e 02       		.byte	0x2
 1535 036f 23       		.byte	0x23
 1536 0370 0C       		.uleb128 0xc
 1537 0371 12       		.uleb128 0x12
 1538 0372 535200   		.ascii	"SR\000"
 1539 0375 08       		.byte	0x8
 1540 0376 A301     		.2byte	0x1a3
 1541 0378 EF000000 		.4byte	0xef
 1542 037c 02       		.byte	0x2
 1543 037d 23       		.byte	0x23
 1544 037e 10       		.uleb128 0x10
ARM GAS  C:\Users\DNIEL~1\AppData\Local\Temp\ccjrwhqg.s 			page 29


 1545 037f 12       		.uleb128 0x12
 1546 0380 45475200 		.ascii	"EGR\000"
 1547 0384 08       		.byte	0x8
 1548 0385 A401     		.2byte	0x1a4
 1549 0387 EF000000 		.4byte	0xef
 1550 038b 02       		.byte	0x2
 1551 038c 23       		.byte	0x23
 1552 038d 14       		.uleb128 0x14
 1553 038e 13       		.uleb128 0x13
 1554 038f 28030000 		.4byte	.LASF32
 1555 0393 08       		.byte	0x8
 1556 0394 A501     		.2byte	0x1a5
 1557 0396 EF000000 		.4byte	0xef
 1558 039a 02       		.byte	0x2
 1559 039b 23       		.byte	0x23
 1560 039c 18       		.uleb128 0x18
 1561 039d 13       		.uleb128 0x13
 1562 039e B7000000 		.4byte	.LASF33
 1563 03a2 08       		.byte	0x8
 1564 03a3 A601     		.2byte	0x1a6
 1565 03a5 EF000000 		.4byte	0xef
 1566 03a9 02       		.byte	0x2
 1567 03aa 23       		.byte	0x23
 1568 03ab 1C       		.uleb128 0x1c
 1569 03ac 13       		.uleb128 0x13
 1570 03ad 0A010000 		.4byte	.LASF34
 1571 03b1 08       		.byte	0x8
 1572 03b2 A701     		.2byte	0x1a7
 1573 03b4 EF000000 		.4byte	0xef
 1574 03b8 02       		.byte	0x2
 1575 03b9 23       		.byte	0x23
 1576 03ba 20       		.uleb128 0x20
 1577 03bb 12       		.uleb128 0x12
 1578 03bc 434E5400 		.ascii	"CNT\000"
 1579 03c0 08       		.byte	0x8
 1580 03c1 A801     		.2byte	0x1a8
 1581 03c3 EF000000 		.4byte	0xef
 1582 03c7 02       		.byte	0x2
 1583 03c8 23       		.byte	0x23
 1584 03c9 24       		.uleb128 0x24
 1585 03ca 12       		.uleb128 0x12
 1586 03cb 50534300 		.ascii	"PSC\000"
 1587 03cf 08       		.byte	0x8
 1588 03d0 A901     		.2byte	0x1a9
 1589 03d2 EF000000 		.4byte	0xef
 1590 03d6 02       		.byte	0x2
 1591 03d7 23       		.byte	0x23
 1592 03d8 28       		.uleb128 0x28
 1593 03d9 12       		.uleb128 0x12
 1594 03da 41525200 		.ascii	"ARR\000"
 1595 03de 08       		.byte	0x8
 1596 03df AA01     		.2byte	0x1aa
 1597 03e1 EF000000 		.4byte	0xef
 1598 03e5 02       		.byte	0x2
 1599 03e6 23       		.byte	0x23
 1600 03e7 2C       		.uleb128 0x2c
 1601 03e8 12       		.uleb128 0x12
ARM GAS  C:\Users\DNIEL~1\AppData\Local\Temp\ccjrwhqg.s 			page 30


 1602 03e9 52435200 		.ascii	"RCR\000"
 1603 03ed 08       		.byte	0x8
 1604 03ee AB01     		.2byte	0x1ab
 1605 03f0 EF000000 		.4byte	0xef
 1606 03f4 02       		.byte	0x2
 1607 03f5 23       		.byte	0x23
 1608 03f6 30       		.uleb128 0x30
 1609 03f7 12       		.uleb128 0x12
 1610 03f8 43435200 		.ascii	"CCR\000"
 1611 03fc 08       		.byte	0x8
 1612 03fd AC01     		.2byte	0x1ac
 1613 03ff 6F040000 		.4byte	0x46f
 1614 0403 02       		.byte	0x2
 1615 0404 23       		.byte	0x23
 1616 0405 34       		.uleb128 0x34
 1617 0406 13       		.uleb128 0x13
 1618 0407 86000000 		.4byte	.LASF35
 1619 040b 08       		.byte	0x8
 1620 040c AD01     		.2byte	0x1ad
 1621 040e EF000000 		.4byte	0xef
 1622 0412 02       		.byte	0x2
 1623 0413 23       		.byte	0x23
 1624 0414 44       		.uleb128 0x44
 1625 0415 12       		.uleb128 0x12
 1626 0416 44435200 		.ascii	"DCR\000"
 1627 041a 08       		.byte	0x8
 1628 041b AE01     		.2byte	0x1ae
 1629 041d EF000000 		.4byte	0xef
 1630 0421 02       		.byte	0x2
 1631 0422 23       		.byte	0x23
 1632 0423 48       		.uleb128 0x48
 1633 0424 13       		.uleb128 0x13
 1634 0425 14030000 		.4byte	.LASF36
 1635 0429 08       		.byte	0x8
 1636 042a AF01     		.2byte	0x1af
 1637 042c EF000000 		.4byte	0xef
 1638 0430 02       		.byte	0x2
 1639 0431 23       		.byte	0x23
 1640 0432 4C       		.uleb128 0x4c
 1641 0433 12       		.uleb128 0x12
 1642 0434 4F5200   		.ascii	"OR\000"
 1643 0437 08       		.byte	0x8
 1644 0438 B001     		.2byte	0x1b0
 1645 043a EF000000 		.4byte	0xef
 1646 043e 02       		.byte	0x2
 1647 043f 23       		.byte	0x23
 1648 0440 50       		.uleb128 0x50
 1649 0441 13       		.uleb128 0x13
 1650 0442 41000000 		.4byte	.LASF37
 1651 0446 08       		.byte	0x8
 1652 0447 B101     		.2byte	0x1b1
 1653 0449 EF000000 		.4byte	0xef
 1654 044d 02       		.byte	0x2
 1655 044e 23       		.byte	0x23
 1656 044f 54       		.uleb128 0x54
 1657 0450 13       		.uleb128 0x13
 1658 0451 3F030000 		.4byte	.LASF38
ARM GAS  C:\Users\DNIEL~1\AppData\Local\Temp\ccjrwhqg.s 			page 31


 1659 0455 08       		.byte	0x8
 1660 0456 B201     		.2byte	0x1b2
 1661 0458 EF000000 		.4byte	0xef
 1662 045c 02       		.byte	0x2
 1663 045d 23       		.byte	0x23
 1664 045e 58       		.uleb128 0x58
 1665 045f 13       		.uleb128 0x13
 1666 0460 74000000 		.4byte	.LASF39
 1667 0464 08       		.byte	0x8
 1668 0465 B301     		.2byte	0x1b3
 1669 0467 EF000000 		.4byte	0xef
 1670 046b 02       		.byte	0x2
 1671 046c 23       		.byte	0x23
 1672 046d 5C       		.uleb128 0x5c
 1673 046e 00       		.byte	0
 1674 046f 08       		.uleb128 0x8
 1675 0470 E8010000 		.4byte	0x1e8
 1676 0474 14       		.uleb128 0x14
 1677 0475 D7000000 		.4byte	.LASF40
 1678 0479 08       		.byte	0x8
 1679 047a B401     		.2byte	0x1b4
 1680 047c 2C030000 		.4byte	0x32c
 1681 0480 05       		.uleb128 0x5
 1682 0481 04       		.byte	0x4
 1683 0482 74040000 		.4byte	0x474
 1684 0486 15       		.uleb128 0x15
 1685 0487 01       		.byte	0x1
 1686 0488 09       		.byte	0x9
 1687 0489 55       		.byte	0x55
 1688 048a A1040000 		.4byte	0x4a1
 1689 048e 16       		.uleb128 0x16
 1690 048f DD030000 		.4byte	.LASF41
 1691 0493 00       		.sleb128 0
 1692 0494 16       		.uleb128 0x16
 1693 0495 F5020000 		.4byte	.LASF42
 1694 0499 01       		.sleb128 1
 1695 049a 16       		.uleb128 0x16
 1696 049b 95000000 		.4byte	.LASF43
 1697 049f 02       		.sleb128 2
 1698 04a0 00       		.byte	0
 1699 04a1 07       		.uleb128 0x7
 1700 04a2 94030000 		.4byte	.LASF44
 1701 04a6 09       		.byte	0x9
 1702 04a7 59       		.byte	0x59
 1703 04a8 86040000 		.4byte	0x486
 1704 04ac 07       		.uleb128 0x7
 1705 04ad A5000000 		.4byte	.LASF45
 1706 04b1 09       		.byte	0x9
 1707 04b2 5E       		.byte	0x5e
 1708 04b3 B7040000 		.4byte	0x4b7
 1709 04b7 17       		.uleb128 0x17
 1710 04b8 A5000000 		.4byte	.LASF45
 1711 04bc 14       		.byte	0x14
 1712 04bd 0A       		.byte	0xa
 1713 04be 6F01     		.2byte	0x16f
 1714 04c0 10050000 		.4byte	0x510
 1715 04c4 13       		.uleb128 0x13
ARM GAS  C:\Users\DNIEL~1\AppData\Local\Temp\ccjrwhqg.s 			page 32


 1716 04c5 E3000000 		.4byte	.LASF46
 1717 04c9 0A       		.byte	0xa
 1718 04ca 7301     		.2byte	0x173
 1719 04cc A1040000 		.4byte	0x4a1
 1720 04d0 02       		.byte	0x2
 1721 04d1 23       		.byte	0x23
 1722 04d2 00       		.uleb128 0
 1723 04d3 13       		.uleb128 0x13
 1724 04d4 0D030000 		.4byte	.LASF47
 1725 04d8 0A       		.byte	0xa
 1726 04d9 7701     		.2byte	0x177
 1727 04db 0B060000 		.4byte	0x60b
 1728 04df 02       		.byte	0x2
 1729 04e0 23       		.byte	0x23
 1730 04e1 04       		.uleb128 0x4
 1731 04e2 13       		.uleb128 0x13
 1732 04e3 47000000 		.4byte	.LASF48
 1733 04e7 0A       		.byte	0xa
 1734 04e8 7B01     		.2byte	0x17b
 1735 04ea 4B050000 		.4byte	0x54b
 1736 04ee 02       		.byte	0x2
 1737 04ef 23       		.byte	0x23
 1738 04f0 08       		.uleb128 0x8
 1739 04f1 13       		.uleb128 0x13
 1740 04f2 C8030000 		.4byte	.LASF49
 1741 04f6 0A       		.byte	0xa
 1742 04f7 8301     		.2byte	0x183
 1743 04f9 C7000000 		.4byte	0xc7
 1744 04fd 02       		.byte	0x2
 1745 04fe 23       		.byte	0x23
 1746 04ff 0C       		.uleb128 0xc
 1747 0500 12       		.uleb128 0x12
 1748 0501 74696D00 		.ascii	"tim\000"
 1749 0505 0A       		.byte	0xa
 1750 0506 8701     		.2byte	0x187
 1751 0508 80040000 		.4byte	0x480
 1752 050c 02       		.byte	0x2
 1753 050d 23       		.byte	0x23
 1754 050e 10       		.uleb128 0x10
 1755 050f 00       		.byte	0
 1756 0510 07       		.uleb128 0x7
 1757 0511 6C020000 		.4byte	.LASF50
 1758 0515 09       		.byte	0x9
 1759 0516 65       		.byte	0x65
 1760 0517 1B050000 		.4byte	0x51b
 1761 051b 05       		.uleb128 0x5
 1762 051c 04       		.byte	0x4
 1763 051d 21050000 		.4byte	0x521
 1764 0521 18       		.uleb128 0x18
 1765 0522 01       		.byte	0x1
 1766 0523 2D050000 		.4byte	0x52d
 1767 0527 0A       		.uleb128 0xa
 1768 0528 2D050000 		.4byte	0x52d
 1769 052c 00       		.byte	0
 1770 052d 05       		.uleb128 0x5
 1771 052e 04       		.byte	0x4
 1772 052f AC040000 		.4byte	0x4ac
ARM GAS  C:\Users\DNIEL~1\AppData\Local\Temp\ccjrwhqg.s 			page 33


 1773 0533 14       		.uleb128 0x14
 1774 0534 77010000 		.4byte	.LASF51
 1775 0538 0A       		.byte	0xa
 1776 0539 2001     		.2byte	0x120
 1777 053b C7000000 		.4byte	0xc7
 1778 053f 14       		.uleb128 0x14
 1779 0540 00000000 		.4byte	.LASF52
 1780 0544 0A       		.byte	0xa
 1781 0545 2501     		.2byte	0x125
 1782 0547 9B000000 		.4byte	0x9b
 1783 054b 14       		.uleb128 0x14
 1784 054c 9F030000 		.4byte	.LASF53
 1785 0550 0A       		.byte	0xa
 1786 0551 2A01     		.2byte	0x12a
 1787 0553 B1000000 		.4byte	0xb1
 1788 0557 11       		.uleb128 0x11
 1789 0558 08       		.byte	0x8
 1790 0559 0A       		.byte	0xa
 1791 055a 2F01     		.2byte	0x12f
 1792 055c 7F050000 		.4byte	0x57f
 1793 0560 13       		.uleb128 0x13
 1794 0561 03030000 		.4byte	.LASF54
 1795 0565 0A       		.byte	0xa
 1796 0566 3301     		.2byte	0x133
 1797 0568 33050000 		.4byte	0x533
 1798 056c 02       		.byte	0x2
 1799 056d 23       		.byte	0x23
 1800 056e 00       		.uleb128 0
 1801 056f 13       		.uleb128 0x13
 1802 0570 BE010000 		.4byte	.LASF55
 1803 0574 0A       		.byte	0xa
 1804 0575 3901     		.2byte	0x139
 1805 0577 10050000 		.4byte	0x510
 1806 057b 02       		.byte	0x2
 1807 057c 23       		.byte	0x23
 1808 057d 04       		.uleb128 0x4
 1809 057e 00       		.byte	0
 1810 057f 14       		.uleb128 0x14
 1811 0580 2E030000 		.4byte	.LASF56
 1812 0584 0A       		.byte	0xa
 1813 0585 3B01     		.2byte	0x13b
 1814 0587 57050000 		.4byte	0x557
 1815 058b 11       		.uleb128 0x11
 1816 058c 34       		.byte	0x34
 1817 058d 0A       		.byte	0xa
 1818 058e 4001     		.2byte	0x140
 1819 0590 EF050000 		.4byte	0x5ef
 1820 0594 13       		.uleb128 0x13
 1821 0595 8B000000 		.4byte	.LASF57
 1822 0599 0A       		.byte	0xa
 1823 059a 4601     		.2byte	0x146
 1824 059c C7000000 		.4byte	0xc7
 1825 05a0 02       		.byte	0x2
 1826 05a1 23       		.byte	0x23
 1827 05a2 00       		.uleb128 0
 1828 05a3 13       		.uleb128 0x13
 1829 05a4 47000000 		.4byte	.LASF48
ARM GAS  C:\Users\DNIEL~1\AppData\Local\Temp\ccjrwhqg.s 			page 34


 1830 05a8 0A       		.byte	0xa
 1831 05a9 4C01     		.2byte	0x14c
 1832 05ab 4B050000 		.4byte	0x54b
 1833 05af 02       		.byte	0x2
 1834 05b0 23       		.byte	0x23
 1835 05b1 04       		.uleb128 0x4
 1836 05b2 13       		.uleb128 0x13
 1837 05b3 BE010000 		.4byte	.LASF55
 1838 05b7 0A       		.byte	0xa
 1839 05b8 5201     		.2byte	0x152
 1840 05ba 10050000 		.4byte	0x510
 1841 05be 02       		.byte	0x2
 1842 05bf 23       		.byte	0x23
 1843 05c0 08       		.uleb128 0x8
 1844 05c1 13       		.uleb128 0x13
 1845 05c2 E9000000 		.4byte	.LASF58
 1846 05c6 0A       		.byte	0xa
 1847 05c7 5601     		.2byte	0x156
 1848 05c9 EF050000 		.4byte	0x5ef
 1849 05cd 02       		.byte	0x2
 1850 05ce 23       		.byte	0x23
 1851 05cf 0C       		.uleb128 0xc
 1852 05d0 12       		.uleb128 0x12
 1853 05d1 63723200 		.ascii	"cr2\000"
 1854 05d5 0A       		.byte	0xa
 1855 05d6 5C01     		.2byte	0x15c
 1856 05d8 C7000000 		.4byte	0xc7
 1857 05dc 02       		.byte	0x2
 1858 05dd 23       		.byte	0x23
 1859 05de 2C       		.uleb128 0x2c
 1860 05df 13       		.uleb128 0x13
 1861 05e0 EF030000 		.4byte	.LASF59
 1862 05e4 0A       		.byte	0xa
 1863 05e5 6901     		.2byte	0x169
 1864 05e7 C7000000 		.4byte	0xc7
 1865 05eb 02       		.byte	0x2
 1866 05ec 23       		.byte	0x23
 1867 05ed 30       		.uleb128 0x30
 1868 05ee 00       		.byte	0
 1869 05ef 0F       		.uleb128 0xf
 1870 05f0 7F050000 		.4byte	0x57f
 1871 05f4 FF050000 		.4byte	0x5ff
 1872 05f8 10       		.uleb128 0x10
 1873 05f9 68000000 		.4byte	0x68
 1874 05fd 03       		.byte	0x3
 1875 05fe 00       		.byte	0
 1876 05ff 14       		.uleb128 0x14
 1877 0600 EB020000 		.4byte	.LASF60
 1878 0604 0A       		.byte	0xa
 1879 0605 6A01     		.2byte	0x16a
 1880 0607 8B050000 		.4byte	0x58b
 1881 060b 05       		.uleb128 0x5
 1882 060c 04       		.byte	0x4
 1883 060d 11060000 		.4byte	0x611
 1884 0611 06       		.uleb128 0x6
 1885 0612 FF050000 		.4byte	0x5ff
 1886 0616 07       		.uleb128 0x7
ARM GAS  C:\Users\DNIEL~1\AppData\Local\Temp\ccjrwhqg.s 			page 35


 1887 0617 FC010000 		.4byte	.LASF61
 1888 061b 0B       		.byte	0xb
 1889 061c 28       		.byte	0x28
 1890 061d 21060000 		.4byte	0x621
 1891 0621 0B       		.uleb128 0xb
 1892 0622 00010000 		.4byte	.LASF62
 1893 0626 04       		.byte	0x4
 1894 0627 0C       		.byte	0xc
 1895 0628 00       		.byte	0
 1896 0629 3B060000 		.4byte	0x63b
 1897 062d 19       		.uleb128 0x19
 1898 062e 23030000 		.4byte	.LASF95
 1899 0632 6F000000 		.4byte	0x6f
 1900 0636 02       		.byte	0x2
 1901 0637 23       		.byte	0x23
 1902 0638 00       		.uleb128 0
 1903 0639 01       		.byte	0x1
 1904 063a 00       		.byte	0
 1905 063b 07       		.uleb128 0x7
 1906 063c 27010000 		.4byte	.LASF63
 1907 0640 0B       		.byte	0xb
 1908 0641 66       		.byte	0x66
 1909 0642 16060000 		.4byte	0x616
 1910 0646 1A       		.uleb128 0x1a
 1911 0647 F4030000 		.4byte	.LASF96
 1912 064b 01       		.byte	0x1
 1913 064c 45       		.byte	0x45
 1914 064d 01       		.byte	0x1
 1915 064e 00000000 		.4byte	.LFB118
 1916 0652 1E000000 		.4byte	.LFE118
 1917 0656 00000000 		.4byte	.LLST0
 1918 065a 01       		.byte	0x1
 1919 065b A9060000 		.4byte	0x6a9
 1920 065f 1B       		.uleb128 0x1b
 1921 0660 63687000 		.ascii	"chp\000"
 1922 0664 01       		.byte	0x1
 1923 0665 45       		.byte	0x45
 1924 0666 A9060000 		.4byte	0x6a9
 1925 066a 38000000 		.4byte	.LLST1
 1926 066e 1C       		.uleb128 0x1c
 1927 066f 666D7400 		.ascii	"fmt\000"
 1928 0673 01       		.byte	0x1
 1929 0674 45       		.byte	0x45
 1930 0675 85000000 		.4byte	0x85
 1931 0679 02       		.byte	0x2
 1932 067a 91       		.byte	0x91
 1933 067b 74       		.sleb128 -12
 1934 067c 1D       		.uleb128 0x1d
 1935 067d 1E       		.uleb128 0x1e
 1936 067e 617000   		.ascii	"ap\000"
 1937 0681 01       		.byte	0x1
 1938 0682 46       		.byte	0x46
 1939 0683 3B060000 		.4byte	0x63b
 1940 0687 02       		.byte	0x2
 1941 0688 91       		.byte	0x91
 1942 0689 6C       		.sleb128 -20
 1943 068a 1F       		.uleb128 0x1f
ARM GAS  C:\Users\DNIEL~1\AppData\Local\Temp\ccjrwhqg.s 			page 36


 1944 068b 14000000 		.4byte	.LVL1
 1945 068f 140D0000 		.4byte	0xd14
 1946 0693 20       		.uleb128 0x20
 1947 0694 01       		.byte	0x1
 1948 0695 52       		.byte	0x52
 1949 0696 02       		.byte	0x2
 1950 0697 91       		.byte	0x91
 1951 0698 60       		.sleb128 -32
 1952 0699 20       		.uleb128 0x20
 1953 069a 01       		.byte	0x1
 1954 069b 51       		.byte	0x51
 1955 069c 03       		.byte	0x3
 1956 069d 91       		.byte	0x91
 1957 069e 5C       		.sleb128 -36
 1958 069f 06       		.byte	0x6
 1959 06a0 20       		.uleb128 0x20
 1960 06a1 01       		.byte	0x1
 1961 06a2 50       		.byte	0x50
 1962 06a3 03       		.byte	0x3
 1963 06a4 F3       		.byte	0xf3
 1964 06a5 01       		.uleb128 0x1
 1965 06a6 50       		.byte	0x50
 1966 06a7 00       		.byte	0
 1967 06a8 00       		.byte	0
 1968 06a9 05       		.uleb128 0x5
 1969 06aa 04       		.byte	0x4
 1970 06ab DD010000 		.4byte	0x1dd
 1971 06af 21       		.uleb128 0x21
 1972 06b0 01       		.byte	0x1
 1973 06b1 98020000 		.4byte	.LASF71
 1974 06b5 02       		.byte	0x2
 1975 06b6 2F       		.byte	0x2f
 1976 06b7 01       		.byte	0x1
 1977 06b8 00000000 		.4byte	.LFB119
 1978 06bc 7A000000 		.4byte	.LFE119
 1979 06c0 59000000 		.4byte	.LLST2
 1980 06c4 01       		.byte	0x1
 1981 06c5 DE060000 		.4byte	0x6de
 1982 06c9 22       		.uleb128 0x22
 1983 06ca 7A000000 		.4byte	.LVL2
 1984 06ce 01       		.byte	0x1
 1985 06cf 320D0000 		.4byte	0xd32
 1986 06d3 20       		.uleb128 0x20
 1987 06d4 01       		.byte	0x1
 1988 06d5 51       		.byte	0x51
 1989 06d6 05       		.byte	0x5
 1990 06d7 03       		.byte	0x3
 1991 06d8 00000000 		.4byte	.LANCHOR7
 1992 06dc 00       		.byte	0
 1993 06dd 00       		.byte	0
 1994 06de 23       		.uleb128 0x23
 1995 06df 01       		.byte	0x1
 1996 06e0 D3030000 		.4byte	.LASF97
 1997 06e4 02       		.byte	0x2
 1998 06e5 43       		.byte	0x43
 1999 06e6 01       		.byte	0x1
 2000 06e7 BC000000 		.4byte	0xbc
ARM GAS  C:\Users\DNIEL~1\AppData\Local\Temp\ccjrwhqg.s 			page 37


 2001 06eb 00000000 		.4byte	.LFB121
 2002 06ef 80010000 		.4byte	.LFE121
 2003 06f3 79000000 		.4byte	.LLST3
 2004 06f7 01       		.byte	0x1
 2005 06f8 97070000 		.4byte	0x797
 2006 06fc 24       		.uleb128 0x24
 2007 06fd 66020000 		.4byte	.LASF64
 2008 0701 02       		.byte	0x2
 2009 0702 43       		.byte	0x43
 2010 0703 A6000000 		.4byte	0xa6
 2011 0707 A5000000 		.4byte	.LLST4
 2012 070b 1B       		.uleb128 0x1b
 2013 070c 53657400 		.ascii	"Set\000"
 2014 0710 02       		.byte	0x2
 2015 0711 43       		.byte	0x43
 2016 0712 A6000000 		.4byte	0xa6
 2017 0716 C6000000 		.4byte	.LLST5
 2018 071a 24       		.uleb128 0x24
 2019 071b 54020000 		.4byte	.LASF65
 2020 071f 02       		.byte	0x2
 2021 0720 43       		.byte	0x43
 2022 0721 BC000000 		.4byte	0xbc
 2023 0725 E7000000 		.4byte	.LLST6
 2024 0729 24       		.uleb128 0x24
 2025 072a 93020000 		.4byte	.LASF66
 2026 072e 02       		.byte	0x2
 2027 072f 43       		.byte	0x43
 2028 0730 BC000000 		.4byte	0xbc
 2029 0734 06010000 		.4byte	.LLST7
 2030 0738 1C       		.uleb128 0x1c
 2031 0739 4B7000   		.ascii	"Kp\000"
 2032 073c 02       		.byte	0x2
 2033 073d 43       		.byte	0x43
 2034 073e 97070000 		.4byte	0x797
 2035 0742 02       		.byte	0x2
 2036 0743 91       		.byte	0x91
 2037 0744 00       		.sleb128 0
 2038 0745 1C       		.uleb128 0x1c
 2039 0746 4B6900   		.ascii	"Ki\000"
 2040 0749 02       		.byte	0x2
 2041 074a 43       		.byte	0x43
 2042 074b 97070000 		.4byte	0x797
 2043 074f 02       		.byte	0x2
 2044 0750 91       		.byte	0x91
 2045 0751 08       		.sleb128 8
 2046 0752 1C       		.uleb128 0x1c
 2047 0753 4B6400   		.ascii	"Kd\000"
 2048 0756 02       		.byte	0x2
 2049 0757 43       		.byte	0x43
 2050 0758 97070000 		.4byte	0x797
 2051 075c 02       		.byte	0x2
 2052 075d 91       		.byte	0x91
 2053 075e 10       		.sleb128 16
 2054 075f 25       		.uleb128 0x25
 2055 0760 C3030000 		.4byte	.LASF67
 2056 0764 02       		.byte	0x2
 2057 0765 43       		.byte	0x43
ARM GAS  C:\Users\DNIEL~1\AppData\Local\Temp\ccjrwhqg.s 			page 38


 2058 0766 BC000000 		.4byte	0xbc
 2059 076a 02       		.byte	0x2
 2060 076b 91       		.byte	0x91
 2061 076c 18       		.sleb128 24
 2062 076d 25       		.uleb128 0x25
 2063 076e 99010000 		.4byte	.LASF68
 2064 0772 02       		.byte	0x2
 2065 0773 43       		.byte	0x43
 2066 0774 BC000000 		.4byte	0xbc
 2067 0778 02       		.byte	0x2
 2068 0779 91       		.byte	0x91
 2069 077a 1C       		.sleb128 28
 2070 077b 25       		.uleb128 0x25
 2071 077c 81010000 		.4byte	.LASF69
 2072 0780 02       		.byte	0x2
 2073 0781 43       		.byte	0x43
 2074 0782 BC000000 		.4byte	0xbc
 2075 0786 02       		.byte	0x2
 2076 0787 91       		.byte	0x91
 2077 0788 20       		.sleb128 32
 2078 0789 26       		.uleb128 0x26
 2079 078a 5500     		.ascii	"U\000"
 2080 078c 02       		.byte	0x2
 2081 078d 45       		.byte	0x45
 2082 078e BC000000 		.4byte	0xbc
 2083 0792 25010000 		.4byte	.LLST8
 2084 0796 00       		.byte	0
 2085 0797 02       		.uleb128 0x2
 2086 0798 08       		.byte	0x8
 2087 0799 04       		.byte	0x4
 2088 079a E8030000 		.4byte	.LASF70
 2089 079e 27       		.uleb128 0x27
 2090 079f 01       		.byte	0x1
 2091 07a0 2B000000 		.4byte	.LASF72
 2092 07a4 02       		.byte	0x2
 2093 07a5 3D       		.byte	0x3d
 2094 07a6 01       		.byte	0x1
 2095 07a7 00000000 		.4byte	.LFB120
 2096 07ab C0000000 		.4byte	.LFE120
 2097 07af 43010000 		.4byte	.LLST9
 2098 07b3 01       		.byte	0x1
 2099 07b4 07080000 		.4byte	0x807
 2100 07b8 28       		.uleb128 0x28
 2101 07b9 08000000 		.4byte	.LVL30
 2102 07bd 4B0D0000 		.4byte	0xd4b
 2103 07c1 29       		.uleb128 0x29
 2104 07c2 72000000 		.4byte	.LVL34
 2105 07c6 DE060000 		.4byte	0x6de
 2106 07ca F6070000 		.4byte	0x7f6
 2107 07ce 20       		.uleb128 0x20
 2108 07cf 01       		.byte	0x1
 2109 07d0 52       		.byte	0x52
 2110 07d1 02       		.byte	0x2
 2111 07d2 74       		.byte	0x74
 2112 07d3 00       		.sleb128 0
 2113 07d4 20       		.uleb128 0x20
 2114 07d5 01       		.byte	0x1
ARM GAS  C:\Users\DNIEL~1\AppData\Local\Temp\ccjrwhqg.s 			page 39


 2115 07d6 51       		.byte	0x51
 2116 07d7 02       		.byte	0x2
 2117 07d8 76       		.byte	0x76
 2118 07d9 00       		.sleb128 0
 2119 07da 20       		.uleb128 0x20
 2120 07db 01       		.byte	0x1
 2121 07dc 50       		.byte	0x50
 2122 07dd 02       		.byte	0x2
 2123 07de 75       		.byte	0x75
 2124 07df 00       		.sleb128 0
 2125 07e0 20       		.uleb128 0x20
 2126 07e1 02       		.byte	0x2
 2127 07e2 7D       		.byte	0x7d
 2128 07e3 20       		.sleb128 32
 2129 07e4 02       		.byte	0x2
 2130 07e5 74       		.byte	0x74
 2131 07e6 00       		.sleb128 0
 2132 07e7 20       		.uleb128 0x20
 2133 07e8 02       		.byte	0x2
 2134 07e9 7D       		.byte	0x7d
 2135 07ea 1C       		.sleb128 28
 2136 07eb 02       		.byte	0x2
 2137 07ec 74       		.byte	0x74
 2138 07ed 00       		.sleb128 0
 2139 07ee 20       		.uleb128 0x20
 2140 07ef 02       		.byte	0x2
 2141 07f0 7D       		.byte	0x7d
 2142 07f1 18       		.sleb128 24
 2143 07f2 02       		.byte	0x2
 2144 07f3 74       		.byte	0x74
 2145 07f4 00       		.sleb128 0
 2146 07f5 00       		.byte	0
 2147 07f6 22       		.uleb128 0x22
 2148 07f7 C0000000 		.4byte	.LVL35
 2149 07fb 01       		.byte	0x1
 2150 07fc 590D0000 		.4byte	0xd59
 2151 0800 20       		.uleb128 0x20
 2152 0801 01       		.byte	0x1
 2153 0802 51       		.byte	0x51
 2154 0803 01       		.byte	0x1
 2155 0804 32       		.byte	0x32
 2156 0805 00       		.byte	0
 2157 0806 00       		.byte	0
 2158 0807 27       		.uleb128 0x27
 2159 0808 01       		.byte	0x1
 2160 0809 C5020000 		.4byte	.LASF73
 2161 080d 02       		.byte	0x2
 2162 080e 75       		.byte	0x75
 2163 080f 01       		.byte	0x1
 2164 0810 00000000 		.4byte	.LFB122
 2165 0814 FC000000 		.4byte	.LFE122
 2166 0818 6F010000 		.4byte	.LLST10
 2167 081c 01       		.byte	0x1
 2168 081d 80090000 		.4byte	0x980
 2169 0821 1B       		.uleb128 0x1b
 2170 0822 63687000 		.ascii	"chp\000"
 2171 0826 02       		.byte	0x2
ARM GAS  C:\Users\DNIEL~1\AppData\Local\Temp\ccjrwhqg.s 			page 40


 2172 0827 75       		.byte	0x75
 2173 0828 A9060000 		.4byte	0x6a9
 2174 082c 8F010000 		.4byte	.LLST11
 2175 0830 24       		.uleb128 0x24
 2176 0831 AD030000 		.4byte	.LASF74
 2177 0835 02       		.byte	0x2
 2178 0836 75       		.byte	0x75
 2179 0837 45000000 		.4byte	0x45
 2180 083b CE010000 		.4byte	.LLST12
 2181 083f 24       		.uleb128 0x24
 2182 0840 CE030000 		.4byte	.LASF75
 2183 0844 02       		.byte	0x2
 2184 0845 75       		.byte	0x75
 2185 0846 80090000 		.4byte	0x980
 2186 084a EF010000 		.4byte	.LLST13
 2187 084e 29       		.uleb128 0x29
 2188 084f 18000000 		.4byte	.LVL38
 2189 0853 46060000 		.4byte	0x646
 2190 0857 6B080000 		.4byte	0x86b
 2191 085b 20       		.uleb128 0x20
 2192 085c 01       		.byte	0x1
 2193 085d 51       		.byte	0x51
 2194 085e 05       		.byte	0x5
 2195 085f 03       		.byte	0x3
 2196 0860 00000000 		.4byte	.LC0
 2197 0864 20       		.uleb128 0x20
 2198 0865 01       		.byte	0x1
 2199 0866 50       		.byte	0x50
 2200 0867 02       		.byte	0x2
 2201 0868 74       		.byte	0x74
 2202 0869 00       		.sleb128 0
 2203 086a 00       		.byte	0
 2204 086b 29       		.uleb128 0x29
 2205 086c 20000000 		.4byte	.LVL39
 2206 0870 46060000 		.4byte	0x646
 2207 0874 88080000 		.4byte	0x888
 2208 0878 20       		.uleb128 0x20
 2209 0879 01       		.byte	0x1
 2210 087a 51       		.byte	0x51
 2211 087b 05       		.byte	0x5
 2212 087c 03       		.byte	0x3
 2213 087d 04000000 		.4byte	.LC1
 2214 0881 20       		.uleb128 0x20
 2215 0882 01       		.byte	0x1
 2216 0883 50       		.byte	0x50
 2217 0884 02       		.byte	0x2
 2218 0885 74       		.byte	0x74
 2219 0886 00       		.sleb128 0
 2220 0887 00       		.byte	0
 2221 0888 28       		.uleb128 0x28
 2222 0889 26000000 		.4byte	.LVL41
 2223 088d 46060000 		.4byte	0x646
 2224 0891 29       		.uleb128 0x29
 2225 0892 3E000000 		.4byte	.LVL43
 2226 0896 46060000 		.4byte	0x646
 2227 089a B4080000 		.4byte	0x8b4
 2228 089e 20       		.uleb128 0x20
ARM GAS  C:\Users\DNIEL~1\AppData\Local\Temp\ccjrwhqg.s 			page 41


 2229 089f 01       		.byte	0x1
 2230 08a0 52       		.byte	0x52
 2231 08a1 02       		.byte	0x2
 2232 08a2 75       		.byte	0x75
 2233 08a3 00       		.sleb128 0
 2234 08a4 20       		.uleb128 0x20
 2235 08a5 01       		.byte	0x1
 2236 08a6 51       		.byte	0x51
 2237 08a7 05       		.byte	0x5
 2238 08a8 03       		.byte	0x3
 2239 08a9 18000000 		.4byte	.LC3
 2240 08ad 20       		.uleb128 0x20
 2241 08ae 01       		.byte	0x1
 2242 08af 50       		.byte	0x50
 2243 08b0 02       		.byte	0x2
 2244 08b1 74       		.byte	0x74
 2245 08b2 00       		.sleb128 0
 2246 08b3 00       		.byte	0
 2247 08b4 29       		.uleb128 0x29
 2248 08b5 56000000 		.4byte	.LVL45
 2249 08b9 46060000 		.4byte	0x646
 2250 08bd D7080000 		.4byte	0x8d7
 2251 08c1 20       		.uleb128 0x20
 2252 08c2 01       		.byte	0x1
 2253 08c3 52       		.byte	0x52
 2254 08c4 02       		.byte	0x2
 2255 08c5 75       		.byte	0x75
 2256 08c6 00       		.sleb128 0
 2257 08c7 20       		.uleb128 0x20
 2258 08c8 01       		.byte	0x1
 2259 08c9 51       		.byte	0x51
 2260 08ca 05       		.byte	0x5
 2261 08cb 03       		.byte	0x3
 2262 08cc 30000000 		.4byte	.LC4
 2263 08d0 20       		.uleb128 0x20
 2264 08d1 01       		.byte	0x1
 2265 08d2 50       		.byte	0x50
 2266 08d3 02       		.byte	0x2
 2267 08d4 74       		.byte	0x74
 2268 08d5 00       		.sleb128 0
 2269 08d6 00       		.byte	0
 2270 08d7 29       		.uleb128 0x29
 2271 08d8 72000000 		.4byte	.LVL47
 2272 08dc 46060000 		.4byte	0x646
 2273 08e0 FA080000 		.4byte	0x8fa
 2274 08e4 20       		.uleb128 0x20
 2275 08e5 01       		.byte	0x1
 2276 08e6 52       		.byte	0x52
 2277 08e7 02       		.byte	0x2
 2278 08e8 75       		.byte	0x75
 2279 08e9 00       		.sleb128 0
 2280 08ea 20       		.uleb128 0x20
 2281 08eb 01       		.byte	0x1
 2282 08ec 51       		.byte	0x51
 2283 08ed 05       		.byte	0x5
 2284 08ee 03       		.byte	0x3
 2285 08ef 48000000 		.4byte	.LC5
ARM GAS  C:\Users\DNIEL~1\AppData\Local\Temp\ccjrwhqg.s 			page 42


 2286 08f3 20       		.uleb128 0x20
 2287 08f4 01       		.byte	0x1
 2288 08f5 50       		.byte	0x50
 2289 08f6 02       		.byte	0x2
 2290 08f7 74       		.byte	0x74
 2291 08f8 00       		.sleb128 0
 2292 08f9 00       		.byte	0
 2293 08fa 29       		.uleb128 0x29
 2294 08fb 7E000000 		.4byte	.LVL48
 2295 08ff 46060000 		.4byte	0x646
 2296 0903 17090000 		.4byte	0x917
 2297 0907 20       		.uleb128 0x20
 2298 0908 01       		.byte	0x1
 2299 0909 51       		.byte	0x51
 2300 090a 05       		.byte	0x5
 2301 090b 03       		.byte	0x3
 2302 090c 60000000 		.4byte	.LC6
 2303 0910 20       		.uleb128 0x20
 2304 0911 01       		.byte	0x1
 2305 0912 50       		.byte	0x50
 2306 0913 02       		.byte	0x2
 2307 0914 74       		.byte	0x74
 2308 0915 00       		.sleb128 0
 2309 0916 00       		.byte	0
 2310 0917 29       		.uleb128 0x29
 2311 0918 8A000000 		.4byte	.LVL49
 2312 091c 46060000 		.4byte	0x646
 2313 0920 34090000 		.4byte	0x934
 2314 0924 20       		.uleb128 0x20
 2315 0925 01       		.byte	0x1
 2316 0926 51       		.byte	0x51
 2317 0927 05       		.byte	0x5
 2318 0928 03       		.byte	0x3
 2319 0929 6C000000 		.4byte	.LC7
 2320 092d 20       		.uleb128 0x20
 2321 092e 01       		.byte	0x1
 2322 092f 50       		.byte	0x50
 2323 0930 02       		.byte	0x2
 2324 0931 74       		.byte	0x74
 2325 0932 00       		.sleb128 0
 2326 0933 00       		.byte	0
 2327 0934 28       		.uleb128 0x28
 2328 0935 8E000000 		.4byte	.LVL50
 2329 0939 4B0D0000 		.4byte	0xd4b
 2330 093d 29       		.uleb128 0x29
 2331 093e 98000000 		.4byte	.LVL51
 2332 0942 46060000 		.4byte	0x646
 2333 0946 5A090000 		.4byte	0x95a
 2334 094a 20       		.uleb128 0x20
 2335 094b 01       		.byte	0x1
 2336 094c 51       		.byte	0x51
 2337 094d 05       		.byte	0x5
 2338 094e 03       		.byte	0x3
 2339 094f 7C000000 		.4byte	.LC8
 2340 0953 20       		.uleb128 0x20
 2341 0954 01       		.byte	0x1
 2342 0955 50       		.byte	0x50
ARM GAS  C:\Users\DNIEL~1\AppData\Local\Temp\ccjrwhqg.s 			page 43


 2343 0956 02       		.byte	0x2
 2344 0957 74       		.byte	0x74
 2345 0958 00       		.sleb128 0
 2346 0959 00       		.byte	0
 2347 095a 29       		.uleb128 0x29
 2348 095b 9E000000 		.4byte	.LVL52
 2349 095f 770D0000 		.4byte	0xd77
 2350 0963 6E090000 		.4byte	0x96e
 2351 0967 20       		.uleb128 0x20
 2352 0968 01       		.byte	0x1
 2353 0969 50       		.byte	0x50
 2354 096a 02       		.byte	0x2
 2355 096b 08       		.byte	0x8
 2356 096c 64       		.byte	0x64
 2357 096d 00       		.byte	0
 2358 096e 2A       		.uleb128 0x2a
 2359 096f A8000000 		.4byte	.LVL53
 2360 0973 20       		.uleb128 0x20
 2361 0974 01       		.byte	0x1
 2362 0975 51       		.byte	0x51
 2363 0976 01       		.byte	0x1
 2364 0977 30       		.byte	0x30
 2365 0978 20       		.uleb128 0x20
 2366 0979 01       		.byte	0x1
 2367 097a 50       		.byte	0x50
 2368 097b 02       		.byte	0x2
 2369 097c 74       		.byte	0x74
 2370 097d 00       		.sleb128 0
 2371 097e 00       		.byte	0
 2372 097f 00       		.byte	0
 2373 0980 05       		.uleb128 0x5
 2374 0981 04       		.byte	0x4
 2375 0982 78000000 		.4byte	0x78
 2376 0986 27       		.uleb128 0x27
 2377 0987 01       		.byte	0x1
 2378 0988 9E010000 		.4byte	.LASF76
 2379 098c 02       		.byte	0x2
 2380 098d 89       		.byte	0x89
 2381 098e 01       		.byte	0x1
 2382 098f 00000000 		.4byte	.LFB123
 2383 0993 AC010000 		.4byte	.LFE123
 2384 0997 10020000 		.4byte	.LLST14
 2385 099b 01       		.byte	0x1
 2386 099c DC0B0000 		.4byte	0xbdc
 2387 09a0 1B       		.uleb128 0x1b
 2388 09a1 63687000 		.ascii	"chp\000"
 2389 09a5 02       		.byte	0x2
 2390 09a6 89       		.byte	0x89
 2391 09a7 A9060000 		.4byte	0x6a9
 2392 09ab 30020000 		.4byte	.LLST15
 2393 09af 24       		.uleb128 0x24
 2394 09b0 AD030000 		.4byte	.LASF74
 2395 09b4 02       		.byte	0x2
 2396 09b5 89       		.byte	0x89
 2397 09b6 45000000 		.4byte	0x45
 2398 09ba 4E020000 		.4byte	.LLST16
 2399 09be 24       		.uleb128 0x24
ARM GAS  C:\Users\DNIEL~1\AppData\Local\Temp\ccjrwhqg.s 			page 44


 2400 09bf CE030000 		.4byte	.LASF75
 2401 09c3 02       		.byte	0x2
 2402 09c4 89       		.byte	0x89
 2403 09c5 80090000 		.4byte	0x980
 2404 09c9 93020000 		.4byte	.LLST17
 2405 09cd 2B       		.uleb128 0x2b
 2406 09ce 36000000 		.4byte	.LASF77
 2407 09d2 02       		.byte	0x2
 2408 09d3 8D       		.byte	0x8d
 2409 09d4 A6000000 		.4byte	0xa6
 2410 09d8 E3020000 		.4byte	.LLST18
 2411 09dc 2C       		.uleb128 0x2c
 2412 09dd F6010000 		.4byte	.LASF98
 2413 09e1 02       		.byte	0x2
 2414 09e2 C6       		.byte	0xc6
 2415 09e3 36000000 		.4byte	.LDL1
 2416 09e7 29       		.uleb128 0x29
 2417 09e8 0E000000 		.4byte	.LVL57
 2418 09ec 46060000 		.4byte	0x646
 2419 09f0 040A0000 		.4byte	0xa04
 2420 09f4 20       		.uleb128 0x20
 2421 09f5 01       		.byte	0x1
 2422 09f6 51       		.byte	0x51
 2423 09f7 05       		.byte	0x5
 2424 09f8 03       		.byte	0x3
 2425 09f9 00000000 		.4byte	.LC0
 2426 09fd 20       		.uleb128 0x20
 2427 09fe 01       		.byte	0x1
 2428 09ff 50       		.byte	0x50
 2429 0a00 02       		.byte	0x2
 2430 0a01 74       		.byte	0x74
 2431 0a02 00       		.sleb128 0
 2432 0a03 00       		.byte	0
 2433 0a04 29       		.uleb128 0x29
 2434 0a05 16000000 		.4byte	.LVL58
 2435 0a09 46060000 		.4byte	0x646
 2436 0a0d 210A0000 		.4byte	0xa21
 2437 0a11 20       		.uleb128 0x20
 2438 0a12 01       		.byte	0x1
 2439 0a13 51       		.byte	0x51
 2440 0a14 05       		.byte	0x5
 2441 0a15 03       		.byte	0x3
 2442 0a16 04000000 		.4byte	.LC1
 2443 0a1a 20       		.uleb128 0x20
 2444 0a1b 01       		.byte	0x1
 2445 0a1c 50       		.byte	0x50
 2446 0a1d 02       		.byte	0x2
 2447 0a1e 74       		.byte	0x74
 2448 0a1f 00       		.sleb128 0
 2449 0a20 00       		.byte	0
 2450 0a21 2D       		.uleb128 0x2d
 2451 0a22 20000000 		.4byte	.LVL59
 2452 0a26 360A0000 		.4byte	0xa36
 2453 0a2a 20       		.uleb128 0x20
 2454 0a2b 01       		.byte	0x1
 2455 0a2c 51       		.byte	0x51
 2456 0a2d 01       		.byte	0x1
ARM GAS  C:\Users\DNIEL~1\AppData\Local\Temp\ccjrwhqg.s 			page 45


 2457 0a2e 30       		.byte	0x30
 2458 0a2f 20       		.uleb128 0x20
 2459 0a30 01       		.byte	0x1
 2460 0a31 50       		.byte	0x50
 2461 0a32 02       		.byte	0x2
 2462 0a33 74       		.byte	0x74
 2463 0a34 00       		.sleb128 0
 2464 0a35 00       		.byte	0
 2465 0a36 29       		.uleb128 0x29
 2466 0a37 32000000 		.4byte	.LVL60
 2467 0a3b 46060000 		.4byte	0x646
 2468 0a3f 5D0A0000 		.4byte	0xa5d
 2469 0a43 20       		.uleb128 0x20
 2470 0a44 01       		.byte	0x1
 2471 0a45 53       		.byte	0x53
 2472 0a46 01       		.byte	0x1
 2473 0a47 30       		.byte	0x30
 2474 0a48 20       		.uleb128 0x20
 2475 0a49 01       		.byte	0x1
 2476 0a4a 52       		.byte	0x52
 2477 0a4b 01       		.byte	0x1
 2478 0a4c 30       		.byte	0x30
 2479 0a4d 20       		.uleb128 0x20
 2480 0a4e 01       		.byte	0x1
 2481 0a4f 51       		.byte	0x51
 2482 0a50 05       		.byte	0x5
 2483 0a51 03       		.byte	0x3
 2484 0a52 0C000000 		.4byte	.LC2
 2485 0a56 20       		.uleb128 0x20
 2486 0a57 01       		.byte	0x1
 2487 0a58 50       		.byte	0x50
 2488 0a59 02       		.byte	0x2
 2489 0a5a 74       		.byte	0x74
 2490 0a5b 00       		.sleb128 0
 2491 0a5c 00       		.byte	0
 2492 0a5d 2E       		.uleb128 0x2e
 2493 0a5e 42000000 		.4byte	.LVL62
 2494 0a62 01       		.byte	0x1
 2495 0a63 46060000 		.4byte	0x646
 2496 0a67 7B0A0000 		.4byte	0xa7b
 2497 0a6b 20       		.uleb128 0x20
 2498 0a6c 01       		.byte	0x1
 2499 0a6d 51       		.byte	0x51
 2500 0a6e 05       		.byte	0x5
 2501 0a6f 03       		.byte	0x3
 2502 0a70 00010000 		.4byte	.LC16
 2503 0a74 20       		.uleb128 0x20
 2504 0a75 01       		.byte	0x1
 2505 0a76 50       		.byte	0x50
 2506 0a77 02       		.byte	0x2
 2507 0a78 74       		.byte	0x74
 2508 0a79 00       		.sleb128 0
 2509 0a7a 00       		.byte	0
 2510 0a7b 29       		.uleb128 0x29
 2511 0a7c 4C000000 		.4byte	.LVL64
 2512 0a80 8C0D0000 		.4byte	0xd8c
 2513 0a84 980A0000 		.4byte	0xa98
ARM GAS  C:\Users\DNIEL~1\AppData\Local\Temp\ccjrwhqg.s 			page 46


 2514 0a88 20       		.uleb128 0x20
 2515 0a89 01       		.byte	0x1
 2516 0a8a 51       		.byte	0x51
 2517 0a8b 05       		.byte	0x5
 2518 0a8c 03       		.byte	0x3
 2519 0a8d 90000000 		.4byte	.LC9
 2520 0a91 20       		.uleb128 0x20
 2521 0a92 01       		.byte	0x1
 2522 0a93 50       		.byte	0x50
 2523 0a94 02       		.byte	0x2
 2524 0a95 75       		.byte	0x75
 2525 0a96 00       		.sleb128 0
 2526 0a97 00       		.byte	0
 2527 0a98 29       		.uleb128 0x29
 2528 0a99 58000000 		.4byte	.LVL65
 2529 0a9d 8C0D0000 		.4byte	0xd8c
 2530 0aa1 B50A0000 		.4byte	0xab5
 2531 0aa5 20       		.uleb128 0x20
 2532 0aa6 01       		.byte	0x1
 2533 0aa7 51       		.byte	0x51
 2534 0aa8 05       		.byte	0x5
 2535 0aa9 03       		.byte	0x3
 2536 0aaa 1C010000 		.4byte	.LC17
 2537 0aae 20       		.uleb128 0x20
 2538 0aaf 01       		.byte	0x1
 2539 0ab0 50       		.byte	0x50
 2540 0ab1 02       		.byte	0x2
 2541 0ab2 75       		.byte	0x75
 2542 0ab3 00       		.sleb128 0
 2543 0ab4 00       		.byte	0
 2544 0ab5 29       		.uleb128 0x29
 2545 0ab6 64000000 		.4byte	.LVL66
 2546 0aba 8C0D0000 		.4byte	0xd8c
 2547 0abe D20A0000 		.4byte	0xad2
 2548 0ac2 20       		.uleb128 0x20
 2549 0ac3 01       		.byte	0x1
 2550 0ac4 51       		.byte	0x51
 2551 0ac5 05       		.byte	0x5
 2552 0ac6 03       		.byte	0x3
 2553 0ac7 20010000 		.4byte	.LC18
 2554 0acb 20       		.uleb128 0x20
 2555 0acc 01       		.byte	0x1
 2556 0acd 50       		.byte	0x50
 2557 0ace 02       		.byte	0x2
 2558 0acf 75       		.byte	0x75
 2559 0ad0 00       		.sleb128 0
 2560 0ad1 00       		.byte	0
 2561 0ad2 29       		.uleb128 0x29
 2562 0ad3 70000000 		.4byte	.LVL67
 2563 0ad7 8C0D0000 		.4byte	0xd8c
 2564 0adb EF0A0000 		.4byte	0xaef
 2565 0adf 20       		.uleb128 0x20
 2566 0ae0 01       		.byte	0x1
 2567 0ae1 51       		.byte	0x51
 2568 0ae2 05       		.byte	0x5
 2569 0ae3 03       		.byte	0x3
 2570 0ae4 24010000 		.4byte	.LC19
ARM GAS  C:\Users\DNIEL~1\AppData\Local\Temp\ccjrwhqg.s 			page 47


 2571 0ae8 20       		.uleb128 0x20
 2572 0ae9 01       		.byte	0x1
 2573 0aea 50       		.byte	0x50
 2574 0aeb 02       		.byte	0x2
 2575 0aec 75       		.byte	0x75
 2576 0aed 00       		.sleb128 0
 2577 0aee 00       		.byte	0
 2578 0aef 28       		.uleb128 0x28
 2579 0af0 7A000000 		.4byte	.LVL68
 2580 0af4 A90D0000 		.4byte	0xda9
 2581 0af8 29       		.uleb128 0x29
 2582 0af9 94000000 		.4byte	.LVL72
 2583 0afd 46060000 		.4byte	0x646
 2584 0b01 150B0000 		.4byte	0xb15
 2585 0b05 20       		.uleb128 0x20
 2586 0b06 01       		.byte	0x1
 2587 0b07 51       		.byte	0x51
 2588 0b08 05       		.byte	0x5
 2589 0b09 03       		.byte	0x3
 2590 0b0a DC000000 		.4byte	.LC13
 2591 0b0e 20       		.uleb128 0x20
 2592 0b0f 01       		.byte	0x1
 2593 0b10 50       		.byte	0x50
 2594 0b11 02       		.byte	0x2
 2595 0b12 74       		.byte	0x74
 2596 0b13 00       		.sleb128 0
 2597 0b14 00       		.byte	0
 2598 0b15 29       		.uleb128 0x29
 2599 0b16 A2000000 		.4byte	.LVL73
 2600 0b1a 46060000 		.4byte	0x646
 2601 0b1e 320B0000 		.4byte	0xb32
 2602 0b22 20       		.uleb128 0x20
 2603 0b23 01       		.byte	0x1
 2604 0b24 51       		.byte	0x51
 2605 0b25 05       		.byte	0x5
 2606 0b26 03       		.byte	0x3
 2607 0b27 E8000000 		.4byte	.LC14
 2608 0b2b 20       		.uleb128 0x20
 2609 0b2c 01       		.byte	0x1
 2610 0b2d 50       		.byte	0x50
 2611 0b2e 02       		.byte	0x2
 2612 0b2f 74       		.byte	0x74
 2613 0b30 00       		.sleb128 0
 2614 0b31 00       		.byte	0
 2615 0b32 29       		.uleb128 0x29
 2616 0b33 AE000000 		.4byte	.LVL74
 2617 0b37 46060000 		.4byte	0x646
 2618 0b3b 4F0B0000 		.4byte	0xb4f
 2619 0b3f 20       		.uleb128 0x20
 2620 0b40 01       		.byte	0x1
 2621 0b41 51       		.byte	0x51
 2622 0b42 05       		.byte	0x5
 2623 0b43 03       		.byte	0x3
 2624 0b44 F4000000 		.4byte	.LC15
 2625 0b48 20       		.uleb128 0x20
 2626 0b49 01       		.byte	0x1
 2627 0b4a 50       		.byte	0x50
ARM GAS  C:\Users\DNIEL~1\AppData\Local\Temp\ccjrwhqg.s 			page 48


 2628 0b4b 02       		.byte	0x2
 2629 0b4c 74       		.byte	0x74
 2630 0b4d 00       		.sleb128 0
 2631 0b4e 00       		.byte	0
 2632 0b4f 2E       		.uleb128 0x2e
 2633 0b50 BE000000 		.4byte	.LVL75
 2634 0b54 01       		.byte	0x1
 2635 0b55 46060000 		.4byte	0x646
 2636 0b59 6D0B0000 		.4byte	0xb6d
 2637 0b5d 20       		.uleb128 0x20
 2638 0b5e 01       		.byte	0x1
 2639 0b5f 51       		.byte	0x51
 2640 0b60 05       		.byte	0x5
 2641 0b61 03       		.byte	0x3
 2642 0b62 6C000000 		.4byte	.LC7
 2643 0b66 20       		.uleb128 0x20
 2644 0b67 01       		.byte	0x1
 2645 0b68 50       		.byte	0x50
 2646 0b69 02       		.byte	0x2
 2647 0b6a 74       		.byte	0x74
 2648 0b6b 00       		.sleb128 0
 2649 0b6c 00       		.byte	0
 2650 0b6d 28       		.uleb128 0x28
 2651 0b6e C4000000 		.4byte	.LVL76
 2652 0b72 A90D0000 		.4byte	0xda9
 2653 0b76 28       		.uleb128 0x28
 2654 0b77 DA000000 		.4byte	.LVL80
 2655 0b7b A90D0000 		.4byte	0xda9
 2656 0b7f 28       		.uleb128 0x28
 2657 0b80 F0000000 		.4byte	.LVL84
 2658 0b84 A90D0000 		.4byte	0xda9
 2659 0b88 29       		.uleb128 0x29
 2660 0b89 16010000 		.4byte	.LVL89
 2661 0b8d 46060000 		.4byte	0x646
 2662 0b91 A50B0000 		.4byte	0xba5
 2663 0b95 20       		.uleb128 0x20
 2664 0b96 01       		.byte	0x1
 2665 0b97 51       		.byte	0x51
 2666 0b98 05       		.byte	0x5
 2667 0b99 03       		.byte	0x3
 2668 0b9a C4000000 		.4byte	.LC12
 2669 0b9e 20       		.uleb128 0x20
 2670 0b9f 01       		.byte	0x1
 2671 0ba0 50       		.byte	0x50
 2672 0ba1 02       		.byte	0x2
 2673 0ba2 74       		.byte	0x74
 2674 0ba3 00       		.sleb128 0
 2675 0ba4 00       		.byte	0
 2676 0ba5 29       		.uleb128 0x29
 2677 0ba6 32010000 		.4byte	.LVL93
 2678 0baa 46060000 		.4byte	0x646
 2679 0bae C20B0000 		.4byte	0xbc2
 2680 0bb2 20       		.uleb128 0x20
 2681 0bb3 01       		.byte	0x1
 2682 0bb4 51       		.byte	0x51
 2683 0bb5 05       		.byte	0x5
 2684 0bb6 03       		.byte	0x3
ARM GAS  C:\Users\DNIEL~1\AppData\Local\Temp\ccjrwhqg.s 			page 49


 2685 0bb7 AC000000 		.4byte	.LC11
 2686 0bbb 20       		.uleb128 0x20
 2687 0bbc 01       		.byte	0x1
 2688 0bbd 50       		.byte	0x50
 2689 0bbe 02       		.byte	0x2
 2690 0bbf 74       		.byte	0x74
 2691 0bc0 00       		.sleb128 0
 2692 0bc1 00       		.byte	0
 2693 0bc2 1F       		.uleb128 0x1f
 2694 0bc3 50010000 		.4byte	.LVL96
 2695 0bc7 46060000 		.4byte	0x646
 2696 0bcb 20       		.uleb128 0x20
 2697 0bcc 01       		.byte	0x1
 2698 0bcd 51       		.byte	0x51
 2699 0bce 05       		.byte	0x5
 2700 0bcf 03       		.byte	0x3
 2701 0bd0 94000000 		.4byte	.LC10
 2702 0bd4 20       		.uleb128 0x20
 2703 0bd5 01       		.byte	0x1
 2704 0bd6 50       		.byte	0x50
 2705 0bd7 02       		.byte	0x2
 2706 0bd8 74       		.byte	0x74
 2707 0bd9 00       		.sleb128 0
 2708 0bda 00       		.byte	0
 2709 0bdb 00       		.byte	0
 2710 0bdc 1E       		.uleb128 0x1e
 2711 0bdd 4B5F5000 		.ascii	"K_P\000"
 2712 0be1 02       		.byte	0x2
 2713 0be2 0D       		.byte	0xd
 2714 0be3 A6000000 		.4byte	0xa6
 2715 0be7 05       		.byte	0x5
 2716 0be8 03       		.byte	0x3
 2717 0be9 00000000 		.4byte	K_P
 2718 0bed 1E       		.uleb128 0x1e
 2719 0bee 4B5F4900 		.ascii	"K_I\000"
 2720 0bf2 02       		.byte	0x2
 2721 0bf3 0E       		.byte	0xe
 2722 0bf4 A6000000 		.4byte	0xa6
 2723 0bf8 05       		.byte	0x5
 2724 0bf9 03       		.byte	0x3
 2725 0bfa 00000000 		.4byte	K_I
 2726 0bfe 1E       		.uleb128 0x1e
 2727 0bff 4B5F4400 		.ascii	"K_D\000"
 2728 0c03 02       		.byte	0x2
 2729 0c04 0F       		.byte	0xf
 2730 0c05 A6000000 		.4byte	0xa6
 2731 0c09 05       		.byte	0x5
 2732 0c0a 03       		.byte	0x3
 2733 0c0b 00000000 		.4byte	K_D
 2734 0c0f 2F       		.uleb128 0x2f
 2735 0c10 D4010000 		.4byte	.LASF78
 2736 0c14 02       		.byte	0x2
 2737 0c15 11       		.byte	0x11
 2738 0c16 230C0000 		.4byte	0xc23
 2739 0c1a 08       		.byte	0x8
 2740 0c1b 00000000 		.4byte	0
 2741 0c1f 80842E41 		.4byte	0x412e8480
ARM GAS  C:\Users\DNIEL~1\AppData\Local\Temp\ccjrwhqg.s 			page 50


 2742 0c23 06       		.uleb128 0x6
 2743 0c24 97070000 		.4byte	0x797
 2744 0c28 2F       		.uleb128 0x2f
 2745 0c29 71010000 		.4byte	.LASF79
 2746 0c2d 02       		.byte	0x2
 2747 0c2e 12       		.byte	0x12
 2748 0c2f 230C0000 		.4byte	0xc23
 2749 0c33 08       		.byte	0x8
 2750 0c34 00000000 		.4byte	0
 2751 0c38 20D62341 		.4byte	0x4123d620
 2752 0c3c 2F       		.uleb128 0x2f
 2753 0c3d CE010000 		.4byte	.LASF80
 2754 0c41 02       		.byte	0x2
 2755 0c42 14       		.byte	0x14
 2756 0c43 230C0000 		.4byte	0xc23
 2757 0c47 08       		.byte	0x8
 2758 0c48 00000000 		.4byte	0
 2759 0c4c 80842E41 		.4byte	0x412e8480
 2760 0c50 2F       		.uleb128 0x2f
 2761 0c51 B8010000 		.4byte	.LASF81
 2762 0c55 02       		.byte	0x2
 2763 0c56 15       		.byte	0x15
 2764 0c57 230C0000 		.4byte	0xc23
 2765 0c5b 08       		.byte	0x8
 2766 0c5c 00000000 		.4byte	0
 2767 0c60 80842E41 		.4byte	0x412e8480
 2768 0c64 2F       		.uleb128 0x2f
 2769 0c65 3B000000 		.4byte	.LASF82
 2770 0c69 02       		.byte	0x2
 2771 0c6a 16       		.byte	0x16
 2772 0c6b 230C0000 		.4byte	0xc23
 2773 0c6f 08       		.byte	0x8
 2774 0c70 00000000 		.4byte	0
 2775 0c74 80842E41 		.4byte	0x412e8480
 2776 0c78 1E       		.uleb128 0x1e
 2777 0c79 70776D00 		.ascii	"pwm\000"
 2778 0c7d 02       		.byte	0x2
 2779 0c7e 18       		.byte	0x18
 2780 0c7f BC000000 		.4byte	0xbc
 2781 0c83 05       		.byte	0x5
 2782 0c84 03       		.byte	0x3
 2783 0c85 00000000 		.4byte	pwm
 2784 0c89 1E       		.uleb128 0x1e
 2785 0c8a 5000     		.ascii	"P\000"
 2786 0c8c 02       		.byte	0x2
 2787 0c8d 19       		.byte	0x19
 2788 0c8e 97070000 		.4byte	0x797
 2789 0c92 05       		.byte	0x5
 2790 0c93 03       		.byte	0x3
 2791 0c94 00000000 		.4byte	P
 2792 0c98 1E       		.uleb128 0x1e
 2793 0c99 4900     		.ascii	"I\000"
 2794 0c9b 02       		.byte	0x2
 2795 0c9c 1A       		.byte	0x1a
 2796 0c9d 97070000 		.4byte	0x797
 2797 0ca1 05       		.byte	0x5
 2798 0ca2 03       		.byte	0x3
ARM GAS  C:\Users\DNIEL~1\AppData\Local\Temp\ccjrwhqg.s 			page 51


 2799 0ca3 00000000 		.4byte	I
 2800 0ca7 1E       		.uleb128 0x1e
 2801 0ca8 4400     		.ascii	"D\000"
 2802 0caa 02       		.byte	0x2
 2803 0cab 1B       		.byte	0x1b
 2804 0cac 97070000 		.4byte	0x797
 2805 0cb0 05       		.byte	0x5
 2806 0cb1 03       		.byte	0x3
 2807 0cb2 00000000 		.4byte	D
 2808 0cb6 30       		.uleb128 0x30
 2809 0cb7 44030000 		.4byte	.LASF83
 2810 0cbb 02       		.byte	0x2
 2811 0cbc 1C       		.byte	0x1c
 2812 0cbd 97070000 		.4byte	0x797
 2813 0cc1 05       		.byte	0x5
 2814 0cc2 03       		.byte	0x3
 2815 0cc3 00000000 		.4byte	eelozo
 2816 0cc7 1E       		.uleb128 0x1e
 2817 0cc8 6500     		.ascii	"e\000"
 2818 0cca 02       		.byte	0x2
 2819 0ccb 1D       		.byte	0x1d
 2820 0ccc 97070000 		.4byte	0x797
 2821 0cd0 05       		.byte	0x5
 2822 0cd1 03       		.byte	0x3
 2823 0cd2 00000000 		.4byte	e
 2824 0cd6 1E       		.uleb128 0x1e
 2825 0cd7 73657400 		.ascii	"set\000"
 2826 0cdb 02       		.byte	0x2
 2827 0cdc 1F       		.byte	0x1f
 2828 0cdd 45000000 		.4byte	0x45
 2829 0ce1 05       		.byte	0x5
 2830 0ce2 03       		.byte	0x3
 2831 0ce3 00000000 		.4byte	set
 2832 0ce7 30       		.uleb128 0x30
 2833 0ce8 63010000 		.4byte	.LASF84
 2834 0cec 02       		.byte	0x2
 2835 0ced 21       		.byte	0x21
 2836 0cee FF050000 		.4byte	0x5ff
 2837 0cf2 05       		.byte	0x5
 2838 0cf3 03       		.byte	0x3
 2839 0cf4 00000000 		.4byte	cruise_pwmcfg
 2840 0cf8 31       		.uleb128 0x31
 2841 0cf9 79000000 		.4byte	.LASF85
 2842 0cfd 0D       		.byte	0xd
 2843 0cfe 9806     		.2byte	0x698
 2844 0d00 F8010000 		.4byte	0x1f8
 2845 0d04 01       		.byte	0x1
 2846 0d05 01       		.byte	0x1
 2847 0d06 31       		.uleb128 0x31
 2848 0d07 21010000 		.4byte	.LASF86
 2849 0d0b 0A       		.byte	0xa
 2850 0d0c C301     		.2byte	0x1c3
 2851 0d0e AC040000 		.4byte	0x4ac
 2852 0d12 01       		.byte	0x1
 2853 0d13 01       		.byte	0x1
 2854 0d14 32       		.uleb128 0x32
 2855 0d15 01       		.byte	0x1
ARM GAS  C:\Users\DNIEL~1\AppData\Local\Temp\ccjrwhqg.s 			page 52


 2856 0d16 7E030000 		.4byte	.LASF87
 2857 0d1a 01       		.byte	0x1
 2858 0d1b 28       		.byte	0x28
 2859 0d1c 01       		.byte	0x1
 2860 0d1d 01       		.byte	0x1
 2861 0d1e 320D0000 		.4byte	0xd32
 2862 0d22 0A       		.uleb128 0xa
 2863 0d23 A9060000 		.4byte	0x6a9
 2864 0d27 0A       		.uleb128 0xa
 2865 0d28 85000000 		.4byte	0x85
 2866 0d2c 0A       		.uleb128 0xa
 2867 0d2d 3B060000 		.4byte	0x63b
 2868 0d31 00       		.byte	0
 2869 0d32 32       		.uleb128 0x32
 2870 0d33 01       		.byte	0x1
 2871 0d34 18010000 		.4byte	.LASF88
 2872 0d38 09       		.byte	0x9
 2873 0d39 F4       		.byte	0xf4
 2874 0d3a 01       		.byte	0x1
 2875 0d3b 01       		.byte	0x1
 2876 0d3c 4B0D0000 		.4byte	0xd4b
 2877 0d40 0A       		.uleb128 0xa
 2878 0d41 2D050000 		.4byte	0x52d
 2879 0d45 0A       		.uleb128 0xa
 2880 0d46 0B060000 		.4byte	0x60b
 2881 0d4a 00       		.byte	0
 2882 0d4b 33       		.uleb128 0x33
 2883 0d4c 01       		.byte	0x1
 2884 0d4d D6020000 		.4byte	.LASF99
 2885 0d51 10       		.byte	0x10
 2886 0d52 11       		.byte	0x11
 2887 0d53 01       		.byte	0x1
 2888 0d54 C7000000 		.4byte	0xc7
 2889 0d58 01       		.byte	0x1
 2890 0d59 32       		.uleb128 0x32
 2891 0d5a 01       		.byte	0x1
 2892 0d5b B2030000 		.4byte	.LASF89
 2893 0d5f 09       		.byte	0x9
 2894 0d60 F7       		.byte	0xf7
 2895 0d61 01       		.byte	0x1
 2896 0d62 01       		.byte	0x1
 2897 0d63 770D0000 		.4byte	0xd77
 2898 0d67 0A       		.uleb128 0xa
 2899 0d68 2D050000 		.4byte	0x52d
 2900 0d6c 0A       		.uleb128 0xa
 2901 0d6d 3F050000 		.4byte	0x53f
 2902 0d71 0A       		.uleb128 0xa
 2903 0d72 4B050000 		.4byte	0x54b
 2904 0d76 00       		.byte	0
 2905 0d77 34       		.uleb128 0x34
 2906 0d78 01       		.byte	0x1
 2907 0d79 0D000000 		.4byte	.LASF90
 2908 0d7d 0E       		.byte	0xe
 2909 0d7e 7501     		.2byte	0x175
 2910 0d80 01       		.byte	0x1
 2911 0d81 01       		.byte	0x1
 2912 0d82 8C0D0000 		.4byte	0xd8c
ARM GAS  C:\Users\DNIEL~1\AppData\Local\Temp\ccjrwhqg.s 			page 53


 2913 0d86 0A       		.uleb128 0xa
 2914 0d87 E4000000 		.4byte	0xe4
 2915 0d8b 00       		.byte	0
 2916 0d8c 35       		.uleb128 0x35
 2917 0d8d 01       		.byte	0x1
 2918 0d8e 18000000 		.4byte	.LASF100
 2919 0d92 11       		.byte	0x11
 2920 0d93 1D       		.byte	0x1d
 2921 0d94 01       		.byte	0x1
 2922 0d95 45000000 		.4byte	0x45
 2923 0d99 01       		.byte	0x1
 2924 0d9a A90D0000 		.4byte	0xda9
 2925 0d9e 0A       		.uleb128 0xa
 2926 0d9f 85000000 		.4byte	0x85
 2927 0da3 0A       		.uleb128 0xa
 2928 0da4 85000000 		.4byte	0x85
 2929 0da8 00       		.byte	0
 2930 0da9 36       		.uleb128 0x36
 2931 0daa 01       		.byte	0x1
 2932 0dab 80020000 		.4byte	.LASF91
 2933 0daf 0F       		.byte	0xf
 2934 0db0 47       		.byte	0x47
 2935 0db1 01       		.byte	0x1
 2936 0db2 61000000 		.4byte	0x61
 2937 0db6 01       		.byte	0x1
 2938 0db7 0A       		.uleb128 0xa
 2939 0db8 85000000 		.4byte	0x85
 2940 0dbc 00       		.byte	0
 2941 0dbd 00       		.byte	0
 2942              		.section	.debug_abbrev,"",%progbits
 2943              	.Ldebug_abbrev0:
 2944 0000 01       		.uleb128 0x1
 2945 0001 11       		.uleb128 0x11
 2946 0002 01       		.byte	0x1
 2947 0003 25       		.uleb128 0x25
 2948 0004 0E       		.uleb128 0xe
 2949 0005 13       		.uleb128 0x13
 2950 0006 0B       		.uleb128 0xb
 2951 0007 03       		.uleb128 0x3
 2952 0008 0E       		.uleb128 0xe
 2953 0009 1B       		.uleb128 0x1b
 2954 000a 0E       		.uleb128 0xe
 2955 000b 55       		.uleb128 0x55
 2956 000c 06       		.uleb128 0x6
 2957 000d 11       		.uleb128 0x11
 2958 000e 01       		.uleb128 0x1
 2959 000f 52       		.uleb128 0x52
 2960 0010 01       		.uleb128 0x1
 2961 0011 10       		.uleb128 0x10
 2962 0012 06       		.uleb128 0x6
 2963 0013 00       		.byte	0
 2964 0014 00       		.byte	0
 2965 0015 02       		.uleb128 0x2
 2966 0016 24       		.uleb128 0x24
 2967 0017 00       		.byte	0
 2968 0018 0B       		.uleb128 0xb
 2969 0019 0B       		.uleb128 0xb
ARM GAS  C:\Users\DNIEL~1\AppData\Local\Temp\ccjrwhqg.s 			page 54


 2970 001a 3E       		.uleb128 0x3e
 2971 001b 0B       		.uleb128 0xb
 2972 001c 03       		.uleb128 0x3
 2973 001d 0E       		.uleb128 0xe
 2974 001e 00       		.byte	0
 2975 001f 00       		.byte	0
 2976 0020 03       		.uleb128 0x3
 2977 0021 24       		.uleb128 0x24
 2978 0022 00       		.byte	0
 2979 0023 0B       		.uleb128 0xb
 2980 0024 0B       		.uleb128 0xb
 2981 0025 3E       		.uleb128 0x3e
 2982 0026 0B       		.uleb128 0xb
 2983 0027 03       		.uleb128 0x3
 2984 0028 08       		.uleb128 0x8
 2985 0029 00       		.byte	0
 2986 002a 00       		.byte	0
 2987 002b 04       		.uleb128 0x4
 2988 002c 0F       		.uleb128 0xf
 2989 002d 00       		.byte	0
 2990 002e 0B       		.uleb128 0xb
 2991 002f 0B       		.uleb128 0xb
 2992 0030 00       		.byte	0
 2993 0031 00       		.byte	0
 2994 0032 05       		.uleb128 0x5
 2995 0033 0F       		.uleb128 0xf
 2996 0034 00       		.byte	0
 2997 0035 0B       		.uleb128 0xb
 2998 0036 0B       		.uleb128 0xb
 2999 0037 49       		.uleb128 0x49
 3000 0038 13       		.uleb128 0x13
 3001 0039 00       		.byte	0
 3002 003a 00       		.byte	0
 3003 003b 06       		.uleb128 0x6
 3004 003c 26       		.uleb128 0x26
 3005 003d 00       		.byte	0
 3006 003e 49       		.uleb128 0x49
 3007 003f 13       		.uleb128 0x13
 3008 0040 00       		.byte	0
 3009 0041 00       		.byte	0
 3010 0042 07       		.uleb128 0x7
 3011 0043 16       		.uleb128 0x16
 3012 0044 00       		.byte	0
 3013 0045 03       		.uleb128 0x3
 3014 0046 0E       		.uleb128 0xe
 3015 0047 3A       		.uleb128 0x3a
 3016 0048 0B       		.uleb128 0xb
 3017 0049 3B       		.uleb128 0x3b
 3018 004a 0B       		.uleb128 0xb
 3019 004b 49       		.uleb128 0x49
 3020 004c 13       		.uleb128 0x13
 3021 004d 00       		.byte	0
 3022 004e 00       		.byte	0
 3023 004f 08       		.uleb128 0x8
 3024 0050 35       		.uleb128 0x35
 3025 0051 00       		.byte	0
 3026 0052 49       		.uleb128 0x49
ARM GAS  C:\Users\DNIEL~1\AppData\Local\Temp\ccjrwhqg.s 			page 55


 3027 0053 13       		.uleb128 0x13
 3028 0054 00       		.byte	0
 3029 0055 00       		.byte	0
 3030 0056 09       		.uleb128 0x9
 3031 0057 15       		.uleb128 0x15
 3032 0058 01       		.byte	0x1
 3033 0059 27       		.uleb128 0x27
 3034 005a 0C       		.uleb128 0xc
 3035 005b 49       		.uleb128 0x49
 3036 005c 13       		.uleb128 0x13
 3037 005d 01       		.uleb128 0x1
 3038 005e 13       		.uleb128 0x13
 3039 005f 00       		.byte	0
 3040 0060 00       		.byte	0
 3041 0061 0A       		.uleb128 0xa
 3042 0062 05       		.uleb128 0x5
 3043 0063 00       		.byte	0
 3044 0064 49       		.uleb128 0x49
 3045 0065 13       		.uleb128 0x13
 3046 0066 00       		.byte	0
 3047 0067 00       		.byte	0
 3048 0068 0B       		.uleb128 0xb
 3049 0069 13       		.uleb128 0x13
 3050 006a 01       		.byte	0x1
 3051 006b 03       		.uleb128 0x3
 3052 006c 0E       		.uleb128 0xe
 3053 006d 0B       		.uleb128 0xb
 3054 006e 0B       		.uleb128 0xb
 3055 006f 3A       		.uleb128 0x3a
 3056 0070 0B       		.uleb128 0xb
 3057 0071 3B       		.uleb128 0x3b
 3058 0072 0B       		.uleb128 0xb
 3059 0073 01       		.uleb128 0x1
 3060 0074 13       		.uleb128 0x13
 3061 0075 00       		.byte	0
 3062 0076 00       		.byte	0
 3063 0077 0C       		.uleb128 0xc
 3064 0078 0D       		.uleb128 0xd
 3065 0079 00       		.byte	0
 3066 007a 03       		.uleb128 0x3
 3067 007b 0E       		.uleb128 0xe
 3068 007c 3A       		.uleb128 0x3a
 3069 007d 0B       		.uleb128 0xb
 3070 007e 3B       		.uleb128 0x3b
 3071 007f 0B       		.uleb128 0xb
 3072 0080 49       		.uleb128 0x49
 3073 0081 13       		.uleb128 0x13
 3074 0082 38       		.uleb128 0x38
 3075 0083 0A       		.uleb128 0xa
 3076 0084 00       		.byte	0
 3077 0085 00       		.byte	0
 3078 0086 0D       		.uleb128 0xd
 3079 0087 0D       		.uleb128 0xd
 3080 0088 00       		.byte	0
 3081 0089 03       		.uleb128 0x3
 3082 008a 08       		.uleb128 0x8
 3083 008b 3A       		.uleb128 0x3a
ARM GAS  C:\Users\DNIEL~1\AppData\Local\Temp\ccjrwhqg.s 			page 56


 3084 008c 0B       		.uleb128 0xb
 3085 008d 3B       		.uleb128 0x3b
 3086 008e 0B       		.uleb128 0xb
 3087 008f 49       		.uleb128 0x49
 3088 0090 13       		.uleb128 0x13
 3089 0091 38       		.uleb128 0x38
 3090 0092 0A       		.uleb128 0xa
 3091 0093 00       		.byte	0
 3092 0094 00       		.byte	0
 3093 0095 0E       		.uleb128 0xe
 3094 0096 13       		.uleb128 0x13
 3095 0097 01       		.byte	0x1
 3096 0098 0B       		.uleb128 0xb
 3097 0099 0B       		.uleb128 0xb
 3098 009a 3A       		.uleb128 0x3a
 3099 009b 0B       		.uleb128 0xb
 3100 009c 3B       		.uleb128 0x3b
 3101 009d 0B       		.uleb128 0xb
 3102 009e 01       		.uleb128 0x1
 3103 009f 13       		.uleb128 0x13
 3104 00a0 00       		.byte	0
 3105 00a1 00       		.byte	0
 3106 00a2 0F       		.uleb128 0xf
 3107 00a3 01       		.uleb128 0x1
 3108 00a4 01       		.byte	0x1
 3109 00a5 49       		.uleb128 0x49
 3110 00a6 13       		.uleb128 0x13
 3111 00a7 01       		.uleb128 0x1
 3112 00a8 13       		.uleb128 0x13
 3113 00a9 00       		.byte	0
 3114 00aa 00       		.byte	0
 3115 00ab 10       		.uleb128 0x10
 3116 00ac 21       		.uleb128 0x21
 3117 00ad 00       		.byte	0
 3118 00ae 49       		.uleb128 0x49
 3119 00af 13       		.uleb128 0x13
 3120 00b0 2F       		.uleb128 0x2f
 3121 00b1 0B       		.uleb128 0xb
 3122 00b2 00       		.byte	0
 3123 00b3 00       		.byte	0
 3124 00b4 11       		.uleb128 0x11
 3125 00b5 13       		.uleb128 0x13
 3126 00b6 01       		.byte	0x1
 3127 00b7 0B       		.uleb128 0xb
 3128 00b8 0B       		.uleb128 0xb
 3129 00b9 3A       		.uleb128 0x3a
 3130 00ba 0B       		.uleb128 0xb
 3131 00bb 3B       		.uleb128 0x3b
 3132 00bc 05       		.uleb128 0x5
 3133 00bd 01       		.uleb128 0x1
 3134 00be 13       		.uleb128 0x13
 3135 00bf 00       		.byte	0
 3136 00c0 00       		.byte	0
 3137 00c1 12       		.uleb128 0x12
 3138 00c2 0D       		.uleb128 0xd
 3139 00c3 00       		.byte	0
 3140 00c4 03       		.uleb128 0x3
ARM GAS  C:\Users\DNIEL~1\AppData\Local\Temp\ccjrwhqg.s 			page 57


 3141 00c5 08       		.uleb128 0x8
 3142 00c6 3A       		.uleb128 0x3a
 3143 00c7 0B       		.uleb128 0xb
 3144 00c8 3B       		.uleb128 0x3b
 3145 00c9 05       		.uleb128 0x5
 3146 00ca 49       		.uleb128 0x49
 3147 00cb 13       		.uleb128 0x13
 3148 00cc 38       		.uleb128 0x38
 3149 00cd 0A       		.uleb128 0xa
 3150 00ce 00       		.byte	0
 3151 00cf 00       		.byte	0
 3152 00d0 13       		.uleb128 0x13
 3153 00d1 0D       		.uleb128 0xd
 3154 00d2 00       		.byte	0
 3155 00d3 03       		.uleb128 0x3
 3156 00d4 0E       		.uleb128 0xe
 3157 00d5 3A       		.uleb128 0x3a
 3158 00d6 0B       		.uleb128 0xb
 3159 00d7 3B       		.uleb128 0x3b
 3160 00d8 05       		.uleb128 0x5
 3161 00d9 49       		.uleb128 0x49
 3162 00da 13       		.uleb128 0x13
 3163 00db 38       		.uleb128 0x38
 3164 00dc 0A       		.uleb128 0xa
 3165 00dd 00       		.byte	0
 3166 00de 00       		.byte	0
 3167 00df 14       		.uleb128 0x14
 3168 00e0 16       		.uleb128 0x16
 3169 00e1 00       		.byte	0
 3170 00e2 03       		.uleb128 0x3
 3171 00e3 0E       		.uleb128 0xe
 3172 00e4 3A       		.uleb128 0x3a
 3173 00e5 0B       		.uleb128 0xb
 3174 00e6 3B       		.uleb128 0x3b
 3175 00e7 05       		.uleb128 0x5
 3176 00e8 49       		.uleb128 0x49
 3177 00e9 13       		.uleb128 0x13
 3178 00ea 00       		.byte	0
 3179 00eb 00       		.byte	0
 3180 00ec 15       		.uleb128 0x15
 3181 00ed 04       		.uleb128 0x4
 3182 00ee 01       		.byte	0x1
 3183 00ef 0B       		.uleb128 0xb
 3184 00f0 0B       		.uleb128 0xb
 3185 00f1 3A       		.uleb128 0x3a
 3186 00f2 0B       		.uleb128 0xb
 3187 00f3 3B       		.uleb128 0x3b
 3188 00f4 0B       		.uleb128 0xb
 3189 00f5 01       		.uleb128 0x1
 3190 00f6 13       		.uleb128 0x13
 3191 00f7 00       		.byte	0
 3192 00f8 00       		.byte	0
 3193 00f9 16       		.uleb128 0x16
 3194 00fa 28       		.uleb128 0x28
 3195 00fb 00       		.byte	0
 3196 00fc 03       		.uleb128 0x3
 3197 00fd 0E       		.uleb128 0xe
ARM GAS  C:\Users\DNIEL~1\AppData\Local\Temp\ccjrwhqg.s 			page 58


 3198 00fe 1C       		.uleb128 0x1c
 3199 00ff 0D       		.uleb128 0xd
 3200 0100 00       		.byte	0
 3201 0101 00       		.byte	0
 3202 0102 17       		.uleb128 0x17
 3203 0103 13       		.uleb128 0x13
 3204 0104 01       		.byte	0x1
 3205 0105 03       		.uleb128 0x3
 3206 0106 0E       		.uleb128 0xe
 3207 0107 0B       		.uleb128 0xb
 3208 0108 0B       		.uleb128 0xb
 3209 0109 3A       		.uleb128 0x3a
 3210 010a 0B       		.uleb128 0xb
 3211 010b 3B       		.uleb128 0x3b
 3212 010c 05       		.uleb128 0x5
 3213 010d 01       		.uleb128 0x1
 3214 010e 13       		.uleb128 0x13
 3215 010f 00       		.byte	0
 3216 0110 00       		.byte	0
 3217 0111 18       		.uleb128 0x18
 3218 0112 15       		.uleb128 0x15
 3219 0113 01       		.byte	0x1
 3220 0114 27       		.uleb128 0x27
 3221 0115 0C       		.uleb128 0xc
 3222 0116 01       		.uleb128 0x1
 3223 0117 13       		.uleb128 0x13
 3224 0118 00       		.byte	0
 3225 0119 00       		.byte	0
 3226 011a 19       		.uleb128 0x19
 3227 011b 0D       		.uleb128 0xd
 3228 011c 00       		.byte	0
 3229 011d 03       		.uleb128 0x3
 3230 011e 0E       		.uleb128 0xe
 3231 011f 49       		.uleb128 0x49
 3232 0120 13       		.uleb128 0x13
 3233 0121 38       		.uleb128 0x38
 3234 0122 0A       		.uleb128 0xa
 3235 0123 34       		.uleb128 0x34
 3236 0124 0C       		.uleb128 0xc
 3237 0125 00       		.byte	0
 3238 0126 00       		.byte	0
 3239 0127 1A       		.uleb128 0x1a
 3240 0128 2E       		.uleb128 0x2e
 3241 0129 01       		.byte	0x1
 3242 012a 03       		.uleb128 0x3
 3243 012b 0E       		.uleb128 0xe
 3244 012c 3A       		.uleb128 0x3a
 3245 012d 0B       		.uleb128 0xb
 3246 012e 3B       		.uleb128 0x3b
 3247 012f 0B       		.uleb128 0xb
 3248 0130 27       		.uleb128 0x27
 3249 0131 0C       		.uleb128 0xc
 3250 0132 11       		.uleb128 0x11
 3251 0133 01       		.uleb128 0x1
 3252 0134 12       		.uleb128 0x12
 3253 0135 01       		.uleb128 0x1
 3254 0136 40       		.uleb128 0x40
ARM GAS  C:\Users\DNIEL~1\AppData\Local\Temp\ccjrwhqg.s 			page 59


 3255 0137 06       		.uleb128 0x6
 3256 0138 9742     		.uleb128 0x2117
 3257 013a 0C       		.uleb128 0xc
 3258 013b 01       		.uleb128 0x1
 3259 013c 13       		.uleb128 0x13
 3260 013d 00       		.byte	0
 3261 013e 00       		.byte	0
 3262 013f 1B       		.uleb128 0x1b
 3263 0140 05       		.uleb128 0x5
 3264 0141 00       		.byte	0
 3265 0142 03       		.uleb128 0x3
 3266 0143 08       		.uleb128 0x8
 3267 0144 3A       		.uleb128 0x3a
 3268 0145 0B       		.uleb128 0xb
 3269 0146 3B       		.uleb128 0x3b
 3270 0147 0B       		.uleb128 0xb
 3271 0148 49       		.uleb128 0x49
 3272 0149 13       		.uleb128 0x13
 3273 014a 02       		.uleb128 0x2
 3274 014b 06       		.uleb128 0x6
 3275 014c 00       		.byte	0
 3276 014d 00       		.byte	0
 3277 014e 1C       		.uleb128 0x1c
 3278 014f 05       		.uleb128 0x5
 3279 0150 00       		.byte	0
 3280 0151 03       		.uleb128 0x3
 3281 0152 08       		.uleb128 0x8
 3282 0153 3A       		.uleb128 0x3a
 3283 0154 0B       		.uleb128 0xb
 3284 0155 3B       		.uleb128 0x3b
 3285 0156 0B       		.uleb128 0xb
 3286 0157 49       		.uleb128 0x49
 3287 0158 13       		.uleb128 0x13
 3288 0159 02       		.uleb128 0x2
 3289 015a 0A       		.uleb128 0xa
 3290 015b 00       		.byte	0
 3291 015c 00       		.byte	0
 3292 015d 1D       		.uleb128 0x1d
 3293 015e 18       		.uleb128 0x18
 3294 015f 00       		.byte	0
 3295 0160 00       		.byte	0
 3296 0161 00       		.byte	0
 3297 0162 1E       		.uleb128 0x1e
 3298 0163 34       		.uleb128 0x34
 3299 0164 00       		.byte	0
 3300 0165 03       		.uleb128 0x3
 3301 0166 08       		.uleb128 0x8
 3302 0167 3A       		.uleb128 0x3a
 3303 0168 0B       		.uleb128 0xb
 3304 0169 3B       		.uleb128 0x3b
 3305 016a 0B       		.uleb128 0xb
 3306 016b 49       		.uleb128 0x49
 3307 016c 13       		.uleb128 0x13
 3308 016d 02       		.uleb128 0x2
 3309 016e 0A       		.uleb128 0xa
 3310 016f 00       		.byte	0
 3311 0170 00       		.byte	0
ARM GAS  C:\Users\DNIEL~1\AppData\Local\Temp\ccjrwhqg.s 			page 60


 3312 0171 1F       		.uleb128 0x1f
 3313 0172 898201   		.uleb128 0x4109
 3314 0175 01       		.byte	0x1
 3315 0176 11       		.uleb128 0x11
 3316 0177 01       		.uleb128 0x1
 3317 0178 31       		.uleb128 0x31
 3318 0179 13       		.uleb128 0x13
 3319 017a 00       		.byte	0
 3320 017b 00       		.byte	0
 3321 017c 20       		.uleb128 0x20
 3322 017d 8A8201   		.uleb128 0x410a
 3323 0180 00       		.byte	0
 3324 0181 02       		.uleb128 0x2
 3325 0182 0A       		.uleb128 0xa
 3326 0183 9142     		.uleb128 0x2111
 3327 0185 0A       		.uleb128 0xa
 3328 0186 00       		.byte	0
 3329 0187 00       		.byte	0
 3330 0188 21       		.uleb128 0x21
 3331 0189 2E       		.uleb128 0x2e
 3332 018a 01       		.byte	0x1
 3333 018b 3F       		.uleb128 0x3f
 3334 018c 0C       		.uleb128 0xc
 3335 018d 03       		.uleb128 0x3
 3336 018e 0E       		.uleb128 0xe
 3337 018f 3A       		.uleb128 0x3a
 3338 0190 0B       		.uleb128 0xb
 3339 0191 3B       		.uleb128 0x3b
 3340 0192 0B       		.uleb128 0xb
 3341 0193 27       		.uleb128 0x27
 3342 0194 0C       		.uleb128 0xc
 3343 0195 11       		.uleb128 0x11
 3344 0196 01       		.uleb128 0x1
 3345 0197 12       		.uleb128 0x12
 3346 0198 01       		.uleb128 0x1
 3347 0199 40       		.uleb128 0x40
 3348 019a 06       		.uleb128 0x6
 3349 019b 9742     		.uleb128 0x2117
 3350 019d 0C       		.uleb128 0xc
 3351 019e 01       		.uleb128 0x1
 3352 019f 13       		.uleb128 0x13
 3353 01a0 00       		.byte	0
 3354 01a1 00       		.byte	0
 3355 01a2 22       		.uleb128 0x22
 3356 01a3 898201   		.uleb128 0x4109
 3357 01a6 01       		.byte	0x1
 3358 01a7 11       		.uleb128 0x11
 3359 01a8 01       		.uleb128 0x1
 3360 01a9 9542     		.uleb128 0x2115
 3361 01ab 0C       		.uleb128 0xc
 3362 01ac 31       		.uleb128 0x31
 3363 01ad 13       		.uleb128 0x13
 3364 01ae 00       		.byte	0
 3365 01af 00       		.byte	0
 3366 01b0 23       		.uleb128 0x23
 3367 01b1 2E       		.uleb128 0x2e
 3368 01b2 01       		.byte	0x1
ARM GAS  C:\Users\DNIEL~1\AppData\Local\Temp\ccjrwhqg.s 			page 61


 3369 01b3 3F       		.uleb128 0x3f
 3370 01b4 0C       		.uleb128 0xc
 3371 01b5 03       		.uleb128 0x3
 3372 01b6 0E       		.uleb128 0xe
 3373 01b7 3A       		.uleb128 0x3a
 3374 01b8 0B       		.uleb128 0xb
 3375 01b9 3B       		.uleb128 0x3b
 3376 01ba 0B       		.uleb128 0xb
 3377 01bb 27       		.uleb128 0x27
 3378 01bc 0C       		.uleb128 0xc
 3379 01bd 49       		.uleb128 0x49
 3380 01be 13       		.uleb128 0x13
 3381 01bf 11       		.uleb128 0x11
 3382 01c0 01       		.uleb128 0x1
 3383 01c1 12       		.uleb128 0x12
 3384 01c2 01       		.uleb128 0x1
 3385 01c3 40       		.uleb128 0x40
 3386 01c4 06       		.uleb128 0x6
 3387 01c5 9642     		.uleb128 0x2116
 3388 01c7 0C       		.uleb128 0xc
 3389 01c8 01       		.uleb128 0x1
 3390 01c9 13       		.uleb128 0x13
 3391 01ca 00       		.byte	0
 3392 01cb 00       		.byte	0
 3393 01cc 24       		.uleb128 0x24
 3394 01cd 05       		.uleb128 0x5
 3395 01ce 00       		.byte	0
 3396 01cf 03       		.uleb128 0x3
 3397 01d0 0E       		.uleb128 0xe
 3398 01d1 3A       		.uleb128 0x3a
 3399 01d2 0B       		.uleb128 0xb
 3400 01d3 3B       		.uleb128 0x3b
 3401 01d4 0B       		.uleb128 0xb
 3402 01d5 49       		.uleb128 0x49
 3403 01d6 13       		.uleb128 0x13
 3404 01d7 02       		.uleb128 0x2
 3405 01d8 06       		.uleb128 0x6
 3406 01d9 00       		.byte	0
 3407 01da 00       		.byte	0
 3408 01db 25       		.uleb128 0x25
 3409 01dc 05       		.uleb128 0x5
 3410 01dd 00       		.byte	0
 3411 01de 03       		.uleb128 0x3
 3412 01df 0E       		.uleb128 0xe
 3413 01e0 3A       		.uleb128 0x3a
 3414 01e1 0B       		.uleb128 0xb
 3415 01e2 3B       		.uleb128 0x3b
 3416 01e3 0B       		.uleb128 0xb
 3417 01e4 49       		.uleb128 0x49
 3418 01e5 13       		.uleb128 0x13
 3419 01e6 02       		.uleb128 0x2
 3420 01e7 0A       		.uleb128 0xa
 3421 01e8 00       		.byte	0
 3422 01e9 00       		.byte	0
 3423 01ea 26       		.uleb128 0x26
 3424 01eb 34       		.uleb128 0x34
 3425 01ec 00       		.byte	0
ARM GAS  C:\Users\DNIEL~1\AppData\Local\Temp\ccjrwhqg.s 			page 62


 3426 01ed 03       		.uleb128 0x3
 3427 01ee 08       		.uleb128 0x8
 3428 01ef 3A       		.uleb128 0x3a
 3429 01f0 0B       		.uleb128 0xb
 3430 01f1 3B       		.uleb128 0x3b
 3431 01f2 0B       		.uleb128 0xb
 3432 01f3 49       		.uleb128 0x49
 3433 01f4 13       		.uleb128 0x13
 3434 01f5 02       		.uleb128 0x2
 3435 01f6 06       		.uleb128 0x6
 3436 01f7 00       		.byte	0
 3437 01f8 00       		.byte	0
 3438 01f9 27       		.uleb128 0x27
 3439 01fa 2E       		.uleb128 0x2e
 3440 01fb 01       		.byte	0x1
 3441 01fc 3F       		.uleb128 0x3f
 3442 01fd 0C       		.uleb128 0xc
 3443 01fe 03       		.uleb128 0x3
 3444 01ff 0E       		.uleb128 0xe
 3445 0200 3A       		.uleb128 0x3a
 3446 0201 0B       		.uleb128 0xb
 3447 0202 3B       		.uleb128 0x3b
 3448 0203 0B       		.uleb128 0xb
 3449 0204 27       		.uleb128 0x27
 3450 0205 0C       		.uleb128 0xc
 3451 0206 11       		.uleb128 0x11
 3452 0207 01       		.uleb128 0x1
 3453 0208 12       		.uleb128 0x12
 3454 0209 01       		.uleb128 0x1
 3455 020a 40       		.uleb128 0x40
 3456 020b 06       		.uleb128 0x6
 3457 020c 9642     		.uleb128 0x2116
 3458 020e 0C       		.uleb128 0xc
 3459 020f 01       		.uleb128 0x1
 3460 0210 13       		.uleb128 0x13
 3461 0211 00       		.byte	0
 3462 0212 00       		.byte	0
 3463 0213 28       		.uleb128 0x28
 3464 0214 898201   		.uleb128 0x4109
 3465 0217 00       		.byte	0
 3466 0218 11       		.uleb128 0x11
 3467 0219 01       		.uleb128 0x1
 3468 021a 31       		.uleb128 0x31
 3469 021b 13       		.uleb128 0x13
 3470 021c 00       		.byte	0
 3471 021d 00       		.byte	0
 3472 021e 29       		.uleb128 0x29
 3473 021f 898201   		.uleb128 0x4109
 3474 0222 01       		.byte	0x1
 3475 0223 11       		.uleb128 0x11
 3476 0224 01       		.uleb128 0x1
 3477 0225 31       		.uleb128 0x31
 3478 0226 13       		.uleb128 0x13
 3479 0227 01       		.uleb128 0x1
 3480 0228 13       		.uleb128 0x13
 3481 0229 00       		.byte	0
 3482 022a 00       		.byte	0
ARM GAS  C:\Users\DNIEL~1\AppData\Local\Temp\ccjrwhqg.s 			page 63


 3483 022b 2A       		.uleb128 0x2a
 3484 022c 898201   		.uleb128 0x4109
 3485 022f 01       		.byte	0x1
 3486 0230 11       		.uleb128 0x11
 3487 0231 01       		.uleb128 0x1
 3488 0232 00       		.byte	0
 3489 0233 00       		.byte	0
 3490 0234 2B       		.uleb128 0x2b
 3491 0235 34       		.uleb128 0x34
 3492 0236 00       		.byte	0
 3493 0237 03       		.uleb128 0x3
 3494 0238 0E       		.uleb128 0xe
 3495 0239 3A       		.uleb128 0x3a
 3496 023a 0B       		.uleb128 0xb
 3497 023b 3B       		.uleb128 0x3b
 3498 023c 0B       		.uleb128 0xb
 3499 023d 49       		.uleb128 0x49
 3500 023e 13       		.uleb128 0x13
 3501 023f 02       		.uleb128 0x2
 3502 0240 06       		.uleb128 0x6
 3503 0241 00       		.byte	0
 3504 0242 00       		.byte	0
 3505 0243 2C       		.uleb128 0x2c
 3506 0244 0A       		.uleb128 0xa
 3507 0245 00       		.byte	0
 3508 0246 03       		.uleb128 0x3
 3509 0247 0E       		.uleb128 0xe
 3510 0248 3A       		.uleb128 0x3a
 3511 0249 0B       		.uleb128 0xb
 3512 024a 3B       		.uleb128 0x3b
 3513 024b 0B       		.uleb128 0xb
 3514 024c 11       		.uleb128 0x11
 3515 024d 01       		.uleb128 0x1
 3516 024e 00       		.byte	0
 3517 024f 00       		.byte	0
 3518 0250 2D       		.uleb128 0x2d
 3519 0251 898201   		.uleb128 0x4109
 3520 0254 01       		.byte	0x1
 3521 0255 11       		.uleb128 0x11
 3522 0256 01       		.uleb128 0x1
 3523 0257 01       		.uleb128 0x1
 3524 0258 13       		.uleb128 0x13
 3525 0259 00       		.byte	0
 3526 025a 00       		.byte	0
 3527 025b 2E       		.uleb128 0x2e
 3528 025c 898201   		.uleb128 0x4109
 3529 025f 01       		.byte	0x1
 3530 0260 11       		.uleb128 0x11
 3531 0261 01       		.uleb128 0x1
 3532 0262 9542     		.uleb128 0x2115
 3533 0264 0C       		.uleb128 0xc
 3534 0265 31       		.uleb128 0x31
 3535 0266 13       		.uleb128 0x13
 3536 0267 01       		.uleb128 0x1
 3537 0268 13       		.uleb128 0x13
 3538 0269 00       		.byte	0
 3539 026a 00       		.byte	0
ARM GAS  C:\Users\DNIEL~1\AppData\Local\Temp\ccjrwhqg.s 			page 64


 3540 026b 2F       		.uleb128 0x2f
 3541 026c 34       		.uleb128 0x34
 3542 026d 00       		.byte	0
 3543 026e 03       		.uleb128 0x3
 3544 026f 0E       		.uleb128 0xe
 3545 0270 3A       		.uleb128 0x3a
 3546 0271 0B       		.uleb128 0xb
 3547 0272 3B       		.uleb128 0x3b
 3548 0273 0B       		.uleb128 0xb
 3549 0274 49       		.uleb128 0x49
 3550 0275 13       		.uleb128 0x13
 3551 0276 1C       		.uleb128 0x1c
 3552 0277 0A       		.uleb128 0xa
 3553 0278 00       		.byte	0
 3554 0279 00       		.byte	0
 3555 027a 30       		.uleb128 0x30
 3556 027b 34       		.uleb128 0x34
 3557 027c 00       		.byte	0
 3558 027d 03       		.uleb128 0x3
 3559 027e 0E       		.uleb128 0xe
 3560 027f 3A       		.uleb128 0x3a
 3561 0280 0B       		.uleb128 0xb
 3562 0281 3B       		.uleb128 0x3b
 3563 0282 0B       		.uleb128 0xb
 3564 0283 49       		.uleb128 0x49
 3565 0284 13       		.uleb128 0x13
 3566 0285 02       		.uleb128 0x2
 3567 0286 0A       		.uleb128 0xa
 3568 0287 00       		.byte	0
 3569 0288 00       		.byte	0
 3570 0289 31       		.uleb128 0x31
 3571 028a 34       		.uleb128 0x34
 3572 028b 00       		.byte	0
 3573 028c 03       		.uleb128 0x3
 3574 028d 0E       		.uleb128 0xe
 3575 028e 3A       		.uleb128 0x3a
 3576 028f 0B       		.uleb128 0xb
 3577 0290 3B       		.uleb128 0x3b
 3578 0291 05       		.uleb128 0x5
 3579 0292 49       		.uleb128 0x49
 3580 0293 13       		.uleb128 0x13
 3581 0294 3F       		.uleb128 0x3f
 3582 0295 0C       		.uleb128 0xc
 3583 0296 3C       		.uleb128 0x3c
 3584 0297 0C       		.uleb128 0xc
 3585 0298 00       		.byte	0
 3586 0299 00       		.byte	0
 3587 029a 32       		.uleb128 0x32
 3588 029b 2E       		.uleb128 0x2e
 3589 029c 01       		.byte	0x1
 3590 029d 3F       		.uleb128 0x3f
 3591 029e 0C       		.uleb128 0xc
 3592 029f 03       		.uleb128 0x3
 3593 02a0 0E       		.uleb128 0xe
 3594 02a1 3A       		.uleb128 0x3a
 3595 02a2 0B       		.uleb128 0xb
 3596 02a3 3B       		.uleb128 0x3b
ARM GAS  C:\Users\DNIEL~1\AppData\Local\Temp\ccjrwhqg.s 			page 65


 3597 02a4 0B       		.uleb128 0xb
 3598 02a5 27       		.uleb128 0x27
 3599 02a6 0C       		.uleb128 0xc
 3600 02a7 3C       		.uleb128 0x3c
 3601 02a8 0C       		.uleb128 0xc
 3602 02a9 01       		.uleb128 0x1
 3603 02aa 13       		.uleb128 0x13
 3604 02ab 00       		.byte	0
 3605 02ac 00       		.byte	0
 3606 02ad 33       		.uleb128 0x33
 3607 02ae 2E       		.uleb128 0x2e
 3608 02af 00       		.byte	0
 3609 02b0 3F       		.uleb128 0x3f
 3610 02b1 0C       		.uleb128 0xc
 3611 02b2 03       		.uleb128 0x3
 3612 02b3 0E       		.uleb128 0xe
 3613 02b4 3A       		.uleb128 0x3a
 3614 02b5 0B       		.uleb128 0xb
 3615 02b6 3B       		.uleb128 0x3b
 3616 02b7 0B       		.uleb128 0xb
 3617 02b8 27       		.uleb128 0x27
 3618 02b9 0C       		.uleb128 0xc
 3619 02ba 49       		.uleb128 0x49
 3620 02bb 13       		.uleb128 0x13
 3621 02bc 3C       		.uleb128 0x3c
 3622 02bd 0C       		.uleb128 0xc
 3623 02be 00       		.byte	0
 3624 02bf 00       		.byte	0
 3625 02c0 34       		.uleb128 0x34
 3626 02c1 2E       		.uleb128 0x2e
 3627 02c2 01       		.byte	0x1
 3628 02c3 3F       		.uleb128 0x3f
 3629 02c4 0C       		.uleb128 0xc
 3630 02c5 03       		.uleb128 0x3
 3631 02c6 0E       		.uleb128 0xe
 3632 02c7 3A       		.uleb128 0x3a
 3633 02c8 0B       		.uleb128 0xb
 3634 02c9 3B       		.uleb128 0x3b
 3635 02ca 05       		.uleb128 0x5
 3636 02cb 27       		.uleb128 0x27
 3637 02cc 0C       		.uleb128 0xc
 3638 02cd 3C       		.uleb128 0x3c
 3639 02ce 0C       		.uleb128 0xc
 3640 02cf 01       		.uleb128 0x1
 3641 02d0 13       		.uleb128 0x13
 3642 02d1 00       		.byte	0
 3643 02d2 00       		.byte	0
 3644 02d3 35       		.uleb128 0x35
 3645 02d4 2E       		.uleb128 0x2e
 3646 02d5 01       		.byte	0x1
 3647 02d6 3F       		.uleb128 0x3f
 3648 02d7 0C       		.uleb128 0xc
 3649 02d8 03       		.uleb128 0x3
 3650 02d9 0E       		.uleb128 0xe
 3651 02da 3A       		.uleb128 0x3a
 3652 02db 0B       		.uleb128 0xb
 3653 02dc 3B       		.uleb128 0x3b
ARM GAS  C:\Users\DNIEL~1\AppData\Local\Temp\ccjrwhqg.s 			page 66


 3654 02dd 0B       		.uleb128 0xb
 3655 02de 27       		.uleb128 0x27
 3656 02df 0C       		.uleb128 0xc
 3657 02e0 49       		.uleb128 0x49
 3658 02e1 13       		.uleb128 0x13
 3659 02e2 3C       		.uleb128 0x3c
 3660 02e3 0C       		.uleb128 0xc
 3661 02e4 01       		.uleb128 0x1
 3662 02e5 13       		.uleb128 0x13
 3663 02e6 00       		.byte	0
 3664 02e7 00       		.byte	0
 3665 02e8 36       		.uleb128 0x36
 3666 02e9 2E       		.uleb128 0x2e
 3667 02ea 01       		.byte	0x1
 3668 02eb 3F       		.uleb128 0x3f
 3669 02ec 0C       		.uleb128 0xc
 3670 02ed 03       		.uleb128 0x3
 3671 02ee 0E       		.uleb128 0xe
 3672 02ef 3A       		.uleb128 0x3a
 3673 02f0 0B       		.uleb128 0xb
 3674 02f1 3B       		.uleb128 0x3b
 3675 02f2 0B       		.uleb128 0xb
 3676 02f3 27       		.uleb128 0x27
 3677 02f4 0C       		.uleb128 0xc
 3678 02f5 49       		.uleb128 0x49
 3679 02f6 13       		.uleb128 0x13
 3680 02f7 3C       		.uleb128 0x3c
 3681 02f8 0C       		.uleb128 0xc
 3682 02f9 00       		.byte	0
 3683 02fa 00       		.byte	0
 3684 02fb 00       		.byte	0
 3685              		.section	.debug_loc,"",%progbits
 3686              	.Ldebug_loc0:
 3687              	.LLST0:
 3688 0000 00000000 		.4byte	.LFB118
 3689 0004 02000000 		.4byte	.LCFI0
 3690 0008 0200     		.2byte	0x2
 3691 000a 7D       		.byte	0x7d
 3692 000b 00       		.sleb128 0
 3693 000c 02000000 		.4byte	.LCFI0
 3694 0010 04000000 		.4byte	.LCFI1
 3695 0014 0200     		.2byte	0x2
 3696 0016 7D       		.byte	0x7d
 3697 0017 0C       		.sleb128 12
 3698 0018 04000000 		.4byte	.LCFI1
 3699 001c 06000000 		.4byte	.LCFI2
 3700 0020 0200     		.2byte	0x2
 3701 0022 7D       		.byte	0x7d
 3702 0023 10       		.sleb128 16
 3703 0024 06000000 		.4byte	.LCFI2
 3704 0028 1E000000 		.4byte	.LFE118
 3705 002c 0200     		.2byte	0x2
 3706 002e 7D       		.byte	0x7d
 3707 002f 18       		.sleb128 24
 3708 0030 00000000 		.4byte	0
 3709 0034 00000000 		.4byte	0
 3710              	.LLST1:
ARM GAS  C:\Users\DNIEL~1\AppData\Local\Temp\ccjrwhqg.s 			page 67


 3711 0038 00000000 		.4byte	.LVL0
 3712 003c 13000000 		.4byte	.LVL1-1
 3713 0040 0100     		.2byte	0x1
 3714 0042 50       		.byte	0x50
 3715 0043 13000000 		.4byte	.LVL1-1
 3716 0047 1E000000 		.4byte	.LFE118
 3717 004b 0400     		.2byte	0x4
 3718 004d F3       		.byte	0xf3
 3719 004e 01       		.uleb128 0x1
 3720 004f 50       		.byte	0x50
 3721 0050 9F       		.byte	0x9f
 3722 0051 00000000 		.4byte	0
 3723 0055 00000000 		.4byte	0
 3724              	.LLST2:
 3725 0059 00000000 		.4byte	.LFB119
 3726 005d 04000000 		.4byte	.LCFI3
 3727 0061 0200     		.2byte	0x2
 3728 0063 7D       		.byte	0x7d
 3729 0064 00       		.sleb128 0
 3730 0065 04000000 		.4byte	.LCFI3
 3731 0069 7A000000 		.4byte	.LFE119
 3732 006d 0200     		.2byte	0x2
 3733 006f 7D       		.byte	0x7d
 3734 0070 1C       		.sleb128 28
 3735 0071 00000000 		.4byte	0
 3736 0075 00000000 		.4byte	0
 3737              	.LLST3:
 3738 0079 00000000 		.4byte	.LFB121
 3739 007d 04000000 		.4byte	.LCFI4
 3740 0081 0200     		.2byte	0x2
 3741 0083 7D       		.byte	0x7d
 3742 0084 00       		.sleb128 0
 3743 0085 04000000 		.4byte	.LCFI4
 3744 0089 06000000 		.4byte	.LCFI5
 3745 008d 0200     		.2byte	0x2
 3746 008f 7D       		.byte	0x7d
 3747 0090 24       		.sleb128 36
 3748 0091 06000000 		.4byte	.LCFI5
 3749 0095 80010000 		.4byte	.LFE121
 3750 0099 0200     		.2byte	0x2
 3751 009b 7D       		.byte	0x7d
 3752 009c 38       		.sleb128 56
 3753 009d 00000000 		.4byte	0
 3754 00a1 00000000 		.4byte	0
 3755              	.LLST4:
 3756 00a5 00000000 		.4byte	.LVL3
 3757 00a9 08000000 		.4byte	.LVL4
 3758 00ad 0100     		.2byte	0x1
 3759 00af 50       		.byte	0x50
 3760 00b0 08000000 		.4byte	.LVL4
 3761 00b4 80010000 		.4byte	.LFE121
 3762 00b8 0400     		.2byte	0x4
 3763 00ba F3       		.byte	0xf3
 3764 00bb 01       		.uleb128 0x1
 3765 00bc 50       		.byte	0x50
 3766 00bd 9F       		.byte	0x9f
 3767 00be 00000000 		.4byte	0
ARM GAS  C:\Users\DNIEL~1\AppData\Local\Temp\ccjrwhqg.s 			page 68


 3768 00c2 00000000 		.4byte	0
 3769              	.LLST5:
 3770 00c6 00000000 		.4byte	.LVL3
 3771 00ca 0F000000 		.4byte	.LVL5-1
 3772 00ce 0100     		.2byte	0x1
 3773 00d0 51       		.byte	0x51
 3774 00d1 0F000000 		.4byte	.LVL5-1
 3775 00d5 80010000 		.4byte	.LFE121
 3776 00d9 0400     		.2byte	0x4
 3777 00db F3       		.byte	0xf3
 3778 00dc 01       		.uleb128 0x1
 3779 00dd 51       		.byte	0x51
 3780 00de 9F       		.byte	0x9f
 3781 00df 00000000 		.4byte	0
 3782 00e3 00000000 		.4byte	0
 3783              	.LLST6:
 3784 00e7 00000000 		.4byte	.LVL3
 3785 00eb 0F000000 		.4byte	.LVL5-1
 3786 00ef 0100     		.2byte	0x1
 3787 00f1 52       		.byte	0x52
 3788 00f2 0F000000 		.4byte	.LVL5-1
 3789 00f6 80010000 		.4byte	.LFE121
 3790 00fa 0200     		.2byte	0x2
 3791 00fc 91       		.byte	0x91
 3792 00fd 50       		.sleb128 -48
 3793 00fe 00000000 		.4byte	0
 3794 0102 00000000 		.4byte	0
 3795              	.LLST7:
 3796 0106 00000000 		.4byte	.LVL3
 3797 010a 0F000000 		.4byte	.LVL5-1
 3798 010e 0100     		.2byte	0x1
 3799 0110 53       		.byte	0x53
 3800 0111 0F000000 		.4byte	.LVL5-1
 3801 0115 80010000 		.4byte	.LFE121
 3802 0119 0200     		.2byte	0x2
 3803 011b 91       		.byte	0x91
 3804 011c 54       		.sleb128 -44
 3805 011d 00000000 		.4byte	0
 3806 0121 00000000 		.4byte	0
 3807              	.LLST8:
 3808 0125 2A010000 		.4byte	.LVL25
 3809 0129 4A010000 		.4byte	.LVL27
 3810 012d 0100     		.2byte	0x1
 3811 012f 50       		.byte	0x50
 3812 0130 6C010000 		.4byte	.LVL28
 3813 0134 6E010000 		.4byte	.LVL29
 3814 0138 0100     		.2byte	0x1
 3815 013a 50       		.byte	0x50
 3816 013b 00000000 		.4byte	0
 3817 013f 00000000 		.4byte	0
 3818              	.LLST9:
 3819 0143 00000000 		.4byte	.LFB120
 3820 0147 02000000 		.4byte	.LCFI6
 3821 014b 0200     		.2byte	0x2
 3822 014d 7D       		.byte	0x7d
 3823 014e 00       		.sleb128 0
 3824 014f 02000000 		.4byte	.LCFI6
ARM GAS  C:\Users\DNIEL~1\AppData\Local\Temp\ccjrwhqg.s 			page 69


 3825 0153 04000000 		.4byte	.LCFI7
 3826 0157 0200     		.2byte	0x2
 3827 0159 7D       		.byte	0x7d
 3828 015a 10       		.sleb128 16
 3829 015b 04000000 		.4byte	.LCFI7
 3830 015f C0000000 		.4byte	.LFE120
 3831 0163 0200     		.2byte	0x2
 3832 0165 7D       		.byte	0x7d
 3833 0166 38       		.sleb128 56
 3834 0167 00000000 		.4byte	0
 3835 016b 00000000 		.4byte	0
 3836              	.LLST10:
 3837 016f 00000000 		.4byte	.LFB122
 3838 0173 04000000 		.4byte	.LCFI8
 3839 0177 0200     		.2byte	0x2
 3840 0179 7D       		.byte	0x7d
 3841 017a 00       		.sleb128 0
 3842 017b 04000000 		.4byte	.LCFI8
 3843 017f FC000000 		.4byte	.LFE122
 3844 0183 0200     		.2byte	0x2
 3845 0185 7D       		.byte	0x7d
 3846 0186 20       		.sleb128 32
 3847 0187 00000000 		.4byte	0
 3848 018b 00000000 		.4byte	0
 3849              	.LLST11:
 3850 018f 00000000 		.4byte	.LVL36
 3851 0193 17000000 		.4byte	.LVL38-1
 3852 0197 0100     		.2byte	0x1
 3853 0199 50       		.byte	0x50
 3854 019a 17000000 		.4byte	.LVL38-1
 3855 019e 22000000 		.4byte	.LVL40
 3856 01a2 0100     		.2byte	0x1
 3857 01a4 54       		.byte	0x54
 3858 01a5 22000000 		.4byte	.LVL40
 3859 01a9 25000000 		.4byte	.LVL41-1
 3860 01ad 0100     		.2byte	0x1
 3861 01af 50       		.byte	0x50
 3862 01b0 25000000 		.4byte	.LVL41-1
 3863 01b4 B4000000 		.4byte	.LVL54
 3864 01b8 0100     		.2byte	0x1
 3865 01ba 54       		.byte	0x54
 3866 01bb B4000000 		.4byte	.LVL54
 3867 01bf FC000000 		.4byte	.LFE122
 3868 01c3 0100     		.2byte	0x1
 3869 01c5 50       		.byte	0x50
 3870 01c6 00000000 		.4byte	0
 3871 01ca 00000000 		.4byte	0
 3872              	.LLST12:
 3873 01ce 00000000 		.4byte	.LVL36
 3874 01d2 06000000 		.4byte	.LVL37
 3875 01d6 0100     		.2byte	0x1
 3876 01d8 51       		.byte	0x51
 3877 01d9 06000000 		.4byte	.LVL37
 3878 01dd FC000000 		.4byte	.LFE122
 3879 01e1 0400     		.2byte	0x4
 3880 01e3 F3       		.byte	0xf3
 3881 01e4 01       		.uleb128 0x1
ARM GAS  C:\Users\DNIEL~1\AppData\Local\Temp\ccjrwhqg.s 			page 70


 3882 01e5 51       		.byte	0x51
 3883 01e6 9F       		.byte	0x9f
 3884 01e7 00000000 		.4byte	0
 3885 01eb 00000000 		.4byte	0
 3886              	.LLST13:
 3887 01ef 00000000 		.4byte	.LVL36
 3888 01f3 17000000 		.4byte	.LVL38-1
 3889 01f7 0100     		.2byte	0x1
 3890 01f9 52       		.byte	0x52
 3891 01fa 17000000 		.4byte	.LVL38-1
 3892 01fe FC000000 		.4byte	.LFE122
 3893 0202 0400     		.2byte	0x4
 3894 0204 F3       		.byte	0xf3
 3895 0205 01       		.uleb128 0x1
 3896 0206 52       		.byte	0x52
 3897 0207 9F       		.byte	0x9f
 3898 0208 00000000 		.4byte	0
 3899 020c 00000000 		.4byte	0
 3900              	.LLST14:
 3901 0210 00000000 		.4byte	.LFB123
 3902 0214 02000000 		.4byte	.LCFI9
 3903 0218 0200     		.2byte	0x2
 3904 021a 7D       		.byte	0x7d
 3905 021b 00       		.sleb128 0
 3906 021c 02000000 		.4byte	.LCFI9
 3907 0220 AC010000 		.4byte	.LFE123
 3908 0224 0200     		.2byte	0x2
 3909 0226 7D       		.byte	0x7d
 3910 0227 18       		.sleb128 24
 3911 0228 00000000 		.4byte	0
 3912 022c 00000000 		.4byte	0
 3913              	.LLST15:
 3914 0230 00000000 		.4byte	.LVL55
 3915 0234 0D000000 		.4byte	.LVL57-1
 3916 0238 0100     		.2byte	0x1
 3917 023a 50       		.byte	0x50
 3918 023b 0D000000 		.4byte	.LVL57-1
 3919 023f AC010000 		.4byte	.LFE123
 3920 0243 0100     		.2byte	0x1
 3921 0245 54       		.byte	0x54
 3922 0246 00000000 		.4byte	0
 3923 024a 00000000 		.4byte	0
 3924              	.LLST16:
 3925 024e 00000000 		.4byte	.LVL55
 3926 0252 08000000 		.4byte	.LVL56
 3927 0256 0100     		.2byte	0x1
 3928 0258 51       		.byte	0x51
 3929 0259 08000000 		.4byte	.LVL56
 3930 025d 36000000 		.4byte	.LVL61
 3931 0261 0100     		.2byte	0x1
 3932 0263 55       		.byte	0x55
 3933 0264 36000000 		.4byte	.LVL61
 3934 0268 42000000 		.4byte	.LVL62
 3935 026c 0400     		.2byte	0x4
 3936 026e F3       		.byte	0xf3
 3937 026f 01       		.uleb128 0x1
 3938 0270 51       		.byte	0x51
ARM GAS  C:\Users\DNIEL~1\AppData\Local\Temp\ccjrwhqg.s 			page 71


 3939 0271 9F       		.byte	0x9f
 3940 0272 42000000 		.4byte	.LVL62
 3941 0276 44000000 		.4byte	.LVL63
 3942 027a 0100     		.2byte	0x1
 3943 027c 55       		.byte	0x55
 3944 027d 44000000 		.4byte	.LVL63
 3945 0281 AC010000 		.4byte	.LFE123
 3946 0285 0400     		.2byte	0x4
 3947 0287 F3       		.byte	0xf3
 3948 0288 01       		.uleb128 0x1
 3949 0289 51       		.byte	0x51
 3950 028a 9F       		.byte	0x9f
 3951 028b 00000000 		.4byte	0
 3952 028f 00000000 		.4byte	0
 3953              	.LLST17:
 3954 0293 00000000 		.4byte	.LVL55
 3955 0297 0D000000 		.4byte	.LVL57-1
 3956 029b 0100     		.2byte	0x1
 3957 029d 52       		.byte	0x52
 3958 029e 0D000000 		.4byte	.LVL57-1
 3959 02a2 84000000 		.4byte	.LVL71
 3960 02a6 0100     		.2byte	0x1
 3961 02a8 56       		.byte	0x56
 3962 02a9 84000000 		.4byte	.LVL71
 3963 02ad BE000000 		.4byte	.LVL75
 3964 02b1 0400     		.2byte	0x4
 3965 02b3 F3       		.byte	0xf3
 3966 02b4 01       		.uleb128 0x1
 3967 02b5 52       		.byte	0x52
 3968 02b6 9F       		.byte	0x9f
 3969 02b7 BE000000 		.4byte	.LVL75
 3970 02bb 12010000 		.4byte	.LVL88
 3971 02bf 0100     		.2byte	0x1
 3972 02c1 56       		.byte	0x56
 3973 02c2 12010000 		.4byte	.LVL88
 3974 02c6 18010000 		.4byte	.LVL90
 3975 02ca 0400     		.2byte	0x4
 3976 02cc F3       		.byte	0xf3
 3977 02cd 01       		.uleb128 0x1
 3978 02ce 52       		.byte	0x52
 3979 02cf 9F       		.byte	0x9f
 3980 02d0 18010000 		.4byte	.LVL90
 3981 02d4 AC010000 		.4byte	.LFE123
 3982 02d8 0100     		.2byte	0x1
 3983 02da 56       		.byte	0x56
 3984 02db 00000000 		.4byte	0
 3985 02df 00000000 		.4byte	0
 3986              	.LLST18:
 3987 02e3 7C000000 		.4byte	.LVL69
 3988 02e7 7E000000 		.4byte	.LVL70
 3989 02eb 0100     		.2byte	0x1
 3990 02ed 50       		.byte	0x50
 3991 02ee 7E000000 		.4byte	.LVL70
 3992 02f2 BE000000 		.4byte	.LVL75
 3993 02f6 0100     		.2byte	0x1
 3994 02f8 55       		.byte	0x55
 3995 02f9 C6000000 		.4byte	.LVL77
ARM GAS  C:\Users\DNIEL~1\AppData\Local\Temp\ccjrwhqg.s 			page 72


 3996 02fd C8000000 		.4byte	.LVL78
 3997 0301 0100     		.2byte	0x1
 3998 0303 50       		.byte	0x50
 3999 0304 C8000000 		.4byte	.LVL78
 4000 0308 D4000000 		.4byte	.LVL79
 4001 030c 0100     		.2byte	0x1
 4002 030e 57       		.byte	0x57
 4003 030f DC000000 		.4byte	.LVL81
 4004 0313 DE000000 		.4byte	.LVL82
 4005 0317 0100     		.2byte	0x1
 4006 0319 50       		.byte	0x50
 4007 031a DE000000 		.4byte	.LVL82
 4008 031e EA000000 		.4byte	.LVL83
 4009 0322 0100     		.2byte	0x1
 4010 0324 57       		.byte	0x57
 4011 0325 F0000000 		.4byte	.LVL84
 4012 0329 FA000000 		.4byte	.LVL85
 4013 032d 0100     		.2byte	0x1
 4014 032f 50       		.byte	0x50
 4015 0330 FA000000 		.4byte	.LVL85
 4016 0334 18010000 		.4byte	.LVL90
 4017 0338 0100     		.2byte	0x1
 4018 033a 55       		.byte	0x55
 4019 033b 18010000 		.4byte	.LVL90
 4020 033f AC010000 		.4byte	.LFE123
 4021 0343 0100     		.2byte	0x1
 4022 0345 57       		.byte	0x57
 4023 0346 00000000 		.4byte	0
 4024 034a 00000000 		.4byte	0
 4025              		.section	.debug_aranges,"",%progbits
 4026 0000 44000000 		.4byte	0x44
 4027 0004 0200     		.2byte	0x2
 4028 0006 00000000 		.4byte	.Ldebug_info0
 4029 000a 04       		.byte	0x4
 4030 000b 00       		.byte	0
 4031 000c 0000     		.2byte	0
 4032 000e 0000     		.2byte	0
 4033 0010 00000000 		.4byte	.LFB118
 4034 0014 1E000000 		.4byte	.LFE118-.LFB118
 4035 0018 00000000 		.4byte	.LFB119
 4036 001c 7A000000 		.4byte	.LFE119-.LFB119
 4037 0020 00000000 		.4byte	.LFB121
 4038 0024 80010000 		.4byte	.LFE121-.LFB121
 4039 0028 00000000 		.4byte	.LFB120
 4040 002c C0000000 		.4byte	.LFE120-.LFB120
 4041 0030 00000000 		.4byte	.LFB122
 4042 0034 FC000000 		.4byte	.LFE122-.LFB122
 4043 0038 00000000 		.4byte	.LFB123
 4044 003c AC010000 		.4byte	.LFE123-.LFB123
 4045 0040 00000000 		.4byte	0
 4046 0044 00000000 		.4byte	0
 4047              		.section	.debug_ranges,"",%progbits
 4048              	.Ldebug_ranges0:
 4049 0000 00000000 		.4byte	.LFB118
 4050 0004 1E000000 		.4byte	.LFE118
 4051 0008 00000000 		.4byte	.LFB119
 4052 000c 7A000000 		.4byte	.LFE119
ARM GAS  C:\Users\DNIEL~1\AppData\Local\Temp\ccjrwhqg.s 			page 73


 4053 0010 00000000 		.4byte	.LFB121
 4054 0014 80010000 		.4byte	.LFE121
 4055 0018 00000000 		.4byte	.LFB120
 4056 001c C0000000 		.4byte	.LFE120
 4057 0020 00000000 		.4byte	.LFB122
 4058 0024 FC000000 		.4byte	.LFE122
 4059 0028 00000000 		.4byte	.LFB123
 4060 002c AC010000 		.4byte	.LFE123
 4061 0030 00000000 		.4byte	0
 4062 0034 00000000 		.4byte	0
 4063              		.section	.debug_line,"",%progbits
 4064              	.Ldebug_line0:
 4065 0000 13040000 		.section	.debug_str,"MS",%progbits,1
 4065      0200C202 
 4065      00000201 
 4065      FB0E0D00 
 4065      01010101 
 4066              	.LASF52:
 4067 0000 70776D63 		.ascii	"pwmchannel_t\000"
 4067      68616E6E 
 4067      656C5F74 
 4067      00
 4068              	.LASF90:
 4069 000d 63685468 		.ascii	"chThdSleep\000"
 4069      64536C65 
 4069      657000
 4070              	.LASF100:
 4071 0018 73747263 		.ascii	"strcmp\000"
 4071      6D7000
 4072              	.LASF31:
 4073 001f 44494552 		.ascii	"DIER\000"
 4073      00
 4074              	.LASF11:
 4075 0024 73697A65 		.ascii	"size_t\000"
 4075      5F7400
 4076              	.LASF72:
 4077 002b 63727569 		.ascii	"cruiseCalc\000"
 4077      73654361 
 4077      6C6300
 4078              	.LASF77:
 4079 0036 737A616D 		.ascii	"szam\000"
 4079      00
 4080              	.LASF82:
 4081 003b 4D41585F 		.ascii	"MAX_D\000"
 4081      4400
 4082              	.LASF37:
 4083 0041 43434D52 		.ascii	"CCMR3\000"
 4083      3300
 4084              	.LASF48:
 4085 0047 70657269 		.ascii	"period\000"
 4085      6F6400
 4086              	.LASF6:
 4087 004e 6C6F6E67 		.ascii	"long long unsigned int\000"
 4087      206C6F6E 
 4087      6720756E 
 4087      7369676E 
 4087      65642069 
ARM GAS  C:\Users\DNIEL~1\AppData\Local\Temp\ccjrwhqg.s 			page 74


 4088              	.LASF24:
 4089 0065 42617365 		.ascii	"BaseChannelVMT\000"
 4089      4368616E 
 4089      6E656C56 
 4089      4D5400
 4090              	.LASF39:
 4091 0074 43435236 		.ascii	"CCR6\000"
 4091      00
 4092              	.LASF85:
 4093 0079 49544D5F 		.ascii	"ITM_RxBuffer\000"
 4093      52784275 
 4093      66666572 
 4093      00
 4094              	.LASF35:
 4095 0086 42445452 		.ascii	"BDTR\000"
 4095      00
 4096              	.LASF57:
 4097 008b 66726571 		.ascii	"frequency\000"
 4097      75656E63 
 4097      7900
 4098              	.LASF43:
 4099 0095 50574D5F 		.ascii	"PWM_READY\000"
 4099      52454144 
 4099      5900
 4100              	.LASF28:
 4101 009f 72656164 		.ascii	"readt\000"
 4101      7400
 4102              	.LASF45:
 4103 00a5 50574D44 		.ascii	"PWMDriver\000"
 4103      72697665 
 4103      7200
 4104              	.LASF13:
 4105 00af 696E7431 		.ascii	"int16_t\000"
 4105      365F7400 
 4106              	.LASF33:
 4107 00b7 43434D52 		.ascii	"CCMR2\000"
 4107      3200
 4108              	.LASF5:
 4109 00bd 6C6F6E67 		.ascii	"long long int\000"
 4109      206C6F6E 
 4109      6720696E 
 4109      7400
 4110              	.LASF0:
 4111 00cb 7369676E 		.ascii	"signed char\000"
 4111      65642063 
 4111      68617200 
 4112              	.LASF40:
 4113 00d7 73746D33 		.ascii	"stm32_tim_t\000"
 4113      325F7469 
 4113      6D5F7400 
 4114              	.LASF46:
 4115 00e3 73746174 		.ascii	"state\000"
 4115      6500
 4116              	.LASF58:
 4117 00e9 6368616E 		.ascii	"channels\000"
 4117      6E656C73 
 4117      00
ARM GAS  C:\Users\DNIEL~1\AppData\Local\Temp\ccjrwhqg.s 			page 75


 4118              	.LASF7:
 4119 00f2 6C6F6E67 		.ascii	"long int\000"
 4119      20696E74 
 4119      00
 4120              	.LASF26:
 4121 00fb 67657474 		.ascii	"gett\000"
 4121      00
 4122              	.LASF62:
 4123 0100 5F5F7661 		.ascii	"__va_list\000"
 4123      5F6C6973 
 4123      7400
 4124              	.LASF34:
 4125 010a 43434552 		.ascii	"CCER\000"
 4125      00
 4126              	.LASF14:
 4127 010f 75696E74 		.ascii	"uint16_t\000"
 4127      31365F74 
 4127      00
 4128              	.LASF88:
 4129 0118 70776D53 		.ascii	"pwmStart\000"
 4129      74617274 
 4129      00
 4130              	.LASF86:
 4131 0121 50574D44 		.ascii	"PWMD5\000"
 4131      3500
 4132              	.LASF63:
 4133 0127 76615F6C 		.ascii	"va_list\000"
 4133      69737400 
 4134              	.LASF22:
 4135 012f 42617365 		.ascii	"BaseSequentialStream\000"
 4135      53657175 
 4135      656E7469 
 4135      616C5374 
 4135      7265616D 
 4136              	.LASF4:
 4137 0144 756E7369 		.ascii	"unsigned int\000"
 4137      676E6564 
 4137      20696E74 
 4137      00
 4138              	.LASF9:
 4139 0151 6C6F6E67 		.ascii	"long unsigned int\000"
 4139      20756E73 
 4139      69676E65 
 4139      6420696E 
 4139      7400
 4140              	.LASF84:
 4141 0163 63727569 		.ascii	"cruise_pwmcfg\000"
 4141      73655F70 
 4141      776D6366 
 4141      6700
 4142              	.LASF79:
 4143 0171 4D494E5F 		.ascii	"MIN_U\000"
 4143      5500
 4144              	.LASF51:
 4145 0177 70776D6D 		.ascii	"pwmmode_t\000"
 4145      6F64655F 
 4145      7400
ARM GAS  C:\Users\DNIEL~1\AppData\Local\Temp\ccjrwhqg.s 			page 76


 4146              	.LASF69:
 4147 0181 4D617844 		.ascii	"MaxD\000"
 4147      00
 4148              	.LASF3:
 4149 0186 73686F72 		.ascii	"short unsigned int\000"
 4149      7420756E 
 4149      7369676E 
 4149      65642069 
 4149      6E7400
 4150              	.LASF68:
 4151 0199 4D617849 		.ascii	"MaxI\000"
 4151      00
 4152              	.LASF76:
 4153 019e 636D645F 		.ascii	"cmd_setcruisevalues\000"
 4153      73657463 
 4153      72756973 
 4153      6576616C 
 4153      75657300 
 4154              	.LASF18:
 4155 01b2 6D73675F 		.ascii	"msg_t\000"
 4155      7400
 4156              	.LASF81:
 4157 01b8 4D41585F 		.ascii	"MAX_I\000"
 4157      4900
 4158              	.LASF55:
 4159 01be 63616C6C 		.ascii	"callback\000"
 4159      6261636B 
 4159      00
 4160              	.LASF27:
 4161 01c7 77726974 		.ascii	"writet\000"
 4161      657400
 4162              	.LASF80:
 4163 01ce 4D41585F 		.ascii	"MAX_P\000"
 4163      5000
 4164              	.LASF78:
 4165 01d4 4D41585F 		.ascii	"MAX_U\000"
 4165      5500
 4166              	.LASF20:
 4167 01da 77726974 		.ascii	"write\000"
 4167      6500
 4168              	.LASF25:
 4169 01e0 70757474 		.ascii	"putt\000"
 4169      00
 4170              	.LASF15:
 4171 01e5 696E7433 		.ascii	"int32_t\000"
 4171      325F7400 
 4172              	.LASF8:
 4173 01ed 73697A65 		.ascii	"sizetype\000"
 4173      74797065 
 4173      00
 4174              	.LASF98:
 4175 01f6 4552524F 		.ascii	"ERROR\000"
 4175      5200
 4176              	.LASF61:
 4177 01fc 5F5F676E 		.ascii	"__gnuc_va_list\000"
 4177      75635F76 
 4177      615F6C69 
ARM GAS  C:\Users\DNIEL~1\AppData\Local\Temp\ccjrwhqg.s 			page 77


 4177      737400
 4178              	.LASF92:
 4179 020b 474E5520 		.ascii	"GNU C 4.7.4 20140401 (release) [ARM/embedded-4_7-br"
 4179      4320342E 
 4179      372E3420 
 4179      32303134 
 4179      30343031 
 4180 023e 616E6368 		.ascii	"anch revision 209195]\000"
 4180      20726576 
 4180      6973696F 
 4180      6E203230 
 4180      39313935 
 4181              	.LASF65:
 4182 0254 4D617855 		.ascii	"MaxU\000"
 4182      00
 4183              	.LASF93:
 4184 0259 7372632F 		.ascii	"src/cruise.c\000"
 4184      63727569 
 4184      73652E63 
 4184      00
 4185              	.LASF64:
 4186 0266 496E7075 		.ascii	"Input\000"
 4186      7400
 4187              	.LASF50:
 4188 026c 70776D63 		.ascii	"pwmcallback_t\000"
 4188      616C6C62 
 4188      61636B5F 
 4188      7400
 4189              	.LASF17:
 4190 027a 5F426F6F 		.ascii	"_Bool\000"
 4190      6C00
 4191              	.LASF91:
 4192 0280 61746F6C 		.ascii	"atol\000"
 4192      00
 4193              	.LASF1:
 4194 0285 756E7369 		.ascii	"unsigned char\000"
 4194      676E6564 
 4194      20636861 
 4194      7200
 4195              	.LASF66:
 4196 0293 4D696E55 		.ascii	"MinU\000"
 4196      00
 4197              	.LASF71:
 4198 0298 63727569 		.ascii	"cruiseInit\000"
 4198      7365496E 
 4198      697400
 4199              	.LASF2:
 4200 02a3 73686F72 		.ascii	"short int\000"
 4200      7420696E 
 4200      7400
 4201              	.LASF23:
 4202 02ad 42617365 		.ascii	"BaseSequentialStreamVMT\000"
 4202      53657175 
 4202      656E7469 
 4202      616C5374 
 4202      7265616D 
 4203              	.LASF73:
ARM GAS  C:\Users\DNIEL~1\AppData\Local\Temp\ccjrwhqg.s 			page 78


 4204 02c5 636D645F 		.ascii	"cmd_cruisevalues\000"
 4204      63727569 
 4204      73657661 
 4204      6C756573 
 4204      00
 4205              	.LASF99:
 4206 02d6 73706565 		.ascii	"speedGetRpm\000"
 4206      64476574 
 4206      52706D00 
 4207              	.LASF16:
 4208 02e2 75696E74 		.ascii	"uint32_t\000"
 4208      33325F74 
 4208      00
 4209              	.LASF60:
 4210 02eb 50574D43 		.ascii	"PWMConfig\000"
 4210      6F6E6669 
 4210      6700
 4211              	.LASF42:
 4212 02f5 50574D5F 		.ascii	"PWM_STOP\000"
 4212      53544F50 
 4212      00
 4213              	.LASF10:
 4214 02fe 63686172 		.ascii	"char\000"
 4214      00
 4215              	.LASF54:
 4216 0303 6D6F6465 		.ascii	"mode\000"
 4216      00
 4217              	.LASF30:
 4218 0308 534D4352 		.ascii	"SMCR\000"
 4218      00
 4219              	.LASF47:
 4220 030d 636F6E66 		.ascii	"config\000"
 4220      696700
 4221              	.LASF36:
 4222 0314 444D4152 		.ascii	"DMAR\000"
 4222      00
 4223              	.LASF19:
 4224 0319 73797374 		.ascii	"systime_t\000"
 4224      696D655F 
 4224      7400
 4225              	.LASF95:
 4226 0323 5F5F6170 		.ascii	"__ap\000"
 4226      00
 4227              	.LASF32:
 4228 0328 43434D52 		.ascii	"CCMR1\000"
 4228      3100
 4229              	.LASF56:
 4230 032e 50574D43 		.ascii	"PWMChannelConfig\000"
 4230      68616E6E 
 4230      656C436F 
 4230      6E666967 
 4230      00
 4231              	.LASF38:
 4232 033f 43435235 		.ascii	"CCR5\000"
 4232      00
 4233              	.LASF83:
 4234 0344 65656C6F 		.ascii	"eelozo\000"
ARM GAS  C:\Users\DNIEL~1\AppData\Local\Temp\ccjrwhqg.s 			page 79


 4234      7A6F00
 4235              	.LASF94:
 4236 034b 433A5C55 		.ascii	"C:\\Users\\D\341niel\\git\\Smarty\\smarty\\firmware"
 4236      73657273 
 4236      5C44E16E 
 4236      69656C5C 
 4236      6769745C 
 4237 0375 00       		.ascii	"\000"
 4238              	.LASF12:
 4239 0376 75696E74 		.ascii	"uint8_t\000"
 4239      385F7400 
 4240              	.LASF87:
 4241 037e 63687670 		.ascii	"chvprintf\000"
 4241      72696E74 
 4241      6600
 4242              	.LASF29:
 4243 0388 42617365 		.ascii	"BaseChannel\000"
 4243      4368616E 
 4243      6E656C00 
 4244              	.LASF44:
 4245 0394 70776D73 		.ascii	"pwmstate_t\000"
 4245      74617465 
 4245      5F7400
 4246              	.LASF53:
 4247 039f 70776D63 		.ascii	"pwmcnt_t\000"
 4247      6E745F74 
 4247      00
 4248              	.LASF21:
 4249 03a8 72656164 		.ascii	"read\000"
 4249      00
 4250              	.LASF74:
 4251 03ad 61726763 		.ascii	"argc\000"
 4251      00
 4252              	.LASF89:
 4253 03b2 70776D45 		.ascii	"pwmEnableChannel\000"
 4253      6E61626C 
 4253      65436861 
 4253      6E6E656C 
 4253      00
 4254              	.LASF67:
 4255 03c3 4D617850 		.ascii	"MaxP\000"
 4255      00
 4256              	.LASF49:
 4257 03c8 636C6F63 		.ascii	"clock\000"
 4257      6B00
 4258              	.LASF75:
 4259 03ce 61726776 		.ascii	"argv\000"
 4259      00
 4260              	.LASF97:
 4261 03d3 63727569 		.ascii	"cruisePID\000"
 4261      73655049 
 4261      4400
 4262              	.LASF41:
 4263 03dd 50574D5F 		.ascii	"PWM_UNINIT\000"
 4263      554E494E 
 4263      495400
 4264              	.LASF70:
ARM GAS  C:\Users\DNIEL~1\AppData\Local\Temp\ccjrwhqg.s 			page 80


 4265 03e8 646F7562 		.ascii	"double\000"
 4265      6C6500
 4266              	.LASF59:
 4267 03ef 64696572 		.ascii	"dier\000"
 4267      00
 4268              	.LASF96:
 4269 03f4 63687072 		.ascii	"chprintf\000"
 4269      696E7466 
 4269      00
 4270              		.ident	"GCC: (GNU Tools for ARM Embedded Processors) 4.7.4 20140401 (release) [ARM/embedded-4_7-br
ARM GAS  C:\Users\DNIEL~1\AppData\Local\Temp\ccjrwhqg.s 			page 81


DEFINED SYMBOLS
                            *ABS*:00000000 cruise.c
C:\Users\DNIEL~1\AppData\Local\Temp\ccjrwhqg.s:19     .text.chprintf:00000000 $t
C:\Users\DNIEL~1\AppData\Local\Temp\ccjrwhqg.s:24     .text.chprintf:00000000 chprintf
C:\Users\DNIEL~1\AppData\Local\Temp\ccjrwhqg.s:64     .text.cruiseInit:00000000 $t
C:\Users\DNIEL~1\AppData\Local\Temp\ccjrwhqg.s:70     .text.cruiseInit:00000000 cruiseInit
C:\Users\DNIEL~1\AppData\Local\Temp\ccjrwhqg.s:1076   .bss.I:00000000 .LANCHOR2
C:\Users\DNIEL~1\AppData\Local\Temp\ccjrwhqg.s:1021   .bss.pwm:00000000 .LANCHOR0
C:\Users\DNIEL~1\AppData\Local\Temp\ccjrwhqg.s:954    .bss.set:00000000 .LANCHOR6
C:\Users\DNIEL~1\AppData\Local\Temp\ccjrwhqg.s:940    .bss.P:00000000 .LANCHOR1
C:\Users\DNIEL~1\AppData\Local\Temp\ccjrwhqg.s:1055   .bss.D:00000000 .LANCHOR3
C:\Users\DNIEL~1\AppData\Local\Temp\ccjrwhqg.s:1069   .bss.eelozo:00000000 .LANCHOR4
C:\Users\DNIEL~1\AppData\Local\Temp\ccjrwhqg.s:1062   .bss.e:00000000 .LANCHOR5
C:\Users\DNIEL~1\AppData\Local\Temp\ccjrwhqg.s:1028   .data.cruise_pwmcfg:00000000 .LANCHOR7
C:\Users\DNIEL~1\AppData\Local\Temp\ccjrwhqg.s:160    .text.cruisePID:00000000 $t
C:\Users\DNIEL~1\AppData\Local\Temp\ccjrwhqg.s:166    .text.cruisePID:00000000 cruisePID
C:\Users\DNIEL~1\AppData\Local\Temp\ccjrwhqg.s:395    .text.cruisePID:00000170 $d
C:\Users\DNIEL~1\AppData\Local\Temp\ccjrwhqg.s:403    .text.cruiseCalc:00000000 $t
C:\Users\DNIEL~1\AppData\Local\Temp\ccjrwhqg.s:409    .text.cruiseCalc:00000000 cruiseCalc
C:\Users\DNIEL~1\AppData\Local\Temp\ccjrwhqg.s:1048   .data.K_P:00000000 .LANCHOR8
C:\Users\DNIEL~1\AppData\Local\Temp\ccjrwhqg.s:961    .data.K_I:00000000 .LANCHOR9
C:\Users\DNIEL~1\AppData\Local\Temp\ccjrwhqg.s:947    .data.K_D:00000000 .LANCHOR10
C:\Users\DNIEL~1\AppData\Local\Temp\ccjrwhqg.s:501    .text.cmd_cruisevalues:00000000 $t
C:\Users\DNIEL~1\AppData\Local\Temp\ccjrwhqg.s:507    .text.cmd_cruisevalues:00000000 cmd_cruisevalues
C:\Users\DNIEL~1\AppData\Local\Temp\ccjrwhqg.s:636    .text.cmd_cruisevalues:000000b8 $d
C:\Users\DNIEL~1\AppData\Local\Temp\ccjrwhqg.s:657    .text.cmd_setcruisevalues:00000000 $t
C:\Users\DNIEL~1\AppData\Local\Temp\ccjrwhqg.s:663    .text.cmd_setcruisevalues:00000000 cmd_setcruisevalues
C:\Users\DNIEL~1\AppData\Local\Temp\ccjrwhqg.s:914    .text.cmd_setcruisevalues:00000158 $d
C:\Users\DNIEL~1\AppData\Local\Temp\ccjrwhqg.s:939    .bss.P:00000000 $d
C:\Users\DNIEL~1\AppData\Local\Temp\ccjrwhqg.s:943    .bss.P:00000000 P
C:\Users\DNIEL~1\AppData\Local\Temp\ccjrwhqg.s:946    .data.K_D:00000000 $d
C:\Users\DNIEL~1\AppData\Local\Temp\ccjrwhqg.s:950    .data.K_D:00000000 K_D
C:\Users\DNIEL~1\AppData\Local\Temp\ccjrwhqg.s:953    .bss.set:00000000 $d
C:\Users\DNIEL~1\AppData\Local\Temp\ccjrwhqg.s:957    .bss.set:00000000 set
C:\Users\DNIEL~1\AppData\Local\Temp\ccjrwhqg.s:960    .data.K_I:00000000 $d
C:\Users\DNIEL~1\AppData\Local\Temp\ccjrwhqg.s:964    .data.K_I:00000000 K_I
C:\Users\DNIEL~1\AppData\Local\Temp\ccjrwhqg.s:967    .rodata.str1.4:00000000 $d
C:\Users\DNIEL~1\AppData\Local\Temp\ccjrwhqg.s:1020   .bss.pwm:00000000 $d
C:\Users\DNIEL~1\AppData\Local\Temp\ccjrwhqg.s:1024   .bss.pwm:00000000 pwm
C:\Users\DNIEL~1\AppData\Local\Temp\ccjrwhqg.s:1027   .data.cruise_pwmcfg:00000000 $d
C:\Users\DNIEL~1\AppData\Local\Temp\ccjrwhqg.s:1031   .data.cruise_pwmcfg:00000000 cruise_pwmcfg
C:\Users\DNIEL~1\AppData\Local\Temp\ccjrwhqg.s:1047   .data.K_P:00000000 $d
C:\Users\DNIEL~1\AppData\Local\Temp\ccjrwhqg.s:1051   .data.K_P:00000000 K_P
C:\Users\DNIEL~1\AppData\Local\Temp\ccjrwhqg.s:1054   .bss.D:00000000 $d
C:\Users\DNIEL~1\AppData\Local\Temp\ccjrwhqg.s:1058   .bss.D:00000000 D
C:\Users\DNIEL~1\AppData\Local\Temp\ccjrwhqg.s:1061   .bss.e:00000000 $d
C:\Users\DNIEL~1\AppData\Local\Temp\ccjrwhqg.s:1065   .bss.e:00000000 e
C:\Users\DNIEL~1\AppData\Local\Temp\ccjrwhqg.s:1068   .bss.eelozo:00000000 $d
C:\Users\DNIEL~1\AppData\Local\Temp\ccjrwhqg.s:1072   .bss.eelozo:00000000 eelozo
C:\Users\DNIEL~1\AppData\Local\Temp\ccjrwhqg.s:1075   .bss.I:00000000 $d
C:\Users\DNIEL~1\AppData\Local\Temp\ccjrwhqg.s:1079   .bss.I:00000000 I
                     .debug_frame:00000010 $d
C:\Users\DNIEL~1\AppData\Local\Temp\ccjrwhqg.s:656    .text.cmd_cruisevalues:000000fc $t
C:\Users\DNIEL~1\AppData\Local\Temp\ccjrwhqg.s:938    .text.cmd_setcruisevalues:000001ac $t

UNDEFINED SYMBOLS
chvprintf
ARM GAS  C:\Users\DNIEL~1\AppData\Local\Temp\ccjrwhqg.s 			page 82


PWMD5
pwmStart
__aeabi_i2d
__aeabi_dmul
__aeabi_dcmpgt
__aeabi_dcmplt
__aeabi_dadd
__aeabi_dsub
__aeabi_d2iz
speedGetRpm
pwmEnableChannel
chThdSleep
strcmp
atol
