ARM GAS  C:\Users\DNIEL~1\AppData\Local\Temp\cc2HpuuP.s 			page 1


   1              		.syntax unified
   2              		.cpu cortex-m4
   3              		.fpu softvfp
   4              		.eabi_attribute 20, 1
   5              		.eabi_attribute 21, 1
   6              		.eabi_attribute 23, 3
   7              		.eabi_attribute 24, 1
   8              		.eabi_attribute 25, 1
   9              		.eabi_attribute 26, 1
  10              		.eabi_attribute 30, 2
  11              		.eabi_attribute 18, 4
  12              		.thumb
  13              		.file	"cruise.c"
  20 0000 66040000 		.text
  20      02008602 
  20      00000201 
  20      FB0E0D00 
  20      01010101 
  21              	.Ltext0:
  22              		.cfi_sections	.debug_frame
  23              		.section	.text.chprintf,"ax",%progbits
  24              		.align	2
  25              		.p2align 4,,15
  26              		.thumb
  27              		.thumb_func
  28              		.type	chprintf, %function
  29              	chprintf:
  30              	.LFB118:
  31              		.file 1 "../../../ChibiOS/os/various/chprintf.h"
  32              		.loc 1 69 0
  33              		.cfi_startproc
  34              		@ args = 4, pretend = 12, frame = 8
  35              		@ frame_needed = 0, uses_anonymous_args = 1
  36              	.LVL0:
  37 0000 0EB4     		push	{r1, r2, r3}
  38              	.LCFI0:
  39              		.cfi_def_cfa_offset 12
  40 0002 00B5     		push	{lr}
  41              	.LCFI1:
  42              		.cfi_def_cfa_offset 16
  43 0004 82B0     		sub	sp, sp, #8
  44              	.LCFI2:
  45              		.cfi_def_cfa_offset 24
  46              		.loc 1 69 0
  47 0006 03AB     		add	r3, sp, #12
  48              		.cfi_offset 14, -16
  49              		.cfi_offset 3, -4
  50              		.cfi_offset 2, -8
  51              		.cfi_offset 1, -12
  52 0008 53F8041B 		ldr	r1, [r3], #4
  53              		.loc 1 73 0
ARM GAS  C:\Users\DNIEL~1\AppData\Local\Temp\cc2HpuuP.s 			page 2


  54 000c 1A46     		mov	r2, r3
  55              		.loc 1 72 0
  56 000e 0193     		str	r3, [sp, #4]
  57              		.loc 1 73 0
  58 0010 FFF7FEFF 		bl	chvprintf
  59              	.LVL1:
  60              		.loc 1 75 0
  61 0014 02B0     		add	sp, sp, #8
  62 0016 5DF804EB 		pop	{lr}
  63 001a 03B0     		add	sp, sp, #12
  64 001c 7047     		bx	lr
  65              		.cfi_endproc
  66              	.LFE118:
  67              		.size	chprintf, .-chprintf
  68 001e 00BF     		.section	.text.cruiseInit,"ax",%progbits
  69              		.align	2
  70              		.p2align 4,,15
  71              		.global	cruiseInit
  72              		.thumb
  73              		.thumb_func
  74              		.type	cruiseInit, %function
  75              	cruiseInit:
  76              	.LFB119:
  77              		.file 2 "src/cruise.c"
  78              		.loc 2 48 0
  79              		.cfi_startproc
  80              		@ args = 0, pretend = 0, frame = 0
  81              		@ frame_needed = 0, uses_anonymous_args = 0
  82              		@ link register save eliminated.
  83 0000 30B4     		push	{r4, r5}
  84              	.LCFI3:
  85              		.cfi_def_cfa_offset 8
  86              		.loc 2 49 0
  87 0002 104C     		ldr	r4, .L3
  88              		.cfi_offset 5, -4
  89              		.cfi_offset 4, -8
  90              		.loc 2 61 0
  91 0004 1048     		ldr	r0, .L3+4
  92 0006 1149     		ldr	r1, .L3+8
  93              		.loc 2 49 0
  94 0008 42F21075 		movw	r5, #10000
  95 000c 2560     		str	r5, [r4, #0]
  96              		.loc 2 51 0
  97 000e 104C     		ldr	r4, .L3+12
  98 0010 0025     		movs	r5, #0
  99 0012 2570     		strb	r5, [r4, #0]
 100              		.loc 2 53 0
 101 0014 0F4C     		ldr	r4, .L3+16
 102 0016 0022     		movs	r2, #0
 103 0018 0023     		movs	r3, #0
 104 001a C4E90023 		strd	r2, [r4]
 105              		.loc 2 54 0
 106 001e 0E4C     		ldr	r4, .L3+20
 107 0020 C4E90023 		strd	r2, [r4]
 108              		.loc 2 55 0
 109 0024 0D4C     		ldr	r4, .L3+24
 110 0026 C4E90023 		strd	r2, [r4]
ARM GAS  C:\Users\DNIEL~1\AppData\Local\Temp\cc2HpuuP.s 			page 3


 111              		.loc 2 56 0
 112 002a 0D4C     		ldr	r4, .L3+28
 113 002c C4E90023 		strd	r2, [r4]
 114              		.loc 2 57 0
 115 0030 0C4C     		ldr	r4, .L3+32
 116 0032 C4E90023 		strd	r2, [r4]
 117              		.loc 2 59 0
 118 0036 0C4B     		ldr	r3, .L3+36
 119 0038 4FF4FA72 		mov	r2, #500
 120 003c 1A60     		str	r2, [r3, #0]
 121              		.loc 2 62 0
 122 003e 30BC     		pop	{r4, r5}
 123              		.loc 2 61 0
 124 0040 FFF7FEBF 		b	pwmStart
 125              	.L4:
 126              		.align	2
 127              	.L3:
 128 0044 00000000 		.word	.LANCHOR0
 129 0048 00000000 		.word	PWMD5
 130 004c 00000000 		.word	.LANCHOR8
 131 0050 00000000 		.word	.LANCHOR1
 132 0054 00000000 		.word	.LANCHOR2
 133 0058 00000000 		.word	.LANCHOR3
 134 005c 00000000 		.word	.LANCHOR4
 135 0060 00000000 		.word	.LANCHOR5
 136 0064 00000000 		.word	.LANCHOR6
 137 0068 00000000 		.word	.LANCHOR7
 138              		.cfi_endproc
 139              	.LFE119:
 140              		.size	cruiseInit, .-cruiseInit
 141 006c AFF30080 		.section	.text.cruiseEnable,"ax",%progbits
 142              		.align	2
 143              		.p2align 4,,15
 144              		.global	cruiseEnable
 145              		.thumb
 146              		.thumb_func
 147              		.type	cruiseEnable, %function
 148              	cruiseEnable:
 149              	.LFB121:
 150              		.loc 2 86 0
 151              		.cfi_startproc
 152              		@ args = 0, pretend = 0, frame = 0
 153              		@ frame_needed = 0, uses_anonymous_args = 0
 154              		@ link register save eliminated.
 155              		.loc 2 87 0
 156 0000 014B     		ldr	r3, .L6
 157 0002 0122     		movs	r2, #1
 158 0004 1A70     		strb	r2, [r3, #0]
 159              		.loc 2 88 0
 160 0006 7047     		bx	lr
 161              	.L7:
 162              		.align	2
 163              	.L6:
 164 0008 00000000 		.word	.LANCHOR1
 165              		.cfi_endproc
 166              	.LFE121:
 167              		.size	cruiseEnable, .-cruiseEnable
ARM GAS  C:\Users\DNIEL~1\AppData\Local\Temp\cc2HpuuP.s 			page 4


 168 000c AFF30080 		.section	.text.cruiseDisable,"ax",%progbits
 169              		.align	2
 170              		.p2align 4,,15
 171              		.global	cruiseDisable
 172              		.thumb
 173              		.thumb_func
 174              		.type	cruiseDisable, %function
 175              	cruiseDisable:
 176              	.LFB122:
 177              		.loc 2 90 0
 178              		.cfi_startproc
 179              		@ args = 0, pretend = 0, frame = 0
 180              		@ frame_needed = 0, uses_anonymous_args = 0
 181              		@ link register save eliminated.
 182              		.loc 2 91 0
 183 0000 014B     		ldr	r3, .L9
 184 0002 0022     		movs	r2, #0
 185 0004 1A70     		strb	r2, [r3, #0]
 186              		.loc 2 92 0
 187 0006 7047     		bx	lr
 188              	.L10:
 189              		.align	2
 190              	.L9:
 191 0008 00000000 		.word	.LANCHOR1
 192              		.cfi_endproc
 193              	.LFE122:
 194              		.size	cruiseDisable, .-cruiseDisable
 195 000c AFF30080 		.section	.text.cruiseStatus,"ax",%progbits
 196              		.align	2
 197              		.p2align 4,,15
 198              		.global	cruiseStatus
 199              		.thumb
 200              		.thumb_func
 201              		.type	cruiseStatus, %function
 202              	cruiseStatus:
 203              	.LFB123:
 204              		.loc 2 94 0
 205              		.cfi_startproc
 206              		@ args = 0, pretend = 0, frame = 0
 207              		@ frame_needed = 0, uses_anonymous_args = 0
 208              		@ link register save eliminated.
 209              		.loc 2 94 0
 210 0000 014B     		ldr	r3, .L12
 211              		.loc 2 96 0
 212 0002 1878     		ldrb	r0, [r3, #0]	@ zero_extendqisi2
 213 0004 7047     		bx	lr
 214              	.L13:
 215 0006 00BF     		.align	2
 216              	.L12:
 217 0008 00000000 		.word	.LANCHOR1
 218              		.cfi_endproc
 219              	.LFE123:
 220              		.size	cruiseStatus, .-cruiseStatus
 221              		.global	__aeabi_i2d
 222              		.global	__aeabi_dmul
 223              		.global	__aeabi_dcmpgt
 224              		.global	__aeabi_dcmplt
ARM GAS  C:\Users\DNIEL~1\AppData\Local\Temp\cc2HpuuP.s 			page 5


 225              		.global	__aeabi_dadd
 226              		.global	__aeabi_dsub
 227              		.global	__aeabi_d2iz
 228 000c AFF30080 		.section	.text.cruisePID,"ax",%progbits
 229              		.align	2
 230              		.p2align 4,,15
 231              		.global	cruisePID
 232              		.thumb
 233              		.thumb_func
 234              		.type	cruisePID, %function
 235              	cruisePID:
 236              	.LFB124:
 237              		.loc 2 99 0
 238              		.cfi_startproc
 239              		@ args = 36, pretend = 0, frame = 16
 240              		@ frame_needed = 0, uses_anonymous_args = 0
 241              	.LVL2:
 242 0000 2DE9F04F 		push	{r4, r5, r6, r7, r8, r9, sl, fp, lr}
 243              	.LCFI4:
 244              		.cfi_def_cfa_offset 36
 245 0004 85B0     		sub	sp, sp, #20
 246              	.LCFI5:
 247              		.cfi_def_cfa_offset 56
 248              		.loc 2 102 0
 249 0006 081A     		subs	r0, r1, r0
 250              	.LVL3:
 251              		.loc 2 99 0
 252 0008 0292     		str	r2, [sp, #8]
 253 000a 0393     		str	r3, [sp, #12]
 254              		.loc 2 102 0
 255              		.cfi_offset 14, -4
 256              		.cfi_offset 11, -8
 257              		.cfi_offset 10, -12
 258              		.cfi_offset 9, -16
 259              		.cfi_offset 8, -20
 260              		.cfi_offset 7, -24
 261              		.cfi_offset 6, -28
 262              		.cfi_offset 5, -32
 263              		.cfi_offset 4, -36
 264 000c FFF7FEFF 		bl	__aeabi_i2d
 265              	.LVL4:
 266 0010 534C     		ldr	r4, .L42
 267              		.loc 2 99 0
 268 0012 149E     		ldr	r6, [sp, #80]
 269              		.loc 2 105 0
 270 0014 534F     		ldr	r7, .L42+4
 271              		.loc 2 102 0
 272 0016 8246     		mov	sl, r0
 273 0018 8B46     		mov	fp, r1
 274              		.loc 2 105 0
 275 001a DDE90E23 		ldrd	r2, [sp, #56]
 276              		.loc 2 102 0
 277 001e C4E900AB 		strd	sl, [r4]
 278              		.loc 2 105 0
 279 0022 FFF7FEFF 		bl	__aeabi_dmul
 280 0026 0446     		mov	r4, r0
 281 0028 0D46     		mov	r5, r1
ARM GAS  C:\Users\DNIEL~1\AppData\Local\Temp\cc2HpuuP.s 			page 6


 282              		.loc 2 106 0
 283 002a 3046     		mov	r0, r6
 284              		.loc 2 105 0
 285 002c C7E90045 		strd	r4, [r7]
 286              		.loc 2 106 0
 287 0030 FFF7FEFF 		bl	__aeabi_i2d
 288 0034 8046     		mov	r8, r0
 289 0036 8946     		mov	r9, r1
 290 0038 2046     		mov	r0, r4
 291 003a 2946     		mov	r1, r5
 292 003c 4246     		mov	r2, r8
 293 003e 4B46     		mov	r3, r9
 294 0040 FFF7FEFF 		bl	__aeabi_dcmpgt
 295 0044 0028     		cmp	r0, #0
 296 0046 40F08580 		bne	.L38
 297              		.loc 2 109 0
 298 004a 7042     		negs	r0, r6
 299 004c FFF7FEFF 		bl	__aeabi_i2d
 300 0050 8046     		mov	r8, r0
 301 0052 8946     		mov	r9, r1
 302 0054 2046     		mov	r0, r4
 303 0056 2946     		mov	r1, r5
 304 0058 4246     		mov	r2, r8
 305 005a 4B46     		mov	r3, r9
 306 005c FFF7FEFF 		bl	__aeabi_dcmplt
 307 0060 0028     		cmp	r0, #0
 308 0062 77D1     		bne	.L38
 309              	.L17:
 310              		.loc 2 115 0
 311 0064 404E     		ldr	r6, .L42+8
 312 0066 DDE91023 		ldrd	r2, [sp, #64]
 313 006a 5046     		mov	r0, sl
 314 006c 5946     		mov	r1, fp
 315 006e FFF7FEFF 		bl	__aeabi_dmul
 316 0072 D6E90023 		ldrd	r2, [r6]
 317 0076 FFF7FEFF 		bl	__aeabi_dadd
 318 007a 0446     		mov	r4, r0
 319 007c 0D46     		mov	r5, r1
 320              		.loc 2 116 0
 321 007e 1598     		ldr	r0, [sp, #84]
 322              		.loc 2 115 0
 323 0080 C6E90045 		strd	r4, [r6]
 324              		.loc 2 116 0
 325 0084 FFF7FEFF 		bl	__aeabi_i2d
 326 0088 8046     		mov	r8, r0
 327 008a 8946     		mov	r9, r1
 328 008c 2046     		mov	r0, r4
 329 008e 2946     		mov	r1, r5
 330 0090 4246     		mov	r2, r8
 331 0092 4B46     		mov	r3, r9
 332 0094 FFF7FEFF 		bl	__aeabi_dcmpgt
 333 0098 0028     		cmp	r0, #0
 334 009a 58D1     		bne	.L39
 335              		.loc 2 119 0
 336 009c 159A     		ldr	r2, [sp, #84]
 337 009e 5042     		negs	r0, r2
 338 00a0 FFF7FEFF 		bl	__aeabi_i2d
ARM GAS  C:\Users\DNIEL~1\AppData\Local\Temp\cc2HpuuP.s 			page 7


 339 00a4 8046     		mov	r8, r0
 340 00a6 8946     		mov	r9, r1
 341 00a8 2046     		mov	r0, r4
 342 00aa 2946     		mov	r1, r5
 343 00ac 4246     		mov	r2, r8
 344 00ae 4B46     		mov	r3, r9
 345 00b0 FFF7FEFF 		bl	__aeabi_dcmplt
 346 00b4 0028     		cmp	r0, #0
 347 00b6 4AD1     		bne	.L39
 348              	.L21:
 349              		.loc 2 125 0
 350 00b8 DFF8B080 		ldr	r8, .L42+12
 351 00bc DFF8B090 		ldr	r9, .L42+16
 352 00c0 D8E90023 		ldrd	r2, [r8]
 353 00c4 5046     		mov	r0, sl
 354 00c6 5946     		mov	r1, fp
 355 00c8 FFF7FEFF 		bl	__aeabi_dsub
 356 00cc DDE91223 		ldrd	r2, [sp, #72]
 357 00d0 FFF7FEFF 		bl	__aeabi_dmul
 358 00d4 0446     		mov	r4, r0
 359 00d6 0D46     		mov	r5, r1
 360              		.loc 2 126 0
 361 00d8 1698     		ldr	r0, [sp, #88]
 362              		.loc 2 125 0
 363 00da C9E90045 		strd	r4, [r9]
 364              		.loc 2 126 0
 365 00de FFF7FEFF 		bl	__aeabi_i2d
 366 00e2 CDE90001 		strd	r0, [sp]
 367 00e6 DDE90023 		ldrd	r2, [sp]
 368 00ea 2046     		mov	r0, r4
 369 00ec 2946     		mov	r1, r5
 370 00ee FFF7FEFF 		bl	__aeabi_dcmpgt
 371 00f2 0028     		cmp	r0, #0
 372 00f4 24D1     		bne	.L40
 373              		.loc 2 129 0
 374 00f6 169B     		ldr	r3, [sp, #88]
 375 00f8 5842     		negs	r0, r3
 376 00fa FFF7FEFF 		bl	__aeabi_i2d
 377 00fe CDE90001 		strd	r0, [sp]
 378 0102 DDE90023 		ldrd	r2, [sp]
 379 0106 2046     		mov	r0, r4
 380 0108 2946     		mov	r1, r5
 381 010a FFF7FEFF 		bl	__aeabi_dcmplt
 382 010e B8B9     		cbnz	r0, .L40
 383              	.L25:
 384              		.loc 2 135 0
 385 0110 D6E90023 		ldrd	r2, [r6]
 386 0114 D7E90001 		ldrd	r0, [r7]
 387 0118 FFF7FEFF 		bl	__aeabi_dadd
 388 011c 2B46     		mov	r3, r5
 389 011e 2246     		mov	r2, r4
 390 0120 FFF7FEFF 		bl	__aeabi_dadd
 391 0124 FFF7FEFF 		bl	__aeabi_d2iz
 392              	.LVL5:
 393              		.loc 2 137 0
 394 0128 029B     		ldr	r3, [sp, #8]
 395 012a 9842     		cmp	r0, r3
ARM GAS  C:\Users\DNIEL~1\AppData\Local\Temp\cc2HpuuP.s 			page 8


 396 012c 15DC     		bgt	.L28
 397 012e 0399     		ldr	r1, [sp, #12]
 398 0130 8842     		cmp	r0, r1
 399 0132 B8BF     		it	lt
 400 0134 0846     		movlt	r0, r1
 401              	.LVL6:
 402              	.L27:
 403              		.loc 2 143 0
 404 0136 C8E900AB 		strd	sl, [r8]
 405              		.loc 2 146 0
 406 013a 05B0     		add	sp, sp, #20
 407 013c BDE8F08F 		pop	{r4, r5, r6, r7, r8, r9, sl, fp, pc}
 408              	.LVL7:
 409              	.L40:
 410              		.loc 2 130 0
 411 0140 DDE90023 		ldrd	r2, [sp]
 412 0144 C9E90023 		strd	r2, [r9]
 413 0148 1446     		mov	r4, r2
 414 014a 1D46     		mov	r5, r3
 415 014c E0E7     		b	.L25
 416              	.L39:
 417              		.loc 2 120 0
 418 014e C6E90089 		strd	r8, [r6]
 419 0152 B1E7     		b	.L21
 420              	.L38:
 421              		.loc 2 110 0
 422 0154 C7E90089 		strd	r8, [r7]
 423 0158 84E7     		b	.L17
 424              	.LVL8:
 425              	.L28:
 426              		.loc 2 137 0
 427 015a 0298     		ldr	r0, [sp, #8]
 428              	.LVL9:
 429 015c EBE7     		b	.L27
 430              	.L43:
 431 015e 00BF     		.align	2
 432              	.L42:
 433 0160 00000000 		.word	.LANCHOR6
 434 0164 00000000 		.word	.LANCHOR2
 435 0168 00000000 		.word	.LANCHOR3
 436 016c 00000000 		.word	.LANCHOR5
 437 0170 00000000 		.word	.LANCHOR4
 438              		.cfi_endproc
 439              	.LFE124:
 440              		.size	cruisePID, .-cruisePID
 441 0174 AFF30080 		.section	.text.cruiseCalc,"ax",%progbits
 441      AFF30080 
 441      AFF30080 
 442              		.align	2
 443              		.p2align 4,,15
 444              		.global	cruiseCalc
 445              		.thumb
 446              		.thumb_func
 447              		.type	cruiseCalc, %function
 448              	cruiseCalc:
 449              	.LFB120:
 450              		.loc 2 64 0
ARM GAS  C:\Users\DNIEL~1\AppData\Local\Temp\cc2HpuuP.s 			page 9


 451              		.cfi_startproc
 452              		@ args = 0, pretend = 0, frame = 0
 453              		@ frame_needed = 0, uses_anonymous_args = 0
 454 0000 70B5     		push	{r4, r5, r6, lr}
 455              	.LCFI6:
 456              		.cfi_def_cfa_offset 16
 457              		.loc 2 65 0
 458 0002 3148     		ldr	r0, .L48
 459 0004 0378     		ldrb	r3, [r0, #0]	@ zero_extendqisi2
 460              		.loc 2 64 0
 461 0006 8AB0     		sub	sp, sp, #40
 462              	.LCFI7:
 463              		.cfi_def_cfa_offset 56
 464              		.loc 2 65 0
 465 0008 002B     		cmp	r3, #0
 466 000a 2BD1     		bne	.L47
 467              		.cfi_offset 14, -4
 468              		.cfi_offset 6, -8
 469              		.cfi_offset 5, -12
 470              		.cfi_offset 4, -16
 471              		.loc 2 74 0
 472 000c 2F49     		ldr	r1, .L48+4
 473 000e 0022     		movs	r2, #0
 474 0010 0023     		movs	r3, #0
 475 0012 C1E90023 		strd	r2, [r1]
 476              		.loc 2 75 0
 477 0016 2E49     		ldr	r1, .L48+8
 478 0018 C1E90023 		strd	r2, [r1]
 479              		.loc 2 76 0
 480 001c 2D49     		ldr	r1, .L48+12
 481 001e C1E90023 		strd	r2, [r1]
 482              		.loc 2 77 0
 483 0022 2D49     		ldr	r1, .L48+16
 484 0024 C1E90023 		strd	r2, [r1]
 485              		.loc 2 78 0
 486 0028 2C49     		ldr	r1, .L48+20
 487 002a C1E90023 		strd	r2, [r1]
 488              		.loc 2 73 0
 489 002e 2C4A     		ldr	r2, .L48+24
 490 0030 42F21073 		movw	r3, #10000
 491 0034 1360     		str	r3, [r2, #0]
 492              		.loc 2 80 0
 493 0036 2B4A     		ldr	r2, .L48+28
 494 0038 4FF4FA71 		mov	r1, #500
 495 003c 1160     		str	r1, [r2, #0]
 496              	.L46:
 497              		.loc 2 83 0
 498 003e 2A48     		ldr	r0, .L48+32
 499 0040 2A4A     		ldr	r2, .L48+36
 500 0042 B0F808C0 		ldrh	ip, [r0, #8]
 501 0046 0CFB03F3 		mul	r3, ip, r3
 502 004a 82FB0312 		smull	r1, r2, r2, r3
 503 004e D917     		asrs	r1, r3, #31
 504 0050 C1EB223C 		rsb	ip, r1, r2, asr #12
 505 0054 1FFA8CF2 		uxth	r2, ip
 506 0058 0221     		movs	r1, #2
 507              		.loc 2 84 0
ARM GAS  C:\Users\DNIEL~1\AppData\Local\Temp\cc2HpuuP.s 			page 10


 508 005a 0AB0     		add	sp, sp, #40
 509 005c BDE87040 		pop	{r4, r5, r6, lr}
 510              		.loc 2 83 0
 511 0060 FFF7FEBF 		b	pwmEnableChannel
 512              	.L47:
 513              		.loc 2 67 0
 514 0064 FFF7FEFF 		bl	speedGetRpm
 515 0068 06B2     		sxth	r6, r0
 516 006a 2148     		ldr	r0, .L48+40
 517 006c 1D4D     		ldr	r5, .L48+28
 518 006e B0F90000 		ldrsh	r0, [r0, #0]
 519 0072 B5F90050 		ldrsh	r5, [r5, #0]
 520 0076 1F4C     		ldr	r4, .L48+44
 521 0078 FFF7FEFF 		bl	__aeabi_i2d
 522 007c CDE90001 		strd	r0, [sp]
 523 0080 1D4B     		ldr	r3, .L48+48
 524 0082 B3F90000 		ldrsh	r0, [r3, #0]
 525 0086 FFF7FEFF 		bl	__aeabi_i2d
 526 008a CDE90201 		strd	r0, [sp, #8]
 527 008e 1B4A     		ldr	r2, .L48+52
 528 0090 B2F90000 		ldrsh	r0, [r2, #0]
 529 0094 FFF7FEFF 		bl	__aeabi_i2d
 530 0098 2246     		mov	r2, r4
 531 009a CDE90401 		strd	r0, [sp, #16]
 532 009e 0023     		movs	r3, #0
 533 00a0 2946     		mov	r1, r5
 534 00a2 3046     		mov	r0, r6
 535 00a4 0694     		str	r4, [sp, #24]
 536 00a6 0794     		str	r4, [sp, #28]
 537 00a8 0894     		str	r4, [sp, #32]
 538 00aa FFF7FEFF 		bl	cruisePID
 539 00ae 1449     		ldr	r1, .L48+56
 540              		.loc 2 68 0
 541 00b0 0B4A     		ldr	r2, .L48+24
 542              		.loc 2 67 0
 543 00b2 81FB0013 		smull	r1, r3, r1, r0
 544 00b6 C017     		asrs	r0, r0, #31
 545 00b8 C0EB631C 		rsb	ip, r0, r3, asr #5
 546              		.loc 2 68 0
 547 00bc CCF51C51 		rsb	r1, ip, #9984
 548 00c0 1031     		adds	r1, r1, #16
 549 00c2 1160     		str	r1, [r2, #0]
 550 00c4 8BB2     		uxth	r3, r1
 551 00c6 BAE7     		b	.L46
 552              	.L49:
 553              		.align	2
 554              	.L48:
 555 00c8 00000000 		.word	.LANCHOR1
 556 00cc 00000000 		.word	.LANCHOR2
 557 00d0 00000000 		.word	.LANCHOR3
 558 00d4 00000000 		.word	.LANCHOR4
 559 00d8 00000000 		.word	.LANCHOR5
 560 00dc 00000000 		.word	.LANCHOR6
 561 00e0 00000000 		.word	.LANCHOR0
 562 00e4 00000000 		.word	.LANCHOR7
 563 00e8 00000000 		.word	PWMD5
 564 00ec AD8BDB68 		.word	1759218605
ARM GAS  C:\Users\DNIEL~1\AppData\Local\Temp\cc2HpuuP.s 			page 11


 565 00f0 00000000 		.word	.LANCHOR9
 566 00f4 40420F00 		.word	1000000
 567 00f8 00000000 		.word	.LANCHOR10
 568 00fc 00000000 		.word	.LANCHOR11
 569 0100 1F85EB51 		.word	1374389535
 570              		.cfi_endproc
 571              	.LFE120:
 572              		.size	cruiseCalc, .-cruiseCalc
 573 0104 AFF30080 		.section	.text.cmd_cruisevalues,"ax",%progbits
 573      AFF30080 
 573      AFF30080 
 574              		.align	2
 575              		.p2align 4,,15
 576              		.global	cmd_cruisevalues
 577              		.thumb
 578              		.thumb_func
 579              		.type	cmd_cruisevalues, %function
 580              	cmd_cruisevalues:
 581              	.LFB125:
 582              		.loc 2 148 0
 583              		.cfi_startproc
 584              		@ args = 0, pretend = 0, frame = 0
 585              		@ frame_needed = 0, uses_anonymous_args = 0
 586              	.LVL10:
 587 0000 2DE9F041 		push	{r4, r5, r6, r7, r8, lr}
 588              	.LCFI8:
 589              		.cfi_def_cfa_offset 24
 590              		.loc 2 152 0
 591 0004 2C49     		ldr	r1, .L53
 592              	.LVL11:
 593              		.loc 2 157 0
 594 0006 2D4F     		ldr	r7, .L53+4
 595              		.cfi_offset 14, -4
 596              		.cfi_offset 8, -8
 597              		.cfi_offset 7, -12
 598              		.cfi_offset 6, -16
 599              		.cfi_offset 5, -20
 600              		.cfi_offset 4, -24
 601 0008 2D4E     		ldr	r6, .L53+8
 602              		.loc 2 158 0
 603 000a 2E4D     		ldr	r5, .L53+12
 604              		.loc 2 148 0
 605 000c 0446     		mov	r4, r0
 606              		.loc 2 152 0
 607 000e FFF7FEFF 		bl	chprintf
 608              	.LVL12:
 609              		.loc 2 153 0
 610 0012 2046     		mov	r0, r4
 611 0014 2C49     		ldr	r1, .L53+16
 612 0016 FFF7FEFF 		bl	chprintf
 613              		.loc 2 154 0
 614 001a 42E0     		b	.L51
 615              	.L52:
 616              		.loc 2 155 0
 617 001c 0022     		movs	r2, #0
 618 001e 1346     		mov	r3, r2
 619 0020 2046     		mov	r0, r4
ARM GAS  C:\Users\DNIEL~1\AppData\Local\Temp\cc2HpuuP.s 			page 12


 620 0022 2A49     		ldr	r1, .L53+20
 621 0024 FFF7FEFF 		bl	chprintf
 622              		.loc 2 157 0
 623 0028 D6E90001 		ldrd	r0, [r6]
 624 002c FFF7FEFF 		bl	__aeabi_d2iz
 625 0030 B7F90080 		ldrsh	r8, [r7, #0]
 626 0034 2649     		ldr	r1, .L53+24
 627 0036 4246     		mov	r2, r8
 628 0038 0346     		mov	r3, r0
 629 003a 2046     		mov	r0, r4
 630 003c FFF7FEFF 		bl	chprintf
 631              		.loc 2 158 0
 632 0040 244B     		ldr	r3, .L53+28
 633 0042 B5F90080 		ldrsh	r8, [r5, #0]
 634 0046 D3E90001 		ldrd	r0, [r3]
 635 004a FFF7FEFF 		bl	__aeabi_d2iz
 636 004e 4246     		mov	r2, r8
 637 0050 0346     		mov	r3, r0
 638 0052 2149     		ldr	r1, .L53+32
 639 0054 2046     		mov	r0, r4
 640 0056 FFF7FEFF 		bl	chprintf
 641              		.loc 2 159 0
 642 005a 204B     		ldr	r3, .L53+36
 643 005c B3F90080 		ldrsh	r8, [r3, #0]
 644 0060 1F4B     		ldr	r3, .L53+40
 645 0062 D3E90001 		ldrd	r0, [r3]
 646 0066 FFF7FEFF 		bl	__aeabi_d2iz
 647 006a 1E49     		ldr	r1, .L53+44
 648 006c 0346     		mov	r3, r0
 649 006e 4246     		mov	r2, r8
 650 0070 2046     		mov	r0, r4
 651 0072 FFF7FEFF 		bl	chprintf
 652              		.loc 2 160 0
 653 0076 1C4B     		ldr	r3, .L53+48
 654 0078 1C49     		ldr	r1, .L53+52
 655 007a 1A68     		ldr	r2, [r3, #0]
 656 007c 2046     		mov	r0, r4
 657 007e FFF7FEFF 		bl	chprintf
 658              		.loc 2 161 0
 659 0082 1B4B     		ldr	r3, .L53+56
 660 0084 1B49     		ldr	r1, .L53+60
 661 0086 1A68     		ldr	r2, [r3, #0]
 662 0088 2046     		mov	r0, r4
 663 008a FFF7FEFF 		bl	chprintf
 664              		.loc 2 162 0
 665 008e FFF7FEFF 		bl	speedGetRpm
 666 0092 1949     		ldr	r1, .L53+64
 667 0094 0246     		mov	r2, r0
 668 0096 2046     		mov	r0, r4
 669 0098 FFF7FEFF 		bl	chprintf
 670              		.loc 2 164 0
 671 009c 6420     		movs	r0, #100
 672 009e FFF7FEFF 		bl	chThdSleep
 673              	.L51:
 674              		.loc 2 154 0 discriminator 1
 675 00a2 2168     		ldr	r1, [r4, #0]
 676 00a4 2046     		mov	r0, r4
ARM GAS  C:\Users\DNIEL~1\AppData\Local\Temp\cc2HpuuP.s 			page 13


 677 00a6 4B69     		ldr	r3, [r1, #20]
 678 00a8 0021     		movs	r1, #0
 679 00aa 9847     		blx	r3
 680 00ac B0F1FF3F 		cmp	r0, #-1
 681 00b0 B4D0     		beq	.L52
 682              		.loc 2 166 0
 683 00b2 BDE8F081 		pop	{r4, r5, r6, r7, r8, pc}
 684              	.L54:
 685 00b6 00BF     		.align	2
 686              	.L53:
 687 00b8 00000000 		.word	.LC0
 688 00bc 00000000 		.word	.LANCHOR9
 689 00c0 00000000 		.word	.LANCHOR2
 690 00c4 00000000 		.word	.LANCHOR10
 691 00c8 04000000 		.word	.LC1
 692 00cc 0C000000 		.word	.LC2
 693 00d0 18000000 		.word	.LC3
 694 00d4 00000000 		.word	.LANCHOR3
 695 00d8 30000000 		.word	.LC4
 696 00dc 00000000 		.word	.LANCHOR11
 697 00e0 00000000 		.word	.LANCHOR4
 698 00e4 48000000 		.word	.LC5
 699 00e8 00000000 		.word	.LANCHOR0
 700 00ec 60000000 		.word	.LC6
 701 00f0 00000000 		.word	.LANCHOR7
 702 00f4 6C000000 		.word	.LC7
 703 00f8 7C000000 		.word	.LC8
 704              		.cfi_endproc
 705              	.LFE125:
 706              		.size	cmd_cruisevalues, .-cmd_cruisevalues
 707 00fc AFF30080 		.section	.text.cmd_setcruisevalues,"ax",%progbits
 708              		.align	2
 709              		.p2align 4,,15
 710              		.global	cmd_setcruisevalues
 711              		.thumb
 712              		.thumb_func
 713              		.type	cmd_setcruisevalues, %function
 714              	cmd_setcruisevalues:
 715              	.LFB126:
 716              		.loc 2 168 0
 717              		.cfi_startproc
 718              		@ args = 0, pretend = 0, frame = 0
 719              		@ frame_needed = 0, uses_anonymous_args = 0
 720              	.LVL13:
 721 0000 2DE9F041 		push	{r4, r5, r6, r7, r8, lr}
 722              	.LCFI9:
 723              		.cfi_def_cfa_offset 24
 724              		.loc 2 168 0
 725 0004 0446     		mov	r4, r0
 726              		.cfi_offset 14, -4
 727              		.cfi_offset 8, -8
 728              		.cfi_offset 7, -12
 729              		.cfi_offset 6, -16
 730              		.cfi_offset 5, -20
 731              		.cfi_offset 4, -24
 732 0006 0D46     		mov	r5, r1
 733              		.loc 2 174 0
ARM GAS  C:\Users\DNIEL~1\AppData\Local\Temp\cc2HpuuP.s 			page 14


 734 0008 6549     		ldr	r1, .L89+8
 735              	.LVL14:
 736              		.loc 2 168 0
 737 000a 1646     		mov	r6, r2
 738              		.loc 2 174 0
 739 000c FFF7FEFF 		bl	chprintf
 740              	.LVL15:
 741              		.loc 2 175 0
 742 0010 2046     		mov	r0, r4
 743 0012 6449     		ldr	r1, .L89+12
 744 0014 FFF7FEFF 		bl	chprintf
 745              		.loc 2 176 0
 746 0018 2168     		ldr	r1, [r4, #0]
 747 001a 2046     		mov	r0, r4
 748 001c 4B69     		ldr	r3, [r1, #20]
 749 001e 0021     		movs	r1, #0
 750 0020 9847     		blx	r3
 751 0022 B0F1FF3F 		cmp	r0, #-1
 752 0026 01D0     		beq	.L81
 753 0028 BDE8F081 		pop	{r4, r5, r6, r7, r8, pc}
 754              	.L81:
 755              		.loc 2 177 0
 756 002c 0022     		movs	r2, #0
 757 002e 2046     		mov	r0, r4
 758 0030 5D49     		ldr	r1, .L89+16
 759 0032 1346     		mov	r3, r2
 760 0034 FFF7FEFF 		bl	chprintf
 761              		.loc 2 179 0
 762 0038 022D     		cmp	r5, #2
 763 003a 07D0     		beq	.L82
 764              		.loc 2 219 0
 765 003c 012D     		cmp	r5, #1
 766 003e 28D0     		beq	.L83
 767              	.LVL16:
 768              	.L73:
 769              		.loc 2 240 0
 770 0040 5A49     		ldr	r1, .L89+20
 771 0042 2046     		mov	r0, r4
 772              		.loc 2 245 0
 773 0044 BDE8F041 		pop	{r4, r5, r6, r7, r8, lr}
 774              		.loc 2 240 0
 775 0048 FFF7FEBF 		b	chprintf
 776              	.LVL17:
 777              	.L82:
 778              		.loc 2 179 0 discriminator 1
 779 004c 3768     		ldr	r7, [r6, #0]
 780 004e 5849     		ldr	r1, .L89+24
 781 0050 3846     		mov	r0, r7
 782 0052 FFF7FEFF 		bl	strcmp
 783 0056 0028     		cmp	r0, #0
 784 0058 5ED0     		beq	.L84
 785              	.L58:
 786              		.loc 2 189 0
 787 005a 3846     		mov	r0, r7
 788 005c 5549     		ldr	r1, .L89+28
 789 005e FFF7FEFF 		bl	strcmp
 790 0062 0028     		cmp	r0, #0
ARM GAS  C:\Users\DNIEL~1\AppData\Local\Temp\cc2HpuuP.s 			page 15


 791 0064 60D0     		beq	.L74
 792              	.LVL18:
 793              	.L62:
 794              		.loc 2 199 0
 795 0066 3846     		mov	r0, r7
 796 0068 5349     		ldr	r1, .L89+32
 797 006a FFF7FEFF 		bl	strcmp
 798 006e 0028     		cmp	r0, #0
 799 0070 47D0     		beq	.L75
 800              	.L66:
 801              		.loc 2 209 0
 802 0072 3846     		mov	r0, r7
 803 0074 5149     		ldr	r1, .L89+36
 804 0076 FFF7FEFF 		bl	strcmp
 805 007a 0028     		cmp	r0, #0
 806 007c E0D1     		bne	.L73
 807              		.loc 2 210 0
 808 007e 7068     		ldr	r0, [r6, #4]
 809 0080 FFF7FEFF 		bl	atol
 810 0084 0546     		mov	r5, r0	@ movhi
 811              	.LVL19:
 812              		.loc 2 211 0
 813 0086 00B2     		sxth	r0, r0
 814 0088 0028     		cmp	r0, #0
 815 008a 58DD     		ble	.L85
 816              	.L67:
 817              		.loc 2 212 0
 818 008c 4C48     		ldr	r0, .L89+40
 819 008e 0580     		strh	r5, [r0, #0]	@ movhi
 820 0090 D6E7     		b	.L73
 821              	.LVL20:
 822              	.L83:
 823              		.loc 2 219 0 discriminator 1
 824 0092 3768     		ldr	r7, [r6, #0]
 825 0094 4B49     		ldr	r1, .L89+44
 826 0096 3846     		mov	r0, r7
 827 0098 FFF7FEFF 		bl	strcmp
 828 009c 0028     		cmp	r0, #0
 829 009e 28D0     		beq	.L86
 830              	.L72:
 831              		.loc 2 224 0
 832 00a0 3846     		mov	r0, r7
 833 00a2 4949     		ldr	r1, .L89+48
 834 00a4 FFF7FEFF 		bl	strcmp
 835 00a8 0028     		cmp	r0, #0
 836 00aa C9D1     		bne	.L73
 837              	.LBB10:
 838              	.LBB11:
 839              		.loc 2 91 0
 840 00ac 474B     		ldr	r3, .L89+52
 841              	.LBE11:
 842              	.LBE10:
 843              		.loc 2 226 0
 844 00ae 4849     		ldr	r1, .L89+56
 845              	.LBB13:
 846              	.LBB12:
 847              		.loc 2 91 0
ARM GAS  C:\Users\DNIEL~1\AppData\Local\Temp\cc2HpuuP.s 			page 16


 848 00b0 1870     		strb	r0, [r3, #0]
 849              	.LBE12:
 850              	.LBE13:
 851              		.loc 2 226 0
 852 00b2 2046     		mov	r0, r4
 853 00b4 FFF7FEFF 		bl	chprintf
 854              		.loc 2 233 0
 855 00b8 464A     		ldr	r2, .L89+60
 856 00ba 4749     		ldr	r1, .L89+64
 857 00bc B2F90020 		ldrsh	r2, [r2, #0]
 858 00c0 2046     		mov	r0, r4
 859 00c2 FFF7FEFF 		bl	chprintf
 860              		.loc 2 234 0
 861 00c6 4548     		ldr	r0, .L89+68
 862 00c8 4549     		ldr	r1, .L89+72
 863 00ca B0F90020 		ldrsh	r2, [r0, #0]
 864 00ce 2046     		mov	r0, r4
 865 00d0 FFF7FEFF 		bl	chprintf
 866              		.loc 2 235 0
 867 00d4 3A4B     		ldr	r3, .L89+40
 868 00d6 4349     		ldr	r1, .L89+76
 869 00d8 B3F90020 		ldrsh	r2, [r3, #0]
 870 00dc 2046     		mov	r0, r4
 871 00de FFF7FEFF 		bl	chprintf
 872              		.loc 2 236 0
 873 00e2 414A     		ldr	r2, .L89+80
 874 00e4 4149     		ldr	r1, .L89+84
 875 00e6 1268     		ldr	r2, [r2, #0]
 876 00e8 2046     		mov	r0, r4
 877              		.loc 2 245 0
 878 00ea BDE8F041 		pop	{r4, r5, r6, r7, r8, lr}
 879              		.loc 2 236 0
 880 00ee FFF7FEBF 		b	chprintf
 881              	.L86:
 882              	.LBB14:
 883              	.LBB15:
 884              		.loc 2 87 0
 885 00f2 364F     		ldr	r7, .L89+52
 886              	.LBE15:
 887              	.LBE14:
 888              		.loc 2 221 0
 889 00f4 3E49     		ldr	r1, .L89+88
 890              	.LBB17:
 891              	.LBB16:
 892              		.loc 2 87 0
 893 00f6 3D70     		strb	r5, [r7, #0]
 894              	.LBE16:
 895              	.LBE17:
 896              		.loc 2 221 0
 897 00f8 2046     		mov	r0, r4
 898 00fa FFF7FEFF 		bl	chprintf
 899 00fe 3768     		ldr	r7, [r6, #0]
 900 0100 CEE7     		b	.L72
 901              	.LVL21:
 902              	.L75:
 903              		.loc 2 200 0
 904 0102 7068     		ldr	r0, [r6, #4]
ARM GAS  C:\Users\DNIEL~1\AppData\Local\Temp\cc2HpuuP.s 			page 17


 905 0104 FFF7FEFF 		bl	atol
 906 0108 0546     		mov	r5, r0	@ movhi
 907              	.LVL22:
 908              		.loc 2 201 0
 909 010a 00B2     		sxth	r0, r0
 910 010c 0028     		cmp	r0, #0
 911 010e 24DD     		ble	.L87
 912              	.L63:
 913              		.loc 2 202 0
 914 0110 3249     		ldr	r1, .L89+68
 915 0112 3768     		ldr	r7, [r6, #0]
 916 0114 0D80     		strh	r5, [r1, #0]	@ movhi
 917 0116 ACE7     		b	.L66
 918              	.LVL23:
 919              	.L84:
 920              		.loc 2 180 0
 921 0118 7068     		ldr	r0, [r6, #4]
 922 011a FFF7FEFF 		bl	atol
 923              	.LVL24:
 924              		.loc 2 182 0
 925 011e 324A     		ldr	r2, .L89+80
 926 0120 3768     		ldr	r7, [r6, #0]
 927 0122 00B2     		sxth	r0, r0
 928 0124 1060     		str	r0, [r2, #0]
 929 0126 98E7     		b	.L58
 930              	.LVL25:
 931              	.L74:
 932              		.loc 2 190 0
 933 0128 7068     		ldr	r0, [r6, #4]
 934 012a FFF7FEFF 		bl	atol
 935 012e 0546     		mov	r5, r0	@ movhi
 936              	.LVL26:
 937              		.loc 2 191 0
 938 0130 00B2     		sxth	r0, r0
 939 0132 0028     		cmp	r0, #0
 940 0134 20DD     		ble	.L88
 941              	.L59:
 942              		.loc 2 192 0
 943 0136 274B     		ldr	r3, .L89+60
 944 0138 3768     		ldr	r7, [r6, #0]
 945 013a 1D80     		strh	r5, [r3, #0]	@ movhi
 946 013c 93E7     		b	.L62
 947              	.L85:
 948              		.loc 2 211 0 discriminator 1
 949 013e FFF7FEFF 		bl	__aeabi_i2d
 950 0142 15A3     		adr	r3, .L89
 951 0144 D3E90023 		ldrd	r2, [r3]
 952 0148 FFF7FEFF 		bl	__aeabi_dcmplt
 953 014c 0028     		cmp	r0, #0
 954 014e 9DD1     		bne	.L67
 955              		.loc 2 215 0
 956 0150 2046     		mov	r0, r4
 957 0152 2849     		ldr	r1, .L89+92
 958 0154 FFF7FEFF 		bl	chprintf
 959 0158 72E7     		b	.L73
 960              	.L87:
 961              		.loc 2 201 0 discriminator 1
ARM GAS  C:\Users\DNIEL~1\AppData\Local\Temp\cc2HpuuP.s 			page 18


 962 015a FFF7FEFF 		bl	__aeabi_i2d
 963 015e 0EA3     		adr	r3, .L89
 964 0160 D3E90023 		ldrd	r2, [r3]
 965 0164 FFF7FEFF 		bl	__aeabi_dcmplt
 966 0168 0028     		cmp	r0, #0
 967 016a D1D1     		bne	.L63
 968              		.loc 2 205 0
 969 016c 2046     		mov	r0, r4
 970 016e 2249     		ldr	r1, .L89+96
 971 0170 FFF7FEFF 		bl	chprintf
 972 0174 3768     		ldr	r7, [r6, #0]
 973 0176 7CE7     		b	.L66
 974              	.L88:
 975              		.loc 2 191 0 discriminator 1
 976 0178 FFF7FEFF 		bl	__aeabi_i2d
 977 017c 06A3     		adr	r3, .L89
 978 017e D3E90023 		ldrd	r2, [r3]
 979 0182 FFF7FEFF 		bl	__aeabi_dcmplt
 980 0186 0028     		cmp	r0, #0
 981 0188 D5D1     		bne	.L59
 982              		.loc 2 195 0
 983 018a 2046     		mov	r0, r4
 984 018c 1B49     		ldr	r1, .L89+100
 985 018e FFF7FEFF 		bl	chprintf
 986 0192 3768     		ldr	r7, [r6, #0]
 987 0194 67E7     		b	.L62
 988              	.L90:
 989 0196 00BF     		.align	3
 990              	.L89:
 991 0198 00000000 		.word	0
 992 019c 80842E41 		.word	1093567616
 993 01a0 00000000 		.word	.LC0
 994 01a4 04000000 		.word	.LC1
 995 01a8 0C000000 		.word	.LC2
 996 01ac 40010000 		.word	.LC19
 997 01b0 90000000 		.word	.LC9
 998 01b4 5C010000 		.word	.LC20
 999 01b8 60010000 		.word	.LC21
 1000 01bc 64010000 		.word	.LC22
 1001 01c0 00000000 		.word	.LANCHOR11
 1002 01c4 DC000000 		.word	.LC13
 1003 01c8 68010000 		.word	.LC23
 1004 01cc 00000000 		.word	.LANCHOR1
 1005 01d0 FC000000 		.word	.LC15
 1006 01d4 00000000 		.word	.LANCHOR9
 1007 01d8 1C010000 		.word	.LC16
 1008 01dc 00000000 		.word	.LANCHOR10
 1009 01e0 28010000 		.word	.LC17
 1010 01e4 34010000 		.word	.LC18
 1011 01e8 00000000 		.word	.LANCHOR7
 1012 01ec 6C000000 		.word	.LC7
 1013 01f0 E0000000 		.word	.LC14
 1014 01f4 C4000000 		.word	.LC12
 1015 01f8 AC000000 		.word	.LC11
 1016 01fc 94000000 		.word	.LC10
 1017              		.cfi_endproc
 1018              	.LFE126:
ARM GAS  C:\Users\DNIEL~1\AppData\Local\Temp\cc2HpuuP.s 			page 19


 1019              		.size	cmd_setcruisevalues, .-cmd_setcruisevalues
 1020              		.section	.text.cmd_cruise,"ax",%progbits
 1021              		.align	2
 1022              		.p2align 4,,15
 1023              		.global	cmd_cruise
 1024              		.thumb
 1025              		.thumb_func
 1026              		.type	cmd_cruise, %function
 1027              	cmd_cruise:
 1028              	.LFB127:
 1029              		.loc 2 247 0
 1030              		.cfi_startproc
 1031              		@ args = 0, pretend = 0, frame = 0
 1032              		@ frame_needed = 0, uses_anonymous_args = 0
 1033              	.LVL27:
 1034 0000 2DE9F041 		push	{r4, r5, r6, r7, r8, lr}
 1035              	.LCFI10:
 1036              		.cfi_def_cfa_offset 24
 1037              		.loc 2 247 0
 1038 0004 0446     		mov	r4, r0
 1039              		.cfi_offset 14, -4
 1040              		.cfi_offset 8, -8
 1041              		.cfi_offset 7, -12
 1042              		.cfi_offset 6, -16
 1043              		.cfi_offset 5, -20
 1044              		.cfi_offset 4, -24
 1045 0006 0D46     		mov	r5, r1
 1046              		.loc 2 253 0
 1047 0008 1A49     		ldr	r1, .L97
 1048              	.LVL28:
 1049              		.loc 2 247 0
 1050 000a 1646     		mov	r6, r2
 1051              		.loc 2 253 0
 1052 000c FFF7FEFF 		bl	chprintf
 1053              	.LVL29:
 1054              		.loc 2 254 0
 1055 0010 2046     		mov	r0, r4
 1056 0012 1949     		ldr	r1, .L97+4
 1057 0014 FFF7FEFF 		bl	chprintf
 1058              		.loc 2 255 0
 1059 0018 0022     		movs	r2, #0
 1060 001a 2046     		mov	r0, r4
 1061 001c 1749     		ldr	r1, .L97+8
 1062 001e 1346     		mov	r3, r2
 1063 0020 FFF7FEFF 		bl	chprintf
 1064              		.loc 2 257 0
 1065 0024 012D     		cmp	r5, #1
 1066 0026 09D0     		beq	.L95
 1067              	.L92:
 1068              		.loc 2 273 0
 1069 0028 2046     		mov	r0, r4
 1070 002a 1549     		ldr	r1, .L97+12
 1071 002c FFF7FEFF 		bl	chprintf
 1072              		.loc 2 274 0
 1073 0030 1449     		ldr	r1, .L97+16
 1074 0032 2046     		mov	r0, r4
 1075              		.loc 2 278 0
ARM GAS  C:\Users\DNIEL~1\AppData\Local\Temp\cc2HpuuP.s 			page 20


 1076 0034 BDE8F041 		pop	{r4, r5, r6, r7, r8, lr}
 1077              		.loc 2 274 0
 1078 0038 FFF7FEBF 		b	chprintf
 1079              	.L95:
 1080              		.loc 2 257 0 discriminator 1
 1081 003c 3768     		ldr	r7, [r6, #0]
 1082 003e 1249     		ldr	r1, .L97+20
 1083 0040 3846     		mov	r0, r7
 1084 0042 FFF7FEFF 		bl	strcmp
 1085 0046 68B1     		cbz	r0, .L96
 1086              	.L93:
 1087              		.loc 2 262 0
 1088 0048 3846     		mov	r0, r7
 1089 004a 1049     		ldr	r1, .L97+24
 1090 004c FFF7FEFF 		bl	strcmp
 1091 0050 0028     		cmp	r0, #0
 1092 0052 E9D1     		bne	.L92
 1093              	.LBB18:
 1094              	.LBB19:
 1095              		.loc 2 91 0
 1096 0054 0E4A     		ldr	r2, .L97+28
 1097              	.LBE19:
 1098              	.LBE18:
 1099              		.loc 2 264 0
 1100 0056 0F49     		ldr	r1, .L97+32
 1101              	.LBB21:
 1102              	.LBB20:
 1103              		.loc 2 91 0
 1104 0058 1070     		strb	r0, [r2, #0]
 1105              	.LBE20:
 1106              	.LBE21:
 1107              		.loc 2 264 0
 1108 005a 2046     		mov	r0, r4
 1109              		.loc 2 278 0
 1110 005c BDE8F041 		pop	{r4, r5, r6, r7, r8, lr}
 1111              		.loc 2 264 0
 1112 0060 FFF7FEBF 		b	chprintf
 1113              	.L96:
 1114              	.LBB22:
 1115              	.LBB23:
 1116              		.loc 2 87 0
 1117 0064 0A4B     		ldr	r3, .L97+28
 1118              	.LBE23:
 1119              	.LBE22:
 1120              		.loc 2 259 0
 1121 0066 0C49     		ldr	r1, .L97+36
 1122              	.LBB25:
 1123              	.LBB24:
 1124              		.loc 2 87 0
 1125 0068 1D70     		strb	r5, [r3, #0]
 1126              	.LBE24:
 1127              	.LBE25:
 1128              		.loc 2 259 0
 1129 006a 2046     		mov	r0, r4
 1130 006c FFF7FEFF 		bl	chprintf
 1131 0070 3768     		ldr	r7, [r6, #0]
 1132 0072 E9E7     		b	.L93
ARM GAS  C:\Users\DNIEL~1\AppData\Local\Temp\cc2HpuuP.s 			page 21


 1133              	.L98:
 1134              		.align	2
 1135              	.L97:
 1136 0074 00000000 		.word	.LC0
 1137 0078 04000000 		.word	.LC1
 1138 007c 0C000000 		.word	.LC2
 1139 0080 6C010000 		.word	.LC24
 1140 0084 80010000 		.word	.LC25
 1141 0088 DC000000 		.word	.LC13
 1142 008c 68010000 		.word	.LC23
 1143 0090 00000000 		.word	.LANCHOR1
 1144 0094 FC000000 		.word	.LC15
 1145 0098 E0000000 		.word	.LC14
 1146              		.cfi_endproc
 1147              	.LFE127:
 1148              		.size	cmd_cruise, .-cmd_cruise
 1149 009c AFF30080 		.section	.bss.P,"aw",%nobits
 1150              		.align	3
 1151              		.set	.LANCHOR2,. + 0
 1152              		.type	P, %object
 1153              		.size	P, 8
 1154              	P:
 1155 0000 00000000 		.space	8
 1155      00000000 
 1156              		.section	.data.K_D,"aw",%progbits
 1157              		.align	1
 1158              		.set	.LANCHOR11,. + 0
 1159              		.type	K_D, %object
 1160              		.size	K_D, 2
 1161              	K_D:
 1162 0000 F401     		.short	500
 1163              		.section	.bss.set,"aw",%nobits
 1164              		.align	2
 1165              		.set	.LANCHOR7,. + 0
 1166              		.type	set, %object
 1167              		.size	set, 4
 1168              	set:
 1169 0000 00000000 		.space	4
 1170              		.section	.data.K_I,"aw",%progbits
 1171              		.align	1
 1172              		.set	.LANCHOR10,. + 0
 1173              		.type	K_I, %object
 1174              		.size	K_I, 2
 1175              	K_I:
 1176 0000 0200     		.short	2
 1177              		.section	.rodata.str1.4,"aMS",%progbits,1
 1178              		.align	2
 1179              	.LC0:
 1180 0000 1B6300   		.ascii	"\033c\000"
 1181 0003 00       		.space	1
 1182              	.LC1:
 1183 0004 1B5B324A 		.ascii	"\033[2J\000"
 1183      00
 1184 0009 000000   		.space	3
 1185              	.LC2:
 1186 000c 1B5B2564 		.ascii	"\033[%d;%dH\000"
 1186      3B256448 
ARM GAS  C:\Users\DNIEL~1\AppData\Local\Temp\cc2HpuuP.s 			page 22


 1186      00
 1187 0015 000000   		.space	3
 1188              	.LC3:
 1189 0018 4B5F503A 		.ascii	"K_P: %15d - P: %15d\015\012\000"
 1189      20253135 
 1189      64202D20 
 1189      503A2025 
 1189      3135640D 
 1190 002e 0000     		.space	2
 1191              	.LC4:
 1192 0030 4B5F493A 		.ascii	"K_I: %15d - I: %15d\015\012\000"
 1192      20253135 
 1192      64202D20 
 1192      493A2025 
 1192      3135640D 
 1193 0046 0000     		.space	2
 1194              	.LC5:
 1195 0048 4B5F443A 		.ascii	"K_D: %15d - D: %15d\015\012\000"
 1195      20253135 
 1195      64202D20 
 1195      443A2025 
 1195      3135640D 
 1196 005e 0000     		.space	2
 1197              	.LC6:
 1198 0060 70776D3A 		.ascii	"pwm: %15d\015\012\000"
 1198      20253135 
 1198      640D0A00 
 1199              	.LC7:
 1200 006c 73657420 		.ascii	"set rpm: %15d\015\012\000"
 1200      72706D3A 
 1200      20253135 
 1200      640D0A00 
 1201              	.LC8:
 1202 007c 696E7075 		.ascii	"input rpm: %15d\015\012\000"
 1202      74207270 
 1202      6D3A2025 
 1202      3135640D 
 1202      0A00
 1203 008e 0000     		.space	2
 1204              	.LC9:
 1205 0090 72706D00 		.ascii	"rpm\000"
 1206              	.LC10:
 1207 0094 54686973 		.ascii	"This not good K_P!\015\012\000"
 1207      206E6F74 
 1207      20676F6F 
 1207      64204B5F 
 1207      50210D0A 
 1208 00a9 000000   		.space	3
 1209              	.LC11:
 1210 00ac 54686973 		.ascii	"This not good K_I!\015\012\000"
 1210      206E6F74 
 1210      20676F6F 
 1210      64204B5F 
 1210      49210D0A 
 1211 00c1 000000   		.space	3
 1212              	.LC12:
 1213 00c4 54686973 		.ascii	"This not good K_D!\015\012\000"
ARM GAS  C:\Users\DNIEL~1\AppData\Local\Temp\cc2HpuuP.s 			page 23


 1213      206E6F74 
 1213      20676F6F 
 1213      64204B5F 
 1213      44210D0A 
 1214 00d9 000000   		.space	3
 1215              	.LC13:
 1216 00dc 6F6E00   		.ascii	"on\000"
 1217 00df 00       		.space	1
 1218              	.LC14:
 1219 00e0 43727569 		.ascii	"Cruise control switch ON!\015\012\000"
 1219      73652063 
 1219      6F6E7472 
 1219      6F6C2073 
 1219      77697463 
 1220              	.LC15:
 1221 00fc 43727569 		.ascii	"Cruise control switch OFF!\015\012\000"
 1221      73652063 
 1221      6F6E7472 
 1221      6F6C2073 
 1221      77697463 
 1222 0119 000000   		.space	3
 1223              	.LC16:
 1224 011c 4B5F503A 		.ascii	"K_P: %15d\015\012\000"
 1224      20253135 
 1224      640D0A00 
 1225              	.LC17:
 1226 0128 4B5F493A 		.ascii	"K_I: %15d\015\012\000"
 1226      20253135 
 1226      640D0A00 
 1227              	.LC18:
 1228 0134 4B5F443A 		.ascii	"K_D: %15d\015\012\000"
 1228      20253135 
 1228      640D0A00 
 1229              	.LC19:
 1230 0140 54686973 		.ascii	"This not good command!\015\012\000"
 1230      206E6F74 
 1230      20676F6F 
 1230      6420636F 
 1230      6D6D616E 
 1231 0159 000000   		.space	3
 1232              	.LC20:
 1233 015c 4B5F5000 		.ascii	"K_P\000"
 1234              	.LC21:
 1235 0160 4B5F4900 		.ascii	"K_I\000"
 1236              	.LC22:
 1237 0164 4B5F4400 		.ascii	"K_D\000"
 1238              	.LC23:
 1239 0168 6F666600 		.ascii	"off\000"
 1240              	.LC24:
 1241 016c 55736167 		.ascii	"Usage: cruise on\015\012\000"
 1241      653A2063 
 1241      72756973 
 1241      65206F6E 
 1241      0D0A00
 1242 017f 00       		.space	1
 1243              	.LC25:
 1244 0180 20202020 		.ascii	"       cruise off\015\012\000"
ARM GAS  C:\Users\DNIEL~1\AppData\Local\Temp\cc2HpuuP.s 			page 24


 1244      20202063 
 1244      72756973 
 1244      65206F66 
 1244      660D0A00 
 1245              		.section	.bss.pwm,"aw",%nobits
 1246              		.align	2
 1247              		.set	.LANCHOR0,. + 0
 1248              		.type	pwm, %object
 1249              		.size	pwm, 4
 1250              	pwm:
 1251 0000 00000000 		.space	4
 1252              		.section	.data.cruise_pwmcfg,"aw",%progbits
 1253              		.align	2
 1254              		.set	.LANCHOR8,. + 0
 1255              		.type	cruise_pwmcfg, %object
 1256              		.size	cruise_pwmcfg, 52
 1257              	cruise_pwmcfg:
 1258 0000 80969800 		.word	10000000
 1259 0004 1027     		.short	10000
 1260 0006 0000     		.space	2
 1261 0008 00000000 		.word	0
 1262 000c 00000000 		.word	0
 1263 0010 00000000 		.word	0
 1264 0014 00000000 		.word	0
 1265 0018 00000000 		.word	0
 1266 001c 01000000 		.word	1
 1267 0020 00000000 		.word	0
 1268 0024 00000000 		.word	0
 1269 0028 00000000 		.word	0
 1270 002c 00000000 		.word	0
 1271 0030 00000000 		.word	0
 1272              		.section	.data.K_P,"aw",%progbits
 1273              		.align	1
 1274              		.set	.LANCHOR9,. + 0
 1275              		.type	K_P, %object
 1276              		.size	K_P, 2
 1277              	K_P:
 1278 0000 0500     		.short	5
 1279              		.section	.bss.cruise_on,"aw",%nobits
 1280              		.set	.LANCHOR1,. + 0
 1281              		.type	cruise_on, %object
 1282              		.size	cruise_on, 1
 1283              	cruise_on:
 1284 0000 00       		.space	1
 1285              		.section	.bss.D,"aw",%nobits
 1286              		.align	3
 1287              		.set	.LANCHOR4,. + 0
 1288              		.type	D, %object
 1289              		.size	D, 8
 1290              	D:
 1291 0000 00000000 		.space	8
 1291      00000000 
 1292              		.section	.bss.e,"aw",%nobits
 1293              		.align	3
 1294              		.set	.LANCHOR6,. + 0
 1295              		.type	e, %object
 1296              		.size	e, 8
ARM GAS  C:\Users\DNIEL~1\AppData\Local\Temp\cc2HpuuP.s 			page 25


 1297              	e:
 1298 0000 00000000 		.space	8
 1298      00000000 
 1299              		.section	.bss.eelozo,"aw",%nobits
 1300              		.align	3
 1301              		.set	.LANCHOR5,. + 0
 1302              		.type	eelozo, %object
 1303              		.size	eelozo, 8
 1304              	eelozo:
 1305 0000 00000000 		.space	8
 1305      00000000 
 1306              		.section	.bss.I,"aw",%nobits
 1307              		.align	3
 1308              		.set	.LANCHOR3,. + 0
 1309              		.type	I, %object
 1310              		.size	I, 8
 1311              	I:
 1312 0000 00000000 		.space	8
 1312      00000000 
 1313              		.text
 1314              	.Letext0: