ARM GAS  C:\Users\DNIEL~1\AppData\Local\Temp\cc55tULl.s 			page 1


   1              		.syntax unified
   2              		.cpu cortex-m4
   3              		.fpu softvfp
   4              		.eabi_attribute 20, 1
   5              		.eabi_attribute 21, 1
   6              		.eabi_attribute 23, 3
   7              		.eabi_attribute 24, 1
   8              		.eabi_attribute 25, 1
   9              		.eabi_attribute 26, 1
  10              		.eabi_attribute 30, 2
  11              		.eabi_attribute 18, 4
  12              		.thumb
  13              		.file	"cruise.c"
  14              		.section	.debug_abbrev,"",%progbits
  15              	.Ldebug_abbrev0:
  16              		.section	.debug_info,"",%progbits
  17              	.Ldebug_info0:
  18              		.section	.debug_line,"",%progbits
  19              	.Ldebug_line0:
  20 0000 AB030000 		.text
  20      02008602 
  20      00000201 
  20      FB0E0D00 
  20      01010101 
  21              	.Ltext0:
  22              		.cfi_sections	.debug_frame
  23              		.section	.text.chprintf,"ax",%progbits
  24              		.align	2
  25              		.p2align 4,,15
  26              		.thumb
  27              		.thumb_func
  28              		.type	chprintf, %function
  29              	chprintf:
  30              	.LFB118:
  31              		.file 1 "../../../ChibiOS/os/various/chprintf.h"
  32              		.loc 1 69 0
  33              		.cfi_startproc
  34              		@ args = 4, pretend = 12, frame = 8
  35              		@ frame_needed = 0, uses_anonymous_args = 1
  36              	.LVL0:
  37 0000 0EB4     		push	{r1, r2, r3}
  38              	.LCFI0:
  39              		.cfi_def_cfa_offset 12
  40 0002 00B5     		push	{lr}
  41              	.LCFI1:
  42              		.cfi_def_cfa_offset 16
  43 0004 82B0     		sub	sp, sp, #8
  44              	.LCFI2:
  45              		.cfi_def_cfa_offset 24
  46              		.loc 1 69 0
  47 0006 03AB     		add	r3, sp, #12
  48              		.cfi_offset 14, -16
  49              		.cfi_offset 3, -4
  50              		.cfi_offset 2, -8
  51              		.cfi_offset 1, -12
  52 0008 53F8041B 		ldr	r1, [r3], #4
  53              		.loc 1 73 0
ARM GAS  C:\Users\DNIEL~1\AppData\Local\Temp\cc55tULl.s 			page 2


  54 000c 1A46     		mov	r2, r3
  55              		.loc 1 72 0
  56 000e 0193     		str	r3, [sp, #4]
  57              		.loc 1 73 0
  58 0010 FFF7FEFF 		bl	chvprintf
  59              	.LVL1:
  60              		.loc 1 75 0
  61 0014 02B0     		add	sp, sp, #8
  62 0016 5DF804EB 		pop	{lr}
  63 001a 03B0     		add	sp, sp, #12
  64 001c 7047     		bx	lr
  65              		.cfi_endproc
  66              	.LFE118:
  67              		.size	chprintf, .-chprintf
  68 001e 00BF     		.section	.text.cruiseInit,"ax",%progbits
  69              		.align	2
  70              		.p2align 4,,15
  71              		.global	cruiseInit
  72              		.thumb
  73              		.thumb_func
  74              		.type	cruiseInit, %function
  75              	cruiseInit:
  76              	.LFB119:
  77              		.file 2 "src/cruise.c"
  78              		.loc 2 47 0
  79              		.cfi_startproc
  80              		@ args = 0, pretend = 0, frame = 0
  81              		@ frame_needed = 0, uses_anonymous_args = 0
  82              		@ link register save eliminated.
  83 0000 30B4     		push	{r4, r5}
  84              	.LCFI3:
  85              		.cfi_def_cfa_offset 8
  86              		.loc 2 48 0
  87 0002 0E4C     		ldr	r4, .L3
  88              		.cfi_offset 5, -4
  89              		.cfi_offset 4, -8
  90              		.loc 2 58 0
  91 0004 0E48     		ldr	r0, .L3+4
  92 0006 0F49     		ldr	r1, .L3+8
  93              		.loc 2 48 0
  94 0008 0025     		movs	r5, #0
  95 000a 2560     		str	r5, [r4, #0]
  96              		.loc 2 50 0
  97 000c 0E4C     		ldr	r4, .L3+12
  98 000e 0022     		movs	r2, #0
  99 0010 0023     		movs	r3, #0
 100 0012 C4E90023 		strd	r2, [r4]
 101              		.loc 2 51 0
 102 0016 0D4C     		ldr	r4, .L3+16
 103 0018 C4E90023 		strd	r2, [r4]
 104              		.loc 2 52 0
 105 001c 0C4C     		ldr	r4, .L3+20
 106 001e C4E90023 		strd	r2, [r4]
 107              		.loc 2 53 0
 108 0022 0C4C     		ldr	r4, .L3+24
 109 0024 C4E90023 		strd	r2, [r4]
 110              		.loc 2 54 0
ARM GAS  C:\Users\DNIEL~1\AppData\Local\Temp\cc55tULl.s 			page 3


 111 0028 0B4C     		ldr	r4, .L3+28
 112 002a C4E90023 		strd	r2, [r4]
 113              		.loc 2 56 0
 114 002e 0B4B     		ldr	r3, .L3+32
 115 0030 4FF4FA72 		mov	r2, #500
 116 0034 1A60     		str	r2, [r3, #0]
 117              		.loc 2 59 0
 118 0036 30BC     		pop	{r4, r5}
 119              		.loc 2 58 0
 120 0038 FFF7FEBF 		b	pwmStart
 121              	.L4:
 122              		.align	2
 123              	.L3:
 124 003c 00000000 		.word	.LANCHOR0
 125 0040 00000000 		.word	PWMD5
 126 0044 00000000 		.word	.LANCHOR7
 127 0048 00000000 		.word	.LANCHOR1
 128 004c 00000000 		.word	.LANCHOR2
 129 0050 00000000 		.word	.LANCHOR3
 130 0054 00000000 		.word	.LANCHOR4
 131 0058 00000000 		.word	.LANCHOR5
 132 005c 00000000 		.word	.LANCHOR6
 133              		.cfi_endproc
 134              	.LFE119:
 135              		.size	cruiseInit, .-cruiseInit
 136              		.global	__aeabi_i2d
 137              		.global	__aeabi_dmul
 138              		.global	__aeabi_dcmpgt
 139              		.global	__aeabi_dcmplt
 140              		.global	__aeabi_dadd
 141              		.global	__aeabi_dsub
 142              		.global	__aeabi_d2iz
 143              		.section	.text.cruisePID,"ax",%progbits
 144              		.align	2
 145              		.p2align 4,,15
 146              		.global	cruisePID
 147              		.thumb
 148              		.thumb_func
 149              		.type	cruisePID, %function
 150              	cruisePID:
 151              	.LFB121:
 152              		.loc 2 68 0
 153              		.cfi_startproc
 154              		@ args = 36, pretend = 0, frame = 16
 155              		@ frame_needed = 0, uses_anonymous_args = 0
 156              	.LVL2:
 157 0000 2DE9F04F 		push	{r4, r5, r6, r7, r8, r9, sl, fp, lr}
 158              	.LCFI4:
 159              		.cfi_def_cfa_offset 36
 160 0004 85B0     		sub	sp, sp, #20
 161              	.LCFI5:
 162              		.cfi_def_cfa_offset 56
 163              		.loc 2 71 0
 164 0006 081A     		subs	r0, r1, r0
 165              	.LVL3:
 166              		.loc 2 68 0
 167 0008 0292     		str	r2, [sp, #8]
ARM GAS  C:\Users\DNIEL~1\AppData\Local\Temp\cc55tULl.s 			page 4


 168 000a 0393     		str	r3, [sp, #12]
 169              		.loc 2 71 0
 170              		.cfi_offset 14, -4
 171              		.cfi_offset 11, -8
 172              		.cfi_offset 10, -12
 173              		.cfi_offset 9, -16
 174              		.cfi_offset 8, -20
 175              		.cfi_offset 7, -24
 176              		.cfi_offset 6, -28
 177              		.cfi_offset 5, -32
 178              		.cfi_offset 4, -36
 179 000c FFF7FEFF 		bl	__aeabi_i2d
 180              	.LVL4:
 181 0010 534C     		ldr	r4, .L33
 182              		.loc 2 68 0
 183 0012 149E     		ldr	r6, [sp, #80]
 184              		.loc 2 74 0
 185 0014 534F     		ldr	r7, .L33+4
 186              		.loc 2 71 0
 187 0016 8246     		mov	sl, r0
 188 0018 8B46     		mov	fp, r1
 189              		.loc 2 74 0
 190 001a DDE90E23 		ldrd	r2, [sp, #56]
 191              		.loc 2 71 0
 192 001e C4E900AB 		strd	sl, [r4]
 193              		.loc 2 74 0
 194 0022 FFF7FEFF 		bl	__aeabi_dmul
 195 0026 0446     		mov	r4, r0
 196 0028 0D46     		mov	r5, r1
 197              		.loc 2 75 0
 198 002a 3046     		mov	r0, r6
 199              		.loc 2 74 0
 200 002c C7E90045 		strd	r4, [r7]
 201              		.loc 2 75 0
 202 0030 FFF7FEFF 		bl	__aeabi_i2d
 203 0034 8046     		mov	r8, r0
 204 0036 8946     		mov	r9, r1
 205 0038 2046     		mov	r0, r4
 206 003a 2946     		mov	r1, r5
 207 003c 4246     		mov	r2, r8
 208 003e 4B46     		mov	r3, r9
 209 0040 FFF7FEFF 		bl	__aeabi_dcmpgt
 210 0044 0028     		cmp	r0, #0
 211 0046 40F08580 		bne	.L29
 212              		.loc 2 78 0
 213 004a 7042     		negs	r0, r6
 214 004c FFF7FEFF 		bl	__aeabi_i2d
 215 0050 8046     		mov	r8, r0
 216 0052 8946     		mov	r9, r1
 217 0054 2046     		mov	r0, r4
 218 0056 2946     		mov	r1, r5
 219 0058 4246     		mov	r2, r8
 220 005a 4B46     		mov	r3, r9
 221 005c FFF7FEFF 		bl	__aeabi_dcmplt
 222 0060 0028     		cmp	r0, #0
 223 0062 77D1     		bne	.L29
 224              	.L8:
ARM GAS  C:\Users\DNIEL~1\AppData\Local\Temp\cc55tULl.s 			page 5


 225              		.loc 2 84 0
 226 0064 404E     		ldr	r6, .L33+8
 227 0066 DDE91023 		ldrd	r2, [sp, #64]
 228 006a 5046     		mov	r0, sl
 229 006c 5946     		mov	r1, fp
 230 006e FFF7FEFF 		bl	__aeabi_dmul
 231 0072 D6E90023 		ldrd	r2, [r6]
 232 0076 FFF7FEFF 		bl	__aeabi_dadd
 233 007a 0446     		mov	r4, r0
 234 007c 0D46     		mov	r5, r1
 235              		.loc 2 85 0
 236 007e 1598     		ldr	r0, [sp, #84]
 237              		.loc 2 84 0
 238 0080 C6E90045 		strd	r4, [r6]
 239              		.loc 2 85 0
 240 0084 FFF7FEFF 		bl	__aeabi_i2d
 241 0088 8046     		mov	r8, r0
 242 008a 8946     		mov	r9, r1
 243 008c 2046     		mov	r0, r4
 244 008e 2946     		mov	r1, r5
 245 0090 4246     		mov	r2, r8
 246 0092 4B46     		mov	r3, r9
 247 0094 FFF7FEFF 		bl	__aeabi_dcmpgt
 248 0098 0028     		cmp	r0, #0
 249 009a 58D1     		bne	.L30
 250              		.loc 2 88 0
 251 009c 159A     		ldr	r2, [sp, #84]
 252 009e 5042     		negs	r0, r2
 253 00a0 FFF7FEFF 		bl	__aeabi_i2d
 254 00a4 8046     		mov	r8, r0
 255 00a6 8946     		mov	r9, r1
 256 00a8 2046     		mov	r0, r4
 257 00aa 2946     		mov	r1, r5
 258 00ac 4246     		mov	r2, r8
 259 00ae 4B46     		mov	r3, r9
 260 00b0 FFF7FEFF 		bl	__aeabi_dcmplt
 261 00b4 0028     		cmp	r0, #0
 262 00b6 4AD1     		bne	.L30
 263              	.L12:
 264              		.loc 2 94 0
 265 00b8 DFF8B080 		ldr	r8, .L33+12
 266 00bc DFF8B090 		ldr	r9, .L33+16
 267 00c0 D8E90023 		ldrd	r2, [r8]
 268 00c4 5046     		mov	r0, sl
 269 00c6 5946     		mov	r1, fp
 270 00c8 FFF7FEFF 		bl	__aeabi_dsub
 271 00cc DDE91223 		ldrd	r2, [sp, #72]
 272 00d0 FFF7FEFF 		bl	__aeabi_dmul
 273 00d4 0446     		mov	r4, r0
 274 00d6 0D46     		mov	r5, r1
 275              		.loc 2 95 0
 276 00d8 1698     		ldr	r0, [sp, #88]
 277              		.loc 2 94 0
 278 00da C9E90045 		strd	r4, [r9]
 279              		.loc 2 95 0
 280 00de FFF7FEFF 		bl	__aeabi_i2d
 281 00e2 CDE90001 		strd	r0, [sp]
ARM GAS  C:\Users\DNIEL~1\AppData\Local\Temp\cc55tULl.s 			page 6


 282 00e6 DDE90023 		ldrd	r2, [sp]
 283 00ea 2046     		mov	r0, r4
 284 00ec 2946     		mov	r1, r5
 285 00ee FFF7FEFF 		bl	__aeabi_dcmpgt
 286 00f2 0028     		cmp	r0, #0
 287 00f4 24D1     		bne	.L31
 288              		.loc 2 98 0
 289 00f6 169B     		ldr	r3, [sp, #88]
 290 00f8 5842     		negs	r0, r3
 291 00fa FFF7FEFF 		bl	__aeabi_i2d
 292 00fe CDE90001 		strd	r0, [sp]
 293 0102 DDE90023 		ldrd	r2, [sp]
 294 0106 2046     		mov	r0, r4
 295 0108 2946     		mov	r1, r5
 296 010a FFF7FEFF 		bl	__aeabi_dcmplt
 297 010e B8B9     		cbnz	r0, .L31
 298              	.L16:
 299              		.loc 2 104 0
 300 0110 D6E90023 		ldrd	r2, [r6]
 301 0114 D7E90001 		ldrd	r0, [r7]
 302 0118 FFF7FEFF 		bl	__aeabi_dadd
 303 011c 2B46     		mov	r3, r5
 304 011e 2246     		mov	r2, r4
 305 0120 FFF7FEFF 		bl	__aeabi_dadd
 306 0124 FFF7FEFF 		bl	__aeabi_d2iz
 307              	.LVL5:
 308              		.loc 2 106 0
 309 0128 029B     		ldr	r3, [sp, #8]
 310 012a 9842     		cmp	r0, r3
 311 012c 15DC     		bgt	.L19
 312 012e 0399     		ldr	r1, [sp, #12]
 313 0130 8842     		cmp	r0, r1
 314 0132 B8BF     		it	lt
 315 0134 0846     		movlt	r0, r1
 316              	.LVL6:
 317              	.L18:
 318              		.loc 2 112 0
 319 0136 C8E900AB 		strd	sl, [r8]
 320              		.loc 2 115 0
 321 013a 05B0     		add	sp, sp, #20
 322 013c BDE8F08F 		pop	{r4, r5, r6, r7, r8, r9, sl, fp, pc}
 323              	.LVL7:
 324              	.L31:
 325              		.loc 2 99 0
 326 0140 DDE90023 		ldrd	r2, [sp]
 327 0144 C9E90023 		strd	r2, [r9]
 328 0148 1446     		mov	r4, r2
 329 014a 1D46     		mov	r5, r3
 330 014c E0E7     		b	.L16
 331              	.L30:
 332              		.loc 2 89 0
 333 014e C6E90089 		strd	r8, [r6]
 334 0152 B1E7     		b	.L12
 335              	.L29:
 336              		.loc 2 79 0
 337 0154 C7E90089 		strd	r8, [r7]
 338 0158 84E7     		b	.L8
ARM GAS  C:\Users\DNIEL~1\AppData\Local\Temp\cc55tULl.s 			page 7


 339              	.LVL8:
 340              	.L19:
 341              		.loc 2 106 0
 342 015a 0298     		ldr	r0, [sp, #8]
 343              	.LVL9:
 344 015c EBE7     		b	.L18
 345              	.L34:
 346 015e 00BF     		.align	2
 347              	.L33:
 348 0160 00000000 		.word	.LANCHOR5
 349 0164 00000000 		.word	.LANCHOR1
 350 0168 00000000 		.word	.LANCHOR2
 351 016c 00000000 		.word	.LANCHOR4
 352 0170 00000000 		.word	.LANCHOR3
 353              		.cfi_endproc
 354              	.LFE121:
 355              		.size	cruisePID, .-cruisePID
 356 0174 AFF30080 		.section	.text.cruiseCalc,"ax",%progbits
 356      AFF30080 
 356      AFF30080 
 357              		.align	2
 358              		.p2align 4,,15
 359              		.global	cruiseCalc
 360              		.thumb
 361              		.thumb_func
 362              		.type	cruiseCalc, %function
 363              	cruiseCalc:
 364              	.LFB120:
 365              		.loc 2 61 0
 366              		.cfi_startproc
 367              		@ args = 0, pretend = 0, frame = 0
 368              		@ frame_needed = 0, uses_anonymous_args = 0
 369 0000 70B5     		push	{r4, r5, r6, lr}
 370              	.LCFI6:
 371              		.cfi_def_cfa_offset 16
 372 0002 8AB0     		sub	sp, sp, #40
 373              	.LCFI7:
 374              		.cfi_def_cfa_offset 56
 375              		.loc 2 62 0
 376              		.cfi_offset 14, -4
 377              		.cfi_offset 6, -8
 378              		.cfi_offset 5, -12
 379              		.cfi_offset 4, -16
 380 0004 FFF7FEFF 		bl	speedGetRpm
 381 0008 1F4D     		ldr	r5, .L36
 382 000a 2049     		ldr	r1, .L36+4
 383 000c B5F90060 		ldrsh	r6, [r5, #0]
 384 0010 1F4C     		ldr	r4, .L36+8
 385 0012 05B2     		sxth	r5, r0
 386 0014 B1F90000 		ldrsh	r0, [r1, #0]
 387 0018 FFF7FEFF 		bl	__aeabi_i2d
 388 001c CDE90001 		strd	r0, [sp]
 389 0020 1C4B     		ldr	r3, .L36+12
 390 0022 B3F90000 		ldrsh	r0, [r3, #0]
 391 0026 FFF7FEFF 		bl	__aeabi_i2d
 392 002a CDE90201 		strd	r0, [sp, #8]
 393 002e 1A4A     		ldr	r2, .L36+16
ARM GAS  C:\Users\DNIEL~1\AppData\Local\Temp\cc55tULl.s 			page 8


 394 0030 B2F90000 		ldrsh	r0, [r2, #0]
 395 0034 FFF7FEFF 		bl	__aeabi_i2d
 396 0038 2246     		mov	r2, r4
 397 003a CDE90401 		strd	r0, [sp, #16]
 398 003e 174B     		ldr	r3, .L36+20
 399 0040 0694     		str	r4, [sp, #24]
 400 0042 3146     		mov	r1, r6
 401 0044 2846     		mov	r0, r5
 402 0046 0794     		str	r4, [sp, #28]
 403 0048 0894     		str	r4, [sp, #32]
 404 004a FFF7FEFF 		bl	cruisePID
 405 004e 144C     		ldr	r4, .L36+24
 406              		.loc 2 64 0
 407 0050 1449     		ldr	r1, .L36+28
 408              		.loc 2 62 0
 409 0052 84FB0023 		smull	r2, r3, r4, r0
 410 0056 C017     		asrs	r0, r0, #31
 411              		.loc 2 64 0
 412 0058 B1F808C0 		ldrh	ip, [r1, #8]
 413 005c 124C     		ldr	r4, .L36+32
 414              		.loc 2 62 0
 415 005e C0EB6313 		rsb	r3, r0, r3, asr #5
 416              		.loc 2 64 0
 417 0062 9AB2     		uxth	r2, r3
 418 0064 0CFB02F0 		mul	r0, ip, r2
 419 0068 84FB004C 		smull	r4, ip, r4, r0
 420 006c C017     		asrs	r0, r0, #31
 421 006e C0EB2C32 		rsb	r2, r0, ip, asr #12
 422              		.loc 2 62 0
 423 0072 0E4C     		ldr	r4, .L36+36
 424              		.loc 2 64 0
 425 0074 0846     		mov	r0, r1
 426 0076 92B2     		uxth	r2, r2
 427 0078 0221     		movs	r1, #2
 428              		.loc 2 62 0
 429 007a 2360     		str	r3, [r4, #0]
 430              		.loc 2 65 0
 431 007c 0AB0     		add	sp, sp, #40
 432 007e BDE87040 		pop	{r4, r5, r6, lr}
 433              		.loc 2 64 0
 434 0082 FFF7FEBF 		b	pwmEnableChannel
 435              	.L37:
 436 0086 00BF     		.align	2
 437              	.L36:
 438 0088 00000000 		.word	.LANCHOR6
 439 008c 00000000 		.word	.LANCHOR8
 440 0090 40420F00 		.word	1000000
 441 0094 00000000 		.word	.LANCHOR9
 442 0098 00000000 		.word	.LANCHOR10
 443 009c 10EB0900 		.word	650000
 444 00a0 1F85EB51 		.word	1374389535
 445 00a4 00000000 		.word	PWMD5
 446 00a8 AD8BDB68 		.word	1759218605
 447 00ac 00000000 		.word	.LANCHOR0
 448              		.cfi_endproc
 449              	.LFE120:
 450              		.size	cruiseCalc, .-cruiseCalc
ARM GAS  C:\Users\DNIEL~1\AppData\Local\Temp\cc55tULl.s 			page 9


 451              		.section	.text.cmd_cruisevalues,"ax",%progbits
 452              		.align	2
 453              		.p2align 4,,15
 454              		.global	cmd_cruisevalues
 455              		.thumb
 456              		.thumb_func
 457              		.type	cmd_cruisevalues, %function
 458              	cmd_cruisevalues:
 459              	.LFB122:
 460              		.loc 2 117 0
 461              		.cfi_startproc
 462              		@ args = 0, pretend = 0, frame = 0
 463              		@ frame_needed = 0, uses_anonymous_args = 0
 464              	.LVL10:
 465 0000 2DE9F041 		push	{r4, r5, r6, r7, r8, lr}
 466              	.LCFI8:
 467              		.cfi_def_cfa_offset 24
 468              		.loc 2 121 0
 469 0004 2C49     		ldr	r1, .L41
 470              	.LVL11:
 471              		.loc 2 126 0
 472 0006 2D4F     		ldr	r7, .L41+4
 473              		.cfi_offset 14, -4
 474              		.cfi_offset 8, -8
 475              		.cfi_offset 7, -12
 476              		.cfi_offset 6, -16
 477              		.cfi_offset 5, -20
 478              		.cfi_offset 4, -24
 479 0008 2D4E     		ldr	r6, .L41+8
 480              		.loc 2 127 0
 481 000a 2E4D     		ldr	r5, .L41+12
 482              		.loc 2 117 0
 483 000c 0446     		mov	r4, r0
 484              		.loc 2 121 0
 485 000e FFF7FEFF 		bl	chprintf
 486              	.LVL12:
 487              		.loc 2 122 0
 488 0012 2046     		mov	r0, r4
 489 0014 2C49     		ldr	r1, .L41+16
 490 0016 FFF7FEFF 		bl	chprintf
 491              		.loc 2 123 0
 492 001a 42E0     		b	.L39
 493              	.L40:
 494              		.loc 2 124 0
 495 001c 0022     		movs	r2, #0
 496 001e 1346     		mov	r3, r2
 497 0020 2046     		mov	r0, r4
 498 0022 2A49     		ldr	r1, .L41+20
 499 0024 FFF7FEFF 		bl	chprintf
 500              		.loc 2 126 0
 501 0028 D6E90001 		ldrd	r0, [r6]
 502 002c FFF7FEFF 		bl	__aeabi_d2iz
 503 0030 B7F90080 		ldrsh	r8, [r7, #0]
 504 0034 2649     		ldr	r1, .L41+24
 505 0036 4246     		mov	r2, r8
 506 0038 0346     		mov	r3, r0
 507 003a 2046     		mov	r0, r4
ARM GAS  C:\Users\DNIEL~1\AppData\Local\Temp\cc55tULl.s 			page 10


 508 003c FFF7FEFF 		bl	chprintf
 509              		.loc 2 127 0
 510 0040 244B     		ldr	r3, .L41+28
 511 0042 B5F90080 		ldrsh	r8, [r5, #0]
 512 0046 D3E90001 		ldrd	r0, [r3]
 513 004a FFF7FEFF 		bl	__aeabi_d2iz
 514 004e 4246     		mov	r2, r8
 515 0050 0346     		mov	r3, r0
 516 0052 2149     		ldr	r1, .L41+32
 517 0054 2046     		mov	r0, r4
 518 0056 FFF7FEFF 		bl	chprintf
 519              		.loc 2 128 0
 520 005a 204B     		ldr	r3, .L41+36
 521 005c B3F90080 		ldrsh	r8, [r3, #0]
 522 0060 1F4B     		ldr	r3, .L41+40
 523 0062 D3E90001 		ldrd	r0, [r3]
 524 0066 FFF7FEFF 		bl	__aeabi_d2iz
 525 006a 1E49     		ldr	r1, .L41+44
 526 006c 0346     		mov	r3, r0
 527 006e 4246     		mov	r2, r8
 528 0070 2046     		mov	r0, r4
 529 0072 FFF7FEFF 		bl	chprintf
 530              		.loc 2 129 0
 531 0076 1C4B     		ldr	r3, .L41+48
 532 0078 1C49     		ldr	r1, .L41+52
 533 007a 1A68     		ldr	r2, [r3, #0]
 534 007c 2046     		mov	r0, r4
 535 007e FFF7FEFF 		bl	chprintf
 536              		.loc 2 130 0
 537 0082 1B4B     		ldr	r3, .L41+56
 538 0084 1B49     		ldr	r1, .L41+60
 539 0086 1A68     		ldr	r2, [r3, #0]
 540 0088 2046     		mov	r0, r4
 541 008a FFF7FEFF 		bl	chprintf
 542              		.loc 2 131 0
 543 008e FFF7FEFF 		bl	speedGetRpm
 544 0092 1949     		ldr	r1, .L41+64
 545 0094 0246     		mov	r2, r0
 546 0096 2046     		mov	r0, r4
 547 0098 FFF7FEFF 		bl	chprintf
 548              		.loc 2 133 0
 549 009c 6420     		movs	r0, #100
 550 009e FFF7FEFF 		bl	chThdSleep
 551              	.L39:
 552              		.loc 2 123 0 discriminator 1
 553 00a2 2168     		ldr	r1, [r4, #0]
 554 00a4 2046     		mov	r0, r4
 555 00a6 4B69     		ldr	r3, [r1, #20]
 556 00a8 0021     		movs	r1, #0
 557 00aa 9847     		blx	r3
 558 00ac B0F1FF3F 		cmp	r0, #-1
 559 00b0 B4D0     		beq	.L40
 560              		.loc 2 135 0
 561 00b2 BDE8F081 		pop	{r4, r5, r6, r7, r8, pc}
 562              	.L42:
 563 00b6 00BF     		.align	2
 564              	.L41:
ARM GAS  C:\Users\DNIEL~1\AppData\Local\Temp\cc55tULl.s 			page 11


 565 00b8 00000000 		.word	.LC0
 566 00bc 00000000 		.word	.LANCHOR8
 567 00c0 00000000 		.word	.LANCHOR1
 568 00c4 00000000 		.word	.LANCHOR9
 569 00c8 04000000 		.word	.LC1
 570 00cc 0C000000 		.word	.LC2
 571 00d0 18000000 		.word	.LC3
 572 00d4 00000000 		.word	.LANCHOR2
 573 00d8 30000000 		.word	.LC4
 574 00dc 00000000 		.word	.LANCHOR10
 575 00e0 00000000 		.word	.LANCHOR3
 576 00e4 48000000 		.word	.LC5
 577 00e8 00000000 		.word	.LANCHOR0
 578 00ec 60000000 		.word	.LC6
 579 00f0 00000000 		.word	.LANCHOR6
 580 00f4 6C000000 		.word	.LC7
 581 00f8 7C000000 		.word	.LC8
 582              		.cfi_endproc
 583              	.LFE122:
 584              		.size	cmd_cruisevalues, .-cmd_cruisevalues
 585 00fc AFF30080 		.section	.text.cmd_setcruisevalues,"ax",%progbits
 586              		.align	2
 587              		.p2align 4,,15
 588              		.global	cmd_setcruisevalues
 589              		.thumb
 590              		.thumb_func
 591              		.type	cmd_setcruisevalues, %function
 592              	cmd_setcruisevalues:
 593              	.LFB123:
 594              		.loc 2 137 0
 595              		.cfi_startproc
 596              		@ args = 0, pretend = 0, frame = 0
 597              		@ frame_needed = 0, uses_anonymous_args = 0
 598              	.LVL13:
 599 0000 2DE9F041 		push	{r4, r5, r6, r7, r8, lr}
 600              	.LCFI9:
 601              		.cfi_def_cfa_offset 24
 602              		.loc 2 137 0
 603 0004 0446     		mov	r4, r0
 604              		.cfi_offset 14, -4
 605              		.cfi_offset 8, -8
 606              		.cfi_offset 7, -12
 607              		.cfi_offset 6, -16
 608              		.cfi_offset 5, -20
 609              		.cfi_offset 4, -24
 610 0006 0D46     		mov	r5, r1
 611              		.loc 2 143 0
 612 0008 5749     		ldr	r1, .L71+8
 613              	.LVL14:
 614              		.loc 2 137 0
 615 000a 1646     		mov	r6, r2
 616              		.loc 2 143 0
 617 000c FFF7FEFF 		bl	chprintf
 618              	.LVL15:
 619              		.loc 2 144 0
 620 0010 2046     		mov	r0, r4
 621 0012 5649     		ldr	r1, .L71+12
ARM GAS  C:\Users\DNIEL~1\AppData\Local\Temp\cc55tULl.s 			page 12


 622 0014 FFF7FEFF 		bl	chprintf
 623              		.loc 2 145 0
 624 0018 2168     		ldr	r1, [r4, #0]
 625 001a 2046     		mov	r0, r4
 626 001c 4B69     		ldr	r3, [r1, #20]
 627 001e 0021     		movs	r1, #0
 628 0020 9847     		blx	r3
 629 0022 B0F1FF3F 		cmp	r0, #-1
 630 0026 01D0     		beq	.L65
 631 0028 BDE8F081 		pop	{r4, r5, r6, r7, r8, pc}
 632              	.L65:
 633              		.loc 2 146 0
 634 002c 0022     		movs	r2, #0
 635 002e 2046     		mov	r0, r4
 636 0030 4F49     		ldr	r1, .L71+16
 637 0032 1346     		mov	r3, r2
 638 0034 FFF7FEFF 		bl	chprintf
 639              		.loc 2 148 0
 640 0038 022D     		cmp	r5, #2
 641 003a 05D0     		beq	.L66
 642              	.LVL16:
 643              	.L45:
 644              		.loc 2 199 0
 645 003c 4D49     		ldr	r1, .L71+20
 646 003e 2046     		mov	r0, r4
 647              		.loc 2 204 0
 648 0040 BDE8F041 		pop	{r4, r5, r6, r7, r8, lr}
 649              		.loc 2 199 0
 650 0044 FFF7FEBF 		b	chprintf
 651              	.LVL17:
 652              	.L66:
 653              		.loc 2 148 0 discriminator 1
 654 0048 3768     		ldr	r7, [r6, #0]
 655 004a 4B49     		ldr	r1, .L71+24
 656 004c 3846     		mov	r0, r7
 657 004e FFF7FEFF 		bl	strcmp
 658 0052 0028     		cmp	r0, #0
 659 0054 4CD0     		beq	.L67
 660              	.L46:
 661              		.loc 2 158 0
 662 0056 3846     		mov	r0, r7
 663 0058 4849     		ldr	r1, .L71+28
 664 005a FFF7FEFF 		bl	strcmp
 665 005e 0028     		cmp	r0, #0
 666 0060 3BD0     		beq	.L59
 667              	.LVL18:
 668              	.L50:
 669              		.loc 2 168 0
 670 0062 3846     		mov	r0, r7
 671 0064 4649     		ldr	r1, .L71+32
 672 0066 FFF7FEFF 		bl	strcmp
 673 006a 0028     		cmp	r0, #0
 674 006c 2AD0     		beq	.L60
 675              	.L54:
 676              		.loc 2 178 0
 677 006e 3846     		mov	r0, r7
 678 0070 4449     		ldr	r1, .L71+36
ARM GAS  C:\Users\DNIEL~1\AppData\Local\Temp\cc55tULl.s 			page 13


 679 0072 FFF7FEFF 		bl	strcmp
 680 0076 0028     		cmp	r0, #0
 681 0078 E0D1     		bne	.L45
 682              		.loc 2 179 0
 683 007a 7068     		ldr	r0, [r6, #4]
 684 007c FFF7FEFF 		bl	atol
 685 0080 0546     		mov	r5, r0	@ movhi
 686              	.LVL19:
 687              		.loc 2 180 0
 688 0082 00B2     		sxth	r0, r0
 689 0084 0028     		cmp	r0, #0
 690 0086 3BDD     		ble	.L68
 691              	.L55:
 692              		.loc 2 181 0
 693 0088 3F4E     		ldr	r6, .L71+40
 694              	.LVL20:
 695 008a 3580     		strh	r5, [r6, #0]	@ movhi
 696              	.L58:
 697              		.loc 2 192 0
 698 008c 3F4B     		ldr	r3, .L71+44
 699 008e 4049     		ldr	r1, .L71+48
 700 0090 B3F90020 		ldrsh	r2, [r3, #0]
 701 0094 2046     		mov	r0, r4
 702 0096 FFF7FEFF 		bl	chprintf
 703              		.loc 2 193 0
 704 009a 3E4A     		ldr	r2, .L71+52
 705 009c 3E49     		ldr	r1, .L71+56
 706 009e B2F90020 		ldrsh	r2, [r2, #0]
 707 00a2 2046     		mov	r0, r4
 708 00a4 FFF7FEFF 		bl	chprintf
 709              		.loc 2 194 0
 710 00a8 2046     		mov	r0, r4
 711 00aa B6F90020 		ldrsh	r2, [r6, #0]
 712 00ae 3B49     		ldr	r1, .L71+60
 713 00b0 FFF7FEFF 		bl	chprintf
 714              		.loc 2 195 0
 715 00b4 3A48     		ldr	r0, .L71+64
 716 00b6 3B49     		ldr	r1, .L71+68
 717 00b8 0268     		ldr	r2, [r0, #0]
 718 00ba 2046     		mov	r0, r4
 719              		.loc 2 204 0
 720 00bc BDE8F041 		pop	{r4, r5, r6, r7, r8, lr}
 721              		.loc 2 195 0
 722 00c0 FFF7FEBF 		b	chprintf
 723              	.LVL21:
 724              	.L60:
 725              		.loc 2 169 0
 726 00c4 7068     		ldr	r0, [r6, #4]
 727 00c6 FFF7FEFF 		bl	atol
 728 00ca 0546     		mov	r5, r0	@ movhi
 729              	.LVL22:
 730              		.loc 2 170 0
 731 00cc 00B2     		sxth	r0, r0
 732 00ce 0028     		cmp	r0, #0
 733 00d0 25DD     		ble	.L69
 734              	.L51:
 735              		.loc 2 171 0
ARM GAS  C:\Users\DNIEL~1\AppData\Local\Temp\cc55tULl.s 			page 14


 736 00d2 3049     		ldr	r1, .L71+52
 737 00d4 3768     		ldr	r7, [r6, #0]
 738 00d6 0D80     		strh	r5, [r1, #0]	@ movhi
 739 00d8 C9E7     		b	.L54
 740              	.LVL23:
 741              	.L59:
 742              		.loc 2 159 0
 743 00da 7068     		ldr	r0, [r6, #4]
 744 00dc FFF7FEFF 		bl	atol
 745 00e0 0546     		mov	r5, r0	@ movhi
 746              	.LVL24:
 747              		.loc 2 160 0
 748 00e2 00B2     		sxth	r0, r0
 749 00e4 0028     		cmp	r0, #0
 750 00e6 29DD     		ble	.L70
 751              	.L47:
 752              		.loc 2 161 0
 753 00e8 284B     		ldr	r3, .L71+44
 754 00ea 3768     		ldr	r7, [r6, #0]
 755 00ec 1D80     		strh	r5, [r3, #0]	@ movhi
 756 00ee B8E7     		b	.L50
 757              	.LVL25:
 758              	.L67:
 759              		.loc 2 149 0
 760 00f0 7068     		ldr	r0, [r6, #4]
 761 00f2 FFF7FEFF 		bl	atol
 762              	.LVL26:
 763              		.loc 2 151 0
 764 00f6 2A4A     		ldr	r2, .L71+64
 765 00f8 3768     		ldr	r7, [r6, #0]
 766 00fa 00B2     		sxth	r0, r0
 767 00fc 1060     		str	r0, [r2, #0]
 768 00fe AAE7     		b	.L46
 769              	.LVL27:
 770              	.L68:
 771              		.loc 2 180 0 discriminator 1
 772 0100 FFF7FEFF 		bl	__aeabi_i2d
 773 0104 16A3     		adr	r3, .L71
 774 0106 D3E90023 		ldrd	r2, [r3]
 775 010a FFF7FEFF 		bl	__aeabi_dcmplt
 776 010e 0028     		cmp	r0, #0
 777 0110 BAD1     		bne	.L55
 778              		.loc 2 184 0
 779 0112 2046     		mov	r0, r4
 780 0114 2449     		ldr	r1, .L71+72
 781 0116 1C4E     		ldr	r6, .L71+40
 782              	.LVL28:
 783 0118 FFF7FEFF 		bl	chprintf
 784 011c B6E7     		b	.L58
 785              	.LVL29:
 786              	.L69:
 787              		.loc 2 170 0 discriminator 1
 788 011e FFF7FEFF 		bl	__aeabi_i2d
 789 0122 0FA3     		adr	r3, .L71
 790 0124 D3E90023 		ldrd	r2, [r3]
 791 0128 FFF7FEFF 		bl	__aeabi_dcmplt
 792 012c 0028     		cmp	r0, #0
ARM GAS  C:\Users\DNIEL~1\AppData\Local\Temp\cc55tULl.s 			page 15


 793 012e D0D1     		bne	.L51
 794              		.loc 2 174 0
 795 0130 2046     		mov	r0, r4
 796 0132 1E49     		ldr	r1, .L71+76
 797 0134 FFF7FEFF 		bl	chprintf
 798 0138 3768     		ldr	r7, [r6, #0]
 799 013a 98E7     		b	.L54
 800              	.L70:
 801              		.loc 2 160 0 discriminator 1
 802 013c FFF7FEFF 		bl	__aeabi_i2d
 803 0140 07A3     		adr	r3, .L71
 804 0142 D3E90023 		ldrd	r2, [r3]
 805 0146 FFF7FEFF 		bl	__aeabi_dcmplt
 806 014a 0028     		cmp	r0, #0
 807 014c CCD1     		bne	.L47
 808              		.loc 2 164 0
 809 014e 2046     		mov	r0, r4
 810 0150 1749     		ldr	r1, .L71+80
 811 0152 FFF7FEFF 		bl	chprintf
 812 0156 3768     		ldr	r7, [r6, #0]
 813 0158 83E7     		b	.L50
 814              	.L72:
 815 015a 00BFAFF3 		.align	3
 815      0080
 816              	.L71:
 817 0160 00000000 		.word	0
 818 0164 80842E41 		.word	1093567616
 819 0168 00000000 		.word	.LC0
 820 016c 04000000 		.word	.LC1
 821 0170 0C000000 		.word	.LC2
 822 0174 00010000 		.word	.LC16
 823 0178 90000000 		.word	.LC9
 824 017c 1C010000 		.word	.LC17
 825 0180 20010000 		.word	.LC18
 826 0184 24010000 		.word	.LC19
 827 0188 00000000 		.word	.LANCHOR10
 828 018c 00000000 		.word	.LANCHOR8
 829 0190 DC000000 		.word	.LC13
 830 0194 00000000 		.word	.LANCHOR9
 831 0198 E8000000 		.word	.LC14
 832 019c F4000000 		.word	.LC15
 833 01a0 00000000 		.word	.LANCHOR6
 834 01a4 6C000000 		.word	.LC7
 835 01a8 C4000000 		.word	.LC12
 836 01ac AC000000 		.word	.LC11
 837 01b0 94000000 		.word	.LC10
 838              		.cfi_endproc
 839              	.LFE123:
 840              		.size	cmd_setcruisevalues, .-cmd_setcruisevalues
 841 01b4 AFF30080 		.section	.bss.P,"aw",%nobits
 841      AFF30080 
 841      AFF30080 
 842              		.align	3
 843              		.set	.LANCHOR1,. + 0
 844              		.type	P, %object
 845              		.size	P, 8
 846              	P:
ARM GAS  C:\Users\DNIEL~1\AppData\Local\Temp\cc55tULl.s 			page 16


 847 0000 00000000 		.space	8
 847      00000000 
 848              		.section	.data.K_D,"aw",%progbits
 849              		.align	1
 850              		.set	.LANCHOR10,. + 0
 851              		.type	K_D, %object
 852              		.size	K_D, 2
 853              	K_D:
 854 0000 F401     		.short	500
 855              		.section	.bss.set,"aw",%nobits
 856              		.align	2
 857              		.set	.LANCHOR6,. + 0
 858              		.type	set, %object
 859              		.size	set, 4
 860              	set:
 861 0000 00000000 		.space	4
 862              		.section	.data.K_I,"aw",%progbits
 863              		.align	1
 864              		.set	.LANCHOR9,. + 0
 865              		.type	K_I, %object
 866              		.size	K_I, 2
 867              	K_I:
 868 0000 0200     		.short	2
 869              		.section	.rodata.str1.4,"aMS",%progbits,1
 870              		.align	2
 871              	.LC0:
 872 0000 1B6300   		.ascii	"\033c\000"
 873 0003 00       		.space	1
 874              	.LC1:
 875 0004 1B5B324A 		.ascii	"\033[2J\000"
 875      00
 876 0009 000000   		.space	3
 877              	.LC2:
 878 000c 1B5B2564 		.ascii	"\033[%d;%dH\000"
 878      3B256448 
 878      00
 879 0015 000000   		.space	3
 880              	.LC3:
 881 0018 4B5F503A 		.ascii	"K_P: %15d - P: %15d\015\012\000"
 881      20253135 
 881      64202D20 
 881      503A2025 
 881      3135640D 
 882 002e 0000     		.space	2
 883              	.LC4:
 884 0030 4B5F493A 		.ascii	"K_I: %15d - I: %15d\015\012\000"
 884      20253135 
 884      64202D20 
 884      493A2025 
 884      3135640D 
 885 0046 0000     		.space	2
 886              	.LC5:
 887 0048 4B5F443A 		.ascii	"K_D: %15d - D: %15d\015\012\000"
 887      20253135 
 887      64202D20 
 887      443A2025 
 887      3135640D 
ARM GAS  C:\Users\DNIEL~1\AppData\Local\Temp\cc55tULl.s 			page 17


 888 005e 0000     		.space	2
 889              	.LC6:
 890 0060 70776D3A 		.ascii	"pwm: %15d\015\012\000"
 890      20253135 
 890      640D0A00 
 891              	.LC7:
 892 006c 73657420 		.ascii	"set rpm: %15d\015\012\000"
 892      72706D3A 
 892      20253135 
 892      640D0A00 
 893              	.LC8:
 894 007c 696E7075 		.ascii	"input rpm: %15d\015\012\000"
 894      74207270 
 894      6D3A2025 
 894      3135640D 
 894      0A00
 895 008e 0000     		.space	2
 896              	.LC9:
 897 0090 72706D00 		.ascii	"rpm\000"
 898              	.LC10:
 899 0094 54686973 		.ascii	"This not good K_P!\015\012\000"
 899      206E6F74 
 899      20676F6F 
 899      64204B5F 
 899      50210D0A 
 900 00a9 000000   		.space	3
 901              	.LC11:
 902 00ac 54686973 		.ascii	"This not good K_I!\015\012\000"
 902      206E6F74 
 902      20676F6F 
 902      64204B5F 
 902      49210D0A 
 903 00c1 000000   		.space	3
 904              	.LC12:
 905 00c4 54686973 		.ascii	"This not good K_D!\015\012\000"
 905      206E6F74 
 905      20676F6F 
 905      64204B5F 
 905      44210D0A 
 906 00d9 000000   		.space	3
 907              	.LC13:
 908 00dc 4B5F503A 		.ascii	"K_P: %15d\015\012\000"
 908      20253135 
 908      640D0A00 
 909              	.LC14:
 910 00e8 4B5F493A 		.ascii	"K_I: %15d\015\012\000"
 910      20253135 
 910      640D0A00 
 911              	.LC15:
 912 00f4 4B5F443A 		.ascii	"K_D: %15d\015\012\000"
 912      20253135 
 912      640D0A00 
 913              	.LC16:
 914 0100 54686973 		.ascii	"This not good command!\015\012\000"
 914      206E6F74 
 914      20676F6F 
 914      6420636F 
ARM GAS  C:\Users\DNIEL~1\AppData\Local\Temp\cc55tULl.s 			page 18


 914      6D6D616E 
 915 0119 000000   		.space	3
 916              	.LC17:
 917 011c 4B5F5000 		.ascii	"K_P\000"
 918              	.LC18:
 919 0120 4B5F4900 		.ascii	"K_I\000"
 920              	.LC19:
 921 0124 4B5F4400 		.ascii	"K_D\000"
 922              		.section	.bss.pwm,"aw",%nobits
 923              		.align	2
 924              		.set	.LANCHOR0,. + 0
 925              		.type	pwm, %object
 926              		.size	pwm, 4
 927              	pwm:
 928 0000 00000000 		.space	4
 929              		.section	.data.cruise_pwmcfg,"aw",%progbits
 930              		.align	2
 931              		.set	.LANCHOR7,. + 0
 932              		.type	cruise_pwmcfg, %object
 933              		.size	cruise_pwmcfg, 52
 934              	cruise_pwmcfg:
 935 0000 80969800 		.word	10000000
 936 0004 1027     		.short	10000
 937 0006 0000     		.space	2
 938 0008 00000000 		.word	0
 939 000c 00000000 		.word	0
 940 0010 00000000 		.word	0
 941 0014 00000000 		.word	0
 942 0018 00000000 		.word	0
 943 001c 01000000 		.word	1
 944 0020 00000000 		.word	0
 945 0024 00000000 		.word	0
 946 0028 00000000 		.word	0
 947 002c 00000000 		.word	0
 948 0030 00000000 		.word	0
 949              		.section	.data.K_P,"aw",%progbits
 950              		.align	1
 951              		.set	.LANCHOR8,. + 0
 952              		.type	K_P, %object
 953              		.size	K_P, 2
 954              	K_P:
 955 0000 0500     		.short	5
 956              		.section	.bss.D,"aw",%nobits
 957              		.align	3
 958              		.set	.LANCHOR3,. + 0
 959              		.type	D, %object
 960              		.size	D, 8
 961              	D:
 962 0000 00000000 		.space	8
 962      00000000 
 963              		.section	.bss.e,"aw",%nobits
 964              		.align	3
 965              		.set	.LANCHOR5,. + 0
 966              		.type	e, %object
 967              		.size	e, 8
 968              	e:
 969 0000 00000000 		.space	8
ARM GAS  C:\Users\DNIEL~1\AppData\Local\Temp\cc55tULl.s 			page 19


 969      00000000 
 970              		.section	.bss.eelozo,"aw",%nobits
 971              		.align	3
 972              		.set	.LANCHOR4,. + 0
 973              		.type	eelozo, %object
 974              		.size	eelozo, 8
 975              	eelozo:
 976 0000 00000000 		.space	8
 976      00000000 
 977              		.section	.bss.I,"aw",%nobits
 978              		.align	3
 979              		.set	.LANCHOR2,. + 0
 980              		.type	I, %object
 981              		.size	I, 8
 982              	I:
 983 0000 00000000 		.space	8
 983      00000000 
 984              		.text
 985              	.Letext0:
 986              		.section	.debug_loc,"",%progbits
 987              	.Ldebug_loc0:
 988              	.LLST0:
 989 0000 00000000 		.4byte	.LFB118
 990 0004 02000000 		.4byte	.LCFI0
 991 0008 0200     		.2byte	0x2
 992 000a 7D       		.byte	0x7d
 993 000b 00       		.sleb128 0
 994 000c 02000000 		.4byte	.LCFI0
 995 0010 04000000 		.4byte	.LCFI1
 996 0014 0200     		.2byte	0x2
 997 0016 7D       		.byte	0x7d
 998 0017 0C       		.sleb128 12
 999 0018 04000000 		.4byte	.LCFI1
 1000 001c 06000000 		.4byte	.LCFI2
 1001 0020 0200     		.2byte	0x2
 1002 0022 7D       		.byte	0x7d
 1003 0023 10       		.sleb128 16
 1004 0024 06000000 		.4byte	.LCFI2
 1005 0028 1E000000 		.4byte	.LFE118
 1006 002c 0200     		.2byte	0x2
 1007 002e 7D       		.byte	0x7d
 1008 002f 18       		.sleb128 24
 1009 0030 00000000 		.4byte	0x0
 1010 0034 00000000 		.4byte	0x0
 1011              	.LLST1:
 1012 0038 00000000 		.4byte	.LVL0
 1013 003c 13000000 		.4byte	.LVL1-1
 1014 0040 0100     		.2byte	0x1
 1015 0042 50       		.byte	0x50
 1016 0043 00000000 		.4byte	0x0
 1017 0047 00000000 		.4byte	0x0
 1018              	.LLST2:
 1019 004b 00000000 		.4byte	.LFB119
 1020 004f 02000000 		.4byte	.LCFI3
 1021 0053 0200     		.2byte	0x2
 1022 0055 7D       		.byte	0x7d
 1023 0056 00       		.sleb128 0
ARM GAS  C:\Users\DNIEL~1\AppData\Local\Temp\cc55tULl.s 			page 20


 1024 0057 02000000 		.4byte	.LCFI3
 1025 005b 60000000 		.4byte	.LFE119
 1026 005f 0200     		.2byte	0x2
 1027 0061 7D       		.byte	0x7d
 1028 0062 08       		.sleb128 8
 1029 0063 00000000 		.4byte	0x0
 1030 0067 00000000 		.4byte	0x0
 1031              	.LLST3:
 1032 006b 00000000 		.4byte	.LFB121
 1033 006f 04000000 		.4byte	.LCFI4
 1034 0073 0200     		.2byte	0x2
 1035 0075 7D       		.byte	0x7d
 1036 0076 00       		.sleb128 0
 1037 0077 04000000 		.4byte	.LCFI4
 1038 007b 06000000 		.4byte	.LCFI5
 1039 007f 0200     		.2byte	0x2
 1040 0081 7D       		.byte	0x7d
 1041 0082 24       		.sleb128 36
 1042 0083 06000000 		.4byte	.LCFI5
 1043 0087 74010000 		.4byte	.LFE121
 1044 008b 0200     		.2byte	0x2
 1045 008d 7D       		.byte	0x7d
 1046 008e 38       		.sleb128 56
 1047 008f 00000000 		.4byte	0x0
 1048 0093 00000000 		.4byte	0x0
 1049              	.LLST4:
 1050 0097 00000000 		.4byte	.LVL2
 1051 009b 08000000 		.4byte	.LVL3
 1052 009f 0100     		.2byte	0x1
 1053 00a1 50       		.byte	0x50
 1054 00a2 00000000 		.4byte	0x0
 1055 00a6 00000000 		.4byte	0x0
 1056              	.LLST5:
 1057 00aa 00000000 		.4byte	.LVL2
 1058 00ae 0F000000 		.4byte	.LVL4-1
 1059 00b2 0100     		.2byte	0x1
 1060 00b4 51       		.byte	0x51
 1061 00b5 00000000 		.4byte	0x0
 1062 00b9 00000000 		.4byte	0x0
 1063              	.LLST6:
 1064 00bd 00000000 		.4byte	.LVL2
 1065 00c1 0F000000 		.4byte	.LVL4-1
 1066 00c5 0100     		.2byte	0x1
 1067 00c7 52       		.byte	0x52
 1068 00c8 0F000000 		.4byte	.LVL4-1
 1069 00cc 74010000 		.4byte	.LFE121
 1070 00d0 0200     		.2byte	0x2
 1071 00d2 91       		.byte	0x91
 1072 00d3 50       		.sleb128 -48
 1073 00d4 00000000 		.4byte	0x0
 1074 00d8 00000000 		.4byte	0x0
 1075              	.LLST7:
 1076 00dc 00000000 		.4byte	.LVL2
 1077 00e0 0F000000 		.4byte	.LVL4-1
 1078 00e4 0100     		.2byte	0x1
 1079 00e6 53       		.byte	0x53
 1080 00e7 0F000000 		.4byte	.LVL4-1
ARM GAS  C:\Users\DNIEL~1\AppData\Local\Temp\cc55tULl.s 			page 21


 1081 00eb 74010000 		.4byte	.LFE121
 1082 00ef 0200     		.2byte	0x2
 1083 00f1 91       		.byte	0x91
 1084 00f2 54       		.sleb128 -44
 1085 00f3 00000000 		.4byte	0x0
 1086 00f7 00000000 		.4byte	0x0
 1087              	.LLST8:
 1088 00fb 28010000 		.4byte	.LVL5
 1089 00ff 36010000 		.4byte	.LVL6
 1090 0103 0100     		.2byte	0x1
 1091 0105 50       		.byte	0x50
 1092 0106 36010000 		.4byte	.LVL6
 1093 010a 40010000 		.4byte	.LVL7
 1094 010e 0100     		.2byte	0x1
 1095 0110 50       		.byte	0x50
 1096 0111 5A010000 		.4byte	.LVL8
 1097 0115 5C010000 		.4byte	.LVL9
 1098 0119 0100     		.2byte	0x1
 1099 011b 50       		.byte	0x50
 1100 011c 00000000 		.4byte	0x0
 1101 0120 00000000 		.4byte	0x0
 1102              	.LLST9:
 1103 0124 00000000 		.4byte	.LFB120
 1104 0128 02000000 		.4byte	.LCFI6
 1105 012c 0200     		.2byte	0x2
 1106 012e 7D       		.byte	0x7d
 1107 012f 00       		.sleb128 0
 1108 0130 02000000 		.4byte	.LCFI6
 1109 0134 04000000 		.4byte	.LCFI7
 1110 0138 0200     		.2byte	0x2
 1111 013a 7D       		.byte	0x7d
 1112 013b 10       		.sleb128 16
 1113 013c 04000000 		.4byte	.LCFI7
 1114 0140 B0000000 		.4byte	.LFE120
 1115 0144 0200     		.2byte	0x2
 1116 0146 7D       		.byte	0x7d
 1117 0147 38       		.sleb128 56
 1118 0148 00000000 		.4byte	0x0
 1119 014c 00000000 		.4byte	0x0
 1120              	.LLST10:
 1121 0150 00000000 		.4byte	.LFB122
 1122 0154 04000000 		.4byte	.LCFI8
 1123 0158 0200     		.2byte	0x2
 1124 015a 7D       		.byte	0x7d
 1125 015b 00       		.sleb128 0
 1126 015c 04000000 		.4byte	.LCFI8
 1127 0160 FC000000 		.4byte	.LFE122
 1128 0164 0200     		.2byte	0x2
 1129 0166 7D       		.byte	0x7d
 1130 0167 18       		.sleb128 24
 1131 0168 00000000 		.4byte	0x0
 1132 016c 00000000 		.4byte	0x0
 1133              	.LLST11:
 1134 0170 00000000 		.4byte	.LVL10
 1135 0174 11000000 		.4byte	.LVL12-1
 1136 0178 0100     		.2byte	0x1
 1137 017a 50       		.byte	0x50
ARM GAS  C:\Users\DNIEL~1\AppData\Local\Temp\cc55tULl.s 			page 22


 1138 017b 11000000 		.4byte	.LVL12-1
 1139 017f FC000000 		.4byte	.LFE122
 1140 0183 0100     		.2byte	0x1
 1141 0185 54       		.byte	0x54
 1142 0186 00000000 		.4byte	0x0
 1143 018a 00000000 		.4byte	0x0
 1144              	.LLST12:
 1145 018e 00000000 		.4byte	.LVL10
 1146 0192 06000000 		.4byte	.LVL11
 1147 0196 0100     		.2byte	0x1
 1148 0198 51       		.byte	0x51
 1149 0199 00000000 		.4byte	0x0
 1150 019d 00000000 		.4byte	0x0
 1151              	.LLST13:
 1152 01a1 00000000 		.4byte	.LVL10
 1153 01a5 11000000 		.4byte	.LVL12-1
 1154 01a9 0100     		.2byte	0x1
 1155 01ab 52       		.byte	0x52
 1156 01ac 00000000 		.4byte	0x0
 1157 01b0 00000000 		.4byte	0x0
 1158              	.LLST14:
 1159 01b4 00000000 		.4byte	.LFB123
 1160 01b8 04000000 		.4byte	.LCFI9
 1161 01bc 0200     		.2byte	0x2
 1162 01be 7D       		.byte	0x7d
 1163 01bf 00       		.sleb128 0
 1164 01c0 04000000 		.4byte	.LCFI9
 1165 01c4 B4010000 		.4byte	.LFE123
 1166 01c8 0200     		.2byte	0x2
 1167 01ca 7D       		.byte	0x7d
 1168 01cb 18       		.sleb128 24
 1169 01cc 00000000 		.4byte	0x0
 1170 01d0 00000000 		.4byte	0x0
 1171              	.LLST15:
 1172 01d4 00000000 		.4byte	.LVL13
 1173 01d8 0F000000 		.4byte	.LVL15-1
 1174 01dc 0100     		.2byte	0x1
 1175 01de 50       		.byte	0x50
 1176 01df 0F000000 		.4byte	.LVL15-1
 1177 01e3 B4010000 		.4byte	.LFE123
 1178 01e7 0100     		.2byte	0x1
 1179 01e9 54       		.byte	0x54
 1180 01ea 00000000 		.4byte	0x0
 1181 01ee 00000000 		.4byte	0x0
 1182              	.LLST16:
 1183 01f2 00000000 		.4byte	.LVL13
 1184 01f6 0A000000 		.4byte	.LVL14
 1185 01fa 0100     		.2byte	0x1
 1186 01fc 51       		.byte	0x51
 1187 01fd 0A000000 		.4byte	.LVL14
 1188 0201 3C000000 		.4byte	.LVL16
 1189 0205 0100     		.2byte	0x1
 1190 0207 55       		.byte	0x55
 1191 0208 48000000 		.4byte	.LVL17
 1192 020c 62000000 		.4byte	.LVL18
 1193 0210 0100     		.2byte	0x1
 1194 0212 55       		.byte	0x55
ARM GAS  C:\Users\DNIEL~1\AppData\Local\Temp\cc55tULl.s 			page 23


 1195 0213 DA000000 		.4byte	.LVL23
 1196 0217 E2000000 		.4byte	.LVL24
 1197 021b 0100     		.2byte	0x1
 1198 021d 55       		.byte	0x55
 1199 021e F0000000 		.4byte	.LVL25
 1200 0222 00010000 		.4byte	.LVL27
 1201 0226 0100     		.2byte	0x1
 1202 0228 55       		.byte	0x55
 1203 0229 00000000 		.4byte	0x0
 1204 022d 00000000 		.4byte	0x0
 1205              	.LLST17:
 1206 0231 00000000 		.4byte	.LVL13
 1207 0235 0F000000 		.4byte	.LVL15-1
 1208 0239 0100     		.2byte	0x1
 1209 023b 52       		.byte	0x52
 1210 023c 0F000000 		.4byte	.LVL15-1
 1211 0240 8A000000 		.4byte	.LVL20
 1212 0244 0100     		.2byte	0x1
 1213 0246 56       		.byte	0x56
 1214 0247 C4000000 		.4byte	.LVL21
 1215 024b 18010000 		.4byte	.LVL28
 1216 024f 0100     		.2byte	0x1
 1217 0251 56       		.byte	0x56
 1218 0252 1E010000 		.4byte	.LVL29
 1219 0256 B4010000 		.4byte	.LFE123
 1220 025a 0100     		.2byte	0x1
 1221 025c 56       		.byte	0x56
 1222 025d 00000000 		.4byte	0x0
 1223 0261 00000000 		.4byte	0x0
 1224              	.LLST18:
 1225 0265 82000000 		.4byte	.LVL19
 1226 0269 C4000000 		.4byte	.LVL21
 1227 026d 0100     		.2byte	0x1
 1228 026f 55       		.byte	0x55
 1229 0270 CC000000 		.4byte	.LVL22
 1230 0274 DA000000 		.4byte	.LVL23
 1231 0278 0100     		.2byte	0x1
 1232 027a 55       		.byte	0x55
 1233 027b E2000000 		.4byte	.LVL24
 1234 027f F0000000 		.4byte	.LVL25
 1235 0283 0100     		.2byte	0x1
 1236 0285 55       		.byte	0x55
 1237 0286 F6000000 		.4byte	.LVL26
 1238 028a 00010000 		.4byte	.LVL27
 1239 028e 0100     		.2byte	0x1
 1240 0290 50       		.byte	0x50
 1241 0291 00010000 		.4byte	.LVL27
 1242 0295 B4010000 		.4byte	.LFE123
 1243 0299 0100     		.2byte	0x1
 1244 029b 55       		.byte	0x55
 1245 029c 00000000 		.4byte	0x0
 1246 02a0 00000000 		.4byte	0x0
 1247              		.file 3 "c:\\program files (x86)\\codesourcery\\sourcery g++ lite\\bin\\../lib/gcc/arm-none-eabi/4
 1248              		.file 4 "c:\\program files (x86)\\codesourcery\\sourcery g++ lite\\bin\\../lib/gcc/arm-none-eabi/4
 1249              		.file 5 "../../../ChibiOS/os/ports/GCC/ARMCMx/chtypes.h"
 1250              		.file 6 "../../../ChibiOS/os/kernel/include/chstreams.h"
 1251              		.file 7 "../../../ChibiOS/os/hal/include/io_channel.h"
ARM GAS  C:\Users\DNIEL~1\AppData\Local\Temp\cc55tULl.s 			page 24


 1252              		.file 8 "../../../ChibiOS/os/hal/platforms/STM32/TIMv1/stm32_tim.h"
 1253              		.file 9 "../../../ChibiOS/os/hal/include/pwm.h"
 1254              		.file 10 "../../../ChibiOS/os/hal/platforms/STM32/TIMv1/pwm_lld.h"
 1255              		.file 11 "c:\\program files (x86)\\codesourcery\\sourcery g++ lite\\bin\\../lib/gcc/arm-none-eabi/
 1256              		.file 12 "<built-in>"
 1257              		.file 13 "../../../ChibiOS/os/ports/common/ARMCMx/CMSIS/include/core_cm4.h"
 1258              		.section	.debug_info
 1259 0000 79090000 		.4byte	0x979
 1260 0004 0200     		.2byte	0x2
 1261 0006 00000000 		.4byte	.Ldebug_abbrev0
 1262 000a 04       		.byte	0x4
 1263 000b 01       		.uleb128 0x1
 1264 000c 25030000 		.4byte	.LASF85
 1265 0010 01       		.byte	0x1
 1266 0011 05020000 		.4byte	.LASF86
 1267 0015 BA000000 		.4byte	.LASF87
 1268 0019 00000000 		.4byte	0x0
 1269 001d 00000000 		.4byte	0x0
 1270 0021 00000000 		.4byte	.Ldebug_ranges0+0x0
 1271 0025 00000000 		.4byte	.Ldebug_line0
 1272 0029 02       		.uleb128 0x2
 1273 002a 01       		.byte	0x1
 1274 002b 06       		.byte	0x6
 1275 002c A2000000 		.4byte	.LASF0
 1276 0030 02       		.uleb128 0x2
 1277 0031 01       		.byte	0x1
 1278 0032 08       		.byte	0x8
 1279 0033 34020000 		.4byte	.LASF1
 1280 0037 02       		.uleb128 0x2
 1281 0038 02       		.byte	0x2
 1282 0039 05       		.byte	0x5
 1283 003a 52020000 		.4byte	.LASF2
 1284 003e 02       		.uleb128 0x2
 1285 003f 02       		.byte	0x2
 1286 0040 07       		.byte	0x7
 1287 0041 87010000 		.4byte	.LASF3
 1288 0045 03       		.uleb128 0x3
 1289 0046 04       		.byte	0x4
 1290 0047 05       		.byte	0x5
 1291 0048 696E7400 		.ascii	"int\000"
 1292 004c 02       		.uleb128 0x2
 1293 004d 04       		.byte	0x4
 1294 004e 07       		.byte	0x7
 1295 004f 45010000 		.4byte	.LASF4
 1296 0053 02       		.uleb128 0x2
 1297 0054 08       		.byte	0x8
 1298 0055 05       		.byte	0x5
 1299 0056 94000000 		.4byte	.LASF5
 1300 005a 02       		.uleb128 0x2
 1301 005b 08       		.byte	0x8
 1302 005c 07       		.byte	0x7
 1303 005d 2F000000 		.4byte	.LASF6
 1304 0061 02       		.uleb128 0x2
 1305 0062 04       		.byte	0x4
 1306 0063 05       		.byte	0x5
 1307 0064 FC000000 		.4byte	.LASF7
 1308 0068 04       		.uleb128 0x4
ARM GAS  C:\Users\DNIEL~1\AppData\Local\Temp\cc55tULl.s 			page 25


 1309 0069 04       		.byte	0x4
 1310 006a 02       		.uleb128 0x2
 1311 006b 04       		.byte	0x4
 1312 006c 07       		.byte	0x7
 1313 006d 52010000 		.4byte	.LASF8
 1314 0071 05       		.uleb128 0x5
 1315 0072 04       		.byte	0x4
 1316 0073 77000000 		.4byte	0x77
 1317 0077 02       		.uleb128 0x2
 1318 0078 01       		.byte	0x1
 1319 0079 08       		.byte	0x8
 1320 007a A1020000 		.4byte	.LASF9
 1321 007e 05       		.uleb128 0x5
 1322 007f 04       		.byte	0x4
 1323 0080 84000000 		.4byte	0x84
 1324 0084 06       		.uleb128 0x6
 1325 0085 77000000 		.4byte	0x77
 1326 0089 07       		.uleb128 0x7
 1327 008a 05000000 		.4byte	.LASF10
 1328 008e 03       		.byte	0x3
 1329 008f D3       		.byte	0xd3
 1330 0090 4C000000 		.4byte	0x4c
 1331 0094 07       		.uleb128 0x7
 1332 0095 EE020000 		.4byte	.LASF11
 1333 0099 04       		.byte	0x4
 1334 009a 2A       		.byte	0x2a
 1335 009b 30000000 		.4byte	0x30
 1336 009f 07       		.uleb128 0x7
 1337 00a0 86000000 		.4byte	.LASF12
 1338 00a4 04       		.byte	0x4
 1339 00a5 35       		.byte	0x35
 1340 00a6 37000000 		.4byte	0x37
 1341 00aa 07       		.uleb128 0x7
 1342 00ab 19010000 		.4byte	.LASF13
 1343 00af 04       		.byte	0x4
 1344 00b0 36       		.byte	0x36
 1345 00b1 3E000000 		.4byte	0x3e
 1346 00b5 07       		.uleb128 0x7
 1347 00b6 2C020000 		.4byte	.LASF14
 1348 00ba 04       		.byte	0x4
 1349 00bb 4F       		.byte	0x4f
 1350 00bc 61000000 		.4byte	0x61
 1351 00c0 07       		.uleb128 0x7
 1352 00c1 85020000 		.4byte	.LASF15
 1353 00c5 04       		.byte	0x4
 1354 00c6 50       		.byte	0x50
 1355 00c7 6A000000 		.4byte	0x6a
 1356 00cb 02       		.uleb128 0x2
 1357 00cc 01       		.byte	0x1
 1358 00cd 02       		.byte	0x2
 1359 00ce 26020000 		.4byte	.LASF16
 1360 00d2 07       		.uleb128 0x7
 1361 00d3 B3010000 		.4byte	.LASF17
 1362 00d7 05       		.byte	0x5
 1363 00d8 31       		.byte	0x31
 1364 00d9 B5000000 		.4byte	0xb5
 1365 00dd 07       		.uleb128 0x7
ARM GAS  C:\Users\DNIEL~1\AppData\Local\Temp\cc55tULl.s 			page 26


 1366 00de BC020000 		.4byte	.LASF18
 1367 00e2 05       		.byte	0x5
 1368 00e3 35       		.byte	0x35
 1369 00e4 C0000000 		.4byte	0xc0
 1370 00e8 08       		.uleb128 0x8
 1371 00e9 C0000000 		.4byte	0xc0
 1372 00ed 05       		.uleb128 0x5
 1373 00ee 04       		.byte	0x4
 1374 00ef F3000000 		.4byte	0xf3
 1375 00f3 09       		.uleb128 0x9
 1376 00f4 01       		.byte	0x1
 1377 00f5 D2000000 		.4byte	0xd2
 1378 00f9 03010000 		.4byte	0x103
 1379 00fd 0A       		.uleb128 0xa
 1380 00fe 68000000 		.4byte	0x68
 1381 0102 00       		.byte	0x0
 1382 0103 05       		.uleb128 0x5
 1383 0104 04       		.byte	0x4
 1384 0105 94000000 		.4byte	0x94
 1385 0109 0B       		.uleb128 0xb
 1386 010a 5C020000 		.4byte	.LASF22
 1387 010e 10       		.byte	0x10
 1388 010f 06       		.byte	0x6
 1389 0110 48       		.byte	0x48
 1390 0111 4E010000 		.4byte	0x14e
 1391 0115 0C       		.uleb128 0xc
 1392 0116 DB010000 		.4byte	.LASF19
 1393 011a 06       		.byte	0x6
 1394 011b 49       		.byte	0x49
 1395 011c 73010000 		.4byte	0x173
 1396 0120 02       		.byte	0x2
 1397 0121 23       		.byte	0x23
 1398 0122 00       		.uleb128 0x0
 1399 0123 0C       		.uleb128 0xc
 1400 0124 20030000 		.4byte	.LASF20
 1401 0128 06       		.byte	0x6
 1402 0129 49       		.byte	0x49
 1403 012a 93010000 		.4byte	0x193
 1404 012e 02       		.byte	0x2
 1405 012f 23       		.byte	0x23
 1406 0130 04       		.uleb128 0x4
 1407 0131 0D       		.uleb128 0xd
 1408 0132 70757400 		.ascii	"put\000"
 1409 0136 06       		.byte	0x6
 1410 0137 49       		.byte	0x49
 1411 0138 AE010000 		.4byte	0x1ae
 1412 013c 02       		.byte	0x2
 1413 013d 23       		.byte	0x23
 1414 013e 08       		.uleb128 0x8
 1415 013f 0D       		.uleb128 0xd
 1416 0140 67657400 		.ascii	"get\000"
 1417 0144 06       		.byte	0x6
 1418 0145 49       		.byte	0x49
 1419 0146 ED000000 		.4byte	0xed
 1420 014a 02       		.byte	0x2
 1421 014b 23       		.byte	0x23
 1422 014c 0C       		.uleb128 0xc
ARM GAS  C:\Users\DNIEL~1\AppData\Local\Temp\cc55tULl.s 			page 27


 1423 014d 00       		.byte	0x0
 1424 014e 09       		.uleb128 0x9
 1425 014f 01       		.byte	0x1
 1426 0150 89000000 		.4byte	0x89
 1427 0154 68010000 		.4byte	0x168
 1428 0158 0A       		.uleb128 0xa
 1429 0159 68000000 		.4byte	0x68
 1430 015d 0A       		.uleb128 0xa
 1431 015e 68010000 		.4byte	0x168
 1432 0162 0A       		.uleb128 0xa
 1433 0163 89000000 		.4byte	0x89
 1434 0167 00       		.byte	0x0
 1435 0168 05       		.uleb128 0x5
 1436 0169 04       		.byte	0x4
 1437 016a 6E010000 		.4byte	0x16e
 1438 016e 06       		.uleb128 0x6
 1439 016f 94000000 		.4byte	0x94
 1440 0173 05       		.uleb128 0x5
 1441 0174 04       		.byte	0x4
 1442 0175 4E010000 		.4byte	0x14e
 1443 0179 09       		.uleb128 0x9
 1444 017a 01       		.byte	0x1
 1445 017b 89000000 		.4byte	0x89
 1446 017f 93010000 		.4byte	0x193
 1447 0183 0A       		.uleb128 0xa
 1448 0184 68000000 		.4byte	0x68
 1449 0188 0A       		.uleb128 0xa
 1450 0189 03010000 		.4byte	0x103
 1451 018d 0A       		.uleb128 0xa
 1452 018e 89000000 		.4byte	0x89
 1453 0192 00       		.byte	0x0
 1454 0193 05       		.uleb128 0x5
 1455 0194 04       		.byte	0x4
 1456 0195 79010000 		.4byte	0x179
 1457 0199 09       		.uleb128 0x9
 1458 019a 01       		.byte	0x1
 1459 019b D2000000 		.4byte	0xd2
 1460 019f AE010000 		.4byte	0x1ae
 1461 01a3 0A       		.uleb128 0xa
 1462 01a4 68000000 		.4byte	0x68
 1463 01a8 0A       		.uleb128 0xa
 1464 01a9 94000000 		.4byte	0x94
 1465 01ad 00       		.byte	0x0
 1466 01ae 05       		.uleb128 0x5
 1467 01af 04       		.byte	0x4
 1468 01b0 99010000 		.4byte	0x199
 1469 01b4 0E       		.uleb128 0xe
 1470 01b5 04       		.byte	0x4
 1471 01b6 06       		.byte	0x6
 1472 01b7 51       		.byte	0x51
 1473 01b8 CB010000 		.4byte	0x1cb
 1474 01bc 0D       		.uleb128 0xd
 1475 01bd 766D7400 		.ascii	"vmt\000"
 1476 01c1 06       		.byte	0x6
 1477 01c2 53       		.byte	0x53
 1478 01c3 CB010000 		.4byte	0x1cb
 1479 01c7 02       		.byte	0x2
ARM GAS  C:\Users\DNIEL~1\AppData\Local\Temp\cc55tULl.s 			page 28


 1480 01c8 23       		.byte	0x23
 1481 01c9 00       		.uleb128 0x0
 1482 01ca 00       		.byte	0x0
 1483 01cb 05       		.uleb128 0x5
 1484 01cc 04       		.byte	0x4
 1485 01cd D1010000 		.4byte	0x1d1
 1486 01d1 06       		.uleb128 0x6
 1487 01d2 09010000 		.4byte	0x109
 1488 01d6 07       		.uleb128 0x7
 1489 01d7 30010000 		.4byte	.LASF21
 1490 01db 06       		.byte	0x6
 1491 01dc 55       		.byte	0x55
 1492 01dd B4010000 		.4byte	0x1b4
 1493 01e1 0F       		.uleb128 0xf
 1494 01e2 C0000000 		.4byte	0xc0
 1495 01e6 F1010000 		.4byte	0x1f1
 1496 01ea 10       		.uleb128 0x10
 1497 01eb 4C000000 		.4byte	0x4c
 1498 01ef 03       		.byte	0x3
 1499 01f0 00       		.byte	0x0
 1500 01f1 08       		.uleb128 0x8
 1501 01f2 B5000000 		.4byte	0xb5
 1502 01f6 0B       		.uleb128 0xb
 1503 01f7 46000000 		.4byte	.LASF23
 1504 01fb 20       		.byte	0x20
 1505 01fc 07       		.byte	0x7
 1506 01fd 4E       		.byte	0x4e
 1507 01fe 73020000 		.4byte	0x273
 1508 0202 0C       		.uleb128 0xc
 1509 0203 DB010000 		.4byte	.LASF19
 1510 0207 07       		.byte	0x7
 1511 0208 4F       		.byte	0x4f
 1512 0209 73010000 		.4byte	0x173
 1513 020d 02       		.byte	0x2
 1514 020e 23       		.byte	0x23
 1515 020f 00       		.uleb128 0x0
 1516 0210 0C       		.uleb128 0xc
 1517 0211 20030000 		.4byte	.LASF20
 1518 0215 07       		.byte	0x7
 1519 0216 4F       		.byte	0x4f
 1520 0217 93010000 		.4byte	0x193
 1521 021b 02       		.byte	0x2
 1522 021c 23       		.byte	0x23
 1523 021d 04       		.uleb128 0x4
 1524 021e 0D       		.uleb128 0xd
 1525 021f 70757400 		.ascii	"put\000"
 1526 0223 07       		.byte	0x7
 1527 0224 4F       		.byte	0x4f
 1528 0225 AE010000 		.4byte	0x1ae
 1529 0229 02       		.byte	0x2
 1530 022a 23       		.byte	0x23
 1531 022b 08       		.uleb128 0x8
 1532 022c 0D       		.uleb128 0xd
 1533 022d 67657400 		.ascii	"get\000"
 1534 0231 07       		.byte	0x7
 1535 0232 4F       		.byte	0x4f
 1536 0233 ED000000 		.4byte	0xed
ARM GAS  C:\Users\DNIEL~1\AppData\Local\Temp\cc55tULl.s 			page 29


 1537 0237 02       		.byte	0x2
 1538 0238 23       		.byte	0x23
 1539 0239 0C       		.uleb128 0xc
 1540 023a 0C       		.uleb128 0xc
 1541 023b E1010000 		.4byte	.LASF24
 1542 023f 07       		.byte	0x7
 1543 0240 4F       		.byte	0x4f
 1544 0241 8D020000 		.4byte	0x28d
 1545 0245 02       		.byte	0x2
 1546 0246 23       		.byte	0x23
 1547 0247 10       		.uleb128 0x10
 1548 0248 0C       		.uleb128 0xc
 1549 0249 05010000 		.4byte	.LASF25
 1550 024d 07       		.byte	0x7
 1551 024e 4F       		.byte	0x4f
 1552 024f A8020000 		.4byte	0x2a8
 1553 0253 02       		.byte	0x2
 1554 0254 23       		.byte	0x23
 1555 0255 14       		.uleb128 0x14
 1556 0256 0C       		.uleb128 0xc
 1557 0257 C8010000 		.4byte	.LASF26
 1558 025b 07       		.byte	0x7
 1559 025c 4F       		.byte	0x4f
 1560 025d CD020000 		.4byte	0x2cd
 1561 0261 02       		.byte	0x2
 1562 0262 23       		.byte	0x23
 1563 0263 18       		.uleb128 0x18
 1564 0264 0C       		.uleb128 0xc
 1565 0265 80000000 		.4byte	.LASF27
 1566 0269 07       		.byte	0x7
 1567 026a 4F       		.byte	0x4f
 1568 026b F2020000 		.4byte	0x2f2
 1569 026f 02       		.byte	0x2
 1570 0270 23       		.byte	0x23
 1571 0271 1C       		.uleb128 0x1c
 1572 0272 00       		.byte	0x0
 1573 0273 09       		.uleb128 0x9
 1574 0274 01       		.byte	0x1
 1575 0275 D2000000 		.4byte	0xd2
 1576 0279 8D020000 		.4byte	0x28d
 1577 027d 0A       		.uleb128 0xa
 1578 027e 68000000 		.4byte	0x68
 1579 0282 0A       		.uleb128 0xa
 1580 0283 94000000 		.4byte	0x94
 1581 0287 0A       		.uleb128 0xa
 1582 0288 DD000000 		.4byte	0xdd
 1583 028c 00       		.byte	0x0
 1584 028d 05       		.uleb128 0x5
 1585 028e 04       		.byte	0x4
 1586 028f 73020000 		.4byte	0x273
 1587 0293 09       		.uleb128 0x9
 1588 0294 01       		.byte	0x1
 1589 0295 D2000000 		.4byte	0xd2
 1590 0299 A8020000 		.4byte	0x2a8
 1591 029d 0A       		.uleb128 0xa
 1592 029e 68000000 		.4byte	0x68
 1593 02a2 0A       		.uleb128 0xa
ARM GAS  C:\Users\DNIEL~1\AppData\Local\Temp\cc55tULl.s 			page 30


 1594 02a3 DD000000 		.4byte	0xdd
 1595 02a7 00       		.byte	0x0
 1596 02a8 05       		.uleb128 0x5
 1597 02a9 04       		.byte	0x4
 1598 02aa 93020000 		.4byte	0x293
 1599 02ae 09       		.uleb128 0x9
 1600 02af 01       		.byte	0x1
 1601 02b0 89000000 		.4byte	0x89
 1602 02b4 CD020000 		.4byte	0x2cd
 1603 02b8 0A       		.uleb128 0xa
 1604 02b9 68000000 		.4byte	0x68
 1605 02bd 0A       		.uleb128 0xa
 1606 02be 68010000 		.4byte	0x168
 1607 02c2 0A       		.uleb128 0xa
 1608 02c3 89000000 		.4byte	0x89
 1609 02c7 0A       		.uleb128 0xa
 1610 02c8 DD000000 		.4byte	0xdd
 1611 02cc 00       		.byte	0x0
 1612 02cd 05       		.uleb128 0x5
 1613 02ce 04       		.byte	0x4
 1614 02cf AE020000 		.4byte	0x2ae
 1615 02d3 09       		.uleb128 0x9
 1616 02d4 01       		.byte	0x1
 1617 02d5 89000000 		.4byte	0x89
 1618 02d9 F2020000 		.4byte	0x2f2
 1619 02dd 0A       		.uleb128 0xa
 1620 02de 68000000 		.4byte	0x68
 1621 02e2 0A       		.uleb128 0xa
 1622 02e3 03010000 		.4byte	0x103
 1623 02e7 0A       		.uleb128 0xa
 1624 02e8 89000000 		.4byte	0x89
 1625 02ec 0A       		.uleb128 0xa
 1626 02ed DD000000 		.4byte	0xdd
 1627 02f1 00       		.byte	0x0
 1628 02f2 05       		.uleb128 0x5
 1629 02f3 04       		.byte	0x4
 1630 02f4 D3020000 		.4byte	0x2d3
 1631 02f8 0E       		.uleb128 0xe
 1632 02f9 04       		.byte	0x4
 1633 02fa 07       		.byte	0x7
 1634 02fb 59       		.byte	0x59
 1635 02fc 0F030000 		.4byte	0x30f
 1636 0300 0D       		.uleb128 0xd
 1637 0301 766D7400 		.ascii	"vmt\000"
 1638 0305 07       		.byte	0x7
 1639 0306 5B       		.byte	0x5b
 1640 0307 0F030000 		.4byte	0x30f
 1641 030b 02       		.byte	0x2
 1642 030c 23       		.byte	0x23
 1643 030d 00       		.uleb128 0x0
 1644 030e 00       		.byte	0x0
 1645 030f 05       		.uleb128 0x5
 1646 0310 04       		.byte	0x4
 1647 0311 15030000 		.4byte	0x315
 1648 0315 06       		.uleb128 0x6
 1649 0316 F6010000 		.4byte	0x1f6
 1650 031a 07       		.uleb128 0x7
ARM GAS  C:\Users\DNIEL~1\AppData\Local\Temp\cc55tULl.s 			page 31


 1651 031b 00030000 		.4byte	.LASF28
 1652 031f 07       		.byte	0x7
 1653 0320 5D       		.byte	0x5d
 1654 0321 F8020000 		.4byte	0x2f8
 1655 0325 11       		.uleb128 0x11
 1656 0326 60       		.byte	0x60
 1657 0327 08       		.byte	0x8
 1658 0328 9E01     		.2byte	0x19e
 1659 032a 68040000 		.4byte	0x468
 1660 032e 12       		.uleb128 0x12
 1661 032f 43523100 		.ascii	"CR1\000"
 1662 0333 08       		.byte	0x8
 1663 0334 9F01     		.2byte	0x19f
 1664 0336 E8000000 		.4byte	0xe8
 1665 033a 02       		.byte	0x2
 1666 033b 23       		.byte	0x23
 1667 033c 00       		.uleb128 0x0
 1668 033d 12       		.uleb128 0x12
 1669 033e 43523200 		.ascii	"CR2\000"
 1670 0342 08       		.byte	0x8
 1671 0343 A001     		.2byte	0x1a0
 1672 0345 E8000000 		.4byte	0xe8
 1673 0349 02       		.byte	0x2
 1674 034a 23       		.byte	0x23
 1675 034b 04       		.uleb128 0x4
 1676 034c 13       		.uleb128 0x13
 1677 034d AB020000 		.4byte	.LASF29
 1678 0351 08       		.byte	0x8
 1679 0352 A101     		.2byte	0x1a1
 1680 0354 E8000000 		.4byte	0xe8
 1681 0358 02       		.byte	0x2
 1682 0359 23       		.byte	0x23
 1683 035a 08       		.uleb128 0x8
 1684 035b 13       		.uleb128 0x13
 1685 035c 00000000 		.4byte	.LASF30
 1686 0360 08       		.byte	0x8
 1687 0361 A201     		.2byte	0x1a2
 1688 0363 E8000000 		.4byte	0xe8
 1689 0367 02       		.byte	0x2
 1690 0368 23       		.byte	0x23
 1691 0369 0C       		.uleb128 0xc
 1692 036a 12       		.uleb128 0x12
 1693 036b 535200   		.ascii	"SR\000"
 1694 036e 08       		.byte	0x8
 1695 036f A301     		.2byte	0x1a3
 1696 0371 E8000000 		.4byte	0xe8
 1697 0375 02       		.byte	0x2
 1698 0376 23       		.byte	0x23
 1699 0377 10       		.uleb128 0x10
 1700 0378 12       		.uleb128 0x12
 1701 0379 45475200 		.ascii	"EGR\000"
 1702 037d 08       		.byte	0x8
 1703 037e A401     		.2byte	0x1a4
 1704 0380 E8000000 		.4byte	0xe8
 1705 0384 02       		.byte	0x2
 1706 0385 23       		.byte	0x23
 1707 0386 14       		.uleb128 0x14
ARM GAS  C:\Users\DNIEL~1\AppData\Local\Temp\cc55tULl.s 			page 32


 1708 0387 13       		.uleb128 0x13
 1709 0388 CB020000 		.4byte	.LASF31
 1710 038c 08       		.byte	0x8
 1711 038d A501     		.2byte	0x1a5
 1712 038f E8000000 		.4byte	0xe8
 1713 0393 02       		.byte	0x2
 1714 0394 23       		.byte	0x23
 1715 0395 18       		.uleb128 0x18
 1716 0396 13       		.uleb128 0x13
 1717 0397 8E000000 		.4byte	.LASF32
 1718 039b 08       		.byte	0x8
 1719 039c A601     		.2byte	0x1a6
 1720 039e E8000000 		.4byte	0xe8
 1721 03a2 02       		.byte	0x2
 1722 03a3 23       		.byte	0x23
 1723 03a4 1C       		.uleb128 0x1c
 1724 03a5 13       		.uleb128 0x13
 1725 03a6 14010000 		.4byte	.LASF33
 1726 03aa 08       		.byte	0x8
 1727 03ab A701     		.2byte	0x1a7
 1728 03ad E8000000 		.4byte	0xe8
 1729 03b1 02       		.byte	0x2
 1730 03b2 23       		.byte	0x23
 1731 03b3 20       		.uleb128 0x20
 1732 03b4 12       		.uleb128 0x12
 1733 03b5 434E5400 		.ascii	"CNT\000"
 1734 03b9 08       		.byte	0x8
 1735 03ba A801     		.2byte	0x1a8
 1736 03bc E8000000 		.4byte	0xe8
 1737 03c0 02       		.byte	0x2
 1738 03c1 23       		.byte	0x23
 1739 03c2 24       		.uleb128 0x24
 1740 03c3 12       		.uleb128 0x12
 1741 03c4 50534300 		.ascii	"PSC\000"
 1742 03c8 08       		.byte	0x8
 1743 03c9 A901     		.2byte	0x1a9
 1744 03cb E8000000 		.4byte	0xe8
 1745 03cf 02       		.byte	0x2
 1746 03d0 23       		.byte	0x23
 1747 03d1 28       		.uleb128 0x28
 1748 03d2 12       		.uleb128 0x12
 1749 03d3 41525200 		.ascii	"ARR\000"
 1750 03d7 08       		.byte	0x8
 1751 03d8 AA01     		.2byte	0x1aa
 1752 03da E8000000 		.4byte	0xe8
 1753 03de 02       		.byte	0x2
 1754 03df 23       		.byte	0x23
 1755 03e0 2C       		.uleb128 0x2c
 1756 03e1 12       		.uleb128 0x12
 1757 03e2 52435200 		.ascii	"RCR\000"
 1758 03e6 08       		.byte	0x8
 1759 03e7 AB01     		.2byte	0x1ab
 1760 03e9 E8000000 		.4byte	0xe8
 1761 03ed 02       		.byte	0x2
 1762 03ee 23       		.byte	0x23
 1763 03ef 30       		.uleb128 0x30
 1764 03f0 12       		.uleb128 0x12
ARM GAS  C:\Users\DNIEL~1\AppData\Local\Temp\cc55tULl.s 			page 33


 1765 03f1 43435200 		.ascii	"CCR\000"
 1766 03f5 08       		.byte	0x8
 1767 03f6 AC01     		.2byte	0x1ac
 1768 03f8 68040000 		.4byte	0x468
 1769 03fc 02       		.byte	0x2
 1770 03fd 23       		.byte	0x23
 1771 03fe 34       		.uleb128 0x34
 1772 03ff 13       		.uleb128 0x13
 1773 0400 67000000 		.4byte	.LASF34
 1774 0404 08       		.byte	0x8
 1775 0405 AD01     		.2byte	0x1ad
 1776 0407 E8000000 		.4byte	0xe8
 1777 040b 02       		.byte	0x2
 1778 040c 23       		.byte	0x23
 1779 040d 44       		.uleb128 0x44
 1780 040e 12       		.uleb128 0x12
 1781 040f 44435200 		.ascii	"DCR\000"
 1782 0413 08       		.byte	0x8
 1783 0414 AE01     		.2byte	0x1ae
 1784 0416 E8000000 		.4byte	0xe8
 1785 041a 02       		.byte	0x2
 1786 041b 23       		.byte	0x23
 1787 041c 48       		.uleb128 0x48
 1788 041d 13       		.uleb128 0x13
 1789 041e B7020000 		.4byte	.LASF35
 1790 0422 08       		.byte	0x8
 1791 0423 AF01     		.2byte	0x1af
 1792 0425 E8000000 		.4byte	0xe8
 1793 0429 02       		.byte	0x2
 1794 042a 23       		.byte	0x23
 1795 042b 4C       		.uleb128 0x4c
 1796 042c 12       		.uleb128 0x12
 1797 042d 4F5200   		.ascii	"OR\000"
 1798 0430 08       		.byte	0x8
 1799 0431 B001     		.2byte	0x1b0
 1800 0433 E8000000 		.4byte	0xe8
 1801 0437 02       		.byte	0x2
 1802 0438 23       		.byte	0x23
 1803 0439 50       		.uleb128 0x50
 1804 043a 13       		.uleb128 0x13
 1805 043b 22000000 		.4byte	.LASF36
 1806 043f 08       		.byte	0x8
 1807 0440 B101     		.2byte	0x1b1
 1808 0442 E8000000 		.4byte	0xe8
 1809 0446 02       		.byte	0x2
 1810 0447 23       		.byte	0x23
 1811 0448 54       		.uleb128 0x54
 1812 0449 13       		.uleb128 0x13
 1813 044a E2020000 		.4byte	.LASF37
 1814 044e 08       		.byte	0x8
 1815 044f B201     		.2byte	0x1b2
 1816 0451 E8000000 		.4byte	0xe8
 1817 0455 02       		.byte	0x2
 1818 0456 23       		.byte	0x23
 1819 0457 58       		.uleb128 0x58
 1820 0458 13       		.uleb128 0x13
 1821 0459 55000000 		.4byte	.LASF38
ARM GAS  C:\Users\DNIEL~1\AppData\Local\Temp\cc55tULl.s 			page 34


 1822 045d 08       		.byte	0x8
 1823 045e B301     		.2byte	0x1b3
 1824 0460 E8000000 		.4byte	0xe8
 1825 0464 02       		.byte	0x2
 1826 0465 23       		.byte	0x23
 1827 0466 5C       		.uleb128 0x5c
 1828 0467 00       		.byte	0x0
 1829 0468 08       		.uleb128 0x8
 1830 0469 E1010000 		.4byte	0x1e1
 1831 046d 14       		.uleb128 0x14
 1832 046e AE000000 		.4byte	.LASF39
 1833 0472 08       		.byte	0x8
 1834 0473 B401     		.2byte	0x1b4
 1835 0475 25030000 		.4byte	0x325
 1836 0479 05       		.uleb128 0x5
 1837 047a 04       		.byte	0x4
 1838 047b 6D040000 		.4byte	0x46d
 1839 047f 15       		.uleb128 0x15
 1840 0480 01       		.byte	0x1
 1841 0481 09       		.byte	0x9
 1842 0482 55       		.byte	0x55
 1843 0483 9A040000 		.4byte	0x49a
 1844 0487 16       		.uleb128 0x16
 1845 0488 4B030000 		.4byte	.LASF40
 1846 048c 00       		.sleb128 0
 1847 048d 16       		.uleb128 0x16
 1848 048e 98020000 		.4byte	.LASF41
 1849 0492 01       		.sleb128 1
 1850 0493 16       		.uleb128 0x16
 1851 0494 76000000 		.4byte	.LASF42
 1852 0498 02       		.sleb128 2
 1853 0499 00       		.byte	0x0
 1854 049a 07       		.uleb128 0x7
 1855 049b 0C030000 		.4byte	.LASF43
 1856 049f 09       		.byte	0x9
 1857 04a0 59       		.byte	0x59
 1858 04a1 7F040000 		.4byte	0x47f
 1859 04a5 07       		.uleb128 0x7
 1860 04a6 F6020000 		.4byte	.LASF44
 1861 04aa 09       		.byte	0x9
 1862 04ab 5E       		.byte	0x5e
 1863 04ac B0040000 		.4byte	0x4b0
 1864 04b0 17       		.uleb128 0x17
 1865 04b1 F6020000 		.4byte	.LASF44
 1866 04b5 14       		.byte	0x14
 1867 04b6 0A       		.byte	0xa
 1868 04b7 6F01     		.2byte	0x16f
 1869 04b9 09050000 		.4byte	0x509
 1870 04bd 13       		.uleb128 0x13
 1871 04be ED000000 		.4byte	.LASF45
 1872 04c2 0A       		.byte	0xa
 1873 04c3 7301     		.2byte	0x173
 1874 04c5 9A040000 		.4byte	0x49a
 1875 04c9 02       		.byte	0x2
 1876 04ca 23       		.byte	0x23
 1877 04cb 00       		.uleb128 0x0
 1878 04cc 13       		.uleb128 0x13
ARM GAS  C:\Users\DNIEL~1\AppData\Local\Temp\cc55tULl.s 			page 35


 1879 04cd B0020000 		.4byte	.LASF46
 1880 04d1 0A       		.byte	0xa
 1881 04d2 7701     		.2byte	0x177
 1882 04d4 F8050000 		.4byte	0x5f8
 1883 04d8 02       		.byte	0x2
 1884 04d9 23       		.byte	0x23
 1885 04da 04       		.uleb128 0x4
 1886 04db 13       		.uleb128 0x13
 1887 04dc 28000000 		.4byte	.LASF47
 1888 04e0 0A       		.byte	0xa
 1889 04e1 7B01     		.2byte	0x17b
 1890 04e3 38050000 		.4byte	0x538
 1891 04e7 02       		.byte	0x2
 1892 04e8 23       		.byte	0x23
 1893 04e9 08       		.uleb128 0x8
 1894 04ea 13       		.uleb128 0x13
 1895 04eb 36030000 		.4byte	.LASF48
 1896 04ef 0A       		.byte	0xa
 1897 04f0 8301     		.2byte	0x183
 1898 04f2 C0000000 		.4byte	0xc0
 1899 04f6 02       		.byte	0x2
 1900 04f7 23       		.byte	0x23
 1901 04f8 0C       		.uleb128 0xc
 1902 04f9 12       		.uleb128 0x12
 1903 04fa 74696D00 		.ascii	"tim\000"
 1904 04fe 0A       		.byte	0xa
 1905 04ff 8701     		.2byte	0x187
 1906 0501 79040000 		.4byte	0x479
 1907 0505 02       		.byte	0x2
 1908 0506 23       		.byte	0x23
 1909 0507 10       		.uleb128 0x10
 1910 0508 00       		.byte	0x0
 1911 0509 07       		.uleb128 0x7
 1912 050a 18020000 		.4byte	.LASF49
 1913 050e 09       		.byte	0x9
 1914 050f 65       		.byte	0x65
 1915 0510 14050000 		.4byte	0x514
 1916 0514 05       		.uleb128 0x5
 1917 0515 04       		.byte	0x4
 1918 0516 1A050000 		.4byte	0x51a
 1919 051a 18       		.uleb128 0x18
 1920 051b 01       		.byte	0x1
 1921 051c 26050000 		.4byte	0x526
 1922 0520 0A       		.uleb128 0xa
 1923 0521 26050000 		.4byte	0x526
 1924 0525 00       		.byte	0x0
 1925 0526 05       		.uleb128 0x5
 1926 0527 04       		.byte	0x4
 1927 0528 A5040000 		.4byte	0x4a5
 1928 052c 14       		.uleb128 0x14
 1929 052d 78010000 		.4byte	.LASF50
 1930 0531 0A       		.byte	0xa
 1931 0532 2001     		.2byte	0x120
 1932 0534 C0000000 		.4byte	0xc0
 1933 0538 14       		.uleb128 0x14
 1934 0539 17030000 		.4byte	.LASF51
 1935 053d 0A       		.byte	0xa
ARM GAS  C:\Users\DNIEL~1\AppData\Local\Temp\cc55tULl.s 			page 36


 1936 053e 2A01     		.2byte	0x12a
 1937 0540 AA000000 		.4byte	0xaa
 1938 0544 11       		.uleb128 0x11
 1939 0545 08       		.byte	0x8
 1940 0546 0A       		.byte	0xa
 1941 0547 2F01     		.2byte	0x12f
 1942 0549 6C050000 		.4byte	0x56c
 1943 054d 13       		.uleb128 0x13
 1944 054e A6020000 		.4byte	.LASF52
 1945 0552 0A       		.byte	0xa
 1946 0553 3301     		.2byte	0x133
 1947 0555 2C050000 		.4byte	0x52c
 1948 0559 02       		.byte	0x2
 1949 055a 23       		.byte	0x23
 1950 055b 00       		.uleb128 0x0
 1951 055c 13       		.uleb128 0x13
 1952 055d BF010000 		.4byte	.LASF53
 1953 0561 0A       		.byte	0xa
 1954 0562 3901     		.2byte	0x139
 1955 0564 09050000 		.4byte	0x509
 1956 0568 02       		.byte	0x2
 1957 0569 23       		.byte	0x23
 1958 056a 04       		.uleb128 0x4
 1959 056b 00       		.byte	0x0
 1960 056c 14       		.uleb128 0x14
 1961 056d D1020000 		.4byte	.LASF54
 1962 0571 0A       		.byte	0xa
 1963 0572 3B01     		.2byte	0x13b
 1964 0574 44050000 		.4byte	0x544
 1965 0578 11       		.uleb128 0x11
 1966 0579 34       		.byte	0x34
 1967 057a 0A       		.byte	0xa
 1968 057b 4001     		.2byte	0x140
 1969 057d DC050000 		.4byte	0x5dc
 1970 0581 13       		.uleb128 0x13
 1971 0582 6C000000 		.4byte	.LASF55
 1972 0586 0A       		.byte	0xa
 1973 0587 4601     		.2byte	0x146
 1974 0589 C0000000 		.4byte	0xc0
 1975 058d 02       		.byte	0x2
 1976 058e 23       		.byte	0x23
 1977 058f 00       		.uleb128 0x0
 1978 0590 13       		.uleb128 0x13
 1979 0591 28000000 		.4byte	.LASF47
 1980 0595 0A       		.byte	0xa
 1981 0596 4C01     		.2byte	0x14c
 1982 0598 38050000 		.4byte	0x538
 1983 059c 02       		.byte	0x2
 1984 059d 23       		.byte	0x23
 1985 059e 04       		.uleb128 0x4
 1986 059f 13       		.uleb128 0x13
 1987 05a0 BF010000 		.4byte	.LASF53
 1988 05a4 0A       		.byte	0xa
 1989 05a5 5201     		.2byte	0x152
 1990 05a7 09050000 		.4byte	0x509
 1991 05ab 02       		.byte	0x2
 1992 05ac 23       		.byte	0x23
ARM GAS  C:\Users\DNIEL~1\AppData\Local\Temp\cc55tULl.s 			page 37


 1993 05ad 08       		.uleb128 0x8
 1994 05ae 13       		.uleb128 0x13
 1995 05af F3000000 		.4byte	.LASF56
 1996 05b3 0A       		.byte	0xa
 1997 05b4 5601     		.2byte	0x156
 1998 05b6 DC050000 		.4byte	0x5dc
 1999 05ba 02       		.byte	0x2
 2000 05bb 23       		.byte	0x23
 2001 05bc 0C       		.uleb128 0xc
 2002 05bd 12       		.uleb128 0x12
 2003 05be 63723200 		.ascii	"cr2\000"
 2004 05c2 0A       		.byte	0xa
 2005 05c3 5C01     		.2byte	0x15c
 2006 05c5 C0000000 		.4byte	0xc0
 2007 05c9 02       		.byte	0x2
 2008 05ca 23       		.byte	0x23
 2009 05cb 2C       		.uleb128 0x2c
 2010 05cc 13       		.uleb128 0x13
 2011 05cd 5D030000 		.4byte	.LASF57
 2012 05d1 0A       		.byte	0xa
 2013 05d2 6901     		.2byte	0x169
 2014 05d4 C0000000 		.4byte	0xc0
 2015 05d8 02       		.byte	0x2
 2016 05d9 23       		.byte	0x23
 2017 05da 30       		.uleb128 0x30
 2018 05db 00       		.byte	0x0
 2019 05dc 0F       		.uleb128 0xf
 2020 05dd 6C050000 		.4byte	0x56c
 2021 05e1 EC050000 		.4byte	0x5ec
 2022 05e5 10       		.uleb128 0x10
 2023 05e6 4C000000 		.4byte	0x4c
 2024 05ea 03       		.byte	0x3
 2025 05eb 00       		.byte	0x0
 2026 05ec 14       		.uleb128 0x14
 2027 05ed 8E020000 		.4byte	.LASF58
 2028 05f1 0A       		.byte	0xa
 2029 05f2 6A01     		.2byte	0x16a
 2030 05f4 78050000 		.4byte	0x578
 2031 05f8 05       		.uleb128 0x5
 2032 05f9 04       		.byte	0x4
 2033 05fa FE050000 		.4byte	0x5fe
 2034 05fe 06       		.uleb128 0x6
 2035 05ff EC050000 		.4byte	0x5ec
 2036 0603 07       		.uleb128 0x7
 2037 0604 EC010000 		.4byte	.LASF59
 2038 0608 0B       		.byte	0xb
 2039 0609 28       		.byte	0x28
 2040 060a 0E060000 		.4byte	0x60e
 2041 060e 0B       		.uleb128 0xb
 2042 060f 0A010000 		.4byte	.LASF60
 2043 0613 04       		.byte	0x4
 2044 0614 0C       		.byte	0xc
 2045 0615 00       		.byte	0x0
 2046 0616 28060000 		.4byte	0x628
 2047 061a 19       		.uleb128 0x19
 2048 061b C6020000 		.4byte	.LASF88
 2049 061f 68000000 		.4byte	0x68
ARM GAS  C:\Users\DNIEL~1\AppData\Local\Temp\cc55tULl.s 			page 38


 2050 0623 02       		.byte	0x2
 2051 0624 23       		.byte	0x23
 2052 0625 00       		.uleb128 0x0
 2053 0626 01       		.byte	0x1
 2054 0627 00       		.byte	0x0
 2055 0628 07       		.uleb128 0x7
 2056 0629 28010000 		.4byte	.LASF61
 2057 062d 0B       		.byte	0xb
 2058 062e 66       		.byte	0x66
 2059 062f 03060000 		.4byte	0x603
 2060 0633 1A       		.uleb128 0x1a
 2061 0634 62030000 		.4byte	.LASF89
 2062 0638 01       		.byte	0x1
 2063 0639 45       		.byte	0x45
 2064 063a 01       		.byte	0x1
 2065 063b 00000000 		.4byte	.LFB118
 2066 063f 1E000000 		.4byte	.LFE118
 2067 0643 00000000 		.4byte	.LLST0
 2068 0647 77060000 		.4byte	0x677
 2069 064b 1B       		.uleb128 0x1b
 2070 064c 63687000 		.ascii	"chp\000"
 2071 0650 01       		.byte	0x1
 2072 0651 45       		.byte	0x45
 2073 0652 77060000 		.4byte	0x677
 2074 0656 38000000 		.4byte	.LLST1
 2075 065a 1C       		.uleb128 0x1c
 2076 065b 666D7400 		.ascii	"fmt\000"
 2077 065f 01       		.byte	0x1
 2078 0660 45       		.byte	0x45
 2079 0661 7E000000 		.4byte	0x7e
 2080 0665 02       		.byte	0x2
 2081 0666 91       		.byte	0x91
 2082 0667 74       		.sleb128 -12
 2083 0668 1D       		.uleb128 0x1d
 2084 0669 1E       		.uleb128 0x1e
 2085 066a 617000   		.ascii	"ap\000"
 2086 066d 01       		.byte	0x1
 2087 066e 46       		.byte	0x46
 2088 066f 28060000 		.4byte	0x628
 2089 0673 02       		.byte	0x2
 2090 0674 91       		.byte	0x91
 2091 0675 6C       		.sleb128 -20
 2092 0676 00       		.byte	0x0
 2093 0677 05       		.uleb128 0x5
 2094 0678 04       		.byte	0x4
 2095 0679 D6010000 		.4byte	0x1d6
 2096 067d 1F       		.uleb128 0x1f
 2097 067e 01       		.byte	0x1
 2098 067f 47020000 		.4byte	.LASF69
 2099 0683 02       		.byte	0x2
 2100 0684 2F       		.byte	0x2f
 2101 0685 01       		.byte	0x1
 2102 0686 00000000 		.4byte	.LFB119
 2103 068a 60000000 		.4byte	.LFE119
 2104 068e 4B000000 		.4byte	.LLST2
 2105 0692 20       		.uleb128 0x20
 2106 0693 01       		.byte	0x1
ARM GAS  C:\Users\DNIEL~1\AppData\Local\Temp\cc55tULl.s 			page 39


 2107 0694 41030000 		.4byte	.LASF90
 2108 0698 02       		.byte	0x2
 2109 0699 43       		.byte	0x43
 2110 069a 01       		.byte	0x1
 2111 069b B5000000 		.4byte	0xb5
 2112 069f 00000000 		.4byte	.LFB121
 2113 06a3 74010000 		.4byte	.LFE121
 2114 06a7 6B000000 		.4byte	.LLST3
 2115 06ab 4A070000 		.4byte	0x74a
 2116 06af 21       		.uleb128 0x21
 2117 06b0 12020000 		.4byte	.LASF62
 2118 06b4 02       		.byte	0x2
 2119 06b5 43       		.byte	0x43
 2120 06b6 9F000000 		.4byte	0x9f
 2121 06ba 97000000 		.4byte	.LLST4
 2122 06be 1B       		.uleb128 0x1b
 2123 06bf 53657400 		.ascii	"Set\000"
 2124 06c3 02       		.byte	0x2
 2125 06c4 43       		.byte	0x43
 2126 06c5 9F000000 		.4byte	0x9f
 2127 06c9 AA000000 		.4byte	.LLST5
 2128 06cd 21       		.uleb128 0x21
 2129 06ce 00020000 		.4byte	.LASF63
 2130 06d2 02       		.byte	0x2
 2131 06d3 43       		.byte	0x43
 2132 06d4 B5000000 		.4byte	0xb5
 2133 06d8 BD000000 		.4byte	.LLST6
 2134 06dc 21       		.uleb128 0x21
 2135 06dd 42020000 		.4byte	.LASF64
 2136 06e1 02       		.byte	0x2
 2137 06e2 43       		.byte	0x43
 2138 06e3 B5000000 		.4byte	0xb5
 2139 06e7 DC000000 		.4byte	.LLST7
 2140 06eb 1C       		.uleb128 0x1c
 2141 06ec 4B7000   		.ascii	"Kp\000"
 2142 06ef 02       		.byte	0x2
 2143 06f0 43       		.byte	0x43
 2144 06f1 4A070000 		.4byte	0x74a
 2145 06f5 02       		.byte	0x2
 2146 06f6 91       		.byte	0x91
 2147 06f7 00       		.sleb128 0
 2148 06f8 1C       		.uleb128 0x1c
 2149 06f9 4B6900   		.ascii	"Ki\000"
 2150 06fc 02       		.byte	0x2
 2151 06fd 43       		.byte	0x43
 2152 06fe 4A070000 		.4byte	0x74a
 2153 0702 02       		.byte	0x2
 2154 0703 91       		.byte	0x91
 2155 0704 08       		.sleb128 8
 2156 0705 1C       		.uleb128 0x1c
 2157 0706 4B6400   		.ascii	"Kd\000"
 2158 0709 02       		.byte	0x2
 2159 070a 43       		.byte	0x43
 2160 070b 4A070000 		.4byte	0x74a
 2161 070f 02       		.byte	0x2
 2162 0710 91       		.byte	0x91
 2163 0711 10       		.sleb128 16
ARM GAS  C:\Users\DNIEL~1\AppData\Local\Temp\cc55tULl.s 			page 40


 2164 0712 22       		.uleb128 0x22
 2165 0713 FB010000 		.4byte	.LASF65
 2166 0717 02       		.byte	0x2
 2167 0718 43       		.byte	0x43
 2168 0719 B5000000 		.4byte	0xb5
 2169 071d 02       		.byte	0x2
 2170 071e 91       		.byte	0x91
 2171 071f 18       		.sleb128 24
 2172 0720 22       		.uleb128 0x22
 2173 0721 9A010000 		.4byte	.LASF66
 2174 0725 02       		.byte	0x2
 2175 0726 43       		.byte	0x43
 2176 0727 B5000000 		.4byte	0xb5
 2177 072b 02       		.byte	0x2
 2178 072c 91       		.byte	0x91
 2179 072d 1C       		.sleb128 28
 2180 072e 22       		.uleb128 0x22
 2181 072f 82010000 		.4byte	.LASF67
 2182 0733 02       		.byte	0x2
 2183 0734 43       		.byte	0x43
 2184 0735 B5000000 		.4byte	0xb5
 2185 0739 02       		.byte	0x2
 2186 073a 91       		.byte	0x91
 2187 073b 20       		.sleb128 32
 2188 073c 23       		.uleb128 0x23
 2189 073d 5500     		.ascii	"U\000"
 2190 073f 02       		.byte	0x2
 2191 0740 45       		.byte	0x45
 2192 0741 B5000000 		.4byte	0xb5
 2193 0745 FB000000 		.4byte	.LLST8
 2194 0749 00       		.byte	0x0
 2195 074a 02       		.uleb128 0x2
 2196 074b 08       		.byte	0x8
 2197 074c 04       		.byte	0x4
 2198 074d 56030000 		.4byte	.LASF68
 2199 0751 1F       		.uleb128 0x1f
 2200 0752 01       		.byte	0x1
 2201 0753 0C000000 		.4byte	.LASF70
 2202 0757 02       		.byte	0x2
 2203 0758 3D       		.byte	0x3d
 2204 0759 01       		.byte	0x1
 2205 075a 00000000 		.4byte	.LFB120
 2206 075e B0000000 		.4byte	.LFE120
 2207 0762 24010000 		.4byte	.LLST9
 2208 0766 24       		.uleb128 0x24
 2209 0767 01       		.byte	0x1
 2210 0768 74020000 		.4byte	.LASF73
 2211 076c 02       		.byte	0x2
 2212 076d 75       		.byte	0x75
 2213 076e 01       		.byte	0x1
 2214 076f 00000000 		.4byte	.LFB122
 2215 0773 FC000000 		.4byte	.LFE122
 2216 0777 50010000 		.4byte	.LLST10
 2217 077b AD070000 		.4byte	0x7ad
 2218 077f 1B       		.uleb128 0x1b
 2219 0780 63687000 		.ascii	"chp\000"
 2220 0784 02       		.byte	0x2
ARM GAS  C:\Users\DNIEL~1\AppData\Local\Temp\cc55tULl.s 			page 41


 2221 0785 75       		.byte	0x75
 2222 0786 77060000 		.4byte	0x677
 2223 078a 70010000 		.4byte	.LLST11
 2224 078e 21       		.uleb128 0x21
 2225 078f 31030000 		.4byte	.LASF71
 2226 0793 02       		.byte	0x2
 2227 0794 75       		.byte	0x75
 2228 0795 45000000 		.4byte	0x45
 2229 0799 8E010000 		.4byte	.LLST12
 2230 079d 21       		.uleb128 0x21
 2231 079e 3C030000 		.4byte	.LASF72
 2232 07a2 02       		.byte	0x2
 2233 07a3 75       		.byte	0x75
 2234 07a4 AD070000 		.4byte	0x7ad
 2235 07a8 A1010000 		.4byte	.LLST13
 2236 07ac 00       		.byte	0x0
 2237 07ad 05       		.uleb128 0x5
 2238 07ae 04       		.byte	0x4
 2239 07af 71000000 		.4byte	0x71
 2240 07b3 24       		.uleb128 0x24
 2241 07b4 01       		.byte	0x1
 2242 07b5 9F010000 		.4byte	.LASF74
 2243 07b9 02       		.byte	0x2
 2244 07ba 89       		.byte	0x89
 2245 07bb 01       		.byte	0x1
 2246 07bc 00000000 		.4byte	.LFB123
 2247 07c0 B4010000 		.4byte	.LFE123
 2248 07c4 B4010000 		.4byte	.LLST14
 2249 07c8 14080000 		.4byte	0x814
 2250 07cc 1B       		.uleb128 0x1b
 2251 07cd 63687000 		.ascii	"chp\000"
 2252 07d1 02       		.byte	0x2
 2253 07d2 89       		.byte	0x89
 2254 07d3 77060000 		.4byte	0x677
 2255 07d7 D4010000 		.4byte	.LLST15
 2256 07db 21       		.uleb128 0x21
 2257 07dc 31030000 		.4byte	.LASF71
 2258 07e0 02       		.byte	0x2
 2259 07e1 89       		.byte	0x89
 2260 07e2 45000000 		.4byte	0x45
 2261 07e6 F2010000 		.4byte	.LLST16
 2262 07ea 21       		.uleb128 0x21
 2263 07eb 3C030000 		.4byte	.LASF72
 2264 07ef 02       		.byte	0x2
 2265 07f0 89       		.byte	0x89
 2266 07f1 AD070000 		.4byte	0x7ad
 2267 07f5 31020000 		.4byte	.LLST17
 2268 07f9 25       		.uleb128 0x25
 2269 07fa 17000000 		.4byte	.LASF75
 2270 07fe 02       		.byte	0x2
 2271 07ff 8D       		.byte	0x8d
 2272 0800 9F000000 		.4byte	0x9f
 2273 0804 65020000 		.4byte	.LLST18
 2274 0808 26       		.uleb128 0x26
 2275 0809 E6010000 		.4byte	.LASF91
 2276 080d 02       		.byte	0x2
 2277 080e C6       		.byte	0xc6
ARM GAS  C:\Users\DNIEL~1\AppData\Local\Temp\cc55tULl.s 			page 42


 2278 080f 3C000000 		.4byte	.L45
 2279 0813 00       		.byte	0x0
 2280 0814 27       		.uleb128 0x27
 2281 0815 5A000000 		.4byte	.LASF76
 2282 0819 0D       		.byte	0xd
 2283 081a 9806     		.2byte	0x698
 2284 081c F1010000 		.4byte	0x1f1
 2285 0820 01       		.byte	0x1
 2286 0821 01       		.byte	0x1
 2287 0822 27       		.uleb128 0x27
 2288 0823 22010000 		.4byte	.LASF77
 2289 0827 0A       		.byte	0xa
 2290 0828 C301     		.2byte	0x1c3
 2291 082a A5040000 		.4byte	0x4a5
 2292 082e 01       		.byte	0x1
 2293 082f 01       		.byte	0x1
 2294 0830 1E       		.uleb128 0x1e
 2295 0831 4B5F5000 		.ascii	"K_P\000"
 2296 0835 02       		.byte	0x2
 2297 0836 0D       		.byte	0xd
 2298 0837 9F000000 		.4byte	0x9f
 2299 083b 05       		.byte	0x5
 2300 083c 03       		.byte	0x3
 2301 083d 00000000 		.4byte	K_P
 2302 0841 1E       		.uleb128 0x1e
 2303 0842 4B5F4900 		.ascii	"K_I\000"
 2304 0846 02       		.byte	0x2
 2305 0847 0E       		.byte	0xe
 2306 0848 9F000000 		.4byte	0x9f
 2307 084c 05       		.byte	0x5
 2308 084d 03       		.byte	0x3
 2309 084e 00000000 		.4byte	K_I
 2310 0852 1E       		.uleb128 0x1e
 2311 0853 4B5F4400 		.ascii	"K_D\000"
 2312 0857 02       		.byte	0x2
 2313 0858 0F       		.byte	0xf
 2314 0859 9F000000 		.4byte	0x9f
 2315 085d 05       		.byte	0x5
 2316 085e 03       		.byte	0x3
 2317 085f 00000000 		.4byte	K_D
 2318 0863 28       		.uleb128 0x28
 2319 0864 D5010000 		.4byte	.LASF78
 2320 0868 02       		.byte	0x2
 2321 0869 11       		.byte	0x11
 2322 086a 77080000 		.4byte	0x877
 2323 086e 08       		.byte	0x8
 2324 086f 00000000 		.4byte	0x0
 2325 0873 80842E41 		.4byte	0x412e8480
 2326 0877 06       		.uleb128 0x6
 2327 0878 4A070000 		.4byte	0x74a
 2328 087c 28       		.uleb128 0x28
 2329 087d 72010000 		.4byte	.LASF79
 2330 0881 02       		.byte	0x2
 2331 0882 12       		.byte	0x12
 2332 0883 90080000 		.4byte	0x890
 2333 0887 08       		.byte	0x8
 2334 0888 00000000 		.4byte	0x0
ARM GAS  C:\Users\DNIEL~1\AppData\Local\Temp\cc55tULl.s 			page 43


 2335 088c 20D62341 		.4byte	0x4123d620
 2336 0890 06       		.uleb128 0x6
 2337 0891 4A070000 		.4byte	0x74a
 2338 0895 28       		.uleb128 0x28
 2339 0896 CF010000 		.4byte	.LASF80
 2340 089a 02       		.byte	0x2
 2341 089b 14       		.byte	0x14
 2342 089c A9080000 		.4byte	0x8a9
 2343 08a0 08       		.byte	0x8
 2344 08a1 00000000 		.4byte	0x0
 2345 08a5 80842E41 		.4byte	0x412e8480
 2346 08a9 06       		.uleb128 0x6
 2347 08aa 4A070000 		.4byte	0x74a
 2348 08ae 28       		.uleb128 0x28
 2349 08af B9010000 		.4byte	.LASF81
 2350 08b3 02       		.byte	0x2
 2351 08b4 15       		.byte	0x15
 2352 08b5 C2080000 		.4byte	0x8c2
 2353 08b9 08       		.byte	0x8
 2354 08ba 00000000 		.4byte	0x0
 2355 08be 80842E41 		.4byte	0x412e8480
 2356 08c2 06       		.uleb128 0x6
 2357 08c3 4A070000 		.4byte	0x74a
 2358 08c7 28       		.uleb128 0x28
 2359 08c8 1C000000 		.4byte	.LASF82
 2360 08cc 02       		.byte	0x2
 2361 08cd 16       		.byte	0x16
 2362 08ce DB080000 		.4byte	0x8db
 2363 08d2 08       		.byte	0x8
 2364 08d3 00000000 		.4byte	0x0
 2365 08d7 80842E41 		.4byte	0x412e8480
 2366 08db 06       		.uleb128 0x6
 2367 08dc 4A070000 		.4byte	0x74a
 2368 08e0 1E       		.uleb128 0x1e
 2369 08e1 70776D00 		.ascii	"pwm\000"
 2370 08e5 02       		.byte	0x2
 2371 08e6 18       		.byte	0x18
 2372 08e7 B5000000 		.4byte	0xb5
 2373 08eb 05       		.byte	0x5
 2374 08ec 03       		.byte	0x3
 2375 08ed 00000000 		.4byte	pwm
 2376 08f1 1E       		.uleb128 0x1e
 2377 08f2 5000     		.ascii	"P\000"
 2378 08f4 02       		.byte	0x2
 2379 08f5 19       		.byte	0x19
 2380 08f6 4A070000 		.4byte	0x74a
 2381 08fa 05       		.byte	0x5
 2382 08fb 03       		.byte	0x3
 2383 08fc 00000000 		.4byte	P
 2384 0900 1E       		.uleb128 0x1e
 2385 0901 4900     		.ascii	"I\000"
 2386 0903 02       		.byte	0x2
 2387 0904 1A       		.byte	0x1a
 2388 0905 4A070000 		.4byte	0x74a
 2389 0909 05       		.byte	0x5
 2390 090a 03       		.byte	0x3
 2391 090b 00000000 		.4byte	I
ARM GAS  C:\Users\DNIEL~1\AppData\Local\Temp\cc55tULl.s 			page 44


 2392 090f 1E       		.uleb128 0x1e
 2393 0910 4400     		.ascii	"D\000"
 2394 0912 02       		.byte	0x2
 2395 0913 1B       		.byte	0x1b
 2396 0914 4A070000 		.4byte	0x74a
 2397 0918 05       		.byte	0x5
 2398 0919 03       		.byte	0x3
 2399 091a 00000000 		.4byte	D
 2400 091e 29       		.uleb128 0x29
 2401 091f E7020000 		.4byte	.LASF83
 2402 0923 02       		.byte	0x2
 2403 0924 1C       		.byte	0x1c
 2404 0925 4A070000 		.4byte	0x74a
 2405 0929 05       		.byte	0x5
 2406 092a 03       		.byte	0x3
 2407 092b 00000000 		.4byte	eelozo
 2408 092f 1E       		.uleb128 0x1e
 2409 0930 6500     		.ascii	"e\000"
 2410 0932 02       		.byte	0x2
 2411 0933 1D       		.byte	0x1d
 2412 0934 4A070000 		.4byte	0x74a
 2413 0938 05       		.byte	0x5
 2414 0939 03       		.byte	0x3
 2415 093a 00000000 		.4byte	e
 2416 093e 1E       		.uleb128 0x1e
 2417 093f 73657400 		.ascii	"set\000"
 2418 0943 02       		.byte	0x2
 2419 0944 1F       		.byte	0x1f
 2420 0945 45000000 		.4byte	0x45
 2421 0949 05       		.byte	0x5
 2422 094a 03       		.byte	0x3
 2423 094b 00000000 		.4byte	set
 2424 094f 29       		.uleb128 0x29
 2425 0950 64010000 		.4byte	.LASF84
 2426 0954 02       		.byte	0x2
 2427 0955 21       		.byte	0x21
 2428 0956 EC050000 		.4byte	0x5ec
 2429 095a 05       		.byte	0x5
 2430 095b 03       		.byte	0x3
 2431 095c 00000000 		.4byte	cruise_pwmcfg
 2432 0960 27       		.uleb128 0x27
 2433 0961 5A000000 		.4byte	.LASF76
 2434 0965 0D       		.byte	0xd
 2435 0966 9806     		.2byte	0x698
 2436 0968 F1010000 		.4byte	0x1f1
 2437 096c 01       		.byte	0x1
 2438 096d 01       		.byte	0x1
 2439 096e 27       		.uleb128 0x27
 2440 096f 22010000 		.4byte	.LASF77
 2441 0973 0A       		.byte	0xa
 2442 0974 C301     		.2byte	0x1c3
 2443 0976 A5040000 		.4byte	0x4a5
 2444 097a 01       		.byte	0x1
 2445 097b 01       		.byte	0x1
 2446 097c 00       		.byte	0x0
 2447              		.section	.debug_abbrev
 2448 0000 01       		.uleb128 0x1
ARM GAS  C:\Users\DNIEL~1\AppData\Local\Temp\cc55tULl.s 			page 45


 2449 0001 11       		.uleb128 0x11
 2450 0002 01       		.byte	0x1
 2451 0003 25       		.uleb128 0x25
 2452 0004 0E       		.uleb128 0xe
 2453 0005 13       		.uleb128 0x13
 2454 0006 0B       		.uleb128 0xb
 2455 0007 03       		.uleb128 0x3
 2456 0008 0E       		.uleb128 0xe
 2457 0009 1B       		.uleb128 0x1b
 2458 000a 0E       		.uleb128 0xe
 2459 000b 11       		.uleb128 0x11
 2460 000c 01       		.uleb128 0x1
 2461 000d 52       		.uleb128 0x52
 2462 000e 01       		.uleb128 0x1
 2463 000f 55       		.uleb128 0x55
 2464 0010 06       		.uleb128 0x6
 2465 0011 10       		.uleb128 0x10
 2466 0012 06       		.uleb128 0x6
 2467 0013 00       		.byte	0x0
 2468 0014 00       		.byte	0x0
 2469 0015 02       		.uleb128 0x2
 2470 0016 24       		.uleb128 0x24
 2471 0017 00       		.byte	0x0
 2472 0018 0B       		.uleb128 0xb
 2473 0019 0B       		.uleb128 0xb
 2474 001a 3E       		.uleb128 0x3e
 2475 001b 0B       		.uleb128 0xb
 2476 001c 03       		.uleb128 0x3
 2477 001d 0E       		.uleb128 0xe
 2478 001e 00       		.byte	0x0
 2479 001f 00       		.byte	0x0
 2480 0020 03       		.uleb128 0x3
 2481 0021 24       		.uleb128 0x24
 2482 0022 00       		.byte	0x0
 2483 0023 0B       		.uleb128 0xb
 2484 0024 0B       		.uleb128 0xb
 2485 0025 3E       		.uleb128 0x3e
 2486 0026 0B       		.uleb128 0xb
 2487 0027 03       		.uleb128 0x3
 2488 0028 08       		.uleb128 0x8
 2489 0029 00       		.byte	0x0
 2490 002a 00       		.byte	0x0
 2491 002b 04       		.uleb128 0x4
 2492 002c 0F       		.uleb128 0xf
 2493 002d 00       		.byte	0x0
 2494 002e 0B       		.uleb128 0xb
 2495 002f 0B       		.uleb128 0xb
 2496 0030 00       		.byte	0x0
 2497 0031 00       		.byte	0x0
 2498 0032 05       		.uleb128 0x5
 2499 0033 0F       		.uleb128 0xf
 2500 0034 00       		.byte	0x0
 2501 0035 0B       		.uleb128 0xb
 2502 0036 0B       		.uleb128 0xb
 2503 0037 49       		.uleb128 0x49
 2504 0038 13       		.uleb128 0x13
 2505 0039 00       		.byte	0x0
ARM GAS  C:\Users\DNIEL~1\AppData\Local\Temp\cc55tULl.s 			page 46


 2506 003a 00       		.byte	0x0
 2507 003b 06       		.uleb128 0x6
 2508 003c 26       		.uleb128 0x26
 2509 003d 00       		.byte	0x0
 2510 003e 49       		.uleb128 0x49
 2511 003f 13       		.uleb128 0x13
 2512 0040 00       		.byte	0x0
 2513 0041 00       		.byte	0x0
 2514 0042 07       		.uleb128 0x7
 2515 0043 16       		.uleb128 0x16
 2516 0044 00       		.byte	0x0
 2517 0045 03       		.uleb128 0x3
 2518 0046 0E       		.uleb128 0xe
 2519 0047 3A       		.uleb128 0x3a
 2520 0048 0B       		.uleb128 0xb
 2521 0049 3B       		.uleb128 0x3b
 2522 004a 0B       		.uleb128 0xb
 2523 004b 49       		.uleb128 0x49
 2524 004c 13       		.uleb128 0x13
 2525 004d 00       		.byte	0x0
 2526 004e 00       		.byte	0x0
 2527 004f 08       		.uleb128 0x8
 2528 0050 35       		.uleb128 0x35
 2529 0051 00       		.byte	0x0
 2530 0052 49       		.uleb128 0x49
 2531 0053 13       		.uleb128 0x13
 2532 0054 00       		.byte	0x0
 2533 0055 00       		.byte	0x0
 2534 0056 09       		.uleb128 0x9
 2535 0057 15       		.uleb128 0x15
 2536 0058 01       		.byte	0x1
 2537 0059 27       		.uleb128 0x27
 2538 005a 0C       		.uleb128 0xc
 2539 005b 49       		.uleb128 0x49
 2540 005c 13       		.uleb128 0x13
 2541 005d 01       		.uleb128 0x1
 2542 005e 13       		.uleb128 0x13
 2543 005f 00       		.byte	0x0
 2544 0060 00       		.byte	0x0
 2545 0061 0A       		.uleb128 0xa
 2546 0062 05       		.uleb128 0x5
 2547 0063 00       		.byte	0x0
 2548 0064 49       		.uleb128 0x49
 2549 0065 13       		.uleb128 0x13
 2550 0066 00       		.byte	0x0
 2551 0067 00       		.byte	0x0
 2552 0068 0B       		.uleb128 0xb
 2553 0069 13       		.uleb128 0x13
 2554 006a 01       		.byte	0x1
 2555 006b 03       		.uleb128 0x3
 2556 006c 0E       		.uleb128 0xe
 2557 006d 0B       		.uleb128 0xb
 2558 006e 0B       		.uleb128 0xb
 2559 006f 3A       		.uleb128 0x3a
 2560 0070 0B       		.uleb128 0xb
 2561 0071 3B       		.uleb128 0x3b
 2562 0072 0B       		.uleb128 0xb
ARM GAS  C:\Users\DNIEL~1\AppData\Local\Temp\cc55tULl.s 			page 47


 2563 0073 01       		.uleb128 0x1
 2564 0074 13       		.uleb128 0x13
 2565 0075 00       		.byte	0x0
 2566 0076 00       		.byte	0x0
 2567 0077 0C       		.uleb128 0xc
 2568 0078 0D       		.uleb128 0xd
 2569 0079 00       		.byte	0x0
 2570 007a 03       		.uleb128 0x3
 2571 007b 0E       		.uleb128 0xe
 2572 007c 3A       		.uleb128 0x3a
 2573 007d 0B       		.uleb128 0xb
 2574 007e 3B       		.uleb128 0x3b
 2575 007f 0B       		.uleb128 0xb
 2576 0080 49       		.uleb128 0x49
 2577 0081 13       		.uleb128 0x13
 2578 0082 38       		.uleb128 0x38
 2579 0083 0A       		.uleb128 0xa
 2580 0084 00       		.byte	0x0
 2581 0085 00       		.byte	0x0
 2582 0086 0D       		.uleb128 0xd
 2583 0087 0D       		.uleb128 0xd
 2584 0088 00       		.byte	0x0
 2585 0089 03       		.uleb128 0x3
 2586 008a 08       		.uleb128 0x8
 2587 008b 3A       		.uleb128 0x3a
 2588 008c 0B       		.uleb128 0xb
 2589 008d 3B       		.uleb128 0x3b
 2590 008e 0B       		.uleb128 0xb
 2591 008f 49       		.uleb128 0x49
 2592 0090 13       		.uleb128 0x13
 2593 0091 38       		.uleb128 0x38
 2594 0092 0A       		.uleb128 0xa
 2595 0093 00       		.byte	0x0
 2596 0094 00       		.byte	0x0
 2597 0095 0E       		.uleb128 0xe
 2598 0096 13       		.uleb128 0x13
 2599 0097 01       		.byte	0x1
 2600 0098 0B       		.uleb128 0xb
 2601 0099 0B       		.uleb128 0xb
 2602 009a 3A       		.uleb128 0x3a
 2603 009b 0B       		.uleb128 0xb
 2604 009c 3B       		.uleb128 0x3b
 2605 009d 0B       		.uleb128 0xb
 2606 009e 01       		.uleb128 0x1
 2607 009f 13       		.uleb128 0x13
 2608 00a0 00       		.byte	0x0
 2609 00a1 00       		.byte	0x0
 2610 00a2 0F       		.uleb128 0xf
 2611 00a3 01       		.uleb128 0x1
 2612 00a4 01       		.byte	0x1
 2613 00a5 49       		.uleb128 0x49
 2614 00a6 13       		.uleb128 0x13
 2615 00a7 01       		.uleb128 0x1
 2616 00a8 13       		.uleb128 0x13
 2617 00a9 00       		.byte	0x0
 2618 00aa 00       		.byte	0x0
 2619 00ab 10       		.uleb128 0x10
ARM GAS  C:\Users\DNIEL~1\AppData\Local\Temp\cc55tULl.s 			page 48


 2620 00ac 21       		.uleb128 0x21
 2621 00ad 00       		.byte	0x0
 2622 00ae 49       		.uleb128 0x49
 2623 00af 13       		.uleb128 0x13
 2624 00b0 2F       		.uleb128 0x2f
 2625 00b1 0B       		.uleb128 0xb
 2626 00b2 00       		.byte	0x0
 2627 00b3 00       		.byte	0x0
 2628 00b4 11       		.uleb128 0x11
 2629 00b5 13       		.uleb128 0x13
 2630 00b6 01       		.byte	0x1
 2631 00b7 0B       		.uleb128 0xb
 2632 00b8 0B       		.uleb128 0xb
 2633 00b9 3A       		.uleb128 0x3a
 2634 00ba 0B       		.uleb128 0xb
 2635 00bb 3B       		.uleb128 0x3b
 2636 00bc 05       		.uleb128 0x5
 2637 00bd 01       		.uleb128 0x1
 2638 00be 13       		.uleb128 0x13
 2639 00bf 00       		.byte	0x0
 2640 00c0 00       		.byte	0x0
 2641 00c1 12       		.uleb128 0x12
 2642 00c2 0D       		.uleb128 0xd
 2643 00c3 00       		.byte	0x0
 2644 00c4 03       		.uleb128 0x3
 2645 00c5 08       		.uleb128 0x8
 2646 00c6 3A       		.uleb128 0x3a
 2647 00c7 0B       		.uleb128 0xb
 2648 00c8 3B       		.uleb128 0x3b
 2649 00c9 05       		.uleb128 0x5
 2650 00ca 49       		.uleb128 0x49
 2651 00cb 13       		.uleb128 0x13
 2652 00cc 38       		.uleb128 0x38
 2653 00cd 0A       		.uleb128 0xa
 2654 00ce 00       		.byte	0x0
 2655 00cf 00       		.byte	0x0
 2656 00d0 13       		.uleb128 0x13
 2657 00d1 0D       		.uleb128 0xd
 2658 00d2 00       		.byte	0x0
 2659 00d3 03       		.uleb128 0x3
 2660 00d4 0E       		.uleb128 0xe
 2661 00d5 3A       		.uleb128 0x3a
 2662 00d6 0B       		.uleb128 0xb
 2663 00d7 3B       		.uleb128 0x3b
 2664 00d8 05       		.uleb128 0x5
 2665 00d9 49       		.uleb128 0x49
 2666 00da 13       		.uleb128 0x13
 2667 00db 38       		.uleb128 0x38
 2668 00dc 0A       		.uleb128 0xa
 2669 00dd 00       		.byte	0x0
 2670 00de 00       		.byte	0x0
 2671 00df 14       		.uleb128 0x14
 2672 00e0 16       		.uleb128 0x16
 2673 00e1 00       		.byte	0x0
 2674 00e2 03       		.uleb128 0x3
 2675 00e3 0E       		.uleb128 0xe
 2676 00e4 3A       		.uleb128 0x3a
ARM GAS  C:\Users\DNIEL~1\AppData\Local\Temp\cc55tULl.s 			page 49


 2677 00e5 0B       		.uleb128 0xb
 2678 00e6 3B       		.uleb128 0x3b
 2679 00e7 05       		.uleb128 0x5
 2680 00e8 49       		.uleb128 0x49
 2681 00e9 13       		.uleb128 0x13
 2682 00ea 00       		.byte	0x0
 2683 00eb 00       		.byte	0x0
 2684 00ec 15       		.uleb128 0x15
 2685 00ed 04       		.uleb128 0x4
 2686 00ee 01       		.byte	0x1
 2687 00ef 0B       		.uleb128 0xb
 2688 00f0 0B       		.uleb128 0xb
 2689 00f1 3A       		.uleb128 0x3a
 2690 00f2 0B       		.uleb128 0xb
 2691 00f3 3B       		.uleb128 0x3b
 2692 00f4 0B       		.uleb128 0xb
 2693 00f5 01       		.uleb128 0x1
 2694 00f6 13       		.uleb128 0x13
 2695 00f7 00       		.byte	0x0
 2696 00f8 00       		.byte	0x0
 2697 00f9 16       		.uleb128 0x16
 2698 00fa 28       		.uleb128 0x28
 2699 00fb 00       		.byte	0x0
 2700 00fc 03       		.uleb128 0x3
 2701 00fd 0E       		.uleb128 0xe
 2702 00fe 1C       		.uleb128 0x1c
 2703 00ff 0D       		.uleb128 0xd
 2704 0100 00       		.byte	0x0
 2705 0101 00       		.byte	0x0
 2706 0102 17       		.uleb128 0x17
 2707 0103 13       		.uleb128 0x13
 2708 0104 01       		.byte	0x1
 2709 0105 03       		.uleb128 0x3
 2710 0106 0E       		.uleb128 0xe
 2711 0107 0B       		.uleb128 0xb
 2712 0108 0B       		.uleb128 0xb
 2713 0109 3A       		.uleb128 0x3a
 2714 010a 0B       		.uleb128 0xb
 2715 010b 3B       		.uleb128 0x3b
 2716 010c 05       		.uleb128 0x5
 2717 010d 01       		.uleb128 0x1
 2718 010e 13       		.uleb128 0x13
 2719 010f 00       		.byte	0x0
 2720 0110 00       		.byte	0x0
 2721 0111 18       		.uleb128 0x18
 2722 0112 15       		.uleb128 0x15
 2723 0113 01       		.byte	0x1
 2724 0114 27       		.uleb128 0x27
 2725 0115 0C       		.uleb128 0xc
 2726 0116 01       		.uleb128 0x1
 2727 0117 13       		.uleb128 0x13
 2728 0118 00       		.byte	0x0
 2729 0119 00       		.byte	0x0
 2730 011a 19       		.uleb128 0x19
 2731 011b 0D       		.uleb128 0xd
 2732 011c 00       		.byte	0x0
 2733 011d 03       		.uleb128 0x3
ARM GAS  C:\Users\DNIEL~1\AppData\Local\Temp\cc55tULl.s 			page 50


 2734 011e 0E       		.uleb128 0xe
 2735 011f 49       		.uleb128 0x49
 2736 0120 13       		.uleb128 0x13
 2737 0121 38       		.uleb128 0x38
 2738 0122 0A       		.uleb128 0xa
 2739 0123 34       		.uleb128 0x34
 2740 0124 0C       		.uleb128 0xc
 2741 0125 00       		.byte	0x0
 2742 0126 00       		.byte	0x0
 2743 0127 1A       		.uleb128 0x1a
 2744 0128 2E       		.uleb128 0x2e
 2745 0129 01       		.byte	0x1
 2746 012a 03       		.uleb128 0x3
 2747 012b 0E       		.uleb128 0xe
 2748 012c 3A       		.uleb128 0x3a
 2749 012d 0B       		.uleb128 0xb
 2750 012e 3B       		.uleb128 0x3b
 2751 012f 0B       		.uleb128 0xb
 2752 0130 27       		.uleb128 0x27
 2753 0131 0C       		.uleb128 0xc
 2754 0132 11       		.uleb128 0x11
 2755 0133 01       		.uleb128 0x1
 2756 0134 12       		.uleb128 0x12
 2757 0135 01       		.uleb128 0x1
 2758 0136 40       		.uleb128 0x40
 2759 0137 06       		.uleb128 0x6
 2760 0138 01       		.uleb128 0x1
 2761 0139 13       		.uleb128 0x13
 2762 013a 00       		.byte	0x0
 2763 013b 00       		.byte	0x0
 2764 013c 1B       		.uleb128 0x1b
 2765 013d 05       		.uleb128 0x5
 2766 013e 00       		.byte	0x0
 2767 013f 03       		.uleb128 0x3
 2768 0140 08       		.uleb128 0x8
 2769 0141 3A       		.uleb128 0x3a
 2770 0142 0B       		.uleb128 0xb
 2771 0143 3B       		.uleb128 0x3b
 2772 0144 0B       		.uleb128 0xb
 2773 0145 49       		.uleb128 0x49
 2774 0146 13       		.uleb128 0x13
 2775 0147 02       		.uleb128 0x2
 2776 0148 06       		.uleb128 0x6
 2777 0149 00       		.byte	0x0
 2778 014a 00       		.byte	0x0
 2779 014b 1C       		.uleb128 0x1c
 2780 014c 05       		.uleb128 0x5
 2781 014d 00       		.byte	0x0
 2782 014e 03       		.uleb128 0x3
 2783 014f 08       		.uleb128 0x8
 2784 0150 3A       		.uleb128 0x3a
 2785 0151 0B       		.uleb128 0xb
 2786 0152 3B       		.uleb128 0x3b
 2787 0153 0B       		.uleb128 0xb
 2788 0154 49       		.uleb128 0x49
 2789 0155 13       		.uleb128 0x13
 2790 0156 02       		.uleb128 0x2
ARM GAS  C:\Users\DNIEL~1\AppData\Local\Temp\cc55tULl.s 			page 51


 2791 0157 0A       		.uleb128 0xa
 2792 0158 00       		.byte	0x0
 2793 0159 00       		.byte	0x0
 2794 015a 1D       		.uleb128 0x1d
 2795 015b 18       		.uleb128 0x18
 2796 015c 00       		.byte	0x0
 2797 015d 00       		.byte	0x0
 2798 015e 00       		.byte	0x0
 2799 015f 1E       		.uleb128 0x1e
 2800 0160 34       		.uleb128 0x34
 2801 0161 00       		.byte	0x0
 2802 0162 03       		.uleb128 0x3
 2803 0163 08       		.uleb128 0x8
 2804 0164 3A       		.uleb128 0x3a
 2805 0165 0B       		.uleb128 0xb
 2806 0166 3B       		.uleb128 0x3b
 2807 0167 0B       		.uleb128 0xb
 2808 0168 49       		.uleb128 0x49
 2809 0169 13       		.uleb128 0x13
 2810 016a 02       		.uleb128 0x2
 2811 016b 0A       		.uleb128 0xa
 2812 016c 00       		.byte	0x0
 2813 016d 00       		.byte	0x0
 2814 016e 1F       		.uleb128 0x1f
 2815 016f 2E       		.uleb128 0x2e
 2816 0170 00       		.byte	0x0
 2817 0171 3F       		.uleb128 0x3f
 2818 0172 0C       		.uleb128 0xc
 2819 0173 03       		.uleb128 0x3
 2820 0174 0E       		.uleb128 0xe
 2821 0175 3A       		.uleb128 0x3a
 2822 0176 0B       		.uleb128 0xb
 2823 0177 3B       		.uleb128 0x3b
 2824 0178 0B       		.uleb128 0xb
 2825 0179 27       		.uleb128 0x27
 2826 017a 0C       		.uleb128 0xc
 2827 017b 11       		.uleb128 0x11
 2828 017c 01       		.uleb128 0x1
 2829 017d 12       		.uleb128 0x12
 2830 017e 01       		.uleb128 0x1
 2831 017f 40       		.uleb128 0x40
 2832 0180 06       		.uleb128 0x6
 2833 0181 00       		.byte	0x0
 2834 0182 00       		.byte	0x0
 2835 0183 20       		.uleb128 0x20
 2836 0184 2E       		.uleb128 0x2e
 2837 0185 01       		.byte	0x1
 2838 0186 3F       		.uleb128 0x3f
 2839 0187 0C       		.uleb128 0xc
 2840 0188 03       		.uleb128 0x3
 2841 0189 0E       		.uleb128 0xe
 2842 018a 3A       		.uleb128 0x3a
 2843 018b 0B       		.uleb128 0xb
 2844 018c 3B       		.uleb128 0x3b
 2845 018d 0B       		.uleb128 0xb
 2846 018e 27       		.uleb128 0x27
 2847 018f 0C       		.uleb128 0xc
ARM GAS  C:\Users\DNIEL~1\AppData\Local\Temp\cc55tULl.s 			page 52


 2848 0190 49       		.uleb128 0x49
 2849 0191 13       		.uleb128 0x13
 2850 0192 11       		.uleb128 0x11
 2851 0193 01       		.uleb128 0x1
 2852 0194 12       		.uleb128 0x12
 2853 0195 01       		.uleb128 0x1
 2854 0196 40       		.uleb128 0x40
 2855 0197 06       		.uleb128 0x6
 2856 0198 01       		.uleb128 0x1
 2857 0199 13       		.uleb128 0x13
 2858 019a 00       		.byte	0x0
 2859 019b 00       		.byte	0x0
 2860 019c 21       		.uleb128 0x21
 2861 019d 05       		.uleb128 0x5
 2862 019e 00       		.byte	0x0
 2863 019f 03       		.uleb128 0x3
 2864 01a0 0E       		.uleb128 0xe
 2865 01a1 3A       		.uleb128 0x3a
 2866 01a2 0B       		.uleb128 0xb
 2867 01a3 3B       		.uleb128 0x3b
 2868 01a4 0B       		.uleb128 0xb
 2869 01a5 49       		.uleb128 0x49
 2870 01a6 13       		.uleb128 0x13
 2871 01a7 02       		.uleb128 0x2
 2872 01a8 06       		.uleb128 0x6
 2873 01a9 00       		.byte	0x0
 2874 01aa 00       		.byte	0x0
 2875 01ab 22       		.uleb128 0x22
 2876 01ac 05       		.uleb128 0x5
 2877 01ad 00       		.byte	0x0
 2878 01ae 03       		.uleb128 0x3
 2879 01af 0E       		.uleb128 0xe
 2880 01b0 3A       		.uleb128 0x3a
 2881 01b1 0B       		.uleb128 0xb
 2882 01b2 3B       		.uleb128 0x3b
 2883 01b3 0B       		.uleb128 0xb
 2884 01b4 49       		.uleb128 0x49
 2885 01b5 13       		.uleb128 0x13
 2886 01b6 02       		.uleb128 0x2
 2887 01b7 0A       		.uleb128 0xa
 2888 01b8 00       		.byte	0x0
 2889 01b9 00       		.byte	0x0
 2890 01ba 23       		.uleb128 0x23
 2891 01bb 34       		.uleb128 0x34
 2892 01bc 00       		.byte	0x0
 2893 01bd 03       		.uleb128 0x3
 2894 01be 08       		.uleb128 0x8
 2895 01bf 3A       		.uleb128 0x3a
 2896 01c0 0B       		.uleb128 0xb
 2897 01c1 3B       		.uleb128 0x3b
 2898 01c2 0B       		.uleb128 0xb
 2899 01c3 49       		.uleb128 0x49
 2900 01c4 13       		.uleb128 0x13
 2901 01c5 02       		.uleb128 0x2
 2902 01c6 06       		.uleb128 0x6
 2903 01c7 00       		.byte	0x0
 2904 01c8 00       		.byte	0x0
ARM GAS  C:\Users\DNIEL~1\AppData\Local\Temp\cc55tULl.s 			page 53


 2905 01c9 24       		.uleb128 0x24
 2906 01ca 2E       		.uleb128 0x2e
 2907 01cb 01       		.byte	0x1
 2908 01cc 3F       		.uleb128 0x3f
 2909 01cd 0C       		.uleb128 0xc
 2910 01ce 03       		.uleb128 0x3
 2911 01cf 0E       		.uleb128 0xe
 2912 01d0 3A       		.uleb128 0x3a
 2913 01d1 0B       		.uleb128 0xb
 2914 01d2 3B       		.uleb128 0x3b
 2915 01d3 0B       		.uleb128 0xb
 2916 01d4 27       		.uleb128 0x27
 2917 01d5 0C       		.uleb128 0xc
 2918 01d6 11       		.uleb128 0x11
 2919 01d7 01       		.uleb128 0x1
 2920 01d8 12       		.uleb128 0x12
 2921 01d9 01       		.uleb128 0x1
 2922 01da 40       		.uleb128 0x40
 2923 01db 06       		.uleb128 0x6
 2924 01dc 01       		.uleb128 0x1
 2925 01dd 13       		.uleb128 0x13
 2926 01de 00       		.byte	0x0
 2927 01df 00       		.byte	0x0
 2928 01e0 25       		.uleb128 0x25
 2929 01e1 34       		.uleb128 0x34
 2930 01e2 00       		.byte	0x0
 2931 01e3 03       		.uleb128 0x3
 2932 01e4 0E       		.uleb128 0xe
 2933 01e5 3A       		.uleb128 0x3a
 2934 01e6 0B       		.uleb128 0xb
 2935 01e7 3B       		.uleb128 0x3b
 2936 01e8 0B       		.uleb128 0xb
 2937 01e9 49       		.uleb128 0x49
 2938 01ea 13       		.uleb128 0x13
 2939 01eb 02       		.uleb128 0x2
 2940 01ec 06       		.uleb128 0x6
 2941 01ed 00       		.byte	0x0
 2942 01ee 00       		.byte	0x0
 2943 01ef 26       		.uleb128 0x26
 2944 01f0 0A       		.uleb128 0xa
 2945 01f1 00       		.byte	0x0
 2946 01f2 03       		.uleb128 0x3
 2947 01f3 0E       		.uleb128 0xe
 2948 01f4 3A       		.uleb128 0x3a
 2949 01f5 0B       		.uleb128 0xb
 2950 01f6 3B       		.uleb128 0x3b
 2951 01f7 0B       		.uleb128 0xb
 2952 01f8 11       		.uleb128 0x11
 2953 01f9 01       		.uleb128 0x1
 2954 01fa 00       		.byte	0x0
 2955 01fb 00       		.byte	0x0
 2956 01fc 27       		.uleb128 0x27
 2957 01fd 34       		.uleb128 0x34
 2958 01fe 00       		.byte	0x0
 2959 01ff 03       		.uleb128 0x3
 2960 0200 0E       		.uleb128 0xe
 2961 0201 3A       		.uleb128 0x3a
ARM GAS  C:\Users\DNIEL~1\AppData\Local\Temp\cc55tULl.s 			page 54


 2962 0202 0B       		.uleb128 0xb
 2963 0203 3B       		.uleb128 0x3b
 2964 0204 05       		.uleb128 0x5
 2965 0205 49       		.uleb128 0x49
 2966 0206 13       		.uleb128 0x13
 2967 0207 3F       		.uleb128 0x3f
 2968 0208 0C       		.uleb128 0xc
 2969 0209 3C       		.uleb128 0x3c
 2970 020a 0C       		.uleb128 0xc
 2971 020b 00       		.byte	0x0
 2972 020c 00       		.byte	0x0
 2973 020d 28       		.uleb128 0x28
 2974 020e 34       		.uleb128 0x34
 2975 020f 00       		.byte	0x0
 2976 0210 03       		.uleb128 0x3
 2977 0211 0E       		.uleb128 0xe
 2978 0212 3A       		.uleb128 0x3a
 2979 0213 0B       		.uleb128 0xb
 2980 0214 3B       		.uleb128 0x3b
 2981 0215 0B       		.uleb128 0xb
 2982 0216 49       		.uleb128 0x49
 2983 0217 13       		.uleb128 0x13
 2984 0218 1C       		.uleb128 0x1c
 2985 0219 0A       		.uleb128 0xa
 2986 021a 00       		.byte	0x0
 2987 021b 00       		.byte	0x0
 2988 021c 29       		.uleb128 0x29
 2989 021d 34       		.uleb128 0x34
 2990 021e 00       		.byte	0x0
 2991 021f 03       		.uleb128 0x3
 2992 0220 0E       		.uleb128 0xe
 2993 0221 3A       		.uleb128 0x3a
 2994 0222 0B       		.uleb128 0xb
 2995 0223 3B       		.uleb128 0x3b
 2996 0224 0B       		.uleb128 0xb
 2997 0225 49       		.uleb128 0x49
 2998 0226 13       		.uleb128 0x13
 2999 0227 02       		.uleb128 0x2
 3000 0228 0A       		.uleb128 0xa
 3001 0229 00       		.byte	0x0
 3002 022a 00       		.byte	0x0
 3003 022b 00       		.byte	0x0
 3004              		.section	.debug_pubnames,"",%progbits
 3005 0000 67000000 		.4byte	0x67
 3006 0004 0200     		.2byte	0x2
 3007 0006 00000000 		.4byte	.Ldebug_info0
 3008 000a 7D090000 		.4byte	0x97d
 3009 000e 7D060000 		.4byte	0x67d
 3010 0012 63727569 		.ascii	"cruiseInit\000"
 3010      7365496E 
 3010      697400
 3011 001d 92060000 		.4byte	0x692
 3012 0021 63727569 		.ascii	"cruisePID\000"
 3012      73655049 
 3012      4400
 3013 002b 51070000 		.4byte	0x751
 3014 002f 63727569 		.ascii	"cruiseCalc\000"
ARM GAS  C:\Users\DNIEL~1\AppData\Local\Temp\cc55tULl.s 			page 55


 3014      73654361 
 3014      6C6300
 3015 003a 66070000 		.4byte	0x766
 3016 003e 636D645F 		.ascii	"cmd_cruisevalues\000"
 3016      63727569 
 3016      73657661 
 3016      6C756573 
 3016      00
 3017 004f B3070000 		.4byte	0x7b3
 3018 0053 636D645F 		.ascii	"cmd_setcruisevalues\000"
 3018      73657463 
 3018      72756973 
 3018      6576616C 
 3018      75657300 
 3019 0067 00000000 		.4byte	0x0
 3020              		.section	.debug_pubtypes,"",%progbits
 3021 0000 7F010000 		.4byte	0x17f
 3022 0004 0200     		.2byte	0x2
 3023 0006 00000000 		.4byte	.Ldebug_info0
 3024 000a 7D090000 		.4byte	0x97d
 3025 000e 89000000 		.4byte	0x89
 3026 0012 73697A65 		.ascii	"size_t\000"
 3026      5F7400
 3027 0019 94000000 		.4byte	0x94
 3028 001d 75696E74 		.ascii	"uint8_t\000"
 3028      385F7400 
 3029 0025 9F000000 		.4byte	0x9f
 3030 0029 696E7431 		.ascii	"int16_t\000"
 3030      365F7400 
 3031 0031 AA000000 		.4byte	0xaa
 3032 0035 75696E74 		.ascii	"uint16_t\000"
 3032      31365F74 
 3032      00
 3033 003e B5000000 		.4byte	0xb5
 3034 0042 696E7433 		.ascii	"int32_t\000"
 3034      325F7400 
 3035 004a C0000000 		.4byte	0xc0
 3036 004e 75696E74 		.ascii	"uint32_t\000"
 3036      33325F74 
 3036      00
 3037 0057 D2000000 		.4byte	0xd2
 3038 005b 6D73675F 		.ascii	"msg_t\000"
 3038      7400
 3039 0061 DD000000 		.4byte	0xdd
 3040 0065 73797374 		.ascii	"systime_t\000"
 3040      696D655F 
 3040      7400
 3041 006f 09010000 		.4byte	0x109
 3042 0073 42617365 		.ascii	"BaseSequentialStreamVMT\000"
 3042      53657175 
 3042      656E7469 
 3042      616C5374 
 3042      7265616D 
 3043 008b D6010000 		.4byte	0x1d6
 3044 008f 42617365 		.ascii	"BaseSequentialStream\000"
 3044      53657175 
 3044      656E7469 
ARM GAS  C:\Users\DNIEL~1\AppData\Local\Temp\cc55tULl.s 			page 56


 3044      616C5374 
 3044      7265616D 
 3045 00a4 F6010000 		.4byte	0x1f6
 3046 00a8 42617365 		.ascii	"BaseChannelVMT\000"
 3046      4368616E 
 3046      6E656C56 
 3046      4D5400
 3047 00b7 1A030000 		.4byte	0x31a
 3048 00bb 42617365 		.ascii	"BaseChannel\000"
 3048      4368616E 
 3048      6E656C00 
 3049 00c7 6D040000 		.4byte	0x46d
 3050 00cb 73746D33 		.ascii	"stm32_tim_t\000"
 3050      325F7469 
 3050      6D5F7400 
 3051 00d7 9A040000 		.4byte	0x49a
 3052 00db 70776D73 		.ascii	"pwmstate_t\000"
 3052      74617465 
 3052      5F7400
 3053 00e6 A5040000 		.4byte	0x4a5
 3054 00ea 50574D44 		.ascii	"PWMDriver\000"
 3054      72697665 
 3054      7200
 3055 00f4 09050000 		.4byte	0x509
 3056 00f8 70776D63 		.ascii	"pwmcallback_t\000"
 3056      616C6C62 
 3056      61636B5F 
 3056      7400
 3057 0106 2C050000 		.4byte	0x52c
 3058 010a 70776D6D 		.ascii	"pwmmode_t\000"
 3058      6F64655F 
 3058      7400
 3059 0114 38050000 		.4byte	0x538
 3060 0118 70776D63 		.ascii	"pwmcnt_t\000"
 3060      6E745F74 
 3060      00
 3061 0121 6C050000 		.4byte	0x56c
 3062 0125 50574D43 		.ascii	"PWMChannelConfig\000"
 3062      68616E6E 
 3062      656C436F 
 3062      6E666967 
 3062      00
 3063 0136 EC050000 		.4byte	0x5ec
 3064 013a 50574D43 		.ascii	"PWMConfig\000"
 3064      6F6E6669 
 3064      6700
 3065 0144 B0040000 		.4byte	0x4b0
 3066 0148 50574D44 		.ascii	"PWMDriver\000"
 3066      72697665 
 3066      7200
 3067 0152 0E060000 		.4byte	0x60e
 3068 0156 5F5F7661 		.ascii	"__va_list\000"
 3068      5F6C6973 
 3068      7400
 3069 0160 03060000 		.4byte	0x603
 3070 0164 5F5F676E 		.ascii	"__gnuc_va_list\000"
 3070      75635F76 
ARM GAS  C:\Users\DNIEL~1\AppData\Local\Temp\cc55tULl.s 			page 57


 3070      615F6C69 
 3070      737400
 3071 0173 28060000 		.4byte	0x628
 3072 0177 76615F6C 		.ascii	"va_list\000"
 3072      69737400 
 3073 017f 00000000 		.4byte	0x0
 3074              		.section	.debug_aranges,"",%progbits
 3075 0000 44000000 		.4byte	0x44
 3076 0004 0200     		.2byte	0x2
 3077 0006 00000000 		.4byte	.Ldebug_info0
 3078 000a 04       		.byte	0x4
 3079 000b 00       		.byte	0x0
 3080 000c 0000     		.2byte	0x0
 3081 000e 0000     		.2byte	0x0
 3082 0010 00000000 		.4byte	.LFB118
 3083 0014 1E000000 		.4byte	.LFE118-.LFB118
 3084 0018 00000000 		.4byte	.LFB119
 3085 001c 60000000 		.4byte	.LFE119-.LFB119
 3086 0020 00000000 		.4byte	.LFB121
 3087 0024 74010000 		.4byte	.LFE121-.LFB121
 3088 0028 00000000 		.4byte	.LFB120
 3089 002c B0000000 		.4byte	.LFE120-.LFB120
 3090 0030 00000000 		.4byte	.LFB122
 3091 0034 FC000000 		.4byte	.LFE122-.LFB122
 3092 0038 00000000 		.4byte	.LFB123
 3093 003c B4010000 		.4byte	.LFE123-.LFB123
 3094 0040 00000000 		.4byte	0x0
 3095 0044 00000000 		.4byte	0x0
 3096              		.section	.debug_ranges,"",%progbits
 3097              	.Ldebug_ranges0:
 3098 0000 00000000 		.4byte	.LFB118
 3099 0004 1E000000 		.4byte	.LFE118
 3100 0008 00000000 		.4byte	.LFB119
 3101 000c 60000000 		.4byte	.LFE119
 3102 0010 00000000 		.4byte	.LFB121
 3103 0014 74010000 		.4byte	.LFE121
 3104 0018 00000000 		.4byte	.LFB120
 3105 001c B0000000 		.4byte	.LFE120
 3106 0020 00000000 		.4byte	.LFB122
 3107 0024 FC000000 		.4byte	.LFE122
 3108 0028 00000000 		.4byte	.LFB123
 3109 002c B4010000 		.4byte	.LFE123
 3110 0030 00000000 		.4byte	0x0
 3111 0034 00000000 		.4byte	0x0
 3112              		.section	.debug_str,"MS",%progbits,1
 3113              	.LASF30:
 3114 0000 44494552 		.ascii	"DIER\000"
 3114      00
 3115              	.LASF10:
 3116 0005 73697A65 		.ascii	"size_t\000"
 3116      5F7400
 3117              	.LASF70:
 3118 000c 63727569 		.ascii	"cruiseCalc\000"
 3118      73654361 
 3118      6C6300
 3119              	.LASF75:
 3120 0017 737A616D 		.ascii	"szam\000"
ARM GAS  C:\Users\DNIEL~1\AppData\Local\Temp\cc55tULl.s 			page 58


 3120      00
 3121              	.LASF82:
 3122 001c 4D41585F 		.ascii	"MAX_D\000"
 3122      4400
 3123              	.LASF36:
 3124 0022 43434D52 		.ascii	"CCMR3\000"
 3124      3300
 3125              	.LASF47:
 3126 0028 70657269 		.ascii	"period\000"
 3126      6F6400
 3127              	.LASF6:
 3128 002f 6C6F6E67 		.ascii	"long long unsigned int\000"
 3128      206C6F6E 
 3128      6720756E 
 3128      7369676E 
 3128      65642069 
 3129              	.LASF23:
 3130 0046 42617365 		.ascii	"BaseChannelVMT\000"
 3130      4368616E 
 3130      6E656C56 
 3130      4D5400
 3131              	.LASF38:
 3132 0055 43435236 		.ascii	"CCR6\000"
 3132      00
 3133              	.LASF76:
 3134 005a 49544D5F 		.ascii	"ITM_RxBuffer\000"
 3134      52784275 
 3134      66666572 
 3134      00
 3135              	.LASF34:
 3136 0067 42445452 		.ascii	"BDTR\000"
 3136      00
 3137              	.LASF55:
 3138 006c 66726571 		.ascii	"frequency\000"
 3138      75656E63 
 3138      7900
 3139              	.LASF42:
 3140 0076 50574D5F 		.ascii	"PWM_READY\000"
 3140      52454144 
 3140      5900
 3141              	.LASF27:
 3142 0080 72656164 		.ascii	"readt\000"
 3142      7400
 3143              	.LASF12:
 3144 0086 696E7431 		.ascii	"int16_t\000"
 3144      365F7400 
 3145              	.LASF32:
 3146 008e 43434D52 		.ascii	"CCMR2\000"
 3146      3200
 3147              	.LASF5:
 3148 0094 6C6F6E67 		.ascii	"long long int\000"
 3148      206C6F6E 
 3148      6720696E 
 3148      7400
 3149              	.LASF0:
 3150 00a2 7369676E 		.ascii	"signed char\000"
 3150      65642063 
ARM GAS  C:\Users\DNIEL~1\AppData\Local\Temp\cc55tULl.s 			page 59


 3150      68617200 
 3151              	.LASF39:
 3152 00ae 73746D33 		.ascii	"stm32_tim_t\000"
 3152      325F7469 
 3152      6D5F7400 
 3153              	.LASF87:
 3154 00ba 433A5C44 		.ascii	"C:\\Dani\\MegaLux\\Repo\\Smarty\\Smarty\\smarty\\fi"
 3154      616E695C 
 3154      4D656761 
 3154      4C75785C 
 3154      5265706F 
 3155 00e6 726D7761 		.ascii	"rmware\000"
 3155      726500
 3156              	.LASF45:
 3157 00ed 73746174 		.ascii	"state\000"
 3157      6500
 3158              	.LASF56:
 3159 00f3 6368616E 		.ascii	"channels\000"
 3159      6E656C73 
 3159      00
 3160              	.LASF7:
 3161 00fc 6C6F6E67 		.ascii	"long int\000"
 3161      20696E74 
 3161      00
 3162              	.LASF25:
 3163 0105 67657474 		.ascii	"gett\000"
 3163      00
 3164              	.LASF60:
 3165 010a 5F5F7661 		.ascii	"__va_list\000"
 3165      5F6C6973 
 3165      7400
 3166              	.LASF33:
 3167 0114 43434552 		.ascii	"CCER\000"
 3167      00
 3168              	.LASF13:
 3169 0119 75696E74 		.ascii	"uint16_t\000"
 3169      31365F74 
 3169      00
 3170              	.LASF77:
 3171 0122 50574D44 		.ascii	"PWMD5\000"
 3171      3500
 3172              	.LASF61:
 3173 0128 76615F6C 		.ascii	"va_list\000"
 3173      69737400 
 3174              	.LASF21:
 3175 0130 42617365 		.ascii	"BaseSequentialStream\000"
 3175      53657175 
 3175      656E7469 
 3175      616C5374 
 3175      7265616D 
 3176              	.LASF4:
 3177 0145 756E7369 		.ascii	"unsigned int\000"
 3177      676E6564 
 3177      20696E74 
 3177      00
 3178              	.LASF8:
 3179 0152 6C6F6E67 		.ascii	"long unsigned int\000"
ARM GAS  C:\Users\DNIEL~1\AppData\Local\Temp\cc55tULl.s 			page 60


 3179      20756E73 
 3179      69676E65 
 3179      6420696E 
 3179      7400
 3180              	.LASF84:
 3181 0164 63727569 		.ascii	"cruise_pwmcfg\000"
 3181      73655F70 
 3181      776D6366 
 3181      6700
 3182              	.LASF79:
 3183 0172 4D494E5F 		.ascii	"MIN_U\000"
 3183      5500
 3184              	.LASF50:
 3185 0178 70776D6D 		.ascii	"pwmmode_t\000"
 3185      6F64655F 
 3185      7400
 3186              	.LASF67:
 3187 0182 4D617844 		.ascii	"MaxD\000"
 3187      00
 3188              	.LASF3:
 3189 0187 73686F72 		.ascii	"short unsigned int\000"
 3189      7420756E 
 3189      7369676E 
 3189      65642069 
 3189      6E7400
 3190              	.LASF66:
 3191 019a 4D617849 		.ascii	"MaxI\000"
 3191      00
 3192              	.LASF74:
 3193 019f 636D645F 		.ascii	"cmd_setcruisevalues\000"
 3193      73657463 
 3193      72756973 
 3193      6576616C 
 3193      75657300 
 3194              	.LASF17:
 3195 01b3 6D73675F 		.ascii	"msg_t\000"
 3195      7400
 3196              	.LASF81:
 3197 01b9 4D41585F 		.ascii	"MAX_I\000"
 3197      4900
 3198              	.LASF53:
 3199 01bf 63616C6C 		.ascii	"callback\000"
 3199      6261636B 
 3199      00
 3200              	.LASF26:
 3201 01c8 77726974 		.ascii	"writet\000"
 3201      657400
 3202              	.LASF80:
 3203 01cf 4D41585F 		.ascii	"MAX_P\000"
 3203      5000
 3204              	.LASF78:
 3205 01d5 4D41585F 		.ascii	"MAX_U\000"
 3205      5500
 3206              	.LASF19:
 3207 01db 77726974 		.ascii	"write\000"
 3207      6500
 3208              	.LASF24:
ARM GAS  C:\Users\DNIEL~1\AppData\Local\Temp\cc55tULl.s 			page 61


 3209 01e1 70757474 		.ascii	"putt\000"
 3209      00
 3210              	.LASF91:
 3211 01e6 4552524F 		.ascii	"ERROR\000"
 3211      5200
 3212              	.LASF59:
 3213 01ec 5F5F676E 		.ascii	"__gnuc_va_list\000"
 3213      75635F76 
 3213      615F6C69 
 3213      737400
 3214              	.LASF65:
 3215 01fb 4D617850 		.ascii	"MaxP\000"
 3215      00
 3216              	.LASF63:
 3217 0200 4D617855 		.ascii	"MaxU\000"
 3217      00
 3218              	.LASF86:
 3219 0205 7372632F 		.ascii	"src/cruise.c\000"
 3219      63727569 
 3219      73652E63 
 3219      00
 3220              	.LASF62:
 3221 0212 496E7075 		.ascii	"Input\000"
 3221      7400
 3222              	.LASF49:
 3223 0218 70776D63 		.ascii	"pwmcallback_t\000"
 3223      616C6C62 
 3223      61636B5F 
 3223      7400
 3224              	.LASF16:
 3225 0226 5F426F6F 		.ascii	"_Bool\000"
 3225      6C00
 3226              	.LASF14:
 3227 022c 696E7433 		.ascii	"int32_t\000"
 3227      325F7400 
 3228              	.LASF1:
 3229 0234 756E7369 		.ascii	"unsigned char\000"
 3229      676E6564 
 3229      20636861 
 3229      7200
 3230              	.LASF64:
 3231 0242 4D696E55 		.ascii	"MinU\000"
 3231      00
 3232              	.LASF69:
 3233 0247 63727569 		.ascii	"cruiseInit\000"
 3233      7365496E 
 3233      697400
 3234              	.LASF2:
 3235 0252 73686F72 		.ascii	"short int\000"
 3235      7420696E 
 3235      7400
 3236              	.LASF22:
 3237 025c 42617365 		.ascii	"BaseSequentialStreamVMT\000"
 3237      53657175 
 3237      656E7469 
 3237      616C5374 
 3237      7265616D 
ARM GAS  C:\Users\DNIEL~1\AppData\Local\Temp\cc55tULl.s 			page 62


 3238              	.LASF73:
 3239 0274 636D645F 		.ascii	"cmd_cruisevalues\000"
 3239      63727569 
 3239      73657661 
 3239      6C756573 
 3239      00
 3240              	.LASF15:
 3241 0285 75696E74 		.ascii	"uint32_t\000"
 3241      33325F74 
 3241      00
 3242              	.LASF58:
 3243 028e 50574D43 		.ascii	"PWMConfig\000"
 3243      6F6E6669 
 3243      6700
 3244              	.LASF41:
 3245 0298 50574D5F 		.ascii	"PWM_STOP\000"
 3245      53544F50 
 3245      00
 3246              	.LASF9:
 3247 02a1 63686172 		.ascii	"char\000"
 3247      00
 3248              	.LASF52:
 3249 02a6 6D6F6465 		.ascii	"mode\000"
 3249      00
 3250              	.LASF29:
 3251 02ab 534D4352 		.ascii	"SMCR\000"
 3251      00
 3252              	.LASF46:
 3253 02b0 636F6E66 		.ascii	"config\000"
 3253      696700
 3254              	.LASF35:
 3255 02b7 444D4152 		.ascii	"DMAR\000"
 3255      00
 3256              	.LASF18:
 3257 02bc 73797374 		.ascii	"systime_t\000"
 3257      696D655F 
 3257      7400
 3258              	.LASF88:
 3259 02c6 5F5F6170 		.ascii	"__ap\000"
 3259      00
 3260              	.LASF31:
 3261 02cb 43434D52 		.ascii	"CCMR1\000"
 3261      3100
 3262              	.LASF54:
 3263 02d1 50574D43 		.ascii	"PWMChannelConfig\000"
 3263      68616E6E 
 3263      656C436F 
 3263      6E666967 
 3263      00
 3264              	.LASF37:
 3265 02e2 43435235 		.ascii	"CCR5\000"
 3265      00
 3266              	.LASF83:
 3267 02e7 65656C6F 		.ascii	"eelozo\000"
 3267      7A6F00
 3268              	.LASF11:
 3269 02ee 75696E74 		.ascii	"uint8_t\000"
ARM GAS  C:\Users\DNIEL~1\AppData\Local\Temp\cc55tULl.s 			page 63


 3269      385F7400 
 3270              	.LASF44:
 3271 02f6 50574D44 		.ascii	"PWMDriver\000"
 3271      72697665 
 3271      7200
 3272              	.LASF28:
 3273 0300 42617365 		.ascii	"BaseChannel\000"
 3273      4368616E 
 3273      6E656C00 
 3274              	.LASF43:
 3275 030c 70776D73 		.ascii	"pwmstate_t\000"
 3275      74617465 
 3275      5F7400
 3276              	.LASF51:
 3277 0317 70776D63 		.ascii	"pwmcnt_t\000"
 3277      6E745F74 
 3277      00
 3278              	.LASF20:
 3279 0320 72656164 		.ascii	"read\000"
 3279      00
 3280              	.LASF85:
 3281 0325 474E5520 		.ascii	"GNU C 4.5.2\000"
 3281      4320342E 
 3281      352E3200 
 3282              	.LASF71:
 3283 0331 61726763 		.ascii	"argc\000"
 3283      00
 3284              	.LASF48:
 3285 0336 636C6F63 		.ascii	"clock\000"
 3285      6B00
 3286              	.LASF72:
 3287 033c 61726776 		.ascii	"argv\000"
 3287      00
 3288              	.LASF90:
 3289 0341 63727569 		.ascii	"cruisePID\000"
 3289      73655049 
 3289      4400
 3290              	.LASF40:
 3291 034b 50574D5F 		.ascii	"PWM_UNINIT\000"
 3291      554E494E 
 3291      495400
 3292              	.LASF68:
 3293 0356 646F7562 		.ascii	"double\000"
 3293      6C6500
 3294              	.LASF57:
 3295 035d 64696572 		.ascii	"dier\000"
 3295      00
 3296              	.LASF89:
 3297 0362 63687072 		.ascii	"chprintf\000"
 3297      696E7466 
 3297      00
 3298              		.ident	"GCC: (Sourcery G++ Lite 2011.03-42) 4.5.2"
ARM GAS  C:\Users\DNIEL~1\AppData\Local\Temp\cc55tULl.s 			page 64


DEFINED SYMBOLS
                            *ABS*:00000000 cruise.c
C:\Users\DNIEL~1\AppData\Local\Temp\cc55tULl.s:24     .text.chprintf:00000000 $t
C:\Users\DNIEL~1\AppData\Local\Temp\cc55tULl.s:29     .text.chprintf:00000000 chprintf
C:\Users\DNIEL~1\AppData\Local\Temp\cc55tULl.s:69     .text.cruiseInit:00000000 $t
C:\Users\DNIEL~1\AppData\Local\Temp\cc55tULl.s:75     .text.cruiseInit:00000000 cruiseInit
C:\Users\DNIEL~1\AppData\Local\Temp\cc55tULl.s:124    .text.cruiseInit:0000003c $d
C:\Users\DNIEL~1\AppData\Local\Temp\cc55tULl.s:144    .text.cruisePID:00000000 $t
C:\Users\DNIEL~1\AppData\Local\Temp\cc55tULl.s:150    .text.cruisePID:00000000 cruisePID
C:\Users\DNIEL~1\AppData\Local\Temp\cc55tULl.s:348    .text.cruisePID:00000160 $d
C:\Users\DNIEL~1\AppData\Local\Temp\cc55tULl.s:357    .text.cruiseCalc:00000000 $t
C:\Users\DNIEL~1\AppData\Local\Temp\cc55tULl.s:363    .text.cruiseCalc:00000000 cruiseCalc
C:\Users\DNIEL~1\AppData\Local\Temp\cc55tULl.s:438    .text.cruiseCalc:00000088 $d
C:\Users\DNIEL~1\AppData\Local\Temp\cc55tULl.s:452    .text.cmd_cruisevalues:00000000 $t
C:\Users\DNIEL~1\AppData\Local\Temp\cc55tULl.s:458    .text.cmd_cruisevalues:00000000 cmd_cruisevalues
C:\Users\DNIEL~1\AppData\Local\Temp\cc55tULl.s:565    .text.cmd_cruisevalues:000000b8 $d
C:\Users\DNIEL~1\AppData\Local\Temp\cc55tULl.s:586    .text.cmd_setcruisevalues:00000000 $t
C:\Users\DNIEL~1\AppData\Local\Temp\cc55tULl.s:592    .text.cmd_setcruisevalues:00000000 cmd_setcruisevalues
C:\Users\DNIEL~1\AppData\Local\Temp\cc55tULl.s:817    .text.cmd_setcruisevalues:00000160 $d
C:\Users\DNIEL~1\AppData\Local\Temp\cc55tULl.s:842    .bss.P:00000000 $d
C:\Users\DNIEL~1\AppData\Local\Temp\cc55tULl.s:846    .bss.P:00000000 P
C:\Users\DNIEL~1\AppData\Local\Temp\cc55tULl.s:849    .data.K_D:00000000 $d
C:\Users\DNIEL~1\AppData\Local\Temp\cc55tULl.s:853    .data.K_D:00000000 K_D
C:\Users\DNIEL~1\AppData\Local\Temp\cc55tULl.s:856    .bss.set:00000000 $d
C:\Users\DNIEL~1\AppData\Local\Temp\cc55tULl.s:860    .bss.set:00000000 set
C:\Users\DNIEL~1\AppData\Local\Temp\cc55tULl.s:863    .data.K_I:00000000 $d
C:\Users\DNIEL~1\AppData\Local\Temp\cc55tULl.s:867    .data.K_I:00000000 K_I
C:\Users\DNIEL~1\AppData\Local\Temp\cc55tULl.s:870    .rodata.str1.4:00000000 $d
C:\Users\DNIEL~1\AppData\Local\Temp\cc55tULl.s:923    .bss.pwm:00000000 $d
C:\Users\DNIEL~1\AppData\Local\Temp\cc55tULl.s:927    .bss.pwm:00000000 pwm
C:\Users\DNIEL~1\AppData\Local\Temp\cc55tULl.s:930    .data.cruise_pwmcfg:00000000 $d
C:\Users\DNIEL~1\AppData\Local\Temp\cc55tULl.s:934    .data.cruise_pwmcfg:00000000 cruise_pwmcfg
C:\Users\DNIEL~1\AppData\Local\Temp\cc55tULl.s:950    .data.K_P:00000000 $d
C:\Users\DNIEL~1\AppData\Local\Temp\cc55tULl.s:954    .data.K_P:00000000 K_P
C:\Users\DNIEL~1\AppData\Local\Temp\cc55tULl.s:957    .bss.D:00000000 $d
C:\Users\DNIEL~1\AppData\Local\Temp\cc55tULl.s:961    .bss.D:00000000 D
C:\Users\DNIEL~1\AppData\Local\Temp\cc55tULl.s:964    .bss.e:00000000 $d
C:\Users\DNIEL~1\AppData\Local\Temp\cc55tULl.s:968    .bss.e:00000000 e
C:\Users\DNIEL~1\AppData\Local\Temp\cc55tULl.s:971    .bss.eelozo:00000000 $d
C:\Users\DNIEL~1\AppData\Local\Temp\cc55tULl.s:975    .bss.eelozo:00000000 eelozo
C:\Users\DNIEL~1\AppData\Local\Temp\cc55tULl.s:978    .bss.I:00000000 $d
C:\Users\DNIEL~1\AppData\Local\Temp\cc55tULl.s:982    .bss.I:00000000 I
                     .debug_frame:00000010 $d
C:\Users\DNIEL~1\AppData\Local\Temp\cc55tULl.s:356    .text.cruisePID:00000174 $t
C:\Users\DNIEL~1\AppData\Local\Temp\cc55tULl.s:585    .text.cmd_cruisevalues:000000fc $t
C:\Users\DNIEL~1\AppData\Local\Temp\cc55tULl.s:841    .text.cmd_setcruisevalues:000001b4 $t

UNDEFINED SYMBOLS
chvprintf
pwmStart
PWMD5
__aeabi_i2d
__aeabi_dmul
__aeabi_dcmpgt
__aeabi_dcmplt
__aeabi_dadd
__aeabi_dsub
ARM GAS  C:\Users\DNIEL~1\AppData\Local\Temp\cc55tULl.s 			page 65


__aeabi_d2iz
speedGetRpm
pwmEnableChannel
chThdSleep
strcmp
atol
