ARM GAS  C:\Users\DNIEL~1\AppData\Local\Temp\cckLhpUz.s 			page 1


   1              		.syntax unified
   2              		.cpu cortex-m4
   3              		.fpu softvfp
   4              		.eabi_attribute 20, 1
   5              		.eabi_attribute 21, 1
   6              		.eabi_attribute 23, 3
   7              		.eabi_attribute 24, 1
   8              		.eabi_attribute 25, 1
   9              		.eabi_attribute 26, 1
  10              		.eabi_attribute 30, 2
  11              		.eabi_attribute 34, 1
  12              		.eabi_attribute 18, 4
  13              		.thumb
  14              		.file	"cruise.c"
  15              		.text
  16              	.Ltext0:
  17              		.cfi_sections	.debug_frame
  18              		.section	.text.cruiseInit,"ax",%progbits
  19              		.align	2
  20              		.p2align 4,,15
  21              		.global	cruiseInit
  22              		.thumb
  23              		.thumb_func
  24              		.type	cruiseInit, %function
  25              	cruiseInit:
  26              	.LFB118:
  27              		.file 1 "src/cruise.c"
  28              		.loc 1 46 0
  29              		.cfi_startproc
  30              		@ args = 0, pretend = 0, frame = 0
  31              		@ frame_needed = 0, uses_anonymous_args = 0
  32              		@ link register save eliminated.
  33 0000 2DE9F007 		push	{r4, r5, r6, r7, r8, r9, sl}
  34              	.LCFI0:
  35              		.cfi_def_cfa_offset 28
  36              		.cfi_offset 4, -28
  37              		.cfi_offset 5, -24
  38              		.cfi_offset 6, -20
  39              		.cfi_offset 7, -16
  40              		.cfi_offset 8, -12
  41              		.cfi_offset 9, -8
  42              		.cfi_offset 10, -4
  43              		.loc 1 50 0
  44 0004 40F2000C 		movw	ip, #:lower16:.LANCHOR2
  45              		.loc 1 47 0
  46 0008 40F20009 		movw	r9, #:lower16:.LANCHOR0
  47              		.loc 1 55 0
  48 000c 40F20004 		movw	r4, #:lower16:.LANCHOR6
  49              		.loc 1 49 0
  50 0010 40F20008 		movw	r8, #:lower16:.LANCHOR1
  51              		.loc 1 51 0
  52 0014 40F20007 		movw	r7, #:lower16:.LANCHOR3
  53              		.loc 1 52 0
  54 0018 40F20006 		movw	r6, #:lower16:.LANCHOR4
  55              		.loc 1 53 0
  56 001c 40F20005 		movw	r5, #:lower16:.LANCHOR5
  57              		.loc 1 49 0
ARM GAS  C:\Users\DNIEL~1\AppData\Local\Temp\cckLhpUz.s 			page 2


  58 0020 0023     		movs	r3, #0
  59 0022 0022     		movs	r2, #0
  60              		.loc 1 47 0
  61 0024 C0F20009 		movt	r9, #:upper16:.LANCHOR0
  62              		.loc 1 55 0
  63 0028 C0F20004 		movt	r4, #:upper16:.LANCHOR6
  64              		.loc 1 49 0
  65 002c C0F20008 		movt	r8, #:upper16:.LANCHOR1
  66              		.loc 1 50 0
  67 0030 C0F2000C 		movt	ip, #:upper16:.LANCHOR2
  68              		.loc 1 51 0
  69 0034 C0F20007 		movt	r7, #:upper16:.LANCHOR3
  70              		.loc 1 52 0
  71 0038 C0F20006 		movt	r6, #:upper16:.LANCHOR4
  72              		.loc 1 53 0
  73 003c C0F20005 		movt	r5, #:upper16:.LANCHOR5
  74              		.loc 1 57 0
  75 0040 40F20000 		movw	r0, #:lower16:PWMD5
  76 0044 40F20001 		movw	r1, #:lower16:.LANCHOR7
  77              		.loc 1 47 0
  78 0048 4FF0000A 		mov	sl, #0
  79              		.loc 1 49 0
  80 004c C8E90023 		strd	r2, [r8]
  81              		.loc 1 50 0
  82 0050 CCE90023 		strd	r2, [ip]
  83              		.loc 1 51 0
  84 0054 C7E90023 		strd	r2, [r7]
  85              		.loc 1 52 0
  86 0058 C6E90023 		strd	r2, [r6]
  87              		.loc 1 53 0
  88 005c C5E90023 		strd	r2, [r5]
  89              		.loc 1 57 0
  90 0060 C0F20000 		movt	r0, #:upper16:PWMD5
  91              		.loc 1 55 0
  92 0064 4FF4FA73 		mov	r3, #500
  93              		.loc 1 57 0
  94 0068 C0F20001 		movt	r1, #:upper16:.LANCHOR7
  95              		.loc 1 47 0
  96 006c C9F800A0 		str	sl, [r9, #0]
  97              		.loc 1 55 0
  98 0070 2360     		str	r3, [r4, #0]
  99              		.loc 1 58 0
 100 0072 BDE8F007 		pop	{r4, r5, r6, r7, r8, r9, sl}
 101              		.loc 1 57 0
 102 0076 FFF7FEBF 		b	pwmStart
 103              	.LVL0:
 104              		.cfi_endproc
 105              	.LFE118:
 106              		.size	cruiseInit, .-cruiseInit
 107              		.global	__aeabi_i2d
 108              		.global	__aeabi_dmul
 109              		.global	__aeabi_dcmpgt
 110              		.global	__aeabi_dcmplt
 111              		.global	__aeabi_dadd
 112              		.global	__aeabi_dsub
 113              		.global	__aeabi_d2iz
 114 007a 00BFAFF3 		.section	.text.cruisePID,"ax",%progbits
ARM GAS  C:\Users\DNIEL~1\AppData\Local\Temp\cckLhpUz.s 			page 3


 114      0080
 115              		.align	2
 116              		.p2align 4,,15
 117              		.global	cruisePID
 118              		.thumb
 119              		.thumb_func
 120              		.type	cruisePID, %function
 121              	cruisePID:
 122              	.LFB120:
 123              		.loc 1 67 0
 124              		.cfi_startproc
 125              		@ args = 36, pretend = 0, frame = 16
 126              		@ frame_needed = 0, uses_anonymous_args = 0
 127              	.LVL1:
 128 0000 2DE9F04F 		push	{r4, r5, r6, r7, r8, r9, sl, fp, lr}
 129              	.LCFI1:
 130              		.cfi_def_cfa_offset 36
 131              		.cfi_offset 4, -36
 132              		.cfi_offset 5, -32
 133              		.cfi_offset 6, -28
 134              		.cfi_offset 7, -24
 135              		.cfi_offset 8, -20
 136              		.cfi_offset 9, -16
 137              		.cfi_offset 10, -12
 138              		.cfi_offset 11, -8
 139              		.cfi_offset 14, -4
 140 0004 85B0     		sub	sp, sp, #20
 141              	.LCFI2:
 142              		.cfi_def_cfa_offset 56
 143              		.loc 1 70 0
 144 0006 081A     		subs	r0, r1, r0
 145              	.LVL2:
 146              		.loc 1 67 0
 147 0008 0292     		str	r2, [sp, #8]
 148 000a 0393     		str	r3, [sp, #12]
 149              		.loc 1 70 0
 150 000c FFF7FEFF 		bl	__aeabi_i2d
 151              	.LVL3:
 152 0010 574C     		ldr	r4, .L27
 153              		.loc 1 67 0
 154 0012 149F     		ldr	r7, [sp, #80]
 155 0014 159E     		ldr	r6, [sp, #84]
 156              		.loc 1 70 0
 157 0016 8246     		mov	sl, r0
 158 0018 8B46     		mov	fp, r1
 159              		.loc 1 73 0
 160 001a DDE90E23 		ldrd	r2, [sp, #56]
 161              		.loc 1 70 0
 162 001e C4E900AB 		strd	sl, [r4]
 163              		.loc 1 73 0
 164 0022 FFF7FEFF 		bl	__aeabi_dmul
 165              	.LVL4:
 166 0026 0446     		mov	r4, r0
 167              		.loc 1 74 0
 168 0028 3846     		mov	r0, r7
 169              		.loc 1 73 0
 170 002a 0D46     		mov	r5, r1
ARM GAS  C:\Users\DNIEL~1\AppData\Local\Temp\cckLhpUz.s 			page 4


 171              		.loc 1 74 0
 172 002c FFF7FEFF 		bl	__aeabi_i2d
 173              	.LVL5:
 174 0030 8046     		mov	r8, r0
 175 0032 8946     		mov	r9, r1
 176 0034 2046     		mov	r0, r4
 177 0036 2946     		mov	r1, r5
 178 0038 4246     		mov	r2, r8
 179 003a 4B46     		mov	r3, r9
 180 003c FFF7FEFF 		bl	__aeabi_dcmpgt
 181              	.LVL6:
 182 0040 68B9     		cbnz	r0, .L6
 183              		.loc 1 77 0
 184 0042 7842     		negs	r0, r7
 185 0044 FFF7FEFF 		bl	__aeabi_i2d
 186              	.LVL7:
 187 0048 8046     		mov	r8, r0
 188 004a 8946     		mov	r9, r1
 189 004c 2046     		mov	r0, r4
 190 004e 2946     		mov	r1, r5
 191 0050 4246     		mov	r2, r8
 192 0052 4B46     		mov	r3, r9
 193 0054 FFF7FEFF 		bl	__aeabi_dcmplt
 194              	.LVL8:
 195 0058 0028     		cmp	r0, #0
 196 005a 00F08180 		beq	.L24
 197              	.L6:
 198              		.loc 1 78 0
 199 005e 4548     		ldr	r0, .L27+4
 200 0060 C0E90089 		strd	r8, [r0]
 201              	.L5:
 202              		.loc 1 83 0
 203 0064 444F     		ldr	r7, .L27+8
 204 0066 DDE91023 		ldrd	r2, [sp, #64]
 205 006a 5046     		mov	r0, sl
 206 006c 5946     		mov	r1, fp
 207 006e FFF7FEFF 		bl	__aeabi_dmul
 208              	.LVL9:
 209 0072 D7E90023 		ldrd	r2, [r7]
 210 0076 FFF7FEFF 		bl	__aeabi_dadd
 211              	.LVL10:
 212 007a 0446     		mov	r4, r0
 213              		.loc 1 84 0
 214 007c 3046     		mov	r0, r6
 215              		.loc 1 83 0
 216 007e 0D46     		mov	r5, r1
 217              		.loc 1 84 0
 218 0080 FFF7FEFF 		bl	__aeabi_i2d
 219              	.LVL11:
 220 0084 CDE90001 		strd	r0, [sp]
 221 0088 DDE90023 		ldrd	r2, [sp]
 222 008c 2046     		mov	r0, r4
 223 008e 2946     		mov	r1, r5
 224 0090 FFF7FEFF 		bl	__aeabi_dcmpgt
 225              	.LVL12:
 226 0094 60B9     		cbnz	r0, .L10
 227              		.loc 1 87 0
ARM GAS  C:\Users\DNIEL~1\AppData\Local\Temp\cckLhpUz.s 			page 5


 228 0096 7042     		negs	r0, r6
 229 0098 FFF7FEFF 		bl	__aeabi_i2d
 230              	.LVL13:
 231 009c CDE90001 		strd	r0, [sp]
 232 00a0 DDE90023 		ldrd	r2, [sp]
 233 00a4 2046     		mov	r0, r4
 234 00a6 2946     		mov	r1, r5
 235 00a8 FFF7FEFF 		bl	__aeabi_dcmplt
 236              	.LVL14:
 237 00ac 0028     		cmp	r0, #0
 238 00ae 52D0     		beq	.L25
 239              	.L10:
 240              		.loc 1 88 0
 241 00b0 DDE90023 		ldrd	r2, [sp]
 242 00b4 C7E90023 		strd	r2, [r7]
 243              	.L9:
 244              		.loc 1 93 0
 245 00b8 40F20005 		movw	r5, #:lower16:.LANCHOR4
 246 00bc C0F20005 		movt	r5, #:upper16:.LANCHOR4
 247 00c0 D5E90023 		ldrd	r2, [r5]
 248 00c4 5046     		mov	r0, sl
 249 00c6 5946     		mov	r1, fp
 250 00c8 FFF7FEFF 		bl	__aeabi_dsub
 251              	.LVL15:
 252 00cc DDE91223 		ldrd	r2, [sp, #72]
 253 00d0 FFF7FEFF 		bl	__aeabi_dmul
 254              	.LVL16:
 255 00d4 0646     		mov	r6, r0
 256              		.loc 1 94 0
 257 00d6 1698     		ldr	r0, [sp, #88]
 258              		.loc 1 93 0
 259 00d8 0F46     		mov	r7, r1
 260              		.loc 1 94 0
 261 00da FFF7FEFF 		bl	__aeabi_i2d
 262              	.LVL17:
 263 00de 0446     		mov	r4, r0
 264 00e0 0D46     		mov	r5, r1
 265 00e2 3046     		mov	r0, r6
 266 00e4 3946     		mov	r1, r7
 267 00e6 2246     		mov	r2, r4
 268 00e8 2B46     		mov	r3, r5
 269 00ea FFF7FEFF 		bl	__aeabi_dcmpgt
 270              	.LVL18:
 271 00ee 68B9     		cbnz	r0, .L14
 272              		.loc 1 97 0
 273 00f0 1699     		ldr	r1, [sp, #88]
 274 00f2 4842     		negs	r0, r1
 275 00f4 FFF7FEFF 		bl	__aeabi_i2d
 276              	.LVL19:
 277 00f8 0446     		mov	r4, r0
 278 00fa 0D46     		mov	r5, r1
 279 00fc 3046     		mov	r0, r6
 280 00fe 3946     		mov	r1, r7
 281 0100 2246     		mov	r2, r4
 282 0102 2B46     		mov	r3, r5
 283 0104 FFF7FEFF 		bl	__aeabi_dcmplt
 284              	.LVL20:
ARM GAS  C:\Users\DNIEL~1\AppData\Local\Temp\cckLhpUz.s 			page 6


 285 0108 0028     		cmp	r0, #0
 286 010a 1ED0     		beq	.L26
 287              	.L14:
 288              		.loc 1 98 0
 289 010c 1B48     		ldr	r0, .L27+12
 290 010e C0E90045 		strd	r4, [r0]
 291              	.L13:
 292              		.loc 1 103 0
 293 0112 4246     		mov	r2, r8
 294 0114 4B46     		mov	r3, r9
 295 0116 DDE90001 		ldrd	r0, [sp]
 296 011a FFF7FEFF 		bl	__aeabi_dadd
 297              	.LVL21:
 298 011e 2246     		mov	r2, r4
 299 0120 2B46     		mov	r3, r5
 300 0122 FFF7FEFF 		bl	__aeabi_dadd
 301              	.LVL22:
 302 0126 FFF7FEFF 		bl	__aeabi_d2iz
 303              	.LVL23:
 304              		.loc 1 105 0
 305 012a 029C     		ldr	r4, [sp, #8]
 306 012c A042     		cmp	r0, r4
 307 012e 1DDC     		bgt	.L16
 308 0130 039C     		ldr	r4, [sp, #12]
 309 0132 A042     		cmp	r0, r4
 310 0134 B8BF     		it	lt
 311 0136 2046     		movlt	r0, r4
 312              	.LVL24:
 313              	.L15:
 314              		.loc 1 111 0
 315 0138 40F20002 		movw	r2, #:lower16:.LANCHOR4
 316 013c C0F20002 		movt	r2, #:upper16:.LANCHOR4
 317 0140 C2E900AB 		strd	sl, [r2]
 318              		.loc 1 114 0
 319 0144 05B0     		add	sp, sp, #20
 320 0146 BDE8F08F 		pop	{r4, r5, r6, r7, r8, r9, sl, fp, pc}
 321              	.LVL25:
 322              	.L26:
 323              		.loc 1 93 0
 324 014a 0C4B     		ldr	r3, .L27+12
 325 014c 3446     		mov	r4, r6
 326 014e 3D46     		mov	r5, r7
 327 0150 C3E90067 		strd	r6, [r3]
 328 0154 DDE7     		b	.L13
 329              	.L25:
 330              		.loc 1 83 0
 331 0156 C7E90045 		strd	r4, [r7]
 332 015a CDE90045 		strd	r4, [sp]
 333 015e ABE7     		b	.L9
 334              	.L24:
 335              		.loc 1 73 0
 336 0160 044B     		ldr	r3, .L27+4
 337 0162 A046     		mov	r8, r4
 338 0164 A946     		mov	r9, r5
 339 0166 C3E90045 		strd	r4, [r3]
 340 016a 7BE7     		b	.L5
 341              	.LVL26:
ARM GAS  C:\Users\DNIEL~1\AppData\Local\Temp\cckLhpUz.s 			page 7


 342              	.L16:
 343              		.loc 1 105 0
 344 016c 0298     		ldr	r0, [sp, #8]
 345              	.LVL27:
 346 016e E3E7     		b	.L15
 347              	.L28:
 348              		.align	2
 349              	.L27:
 350 0170 00000000 		.word	.LANCHOR5
 351 0174 00000000 		.word	.LANCHOR1
 352 0178 00000000 		.word	.LANCHOR2
 353 017c 00000000 		.word	.LANCHOR3
 354              		.cfi_endproc
 355              	.LFE120:
 356              		.size	cruisePID, .-cruisePID
 357              		.section	.text.cruiseCalc,"ax",%progbits
 358              		.align	2
 359              		.p2align 4,,15
 360              		.global	cruiseCalc
 361              		.thumb
 362              		.thumb_func
 363              		.type	cruiseCalc, %function
 364              	cruiseCalc:
 365              	.LFB119:
 366              		.loc 1 60 0
 367              		.cfi_startproc
 368              		@ args = 0, pretend = 0, frame = 0
 369              		@ frame_needed = 0, uses_anonymous_args = 0
 370 0000 70B5     		push	{r4, r5, r6, lr}
 371              	.LCFI3:
 372              		.cfi_def_cfa_offset 16
 373              		.cfi_offset 4, -16
 374              		.cfi_offset 5, -12
 375              		.cfi_offset 6, -8
 376              		.cfi_offset 14, -4
 377 0002 8AB0     		sub	sp, sp, #40
 378              	.LCFI4:
 379              		.cfi_def_cfa_offset 56
 380              		.loc 1 61 0
 381 0004 FFF7FEFF 		bl	speedGetRpm
 382              	.LVL28:
 383 0008 40F20002 		movw	r2, #:lower16:.LANCHOR8
 384 000c C0F20002 		movt	r2, #:upper16:.LANCHOR8
 385 0010 40F20003 		movw	r3, #:lower16:.LANCHOR6
 386 0014 C0F20003 		movt	r3, #:upper16:.LANCHOR6
 387 0018 05B2     		sxth	r5, r0
 388 001a B2F90000 		ldrsh	r0, [r2, #0]
 389 001e B3F90060 		ldrsh	r6, [r3, #0]
 390 0022 FFF7FEFF 		bl	__aeabi_i2d
 391              	.LVL29:
 392 0026 40F20004 		movw	r4, #:lower16:.LANCHOR9
 393 002a CDE90001 		strd	r0, [sp]
 394 002e C0F20004 		movt	r4, #:upper16:.LANCHOR9
 395 0032 B4F90000 		ldrsh	r0, [r4, #0]
 396 0036 FFF7FEFF 		bl	__aeabi_i2d
 397              	.LVL30:
 398 003a 40F20002 		movw	r2, #:lower16:.LANCHOR10
ARM GAS  C:\Users\DNIEL~1\AppData\Local\Temp\cckLhpUz.s 			page 8


 399 003e CDE90201 		strd	r0, [sp, #8]
 400 0042 C0F20002 		movt	r2, #:upper16:.LANCHOR10
 401 0046 44F24024 		movw	r4, #16960
 402 004a B2F90000 		ldrsh	r0, [r2, #0]
 403 004e FFF7FEFF 		bl	__aeabi_i2d
 404              	.LVL31:
 405 0052 C0F20F04 		movt	r4, 15
 406 0056 4EF61033 		movw	r3, #60176
 407 005a CDE90401 		strd	r0, [sp, #16]
 408 005e 2246     		mov	r2, r4
 409 0060 3146     		mov	r1, r6
 410 0062 0694     		str	r4, [sp, #24]
 411 0064 0794     		str	r4, [sp, #28]
 412 0066 0894     		str	r4, [sp, #32]
 413 0068 2846     		mov	r0, r5
 414 006a C0F20903 		movt	r3, 9
 415 006e FFF7FEFF 		bl	cruisePID
 416              	.LVL32:
 417              		.loc 1 63 0
 418 0072 40F20003 		movw	r3, #:lower16:PWMD5
 419 0076 C0F20003 		movt	r3, #:upper16:PWMD5
 420              		.loc 1 61 0
 421 007a 48F21F51 		movw	r1, #34079
 422 007e C5F2EB11 		movt	r1, 20971
 423 0082 81FB0025 		smull	r2, r5, r1, r0
 424 0086 C017     		asrs	r0, r0, #31
 425              		.loc 1 63 0
 426 0088 1989     		ldrh	r1, [r3, #8]
 427              		.loc 1 61 0
 428 008a C0EB6515 		rsb	r5, r0, r5, asr #5
 429              		.loc 1 63 0
 430 008e 41F25972 		movw	r2, #5977
 431 0092 01FB05F0 		mul	r0, r1, r5
 432              		.loc 1 61 0
 433 0096 40F20004 		movw	r4, #:lower16:.LANCHOR0
 434              		.loc 1 63 0
 435 009a CDF2B712 		movt	r2, 53687
 436              		.loc 1 61 0
 437 009e C0F20004 		movt	r4, #:upper16:.LANCHOR0
 438              		.loc 1 63 0
 439 00a2 A2FB0002 		umull	r0, r2, r2, r0
 440 00a6 0221     		movs	r1, #2
 441 00a8 1846     		mov	r0, r3
 442 00aa C2F34F32 		ubfx	r2, r2, #13, #16
 443              		.loc 1 61 0
 444 00ae 2560     		str	r5, [r4, #0]
 445              		.loc 1 64 0
 446 00b0 0AB0     		add	sp, sp, #40
 447 00b2 BDE87040 		pop	{r4, r5, r6, lr}
 448              		.loc 1 63 0
 449 00b6 FFF7FEBF 		b	pwmEnableChannel
 450              	.LVL33:
 451              		.cfi_endproc
 452              	.LFE119:
 453              		.size	cruiseCalc, .-cruiseCalc
 454 00ba 00BFAFF3 		.section	.text.cmd_cruisevalues,"ax",%progbits
 454      0080
ARM GAS  C:\Users\DNIEL~1\AppData\Local\Temp\cckLhpUz.s 			page 9


 455              		.align	2
 456              		.p2align 4,,15
 457              		.global	cmd_cruisevalues
 458              		.thumb
 459              		.thumb_func
 460              		.type	cmd_cruisevalues, %function
 461              	cmd_cruisevalues:
 462              	.LFB121:
 463              		.loc 1 116 0
 464              		.cfi_startproc
 465              		@ args = 0, pretend = 0, frame = 0
 466              		@ frame_needed = 0, uses_anonymous_args = 0
 467              	.LVL34:
 468 0000 2DE9F843 		push	{r3, r4, r5, r6, r7, r8, r9, lr}
 469              	.LCFI5:
 470              		.cfi_def_cfa_offset 32
 471              		.cfi_offset 3, -32
 472              		.cfi_offset 4, -28
 473              		.cfi_offset 5, -24
 474              		.cfi_offset 6, -20
 475              		.cfi_offset 7, -16
 476              		.cfi_offset 8, -12
 477              		.cfi_offset 9, -8
 478              		.cfi_offset 14, -4
 479              		.loc 1 120 0
 480 0004 2C49     		ldr	r1, .L33
 481              	.LVL35:
 482              		.loc 1 125 0
 483 0006 DFF8EC90 		ldr	r9, .L33+60
 484 000a DFF8EC80 		ldr	r8, .L33+64
 485              		.loc 1 126 0
 486 000e 2B4F     		ldr	r7, .L33+4
 487 0010 2B4E     		ldr	r6, .L33+8
 488              		.loc 1 116 0
 489 0012 0446     		mov	r4, r0
 490              		.loc 1 120 0
 491 0014 FFF7FEFF 		bl	chprintf
 492              	.LVL36:
 493              		.loc 1 121 0
 494 0018 2046     		mov	r0, r4
 495 001a 2A49     		ldr	r1, .L33+12
 496 001c FFF7FEFF 		bl	chprintf
 497              	.LVL37:
 498              		.loc 1 122 0
 499 0020 3DE0     		b	.L31
 500              	.LVL38:
 501              	.L32:
 502              		.loc 1 123 0
 503 0022 FFF7FEFF 		bl	chprintf
 504              	.LVL39:
 505              		.loc 1 125 0
 506 0026 D8E90001 		ldrd	r0, [r8]
 507 002a FFF7FEFF 		bl	__aeabi_d2iz
 508              	.LVL40:
 509 002e B9F90050 		ldrsh	r5, [r9, #0]
 510 0032 2549     		ldr	r1, .L33+16
 511 0034 0346     		mov	r3, r0
ARM GAS  C:\Users\DNIEL~1\AppData\Local\Temp\cckLhpUz.s 			page 10


 512 0036 2A46     		mov	r2, r5
 513 0038 2046     		mov	r0, r4
 514 003a FFF7FEFF 		bl	chprintf
 515              	.LVL41:
 516              		.loc 1 126 0
 517 003e D6E90001 		ldrd	r0, [r6]
 518 0042 FFF7FEFF 		bl	__aeabi_d2iz
 519              	.LVL42:
 520 0046 B7F90050 		ldrsh	r5, [r7, #0]
 521 004a 2049     		ldr	r1, .L33+20
 522 004c 0346     		mov	r3, r0
 523 004e 2A46     		mov	r2, r5
 524 0050 2046     		mov	r0, r4
 525 0052 FFF7FEFF 		bl	chprintf
 526              	.LVL43:
 527              		.loc 1 127 0
 528 0056 1E48     		ldr	r0, .L33+24
 529 0058 1E49     		ldr	r1, .L33+28
 530 005a B0F90050 		ldrsh	r5, [r0, #0]
 531 005e D1E90001 		ldrd	r0, [r1]
 532 0062 FFF7FEFF 		bl	__aeabi_d2iz
 533              	.LVL44:
 534 0066 1C49     		ldr	r1, .L33+32
 535 0068 0346     		mov	r3, r0
 536 006a 2A46     		mov	r2, r5
 537 006c 2046     		mov	r0, r4
 538 006e FFF7FEFF 		bl	chprintf
 539              	.LVL45:
 540              		.loc 1 128 0
 541 0072 1A4B     		ldr	r3, .L33+36
 542 0074 1A49     		ldr	r1, .L33+40
 543 0076 1A68     		ldr	r2, [r3, #0]
 544 0078 2046     		mov	r0, r4
 545 007a FFF7FEFF 		bl	chprintf
 546              	.LVL46:
 547              		.loc 1 129 0
 548 007e 194A     		ldr	r2, .L33+44
 549 0080 1949     		ldr	r1, .L33+48
 550 0082 1268     		ldr	r2, [r2, #0]
 551 0084 2046     		mov	r0, r4
 552 0086 FFF7FEFF 		bl	chprintf
 553              	.LVL47:
 554              		.loc 1 130 0
 555 008a FFF7FEFF 		bl	speedGetRpm
 556              	.LVL48:
 557 008e 1749     		ldr	r1, .L33+52
 558 0090 0246     		mov	r2, r0
 559 0092 2046     		mov	r0, r4
 560 0094 FFF7FEFF 		bl	chprintf
 561              	.LVL49:
 562              		.loc 1 132 0
 563 0098 6420     		movs	r0, #100
 564 009a FFF7FEFF 		bl	chThdSleep
 565              	.LVL50:
 566              	.L31:
 567              		.loc 1 122 0 discriminator 1
 568 009e 2368     		ldr	r3, [r4, #0]
ARM GAS  C:\Users\DNIEL~1\AppData\Local\Temp\cckLhpUz.s 			page 11


 569 00a0 0021     		movs	r1, #0
 570 00a2 5A69     		ldr	r2, [r3, #20]
 571 00a4 2046     		mov	r0, r4
 572 00a6 9047     		blx	r2
 573              	.LVL51:
 574              		.loc 1 123 0 discriminator 1
 575 00a8 0022     		movs	r2, #0
 576              		.loc 1 122 0 discriminator 1
 577 00aa 0130     		adds	r0, r0, #1
 578              		.loc 1 123 0 discriminator 1
 579 00ac 1346     		mov	r3, r2
 580 00ae 1049     		ldr	r1, .L33+56
 581 00b0 2046     		mov	r0, r4
 582              		.loc 1 122 0 discriminator 1
 583 00b2 B6D0     		beq	.L32
 584              	.LVL52:
 585              		.loc 1 134 0
 586 00b4 BDE8F883 		pop	{r3, r4, r5, r6, r7, r8, r9, pc}
 587              	.L34:
 588              		.align	2
 589              	.L33:
 590 00b8 00000000 		.word	.LC0
 591 00bc 00000000 		.word	.LANCHOR9
 592 00c0 00000000 		.word	.LANCHOR2
 593 00c4 04000000 		.word	.LC1
 594 00c8 18000000 		.word	.LC3
 595 00cc 30000000 		.word	.LC4
 596 00d0 00000000 		.word	.LANCHOR10
 597 00d4 00000000 		.word	.LANCHOR3
 598 00d8 48000000 		.word	.LC5
 599 00dc 00000000 		.word	.LANCHOR0
 600 00e0 60000000 		.word	.LC6
 601 00e4 00000000 		.word	.LANCHOR6
 602 00e8 6C000000 		.word	.LC7
 603 00ec 7C000000 		.word	.LC8
 604 00f0 0C000000 		.word	.LC2
 605 00f4 00000000 		.word	.LANCHOR8
 606 00f8 00000000 		.word	.LANCHOR1
 607              		.cfi_endproc
 608              	.LFE121:
 609              		.size	cmd_cruisevalues, .-cmd_cruisevalues
 610 00fc AFF30080 		.section	.text.cmd_setcruisevalues,"ax",%progbits
 611              		.align	2
 612              		.p2align 4,,15
 613              		.global	cmd_setcruisevalues
 614              		.thumb
 615              		.thumb_func
 616              		.type	cmd_setcruisevalues, %function
 617              	cmd_setcruisevalues:
 618              	.LFB122:
 619              		.loc 1 136 0
 620              		.cfi_startproc
 621              		@ args = 0, pretend = 0, frame = 0
 622              		@ frame_needed = 0, uses_anonymous_args = 0
 623              	.LVL53:
 624 0000 F8B5     		push	{r3, r4, r5, r6, r7, lr}
 625              	.LCFI6:
ARM GAS  C:\Users\DNIEL~1\AppData\Local\Temp\cckLhpUz.s 			page 12


 626              		.cfi_def_cfa_offset 24
 627              		.cfi_offset 3, -24
 628              		.cfi_offset 4, -20
 629              		.cfi_offset 5, -16
 630              		.cfi_offset 6, -12
 631              		.cfi_offset 7, -8
 632              		.cfi_offset 14, -4
 633              		.loc 1 136 0
 634 0002 0446     		mov	r4, r0
 635 0004 0D46     		mov	r5, r1
 636              		.loc 1 142 0
 637 0006 5649     		ldr	r1, .L63+8
 638              	.LVL54:
 639              		.loc 1 136 0
 640 0008 1646     		mov	r6, r2
 641              		.loc 1 142 0
 642 000a FFF7FEFF 		bl	chprintf
 643              	.LVL55:
 644              		.loc 1 143 0
 645 000e 2046     		mov	r0, r4
 646 0010 5449     		ldr	r1, .L63+12
 647 0012 FFF7FEFF 		bl	chprintf
 648              	.LVL56:
 649              		.loc 1 144 0
 650 0016 2368     		ldr	r3, [r4, #0]
 651 0018 0021     		movs	r1, #0
 652 001a 2046     		mov	r0, r4
 653 001c 5A69     		ldr	r2, [r3, #20]
 654 001e 9047     		blx	r2
 655              	.LVL57:
 656 0020 0130     		adds	r0, r0, #1
 657 0022 00D0     		beq	.L57
 658 0024 F8BD     		pop	{r3, r4, r5, r6, r7, pc}
 659              	.L57:
 660              		.loc 1 145 0
 661 0026 0022     		movs	r2, #0
 662 0028 2046     		mov	r0, r4
 663 002a 4F49     		ldr	r1, .L63+16
 664 002c 1346     		mov	r3, r2
 665 002e FFF7FEFF 		bl	chprintf
 666              	.LVL58:
 667              		.loc 1 147 0
 668 0032 022D     		cmp	r5, #2
 669 0034 05D0     		beq	.L58
 670              	.LVL59:
 671              	.L37:
 672              	.LDL1:
 673              		.loc 1 198 0
 674 0036 4D49     		ldr	r1, .L63+20
 675 0038 2046     		mov	r0, r4
 676              		.loc 1 203 0
 677 003a BDE8F840 		pop	{r3, r4, r5, r6, r7, lr}
 678              		.loc 1 198 0
 679 003e FFF7FEBF 		b	chprintf
 680              	.LVL60:
 681              	.L58:
 682              		.loc 1 147 0 discriminator 1
ARM GAS  C:\Users\DNIEL~1\AppData\Local\Temp\cckLhpUz.s 			page 13


 683 0042 3568     		ldr	r5, [r6, #0]
 684              	.LVL61:
 685 0044 4A49     		ldr	r1, .L63+24
 686 0046 2846     		mov	r0, r5
 687 0048 FFF7FEFF 		bl	strcmp
 688              	.LVL62:
 689 004c 0028     		cmp	r0, #0
 690 004e 4CD0     		beq	.L59
 691              	.L38:
 692              		.loc 1 157 0
 693 0050 2846     		mov	r0, r5
 694 0052 4849     		ldr	r1, .L63+28
 695 0054 FFF7FEFF 		bl	strcmp
 696              	.LVL63:
 697 0058 0028     		cmp	r0, #0
 698 005a 3BD0     		beq	.L51
 699              	.L42:
 700              		.loc 1 167 0
 701 005c 2846     		mov	r0, r5
 702 005e 4649     		ldr	r1, .L63+32
 703 0060 FFF7FEFF 		bl	strcmp
 704              	.LVL64:
 705 0064 0028     		cmp	r0, #0
 706 0066 2AD0     		beq	.L52
 707              	.L46:
 708              		.loc 1 177 0
 709 0068 2846     		mov	r0, r5
 710 006a 4449     		ldr	r1, .L63+36
 711 006c FFF7FEFF 		bl	strcmp
 712              	.LVL65:
 713 0070 0028     		cmp	r0, #0
 714 0072 E0D1     		bne	.L37
 715              		.loc 1 178 0
 716 0074 7068     		ldr	r0, [r6, #4]
 717 0076 FFF7FEFF 		bl	atol
 718              	.LVL66:
 719 007a 85B2     		uxth	r5, r0
 720              	.LVL67:
 721              		.loc 1 179 0
 722 007c 28B2     		sxth	r0, r5
 723              	.LVL68:
 724 007e 0028     		cmp	r0, #0
 725 0080 3BDD     		ble	.L60
 726              	.L47:
 727              		.loc 1 180 0
 728 0082 3F4E     		ldr	r6, .L63+40
 729              	.LVL69:
 730 0084 3580     		strh	r5, [r6, #0]	@ movhi
 731              	.L50:
 732              		.loc 1 191 0
 733 0086 3F48     		ldr	r0, .L63+44
 734 0088 3F49     		ldr	r1, .L63+48
 735 008a B0F90020 		ldrsh	r2, [r0, #0]
 736 008e 2046     		mov	r0, r4
 737 0090 FFF7FEFF 		bl	chprintf
 738              	.LVL70:
 739              		.loc 1 192 0
ARM GAS  C:\Users\DNIEL~1\AppData\Local\Temp\cckLhpUz.s 			page 14


 740 0094 3D4B     		ldr	r3, .L63+52
 741 0096 3E49     		ldr	r1, .L63+56
 742 0098 B3F90020 		ldrsh	r2, [r3, #0]
 743 009c 2046     		mov	r0, r4
 744 009e FFF7FEFF 		bl	chprintf
 745              	.LVL71:
 746              		.loc 1 193 0
 747 00a2 2046     		mov	r0, r4
 748 00a4 B6F90020 		ldrsh	r2, [r6, #0]
 749 00a8 3A49     		ldr	r1, .L63+60
 750 00aa FFF7FEFF 		bl	chprintf
 751              	.LVL72:
 752              		.loc 1 194 0
 753 00ae 3A4A     		ldr	r2, .L63+64
 754 00b0 3A49     		ldr	r1, .L63+68
 755 00b2 1268     		ldr	r2, [r2, #0]
 756 00b4 2046     		mov	r0, r4
 757              		.loc 1 203 0
 758 00b6 BDE8F840 		pop	{r3, r4, r5, r6, r7, lr}
 759              		.loc 1 194 0
 760 00ba FFF7FEBF 		b	chprintf
 761              	.LVL73:
 762              	.L52:
 763              		.loc 1 168 0
 764 00be 7068     		ldr	r0, [r6, #4]
 765 00c0 FFF7FEFF 		bl	atol
 766              	.LVL74:
 767 00c4 87B2     		uxth	r7, r0
 768              	.LVL75:
 769              		.loc 1 169 0
 770 00c6 38B2     		sxth	r0, r7
 771              	.LVL76:
 772 00c8 0028     		cmp	r0, #0
 773 00ca 25DD     		ble	.L61
 774              	.L43:
 775              		.loc 1 170 0
 776 00cc 2F4A     		ldr	r2, .L63+52
 777 00ce 3568     		ldr	r5, [r6, #0]
 778 00d0 1780     		strh	r7, [r2, #0]	@ movhi
 779 00d2 C9E7     		b	.L46
 780              	.LVL77:
 781              	.L51:
 782              		.loc 1 158 0
 783 00d4 7068     		ldr	r0, [r6, #4]
 784 00d6 FFF7FEFF 		bl	atol
 785              	.LVL78:
 786 00da 87B2     		uxth	r7, r0
 787              	.LVL79:
 788              		.loc 1 159 0
 789 00dc 38B2     		sxth	r0, r7
 790              	.LVL80:
 791 00de 0028     		cmp	r0, #0
 792 00e0 29DD     		ble	.L62
 793              	.L39:
 794              		.loc 1 160 0
 795 00e2 284B     		ldr	r3, .L63+44
 796 00e4 3568     		ldr	r5, [r6, #0]
ARM GAS  C:\Users\DNIEL~1\AppData\Local\Temp\cckLhpUz.s 			page 15


 797 00e6 1F80     		strh	r7, [r3, #0]	@ movhi
 798 00e8 B8E7     		b	.L42
 799              	.LVL81:
 800              	.L59:
 801              		.loc 1 148 0
 802 00ea 7068     		ldr	r0, [r6, #4]
 803 00ec FFF7FEFF 		bl	atol
 804              	.LVL82:
 805              		.loc 1 150 0
 806 00f0 2949     		ldr	r1, .L63+64
 807 00f2 3568     		ldr	r5, [r6, #0]
 808 00f4 00B2     		sxth	r0, r0
 809 00f6 0860     		str	r0, [r1, #0]
 810 00f8 AAE7     		b	.L38
 811              	.LVL83:
 812              	.L60:
 813              		.loc 1 179 0 discriminator 1
 814 00fa FFF7FEFF 		bl	__aeabi_i2d
 815              	.LVL84:
 816 00fe 16A3     		adr	r3, .L63
 817 0100 D3E90023 		ldrd	r2, [r3]
 818 0104 FFF7FEFF 		bl	__aeabi_dcmplt
 819              	.LVL85:
 820 0108 0028     		cmp	r0, #0
 821 010a BAD1     		bne	.L47
 822              		.loc 1 183 0
 823 010c 2046     		mov	r0, r4
 824 010e 2449     		ldr	r1, .L63+72
 825 0110 1B4E     		ldr	r6, .L63+40
 826              	.LVL86:
 827 0112 FFF7FEFF 		bl	chprintf
 828              	.LVL87:
 829 0116 B6E7     		b	.L50
 830              	.LVL88:
 831              	.L61:
 832              		.loc 1 169 0 discriminator 1
 833 0118 FFF7FEFF 		bl	__aeabi_i2d
 834              	.LVL89:
 835 011c 0EA3     		adr	r3, .L63
 836 011e D3E90023 		ldrd	r2, [r3]
 837 0122 FFF7FEFF 		bl	__aeabi_dcmplt
 838              	.LVL90:
 839 0126 0028     		cmp	r0, #0
 840 0128 D0D1     		bne	.L43
 841              		.loc 1 173 0
 842 012a 2046     		mov	r0, r4
 843 012c 1D49     		ldr	r1, .L63+76
 844 012e FFF7FEFF 		bl	chprintf
 845              	.LVL91:
 846 0132 3568     		ldr	r5, [r6, #0]
 847 0134 98E7     		b	.L46
 848              	.L62:
 849              		.loc 1 159 0 discriminator 1
 850 0136 FFF7FEFF 		bl	__aeabi_i2d
 851              	.LVL92:
 852 013a 07A3     		adr	r3, .L63
 853 013c D3E90023 		ldrd	r2, [r3]
ARM GAS  C:\Users\DNIEL~1\AppData\Local\Temp\cckLhpUz.s 			page 16


 854 0140 FFF7FEFF 		bl	__aeabi_dcmplt
 855              	.LVL93:
 856 0144 0028     		cmp	r0, #0
 857 0146 CCD1     		bne	.L39
 858              		.loc 1 163 0
 859 0148 2046     		mov	r0, r4
 860 014a 1749     		ldr	r1, .L63+80
 861 014c FFF7FEFF 		bl	chprintf
 862              	.LVL94:
 863 0150 3568     		ldr	r5, [r6, #0]
 864 0152 83E7     		b	.L42
 865              	.L64:
 866 0154 AFF30080 		.align	3
 867              	.L63:
 868 0158 00000000 		.word	0
 869 015c 80842E41 		.word	1093567616
 870 0160 00000000 		.word	.LC0
 871 0164 04000000 		.word	.LC1
 872 0168 0C000000 		.word	.LC2
 873 016c 00010000 		.word	.LC16
 874 0170 90000000 		.word	.LC9
 875 0174 1C010000 		.word	.LC17
 876 0178 20010000 		.word	.LC18
 877 017c 24010000 		.word	.LC19
 878 0180 00000000 		.word	.LANCHOR10
 879 0184 00000000 		.word	.LANCHOR8
 880 0188 DC000000 		.word	.LC13
 881 018c 00000000 		.word	.LANCHOR9
 882 0190 E8000000 		.word	.LC14
 883 0194 F4000000 		.word	.LC15
 884 0198 00000000 		.word	.LANCHOR6
 885 019c 6C000000 		.word	.LC7
 886 01a0 C4000000 		.word	.LC12
 887 01a4 AC000000 		.word	.LC11
 888 01a8 94000000 		.word	.LC10
 889              		.cfi_endproc
 890              	.LFE122:
 891              		.size	cmd_setcruisevalues, .-cmd_setcruisevalues
 892 01ac AFF30080 		.section	.bss.P,"aw",%nobits
 893              		.align	3
 894              		.set	.LANCHOR1,. + 0
 895              		.type	P, %object
 896              		.size	P, 8
 897              	P:
 898 0000 00000000 		.space	8
 898      00000000 
 899              		.section	.data.K_D,"aw",%progbits
 900              		.align	1
 901              		.set	.LANCHOR10,. + 0
 902              		.type	K_D, %object
 903              		.size	K_D, 2
 904              	K_D:
 905 0000 F401     		.short	500
 906              		.section	.bss.set,"aw",%nobits
 907              		.align	2
 908              		.set	.LANCHOR6,. + 0
 909              		.type	set, %object
ARM GAS  C:\Users\DNIEL~1\AppData\Local\Temp\cckLhpUz.s 			page 17


 910              		.size	set, 4
 911              	set:
 912 0000 00000000 		.space	4
 913              		.section	.data.K_I,"aw",%progbits
 914              		.align	1
 915              		.set	.LANCHOR9,. + 0
 916              		.type	K_I, %object
 917              		.size	K_I, 2
 918              	K_I:
 919 0000 0200     		.short	2
 920              		.section	.rodata.str1.4,"aMS",%progbits,1
 921              		.align	2
 922              	.LC0:
 923 0000 1B6300   		.ascii	"\033c\000"
 924 0003 00       		.space	1
 925              	.LC1:
 926 0004 1B5B324A 		.ascii	"\033[2J\000"
 926      00
 927 0009 000000   		.space	3
 928              	.LC2:
 929 000c 1B5B2564 		.ascii	"\033[%d;%dH\000"
 929      3B256448 
 929      00
 930 0015 000000   		.space	3
 931              	.LC3:
 932 0018 4B5F503A 		.ascii	"K_P: %15d - P: %15d\015\012\000"
 932      20253135 
 932      64202D20 
 932      503A2025 
 932      3135640D 
 933 002e 0000     		.space	2
 934              	.LC4:
 935 0030 4B5F493A 		.ascii	"K_I: %15d - I: %15d\015\012\000"
 935      20253135 
 935      64202D20 
 935      493A2025 
 935      3135640D 
 936 0046 0000     		.space	2
 937              	.LC5:
 938 0048 4B5F443A 		.ascii	"K_D: %15d - D: %15d\015\012\000"
 938      20253135 
 938      64202D20 
 938      443A2025 
 938      3135640D 
 939 005e 0000     		.space	2
 940              	.LC6:
 941 0060 70776D3A 		.ascii	"pwm: %15d\015\012\000"
 941      20253135 
 941      640D0A00 
 942              	.LC7:
 943 006c 73657420 		.ascii	"set rpm: %15d\015\012\000"
 943      72706D3A 
 943      20253135 
 943      640D0A00 
 944              	.LC8:
 945 007c 696E7075 		.ascii	"input rpm: %15d\015\012\000"
 945      74207270 
ARM GAS  C:\Users\DNIEL~1\AppData\Local\Temp\cckLhpUz.s 			page 18


 945      6D3A2025 
 945      3135640D 
 945      0A00
 946 008e 0000     		.space	2
 947              	.LC9:
 948 0090 72706D00 		.ascii	"rpm\000"
 949              	.LC10:
 950 0094 54686973 		.ascii	"This not good K_P!\015\012\000"
 950      206E6F74 
 950      20676F6F 
 950      64204B5F 
 950      50210D0A 
 951 00a9 000000   		.space	3
 952              	.LC11:
 953 00ac 54686973 		.ascii	"This not good K_I!\015\012\000"
 953      206E6F74 
 953      20676F6F 
 953      64204B5F 
 953      49210D0A 
 954 00c1 000000   		.space	3
 955              	.LC12:
 956 00c4 54686973 		.ascii	"This not good K_D!\015\012\000"
 956      206E6F74 
 956      20676F6F 
 956      64204B5F 
 956      44210D0A 
 957 00d9 000000   		.space	3
 958              	.LC13:
 959 00dc 4B5F503A 		.ascii	"K_P: %15d\015\012\000"
 959      20253135 
 959      640D0A00 
 960              	.LC14:
 961 00e8 4B5F493A 		.ascii	"K_I: %15d\015\012\000"
 961      20253135 
 961      640D0A00 
 962              	.LC15:
 963 00f4 4B5F443A 		.ascii	"K_D: %15d\015\012\000"
 963      20253135 
 963      640D0A00 
 964              	.LC16:
 965 0100 54686973 		.ascii	"This not good command!\015\012\000"
 965      206E6F74 
 965      20676F6F 
 965      6420636F 
 965      6D6D616E 
 966 0119 000000   		.space	3
 967              	.LC17:
 968 011c 4B5F5000 		.ascii	"K_P\000"
 969              	.LC18:
 970 0120 4B5F4900 		.ascii	"K_I\000"
 971              	.LC19:
 972 0124 4B5F4400 		.ascii	"K_D\000"
 973              		.section	.bss.pwm,"aw",%nobits
 974              		.align	2
 975              		.set	.LANCHOR0,. + 0
 976              		.type	pwm, %object
 977              		.size	pwm, 4
ARM GAS  C:\Users\DNIEL~1\AppData\Local\Temp\cckLhpUz.s 			page 19


 978              	pwm:
 979 0000 00000000 		.space	4
 980              		.section	.data.cruise_pwmcfg,"aw",%progbits
 981              		.align	2
 982              		.set	.LANCHOR7,. + 0
 983              		.type	cruise_pwmcfg, %object
 984              		.size	cruise_pwmcfg, 48
 985              	cruise_pwmcfg:
 986 0000 80969800 		.word	10000000
 987 0004 1027     		.short	10000
 988 0006 0000     		.space	2
 989 0008 00000000 		.word	0
 990 000c 00000000 		.word	0
 991 0010 00000000 		.word	0
 992 0014 00000000 		.word	0
 993 0018 00000000 		.word	0
 994 001c 01000000 		.word	1
 995 0020 00000000 		.word	0
 996 0024 00000000 		.word	0
 997 0028 00000000 		.word	0
 998 002c 0000     		.short	0
 999 002e 0000     		.space	2
 1000              		.section	.data.K_P,"aw",%progbits
 1001              		.align	1
 1002              		.set	.LANCHOR8,. + 0
 1003              		.type	K_P, %object
 1004              		.size	K_P, 2
 1005              	K_P:
 1006 0000 0500     		.short	5
 1007              		.section	.bss.D,"aw",%nobits
 1008              		.align	3
 1009              		.set	.LANCHOR3,. + 0
 1010              		.type	D, %object
 1011              		.size	D, 8
 1012              	D:
 1013 0000 00000000 		.space	8
 1013      00000000 
 1014              		.section	.bss.e,"aw",%nobits
 1015              		.align	3
 1016              		.set	.LANCHOR5,. + 0
 1017              		.type	e, %object
 1018              		.size	e, 8
 1019              	e:
 1020 0000 00000000 		.space	8
 1020      00000000 
 1021              		.section	.bss.eelozo,"aw",%nobits
 1022              		.align	3
 1023              		.set	.LANCHOR4,. + 0
 1024              		.type	eelozo, %object
 1025              		.size	eelozo, 8
 1026              	eelozo:
 1027 0000 00000000 		.space	8
 1027      00000000 
 1028              		.section	.bss.I,"aw",%nobits
 1029              		.align	3
 1030              		.set	.LANCHOR2,. + 0
 1031              		.type	I, %object
ARM GAS  C:\Users\DNIEL~1\AppData\Local\Temp\cckLhpUz.s 			page 20


 1032              		.size	I, 8
 1033              	I:
 1034 0000 00000000 		.space	8
 1034      00000000 
 1035              		.text
 1036              	.Letext0:
 1037              		.file 2 "c:\\chibistudio\\tools\\gnu tools arm embedded\\4.7 2014q2\\bin\\../lib/gcc/arm-none-eabi
 1038              		.file 3 "c:\\chibistudio\\tools\\gnu tools arm embedded\\4.7 2014q2\\bin\\../lib/gcc/arm-none-eabi
 1039              		.file 4 "../../../ChibiOS/os/ports/GCC/ARMCMx/chtypes.h"
 1040              		.file 5 "../../../ChibiOS/os/kernel/include/chstreams.h"
 1041              		.file 6 "../../../ChibiOS/os/hal/platforms/STM32/stm32.h"
 1042              		.file 7 "../../../ChibiOS/os/hal/include/io_channel.h"
 1043              		.file 8 "../../../ChibiOS/os/hal/include/pwm.h"
 1044              		.file 9 "../../../ChibiOS/os/hal/platforms/STM32/pwm_lld.h"
 1045              		.file 10 "../../../ChibiOS/os/ports/common/ARMCMx/CMSIS/include/core_cm4.h"
 1046              		.file 11 "../../../ChibiOS/os/various/chprintf.h"
 1047              		.file 12 "../../../ChibiOS/os/kernel/include/chthreads.h"
 1048              		.file 13 "c:\\chibistudio\\tools\\gnu tools arm embedded\\4.7 2014q2\\bin\\../lib/gcc/arm-none-eab
 1049              		.file 14 "include/speed.h"
 1050              		.file 15 "c:\\chibistudio\\tools\\gnu tools arm embedded\\4.7 2014q2\\bin\\../lib/gcc/arm-none-eab
 1051              		.section	.debug_info,"",%progbits
 1052              	.Ldebug_info0:
 1053 0000 A30D0000 		.4byte	0xda3
 1054 0004 0200     		.2byte	0x2
 1055 0006 00000000 		.4byte	.Ldebug_abbrev0
 1056 000a 04       		.byte	0x4
 1057 000b 01       		.uleb128 0x1
 1058 000c 32020000 		.4byte	.LASF99
 1059 0010 01       		.byte	0x1
 1060 0011 8B020000 		.4byte	.LASF100
 1061 0015 8E030000 		.4byte	.LASF101
 1062 0019 00000000 		.4byte	.Ldebug_ranges0+0
 1063 001d 00000000 		.4byte	0
 1064 0021 00000000 		.4byte	0
 1065 0025 00000000 		.4byte	.Ldebug_line0
 1066 0029 02       		.uleb128 0x2
 1067 002a 01       		.byte	0x1
 1068 002b 06       		.byte	0x6
 1069 002c 1A010000 		.4byte	.LASF0
 1070 0030 02       		.uleb128 0x2
 1071 0031 01       		.byte	0x1
 1072 0032 08       		.byte	0x8
 1073 0033 BC020000 		.4byte	.LASF1
 1074 0037 02       		.uleb128 0x2
 1075 0038 02       		.byte	0x2
 1076 0039 05       		.byte	0x5
 1077 003a DA020000 		.4byte	.LASF2
 1078 003e 02       		.uleb128 0x2
 1079 003f 02       		.byte	0x2
 1080 0040 07       		.byte	0x7
 1081 0041 5D030000 		.4byte	.LASF3
 1082 0045 03       		.uleb128 0x3
 1083 0046 04       		.byte	0x4
 1084 0047 05       		.byte	0x5
 1085 0048 696E7400 		.ascii	"int\000"
 1086 004c 02       		.uleb128 0x2
 1087 004d 04       		.byte	0x4
ARM GAS  C:\Users\DNIEL~1\AppData\Local\Temp\cckLhpUz.s 			page 21


 1088 004e 07       		.byte	0x7
 1089 004f A1010000 		.4byte	.LASF4
 1090 0053 02       		.uleb128 0x2
 1091 0054 08       		.byte	0x8
 1092 0055 05       		.byte	0x5
 1093 0056 0C010000 		.4byte	.LASF5
 1094 005a 02       		.uleb128 0x2
 1095 005b 08       		.byte	0x8
 1096 005c 07       		.byte	0x7
 1097 005d A5000000 		.4byte	.LASF6
 1098 0061 02       		.uleb128 0x2
 1099 0062 04       		.byte	0x4
 1100 0063 05       		.byte	0x5
 1101 0064 54010000 		.4byte	.LASF7
 1102 0068 02       		.uleb128 0x2
 1103 0069 04       		.byte	0x4
 1104 006a 07       		.byte	0x7
 1105 006b 29020000 		.4byte	.LASF8
 1106 006f 04       		.uleb128 0x4
 1107 0070 04       		.byte	0x4
 1108 0071 02       		.uleb128 0x2
 1109 0072 04       		.byte	0x4
 1110 0073 07       		.byte	0x7
 1111 0074 AE010000 		.4byte	.LASF9
 1112 0078 05       		.uleb128 0x5
 1113 0079 04       		.byte	0x4
 1114 007a 7E000000 		.4byte	0x7e
 1115 007e 02       		.uleb128 0x2
 1116 007f 01       		.byte	0x1
 1117 0080 08       		.byte	0x8
 1118 0081 35030000 		.4byte	.LASF10
 1119 0085 05       		.uleb128 0x5
 1120 0086 04       		.byte	0x4
 1121 0087 8B000000 		.4byte	0x8b
 1122 008b 06       		.uleb128 0x6
 1123 008c 7E000000 		.4byte	0x7e
 1124 0090 07       		.uleb128 0x7
 1125 0091 24000000 		.4byte	.LASF11
 1126 0095 02       		.byte	0x2
 1127 0096 D5       		.byte	0xd5
 1128 0097 4C000000 		.4byte	0x4c
 1129 009b 07       		.uleb128 0x7
 1130 009c B9030000 		.4byte	.LASF12
 1131 00a0 03       		.byte	0x3
 1132 00a1 2A       		.byte	0x2a
 1133 00a2 30000000 		.4byte	0x30
 1134 00a6 07       		.uleb128 0x7
 1135 00a7 AC020000 		.4byte	.LASF13
 1136 00ab 03       		.byte	0x3
 1137 00ac 35       		.byte	0x35
 1138 00ad 37000000 		.4byte	0x37
 1139 00b1 07       		.uleb128 0x7
 1140 00b2 6B010000 		.4byte	.LASF14
 1141 00b6 03       		.byte	0x3
 1142 00b7 36       		.byte	0x36
 1143 00b8 3E000000 		.4byte	0x3e
 1144 00bc 07       		.uleb128 0x7
ARM GAS  C:\Users\DNIEL~1\AppData\Local\Temp\cckLhpUz.s 			page 22


 1145 00bd B4020000 		.4byte	.LASF15
 1146 00c1 03       		.byte	0x3
 1147 00c2 4F       		.byte	0x4f
 1148 00c3 61000000 		.4byte	0x61
 1149 00c7 07       		.uleb128 0x7
 1150 00c8 19030000 		.4byte	.LASF16
 1151 00cc 03       		.byte	0x3
 1152 00cd 50       		.byte	0x50
 1153 00ce 71000000 		.4byte	0x71
 1154 00d2 07       		.uleb128 0x7
 1155 00d3 81030000 		.4byte	.LASF17
 1156 00d7 04       		.byte	0x4
 1157 00d8 2D       		.byte	0x2d
 1158 00d9 BC000000 		.4byte	0xbc
 1159 00dd 07       		.uleb128 0x7
 1160 00de 53030000 		.4byte	.LASF18
 1161 00e2 04       		.byte	0x4
 1162 00e3 31       		.byte	0x31
 1163 00e4 C7000000 		.4byte	0xc7
 1164 00e8 08       		.uleb128 0x8
 1165 00e9 C7000000 		.4byte	0xc7
 1166 00ed 05       		.uleb128 0x5
 1167 00ee 04       		.byte	0x4
 1168 00ef F3000000 		.4byte	0xf3
 1169 00f3 09       		.uleb128 0x9
 1170 00f4 01       		.byte	0x1
 1171 00f5 D2000000 		.4byte	0xd2
 1172 00f9 03010000 		.4byte	0x103
 1173 00fd 0A       		.uleb128 0xa
 1174 00fe 6F000000 		.4byte	0x6f
 1175 0102 00       		.byte	0
 1176 0103 05       		.uleb128 0x5
 1177 0104 04       		.byte	0x4
 1178 0105 9B000000 		.4byte	0x9b
 1179 0109 0B       		.uleb128 0xb
 1180 010a E4020000 		.4byte	.LASF45
 1181 010e 10       		.byte	0x10
 1182 010f 05       		.byte	0x5
 1183 0110 41       		.byte	0x41
 1184 0111 4E010000 		.4byte	0x14e
 1185 0115 0C       		.uleb128 0xc
 1186 0116 1E020000 		.4byte	.LASF19
 1187 011a 05       		.byte	0x5
 1188 011b 42       		.byte	0x42
 1189 011c 73010000 		.4byte	0x173
 1190 0120 02       		.byte	0x2
 1191 0121 23       		.byte	0x23
 1192 0122 00       		.uleb128 0
 1193 0123 0C       		.uleb128 0xc
 1194 0124 EB030000 		.4byte	.LASF20
 1195 0128 05       		.byte	0x5
 1196 0129 42       		.byte	0x42
 1197 012a 93010000 		.4byte	0x193
 1198 012e 02       		.byte	0x2
 1199 012f 23       		.byte	0x23
 1200 0130 04       		.uleb128 0x4
 1201 0131 0D       		.uleb128 0xd
ARM GAS  C:\Users\DNIEL~1\AppData\Local\Temp\cckLhpUz.s 			page 23


 1202 0132 70757400 		.ascii	"put\000"
 1203 0136 05       		.byte	0x5
 1204 0137 42       		.byte	0x42
 1205 0138 AE010000 		.4byte	0x1ae
 1206 013c 02       		.byte	0x2
 1207 013d 23       		.byte	0x23
 1208 013e 08       		.uleb128 0x8
 1209 013f 0D       		.uleb128 0xd
 1210 0140 67657400 		.ascii	"get\000"
 1211 0144 05       		.byte	0x5
 1212 0145 42       		.byte	0x42
 1213 0146 ED000000 		.4byte	0xed
 1214 014a 02       		.byte	0x2
 1215 014b 23       		.byte	0x23
 1216 014c 0C       		.uleb128 0xc
 1217 014d 00       		.byte	0
 1218 014e 09       		.uleb128 0x9
 1219 014f 01       		.byte	0x1
 1220 0150 90000000 		.4byte	0x90
 1221 0154 68010000 		.4byte	0x168
 1222 0158 0A       		.uleb128 0xa
 1223 0159 6F000000 		.4byte	0x6f
 1224 015d 0A       		.uleb128 0xa
 1225 015e 68010000 		.4byte	0x168
 1226 0162 0A       		.uleb128 0xa
 1227 0163 90000000 		.4byte	0x90
 1228 0167 00       		.byte	0
 1229 0168 05       		.uleb128 0x5
 1230 0169 04       		.byte	0x4
 1231 016a 6E010000 		.4byte	0x16e
 1232 016e 06       		.uleb128 0x6
 1233 016f 9B000000 		.4byte	0x9b
 1234 0173 05       		.uleb128 0x5
 1235 0174 04       		.byte	0x4
 1236 0175 4E010000 		.4byte	0x14e
 1237 0179 09       		.uleb128 0x9
 1238 017a 01       		.byte	0x1
 1239 017b 90000000 		.4byte	0x90
 1240 017f 93010000 		.4byte	0x193
 1241 0183 0A       		.uleb128 0xa
 1242 0184 6F000000 		.4byte	0x6f
 1243 0188 0A       		.uleb128 0xa
 1244 0189 03010000 		.4byte	0x103
 1245 018d 0A       		.uleb128 0xa
 1246 018e 90000000 		.4byte	0x90
 1247 0192 00       		.byte	0
 1248 0193 05       		.uleb128 0x5
 1249 0194 04       		.byte	0x4
 1250 0195 79010000 		.4byte	0x179
 1251 0199 09       		.uleb128 0x9
 1252 019a 01       		.byte	0x1
 1253 019b D2000000 		.4byte	0xd2
 1254 019f AE010000 		.4byte	0x1ae
 1255 01a3 0A       		.uleb128 0xa
 1256 01a4 6F000000 		.4byte	0x6f
 1257 01a8 0A       		.uleb128 0xa
 1258 01a9 9B000000 		.4byte	0x9b
ARM GAS  C:\Users\DNIEL~1\AppData\Local\Temp\cckLhpUz.s 			page 24


 1259 01ad 00       		.byte	0
 1260 01ae 05       		.uleb128 0x5
 1261 01af 04       		.byte	0x4
 1262 01b0 99010000 		.4byte	0x199
 1263 01b4 0E       		.uleb128 0xe
 1264 01b5 04       		.byte	0x4
 1265 01b6 05       		.byte	0x5
 1266 01b7 4A       		.byte	0x4a
 1267 01b8 CB010000 		.4byte	0x1cb
 1268 01bc 0D       		.uleb128 0xd
 1269 01bd 766D7400 		.ascii	"vmt\000"
 1270 01c1 05       		.byte	0x5
 1271 01c2 4C       		.byte	0x4c
 1272 01c3 CB010000 		.4byte	0x1cb
 1273 01c7 02       		.byte	0x2
 1274 01c8 23       		.byte	0x23
 1275 01c9 00       		.uleb128 0
 1276 01ca 00       		.byte	0
 1277 01cb 05       		.uleb128 0x5
 1278 01cc 04       		.byte	0x4
 1279 01cd D1010000 		.4byte	0x1d1
 1280 01d1 06       		.uleb128 0x6
 1281 01d2 09010000 		.4byte	0x109
 1282 01d6 07       		.uleb128 0x7
 1283 01d7 8C010000 		.4byte	.LASF21
 1284 01db 05       		.byte	0x5
 1285 01dc 4E       		.byte	0x4e
 1286 01dd B4010000 		.4byte	0x1b4
 1287 01e1 0F       		.uleb128 0xf
 1288 01e2 C7000000 		.4byte	0xc7
 1289 01e6 F1010000 		.4byte	0x1f1
 1290 01ea 10       		.uleb128 0x10
 1291 01eb 68000000 		.4byte	0x68
 1292 01ef 03       		.byte	0x3
 1293 01f0 00       		.byte	0
 1294 01f1 08       		.uleb128 0x8
 1295 01f2 B1000000 		.4byte	0xb1
 1296 01f6 08       		.uleb128 0x8
 1297 01f7 BC000000 		.4byte	0xbc
 1298 01fb 0E       		.uleb128 0xe
 1299 01fc 54       		.byte	0x54
 1300 01fd 06       		.byte	0x6
 1301 01fe 60       		.byte	0x60
 1302 01ff D0030000 		.4byte	0x3d0
 1303 0203 0D       		.uleb128 0xd
 1304 0204 43523100 		.ascii	"CR1\000"
 1305 0208 06       		.byte	0x6
 1306 0209 61       		.byte	0x61
 1307 020a F1010000 		.4byte	0x1f1
 1308 020e 02       		.byte	0x2
 1309 020f 23       		.byte	0x23
 1310 0210 00       		.uleb128 0
 1311 0211 0C       		.uleb128 0xc
 1312 0212 3B000000 		.4byte	.LASF22
 1313 0216 06       		.byte	0x6
 1314 0217 62       		.byte	0x62
 1315 0218 B1000000 		.4byte	0xb1
ARM GAS  C:\Users\DNIEL~1\AppData\Local\Temp\cckLhpUz.s 			page 25


 1316 021c 02       		.byte	0x2
 1317 021d 23       		.byte	0x23
 1318 021e 02       		.uleb128 0x2
 1319 021f 0D       		.uleb128 0xd
 1320 0220 43523200 		.ascii	"CR2\000"
 1321 0224 06       		.byte	0x6
 1322 0225 63       		.byte	0x63
 1323 0226 F1010000 		.4byte	0x1f1
 1324 022a 02       		.byte	0x2
 1325 022b 23       		.byte	0x23
 1326 022c 04       		.uleb128 0x4
 1327 022d 0C       		.uleb128 0xc
 1328 022e 43000000 		.4byte	.LASF23
 1329 0232 06       		.byte	0x6
 1330 0233 64       		.byte	0x64
 1331 0234 B1000000 		.4byte	0xb1
 1332 0238 02       		.byte	0x2
 1333 0239 23       		.byte	0x23
 1334 023a 06       		.uleb128 0x6
 1335 023b 0C       		.uleb128 0xc
 1336 023c D8010000 		.4byte	.LASF24
 1337 0240 06       		.byte	0x6
 1338 0241 65       		.byte	0x65
 1339 0242 F1010000 		.4byte	0x1f1
 1340 0246 02       		.byte	0x2
 1341 0247 23       		.byte	0x23
 1342 0248 08       		.uleb128 0x8
 1343 0249 0C       		.uleb128 0xc
 1344 024a 4B000000 		.4byte	.LASF25
 1345 024e 06       		.byte	0x6
 1346 024f 66       		.byte	0x66
 1347 0250 B1000000 		.4byte	0xb1
 1348 0254 02       		.byte	0x2
 1349 0255 23       		.byte	0x23
 1350 0256 0A       		.uleb128 0xa
 1351 0257 0C       		.uleb128 0xc
 1352 0258 1F000000 		.4byte	.LASF26
 1353 025c 06       		.byte	0x6
 1354 025d 67       		.byte	0x67
 1355 025e F1010000 		.4byte	0x1f1
 1356 0262 02       		.byte	0x2
 1357 0263 23       		.byte	0x23
 1358 0264 0C       		.uleb128 0xc
 1359 0265 0C       		.uleb128 0xc
 1360 0266 53000000 		.4byte	.LASF27
 1361 026a 06       		.byte	0x6
 1362 026b 68       		.byte	0x68
 1363 026c B1000000 		.4byte	0xb1
 1364 0270 02       		.byte	0x2
 1365 0271 23       		.byte	0x23
 1366 0272 0E       		.uleb128 0xe
 1367 0273 0D       		.uleb128 0xd
 1368 0274 535200   		.ascii	"SR\000"
 1369 0277 06       		.byte	0x6
 1370 0278 69       		.byte	0x69
 1371 0279 F1010000 		.4byte	0x1f1
 1372 027d 02       		.byte	0x2
ARM GAS  C:\Users\DNIEL~1\AppData\Local\Temp\cckLhpUz.s 			page 26


 1373 027e 23       		.byte	0x23
 1374 027f 10       		.uleb128 0x10
 1375 0280 0C       		.uleb128 0xc
 1376 0281 5B000000 		.4byte	.LASF28
 1377 0285 06       		.byte	0x6
 1378 0286 6A       		.byte	0x6a
 1379 0287 B1000000 		.4byte	0xb1
 1380 028b 02       		.byte	0x2
 1381 028c 23       		.byte	0x23
 1382 028d 12       		.uleb128 0x12
 1383 028e 0D       		.uleb128 0xd
 1384 028f 45475200 		.ascii	"EGR\000"
 1385 0293 06       		.byte	0x6
 1386 0294 6B       		.byte	0x6b
 1387 0295 F1010000 		.4byte	0x1f1
 1388 0299 02       		.byte	0x2
 1389 029a 23       		.byte	0x23
 1390 029b 14       		.uleb128 0x14
 1391 029c 0C       		.uleb128 0xc
 1392 029d 63000000 		.4byte	.LASF29
 1393 02a1 06       		.byte	0x6
 1394 02a2 6C       		.byte	0x6c
 1395 02a3 B1000000 		.4byte	0xb1
 1396 02a7 02       		.byte	0x2
 1397 02a8 23       		.byte	0x23
 1398 02a9 16       		.uleb128 0x16
 1399 02aa 0C       		.uleb128 0xc
 1400 02ab 00010000 		.4byte	.LASF30
 1401 02af 06       		.byte	0x6
 1402 02b0 6D       		.byte	0x6d
 1403 02b1 F1010000 		.4byte	0x1f1
 1404 02b5 02       		.byte	0x2
 1405 02b6 23       		.byte	0x23
 1406 02b7 18       		.uleb128 0x18
 1407 02b8 0C       		.uleb128 0xc
 1408 02b9 6B000000 		.4byte	.LASF31
 1409 02bd 06       		.byte	0x6
 1410 02be 6E       		.byte	0x6e
 1411 02bf B1000000 		.4byte	0xb1
 1412 02c3 02       		.byte	0x2
 1413 02c4 23       		.byte	0x23
 1414 02c5 1A       		.uleb128 0x1a
 1415 02c6 0C       		.uleb128 0xc
 1416 02c7 06010000 		.4byte	.LASF32
 1417 02cb 06       		.byte	0x6
 1418 02cc 6F       		.byte	0x6f
 1419 02cd F1010000 		.4byte	0x1f1
 1420 02d1 02       		.byte	0x2
 1421 02d2 23       		.byte	0x23
 1422 02d3 1C       		.uleb128 0x1c
 1423 02d4 0C       		.uleb128 0xc
 1424 02d5 73000000 		.4byte	.LASF33
 1425 02d9 06       		.byte	0x6
 1426 02da 70       		.byte	0x70
 1427 02db B1000000 		.4byte	0xb1
 1428 02df 02       		.byte	0x2
 1429 02e0 23       		.byte	0x23
ARM GAS  C:\Users\DNIEL~1\AppData\Local\Temp\cckLhpUz.s 			page 27


 1430 02e1 1E       		.uleb128 0x1e
 1431 02e2 0C       		.uleb128 0xc
 1432 02e3 66010000 		.4byte	.LASF34
 1433 02e7 06       		.byte	0x6
 1434 02e8 71       		.byte	0x71
 1435 02e9 F1010000 		.4byte	0x1f1
 1436 02ed 02       		.byte	0x2
 1437 02ee 23       		.byte	0x23
 1438 02ef 20       		.uleb128 0x20
 1439 02f0 0C       		.uleb128 0xc
 1440 02f1 7B000000 		.4byte	.LASF35
 1441 02f5 06       		.byte	0x6
 1442 02f6 72       		.byte	0x72
 1443 02f7 B1000000 		.4byte	0xb1
 1444 02fb 02       		.byte	0x2
 1445 02fc 23       		.byte	0x23
 1446 02fd 22       		.uleb128 0x22
 1447 02fe 0D       		.uleb128 0xd
 1448 02ff 434E5400 		.ascii	"CNT\000"
 1449 0303 06       		.byte	0x6
 1450 0304 73       		.byte	0x73
 1451 0305 E8000000 		.4byte	0xe8
 1452 0309 02       		.byte	0x2
 1453 030a 23       		.byte	0x23
 1454 030b 24       		.uleb128 0x24
 1455 030c 0D       		.uleb128 0xd
 1456 030d 50534300 		.ascii	"PSC\000"
 1457 0311 06       		.byte	0x6
 1458 0312 74       		.byte	0x74
 1459 0313 F1010000 		.4byte	0x1f1
 1460 0317 02       		.byte	0x2
 1461 0318 23       		.byte	0x23
 1462 0319 28       		.uleb128 0x28
 1463 031a 0C       		.uleb128 0xc
 1464 031b 4B030000 		.4byte	.LASF36
 1465 031f 06       		.byte	0x6
 1466 0320 75       		.byte	0x75
 1467 0321 B1000000 		.4byte	0xb1
 1468 0325 02       		.byte	0x2
 1469 0326 23       		.byte	0x23
 1470 0327 2A       		.uleb128 0x2a
 1471 0328 0D       		.uleb128 0xd
 1472 0329 41525200 		.ascii	"ARR\000"
 1473 032d 06       		.byte	0x6
 1474 032e 76       		.byte	0x76
 1475 032f E8000000 		.4byte	0xe8
 1476 0333 02       		.byte	0x2
 1477 0334 23       		.byte	0x23
 1478 0335 2C       		.uleb128 0x2c
 1479 0336 0D       		.uleb128 0xd
 1480 0337 52435200 		.ascii	"RCR\000"
 1481 033b 06       		.byte	0x6
 1482 033c 77       		.byte	0x77
 1483 033d F1010000 		.4byte	0x1f1
 1484 0341 02       		.byte	0x2
 1485 0342 23       		.byte	0x23
 1486 0343 30       		.uleb128 0x30
ARM GAS  C:\Users\DNIEL~1\AppData\Local\Temp\cckLhpUz.s 			page 28


 1487 0344 0C       		.uleb128 0xc
 1488 0345 3C010000 		.4byte	.LASF37
 1489 0349 06       		.byte	0x6
 1490 034a 78       		.byte	0x78
 1491 034b B1000000 		.4byte	0xb1
 1492 034f 02       		.byte	0x2
 1493 0350 23       		.byte	0x23
 1494 0351 32       		.uleb128 0x32
 1495 0352 0D       		.uleb128 0xd
 1496 0353 43435200 		.ascii	"CCR\000"
 1497 0357 06       		.byte	0x6
 1498 0358 79       		.byte	0x79
 1499 0359 D0030000 		.4byte	0x3d0
 1500 035d 02       		.byte	0x2
 1501 035e 23       		.byte	0x23
 1502 035f 34       		.uleb128 0x34
 1503 0360 0C       		.uleb128 0xc
 1504 0361 D8000000 		.4byte	.LASF38
 1505 0365 06       		.byte	0x6
 1506 0366 7A       		.byte	0x7a
 1507 0367 F1010000 		.4byte	0x1f1
 1508 036b 02       		.byte	0x2
 1509 036c 23       		.byte	0x23
 1510 036d 44       		.uleb128 0x44
 1511 036e 0C       		.uleb128 0xc
 1512 036f 8A000000 		.4byte	.LASF39
 1513 0373 06       		.byte	0x6
 1514 0374 7B       		.byte	0x7b
 1515 0375 B1000000 		.4byte	0xb1
 1516 0379 02       		.byte	0x2
 1517 037a 23       		.byte	0x23
 1518 037b 46       		.uleb128 0x46
 1519 037c 0D       		.uleb128 0xd
 1520 037d 44435200 		.ascii	"DCR\000"
 1521 0381 06       		.byte	0x6
 1522 0382 7C       		.byte	0x7c
 1523 0383 F1010000 		.4byte	0x1f1
 1524 0387 02       		.byte	0x2
 1525 0388 23       		.byte	0x23
 1526 0389 48       		.uleb128 0x48
 1527 038a 0C       		.uleb128 0xc
 1528 038b 93000000 		.4byte	.LASF40
 1529 038f 06       		.byte	0x6
 1530 0390 7D       		.byte	0x7d
 1531 0391 B1000000 		.4byte	0xb1
 1532 0395 02       		.byte	0x2
 1533 0396 23       		.byte	0x23
 1534 0397 4A       		.uleb128 0x4a
 1535 0398 0C       		.uleb128 0xc
 1536 0399 46030000 		.4byte	.LASF41
 1537 039d 06       		.byte	0x6
 1538 039e 7E       		.byte	0x7e
 1539 039f F1010000 		.4byte	0x1f1
 1540 03a3 02       		.byte	0x2
 1541 03a4 23       		.byte	0x23
 1542 03a5 4C       		.uleb128 0x4c
 1543 03a6 0C       		.uleb128 0xc
ARM GAS  C:\Users\DNIEL~1\AppData\Local\Temp\cckLhpUz.s 			page 29


 1544 03a7 9C000000 		.4byte	.LASF42
 1545 03ab 06       		.byte	0x6
 1546 03ac 7F       		.byte	0x7f
 1547 03ad B1000000 		.4byte	0xb1
 1548 03b1 02       		.byte	0x2
 1549 03b2 23       		.byte	0x23
 1550 03b3 4E       		.uleb128 0x4e
 1551 03b4 0D       		.uleb128 0xd
 1552 03b5 4F5200   		.ascii	"OR\000"
 1553 03b8 06       		.byte	0x6
 1554 03b9 80       		.byte	0x80
 1555 03ba F1010000 		.4byte	0x1f1
 1556 03be 02       		.byte	0x2
 1557 03bf 23       		.byte	0x23
 1558 03c0 50       		.uleb128 0x50
 1559 03c1 0C       		.uleb128 0xc
 1560 03c2 5D010000 		.4byte	.LASF43
 1561 03c6 06       		.byte	0x6
 1562 03c7 81       		.byte	0x81
 1563 03c8 B1000000 		.4byte	0xb1
 1564 03cc 02       		.byte	0x2
 1565 03cd 23       		.byte	0x23
 1566 03ce 52       		.uleb128 0x52
 1567 03cf 00       		.byte	0
 1568 03d0 08       		.uleb128 0x8
 1569 03d1 E1010000 		.4byte	0x1e1
 1570 03d5 07       		.uleb128 0x7
 1571 03d6 26010000 		.4byte	.LASF44
 1572 03da 06       		.byte	0x6
 1573 03db 82       		.byte	0x82
 1574 03dc FB010000 		.4byte	0x1fb
 1575 03e0 0B       		.uleb128 0xb
 1576 03e1 BC000000 		.4byte	.LASF46
 1577 03e5 20       		.byte	0x20
 1578 03e6 07       		.byte	0x7
 1579 03e7 46       		.byte	0x46
 1580 03e8 5D040000 		.4byte	0x45d
 1581 03ec 0C       		.uleb128 0xc
 1582 03ed 1E020000 		.4byte	.LASF19
 1583 03f1 07       		.byte	0x7
 1584 03f2 47       		.byte	0x47
 1585 03f3 73010000 		.4byte	0x173
 1586 03f7 02       		.byte	0x2
 1587 03f8 23       		.byte	0x23
 1588 03f9 00       		.uleb128 0
 1589 03fa 0C       		.uleb128 0xc
 1590 03fb EB030000 		.4byte	.LASF20
 1591 03ff 07       		.byte	0x7
 1592 0400 47       		.byte	0x47
 1593 0401 93010000 		.4byte	0x193
 1594 0405 02       		.byte	0x2
 1595 0406 23       		.byte	0x23
 1596 0407 04       		.uleb128 0x4
 1597 0408 0D       		.uleb128 0xd
 1598 0409 70757400 		.ascii	"put\000"
 1599 040d 07       		.byte	0x7
 1600 040e 47       		.byte	0x47
ARM GAS  C:\Users\DNIEL~1\AppData\Local\Temp\cckLhpUz.s 			page 30


 1601 040f AE010000 		.4byte	0x1ae
 1602 0413 02       		.byte	0x2
 1603 0414 23       		.byte	0x23
 1604 0415 08       		.uleb128 0x8
 1605 0416 0D       		.uleb128 0xd
 1606 0417 67657400 		.ascii	"get\000"
 1607 041b 07       		.byte	0x7
 1608 041c 47       		.byte	0x47
 1609 041d ED000000 		.4byte	0xed
 1610 0421 02       		.byte	0x2
 1611 0422 23       		.byte	0x23
 1612 0423 0C       		.uleb128 0xc
 1613 0424 0C       		.uleb128 0xc
 1614 0425 24020000 		.4byte	.LASF47
 1615 0429 07       		.byte	0x7
 1616 042a 47       		.byte	0x47
 1617 042b 77040000 		.4byte	0x477
 1618 042f 02       		.byte	0x2
 1619 0430 23       		.byte	0x23
 1620 0431 10       		.uleb128 0x10
 1621 0432 0C       		.uleb128 0xc
 1622 0433 CE010000 		.4byte	.LASF48
 1623 0437 07       		.byte	0x7
 1624 0438 47       		.byte	0x47
 1625 0439 92040000 		.4byte	0x492
 1626 043d 02       		.byte	0x2
 1627 043e 23       		.byte	0x23
 1628 043f 14       		.uleb128 0x14
 1629 0440 0C       		.uleb128 0xc
 1630 0441 0B020000 		.4byte	.LASF49
 1631 0445 07       		.byte	0x7
 1632 0446 47       		.byte	0x47
 1633 0447 B7040000 		.4byte	0x4b7
 1634 044b 02       		.byte	0x2
 1635 044c 23       		.byte	0x23
 1636 044d 18       		.uleb128 0x18
 1637 044e 0C       		.uleb128 0xc
 1638 044f F1000000 		.4byte	.LASF50
 1639 0453 07       		.byte	0x7
 1640 0454 47       		.byte	0x47
 1641 0455 DC040000 		.4byte	0x4dc
 1642 0459 02       		.byte	0x2
 1643 045a 23       		.byte	0x23
 1644 045b 1C       		.uleb128 0x1c
 1645 045c 00       		.byte	0
 1646 045d 09       		.uleb128 0x9
 1647 045e 01       		.byte	0x1
 1648 045f D2000000 		.4byte	0xd2
 1649 0463 77040000 		.4byte	0x477
 1650 0467 0A       		.uleb128 0xa
 1651 0468 6F000000 		.4byte	0x6f
 1652 046c 0A       		.uleb128 0xa
 1653 046d 9B000000 		.4byte	0x9b
 1654 0471 0A       		.uleb128 0xa
 1655 0472 DD000000 		.4byte	0xdd
 1656 0476 00       		.byte	0
 1657 0477 05       		.uleb128 0x5
ARM GAS  C:\Users\DNIEL~1\AppData\Local\Temp\cckLhpUz.s 			page 31


 1658 0478 04       		.byte	0x4
 1659 0479 5D040000 		.4byte	0x45d
 1660 047d 09       		.uleb128 0x9
 1661 047e 01       		.byte	0x1
 1662 047f D2000000 		.4byte	0xd2
 1663 0483 92040000 		.4byte	0x492
 1664 0487 0A       		.uleb128 0xa
 1665 0488 6F000000 		.4byte	0x6f
 1666 048c 0A       		.uleb128 0xa
 1667 048d DD000000 		.4byte	0xdd
 1668 0491 00       		.byte	0
 1669 0492 05       		.uleb128 0x5
 1670 0493 04       		.byte	0x4
 1671 0494 7D040000 		.4byte	0x47d
 1672 0498 09       		.uleb128 0x9
 1673 0499 01       		.byte	0x1
 1674 049a 90000000 		.4byte	0x90
 1675 049e B7040000 		.4byte	0x4b7
 1676 04a2 0A       		.uleb128 0xa
 1677 04a3 6F000000 		.4byte	0x6f
 1678 04a7 0A       		.uleb128 0xa
 1679 04a8 68010000 		.4byte	0x168
 1680 04ac 0A       		.uleb128 0xa
 1681 04ad 90000000 		.4byte	0x90
 1682 04b1 0A       		.uleb128 0xa
 1683 04b2 DD000000 		.4byte	0xdd
 1684 04b6 00       		.byte	0
 1685 04b7 05       		.uleb128 0x5
 1686 04b8 04       		.byte	0x4
 1687 04b9 98040000 		.4byte	0x498
 1688 04bd 09       		.uleb128 0x9
 1689 04be 01       		.byte	0x1
 1690 04bf 90000000 		.4byte	0x90
 1691 04c3 DC040000 		.4byte	0x4dc
 1692 04c7 0A       		.uleb128 0xa
 1693 04c8 6F000000 		.4byte	0x6f
 1694 04cc 0A       		.uleb128 0xa
 1695 04cd 03010000 		.4byte	0x103
 1696 04d1 0A       		.uleb128 0xa
 1697 04d2 90000000 		.4byte	0x90
 1698 04d6 0A       		.uleb128 0xa
 1699 04d7 DD000000 		.4byte	0xdd
 1700 04db 00       		.byte	0
 1701 04dc 05       		.uleb128 0x5
 1702 04dd 04       		.byte	0x4
 1703 04de BD040000 		.4byte	0x4bd
 1704 04e2 0E       		.uleb128 0xe
 1705 04e3 04       		.byte	0x4
 1706 04e4 07       		.byte	0x7
 1707 04e5 51       		.byte	0x51
 1708 04e6 F9040000 		.4byte	0x4f9
 1709 04ea 0D       		.uleb128 0xd
 1710 04eb 766D7400 		.ascii	"vmt\000"
 1711 04ef 07       		.byte	0x7
 1712 04f0 53       		.byte	0x53
 1713 04f1 F9040000 		.4byte	0x4f9
 1714 04f5 02       		.byte	0x2
ARM GAS  C:\Users\DNIEL~1\AppData\Local\Temp\cckLhpUz.s 			page 32


 1715 04f6 23       		.byte	0x23
 1716 04f7 00       		.uleb128 0
 1717 04f8 00       		.byte	0
 1718 04f9 05       		.uleb128 0x5
 1719 04fa 04       		.byte	0x4
 1720 04fb FF040000 		.4byte	0x4ff
 1721 04ff 06       		.uleb128 0x6
 1722 0500 E0030000 		.4byte	0x3e0
 1723 0504 07       		.uleb128 0x7
 1724 0505 CB030000 		.4byte	.LASF51
 1725 0509 07       		.byte	0x7
 1726 050a 55       		.byte	0x55
 1727 050b E2040000 		.4byte	0x4e2
 1728 050f 05       		.uleb128 0x5
 1729 0510 04       		.byte	0x4
 1730 0511 D5030000 		.4byte	0x3d5
 1731 0515 11       		.uleb128 0x11
 1732 0516 01       		.byte	0x1
 1733 0517 08       		.byte	0x8
 1734 0518 4E       		.byte	0x4e
 1735 0519 30050000 		.4byte	0x530
 1736 051d 12       		.uleb128 0x12
 1737 051e 0A040000 		.4byte	.LASF52
 1738 0522 00       		.sleb128 0
 1739 0523 12       		.uleb128 0x12
 1740 0524 2C030000 		.4byte	.LASF53
 1741 0528 01       		.sleb128 1
 1742 0529 12       		.uleb128 0x12
 1743 052a E7000000 		.4byte	.LASF54
 1744 052e 02       		.sleb128 2
 1745 052f 00       		.byte	0
 1746 0530 07       		.uleb128 0x7
 1747 0531 D7030000 		.4byte	.LASF55
 1748 0535 08       		.byte	0x8
 1749 0536 52       		.byte	0x52
 1750 0537 15050000 		.4byte	0x515
 1751 053b 07       		.uleb128 0x7
 1752 053c C1030000 		.4byte	.LASF56
 1753 0540 08       		.byte	0x8
 1754 0541 57       		.byte	0x57
 1755 0542 46050000 		.4byte	0x546
 1756 0546 13       		.uleb128 0x13
 1757 0547 C1030000 		.4byte	.LASF56
 1758 054b 14       		.byte	0x14
 1759 054c 09       		.byte	0x9
 1760 054d 5001     		.2byte	0x150
 1761 054f 9F050000 		.4byte	0x59f
 1762 0553 14       		.uleb128 0x14
 1763 0554 45010000 		.4byte	.LASF57
 1764 0558 09       		.byte	0x9
 1765 0559 5401     		.2byte	0x154
 1766 055b 30050000 		.4byte	0x530
 1767 055f 02       		.byte	0x2
 1768 0560 23       		.byte	0x23
 1769 0561 00       		.uleb128 0
 1770 0562 14       		.uleb128 0x14
 1771 0563 3F030000 		.4byte	.LASF58
ARM GAS  C:\Users\DNIEL~1\AppData\Local\Temp\cckLhpUz.s 			page 33


 1772 0567 09       		.byte	0x9
 1773 0568 5801     		.2byte	0x158
 1774 056a 8B060000 		.4byte	0x68b
 1775 056e 02       		.byte	0x2
 1776 056f 23       		.byte	0x23
 1777 0570 04       		.uleb128 0x4
 1778 0571 14       		.uleb128 0x14
 1779 0572 83000000 		.4byte	.LASF59
 1780 0576 09       		.byte	0x9
 1781 0577 5C01     		.2byte	0x15c
 1782 0579 DA050000 		.4byte	0x5da
 1783 057d 02       		.byte	0x2
 1784 057e 23       		.byte	0x23
 1785 057f 08       		.uleb128 0x8
 1786 0580 14       		.uleb128 0x14
 1787 0581 F5030000 		.4byte	.LASF60
 1788 0585 09       		.byte	0x9
 1789 0586 6401     		.2byte	0x164
 1790 0588 C7000000 		.4byte	0xc7
 1791 058c 02       		.byte	0x2
 1792 058d 23       		.byte	0x23
 1793 058e 0C       		.uleb128 0xc
 1794 058f 15       		.uleb128 0x15
 1795 0590 74696D00 		.ascii	"tim\000"
 1796 0594 09       		.byte	0x9
 1797 0595 6801     		.2byte	0x168
 1798 0597 0F050000 		.4byte	0x50f
 1799 059b 02       		.byte	0x2
 1800 059c 23       		.byte	0x23
 1801 059d 10       		.uleb128 0x10
 1802 059e 00       		.byte	0
 1803 059f 07       		.uleb128 0x7
 1804 05a0 9E020000 		.4byte	.LASF61
 1805 05a4 08       		.byte	0x8
 1806 05a5 5E       		.byte	0x5e
 1807 05a6 AA050000 		.4byte	0x5aa
 1808 05aa 05       		.uleb128 0x5
 1809 05ab 04       		.byte	0x4
 1810 05ac B0050000 		.4byte	0x5b0
 1811 05b0 16       		.uleb128 0x16
 1812 05b1 01       		.byte	0x1
 1813 05b2 BC050000 		.4byte	0x5bc
 1814 05b6 0A       		.uleb128 0xa
 1815 05b7 BC050000 		.4byte	0x5bc
 1816 05bb 00       		.byte	0
 1817 05bc 05       		.uleb128 0x5
 1818 05bd 04       		.byte	0x4
 1819 05be 3B050000 		.4byte	0x53b
 1820 05c2 17       		.uleb128 0x17
 1821 05c3 32010000 		.4byte	.LASF62
 1822 05c7 09       		.byte	0x9
 1823 05c8 0701     		.2byte	0x107
 1824 05ca C7000000 		.4byte	0xc7
 1825 05ce 17       		.uleb128 0x17
 1826 05cf 00000000 		.4byte	.LASF63
 1827 05d3 09       		.byte	0x9
 1828 05d4 0C01     		.2byte	0x10c
ARM GAS  C:\Users\DNIEL~1\AppData\Local\Temp\cckLhpUz.s 			page 34


 1829 05d6 9B000000 		.4byte	0x9b
 1830 05da 17       		.uleb128 0x17
 1831 05db E2030000 		.4byte	.LASF64
 1832 05df 09       		.byte	0x9
 1833 05e0 1101     		.2byte	0x111
 1834 05e2 B1000000 		.4byte	0xb1
 1835 05e6 18       		.uleb128 0x18
 1836 05e7 08       		.byte	0x8
 1837 05e8 09       		.byte	0x9
 1838 05e9 1601     		.2byte	0x116
 1839 05eb 0E060000 		.4byte	0x60e
 1840 05ef 14       		.uleb128 0x14
 1841 05f0 3A030000 		.4byte	.LASF65
 1842 05f4 09       		.byte	0x9
 1843 05f5 1A01     		.2byte	0x11a
 1844 05f7 C2050000 		.4byte	0x5c2
 1845 05fb 02       		.byte	0x2
 1846 05fc 23       		.byte	0x23
 1847 05fd 00       		.uleb128 0
 1848 05fe 14       		.uleb128 0x14
 1849 05ff 02020000 		.4byte	.LASF66
 1850 0603 09       		.byte	0x9
 1851 0604 2001     		.2byte	0x120
 1852 0606 9F050000 		.4byte	0x59f
 1853 060a 02       		.byte	0x2
 1854 060b 23       		.byte	0x23
 1855 060c 04       		.uleb128 0x4
 1856 060d 00       		.byte	0
 1857 060e 17       		.uleb128 0x17
 1858 060f 70030000 		.4byte	.LASF67
 1859 0613 09       		.byte	0x9
 1860 0614 2201     		.2byte	0x122
 1861 0616 E6050000 		.4byte	0x5e6
 1862 061a 18       		.uleb128 0x18
 1863 061b 30       		.byte	0x30
 1864 061c 09       		.byte	0x9
 1865 061d 2701     		.2byte	0x127
 1866 061f 6F060000 		.4byte	0x66f
 1867 0623 14       		.uleb128 0x14
 1868 0624 DD000000 		.4byte	.LASF68
 1869 0628 09       		.byte	0x9
 1870 0629 2D01     		.2byte	0x12d
 1871 062b C7000000 		.4byte	0xc7
 1872 062f 02       		.byte	0x2
 1873 0630 23       		.byte	0x23
 1874 0631 00       		.uleb128 0
 1875 0632 14       		.uleb128 0x14
 1876 0633 83000000 		.4byte	.LASF59
 1877 0637 09       		.byte	0x9
 1878 0638 3301     		.2byte	0x133
 1879 063a DA050000 		.4byte	0x5da
 1880 063e 02       		.byte	0x2
 1881 063f 23       		.byte	0x23
 1882 0640 04       		.uleb128 0x4
 1883 0641 14       		.uleb128 0x14
 1884 0642 02020000 		.4byte	.LASF66
 1885 0646 09       		.byte	0x9
ARM GAS  C:\Users\DNIEL~1\AppData\Local\Temp\cckLhpUz.s 			page 35


 1886 0647 3901     		.2byte	0x139
 1887 0649 9F050000 		.4byte	0x59f
 1888 064d 02       		.byte	0x2
 1889 064e 23       		.byte	0x23
 1890 064f 08       		.uleb128 0x8
 1891 0650 14       		.uleb128 0x14
 1892 0651 4B010000 		.4byte	.LASF69
 1893 0655 09       		.byte	0x9
 1894 0656 3D01     		.2byte	0x13d
 1895 0658 6F060000 		.4byte	0x66f
 1896 065c 02       		.byte	0x2
 1897 065d 23       		.byte	0x23
 1898 065e 0C       		.uleb128 0xc
 1899 065f 15       		.uleb128 0x15
 1900 0660 63723200 		.ascii	"cr2\000"
 1901 0664 09       		.byte	0x9
 1902 0665 4301     		.2byte	0x143
 1903 0667 B1000000 		.4byte	0xb1
 1904 066b 02       		.byte	0x2
 1905 066c 23       		.byte	0x23
 1906 066d 2C       		.uleb128 0x2c
 1907 066e 00       		.byte	0
 1908 066f 0F       		.uleb128 0xf
 1909 0670 0E060000 		.4byte	0x60e
 1910 0674 7F060000 		.4byte	0x67f
 1911 0678 10       		.uleb128 0x10
 1912 0679 68000000 		.4byte	0x68
 1913 067d 03       		.byte	0x3
 1914 067e 00       		.byte	0
 1915 067f 17       		.uleb128 0x17
 1916 0680 22030000 		.4byte	.LASF70
 1917 0684 09       		.byte	0x9
 1918 0685 4B01     		.2byte	0x14b
 1919 0687 1A060000 		.4byte	0x61a
 1920 068b 05       		.uleb128 0x5
 1921 068c 04       		.byte	0x4
 1922 068d 91060000 		.4byte	0x691
 1923 0691 06       		.uleb128 0x6
 1924 0692 7F060000 		.4byte	0x67f
 1925 0696 19       		.uleb128 0x19
 1926 0697 01       		.byte	0x1
 1927 0698 CF020000 		.4byte	.LASF78
 1928 069c 01       		.byte	0x1
 1929 069d 2E       		.byte	0x2e
 1930 069e 01       		.byte	0x1
 1931 069f 00000000 		.4byte	.LFB118
 1932 06a3 7A000000 		.4byte	.LFE118
 1933 06a7 00000000 		.4byte	.LLST0
 1934 06ab 01       		.byte	0x1
 1935 06ac C5060000 		.4byte	0x6c5
 1936 06b0 1A       		.uleb128 0x1a
 1937 06b1 7A000000 		.4byte	.LVL0
 1938 06b5 01       		.byte	0x1
 1939 06b6 010D0000 		.4byte	0xd01
 1940 06ba 1B       		.uleb128 0x1b
 1941 06bb 01       		.byte	0x1
 1942 06bc 51       		.byte	0x51
ARM GAS  C:\Users\DNIEL~1\AppData\Local\Temp\cckLhpUz.s 			page 36


 1943 06bd 05       		.byte	0x5
 1944 06be 03       		.byte	0x3
 1945 06bf 00000000 		.4byte	.LANCHOR7
 1946 06c3 00       		.byte	0
 1947 06c4 00       		.byte	0
 1948 06c5 1C       		.uleb128 0x1c
 1949 06c6 01       		.byte	0x1
 1950 06c7 00040000 		.4byte	.LASF102
 1951 06cb 01       		.byte	0x1
 1952 06cc 42       		.byte	0x42
 1953 06cd 01       		.byte	0x1
 1954 06ce BC000000 		.4byte	0xbc
 1955 06d2 00000000 		.4byte	.LFB120
 1956 06d6 80010000 		.4byte	.LFE120
 1957 06da 20000000 		.4byte	.LLST1
 1958 06de 01       		.byte	0x1
 1959 06df 7E070000 		.4byte	0x77e
 1960 06e3 1D       		.uleb128 0x1d
 1961 06e4 98020000 		.4byte	.LASF71
 1962 06e8 01       		.byte	0x1
 1963 06e9 42       		.byte	0x42
 1964 06ea A6000000 		.4byte	0xa6
 1965 06ee 4C000000 		.4byte	.LLST2
 1966 06f2 1E       		.uleb128 0x1e
 1967 06f3 53657400 		.ascii	"Set\000"
 1968 06f7 01       		.byte	0x1
 1969 06f8 42       		.byte	0x42
 1970 06f9 A6000000 		.4byte	0xa6
 1971 06fd 6D000000 		.4byte	.LLST3
 1972 0701 1D       		.uleb128 0x1d
 1973 0702 86020000 		.4byte	.LASF72
 1974 0706 01       		.byte	0x1
 1975 0707 42       		.byte	0x42
 1976 0708 BC000000 		.4byte	0xbc
 1977 070c 8E000000 		.4byte	.LLST4
 1978 0710 1D       		.uleb128 0x1d
 1979 0711 CA020000 		.4byte	.LASF73
 1980 0715 01       		.byte	0x1
 1981 0716 42       		.byte	0x42
 1982 0717 BC000000 		.4byte	0xbc
 1983 071b AD000000 		.4byte	.LLST5
 1984 071f 1F       		.uleb128 0x1f
 1985 0720 4B7000   		.ascii	"Kp\000"
 1986 0723 01       		.byte	0x1
 1987 0724 42       		.byte	0x42
 1988 0725 7E070000 		.4byte	0x77e
 1989 0729 02       		.byte	0x2
 1990 072a 91       		.byte	0x91
 1991 072b 00       		.sleb128 0
 1992 072c 1F       		.uleb128 0x1f
 1993 072d 4B6900   		.ascii	"Ki\000"
 1994 0730 01       		.byte	0x1
 1995 0731 42       		.byte	0x42
 1996 0732 7E070000 		.4byte	0x77e
 1997 0736 02       		.byte	0x2
 1998 0737 91       		.byte	0x91
 1999 0738 08       		.sleb128 8
ARM GAS  C:\Users\DNIEL~1\AppData\Local\Temp\cckLhpUz.s 			page 37


 2000 0739 1F       		.uleb128 0x1f
 2001 073a 4B6400   		.ascii	"Kd\000"
 2002 073d 01       		.byte	0x1
 2003 073e 42       		.byte	0x42
 2004 073f 7E070000 		.4byte	0x77e
 2005 0743 02       		.byte	0x2
 2006 0744 91       		.byte	0x91
 2007 0745 10       		.sleb128 16
 2008 0746 20       		.uleb128 0x20
 2009 0747 81020000 		.4byte	.LASF74
 2010 074b 01       		.byte	0x1
 2011 074c 42       		.byte	0x42
 2012 074d BC000000 		.4byte	0xbc
 2013 0751 02       		.byte	0x2
 2014 0752 91       		.byte	0x91
 2015 0753 18       		.sleb128 24
 2016 0754 20       		.uleb128 0x20
 2017 0755 DD010000 		.4byte	.LASF75
 2018 0759 01       		.byte	0x1
 2019 075a 42       		.byte	0x42
 2020 075b BC000000 		.4byte	0xbc
 2021 075f 02       		.byte	0x2
 2022 0760 91       		.byte	0x91
 2023 0761 1C       		.sleb128 28
 2024 0762 20       		.uleb128 0x20
 2025 0763 D3010000 		.4byte	.LASF76
 2026 0767 01       		.byte	0x1
 2027 0768 42       		.byte	0x42
 2028 0769 BC000000 		.4byte	0xbc
 2029 076d 02       		.byte	0x2
 2030 076e 91       		.byte	0x91
 2031 076f 20       		.sleb128 32
 2032 0770 21       		.uleb128 0x21
 2033 0771 5500     		.ascii	"U\000"
 2034 0773 01       		.byte	0x1
 2035 0774 44       		.byte	0x44
 2036 0775 BC000000 		.4byte	0xbc
 2037 0779 CC000000 		.4byte	.LLST6
 2038 077d 00       		.byte	0
 2039 077e 02       		.uleb128 0x2
 2040 077f 08       		.byte	0x8
 2041 0780 04       		.byte	0x4
 2042 0781 74010000 		.4byte	.LASF77
 2043 0785 22       		.uleb128 0x22
 2044 0786 01       		.byte	0x1
 2045 0787 2B000000 		.4byte	.LASF79
 2046 078b 01       		.byte	0x1
 2047 078c 3C       		.byte	0x3c
 2048 078d 01       		.byte	0x1
 2049 078e 00000000 		.4byte	.LFB119
 2050 0792 BA000000 		.4byte	.LFE119
 2051 0796 EA000000 		.4byte	.LLST7
 2052 079a 01       		.byte	0x1
 2053 079b EE070000 		.4byte	0x7ee
 2054 079f 23       		.uleb128 0x23
 2055 07a0 08000000 		.4byte	.LVL28
 2056 07a4 1A0D0000 		.4byte	0xd1a
ARM GAS  C:\Users\DNIEL~1\AppData\Local\Temp\cckLhpUz.s 			page 38


 2057 07a8 24       		.uleb128 0x24
 2058 07a9 72000000 		.4byte	.LVL32
 2059 07ad C5060000 		.4byte	0x6c5
 2060 07b1 DD070000 		.4byte	0x7dd
 2061 07b5 1B       		.uleb128 0x1b
 2062 07b6 01       		.byte	0x1
 2063 07b7 52       		.byte	0x52
 2064 07b8 02       		.byte	0x2
 2065 07b9 74       		.byte	0x74
 2066 07ba 00       		.sleb128 0
 2067 07bb 1B       		.uleb128 0x1b
 2068 07bc 01       		.byte	0x1
 2069 07bd 51       		.byte	0x51
 2070 07be 02       		.byte	0x2
 2071 07bf 76       		.byte	0x76
 2072 07c0 00       		.sleb128 0
 2073 07c1 1B       		.uleb128 0x1b
 2074 07c2 01       		.byte	0x1
 2075 07c3 50       		.byte	0x50
 2076 07c4 02       		.byte	0x2
 2077 07c5 75       		.byte	0x75
 2078 07c6 00       		.sleb128 0
 2079 07c7 1B       		.uleb128 0x1b
 2080 07c8 02       		.byte	0x2
 2081 07c9 7D       		.byte	0x7d
 2082 07ca 20       		.sleb128 32
 2083 07cb 02       		.byte	0x2
 2084 07cc 74       		.byte	0x74
 2085 07cd 00       		.sleb128 0
 2086 07ce 1B       		.uleb128 0x1b
 2087 07cf 02       		.byte	0x2
 2088 07d0 7D       		.byte	0x7d
 2089 07d1 1C       		.sleb128 28
 2090 07d2 02       		.byte	0x2
 2091 07d3 74       		.byte	0x74
 2092 07d4 00       		.sleb128 0
 2093 07d5 1B       		.uleb128 0x1b
 2094 07d6 02       		.byte	0x2
 2095 07d7 7D       		.byte	0x7d
 2096 07d8 18       		.sleb128 24
 2097 07d9 02       		.byte	0x2
 2098 07da 74       		.byte	0x74
 2099 07db 00       		.sleb128 0
 2100 07dc 00       		.byte	0
 2101 07dd 1A       		.uleb128 0x1a
 2102 07de BA000000 		.4byte	.LVL33
 2103 07e2 01       		.byte	0x1
 2104 07e3 280D0000 		.4byte	0xd28
 2105 07e7 1B       		.uleb128 0x1b
 2106 07e8 01       		.byte	0x1
 2107 07e9 51       		.byte	0x51
 2108 07ea 01       		.byte	0x1
 2109 07eb 32       		.byte	0x32
 2110 07ec 00       		.byte	0
 2111 07ed 00       		.byte	0
 2112 07ee 22       		.uleb128 0x22
 2113 07ef 01       		.byte	0x1
ARM GAS  C:\Users\DNIEL~1\AppData\Local\Temp\cckLhpUz.s 			page 39


 2114 07f0 FC020000 		.4byte	.LASF80
 2115 07f4 01       		.byte	0x1
 2116 07f5 74       		.byte	0x74
 2117 07f6 01       		.byte	0x1
 2118 07f7 00000000 		.4byte	.LFB121
 2119 07fb FC000000 		.4byte	.LFE121
 2120 07ff 16010000 		.4byte	.LLST8
 2121 0803 01       		.byte	0x1
 2122 0804 67090000 		.4byte	0x967
 2123 0808 1E       		.uleb128 0x1e
 2124 0809 63687000 		.ascii	"chp\000"
 2125 080d 01       		.byte	0x1
 2126 080e 74       		.byte	0x74
 2127 080f 67090000 		.4byte	0x967
 2128 0813 36010000 		.4byte	.LLST9
 2129 0817 1D       		.uleb128 0x1d
 2130 0818 F0030000 		.4byte	.LASF81
 2131 081c 01       		.byte	0x1
 2132 081d 74       		.byte	0x74
 2133 081e 45000000 		.4byte	0x45
 2134 0822 75010000 		.4byte	.LLST10
 2135 0826 1D       		.uleb128 0x1d
 2136 0827 FB030000 		.4byte	.LASF82
 2137 082b 01       		.byte	0x1
 2138 082c 74       		.byte	0x74
 2139 082d 6D090000 		.4byte	0x96d
 2140 0831 96010000 		.4byte	.LLST11
 2141 0835 24       		.uleb128 0x24
 2142 0836 18000000 		.4byte	.LVL36
 2143 083a 460D0000 		.4byte	0xd46
 2144 083e 52080000 		.4byte	0x852
 2145 0842 1B       		.uleb128 0x1b
 2146 0843 01       		.byte	0x1
 2147 0844 51       		.byte	0x51
 2148 0845 05       		.byte	0x5
 2149 0846 03       		.byte	0x3
 2150 0847 00000000 		.4byte	.LC0
 2151 084b 1B       		.uleb128 0x1b
 2152 084c 01       		.byte	0x1
 2153 084d 50       		.byte	0x50
 2154 084e 02       		.byte	0x2
 2155 084f 74       		.byte	0x74
 2156 0850 00       		.sleb128 0
 2157 0851 00       		.byte	0
 2158 0852 24       		.uleb128 0x24
 2159 0853 20000000 		.4byte	.LVL37
 2160 0857 460D0000 		.4byte	0xd46
 2161 085b 6F080000 		.4byte	0x86f
 2162 085f 1B       		.uleb128 0x1b
 2163 0860 01       		.byte	0x1
 2164 0861 51       		.byte	0x51
 2165 0862 05       		.byte	0x5
 2166 0863 03       		.byte	0x3
 2167 0864 04000000 		.4byte	.LC1
 2168 0868 1B       		.uleb128 0x1b
 2169 0869 01       		.byte	0x1
 2170 086a 50       		.byte	0x50
ARM GAS  C:\Users\DNIEL~1\AppData\Local\Temp\cckLhpUz.s 			page 40


 2171 086b 02       		.byte	0x2
 2172 086c 74       		.byte	0x74
 2173 086d 00       		.sleb128 0
 2174 086e 00       		.byte	0
 2175 086f 23       		.uleb128 0x23
 2176 0870 26000000 		.4byte	.LVL39
 2177 0874 460D0000 		.4byte	0xd46
 2178 0878 24       		.uleb128 0x24
 2179 0879 3E000000 		.4byte	.LVL41
 2180 087d 460D0000 		.4byte	0xd46
 2181 0881 9B080000 		.4byte	0x89b
 2182 0885 1B       		.uleb128 0x1b
 2183 0886 01       		.byte	0x1
 2184 0887 52       		.byte	0x52
 2185 0888 02       		.byte	0x2
 2186 0889 75       		.byte	0x75
 2187 088a 00       		.sleb128 0
 2188 088b 1B       		.uleb128 0x1b
 2189 088c 01       		.byte	0x1
 2190 088d 51       		.byte	0x51
 2191 088e 05       		.byte	0x5
 2192 088f 03       		.byte	0x3
 2193 0890 18000000 		.4byte	.LC3
 2194 0894 1B       		.uleb128 0x1b
 2195 0895 01       		.byte	0x1
 2196 0896 50       		.byte	0x50
 2197 0897 02       		.byte	0x2
 2198 0898 74       		.byte	0x74
 2199 0899 00       		.sleb128 0
 2200 089a 00       		.byte	0
 2201 089b 24       		.uleb128 0x24
 2202 089c 56000000 		.4byte	.LVL43
 2203 08a0 460D0000 		.4byte	0xd46
 2204 08a4 BE080000 		.4byte	0x8be
 2205 08a8 1B       		.uleb128 0x1b
 2206 08a9 01       		.byte	0x1
 2207 08aa 52       		.byte	0x52
 2208 08ab 02       		.byte	0x2
 2209 08ac 75       		.byte	0x75
 2210 08ad 00       		.sleb128 0
 2211 08ae 1B       		.uleb128 0x1b
 2212 08af 01       		.byte	0x1
 2213 08b0 51       		.byte	0x51
 2214 08b1 05       		.byte	0x5
 2215 08b2 03       		.byte	0x3
 2216 08b3 30000000 		.4byte	.LC4
 2217 08b7 1B       		.uleb128 0x1b
 2218 08b8 01       		.byte	0x1
 2219 08b9 50       		.byte	0x50
 2220 08ba 02       		.byte	0x2
 2221 08bb 74       		.byte	0x74
 2222 08bc 00       		.sleb128 0
 2223 08bd 00       		.byte	0
 2224 08be 24       		.uleb128 0x24
 2225 08bf 72000000 		.4byte	.LVL45
 2226 08c3 460D0000 		.4byte	0xd46
 2227 08c7 E1080000 		.4byte	0x8e1
ARM GAS  C:\Users\DNIEL~1\AppData\Local\Temp\cckLhpUz.s 			page 41


 2228 08cb 1B       		.uleb128 0x1b
 2229 08cc 01       		.byte	0x1
 2230 08cd 52       		.byte	0x52
 2231 08ce 02       		.byte	0x2
 2232 08cf 75       		.byte	0x75
 2233 08d0 00       		.sleb128 0
 2234 08d1 1B       		.uleb128 0x1b
 2235 08d2 01       		.byte	0x1
 2236 08d3 51       		.byte	0x51
 2237 08d4 05       		.byte	0x5
 2238 08d5 03       		.byte	0x3
 2239 08d6 48000000 		.4byte	.LC5
 2240 08da 1B       		.uleb128 0x1b
 2241 08db 01       		.byte	0x1
 2242 08dc 50       		.byte	0x50
 2243 08dd 02       		.byte	0x2
 2244 08de 74       		.byte	0x74
 2245 08df 00       		.sleb128 0
 2246 08e0 00       		.byte	0
 2247 08e1 24       		.uleb128 0x24
 2248 08e2 7E000000 		.4byte	.LVL46
 2249 08e6 460D0000 		.4byte	0xd46
 2250 08ea FE080000 		.4byte	0x8fe
 2251 08ee 1B       		.uleb128 0x1b
 2252 08ef 01       		.byte	0x1
 2253 08f0 51       		.byte	0x51
 2254 08f1 05       		.byte	0x5
 2255 08f2 03       		.byte	0x3
 2256 08f3 60000000 		.4byte	.LC6
 2257 08f7 1B       		.uleb128 0x1b
 2258 08f8 01       		.byte	0x1
 2259 08f9 50       		.byte	0x50
 2260 08fa 02       		.byte	0x2
 2261 08fb 74       		.byte	0x74
 2262 08fc 00       		.sleb128 0
 2263 08fd 00       		.byte	0
 2264 08fe 24       		.uleb128 0x24
 2265 08ff 8A000000 		.4byte	.LVL47
 2266 0903 460D0000 		.4byte	0xd46
 2267 0907 1B090000 		.4byte	0x91b
 2268 090b 1B       		.uleb128 0x1b
 2269 090c 01       		.byte	0x1
 2270 090d 51       		.byte	0x51
 2271 090e 05       		.byte	0x5
 2272 090f 03       		.byte	0x3
 2273 0910 6C000000 		.4byte	.LC7
 2274 0914 1B       		.uleb128 0x1b
 2275 0915 01       		.byte	0x1
 2276 0916 50       		.byte	0x50
 2277 0917 02       		.byte	0x2
 2278 0918 74       		.byte	0x74
 2279 0919 00       		.sleb128 0
 2280 091a 00       		.byte	0
 2281 091b 23       		.uleb128 0x23
 2282 091c 8E000000 		.4byte	.LVL48
 2283 0920 1A0D0000 		.4byte	0xd1a
 2284 0924 24       		.uleb128 0x24
ARM GAS  C:\Users\DNIEL~1\AppData\Local\Temp\cckLhpUz.s 			page 42


 2285 0925 98000000 		.4byte	.LVL49
 2286 0929 460D0000 		.4byte	0xd46
 2287 092d 41090000 		.4byte	0x941
 2288 0931 1B       		.uleb128 0x1b
 2289 0932 01       		.byte	0x1
 2290 0933 51       		.byte	0x51
 2291 0934 05       		.byte	0x5
 2292 0935 03       		.byte	0x3
 2293 0936 7C000000 		.4byte	.LC8
 2294 093a 1B       		.uleb128 0x1b
 2295 093b 01       		.byte	0x1
 2296 093c 50       		.byte	0x50
 2297 093d 02       		.byte	0x2
 2298 093e 74       		.byte	0x74
 2299 093f 00       		.sleb128 0
 2300 0940 00       		.byte	0
 2301 0941 24       		.uleb128 0x24
 2302 0942 9E000000 		.4byte	.LVL50
 2303 0946 600D0000 		.4byte	0xd60
 2304 094a 55090000 		.4byte	0x955
 2305 094e 1B       		.uleb128 0x1b
 2306 094f 01       		.byte	0x1
 2307 0950 50       		.byte	0x50
 2308 0951 02       		.byte	0x2
 2309 0952 08       		.byte	0x8
 2310 0953 64       		.byte	0x64
 2311 0954 00       		.byte	0
 2312 0955 25       		.uleb128 0x25
 2313 0956 A8000000 		.4byte	.LVL51
 2314 095a 1B       		.uleb128 0x1b
 2315 095b 01       		.byte	0x1
 2316 095c 51       		.byte	0x51
 2317 095d 01       		.byte	0x1
 2318 095e 30       		.byte	0x30
 2319 095f 1B       		.uleb128 0x1b
 2320 0960 01       		.byte	0x1
 2321 0961 50       		.byte	0x50
 2322 0962 02       		.byte	0x2
 2323 0963 74       		.byte	0x74
 2324 0964 00       		.sleb128 0
 2325 0965 00       		.byte	0
 2326 0966 00       		.byte	0
 2327 0967 05       		.uleb128 0x5
 2328 0968 04       		.byte	0x4
 2329 0969 D6010000 		.4byte	0x1d6
 2330 096d 05       		.uleb128 0x5
 2331 096e 04       		.byte	0x4
 2332 096f 78000000 		.4byte	0x78
 2333 0973 22       		.uleb128 0x22
 2334 0974 01       		.byte	0x1
 2335 0975 E2010000 		.4byte	.LASF83
 2336 0979 01       		.byte	0x1
 2337 097a 88       		.byte	0x88
 2338 097b 01       		.byte	0x1
 2339 097c 00000000 		.4byte	.LFB122
 2340 0980 AC010000 		.4byte	.LFE122
 2341 0984 B7010000 		.4byte	.LLST12
ARM GAS  C:\Users\DNIEL~1\AppData\Local\Temp\cckLhpUz.s 			page 43


 2342 0988 01       		.byte	0x1
 2343 0989 C90B0000 		.4byte	0xbc9
 2344 098d 1E       		.uleb128 0x1e
 2345 098e 63687000 		.ascii	"chp\000"
 2346 0992 01       		.byte	0x1
 2347 0993 88       		.byte	0x88
 2348 0994 67090000 		.4byte	0x967
 2349 0998 D7010000 		.4byte	.LLST13
 2350 099c 1D       		.uleb128 0x1d
 2351 099d F0030000 		.4byte	.LASF81
 2352 09a1 01       		.byte	0x1
 2353 09a2 88       		.byte	0x88
 2354 09a3 45000000 		.4byte	0x45
 2355 09a7 F5010000 		.4byte	.LLST14
 2356 09ab 1D       		.uleb128 0x1d
 2357 09ac FB030000 		.4byte	.LASF82
 2358 09b0 01       		.byte	0x1
 2359 09b1 88       		.byte	0x88
 2360 09b2 6D090000 		.4byte	0x96d
 2361 09b6 3A020000 		.4byte	.LLST15
 2362 09ba 26       		.uleb128 0x26
 2363 09bb 36000000 		.4byte	.LASF84
 2364 09bf 01       		.byte	0x1
 2365 09c0 8C       		.byte	0x8c
 2366 09c1 A6000000 		.4byte	0xa6
 2367 09c5 8A020000 		.4byte	.LLST16
 2368 09c9 27       		.uleb128 0x27
 2369 09ca 7B020000 		.4byte	.LASF103
 2370 09ce 01       		.byte	0x1
 2371 09cf C5       		.byte	0xc5
 2372 09d0 36000000 		.4byte	.LDL1
 2373 09d4 24       		.uleb128 0x24
 2374 09d5 0E000000 		.4byte	.LVL55
 2375 09d9 460D0000 		.4byte	0xd46
 2376 09dd F1090000 		.4byte	0x9f1
 2377 09e1 1B       		.uleb128 0x1b
 2378 09e2 01       		.byte	0x1
 2379 09e3 51       		.byte	0x51
 2380 09e4 05       		.byte	0x5
 2381 09e5 03       		.byte	0x3
 2382 09e6 00000000 		.4byte	.LC0
 2383 09ea 1B       		.uleb128 0x1b
 2384 09eb 01       		.byte	0x1
 2385 09ec 50       		.byte	0x50
 2386 09ed 02       		.byte	0x2
 2387 09ee 74       		.byte	0x74
 2388 09ef 00       		.sleb128 0
 2389 09f0 00       		.byte	0
 2390 09f1 24       		.uleb128 0x24
 2391 09f2 16000000 		.4byte	.LVL56
 2392 09f6 460D0000 		.4byte	0xd46
 2393 09fa 0E0A0000 		.4byte	0xa0e
 2394 09fe 1B       		.uleb128 0x1b
 2395 09ff 01       		.byte	0x1
 2396 0a00 51       		.byte	0x51
 2397 0a01 05       		.byte	0x5
 2398 0a02 03       		.byte	0x3
ARM GAS  C:\Users\DNIEL~1\AppData\Local\Temp\cckLhpUz.s 			page 44


 2399 0a03 04000000 		.4byte	.LC1
 2400 0a07 1B       		.uleb128 0x1b
 2401 0a08 01       		.byte	0x1
 2402 0a09 50       		.byte	0x50
 2403 0a0a 02       		.byte	0x2
 2404 0a0b 74       		.byte	0x74
 2405 0a0c 00       		.sleb128 0
 2406 0a0d 00       		.byte	0
 2407 0a0e 28       		.uleb128 0x28
 2408 0a0f 20000000 		.4byte	.LVL57
 2409 0a13 230A0000 		.4byte	0xa23
 2410 0a17 1B       		.uleb128 0x1b
 2411 0a18 01       		.byte	0x1
 2412 0a19 51       		.byte	0x51
 2413 0a1a 01       		.byte	0x1
 2414 0a1b 30       		.byte	0x30
 2415 0a1c 1B       		.uleb128 0x1b
 2416 0a1d 01       		.byte	0x1
 2417 0a1e 50       		.byte	0x50
 2418 0a1f 02       		.byte	0x2
 2419 0a20 74       		.byte	0x74
 2420 0a21 00       		.sleb128 0
 2421 0a22 00       		.byte	0
 2422 0a23 24       		.uleb128 0x24
 2423 0a24 32000000 		.4byte	.LVL58
 2424 0a28 460D0000 		.4byte	0xd46
 2425 0a2c 4A0A0000 		.4byte	0xa4a
 2426 0a30 1B       		.uleb128 0x1b
 2427 0a31 01       		.byte	0x1
 2428 0a32 53       		.byte	0x53
 2429 0a33 01       		.byte	0x1
 2430 0a34 30       		.byte	0x30
 2431 0a35 1B       		.uleb128 0x1b
 2432 0a36 01       		.byte	0x1
 2433 0a37 52       		.byte	0x52
 2434 0a38 01       		.byte	0x1
 2435 0a39 30       		.byte	0x30
 2436 0a3a 1B       		.uleb128 0x1b
 2437 0a3b 01       		.byte	0x1
 2438 0a3c 51       		.byte	0x51
 2439 0a3d 05       		.byte	0x5
 2440 0a3e 03       		.byte	0x3
 2441 0a3f 0C000000 		.4byte	.LC2
 2442 0a43 1B       		.uleb128 0x1b
 2443 0a44 01       		.byte	0x1
 2444 0a45 50       		.byte	0x50
 2445 0a46 02       		.byte	0x2
 2446 0a47 74       		.byte	0x74
 2447 0a48 00       		.sleb128 0
 2448 0a49 00       		.byte	0
 2449 0a4a 29       		.uleb128 0x29
 2450 0a4b 42000000 		.4byte	.LVL60
 2451 0a4f 01       		.byte	0x1
 2452 0a50 460D0000 		.4byte	0xd46
 2453 0a54 680A0000 		.4byte	0xa68
 2454 0a58 1B       		.uleb128 0x1b
 2455 0a59 01       		.byte	0x1
ARM GAS  C:\Users\DNIEL~1\AppData\Local\Temp\cckLhpUz.s 			page 45


 2456 0a5a 51       		.byte	0x51
 2457 0a5b 05       		.byte	0x5
 2458 0a5c 03       		.byte	0x3
 2459 0a5d 00010000 		.4byte	.LC16
 2460 0a61 1B       		.uleb128 0x1b
 2461 0a62 01       		.byte	0x1
 2462 0a63 50       		.byte	0x50
 2463 0a64 02       		.byte	0x2
 2464 0a65 74       		.byte	0x74
 2465 0a66 00       		.sleb128 0
 2466 0a67 00       		.byte	0
 2467 0a68 24       		.uleb128 0x24
 2468 0a69 4C000000 		.4byte	.LVL62
 2469 0a6d 750D0000 		.4byte	0xd75
 2470 0a71 850A0000 		.4byte	0xa85
 2471 0a75 1B       		.uleb128 0x1b
 2472 0a76 01       		.byte	0x1
 2473 0a77 51       		.byte	0x51
 2474 0a78 05       		.byte	0x5
 2475 0a79 03       		.byte	0x3
 2476 0a7a 90000000 		.4byte	.LC9
 2477 0a7e 1B       		.uleb128 0x1b
 2478 0a7f 01       		.byte	0x1
 2479 0a80 50       		.byte	0x50
 2480 0a81 02       		.byte	0x2
 2481 0a82 75       		.byte	0x75
 2482 0a83 00       		.sleb128 0
 2483 0a84 00       		.byte	0
 2484 0a85 24       		.uleb128 0x24
 2485 0a86 58000000 		.4byte	.LVL63
 2486 0a8a 750D0000 		.4byte	0xd75
 2487 0a8e A20A0000 		.4byte	0xaa2
 2488 0a92 1B       		.uleb128 0x1b
 2489 0a93 01       		.byte	0x1
 2490 0a94 51       		.byte	0x51
 2491 0a95 05       		.byte	0x5
 2492 0a96 03       		.byte	0x3
 2493 0a97 1C010000 		.4byte	.LC17
 2494 0a9b 1B       		.uleb128 0x1b
 2495 0a9c 01       		.byte	0x1
 2496 0a9d 50       		.byte	0x50
 2497 0a9e 02       		.byte	0x2
 2498 0a9f 75       		.byte	0x75
 2499 0aa0 00       		.sleb128 0
 2500 0aa1 00       		.byte	0
 2501 0aa2 24       		.uleb128 0x24
 2502 0aa3 64000000 		.4byte	.LVL64
 2503 0aa7 750D0000 		.4byte	0xd75
 2504 0aab BF0A0000 		.4byte	0xabf
 2505 0aaf 1B       		.uleb128 0x1b
 2506 0ab0 01       		.byte	0x1
 2507 0ab1 51       		.byte	0x51
 2508 0ab2 05       		.byte	0x5
 2509 0ab3 03       		.byte	0x3
 2510 0ab4 20010000 		.4byte	.LC18
 2511 0ab8 1B       		.uleb128 0x1b
 2512 0ab9 01       		.byte	0x1
ARM GAS  C:\Users\DNIEL~1\AppData\Local\Temp\cckLhpUz.s 			page 46


 2513 0aba 50       		.byte	0x50
 2514 0abb 02       		.byte	0x2
 2515 0abc 75       		.byte	0x75
 2516 0abd 00       		.sleb128 0
 2517 0abe 00       		.byte	0
 2518 0abf 24       		.uleb128 0x24
 2519 0ac0 70000000 		.4byte	.LVL65
 2520 0ac4 750D0000 		.4byte	0xd75
 2521 0ac8 DC0A0000 		.4byte	0xadc
 2522 0acc 1B       		.uleb128 0x1b
 2523 0acd 01       		.byte	0x1
 2524 0ace 51       		.byte	0x51
 2525 0acf 05       		.byte	0x5
 2526 0ad0 03       		.byte	0x3
 2527 0ad1 24010000 		.4byte	.LC19
 2528 0ad5 1B       		.uleb128 0x1b
 2529 0ad6 01       		.byte	0x1
 2530 0ad7 50       		.byte	0x50
 2531 0ad8 02       		.byte	0x2
 2532 0ad9 75       		.byte	0x75
 2533 0ada 00       		.sleb128 0
 2534 0adb 00       		.byte	0
 2535 0adc 23       		.uleb128 0x23
 2536 0add 7A000000 		.4byte	.LVL66
 2537 0ae1 920D0000 		.4byte	0xd92
 2538 0ae5 24       		.uleb128 0x24
 2539 0ae6 94000000 		.4byte	.LVL70
 2540 0aea 460D0000 		.4byte	0xd46
 2541 0aee 020B0000 		.4byte	0xb02
 2542 0af2 1B       		.uleb128 0x1b
 2543 0af3 01       		.byte	0x1
 2544 0af4 51       		.byte	0x51
 2545 0af5 05       		.byte	0x5
 2546 0af6 03       		.byte	0x3
 2547 0af7 DC000000 		.4byte	.LC13
 2548 0afb 1B       		.uleb128 0x1b
 2549 0afc 01       		.byte	0x1
 2550 0afd 50       		.byte	0x50
 2551 0afe 02       		.byte	0x2
 2552 0aff 74       		.byte	0x74
 2553 0b00 00       		.sleb128 0
 2554 0b01 00       		.byte	0
 2555 0b02 24       		.uleb128 0x24
 2556 0b03 A2000000 		.4byte	.LVL71
 2557 0b07 460D0000 		.4byte	0xd46
 2558 0b0b 1F0B0000 		.4byte	0xb1f
 2559 0b0f 1B       		.uleb128 0x1b
 2560 0b10 01       		.byte	0x1
 2561 0b11 51       		.byte	0x51
 2562 0b12 05       		.byte	0x5
 2563 0b13 03       		.byte	0x3
 2564 0b14 E8000000 		.4byte	.LC14
 2565 0b18 1B       		.uleb128 0x1b
 2566 0b19 01       		.byte	0x1
 2567 0b1a 50       		.byte	0x50
 2568 0b1b 02       		.byte	0x2
 2569 0b1c 74       		.byte	0x74
ARM GAS  C:\Users\DNIEL~1\AppData\Local\Temp\cckLhpUz.s 			page 47


 2570 0b1d 00       		.sleb128 0
 2571 0b1e 00       		.byte	0
 2572 0b1f 24       		.uleb128 0x24
 2573 0b20 AE000000 		.4byte	.LVL72
 2574 0b24 460D0000 		.4byte	0xd46
 2575 0b28 3C0B0000 		.4byte	0xb3c
 2576 0b2c 1B       		.uleb128 0x1b
 2577 0b2d 01       		.byte	0x1
 2578 0b2e 51       		.byte	0x51
 2579 0b2f 05       		.byte	0x5
 2580 0b30 03       		.byte	0x3
 2581 0b31 F4000000 		.4byte	.LC15
 2582 0b35 1B       		.uleb128 0x1b
 2583 0b36 01       		.byte	0x1
 2584 0b37 50       		.byte	0x50
 2585 0b38 02       		.byte	0x2
 2586 0b39 74       		.byte	0x74
 2587 0b3a 00       		.sleb128 0
 2588 0b3b 00       		.byte	0
 2589 0b3c 29       		.uleb128 0x29
 2590 0b3d BE000000 		.4byte	.LVL73
 2591 0b41 01       		.byte	0x1
 2592 0b42 460D0000 		.4byte	0xd46
 2593 0b46 5A0B0000 		.4byte	0xb5a
 2594 0b4a 1B       		.uleb128 0x1b
 2595 0b4b 01       		.byte	0x1
 2596 0b4c 51       		.byte	0x51
 2597 0b4d 05       		.byte	0x5
 2598 0b4e 03       		.byte	0x3
 2599 0b4f 6C000000 		.4byte	.LC7
 2600 0b53 1B       		.uleb128 0x1b
 2601 0b54 01       		.byte	0x1
 2602 0b55 50       		.byte	0x50
 2603 0b56 02       		.byte	0x2
 2604 0b57 74       		.byte	0x74
 2605 0b58 00       		.sleb128 0
 2606 0b59 00       		.byte	0
 2607 0b5a 23       		.uleb128 0x23
 2608 0b5b C4000000 		.4byte	.LVL74
 2609 0b5f 920D0000 		.4byte	0xd92
 2610 0b63 23       		.uleb128 0x23
 2611 0b64 DA000000 		.4byte	.LVL78
 2612 0b68 920D0000 		.4byte	0xd92
 2613 0b6c 23       		.uleb128 0x23
 2614 0b6d F0000000 		.4byte	.LVL82
 2615 0b71 920D0000 		.4byte	0xd92
 2616 0b75 24       		.uleb128 0x24
 2617 0b76 16010000 		.4byte	.LVL87
 2618 0b7a 460D0000 		.4byte	0xd46
 2619 0b7e 920B0000 		.4byte	0xb92
 2620 0b82 1B       		.uleb128 0x1b
 2621 0b83 01       		.byte	0x1
 2622 0b84 51       		.byte	0x51
 2623 0b85 05       		.byte	0x5
 2624 0b86 03       		.byte	0x3
 2625 0b87 C4000000 		.4byte	.LC12
 2626 0b8b 1B       		.uleb128 0x1b
ARM GAS  C:\Users\DNIEL~1\AppData\Local\Temp\cckLhpUz.s 			page 48


 2627 0b8c 01       		.byte	0x1
 2628 0b8d 50       		.byte	0x50
 2629 0b8e 02       		.byte	0x2
 2630 0b8f 74       		.byte	0x74
 2631 0b90 00       		.sleb128 0
 2632 0b91 00       		.byte	0
 2633 0b92 24       		.uleb128 0x24
 2634 0b93 32010000 		.4byte	.LVL91
 2635 0b97 460D0000 		.4byte	0xd46
 2636 0b9b AF0B0000 		.4byte	0xbaf
 2637 0b9f 1B       		.uleb128 0x1b
 2638 0ba0 01       		.byte	0x1
 2639 0ba1 51       		.byte	0x51
 2640 0ba2 05       		.byte	0x5
 2641 0ba3 03       		.byte	0x3
 2642 0ba4 AC000000 		.4byte	.LC11
 2643 0ba8 1B       		.uleb128 0x1b
 2644 0ba9 01       		.byte	0x1
 2645 0baa 50       		.byte	0x50
 2646 0bab 02       		.byte	0x2
 2647 0bac 74       		.byte	0x74
 2648 0bad 00       		.sleb128 0
 2649 0bae 00       		.byte	0
 2650 0baf 2A       		.uleb128 0x2a
 2651 0bb0 50010000 		.4byte	.LVL94
 2652 0bb4 460D0000 		.4byte	0xd46
 2653 0bb8 1B       		.uleb128 0x1b
 2654 0bb9 01       		.byte	0x1
 2655 0bba 51       		.byte	0x51
 2656 0bbb 05       		.byte	0x5
 2657 0bbc 03       		.byte	0x3
 2658 0bbd 94000000 		.4byte	.LC10
 2659 0bc1 1B       		.uleb128 0x1b
 2660 0bc2 01       		.byte	0x1
 2661 0bc3 50       		.byte	0x50
 2662 0bc4 02       		.byte	0x2
 2663 0bc5 74       		.byte	0x74
 2664 0bc6 00       		.sleb128 0
 2665 0bc7 00       		.byte	0
 2666 0bc8 00       		.byte	0
 2667 0bc9 2B       		.uleb128 0x2b
 2668 0bca 4B5F5000 		.ascii	"K_P\000"
 2669 0bce 01       		.byte	0x1
 2670 0bcf 0D       		.byte	0xd
 2671 0bd0 A6000000 		.4byte	0xa6
 2672 0bd4 05       		.byte	0x5
 2673 0bd5 03       		.byte	0x3
 2674 0bd6 00000000 		.4byte	K_P
 2675 0bda 2B       		.uleb128 0x2b
 2676 0bdb 4B5F4900 		.ascii	"K_I\000"
 2677 0bdf 01       		.byte	0x1
 2678 0be0 0E       		.byte	0xe
 2679 0be1 A6000000 		.4byte	0xa6
 2680 0be5 05       		.byte	0x5
 2681 0be6 03       		.byte	0x3
 2682 0be7 00000000 		.4byte	K_I
 2683 0beb 2B       		.uleb128 0x2b
ARM GAS  C:\Users\DNIEL~1\AppData\Local\Temp\cckLhpUz.s 			page 49


 2684 0bec 4B5F4400 		.ascii	"K_D\000"
 2685 0bf0 01       		.byte	0x1
 2686 0bf1 0F       		.byte	0xf
 2687 0bf2 A6000000 		.4byte	0xa6
 2688 0bf6 05       		.byte	0x5
 2689 0bf7 03       		.byte	0x3
 2690 0bf8 00000000 		.4byte	K_D
 2691 0bfc 2C       		.uleb128 0x2c
 2692 0bfd 18020000 		.4byte	.LASF85
 2693 0c01 01       		.byte	0x1
 2694 0c02 11       		.byte	0x11
 2695 0c03 100C0000 		.4byte	0xc10
 2696 0c07 08       		.byte	0x8
 2697 0c08 00000000 		.4byte	0
 2698 0c0c 80842E41 		.4byte	0x412e8480
 2699 0c10 06       		.uleb128 0x6
 2700 0c11 7E070000 		.4byte	0x77e
 2701 0c15 2C       		.uleb128 0x2c
 2702 0c16 7B010000 		.4byte	.LASF86
 2703 0c1a 01       		.byte	0x1
 2704 0c1b 12       		.byte	0x12
 2705 0c1c 100C0000 		.4byte	0xc10
 2706 0c20 08       		.byte	0x8
 2707 0c21 00000000 		.4byte	0
 2708 0c25 20D62341 		.4byte	0x4123d620
 2709 0c29 2C       		.uleb128 0x2c
 2710 0c2a 12020000 		.4byte	.LASF87
 2711 0c2e 01       		.byte	0x1
 2712 0c2f 14       		.byte	0x14
 2713 0c30 100C0000 		.4byte	0xc10
 2714 0c34 08       		.byte	0x8
 2715 0c35 00000000 		.4byte	0
 2716 0c39 80842E41 		.4byte	0x412e8480
 2717 0c3d 2C       		.uleb128 0x2c
 2718 0c3e FC010000 		.4byte	.LASF88
 2719 0c42 01       		.byte	0x1
 2720 0c43 15       		.byte	0x15
 2721 0c44 100C0000 		.4byte	0xc10
 2722 0c48 08       		.byte	0x8
 2723 0c49 00000000 		.4byte	0
 2724 0c4d 80842E41 		.4byte	0x412e8480
 2725 0c51 2C       		.uleb128 0x2c
 2726 0c52 F6010000 		.4byte	.LASF89
 2727 0c56 01       		.byte	0x1
 2728 0c57 16       		.byte	0x16
 2729 0c58 100C0000 		.4byte	0xc10
 2730 0c5c 08       		.byte	0x8
 2731 0c5d 00000000 		.4byte	0
 2732 0c61 80842E41 		.4byte	0x412e8480
 2733 0c65 2B       		.uleb128 0x2b
 2734 0c66 70776D00 		.ascii	"pwm\000"
 2735 0c6a 01       		.byte	0x1
 2736 0c6b 18       		.byte	0x18
 2737 0c6c BC000000 		.4byte	0xbc
 2738 0c70 05       		.byte	0x5
 2739 0c71 03       		.byte	0x3
 2740 0c72 00000000 		.4byte	pwm
ARM GAS  C:\Users\DNIEL~1\AppData\Local\Temp\cckLhpUz.s 			page 50


 2741 0c76 2B       		.uleb128 0x2b
 2742 0c77 5000     		.ascii	"P\000"
 2743 0c79 01       		.byte	0x1
 2744 0c7a 19       		.byte	0x19
 2745 0c7b 7E070000 		.4byte	0x77e
 2746 0c7f 05       		.byte	0x5
 2747 0c80 03       		.byte	0x3
 2748 0c81 00000000 		.4byte	P
 2749 0c85 2B       		.uleb128 0x2b
 2750 0c86 4900     		.ascii	"I\000"
 2751 0c88 01       		.byte	0x1
 2752 0c89 1A       		.byte	0x1a
 2753 0c8a 7E070000 		.4byte	0x77e
 2754 0c8e 05       		.byte	0x5
 2755 0c8f 03       		.byte	0x3
 2756 0c90 00000000 		.4byte	I
 2757 0c94 2B       		.uleb128 0x2b
 2758 0c95 4400     		.ascii	"D\000"
 2759 0c97 01       		.byte	0x1
 2760 0c98 1B       		.byte	0x1b
 2761 0c99 7E070000 		.4byte	0x77e
 2762 0c9d 05       		.byte	0x5
 2763 0c9e 03       		.byte	0x3
 2764 0c9f 00000000 		.4byte	D
 2765 0ca3 2D       		.uleb128 0x2d
 2766 0ca4 87030000 		.4byte	.LASF90
 2767 0ca8 01       		.byte	0x1
 2768 0ca9 1C       		.byte	0x1c
 2769 0caa 7E070000 		.4byte	0x77e
 2770 0cae 05       		.byte	0x5
 2771 0caf 03       		.byte	0x3
 2772 0cb0 00000000 		.4byte	eelozo
 2773 0cb4 2B       		.uleb128 0x2b
 2774 0cb5 6500     		.ascii	"e\000"
 2775 0cb7 01       		.byte	0x1
 2776 0cb8 1D       		.byte	0x1d
 2777 0cb9 7E070000 		.4byte	0x77e
 2778 0cbd 05       		.byte	0x5
 2779 0cbe 03       		.byte	0x3
 2780 0cbf 00000000 		.4byte	e
 2781 0cc3 2B       		.uleb128 0x2b
 2782 0cc4 73657400 		.ascii	"set\000"
 2783 0cc8 01       		.byte	0x1
 2784 0cc9 1F       		.byte	0x1f
 2785 0cca 45000000 		.4byte	0x45
 2786 0cce 05       		.byte	0x5
 2787 0ccf 03       		.byte	0x3
 2788 0cd0 00000000 		.4byte	set
 2789 0cd4 2D       		.uleb128 0x2d
 2790 0cd5 C0010000 		.4byte	.LASF91
 2791 0cd9 01       		.byte	0x1
 2792 0cda 21       		.byte	0x21
 2793 0cdb 7F060000 		.4byte	0x67f
 2794 0cdf 05       		.byte	0x5
 2795 0ce0 03       		.byte	0x3
 2796 0ce1 00000000 		.4byte	cruise_pwmcfg
 2797 0ce5 2E       		.uleb128 0x2e
ARM GAS  C:\Users\DNIEL~1\AppData\Local\Temp\cckLhpUz.s 			page 51


 2798 0ce6 CB000000 		.4byte	.LASF92
 2799 0cea 0A       		.byte	0xa
 2800 0ceb 9806     		.2byte	0x698
 2801 0ced F6010000 		.4byte	0x1f6
 2802 0cf1 01       		.byte	0x1
 2803 0cf2 01       		.byte	0x1
 2804 0cf3 2E       		.uleb128 0x2e
 2805 0cf4 81010000 		.4byte	.LASF93
 2806 0cf8 09       		.byte	0x9
 2807 0cf9 9701     		.2byte	0x197
 2808 0cfb 3B050000 		.4byte	0x53b
 2809 0cff 01       		.byte	0x1
 2810 0d00 01       		.byte	0x1
 2811 0d01 2F       		.uleb128 0x2f
 2812 0d02 01       		.byte	0x1
 2813 0d03 F7000000 		.4byte	.LASF94
 2814 0d07 08       		.byte	0x8
 2815 0d08 E1       		.byte	0xe1
 2816 0d09 01       		.byte	0x1
 2817 0d0a 01       		.byte	0x1
 2818 0d0b 1A0D0000 		.4byte	0xd1a
 2819 0d0f 0A       		.uleb128 0xa
 2820 0d10 BC050000 		.4byte	0x5bc
 2821 0d14 0A       		.uleb128 0xa
 2822 0d15 8B060000 		.4byte	0x68b
 2823 0d19 00       		.byte	0
 2824 0d1a 30       		.uleb128 0x30
 2825 0d1b 01       		.byte	0x1
 2826 0d1c 0D030000 		.4byte	.LASF104
 2827 0d20 0E       		.byte	0xe
 2828 0d21 11       		.byte	0x11
 2829 0d22 01       		.byte	0x1
 2830 0d23 C7000000 		.4byte	0xc7
 2831 0d27 01       		.byte	0x1
 2832 0d28 2F       		.uleb128 0x2f
 2833 0d29 01       		.byte	0x1
 2834 0d2a 15040000 		.4byte	.LASF95
 2835 0d2e 08       		.byte	0x8
 2836 0d2f E4       		.byte	0xe4
 2837 0d30 01       		.byte	0x1
 2838 0d31 01       		.byte	0x1
 2839 0d32 460D0000 		.4byte	0xd46
 2840 0d36 0A       		.uleb128 0xa
 2841 0d37 BC050000 		.4byte	0x5bc
 2842 0d3b 0A       		.uleb128 0xa
 2843 0d3c CE050000 		.4byte	0x5ce
 2844 0d40 0A       		.uleb128 0xa
 2845 0d41 DA050000 		.4byte	0x5da
 2846 0d45 00       		.byte	0
 2847 0d46 2F       		.uleb128 0x2f
 2848 0d47 01       		.byte	0x1
 2849 0d48 26040000 		.4byte	.LASF96
 2850 0d4c 0B       		.byte	0xb
 2851 0d4d 2A       		.byte	0x2a
 2852 0d4e 01       		.byte	0x1
 2853 0d4f 01       		.byte	0x1
 2854 0d50 600D0000 		.4byte	0xd60
ARM GAS  C:\Users\DNIEL~1\AppData\Local\Temp\cckLhpUz.s 			page 52


 2855 0d54 0A       		.uleb128 0xa
 2856 0d55 67090000 		.4byte	0x967
 2857 0d59 0A       		.uleb128 0xa
 2858 0d5a 85000000 		.4byte	0x85
 2859 0d5e 31       		.uleb128 0x31
 2860 0d5f 00       		.byte	0
 2861 0d60 32       		.uleb128 0x32
 2862 0d61 01       		.byte	0x1
 2863 0d62 0D000000 		.4byte	.LASF97
 2864 0d66 0C       		.byte	0xc
 2865 0d67 6901     		.2byte	0x169
 2866 0d69 01       		.byte	0x1
 2867 0d6a 01       		.byte	0x1
 2868 0d6b 750D0000 		.4byte	0xd75
 2869 0d6f 0A       		.uleb128 0xa
 2870 0d70 DD000000 		.4byte	0xdd
 2871 0d74 00       		.byte	0
 2872 0d75 33       		.uleb128 0x33
 2873 0d76 01       		.byte	0x1
 2874 0d77 18000000 		.4byte	.LASF105
 2875 0d7b 0F       		.byte	0xf
 2876 0d7c 1D       		.byte	0x1d
 2877 0d7d 01       		.byte	0x1
 2878 0d7e 45000000 		.4byte	0x45
 2879 0d82 01       		.byte	0x1
 2880 0d83 920D0000 		.4byte	0xd92
 2881 0d87 0A       		.uleb128 0xa
 2882 0d88 85000000 		.4byte	0x85
 2883 0d8c 0A       		.uleb128 0xa
 2884 0d8d 85000000 		.4byte	0x85
 2885 0d91 00       		.byte	0
 2886 0d92 34       		.uleb128 0x34
 2887 0d93 01       		.byte	0x1
 2888 0d94 87010000 		.4byte	.LASF98
 2889 0d98 0D       		.byte	0xd
 2890 0d99 47       		.byte	0x47
 2891 0d9a 01       		.byte	0x1
 2892 0d9b 61000000 		.4byte	0x61
 2893 0d9f 01       		.byte	0x1
 2894 0da0 0A       		.uleb128 0xa
 2895 0da1 85000000 		.4byte	0x85
 2896 0da5 00       		.byte	0
 2897 0da6 00       		.byte	0
 2898              		.section	.debug_abbrev,"",%progbits
 2899              	.Ldebug_abbrev0:
 2900 0000 01       		.uleb128 0x1
 2901 0001 11       		.uleb128 0x11
 2902 0002 01       		.byte	0x1
 2903 0003 25       		.uleb128 0x25
 2904 0004 0E       		.uleb128 0xe
 2905 0005 13       		.uleb128 0x13
 2906 0006 0B       		.uleb128 0xb
 2907 0007 03       		.uleb128 0x3
 2908 0008 0E       		.uleb128 0xe
 2909 0009 1B       		.uleb128 0x1b
 2910 000a 0E       		.uleb128 0xe
 2911 000b 55       		.uleb128 0x55
ARM GAS  C:\Users\DNIEL~1\AppData\Local\Temp\cckLhpUz.s 			page 53


 2912 000c 06       		.uleb128 0x6
 2913 000d 11       		.uleb128 0x11
 2914 000e 01       		.uleb128 0x1
 2915 000f 52       		.uleb128 0x52
 2916 0010 01       		.uleb128 0x1
 2917 0011 10       		.uleb128 0x10
 2918 0012 06       		.uleb128 0x6
 2919 0013 00       		.byte	0
 2920 0014 00       		.byte	0
 2921 0015 02       		.uleb128 0x2
 2922 0016 24       		.uleb128 0x24
 2923 0017 00       		.byte	0
 2924 0018 0B       		.uleb128 0xb
 2925 0019 0B       		.uleb128 0xb
 2926 001a 3E       		.uleb128 0x3e
 2927 001b 0B       		.uleb128 0xb
 2928 001c 03       		.uleb128 0x3
 2929 001d 0E       		.uleb128 0xe
 2930 001e 00       		.byte	0
 2931 001f 00       		.byte	0
 2932 0020 03       		.uleb128 0x3
 2933 0021 24       		.uleb128 0x24
 2934 0022 00       		.byte	0
 2935 0023 0B       		.uleb128 0xb
 2936 0024 0B       		.uleb128 0xb
 2937 0025 3E       		.uleb128 0x3e
 2938 0026 0B       		.uleb128 0xb
 2939 0027 03       		.uleb128 0x3
 2940 0028 08       		.uleb128 0x8
 2941 0029 00       		.byte	0
 2942 002a 00       		.byte	0
 2943 002b 04       		.uleb128 0x4
 2944 002c 0F       		.uleb128 0xf
 2945 002d 00       		.byte	0
 2946 002e 0B       		.uleb128 0xb
 2947 002f 0B       		.uleb128 0xb
 2948 0030 00       		.byte	0
 2949 0031 00       		.byte	0
 2950 0032 05       		.uleb128 0x5
 2951 0033 0F       		.uleb128 0xf
 2952 0034 00       		.byte	0
 2953 0035 0B       		.uleb128 0xb
 2954 0036 0B       		.uleb128 0xb
 2955 0037 49       		.uleb128 0x49
 2956 0038 13       		.uleb128 0x13
 2957 0039 00       		.byte	0
 2958 003a 00       		.byte	0
 2959 003b 06       		.uleb128 0x6
 2960 003c 26       		.uleb128 0x26
 2961 003d 00       		.byte	0
 2962 003e 49       		.uleb128 0x49
 2963 003f 13       		.uleb128 0x13
 2964 0040 00       		.byte	0
 2965 0041 00       		.byte	0
 2966 0042 07       		.uleb128 0x7
 2967 0043 16       		.uleb128 0x16
 2968 0044 00       		.byte	0
ARM GAS  C:\Users\DNIEL~1\AppData\Local\Temp\cckLhpUz.s 			page 54


 2969 0045 03       		.uleb128 0x3
 2970 0046 0E       		.uleb128 0xe
 2971 0047 3A       		.uleb128 0x3a
 2972 0048 0B       		.uleb128 0xb
 2973 0049 3B       		.uleb128 0x3b
 2974 004a 0B       		.uleb128 0xb
 2975 004b 49       		.uleb128 0x49
 2976 004c 13       		.uleb128 0x13
 2977 004d 00       		.byte	0
 2978 004e 00       		.byte	0
 2979 004f 08       		.uleb128 0x8
 2980 0050 35       		.uleb128 0x35
 2981 0051 00       		.byte	0
 2982 0052 49       		.uleb128 0x49
 2983 0053 13       		.uleb128 0x13
 2984 0054 00       		.byte	0
 2985 0055 00       		.byte	0
 2986 0056 09       		.uleb128 0x9
 2987 0057 15       		.uleb128 0x15
 2988 0058 01       		.byte	0x1
 2989 0059 27       		.uleb128 0x27
 2990 005a 0C       		.uleb128 0xc
 2991 005b 49       		.uleb128 0x49
 2992 005c 13       		.uleb128 0x13
 2993 005d 01       		.uleb128 0x1
 2994 005e 13       		.uleb128 0x13
 2995 005f 00       		.byte	0
 2996 0060 00       		.byte	0
 2997 0061 0A       		.uleb128 0xa
 2998 0062 05       		.uleb128 0x5
 2999 0063 00       		.byte	0
 3000 0064 49       		.uleb128 0x49
 3001 0065 13       		.uleb128 0x13
 3002 0066 00       		.byte	0
 3003 0067 00       		.byte	0
 3004 0068 0B       		.uleb128 0xb
 3005 0069 13       		.uleb128 0x13
 3006 006a 01       		.byte	0x1
 3007 006b 03       		.uleb128 0x3
 3008 006c 0E       		.uleb128 0xe
 3009 006d 0B       		.uleb128 0xb
 3010 006e 0B       		.uleb128 0xb
 3011 006f 3A       		.uleb128 0x3a
 3012 0070 0B       		.uleb128 0xb
 3013 0071 3B       		.uleb128 0x3b
 3014 0072 0B       		.uleb128 0xb
 3015 0073 01       		.uleb128 0x1
 3016 0074 13       		.uleb128 0x13
 3017 0075 00       		.byte	0
 3018 0076 00       		.byte	0
 3019 0077 0C       		.uleb128 0xc
 3020 0078 0D       		.uleb128 0xd
 3021 0079 00       		.byte	0
 3022 007a 03       		.uleb128 0x3
 3023 007b 0E       		.uleb128 0xe
 3024 007c 3A       		.uleb128 0x3a
 3025 007d 0B       		.uleb128 0xb
ARM GAS  C:\Users\DNIEL~1\AppData\Local\Temp\cckLhpUz.s 			page 55


 3026 007e 3B       		.uleb128 0x3b
 3027 007f 0B       		.uleb128 0xb
 3028 0080 49       		.uleb128 0x49
 3029 0081 13       		.uleb128 0x13
 3030 0082 38       		.uleb128 0x38
 3031 0083 0A       		.uleb128 0xa
 3032 0084 00       		.byte	0
 3033 0085 00       		.byte	0
 3034 0086 0D       		.uleb128 0xd
 3035 0087 0D       		.uleb128 0xd
 3036 0088 00       		.byte	0
 3037 0089 03       		.uleb128 0x3
 3038 008a 08       		.uleb128 0x8
 3039 008b 3A       		.uleb128 0x3a
 3040 008c 0B       		.uleb128 0xb
 3041 008d 3B       		.uleb128 0x3b
 3042 008e 0B       		.uleb128 0xb
 3043 008f 49       		.uleb128 0x49
 3044 0090 13       		.uleb128 0x13
 3045 0091 38       		.uleb128 0x38
 3046 0092 0A       		.uleb128 0xa
 3047 0093 00       		.byte	0
 3048 0094 00       		.byte	0
 3049 0095 0E       		.uleb128 0xe
 3050 0096 13       		.uleb128 0x13
 3051 0097 01       		.byte	0x1
 3052 0098 0B       		.uleb128 0xb
 3053 0099 0B       		.uleb128 0xb
 3054 009a 3A       		.uleb128 0x3a
 3055 009b 0B       		.uleb128 0xb
 3056 009c 3B       		.uleb128 0x3b
 3057 009d 0B       		.uleb128 0xb
 3058 009e 01       		.uleb128 0x1
 3059 009f 13       		.uleb128 0x13
 3060 00a0 00       		.byte	0
 3061 00a1 00       		.byte	0
 3062 00a2 0F       		.uleb128 0xf
 3063 00a3 01       		.uleb128 0x1
 3064 00a4 01       		.byte	0x1
 3065 00a5 49       		.uleb128 0x49
 3066 00a6 13       		.uleb128 0x13
 3067 00a7 01       		.uleb128 0x1
 3068 00a8 13       		.uleb128 0x13
 3069 00a9 00       		.byte	0
 3070 00aa 00       		.byte	0
 3071 00ab 10       		.uleb128 0x10
 3072 00ac 21       		.uleb128 0x21
 3073 00ad 00       		.byte	0
 3074 00ae 49       		.uleb128 0x49
 3075 00af 13       		.uleb128 0x13
 3076 00b0 2F       		.uleb128 0x2f
 3077 00b1 0B       		.uleb128 0xb
 3078 00b2 00       		.byte	0
 3079 00b3 00       		.byte	0
 3080 00b4 11       		.uleb128 0x11
 3081 00b5 04       		.uleb128 0x4
 3082 00b6 01       		.byte	0x1
ARM GAS  C:\Users\DNIEL~1\AppData\Local\Temp\cckLhpUz.s 			page 56


 3083 00b7 0B       		.uleb128 0xb
 3084 00b8 0B       		.uleb128 0xb
 3085 00b9 3A       		.uleb128 0x3a
 3086 00ba 0B       		.uleb128 0xb
 3087 00bb 3B       		.uleb128 0x3b
 3088 00bc 0B       		.uleb128 0xb
 3089 00bd 01       		.uleb128 0x1
 3090 00be 13       		.uleb128 0x13
 3091 00bf 00       		.byte	0
 3092 00c0 00       		.byte	0
 3093 00c1 12       		.uleb128 0x12
 3094 00c2 28       		.uleb128 0x28
 3095 00c3 00       		.byte	0
 3096 00c4 03       		.uleb128 0x3
 3097 00c5 0E       		.uleb128 0xe
 3098 00c6 1C       		.uleb128 0x1c
 3099 00c7 0D       		.uleb128 0xd
 3100 00c8 00       		.byte	0
 3101 00c9 00       		.byte	0
 3102 00ca 13       		.uleb128 0x13
 3103 00cb 13       		.uleb128 0x13
 3104 00cc 01       		.byte	0x1
 3105 00cd 03       		.uleb128 0x3
 3106 00ce 0E       		.uleb128 0xe
 3107 00cf 0B       		.uleb128 0xb
 3108 00d0 0B       		.uleb128 0xb
 3109 00d1 3A       		.uleb128 0x3a
 3110 00d2 0B       		.uleb128 0xb
 3111 00d3 3B       		.uleb128 0x3b
 3112 00d4 05       		.uleb128 0x5
 3113 00d5 01       		.uleb128 0x1
 3114 00d6 13       		.uleb128 0x13
 3115 00d7 00       		.byte	0
 3116 00d8 00       		.byte	0
 3117 00d9 14       		.uleb128 0x14
 3118 00da 0D       		.uleb128 0xd
 3119 00db 00       		.byte	0
 3120 00dc 03       		.uleb128 0x3
 3121 00dd 0E       		.uleb128 0xe
 3122 00de 3A       		.uleb128 0x3a
 3123 00df 0B       		.uleb128 0xb
 3124 00e0 3B       		.uleb128 0x3b
 3125 00e1 05       		.uleb128 0x5
 3126 00e2 49       		.uleb128 0x49
 3127 00e3 13       		.uleb128 0x13
 3128 00e4 38       		.uleb128 0x38
 3129 00e5 0A       		.uleb128 0xa
 3130 00e6 00       		.byte	0
 3131 00e7 00       		.byte	0
 3132 00e8 15       		.uleb128 0x15
 3133 00e9 0D       		.uleb128 0xd
 3134 00ea 00       		.byte	0
 3135 00eb 03       		.uleb128 0x3
 3136 00ec 08       		.uleb128 0x8
 3137 00ed 3A       		.uleb128 0x3a
 3138 00ee 0B       		.uleb128 0xb
 3139 00ef 3B       		.uleb128 0x3b
ARM GAS  C:\Users\DNIEL~1\AppData\Local\Temp\cckLhpUz.s 			page 57


 3140 00f0 05       		.uleb128 0x5
 3141 00f1 49       		.uleb128 0x49
 3142 00f2 13       		.uleb128 0x13
 3143 00f3 38       		.uleb128 0x38
 3144 00f4 0A       		.uleb128 0xa
 3145 00f5 00       		.byte	0
 3146 00f6 00       		.byte	0
 3147 00f7 16       		.uleb128 0x16
 3148 00f8 15       		.uleb128 0x15
 3149 00f9 01       		.byte	0x1
 3150 00fa 27       		.uleb128 0x27
 3151 00fb 0C       		.uleb128 0xc
 3152 00fc 01       		.uleb128 0x1
 3153 00fd 13       		.uleb128 0x13
 3154 00fe 00       		.byte	0
 3155 00ff 00       		.byte	0
 3156 0100 17       		.uleb128 0x17
 3157 0101 16       		.uleb128 0x16
 3158 0102 00       		.byte	0
 3159 0103 03       		.uleb128 0x3
 3160 0104 0E       		.uleb128 0xe
 3161 0105 3A       		.uleb128 0x3a
 3162 0106 0B       		.uleb128 0xb
 3163 0107 3B       		.uleb128 0x3b
 3164 0108 05       		.uleb128 0x5
 3165 0109 49       		.uleb128 0x49
 3166 010a 13       		.uleb128 0x13
 3167 010b 00       		.byte	0
 3168 010c 00       		.byte	0
 3169 010d 18       		.uleb128 0x18
 3170 010e 13       		.uleb128 0x13
 3171 010f 01       		.byte	0x1
 3172 0110 0B       		.uleb128 0xb
 3173 0111 0B       		.uleb128 0xb
 3174 0112 3A       		.uleb128 0x3a
 3175 0113 0B       		.uleb128 0xb
 3176 0114 3B       		.uleb128 0x3b
 3177 0115 05       		.uleb128 0x5
 3178 0116 01       		.uleb128 0x1
 3179 0117 13       		.uleb128 0x13
 3180 0118 00       		.byte	0
 3181 0119 00       		.byte	0
 3182 011a 19       		.uleb128 0x19
 3183 011b 2E       		.uleb128 0x2e
 3184 011c 01       		.byte	0x1
 3185 011d 3F       		.uleb128 0x3f
 3186 011e 0C       		.uleb128 0xc
 3187 011f 03       		.uleb128 0x3
 3188 0120 0E       		.uleb128 0xe
 3189 0121 3A       		.uleb128 0x3a
 3190 0122 0B       		.uleb128 0xb
 3191 0123 3B       		.uleb128 0x3b
 3192 0124 0B       		.uleb128 0xb
 3193 0125 27       		.uleb128 0x27
 3194 0126 0C       		.uleb128 0xc
 3195 0127 11       		.uleb128 0x11
 3196 0128 01       		.uleb128 0x1
ARM GAS  C:\Users\DNIEL~1\AppData\Local\Temp\cckLhpUz.s 			page 58


 3197 0129 12       		.uleb128 0x12
 3198 012a 01       		.uleb128 0x1
 3199 012b 40       		.uleb128 0x40
 3200 012c 06       		.uleb128 0x6
 3201 012d 9742     		.uleb128 0x2117
 3202 012f 0C       		.uleb128 0xc
 3203 0130 01       		.uleb128 0x1
 3204 0131 13       		.uleb128 0x13
 3205 0132 00       		.byte	0
 3206 0133 00       		.byte	0
 3207 0134 1A       		.uleb128 0x1a
 3208 0135 898201   		.uleb128 0x4109
 3209 0138 01       		.byte	0x1
 3210 0139 11       		.uleb128 0x11
 3211 013a 01       		.uleb128 0x1
 3212 013b 9542     		.uleb128 0x2115
 3213 013d 0C       		.uleb128 0xc
 3214 013e 31       		.uleb128 0x31
 3215 013f 13       		.uleb128 0x13
 3216 0140 00       		.byte	0
 3217 0141 00       		.byte	0
 3218 0142 1B       		.uleb128 0x1b
 3219 0143 8A8201   		.uleb128 0x410a
 3220 0146 00       		.byte	0
 3221 0147 02       		.uleb128 0x2
 3222 0148 0A       		.uleb128 0xa
 3223 0149 9142     		.uleb128 0x2111
 3224 014b 0A       		.uleb128 0xa
 3225 014c 00       		.byte	0
 3226 014d 00       		.byte	0
 3227 014e 1C       		.uleb128 0x1c
 3228 014f 2E       		.uleb128 0x2e
 3229 0150 01       		.byte	0x1
 3230 0151 3F       		.uleb128 0x3f
 3231 0152 0C       		.uleb128 0xc
 3232 0153 03       		.uleb128 0x3
 3233 0154 0E       		.uleb128 0xe
 3234 0155 3A       		.uleb128 0x3a
 3235 0156 0B       		.uleb128 0xb
 3236 0157 3B       		.uleb128 0x3b
 3237 0158 0B       		.uleb128 0xb
 3238 0159 27       		.uleb128 0x27
 3239 015a 0C       		.uleb128 0xc
 3240 015b 49       		.uleb128 0x49
 3241 015c 13       		.uleb128 0x13
 3242 015d 11       		.uleb128 0x11
 3243 015e 01       		.uleb128 0x1
 3244 015f 12       		.uleb128 0x12
 3245 0160 01       		.uleb128 0x1
 3246 0161 40       		.uleb128 0x40
 3247 0162 06       		.uleb128 0x6
 3248 0163 9642     		.uleb128 0x2116
 3249 0165 0C       		.uleb128 0xc
 3250 0166 01       		.uleb128 0x1
 3251 0167 13       		.uleb128 0x13
 3252 0168 00       		.byte	0
 3253 0169 00       		.byte	0
ARM GAS  C:\Users\DNIEL~1\AppData\Local\Temp\cckLhpUz.s 			page 59


 3254 016a 1D       		.uleb128 0x1d
 3255 016b 05       		.uleb128 0x5
 3256 016c 00       		.byte	0
 3257 016d 03       		.uleb128 0x3
 3258 016e 0E       		.uleb128 0xe
 3259 016f 3A       		.uleb128 0x3a
 3260 0170 0B       		.uleb128 0xb
 3261 0171 3B       		.uleb128 0x3b
 3262 0172 0B       		.uleb128 0xb
 3263 0173 49       		.uleb128 0x49
 3264 0174 13       		.uleb128 0x13
 3265 0175 02       		.uleb128 0x2
 3266 0176 06       		.uleb128 0x6
 3267 0177 00       		.byte	0
 3268 0178 00       		.byte	0
 3269 0179 1E       		.uleb128 0x1e
 3270 017a 05       		.uleb128 0x5
 3271 017b 00       		.byte	0
 3272 017c 03       		.uleb128 0x3
 3273 017d 08       		.uleb128 0x8
 3274 017e 3A       		.uleb128 0x3a
 3275 017f 0B       		.uleb128 0xb
 3276 0180 3B       		.uleb128 0x3b
 3277 0181 0B       		.uleb128 0xb
 3278 0182 49       		.uleb128 0x49
 3279 0183 13       		.uleb128 0x13
 3280 0184 02       		.uleb128 0x2
 3281 0185 06       		.uleb128 0x6
 3282 0186 00       		.byte	0
 3283 0187 00       		.byte	0
 3284 0188 1F       		.uleb128 0x1f
 3285 0189 05       		.uleb128 0x5
 3286 018a 00       		.byte	0
 3287 018b 03       		.uleb128 0x3
 3288 018c 08       		.uleb128 0x8
 3289 018d 3A       		.uleb128 0x3a
 3290 018e 0B       		.uleb128 0xb
 3291 018f 3B       		.uleb128 0x3b
 3292 0190 0B       		.uleb128 0xb
 3293 0191 49       		.uleb128 0x49
 3294 0192 13       		.uleb128 0x13
 3295 0193 02       		.uleb128 0x2
 3296 0194 0A       		.uleb128 0xa
 3297 0195 00       		.byte	0
 3298 0196 00       		.byte	0
 3299 0197 20       		.uleb128 0x20
 3300 0198 05       		.uleb128 0x5
 3301 0199 00       		.byte	0
 3302 019a 03       		.uleb128 0x3
 3303 019b 0E       		.uleb128 0xe
 3304 019c 3A       		.uleb128 0x3a
 3305 019d 0B       		.uleb128 0xb
 3306 019e 3B       		.uleb128 0x3b
 3307 019f 0B       		.uleb128 0xb
 3308 01a0 49       		.uleb128 0x49
 3309 01a1 13       		.uleb128 0x13
 3310 01a2 02       		.uleb128 0x2
ARM GAS  C:\Users\DNIEL~1\AppData\Local\Temp\cckLhpUz.s 			page 60


 3311 01a3 0A       		.uleb128 0xa
 3312 01a4 00       		.byte	0
 3313 01a5 00       		.byte	0
 3314 01a6 21       		.uleb128 0x21
 3315 01a7 34       		.uleb128 0x34
 3316 01a8 00       		.byte	0
 3317 01a9 03       		.uleb128 0x3
 3318 01aa 08       		.uleb128 0x8
 3319 01ab 3A       		.uleb128 0x3a
 3320 01ac 0B       		.uleb128 0xb
 3321 01ad 3B       		.uleb128 0x3b
 3322 01ae 0B       		.uleb128 0xb
 3323 01af 49       		.uleb128 0x49
 3324 01b0 13       		.uleb128 0x13
 3325 01b1 02       		.uleb128 0x2
 3326 01b2 06       		.uleb128 0x6
 3327 01b3 00       		.byte	0
 3328 01b4 00       		.byte	0
 3329 01b5 22       		.uleb128 0x22
 3330 01b6 2E       		.uleb128 0x2e
 3331 01b7 01       		.byte	0x1
 3332 01b8 3F       		.uleb128 0x3f
 3333 01b9 0C       		.uleb128 0xc
 3334 01ba 03       		.uleb128 0x3
 3335 01bb 0E       		.uleb128 0xe
 3336 01bc 3A       		.uleb128 0x3a
 3337 01bd 0B       		.uleb128 0xb
 3338 01be 3B       		.uleb128 0x3b
 3339 01bf 0B       		.uleb128 0xb
 3340 01c0 27       		.uleb128 0x27
 3341 01c1 0C       		.uleb128 0xc
 3342 01c2 11       		.uleb128 0x11
 3343 01c3 01       		.uleb128 0x1
 3344 01c4 12       		.uleb128 0x12
 3345 01c5 01       		.uleb128 0x1
 3346 01c6 40       		.uleb128 0x40
 3347 01c7 06       		.uleb128 0x6
 3348 01c8 9642     		.uleb128 0x2116
 3349 01ca 0C       		.uleb128 0xc
 3350 01cb 01       		.uleb128 0x1
 3351 01cc 13       		.uleb128 0x13
 3352 01cd 00       		.byte	0
 3353 01ce 00       		.byte	0
 3354 01cf 23       		.uleb128 0x23
 3355 01d0 898201   		.uleb128 0x4109
 3356 01d3 00       		.byte	0
 3357 01d4 11       		.uleb128 0x11
 3358 01d5 01       		.uleb128 0x1
 3359 01d6 31       		.uleb128 0x31
 3360 01d7 13       		.uleb128 0x13
 3361 01d8 00       		.byte	0
 3362 01d9 00       		.byte	0
 3363 01da 24       		.uleb128 0x24
 3364 01db 898201   		.uleb128 0x4109
 3365 01de 01       		.byte	0x1
 3366 01df 11       		.uleb128 0x11
 3367 01e0 01       		.uleb128 0x1
ARM GAS  C:\Users\DNIEL~1\AppData\Local\Temp\cckLhpUz.s 			page 61


 3368 01e1 31       		.uleb128 0x31
 3369 01e2 13       		.uleb128 0x13
 3370 01e3 01       		.uleb128 0x1
 3371 01e4 13       		.uleb128 0x13
 3372 01e5 00       		.byte	0
 3373 01e6 00       		.byte	0
 3374 01e7 25       		.uleb128 0x25
 3375 01e8 898201   		.uleb128 0x4109
 3376 01eb 01       		.byte	0x1
 3377 01ec 11       		.uleb128 0x11
 3378 01ed 01       		.uleb128 0x1
 3379 01ee 00       		.byte	0
 3380 01ef 00       		.byte	0
 3381 01f0 26       		.uleb128 0x26
 3382 01f1 34       		.uleb128 0x34
 3383 01f2 00       		.byte	0
 3384 01f3 03       		.uleb128 0x3
 3385 01f4 0E       		.uleb128 0xe
 3386 01f5 3A       		.uleb128 0x3a
 3387 01f6 0B       		.uleb128 0xb
 3388 01f7 3B       		.uleb128 0x3b
 3389 01f8 0B       		.uleb128 0xb
 3390 01f9 49       		.uleb128 0x49
 3391 01fa 13       		.uleb128 0x13
 3392 01fb 02       		.uleb128 0x2
 3393 01fc 06       		.uleb128 0x6
 3394 01fd 00       		.byte	0
 3395 01fe 00       		.byte	0
 3396 01ff 27       		.uleb128 0x27
 3397 0200 0A       		.uleb128 0xa
 3398 0201 00       		.byte	0
 3399 0202 03       		.uleb128 0x3
 3400 0203 0E       		.uleb128 0xe
 3401 0204 3A       		.uleb128 0x3a
 3402 0205 0B       		.uleb128 0xb
 3403 0206 3B       		.uleb128 0x3b
 3404 0207 0B       		.uleb128 0xb
 3405 0208 11       		.uleb128 0x11
 3406 0209 01       		.uleb128 0x1
 3407 020a 00       		.byte	0
 3408 020b 00       		.byte	0
 3409 020c 28       		.uleb128 0x28
 3410 020d 898201   		.uleb128 0x4109
 3411 0210 01       		.byte	0x1
 3412 0211 11       		.uleb128 0x11
 3413 0212 01       		.uleb128 0x1
 3414 0213 01       		.uleb128 0x1
 3415 0214 13       		.uleb128 0x13
 3416 0215 00       		.byte	0
 3417 0216 00       		.byte	0
 3418 0217 29       		.uleb128 0x29
 3419 0218 898201   		.uleb128 0x4109
 3420 021b 01       		.byte	0x1
 3421 021c 11       		.uleb128 0x11
 3422 021d 01       		.uleb128 0x1
 3423 021e 9542     		.uleb128 0x2115
 3424 0220 0C       		.uleb128 0xc
ARM GAS  C:\Users\DNIEL~1\AppData\Local\Temp\cckLhpUz.s 			page 62


 3425 0221 31       		.uleb128 0x31
 3426 0222 13       		.uleb128 0x13
 3427 0223 01       		.uleb128 0x1
 3428 0224 13       		.uleb128 0x13
 3429 0225 00       		.byte	0
 3430 0226 00       		.byte	0
 3431 0227 2A       		.uleb128 0x2a
 3432 0228 898201   		.uleb128 0x4109
 3433 022b 01       		.byte	0x1
 3434 022c 11       		.uleb128 0x11
 3435 022d 01       		.uleb128 0x1
 3436 022e 31       		.uleb128 0x31
 3437 022f 13       		.uleb128 0x13
 3438 0230 00       		.byte	0
 3439 0231 00       		.byte	0
 3440 0232 2B       		.uleb128 0x2b
 3441 0233 34       		.uleb128 0x34
 3442 0234 00       		.byte	0
 3443 0235 03       		.uleb128 0x3
 3444 0236 08       		.uleb128 0x8
 3445 0237 3A       		.uleb128 0x3a
 3446 0238 0B       		.uleb128 0xb
 3447 0239 3B       		.uleb128 0x3b
 3448 023a 0B       		.uleb128 0xb
 3449 023b 49       		.uleb128 0x49
 3450 023c 13       		.uleb128 0x13
 3451 023d 02       		.uleb128 0x2
 3452 023e 0A       		.uleb128 0xa
 3453 023f 00       		.byte	0
 3454 0240 00       		.byte	0
 3455 0241 2C       		.uleb128 0x2c
 3456 0242 34       		.uleb128 0x34
 3457 0243 00       		.byte	0
 3458 0244 03       		.uleb128 0x3
 3459 0245 0E       		.uleb128 0xe
 3460 0246 3A       		.uleb128 0x3a
 3461 0247 0B       		.uleb128 0xb
 3462 0248 3B       		.uleb128 0x3b
 3463 0249 0B       		.uleb128 0xb
 3464 024a 49       		.uleb128 0x49
 3465 024b 13       		.uleb128 0x13
 3466 024c 1C       		.uleb128 0x1c
 3467 024d 0A       		.uleb128 0xa
 3468 024e 00       		.byte	0
 3469 024f 00       		.byte	0
 3470 0250 2D       		.uleb128 0x2d
 3471 0251 34       		.uleb128 0x34
 3472 0252 00       		.byte	0
 3473 0253 03       		.uleb128 0x3
 3474 0254 0E       		.uleb128 0xe
 3475 0255 3A       		.uleb128 0x3a
 3476 0256 0B       		.uleb128 0xb
 3477 0257 3B       		.uleb128 0x3b
 3478 0258 0B       		.uleb128 0xb
 3479 0259 49       		.uleb128 0x49
 3480 025a 13       		.uleb128 0x13
 3481 025b 02       		.uleb128 0x2
ARM GAS  C:\Users\DNIEL~1\AppData\Local\Temp\cckLhpUz.s 			page 63


 3482 025c 0A       		.uleb128 0xa
 3483 025d 00       		.byte	0
 3484 025e 00       		.byte	0
 3485 025f 2E       		.uleb128 0x2e
 3486 0260 34       		.uleb128 0x34
 3487 0261 00       		.byte	0
 3488 0262 03       		.uleb128 0x3
 3489 0263 0E       		.uleb128 0xe
 3490 0264 3A       		.uleb128 0x3a
 3491 0265 0B       		.uleb128 0xb
 3492 0266 3B       		.uleb128 0x3b
 3493 0267 05       		.uleb128 0x5
 3494 0268 49       		.uleb128 0x49
 3495 0269 13       		.uleb128 0x13
 3496 026a 3F       		.uleb128 0x3f
 3497 026b 0C       		.uleb128 0xc
 3498 026c 3C       		.uleb128 0x3c
 3499 026d 0C       		.uleb128 0xc
 3500 026e 00       		.byte	0
 3501 026f 00       		.byte	0
 3502 0270 2F       		.uleb128 0x2f
 3503 0271 2E       		.uleb128 0x2e
 3504 0272 01       		.byte	0x1
 3505 0273 3F       		.uleb128 0x3f
 3506 0274 0C       		.uleb128 0xc
 3507 0275 03       		.uleb128 0x3
 3508 0276 0E       		.uleb128 0xe
 3509 0277 3A       		.uleb128 0x3a
 3510 0278 0B       		.uleb128 0xb
 3511 0279 3B       		.uleb128 0x3b
 3512 027a 0B       		.uleb128 0xb
 3513 027b 27       		.uleb128 0x27
 3514 027c 0C       		.uleb128 0xc
 3515 027d 3C       		.uleb128 0x3c
 3516 027e 0C       		.uleb128 0xc
 3517 027f 01       		.uleb128 0x1
 3518 0280 13       		.uleb128 0x13
 3519 0281 00       		.byte	0
 3520 0282 00       		.byte	0
 3521 0283 30       		.uleb128 0x30
 3522 0284 2E       		.uleb128 0x2e
 3523 0285 00       		.byte	0
 3524 0286 3F       		.uleb128 0x3f
 3525 0287 0C       		.uleb128 0xc
 3526 0288 03       		.uleb128 0x3
 3527 0289 0E       		.uleb128 0xe
 3528 028a 3A       		.uleb128 0x3a
 3529 028b 0B       		.uleb128 0xb
 3530 028c 3B       		.uleb128 0x3b
 3531 028d 0B       		.uleb128 0xb
 3532 028e 27       		.uleb128 0x27
 3533 028f 0C       		.uleb128 0xc
 3534 0290 49       		.uleb128 0x49
 3535 0291 13       		.uleb128 0x13
 3536 0292 3C       		.uleb128 0x3c
 3537 0293 0C       		.uleb128 0xc
 3538 0294 00       		.byte	0
ARM GAS  C:\Users\DNIEL~1\AppData\Local\Temp\cckLhpUz.s 			page 64


 3539 0295 00       		.byte	0
 3540 0296 31       		.uleb128 0x31
 3541 0297 18       		.uleb128 0x18
 3542 0298 00       		.byte	0
 3543 0299 00       		.byte	0
 3544 029a 00       		.byte	0
 3545 029b 32       		.uleb128 0x32
 3546 029c 2E       		.uleb128 0x2e
 3547 029d 01       		.byte	0x1
 3548 029e 3F       		.uleb128 0x3f
 3549 029f 0C       		.uleb128 0xc
 3550 02a0 03       		.uleb128 0x3
 3551 02a1 0E       		.uleb128 0xe
 3552 02a2 3A       		.uleb128 0x3a
 3553 02a3 0B       		.uleb128 0xb
 3554 02a4 3B       		.uleb128 0x3b
 3555 02a5 05       		.uleb128 0x5
 3556 02a6 27       		.uleb128 0x27
 3557 02a7 0C       		.uleb128 0xc
 3558 02a8 3C       		.uleb128 0x3c
 3559 02a9 0C       		.uleb128 0xc
 3560 02aa 01       		.uleb128 0x1
 3561 02ab 13       		.uleb128 0x13
 3562 02ac 00       		.byte	0
 3563 02ad 00       		.byte	0
 3564 02ae 33       		.uleb128 0x33
 3565 02af 2E       		.uleb128 0x2e
 3566 02b0 01       		.byte	0x1
 3567 02b1 3F       		.uleb128 0x3f
 3568 02b2 0C       		.uleb128 0xc
 3569 02b3 03       		.uleb128 0x3
 3570 02b4 0E       		.uleb128 0xe
 3571 02b5 3A       		.uleb128 0x3a
 3572 02b6 0B       		.uleb128 0xb
 3573 02b7 3B       		.uleb128 0x3b
 3574 02b8 0B       		.uleb128 0xb
 3575 02b9 27       		.uleb128 0x27
 3576 02ba 0C       		.uleb128 0xc
 3577 02bb 49       		.uleb128 0x49
 3578 02bc 13       		.uleb128 0x13
 3579 02bd 3C       		.uleb128 0x3c
 3580 02be 0C       		.uleb128 0xc
 3581 02bf 01       		.uleb128 0x1
 3582 02c0 13       		.uleb128 0x13
 3583 02c1 00       		.byte	0
 3584 02c2 00       		.byte	0
 3585 02c3 34       		.uleb128 0x34
 3586 02c4 2E       		.uleb128 0x2e
 3587 02c5 01       		.byte	0x1
 3588 02c6 3F       		.uleb128 0x3f
 3589 02c7 0C       		.uleb128 0xc
 3590 02c8 03       		.uleb128 0x3
 3591 02c9 0E       		.uleb128 0xe
 3592 02ca 3A       		.uleb128 0x3a
 3593 02cb 0B       		.uleb128 0xb
 3594 02cc 3B       		.uleb128 0x3b
 3595 02cd 0B       		.uleb128 0xb
ARM GAS  C:\Users\DNIEL~1\AppData\Local\Temp\cckLhpUz.s 			page 65


 3596 02ce 27       		.uleb128 0x27
 3597 02cf 0C       		.uleb128 0xc
 3598 02d0 49       		.uleb128 0x49
 3599 02d1 13       		.uleb128 0x13
 3600 02d2 3C       		.uleb128 0x3c
 3601 02d3 0C       		.uleb128 0xc
 3602 02d4 00       		.byte	0
 3603 02d5 00       		.byte	0
 3604 02d6 00       		.byte	0
 3605              		.section	.debug_loc,"",%progbits
 3606              	.Ldebug_loc0:
 3607              	.LLST0:
 3608 0000 00000000 		.4byte	.LFB118
 3609 0004 04000000 		.4byte	.LCFI0
 3610 0008 0200     		.2byte	0x2
 3611 000a 7D       		.byte	0x7d
 3612 000b 00       		.sleb128 0
 3613 000c 04000000 		.4byte	.LCFI0
 3614 0010 7A000000 		.4byte	.LFE118
 3615 0014 0200     		.2byte	0x2
 3616 0016 7D       		.byte	0x7d
 3617 0017 1C       		.sleb128 28
 3618 0018 00000000 		.4byte	0
 3619 001c 00000000 		.4byte	0
 3620              	.LLST1:
 3621 0020 00000000 		.4byte	.LFB120
 3622 0024 04000000 		.4byte	.LCFI1
 3623 0028 0200     		.2byte	0x2
 3624 002a 7D       		.byte	0x7d
 3625 002b 00       		.sleb128 0
 3626 002c 04000000 		.4byte	.LCFI1
 3627 0030 06000000 		.4byte	.LCFI2
 3628 0034 0200     		.2byte	0x2
 3629 0036 7D       		.byte	0x7d
 3630 0037 24       		.sleb128 36
 3631 0038 06000000 		.4byte	.LCFI2
 3632 003c 80010000 		.4byte	.LFE120
 3633 0040 0200     		.2byte	0x2
 3634 0042 7D       		.byte	0x7d
 3635 0043 38       		.sleb128 56
 3636 0044 00000000 		.4byte	0
 3637 0048 00000000 		.4byte	0
 3638              	.LLST2:
 3639 004c 00000000 		.4byte	.LVL1
 3640 0050 08000000 		.4byte	.LVL2
 3641 0054 0100     		.2byte	0x1
 3642 0056 50       		.byte	0x50
 3643 0057 08000000 		.4byte	.LVL2
 3644 005b 80010000 		.4byte	.LFE120
 3645 005f 0400     		.2byte	0x4
 3646 0061 F3       		.byte	0xf3
 3647 0062 01       		.uleb128 0x1
 3648 0063 50       		.byte	0x50
 3649 0064 9F       		.byte	0x9f
 3650 0065 00000000 		.4byte	0
 3651 0069 00000000 		.4byte	0
 3652              	.LLST3:
ARM GAS  C:\Users\DNIEL~1\AppData\Local\Temp\cckLhpUz.s 			page 66


 3653 006d 00000000 		.4byte	.LVL1
 3654 0071 0F000000 		.4byte	.LVL3-1
 3655 0075 0100     		.2byte	0x1
 3656 0077 51       		.byte	0x51
 3657 0078 0F000000 		.4byte	.LVL3-1
 3658 007c 80010000 		.4byte	.LFE120
 3659 0080 0400     		.2byte	0x4
 3660 0082 F3       		.byte	0xf3
 3661 0083 01       		.uleb128 0x1
 3662 0084 51       		.byte	0x51
 3663 0085 9F       		.byte	0x9f
 3664 0086 00000000 		.4byte	0
 3665 008a 00000000 		.4byte	0
 3666              	.LLST4:
 3667 008e 00000000 		.4byte	.LVL1
 3668 0092 0F000000 		.4byte	.LVL3-1
 3669 0096 0100     		.2byte	0x1
 3670 0098 52       		.byte	0x52
 3671 0099 0F000000 		.4byte	.LVL3-1
 3672 009d 80010000 		.4byte	.LFE120
 3673 00a1 0200     		.2byte	0x2
 3674 00a3 91       		.byte	0x91
 3675 00a4 50       		.sleb128 -48
 3676 00a5 00000000 		.4byte	0
 3677 00a9 00000000 		.4byte	0
 3678              	.LLST5:
 3679 00ad 00000000 		.4byte	.LVL1
 3680 00b1 0F000000 		.4byte	.LVL3-1
 3681 00b5 0100     		.2byte	0x1
 3682 00b7 53       		.byte	0x53
 3683 00b8 0F000000 		.4byte	.LVL3-1
 3684 00bc 80010000 		.4byte	.LFE120
 3685 00c0 0200     		.2byte	0x2
 3686 00c2 91       		.byte	0x91
 3687 00c3 54       		.sleb128 -44
 3688 00c4 00000000 		.4byte	0
 3689 00c8 00000000 		.4byte	0
 3690              	.LLST6:
 3691 00cc 2A010000 		.4byte	.LVL23
 3692 00d0 4A010000 		.4byte	.LVL25
 3693 00d4 0100     		.2byte	0x1
 3694 00d6 50       		.byte	0x50
 3695 00d7 6C010000 		.4byte	.LVL26
 3696 00db 6E010000 		.4byte	.LVL27
 3697 00df 0100     		.2byte	0x1
 3698 00e1 50       		.byte	0x50
 3699 00e2 00000000 		.4byte	0
 3700 00e6 00000000 		.4byte	0
 3701              	.LLST7:
 3702 00ea 00000000 		.4byte	.LFB119
 3703 00ee 02000000 		.4byte	.LCFI3
 3704 00f2 0200     		.2byte	0x2
 3705 00f4 7D       		.byte	0x7d
 3706 00f5 00       		.sleb128 0
 3707 00f6 02000000 		.4byte	.LCFI3
 3708 00fa 04000000 		.4byte	.LCFI4
 3709 00fe 0200     		.2byte	0x2
ARM GAS  C:\Users\DNIEL~1\AppData\Local\Temp\cckLhpUz.s 			page 67


 3710 0100 7D       		.byte	0x7d
 3711 0101 10       		.sleb128 16
 3712 0102 04000000 		.4byte	.LCFI4
 3713 0106 BA000000 		.4byte	.LFE119
 3714 010a 0200     		.2byte	0x2
 3715 010c 7D       		.byte	0x7d
 3716 010d 38       		.sleb128 56
 3717 010e 00000000 		.4byte	0
 3718 0112 00000000 		.4byte	0
 3719              	.LLST8:
 3720 0116 00000000 		.4byte	.LFB121
 3721 011a 04000000 		.4byte	.LCFI5
 3722 011e 0200     		.2byte	0x2
 3723 0120 7D       		.byte	0x7d
 3724 0121 00       		.sleb128 0
 3725 0122 04000000 		.4byte	.LCFI5
 3726 0126 FC000000 		.4byte	.LFE121
 3727 012a 0200     		.2byte	0x2
 3728 012c 7D       		.byte	0x7d
 3729 012d 20       		.sleb128 32
 3730 012e 00000000 		.4byte	0
 3731 0132 00000000 		.4byte	0
 3732              	.LLST9:
 3733 0136 00000000 		.4byte	.LVL34
 3734 013a 17000000 		.4byte	.LVL36-1
 3735 013e 0100     		.2byte	0x1
 3736 0140 50       		.byte	0x50
 3737 0141 17000000 		.4byte	.LVL36-1
 3738 0145 22000000 		.4byte	.LVL38
 3739 0149 0100     		.2byte	0x1
 3740 014b 54       		.byte	0x54
 3741 014c 22000000 		.4byte	.LVL38
 3742 0150 25000000 		.4byte	.LVL39-1
 3743 0154 0100     		.2byte	0x1
 3744 0156 50       		.byte	0x50
 3745 0157 25000000 		.4byte	.LVL39-1
 3746 015b B4000000 		.4byte	.LVL52
 3747 015f 0100     		.2byte	0x1
 3748 0161 54       		.byte	0x54
 3749 0162 B4000000 		.4byte	.LVL52
 3750 0166 FC000000 		.4byte	.LFE121
 3751 016a 0100     		.2byte	0x1
 3752 016c 50       		.byte	0x50
 3753 016d 00000000 		.4byte	0
 3754 0171 00000000 		.4byte	0
 3755              	.LLST10:
 3756 0175 00000000 		.4byte	.LVL34
 3757 0179 06000000 		.4byte	.LVL35
 3758 017d 0100     		.2byte	0x1
 3759 017f 51       		.byte	0x51
 3760 0180 06000000 		.4byte	.LVL35
 3761 0184 FC000000 		.4byte	.LFE121
 3762 0188 0400     		.2byte	0x4
 3763 018a F3       		.byte	0xf3
 3764 018b 01       		.uleb128 0x1
 3765 018c 51       		.byte	0x51
 3766 018d 9F       		.byte	0x9f
ARM GAS  C:\Users\DNIEL~1\AppData\Local\Temp\cckLhpUz.s 			page 68


 3767 018e 00000000 		.4byte	0
 3768 0192 00000000 		.4byte	0
 3769              	.LLST11:
 3770 0196 00000000 		.4byte	.LVL34
 3771 019a 17000000 		.4byte	.LVL36-1
 3772 019e 0100     		.2byte	0x1
 3773 01a0 52       		.byte	0x52
 3774 01a1 17000000 		.4byte	.LVL36-1
 3775 01a5 FC000000 		.4byte	.LFE121
 3776 01a9 0400     		.2byte	0x4
 3777 01ab F3       		.byte	0xf3
 3778 01ac 01       		.uleb128 0x1
 3779 01ad 52       		.byte	0x52
 3780 01ae 9F       		.byte	0x9f
 3781 01af 00000000 		.4byte	0
 3782 01b3 00000000 		.4byte	0
 3783              	.LLST12:
 3784 01b7 00000000 		.4byte	.LFB122
 3785 01bb 02000000 		.4byte	.LCFI6
 3786 01bf 0200     		.2byte	0x2
 3787 01c1 7D       		.byte	0x7d
 3788 01c2 00       		.sleb128 0
 3789 01c3 02000000 		.4byte	.LCFI6
 3790 01c7 AC010000 		.4byte	.LFE122
 3791 01cb 0200     		.2byte	0x2
 3792 01cd 7D       		.byte	0x7d
 3793 01ce 18       		.sleb128 24
 3794 01cf 00000000 		.4byte	0
 3795 01d3 00000000 		.4byte	0
 3796              	.LLST13:
 3797 01d7 00000000 		.4byte	.LVL53
 3798 01db 0D000000 		.4byte	.LVL55-1
 3799 01df 0100     		.2byte	0x1
 3800 01e1 50       		.byte	0x50
 3801 01e2 0D000000 		.4byte	.LVL55-1
 3802 01e6 AC010000 		.4byte	.LFE122
 3803 01ea 0100     		.2byte	0x1
 3804 01ec 54       		.byte	0x54
 3805 01ed 00000000 		.4byte	0
 3806 01f1 00000000 		.4byte	0
 3807              	.LLST14:
 3808 01f5 00000000 		.4byte	.LVL53
 3809 01f9 08000000 		.4byte	.LVL54
 3810 01fd 0100     		.2byte	0x1
 3811 01ff 51       		.byte	0x51
 3812 0200 08000000 		.4byte	.LVL54
 3813 0204 36000000 		.4byte	.LVL59
 3814 0208 0100     		.2byte	0x1
 3815 020a 55       		.byte	0x55
 3816 020b 36000000 		.4byte	.LVL59
 3817 020f 42000000 		.4byte	.LVL60
 3818 0213 0400     		.2byte	0x4
 3819 0215 F3       		.byte	0xf3
 3820 0216 01       		.uleb128 0x1
 3821 0217 51       		.byte	0x51
 3822 0218 9F       		.byte	0x9f
 3823 0219 42000000 		.4byte	.LVL60
ARM GAS  C:\Users\DNIEL~1\AppData\Local\Temp\cckLhpUz.s 			page 69


 3824 021d 44000000 		.4byte	.LVL61
 3825 0221 0100     		.2byte	0x1
 3826 0223 55       		.byte	0x55
 3827 0224 44000000 		.4byte	.LVL61
 3828 0228 AC010000 		.4byte	.LFE122
 3829 022c 0400     		.2byte	0x4
 3830 022e F3       		.byte	0xf3
 3831 022f 01       		.uleb128 0x1
 3832 0230 51       		.byte	0x51
 3833 0231 9F       		.byte	0x9f
 3834 0232 00000000 		.4byte	0
 3835 0236 00000000 		.4byte	0
 3836              	.LLST15:
 3837 023a 00000000 		.4byte	.LVL53
 3838 023e 0D000000 		.4byte	.LVL55-1
 3839 0242 0100     		.2byte	0x1
 3840 0244 52       		.byte	0x52
 3841 0245 0D000000 		.4byte	.LVL55-1
 3842 0249 84000000 		.4byte	.LVL69
 3843 024d 0100     		.2byte	0x1
 3844 024f 56       		.byte	0x56
 3845 0250 84000000 		.4byte	.LVL69
 3846 0254 BE000000 		.4byte	.LVL73
 3847 0258 0400     		.2byte	0x4
 3848 025a F3       		.byte	0xf3
 3849 025b 01       		.uleb128 0x1
 3850 025c 52       		.byte	0x52
 3851 025d 9F       		.byte	0x9f
 3852 025e BE000000 		.4byte	.LVL73
 3853 0262 12010000 		.4byte	.LVL86
 3854 0266 0100     		.2byte	0x1
 3855 0268 56       		.byte	0x56
 3856 0269 12010000 		.4byte	.LVL86
 3857 026d 18010000 		.4byte	.LVL88
 3858 0271 0400     		.2byte	0x4
 3859 0273 F3       		.byte	0xf3
 3860 0274 01       		.uleb128 0x1
 3861 0275 52       		.byte	0x52
 3862 0276 9F       		.byte	0x9f
 3863 0277 18010000 		.4byte	.LVL88
 3864 027b AC010000 		.4byte	.LFE122
 3865 027f 0100     		.2byte	0x1
 3866 0281 56       		.byte	0x56
 3867 0282 00000000 		.4byte	0
 3868 0286 00000000 		.4byte	0
 3869              	.LLST16:
 3870 028a 7C000000 		.4byte	.LVL67
 3871 028e 7E000000 		.4byte	.LVL68
 3872 0292 0100     		.2byte	0x1
 3873 0294 50       		.byte	0x50
 3874 0295 7E000000 		.4byte	.LVL68
 3875 0299 BE000000 		.4byte	.LVL73
 3876 029d 0100     		.2byte	0x1
 3877 029f 55       		.byte	0x55
 3878 02a0 C6000000 		.4byte	.LVL75
 3879 02a4 C8000000 		.4byte	.LVL76
 3880 02a8 0100     		.2byte	0x1
ARM GAS  C:\Users\DNIEL~1\AppData\Local\Temp\cckLhpUz.s 			page 70


 3881 02aa 50       		.byte	0x50
 3882 02ab C8000000 		.4byte	.LVL76
 3883 02af D4000000 		.4byte	.LVL77
 3884 02b3 0100     		.2byte	0x1
 3885 02b5 57       		.byte	0x57
 3886 02b6 DC000000 		.4byte	.LVL79
 3887 02ba DE000000 		.4byte	.LVL80
 3888 02be 0100     		.2byte	0x1
 3889 02c0 50       		.byte	0x50
 3890 02c1 DE000000 		.4byte	.LVL80
 3891 02c5 EA000000 		.4byte	.LVL81
 3892 02c9 0100     		.2byte	0x1
 3893 02cb 57       		.byte	0x57
 3894 02cc F0000000 		.4byte	.LVL82
 3895 02d0 FA000000 		.4byte	.LVL83
 3896 02d4 0100     		.2byte	0x1
 3897 02d6 50       		.byte	0x50
 3898 02d7 FA000000 		.4byte	.LVL83
 3899 02db 18010000 		.4byte	.LVL88
 3900 02df 0100     		.2byte	0x1
 3901 02e1 55       		.byte	0x55
 3902 02e2 18010000 		.4byte	.LVL88
 3903 02e6 AC010000 		.4byte	.LFE122
 3904 02ea 0100     		.2byte	0x1
 3905 02ec 57       		.byte	0x57
 3906 02ed 00000000 		.4byte	0
 3907 02f1 00000000 		.4byte	0
 3908              		.section	.debug_aranges,"",%progbits
 3909 0000 3C000000 		.4byte	0x3c
 3910 0004 0200     		.2byte	0x2
 3911 0006 00000000 		.4byte	.Ldebug_info0
 3912 000a 04       		.byte	0x4
 3913 000b 00       		.byte	0
 3914 000c 0000     		.2byte	0
 3915 000e 0000     		.2byte	0
 3916 0010 00000000 		.4byte	.LFB118
 3917 0014 7A000000 		.4byte	.LFE118-.LFB118
 3918 0018 00000000 		.4byte	.LFB120
 3919 001c 80010000 		.4byte	.LFE120-.LFB120
 3920 0020 00000000 		.4byte	.LFB119
 3921 0024 BA000000 		.4byte	.LFE119-.LFB119
 3922 0028 00000000 		.4byte	.LFB121
 3923 002c FC000000 		.4byte	.LFE121-.LFB121
 3924 0030 00000000 		.4byte	.LFB122
 3925 0034 AC010000 		.4byte	.LFE122-.LFB122
 3926 0038 00000000 		.4byte	0
 3927 003c 00000000 		.4byte	0
 3928              		.section	.debug_ranges,"",%progbits
 3929              	.Ldebug_ranges0:
 3930 0000 00000000 		.4byte	.LFB118
 3931 0004 7A000000 		.4byte	.LFE118
 3932 0008 00000000 		.4byte	.LFB120
 3933 000c 80010000 		.4byte	.LFE120
 3934 0010 00000000 		.4byte	.LFB119
 3935 0014 BA000000 		.4byte	.LFE119
 3936 0018 00000000 		.4byte	.LFB121
 3937 001c FC000000 		.4byte	.LFE121
ARM GAS  C:\Users\DNIEL~1\AppData\Local\Temp\cckLhpUz.s 			page 71


 3938 0020 00000000 		.4byte	.LFB122
 3939 0024 AC010000 		.4byte	.LFE122
 3940 0028 00000000 		.4byte	0
 3941 002c 00000000 		.4byte	0
 3942              		.section	.debug_line,"",%progbits
 3943              	.Ldebug_line0:
 3944 0000 D2030000 		.section	.debug_str,"MS",%progbits,1
 3944      02009E02 
 3944      00000201 
 3944      FB0E0D00 
 3944      01010101 
 3945              	.LASF63:
 3946 0000 70776D63 		.ascii	"pwmchannel_t\000"
 3946      68616E6E 
 3946      656C5F74 
 3946      00
 3947              	.LASF97:
 3948 000d 63685468 		.ascii	"chThdSleep\000"
 3948      64536C65 
 3948      657000
 3949              	.LASF105:
 3950 0018 73747263 		.ascii	"strcmp\000"
 3950      6D7000
 3951              	.LASF26:
 3952 001f 44494552 		.ascii	"DIER\000"
 3952      00
 3953              	.LASF11:
 3954 0024 73697A65 		.ascii	"size_t\000"
 3954      5F7400
 3955              	.LASF79:
 3956 002b 63727569 		.ascii	"cruiseCalc\000"
 3956      73654361 
 3956      6C6300
 3957              	.LASF84:
 3958 0036 737A616D 		.ascii	"szam\000"
 3958      00
 3959              	.LASF22:
 3960 003b 5F726573 		.ascii	"_resvd0\000"
 3960      76643000 
 3961              	.LASF23:
 3962 0043 5F726573 		.ascii	"_resvd1\000"
 3962      76643100 
 3963              	.LASF25:
 3964 004b 5F726573 		.ascii	"_resvd2\000"
 3964      76643200 
 3965              	.LASF27:
 3966 0053 5F726573 		.ascii	"_resvd3\000"
 3966      76643300 
 3967              	.LASF28:
 3968 005b 5F726573 		.ascii	"_resvd4\000"
 3968      76643400 
 3969              	.LASF29:
 3970 0063 5F726573 		.ascii	"_resvd5\000"
 3970      76643500 
 3971              	.LASF31:
 3972 006b 5F726573 		.ascii	"_resvd6\000"
 3972      76643600 
ARM GAS  C:\Users\DNIEL~1\AppData\Local\Temp\cckLhpUz.s 			page 72


 3973              	.LASF33:
 3974 0073 5F726573 		.ascii	"_resvd7\000"
 3974      76643700 
 3975              	.LASF35:
 3976 007b 5F726573 		.ascii	"_resvd8\000"
 3976      76643800 
 3977              	.LASF59:
 3978 0083 70657269 		.ascii	"period\000"
 3978      6F6400
 3979              	.LASF39:
 3980 008a 5F726573 		.ascii	"_resvd11\000"
 3980      76643131 
 3980      00
 3981              	.LASF40:
 3982 0093 5F726573 		.ascii	"_resvd12\000"
 3982      76643132 
 3982      00
 3983              	.LASF42:
 3984 009c 5F726573 		.ascii	"_resvd13\000"
 3984      76643133 
 3984      00
 3985              	.LASF6:
 3986 00a5 6C6F6E67 		.ascii	"long long unsigned int\000"
 3986      206C6F6E 
 3986      6720756E 
 3986      7369676E 
 3986      65642069 
 3987              	.LASF46:
 3988 00bc 42617365 		.ascii	"BaseChannelVMT\000"
 3988      4368616E 
 3988      6E656C56 
 3988      4D5400
 3989              	.LASF92:
 3990 00cb 49544D5F 		.ascii	"ITM_RxBuffer\000"
 3990      52784275 
 3990      66666572 
 3990      00
 3991              	.LASF38:
 3992 00d8 42445452 		.ascii	"BDTR\000"
 3992      00
 3993              	.LASF68:
 3994 00dd 66726571 		.ascii	"frequency\000"
 3994      75656E63 
 3994      7900
 3995              	.LASF54:
 3996 00e7 50574D5F 		.ascii	"PWM_READY\000"
 3996      52454144 
 3996      5900
 3997              	.LASF50:
 3998 00f1 72656164 		.ascii	"readt\000"
 3998      7400
 3999              	.LASF94:
 4000 00f7 70776D53 		.ascii	"pwmStart\000"
 4000      74617274 
 4000      00
 4001              	.LASF30:
 4002 0100 43434D52 		.ascii	"CCMR1\000"
ARM GAS  C:\Users\DNIEL~1\AppData\Local\Temp\cckLhpUz.s 			page 73


 4002      3100
 4003              	.LASF32:
 4004 0106 43434D52 		.ascii	"CCMR2\000"
 4004      3200
 4005              	.LASF5:
 4006 010c 6C6F6E67 		.ascii	"long long int\000"
 4006      206C6F6E 
 4006      6720696E 
 4006      7400
 4007              	.LASF0:
 4008 011a 7369676E 		.ascii	"signed char\000"
 4008      65642063 
 4008      68617200 
 4009              	.LASF44:
 4010 0126 73746D33 		.ascii	"stm32_tim_t\000"
 4010      325F7469 
 4010      6D5F7400 
 4011              	.LASF62:
 4012 0132 70776D6D 		.ascii	"pwmmode_t\000"
 4012      6F64655F 
 4012      7400
 4013              	.LASF37:
 4014 013c 5F726573 		.ascii	"_resvd10\000"
 4014      76643130 
 4014      00
 4015              	.LASF57:
 4016 0145 73746174 		.ascii	"state\000"
 4016      6500
 4017              	.LASF69:
 4018 014b 6368616E 		.ascii	"channels\000"
 4018      6E656C73 
 4018      00
 4019              	.LASF7:
 4020 0154 6C6F6E67 		.ascii	"long int\000"
 4020      20696E74 
 4020      00
 4021              	.LASF43:
 4022 015d 5F726573 		.ascii	"_resvd14\000"
 4022      76643134 
 4022      00
 4023              	.LASF34:
 4024 0166 43434552 		.ascii	"CCER\000"
 4024      00
 4025              	.LASF14:
 4026 016b 75696E74 		.ascii	"uint16_t\000"
 4026      31365F74 
 4026      00
 4027              	.LASF77:
 4028 0174 646F7562 		.ascii	"double\000"
 4028      6C6500
 4029              	.LASF86:
 4030 017b 4D494E5F 		.ascii	"MIN_U\000"
 4030      5500
 4031              	.LASF93:
 4032 0181 50574D44 		.ascii	"PWMD5\000"
 4032      3500
 4033              	.LASF98:
ARM GAS  C:\Users\DNIEL~1\AppData\Local\Temp\cckLhpUz.s 			page 74


 4034 0187 61746F6C 		.ascii	"atol\000"
 4034      00
 4035              	.LASF21:
 4036 018c 42617365 		.ascii	"BaseSequentialStream\000"
 4036      53657175 
 4036      656E7469 
 4036      616C5374 
 4036      7265616D 
 4037              	.LASF4:
 4038 01a1 756E7369 		.ascii	"unsigned int\000"
 4038      676E6564 
 4038      20696E74 
 4038      00
 4039              	.LASF9:
 4040 01ae 6C6F6E67 		.ascii	"long unsigned int\000"
 4040      20756E73 
 4040      69676E65 
 4040      6420696E 
 4040      7400
 4041              	.LASF91:
 4042 01c0 63727569 		.ascii	"cruise_pwmcfg\000"
 4042      73655F70 
 4042      776D6366 
 4042      6700
 4043              	.LASF48:
 4044 01ce 67657474 		.ascii	"gett\000"
 4044      00
 4045              	.LASF76:
 4046 01d3 4D617844 		.ascii	"MaxD\000"
 4046      00
 4047              	.LASF24:
 4048 01d8 534D4352 		.ascii	"SMCR\000"
 4048      00
 4049              	.LASF75:
 4050 01dd 4D617849 		.ascii	"MaxI\000"
 4050      00
 4051              	.LASF83:
 4052 01e2 636D645F 		.ascii	"cmd_setcruisevalues\000"
 4052      73657463 
 4052      72756973 
 4052      6576616C 
 4052      75657300 
 4053              	.LASF89:
 4054 01f6 4D41585F 		.ascii	"MAX_D\000"
 4054      4400
 4055              	.LASF88:
 4056 01fc 4D41585F 		.ascii	"MAX_I\000"
 4056      4900
 4057              	.LASF66:
 4058 0202 63616C6C 		.ascii	"callback\000"
 4058      6261636B 
 4058      00
 4059              	.LASF49:
 4060 020b 77726974 		.ascii	"writet\000"
 4060      657400
 4061              	.LASF87:
 4062 0212 4D41585F 		.ascii	"MAX_P\000"
ARM GAS  C:\Users\DNIEL~1\AppData\Local\Temp\cckLhpUz.s 			page 75


 4062      5000
 4063              	.LASF85:
 4064 0218 4D41585F 		.ascii	"MAX_U\000"
 4064      5500
 4065              	.LASF19:
 4066 021e 77726974 		.ascii	"write\000"
 4066      6500
 4067              	.LASF47:
 4068 0224 70757474 		.ascii	"putt\000"
 4068      00
 4069              	.LASF8:
 4070 0229 73697A65 		.ascii	"sizetype\000"
 4070      74797065 
 4070      00
 4071              	.LASF99:
 4072 0232 474E5520 		.ascii	"GNU C 4.7.4 20140401 (release) [ARM/embedded-4_7-br"
 4072      4320342E 
 4072      372E3420 
 4072      32303134 
 4072      30343031 
 4073 0265 616E6368 		.ascii	"anch revision 209195]\000"
 4073      20726576 
 4073      6973696F 
 4073      6E203230 
 4073      39313935 
 4074              	.LASF103:
 4075 027b 4552524F 		.ascii	"ERROR\000"
 4075      5200
 4076              	.LASF74:
 4077 0281 4D617850 		.ascii	"MaxP\000"
 4077      00
 4078              	.LASF72:
 4079 0286 4D617855 		.ascii	"MaxU\000"
 4079      00
 4080              	.LASF100:
 4081 028b 7372632F 		.ascii	"src/cruise.c\000"
 4081      63727569 
 4081      73652E63 
 4081      00
 4082              	.LASF71:
 4083 0298 496E7075 		.ascii	"Input\000"
 4083      7400
 4084              	.LASF61:
 4085 029e 70776D63 		.ascii	"pwmcallback_t\000"
 4085      616C6C62 
 4085      61636B5F 
 4085      7400
 4086              	.LASF13:
 4087 02ac 696E7431 		.ascii	"int16_t\000"
 4087      365F7400 
 4088              	.LASF15:
 4089 02b4 696E7433 		.ascii	"int32_t\000"
 4089      325F7400 
 4090              	.LASF1:
 4091 02bc 756E7369 		.ascii	"unsigned char\000"
 4091      676E6564 
 4091      20636861 
ARM GAS  C:\Users\DNIEL~1\AppData\Local\Temp\cckLhpUz.s 			page 76


 4091      7200
 4092              	.LASF73:
 4093 02ca 4D696E55 		.ascii	"MinU\000"
 4093      00
 4094              	.LASF78:
 4095 02cf 63727569 		.ascii	"cruiseInit\000"
 4095      7365496E 
 4095      697400
 4096              	.LASF2:
 4097 02da 73686F72 		.ascii	"short int\000"
 4097      7420696E 
 4097      7400
 4098              	.LASF45:
 4099 02e4 42617365 		.ascii	"BaseSequentialStreamVMT\000"
 4099      53657175 
 4099      656E7469 
 4099      616C5374 
 4099      7265616D 
 4100              	.LASF80:
 4101 02fc 636D645F 		.ascii	"cmd_cruisevalues\000"
 4101      63727569 
 4101      73657661 
 4101      6C756573 
 4101      00
 4102              	.LASF104:
 4103 030d 73706565 		.ascii	"speedGetRpm\000"
 4103      64476574 
 4103      52706D00 
 4104              	.LASF16:
 4105 0319 75696E74 		.ascii	"uint32_t\000"
 4105      33325F74 
 4105      00
 4106              	.LASF70:
 4107 0322 50574D43 		.ascii	"PWMConfig\000"
 4107      6F6E6669 
 4107      6700
 4108              	.LASF53:
 4109 032c 50574D5F 		.ascii	"PWM_STOP\000"
 4109      53544F50 
 4109      00
 4110              	.LASF10:
 4111 0335 63686172 		.ascii	"char\000"
 4111      00
 4112              	.LASF65:
 4113 033a 6D6F6465 		.ascii	"mode\000"
 4113      00
 4114              	.LASF58:
 4115 033f 636F6E66 		.ascii	"config\000"
 4115      696700
 4116              	.LASF41:
 4117 0346 444D4152 		.ascii	"DMAR\000"
 4117      00
 4118              	.LASF36:
 4119 034b 5F726573 		.ascii	"_resvd9\000"
 4119      76643900 
 4120              	.LASF18:
 4121 0353 73797374 		.ascii	"systime_t\000"
ARM GAS  C:\Users\DNIEL~1\AppData\Local\Temp\cckLhpUz.s 			page 77


 4121      696D655F 
 4121      7400
 4122              	.LASF3:
 4123 035d 73686F72 		.ascii	"short unsigned int\000"
 4123      7420756E 
 4123      7369676E 
 4123      65642069 
 4123      6E7400
 4124              	.LASF67:
 4125 0370 50574D43 		.ascii	"PWMChannelConfig\000"
 4125      68616E6E 
 4125      656C436F 
 4125      6E666967 
 4125      00
 4126              	.LASF17:
 4127 0381 6D73675F 		.ascii	"msg_t\000"
 4127      7400
 4128              	.LASF90:
 4129 0387 65656C6F 		.ascii	"eelozo\000"
 4129      7A6F00
 4130              	.LASF101:
 4131 038e 433A5C55 		.ascii	"C:\\Users\\D\341niel\\git\\Smarty\\smarty\\firmware"
 4131      73657273 
 4131      5C44E16E 
 4131      69656C5C 
 4131      6769745C 
 4132 03b8 00       		.ascii	"\000"
 4133              	.LASF12:
 4134 03b9 75696E74 		.ascii	"uint8_t\000"
 4134      385F7400 
 4135              	.LASF56:
 4136 03c1 50574D44 		.ascii	"PWMDriver\000"
 4136      72697665 
 4136      7200
 4137              	.LASF51:
 4138 03cb 42617365 		.ascii	"BaseChannel\000"
 4138      4368616E 
 4138      6E656C00 
 4139              	.LASF55:
 4140 03d7 70776D73 		.ascii	"pwmstate_t\000"
 4140      74617465 
 4140      5F7400
 4141              	.LASF64:
 4142 03e2 70776D63 		.ascii	"pwmcnt_t\000"
 4142      6E745F74 
 4142      00
 4143              	.LASF20:
 4144 03eb 72656164 		.ascii	"read\000"
 4144      00
 4145              	.LASF81:
 4146 03f0 61726763 		.ascii	"argc\000"
 4146      00
 4147              	.LASF60:
 4148 03f5 636C6F63 		.ascii	"clock\000"
 4148      6B00
 4149              	.LASF82:
 4150 03fb 61726776 		.ascii	"argv\000"
ARM GAS  C:\Users\DNIEL~1\AppData\Local\Temp\cckLhpUz.s 			page 78


 4150      00
 4151              	.LASF102:
 4152 0400 63727569 		.ascii	"cruisePID\000"
 4152      73655049 
 4152      4400
 4153              	.LASF52:
 4154 040a 50574D5F 		.ascii	"PWM_UNINIT\000"
 4154      554E494E 
 4154      495400
 4155              	.LASF95:
 4156 0415 70776D45 		.ascii	"pwmEnableChannel\000"
 4156      6E61626C 
 4156      65436861 
 4156      6E6E656C 
 4156      00
 4157              	.LASF96:
 4158 0426 63687072 		.ascii	"chprintf\000"
 4158      696E7466 
 4158      00
 4159              		.ident	"GCC: (GNU Tools for ARM Embedded Processors) 4.7.4 20140401 (release) [ARM/embedded-4_7-br
ARM GAS  C:\Users\DNIEL~1\AppData\Local\Temp\cckLhpUz.s 			page 79


DEFINED SYMBOLS
                            *ABS*:00000000 cruise.c
C:\Users\DNIEL~1\AppData\Local\Temp\cckLhpUz.s:19     .text.cruiseInit:00000000 $t
C:\Users\DNIEL~1\AppData\Local\Temp\cckLhpUz.s:25     .text.cruiseInit:00000000 cruiseInit
C:\Users\DNIEL~1\AppData\Local\Temp\cckLhpUz.s:1030   .bss.I:00000000 .LANCHOR2
C:\Users\DNIEL~1\AppData\Local\Temp\cckLhpUz.s:975    .bss.pwm:00000000 .LANCHOR0
C:\Users\DNIEL~1\AppData\Local\Temp\cckLhpUz.s:908    .bss.set:00000000 .LANCHOR6
C:\Users\DNIEL~1\AppData\Local\Temp\cckLhpUz.s:894    .bss.P:00000000 .LANCHOR1
C:\Users\DNIEL~1\AppData\Local\Temp\cckLhpUz.s:1009   .bss.D:00000000 .LANCHOR3
C:\Users\DNIEL~1\AppData\Local\Temp\cckLhpUz.s:1023   .bss.eelozo:00000000 .LANCHOR4
C:\Users\DNIEL~1\AppData\Local\Temp\cckLhpUz.s:1016   .bss.e:00000000 .LANCHOR5
C:\Users\DNIEL~1\AppData\Local\Temp\cckLhpUz.s:982    .data.cruise_pwmcfg:00000000 .LANCHOR7
C:\Users\DNIEL~1\AppData\Local\Temp\cckLhpUz.s:115    .text.cruisePID:00000000 $t
C:\Users\DNIEL~1\AppData\Local\Temp\cckLhpUz.s:121    .text.cruisePID:00000000 cruisePID
C:\Users\DNIEL~1\AppData\Local\Temp\cckLhpUz.s:350    .text.cruisePID:00000170 $d
C:\Users\DNIEL~1\AppData\Local\Temp\cckLhpUz.s:358    .text.cruiseCalc:00000000 $t
C:\Users\DNIEL~1\AppData\Local\Temp\cckLhpUz.s:364    .text.cruiseCalc:00000000 cruiseCalc
C:\Users\DNIEL~1\AppData\Local\Temp\cckLhpUz.s:1002   .data.K_P:00000000 .LANCHOR8
C:\Users\DNIEL~1\AppData\Local\Temp\cckLhpUz.s:915    .data.K_I:00000000 .LANCHOR9
C:\Users\DNIEL~1\AppData\Local\Temp\cckLhpUz.s:901    .data.K_D:00000000 .LANCHOR10
C:\Users\DNIEL~1\AppData\Local\Temp\cckLhpUz.s:455    .text.cmd_cruisevalues:00000000 $t
C:\Users\DNIEL~1\AppData\Local\Temp\cckLhpUz.s:461    .text.cmd_cruisevalues:00000000 cmd_cruisevalues
C:\Users\DNIEL~1\AppData\Local\Temp\cckLhpUz.s:590    .text.cmd_cruisevalues:000000b8 $d
C:\Users\DNIEL~1\AppData\Local\Temp\cckLhpUz.s:611    .text.cmd_setcruisevalues:00000000 $t
C:\Users\DNIEL~1\AppData\Local\Temp\cckLhpUz.s:617    .text.cmd_setcruisevalues:00000000 cmd_setcruisevalues
C:\Users\DNIEL~1\AppData\Local\Temp\cckLhpUz.s:868    .text.cmd_setcruisevalues:00000158 $d
C:\Users\DNIEL~1\AppData\Local\Temp\cckLhpUz.s:893    .bss.P:00000000 $d
C:\Users\DNIEL~1\AppData\Local\Temp\cckLhpUz.s:897    .bss.P:00000000 P
C:\Users\DNIEL~1\AppData\Local\Temp\cckLhpUz.s:900    .data.K_D:00000000 $d
C:\Users\DNIEL~1\AppData\Local\Temp\cckLhpUz.s:904    .data.K_D:00000000 K_D
C:\Users\DNIEL~1\AppData\Local\Temp\cckLhpUz.s:907    .bss.set:00000000 $d
C:\Users\DNIEL~1\AppData\Local\Temp\cckLhpUz.s:911    .bss.set:00000000 set
C:\Users\DNIEL~1\AppData\Local\Temp\cckLhpUz.s:914    .data.K_I:00000000 $d
C:\Users\DNIEL~1\AppData\Local\Temp\cckLhpUz.s:918    .data.K_I:00000000 K_I
C:\Users\DNIEL~1\AppData\Local\Temp\cckLhpUz.s:921    .rodata.str1.4:00000000 $d
C:\Users\DNIEL~1\AppData\Local\Temp\cckLhpUz.s:974    .bss.pwm:00000000 $d
C:\Users\DNIEL~1\AppData\Local\Temp\cckLhpUz.s:978    .bss.pwm:00000000 pwm
C:\Users\DNIEL~1\AppData\Local\Temp\cckLhpUz.s:981    .data.cruise_pwmcfg:00000000 $d
C:\Users\DNIEL~1\AppData\Local\Temp\cckLhpUz.s:985    .data.cruise_pwmcfg:00000000 cruise_pwmcfg
C:\Users\DNIEL~1\AppData\Local\Temp\cckLhpUz.s:1001   .data.K_P:00000000 $d
C:\Users\DNIEL~1\AppData\Local\Temp\cckLhpUz.s:1005   .data.K_P:00000000 K_P
C:\Users\DNIEL~1\AppData\Local\Temp\cckLhpUz.s:1008   .bss.D:00000000 $d
C:\Users\DNIEL~1\AppData\Local\Temp\cckLhpUz.s:1012   .bss.D:00000000 D
C:\Users\DNIEL~1\AppData\Local\Temp\cckLhpUz.s:1015   .bss.e:00000000 $d
C:\Users\DNIEL~1\AppData\Local\Temp\cckLhpUz.s:1019   .bss.e:00000000 e
C:\Users\DNIEL~1\AppData\Local\Temp\cckLhpUz.s:1022   .bss.eelozo:00000000 $d
C:\Users\DNIEL~1\AppData\Local\Temp\cckLhpUz.s:1026   .bss.eelozo:00000000 eelozo
C:\Users\DNIEL~1\AppData\Local\Temp\cckLhpUz.s:1029   .bss.I:00000000 $d
C:\Users\DNIEL~1\AppData\Local\Temp\cckLhpUz.s:1033   .bss.I:00000000 I
                     .debug_frame:00000010 $d
C:\Users\DNIEL~1\AppData\Local\Temp\cckLhpUz.s:610    .text.cmd_cruisevalues:000000fc $t
C:\Users\DNIEL~1\AppData\Local\Temp\cckLhpUz.s:892    .text.cmd_setcruisevalues:000001ac $t

UNDEFINED SYMBOLS
PWMD5
pwmStart
__aeabi_i2d
ARM GAS  C:\Users\DNIEL~1\AppData\Local\Temp\cckLhpUz.s 			page 80


__aeabi_dmul
__aeabi_dcmpgt
__aeabi_dcmplt
__aeabi_dadd
__aeabi_dsub
__aeabi_d2iz
speedGetRpm
pwmEnableChannel
chprintf
chThdSleep
strcmp
atol
