ARM GAS  C:\Users\DNIEL~1\AppData\Local\Temp\cchvvOwG.s 			page 1


   1              		.syntax unified
   2              		.cpu cortex-m4
   3              		.fpu softvfp
   4              		.eabi_attribute 20, 1
   5              		.eabi_attribute 21, 1
   6              		.eabi_attribute 23, 3
   7              		.eabi_attribute 24, 1
   8              		.eabi_attribute 25, 1
   9              		.eabi_attribute 26, 1
  10              		.eabi_attribute 30, 2
  11              		.eabi_attribute 18, 4
  12              		.thumb
  13              		.file	"cruise.c"
  14              		.section	.debug_abbrev,"",%progbits
  15              	.Ldebug_abbrev0:
  16              		.section	.debug_info,"",%progbits
  17              	.Ldebug_info0:
  18              		.section	.debug_line,"",%progbits
  19              	.Ldebug_line0:
  20 0000 B2040000 		.text
  20      02008602 
  20      00000201 
  20      FB0E0D00 
  20      01010101 
  21              	.Ltext0:
  22              		.cfi_sections	.debug_frame
  23              		.section	.text.chprintf,"ax",%progbits
  24              		.align	2
  25              		.p2align 4,,15
  26              		.thumb
  27              		.thumb_func
  28              		.type	chprintf, %function
  29              	chprintf:
  30              	.LFB118:
  31              		.file 1 "../../../ChibiOS/os/various/chprintf.h"
  32              		.loc 1 69 0
  33              		.cfi_startproc
  34              		@ args = 4, pretend = 12, frame = 8
  35              		@ frame_needed = 0, uses_anonymous_args = 1
  36              	.LVL0:
  37 0000 0EB4     		push	{r1, r2, r3}
  38              	.LCFI0:
  39              		.cfi_def_cfa_offset 12
  40 0002 00B5     		push	{lr}
  41              	.LCFI1:
  42              		.cfi_def_cfa_offset 16
  43 0004 82B0     		sub	sp, sp, #8
  44              	.LCFI2:
  45              		.cfi_def_cfa_offset 24
  46              		.loc 1 69 0
  47 0006 03AB     		add	r3, sp, #12
  48              		.cfi_offset 14, -16
  49              		.cfi_offset 3, -4
  50              		.cfi_offset 2, -8
  51              		.cfi_offset 1, -12
  52 0008 53F8041B 		ldr	r1, [r3], #4
  53              		.loc 1 73 0
ARM GAS  C:\Users\DNIEL~1\AppData\Local\Temp\cchvvOwG.s 			page 2


  54 000c 1A46     		mov	r2, r3
  55              		.loc 1 72 0
  56 000e 0193     		str	r3, [sp, #4]
  57              		.loc 1 73 0
  58 0010 FFF7FEFF 		bl	chvprintf
  59              	.LVL1:
  60              		.loc 1 75 0
  61 0014 02B0     		add	sp, sp, #8
  62 0016 5DF804EB 		pop	{lr}
  63 001a 03B0     		add	sp, sp, #12
  64 001c 7047     		bx	lr
  65              		.cfi_endproc
  66              	.LFE118:
  67              		.size	chprintf, .-chprintf
  68 001e 00BF     		.section	.text.cruiseInit,"ax",%progbits
  69              		.align	2
  70              		.p2align 4,,15
  71              		.global	cruiseInit
  72              		.thumb
  73              		.thumb_func
  74              		.type	cruiseInit, %function
  75              	cruiseInit:
  76              	.LFB119:
  77              		.file 2 "src/cruise.c"
  78              		.loc 2 50 0
  79              		.cfi_startproc
  80              		@ args = 0, pretend = 0, frame = 0
  81              		@ frame_needed = 0, uses_anonymous_args = 0
  82 0000 70B5     		push	{r4, r5, r6, lr}
  83              	.LCFI3:
  84              		.cfi_def_cfa_offset 16
  85              		.loc 2 51 0
  86 0002 124C     		ldr	r4, .L3
  87              		.cfi_offset 14, -4
  88              		.cfi_offset 6, -8
  89              		.cfi_offset 5, -12
  90              		.cfi_offset 4, -16
  91              		.loc 2 61 0
  92 0004 1249     		ldr	r1, .L3+4
  93              		.loc 2 51 0
  94 0006 42F21075 		movw	r5, #10000
  95 000a 2560     		str	r5, [r4, #0]
  96              		.loc 2 53 0
  97 000c 114C     		ldr	r4, .L3+8
  98 000e 0025     		movs	r5, #0
  99 0010 2570     		strb	r5, [r4, #0]
 100              		.loc 2 55 0
 101 0012 114C     		ldr	r4, .L3+12
 102 0014 0023     		movs	r3, #0
 103 0016 0022     		movs	r2, #0
 104 0018 C4E90023 		strd	r2, [r4]
 105              		.loc 2 56 0
 106 001c 0F4C     		ldr	r4, .L3+16
 107 001e C4E90023 		strd	r2, [r4]
 108              		.loc 2 57 0
 109 0022 0F4C     		ldr	r4, .L3+20
 110 0024 C4E90023 		strd	r2, [r4]
ARM GAS  C:\Users\DNIEL~1\AppData\Local\Temp\cchvvOwG.s 			page 3


 111              		.loc 2 58 0
 112 0028 0E4C     		ldr	r4, .L3+24
 113 002a C4E90023 		strd	r2, [r4]
 114              		.loc 2 59 0
 115 002e 0E4C     		ldr	r4, .L3+28
 116              		.loc 2 61 0
 117 0030 0020     		movs	r0, #0
 118              		.loc 2 59 0
 119 0032 C4E90023 		strd	r2, [r4]
 120              		.loc 2 61 0
 121 0036 FFF7FEFF 		bl	speedKMPH_TO_RPM
 122 003a 0C4B     		ldr	r3, .L3+32
 123              		.loc 2 63 0
 124 003c 0C49     		ldr	r1, .L3+36
 125              		.loc 2 61 0
 126 003e 1880     		strh	r0, [r3, #0]	@ movhi
 127              		.loc 2 63 0
 128 0040 0C48     		ldr	r0, .L3+40
 129              		.loc 2 64 0
 130 0042 BDE87040 		pop	{r4, r5, r6, lr}
 131              		.loc 2 63 0
 132 0046 FFF7FEBF 		b	pwmStart
 133              	.L4:
 134 004a 00BF     		.align	2
 135              	.L3:
 136 004c 00000000 		.word	.LANCHOR0
 137 0050 00004940 		.word	1078525952
 138 0054 00000000 		.word	.LANCHOR1
 139 0058 00000000 		.word	.LANCHOR2
 140 005c 00000000 		.word	.LANCHOR3
 141 0060 00000000 		.word	.LANCHOR4
 142 0064 00000000 		.word	.LANCHOR5
 143 0068 00000000 		.word	.LANCHOR6
 144 006c 00000000 		.word	.LANCHOR7
 145 0070 00000000 		.word	.LANCHOR8
 146 0074 00000000 		.word	PWMD5
 147              		.cfi_endproc
 148              	.LFE119:
 149              		.size	cruiseInit, .-cruiseInit
 150 0078 AFF30080 		.section	.text.cruiseEnable,"ax",%progbits
 150      AFF30080 
 151              		.align	2
 152              		.p2align 4,,15
 153              		.global	cruiseEnable
 154              		.thumb
 155              		.thumb_func
 156              		.type	cruiseEnable, %function
 157              	cruiseEnable:
 158              	.LFB121:
 159              		.loc 2 88 0
 160              		.cfi_startproc
 161              		@ args = 0, pretend = 0, frame = 0
 162              		@ frame_needed = 0, uses_anonymous_args = 0
 163              		@ link register save eliminated.
 164              		.loc 2 89 0
 165 0000 014B     		ldr	r3, .L6
 166 0002 0122     		movs	r2, #1
ARM GAS  C:\Users\DNIEL~1\AppData\Local\Temp\cchvvOwG.s 			page 4


 167 0004 1A70     		strb	r2, [r3, #0]
 168              		.loc 2 90 0
 169 0006 7047     		bx	lr
 170              	.L7:
 171              		.align	2
 172              	.L6:
 173 0008 00000000 		.word	.LANCHOR1
 174              		.cfi_endproc
 175              	.LFE121:
 176              		.size	cruiseEnable, .-cruiseEnable
 177 000c AFF30080 		.section	.text.cruiseDisable,"ax",%progbits
 178              		.align	2
 179              		.p2align 4,,15
 180              		.global	cruiseDisable
 181              		.thumb
 182              		.thumb_func
 183              		.type	cruiseDisable, %function
 184              	cruiseDisable:
 185              	.LFB122:
 186              		.loc 2 92 0
 187              		.cfi_startproc
 188              		@ args = 0, pretend = 0, frame = 0
 189              		@ frame_needed = 0, uses_anonymous_args = 0
 190              		@ link register save eliminated.
 191              		.loc 2 93 0
 192 0000 014B     		ldr	r3, .L9
 193 0002 0022     		movs	r2, #0
 194 0004 1A70     		strb	r2, [r3, #0]
 195              		.loc 2 94 0
 196 0006 7047     		bx	lr
 197              	.L10:
 198              		.align	2
 199              	.L9:
 200 0008 00000000 		.word	.LANCHOR1
 201              		.cfi_endproc
 202              	.LFE122:
 203              		.size	cruiseDisable, .-cruiseDisable
 204 000c AFF30080 		.section	.text.cruiseStatus,"ax",%progbits
 205              		.align	2
 206              		.p2align 4,,15
 207              		.global	cruiseStatus
 208              		.thumb
 209              		.thumb_func
 210              		.type	cruiseStatus, %function
 211              	cruiseStatus:
 212              	.LFB123:
 213              		.loc 2 96 0
 214              		.cfi_startproc
 215              		@ args = 0, pretend = 0, frame = 0
 216              		@ frame_needed = 0, uses_anonymous_args = 0
 217              		@ link register save eliminated.
 218              		.loc 2 96 0
 219 0000 014B     		ldr	r3, .L12
 220              		.loc 2 98 0
 221 0002 1878     		ldrb	r0, [r3, #0]	@ zero_extendqisi2
 222 0004 7047     		bx	lr
 223              	.L13:
ARM GAS  C:\Users\DNIEL~1\AppData\Local\Temp\cchvvOwG.s 			page 5


 224 0006 00BF     		.align	2
 225              	.L12:
 226 0008 00000000 		.word	.LANCHOR1
 227              		.cfi_endproc
 228              	.LFE123:
 229              		.size	cruiseStatus, .-cruiseStatus
 230              		.global	__aeabi_i2d
 231              		.global	__aeabi_dadd
 232              		.global	__aeabi_d2iz
 233 000c AFF30080 		.section	.text.cruiseIncrease,"ax",%progbits
 234              		.align	2
 235              		.p2align 4,,15
 236              		.global	cruiseIncrease
 237              		.thumb
 238              		.thumb_func
 239              		.type	cruiseIncrease, %function
 240              	cruiseIncrease:
 241              	.LFB124:
 242              		.loc 2 100 0
 243              		.cfi_startproc
 244              		@ args = 0, pretend = 0, frame = 0
 245              		@ frame_needed = 0, uses_anonymous_args = 0
 246              	.LVL2:
 247 0000 70B5     		push	{r4, r5, r6, lr}
 248              	.LCFI4:
 249              		.cfi_def_cfa_offset 16
 250              		.loc 2 102 0
 251 0002 094E     		ldr	r6, .L15
 252              		.cfi_offset 14, -4
 253              		.cfi_offset 6, -8
 254              		.cfi_offset 5, -12
 255              		.cfi_offset 4, -16
 256              		.loc 2 100 0
 257 0004 0446     		mov	r4, r0
 258 0006 0D46     		mov	r5, r1
 259              		.loc 2 101 0
 260 0008 B6F90000 		ldrsh	r0, [r6, #0]
 261              	.LVL3:
 262 000c FFF7FEFF 		bl	__aeabi_i2d
 263 0010 2246     		mov	r2, r4
 264 0012 2B46     		mov	r3, r5
 265 0014 FFF7FEFF 		bl	__aeabi_dadd
 266 0018 FFF7FEFF 		bl	__aeabi_d2iz
 267              		.loc 2 102 0
 268 001c 00B2     		sxth	r0, r0
 269 001e 8228     		cmp	r0, #130
 270 0020 A8BF     		it	ge
 271 0022 8220     		movge	r0, #130
 272 0024 3080     		strh	r0, [r6, #0]	@ movhi
 273              		.loc 2 103 0
 274 0026 70BD     		pop	{r4, r5, r6, pc}
 275              	.L16:
 276              		.align	2
 277              	.L15:
 278 0028 00000000 		.word	.LANCHOR7
 279              		.cfi_endproc
 280              	.LFE124:
ARM GAS  C:\Users\DNIEL~1\AppData\Local\Temp\cchvvOwG.s 			page 6


 281              		.size	cruiseIncrease, .-cruiseIncrease
 282              		.global	__aeabi_dsub
 283 002c AFF30080 		.section	.text.cruiseReduction,"ax",%progbits
 284              		.align	2
 285              		.p2align 4,,15
 286              		.global	cruiseReduction
 287              		.thumb
 288              		.thumb_func
 289              		.type	cruiseReduction, %function
 290              	cruiseReduction:
 291              	.LFB125:
 292              		.loc 2 104 0
 293              		.cfi_startproc
 294              		@ args = 0, pretend = 0, frame = 0
 295              		@ frame_needed = 0, uses_anonymous_args = 0
 296              	.LVL4:
 297 0000 70B5     		push	{r4, r5, r6, lr}
 298              	.LCFI5:
 299              		.cfi_def_cfa_offset 16
 300              		.loc 2 106 0
 301 0002 094E     		ldr	r6, .L18
 302              		.cfi_offset 14, -4
 303              		.cfi_offset 6, -8
 304              		.cfi_offset 5, -12
 305              		.cfi_offset 4, -16
 306              		.loc 2 104 0
 307 0004 0446     		mov	r4, r0
 308 0006 0D46     		mov	r5, r1
 309              		.loc 2 105 0
 310 0008 B6F90000 		ldrsh	r0, [r6, #0]
 311              	.LVL5:
 312 000c FFF7FEFF 		bl	__aeabi_i2d
 313 0010 2246     		mov	r2, r4
 314 0012 2B46     		mov	r3, r5
 315 0014 FFF7FEFF 		bl	__aeabi_dsub
 316 0018 FFF7FEFF 		bl	__aeabi_d2iz
 317              		.loc 2 106 0
 318 001c 0FFA80FC 		sxth	ip, r0
 319 0020 2CEAEC70 		bic	r0, ip, ip, asr #31
 320 0024 3080     		strh	r0, [r6, #0]	@ movhi
 321              		.loc 2 107 0
 322 0026 70BD     		pop	{r4, r5, r6, pc}
 323              	.L19:
 324              		.align	2
 325              	.L18:
 326 0028 00000000 		.word	.LANCHOR7
 327              		.cfi_endproc
 328              	.LFE125:
 329              		.size	cruiseReduction, .-cruiseReduction
 330 002c AFF30080 		.section	.text.cruiseGet,"ax",%progbits
 331              		.align	2
 332              		.p2align 4,,15
 333              		.global	cruiseGet
 334              		.thumb
 335              		.thumb_func
 336              		.type	cruiseGet, %function
 337              	cruiseGet:
ARM GAS  C:\Users\DNIEL~1\AppData\Local\Temp\cchvvOwG.s 			page 7


 338              	.LFB126:
 339              		.loc 2 109 0
 340              		.cfi_startproc
 341              		@ args = 0, pretend = 0, frame = 0
 342              		@ frame_needed = 0, uses_anonymous_args = 0
 343 0000 08B5     		push	{r3, lr}
 344              	.LCFI6:
 345              		.cfi_def_cfa_offset 8
 346              		.loc 2 110 0
 347 0002 044B     		ldr	r3, .L21
 348              		.cfi_offset 14, -4
 349              		.cfi_offset 3, -8
 350 0004 B3F90000 		ldrsh	r0, [r3, #0]
 351 0008 FFF7FEFF 		bl	__aeabi_i2d
 352 000c FFF7FEFF 		bl	speedRPM_TO_KMPH
 353              		.loc 2 111 0
 354 0010 C0B2     		uxtb	r0, r0
 355 0012 08BD     		pop	{r3, pc}
 356              	.L22:
 357              		.align	2
 358              	.L21:
 359 0014 00000000 		.word	.LANCHOR7
 360              		.cfi_endproc
 361              	.LFE126:
 362              		.size	cruiseGet, .-cruiseGet
 363              		.global	__aeabi_dmul
 364              		.global	__aeabi_dcmpgt
 365              		.global	__aeabi_dcmplt
 366 0018 AFF30080 		.section	.text.cruisePID,"ax",%progbits
 366      AFF30080 
 367              		.align	2
 368              		.p2align 4,,15
 369              		.global	cruisePID
 370              		.thumb
 371              		.thumb_func
 372              		.type	cruisePID, %function
 373              	cruisePID:
 374              	.LFB127:
 375              		.loc 2 114 0
 376              		.cfi_startproc
 377              		@ args = 36, pretend = 0, frame = 16
 378              		@ frame_needed = 0, uses_anonymous_args = 0
 379              	.LVL6:
 380 0000 2DE9F04F 		push	{r4, r5, r6, r7, r8, r9, sl, fp, lr}
 381              	.LCFI7:
 382              		.cfi_def_cfa_offset 36
 383 0004 85B0     		sub	sp, sp, #20
 384              	.LCFI8:
 385              		.cfi_def_cfa_offset 56
 386              		.loc 2 117 0
 387 0006 081A     		subs	r0, r1, r0
 388              	.LVL7:
 389              		.loc 2 114 0
 390 0008 0292     		str	r2, [sp, #8]
 391 000a 0393     		str	r3, [sp, #12]
 392              		.loc 2 117 0
 393              		.cfi_offset 14, -4
ARM GAS  C:\Users\DNIEL~1\AppData\Local\Temp\cchvvOwG.s 			page 8


 394              		.cfi_offset 11, -8
 395              		.cfi_offset 10, -12
 396              		.cfi_offset 9, -16
 397              		.cfi_offset 8, -20
 398              		.cfi_offset 7, -24
 399              		.cfi_offset 6, -28
 400              		.cfi_offset 5, -32
 401              		.cfi_offset 4, -36
 402 000c FFF7FEFF 		bl	__aeabi_i2d
 403              	.LVL8:
 404 0010 534C     		ldr	r4, .L51
 405              		.loc 2 114 0
 406 0012 149E     		ldr	r6, [sp, #80]
 407              		.loc 2 120 0
 408 0014 534F     		ldr	r7, .L51+4
 409              		.loc 2 117 0
 410 0016 8246     		mov	sl, r0
 411 0018 8B46     		mov	fp, r1
 412              		.loc 2 120 0
 413 001a DDE90E23 		ldrd	r2, [sp, #56]
 414              		.loc 2 117 0
 415 001e C4E900AB 		strd	sl, [r4]
 416              		.loc 2 120 0
 417 0022 FFF7FEFF 		bl	__aeabi_dmul
 418 0026 0446     		mov	r4, r0
 419 0028 0D46     		mov	r5, r1
 420              		.loc 2 121 0
 421 002a 3046     		mov	r0, r6
 422              		.loc 2 120 0
 423 002c C7E90045 		strd	r4, [r7]
 424              		.loc 2 121 0
 425 0030 FFF7FEFF 		bl	__aeabi_i2d
 426 0034 8046     		mov	r8, r0
 427 0036 8946     		mov	r9, r1
 428 0038 2046     		mov	r0, r4
 429 003a 2946     		mov	r1, r5
 430 003c 4246     		mov	r2, r8
 431 003e 4B46     		mov	r3, r9
 432 0040 FFF7FEFF 		bl	__aeabi_dcmpgt
 433 0044 0028     		cmp	r0, #0
 434 0046 40F08580 		bne	.L47
 435              		.loc 2 124 0
 436 004a 7042     		negs	r0, r6
 437 004c FFF7FEFF 		bl	__aeabi_i2d
 438 0050 8046     		mov	r8, r0
 439 0052 8946     		mov	r9, r1
 440 0054 2046     		mov	r0, r4
 441 0056 2946     		mov	r1, r5
 442 0058 4246     		mov	r2, r8
 443 005a 4B46     		mov	r3, r9
 444 005c FFF7FEFF 		bl	__aeabi_dcmplt
 445 0060 0028     		cmp	r0, #0
 446 0062 77D1     		bne	.L47
 447              	.L26:
 448              		.loc 2 130 0
 449 0064 404E     		ldr	r6, .L51+8
 450 0066 DDE91023 		ldrd	r2, [sp, #64]
ARM GAS  C:\Users\DNIEL~1\AppData\Local\Temp\cchvvOwG.s 			page 9


 451 006a 5046     		mov	r0, sl
 452 006c 5946     		mov	r1, fp
 453 006e FFF7FEFF 		bl	__aeabi_dmul
 454 0072 D6E90023 		ldrd	r2, [r6]
 455 0076 FFF7FEFF 		bl	__aeabi_dadd
 456 007a 0446     		mov	r4, r0
 457 007c 0D46     		mov	r5, r1
 458              		.loc 2 131 0
 459 007e 1598     		ldr	r0, [sp, #84]
 460              		.loc 2 130 0
 461 0080 C6E90045 		strd	r4, [r6]
 462              		.loc 2 131 0
 463 0084 FFF7FEFF 		bl	__aeabi_i2d
 464 0088 8046     		mov	r8, r0
 465 008a 8946     		mov	r9, r1
 466 008c 2046     		mov	r0, r4
 467 008e 2946     		mov	r1, r5
 468 0090 4246     		mov	r2, r8
 469 0092 4B46     		mov	r3, r9
 470 0094 FFF7FEFF 		bl	__aeabi_dcmpgt
 471 0098 0028     		cmp	r0, #0
 472 009a 58D1     		bne	.L48
 473              		.loc 2 134 0
 474 009c 159A     		ldr	r2, [sp, #84]
 475 009e 5042     		negs	r0, r2
 476 00a0 FFF7FEFF 		bl	__aeabi_i2d
 477 00a4 8046     		mov	r8, r0
 478 00a6 8946     		mov	r9, r1
 479 00a8 2046     		mov	r0, r4
 480 00aa 2946     		mov	r1, r5
 481 00ac 4246     		mov	r2, r8
 482 00ae 4B46     		mov	r3, r9
 483 00b0 FFF7FEFF 		bl	__aeabi_dcmplt
 484 00b4 0028     		cmp	r0, #0
 485 00b6 4AD1     		bne	.L48
 486              	.L30:
 487              		.loc 2 140 0
 488 00b8 DFF8B080 		ldr	r8, .L51+12
 489 00bc DFF8B090 		ldr	r9, .L51+16
 490 00c0 D8E90023 		ldrd	r2, [r8]
 491 00c4 5046     		mov	r0, sl
 492 00c6 5946     		mov	r1, fp
 493 00c8 FFF7FEFF 		bl	__aeabi_dsub
 494 00cc DDE91223 		ldrd	r2, [sp, #72]
 495 00d0 FFF7FEFF 		bl	__aeabi_dmul
 496 00d4 0446     		mov	r4, r0
 497 00d6 0D46     		mov	r5, r1
 498              		.loc 2 141 0
 499 00d8 1698     		ldr	r0, [sp, #88]
 500              		.loc 2 140 0
 501 00da C9E90045 		strd	r4, [r9]
 502              		.loc 2 141 0
 503 00de FFF7FEFF 		bl	__aeabi_i2d
 504 00e2 CDE90001 		strd	r0, [sp]
 505 00e6 DDE90023 		ldrd	r2, [sp]
 506 00ea 2046     		mov	r0, r4
 507 00ec 2946     		mov	r1, r5
ARM GAS  C:\Users\DNIEL~1\AppData\Local\Temp\cchvvOwG.s 			page 10


 508 00ee FFF7FEFF 		bl	__aeabi_dcmpgt
 509 00f2 0028     		cmp	r0, #0
 510 00f4 24D1     		bne	.L49
 511              		.loc 2 144 0
 512 00f6 169B     		ldr	r3, [sp, #88]
 513 00f8 5842     		negs	r0, r3
 514 00fa FFF7FEFF 		bl	__aeabi_i2d
 515 00fe CDE90001 		strd	r0, [sp]
 516 0102 DDE90023 		ldrd	r2, [sp]
 517 0106 2046     		mov	r0, r4
 518 0108 2946     		mov	r1, r5
 519 010a FFF7FEFF 		bl	__aeabi_dcmplt
 520 010e B8B9     		cbnz	r0, .L49
 521              	.L34:
 522              		.loc 2 150 0
 523 0110 D6E90023 		ldrd	r2, [r6]
 524 0114 D7E90001 		ldrd	r0, [r7]
 525 0118 FFF7FEFF 		bl	__aeabi_dadd
 526 011c 2B46     		mov	r3, r5
 527 011e 2246     		mov	r2, r4
 528 0120 FFF7FEFF 		bl	__aeabi_dadd
 529 0124 FFF7FEFF 		bl	__aeabi_d2iz
 530              	.LVL9:
 531              		.loc 2 152 0
 532 0128 029B     		ldr	r3, [sp, #8]
 533 012a 9842     		cmp	r0, r3
 534 012c 15DC     		bgt	.L37
 535 012e 0399     		ldr	r1, [sp, #12]
 536 0130 8842     		cmp	r0, r1
 537 0132 B8BF     		it	lt
 538 0134 0846     		movlt	r0, r1
 539              	.LVL10:
 540              	.L36:
 541              		.loc 2 158 0
 542 0136 C8E900AB 		strd	sl, [r8]
 543              		.loc 2 161 0
 544 013a 05B0     		add	sp, sp, #20
 545 013c BDE8F08F 		pop	{r4, r5, r6, r7, r8, r9, sl, fp, pc}
 546              	.LVL11:
 547              	.L49:
 548              		.loc 2 145 0
 549 0140 DDE90023 		ldrd	r2, [sp]
 550 0144 C9E90023 		strd	r2, [r9]
 551 0148 1446     		mov	r4, r2
 552 014a 1D46     		mov	r5, r3
 553 014c E0E7     		b	.L34
 554              	.L48:
 555              		.loc 2 135 0
 556 014e C6E90089 		strd	r8, [r6]
 557 0152 B1E7     		b	.L30
 558              	.L47:
 559              		.loc 2 125 0
 560 0154 C7E90089 		strd	r8, [r7]
 561 0158 84E7     		b	.L26
 562              	.LVL12:
 563              	.L37:
 564              		.loc 2 152 0
ARM GAS  C:\Users\DNIEL~1\AppData\Local\Temp\cchvvOwG.s 			page 11


 565 015a 0298     		ldr	r0, [sp, #8]
 566              	.LVL13:
 567 015c EBE7     		b	.L36
 568              	.L52:
 569 015e 00BF     		.align	2
 570              	.L51:
 571 0160 00000000 		.word	.LANCHOR6
 572 0164 00000000 		.word	.LANCHOR2
 573 0168 00000000 		.word	.LANCHOR3
 574 016c 00000000 		.word	.LANCHOR5
 575 0170 00000000 		.word	.LANCHOR4
 576              		.cfi_endproc
 577              	.LFE127:
 578              		.size	cruisePID, .-cruisePID
 579 0174 AFF30080 		.section	.text.cruiseCalc,"ax",%progbits
 579      AFF30080 
 579      AFF30080 
 580              		.align	2
 581              		.p2align 4,,15
 582              		.global	cruiseCalc
 583              		.thumb
 584              		.thumb_func
 585              		.type	cruiseCalc, %function
 586              	cruiseCalc:
 587              	.LFB120:
 588              		.loc 2 66 0
 589              		.cfi_startproc
 590              		@ args = 0, pretend = 0, frame = 0
 591              		@ frame_needed = 0, uses_anonymous_args = 0
 592 0000 70B5     		push	{r4, r5, r6, lr}
 593              	.LCFI9:
 594              		.cfi_def_cfa_offset 16
 595              		.loc 2 67 0
 596 0002 2F48     		ldr	r0, .L57
 597 0004 0378     		ldrb	r3, [r0, #0]	@ zero_extendqisi2
 598              		.loc 2 66 0
 599 0006 8AB0     		sub	sp, sp, #40
 600              	.LCFI10:
 601              		.cfi_def_cfa_offset 56
 602              		.loc 2 67 0
 603 0008 002B     		cmp	r3, #0
 604 000a 27D1     		bne	.L56
 605              		.cfi_offset 14, -4
 606              		.cfi_offset 6, -8
 607              		.cfi_offset 5, -12
 608              		.cfi_offset 4, -16
 609              		.loc 2 76 0
 610 000c 2D49     		ldr	r1, .L57+4
 611 000e 0022     		movs	r2, #0
 612 0010 0023     		movs	r3, #0
 613 0012 C1E90023 		strd	r2, [r1]
 614              		.loc 2 77 0
 615 0016 2C49     		ldr	r1, .L57+8
 616 0018 C1E90023 		strd	r2, [r1]
 617              		.loc 2 78 0
 618 001c 2B49     		ldr	r1, .L57+12
 619 001e C1E90023 		strd	r2, [r1]
ARM GAS  C:\Users\DNIEL~1\AppData\Local\Temp\cchvvOwG.s 			page 12


 620              		.loc 2 79 0
 621 0022 2B49     		ldr	r1, .L57+16
 622 0024 C1E90023 		strd	r2, [r1]
 623              		.loc 2 80 0
 624 0028 2A49     		ldr	r1, .L57+20
 625 002a C1E90023 		strd	r2, [r1]
 626              		.loc 2 75 0
 627 002e 2A4A     		ldr	r2, .L57+24
 628 0030 42F21073 		movw	r3, #10000
 629 0034 1360     		str	r3, [r2, #0]
 630              	.L55:
 631              		.loc 2 85 0
 632 0036 2948     		ldr	r0, .L57+28
 633 0038 294A     		ldr	r2, .L57+32
 634 003a B0F808C0 		ldrh	ip, [r0, #8]
 635 003e 0CFB03F3 		mul	r3, ip, r3
 636 0042 82FB0312 		smull	r1, r2, r2, r3
 637 0046 D917     		asrs	r1, r3, #31
 638 0048 C1EB223C 		rsb	ip, r1, r2, asr #12
 639 004c 1FFA8CF2 		uxth	r2, ip
 640 0050 0221     		movs	r1, #2
 641              		.loc 2 86 0
 642 0052 0AB0     		add	sp, sp, #40
 643 0054 BDE87040 		pop	{r4, r5, r6, lr}
 644              		.loc 2 85 0
 645 0058 FFF7FEBF 		b	pwmEnableChannel
 646              	.L56:
 647              		.loc 2 69 0
 648 005c FFF7FEFF 		bl	speedGetRpm
 649 0060 06B2     		sxth	r6, r0
 650 0062 2048     		ldr	r0, .L57+36
 651 0064 204D     		ldr	r5, .L57+40
 652 0066 B0F90000 		ldrsh	r0, [r0, #0]
 653 006a B5F90050 		ldrsh	r5, [r5, #0]
 654 006e 1F4C     		ldr	r4, .L57+44
 655 0070 FFF7FEFF 		bl	__aeabi_i2d
 656 0074 CDE90001 		strd	r0, [sp]
 657 0078 1D4B     		ldr	r3, .L57+48
 658 007a B3F90000 		ldrsh	r0, [r3, #0]
 659 007e FFF7FEFF 		bl	__aeabi_i2d
 660 0082 CDE90201 		strd	r0, [sp, #8]
 661 0086 1B4A     		ldr	r2, .L57+52
 662 0088 B2F90000 		ldrsh	r0, [r2, #0]
 663 008c FFF7FEFF 		bl	__aeabi_i2d
 664 0090 2246     		mov	r2, r4
 665 0092 CDE90401 		strd	r0, [sp, #16]
 666 0096 0023     		movs	r3, #0
 667 0098 2946     		mov	r1, r5
 668 009a 3046     		mov	r0, r6
 669 009c 0694     		str	r4, [sp, #24]
 670 009e 0794     		str	r4, [sp, #28]
 671 00a0 0894     		str	r4, [sp, #32]
 672 00a2 FFF7FEFF 		bl	cruisePID
 673 00a6 1449     		ldr	r1, .L57+56
 674              		.loc 2 70 0
 675 00a8 0B4A     		ldr	r2, .L57+24
 676              		.loc 2 69 0
ARM GAS  C:\Users\DNIEL~1\AppData\Local\Temp\cchvvOwG.s 			page 13


 677 00aa 81FB0013 		smull	r1, r3, r1, r0
 678 00ae C017     		asrs	r0, r0, #31
 679 00b0 C0EB631C 		rsb	ip, r0, r3, asr #5
 680              		.loc 2 70 0
 681 00b4 CCF51C51 		rsb	r1, ip, #9984
 682 00b8 1031     		adds	r1, r1, #16
 683 00ba 1160     		str	r1, [r2, #0]
 684 00bc 8BB2     		uxth	r3, r1
 685 00be BAE7     		b	.L55
 686              	.L58:
 687              		.align	2
 688              	.L57:
 689 00c0 00000000 		.word	.LANCHOR1
 690 00c4 00000000 		.word	.LANCHOR2
 691 00c8 00000000 		.word	.LANCHOR3
 692 00cc 00000000 		.word	.LANCHOR4
 693 00d0 00000000 		.word	.LANCHOR5
 694 00d4 00000000 		.word	.LANCHOR6
 695 00d8 00000000 		.word	.LANCHOR0
 696 00dc 00000000 		.word	PWMD5
 697 00e0 AD8BDB68 		.word	1759218605
 698 00e4 00000000 		.word	.LANCHOR9
 699 00e8 00000000 		.word	.LANCHOR7
 700 00ec 40420F00 		.word	1000000
 701 00f0 00000000 		.word	.LANCHOR10
 702 00f4 00000000 		.word	.LANCHOR11
 703 00f8 1F85EB51 		.word	1374389535
 704              		.cfi_endproc
 705              	.LFE120:
 706              		.size	cruiseCalc, .-cruiseCalc
 707 00fc AFF30080 		.section	.text.cmd_cruisevalues,"ax",%progbits
 708              		.align	2
 709              		.p2align 4,,15
 710              		.global	cmd_cruisevalues
 711              		.thumb
 712              		.thumb_func
 713              		.type	cmd_cruisevalues, %function
 714              	cmd_cruisevalues:
 715              	.LFB128:
 716              		.loc 2 163 0
 717              		.cfi_startproc
 718              		@ args = 0, pretend = 0, frame = 0
 719              		@ frame_needed = 0, uses_anonymous_args = 0
 720              	.LVL14:
 721 0000 2DE9F041 		push	{r4, r5, r6, r7, r8, lr}
 722              	.LCFI11:
 723              		.cfi_def_cfa_offset 24
 724              		.loc 2 167 0
 725 0004 2C49     		ldr	r1, .L62
 726              	.LVL15:
 727              		.loc 2 172 0
 728 0006 2D4F     		ldr	r7, .L62+4
 729              		.cfi_offset 14, -4
 730              		.cfi_offset 8, -8
 731              		.cfi_offset 7, -12
 732              		.cfi_offset 6, -16
 733              		.cfi_offset 5, -20
ARM GAS  C:\Users\DNIEL~1\AppData\Local\Temp\cchvvOwG.s 			page 14


 734              		.cfi_offset 4, -24
 735 0008 2D4E     		ldr	r6, .L62+8
 736              		.loc 2 173 0
 737 000a 2E4D     		ldr	r5, .L62+12
 738              		.loc 2 163 0
 739 000c 0446     		mov	r4, r0
 740              		.loc 2 167 0
 741 000e FFF7FEFF 		bl	chprintf
 742              	.LVL16:
 743              		.loc 2 168 0
 744 0012 2046     		mov	r0, r4
 745 0014 2C49     		ldr	r1, .L62+16
 746 0016 FFF7FEFF 		bl	chprintf
 747              		.loc 2 169 0
 748 001a 43E0     		b	.L60
 749              	.L61:
 750              		.loc 2 170 0
 751 001c 0022     		movs	r2, #0
 752 001e 1346     		mov	r3, r2
 753 0020 2046     		mov	r0, r4
 754 0022 2A49     		ldr	r1, .L62+20
 755 0024 FFF7FEFF 		bl	chprintf
 756              		.loc 2 172 0
 757 0028 D6E90001 		ldrd	r0, [r6]
 758 002c FFF7FEFF 		bl	__aeabi_d2iz
 759 0030 B7F90080 		ldrsh	r8, [r7, #0]
 760 0034 2649     		ldr	r1, .L62+24
 761 0036 4246     		mov	r2, r8
 762 0038 0346     		mov	r3, r0
 763 003a 2046     		mov	r0, r4
 764 003c FFF7FEFF 		bl	chprintf
 765              		.loc 2 173 0
 766 0040 244B     		ldr	r3, .L62+28
 767 0042 B5F90080 		ldrsh	r8, [r5, #0]
 768 0046 D3E90001 		ldrd	r0, [r3]
 769 004a FFF7FEFF 		bl	__aeabi_d2iz
 770 004e 4246     		mov	r2, r8
 771 0050 0346     		mov	r3, r0
 772 0052 2149     		ldr	r1, .L62+32
 773 0054 2046     		mov	r0, r4
 774 0056 FFF7FEFF 		bl	chprintf
 775              		.loc 2 174 0
 776 005a 204B     		ldr	r3, .L62+36
 777 005c B3F90080 		ldrsh	r8, [r3, #0]
 778 0060 1F4B     		ldr	r3, .L62+40
 779 0062 D3E90001 		ldrd	r0, [r3]
 780 0066 FFF7FEFF 		bl	__aeabi_d2iz
 781 006a 1E49     		ldr	r1, .L62+44
 782 006c 0346     		mov	r3, r0
 783 006e 4246     		mov	r2, r8
 784 0070 2046     		mov	r0, r4
 785 0072 FFF7FEFF 		bl	chprintf
 786              		.loc 2 175 0
 787 0076 1C4B     		ldr	r3, .L62+48
 788 0078 1C49     		ldr	r1, .L62+52
 789 007a 1A68     		ldr	r2, [r3, #0]
 790 007c 2046     		mov	r0, r4
ARM GAS  C:\Users\DNIEL~1\AppData\Local\Temp\cchvvOwG.s 			page 15


 791 007e FFF7FEFF 		bl	chprintf
 792              		.loc 2 176 0
 793 0082 1B4B     		ldr	r3, .L62+56
 794 0084 1B49     		ldr	r1, .L62+60
 795 0086 B3F90020 		ldrsh	r2, [r3, #0]
 796 008a 2046     		mov	r0, r4
 797 008c FFF7FEFF 		bl	chprintf
 798              		.loc 2 177 0
 799 0090 FFF7FEFF 		bl	speedGetRpm
 800 0094 1849     		ldr	r1, .L62+64
 801 0096 0246     		mov	r2, r0
 802 0098 2046     		mov	r0, r4
 803 009a FFF7FEFF 		bl	chprintf
 804              		.loc 2 179 0
 805 009e 6420     		movs	r0, #100
 806 00a0 FFF7FEFF 		bl	chThdSleep
 807              	.L60:
 808              		.loc 2 169 0 discriminator 1
 809 00a4 2168     		ldr	r1, [r4, #0]
 810 00a6 2046     		mov	r0, r4
 811 00a8 4B69     		ldr	r3, [r1, #20]
 812 00aa 0021     		movs	r1, #0
 813 00ac 9847     		blx	r3
 814 00ae B0F1FF3F 		cmp	r0, #-1
 815 00b2 B3D0     		beq	.L61
 816              		.loc 2 181 0
 817 00b4 BDE8F081 		pop	{r4, r5, r6, r7, r8, pc}
 818              	.L63:
 819              		.align	2
 820              	.L62:
 821 00b8 00000000 		.word	.LC0
 822 00bc 00000000 		.word	.LANCHOR9
 823 00c0 00000000 		.word	.LANCHOR2
 824 00c4 00000000 		.word	.LANCHOR10
 825 00c8 04000000 		.word	.LC1
 826 00cc 0C000000 		.word	.LC2
 827 00d0 18000000 		.word	.LC3
 828 00d4 00000000 		.word	.LANCHOR3
 829 00d8 30000000 		.word	.LC4
 830 00dc 00000000 		.word	.LANCHOR11
 831 00e0 00000000 		.word	.LANCHOR4
 832 00e4 48000000 		.word	.LC5
 833 00e8 00000000 		.word	.LANCHOR0
 834 00ec 60000000 		.word	.LC6
 835 00f0 00000000 		.word	.LANCHOR7
 836 00f4 6C000000 		.word	.LC7
 837 00f8 7C000000 		.word	.LC8
 838              		.cfi_endproc
 839              	.LFE128:
 840              		.size	cmd_cruisevalues, .-cmd_cruisevalues
 841 00fc AFF30080 		.section	.text.cmd_setcruisevalues,"ax",%progbits
 842              		.align	2
 843              		.p2align 4,,15
 844              		.global	cmd_setcruisevalues
 845              		.thumb
 846              		.thumb_func
 847              		.type	cmd_setcruisevalues, %function
ARM GAS  C:\Users\DNIEL~1\AppData\Local\Temp\cchvvOwG.s 			page 16


 848              	cmd_setcruisevalues:
 849              	.LFB129:
 850              		.loc 2 183 0
 851              		.cfi_startproc
 852              		@ args = 0, pretend = 0, frame = 0
 853              		@ frame_needed = 0, uses_anonymous_args = 0
 854              	.LVL17:
 855 0000 2DE9F041 		push	{r4, r5, r6, r7, r8, lr}
 856              	.LCFI12:
 857              		.cfi_def_cfa_offset 24
 858              		.loc 2 183 0
 859 0004 0446     		mov	r4, r0
 860              		.cfi_offset 14, -4
 861              		.cfi_offset 8, -8
 862              		.cfi_offset 7, -12
 863              		.cfi_offset 6, -16
 864              		.cfi_offset 5, -20
 865              		.cfi_offset 4, -24
 866 0006 0D46     		mov	r5, r1
 867              		.loc 2 189 0
 868 0008 6549     		ldr	r1, .L98+8
 869              	.LVL18:
 870              		.loc 2 183 0
 871 000a 1646     		mov	r6, r2
 872              		.loc 2 189 0
 873 000c FFF7FEFF 		bl	chprintf
 874              	.LVL19:
 875              		.loc 2 190 0
 876 0010 2046     		mov	r0, r4
 877 0012 6449     		ldr	r1, .L98+12
 878 0014 FFF7FEFF 		bl	chprintf
 879              		.loc 2 191 0
 880 0018 2168     		ldr	r1, [r4, #0]
 881 001a 2046     		mov	r0, r4
 882 001c 4B69     		ldr	r3, [r1, #20]
 883 001e 0021     		movs	r1, #0
 884 0020 9847     		blx	r3
 885 0022 B0F1FF3F 		cmp	r0, #-1
 886 0026 01D0     		beq	.L90
 887 0028 BDE8F081 		pop	{r4, r5, r6, r7, r8, pc}
 888              	.L90:
 889              		.loc 2 192 0
 890 002c 0022     		movs	r2, #0
 891 002e 2046     		mov	r0, r4
 892 0030 5D49     		ldr	r1, .L98+16
 893 0032 1346     		mov	r3, r2
 894 0034 FFF7FEFF 		bl	chprintf
 895              		.loc 2 194 0
 896 0038 022D     		cmp	r5, #2
 897 003a 07D0     		beq	.L91
 898              		.loc 2 234 0
 899 003c 012D     		cmp	r5, #1
 900 003e 28D0     		beq	.L92
 901              	.LVL20:
 902              	.L82:
 903              		.loc 2 255 0
 904 0040 5A49     		ldr	r1, .L98+20
ARM GAS  C:\Users\DNIEL~1\AppData\Local\Temp\cchvvOwG.s 			page 17


 905 0042 2046     		mov	r0, r4
 906              		.loc 2 260 0
 907 0044 BDE8F041 		pop	{r4, r5, r6, r7, r8, lr}
 908              		.loc 2 255 0
 909 0048 FFF7FEBF 		b	chprintf
 910              	.LVL21:
 911              	.L91:
 912              		.loc 2 194 0 discriminator 1
 913 004c 3768     		ldr	r7, [r6, #0]
 914 004e 5849     		ldr	r1, .L98+24
 915 0050 3846     		mov	r0, r7
 916 0052 FFF7FEFF 		bl	strcmp
 917 0056 0028     		cmp	r0, #0
 918 0058 5FD0     		beq	.L93
 919              	.L67:
 920              		.loc 2 204 0
 921 005a 3846     		mov	r0, r7
 922 005c 5549     		ldr	r1, .L98+28
 923 005e FFF7FEFF 		bl	strcmp
 924 0062 0028     		cmp	r0, #0
 925 0064 60D0     		beq	.L83
 926              	.LVL22:
 927              	.L71:
 928              		.loc 2 214 0
 929 0066 3846     		mov	r0, r7
 930 0068 5349     		ldr	r1, .L98+32
 931 006a FFF7FEFF 		bl	strcmp
 932 006e 0028     		cmp	r0, #0
 933 0070 48D0     		beq	.L84
 934              	.L75:
 935              		.loc 2 224 0
 936 0072 3846     		mov	r0, r7
 937 0074 5149     		ldr	r1, .L98+36
 938 0076 FFF7FEFF 		bl	strcmp
 939 007a 0028     		cmp	r0, #0
 940 007c E0D1     		bne	.L82
 941              		.loc 2 225 0
 942 007e 7068     		ldr	r0, [r6, #4]
 943 0080 FFF7FEFF 		bl	atol
 944 0084 0546     		mov	r5, r0	@ movhi
 945              	.LVL23:
 946              		.loc 2 226 0
 947 0086 00B2     		sxth	r0, r0
 948 0088 0028     		cmp	r0, #0
 949 008a 58DD     		ble	.L94
 950              	.L76:
 951              		.loc 2 227 0
 952 008c 4C49     		ldr	r1, .L98+40
 953 008e 0D80     		strh	r5, [r1, #0]	@ movhi
 954 0090 D6E7     		b	.L82
 955              	.LVL24:
 956              	.L92:
 957              		.loc 2 234 0 discriminator 1
 958 0092 3768     		ldr	r7, [r6, #0]
 959 0094 4B49     		ldr	r1, .L98+44
 960 0096 3846     		mov	r0, r7
 961 0098 FFF7FEFF 		bl	strcmp
ARM GAS  C:\Users\DNIEL~1\AppData\Local\Temp\cchvvOwG.s 			page 18


 962 009c 0028     		cmp	r0, #0
 963 009e 29D0     		beq	.L95
 964              	.L81:
 965              		.loc 2 239 0
 966 00a0 3846     		mov	r0, r7
 967 00a2 4949     		ldr	r1, .L98+48
 968 00a4 FFF7FEFF 		bl	strcmp
 969 00a8 0028     		cmp	r0, #0
 970 00aa C9D1     		bne	.L82
 971              	.LBB10:
 972              	.LBB11:
 973              		.loc 2 93 0
 974 00ac 474B     		ldr	r3, .L98+52
 975              	.LBE11:
 976              	.LBE10:
 977              		.loc 2 241 0
 978 00ae 4849     		ldr	r1, .L98+56
 979              	.LBB13:
 980              	.LBB12:
 981              		.loc 2 93 0
 982 00b0 1870     		strb	r0, [r3, #0]
 983              	.LBE12:
 984              	.LBE13:
 985              		.loc 2 241 0
 986 00b2 2046     		mov	r0, r4
 987 00b4 FFF7FEFF 		bl	chprintf
 988              		.loc 2 248 0
 989 00b8 464A     		ldr	r2, .L98+60
 990 00ba 4749     		ldr	r1, .L98+64
 991 00bc B2F90020 		ldrsh	r2, [r2, #0]
 992 00c0 2046     		mov	r0, r4
 993 00c2 FFF7FEFF 		bl	chprintf
 994              		.loc 2 249 0
 995 00c6 454B     		ldr	r3, .L98+68
 996 00c8 4549     		ldr	r1, .L98+72
 997 00ca B3F90020 		ldrsh	r2, [r3, #0]
 998 00ce 2046     		mov	r0, r4
 999 00d0 FFF7FEFF 		bl	chprintf
 1000              		.loc 2 250 0
 1001 00d4 3A48     		ldr	r0, .L98+40
 1002 00d6 4349     		ldr	r1, .L98+76
 1003 00d8 B0F90020 		ldrsh	r2, [r0, #0]
 1004 00dc 2046     		mov	r0, r4
 1005 00de FFF7FEFF 		bl	chprintf
 1006              		.loc 2 251 0
 1007 00e2 414A     		ldr	r2, .L98+80
 1008 00e4 4149     		ldr	r1, .L98+84
 1009 00e6 B2F90020 		ldrsh	r2, [r2, #0]
 1010 00ea 2046     		mov	r0, r4
 1011              		.loc 2 260 0
 1012 00ec BDE8F041 		pop	{r4, r5, r6, r7, r8, lr}
 1013              		.loc 2 251 0
 1014 00f0 FFF7FEBF 		b	chprintf
 1015              	.L95:
 1016              	.LBB14:
 1017              	.LBB15:
 1018              		.loc 2 89 0
ARM GAS  C:\Users\DNIEL~1\AppData\Local\Temp\cchvvOwG.s 			page 19


 1019 00f4 354F     		ldr	r7, .L98+52
 1020              	.LBE15:
 1021              	.LBE14:
 1022              		.loc 2 236 0
 1023 00f6 3E49     		ldr	r1, .L98+88
 1024              	.LBB17:
 1025              	.LBB16:
 1026              		.loc 2 89 0
 1027 00f8 3D70     		strb	r5, [r7, #0]
 1028              	.LBE16:
 1029              	.LBE17:
 1030              		.loc 2 236 0
 1031 00fa 2046     		mov	r0, r4
 1032 00fc FFF7FEFF 		bl	chprintf
 1033 0100 3768     		ldr	r7, [r6, #0]
 1034 0102 CDE7     		b	.L81
 1035              	.LVL25:
 1036              	.L84:
 1037              		.loc 2 215 0
 1038 0104 7068     		ldr	r0, [r6, #4]
 1039 0106 FFF7FEFF 		bl	atol
 1040 010a 0546     		mov	r5, r0	@ movhi
 1041              	.LVL26:
 1042              		.loc 2 216 0
 1043 010c 00B2     		sxth	r0, r0
 1044 010e 0028     		cmp	r0, #0
 1045 0110 23DD     		ble	.L96
 1046              	.L72:
 1047              		.loc 2 217 0
 1048 0112 324B     		ldr	r3, .L98+68
 1049 0114 3768     		ldr	r7, [r6, #0]
 1050 0116 1D80     		strh	r5, [r3, #0]	@ movhi
 1051 0118 ABE7     		b	.L75
 1052              	.LVL27:
 1053              	.L93:
 1054              		.loc 2 195 0
 1055 011a 7068     		ldr	r0, [r6, #4]
 1056 011c FFF7FEFF 		bl	atol
 1057              	.LVL28:
 1058 0120 314A     		ldr	r2, .L98+80
 1059              		.loc 2 197 0
 1060 0122 3768     		ldr	r7, [r6, #0]
 1061              		.loc 2 195 0
 1062 0124 1080     		strh	r0, [r2, #0]	@ movhi
 1063 0126 98E7     		b	.L67
 1064              	.LVL29:
 1065              	.L83:
 1066              		.loc 2 205 0
 1067 0128 7068     		ldr	r0, [r6, #4]
 1068 012a FFF7FEFF 		bl	atol
 1069 012e 0546     		mov	r5, r0	@ movhi
 1070              	.LVL30:
 1071              		.loc 2 206 0
 1072 0130 00B2     		sxth	r0, r0
 1073 0132 0028     		cmp	r0, #0
 1074 0134 20DD     		ble	.L97
 1075              	.L68:
ARM GAS  C:\Users\DNIEL~1\AppData\Local\Temp\cchvvOwG.s 			page 20


 1076              		.loc 2 207 0
 1077 0136 2748     		ldr	r0, .L98+60
 1078 0138 3768     		ldr	r7, [r6, #0]
 1079 013a 0580     		strh	r5, [r0, #0]	@ movhi
 1080 013c 93E7     		b	.L71
 1081              	.L94:
 1082              		.loc 2 226 0 discriminator 1
 1083 013e FFF7FEFF 		bl	__aeabi_i2d
 1084 0142 15A3     		adr	r3, .L98
 1085 0144 D3E90023 		ldrd	r2, [r3]
 1086 0148 FFF7FEFF 		bl	__aeabi_dcmplt
 1087 014c 0028     		cmp	r0, #0
 1088 014e 9DD1     		bne	.L76
 1089              		.loc 2 230 0
 1090 0150 2046     		mov	r0, r4
 1091 0152 2849     		ldr	r1, .L98+92
 1092 0154 FFF7FEFF 		bl	chprintf
 1093 0158 72E7     		b	.L82
 1094              	.L96:
 1095              		.loc 2 216 0 discriminator 1
 1096 015a FFF7FEFF 		bl	__aeabi_i2d
 1097 015e 0EA3     		adr	r3, .L98
 1098 0160 D3E90023 		ldrd	r2, [r3]
 1099 0164 FFF7FEFF 		bl	__aeabi_dcmplt
 1100 0168 0028     		cmp	r0, #0
 1101 016a D2D1     		bne	.L72
 1102              		.loc 2 220 0
 1103 016c 2046     		mov	r0, r4
 1104 016e 2249     		ldr	r1, .L98+96
 1105 0170 FFF7FEFF 		bl	chprintf
 1106 0174 3768     		ldr	r7, [r6, #0]
 1107 0176 7CE7     		b	.L75
 1108              	.L97:
 1109              		.loc 2 206 0 discriminator 1
 1110 0178 FFF7FEFF 		bl	__aeabi_i2d
 1111 017c 06A3     		adr	r3, .L98
 1112 017e D3E90023 		ldrd	r2, [r3]
 1113 0182 FFF7FEFF 		bl	__aeabi_dcmplt
 1114 0186 0028     		cmp	r0, #0
 1115 0188 D5D1     		bne	.L68
 1116              		.loc 2 210 0
 1117 018a 2046     		mov	r0, r4
 1118 018c 1B49     		ldr	r1, .L98+100
 1119 018e FFF7FEFF 		bl	chprintf
 1120 0192 3768     		ldr	r7, [r6, #0]
 1121 0194 67E7     		b	.L71
 1122              	.L99:
 1123 0196 00BF     		.align	3
 1124              	.L98:
 1125 0198 00000000 		.word	0
 1126 019c 80842E41 		.word	1093567616
 1127 01a0 00000000 		.word	.LC0
 1128 01a4 04000000 		.word	.LC1
 1129 01a8 0C000000 		.word	.LC2
 1130 01ac 40010000 		.word	.LC19
 1131 01b0 90000000 		.word	.LC9
 1132 01b4 5C010000 		.word	.LC20
ARM GAS  C:\Users\DNIEL~1\AppData\Local\Temp\cchvvOwG.s 			page 21


 1133 01b8 60010000 		.word	.LC21
 1134 01bc 64010000 		.word	.LC22
 1135 01c0 00000000 		.word	.LANCHOR11
 1136 01c4 DC000000 		.word	.LC13
 1137 01c8 68010000 		.word	.LC23
 1138 01cc 00000000 		.word	.LANCHOR1
 1139 01d0 FC000000 		.word	.LC15
 1140 01d4 00000000 		.word	.LANCHOR9
 1141 01d8 1C010000 		.word	.LC16
 1142 01dc 00000000 		.word	.LANCHOR10
 1143 01e0 28010000 		.word	.LC17
 1144 01e4 34010000 		.word	.LC18
 1145 01e8 00000000 		.word	.LANCHOR7
 1146 01ec 6C000000 		.word	.LC7
 1147 01f0 E0000000 		.word	.LC14
 1148 01f4 C4000000 		.word	.LC12
 1149 01f8 AC000000 		.word	.LC11
 1150 01fc 94000000 		.word	.LC10
 1151              		.cfi_endproc
 1152              	.LFE129:
 1153              		.size	cmd_setcruisevalues, .-cmd_setcruisevalues
 1154              		.section	.text.cmd_cruise,"ax",%progbits
 1155              		.align	2
 1156              		.p2align 4,,15
 1157              		.global	cmd_cruise
 1158              		.thumb
 1159              		.thumb_func
 1160              		.type	cmd_cruise, %function
 1161              	cmd_cruise:
 1162              	.LFB130:
 1163              		.loc 2 262 0
 1164              		.cfi_startproc
 1165              		@ args = 0, pretend = 0, frame = 0
 1166              		@ frame_needed = 0, uses_anonymous_args = 0
 1167              	.LVL31:
 1168 0000 2DE9F041 		push	{r4, r5, r6, r7, r8, lr}
 1169              	.LCFI13:
 1170              		.cfi_def_cfa_offset 24
 1171              		.loc 2 262 0
 1172 0004 0446     		mov	r4, r0
 1173              		.cfi_offset 14, -4
 1174              		.cfi_offset 8, -8
 1175              		.cfi_offset 7, -12
 1176              		.cfi_offset 6, -16
 1177              		.cfi_offset 5, -20
 1178              		.cfi_offset 4, -24
 1179 0006 0D46     		mov	r5, r1
 1180              		.loc 2 268 0
 1181 0008 1A49     		ldr	r1, .L106
 1182              	.LVL32:
 1183              		.loc 2 262 0
 1184 000a 1646     		mov	r6, r2
 1185              		.loc 2 268 0
 1186 000c FFF7FEFF 		bl	chprintf
 1187              	.LVL33:
 1188              		.loc 2 269 0
 1189 0010 2046     		mov	r0, r4
ARM GAS  C:\Users\DNIEL~1\AppData\Local\Temp\cchvvOwG.s 			page 22


 1190 0012 1949     		ldr	r1, .L106+4
 1191 0014 FFF7FEFF 		bl	chprintf
 1192              		.loc 2 270 0
 1193 0018 0022     		movs	r2, #0
 1194 001a 2046     		mov	r0, r4
 1195 001c 1749     		ldr	r1, .L106+8
 1196 001e 1346     		mov	r3, r2
 1197 0020 FFF7FEFF 		bl	chprintf
 1198              		.loc 2 272 0
 1199 0024 012D     		cmp	r5, #1
 1200 0026 09D0     		beq	.L104
 1201              	.L101:
 1202              		.loc 2 288 0
 1203 0028 2046     		mov	r0, r4
 1204 002a 1549     		ldr	r1, .L106+12
 1205 002c FFF7FEFF 		bl	chprintf
 1206              		.loc 2 289 0
 1207 0030 1449     		ldr	r1, .L106+16
 1208 0032 2046     		mov	r0, r4
 1209              		.loc 2 293 0
 1210 0034 BDE8F041 		pop	{r4, r5, r6, r7, r8, lr}
 1211              		.loc 2 289 0
 1212 0038 FFF7FEBF 		b	chprintf
 1213              	.L104:
 1214              		.loc 2 272 0 discriminator 1
 1215 003c 3768     		ldr	r7, [r6, #0]
 1216 003e 1249     		ldr	r1, .L106+20
 1217 0040 3846     		mov	r0, r7
 1218 0042 FFF7FEFF 		bl	strcmp
 1219 0046 68B1     		cbz	r0, .L105
 1220              	.L102:
 1221              		.loc 2 277 0
 1222 0048 3846     		mov	r0, r7
 1223 004a 1049     		ldr	r1, .L106+24
 1224 004c FFF7FEFF 		bl	strcmp
 1225 0050 0028     		cmp	r0, #0
 1226 0052 E9D1     		bne	.L101
 1227              	.LBB18:
 1228              	.LBB19:
 1229              		.loc 2 93 0
 1230 0054 0E4A     		ldr	r2, .L106+28
 1231              	.LBE19:
 1232              	.LBE18:
 1233              		.loc 2 279 0
 1234 0056 0F49     		ldr	r1, .L106+32
 1235              	.LBB21:
 1236              	.LBB20:
 1237              		.loc 2 93 0
 1238 0058 1070     		strb	r0, [r2, #0]
 1239              	.LBE20:
 1240              	.LBE21:
 1241              		.loc 2 279 0
 1242 005a 2046     		mov	r0, r4
 1243              		.loc 2 293 0
 1244 005c BDE8F041 		pop	{r4, r5, r6, r7, r8, lr}
 1245              		.loc 2 279 0
 1246 0060 FFF7FEBF 		b	chprintf
ARM GAS  C:\Users\DNIEL~1\AppData\Local\Temp\cchvvOwG.s 			page 23


 1247              	.L105:
 1248              	.LBB22:
 1249              	.LBB23:
 1250              		.loc 2 89 0
 1251 0064 0A4B     		ldr	r3, .L106+28
 1252              	.LBE23:
 1253              	.LBE22:
 1254              		.loc 2 274 0
 1255 0066 0C49     		ldr	r1, .L106+36
 1256              	.LBB25:
 1257              	.LBB24:
 1258              		.loc 2 89 0
 1259 0068 1D70     		strb	r5, [r3, #0]
 1260              	.LBE24:
 1261              	.LBE25:
 1262              		.loc 2 274 0
 1263 006a 2046     		mov	r0, r4
 1264 006c FFF7FEFF 		bl	chprintf
 1265 0070 3768     		ldr	r7, [r6, #0]
 1266 0072 E9E7     		b	.L102
 1267              	.L107:
 1268              		.align	2
 1269              	.L106:
 1270 0074 00000000 		.word	.LC0
 1271 0078 04000000 		.word	.LC1
 1272 007c 0C000000 		.word	.LC2
 1273 0080 6C010000 		.word	.LC24
 1274 0084 80010000 		.word	.LC25
 1275 0088 DC000000 		.word	.LC13
 1276 008c 68010000 		.word	.LC23
 1277 0090 00000000 		.word	.LANCHOR1
 1278 0094 FC000000 		.word	.LC15
 1279 0098 E0000000 		.word	.LC14
 1280              		.cfi_endproc
 1281              	.LFE130:
 1282              		.size	cmd_cruise, .-cmd_cruise
 1283 009c AFF30080 		.section	.bss.P,"aw",%nobits
 1284              		.align	3
 1285              		.set	.LANCHOR2,. + 0
 1286              		.type	P, %object
 1287              		.size	P, 8
 1288              	P:
 1289 0000 00000000 		.space	8
 1289      00000000 
 1290              		.section	.data.K_D,"aw",%progbits
 1291              		.align	1
 1292              		.set	.LANCHOR11,. + 0
 1293              		.type	K_D, %object
 1294              		.size	K_D, 2
 1295              	K_D:
 1296 0000 F401     		.short	500
 1297              		.section	.bss.set,"aw",%nobits
 1298              		.align	1
 1299              		.set	.LANCHOR7,. + 0
 1300              		.type	set, %object
 1301              		.size	set, 2
 1302              	set:
ARM GAS  C:\Users\DNIEL~1\AppData\Local\Temp\cchvvOwG.s 			page 24


 1303 0000 0000     		.space	2
 1304              		.section	.data.K_I,"aw",%progbits
 1305              		.align	1
 1306              		.set	.LANCHOR10,. + 0
 1307              		.type	K_I, %object
 1308              		.size	K_I, 2
 1309              	K_I:
 1310 0000 0200     		.short	2
 1311              		.section	.rodata.str1.4,"aMS",%progbits,1
 1312              		.align	2
 1313              	.LC0:
 1314 0000 1B6300   		.ascii	"\033c\000"
 1315 0003 00       		.space	1
 1316              	.LC1:
 1317 0004 1B5B324A 		.ascii	"\033[2J\000"
 1317      00
 1318 0009 000000   		.space	3
 1319              	.LC2:
 1320 000c 1B5B2564 		.ascii	"\033[%d;%dH\000"
 1320      3B256448 
 1320      00
 1321 0015 000000   		.space	3
 1322              	.LC3:
 1323 0018 4B5F503A 		.ascii	"K_P: %15d - P: %15d\015\012\000"
 1323      20253135 
 1323      64202D20 
 1323      503A2025 
 1323      3135640D 
 1324 002e 0000     		.space	2
 1325              	.LC4:
 1326 0030 4B5F493A 		.ascii	"K_I: %15d - I: %15d\015\012\000"
 1326      20253135 
 1326      64202D20 
 1326      493A2025 
 1326      3135640D 
 1327 0046 0000     		.space	2
 1328              	.LC5:
 1329 0048 4B5F443A 		.ascii	"K_D: %15d - D: %15d\015\012\000"
 1329      20253135 
 1329      64202D20 
 1329      443A2025 
 1329      3135640D 
 1330 005e 0000     		.space	2
 1331              	.LC6:
 1332 0060 70776D3A 		.ascii	"pwm: %15d\015\012\000"
 1332      20253135 
 1332      640D0A00 
 1333              	.LC7:
 1334 006c 73657420 		.ascii	"set rpm: %15d\015\012\000"
 1334      72706D3A 
 1334      20253135 
 1334      640D0A00 
 1335              	.LC8:
 1336 007c 696E7075 		.ascii	"input rpm: %15d\015\012\000"
 1336      74207270 
 1336      6D3A2025 
 1336      3135640D 
ARM GAS  C:\Users\DNIEL~1\AppData\Local\Temp\cchvvOwG.s 			page 25


 1336      0A00
 1337 008e 0000     		.space	2
 1338              	.LC9:
 1339 0090 72706D00 		.ascii	"rpm\000"
 1340              	.LC10:
 1341 0094 54686973 		.ascii	"This not good K_P!\015\012\000"
 1341      206E6F74 
 1341      20676F6F 
 1341      64204B5F 
 1341      50210D0A 
 1342 00a9 000000   		.space	3
 1343              	.LC11:
 1344 00ac 54686973 		.ascii	"This not good K_I!\015\012\000"
 1344      206E6F74 
 1344      20676F6F 
 1344      64204B5F 
 1344      49210D0A 
 1345 00c1 000000   		.space	3
 1346              	.LC12:
 1347 00c4 54686973 		.ascii	"This not good K_D!\015\012\000"
 1347      206E6F74 
 1347      20676F6F 
 1347      64204B5F 
 1347      44210D0A 
 1348 00d9 000000   		.space	3
 1349              	.LC13:
 1350 00dc 6F6E00   		.ascii	"on\000"
 1351 00df 00       		.space	1
 1352              	.LC14:
 1353 00e0 43727569 		.ascii	"Cruise control switch ON!\015\012\000"
 1353      73652063 
 1353      6F6E7472 
 1353      6F6C2073 
 1353      77697463 
 1354              	.LC15:
 1355 00fc 43727569 		.ascii	"Cruise control switch OFF!\015\012\000"
 1355      73652063 
 1355      6F6E7472 
 1355      6F6C2073 
 1355      77697463 
 1356 0119 000000   		.space	3
 1357              	.LC16:
 1358 011c 4B5F503A 		.ascii	"K_P: %15d\015\012\000"
 1358      20253135 
 1358      640D0A00 
 1359              	.LC17:
 1360 0128 4B5F493A 		.ascii	"K_I: %15d\015\012\000"
 1360      20253135 
 1360      640D0A00 
 1361              	.LC18:
 1362 0134 4B5F443A 		.ascii	"K_D: %15d\015\012\000"
 1362      20253135 
 1362      640D0A00 
 1363              	.LC19:
 1364 0140 54686973 		.ascii	"This not good command!\015\012\000"
 1364      206E6F74 
 1364      20676F6F 
ARM GAS  C:\Users\DNIEL~1\AppData\Local\Temp\cchvvOwG.s 			page 26


 1364      6420636F 
 1364      6D6D616E 
 1365 0159 000000   		.space	3
 1366              	.LC20:
 1367 015c 4B5F5000 		.ascii	"K_P\000"
 1368              	.LC21:
 1369 0160 4B5F4900 		.ascii	"K_I\000"
 1370              	.LC22:
 1371 0164 4B5F4400 		.ascii	"K_D\000"
 1372              	.LC23:
 1373 0168 6F666600 		.ascii	"off\000"
 1374              	.LC24:
 1375 016c 55736167 		.ascii	"Usage: cruise on\015\012\000"
 1375      653A2063 
 1375      72756973 
 1375      65206F6E 
 1375      0D0A00
 1376 017f 00       		.space	1
 1377              	.LC25:
 1378 0180 20202020 		.ascii	"       cruise off\015\012\000"
 1378      20202063 
 1378      72756973 
 1378      65206F66 
 1378      660D0A00 
 1379              		.section	.bss.pwm,"aw",%nobits
 1380              		.align	2
 1381              		.set	.LANCHOR0,. + 0
 1382              		.type	pwm, %object
 1383              		.size	pwm, 4
 1384              	pwm:
 1385 0000 00000000 		.space	4
 1386              		.section	.data.cruise_pwmcfg,"aw",%progbits
 1387              		.align	2
 1388              		.set	.LANCHOR8,. + 0
 1389              		.type	cruise_pwmcfg, %object
 1390              		.size	cruise_pwmcfg, 52
 1391              	cruise_pwmcfg:
 1392 0000 80969800 		.word	10000000
 1393 0004 1027     		.short	10000
 1394 0006 0000     		.space	2
 1395 0008 00000000 		.word	0
 1396 000c 00000000 		.word	0
 1397 0010 00000000 		.word	0
 1398 0014 00000000 		.word	0
 1399 0018 00000000 		.word	0
 1400 001c 01000000 		.word	1
 1401 0020 00000000 		.word	0
 1402 0024 00000000 		.word	0
 1403 0028 00000000 		.word	0
 1404 002c 00000000 		.word	0
 1405 0030 00000000 		.word	0
 1406              		.section	.data.K_P,"aw",%progbits
 1407              		.align	1
 1408              		.set	.LANCHOR9,. + 0
 1409              		.type	K_P, %object
 1410              		.size	K_P, 2
 1411              	K_P:
ARM GAS  C:\Users\DNIEL~1\AppData\Local\Temp\cchvvOwG.s 			page 27


 1412 0000 0500     		.short	5
 1413              		.section	.bss.cruise_on,"aw",%nobits
 1414              		.set	.LANCHOR1,. + 0
 1415              		.type	cruise_on, %object
 1416              		.size	cruise_on, 1
 1417              	cruise_on:
 1418 0000 00       		.space	1
 1419              		.section	.bss.D,"aw",%nobits
 1420              		.align	3
 1421              		.set	.LANCHOR4,. + 0
 1422              		.type	D, %object
 1423              		.size	D, 8
 1424              	D:
 1425 0000 00000000 		.space	8
 1425      00000000 
 1426              		.section	.bss.e,"aw",%nobits
 1427              		.align	3
 1428              		.set	.LANCHOR6,. + 0
 1429              		.type	e, %object
 1430              		.size	e, 8
 1431              	e:
 1432 0000 00000000 		.space	8
 1432      00000000 
 1433              		.section	.bss.eelozo,"aw",%nobits
 1434              		.align	3
 1435              		.set	.LANCHOR5,. + 0
 1436              		.type	eelozo, %object
 1437              		.size	eelozo, 8
 1438              	eelozo:
 1439 0000 00000000 		.space	8
 1439      00000000 
 1440              		.section	.bss.I,"aw",%nobits
 1441              		.align	3
 1442              		.set	.LANCHOR3,. + 0
 1443              		.type	I, %object
 1444              		.size	I, 8
 1445              	I:
 1446 0000 00000000 		.space	8
 1446      00000000 
 1447              		.text
 1448              	.Letext0:
 1449              		.section	.debug_loc,"",%progbits
 1450              	.Ldebug_loc0:
 1451              	.LLST0:
 1452 0000 00000000 		.4byte	.LFB118
 1453 0004 02000000 		.4byte	.LCFI0
 1454 0008 0200     		.2byte	0x2
 1455 000a 7D       		.byte	0x7d
 1456 000b 00       		.sleb128 0
 1457 000c 02000000 		.4byte	.LCFI0
 1458 0010 04000000 		.4byte	.LCFI1
 1459 0014 0200     		.2byte	0x2
 1460 0016 7D       		.byte	0x7d
 1461 0017 0C       		.sleb128 12
 1462 0018 04000000 		.4byte	.LCFI1
 1463 001c 06000000 		.4byte	.LCFI2
 1464 0020 0200     		.2byte	0x2
ARM GAS  C:\Users\DNIEL~1\AppData\Local\Temp\cchvvOwG.s 			page 28


 1465 0022 7D       		.byte	0x7d
 1466 0023 10       		.sleb128 16
 1467 0024 06000000 		.4byte	.LCFI2
 1468 0028 1E000000 		.4byte	.LFE118
 1469 002c 0200     		.2byte	0x2
 1470 002e 7D       		.byte	0x7d
 1471 002f 18       		.sleb128 24
 1472 0030 00000000 		.4byte	0x0
 1473 0034 00000000 		.4byte	0x0
 1474              	.LLST1:
 1475 0038 00000000 		.4byte	.LVL0
 1476 003c 13000000 		.4byte	.LVL1-1
 1477 0040 0100     		.2byte	0x1
 1478 0042 50       		.byte	0x50
 1479 0043 00000000 		.4byte	0x0
 1480 0047 00000000 		.4byte	0x0
 1481              	.LLST2:
 1482 004b 00000000 		.4byte	.LFB119
 1483 004f 02000000 		.4byte	.LCFI3
 1484 0053 0200     		.2byte	0x2
 1485 0055 7D       		.byte	0x7d
 1486 0056 00       		.sleb128 0
 1487 0057 02000000 		.4byte	.LCFI3
 1488 005b 78000000 		.4byte	.LFE119
 1489 005f 0200     		.2byte	0x2
 1490 0061 7D       		.byte	0x7d
 1491 0062 10       		.sleb128 16
 1492 0063 00000000 		.4byte	0x0
 1493 0067 00000000 		.4byte	0x0
 1494              	.LLST3:
 1495 006b 00000000 		.4byte	.LFB124
 1496 006f 02000000 		.4byte	.LCFI4
 1497 0073 0200     		.2byte	0x2
 1498 0075 7D       		.byte	0x7d
 1499 0076 00       		.sleb128 0
 1500 0077 02000000 		.4byte	.LCFI4
 1501 007b 2C000000 		.4byte	.LFE124
 1502 007f 0200     		.2byte	0x2
 1503 0081 7D       		.byte	0x7d
 1504 0082 10       		.sleb128 16
 1505 0083 00000000 		.4byte	0x0
 1506 0087 00000000 		.4byte	0x0
 1507              	.LLST4:
 1508 008b 00000000 		.4byte	.LVL2
 1509 008f 0C000000 		.4byte	.LVL3
 1510 0093 0600     		.2byte	0x6
 1511 0095 50       		.byte	0x50
 1512 0096 93       		.byte	0x93
 1513 0097 04       		.uleb128 0x4
 1514 0098 51       		.byte	0x51
 1515 0099 93       		.byte	0x93
 1516 009a 04       		.uleb128 0x4
 1517 009b 00000000 		.4byte	0x0
 1518 009f 00000000 		.4byte	0x0
 1519              	.LLST5:
 1520 00a3 00000000 		.4byte	.LFB125
 1521 00a7 02000000 		.4byte	.LCFI5
ARM GAS  C:\Users\DNIEL~1\AppData\Local\Temp\cchvvOwG.s 			page 29


 1522 00ab 0200     		.2byte	0x2
 1523 00ad 7D       		.byte	0x7d
 1524 00ae 00       		.sleb128 0
 1525 00af 02000000 		.4byte	.LCFI5
 1526 00b3 2C000000 		.4byte	.LFE125
 1527 00b7 0200     		.2byte	0x2
 1528 00b9 7D       		.byte	0x7d
 1529 00ba 10       		.sleb128 16
 1530 00bb 00000000 		.4byte	0x0
 1531 00bf 00000000 		.4byte	0x0
 1532              	.LLST6:
 1533 00c3 00000000 		.4byte	.LVL4
 1534 00c7 0C000000 		.4byte	.LVL5
 1535 00cb 0600     		.2byte	0x6
 1536 00cd 50       		.byte	0x50
 1537 00ce 93       		.byte	0x93
 1538 00cf 04       		.uleb128 0x4
 1539 00d0 51       		.byte	0x51
 1540 00d1 93       		.byte	0x93
 1541 00d2 04       		.uleb128 0x4
 1542 00d3 00000000 		.4byte	0x0
 1543 00d7 00000000 		.4byte	0x0
 1544              	.LLST7:
 1545 00db 00000000 		.4byte	.LFB126
 1546 00df 02000000 		.4byte	.LCFI6
 1547 00e3 0200     		.2byte	0x2
 1548 00e5 7D       		.byte	0x7d
 1549 00e6 00       		.sleb128 0
 1550 00e7 02000000 		.4byte	.LCFI6
 1551 00eb 18000000 		.4byte	.LFE126
 1552 00ef 0200     		.2byte	0x2
 1553 00f1 7D       		.byte	0x7d
 1554 00f2 08       		.sleb128 8
 1555 00f3 00000000 		.4byte	0x0
 1556 00f7 00000000 		.4byte	0x0
 1557              	.LLST8:
 1558 00fb 00000000 		.4byte	.LFB127
 1559 00ff 04000000 		.4byte	.LCFI7
 1560 0103 0200     		.2byte	0x2
 1561 0105 7D       		.byte	0x7d
 1562 0106 00       		.sleb128 0
 1563 0107 04000000 		.4byte	.LCFI7
 1564 010b 06000000 		.4byte	.LCFI8
 1565 010f 0200     		.2byte	0x2
 1566 0111 7D       		.byte	0x7d
 1567 0112 24       		.sleb128 36
 1568 0113 06000000 		.4byte	.LCFI8
 1569 0117 74010000 		.4byte	.LFE127
 1570 011b 0200     		.2byte	0x2
 1571 011d 7D       		.byte	0x7d
 1572 011e 38       		.sleb128 56
 1573 011f 00000000 		.4byte	0x0
 1574 0123 00000000 		.4byte	0x0
 1575              	.LLST9:
 1576 0127 00000000 		.4byte	.LVL6
 1577 012b 08000000 		.4byte	.LVL7
 1578 012f 0100     		.2byte	0x1
ARM GAS  C:\Users\DNIEL~1\AppData\Local\Temp\cchvvOwG.s 			page 30


 1579 0131 50       		.byte	0x50
 1580 0132 00000000 		.4byte	0x0
 1581 0136 00000000 		.4byte	0x0
 1582              	.LLST10:
 1583 013a 00000000 		.4byte	.LVL6
 1584 013e 0F000000 		.4byte	.LVL8-1
 1585 0142 0100     		.2byte	0x1
 1586 0144 51       		.byte	0x51
 1587 0145 00000000 		.4byte	0x0
 1588 0149 00000000 		.4byte	0x0
 1589              	.LLST11:
 1590 014d 00000000 		.4byte	.LVL6
 1591 0151 0F000000 		.4byte	.LVL8-1
 1592 0155 0100     		.2byte	0x1
 1593 0157 52       		.byte	0x52
 1594 0158 0F000000 		.4byte	.LVL8-1
 1595 015c 74010000 		.4byte	.LFE127
 1596 0160 0200     		.2byte	0x2
 1597 0162 91       		.byte	0x91
 1598 0163 50       		.sleb128 -48
 1599 0164 00000000 		.4byte	0x0
 1600 0168 00000000 		.4byte	0x0
 1601              	.LLST12:
 1602 016c 00000000 		.4byte	.LVL6
 1603 0170 0F000000 		.4byte	.LVL8-1
 1604 0174 0100     		.2byte	0x1
 1605 0176 53       		.byte	0x53
 1606 0177 0F000000 		.4byte	.LVL8-1
 1607 017b 74010000 		.4byte	.LFE127
 1608 017f 0200     		.2byte	0x2
 1609 0181 91       		.byte	0x91
 1610 0182 54       		.sleb128 -44
 1611 0183 00000000 		.4byte	0x0
 1612 0187 00000000 		.4byte	0x0
 1613              	.LLST13:
 1614 018b 28010000 		.4byte	.LVL9
 1615 018f 36010000 		.4byte	.LVL10
 1616 0193 0100     		.2byte	0x1
 1617 0195 50       		.byte	0x50
 1618 0196 36010000 		.4byte	.LVL10
 1619 019a 40010000 		.4byte	.LVL11
 1620 019e 0100     		.2byte	0x1
 1621 01a0 50       		.byte	0x50
 1622 01a1 5A010000 		.4byte	.LVL12
 1623 01a5 5C010000 		.4byte	.LVL13
 1624 01a9 0100     		.2byte	0x1
 1625 01ab 50       		.byte	0x50
 1626 01ac 00000000 		.4byte	0x0
 1627 01b0 00000000 		.4byte	0x0
 1628              	.LLST14:
 1629 01b4 00000000 		.4byte	.LFB120
 1630 01b8 02000000 		.4byte	.LCFI9
 1631 01bc 0200     		.2byte	0x2
 1632 01be 7D       		.byte	0x7d
 1633 01bf 00       		.sleb128 0
 1634 01c0 02000000 		.4byte	.LCFI9
 1635 01c4 08000000 		.4byte	.LCFI10
ARM GAS  C:\Users\DNIEL~1\AppData\Local\Temp\cchvvOwG.s 			page 31


 1636 01c8 0200     		.2byte	0x2
 1637 01ca 7D       		.byte	0x7d
 1638 01cb 10       		.sleb128 16
 1639 01cc 08000000 		.4byte	.LCFI10
 1640 01d0 FC000000 		.4byte	.LFE120
 1641 01d4 0200     		.2byte	0x2
 1642 01d6 7D       		.byte	0x7d
 1643 01d7 38       		.sleb128 56
 1644 01d8 00000000 		.4byte	0x0
 1645 01dc 00000000 		.4byte	0x0
 1646              	.LLST15:
 1647 01e0 00000000 		.4byte	.LFB128
 1648 01e4 04000000 		.4byte	.LCFI11
 1649 01e8 0200     		.2byte	0x2
 1650 01ea 7D       		.byte	0x7d
 1651 01eb 00       		.sleb128 0
 1652 01ec 04000000 		.4byte	.LCFI11
 1653 01f0 FC000000 		.4byte	.LFE128
 1654 01f4 0200     		.2byte	0x2
 1655 01f6 7D       		.byte	0x7d
 1656 01f7 18       		.sleb128 24
 1657 01f8 00000000 		.4byte	0x0
 1658 01fc 00000000 		.4byte	0x0
 1659              	.LLST16:
 1660 0200 00000000 		.4byte	.LVL14
 1661 0204 11000000 		.4byte	.LVL16-1
 1662 0208 0100     		.2byte	0x1
 1663 020a 50       		.byte	0x50
 1664 020b 11000000 		.4byte	.LVL16-1
 1665 020f FC000000 		.4byte	.LFE128
 1666 0213 0100     		.2byte	0x1
 1667 0215 54       		.byte	0x54
 1668 0216 00000000 		.4byte	0x0
 1669 021a 00000000 		.4byte	0x0
 1670              	.LLST17:
 1671 021e 00000000 		.4byte	.LVL14
 1672 0222 06000000 		.4byte	.LVL15
 1673 0226 0100     		.2byte	0x1
 1674 0228 51       		.byte	0x51
 1675 0229 00000000 		.4byte	0x0
 1676 022d 00000000 		.4byte	0x0
 1677              	.LLST18:
 1678 0231 00000000 		.4byte	.LVL14
 1679 0235 11000000 		.4byte	.LVL16-1
 1680 0239 0100     		.2byte	0x1
 1681 023b 52       		.byte	0x52
 1682 023c 00000000 		.4byte	0x0
 1683 0240 00000000 		.4byte	0x0
 1684              	.LLST19:
 1685 0244 00000000 		.4byte	.LFB129
 1686 0248 04000000 		.4byte	.LCFI12
 1687 024c 0200     		.2byte	0x2
 1688 024e 7D       		.byte	0x7d
 1689 024f 00       		.sleb128 0
 1690 0250 04000000 		.4byte	.LCFI12
 1691 0254 00020000 		.4byte	.LFE129
 1692 0258 0200     		.2byte	0x2
ARM GAS  C:\Users\DNIEL~1\AppData\Local\Temp\cchvvOwG.s 			page 32


 1693 025a 7D       		.byte	0x7d
 1694 025b 18       		.sleb128 24
 1695 025c 00000000 		.4byte	0x0
 1696 0260 00000000 		.4byte	0x0
 1697              	.LLST20:
 1698 0264 00000000 		.4byte	.LVL17
 1699 0268 0F000000 		.4byte	.LVL19-1
 1700 026c 0100     		.2byte	0x1
 1701 026e 50       		.byte	0x50
 1702 026f 0F000000 		.4byte	.LVL19-1
 1703 0273 00020000 		.4byte	.LFE129
 1704 0277 0100     		.2byte	0x1
 1705 0279 54       		.byte	0x54
 1706 027a 00000000 		.4byte	0x0
 1707 027e 00000000 		.4byte	0x0
 1708              	.LLST21:
 1709 0282 00000000 		.4byte	.LVL17
 1710 0286 0A000000 		.4byte	.LVL18
 1711 028a 0100     		.2byte	0x1
 1712 028c 51       		.byte	0x51
 1713 028d 0A000000 		.4byte	.LVL18
 1714 0291 40000000 		.4byte	.LVL20
 1715 0295 0100     		.2byte	0x1
 1716 0297 55       		.byte	0x55
 1717 0298 4C000000 		.4byte	.LVL21
 1718 029c 66000000 		.4byte	.LVL22
 1719 02a0 0100     		.2byte	0x1
 1720 02a2 55       		.byte	0x55
 1721 02a3 92000000 		.4byte	.LVL24
 1722 02a7 04010000 		.4byte	.LVL25
 1723 02ab 0100     		.2byte	0x1
 1724 02ad 55       		.byte	0x55
 1725 02ae 1A010000 		.4byte	.LVL27
 1726 02b2 30010000 		.4byte	.LVL30
 1727 02b6 0100     		.2byte	0x1
 1728 02b8 55       		.byte	0x55
 1729 02b9 00000000 		.4byte	0x0
 1730 02bd 00000000 		.4byte	0x0
 1731              	.LLST22:
 1732 02c1 00000000 		.4byte	.LVL17
 1733 02c5 0F000000 		.4byte	.LVL19-1
 1734 02c9 0100     		.2byte	0x1
 1735 02cb 52       		.byte	0x52
 1736 02cc 0F000000 		.4byte	.LVL19-1
 1737 02d0 00020000 		.4byte	.LFE129
 1738 02d4 0100     		.2byte	0x1
 1739 02d6 56       		.byte	0x56
 1740 02d7 00000000 		.4byte	0x0
 1741 02db 00000000 		.4byte	0x0
 1742              	.LLST23:
 1743 02df 86000000 		.4byte	.LVL23
 1744 02e3 92000000 		.4byte	.LVL24
 1745 02e7 0100     		.2byte	0x1
 1746 02e9 55       		.byte	0x55
 1747 02ea 0C010000 		.4byte	.LVL26
 1748 02ee 1A010000 		.4byte	.LVL27
 1749 02f2 0100     		.2byte	0x1
ARM GAS  C:\Users\DNIEL~1\AppData\Local\Temp\cchvvOwG.s 			page 33


 1750 02f4 55       		.byte	0x55
 1751 02f5 20010000 		.4byte	.LVL28
 1752 02f9 28010000 		.4byte	.LVL29
 1753 02fd 0100     		.2byte	0x1
 1754 02ff 50       		.byte	0x50
 1755 0300 30010000 		.4byte	.LVL30
 1756 0304 00020000 		.4byte	.LFE129
 1757 0308 0100     		.2byte	0x1
 1758 030a 55       		.byte	0x55
 1759 030b 00000000 		.4byte	0x0
 1760 030f 00000000 		.4byte	0x0
 1761              	.LLST24:
 1762 0313 00000000 		.4byte	.LFB130
 1763 0317 04000000 		.4byte	.LCFI13
 1764 031b 0200     		.2byte	0x2
 1765 031d 7D       		.byte	0x7d
 1766 031e 00       		.sleb128 0
 1767 031f 04000000 		.4byte	.LCFI13
 1768 0323 9C000000 		.4byte	.LFE130
 1769 0327 0200     		.2byte	0x2
 1770 0329 7D       		.byte	0x7d
 1771 032a 18       		.sleb128 24
 1772 032b 00000000 		.4byte	0x0
 1773 032f 00000000 		.4byte	0x0
 1774              	.LLST25:
 1775 0333 00000000 		.4byte	.LVL31
 1776 0337 0F000000 		.4byte	.LVL33-1
 1777 033b 0100     		.2byte	0x1
 1778 033d 50       		.byte	0x50
 1779 033e 0F000000 		.4byte	.LVL33-1
 1780 0342 9C000000 		.4byte	.LFE130
 1781 0346 0100     		.2byte	0x1
 1782 0348 54       		.byte	0x54
 1783 0349 00000000 		.4byte	0x0
 1784 034d 00000000 		.4byte	0x0
 1785              	.LLST26:
 1786 0351 00000000 		.4byte	.LVL31
 1787 0355 0A000000 		.4byte	.LVL32
 1788 0359 0100     		.2byte	0x1
 1789 035b 51       		.byte	0x51
 1790 035c 0A000000 		.4byte	.LVL32
 1791 0360 9C000000 		.4byte	.LFE130
 1792 0364 0100     		.2byte	0x1
 1793 0366 55       		.byte	0x55
 1794 0367 00000000 		.4byte	0x0
 1795 036b 00000000 		.4byte	0x0
 1796              	.LLST27:
 1797 036f 00000000 		.4byte	.LVL31
 1798 0373 0F000000 		.4byte	.LVL33-1
 1799 0377 0100     		.2byte	0x1
 1800 0379 52       		.byte	0x52
 1801 037a 0F000000 		.4byte	.LVL33-1
 1802 037e 9C000000 		.4byte	.LFE130
 1803 0382 0100     		.2byte	0x1
 1804 0384 56       		.byte	0x56
 1805 0385 00000000 		.4byte	0x0
 1806 0389 00000000 		.4byte	0x0
ARM GAS  C:\Users\DNIEL~1\AppData\Local\Temp\cchvvOwG.s 			page 34


 1807              		.file 3 "c:\\program files (x86)\\codesourcery\\sourcery g++ lite\\bin\\../lib/gcc/arm-none-eabi/4
 1808              		.file 4 "c:\\program files (x86)\\codesourcery\\sourcery g++ lite\\bin\\../lib/gcc/arm-none-eabi/4
 1809              		.file 5 "../../../ChibiOS/os/ports/GCC/ARMCMx/chtypes.h"
 1810              		.file 6 "../../../ChibiOS/os/kernel/include/chstreams.h"
 1811              		.file 7 "../../../ChibiOS/os/hal/include/io_channel.h"
 1812              		.file 8 "../../../ChibiOS/os/hal/platforms/STM32/TIMv1/stm32_tim.h"
 1813              		.file 9 "../../../ChibiOS/os/hal/include/pwm.h"
 1814              		.file 10 "../../../ChibiOS/os/hal/platforms/STM32/TIMv1/pwm_lld.h"
 1815              		.file 11 "c:\\program files (x86)\\codesourcery\\sourcery g++ lite\\bin\\../lib/gcc/arm-none-eabi/
 1816              		.file 12 "<built-in>"
 1817              		.file 13 "../../../ChibiOS/os/ports/common/ARMCMx/CMSIS/include/core_cm4.h"
 1818              		.section	.debug_info
 1819 0000 ED0A0000 		.4byte	0xaed
 1820 0004 0200     		.2byte	0x2
 1821 0006 00000000 		.4byte	.Ldebug_abbrev0
 1822 000a 04       		.byte	0x4
 1823 000b 01       		.uleb128 0x1
 1824 000c 85030000 		.4byte	.LASF95
 1825 0010 01       		.byte	0x1
 1826 0011 55020000 		.4byte	.LASF96
 1827 0015 C1000000 		.4byte	.LASF97
 1828 0019 00000000 		.4byte	0x0
 1829 001d 00000000 		.4byte	0x0
 1830 0021 60000000 		.4byte	.Ldebug_ranges0+0x60
 1831 0025 00000000 		.4byte	.Ldebug_line0
 1832 0029 02       		.uleb128 0x2
 1833 002a 01       		.byte	0x1
 1834 002b 06       		.byte	0x6
 1835 002c A2000000 		.4byte	.LASF0
 1836 0030 02       		.uleb128 0x2
 1837 0031 01       		.byte	0x1
 1838 0032 08       		.byte	0x8
 1839 0033 84020000 		.4byte	.LASF1
 1840 0037 02       		.uleb128 0x2
 1841 0038 02       		.byte	0x2
 1842 0039 05       		.byte	0x5
 1843 003a A2020000 		.4byte	.LASF2
 1844 003e 02       		.uleb128 0x2
 1845 003f 02       		.byte	0x2
 1846 0040 07       		.byte	0x7
 1847 0041 BA010000 		.4byte	.LASF3
 1848 0045 03       		.uleb128 0x3
 1849 0046 04       		.byte	0x4
 1850 0047 05       		.byte	0x5
 1851 0048 696E7400 		.ascii	"int\000"
 1852 004c 02       		.uleb128 0x2
 1853 004d 04       		.byte	0x4
 1854 004e 07       		.byte	0x7
 1855 004f 59010000 		.4byte	.LASF4
 1856 0053 02       		.uleb128 0x2
 1857 0054 08       		.byte	0x8
 1858 0055 05       		.byte	0x5
 1859 0056 94000000 		.4byte	.LASF5
 1860 005a 02       		.uleb128 0x2
 1861 005b 08       		.byte	0x8
 1862 005c 07       		.byte	0x7
 1863 005d 2F000000 		.4byte	.LASF6
ARM GAS  C:\Users\DNIEL~1\AppData\Local\Temp\cchvvOwG.s 			page 35


 1864 0061 02       		.uleb128 0x2
 1865 0062 04       		.byte	0x4
 1866 0063 05       		.byte	0x5
 1867 0064 03010000 		.4byte	.LASF7
 1868 0068 04       		.uleb128 0x4
 1869 0069 04       		.byte	0x4
 1870 006a 02       		.uleb128 0x2
 1871 006b 04       		.byte	0x4
 1872 006c 07       		.byte	0x7
 1873 006d 70010000 		.4byte	.LASF8
 1874 0071 05       		.uleb128 0x5
 1875 0072 04       		.byte	0x4
 1876 0073 77000000 		.4byte	0x77
 1877 0077 02       		.uleb128 0x2
 1878 0078 01       		.byte	0x1
 1879 0079 08       		.byte	0x8
 1880 007a 01030000 		.4byte	.LASF9
 1881 007e 05       		.uleb128 0x5
 1882 007f 04       		.byte	0x4
 1883 0080 84000000 		.4byte	0x84
 1884 0084 06       		.uleb128 0x6
 1885 0085 77000000 		.4byte	0x77
 1886 0089 07       		.uleb128 0x7
 1887 008a 05000000 		.4byte	.LASF10
 1888 008e 03       		.byte	0x3
 1889 008f D3       		.byte	0xd3
 1890 0090 4C000000 		.4byte	0x4c
 1891 0094 07       		.uleb128 0x7
 1892 0095 4E030000 		.4byte	.LASF11
 1893 0099 04       		.byte	0x4
 1894 009a 2A       		.byte	0x2a
 1895 009b 30000000 		.4byte	0x30
 1896 009f 07       		.uleb128 0x7
 1897 00a0 86000000 		.4byte	.LASF12
 1898 00a4 04       		.byte	0x4
 1899 00a5 35       		.byte	0x35
 1900 00a6 37000000 		.4byte	0x37
 1901 00aa 07       		.uleb128 0x7
 1902 00ab 20010000 		.4byte	.LASF13
 1903 00af 04       		.byte	0x4
 1904 00b0 36       		.byte	0x36
 1905 00b1 3E000000 		.4byte	0x3e
 1906 00b5 07       		.uleb128 0x7
 1907 00b6 7C020000 		.4byte	.LASF14
 1908 00ba 04       		.byte	0x4
 1909 00bb 4F       		.byte	0x4f
 1910 00bc 61000000 		.4byte	0x61
 1911 00c0 07       		.uleb128 0x7
 1912 00c1 D5020000 		.4byte	.LASF15
 1913 00c5 04       		.byte	0x4
 1914 00c6 50       		.byte	0x50
 1915 00c7 6A000000 		.4byte	0x6a
 1916 00cb 07       		.uleb128 0x7
 1917 00cc BA000000 		.4byte	.LASF16
 1918 00d0 05       		.byte	0x5
 1919 00d1 2B       		.byte	0x2b
 1920 00d2 D6000000 		.4byte	0xd6
ARM GAS  C:\Users\DNIEL~1\AppData\Local\Temp\cchvvOwG.s 			page 36


 1921 00d6 02       		.uleb128 0x2
 1922 00d7 01       		.byte	0x1
 1923 00d8 02       		.byte	0x2
 1924 00d9 76020000 		.4byte	.LASF17
 1925 00dd 07       		.uleb128 0x7
 1926 00de E6010000 		.4byte	.LASF18
 1927 00e2 05       		.byte	0x5
 1928 00e3 31       		.byte	0x31
 1929 00e4 B5000000 		.4byte	0xb5
 1930 00e8 07       		.uleb128 0x7
 1931 00e9 1C030000 		.4byte	.LASF19
 1932 00ed 05       		.byte	0x5
 1933 00ee 35       		.byte	0x35
 1934 00ef C0000000 		.4byte	0xc0
 1935 00f3 08       		.uleb128 0x8
 1936 00f4 C0000000 		.4byte	0xc0
 1937 00f8 05       		.uleb128 0x5
 1938 00f9 04       		.byte	0x4
 1939 00fa FE000000 		.4byte	0xfe
 1940 00fe 09       		.uleb128 0x9
 1941 00ff 01       		.byte	0x1
 1942 0100 DD000000 		.4byte	0xdd
 1943 0104 0E010000 		.4byte	0x10e
 1944 0108 0A       		.uleb128 0xa
 1945 0109 68000000 		.4byte	0x68
 1946 010d 00       		.byte	0x0
 1947 010e 05       		.uleb128 0x5
 1948 010f 04       		.byte	0x4
 1949 0110 94000000 		.4byte	0x94
 1950 0114 0B       		.uleb128 0xb
 1951 0115 AC020000 		.4byte	.LASF23
 1952 0119 10       		.byte	0x10
 1953 011a 06       		.byte	0x6
 1954 011b 48       		.byte	0x48
 1955 011c 59010000 		.4byte	0x159
 1956 0120 0C       		.uleb128 0xc
 1957 0121 1C020000 		.4byte	.LASF20
 1958 0125 06       		.byte	0x6
 1959 0126 49       		.byte	0x49
 1960 0127 7E010000 		.4byte	0x17e
 1961 012b 02       		.byte	0x2
 1962 012c 23       		.byte	0x23
 1963 012d 00       		.uleb128 0x0
 1964 012e 0C       		.uleb128 0xc
 1965 012f 80030000 		.4byte	.LASF21
 1966 0133 06       		.byte	0x6
 1967 0134 49       		.byte	0x49
 1968 0135 9E010000 		.4byte	0x19e
 1969 0139 02       		.byte	0x2
 1970 013a 23       		.byte	0x23
 1971 013b 04       		.uleb128 0x4
 1972 013c 0D       		.uleb128 0xd
 1973 013d 70757400 		.ascii	"put\000"
 1974 0141 06       		.byte	0x6
 1975 0142 49       		.byte	0x49
 1976 0143 B9010000 		.4byte	0x1b9
 1977 0147 02       		.byte	0x2
ARM GAS  C:\Users\DNIEL~1\AppData\Local\Temp\cchvvOwG.s 			page 37


 1978 0148 23       		.byte	0x23
 1979 0149 08       		.uleb128 0x8
 1980 014a 0D       		.uleb128 0xd
 1981 014b 67657400 		.ascii	"get\000"
 1982 014f 06       		.byte	0x6
 1983 0150 49       		.byte	0x49
 1984 0151 F8000000 		.4byte	0xf8
 1985 0155 02       		.byte	0x2
 1986 0156 23       		.byte	0x23
 1987 0157 0C       		.uleb128 0xc
 1988 0158 00       		.byte	0x0
 1989 0159 09       		.uleb128 0x9
 1990 015a 01       		.byte	0x1
 1991 015b 89000000 		.4byte	0x89
 1992 015f 73010000 		.4byte	0x173
 1993 0163 0A       		.uleb128 0xa
 1994 0164 68000000 		.4byte	0x68
 1995 0168 0A       		.uleb128 0xa
 1996 0169 73010000 		.4byte	0x173
 1997 016d 0A       		.uleb128 0xa
 1998 016e 89000000 		.4byte	0x89
 1999 0172 00       		.byte	0x0
 2000 0173 05       		.uleb128 0x5
 2001 0174 04       		.byte	0x4
 2002 0175 79010000 		.4byte	0x179
 2003 0179 06       		.uleb128 0x6
 2004 017a 94000000 		.4byte	0x94
 2005 017e 05       		.uleb128 0x5
 2006 017f 04       		.byte	0x4
 2007 0180 59010000 		.4byte	0x159
 2008 0184 09       		.uleb128 0x9
 2009 0185 01       		.byte	0x1
 2010 0186 89000000 		.4byte	0x89
 2011 018a 9E010000 		.4byte	0x19e
 2012 018e 0A       		.uleb128 0xa
 2013 018f 68000000 		.4byte	0x68
 2014 0193 0A       		.uleb128 0xa
 2015 0194 0E010000 		.4byte	0x10e
 2016 0198 0A       		.uleb128 0xa
 2017 0199 89000000 		.4byte	0x89
 2018 019d 00       		.byte	0x0
 2019 019e 05       		.uleb128 0x5
 2020 019f 04       		.byte	0x4
 2021 01a0 84010000 		.4byte	0x184
 2022 01a4 09       		.uleb128 0x9
 2023 01a5 01       		.byte	0x1
 2024 01a6 DD000000 		.4byte	0xdd
 2025 01aa B9010000 		.4byte	0x1b9
 2026 01ae 0A       		.uleb128 0xa
 2027 01af 68000000 		.4byte	0x68
 2028 01b3 0A       		.uleb128 0xa
 2029 01b4 94000000 		.4byte	0x94
 2030 01b8 00       		.byte	0x0
 2031 01b9 05       		.uleb128 0x5
 2032 01ba 04       		.byte	0x4
 2033 01bb A4010000 		.4byte	0x1a4
 2034 01bf 0E       		.uleb128 0xe
ARM GAS  C:\Users\DNIEL~1\AppData\Local\Temp\cchvvOwG.s 			page 38


 2035 01c0 04       		.byte	0x4
 2036 01c1 06       		.byte	0x6
 2037 01c2 51       		.byte	0x51
 2038 01c3 D6010000 		.4byte	0x1d6
 2039 01c7 0D       		.uleb128 0xd
 2040 01c8 766D7400 		.ascii	"vmt\000"
 2041 01cc 06       		.byte	0x6
 2042 01cd 53       		.byte	0x53
 2043 01ce D6010000 		.4byte	0x1d6
 2044 01d2 02       		.byte	0x2
 2045 01d3 23       		.byte	0x23
 2046 01d4 00       		.uleb128 0x0
 2047 01d5 00       		.byte	0x0
 2048 01d6 05       		.uleb128 0x5
 2049 01d7 04       		.byte	0x4
 2050 01d8 DC010000 		.4byte	0x1dc
 2051 01dc 06       		.uleb128 0x6
 2052 01dd 14010000 		.4byte	0x114
 2053 01e1 07       		.uleb128 0x7
 2054 01e2 44010000 		.4byte	.LASF22
 2055 01e6 06       		.byte	0x6
 2056 01e7 55       		.byte	0x55
 2057 01e8 BF010000 		.4byte	0x1bf
 2058 01ec 0F       		.uleb128 0xf
 2059 01ed C0000000 		.4byte	0xc0
 2060 01f1 FC010000 		.4byte	0x1fc
 2061 01f5 10       		.uleb128 0x10
 2062 01f6 4C000000 		.4byte	0x4c
 2063 01fa 03       		.byte	0x3
 2064 01fb 00       		.byte	0x0
 2065 01fc 08       		.uleb128 0x8
 2066 01fd B5000000 		.4byte	0xb5
 2067 0201 0B       		.uleb128 0xb
 2068 0202 46000000 		.4byte	.LASF24
 2069 0206 20       		.byte	0x20
 2070 0207 07       		.byte	0x7
 2071 0208 4E       		.byte	0x4e
 2072 0209 7E020000 		.4byte	0x27e
 2073 020d 0C       		.uleb128 0xc
 2074 020e 1C020000 		.4byte	.LASF20
 2075 0212 07       		.byte	0x7
 2076 0213 4F       		.byte	0x4f
 2077 0214 7E010000 		.4byte	0x17e
 2078 0218 02       		.byte	0x2
 2079 0219 23       		.byte	0x23
 2080 021a 00       		.uleb128 0x0
 2081 021b 0C       		.uleb128 0xc
 2082 021c 80030000 		.4byte	.LASF21
 2083 0220 07       		.byte	0x7
 2084 0221 4F       		.byte	0x4f
 2085 0222 9E010000 		.4byte	0x19e
 2086 0226 02       		.byte	0x2
 2087 0227 23       		.byte	0x23
 2088 0228 04       		.uleb128 0x4
 2089 0229 0D       		.uleb128 0xd
 2090 022a 70757400 		.ascii	"put\000"
 2091 022e 07       		.byte	0x7
ARM GAS  C:\Users\DNIEL~1\AppData\Local\Temp\cchvvOwG.s 			page 39


 2092 022f 4F       		.byte	0x4f
 2093 0230 B9010000 		.4byte	0x1b9
 2094 0234 02       		.byte	0x2
 2095 0235 23       		.byte	0x23
 2096 0236 08       		.uleb128 0x8
 2097 0237 0D       		.uleb128 0xd
 2098 0238 67657400 		.ascii	"get\000"
 2099 023c 07       		.byte	0x7
 2100 023d 4F       		.byte	0x4f
 2101 023e F8000000 		.4byte	0xf8
 2102 0242 02       		.byte	0x2
 2103 0243 23       		.byte	0x23
 2104 0244 0C       		.uleb128 0xc
 2105 0245 0C       		.uleb128 0xc
 2106 0246 22020000 		.4byte	.LASF25
 2107 024a 07       		.byte	0x7
 2108 024b 4F       		.byte	0x4f
 2109 024c 98020000 		.4byte	0x298
 2110 0250 02       		.byte	0x2
 2111 0251 23       		.byte	0x23
 2112 0252 10       		.uleb128 0x10
 2113 0253 0C       		.uleb128 0xc
 2114 0254 0C010000 		.4byte	.LASF26
 2115 0258 07       		.byte	0x7
 2116 0259 4F       		.byte	0x4f
 2117 025a B3020000 		.4byte	0x2b3
 2118 025e 02       		.byte	0x2
 2119 025f 23       		.byte	0x23
 2120 0260 14       		.uleb128 0x14
 2121 0261 0C       		.uleb128 0xc
 2122 0262 FB010000 		.4byte	.LASF27
 2123 0266 07       		.byte	0x7
 2124 0267 4F       		.byte	0x4f
 2125 0268 D8020000 		.4byte	0x2d8
 2126 026c 02       		.byte	0x2
 2127 026d 23       		.byte	0x23
 2128 026e 18       		.uleb128 0x18
 2129 026f 0C       		.uleb128 0xc
 2130 0270 80000000 		.4byte	.LASF28
 2131 0274 07       		.byte	0x7
 2132 0275 4F       		.byte	0x4f
 2133 0276 FD020000 		.4byte	0x2fd
 2134 027a 02       		.byte	0x2
 2135 027b 23       		.byte	0x23
 2136 027c 1C       		.uleb128 0x1c
 2137 027d 00       		.byte	0x0
 2138 027e 09       		.uleb128 0x9
 2139 027f 01       		.byte	0x1
 2140 0280 DD000000 		.4byte	0xdd
 2141 0284 98020000 		.4byte	0x298
 2142 0288 0A       		.uleb128 0xa
 2143 0289 68000000 		.4byte	0x68
 2144 028d 0A       		.uleb128 0xa
 2145 028e 94000000 		.4byte	0x94
 2146 0292 0A       		.uleb128 0xa
 2147 0293 E8000000 		.4byte	0xe8
 2148 0297 00       		.byte	0x0
ARM GAS  C:\Users\DNIEL~1\AppData\Local\Temp\cchvvOwG.s 			page 40


 2149 0298 05       		.uleb128 0x5
 2150 0299 04       		.byte	0x4
 2151 029a 7E020000 		.4byte	0x27e
 2152 029e 09       		.uleb128 0x9
 2153 029f 01       		.byte	0x1
 2154 02a0 DD000000 		.4byte	0xdd
 2155 02a4 B3020000 		.4byte	0x2b3
 2156 02a8 0A       		.uleb128 0xa
 2157 02a9 68000000 		.4byte	0x68
 2158 02ad 0A       		.uleb128 0xa
 2159 02ae E8000000 		.4byte	0xe8
 2160 02b2 00       		.byte	0x0
 2161 02b3 05       		.uleb128 0x5
 2162 02b4 04       		.byte	0x4
 2163 02b5 9E020000 		.4byte	0x29e
 2164 02b9 09       		.uleb128 0x9
 2165 02ba 01       		.byte	0x1
 2166 02bb 89000000 		.4byte	0x89
 2167 02bf D8020000 		.4byte	0x2d8
 2168 02c3 0A       		.uleb128 0xa
 2169 02c4 68000000 		.4byte	0x68
 2170 02c8 0A       		.uleb128 0xa
 2171 02c9 73010000 		.4byte	0x173
 2172 02cd 0A       		.uleb128 0xa
 2173 02ce 89000000 		.4byte	0x89
 2174 02d2 0A       		.uleb128 0xa
 2175 02d3 E8000000 		.4byte	0xe8
 2176 02d7 00       		.byte	0x0
 2177 02d8 05       		.uleb128 0x5
 2178 02d9 04       		.byte	0x4
 2179 02da B9020000 		.4byte	0x2b9
 2180 02de 09       		.uleb128 0x9
 2181 02df 01       		.byte	0x1
 2182 02e0 89000000 		.4byte	0x89
 2183 02e4 FD020000 		.4byte	0x2fd
 2184 02e8 0A       		.uleb128 0xa
 2185 02e9 68000000 		.4byte	0x68
 2186 02ed 0A       		.uleb128 0xa
 2187 02ee 0E010000 		.4byte	0x10e
 2188 02f2 0A       		.uleb128 0xa
 2189 02f3 89000000 		.4byte	0x89
 2190 02f7 0A       		.uleb128 0xa
 2191 02f8 E8000000 		.4byte	0xe8
 2192 02fc 00       		.byte	0x0
 2193 02fd 05       		.uleb128 0x5
 2194 02fe 04       		.byte	0x4
 2195 02ff DE020000 		.4byte	0x2de
 2196 0303 0E       		.uleb128 0xe
 2197 0304 04       		.byte	0x4
 2198 0305 07       		.byte	0x7
 2199 0306 59       		.byte	0x59
 2200 0307 1A030000 		.4byte	0x31a
 2201 030b 0D       		.uleb128 0xd
 2202 030c 766D7400 		.ascii	"vmt\000"
 2203 0310 07       		.byte	0x7
 2204 0311 5B       		.byte	0x5b
 2205 0312 1A030000 		.4byte	0x31a
ARM GAS  C:\Users\DNIEL~1\AppData\Local\Temp\cchvvOwG.s 			page 41


 2206 0316 02       		.byte	0x2
 2207 0317 23       		.byte	0x23
 2208 0318 00       		.uleb128 0x0
 2209 0319 00       		.byte	0x0
 2210 031a 05       		.uleb128 0x5
 2211 031b 04       		.byte	0x4
 2212 031c 20030000 		.4byte	0x320
 2213 0320 06       		.uleb128 0x6
 2214 0321 01020000 		.4byte	0x201
 2215 0325 07       		.uleb128 0x7
 2216 0326 60030000 		.4byte	.LASF29
 2217 032a 07       		.byte	0x7
 2218 032b 5D       		.byte	0x5d
 2219 032c 03030000 		.4byte	0x303
 2220 0330 11       		.uleb128 0x11
 2221 0331 60       		.byte	0x60
 2222 0332 08       		.byte	0x8
 2223 0333 9E01     		.2byte	0x19e
 2224 0335 73040000 		.4byte	0x473
 2225 0339 12       		.uleb128 0x12
 2226 033a 43523100 		.ascii	"CR1\000"
 2227 033e 08       		.byte	0x8
 2228 033f 9F01     		.2byte	0x19f
 2229 0341 F3000000 		.4byte	0xf3
 2230 0345 02       		.byte	0x2
 2231 0346 23       		.byte	0x23
 2232 0347 00       		.uleb128 0x0
 2233 0348 12       		.uleb128 0x12
 2234 0349 43523200 		.ascii	"CR2\000"
 2235 034d 08       		.byte	0x8
 2236 034e A001     		.2byte	0x1a0
 2237 0350 F3000000 		.4byte	0xf3
 2238 0354 02       		.byte	0x2
 2239 0355 23       		.byte	0x23
 2240 0356 04       		.uleb128 0x4
 2241 0357 13       		.uleb128 0x13
 2242 0358 0B030000 		.4byte	.LASF30
 2243 035c 08       		.byte	0x8
 2244 035d A101     		.2byte	0x1a1
 2245 035f F3000000 		.4byte	0xf3
 2246 0363 02       		.byte	0x2
 2247 0364 23       		.byte	0x23
 2248 0365 08       		.uleb128 0x8
 2249 0366 13       		.uleb128 0x13
 2250 0367 00000000 		.4byte	.LASF31
 2251 036b 08       		.byte	0x8
 2252 036c A201     		.2byte	0x1a2
 2253 036e F3000000 		.4byte	0xf3
 2254 0372 02       		.byte	0x2
 2255 0373 23       		.byte	0x23
 2256 0374 0C       		.uleb128 0xc
 2257 0375 12       		.uleb128 0x12
 2258 0376 535200   		.ascii	"SR\000"
 2259 0379 08       		.byte	0x8
 2260 037a A301     		.2byte	0x1a3
 2261 037c F3000000 		.4byte	0xf3
 2262 0380 02       		.byte	0x2
ARM GAS  C:\Users\DNIEL~1\AppData\Local\Temp\cchvvOwG.s 			page 42


 2263 0381 23       		.byte	0x23
 2264 0382 10       		.uleb128 0x10
 2265 0383 12       		.uleb128 0x12
 2266 0384 45475200 		.ascii	"EGR\000"
 2267 0388 08       		.byte	0x8
 2268 0389 A401     		.2byte	0x1a4
 2269 038b F3000000 		.4byte	0xf3
 2270 038f 02       		.byte	0x2
 2271 0390 23       		.byte	0x23
 2272 0391 14       		.uleb128 0x14
 2273 0392 13       		.uleb128 0x13
 2274 0393 2B030000 		.4byte	.LASF32
 2275 0397 08       		.byte	0x8
 2276 0398 A501     		.2byte	0x1a5
 2277 039a F3000000 		.4byte	0xf3
 2278 039e 02       		.byte	0x2
 2279 039f 23       		.byte	0x23
 2280 03a0 18       		.uleb128 0x18
 2281 03a1 13       		.uleb128 0x13
 2282 03a2 8E000000 		.4byte	.LASF33
 2283 03a6 08       		.byte	0x8
 2284 03a7 A601     		.2byte	0x1a6
 2285 03a9 F3000000 		.4byte	0xf3
 2286 03ad 02       		.byte	0x2
 2287 03ae 23       		.byte	0x23
 2288 03af 1C       		.uleb128 0x1c
 2289 03b0 13       		.uleb128 0x13
 2290 03b1 1B010000 		.4byte	.LASF34
 2291 03b5 08       		.byte	0x8
 2292 03b6 A701     		.2byte	0x1a7
 2293 03b8 F3000000 		.4byte	0xf3
 2294 03bc 02       		.byte	0x2
 2295 03bd 23       		.byte	0x23
 2296 03be 20       		.uleb128 0x20
 2297 03bf 12       		.uleb128 0x12
 2298 03c0 434E5400 		.ascii	"CNT\000"
 2299 03c4 08       		.byte	0x8
 2300 03c5 A801     		.2byte	0x1a8
 2301 03c7 F3000000 		.4byte	0xf3
 2302 03cb 02       		.byte	0x2
 2303 03cc 23       		.byte	0x23
 2304 03cd 24       		.uleb128 0x24
 2305 03ce 12       		.uleb128 0x12
 2306 03cf 50534300 		.ascii	"PSC\000"
 2307 03d3 08       		.byte	0x8
 2308 03d4 A901     		.2byte	0x1a9
 2309 03d6 F3000000 		.4byte	0xf3
 2310 03da 02       		.byte	0x2
 2311 03db 23       		.byte	0x23
 2312 03dc 28       		.uleb128 0x28
 2313 03dd 12       		.uleb128 0x12
 2314 03de 41525200 		.ascii	"ARR\000"
 2315 03e2 08       		.byte	0x8
 2316 03e3 AA01     		.2byte	0x1aa
 2317 03e5 F3000000 		.4byte	0xf3
 2318 03e9 02       		.byte	0x2
 2319 03ea 23       		.byte	0x23
ARM GAS  C:\Users\DNIEL~1\AppData\Local\Temp\cchvvOwG.s 			page 43


 2320 03eb 2C       		.uleb128 0x2c
 2321 03ec 12       		.uleb128 0x12
 2322 03ed 52435200 		.ascii	"RCR\000"
 2323 03f1 08       		.byte	0x8
 2324 03f2 AB01     		.2byte	0x1ab
 2325 03f4 F3000000 		.4byte	0xf3
 2326 03f8 02       		.byte	0x2
 2327 03f9 23       		.byte	0x23
 2328 03fa 30       		.uleb128 0x30
 2329 03fb 12       		.uleb128 0x12
 2330 03fc 43435200 		.ascii	"CCR\000"
 2331 0400 08       		.byte	0x8
 2332 0401 AC01     		.2byte	0x1ac
 2333 0403 73040000 		.4byte	0x473
 2334 0407 02       		.byte	0x2
 2335 0408 23       		.byte	0x23
 2336 0409 34       		.uleb128 0x34
 2337 040a 13       		.uleb128 0x13
 2338 040b 67000000 		.4byte	.LASF35
 2339 040f 08       		.byte	0x8
 2340 0410 AD01     		.2byte	0x1ad
 2341 0412 F3000000 		.4byte	0xf3
 2342 0416 02       		.byte	0x2
 2343 0417 23       		.byte	0x23
 2344 0418 44       		.uleb128 0x44
 2345 0419 12       		.uleb128 0x12
 2346 041a 44435200 		.ascii	"DCR\000"
 2347 041e 08       		.byte	0x8
 2348 041f AE01     		.2byte	0x1ae
 2349 0421 F3000000 		.4byte	0xf3
 2350 0425 02       		.byte	0x2
 2351 0426 23       		.byte	0x23
 2352 0427 48       		.uleb128 0x48
 2353 0428 13       		.uleb128 0x13
 2354 0429 17030000 		.4byte	.LASF36
 2355 042d 08       		.byte	0x8
 2356 042e AF01     		.2byte	0x1af
 2357 0430 F3000000 		.4byte	0xf3
 2358 0434 02       		.byte	0x2
 2359 0435 23       		.byte	0x23
 2360 0436 4C       		.uleb128 0x4c
 2361 0437 12       		.uleb128 0x12
 2362 0438 4F5200   		.ascii	"OR\000"
 2363 043b 08       		.byte	0x8
 2364 043c B001     		.2byte	0x1b0
 2365 043e F3000000 		.4byte	0xf3
 2366 0442 02       		.byte	0x2
 2367 0443 23       		.byte	0x23
 2368 0444 50       		.uleb128 0x50
 2369 0445 13       		.uleb128 0x13
 2370 0446 22000000 		.4byte	.LASF37
 2371 044a 08       		.byte	0x8
 2372 044b B101     		.2byte	0x1b1
 2373 044d F3000000 		.4byte	0xf3
 2374 0451 02       		.byte	0x2
 2375 0452 23       		.byte	0x23
 2376 0453 54       		.uleb128 0x54
ARM GAS  C:\Users\DNIEL~1\AppData\Local\Temp\cchvvOwG.s 			page 44


 2377 0454 13       		.uleb128 0x13
 2378 0455 42030000 		.4byte	.LASF38
 2379 0459 08       		.byte	0x8
 2380 045a B201     		.2byte	0x1b2
 2381 045c F3000000 		.4byte	0xf3
 2382 0460 02       		.byte	0x2
 2383 0461 23       		.byte	0x23
 2384 0462 58       		.uleb128 0x58
 2385 0463 13       		.uleb128 0x13
 2386 0464 55000000 		.4byte	.LASF39
 2387 0468 08       		.byte	0x8
 2388 0469 B301     		.2byte	0x1b3
 2389 046b F3000000 		.4byte	0xf3
 2390 046f 02       		.byte	0x2
 2391 0470 23       		.byte	0x23
 2392 0471 5C       		.uleb128 0x5c
 2393 0472 00       		.byte	0x0
 2394 0473 08       		.uleb128 0x8
 2395 0474 EC010000 		.4byte	0x1ec
 2396 0478 14       		.uleb128 0x14
 2397 0479 AE000000 		.4byte	.LASF40
 2398 047d 08       		.byte	0x8
 2399 047e B401     		.2byte	0x1b4
 2400 0480 30030000 		.4byte	0x330
 2401 0484 05       		.uleb128 0x5
 2402 0485 04       		.byte	0x4
 2403 0486 78040000 		.4byte	0x478
 2404 048a 15       		.uleb128 0x15
 2405 048b 01       		.byte	0x1
 2406 048c 09       		.byte	0x9
 2407 048d 55       		.byte	0x55
 2408 048e A5040000 		.4byte	0x4a5
 2409 0492 16       		.uleb128 0x16
 2410 0493 B8030000 		.4byte	.LASF41
 2411 0497 00       		.sleb128 0
 2412 0498 16       		.uleb128 0x16
 2413 0499 F8020000 		.4byte	.LASF42
 2414 049d 01       		.sleb128 1
 2415 049e 16       		.uleb128 0x16
 2416 049f 76000000 		.4byte	.LASF43
 2417 04a3 02       		.sleb128 2
 2418 04a4 00       		.byte	0x0
 2419 04a5 07       		.uleb128 0x7
 2420 04a6 6C030000 		.4byte	.LASF44
 2421 04aa 09       		.byte	0x9
 2422 04ab 59       		.byte	0x59
 2423 04ac 8A040000 		.4byte	0x48a
 2424 04b0 07       		.uleb128 0x7
 2425 04b1 56030000 		.4byte	.LASF45
 2426 04b5 09       		.byte	0x9
 2427 04b6 5E       		.byte	0x5e
 2428 04b7 BB040000 		.4byte	0x4bb
 2429 04bb 17       		.uleb128 0x17
 2430 04bc 56030000 		.4byte	.LASF45
 2431 04c0 14       		.byte	0x14
 2432 04c1 0A       		.byte	0xa
 2433 04c2 6F01     		.2byte	0x16f
ARM GAS  C:\Users\DNIEL~1\AppData\Local\Temp\cchvvOwG.s 			page 45


 2434 04c4 14050000 		.4byte	0x514
 2435 04c8 13       		.uleb128 0x13
 2436 04c9 F4000000 		.4byte	.LASF46
 2437 04cd 0A       		.byte	0xa
 2438 04ce 7301     		.2byte	0x173
 2439 04d0 A5040000 		.4byte	0x4a5
 2440 04d4 02       		.byte	0x2
 2441 04d5 23       		.byte	0x23
 2442 04d6 00       		.uleb128 0x0
 2443 04d7 13       		.uleb128 0x13
 2444 04d8 10030000 		.4byte	.LASF47
 2445 04dc 0A       		.byte	0xa
 2446 04dd 7701     		.2byte	0x177
 2447 04df 03060000 		.4byte	0x603
 2448 04e3 02       		.byte	0x2
 2449 04e4 23       		.byte	0x23
 2450 04e5 04       		.uleb128 0x4
 2451 04e6 13       		.uleb128 0x13
 2452 04e7 28000000 		.4byte	.LASF48
 2453 04eb 0A       		.byte	0xa
 2454 04ec 7B01     		.2byte	0x17b
 2455 04ee 43050000 		.4byte	0x543
 2456 04f2 02       		.byte	0x2
 2457 04f3 23       		.byte	0x23
 2458 04f4 08       		.uleb128 0x8
 2459 04f5 13       		.uleb128 0x13
 2460 04f6 A3030000 		.4byte	.LASF49
 2461 04fa 0A       		.byte	0xa
 2462 04fb 8301     		.2byte	0x183
 2463 04fd C0000000 		.4byte	0xc0
 2464 0501 02       		.byte	0x2
 2465 0502 23       		.byte	0x23
 2466 0503 0C       		.uleb128 0xc
 2467 0504 12       		.uleb128 0x12
 2468 0505 74696D00 		.ascii	"tim\000"
 2469 0509 0A       		.byte	0xa
 2470 050a 8701     		.2byte	0x187
 2471 050c 84040000 		.4byte	0x484
 2472 0510 02       		.byte	0x2
 2473 0511 23       		.byte	0x23
 2474 0512 10       		.uleb128 0x10
 2475 0513 00       		.byte	0x0
 2476 0514 07       		.uleb128 0x7
 2477 0515 68020000 		.4byte	.LASF50
 2478 0519 09       		.byte	0x9
 2479 051a 65       		.byte	0x65
 2480 051b 1F050000 		.4byte	0x51f
 2481 051f 05       		.uleb128 0x5
 2482 0520 04       		.byte	0x4
 2483 0521 25050000 		.4byte	0x525
 2484 0525 18       		.uleb128 0x18
 2485 0526 01       		.byte	0x1
 2486 0527 31050000 		.4byte	0x531
 2487 052b 0A       		.uleb128 0xa
 2488 052c 31050000 		.4byte	0x531
 2489 0530 00       		.byte	0x0
 2490 0531 05       		.uleb128 0x5
ARM GAS  C:\Users\DNIEL~1\AppData\Local\Temp\cchvvOwG.s 			page 46


 2491 0532 04       		.byte	0x4
 2492 0533 B0040000 		.4byte	0x4b0
 2493 0537 14       		.uleb128 0x14
 2494 0538 A1010000 		.4byte	.LASF51
 2495 053c 0A       		.byte	0xa
 2496 053d 2001     		.2byte	0x120
 2497 053f C0000000 		.4byte	0xc0
 2498 0543 14       		.uleb128 0x14
 2499 0544 77030000 		.4byte	.LASF52
 2500 0548 0A       		.byte	0xa
 2501 0549 2A01     		.2byte	0x12a
 2502 054b AA000000 		.4byte	0xaa
 2503 054f 11       		.uleb128 0x11
 2504 0550 08       		.byte	0x8
 2505 0551 0A       		.byte	0xa
 2506 0552 2F01     		.2byte	0x12f
 2507 0554 77050000 		.4byte	0x577
 2508 0558 13       		.uleb128 0x13
 2509 0559 06030000 		.4byte	.LASF53
 2510 055d 0A       		.byte	0xa
 2511 055e 3301     		.2byte	0x133
 2512 0560 37050000 		.4byte	0x537
 2513 0564 02       		.byte	0x2
 2514 0565 23       		.byte	0x23
 2515 0566 00       		.uleb128 0x0
 2516 0567 13       		.uleb128 0x13
 2517 0568 F2010000 		.4byte	.LASF54
 2518 056c 0A       		.byte	0xa
 2519 056d 3901     		.2byte	0x139
 2520 056f 14050000 		.4byte	0x514
 2521 0573 02       		.byte	0x2
 2522 0574 23       		.byte	0x23
 2523 0575 04       		.uleb128 0x4
 2524 0576 00       		.byte	0x0
 2525 0577 14       		.uleb128 0x14
 2526 0578 31030000 		.4byte	.LASF55
 2527 057c 0A       		.byte	0xa
 2528 057d 3B01     		.2byte	0x13b
 2529 057f 4F050000 		.4byte	0x54f
 2530 0583 11       		.uleb128 0x11
 2531 0584 34       		.byte	0x34
 2532 0585 0A       		.byte	0xa
 2533 0586 4001     		.2byte	0x140
 2534 0588 E7050000 		.4byte	0x5e7
 2535 058c 13       		.uleb128 0x13
 2536 058d 6C000000 		.4byte	.LASF56
 2537 0591 0A       		.byte	0xa
 2538 0592 4601     		.2byte	0x146
 2539 0594 C0000000 		.4byte	0xc0
 2540 0598 02       		.byte	0x2
 2541 0599 23       		.byte	0x23
 2542 059a 00       		.uleb128 0x0
 2543 059b 13       		.uleb128 0x13
 2544 059c 28000000 		.4byte	.LASF48
 2545 05a0 0A       		.byte	0xa
 2546 05a1 4C01     		.2byte	0x14c
 2547 05a3 43050000 		.4byte	0x543
ARM GAS  C:\Users\DNIEL~1\AppData\Local\Temp\cchvvOwG.s 			page 47


 2548 05a7 02       		.byte	0x2
 2549 05a8 23       		.byte	0x23
 2550 05a9 04       		.uleb128 0x4
 2551 05aa 13       		.uleb128 0x13
 2552 05ab F2010000 		.4byte	.LASF54
 2553 05af 0A       		.byte	0xa
 2554 05b0 5201     		.2byte	0x152
 2555 05b2 14050000 		.4byte	0x514
 2556 05b6 02       		.byte	0x2
 2557 05b7 23       		.byte	0x23
 2558 05b8 08       		.uleb128 0x8
 2559 05b9 13       		.uleb128 0x13
 2560 05ba FA000000 		.4byte	.LASF57
 2561 05be 0A       		.byte	0xa
 2562 05bf 5601     		.2byte	0x156
 2563 05c1 E7050000 		.4byte	0x5e7
 2564 05c5 02       		.byte	0x2
 2565 05c6 23       		.byte	0x23
 2566 05c7 0C       		.uleb128 0xc
 2567 05c8 12       		.uleb128 0x12
 2568 05c9 63723200 		.ascii	"cr2\000"
 2569 05cd 0A       		.byte	0xa
 2570 05ce 5C01     		.2byte	0x15c
 2571 05d0 C0000000 		.4byte	0xc0
 2572 05d4 02       		.byte	0x2
 2573 05d5 23       		.byte	0x23
 2574 05d6 2C       		.uleb128 0x2c
 2575 05d7 13       		.uleb128 0x13
 2576 05d8 CA030000 		.4byte	.LASF58
 2577 05dc 0A       		.byte	0xa
 2578 05dd 6901     		.2byte	0x169
 2579 05df C0000000 		.4byte	0xc0
 2580 05e3 02       		.byte	0x2
 2581 05e4 23       		.byte	0x23
 2582 05e5 30       		.uleb128 0x30
 2583 05e6 00       		.byte	0x0
 2584 05e7 0F       		.uleb128 0xf
 2585 05e8 77050000 		.4byte	0x577
 2586 05ec F7050000 		.4byte	0x5f7
 2587 05f0 10       		.uleb128 0x10
 2588 05f1 4C000000 		.4byte	0x4c
 2589 05f5 03       		.byte	0x3
 2590 05f6 00       		.byte	0x0
 2591 05f7 14       		.uleb128 0x14
 2592 05f8 EE020000 		.4byte	.LASF59
 2593 05fc 0A       		.byte	0xa
 2594 05fd 6A01     		.2byte	0x16a
 2595 05ff 83050000 		.4byte	0x583
 2596 0603 05       		.uleb128 0x5
 2597 0604 04       		.byte	0x4
 2598 0605 09060000 		.4byte	0x609
 2599 0609 06       		.uleb128 0x6
 2600 060a F7050000 		.4byte	0x5f7
 2601 060e 07       		.uleb128 0x7
 2602 060f 3C020000 		.4byte	.LASF60
 2603 0613 0B       		.byte	0xb
 2604 0614 28       		.byte	0x28
ARM GAS  C:\Users\DNIEL~1\AppData\Local\Temp\cchvvOwG.s 			page 48


 2605 0615 19060000 		.4byte	0x619
 2606 0619 0B       		.uleb128 0xb
 2607 061a 11010000 		.4byte	.LASF61
 2608 061e 04       		.byte	0x4
 2609 061f 0C       		.byte	0xc
 2610 0620 00       		.byte	0x0
 2611 0621 33060000 		.4byte	0x633
 2612 0625 19       		.uleb128 0x19
 2613 0626 26030000 		.4byte	.LASF98
 2614 062a 68000000 		.4byte	0x68
 2615 062e 02       		.byte	0x2
 2616 062f 23       		.byte	0x23
 2617 0630 00       		.uleb128 0x0
 2618 0631 01       		.byte	0x1
 2619 0632 00       		.byte	0x0
 2620 0633 07       		.uleb128 0x7
 2621 0634 3C010000 		.4byte	.LASF62
 2622 0638 0B       		.byte	0xb
 2623 0639 66       		.byte	0x66
 2624 063a 0E060000 		.4byte	0x60e
 2625 063e 1A       		.uleb128 0x1a
 2626 063f 01       		.byte	0x1
 2627 0640 2F010000 		.4byte	.LASF63
 2628 0644 02       		.byte	0x2
 2629 0645 58       		.byte	0x58
 2630 0646 01       		.byte	0x1
 2631 0647 01       		.byte	0x1
 2632 0648 1A       		.uleb128 0x1a
 2633 0649 01       		.byte	0x1
 2634 064a 0E020000 		.4byte	.LASF64
 2635 064e 02       		.byte	0x2
 2636 064f 5C       		.byte	0x5c
 2637 0650 01       		.byte	0x1
 2638 0651 01       		.byte	0x1
 2639 0652 1B       		.uleb128 0x1b
 2640 0653 CF030000 		.4byte	.LASF99
 2641 0657 01       		.byte	0x1
 2642 0658 45       		.byte	0x45
 2643 0659 01       		.byte	0x1
 2644 065a 00000000 		.4byte	.LFB118
 2645 065e 1E000000 		.4byte	.LFE118
 2646 0662 00000000 		.4byte	.LLST0
 2647 0666 96060000 		.4byte	0x696
 2648 066a 1C       		.uleb128 0x1c
 2649 066b 63687000 		.ascii	"chp\000"
 2650 066f 01       		.byte	0x1
 2651 0670 45       		.byte	0x45
 2652 0671 96060000 		.4byte	0x696
 2653 0675 38000000 		.4byte	.LLST1
 2654 0679 1D       		.uleb128 0x1d
 2655 067a 666D7400 		.ascii	"fmt\000"
 2656 067e 01       		.byte	0x1
 2657 067f 45       		.byte	0x45
 2658 0680 7E000000 		.4byte	0x7e
 2659 0684 02       		.byte	0x2
 2660 0685 91       		.byte	0x91
 2661 0686 74       		.sleb128 -12
ARM GAS  C:\Users\DNIEL~1\AppData\Local\Temp\cchvvOwG.s 			page 49


 2662 0687 1E       		.uleb128 0x1e
 2663 0688 1F       		.uleb128 0x1f
 2664 0689 617000   		.ascii	"ap\000"
 2665 068c 01       		.byte	0x1
 2666 068d 46       		.byte	0x46
 2667 068e 33060000 		.4byte	0x633
 2668 0692 02       		.byte	0x2
 2669 0693 91       		.byte	0x91
 2670 0694 6C       		.sleb128 -20
 2671 0695 00       		.byte	0x0
 2672 0696 05       		.uleb128 0x5
 2673 0697 04       		.byte	0x4
 2674 0698 E1010000 		.4byte	0x1e1
 2675 069c 20       		.uleb128 0x20
 2676 069d 01       		.byte	0x1
 2677 069e 97020000 		.4byte	.LASF76
 2678 06a2 02       		.byte	0x2
 2679 06a3 32       		.byte	0x32
 2680 06a4 01       		.byte	0x1
 2681 06a5 00000000 		.4byte	.LFB119
 2682 06a9 78000000 		.4byte	.LFE119
 2683 06ad 4B000000 		.4byte	.LLST2
 2684 06b1 21       		.uleb128 0x21
 2685 06b2 3E060000 		.4byte	0x63e
 2686 06b6 00000000 		.4byte	.LFB121
 2687 06ba 0C000000 		.4byte	.LFE121
 2688 06be 02       		.byte	0x2
 2689 06bf 7D       		.byte	0x7d
 2690 06c0 00       		.sleb128 0
 2691 06c1 21       		.uleb128 0x21
 2692 06c2 48060000 		.4byte	0x648
 2693 06c6 00000000 		.4byte	.LFB122
 2694 06ca 0C000000 		.4byte	.LFE122
 2695 06ce 02       		.byte	0x2
 2696 06cf 7D       		.byte	0x7d
 2697 06d0 00       		.sleb128 0
 2698 06d1 22       		.uleb128 0x22
 2699 06d2 01       		.byte	0x1
 2700 06d3 91030000 		.4byte	.LASF68
 2701 06d7 02       		.byte	0x2
 2702 06d8 60       		.byte	0x60
 2703 06d9 01       		.byte	0x1
 2704 06da CB000000 		.4byte	0xcb
 2705 06de 00000000 		.4byte	.LFB123
 2706 06e2 0C000000 		.4byte	.LFE123
 2707 06e6 02       		.byte	0x2
 2708 06e7 7D       		.byte	0x7d
 2709 06e8 00       		.sleb128 0
 2710 06e9 23       		.uleb128 0x23
 2711 06ea 01       		.byte	0x1
 2712 06eb 2D020000 		.4byte	.LASF66
 2713 06ef 02       		.byte	0x2
 2714 06f0 64       		.byte	0x64
 2715 06f1 01       		.byte	0x1
 2716 06f2 00000000 		.4byte	.LFB124
 2717 06f6 2C000000 		.4byte	.LFE124
 2718 06fa 6B000000 		.4byte	.LLST3
ARM GAS  C:\Users\DNIEL~1\AppData\Local\Temp\cchvvOwG.s 			page 50


 2719 06fe 12070000 		.4byte	0x712
 2720 0702 1C       		.uleb128 0x1c
 2721 0703 72706D00 		.ascii	"rpm\000"
 2722 0707 02       		.byte	0x2
 2723 0708 64       		.byte	0x64
 2724 0709 12070000 		.4byte	0x712
 2725 070d 8B000000 		.4byte	.LLST4
 2726 0711 00       		.byte	0x0
 2727 0712 02       		.uleb128 0x2
 2728 0713 08       		.byte	0x8
 2729 0714 04       		.byte	0x4
 2730 0715 C3030000 		.4byte	.LASF65
 2731 0719 23       		.uleb128 0x23
 2732 071a 01       		.byte	0x1
 2733 071b DE020000 		.4byte	.LASF67
 2734 071f 02       		.byte	0x2
 2735 0720 68       		.byte	0x68
 2736 0721 01       		.byte	0x1
 2737 0722 00000000 		.4byte	.LFB125
 2738 0726 2C000000 		.4byte	.LFE125
 2739 072a A3000000 		.4byte	.LLST5
 2740 072e 42070000 		.4byte	0x742
 2741 0732 1C       		.uleb128 0x1c
 2742 0733 72706D00 		.ascii	"rpm\000"
 2743 0737 02       		.byte	0x2
 2744 0738 68       		.byte	0x68
 2745 0739 12070000 		.4byte	0x712
 2746 073d C3000000 		.4byte	.LLST6
 2747 0741 00       		.byte	0x0
 2748 0742 24       		.uleb128 0x24
 2749 0743 01       		.byte	0x1
 2750 0744 AB010000 		.4byte	.LASF69
 2751 0748 02       		.byte	0x2
 2752 0749 6D       		.byte	0x6d
 2753 074a 01       		.byte	0x1
 2754 074b 94000000 		.4byte	0x94
 2755 074f 00000000 		.4byte	.LFB126
 2756 0753 18000000 		.4byte	.LFE126
 2757 0757 DB000000 		.4byte	.LLST7
 2758 075b 25       		.uleb128 0x25
 2759 075c 01       		.byte	0x1
 2760 075d AE030000 		.4byte	.LASF100
 2761 0761 02       		.byte	0x2
 2762 0762 71       		.byte	0x71
 2763 0763 01       		.byte	0x1
 2764 0764 B5000000 		.4byte	0xb5
 2765 0768 00000000 		.4byte	.LFB127
 2766 076c 74010000 		.4byte	.LFE127
 2767 0770 FB000000 		.4byte	.LLST8
 2768 0774 13080000 		.4byte	0x813
 2769 0778 26       		.uleb128 0x26
 2770 0779 62020000 		.4byte	.LASF70
 2771 077d 02       		.byte	0x2
 2772 077e 71       		.byte	0x71
 2773 077f 9F000000 		.4byte	0x9f
 2774 0783 27010000 		.4byte	.LLST9
 2775 0787 1C       		.uleb128 0x1c
ARM GAS  C:\Users\DNIEL~1\AppData\Local\Temp\cchvvOwG.s 			page 51


 2776 0788 53657400 		.ascii	"Set\000"
 2777 078c 02       		.byte	0x2
 2778 078d 71       		.byte	0x71
 2779 078e 9F000000 		.4byte	0x9f
 2780 0792 3A010000 		.4byte	.LLST10
 2781 0796 26       		.uleb128 0x26
 2782 0797 50020000 		.4byte	.LASF71
 2783 079b 02       		.byte	0x2
 2784 079c 71       		.byte	0x71
 2785 079d B5000000 		.4byte	0xb5
 2786 07a1 4D010000 		.4byte	.LLST11
 2787 07a5 26       		.uleb128 0x26
 2788 07a6 92020000 		.4byte	.LASF72
 2789 07aa 02       		.byte	0x2
 2790 07ab 71       		.byte	0x71
 2791 07ac B5000000 		.4byte	0xb5
 2792 07b0 6C010000 		.4byte	.LLST12
 2793 07b4 1D       		.uleb128 0x1d
 2794 07b5 4B7000   		.ascii	"Kp\000"
 2795 07b8 02       		.byte	0x2
 2796 07b9 71       		.byte	0x71
 2797 07ba 12070000 		.4byte	0x712
 2798 07be 02       		.byte	0x2
 2799 07bf 91       		.byte	0x91
 2800 07c0 00       		.sleb128 0
 2801 07c1 1D       		.uleb128 0x1d
 2802 07c2 4B6900   		.ascii	"Ki\000"
 2803 07c5 02       		.byte	0x2
 2804 07c6 71       		.byte	0x71
 2805 07c7 12070000 		.4byte	0x712
 2806 07cb 02       		.byte	0x2
 2807 07cc 91       		.byte	0x91
 2808 07cd 08       		.sleb128 8
 2809 07ce 1D       		.uleb128 0x1d
 2810 07cf 4B6400   		.ascii	"Kd\000"
 2811 07d2 02       		.byte	0x2
 2812 07d3 71       		.byte	0x71
 2813 07d4 12070000 		.4byte	0x712
 2814 07d8 02       		.byte	0x2
 2815 07d9 91       		.byte	0x91
 2816 07da 10       		.sleb128 16
 2817 07db 27       		.uleb128 0x27
 2818 07dc 4B020000 		.4byte	.LASF73
 2819 07e0 02       		.byte	0x2
 2820 07e1 71       		.byte	0x71
 2821 07e2 B5000000 		.4byte	0xb5
 2822 07e6 02       		.byte	0x2
 2823 07e7 91       		.byte	0x91
 2824 07e8 18       		.sleb128 24
 2825 07e9 27       		.uleb128 0x27
 2826 07ea CD010000 		.4byte	.LASF74
 2827 07ee 02       		.byte	0x2
 2828 07ef 71       		.byte	0x71
 2829 07f0 B5000000 		.4byte	0xb5
 2830 07f4 02       		.byte	0x2
 2831 07f5 91       		.byte	0x91
 2832 07f6 1C       		.sleb128 28
ARM GAS  C:\Users\DNIEL~1\AppData\Local\Temp\cchvvOwG.s 			page 52


 2833 07f7 27       		.uleb128 0x27
 2834 07f8 B5010000 		.4byte	.LASF75
 2835 07fc 02       		.byte	0x2
 2836 07fd 71       		.byte	0x71
 2837 07fe B5000000 		.4byte	0xb5
 2838 0802 02       		.byte	0x2
 2839 0803 91       		.byte	0x91
 2840 0804 20       		.sleb128 32
 2841 0805 28       		.uleb128 0x28
 2842 0806 5500     		.ascii	"U\000"
 2843 0808 02       		.byte	0x2
 2844 0809 73       		.byte	0x73
 2845 080a B5000000 		.4byte	0xb5
 2846 080e 8B010000 		.4byte	.LLST13
 2847 0812 00       		.byte	0x0
 2848 0813 20       		.uleb128 0x20
 2849 0814 01       		.byte	0x1
 2850 0815 0C000000 		.4byte	.LASF77
 2851 0819 02       		.byte	0x2
 2852 081a 42       		.byte	0x42
 2853 081b 01       		.byte	0x1
 2854 081c 00000000 		.4byte	.LFB120
 2855 0820 FC000000 		.4byte	.LFE120
 2856 0824 B4010000 		.4byte	.LLST14
 2857 0828 23       		.uleb128 0x23
 2858 0829 01       		.byte	0x1
 2859 082a C4020000 		.4byte	.LASF78
 2860 082e 02       		.byte	0x2
 2861 082f A3       		.byte	0xa3
 2862 0830 01       		.byte	0x1
 2863 0831 00000000 		.4byte	.LFB128
 2864 0835 FC000000 		.4byte	.LFE128
 2865 0839 E0010000 		.4byte	.LLST15
 2866 083d 6F080000 		.4byte	0x86f
 2867 0841 1C       		.uleb128 0x1c
 2868 0842 63687000 		.ascii	"chp\000"
 2869 0846 02       		.byte	0x2
 2870 0847 A3       		.byte	0xa3
 2871 0848 96060000 		.4byte	0x696
 2872 084c 00020000 		.4byte	.LLST16
 2873 0850 26       		.uleb128 0x26
 2874 0851 9E030000 		.4byte	.LASF79
 2875 0855 02       		.byte	0x2
 2876 0856 A3       		.byte	0xa3
 2877 0857 45000000 		.4byte	0x45
 2878 085b 1E020000 		.4byte	.LLST17
 2879 085f 26       		.uleb128 0x26
 2880 0860 A9030000 		.4byte	.LASF80
 2881 0864 02       		.byte	0x2
 2882 0865 A3       		.byte	0xa3
 2883 0866 6F080000 		.4byte	0x86f
 2884 086a 31020000 		.4byte	.LLST18
 2885 086e 00       		.byte	0x0
 2886 086f 05       		.uleb128 0x5
 2887 0870 04       		.byte	0x4
 2888 0871 71000000 		.4byte	0x71
 2889 0875 23       		.uleb128 0x23
ARM GAS  C:\Users\DNIEL~1\AppData\Local\Temp\cchvvOwG.s 			page 53


 2890 0876 01       		.byte	0x1
 2891 0877 D2010000 		.4byte	.LASF81
 2892 087b 02       		.byte	0x2
 2893 087c B7       		.byte	0xb7
 2894 087d 01       		.byte	0x1
 2895 087e 00000000 		.4byte	.LFB129
 2896 0882 00020000 		.4byte	.LFE129
 2897 0886 44020000 		.4byte	.LLST19
 2898 088a F4080000 		.4byte	0x8f4
 2899 088e 1C       		.uleb128 0x1c
 2900 088f 63687000 		.ascii	"chp\000"
 2901 0893 02       		.byte	0x2
 2902 0894 B7       		.byte	0xb7
 2903 0895 96060000 		.4byte	0x696
 2904 0899 64020000 		.4byte	.LLST20
 2905 089d 26       		.uleb128 0x26
 2906 089e 9E030000 		.4byte	.LASF79
 2907 08a2 02       		.byte	0x2
 2908 08a3 B7       		.byte	0xb7
 2909 08a4 45000000 		.4byte	0x45
 2910 08a8 82020000 		.4byte	.LLST21
 2911 08ac 26       		.uleb128 0x26
 2912 08ad A9030000 		.4byte	.LASF80
 2913 08b1 02       		.byte	0x2
 2914 08b2 B7       		.byte	0xb7
 2915 08b3 6F080000 		.4byte	0x86f
 2916 08b7 C1020000 		.4byte	.LLST22
 2917 08bb 29       		.uleb128 0x29
 2918 08bc 17000000 		.4byte	.LASF82
 2919 08c0 02       		.byte	0x2
 2920 08c1 BB       		.byte	0xbb
 2921 08c2 9F000000 		.4byte	0x9f
 2922 08c6 DF020000 		.4byte	.LLST23
 2923 08ca 2A       		.uleb128 0x2a
 2924 08cb 27020000 		.4byte	.LASF84
 2925 08cf 02       		.byte	0x2
 2926 08d0 FE       		.byte	0xfe
 2927 08d1 40000000 		.4byte	.L82
 2928 08d5 2B       		.uleb128 0x2b
 2929 08d6 48060000 		.4byte	0x648
 2930 08da AC000000 		.4byte	.LBB10
 2931 08de 00000000 		.4byte	.Ldebug_ranges0+0x0
 2932 08e2 02       		.byte	0x2
 2933 08e3 F0       		.byte	0xf0
 2934 08e4 2B       		.uleb128 0x2b
 2935 08e5 3E060000 		.4byte	0x63e
 2936 08e9 F4000000 		.4byte	.LBB14
 2937 08ed 18000000 		.4byte	.Ldebug_ranges0+0x18
 2938 08f1 02       		.byte	0x2
 2939 08f2 EB       		.byte	0xeb
 2940 08f3 00       		.byte	0x0
 2941 08f4 2C       		.uleb128 0x2c
 2942 08f5 01       		.byte	0x1
 2943 08f6 96010000 		.4byte	.LASF83
 2944 08fa 02       		.byte	0x2
 2945 08fb 0601     		.2byte	0x106
 2946 08fd 01       		.byte	0x1
ARM GAS  C:\Users\DNIEL~1\AppData\Local\Temp\cchvvOwG.s 			page 54


 2947 08fe 00000000 		.4byte	.LFB130
 2948 0902 9C000000 		.4byte	.LFE130
 2949 0906 13030000 		.4byte	.LLST24
 2950 090a 77090000 		.4byte	0x977
 2951 090e 2D       		.uleb128 0x2d
 2952 090f 63687000 		.ascii	"chp\000"
 2953 0913 02       		.byte	0x2
 2954 0914 0601     		.2byte	0x106
 2955 0916 96060000 		.4byte	0x696
 2956 091a 33030000 		.4byte	.LLST25
 2957 091e 2E       		.uleb128 0x2e
 2958 091f 9E030000 		.4byte	.LASF79
 2959 0923 02       		.byte	0x2
 2960 0924 0601     		.2byte	0x106
 2961 0926 45000000 		.4byte	0x45
 2962 092a 51030000 		.4byte	.LLST26
 2963 092e 2E       		.uleb128 0x2e
 2964 092f A9030000 		.4byte	.LASF80
 2965 0933 02       		.byte	0x2
 2966 0934 0601     		.2byte	0x106
 2967 0936 6F080000 		.4byte	0x86f
 2968 093a 6F030000 		.4byte	.LLST27
 2969 093e 2F       		.uleb128 0x2f
 2970 093f 17000000 		.4byte	.LASF82
 2971 0943 02       		.byte	0x2
 2972 0944 0A01     		.2byte	0x10a
 2973 0946 9F000000 		.4byte	0x9f
 2974 094a 30       		.uleb128 0x30
 2975 094b 27020000 		.4byte	.LASF84
 2976 094f 02       		.byte	0x2
 2977 0950 1F01     		.2byte	0x11f
 2978 0952 28000000 		.4byte	.L101
 2979 0956 31       		.uleb128 0x31
 2980 0957 48060000 		.4byte	0x648
 2981 095b 54000000 		.4byte	.LBB18
 2982 095f 30000000 		.4byte	.Ldebug_ranges0+0x30
 2983 0963 02       		.byte	0x2
 2984 0964 1601     		.2byte	0x116
 2985 0966 31       		.uleb128 0x31
 2986 0967 3E060000 		.4byte	0x63e
 2987 096b 64000000 		.4byte	.LBB22
 2988 096f 48000000 		.4byte	.Ldebug_ranges0+0x48
 2989 0973 02       		.byte	0x2
 2990 0974 1101     		.2byte	0x111
 2991 0976 00       		.byte	0x0
 2992 0977 32       		.uleb128 0x32
 2993 0978 5A000000 		.4byte	.LASF85
 2994 097c 0D       		.byte	0xd
 2995 097d 9806     		.2byte	0x698
 2996 097f FC010000 		.4byte	0x1fc
 2997 0983 01       		.byte	0x1
 2998 0984 01       		.byte	0x1
 2999 0985 32       		.uleb128 0x32
 3000 0986 29010000 		.4byte	.LASF86
 3001 098a 0A       		.byte	0xa
 3002 098b C301     		.2byte	0x1c3
 3003 098d B0040000 		.4byte	0x4b0
ARM GAS  C:\Users\DNIEL~1\AppData\Local\Temp\cchvvOwG.s 			page 55


 3004 0991 01       		.byte	0x1
 3005 0992 01       		.byte	0x1
 3006 0993 1F       		.uleb128 0x1f
 3007 0994 4B5F5000 		.ascii	"K_P\000"
 3008 0998 02       		.byte	0x2
 3009 0999 0F       		.byte	0xf
 3010 099a 9F000000 		.4byte	0x9f
 3011 099e 05       		.byte	0x5
 3012 099f 03       		.byte	0x3
 3013 09a0 00000000 		.4byte	K_P
 3014 09a4 1F       		.uleb128 0x1f
 3015 09a5 4B5F4900 		.ascii	"K_I\000"
 3016 09a9 02       		.byte	0x2
 3017 09aa 10       		.byte	0x10
 3018 09ab 9F000000 		.4byte	0x9f
 3019 09af 05       		.byte	0x5
 3020 09b0 03       		.byte	0x3
 3021 09b1 00000000 		.4byte	K_I
 3022 09b5 1F       		.uleb128 0x1f
 3023 09b6 4B5F4400 		.ascii	"K_D\000"
 3024 09ba 02       		.byte	0x2
 3025 09bb 11       		.byte	0x11
 3026 09bc 9F000000 		.4byte	0x9f
 3027 09c0 05       		.byte	0x5
 3028 09c1 03       		.byte	0x3
 3029 09c2 00000000 		.4byte	K_D
 3030 09c6 33       		.uleb128 0x33
 3031 09c7 08020000 		.4byte	.LASF87
 3032 09cb 02       		.byte	0x2
 3033 09cc 13       		.byte	0x13
 3034 09cd DA090000 		.4byte	0x9da
 3035 09d1 08       		.byte	0x8
 3036 09d2 00000000 		.4byte	0x0
 3037 09d6 80842E41 		.4byte	0x412e8480
 3038 09da 06       		.uleb128 0x6
 3039 09db 12070000 		.4byte	0x712
 3040 09df 33       		.uleb128 0x33
 3041 09e0 90010000 		.4byte	.LASF88
 3042 09e4 02       		.byte	0x2
 3043 09e5 14       		.byte	0x14
 3044 09e6 F3090000 		.4byte	0x9f3
 3045 09ea 08       		.byte	0x8
 3046 09eb 00000000 		.4byte	0x0
 3047 09ef 00000000 		.4byte	0x0
 3048 09f3 06       		.uleb128 0x6
 3049 09f4 12070000 		.4byte	0x712
 3050 09f8 33       		.uleb128 0x33
 3051 09f9 02020000 		.4byte	.LASF89
 3052 09fd 02       		.byte	0x2
 3053 09fe 16       		.byte	0x16
 3054 09ff 0C0A0000 		.4byte	0xa0c
 3055 0a03 08       		.byte	0x8
 3056 0a04 00000000 		.4byte	0x0
 3057 0a08 80842E41 		.4byte	0x412e8480
 3058 0a0c 06       		.uleb128 0x6
 3059 0a0d 12070000 		.4byte	0x712
 3060 0a11 33       		.uleb128 0x33
ARM GAS  C:\Users\DNIEL~1\AppData\Local\Temp\cchvvOwG.s 			page 56


 3061 0a12 EC010000 		.4byte	.LASF90
 3062 0a16 02       		.byte	0x2
 3063 0a17 17       		.byte	0x17
 3064 0a18 250A0000 		.4byte	0xa25
 3065 0a1c 08       		.byte	0x8
 3066 0a1d 00000000 		.4byte	0x0
 3067 0a21 80842E41 		.4byte	0x412e8480
 3068 0a25 06       		.uleb128 0x6
 3069 0a26 12070000 		.4byte	0x712
 3070 0a2a 33       		.uleb128 0x33
 3071 0a2b 1C000000 		.4byte	.LASF91
 3072 0a2f 02       		.byte	0x2
 3073 0a30 18       		.byte	0x18
 3074 0a31 3E0A0000 		.4byte	0xa3e
 3075 0a35 08       		.byte	0x8
 3076 0a36 00000000 		.4byte	0x0
 3077 0a3a 80842E41 		.4byte	0x412e8480
 3078 0a3e 06       		.uleb128 0x6
 3079 0a3f 12070000 		.4byte	0x712
 3080 0a43 1F       		.uleb128 0x1f
 3081 0a44 70776D00 		.ascii	"pwm\000"
 3082 0a48 02       		.byte	0x2
 3083 0a49 1A       		.byte	0x1a
 3084 0a4a B5000000 		.4byte	0xb5
 3085 0a4e 05       		.byte	0x5
 3086 0a4f 03       		.byte	0x3
 3087 0a50 00000000 		.4byte	pwm
 3088 0a54 1F       		.uleb128 0x1f
 3089 0a55 5000     		.ascii	"P\000"
 3090 0a57 02       		.byte	0x2
 3091 0a58 1B       		.byte	0x1b
 3092 0a59 12070000 		.4byte	0x712
 3093 0a5d 05       		.byte	0x5
 3094 0a5e 03       		.byte	0x3
 3095 0a5f 00000000 		.4byte	P
 3096 0a63 1F       		.uleb128 0x1f
 3097 0a64 4900     		.ascii	"I\000"
 3098 0a66 02       		.byte	0x2
 3099 0a67 1C       		.byte	0x1c
 3100 0a68 12070000 		.4byte	0x712
 3101 0a6c 05       		.byte	0x5
 3102 0a6d 03       		.byte	0x3
 3103 0a6e 00000000 		.4byte	I
 3104 0a72 1F       		.uleb128 0x1f
 3105 0a73 4400     		.ascii	"D\000"
 3106 0a75 02       		.byte	0x2
 3107 0a76 1D       		.byte	0x1d
 3108 0a77 12070000 		.4byte	0x712
 3109 0a7b 05       		.byte	0x5
 3110 0a7c 03       		.byte	0x3
 3111 0a7d 00000000 		.4byte	D
 3112 0a81 34       		.uleb128 0x34
 3113 0a82 47030000 		.4byte	.LASF92
 3114 0a86 02       		.byte	0x2
 3115 0a87 1E       		.byte	0x1e
 3116 0a88 12070000 		.4byte	0x712
 3117 0a8c 05       		.byte	0x5
ARM GAS  C:\Users\DNIEL~1\AppData\Local\Temp\cchvvOwG.s 			page 57


 3118 0a8d 03       		.byte	0x3
 3119 0a8e 00000000 		.4byte	eelozo
 3120 0a92 1F       		.uleb128 0x1f
 3121 0a93 6500     		.ascii	"e\000"
 3122 0a95 02       		.byte	0x2
 3123 0a96 1F       		.byte	0x1f
 3124 0a97 12070000 		.4byte	0x712
 3125 0a9b 05       		.byte	0x5
 3126 0a9c 03       		.byte	0x3
 3127 0a9d 00000000 		.4byte	e
 3128 0aa1 34       		.uleb128 0x34
 3129 0aa2 66010000 		.4byte	.LASF93
 3130 0aa6 02       		.byte	0x2
 3131 0aa7 20       		.byte	0x20
 3132 0aa8 CB000000 		.4byte	0xcb
 3133 0aac 05       		.byte	0x5
 3134 0aad 03       		.byte	0x3
 3135 0aae 00000000 		.4byte	cruise_on
 3136 0ab2 1F       		.uleb128 0x1f
 3137 0ab3 73657400 		.ascii	"set\000"
 3138 0ab7 02       		.byte	0x2
 3139 0ab8 22       		.byte	0x22
 3140 0ab9 9F000000 		.4byte	0x9f
 3141 0abd 05       		.byte	0x5
 3142 0abe 03       		.byte	0x3
 3143 0abf 00000000 		.4byte	set
 3144 0ac3 34       		.uleb128 0x34
 3145 0ac4 82010000 		.4byte	.LASF94
 3146 0ac8 02       		.byte	0x2
 3147 0ac9 24       		.byte	0x24
 3148 0aca F7050000 		.4byte	0x5f7
 3149 0ace 05       		.byte	0x5
 3150 0acf 03       		.byte	0x3
 3151 0ad0 00000000 		.4byte	cruise_pwmcfg
 3152 0ad4 32       		.uleb128 0x32
 3153 0ad5 5A000000 		.4byte	.LASF85
 3154 0ad9 0D       		.byte	0xd
 3155 0ada 9806     		.2byte	0x698
 3156 0adc FC010000 		.4byte	0x1fc
 3157 0ae0 01       		.byte	0x1
 3158 0ae1 01       		.byte	0x1
 3159 0ae2 32       		.uleb128 0x32
 3160 0ae3 29010000 		.4byte	.LASF86
 3161 0ae7 0A       		.byte	0xa
 3162 0ae8 C301     		.2byte	0x1c3
 3163 0aea B0040000 		.4byte	0x4b0
 3164 0aee 01       		.byte	0x1
 3165 0aef 01       		.byte	0x1
 3166 0af0 00       		.byte	0x0
 3167              		.section	.debug_abbrev
 3168 0000 01       		.uleb128 0x1
 3169 0001 11       		.uleb128 0x11
 3170 0002 01       		.byte	0x1
 3171 0003 25       		.uleb128 0x25
 3172 0004 0E       		.uleb128 0xe
 3173 0005 13       		.uleb128 0x13
 3174 0006 0B       		.uleb128 0xb
ARM GAS  C:\Users\DNIEL~1\AppData\Local\Temp\cchvvOwG.s 			page 58


 3175 0007 03       		.uleb128 0x3
 3176 0008 0E       		.uleb128 0xe
 3177 0009 1B       		.uleb128 0x1b
 3178 000a 0E       		.uleb128 0xe
 3179 000b 11       		.uleb128 0x11
 3180 000c 01       		.uleb128 0x1
 3181 000d 52       		.uleb128 0x52
 3182 000e 01       		.uleb128 0x1
 3183 000f 55       		.uleb128 0x55
 3184 0010 06       		.uleb128 0x6
 3185 0011 10       		.uleb128 0x10
 3186 0012 06       		.uleb128 0x6
 3187 0013 00       		.byte	0x0
 3188 0014 00       		.byte	0x0
 3189 0015 02       		.uleb128 0x2
 3190 0016 24       		.uleb128 0x24
 3191 0017 00       		.byte	0x0
 3192 0018 0B       		.uleb128 0xb
 3193 0019 0B       		.uleb128 0xb
 3194 001a 3E       		.uleb128 0x3e
 3195 001b 0B       		.uleb128 0xb
 3196 001c 03       		.uleb128 0x3
 3197 001d 0E       		.uleb128 0xe
 3198 001e 00       		.byte	0x0
 3199 001f 00       		.byte	0x0
 3200 0020 03       		.uleb128 0x3
 3201 0021 24       		.uleb128 0x24
 3202 0022 00       		.byte	0x0
 3203 0023 0B       		.uleb128 0xb
 3204 0024 0B       		.uleb128 0xb
 3205 0025 3E       		.uleb128 0x3e
 3206 0026 0B       		.uleb128 0xb
 3207 0027 03       		.uleb128 0x3
 3208 0028 08       		.uleb128 0x8
 3209 0029 00       		.byte	0x0
 3210 002a 00       		.byte	0x0
 3211 002b 04       		.uleb128 0x4
 3212 002c 0F       		.uleb128 0xf
 3213 002d 00       		.byte	0x0
 3214 002e 0B       		.uleb128 0xb
 3215 002f 0B       		.uleb128 0xb
 3216 0030 00       		.byte	0x0
 3217 0031 00       		.byte	0x0
 3218 0032 05       		.uleb128 0x5
 3219 0033 0F       		.uleb128 0xf
 3220 0034 00       		.byte	0x0
 3221 0035 0B       		.uleb128 0xb
 3222 0036 0B       		.uleb128 0xb
 3223 0037 49       		.uleb128 0x49
 3224 0038 13       		.uleb128 0x13
 3225 0039 00       		.byte	0x0
 3226 003a 00       		.byte	0x0
 3227 003b 06       		.uleb128 0x6
 3228 003c 26       		.uleb128 0x26
 3229 003d 00       		.byte	0x0
 3230 003e 49       		.uleb128 0x49
 3231 003f 13       		.uleb128 0x13
ARM GAS  C:\Users\DNIEL~1\AppData\Local\Temp\cchvvOwG.s 			page 59


 3232 0040 00       		.byte	0x0
 3233 0041 00       		.byte	0x0
 3234 0042 07       		.uleb128 0x7
 3235 0043 16       		.uleb128 0x16
 3236 0044 00       		.byte	0x0
 3237 0045 03       		.uleb128 0x3
 3238 0046 0E       		.uleb128 0xe
 3239 0047 3A       		.uleb128 0x3a
 3240 0048 0B       		.uleb128 0xb
 3241 0049 3B       		.uleb128 0x3b
 3242 004a 0B       		.uleb128 0xb
 3243 004b 49       		.uleb128 0x49
 3244 004c 13       		.uleb128 0x13
 3245 004d 00       		.byte	0x0
 3246 004e 00       		.byte	0x0
 3247 004f 08       		.uleb128 0x8
 3248 0050 35       		.uleb128 0x35
 3249 0051 00       		.byte	0x0
 3250 0052 49       		.uleb128 0x49
 3251 0053 13       		.uleb128 0x13
 3252 0054 00       		.byte	0x0
 3253 0055 00       		.byte	0x0
 3254 0056 09       		.uleb128 0x9
 3255 0057 15       		.uleb128 0x15
 3256 0058 01       		.byte	0x1
 3257 0059 27       		.uleb128 0x27
 3258 005a 0C       		.uleb128 0xc
 3259 005b 49       		.uleb128 0x49
 3260 005c 13       		.uleb128 0x13
 3261 005d 01       		.uleb128 0x1
 3262 005e 13       		.uleb128 0x13
 3263 005f 00       		.byte	0x0
 3264 0060 00       		.byte	0x0
 3265 0061 0A       		.uleb128 0xa
 3266 0062 05       		.uleb128 0x5
 3267 0063 00       		.byte	0x0
 3268 0064 49       		.uleb128 0x49
 3269 0065 13       		.uleb128 0x13
 3270 0066 00       		.byte	0x0
 3271 0067 00       		.byte	0x0
 3272 0068 0B       		.uleb128 0xb
 3273 0069 13       		.uleb128 0x13
 3274 006a 01       		.byte	0x1
 3275 006b 03       		.uleb128 0x3
 3276 006c 0E       		.uleb128 0xe
 3277 006d 0B       		.uleb128 0xb
 3278 006e 0B       		.uleb128 0xb
 3279 006f 3A       		.uleb128 0x3a
 3280 0070 0B       		.uleb128 0xb
 3281 0071 3B       		.uleb128 0x3b
 3282 0072 0B       		.uleb128 0xb
 3283 0073 01       		.uleb128 0x1
 3284 0074 13       		.uleb128 0x13
 3285 0075 00       		.byte	0x0
 3286 0076 00       		.byte	0x0
 3287 0077 0C       		.uleb128 0xc
 3288 0078 0D       		.uleb128 0xd
ARM GAS  C:\Users\DNIEL~1\AppData\Local\Temp\cchvvOwG.s 			page 60


 3289 0079 00       		.byte	0x0
 3290 007a 03       		.uleb128 0x3
 3291 007b 0E       		.uleb128 0xe
 3292 007c 3A       		.uleb128 0x3a
 3293 007d 0B       		.uleb128 0xb
 3294 007e 3B       		.uleb128 0x3b
 3295 007f 0B       		.uleb128 0xb
 3296 0080 49       		.uleb128 0x49
 3297 0081 13       		.uleb128 0x13
 3298 0082 38       		.uleb128 0x38
 3299 0083 0A       		.uleb128 0xa
 3300 0084 00       		.byte	0x0
 3301 0085 00       		.byte	0x0
 3302 0086 0D       		.uleb128 0xd
 3303 0087 0D       		.uleb128 0xd
 3304 0088 00       		.byte	0x0
 3305 0089 03       		.uleb128 0x3
 3306 008a 08       		.uleb128 0x8
 3307 008b 3A       		.uleb128 0x3a
 3308 008c 0B       		.uleb128 0xb
 3309 008d 3B       		.uleb128 0x3b
 3310 008e 0B       		.uleb128 0xb
 3311 008f 49       		.uleb128 0x49
 3312 0090 13       		.uleb128 0x13
 3313 0091 38       		.uleb128 0x38
 3314 0092 0A       		.uleb128 0xa
 3315 0093 00       		.byte	0x0
 3316 0094 00       		.byte	0x0
 3317 0095 0E       		.uleb128 0xe
 3318 0096 13       		.uleb128 0x13
 3319 0097 01       		.byte	0x1
 3320 0098 0B       		.uleb128 0xb
 3321 0099 0B       		.uleb128 0xb
 3322 009a 3A       		.uleb128 0x3a
 3323 009b 0B       		.uleb128 0xb
 3324 009c 3B       		.uleb128 0x3b
 3325 009d 0B       		.uleb128 0xb
 3326 009e 01       		.uleb128 0x1
 3327 009f 13       		.uleb128 0x13
 3328 00a0 00       		.byte	0x0
 3329 00a1 00       		.byte	0x0
 3330 00a2 0F       		.uleb128 0xf
 3331 00a3 01       		.uleb128 0x1
 3332 00a4 01       		.byte	0x1
 3333 00a5 49       		.uleb128 0x49
 3334 00a6 13       		.uleb128 0x13
 3335 00a7 01       		.uleb128 0x1
 3336 00a8 13       		.uleb128 0x13
 3337 00a9 00       		.byte	0x0
 3338 00aa 00       		.byte	0x0
 3339 00ab 10       		.uleb128 0x10
 3340 00ac 21       		.uleb128 0x21
 3341 00ad 00       		.byte	0x0
 3342 00ae 49       		.uleb128 0x49
 3343 00af 13       		.uleb128 0x13
 3344 00b0 2F       		.uleb128 0x2f
 3345 00b1 0B       		.uleb128 0xb
ARM GAS  C:\Users\DNIEL~1\AppData\Local\Temp\cchvvOwG.s 			page 61


 3346 00b2 00       		.byte	0x0
 3347 00b3 00       		.byte	0x0
 3348 00b4 11       		.uleb128 0x11
 3349 00b5 13       		.uleb128 0x13
 3350 00b6 01       		.byte	0x1
 3351 00b7 0B       		.uleb128 0xb
 3352 00b8 0B       		.uleb128 0xb
 3353 00b9 3A       		.uleb128 0x3a
 3354 00ba 0B       		.uleb128 0xb
 3355 00bb 3B       		.uleb128 0x3b
 3356 00bc 05       		.uleb128 0x5
 3357 00bd 01       		.uleb128 0x1
 3358 00be 13       		.uleb128 0x13
 3359 00bf 00       		.byte	0x0
 3360 00c0 00       		.byte	0x0
 3361 00c1 12       		.uleb128 0x12
 3362 00c2 0D       		.uleb128 0xd
 3363 00c3 00       		.byte	0x0
 3364 00c4 03       		.uleb128 0x3
 3365 00c5 08       		.uleb128 0x8
 3366 00c6 3A       		.uleb128 0x3a
 3367 00c7 0B       		.uleb128 0xb
 3368 00c8 3B       		.uleb128 0x3b
 3369 00c9 05       		.uleb128 0x5
 3370 00ca 49       		.uleb128 0x49
 3371 00cb 13       		.uleb128 0x13
 3372 00cc 38       		.uleb128 0x38
 3373 00cd 0A       		.uleb128 0xa
 3374 00ce 00       		.byte	0x0
 3375 00cf 00       		.byte	0x0
 3376 00d0 13       		.uleb128 0x13
 3377 00d1 0D       		.uleb128 0xd
 3378 00d2 00       		.byte	0x0
 3379 00d3 03       		.uleb128 0x3
 3380 00d4 0E       		.uleb128 0xe
 3381 00d5 3A       		.uleb128 0x3a
 3382 00d6 0B       		.uleb128 0xb
 3383 00d7 3B       		.uleb128 0x3b
 3384 00d8 05       		.uleb128 0x5
 3385 00d9 49       		.uleb128 0x49
 3386 00da 13       		.uleb128 0x13
 3387 00db 38       		.uleb128 0x38
 3388 00dc 0A       		.uleb128 0xa
 3389 00dd 00       		.byte	0x0
 3390 00de 00       		.byte	0x0
 3391 00df 14       		.uleb128 0x14
 3392 00e0 16       		.uleb128 0x16
 3393 00e1 00       		.byte	0x0
 3394 00e2 03       		.uleb128 0x3
 3395 00e3 0E       		.uleb128 0xe
 3396 00e4 3A       		.uleb128 0x3a
 3397 00e5 0B       		.uleb128 0xb
 3398 00e6 3B       		.uleb128 0x3b
 3399 00e7 05       		.uleb128 0x5
 3400 00e8 49       		.uleb128 0x49
 3401 00e9 13       		.uleb128 0x13
 3402 00ea 00       		.byte	0x0
ARM GAS  C:\Users\DNIEL~1\AppData\Local\Temp\cchvvOwG.s 			page 62


 3403 00eb 00       		.byte	0x0
 3404 00ec 15       		.uleb128 0x15
 3405 00ed 04       		.uleb128 0x4
 3406 00ee 01       		.byte	0x1
 3407 00ef 0B       		.uleb128 0xb
 3408 00f0 0B       		.uleb128 0xb
 3409 00f1 3A       		.uleb128 0x3a
 3410 00f2 0B       		.uleb128 0xb
 3411 00f3 3B       		.uleb128 0x3b
 3412 00f4 0B       		.uleb128 0xb
 3413 00f5 01       		.uleb128 0x1
 3414 00f6 13       		.uleb128 0x13
 3415 00f7 00       		.byte	0x0
 3416 00f8 00       		.byte	0x0
 3417 00f9 16       		.uleb128 0x16
 3418 00fa 28       		.uleb128 0x28
 3419 00fb 00       		.byte	0x0
 3420 00fc 03       		.uleb128 0x3
 3421 00fd 0E       		.uleb128 0xe
 3422 00fe 1C       		.uleb128 0x1c
 3423 00ff 0D       		.uleb128 0xd
 3424 0100 00       		.byte	0x0
 3425 0101 00       		.byte	0x0
 3426 0102 17       		.uleb128 0x17
 3427 0103 13       		.uleb128 0x13
 3428 0104 01       		.byte	0x1
 3429 0105 03       		.uleb128 0x3
 3430 0106 0E       		.uleb128 0xe
 3431 0107 0B       		.uleb128 0xb
 3432 0108 0B       		.uleb128 0xb
 3433 0109 3A       		.uleb128 0x3a
 3434 010a 0B       		.uleb128 0xb
 3435 010b 3B       		.uleb128 0x3b
 3436 010c 05       		.uleb128 0x5
 3437 010d 01       		.uleb128 0x1
 3438 010e 13       		.uleb128 0x13
 3439 010f 00       		.byte	0x0
 3440 0110 00       		.byte	0x0
 3441 0111 18       		.uleb128 0x18
 3442 0112 15       		.uleb128 0x15
 3443 0113 01       		.byte	0x1
 3444 0114 27       		.uleb128 0x27
 3445 0115 0C       		.uleb128 0xc
 3446 0116 01       		.uleb128 0x1
 3447 0117 13       		.uleb128 0x13
 3448 0118 00       		.byte	0x0
 3449 0119 00       		.byte	0x0
 3450 011a 19       		.uleb128 0x19
 3451 011b 0D       		.uleb128 0xd
 3452 011c 00       		.byte	0x0
 3453 011d 03       		.uleb128 0x3
 3454 011e 0E       		.uleb128 0xe
 3455 011f 49       		.uleb128 0x49
 3456 0120 13       		.uleb128 0x13
 3457 0121 38       		.uleb128 0x38
 3458 0122 0A       		.uleb128 0xa
 3459 0123 34       		.uleb128 0x34
ARM GAS  C:\Users\DNIEL~1\AppData\Local\Temp\cchvvOwG.s 			page 63


 3460 0124 0C       		.uleb128 0xc
 3461 0125 00       		.byte	0x0
 3462 0126 00       		.byte	0x0
 3463 0127 1A       		.uleb128 0x1a
 3464 0128 2E       		.uleb128 0x2e
 3465 0129 00       		.byte	0x0
 3466 012a 3F       		.uleb128 0x3f
 3467 012b 0C       		.uleb128 0xc
 3468 012c 03       		.uleb128 0x3
 3469 012d 0E       		.uleb128 0xe
 3470 012e 3A       		.uleb128 0x3a
 3471 012f 0B       		.uleb128 0xb
 3472 0130 3B       		.uleb128 0x3b
 3473 0131 0B       		.uleb128 0xb
 3474 0132 27       		.uleb128 0x27
 3475 0133 0C       		.uleb128 0xc
 3476 0134 20       		.uleb128 0x20
 3477 0135 0B       		.uleb128 0xb
 3478 0136 00       		.byte	0x0
 3479 0137 00       		.byte	0x0
 3480 0138 1B       		.uleb128 0x1b
 3481 0139 2E       		.uleb128 0x2e
 3482 013a 01       		.byte	0x1
 3483 013b 03       		.uleb128 0x3
 3484 013c 0E       		.uleb128 0xe
 3485 013d 3A       		.uleb128 0x3a
 3486 013e 0B       		.uleb128 0xb
 3487 013f 3B       		.uleb128 0x3b
 3488 0140 0B       		.uleb128 0xb
 3489 0141 27       		.uleb128 0x27
 3490 0142 0C       		.uleb128 0xc
 3491 0143 11       		.uleb128 0x11
 3492 0144 01       		.uleb128 0x1
 3493 0145 12       		.uleb128 0x12
 3494 0146 01       		.uleb128 0x1
 3495 0147 40       		.uleb128 0x40
 3496 0148 06       		.uleb128 0x6
 3497 0149 01       		.uleb128 0x1
 3498 014a 13       		.uleb128 0x13
 3499 014b 00       		.byte	0x0
 3500 014c 00       		.byte	0x0
 3501 014d 1C       		.uleb128 0x1c
 3502 014e 05       		.uleb128 0x5
 3503 014f 00       		.byte	0x0
 3504 0150 03       		.uleb128 0x3
 3505 0151 08       		.uleb128 0x8
 3506 0152 3A       		.uleb128 0x3a
 3507 0153 0B       		.uleb128 0xb
 3508 0154 3B       		.uleb128 0x3b
 3509 0155 0B       		.uleb128 0xb
 3510 0156 49       		.uleb128 0x49
 3511 0157 13       		.uleb128 0x13
 3512 0158 02       		.uleb128 0x2
 3513 0159 06       		.uleb128 0x6
 3514 015a 00       		.byte	0x0
 3515 015b 00       		.byte	0x0
 3516 015c 1D       		.uleb128 0x1d
ARM GAS  C:\Users\DNIEL~1\AppData\Local\Temp\cchvvOwG.s 			page 64


 3517 015d 05       		.uleb128 0x5
 3518 015e 00       		.byte	0x0
 3519 015f 03       		.uleb128 0x3
 3520 0160 08       		.uleb128 0x8
 3521 0161 3A       		.uleb128 0x3a
 3522 0162 0B       		.uleb128 0xb
 3523 0163 3B       		.uleb128 0x3b
 3524 0164 0B       		.uleb128 0xb
 3525 0165 49       		.uleb128 0x49
 3526 0166 13       		.uleb128 0x13
 3527 0167 02       		.uleb128 0x2
 3528 0168 0A       		.uleb128 0xa
 3529 0169 00       		.byte	0x0
 3530 016a 00       		.byte	0x0
 3531 016b 1E       		.uleb128 0x1e
 3532 016c 18       		.uleb128 0x18
 3533 016d 00       		.byte	0x0
 3534 016e 00       		.byte	0x0
 3535 016f 00       		.byte	0x0
 3536 0170 1F       		.uleb128 0x1f
 3537 0171 34       		.uleb128 0x34
 3538 0172 00       		.byte	0x0
 3539 0173 03       		.uleb128 0x3
 3540 0174 08       		.uleb128 0x8
 3541 0175 3A       		.uleb128 0x3a
 3542 0176 0B       		.uleb128 0xb
 3543 0177 3B       		.uleb128 0x3b
 3544 0178 0B       		.uleb128 0xb
 3545 0179 49       		.uleb128 0x49
 3546 017a 13       		.uleb128 0x13
 3547 017b 02       		.uleb128 0x2
 3548 017c 0A       		.uleb128 0xa
 3549 017d 00       		.byte	0x0
 3550 017e 00       		.byte	0x0
 3551 017f 20       		.uleb128 0x20
 3552 0180 2E       		.uleb128 0x2e
 3553 0181 00       		.byte	0x0
 3554 0182 3F       		.uleb128 0x3f
 3555 0183 0C       		.uleb128 0xc
 3556 0184 03       		.uleb128 0x3
 3557 0185 0E       		.uleb128 0xe
 3558 0186 3A       		.uleb128 0x3a
 3559 0187 0B       		.uleb128 0xb
 3560 0188 3B       		.uleb128 0x3b
 3561 0189 0B       		.uleb128 0xb
 3562 018a 27       		.uleb128 0x27
 3563 018b 0C       		.uleb128 0xc
 3564 018c 11       		.uleb128 0x11
 3565 018d 01       		.uleb128 0x1
 3566 018e 12       		.uleb128 0x12
 3567 018f 01       		.uleb128 0x1
 3568 0190 40       		.uleb128 0x40
 3569 0191 06       		.uleb128 0x6
 3570 0192 00       		.byte	0x0
 3571 0193 00       		.byte	0x0
 3572 0194 21       		.uleb128 0x21
 3573 0195 2E       		.uleb128 0x2e
ARM GAS  C:\Users\DNIEL~1\AppData\Local\Temp\cchvvOwG.s 			page 65


 3574 0196 00       		.byte	0x0
 3575 0197 31       		.uleb128 0x31
 3576 0198 13       		.uleb128 0x13
 3577 0199 11       		.uleb128 0x11
 3578 019a 01       		.uleb128 0x1
 3579 019b 12       		.uleb128 0x12
 3580 019c 01       		.uleb128 0x1
 3581 019d 40       		.uleb128 0x40
 3582 019e 0A       		.uleb128 0xa
 3583 019f 00       		.byte	0x0
 3584 01a0 00       		.byte	0x0
 3585 01a1 22       		.uleb128 0x22
 3586 01a2 2E       		.uleb128 0x2e
 3587 01a3 00       		.byte	0x0
 3588 01a4 3F       		.uleb128 0x3f
 3589 01a5 0C       		.uleb128 0xc
 3590 01a6 03       		.uleb128 0x3
 3591 01a7 0E       		.uleb128 0xe
 3592 01a8 3A       		.uleb128 0x3a
 3593 01a9 0B       		.uleb128 0xb
 3594 01aa 3B       		.uleb128 0x3b
 3595 01ab 0B       		.uleb128 0xb
 3596 01ac 27       		.uleb128 0x27
 3597 01ad 0C       		.uleb128 0xc
 3598 01ae 49       		.uleb128 0x49
 3599 01af 13       		.uleb128 0x13
 3600 01b0 11       		.uleb128 0x11
 3601 01b1 01       		.uleb128 0x1
 3602 01b2 12       		.uleb128 0x12
 3603 01b3 01       		.uleb128 0x1
 3604 01b4 40       		.uleb128 0x40
 3605 01b5 0A       		.uleb128 0xa
 3606 01b6 00       		.byte	0x0
 3607 01b7 00       		.byte	0x0
 3608 01b8 23       		.uleb128 0x23
 3609 01b9 2E       		.uleb128 0x2e
 3610 01ba 01       		.byte	0x1
 3611 01bb 3F       		.uleb128 0x3f
 3612 01bc 0C       		.uleb128 0xc
 3613 01bd 03       		.uleb128 0x3
 3614 01be 0E       		.uleb128 0xe
 3615 01bf 3A       		.uleb128 0x3a
 3616 01c0 0B       		.uleb128 0xb
 3617 01c1 3B       		.uleb128 0x3b
 3618 01c2 0B       		.uleb128 0xb
 3619 01c3 27       		.uleb128 0x27
 3620 01c4 0C       		.uleb128 0xc
 3621 01c5 11       		.uleb128 0x11
 3622 01c6 01       		.uleb128 0x1
 3623 01c7 12       		.uleb128 0x12
 3624 01c8 01       		.uleb128 0x1
 3625 01c9 40       		.uleb128 0x40
 3626 01ca 06       		.uleb128 0x6
 3627 01cb 01       		.uleb128 0x1
 3628 01cc 13       		.uleb128 0x13
 3629 01cd 00       		.byte	0x0
 3630 01ce 00       		.byte	0x0
ARM GAS  C:\Users\DNIEL~1\AppData\Local\Temp\cchvvOwG.s 			page 66


 3631 01cf 24       		.uleb128 0x24
 3632 01d0 2E       		.uleb128 0x2e
 3633 01d1 00       		.byte	0x0
 3634 01d2 3F       		.uleb128 0x3f
 3635 01d3 0C       		.uleb128 0xc
 3636 01d4 03       		.uleb128 0x3
 3637 01d5 0E       		.uleb128 0xe
 3638 01d6 3A       		.uleb128 0x3a
 3639 01d7 0B       		.uleb128 0xb
 3640 01d8 3B       		.uleb128 0x3b
 3641 01d9 0B       		.uleb128 0xb
 3642 01da 27       		.uleb128 0x27
 3643 01db 0C       		.uleb128 0xc
 3644 01dc 49       		.uleb128 0x49
 3645 01dd 13       		.uleb128 0x13
 3646 01de 11       		.uleb128 0x11
 3647 01df 01       		.uleb128 0x1
 3648 01e0 12       		.uleb128 0x12
 3649 01e1 01       		.uleb128 0x1
 3650 01e2 40       		.uleb128 0x40
 3651 01e3 06       		.uleb128 0x6
 3652 01e4 00       		.byte	0x0
 3653 01e5 00       		.byte	0x0
 3654 01e6 25       		.uleb128 0x25
 3655 01e7 2E       		.uleb128 0x2e
 3656 01e8 01       		.byte	0x1
 3657 01e9 3F       		.uleb128 0x3f
 3658 01ea 0C       		.uleb128 0xc
 3659 01eb 03       		.uleb128 0x3
 3660 01ec 0E       		.uleb128 0xe
 3661 01ed 3A       		.uleb128 0x3a
 3662 01ee 0B       		.uleb128 0xb
 3663 01ef 3B       		.uleb128 0x3b
 3664 01f0 0B       		.uleb128 0xb
 3665 01f1 27       		.uleb128 0x27
 3666 01f2 0C       		.uleb128 0xc
 3667 01f3 49       		.uleb128 0x49
 3668 01f4 13       		.uleb128 0x13
 3669 01f5 11       		.uleb128 0x11
 3670 01f6 01       		.uleb128 0x1
 3671 01f7 12       		.uleb128 0x12
 3672 01f8 01       		.uleb128 0x1
 3673 01f9 40       		.uleb128 0x40
 3674 01fa 06       		.uleb128 0x6
 3675 01fb 01       		.uleb128 0x1
 3676 01fc 13       		.uleb128 0x13
 3677 01fd 00       		.byte	0x0
 3678 01fe 00       		.byte	0x0
 3679 01ff 26       		.uleb128 0x26
 3680 0200 05       		.uleb128 0x5
 3681 0201 00       		.byte	0x0
 3682 0202 03       		.uleb128 0x3
 3683 0203 0E       		.uleb128 0xe
 3684 0204 3A       		.uleb128 0x3a
 3685 0205 0B       		.uleb128 0xb
 3686 0206 3B       		.uleb128 0x3b
 3687 0207 0B       		.uleb128 0xb
ARM GAS  C:\Users\DNIEL~1\AppData\Local\Temp\cchvvOwG.s 			page 67


 3688 0208 49       		.uleb128 0x49
 3689 0209 13       		.uleb128 0x13
 3690 020a 02       		.uleb128 0x2
 3691 020b 06       		.uleb128 0x6
 3692 020c 00       		.byte	0x0
 3693 020d 00       		.byte	0x0
 3694 020e 27       		.uleb128 0x27
 3695 020f 05       		.uleb128 0x5
 3696 0210 00       		.byte	0x0
 3697 0211 03       		.uleb128 0x3
 3698 0212 0E       		.uleb128 0xe
 3699 0213 3A       		.uleb128 0x3a
 3700 0214 0B       		.uleb128 0xb
 3701 0215 3B       		.uleb128 0x3b
 3702 0216 0B       		.uleb128 0xb
 3703 0217 49       		.uleb128 0x49
 3704 0218 13       		.uleb128 0x13
 3705 0219 02       		.uleb128 0x2
 3706 021a 0A       		.uleb128 0xa
 3707 021b 00       		.byte	0x0
 3708 021c 00       		.byte	0x0
 3709 021d 28       		.uleb128 0x28
 3710 021e 34       		.uleb128 0x34
 3711 021f 00       		.byte	0x0
 3712 0220 03       		.uleb128 0x3
 3713 0221 08       		.uleb128 0x8
 3714 0222 3A       		.uleb128 0x3a
 3715 0223 0B       		.uleb128 0xb
 3716 0224 3B       		.uleb128 0x3b
 3717 0225 0B       		.uleb128 0xb
 3718 0226 49       		.uleb128 0x49
 3719 0227 13       		.uleb128 0x13
 3720 0228 02       		.uleb128 0x2
 3721 0229 06       		.uleb128 0x6
 3722 022a 00       		.byte	0x0
 3723 022b 00       		.byte	0x0
 3724 022c 29       		.uleb128 0x29
 3725 022d 34       		.uleb128 0x34
 3726 022e 00       		.byte	0x0
 3727 022f 03       		.uleb128 0x3
 3728 0230 0E       		.uleb128 0xe
 3729 0231 3A       		.uleb128 0x3a
 3730 0232 0B       		.uleb128 0xb
 3731 0233 3B       		.uleb128 0x3b
 3732 0234 0B       		.uleb128 0xb
 3733 0235 49       		.uleb128 0x49
 3734 0236 13       		.uleb128 0x13
 3735 0237 02       		.uleb128 0x2
 3736 0238 06       		.uleb128 0x6
 3737 0239 00       		.byte	0x0
 3738 023a 00       		.byte	0x0
 3739 023b 2A       		.uleb128 0x2a
 3740 023c 0A       		.uleb128 0xa
 3741 023d 00       		.byte	0x0
 3742 023e 03       		.uleb128 0x3
 3743 023f 0E       		.uleb128 0xe
 3744 0240 3A       		.uleb128 0x3a
ARM GAS  C:\Users\DNIEL~1\AppData\Local\Temp\cchvvOwG.s 			page 68


 3745 0241 0B       		.uleb128 0xb
 3746 0242 3B       		.uleb128 0x3b
 3747 0243 0B       		.uleb128 0xb
 3748 0244 11       		.uleb128 0x11
 3749 0245 01       		.uleb128 0x1
 3750 0246 00       		.byte	0x0
 3751 0247 00       		.byte	0x0
 3752 0248 2B       		.uleb128 0x2b
 3753 0249 1D       		.uleb128 0x1d
 3754 024a 00       		.byte	0x0
 3755 024b 31       		.uleb128 0x31
 3756 024c 13       		.uleb128 0x13
 3757 024d 52       		.uleb128 0x52
 3758 024e 01       		.uleb128 0x1
 3759 024f 55       		.uleb128 0x55
 3760 0250 06       		.uleb128 0x6
 3761 0251 58       		.uleb128 0x58
 3762 0252 0B       		.uleb128 0xb
 3763 0253 59       		.uleb128 0x59
 3764 0254 0B       		.uleb128 0xb
 3765 0255 00       		.byte	0x0
 3766 0256 00       		.byte	0x0
 3767 0257 2C       		.uleb128 0x2c
 3768 0258 2E       		.uleb128 0x2e
 3769 0259 01       		.byte	0x1
 3770 025a 3F       		.uleb128 0x3f
 3771 025b 0C       		.uleb128 0xc
 3772 025c 03       		.uleb128 0x3
 3773 025d 0E       		.uleb128 0xe
 3774 025e 3A       		.uleb128 0x3a
 3775 025f 0B       		.uleb128 0xb
 3776 0260 3B       		.uleb128 0x3b
 3777 0261 05       		.uleb128 0x5
 3778 0262 27       		.uleb128 0x27
 3779 0263 0C       		.uleb128 0xc
 3780 0264 11       		.uleb128 0x11
 3781 0265 01       		.uleb128 0x1
 3782 0266 12       		.uleb128 0x12
 3783 0267 01       		.uleb128 0x1
 3784 0268 40       		.uleb128 0x40
 3785 0269 06       		.uleb128 0x6
 3786 026a 01       		.uleb128 0x1
 3787 026b 13       		.uleb128 0x13
 3788 026c 00       		.byte	0x0
 3789 026d 00       		.byte	0x0
 3790 026e 2D       		.uleb128 0x2d
 3791 026f 05       		.uleb128 0x5
 3792 0270 00       		.byte	0x0
 3793 0271 03       		.uleb128 0x3
 3794 0272 08       		.uleb128 0x8
 3795 0273 3A       		.uleb128 0x3a
 3796 0274 0B       		.uleb128 0xb
 3797 0275 3B       		.uleb128 0x3b
 3798 0276 05       		.uleb128 0x5
 3799 0277 49       		.uleb128 0x49
 3800 0278 13       		.uleb128 0x13
 3801 0279 02       		.uleb128 0x2
ARM GAS  C:\Users\DNIEL~1\AppData\Local\Temp\cchvvOwG.s 			page 69


 3802 027a 06       		.uleb128 0x6
 3803 027b 00       		.byte	0x0
 3804 027c 00       		.byte	0x0
 3805 027d 2E       		.uleb128 0x2e
 3806 027e 05       		.uleb128 0x5
 3807 027f 00       		.byte	0x0
 3808 0280 03       		.uleb128 0x3
 3809 0281 0E       		.uleb128 0xe
 3810 0282 3A       		.uleb128 0x3a
 3811 0283 0B       		.uleb128 0xb
 3812 0284 3B       		.uleb128 0x3b
 3813 0285 05       		.uleb128 0x5
 3814 0286 49       		.uleb128 0x49
 3815 0287 13       		.uleb128 0x13
 3816 0288 02       		.uleb128 0x2
 3817 0289 06       		.uleb128 0x6
 3818 028a 00       		.byte	0x0
 3819 028b 00       		.byte	0x0
 3820 028c 2F       		.uleb128 0x2f
 3821 028d 34       		.uleb128 0x34
 3822 028e 00       		.byte	0x0
 3823 028f 03       		.uleb128 0x3
 3824 0290 0E       		.uleb128 0xe
 3825 0291 3A       		.uleb128 0x3a
 3826 0292 0B       		.uleb128 0xb
 3827 0293 3B       		.uleb128 0x3b
 3828 0294 05       		.uleb128 0x5
 3829 0295 49       		.uleb128 0x49
 3830 0296 13       		.uleb128 0x13
 3831 0297 00       		.byte	0x0
 3832 0298 00       		.byte	0x0
 3833 0299 30       		.uleb128 0x30
 3834 029a 0A       		.uleb128 0xa
 3835 029b 00       		.byte	0x0
 3836 029c 03       		.uleb128 0x3
 3837 029d 0E       		.uleb128 0xe
 3838 029e 3A       		.uleb128 0x3a
 3839 029f 0B       		.uleb128 0xb
 3840 02a0 3B       		.uleb128 0x3b
 3841 02a1 05       		.uleb128 0x5
 3842 02a2 11       		.uleb128 0x11
 3843 02a3 01       		.uleb128 0x1
 3844 02a4 00       		.byte	0x0
 3845 02a5 00       		.byte	0x0
 3846 02a6 31       		.uleb128 0x31
 3847 02a7 1D       		.uleb128 0x1d
 3848 02a8 00       		.byte	0x0
 3849 02a9 31       		.uleb128 0x31
 3850 02aa 13       		.uleb128 0x13
 3851 02ab 52       		.uleb128 0x52
 3852 02ac 01       		.uleb128 0x1
 3853 02ad 55       		.uleb128 0x55
 3854 02ae 06       		.uleb128 0x6
 3855 02af 58       		.uleb128 0x58
 3856 02b0 0B       		.uleb128 0xb
 3857 02b1 59       		.uleb128 0x59
 3858 02b2 05       		.uleb128 0x5
ARM GAS  C:\Users\DNIEL~1\AppData\Local\Temp\cchvvOwG.s 			page 70


 3859 02b3 00       		.byte	0x0
 3860 02b4 00       		.byte	0x0
 3861 02b5 32       		.uleb128 0x32
 3862 02b6 34       		.uleb128 0x34
 3863 02b7 00       		.byte	0x0
 3864 02b8 03       		.uleb128 0x3
 3865 02b9 0E       		.uleb128 0xe
 3866 02ba 3A       		.uleb128 0x3a
 3867 02bb 0B       		.uleb128 0xb
 3868 02bc 3B       		.uleb128 0x3b
 3869 02bd 05       		.uleb128 0x5
 3870 02be 49       		.uleb128 0x49
 3871 02bf 13       		.uleb128 0x13
 3872 02c0 3F       		.uleb128 0x3f
 3873 02c1 0C       		.uleb128 0xc
 3874 02c2 3C       		.uleb128 0x3c
 3875 02c3 0C       		.uleb128 0xc
 3876 02c4 00       		.byte	0x0
 3877 02c5 00       		.byte	0x0
 3878 02c6 33       		.uleb128 0x33
 3879 02c7 34       		.uleb128 0x34
 3880 02c8 00       		.byte	0x0
 3881 02c9 03       		.uleb128 0x3
 3882 02ca 0E       		.uleb128 0xe
 3883 02cb 3A       		.uleb128 0x3a
 3884 02cc 0B       		.uleb128 0xb
 3885 02cd 3B       		.uleb128 0x3b
 3886 02ce 0B       		.uleb128 0xb
 3887 02cf 49       		.uleb128 0x49
 3888 02d0 13       		.uleb128 0x13
 3889 02d1 1C       		.uleb128 0x1c
 3890 02d2 0A       		.uleb128 0xa
 3891 02d3 00       		.byte	0x0
 3892 02d4 00       		.byte	0x0
 3893 02d5 34       		.uleb128 0x34
 3894 02d6 34       		.uleb128 0x34
 3895 02d7 00       		.byte	0x0
 3896 02d8 03       		.uleb128 0x3
 3897 02d9 0E       		.uleb128 0xe
 3898 02da 3A       		.uleb128 0x3a
 3899 02db 0B       		.uleb128 0xb
 3900 02dc 3B       		.uleb128 0x3b
 3901 02dd 0B       		.uleb128 0xb
 3902 02de 49       		.uleb128 0x49
 3903 02df 13       		.uleb128 0x13
 3904 02e0 02       		.uleb128 0x2
 3905 02e1 0A       		.uleb128 0xa
 3906 02e2 00       		.byte	0x0
 3907 02e3 00       		.byte	0x0
 3908 02e4 00       		.byte	0x0
 3909              		.section	.debug_pubnames,"",%progbits
 3910 0000 DF000000 		.4byte	0xdf
 3911 0004 0200     		.2byte	0x2
 3912 0006 00000000 		.4byte	.Ldebug_info0
 3913 000a F10A0000 		.4byte	0xaf1
 3914 000e 9C060000 		.4byte	0x69c
 3915 0012 63727569 		.ascii	"cruiseInit\000"
ARM GAS  C:\Users\DNIEL~1\AppData\Local\Temp\cchvvOwG.s 			page 71


 3915      7365496E 
 3915      697400
 3916 001d B1060000 		.4byte	0x6b1
 3917 0021 63727569 		.ascii	"cruiseEnable\000"
 3917      7365456E 
 3917      61626C65 
 3917      00
 3918 002e C1060000 		.4byte	0x6c1
 3919 0032 63727569 		.ascii	"cruiseDisable\000"
 3919      73654469 
 3919      7361626C 
 3919      6500
 3920 0040 D1060000 		.4byte	0x6d1
 3921 0044 63727569 		.ascii	"cruiseStatus\000"
 3921      73655374 
 3921      61747573 
 3921      00
 3922 0051 E9060000 		.4byte	0x6e9
 3923 0055 63727569 		.ascii	"cruiseIncrease\000"
 3923      7365496E 
 3923      63726561 
 3923      736500
 3924 0064 19070000 		.4byte	0x719
 3925 0068 63727569 		.ascii	"cruiseReduction\000"
 3925      73655265 
 3925      64756374 
 3925      696F6E00 
 3926 0078 42070000 		.4byte	0x742
 3927 007c 63727569 		.ascii	"cruiseGet\000"
 3927      73654765 
 3927      7400
 3928 0086 5B070000 		.4byte	0x75b
 3929 008a 63727569 		.ascii	"cruisePID\000"
 3929      73655049 
 3929      4400
 3930 0094 13080000 		.4byte	0x813
 3931 0098 63727569 		.ascii	"cruiseCalc\000"
 3931      73654361 
 3931      6C6300
 3932 00a3 28080000 		.4byte	0x828
 3933 00a7 636D645F 		.ascii	"cmd_cruisevalues\000"
 3933      63727569 
 3933      73657661 
 3933      6C756573 
 3933      00
 3934 00b8 75080000 		.4byte	0x875
 3935 00bc 636D645F 		.ascii	"cmd_setcruisevalues\000"
 3935      73657463 
 3935      72756973 
 3935      6576616C 
 3935      75657300 
 3936 00d0 F4080000 		.4byte	0x8f4
 3937 00d4 636D645F 		.ascii	"cmd_cruise\000"
 3937      63727569 
 3937      736500
 3938 00df 00000000 		.4byte	0x0
 3939              		.section	.debug_pubtypes,"",%progbits
ARM GAS  C:\Users\DNIEL~1\AppData\Local\Temp\cchvvOwG.s 			page 72


 3940 0000 8A010000 		.4byte	0x18a
 3941 0004 0200     		.2byte	0x2
 3942 0006 00000000 		.4byte	.Ldebug_info0
 3943 000a F10A0000 		.4byte	0xaf1
 3944 000e 89000000 		.4byte	0x89
 3945 0012 73697A65 		.ascii	"size_t\000"
 3945      5F7400
 3946 0019 94000000 		.4byte	0x94
 3947 001d 75696E74 		.ascii	"uint8_t\000"
 3947      385F7400 
 3948 0025 9F000000 		.4byte	0x9f
 3949 0029 696E7431 		.ascii	"int16_t\000"
 3949      365F7400 
 3950 0031 AA000000 		.4byte	0xaa
 3951 0035 75696E74 		.ascii	"uint16_t\000"
 3951      31365F74 
 3951      00
 3952 003e B5000000 		.4byte	0xb5
 3953 0042 696E7433 		.ascii	"int32_t\000"
 3953      325F7400 
 3954 004a C0000000 		.4byte	0xc0
 3955 004e 75696E74 		.ascii	"uint32_t\000"
 3955      33325F74 
 3955      00
 3956 0057 CB000000 		.4byte	0xcb
 3957 005b 626F6F6C 		.ascii	"bool_t\000"
 3957      5F7400
 3958 0062 DD000000 		.4byte	0xdd
 3959 0066 6D73675F 		.ascii	"msg_t\000"
 3959      7400
 3960 006c E8000000 		.4byte	0xe8
 3961 0070 73797374 		.ascii	"systime_t\000"
 3961      696D655F 
 3961      7400
 3962 007a 14010000 		.4byte	0x114
 3963 007e 42617365 		.ascii	"BaseSequentialStreamVMT\000"
 3963      53657175 
 3963      656E7469 
 3963      616C5374 
 3963      7265616D 
 3964 0096 E1010000 		.4byte	0x1e1
 3965 009a 42617365 		.ascii	"BaseSequentialStream\000"
 3965      53657175 
 3965      656E7469 
 3965      616C5374 
 3965      7265616D 
 3966 00af 01020000 		.4byte	0x201
 3967 00b3 42617365 		.ascii	"BaseChannelVMT\000"
 3967      4368616E 
 3967      6E656C56 
 3967      4D5400
 3968 00c2 25030000 		.4byte	0x325
 3969 00c6 42617365 		.ascii	"BaseChannel\000"
 3969      4368616E 
 3969      6E656C00 
 3970 00d2 78040000 		.4byte	0x478
 3971 00d6 73746D33 		.ascii	"stm32_tim_t\000"
ARM GAS  C:\Users\DNIEL~1\AppData\Local\Temp\cchvvOwG.s 			page 73


 3971      325F7469 
 3971      6D5F7400 
 3972 00e2 A5040000 		.4byte	0x4a5
 3973 00e6 70776D73 		.ascii	"pwmstate_t\000"
 3973      74617465 
 3973      5F7400
 3974 00f1 B0040000 		.4byte	0x4b0
 3975 00f5 50574D44 		.ascii	"PWMDriver\000"
 3975      72697665 
 3975      7200
 3976 00ff 14050000 		.4byte	0x514
 3977 0103 70776D63 		.ascii	"pwmcallback_t\000"
 3977      616C6C62 
 3977      61636B5F 
 3977      7400
 3978 0111 37050000 		.4byte	0x537
 3979 0115 70776D6D 		.ascii	"pwmmode_t\000"
 3979      6F64655F 
 3979      7400
 3980 011f 43050000 		.4byte	0x543
 3981 0123 70776D63 		.ascii	"pwmcnt_t\000"
 3981      6E745F74 
 3981      00
 3982 012c 77050000 		.4byte	0x577
 3983 0130 50574D43 		.ascii	"PWMChannelConfig\000"
 3983      68616E6E 
 3983      656C436F 
 3983      6E666967 
 3983      00
 3984 0141 F7050000 		.4byte	0x5f7
 3985 0145 50574D43 		.ascii	"PWMConfig\000"
 3985      6F6E6669 
 3985      6700
 3986 014f BB040000 		.4byte	0x4bb
 3987 0153 50574D44 		.ascii	"PWMDriver\000"
 3987      72697665 
 3987      7200
 3988 015d 19060000 		.4byte	0x619
 3989 0161 5F5F7661 		.ascii	"__va_list\000"
 3989      5F6C6973 
 3989      7400
 3990 016b 0E060000 		.4byte	0x60e
 3991 016f 5F5F676E 		.ascii	"__gnuc_va_list\000"
 3991      75635F76 
 3991      615F6C69 
 3991      737400
 3992 017e 33060000 		.4byte	0x633
 3993 0182 76615F6C 		.ascii	"va_list\000"
 3993      69737400 
 3994 018a 00000000 		.4byte	0x0
 3995              		.section	.debug_aranges,"",%progbits
 3996 0000 7C000000 		.4byte	0x7c
 3997 0004 0200     		.2byte	0x2
 3998 0006 00000000 		.4byte	.Ldebug_info0
 3999 000a 04       		.byte	0x4
 4000 000b 00       		.byte	0x0
 4001 000c 0000     		.2byte	0x0
ARM GAS  C:\Users\DNIEL~1\AppData\Local\Temp\cchvvOwG.s 			page 74


 4002 000e 0000     		.2byte	0x0
 4003 0010 00000000 		.4byte	.LFB118
 4004 0014 1E000000 		.4byte	.LFE118-.LFB118
 4005 0018 00000000 		.4byte	.LFB119
 4006 001c 78000000 		.4byte	.LFE119-.LFB119
 4007 0020 00000000 		.4byte	.LFB121
 4008 0024 0C000000 		.4byte	.LFE121-.LFB121
 4009 0028 00000000 		.4byte	.LFB122
 4010 002c 0C000000 		.4byte	.LFE122-.LFB122
 4011 0030 00000000 		.4byte	.LFB123
 4012 0034 0C000000 		.4byte	.LFE123-.LFB123
 4013 0038 00000000 		.4byte	.LFB124
 4014 003c 2C000000 		.4byte	.LFE124-.LFB124
 4015 0040 00000000 		.4byte	.LFB125
 4016 0044 2C000000 		.4byte	.LFE125-.LFB125
 4017 0048 00000000 		.4byte	.LFB126
 4018 004c 18000000 		.4byte	.LFE126-.LFB126
 4019 0050 00000000 		.4byte	.LFB127
 4020 0054 74010000 		.4byte	.LFE127-.LFB127
 4021 0058 00000000 		.4byte	.LFB120
 4022 005c FC000000 		.4byte	.LFE120-.LFB120
 4023 0060 00000000 		.4byte	.LFB128
 4024 0064 FC000000 		.4byte	.LFE128-.LFB128
 4025 0068 00000000 		.4byte	.LFB129
 4026 006c 00020000 		.4byte	.LFE129-.LFB129
 4027 0070 00000000 		.4byte	.LFB130
 4028 0074 9C000000 		.4byte	.LFE130-.LFB130
 4029 0078 00000000 		.4byte	0x0
 4030 007c 00000000 		.4byte	0x0
 4031              		.section	.debug_ranges,"",%progbits
 4032              	.Ldebug_ranges0:
 4033 0000 AC000000 		.4byte	.LBB10
 4034 0004 AE000000 		.4byte	.LBE10
 4035 0008 B0000000 		.4byte	.LBB13
 4036 000c B2000000 		.4byte	.LBE13
 4037 0010 00000000 		.4byte	0x0
 4038 0014 00000000 		.4byte	0x0
 4039 0018 F4000000 		.4byte	.LBB14
 4040 001c F6000000 		.4byte	.LBE14
 4041 0020 F8000000 		.4byte	.LBB17
 4042 0024 FA000000 		.4byte	.LBE17
 4043 0028 00000000 		.4byte	0x0
 4044 002c 00000000 		.4byte	0x0
 4045 0030 54000000 		.4byte	.LBB18
 4046 0034 56000000 		.4byte	.LBE18
 4047 0038 58000000 		.4byte	.LBB21
 4048 003c 5A000000 		.4byte	.LBE21
 4049 0040 00000000 		.4byte	0x0
 4050 0044 00000000 		.4byte	0x0
 4051 0048 64000000 		.4byte	.LBB22
 4052 004c 66000000 		.4byte	.LBE22
 4053 0050 68000000 		.4byte	.LBB25
 4054 0054 6A000000 		.4byte	.LBE25
 4055 0058 00000000 		.4byte	0x0
 4056 005c 00000000 		.4byte	0x0
 4057 0060 00000000 		.4byte	.LFB118
 4058 0064 1E000000 		.4byte	.LFE118
ARM GAS  C:\Users\DNIEL~1\AppData\Local\Temp\cchvvOwG.s 			page 75


 4059 0068 00000000 		.4byte	.LFB119
 4060 006c 78000000 		.4byte	.LFE119
 4061 0070 00000000 		.4byte	.LFB121
 4062 0074 0C000000 		.4byte	.LFE121
 4063 0078 00000000 		.4byte	.LFB122
 4064 007c 0C000000 		.4byte	.LFE122
 4065 0080 00000000 		.4byte	.LFB123
 4066 0084 0C000000 		.4byte	.LFE123
 4067 0088 00000000 		.4byte	.LFB124
 4068 008c 2C000000 		.4byte	.LFE124
 4069 0090 00000000 		.4byte	.LFB125
 4070 0094 2C000000 		.4byte	.LFE125
 4071 0098 00000000 		.4byte	.LFB126
 4072 009c 18000000 		.4byte	.LFE126
 4073 00a0 00000000 		.4byte	.LFB127
 4074 00a4 74010000 		.4byte	.LFE127
 4075 00a8 00000000 		.4byte	.LFB120
 4076 00ac FC000000 		.4byte	.LFE120
 4077 00b0 00000000 		.4byte	.LFB128
 4078 00b4 FC000000 		.4byte	.LFE128
 4079 00b8 00000000 		.4byte	.LFB129
 4080 00bc 00020000 		.4byte	.LFE129
 4081 00c0 00000000 		.4byte	.LFB130
 4082 00c4 9C000000 		.4byte	.LFE130
 4083 00c8 00000000 		.4byte	0x0
 4084 00cc 00000000 		.4byte	0x0
 4085              		.section	.debug_str,"MS",%progbits,1
 4086              	.LASF31:
 4087 0000 44494552 		.ascii	"DIER\000"
 4087      00
 4088              	.LASF10:
 4089 0005 73697A65 		.ascii	"size_t\000"
 4089      5F7400
 4090              	.LASF77:
 4091 000c 63727569 		.ascii	"cruiseCalc\000"
 4091      73654361 
 4091      6C6300
 4092              	.LASF82:
 4093 0017 737A616D 		.ascii	"szam\000"
 4093      00
 4094              	.LASF91:
 4095 001c 4D41585F 		.ascii	"MAX_D\000"
 4095      4400
 4096              	.LASF37:
 4097 0022 43434D52 		.ascii	"CCMR3\000"
 4097      3300
 4098              	.LASF48:
 4099 0028 70657269 		.ascii	"period\000"
 4099      6F6400
 4100              	.LASF6:
 4101 002f 6C6F6E67 		.ascii	"long long unsigned int\000"
 4101      206C6F6E 
 4101      6720756E 
 4101      7369676E 
 4101      65642069 
 4102              	.LASF24:
 4103 0046 42617365 		.ascii	"BaseChannelVMT\000"
ARM GAS  C:\Users\DNIEL~1\AppData\Local\Temp\cchvvOwG.s 			page 76


 4103      4368616E 
 4103      6E656C56 
 4103      4D5400
 4104              	.LASF39:
 4105 0055 43435236 		.ascii	"CCR6\000"
 4105      00
 4106              	.LASF85:
 4107 005a 49544D5F 		.ascii	"ITM_RxBuffer\000"
 4107      52784275 
 4107      66666572 
 4107      00
 4108              	.LASF35:
 4109 0067 42445452 		.ascii	"BDTR\000"
 4109      00
 4110              	.LASF56:
 4111 006c 66726571 		.ascii	"frequency\000"
 4111      75656E63 
 4111      7900
 4112              	.LASF43:
 4113 0076 50574D5F 		.ascii	"PWM_READY\000"
 4113      52454144 
 4113      5900
 4114              	.LASF28:
 4115 0080 72656164 		.ascii	"readt\000"
 4115      7400
 4116              	.LASF12:
 4117 0086 696E7431 		.ascii	"int16_t\000"
 4117      365F7400 
 4118              	.LASF33:
 4119 008e 43434D52 		.ascii	"CCMR2\000"
 4119      3200
 4120              	.LASF5:
 4121 0094 6C6F6E67 		.ascii	"long long int\000"
 4121      206C6F6E 
 4121      6720696E 
 4121      7400
 4122              	.LASF0:
 4123 00a2 7369676E 		.ascii	"signed char\000"
 4123      65642063 
 4123      68617200 
 4124              	.LASF40:
 4125 00ae 73746D33 		.ascii	"stm32_tim_t\000"
 4125      325F7469 
 4125      6D5F7400 
 4126              	.LASF16:
 4127 00ba 626F6F6C 		.ascii	"bool_t\000"
 4127      5F7400
 4128              	.LASF97:
 4129 00c1 433A5C44 		.ascii	"C:\\Dani\\MegaLux\\Repo\\Smarty\\Smarty\\smarty\\fi"
 4129      616E695C 
 4129      4D656761 
 4129      4C75785C 
 4129      5265706F 
 4130 00ed 726D7761 		.ascii	"rmware\000"
 4130      726500
 4131              	.LASF46:
 4132 00f4 73746174 		.ascii	"state\000"
ARM GAS  C:\Users\DNIEL~1\AppData\Local\Temp\cchvvOwG.s 			page 77


 4132      6500
 4133              	.LASF57:
 4134 00fa 6368616E 		.ascii	"channels\000"
 4134      6E656C73 
 4134      00
 4135              	.LASF7:
 4136 0103 6C6F6E67 		.ascii	"long int\000"
 4136      20696E74 
 4136      00
 4137              	.LASF26:
 4138 010c 67657474 		.ascii	"gett\000"
 4138      00
 4139              	.LASF61:
 4140 0111 5F5F7661 		.ascii	"__va_list\000"
 4140      5F6C6973 
 4140      7400
 4141              	.LASF34:
 4142 011b 43434552 		.ascii	"CCER\000"
 4142      00
 4143              	.LASF13:
 4144 0120 75696E74 		.ascii	"uint16_t\000"
 4144      31365F74 
 4144      00
 4145              	.LASF86:
 4146 0129 50574D44 		.ascii	"PWMD5\000"
 4146      3500
 4147              	.LASF63:
 4148 012f 63727569 		.ascii	"cruiseEnable\000"
 4148      7365456E 
 4148      61626C65 
 4148      00
 4149              	.LASF62:
 4150 013c 76615F6C 		.ascii	"va_list\000"
 4150      69737400 
 4151              	.LASF22:
 4152 0144 42617365 		.ascii	"BaseSequentialStream\000"
 4152      53657175 
 4152      656E7469 
 4152      616C5374 
 4152      7265616D 
 4153              	.LASF4:
 4154 0159 756E7369 		.ascii	"unsigned int\000"
 4154      676E6564 
 4154      20696E74 
 4154      00
 4155              	.LASF93:
 4156 0166 63727569 		.ascii	"cruise_on\000"
 4156      73655F6F 
 4156      6E00
 4157              	.LASF8:
 4158 0170 6C6F6E67 		.ascii	"long unsigned int\000"
 4158      20756E73 
 4158      69676E65 
 4158      6420696E 
 4158      7400
 4159              	.LASF94:
 4160 0182 63727569 		.ascii	"cruise_pwmcfg\000"
ARM GAS  C:\Users\DNIEL~1\AppData\Local\Temp\cchvvOwG.s 			page 78


 4160      73655F70 
 4160      776D6366 
 4160      6700
 4161              	.LASF88:
 4162 0190 4D494E5F 		.ascii	"MIN_U\000"
 4162      5500
 4163              	.LASF83:
 4164 0196 636D645F 		.ascii	"cmd_cruise\000"
 4164      63727569 
 4164      736500
 4165              	.LASF51:
 4166 01a1 70776D6D 		.ascii	"pwmmode_t\000"
 4166      6F64655F 
 4166      7400
 4167              	.LASF69:
 4168 01ab 63727569 		.ascii	"cruiseGet\000"
 4168      73654765 
 4168      7400
 4169              	.LASF75:
 4170 01b5 4D617844 		.ascii	"MaxD\000"
 4170      00
 4171              	.LASF3:
 4172 01ba 73686F72 		.ascii	"short unsigned int\000"
 4172      7420756E 
 4172      7369676E 
 4172      65642069 
 4172      6E7400
 4173              	.LASF74:
 4174 01cd 4D617849 		.ascii	"MaxI\000"
 4174      00
 4175              	.LASF81:
 4176 01d2 636D645F 		.ascii	"cmd_setcruisevalues\000"
 4176      73657463 
 4176      72756973 
 4176      6576616C 
 4176      75657300 
 4177              	.LASF18:
 4178 01e6 6D73675F 		.ascii	"msg_t\000"
 4178      7400
 4179              	.LASF90:
 4180 01ec 4D41585F 		.ascii	"MAX_I\000"
 4180      4900
 4181              	.LASF54:
 4182 01f2 63616C6C 		.ascii	"callback\000"
 4182      6261636B 
 4182      00
 4183              	.LASF27:
 4184 01fb 77726974 		.ascii	"writet\000"
 4184      657400
 4185              	.LASF89:
 4186 0202 4D41585F 		.ascii	"MAX_P\000"
 4186      5000
 4187              	.LASF87:
 4188 0208 4D41585F 		.ascii	"MAX_U\000"
 4188      5500
 4189              	.LASF64:
 4190 020e 63727569 		.ascii	"cruiseDisable\000"
ARM GAS  C:\Users\DNIEL~1\AppData\Local\Temp\cchvvOwG.s 			page 79


 4190      73654469 
 4190      7361626C 
 4190      6500
 4191              	.LASF20:
 4192 021c 77726974 		.ascii	"write\000"
 4192      6500
 4193              	.LASF25:
 4194 0222 70757474 		.ascii	"putt\000"
 4194      00
 4195              	.LASF84:
 4196 0227 4552524F 		.ascii	"ERROR\000"
 4196      5200
 4197              	.LASF66:
 4198 022d 63727569 		.ascii	"cruiseIncrease\000"
 4198      7365496E 
 4198      63726561 
 4198      736500
 4199              	.LASF60:
 4200 023c 5F5F676E 		.ascii	"__gnuc_va_list\000"
 4200      75635F76 
 4200      615F6C69 
 4200      737400
 4201              	.LASF73:
 4202 024b 4D617850 		.ascii	"MaxP\000"
 4202      00
 4203              	.LASF71:
 4204 0250 4D617855 		.ascii	"MaxU\000"
 4204      00
 4205              	.LASF96:
 4206 0255 7372632F 		.ascii	"src/cruise.c\000"
 4206      63727569 
 4206      73652E63 
 4206      00
 4207              	.LASF70:
 4208 0262 496E7075 		.ascii	"Input\000"
 4208      7400
 4209              	.LASF50:
 4210 0268 70776D63 		.ascii	"pwmcallback_t\000"
 4210      616C6C62 
 4210      61636B5F 
 4210      7400
 4211              	.LASF17:
 4212 0276 5F426F6F 		.ascii	"_Bool\000"
 4212      6C00
 4213              	.LASF14:
 4214 027c 696E7433 		.ascii	"int32_t\000"
 4214      325F7400 
 4215              	.LASF1:
 4216 0284 756E7369 		.ascii	"unsigned char\000"
 4216      676E6564 
 4216      20636861 
 4216      7200
 4217              	.LASF72:
 4218 0292 4D696E55 		.ascii	"MinU\000"
 4218      00
 4219              	.LASF76:
 4220 0297 63727569 		.ascii	"cruiseInit\000"
ARM GAS  C:\Users\DNIEL~1\AppData\Local\Temp\cchvvOwG.s 			page 80


 4220      7365496E 
 4220      697400
 4221              	.LASF2:
 4222 02a2 73686F72 		.ascii	"short int\000"
 4222      7420696E 
 4222      7400
 4223              	.LASF23:
 4224 02ac 42617365 		.ascii	"BaseSequentialStreamVMT\000"
 4224      53657175 
 4224      656E7469 
 4224      616C5374 
 4224      7265616D 
 4225              	.LASF78:
 4226 02c4 636D645F 		.ascii	"cmd_cruisevalues\000"
 4226      63727569 
 4226      73657661 
 4226      6C756573 
 4226      00
 4227              	.LASF15:
 4228 02d5 75696E74 		.ascii	"uint32_t\000"
 4228      33325F74 
 4228      00
 4229              	.LASF67:
 4230 02de 63727569 		.ascii	"cruiseReduction\000"
 4230      73655265 
 4230      64756374 
 4230      696F6E00 
 4231              	.LASF59:
 4232 02ee 50574D43 		.ascii	"PWMConfig\000"
 4232      6F6E6669 
 4232      6700
 4233              	.LASF42:
 4234 02f8 50574D5F 		.ascii	"PWM_STOP\000"
 4234      53544F50 
 4234      00
 4235              	.LASF9:
 4236 0301 63686172 		.ascii	"char\000"
 4236      00
 4237              	.LASF53:
 4238 0306 6D6F6465 		.ascii	"mode\000"
 4238      00
 4239              	.LASF30:
 4240 030b 534D4352 		.ascii	"SMCR\000"
 4240      00
 4241              	.LASF47:
 4242 0310 636F6E66 		.ascii	"config\000"
 4242      696700
 4243              	.LASF36:
 4244 0317 444D4152 		.ascii	"DMAR\000"
 4244      00
 4245              	.LASF19:
 4246 031c 73797374 		.ascii	"systime_t\000"
 4246      696D655F 
 4246      7400
 4247              	.LASF98:
 4248 0326 5F5F6170 		.ascii	"__ap\000"
 4248      00
ARM GAS  C:\Users\DNIEL~1\AppData\Local\Temp\cchvvOwG.s 			page 81


 4249              	.LASF32:
 4250 032b 43434D52 		.ascii	"CCMR1\000"
 4250      3100
 4251              	.LASF55:
 4252 0331 50574D43 		.ascii	"PWMChannelConfig\000"
 4252      68616E6E 
 4252      656C436F 
 4252      6E666967 
 4252      00
 4253              	.LASF38:
 4254 0342 43435235 		.ascii	"CCR5\000"
 4254      00
 4255              	.LASF92:
 4256 0347 65656C6F 		.ascii	"eelozo\000"
 4256      7A6F00
 4257              	.LASF11:
 4258 034e 75696E74 		.ascii	"uint8_t\000"
 4258      385F7400 
 4259              	.LASF45:
 4260 0356 50574D44 		.ascii	"PWMDriver\000"
 4260      72697665 
 4260      7200
 4261              	.LASF29:
 4262 0360 42617365 		.ascii	"BaseChannel\000"
 4262      4368616E 
 4262      6E656C00 
 4263              	.LASF44:
 4264 036c 70776D73 		.ascii	"pwmstate_t\000"
 4264      74617465 
 4264      5F7400
 4265              	.LASF52:
 4266 0377 70776D63 		.ascii	"pwmcnt_t\000"
 4266      6E745F74 
 4266      00
 4267              	.LASF21:
 4268 0380 72656164 		.ascii	"read\000"
 4268      00
 4269              	.LASF95:
 4270 0385 474E5520 		.ascii	"GNU C 4.5.2\000"
 4270      4320342E 
 4270      352E3200 
 4271              	.LASF68:
 4272 0391 63727569 		.ascii	"cruiseStatus\000"
 4272      73655374 
 4272      61747573 
 4272      00
 4273              	.LASF79:
 4274 039e 61726763 		.ascii	"argc\000"
 4274      00
 4275              	.LASF49:
 4276 03a3 636C6F63 		.ascii	"clock\000"
 4276      6B00
 4277              	.LASF80:
 4278 03a9 61726776 		.ascii	"argv\000"
 4278      00
 4279              	.LASF100:
 4280 03ae 63727569 		.ascii	"cruisePID\000"
ARM GAS  C:\Users\DNIEL~1\AppData\Local\Temp\cchvvOwG.s 			page 82


 4280      73655049 
 4280      4400
 4281              	.LASF41:
 4282 03b8 50574D5F 		.ascii	"PWM_UNINIT\000"
 4282      554E494E 
 4282      495400
 4283              	.LASF65:
 4284 03c3 646F7562 		.ascii	"double\000"
 4284      6C6500
 4285              	.LASF58:
 4286 03ca 64696572 		.ascii	"dier\000"
 4286      00
 4287              	.LASF99:
 4288 03cf 63687072 		.ascii	"chprintf\000"
 4288      696E7466 
 4288      00
 4289              		.ident	"GCC: (Sourcery G++ Lite 2011.03-42) 4.5.2"
ARM GAS  C:\Users\DNIEL~1\AppData\Local\Temp\cchvvOwG.s 			page 83


DEFINED SYMBOLS
                            *ABS*:00000000 cruise.c
C:\Users\DNIEL~1\AppData\Local\Temp\cchvvOwG.s:24     .text.chprintf:00000000 $t
C:\Users\DNIEL~1\AppData\Local\Temp\cchvvOwG.s:29     .text.chprintf:00000000 chprintf
C:\Users\DNIEL~1\AppData\Local\Temp\cchvvOwG.s:69     .text.cruiseInit:00000000 $t
C:\Users\DNIEL~1\AppData\Local\Temp\cchvvOwG.s:75     .text.cruiseInit:00000000 cruiseInit
C:\Users\DNIEL~1\AppData\Local\Temp\cchvvOwG.s:136    .text.cruiseInit:0000004c $d
C:\Users\DNIEL~1\AppData\Local\Temp\cchvvOwG.s:151    .text.cruiseEnable:00000000 $t
C:\Users\DNIEL~1\AppData\Local\Temp\cchvvOwG.s:157    .text.cruiseEnable:00000000 cruiseEnable
C:\Users\DNIEL~1\AppData\Local\Temp\cchvvOwG.s:173    .text.cruiseEnable:00000008 $d
C:\Users\DNIEL~1\AppData\Local\Temp\cchvvOwG.s:178    .text.cruiseDisable:00000000 $t
C:\Users\DNIEL~1\AppData\Local\Temp\cchvvOwG.s:184    .text.cruiseDisable:00000000 cruiseDisable
C:\Users\DNIEL~1\AppData\Local\Temp\cchvvOwG.s:200    .text.cruiseDisable:00000008 $d
C:\Users\DNIEL~1\AppData\Local\Temp\cchvvOwG.s:205    .text.cruiseStatus:00000000 $t
C:\Users\DNIEL~1\AppData\Local\Temp\cchvvOwG.s:211    .text.cruiseStatus:00000000 cruiseStatus
C:\Users\DNIEL~1\AppData\Local\Temp\cchvvOwG.s:226    .text.cruiseStatus:00000008 $d
C:\Users\DNIEL~1\AppData\Local\Temp\cchvvOwG.s:234    .text.cruiseIncrease:00000000 $t
C:\Users\DNIEL~1\AppData\Local\Temp\cchvvOwG.s:240    .text.cruiseIncrease:00000000 cruiseIncrease
C:\Users\DNIEL~1\AppData\Local\Temp\cchvvOwG.s:278    .text.cruiseIncrease:00000028 $d
C:\Users\DNIEL~1\AppData\Local\Temp\cchvvOwG.s:284    .text.cruiseReduction:00000000 $t
C:\Users\DNIEL~1\AppData\Local\Temp\cchvvOwG.s:290    .text.cruiseReduction:00000000 cruiseReduction
C:\Users\DNIEL~1\AppData\Local\Temp\cchvvOwG.s:326    .text.cruiseReduction:00000028 $d
C:\Users\DNIEL~1\AppData\Local\Temp\cchvvOwG.s:331    .text.cruiseGet:00000000 $t
C:\Users\DNIEL~1\AppData\Local\Temp\cchvvOwG.s:337    .text.cruiseGet:00000000 cruiseGet
C:\Users\DNIEL~1\AppData\Local\Temp\cchvvOwG.s:359    .text.cruiseGet:00000014 $d
C:\Users\DNIEL~1\AppData\Local\Temp\cchvvOwG.s:367    .text.cruisePID:00000000 $t
C:\Users\DNIEL~1\AppData\Local\Temp\cchvvOwG.s:373    .text.cruisePID:00000000 cruisePID
C:\Users\DNIEL~1\AppData\Local\Temp\cchvvOwG.s:571    .text.cruisePID:00000160 $d
C:\Users\DNIEL~1\AppData\Local\Temp\cchvvOwG.s:580    .text.cruiseCalc:00000000 $t
C:\Users\DNIEL~1\AppData\Local\Temp\cchvvOwG.s:586    .text.cruiseCalc:00000000 cruiseCalc
C:\Users\DNIEL~1\AppData\Local\Temp\cchvvOwG.s:689    .text.cruiseCalc:000000c0 $d
C:\Users\DNIEL~1\AppData\Local\Temp\cchvvOwG.s:708    .text.cmd_cruisevalues:00000000 $t
C:\Users\DNIEL~1\AppData\Local\Temp\cchvvOwG.s:714    .text.cmd_cruisevalues:00000000 cmd_cruisevalues
C:\Users\DNIEL~1\AppData\Local\Temp\cchvvOwG.s:821    .text.cmd_cruisevalues:000000b8 $d
C:\Users\DNIEL~1\AppData\Local\Temp\cchvvOwG.s:842    .text.cmd_setcruisevalues:00000000 $t
C:\Users\DNIEL~1\AppData\Local\Temp\cchvvOwG.s:848    .text.cmd_setcruisevalues:00000000 cmd_setcruisevalues
C:\Users\DNIEL~1\AppData\Local\Temp\cchvvOwG.s:1125   .text.cmd_setcruisevalues:00000198 $d
C:\Users\DNIEL~1\AppData\Local\Temp\cchvvOwG.s:1155   .text.cmd_cruise:00000000 $t
C:\Users\DNIEL~1\AppData\Local\Temp\cchvvOwG.s:1161   .text.cmd_cruise:00000000 cmd_cruise
C:\Users\DNIEL~1\AppData\Local\Temp\cchvvOwG.s:1270   .text.cmd_cruise:00000074 $d
C:\Users\DNIEL~1\AppData\Local\Temp\cchvvOwG.s:1284   .bss.P:00000000 $d
C:\Users\DNIEL~1\AppData\Local\Temp\cchvvOwG.s:1288   .bss.P:00000000 P
C:\Users\DNIEL~1\AppData\Local\Temp\cchvvOwG.s:1291   .data.K_D:00000000 $d
C:\Users\DNIEL~1\AppData\Local\Temp\cchvvOwG.s:1295   .data.K_D:00000000 K_D
C:\Users\DNIEL~1\AppData\Local\Temp\cchvvOwG.s:1298   .bss.set:00000000 $d
C:\Users\DNIEL~1\AppData\Local\Temp\cchvvOwG.s:1302   .bss.set:00000000 set
C:\Users\DNIEL~1\AppData\Local\Temp\cchvvOwG.s:1305   .data.K_I:00000000 $d
C:\Users\DNIEL~1\AppData\Local\Temp\cchvvOwG.s:1309   .data.K_I:00000000 K_I
C:\Users\DNIEL~1\AppData\Local\Temp\cchvvOwG.s:1312   .rodata.str1.4:00000000 $d
C:\Users\DNIEL~1\AppData\Local\Temp\cchvvOwG.s:1380   .bss.pwm:00000000 $d
C:\Users\DNIEL~1\AppData\Local\Temp\cchvvOwG.s:1384   .bss.pwm:00000000 pwm
C:\Users\DNIEL~1\AppData\Local\Temp\cchvvOwG.s:1387   .data.cruise_pwmcfg:00000000 $d
C:\Users\DNIEL~1\AppData\Local\Temp\cchvvOwG.s:1391   .data.cruise_pwmcfg:00000000 cruise_pwmcfg
C:\Users\DNIEL~1\AppData\Local\Temp\cchvvOwG.s:1407   .data.K_P:00000000 $d
C:\Users\DNIEL~1\AppData\Local\Temp\cchvvOwG.s:1411   .data.K_P:00000000 K_P
C:\Users\DNIEL~1\AppData\Local\Temp\cchvvOwG.s:1417   .bss.cruise_on:00000000 cruise_on
C:\Users\DNIEL~1\AppData\Local\Temp\cchvvOwG.s:1418   .bss.cruise_on:00000000 $d
ARM GAS  C:\Users\DNIEL~1\AppData\Local\Temp\cchvvOwG.s 			page 84


C:\Users\DNIEL~1\AppData\Local\Temp\cchvvOwG.s:1420   .bss.D:00000000 $d
C:\Users\DNIEL~1\AppData\Local\Temp\cchvvOwG.s:1424   .bss.D:00000000 D
C:\Users\DNIEL~1\AppData\Local\Temp\cchvvOwG.s:1427   .bss.e:00000000 $d
C:\Users\DNIEL~1\AppData\Local\Temp\cchvvOwG.s:1431   .bss.e:00000000 e
C:\Users\DNIEL~1\AppData\Local\Temp\cchvvOwG.s:1434   .bss.eelozo:00000000 $d
C:\Users\DNIEL~1\AppData\Local\Temp\cchvvOwG.s:1438   .bss.eelozo:00000000 eelozo
C:\Users\DNIEL~1\AppData\Local\Temp\cchvvOwG.s:1441   .bss.I:00000000 $d
C:\Users\DNIEL~1\AppData\Local\Temp\cchvvOwG.s:1445   .bss.I:00000000 I
                     .debug_frame:00000010 $d
C:\Users\DNIEL~1\AppData\Local\Temp\cchvvOwG.s:150    .text.cruiseInit:00000078 $t
C:\Users\DNIEL~1\AppData\Local\Temp\cchvvOwG.s:177    .text.cruiseEnable:0000000c $t
C:\Users\DNIEL~1\AppData\Local\Temp\cchvvOwG.s:204    .text.cruiseDisable:0000000c $t
C:\Users\DNIEL~1\AppData\Local\Temp\cchvvOwG.s:233    .text.cruiseStatus:0000000c $t
C:\Users\DNIEL~1\AppData\Local\Temp\cchvvOwG.s:283    .text.cruiseIncrease:0000002c $t
C:\Users\DNIEL~1\AppData\Local\Temp\cchvvOwG.s:330    .text.cruiseReduction:0000002c $t
C:\Users\DNIEL~1\AppData\Local\Temp\cchvvOwG.s:366    .text.cruiseGet:00000018 $t
C:\Users\DNIEL~1\AppData\Local\Temp\cchvvOwG.s:579    .text.cruisePID:00000174 $t
C:\Users\DNIEL~1\AppData\Local\Temp\cchvvOwG.s:707    .text.cruiseCalc:000000fc $t
C:\Users\DNIEL~1\AppData\Local\Temp\cchvvOwG.s:841    .text.cmd_cruisevalues:000000fc $t
C:\Users\DNIEL~1\AppData\Local\Temp\cchvvOwG.s:1283   .text.cmd_cruise:0000009c $t

UNDEFINED SYMBOLS
chvprintf
speedKMPH_TO_RPM
pwmStart
PWMD5
__aeabi_i2d
__aeabi_dadd
__aeabi_d2iz
__aeabi_dsub
speedRPM_TO_KMPH
__aeabi_dmul
__aeabi_dcmpgt
__aeabi_dcmplt
pwmEnableChannel
speedGetRpm
chThdSleep
strcmp
atol
