ARM GAS  C:\Users\DNIEL~1\AppData\Local\Temp\ccahiECR.s 			page 1


   1              		.syntax unified
   2              		.cpu cortex-m4
   3              		.fpu softvfp
   4              		.eabi_attribute 20, 1
   5              		.eabi_attribute 21, 1
   6              		.eabi_attribute 23, 3
   7              		.eabi_attribute 24, 1
   8              		.eabi_attribute 25, 1
   9              		.eabi_attribute 26, 1
  10              		.eabi_attribute 30, 2
  11              		.eabi_attribute 18, 4
  12              		.thumb
  13              		.file	"cruise.c"
  14              		.section	.debug_abbrev,"",%progbits
  15              	.Ldebug_abbrev0:
  16              		.section	.debug_info,"",%progbits
  17              	.Ldebug_info0:
  18              		.section	.debug_line,"",%progbits
  19              	.Ldebug_line0:
  20 0000 61040000 		.text
  20      02008602 
  20      00000201 
  20      FB0E0D00 
  20      01010101 
  21              	.Ltext0:
  22              		.cfi_sections	.debug_frame
  23              		.section	.text.chprintf,"ax",%progbits
  24              		.align	2
  25              		.p2align 4,,15
  26              		.thumb
  27              		.thumb_func
  28              		.type	chprintf, %function
  29              	chprintf:
  30              	.LFB118:
  31              		.file 1 "../../../ChibiOS/os/various/chprintf.h"
  32              		.loc 1 69 0
  33              		.cfi_startproc
  34              		@ args = 4, pretend = 12, frame = 8
  35              		@ frame_needed = 0, uses_anonymous_args = 1
  36              	.LVL0:
  37 0000 0EB4     		push	{r1, r2, r3}
  38              	.LCFI0:
  39              		.cfi_def_cfa_offset 12
  40 0002 00B5     		push	{lr}
  41              	.LCFI1:
  42              		.cfi_def_cfa_offset 16
  43 0004 82B0     		sub	sp, sp, #8
  44              	.LCFI2:
  45              		.cfi_def_cfa_offset 24
  46              		.loc 1 69 0
  47 0006 03AB     		add	r3, sp, #12
  48              		.cfi_offset 14, -16
  49              		.cfi_offset 3, -4
  50              		.cfi_offset 2, -8
  51              		.cfi_offset 1, -12
  52 0008 53F8041B 		ldr	r1, [r3], #4
  53              		.loc 1 73 0
ARM GAS  C:\Users\DNIEL~1\AppData\Local\Temp\ccahiECR.s 			page 2


  54 000c 1A46     		mov	r2, r3
  55              		.loc 1 72 0
  56 000e 0193     		str	r3, [sp, #4]
  57              		.loc 1 73 0
  58 0010 FFF7FEFF 		bl	chvprintf
  59              	.LVL1:
  60              		.loc 1 75 0
  61 0014 02B0     		add	sp, sp, #8
  62 0016 5DF804EB 		pop	{lr}
  63 001a 03B0     		add	sp, sp, #12
  64 001c 7047     		bx	lr
  65              		.cfi_endproc
  66              	.LFE118:
  67              		.size	chprintf, .-chprintf
  68 001e 00BF     		.section	.text.cruiseInit,"ax",%progbits
  69              		.align	2
  70              		.p2align 4,,15
  71              		.global	cruiseInit
  72              		.thumb
  73              		.thumb_func
  74              		.type	cruiseInit, %function
  75              	cruiseInit:
  76              	.LFB119:
  77              		.file 2 "src/cruise.c"
  78              		.loc 2 48 0
  79              		.cfi_startproc
  80              		@ args = 0, pretend = 0, frame = 0
  81              		@ frame_needed = 0, uses_anonymous_args = 0
  82              		@ link register save eliminated.
  83 0000 30B4     		push	{r4, r5}
  84              	.LCFI3:
  85              		.cfi_def_cfa_offset 8
  86              		.loc 2 49 0
  87 0002 104C     		ldr	r4, .L3
  88              		.cfi_offset 5, -4
  89              		.cfi_offset 4, -8
  90              		.loc 2 61 0
  91 0004 1048     		ldr	r0, .L3+4
  92 0006 1149     		ldr	r1, .L3+8
  93              		.loc 2 49 0
  94 0008 42F21075 		movw	r5, #10000
  95 000c 2560     		str	r5, [r4, #0]
  96              		.loc 2 51 0
  97 000e 104C     		ldr	r4, .L3+12
  98 0010 0022     		movs	r2, #0
  99 0012 0023     		movs	r3, #0
 100 0014 C4E90023 		strd	r2, [r4]
 101              		.loc 2 53 0
 102 0018 0E4C     		ldr	r4, .L3+16
 103 001a C4E90023 		strd	r2, [r4]
 104              		.loc 2 54 0
 105 001e 0E4C     		ldr	r4, .L3+20
 106 0020 C4E90023 		strd	r2, [r4]
 107              		.loc 2 55 0
 108 0024 0D4C     		ldr	r4, .L3+24
 109 0026 C4E90023 		strd	r2, [r4]
 110              		.loc 2 56 0
ARM GAS  C:\Users\DNIEL~1\AppData\Local\Temp\ccahiECR.s 			page 3


 111 002a 0D4C     		ldr	r4, .L3+28
 112 002c C4E90023 		strd	r2, [r4]
 113              		.loc 2 57 0
 114 0030 0C4C     		ldr	r4, .L3+32
 115 0032 C4E90023 		strd	r2, [r4]
 116              		.loc 2 59 0
 117 0036 0C4B     		ldr	r3, .L3+36
 118 0038 4FF4FA72 		mov	r2, #500
 119 003c 1A60     		str	r2, [r3, #0]
 120              		.loc 2 62 0
 121 003e 30BC     		pop	{r4, r5}
 122              		.loc 2 61 0
 123 0040 FFF7FEBF 		b	pwmStart
 124              	.L4:
 125              		.align	2
 126              	.L3:
 127 0044 00000000 		.word	.LANCHOR0
 128 0048 00000000 		.word	PWMD5
 129 004c 00000000 		.word	.LANCHOR8
 130 0050 00000000 		.word	.LANCHOR1
 131 0054 00000000 		.word	.LANCHOR2
 132 0058 00000000 		.word	.LANCHOR3
 133 005c 00000000 		.word	.LANCHOR4
 134 0060 00000000 		.word	.LANCHOR5
 135 0064 00000000 		.word	.LANCHOR6
 136 0068 00000000 		.word	.LANCHOR7
 137              		.cfi_endproc
 138              	.LFE119:
 139              		.size	cruiseInit, .-cruiseInit
 140 006c AFF30080 		.section	.text.cruiseEnable,"ax",%progbits
 141              		.align	2
 142              		.p2align 4,,15
 143              		.global	cruiseEnable
 144              		.thumb
 145              		.thumb_func
 146              		.type	cruiseEnable, %function
 147              	cruiseEnable:
 148              	.LFB121:
 149              		.loc 2 86 0
 150              		.cfi_startproc
 151              		@ args = 0, pretend = 0, frame = 0
 152              		@ frame_needed = 0, uses_anonymous_args = 0
 153              		@ link register save eliminated.
 154              		.loc 2 87 0
 155 0000 024B     		ldr	r3, .L6
 156 0002 0349     		ldr	r1, .L6+4
 157 0004 0022     		movs	r2, #0
 158 0006 C1E90023 		strd	r2, [r1]
 159              		.loc 2 88 0
 160 000a 7047     		bx	lr
 161              	.L7:
 162              		.align	2
 163              	.L6:
 164 000c 0000F03F 		.word	1072693248
 165 0010 00000000 		.word	.LANCHOR1
 166              		.cfi_endproc
 167              	.LFE121:
ARM GAS  C:\Users\DNIEL~1\AppData\Local\Temp\ccahiECR.s 			page 4


 168              		.size	cruiseEnable, .-cruiseEnable
 169 0014 AFF30080 		.section	.text.cruiseDisable,"ax",%progbits
 169      AFF30080 
 169      AFF30080 
 170              		.align	2
 171              		.p2align 4,,15
 172              		.global	cruiseDisable
 173              		.thumb
 174              		.thumb_func
 175              		.type	cruiseDisable, %function
 176              	cruiseDisable:
 177              	.LFB122:
 178              		.loc 2 90 0
 179              		.cfi_startproc
 180              		@ args = 0, pretend = 0, frame = 0
 181              		@ frame_needed = 0, uses_anonymous_args = 0
 182              		@ link register save eliminated.
 183              		.loc 2 91 0
 184 0000 0249     		ldr	r1, .L9
 185 0002 0022     		movs	r2, #0
 186 0004 0023     		movs	r3, #0
 187 0006 C1E90023 		strd	r2, [r1]
 188              		.loc 2 92 0
 189 000a 7047     		bx	lr
 190              	.L10:
 191              		.align	2
 192              	.L9:
 193 000c 00000000 		.word	.LANCHOR1
 194              		.cfi_endproc
 195              	.LFE122:
 196              		.size	cruiseDisable, .-cruiseDisable
 197              		.global	__aeabi_i2d
 198              		.global	__aeabi_dmul
 199              		.global	__aeabi_dcmpgt
 200              		.global	__aeabi_dcmplt
 201              		.global	__aeabi_dadd
 202              		.global	__aeabi_dsub
 203              		.global	__aeabi_d2iz
 204              		.section	.text.cruisePID,"ax",%progbits
 205              		.align	2
 206              		.p2align 4,,15
 207              		.global	cruisePID
 208              		.thumb
 209              		.thumb_func
 210              		.type	cruisePID, %function
 211              	cruisePID:
 212              	.LFB123:
 213              		.loc 2 95 0
 214              		.cfi_startproc
 215              		@ args = 36, pretend = 0, frame = 16
 216              		@ frame_needed = 0, uses_anonymous_args = 0
 217              	.LVL2:
 218 0000 2DE9F04F 		push	{r4, r5, r6, r7, r8, r9, sl, fp, lr}
 219              	.LCFI4:
 220              		.cfi_def_cfa_offset 36
 221 0004 85B0     		sub	sp, sp, #20
 222              	.LCFI5:
ARM GAS  C:\Users\DNIEL~1\AppData\Local\Temp\ccahiECR.s 			page 5


 223              		.cfi_def_cfa_offset 56
 224              		.loc 2 98 0
 225 0006 081A     		subs	r0, r1, r0
 226              	.LVL3:
 227              		.loc 2 95 0
 228 0008 0292     		str	r2, [sp, #8]
 229 000a 0393     		str	r3, [sp, #12]
 230              		.loc 2 98 0
 231              		.cfi_offset 14, -4
 232              		.cfi_offset 11, -8
 233              		.cfi_offset 10, -12
 234              		.cfi_offset 9, -16
 235              		.cfi_offset 8, -20
 236              		.cfi_offset 7, -24
 237              		.cfi_offset 6, -28
 238              		.cfi_offset 5, -32
 239              		.cfi_offset 4, -36
 240 000c FFF7FEFF 		bl	__aeabi_i2d
 241              	.LVL4:
 242 0010 534C     		ldr	r4, .L39
 243              		.loc 2 95 0
 244 0012 149E     		ldr	r6, [sp, #80]
 245              		.loc 2 101 0
 246 0014 534F     		ldr	r7, .L39+4
 247              		.loc 2 98 0
 248 0016 8246     		mov	sl, r0
 249 0018 8B46     		mov	fp, r1
 250              		.loc 2 101 0
 251 001a DDE90E23 		ldrd	r2, [sp, #56]
 252              		.loc 2 98 0
 253 001e C4E900AB 		strd	sl, [r4]
 254              		.loc 2 101 0
 255 0022 FFF7FEFF 		bl	__aeabi_dmul
 256 0026 0446     		mov	r4, r0
 257 0028 0D46     		mov	r5, r1
 258              		.loc 2 102 0
 259 002a 3046     		mov	r0, r6
 260              		.loc 2 101 0
 261 002c C7E90045 		strd	r4, [r7]
 262              		.loc 2 102 0
 263 0030 FFF7FEFF 		bl	__aeabi_i2d
 264 0034 8046     		mov	r8, r0
 265 0036 8946     		mov	r9, r1
 266 0038 2046     		mov	r0, r4
 267 003a 2946     		mov	r1, r5
 268 003c 4246     		mov	r2, r8
 269 003e 4B46     		mov	r3, r9
 270 0040 FFF7FEFF 		bl	__aeabi_dcmpgt
 271 0044 0028     		cmp	r0, #0
 272 0046 40F08580 		bne	.L35
 273              		.loc 2 105 0
 274 004a 7042     		negs	r0, r6
 275 004c FFF7FEFF 		bl	__aeabi_i2d
 276 0050 8046     		mov	r8, r0
 277 0052 8946     		mov	r9, r1
 278 0054 2046     		mov	r0, r4
 279 0056 2946     		mov	r1, r5
ARM GAS  C:\Users\DNIEL~1\AppData\Local\Temp\ccahiECR.s 			page 6


 280 0058 4246     		mov	r2, r8
 281 005a 4B46     		mov	r3, r9
 282 005c FFF7FEFF 		bl	__aeabi_dcmplt
 283 0060 0028     		cmp	r0, #0
 284 0062 77D1     		bne	.L35
 285              	.L14:
 286              		.loc 2 111 0
 287 0064 404E     		ldr	r6, .L39+8
 288 0066 DDE91023 		ldrd	r2, [sp, #64]
 289 006a 5046     		mov	r0, sl
 290 006c 5946     		mov	r1, fp
 291 006e FFF7FEFF 		bl	__aeabi_dmul
 292 0072 D6E90023 		ldrd	r2, [r6]
 293 0076 FFF7FEFF 		bl	__aeabi_dadd
 294 007a 0446     		mov	r4, r0
 295 007c 0D46     		mov	r5, r1
 296              		.loc 2 112 0
 297 007e 1598     		ldr	r0, [sp, #84]
 298              		.loc 2 111 0
 299 0080 C6E90045 		strd	r4, [r6]
 300              		.loc 2 112 0
 301 0084 FFF7FEFF 		bl	__aeabi_i2d
 302 0088 8046     		mov	r8, r0
 303 008a 8946     		mov	r9, r1
 304 008c 2046     		mov	r0, r4
 305 008e 2946     		mov	r1, r5
 306 0090 4246     		mov	r2, r8
 307 0092 4B46     		mov	r3, r9
 308 0094 FFF7FEFF 		bl	__aeabi_dcmpgt
 309 0098 0028     		cmp	r0, #0
 310 009a 58D1     		bne	.L36
 311              		.loc 2 115 0
 312 009c 159A     		ldr	r2, [sp, #84]
 313 009e 5042     		negs	r0, r2
 314 00a0 FFF7FEFF 		bl	__aeabi_i2d
 315 00a4 8046     		mov	r8, r0
 316 00a6 8946     		mov	r9, r1
 317 00a8 2046     		mov	r0, r4
 318 00aa 2946     		mov	r1, r5
 319 00ac 4246     		mov	r2, r8
 320 00ae 4B46     		mov	r3, r9
 321 00b0 FFF7FEFF 		bl	__aeabi_dcmplt
 322 00b4 0028     		cmp	r0, #0
 323 00b6 4AD1     		bne	.L36
 324              	.L18:
 325              		.loc 2 121 0
 326 00b8 DFF8B080 		ldr	r8, .L39+12
 327 00bc DFF8B090 		ldr	r9, .L39+16
 328 00c0 D8E90023 		ldrd	r2, [r8]
 329 00c4 5046     		mov	r0, sl
 330 00c6 5946     		mov	r1, fp
 331 00c8 FFF7FEFF 		bl	__aeabi_dsub
 332 00cc DDE91223 		ldrd	r2, [sp, #72]
 333 00d0 FFF7FEFF 		bl	__aeabi_dmul
 334 00d4 0446     		mov	r4, r0
 335 00d6 0D46     		mov	r5, r1
 336              		.loc 2 122 0
ARM GAS  C:\Users\DNIEL~1\AppData\Local\Temp\ccahiECR.s 			page 7


 337 00d8 1698     		ldr	r0, [sp, #88]
 338              		.loc 2 121 0
 339 00da C9E90045 		strd	r4, [r9]
 340              		.loc 2 122 0
 341 00de FFF7FEFF 		bl	__aeabi_i2d
 342 00e2 CDE90001 		strd	r0, [sp]
 343 00e6 DDE90023 		ldrd	r2, [sp]
 344 00ea 2046     		mov	r0, r4
 345 00ec 2946     		mov	r1, r5
 346 00ee FFF7FEFF 		bl	__aeabi_dcmpgt
 347 00f2 0028     		cmp	r0, #0
 348 00f4 24D1     		bne	.L37
 349              		.loc 2 125 0
 350 00f6 169B     		ldr	r3, [sp, #88]
 351 00f8 5842     		negs	r0, r3
 352 00fa FFF7FEFF 		bl	__aeabi_i2d
 353 00fe CDE90001 		strd	r0, [sp]
 354 0102 DDE90023 		ldrd	r2, [sp]
 355 0106 2046     		mov	r0, r4
 356 0108 2946     		mov	r1, r5
 357 010a FFF7FEFF 		bl	__aeabi_dcmplt
 358 010e B8B9     		cbnz	r0, .L37
 359              	.L22:
 360              		.loc 2 131 0
 361 0110 D6E90023 		ldrd	r2, [r6]
 362 0114 D7E90001 		ldrd	r0, [r7]
 363 0118 FFF7FEFF 		bl	__aeabi_dadd
 364 011c 2B46     		mov	r3, r5
 365 011e 2246     		mov	r2, r4
 366 0120 FFF7FEFF 		bl	__aeabi_dadd
 367 0124 FFF7FEFF 		bl	__aeabi_d2iz
 368              	.LVL5:
 369              		.loc 2 133 0
 370 0128 029B     		ldr	r3, [sp, #8]
 371 012a 9842     		cmp	r0, r3
 372 012c 15DC     		bgt	.L25
 373 012e 0399     		ldr	r1, [sp, #12]
 374 0130 8842     		cmp	r0, r1
 375 0132 B8BF     		it	lt
 376 0134 0846     		movlt	r0, r1
 377              	.LVL6:
 378              	.L24:
 379              		.loc 2 139 0
 380 0136 C8E900AB 		strd	sl, [r8]
 381              		.loc 2 142 0
 382 013a 05B0     		add	sp, sp, #20
 383 013c BDE8F08F 		pop	{r4, r5, r6, r7, r8, r9, sl, fp, pc}
 384              	.LVL7:
 385              	.L37:
 386              		.loc 2 126 0
 387 0140 DDE90023 		ldrd	r2, [sp]
 388 0144 C9E90023 		strd	r2, [r9]
 389 0148 1446     		mov	r4, r2
 390 014a 1D46     		mov	r5, r3
 391 014c E0E7     		b	.L22
 392              	.L36:
 393              		.loc 2 116 0
ARM GAS  C:\Users\DNIEL~1\AppData\Local\Temp\ccahiECR.s 			page 8


 394 014e C6E90089 		strd	r8, [r6]
 395 0152 B1E7     		b	.L18
 396              	.L35:
 397              		.loc 2 106 0
 398 0154 C7E90089 		strd	r8, [r7]
 399 0158 84E7     		b	.L14
 400              	.LVL8:
 401              	.L25:
 402              		.loc 2 133 0
 403 015a 0298     		ldr	r0, [sp, #8]
 404              	.LVL9:
 405 015c EBE7     		b	.L24
 406              	.L40:
 407 015e 00BF     		.align	2
 408              	.L39:
 409 0160 00000000 		.word	.LANCHOR6
 410 0164 00000000 		.word	.LANCHOR2
 411 0168 00000000 		.word	.LANCHOR3
 412 016c 00000000 		.word	.LANCHOR5
 413 0170 00000000 		.word	.LANCHOR4
 414              		.cfi_endproc
 415              	.LFE123:
 416              		.size	cruisePID, .-cruisePID
 417              		.global	__aeabi_dcmpeq
 418 0174 AFF30080 		.section	.text.cruiseCalc,"ax",%progbits
 418      AFF30080 
 418      AFF30080 
 419              		.align	2
 420              		.p2align 4,,15
 421              		.global	cruiseCalc
 422              		.thumb
 423              		.thumb_func
 424              		.type	cruiseCalc, %function
 425              	cruiseCalc:
 426              	.LFB120:
 427              		.loc 2 64 0
 428              		.cfi_startproc
 429              		@ args = 0, pretend = 0, frame = 0
 430              		@ frame_needed = 0, uses_anonymous_args = 0
 431 0000 70B5     		push	{r4, r5, r6, lr}
 432              	.LCFI6:
 433              		.cfi_def_cfa_offset 16
 434              		.loc 2 65 0
 435 0002 344B     		ldr	r3, .L48
 436 0004 0024     		movs	r4, #0
 437              		.cfi_offset 14, -4
 438              		.cfi_offset 6, -8
 439              		.cfi_offset 5, -12
 440              		.cfi_offset 4, -16
 441 0006 0025     		movs	r5, #0
 442 0008 D3E90001 		ldrd	r0, [r3]
 443              		.loc 2 64 0
 444 000c 8AB0     		sub	sp, sp, #40
 445              	.LCFI7:
 446              		.cfi_def_cfa_offset 56
 447              		.loc 2 65 0
 448 000e 2246     		mov	r2, r4
ARM GAS  C:\Users\DNIEL~1\AppData\Local\Temp\ccahiECR.s 			page 9


 449 0010 2B46     		mov	r3, r5
 450 0012 FFF7FEFF 		bl	__aeabi_dcmpeq
 451 0016 0028     		cmp	r0, #0
 452 0018 29D0     		beq	.L47
 453              		.loc 2 74 0
 454 001a 2F4B     		ldr	r3, .L48+4
 455              		.loc 2 75 0
 456 001c 2F48     		ldr	r0, .L48+8
 457              		.loc 2 76 0
 458 001e 304A     		ldr	r2, .L48+12
 459              		.loc 2 77 0
 460 0020 3049     		ldr	r1, .L48+16
 461              		.loc 2 74 0
 462 0022 C3E90045 		strd	r4, [r3]
 463              		.loc 2 78 0
 464 0026 304B     		ldr	r3, .L48+20
 465              		.loc 2 75 0
 466 0028 C0E90045 		strd	r4, [r0]
 467              		.loc 2 76 0
 468 002c C2E90045 		strd	r4, [r2]
 469              		.loc 2 73 0
 470 0030 2E48     		ldr	r0, .L48+24
 471              		.loc 2 80 0
 472 0032 2F4A     		ldr	r2, .L48+28
 473              		.loc 2 77 0
 474 0034 C1E90045 		strd	r4, [r1]
 475              		.loc 2 78 0
 476 0038 C3E90045 		strd	r4, [r3]
 477              		.loc 2 80 0
 478 003c 4FF4FA71 		mov	r1, #500
 479              		.loc 2 73 0
 480 0040 42F21073 		movw	r3, #10000
 481 0044 0360     		str	r3, [r0, #0]
 482              		.loc 2 80 0
 483 0046 1160     		str	r1, [r2, #0]
 484              	.L44:
 485              		.loc 2 83 0
 486 0048 2A48     		ldr	r0, .L48+32
 487 004a 2B4A     		ldr	r2, .L48+36
 488 004c B0F808E0 		ldrh	lr, [r0, #8]
 489 0050 0EFB03F3 		mul	r3, lr, r3
 490 0054 82FB031C 		smull	r1, ip, r2, r3
 491 0058 D917     		asrs	r1, r3, #31
 492 005a C1EB2C3E 		rsb	lr, r1, ip, asr #12
 493 005e 1FFA8EF2 		uxth	r2, lr
 494 0062 0221     		movs	r1, #2
 495              		.loc 2 84 0
 496 0064 0AB0     		add	sp, sp, #40
 497 0066 BDE87040 		pop	{r4, r5, r6, lr}
 498              		.loc 2 83 0
 499 006a FFF7FEBF 		b	pwmEnableChannel
 500              	.L47:
 501              		.loc 2 67 0
 502 006e FFF7FEFF 		bl	speedGetRpm
 503 0072 06B2     		sxth	r6, r0
 504 0074 2148     		ldr	r0, .L48+40
 505 0076 1E4D     		ldr	r5, .L48+28
ARM GAS  C:\Users\DNIEL~1\AppData\Local\Temp\ccahiECR.s 			page 10


 506 0078 B0F90000 		ldrsh	r0, [r0, #0]
 507 007c B5F90050 		ldrsh	r5, [r5, #0]
 508 0080 1F4C     		ldr	r4, .L48+44
 509 0082 FFF7FEFF 		bl	__aeabi_i2d
 510 0086 CDE90001 		strd	r0, [sp]
 511 008a 1E4B     		ldr	r3, .L48+48
 512 008c B3F90000 		ldrsh	r0, [r3, #0]
 513 0090 FFF7FEFF 		bl	__aeabi_i2d
 514 0094 CDE90201 		strd	r0, [sp, #8]
 515 0098 1B4A     		ldr	r2, .L48+52
 516 009a B2F90000 		ldrsh	r0, [r2, #0]
 517 009e FFF7FEFF 		bl	__aeabi_i2d
 518 00a2 2246     		mov	r2, r4
 519 00a4 CDE90401 		strd	r0, [sp, #16]
 520 00a8 0023     		movs	r3, #0
 521 00aa 2946     		mov	r1, r5
 522 00ac 3046     		mov	r0, r6
 523 00ae 0694     		str	r4, [sp, #24]
 524 00b0 0794     		str	r4, [sp, #28]
 525 00b2 0894     		str	r4, [sp, #32]
 526 00b4 FFF7FEFF 		bl	cruisePID
 527 00b8 144B     		ldr	r3, .L48+56
 528              		.loc 2 68 0
 529 00ba 0C4A     		ldr	r2, .L48+24
 530              		.loc 2 67 0
 531 00bc 83FB001C 		smull	r1, ip, r3, r0
 532 00c0 C117     		asrs	r1, r0, #31
 533 00c2 C1EB6C10 		rsb	r0, r1, ip, asr #5
 534              		.loc 2 68 0
 535 00c6 C0F51C53 		rsb	r3, r0, #9984
 536 00ca 1033     		adds	r3, r3, #16
 537 00cc 1360     		str	r3, [r2, #0]
 538 00ce 9BB2     		uxth	r3, r3
 539 00d0 BAE7     		b	.L44
 540              	.L49:
 541 00d2 00BF     		.align	2
 542              	.L48:
 543 00d4 00000000 		.word	.LANCHOR1
 544 00d8 00000000 		.word	.LANCHOR2
 545 00dc 00000000 		.word	.LANCHOR3
 546 00e0 00000000 		.word	.LANCHOR4
 547 00e4 00000000 		.word	.LANCHOR5
 548 00e8 00000000 		.word	.LANCHOR6
 549 00ec 00000000 		.word	.LANCHOR0
 550 00f0 00000000 		.word	.LANCHOR7
 551 00f4 00000000 		.word	PWMD5
 552 00f8 AD8BDB68 		.word	1759218605
 553 00fc 00000000 		.word	.LANCHOR9
 554 0100 40420F00 		.word	1000000
 555 0104 00000000 		.word	.LANCHOR10
 556 0108 00000000 		.word	.LANCHOR11
 557 010c 1F85EB51 		.word	1374389535
 558              		.cfi_endproc
 559              	.LFE120:
 560              		.size	cruiseCalc, .-cruiseCalc
 561              		.section	.text.cmd_cruisevalues,"ax",%progbits
 562              		.align	2
ARM GAS  C:\Users\DNIEL~1\AppData\Local\Temp\ccahiECR.s 			page 11


 563              		.p2align 4,,15
 564              		.global	cmd_cruisevalues
 565              		.thumb
 566              		.thumb_func
 567              		.type	cmd_cruisevalues, %function
 568              	cmd_cruisevalues:
 569              	.LFB124:
 570              		.loc 2 144 0
 571              		.cfi_startproc
 572              		@ args = 0, pretend = 0, frame = 0
 573              		@ frame_needed = 0, uses_anonymous_args = 0
 574              	.LVL10:
 575 0000 2DE9F041 		push	{r4, r5, r6, r7, r8, lr}
 576              	.LCFI8:
 577              		.cfi_def_cfa_offset 24
 578              		.loc 2 148 0
 579 0004 2C49     		ldr	r1, .L53
 580              	.LVL11:
 581              		.loc 2 153 0
 582 0006 2D4F     		ldr	r7, .L53+4
 583              		.cfi_offset 14, -4
 584              		.cfi_offset 8, -8
 585              		.cfi_offset 7, -12
 586              		.cfi_offset 6, -16
 587              		.cfi_offset 5, -20
 588              		.cfi_offset 4, -24
 589 0008 2D4E     		ldr	r6, .L53+8
 590              		.loc 2 154 0
 591 000a 2E4D     		ldr	r5, .L53+12
 592              		.loc 2 144 0
 593 000c 0446     		mov	r4, r0
 594              		.loc 2 148 0
 595 000e FFF7FEFF 		bl	chprintf
 596              	.LVL12:
 597              		.loc 2 149 0
 598 0012 2046     		mov	r0, r4
 599 0014 2C49     		ldr	r1, .L53+16
 600 0016 FFF7FEFF 		bl	chprintf
 601              		.loc 2 150 0
 602 001a 42E0     		b	.L51
 603              	.L52:
 604              		.loc 2 151 0
 605 001c 0022     		movs	r2, #0
 606 001e 1346     		mov	r3, r2
 607 0020 2046     		mov	r0, r4
 608 0022 2A49     		ldr	r1, .L53+20
 609 0024 FFF7FEFF 		bl	chprintf
 610              		.loc 2 153 0
 611 0028 D6E90001 		ldrd	r0, [r6]
 612 002c FFF7FEFF 		bl	__aeabi_d2iz
 613 0030 B7F90080 		ldrsh	r8, [r7, #0]
 614 0034 2649     		ldr	r1, .L53+24
 615 0036 4246     		mov	r2, r8
 616 0038 0346     		mov	r3, r0
 617 003a 2046     		mov	r0, r4
 618 003c FFF7FEFF 		bl	chprintf
 619              		.loc 2 154 0
ARM GAS  C:\Users\DNIEL~1\AppData\Local\Temp\ccahiECR.s 			page 12


 620 0040 244B     		ldr	r3, .L53+28
 621 0042 B5F90080 		ldrsh	r8, [r5, #0]
 622 0046 D3E90001 		ldrd	r0, [r3]
 623 004a FFF7FEFF 		bl	__aeabi_d2iz
 624 004e 4246     		mov	r2, r8
 625 0050 0346     		mov	r3, r0
 626 0052 2149     		ldr	r1, .L53+32
 627 0054 2046     		mov	r0, r4
 628 0056 FFF7FEFF 		bl	chprintf
 629              		.loc 2 155 0
 630 005a 204B     		ldr	r3, .L53+36
 631 005c B3F90080 		ldrsh	r8, [r3, #0]
 632 0060 1F4B     		ldr	r3, .L53+40
 633 0062 D3E90001 		ldrd	r0, [r3]
 634 0066 FFF7FEFF 		bl	__aeabi_d2iz
 635 006a 1E49     		ldr	r1, .L53+44
 636 006c 0346     		mov	r3, r0
 637 006e 4246     		mov	r2, r8
 638 0070 2046     		mov	r0, r4
 639 0072 FFF7FEFF 		bl	chprintf
 640              		.loc 2 156 0
 641 0076 1C4B     		ldr	r3, .L53+48
 642 0078 1C49     		ldr	r1, .L53+52
 643 007a 1A68     		ldr	r2, [r3, #0]
 644 007c 2046     		mov	r0, r4
 645 007e FFF7FEFF 		bl	chprintf
 646              		.loc 2 157 0
 647 0082 1B4B     		ldr	r3, .L53+56
 648 0084 1B49     		ldr	r1, .L53+60
 649 0086 1A68     		ldr	r2, [r3, #0]
 650 0088 2046     		mov	r0, r4
 651 008a FFF7FEFF 		bl	chprintf
 652              		.loc 2 158 0
 653 008e FFF7FEFF 		bl	speedGetRpm
 654 0092 1949     		ldr	r1, .L53+64
 655 0094 0246     		mov	r2, r0
 656 0096 2046     		mov	r0, r4
 657 0098 FFF7FEFF 		bl	chprintf
 658              		.loc 2 160 0
 659 009c 6420     		movs	r0, #100
 660 009e FFF7FEFF 		bl	chThdSleep
 661              	.L51:
 662              		.loc 2 150 0 discriminator 1
 663 00a2 2168     		ldr	r1, [r4, #0]
 664 00a4 2046     		mov	r0, r4
 665 00a6 4B69     		ldr	r3, [r1, #20]
 666 00a8 0021     		movs	r1, #0
 667 00aa 9847     		blx	r3
 668 00ac B0F1FF3F 		cmp	r0, #-1
 669 00b0 B4D0     		beq	.L52
 670              		.loc 2 162 0
 671 00b2 BDE8F081 		pop	{r4, r5, r6, r7, r8, pc}
 672              	.L54:
 673 00b6 00BF     		.align	2
 674              	.L53:
 675 00b8 00000000 		.word	.LC0
 676 00bc 00000000 		.word	.LANCHOR9
ARM GAS  C:\Users\DNIEL~1\AppData\Local\Temp\ccahiECR.s 			page 13


 677 00c0 00000000 		.word	.LANCHOR2
 678 00c4 00000000 		.word	.LANCHOR10
 679 00c8 04000000 		.word	.LC1
 680 00cc 0C000000 		.word	.LC2
 681 00d0 18000000 		.word	.LC3
 682 00d4 00000000 		.word	.LANCHOR3
 683 00d8 30000000 		.word	.LC4
 684 00dc 00000000 		.word	.LANCHOR11
 685 00e0 00000000 		.word	.LANCHOR4
 686 00e4 48000000 		.word	.LC5
 687 00e8 00000000 		.word	.LANCHOR0
 688 00ec 60000000 		.word	.LC6
 689 00f0 00000000 		.word	.LANCHOR7
 690 00f4 6C000000 		.word	.LC7
 691 00f8 7C000000 		.word	.LC8
 692              		.cfi_endproc
 693              	.LFE124:
 694              		.size	cmd_cruisevalues, .-cmd_cruisevalues
 695 00fc AFF30080 		.section	.text.cmd_setcruisevalues,"ax",%progbits
 696              		.align	2
 697              		.p2align 4,,15
 698              		.global	cmd_setcruisevalues
 699              		.thumb
 700              		.thumb_func
 701              		.type	cmd_setcruisevalues, %function
 702              	cmd_setcruisevalues:
 703              	.LFB125:
 704              		.loc 2 164 0
 705              		.cfi_startproc
 706              		@ args = 0, pretend = 0, frame = 0
 707              		@ frame_needed = 0, uses_anonymous_args = 0
 708              	.LVL13:
 709 0000 2DE9F041 		push	{r4, r5, r6, r7, r8, lr}
 710              	.LCFI9:
 711              		.cfi_def_cfa_offset 24
 712              		.loc 2 164 0
 713 0004 0446     		mov	r4, r0
 714              		.cfi_offset 14, -4
 715              		.cfi_offset 8, -8
 716              		.cfi_offset 7, -12
 717              		.cfi_offset 6, -16
 718              		.cfi_offset 5, -20
 719              		.cfi_offset 4, -24
 720 0006 0E46     		mov	r6, r1
 721              		.loc 2 170 0
 722 0008 6949     		ldr	r1, .L89+8
 723              	.LVL14:
 724              		.loc 2 164 0
 725 000a 1546     		mov	r5, r2
 726              		.loc 2 170 0
 727 000c FFF7FEFF 		bl	chprintf
 728              	.LVL15:
 729              		.loc 2 171 0
 730 0010 2046     		mov	r0, r4
 731 0012 6849     		ldr	r1, .L89+12
 732 0014 FFF7FEFF 		bl	chprintf
 733              		.loc 2 172 0
ARM GAS  C:\Users\DNIEL~1\AppData\Local\Temp\ccahiECR.s 			page 14


 734 0018 2168     		ldr	r1, [r4, #0]
 735 001a 2046     		mov	r0, r4
 736 001c 4B69     		ldr	r3, [r1, #20]
 737 001e 0021     		movs	r1, #0
 738 0020 9847     		blx	r3
 739 0022 B0F1FF3F 		cmp	r0, #-1
 740 0026 01D0     		beq	.L81
 741 0028 BDE8F081 		pop	{r4, r5, r6, r7, r8, pc}
 742              	.L81:
 743              		.loc 2 173 0
 744 002c 0022     		movs	r2, #0
 745 002e 2046     		mov	r0, r4
 746 0030 6149     		ldr	r1, .L89+16
 747 0032 1346     		mov	r3, r2
 748 0034 FFF7FEFF 		bl	chprintf
 749              		.loc 2 175 0
 750 0038 022E     		cmp	r6, #2
 751 003a 07D0     		beq	.L82
 752              		.loc 2 215 0
 753 003c 012E     		cmp	r6, #1
 754 003e 28D0     		beq	.L83
 755              	.LVL16:
 756              	.L73:
 757              		.loc 2 236 0
 758 0040 5E49     		ldr	r1, .L89+20
 759 0042 2046     		mov	r0, r4
 760              		.loc 2 241 0
 761 0044 BDE8F041 		pop	{r4, r5, r6, r7, r8, lr}
 762              		.loc 2 236 0
 763 0048 FFF7FEBF 		b	chprintf
 764              	.LVL17:
 765              	.L82:
 766              		.loc 2 175 0 discriminator 1
 767 004c 2F68     		ldr	r7, [r5, #0]
 768 004e 5C49     		ldr	r1, .L89+24
 769 0050 3846     		mov	r0, r7
 770 0052 FFF7FEFF 		bl	strcmp
 771 0056 0028     		cmp	r0, #0
 772 0058 64D0     		beq	.L84
 773              	.L58:
 774              		.loc 2 185 0
 775 005a 3846     		mov	r0, r7
 776 005c 5949     		ldr	r1, .L89+28
 777 005e FFF7FEFF 		bl	strcmp
 778 0062 0028     		cmp	r0, #0
 779 0064 66D0     		beq	.L74
 780              	.LVL18:
 781              	.L62:
 782              		.loc 2 195 0
 783 0066 3846     		mov	r0, r7
 784 0068 5749     		ldr	r1, .L89+32
 785 006a FFF7FEFF 		bl	strcmp
 786 006e 0028     		cmp	r0, #0
 787 0070 4DD0     		beq	.L75
 788              	.L66:
 789              		.loc 2 205 0
 790 0072 3846     		mov	r0, r7
ARM GAS  C:\Users\DNIEL~1\AppData\Local\Temp\ccahiECR.s 			page 15


 791 0074 5549     		ldr	r1, .L89+36
 792 0076 FFF7FEFF 		bl	strcmp
 793 007a 0028     		cmp	r0, #0
 794 007c E0D1     		bne	.L73
 795              		.loc 2 206 0
 796 007e 6868     		ldr	r0, [r5, #4]
 797 0080 FFF7FEFF 		bl	atol
 798 0084 0546     		mov	r5, r0	@ movhi
 799              	.LVL19:
 800              		.loc 2 207 0
 801 0086 00B2     		sxth	r0, r0
 802 0088 0028     		cmp	r0, #0
 803 008a 5EDD     		ble	.L85
 804              	.L67:
 805              		.loc 2 208 0
 806 008c 5048     		ldr	r0, .L89+40
 807 008e 0580     		strh	r5, [r0, #0]	@ movhi
 808 0090 D6E7     		b	.L73
 809              	.LVL20:
 810              	.L83:
 811              		.loc 2 215 0 discriminator 1
 812 0092 2E68     		ldr	r6, [r5, #0]
 813              	.LVL21:
 814 0094 4F49     		ldr	r1, .L89+44
 815 0096 3046     		mov	r0, r6
 816 0098 FFF7FEFF 		bl	strcmp
 817 009c 0028     		cmp	r0, #0
 818 009e 2BD0     		beq	.L86
 819              	.L72:
 820              		.loc 2 220 0
 821 00a0 3046     		mov	r0, r6
 822 00a2 4D49     		ldr	r1, .L89+48
 823 00a4 FFF7FEFF 		bl	strcmp
 824 00a8 0028     		cmp	r0, #0
 825 00aa C9D1     		bne	.L73
 826              	.LBB10:
 827              	.LBB11:
 828              		.loc 2 91 0
 829 00ac 4B4D     		ldr	r5, .L89+52
 830              	.LVL22:
 831              	.LBE11:
 832              	.LBE10:
 833              		.loc 2 222 0
 834 00ae 4C49     		ldr	r1, .L89+56
 835              	.LBB13:
 836              	.LBB12:
 837              		.loc 2 91 0
 838 00b0 0022     		movs	r2, #0
 839 00b2 0023     		movs	r3, #0
 840 00b4 C5E90023 		strd	r2, [r5]
 841              	.LBE12:
 842              	.LBE13:
 843              		.loc 2 222 0
 844 00b8 2046     		mov	r0, r4
 845 00ba FFF7FEFF 		bl	chprintf
 846              		.loc 2 229 0
 847 00be 494B     		ldr	r3, .L89+60
ARM GAS  C:\Users\DNIEL~1\AppData\Local\Temp\ccahiECR.s 			page 16


 848 00c0 4949     		ldr	r1, .L89+64
 849 00c2 B3F90020 		ldrsh	r2, [r3, #0]
 850 00c6 2046     		mov	r0, r4
 851 00c8 FFF7FEFF 		bl	chprintf
 852              		.loc 2 230 0
 853 00cc 474B     		ldr	r3, .L89+68
 854 00ce 4849     		ldr	r1, .L89+72
 855 00d0 B3F90020 		ldrsh	r2, [r3, #0]
 856 00d4 2046     		mov	r0, r4
 857 00d6 FFF7FEFF 		bl	chprintf
 858              		.loc 2 231 0
 859 00da 3D4B     		ldr	r3, .L89+40
 860 00dc 4549     		ldr	r1, .L89+76
 861 00de B3F90020 		ldrsh	r2, [r3, #0]
 862 00e2 2046     		mov	r0, r4
 863 00e4 FFF7FEFF 		bl	chprintf
 864              		.loc 2 232 0
 865 00e8 434B     		ldr	r3, .L89+80
 866 00ea 4449     		ldr	r1, .L89+84
 867 00ec 1A68     		ldr	r2, [r3, #0]
 868 00ee 2046     		mov	r0, r4
 869              		.loc 2 241 0
 870 00f0 BDE8F041 		pop	{r4, r5, r6, r7, r8, lr}
 871              		.loc 2 232 0
 872 00f4 FFF7FEBF 		b	chprintf
 873              	.LVL23:
 874              	.L86:
 875              	.LBB14:
 876              	.LBB15:
 877              		.loc 2 87 0
 878 00f8 384B     		ldr	r3, .L89+52
 879 00fa 414F     		ldr	r7, .L89+88
 880              	.LBE15:
 881              	.LBE14:
 882              		.loc 2 217 0
 883 00fc 4149     		ldr	r1, .L89+92
 884              	.LBB17:
 885              	.LBB16:
 886              		.loc 2 87 0
 887 00fe 0026     		movs	r6, #0
 888 0100 C3E90067 		strd	r6, [r3]
 889              	.LBE16:
 890              	.LBE17:
 891              		.loc 2 217 0
 892 0104 2046     		mov	r0, r4
 893 0106 FFF7FEFF 		bl	chprintf
 894 010a 2E68     		ldr	r6, [r5, #0]
 895 010c C8E7     		b	.L72
 896              	.L75:
 897              		.loc 2 196 0
 898 010e 6868     		ldr	r0, [r5, #4]
 899 0110 FFF7FEFF 		bl	atol
 900 0114 0646     		mov	r6, r0	@ movhi
 901              	.LVL24:
 902              		.loc 2 197 0
 903 0116 00B2     		sxth	r0, r0
 904 0118 0028     		cmp	r0, #0
ARM GAS  C:\Users\DNIEL~1\AppData\Local\Temp\ccahiECR.s 			page 17


 905 011a 24DD     		ble	.L87
 906              	.L63:
 907              		.loc 2 198 0
 908 011c 3349     		ldr	r1, .L89+68
 909 011e 2F68     		ldr	r7, [r5, #0]
 910 0120 0E80     		strh	r6, [r1, #0]	@ movhi
 911 0122 A6E7     		b	.L66
 912              	.LVL25:
 913              	.L84:
 914              		.loc 2 176 0
 915 0124 6868     		ldr	r0, [r5, #4]
 916 0126 FFF7FEFF 		bl	atol
 917              	.LVL26:
 918              		.loc 2 178 0
 919 012a 334A     		ldr	r2, .L89+80
 920 012c 2F68     		ldr	r7, [r5, #0]
 921 012e 00B2     		sxth	r0, r0
 922 0130 1060     		str	r0, [r2, #0]
 923 0132 92E7     		b	.L58
 924              	.LVL27:
 925              	.L74:
 926              		.loc 2 186 0
 927 0134 6868     		ldr	r0, [r5, #4]
 928 0136 FFF7FEFF 		bl	atol
 929 013a 0646     		mov	r6, r0	@ movhi
 930              	.LVL28:
 931              		.loc 2 187 0
 932 013c 00B2     		sxth	r0, r0
 933 013e 0028     		cmp	r0, #0
 934 0140 20DD     		ble	.L88
 935              	.L59:
 936              		.loc 2 188 0
 937 0142 284B     		ldr	r3, .L89+60
 938 0144 2F68     		ldr	r7, [r5, #0]
 939 0146 1E80     		strh	r6, [r3, #0]	@ movhi
 940 0148 8DE7     		b	.L62
 941              	.LVL29:
 942              	.L85:
 943              		.loc 2 207 0 discriminator 1
 944 014a FFF7FEFF 		bl	__aeabi_i2d
 945 014e 16A3     		adr	r3, .L89
 946 0150 D3E90023 		ldrd	r2, [r3]
 947 0154 FFF7FEFF 		bl	__aeabi_dcmplt
 948 0158 0028     		cmp	r0, #0
 949 015a 97D1     		bne	.L67
 950              		.loc 2 211 0
 951 015c 2046     		mov	r0, r4
 952 015e 2A49     		ldr	r1, .L89+96
 953 0160 FFF7FEFF 		bl	chprintf
 954 0164 6CE7     		b	.L73
 955              	.LVL30:
 956              	.L87:
 957              		.loc 2 197 0 discriminator 1
 958 0166 FFF7FEFF 		bl	__aeabi_i2d
 959 016a 0FA3     		adr	r3, .L89
 960 016c D3E90023 		ldrd	r2, [r3]
 961 0170 FFF7FEFF 		bl	__aeabi_dcmplt
ARM GAS  C:\Users\DNIEL~1\AppData\Local\Temp\ccahiECR.s 			page 18


 962 0174 0028     		cmp	r0, #0
 963 0176 D1D1     		bne	.L63
 964              		.loc 2 201 0
 965 0178 2046     		mov	r0, r4
 966 017a 2449     		ldr	r1, .L89+100
 967 017c FFF7FEFF 		bl	chprintf
 968 0180 2F68     		ldr	r7, [r5, #0]
 969 0182 76E7     		b	.L66
 970              	.L88:
 971              		.loc 2 187 0 discriminator 1
 972 0184 FFF7FEFF 		bl	__aeabi_i2d
 973 0188 07A3     		adr	r3, .L89
 974 018a D3E90023 		ldrd	r2, [r3]
 975 018e FFF7FEFF 		bl	__aeabi_dcmplt
 976 0192 0028     		cmp	r0, #0
 977 0194 D5D1     		bne	.L59
 978              		.loc 2 191 0
 979 0196 2046     		mov	r0, r4
 980 0198 1D49     		ldr	r1, .L89+104
 981 019a FFF7FEFF 		bl	chprintf
 982 019e 2F68     		ldr	r7, [r5, #0]
 983 01a0 61E7     		b	.L62
 984              	.L90:
 985 01a2 00BFAFF3 		.align	3
 985      0080
 986              	.L89:
 987 01a8 00000000 		.word	0
 988 01ac 80842E41 		.word	1093567616
 989 01b0 00000000 		.word	.LC0
 990 01b4 04000000 		.word	.LC1
 991 01b8 0C000000 		.word	.LC2
 992 01bc 40010000 		.word	.LC19
 993 01c0 90000000 		.word	.LC9
 994 01c4 5C010000 		.word	.LC20
 995 01c8 60010000 		.word	.LC21
 996 01cc 64010000 		.word	.LC22
 997 01d0 00000000 		.word	.LANCHOR11
 998 01d4 DC000000 		.word	.LC13
 999 01d8 68010000 		.word	.LC23
 1000 01dc 00000000 		.word	.LANCHOR1
 1001 01e0 FC000000 		.word	.LC15
 1002 01e4 00000000 		.word	.LANCHOR9
 1003 01e8 1C010000 		.word	.LC16
 1004 01ec 00000000 		.word	.LANCHOR10
 1005 01f0 28010000 		.word	.LC17
 1006 01f4 34010000 		.word	.LC18
 1007 01f8 00000000 		.word	.LANCHOR7
 1008 01fc 6C000000 		.word	.LC7
 1009 0200 0000F03F 		.word	1072693248
 1010 0204 E0000000 		.word	.LC14
 1011 0208 C4000000 		.word	.LC12
 1012 020c AC000000 		.word	.LC11
 1013 0210 94000000 		.word	.LC10
 1014              		.cfi_endproc
 1015              	.LFE125:
 1016              		.size	cmd_setcruisevalues, .-cmd_setcruisevalues
 1017 0214 AFF30080 		.section	.text.cmd_cruise,"ax",%progbits
ARM GAS  C:\Users\DNIEL~1\AppData\Local\Temp\ccahiECR.s 			page 19


 1017      AFF30080 
 1017      AFF30080 
 1018              		.align	2
 1019              		.p2align 4,,15
 1020              		.global	cmd_cruise
 1021              		.thumb
 1022              		.thumb_func
 1023              		.type	cmd_cruise, %function
 1024              	cmd_cruise:
 1025              	.LFB126:
 1026              		.loc 2 243 0
 1027              		.cfi_startproc
 1028              		@ args = 0, pretend = 0, frame = 0
 1029              		@ frame_needed = 0, uses_anonymous_args = 0
 1030              	.LVL31:
 1031 0000 2DE9F041 		push	{r4, r5, r6, r7, r8, lr}
 1032              	.LCFI10:
 1033              		.cfi_def_cfa_offset 24
 1034              		.loc 2 243 0
 1035 0004 0646     		mov	r6, r0
 1036              		.cfi_offset 14, -4
 1037              		.cfi_offset 8, -8
 1038              		.cfi_offset 7, -12
 1039              		.cfi_offset 6, -16
 1040              		.cfi_offset 5, -20
 1041              		.cfi_offset 4, -24
 1042 0006 0C46     		mov	r4, r1
 1043              		.loc 2 249 0
 1044 0008 1D49     		ldr	r1, .L97
 1045              	.LVL32:
 1046              		.loc 2 243 0
 1047 000a 1746     		mov	r7, r2
 1048              		.loc 2 249 0
 1049 000c FFF7FEFF 		bl	chprintf
 1050              	.LVL33:
 1051              		.loc 2 250 0
 1052 0010 3046     		mov	r0, r6
 1053 0012 1C49     		ldr	r1, .L97+4
 1054 0014 FFF7FEFF 		bl	chprintf
 1055              		.loc 2 251 0
 1056 0018 0022     		movs	r2, #0
 1057 001a 3046     		mov	r0, r6
 1058 001c 1A49     		ldr	r1, .L97+8
 1059 001e 1346     		mov	r3, r2
 1060 0020 FFF7FEFF 		bl	chprintf
 1061              		.loc 2 253 0
 1062 0024 012C     		cmp	r4, #1
 1063 0026 09D0     		beq	.L95
 1064              	.LVL34:
 1065              	.L92:
 1066              		.loc 2 269 0
 1067 0028 3046     		mov	r0, r6
 1068 002a 1849     		ldr	r1, .L97+12
 1069 002c FFF7FEFF 		bl	chprintf
 1070              		.loc 2 270 0
 1071 0030 1749     		ldr	r1, .L97+16
 1072 0032 3046     		mov	r0, r6
ARM GAS  C:\Users\DNIEL~1\AppData\Local\Temp\ccahiECR.s 			page 20


 1073              		.loc 2 274 0
 1074 0034 BDE8F041 		pop	{r4, r5, r6, r7, r8, lr}
 1075              		.loc 2 270 0
 1076 0038 FFF7FEBF 		b	chprintf
 1077              	.LVL35:
 1078              	.L95:
 1079              		.loc 2 253 0 discriminator 1
 1080 003c 3C68     		ldr	r4, [r7, #0]
 1081              	.LVL36:
 1082 003e 1549     		ldr	r1, .L97+20
 1083 0040 2046     		mov	r0, r4
 1084 0042 FFF7FEFF 		bl	strcmp
 1085 0046 80B1     		cbz	r0, .L96
 1086              	.L93:
 1087              		.loc 2 258 0
 1088 0048 2046     		mov	r0, r4
 1089 004a 1349     		ldr	r1, .L97+24
 1090 004c FFF7FEFF 		bl	strcmp
 1091 0050 0028     		cmp	r0, #0
 1092 0052 E9D1     		bne	.L92
 1093              	.LBB18:
 1094              	.LBB20:
 1095              		.loc 2 91 0
 1096 0054 114C     		ldr	r4, .L97+28
 1097              	.LBE20:
 1098              	.LBE18:
 1099              		.loc 2 260 0
 1100 0056 1249     		ldr	r1, .L97+32
 1101              	.LBB22:
 1102              	.LBB19:
 1103              		.loc 2 91 0
 1104 0058 0022     		movs	r2, #0
 1105 005a 0023     		movs	r3, #0
 1106              	.LBE19:
 1107              	.LBE22:
 1108              		.loc 2 260 0
 1109 005c 3046     		mov	r0, r6
 1110              	.LBB23:
 1111              	.LBB21:
 1112              		.loc 2 91 0
 1113 005e C4E90023 		strd	r2, [r4]
 1114              	.LBE21:
 1115              	.LBE23:
 1116              		.loc 2 274 0
 1117 0062 BDE8F041 		pop	{r4, r5, r6, r7, r8, lr}
 1118              		.loc 2 260 0
 1119 0066 FFF7FEBF 		b	chprintf
 1120              	.L96:
 1121              	.LBB24:
 1122              	.LBB25:
 1123              		.loc 2 87 0
 1124 006a 0C4B     		ldr	r3, .L97+28
 1125 006c 0D4D     		ldr	r5, .L97+36
 1126              	.LBE25:
 1127              	.LBE24:
 1128              		.loc 2 255 0
 1129 006e 0E49     		ldr	r1, .L97+40
ARM GAS  C:\Users\DNIEL~1\AppData\Local\Temp\ccahiECR.s 			page 21


 1130              	.LBB27:
 1131              	.LBB26:
 1132              		.loc 2 87 0
 1133 0070 0024     		movs	r4, #0
 1134 0072 C3E90045 		strd	r4, [r3]
 1135              	.LBE26:
 1136              	.LBE27:
 1137              		.loc 2 255 0
 1138 0076 3046     		mov	r0, r6
 1139 0078 FFF7FEFF 		bl	chprintf
 1140 007c 3C68     		ldr	r4, [r7, #0]
 1141 007e E3E7     		b	.L93
 1142              	.L98:
 1143              		.align	2
 1144              	.L97:
 1145 0080 00000000 		.word	.LC0
 1146 0084 04000000 		.word	.LC1
 1147 0088 0C000000 		.word	.LC2
 1148 008c 6C010000 		.word	.LC24
 1149 0090 80010000 		.word	.LC25
 1150 0094 DC000000 		.word	.LC13
 1151 0098 68010000 		.word	.LC23
 1152 009c 00000000 		.word	.LANCHOR1
 1153 00a0 FC000000 		.word	.LC15
 1154 00a4 0000F03F 		.word	1072693248
 1155 00a8 E0000000 		.word	.LC14
 1156              		.cfi_endproc
 1157              	.LFE126:
 1158              		.size	cmd_cruise, .-cmd_cruise
 1159 00ac AFF30080 		.section	.bss.P,"aw",%nobits
 1160              		.align	3
 1161              		.set	.LANCHOR2,. + 0
 1162              		.type	P, %object
 1163              		.size	P, 8
 1164              	P:
 1165 0000 00000000 		.space	8
 1165      00000000 
 1166              		.section	.data.K_D,"aw",%progbits
 1167              		.align	1
 1168              		.set	.LANCHOR11,. + 0
 1169              		.type	K_D, %object
 1170              		.size	K_D, 2
 1171              	K_D:
 1172 0000 F401     		.short	500
 1173              		.section	.bss.set,"aw",%nobits
 1174              		.align	2
 1175              		.set	.LANCHOR7,. + 0
 1176              		.type	set, %object
 1177              		.size	set, 4
 1178              	set:
 1179 0000 00000000 		.space	4
 1180              		.section	.data.K_I,"aw",%progbits
 1181              		.align	1
 1182              		.set	.LANCHOR10,. + 0
 1183              		.type	K_I, %object
 1184              		.size	K_I, 2
 1185              	K_I:
ARM GAS  C:\Users\DNIEL~1\AppData\Local\Temp\ccahiECR.s 			page 22


 1186 0000 0200     		.short	2
 1187              		.section	.rodata.str1.4,"aMS",%progbits,1
 1188              		.align	2
 1189              	.LC0:
 1190 0000 1B6300   		.ascii	"\033c\000"
 1191 0003 00       		.space	1
 1192              	.LC1:
 1193 0004 1B5B324A 		.ascii	"\033[2J\000"
 1193      00
 1194 0009 000000   		.space	3
 1195              	.LC2:
 1196 000c 1B5B2564 		.ascii	"\033[%d;%dH\000"
 1196      3B256448 
 1196      00
 1197 0015 000000   		.space	3
 1198              	.LC3:
 1199 0018 4B5F503A 		.ascii	"K_P: %15d - P: %15d\015\012\000"
 1199      20253135 
 1199      64202D20 
 1199      503A2025 
 1199      3135640D 
 1200 002e 0000     		.space	2
 1201              	.LC4:
 1202 0030 4B5F493A 		.ascii	"K_I: %15d - I: %15d\015\012\000"
 1202      20253135 
 1202      64202D20 
 1202      493A2025 
 1202      3135640D 
 1203 0046 0000     		.space	2
 1204              	.LC5:
 1205 0048 4B5F443A 		.ascii	"K_D: %15d - D: %15d\015\012\000"
 1205      20253135 
 1205      64202D20 
 1205      443A2025 
 1205      3135640D 
 1206 005e 0000     		.space	2
 1207              	.LC6:
 1208 0060 70776D3A 		.ascii	"pwm: %15d\015\012\000"
 1208      20253135 
 1208      640D0A00 
 1209              	.LC7:
 1210 006c 73657420 		.ascii	"set rpm: %15d\015\012\000"
 1210      72706D3A 
 1210      20253135 
 1210      640D0A00 
 1211              	.LC8:
 1212 007c 696E7075 		.ascii	"input rpm: %15d\015\012\000"
 1212      74207270 
 1212      6D3A2025 
 1212      3135640D 
 1212      0A00
 1213 008e 0000     		.space	2
 1214              	.LC9:
 1215 0090 72706D00 		.ascii	"rpm\000"
 1216              	.LC10:
 1217 0094 54686973 		.ascii	"This not good K_P!\015\012\000"
 1217      206E6F74 
ARM GAS  C:\Users\DNIEL~1\AppData\Local\Temp\ccahiECR.s 			page 23


 1217      20676F6F 
 1217      64204B5F 
 1217      50210D0A 
 1218 00a9 000000   		.space	3
 1219              	.LC11:
 1220 00ac 54686973 		.ascii	"This not good K_I!\015\012\000"
 1220      206E6F74 
 1220      20676F6F 
 1220      64204B5F 
 1220      49210D0A 
 1221 00c1 000000   		.space	3
 1222              	.LC12:
 1223 00c4 54686973 		.ascii	"This not good K_D!\015\012\000"
 1223      206E6F74 
 1223      20676F6F 
 1223      64204B5F 
 1223      44210D0A 
 1224 00d9 000000   		.space	3
 1225              	.LC13:
 1226 00dc 6F6E00   		.ascii	"on\000"
 1227 00df 00       		.space	1
 1228              	.LC14:
 1229 00e0 43727569 		.ascii	"Cruise control switch ON!\015\012\000"
 1229      73652063 
 1229      6F6E7472 
 1229      6F6C2073 
 1229      77697463 
 1230              	.LC15:
 1231 00fc 43727569 		.ascii	"Cruise control switch OFF!\015\012\000"
 1231      73652063 
 1231      6F6E7472 
 1231      6F6C2073 
 1231      77697463 
 1232 0119 000000   		.space	3
 1233              	.LC16:
 1234 011c 4B5F503A 		.ascii	"K_P: %15d\015\012\000"
 1234      20253135 
 1234      640D0A00 
 1235              	.LC17:
 1236 0128 4B5F493A 		.ascii	"K_I: %15d\015\012\000"
 1236      20253135 
 1236      640D0A00 
 1237              	.LC18:
 1238 0134 4B5F443A 		.ascii	"K_D: %15d\015\012\000"
 1238      20253135 
 1238      640D0A00 
 1239              	.LC19:
 1240 0140 54686973 		.ascii	"This not good command!\015\012\000"
 1240      206E6F74 
 1240      20676F6F 
 1240      6420636F 
 1240      6D6D616E 
 1241 0159 000000   		.space	3
 1242              	.LC20:
 1243 015c 4B5F5000 		.ascii	"K_P\000"
 1244              	.LC21:
 1245 0160 4B5F4900 		.ascii	"K_I\000"
ARM GAS  C:\Users\DNIEL~1\AppData\Local\Temp\ccahiECR.s 			page 24


 1246              	.LC22:
 1247 0164 4B5F4400 		.ascii	"K_D\000"
 1248              	.LC23:
 1249 0168 6F666600 		.ascii	"off\000"
 1250              	.LC24:
 1251 016c 55736167 		.ascii	"Usage: cruise on\015\012\000"
 1251      653A2063 
 1251      72756973 
 1251      65206F6E 
 1251      0D0A00
 1252 017f 00       		.space	1
 1253              	.LC25:
 1254 0180 20202020 		.ascii	"       cruise off\015\012\000"
 1254      20202063 
 1254      72756973 
 1254      65206F66 
 1254      660D0A00 
 1255              		.section	.bss.pwm,"aw",%nobits
 1256              		.align	2
 1257              		.set	.LANCHOR0,. + 0
 1258              		.type	pwm, %object
 1259              		.size	pwm, 4
 1260              	pwm:
 1261 0000 00000000 		.space	4
 1262              		.section	.data.cruise_pwmcfg,"aw",%progbits
 1263              		.align	2
 1264              		.set	.LANCHOR8,. + 0
 1265              		.type	cruise_pwmcfg, %object
 1266              		.size	cruise_pwmcfg, 52
 1267              	cruise_pwmcfg:
 1268 0000 80969800 		.word	10000000
 1269 0004 1027     		.short	10000
 1270 0006 0000     		.space	2
 1271 0008 00000000 		.word	0
 1272 000c 00000000 		.word	0
 1273 0010 00000000 		.word	0
 1274 0014 00000000 		.word	0
 1275 0018 00000000 		.word	0
 1276 001c 01000000 		.word	1
 1277 0020 00000000 		.word	0
 1278 0024 00000000 		.word	0
 1279 0028 00000000 		.word	0
 1280 002c 00000000 		.word	0
 1281 0030 00000000 		.word	0
 1282              		.section	.data.K_P,"aw",%progbits
 1283              		.align	1
 1284              		.set	.LANCHOR9,. + 0
 1285              		.type	K_P, %object
 1286              		.size	K_P, 2
 1287              	K_P:
 1288 0000 0500     		.short	5
 1289              		.section	.bss.cruise_on,"aw",%nobits
 1290              		.align	3
 1291              		.set	.LANCHOR1,. + 0
 1292              		.type	cruise_on, %object
 1293              		.size	cruise_on, 8
 1294              	cruise_on:
ARM GAS  C:\Users\DNIEL~1\AppData\Local\Temp\ccahiECR.s 			page 25


 1295 0000 00000000 		.space	8
 1295      00000000 
 1296              		.section	.bss.D,"aw",%nobits
 1297              		.align	3
 1298              		.set	.LANCHOR4,. + 0
 1299              		.type	D, %object
 1300              		.size	D, 8
 1301              	D:
 1302 0000 00000000 		.space	8
 1302      00000000 
 1303              		.section	.bss.e,"aw",%nobits
 1304              		.align	3
 1305              		.set	.LANCHOR6,. + 0
 1306              		.type	e, %object
 1307              		.size	e, 8
 1308              	e:
 1309 0000 00000000 		.space	8
 1309      00000000 
 1310              		.section	.bss.eelozo,"aw",%nobits
 1311              		.align	3
 1312              		.set	.LANCHOR5,. + 0
 1313              		.type	eelozo, %object
 1314              		.size	eelozo, 8
 1315              	eelozo:
 1316 0000 00000000 		.space	8
 1316      00000000 
 1317              		.section	.bss.I,"aw",%nobits
 1318              		.align	3
 1319              		.set	.LANCHOR3,. + 0
 1320              		.type	I, %object
 1321              		.size	I, 8
 1322              	I:
 1323 0000 00000000 		.space	8
 1323      00000000 
 1324              		.text
 1325              	.Letext0:
 1326              		.section	.debug_loc,"",%progbits
 1327              	.Ldebug_loc0:
 1328              	.LLST0:
 1329 0000 00000000 		.4byte	.LFB118
 1330 0004 02000000 		.4byte	.LCFI0
 1331 0008 0200     		.2byte	0x2
 1332 000a 7D       		.byte	0x7d
 1333 000b 00       		.sleb128 0
 1334 000c 02000000 		.4byte	.LCFI0
 1335 0010 04000000 		.4byte	.LCFI1
 1336 0014 0200     		.2byte	0x2
 1337 0016 7D       		.byte	0x7d
 1338 0017 0C       		.sleb128 12
 1339 0018 04000000 		.4byte	.LCFI1
 1340 001c 06000000 		.4byte	.LCFI2
 1341 0020 0200     		.2byte	0x2
 1342 0022 7D       		.byte	0x7d
 1343 0023 10       		.sleb128 16
 1344 0024 06000000 		.4byte	.LCFI2
 1345 0028 1E000000 		.4byte	.LFE118
 1346 002c 0200     		.2byte	0x2
ARM GAS  C:\Users\DNIEL~1\AppData\Local\Temp\ccahiECR.s 			page 26


 1347 002e 7D       		.byte	0x7d
 1348 002f 18       		.sleb128 24
 1349 0030 00000000 		.4byte	0x0
 1350 0034 00000000 		.4byte	0x0
 1351              	.LLST1:
 1352 0038 00000000 		.4byte	.LVL0
 1353 003c 13000000 		.4byte	.LVL1-1
 1354 0040 0100     		.2byte	0x1
 1355 0042 50       		.byte	0x50
 1356 0043 00000000 		.4byte	0x0
 1357 0047 00000000 		.4byte	0x0
 1358              	.LLST2:
 1359 004b 00000000 		.4byte	.LFB119
 1360 004f 02000000 		.4byte	.LCFI3
 1361 0053 0200     		.2byte	0x2
 1362 0055 7D       		.byte	0x7d
 1363 0056 00       		.sleb128 0
 1364 0057 02000000 		.4byte	.LCFI3
 1365 005b 6C000000 		.4byte	.LFE119
 1366 005f 0200     		.2byte	0x2
 1367 0061 7D       		.byte	0x7d
 1368 0062 08       		.sleb128 8
 1369 0063 00000000 		.4byte	0x0
 1370 0067 00000000 		.4byte	0x0
 1371              	.LLST3:
 1372 006b 00000000 		.4byte	.LFB123
 1373 006f 04000000 		.4byte	.LCFI4
 1374 0073 0200     		.2byte	0x2
 1375 0075 7D       		.byte	0x7d
 1376 0076 00       		.sleb128 0
 1377 0077 04000000 		.4byte	.LCFI4
 1378 007b 06000000 		.4byte	.LCFI5
 1379 007f 0200     		.2byte	0x2
 1380 0081 7D       		.byte	0x7d
 1381 0082 24       		.sleb128 36
 1382 0083 06000000 		.4byte	.LCFI5
 1383 0087 74010000 		.4byte	.LFE123
 1384 008b 0200     		.2byte	0x2
 1385 008d 7D       		.byte	0x7d
 1386 008e 38       		.sleb128 56
 1387 008f 00000000 		.4byte	0x0
 1388 0093 00000000 		.4byte	0x0
 1389              	.LLST4:
 1390 0097 00000000 		.4byte	.LVL2
 1391 009b 08000000 		.4byte	.LVL3
 1392 009f 0100     		.2byte	0x1
 1393 00a1 50       		.byte	0x50
 1394 00a2 00000000 		.4byte	0x0
 1395 00a6 00000000 		.4byte	0x0
 1396              	.LLST5:
 1397 00aa 00000000 		.4byte	.LVL2
 1398 00ae 0F000000 		.4byte	.LVL4-1
 1399 00b2 0100     		.2byte	0x1
 1400 00b4 51       		.byte	0x51
 1401 00b5 00000000 		.4byte	0x0
 1402 00b9 00000000 		.4byte	0x0
 1403              	.LLST6:
ARM GAS  C:\Users\DNIEL~1\AppData\Local\Temp\ccahiECR.s 			page 27


 1404 00bd 00000000 		.4byte	.LVL2
 1405 00c1 0F000000 		.4byte	.LVL4-1
 1406 00c5 0100     		.2byte	0x1
 1407 00c7 52       		.byte	0x52
 1408 00c8 0F000000 		.4byte	.LVL4-1
 1409 00cc 74010000 		.4byte	.LFE123
 1410 00d0 0200     		.2byte	0x2
 1411 00d2 91       		.byte	0x91
 1412 00d3 50       		.sleb128 -48
 1413 00d4 00000000 		.4byte	0x0
 1414 00d8 00000000 		.4byte	0x0
 1415              	.LLST7:
 1416 00dc 00000000 		.4byte	.LVL2
 1417 00e0 0F000000 		.4byte	.LVL4-1
 1418 00e4 0100     		.2byte	0x1
 1419 00e6 53       		.byte	0x53
 1420 00e7 0F000000 		.4byte	.LVL4-1
 1421 00eb 74010000 		.4byte	.LFE123
 1422 00ef 0200     		.2byte	0x2
 1423 00f1 91       		.byte	0x91
 1424 00f2 54       		.sleb128 -44
 1425 00f3 00000000 		.4byte	0x0
 1426 00f7 00000000 		.4byte	0x0
 1427              	.LLST8:
 1428 00fb 28010000 		.4byte	.LVL5
 1429 00ff 36010000 		.4byte	.LVL6
 1430 0103 0100     		.2byte	0x1
 1431 0105 50       		.byte	0x50
 1432 0106 36010000 		.4byte	.LVL6
 1433 010a 40010000 		.4byte	.LVL7
 1434 010e 0100     		.2byte	0x1
 1435 0110 50       		.byte	0x50
 1436 0111 5A010000 		.4byte	.LVL8
 1437 0115 5C010000 		.4byte	.LVL9
 1438 0119 0100     		.2byte	0x1
 1439 011b 50       		.byte	0x50
 1440 011c 00000000 		.4byte	0x0
 1441 0120 00000000 		.4byte	0x0
 1442              	.LLST9:
 1443 0124 00000000 		.4byte	.LFB120
 1444 0128 02000000 		.4byte	.LCFI6
 1445 012c 0200     		.2byte	0x2
 1446 012e 7D       		.byte	0x7d
 1447 012f 00       		.sleb128 0
 1448 0130 02000000 		.4byte	.LCFI6
 1449 0134 0E000000 		.4byte	.LCFI7
 1450 0138 0200     		.2byte	0x2
 1451 013a 7D       		.byte	0x7d
 1452 013b 10       		.sleb128 16
 1453 013c 0E000000 		.4byte	.LCFI7
 1454 0140 10010000 		.4byte	.LFE120
 1455 0144 0200     		.2byte	0x2
 1456 0146 7D       		.byte	0x7d
 1457 0147 38       		.sleb128 56
 1458 0148 00000000 		.4byte	0x0
 1459 014c 00000000 		.4byte	0x0
 1460              	.LLST10:
ARM GAS  C:\Users\DNIEL~1\AppData\Local\Temp\ccahiECR.s 			page 28


 1461 0150 00000000 		.4byte	.LFB124
 1462 0154 04000000 		.4byte	.LCFI8
 1463 0158 0200     		.2byte	0x2
 1464 015a 7D       		.byte	0x7d
 1465 015b 00       		.sleb128 0
 1466 015c 04000000 		.4byte	.LCFI8
 1467 0160 FC000000 		.4byte	.LFE124
 1468 0164 0200     		.2byte	0x2
 1469 0166 7D       		.byte	0x7d
 1470 0167 18       		.sleb128 24
 1471 0168 00000000 		.4byte	0x0
 1472 016c 00000000 		.4byte	0x0
 1473              	.LLST11:
 1474 0170 00000000 		.4byte	.LVL10
 1475 0174 11000000 		.4byte	.LVL12-1
 1476 0178 0100     		.2byte	0x1
 1477 017a 50       		.byte	0x50
 1478 017b 11000000 		.4byte	.LVL12-1
 1479 017f FC000000 		.4byte	.LFE124
 1480 0183 0100     		.2byte	0x1
 1481 0185 54       		.byte	0x54
 1482 0186 00000000 		.4byte	0x0
 1483 018a 00000000 		.4byte	0x0
 1484              	.LLST12:
 1485 018e 00000000 		.4byte	.LVL10
 1486 0192 06000000 		.4byte	.LVL11
 1487 0196 0100     		.2byte	0x1
 1488 0198 51       		.byte	0x51
 1489 0199 00000000 		.4byte	0x0
 1490 019d 00000000 		.4byte	0x0
 1491              	.LLST13:
 1492 01a1 00000000 		.4byte	.LVL10
 1493 01a5 11000000 		.4byte	.LVL12-1
 1494 01a9 0100     		.2byte	0x1
 1495 01ab 52       		.byte	0x52
 1496 01ac 00000000 		.4byte	0x0
 1497 01b0 00000000 		.4byte	0x0
 1498              	.LLST14:
 1499 01b4 00000000 		.4byte	.LFB125
 1500 01b8 04000000 		.4byte	.LCFI9
 1501 01bc 0200     		.2byte	0x2
 1502 01be 7D       		.byte	0x7d
 1503 01bf 00       		.sleb128 0
 1504 01c0 04000000 		.4byte	.LCFI9
 1505 01c4 14020000 		.4byte	.LFE125
 1506 01c8 0200     		.2byte	0x2
 1507 01ca 7D       		.byte	0x7d
 1508 01cb 18       		.sleb128 24
 1509 01cc 00000000 		.4byte	0x0
 1510 01d0 00000000 		.4byte	0x0
 1511              	.LLST15:
 1512 01d4 00000000 		.4byte	.LVL13
 1513 01d8 0F000000 		.4byte	.LVL15-1
 1514 01dc 0100     		.2byte	0x1
 1515 01de 50       		.byte	0x50
 1516 01df 0F000000 		.4byte	.LVL15-1
 1517 01e3 14020000 		.4byte	.LFE125
ARM GAS  C:\Users\DNIEL~1\AppData\Local\Temp\ccahiECR.s 			page 29


 1518 01e7 0100     		.2byte	0x1
 1519 01e9 54       		.byte	0x54
 1520 01ea 00000000 		.4byte	0x0
 1521 01ee 00000000 		.4byte	0x0
 1522              	.LLST16:
 1523 01f2 00000000 		.4byte	.LVL13
 1524 01f6 0A000000 		.4byte	.LVL14
 1525 01fa 0100     		.2byte	0x1
 1526 01fc 51       		.byte	0x51
 1527 01fd 0A000000 		.4byte	.LVL14
 1528 0201 40000000 		.4byte	.LVL16
 1529 0205 0100     		.2byte	0x1
 1530 0207 56       		.byte	0x56
 1531 0208 4C000000 		.4byte	.LVL17
 1532 020c 66000000 		.4byte	.LVL18
 1533 0210 0100     		.2byte	0x1
 1534 0212 56       		.byte	0x56
 1535 0213 92000000 		.4byte	.LVL20
 1536 0217 94000000 		.4byte	.LVL21
 1537 021b 0100     		.2byte	0x1
 1538 021d 56       		.byte	0x56
 1539 021e 24010000 		.4byte	.LVL25
 1540 0222 3C010000 		.4byte	.LVL28
 1541 0226 0100     		.2byte	0x1
 1542 0228 56       		.byte	0x56
 1543 0229 00000000 		.4byte	0x0
 1544 022d 00000000 		.4byte	0x0
 1545              	.LLST17:
 1546 0231 00000000 		.4byte	.LVL13
 1547 0235 0F000000 		.4byte	.LVL15-1
 1548 0239 0100     		.2byte	0x1
 1549 023b 52       		.byte	0x52
 1550 023c 0F000000 		.4byte	.LVL15-1
 1551 0240 40000000 		.4byte	.LVL16
 1552 0244 0100     		.2byte	0x1
 1553 0246 55       		.byte	0x55
 1554 0247 4C000000 		.4byte	.LVL17
 1555 024b 86000000 		.4byte	.LVL19
 1556 024f 0100     		.2byte	0x1
 1557 0251 55       		.byte	0x55
 1558 0252 92000000 		.4byte	.LVL20
 1559 0256 AE000000 		.4byte	.LVL22
 1560 025a 0100     		.2byte	0x1
 1561 025c 55       		.byte	0x55
 1562 025d F8000000 		.4byte	.LVL23
 1563 0261 4A010000 		.4byte	.LVL29
 1564 0265 0100     		.2byte	0x1
 1565 0267 55       		.byte	0x55
 1566 0268 66010000 		.4byte	.LVL30
 1567 026c 14020000 		.4byte	.LFE125
 1568 0270 0100     		.2byte	0x1
 1569 0272 55       		.byte	0x55
 1570 0273 00000000 		.4byte	0x0
 1571 0277 00000000 		.4byte	0x0
 1572              	.LLST18:
 1573 027b 86000000 		.4byte	.LVL19
 1574 027f 92000000 		.4byte	.LVL20
ARM GAS  C:\Users\DNIEL~1\AppData\Local\Temp\ccahiECR.s 			page 30


 1575 0283 0100     		.2byte	0x1
 1576 0285 55       		.byte	0x55
 1577 0286 16010000 		.4byte	.LVL24
 1578 028a 24010000 		.4byte	.LVL25
 1579 028e 0100     		.2byte	0x1
 1580 0290 56       		.byte	0x56
 1581 0291 2A010000 		.4byte	.LVL26
 1582 0295 34010000 		.4byte	.LVL27
 1583 0299 0100     		.2byte	0x1
 1584 029b 50       		.byte	0x50
 1585 029c 3C010000 		.4byte	.LVL28
 1586 02a0 4A010000 		.4byte	.LVL29
 1587 02a4 0100     		.2byte	0x1
 1588 02a6 56       		.byte	0x56
 1589 02a7 4A010000 		.4byte	.LVL29
 1590 02ab 66010000 		.4byte	.LVL30
 1591 02af 0100     		.2byte	0x1
 1592 02b1 55       		.byte	0x55
 1593 02b2 66010000 		.4byte	.LVL30
 1594 02b6 14020000 		.4byte	.LFE125
 1595 02ba 0100     		.2byte	0x1
 1596 02bc 56       		.byte	0x56
 1597 02bd 00000000 		.4byte	0x0
 1598 02c1 00000000 		.4byte	0x0
 1599              	.LLST19:
 1600 02c5 00000000 		.4byte	.LFB126
 1601 02c9 04000000 		.4byte	.LCFI10
 1602 02cd 0200     		.2byte	0x2
 1603 02cf 7D       		.byte	0x7d
 1604 02d0 00       		.sleb128 0
 1605 02d1 04000000 		.4byte	.LCFI10
 1606 02d5 AC000000 		.4byte	.LFE126
 1607 02d9 0200     		.2byte	0x2
 1608 02db 7D       		.byte	0x7d
 1609 02dc 18       		.sleb128 24
 1610 02dd 00000000 		.4byte	0x0
 1611 02e1 00000000 		.4byte	0x0
 1612              	.LLST20:
 1613 02e5 00000000 		.4byte	.LVL31
 1614 02e9 0F000000 		.4byte	.LVL33-1
 1615 02ed 0100     		.2byte	0x1
 1616 02ef 50       		.byte	0x50
 1617 02f0 0F000000 		.4byte	.LVL33-1
 1618 02f4 AC000000 		.4byte	.LFE126
 1619 02f8 0100     		.2byte	0x1
 1620 02fa 56       		.byte	0x56
 1621 02fb 00000000 		.4byte	0x0
 1622 02ff 00000000 		.4byte	0x0
 1623              	.LLST21:
 1624 0303 00000000 		.4byte	.LVL31
 1625 0307 0A000000 		.4byte	.LVL32
 1626 030b 0100     		.2byte	0x1
 1627 030d 51       		.byte	0x51
 1628 030e 0A000000 		.4byte	.LVL32
 1629 0312 28000000 		.4byte	.LVL34
 1630 0316 0100     		.2byte	0x1
 1631 0318 54       		.byte	0x54
ARM GAS  C:\Users\DNIEL~1\AppData\Local\Temp\ccahiECR.s 			page 31


 1632 0319 3C000000 		.4byte	.LVL35
 1633 031d 3E000000 		.4byte	.LVL36
 1634 0321 0100     		.2byte	0x1
 1635 0323 54       		.byte	0x54
 1636 0324 00000000 		.4byte	0x0
 1637 0328 00000000 		.4byte	0x0
 1638              	.LLST22:
 1639 032c 00000000 		.4byte	.LVL31
 1640 0330 0F000000 		.4byte	.LVL33-1
 1641 0334 0100     		.2byte	0x1
 1642 0336 52       		.byte	0x52
 1643 0337 0F000000 		.4byte	.LVL33-1
 1644 033b AC000000 		.4byte	.LFE126
 1645 033f 0100     		.2byte	0x1
 1646 0341 57       		.byte	0x57
 1647 0342 00000000 		.4byte	0x0
 1648 0346 00000000 		.4byte	0x0
 1649              		.file 3 "c:\\program files (x86)\\codesourcery\\sourcery g++ lite\\bin\\../lib/gcc/arm-none-eabi/4
 1650              		.file 4 "c:\\program files (x86)\\codesourcery\\sourcery g++ lite\\bin\\../lib/gcc/arm-none-eabi/4
 1651              		.file 5 "../../../ChibiOS/os/ports/GCC/ARMCMx/chtypes.h"
 1652              		.file 6 "../../../ChibiOS/os/kernel/include/chstreams.h"
 1653              		.file 7 "../../../ChibiOS/os/hal/include/io_channel.h"
 1654              		.file 8 "../../../ChibiOS/os/hal/platforms/STM32/TIMv1/stm32_tim.h"
 1655              		.file 9 "../../../ChibiOS/os/hal/include/pwm.h"
 1656              		.file 10 "../../../ChibiOS/os/hal/platforms/STM32/TIMv1/pwm_lld.h"
 1657              		.file 11 "c:\\program files (x86)\\codesourcery\\sourcery g++ lite\\bin\\../lib/gcc/arm-none-eabi/
 1658              		.file 12 "<built-in>"
 1659              		.file 13 "../../../ChibiOS/os/ports/common/ARMCMx/CMSIS/include/core_cm4.h"
 1660              		.section	.debug_info
 1661 0000 590A0000 		.4byte	0xa59
 1662 0004 0200     		.2byte	0x2
 1663 0006 00000000 		.4byte	.Ldebug_abbrev0
 1664 000a 04       		.byte	0x4
 1665 000b 01       		.uleb128 0x1
 1666 000c 55030000 		.4byte	.LASF90
 1667 0010 01       		.byte	0x1
 1668 0011 35020000 		.4byte	.LASF91
 1669 0015 BA000000 		.4byte	.LASF92
 1670 0019 00000000 		.4byte	0x0
 1671 001d 00000000 		.4byte	0x0
 1672 0021 68000000 		.4byte	.Ldebug_ranges0+0x68
 1673 0025 00000000 		.4byte	.Ldebug_line0
 1674 0029 02       		.uleb128 0x2
 1675 002a 01       		.byte	0x1
 1676 002b 06       		.byte	0x6
 1677 002c A2000000 		.4byte	.LASF0
 1678 0030 02       		.uleb128 0x2
 1679 0031 01       		.byte	0x1
 1680 0032 08       		.byte	0x8
 1681 0033 64020000 		.4byte	.LASF1
 1682 0037 02       		.uleb128 0x2
 1683 0038 02       		.byte	0x2
 1684 0039 05       		.byte	0x5
 1685 003a 82020000 		.4byte	.LASF2
 1686 003e 02       		.uleb128 0x2
 1687 003f 02       		.byte	0x2
 1688 0040 07       		.byte	0x7
ARM GAS  C:\Users\DNIEL~1\AppData\Local\Temp\ccahiECR.s 			page 32


 1689 0041 A9010000 		.4byte	.LASF3
 1690 0045 03       		.uleb128 0x3
 1691 0046 04       		.byte	0x4
 1692 0047 05       		.byte	0x5
 1693 0048 696E7400 		.ascii	"int\000"
 1694 004c 02       		.uleb128 0x2
 1695 004d 04       		.byte	0x4
 1696 004e 07       		.byte	0x7
 1697 004f 52010000 		.4byte	.LASF4
 1698 0053 02       		.uleb128 0x2
 1699 0054 08       		.byte	0x8
 1700 0055 05       		.byte	0x5
 1701 0056 94000000 		.4byte	.LASF5
 1702 005a 02       		.uleb128 0x2
 1703 005b 08       		.byte	0x8
 1704 005c 07       		.byte	0x7
 1705 005d 2F000000 		.4byte	.LASF6
 1706 0061 02       		.uleb128 0x2
 1707 0062 04       		.byte	0x4
 1708 0063 05       		.byte	0x5
 1709 0064 FC000000 		.4byte	.LASF7
 1710 0068 04       		.uleb128 0x4
 1711 0069 04       		.byte	0x4
 1712 006a 02       		.uleb128 0x2
 1713 006b 04       		.byte	0x4
 1714 006c 07       		.byte	0x7
 1715 006d 69010000 		.4byte	.LASF8
 1716 0071 05       		.uleb128 0x5
 1717 0072 04       		.byte	0x4
 1718 0073 77000000 		.4byte	0x77
 1719 0077 02       		.uleb128 0x2
 1720 0078 01       		.byte	0x1
 1721 0079 08       		.byte	0x8
 1722 007a D1020000 		.4byte	.LASF9
 1723 007e 05       		.uleb128 0x5
 1724 007f 04       		.byte	0x4
 1725 0080 84000000 		.4byte	0x84
 1726 0084 06       		.uleb128 0x6
 1727 0085 77000000 		.4byte	0x77
 1728 0089 07       		.uleb128 0x7
 1729 008a 05000000 		.4byte	.LASF10
 1730 008e 03       		.byte	0x3
 1731 008f D3       		.byte	0xd3
 1732 0090 4C000000 		.4byte	0x4c
 1733 0094 07       		.uleb128 0x7
 1734 0095 1E030000 		.4byte	.LASF11
 1735 0099 04       		.byte	0x4
 1736 009a 2A       		.byte	0x2a
 1737 009b 30000000 		.4byte	0x30
 1738 009f 07       		.uleb128 0x7
 1739 00a0 86000000 		.4byte	.LASF12
 1740 00a4 04       		.byte	0x4
 1741 00a5 35       		.byte	0x35
 1742 00a6 37000000 		.4byte	0x37
 1743 00aa 07       		.uleb128 0x7
 1744 00ab 19010000 		.4byte	.LASF13
 1745 00af 04       		.byte	0x4
ARM GAS  C:\Users\DNIEL~1\AppData\Local\Temp\ccahiECR.s 			page 33


 1746 00b0 36       		.byte	0x36
 1747 00b1 3E000000 		.4byte	0x3e
 1748 00b5 07       		.uleb128 0x7
 1749 00b6 5C020000 		.4byte	.LASF14
 1750 00ba 04       		.byte	0x4
 1751 00bb 4F       		.byte	0x4f
 1752 00bc 61000000 		.4byte	0x61
 1753 00c0 07       		.uleb128 0x7
 1754 00c1 B5020000 		.4byte	.LASF15
 1755 00c5 04       		.byte	0x4
 1756 00c6 50       		.byte	0x50
 1757 00c7 6A000000 		.4byte	0x6a
 1758 00cb 02       		.uleb128 0x2
 1759 00cc 01       		.byte	0x1
 1760 00cd 02       		.byte	0x2
 1761 00ce 56020000 		.4byte	.LASF16
 1762 00d2 07       		.uleb128 0x7
 1763 00d3 D5010000 		.4byte	.LASF17
 1764 00d7 05       		.byte	0x5
 1765 00d8 31       		.byte	0x31
 1766 00d9 B5000000 		.4byte	0xb5
 1767 00dd 07       		.uleb128 0x7
 1768 00de EC020000 		.4byte	.LASF18
 1769 00e2 05       		.byte	0x5
 1770 00e3 35       		.byte	0x35
 1771 00e4 C0000000 		.4byte	0xc0
 1772 00e8 08       		.uleb128 0x8
 1773 00e9 C0000000 		.4byte	0xc0
 1774 00ed 05       		.uleb128 0x5
 1775 00ee 04       		.byte	0x4
 1776 00ef F3000000 		.4byte	0xf3
 1777 00f3 09       		.uleb128 0x9
 1778 00f4 01       		.byte	0x1
 1779 00f5 D2000000 		.4byte	0xd2
 1780 00f9 03010000 		.4byte	0x103
 1781 00fd 0A       		.uleb128 0xa
 1782 00fe 68000000 		.4byte	0x68
 1783 0102 00       		.byte	0x0
 1784 0103 05       		.uleb128 0x5
 1785 0104 04       		.byte	0x4
 1786 0105 94000000 		.4byte	0x94
 1787 0109 0B       		.uleb128 0xb
 1788 010a 8C020000 		.4byte	.LASF22
 1789 010e 10       		.byte	0x10
 1790 010f 06       		.byte	0x6
 1791 0110 48       		.byte	0x48
 1792 0111 4E010000 		.4byte	0x14e
 1793 0115 0C       		.uleb128 0xc
 1794 0116 0B020000 		.4byte	.LASF19
 1795 011a 06       		.byte	0x6
 1796 011b 49       		.byte	0x49
 1797 011c 73010000 		.4byte	0x173
 1798 0120 02       		.byte	0x2
 1799 0121 23       		.byte	0x23
 1800 0122 00       		.uleb128 0x0
 1801 0123 0C       		.uleb128 0xc
 1802 0124 50030000 		.4byte	.LASF20
ARM GAS  C:\Users\DNIEL~1\AppData\Local\Temp\ccahiECR.s 			page 34


 1803 0128 06       		.byte	0x6
 1804 0129 49       		.byte	0x49
 1805 012a 93010000 		.4byte	0x193
 1806 012e 02       		.byte	0x2
 1807 012f 23       		.byte	0x23
 1808 0130 04       		.uleb128 0x4
 1809 0131 0D       		.uleb128 0xd
 1810 0132 70757400 		.ascii	"put\000"
 1811 0136 06       		.byte	0x6
 1812 0137 49       		.byte	0x49
 1813 0138 AE010000 		.4byte	0x1ae
 1814 013c 02       		.byte	0x2
 1815 013d 23       		.byte	0x23
 1816 013e 08       		.uleb128 0x8
 1817 013f 0D       		.uleb128 0xd
 1818 0140 67657400 		.ascii	"get\000"
 1819 0144 06       		.byte	0x6
 1820 0145 49       		.byte	0x49
 1821 0146 ED000000 		.4byte	0xed
 1822 014a 02       		.byte	0x2
 1823 014b 23       		.byte	0x23
 1824 014c 0C       		.uleb128 0xc
 1825 014d 00       		.byte	0x0
 1826 014e 09       		.uleb128 0x9
 1827 014f 01       		.byte	0x1
 1828 0150 89000000 		.4byte	0x89
 1829 0154 68010000 		.4byte	0x168
 1830 0158 0A       		.uleb128 0xa
 1831 0159 68000000 		.4byte	0x68
 1832 015d 0A       		.uleb128 0xa
 1833 015e 68010000 		.4byte	0x168
 1834 0162 0A       		.uleb128 0xa
 1835 0163 89000000 		.4byte	0x89
 1836 0167 00       		.byte	0x0
 1837 0168 05       		.uleb128 0x5
 1838 0169 04       		.byte	0x4
 1839 016a 6E010000 		.4byte	0x16e
 1840 016e 06       		.uleb128 0x6
 1841 016f 94000000 		.4byte	0x94
 1842 0173 05       		.uleb128 0x5
 1843 0174 04       		.byte	0x4
 1844 0175 4E010000 		.4byte	0x14e
 1845 0179 09       		.uleb128 0x9
 1846 017a 01       		.byte	0x1
 1847 017b 89000000 		.4byte	0x89
 1848 017f 93010000 		.4byte	0x193
 1849 0183 0A       		.uleb128 0xa
 1850 0184 68000000 		.4byte	0x68
 1851 0188 0A       		.uleb128 0xa
 1852 0189 03010000 		.4byte	0x103
 1853 018d 0A       		.uleb128 0xa
 1854 018e 89000000 		.4byte	0x89
 1855 0192 00       		.byte	0x0
 1856 0193 05       		.uleb128 0x5
 1857 0194 04       		.byte	0x4
 1858 0195 79010000 		.4byte	0x179
 1859 0199 09       		.uleb128 0x9
ARM GAS  C:\Users\DNIEL~1\AppData\Local\Temp\ccahiECR.s 			page 35


 1860 019a 01       		.byte	0x1
 1861 019b D2000000 		.4byte	0xd2
 1862 019f AE010000 		.4byte	0x1ae
 1863 01a3 0A       		.uleb128 0xa
 1864 01a4 68000000 		.4byte	0x68
 1865 01a8 0A       		.uleb128 0xa
 1866 01a9 94000000 		.4byte	0x94
 1867 01ad 00       		.byte	0x0
 1868 01ae 05       		.uleb128 0x5
 1869 01af 04       		.byte	0x4
 1870 01b0 99010000 		.4byte	0x199
 1871 01b4 0E       		.uleb128 0xe
 1872 01b5 04       		.byte	0x4
 1873 01b6 06       		.byte	0x6
 1874 01b7 51       		.byte	0x51
 1875 01b8 CB010000 		.4byte	0x1cb
 1876 01bc 0D       		.uleb128 0xd
 1877 01bd 766D7400 		.ascii	"vmt\000"
 1878 01c1 06       		.byte	0x6
 1879 01c2 53       		.byte	0x53
 1880 01c3 CB010000 		.4byte	0x1cb
 1881 01c7 02       		.byte	0x2
 1882 01c8 23       		.byte	0x23
 1883 01c9 00       		.uleb128 0x0
 1884 01ca 00       		.byte	0x0
 1885 01cb 05       		.uleb128 0x5
 1886 01cc 04       		.byte	0x4
 1887 01cd D1010000 		.4byte	0x1d1
 1888 01d1 06       		.uleb128 0x6
 1889 01d2 09010000 		.4byte	0x109
 1890 01d6 07       		.uleb128 0x7
 1891 01d7 3D010000 		.4byte	.LASF21
 1892 01db 06       		.byte	0x6
 1893 01dc 55       		.byte	0x55
 1894 01dd B4010000 		.4byte	0x1b4
 1895 01e1 0F       		.uleb128 0xf
 1896 01e2 C0000000 		.4byte	0xc0
 1897 01e6 F1010000 		.4byte	0x1f1
 1898 01ea 10       		.uleb128 0x10
 1899 01eb 4C000000 		.4byte	0x4c
 1900 01ef 03       		.byte	0x3
 1901 01f0 00       		.byte	0x0
 1902 01f1 08       		.uleb128 0x8
 1903 01f2 B5000000 		.4byte	0xb5
 1904 01f6 0B       		.uleb128 0xb
 1905 01f7 46000000 		.4byte	.LASF23
 1906 01fb 20       		.byte	0x20
 1907 01fc 07       		.byte	0x7
 1908 01fd 4E       		.byte	0x4e
 1909 01fe 73020000 		.4byte	0x273
 1910 0202 0C       		.uleb128 0xc
 1911 0203 0B020000 		.4byte	.LASF19
 1912 0207 07       		.byte	0x7
 1913 0208 4F       		.byte	0x4f
 1914 0209 73010000 		.4byte	0x173
 1915 020d 02       		.byte	0x2
 1916 020e 23       		.byte	0x23
ARM GAS  C:\Users\DNIEL~1\AppData\Local\Temp\ccahiECR.s 			page 36


 1917 020f 00       		.uleb128 0x0
 1918 0210 0C       		.uleb128 0xc
 1919 0211 50030000 		.4byte	.LASF20
 1920 0215 07       		.byte	0x7
 1921 0216 4F       		.byte	0x4f
 1922 0217 93010000 		.4byte	0x193
 1923 021b 02       		.byte	0x2
 1924 021c 23       		.byte	0x23
 1925 021d 04       		.uleb128 0x4
 1926 021e 0D       		.uleb128 0xd
 1927 021f 70757400 		.ascii	"put\000"
 1928 0223 07       		.byte	0x7
 1929 0224 4F       		.byte	0x4f
 1930 0225 AE010000 		.4byte	0x1ae
 1931 0229 02       		.byte	0x2
 1932 022a 23       		.byte	0x23
 1933 022b 08       		.uleb128 0x8
 1934 022c 0D       		.uleb128 0xd
 1935 022d 67657400 		.ascii	"get\000"
 1936 0231 07       		.byte	0x7
 1937 0232 4F       		.byte	0x4f
 1938 0233 ED000000 		.4byte	0xed
 1939 0237 02       		.byte	0x2
 1940 0238 23       		.byte	0x23
 1941 0239 0C       		.uleb128 0xc
 1942 023a 0C       		.uleb128 0xc
 1943 023b 11020000 		.4byte	.LASF24
 1944 023f 07       		.byte	0x7
 1945 0240 4F       		.byte	0x4f
 1946 0241 8D020000 		.4byte	0x28d
 1947 0245 02       		.byte	0x2
 1948 0246 23       		.byte	0x23
 1949 0247 10       		.uleb128 0x10
 1950 0248 0C       		.uleb128 0xc
 1951 0249 05010000 		.4byte	.LASF25
 1952 024d 07       		.byte	0x7
 1953 024e 4F       		.byte	0x4f
 1954 024f A8020000 		.4byte	0x2a8
 1955 0253 02       		.byte	0x2
 1956 0254 23       		.byte	0x23
 1957 0255 14       		.uleb128 0x14
 1958 0256 0C       		.uleb128 0xc
 1959 0257 EA010000 		.4byte	.LASF26
 1960 025b 07       		.byte	0x7
 1961 025c 4F       		.byte	0x4f
 1962 025d CD020000 		.4byte	0x2cd
 1963 0261 02       		.byte	0x2
 1964 0262 23       		.byte	0x23
 1965 0263 18       		.uleb128 0x18
 1966 0264 0C       		.uleb128 0xc
 1967 0265 80000000 		.4byte	.LASF27
 1968 0269 07       		.byte	0x7
 1969 026a 4F       		.byte	0x4f
 1970 026b F2020000 		.4byte	0x2f2
 1971 026f 02       		.byte	0x2
 1972 0270 23       		.byte	0x23
 1973 0271 1C       		.uleb128 0x1c
ARM GAS  C:\Users\DNIEL~1\AppData\Local\Temp\ccahiECR.s 			page 37


 1974 0272 00       		.byte	0x0
 1975 0273 09       		.uleb128 0x9
 1976 0274 01       		.byte	0x1
 1977 0275 D2000000 		.4byte	0xd2
 1978 0279 8D020000 		.4byte	0x28d
 1979 027d 0A       		.uleb128 0xa
 1980 027e 68000000 		.4byte	0x68
 1981 0282 0A       		.uleb128 0xa
 1982 0283 94000000 		.4byte	0x94
 1983 0287 0A       		.uleb128 0xa
 1984 0288 DD000000 		.4byte	0xdd
 1985 028c 00       		.byte	0x0
 1986 028d 05       		.uleb128 0x5
 1987 028e 04       		.byte	0x4
 1988 028f 73020000 		.4byte	0x273
 1989 0293 09       		.uleb128 0x9
 1990 0294 01       		.byte	0x1
 1991 0295 D2000000 		.4byte	0xd2
 1992 0299 A8020000 		.4byte	0x2a8
 1993 029d 0A       		.uleb128 0xa
 1994 029e 68000000 		.4byte	0x68
 1995 02a2 0A       		.uleb128 0xa
 1996 02a3 DD000000 		.4byte	0xdd
 1997 02a7 00       		.byte	0x0
 1998 02a8 05       		.uleb128 0x5
 1999 02a9 04       		.byte	0x4
 2000 02aa 93020000 		.4byte	0x293
 2001 02ae 09       		.uleb128 0x9
 2002 02af 01       		.byte	0x1
 2003 02b0 89000000 		.4byte	0x89
 2004 02b4 CD020000 		.4byte	0x2cd
 2005 02b8 0A       		.uleb128 0xa
 2006 02b9 68000000 		.4byte	0x68
 2007 02bd 0A       		.uleb128 0xa
 2008 02be 68010000 		.4byte	0x168
 2009 02c2 0A       		.uleb128 0xa
 2010 02c3 89000000 		.4byte	0x89
 2011 02c7 0A       		.uleb128 0xa
 2012 02c8 DD000000 		.4byte	0xdd
 2013 02cc 00       		.byte	0x0
 2014 02cd 05       		.uleb128 0x5
 2015 02ce 04       		.byte	0x4
 2016 02cf AE020000 		.4byte	0x2ae
 2017 02d3 09       		.uleb128 0x9
 2018 02d4 01       		.byte	0x1
 2019 02d5 89000000 		.4byte	0x89
 2020 02d9 F2020000 		.4byte	0x2f2
 2021 02dd 0A       		.uleb128 0xa
 2022 02de 68000000 		.4byte	0x68
 2023 02e2 0A       		.uleb128 0xa
 2024 02e3 03010000 		.4byte	0x103
 2025 02e7 0A       		.uleb128 0xa
 2026 02e8 89000000 		.4byte	0x89
 2027 02ec 0A       		.uleb128 0xa
 2028 02ed DD000000 		.4byte	0xdd
 2029 02f1 00       		.byte	0x0
 2030 02f2 05       		.uleb128 0x5
ARM GAS  C:\Users\DNIEL~1\AppData\Local\Temp\ccahiECR.s 			page 38


 2031 02f3 04       		.byte	0x4
 2032 02f4 D3020000 		.4byte	0x2d3
 2033 02f8 0E       		.uleb128 0xe
 2034 02f9 04       		.byte	0x4
 2035 02fa 07       		.byte	0x7
 2036 02fb 59       		.byte	0x59
 2037 02fc 0F030000 		.4byte	0x30f
 2038 0300 0D       		.uleb128 0xd
 2039 0301 766D7400 		.ascii	"vmt\000"
 2040 0305 07       		.byte	0x7
 2041 0306 5B       		.byte	0x5b
 2042 0307 0F030000 		.4byte	0x30f
 2043 030b 02       		.byte	0x2
 2044 030c 23       		.byte	0x23
 2045 030d 00       		.uleb128 0x0
 2046 030e 00       		.byte	0x0
 2047 030f 05       		.uleb128 0x5
 2048 0310 04       		.byte	0x4
 2049 0311 15030000 		.4byte	0x315
 2050 0315 06       		.uleb128 0x6
 2051 0316 F6010000 		.4byte	0x1f6
 2052 031a 07       		.uleb128 0x7
 2053 031b 30030000 		.4byte	.LASF28
 2054 031f 07       		.byte	0x7
 2055 0320 5D       		.byte	0x5d
 2056 0321 F8020000 		.4byte	0x2f8
 2057 0325 11       		.uleb128 0x11
 2058 0326 60       		.byte	0x60
 2059 0327 08       		.byte	0x8
 2060 0328 9E01     		.2byte	0x19e
 2061 032a 68040000 		.4byte	0x468
 2062 032e 12       		.uleb128 0x12
 2063 032f 43523100 		.ascii	"CR1\000"
 2064 0333 08       		.byte	0x8
 2065 0334 9F01     		.2byte	0x19f
 2066 0336 E8000000 		.4byte	0xe8
 2067 033a 02       		.byte	0x2
 2068 033b 23       		.byte	0x23
 2069 033c 00       		.uleb128 0x0
 2070 033d 12       		.uleb128 0x12
 2071 033e 43523200 		.ascii	"CR2\000"
 2072 0342 08       		.byte	0x8
 2073 0343 A001     		.2byte	0x1a0
 2074 0345 E8000000 		.4byte	0xe8
 2075 0349 02       		.byte	0x2
 2076 034a 23       		.byte	0x23
 2077 034b 04       		.uleb128 0x4
 2078 034c 13       		.uleb128 0x13
 2079 034d DB020000 		.4byte	.LASF29
 2080 0351 08       		.byte	0x8
 2081 0352 A101     		.2byte	0x1a1
 2082 0354 E8000000 		.4byte	0xe8
 2083 0358 02       		.byte	0x2
 2084 0359 23       		.byte	0x23
 2085 035a 08       		.uleb128 0x8
 2086 035b 13       		.uleb128 0x13
 2087 035c 00000000 		.4byte	.LASF30
ARM GAS  C:\Users\DNIEL~1\AppData\Local\Temp\ccahiECR.s 			page 39


 2088 0360 08       		.byte	0x8
 2089 0361 A201     		.2byte	0x1a2
 2090 0363 E8000000 		.4byte	0xe8
 2091 0367 02       		.byte	0x2
 2092 0368 23       		.byte	0x23
 2093 0369 0C       		.uleb128 0xc
 2094 036a 12       		.uleb128 0x12
 2095 036b 535200   		.ascii	"SR\000"
 2096 036e 08       		.byte	0x8
 2097 036f A301     		.2byte	0x1a3
 2098 0371 E8000000 		.4byte	0xe8
 2099 0375 02       		.byte	0x2
 2100 0376 23       		.byte	0x23
 2101 0377 10       		.uleb128 0x10
 2102 0378 12       		.uleb128 0x12
 2103 0379 45475200 		.ascii	"EGR\000"
 2104 037d 08       		.byte	0x8
 2105 037e A401     		.2byte	0x1a4
 2106 0380 E8000000 		.4byte	0xe8
 2107 0384 02       		.byte	0x2
 2108 0385 23       		.byte	0x23
 2109 0386 14       		.uleb128 0x14
 2110 0387 13       		.uleb128 0x13
 2111 0388 FB020000 		.4byte	.LASF31
 2112 038c 08       		.byte	0x8
 2113 038d A501     		.2byte	0x1a5
 2114 038f E8000000 		.4byte	0xe8
 2115 0393 02       		.byte	0x2
 2116 0394 23       		.byte	0x23
 2117 0395 18       		.uleb128 0x18
 2118 0396 13       		.uleb128 0x13
 2119 0397 8E000000 		.4byte	.LASF32
 2120 039b 08       		.byte	0x8
 2121 039c A601     		.2byte	0x1a6
 2122 039e E8000000 		.4byte	0xe8
 2123 03a2 02       		.byte	0x2
 2124 03a3 23       		.byte	0x23
 2125 03a4 1C       		.uleb128 0x1c
 2126 03a5 13       		.uleb128 0x13
 2127 03a6 14010000 		.4byte	.LASF33
 2128 03aa 08       		.byte	0x8
 2129 03ab A701     		.2byte	0x1a7
 2130 03ad E8000000 		.4byte	0xe8
 2131 03b1 02       		.byte	0x2
 2132 03b2 23       		.byte	0x23
 2133 03b3 20       		.uleb128 0x20
 2134 03b4 12       		.uleb128 0x12
 2135 03b5 434E5400 		.ascii	"CNT\000"
 2136 03b9 08       		.byte	0x8
 2137 03ba A801     		.2byte	0x1a8
 2138 03bc E8000000 		.4byte	0xe8
 2139 03c0 02       		.byte	0x2
 2140 03c1 23       		.byte	0x23
 2141 03c2 24       		.uleb128 0x24
 2142 03c3 12       		.uleb128 0x12
 2143 03c4 50534300 		.ascii	"PSC\000"
 2144 03c8 08       		.byte	0x8
ARM GAS  C:\Users\DNIEL~1\AppData\Local\Temp\ccahiECR.s 			page 40


 2145 03c9 A901     		.2byte	0x1a9
 2146 03cb E8000000 		.4byte	0xe8
 2147 03cf 02       		.byte	0x2
 2148 03d0 23       		.byte	0x23
 2149 03d1 28       		.uleb128 0x28
 2150 03d2 12       		.uleb128 0x12
 2151 03d3 41525200 		.ascii	"ARR\000"
 2152 03d7 08       		.byte	0x8
 2153 03d8 AA01     		.2byte	0x1aa
 2154 03da E8000000 		.4byte	0xe8
 2155 03de 02       		.byte	0x2
 2156 03df 23       		.byte	0x23
 2157 03e0 2C       		.uleb128 0x2c
 2158 03e1 12       		.uleb128 0x12
 2159 03e2 52435200 		.ascii	"RCR\000"
 2160 03e6 08       		.byte	0x8
 2161 03e7 AB01     		.2byte	0x1ab
 2162 03e9 E8000000 		.4byte	0xe8
 2163 03ed 02       		.byte	0x2
 2164 03ee 23       		.byte	0x23
 2165 03ef 30       		.uleb128 0x30
 2166 03f0 12       		.uleb128 0x12
 2167 03f1 43435200 		.ascii	"CCR\000"
 2168 03f5 08       		.byte	0x8
 2169 03f6 AC01     		.2byte	0x1ac
 2170 03f8 68040000 		.4byte	0x468
 2171 03fc 02       		.byte	0x2
 2172 03fd 23       		.byte	0x23
 2173 03fe 34       		.uleb128 0x34
 2174 03ff 13       		.uleb128 0x13
 2175 0400 67000000 		.4byte	.LASF34
 2176 0404 08       		.byte	0x8
 2177 0405 AD01     		.2byte	0x1ad
 2178 0407 E8000000 		.4byte	0xe8
 2179 040b 02       		.byte	0x2
 2180 040c 23       		.byte	0x23
 2181 040d 44       		.uleb128 0x44
 2182 040e 12       		.uleb128 0x12
 2183 040f 44435200 		.ascii	"DCR\000"
 2184 0413 08       		.byte	0x8
 2185 0414 AE01     		.2byte	0x1ae
 2186 0416 E8000000 		.4byte	0xe8
 2187 041a 02       		.byte	0x2
 2188 041b 23       		.byte	0x23
 2189 041c 48       		.uleb128 0x48
 2190 041d 13       		.uleb128 0x13
 2191 041e E7020000 		.4byte	.LASF35
 2192 0422 08       		.byte	0x8
 2193 0423 AF01     		.2byte	0x1af
 2194 0425 E8000000 		.4byte	0xe8
 2195 0429 02       		.byte	0x2
 2196 042a 23       		.byte	0x23
 2197 042b 4C       		.uleb128 0x4c
 2198 042c 12       		.uleb128 0x12
 2199 042d 4F5200   		.ascii	"OR\000"
 2200 0430 08       		.byte	0x8
 2201 0431 B001     		.2byte	0x1b0
ARM GAS  C:\Users\DNIEL~1\AppData\Local\Temp\ccahiECR.s 			page 41


 2202 0433 E8000000 		.4byte	0xe8
 2203 0437 02       		.byte	0x2
 2204 0438 23       		.byte	0x23
 2205 0439 50       		.uleb128 0x50
 2206 043a 13       		.uleb128 0x13
 2207 043b 22000000 		.4byte	.LASF36
 2208 043f 08       		.byte	0x8
 2209 0440 B101     		.2byte	0x1b1
 2210 0442 E8000000 		.4byte	0xe8
 2211 0446 02       		.byte	0x2
 2212 0447 23       		.byte	0x23
 2213 0448 54       		.uleb128 0x54
 2214 0449 13       		.uleb128 0x13
 2215 044a 12030000 		.4byte	.LASF37
 2216 044e 08       		.byte	0x8
 2217 044f B201     		.2byte	0x1b2
 2218 0451 E8000000 		.4byte	0xe8
 2219 0455 02       		.byte	0x2
 2220 0456 23       		.byte	0x23
 2221 0457 58       		.uleb128 0x58
 2222 0458 13       		.uleb128 0x13
 2223 0459 55000000 		.4byte	.LASF38
 2224 045d 08       		.byte	0x8
 2225 045e B301     		.2byte	0x1b3
 2226 0460 E8000000 		.4byte	0xe8
 2227 0464 02       		.byte	0x2
 2228 0465 23       		.byte	0x23
 2229 0466 5C       		.uleb128 0x5c
 2230 0467 00       		.byte	0x0
 2231 0468 08       		.uleb128 0x8
 2232 0469 E1010000 		.4byte	0x1e1
 2233 046d 14       		.uleb128 0x14
 2234 046e AE000000 		.4byte	.LASF39
 2235 0472 08       		.byte	0x8
 2236 0473 B401     		.2byte	0x1b4
 2237 0475 25030000 		.4byte	0x325
 2238 0479 05       		.uleb128 0x5
 2239 047a 04       		.byte	0x4
 2240 047b 6D040000 		.4byte	0x46d
 2241 047f 15       		.uleb128 0x15
 2242 0480 01       		.byte	0x1
 2243 0481 09       		.byte	0x9
 2244 0482 55       		.byte	0x55
 2245 0483 9A040000 		.4byte	0x49a
 2246 0487 16       		.uleb128 0x16
 2247 0488 7B030000 		.4byte	.LASF40
 2248 048c 00       		.sleb128 0
 2249 048d 16       		.uleb128 0x16
 2250 048e C8020000 		.4byte	.LASF41
 2251 0492 01       		.sleb128 1
 2252 0493 16       		.uleb128 0x16
 2253 0494 76000000 		.4byte	.LASF42
 2254 0498 02       		.sleb128 2
 2255 0499 00       		.byte	0x0
 2256 049a 07       		.uleb128 0x7
 2257 049b 3C030000 		.4byte	.LASF43
 2258 049f 09       		.byte	0x9
ARM GAS  C:\Users\DNIEL~1\AppData\Local\Temp\ccahiECR.s 			page 42


 2259 04a0 59       		.byte	0x59
 2260 04a1 7F040000 		.4byte	0x47f
 2261 04a5 07       		.uleb128 0x7
 2262 04a6 26030000 		.4byte	.LASF44
 2263 04aa 09       		.byte	0x9
 2264 04ab 5E       		.byte	0x5e
 2265 04ac B0040000 		.4byte	0x4b0
 2266 04b0 17       		.uleb128 0x17
 2267 04b1 26030000 		.4byte	.LASF44
 2268 04b5 14       		.byte	0x14
 2269 04b6 0A       		.byte	0xa
 2270 04b7 6F01     		.2byte	0x16f
 2271 04b9 09050000 		.4byte	0x509
 2272 04bd 13       		.uleb128 0x13
 2273 04be ED000000 		.4byte	.LASF45
 2274 04c2 0A       		.byte	0xa
 2275 04c3 7301     		.2byte	0x173
 2276 04c5 9A040000 		.4byte	0x49a
 2277 04c9 02       		.byte	0x2
 2278 04ca 23       		.byte	0x23
 2279 04cb 00       		.uleb128 0x0
 2280 04cc 13       		.uleb128 0x13
 2281 04cd E0020000 		.4byte	.LASF46
 2282 04d1 0A       		.byte	0xa
 2283 04d2 7701     		.2byte	0x177
 2284 04d4 F8050000 		.4byte	0x5f8
 2285 04d8 02       		.byte	0x2
 2286 04d9 23       		.byte	0x23
 2287 04da 04       		.uleb128 0x4
 2288 04db 13       		.uleb128 0x13
 2289 04dc 28000000 		.4byte	.LASF47
 2290 04e0 0A       		.byte	0xa
 2291 04e1 7B01     		.2byte	0x17b
 2292 04e3 38050000 		.4byte	0x538
 2293 04e7 02       		.byte	0x2
 2294 04e8 23       		.byte	0x23
 2295 04e9 08       		.uleb128 0x8
 2296 04ea 13       		.uleb128 0x13
 2297 04eb 66030000 		.4byte	.LASF48
 2298 04ef 0A       		.byte	0xa
 2299 04f0 8301     		.2byte	0x183
 2300 04f2 C0000000 		.4byte	0xc0
 2301 04f6 02       		.byte	0x2
 2302 04f7 23       		.byte	0x23
 2303 04f8 0C       		.uleb128 0xc
 2304 04f9 12       		.uleb128 0x12
 2305 04fa 74696D00 		.ascii	"tim\000"
 2306 04fe 0A       		.byte	0xa
 2307 04ff 8701     		.2byte	0x187
 2308 0501 79040000 		.4byte	0x479
 2309 0505 02       		.byte	0x2
 2310 0506 23       		.byte	0x23
 2311 0507 10       		.uleb128 0x10
 2312 0508 00       		.byte	0x0
 2313 0509 07       		.uleb128 0x7
 2314 050a 48020000 		.4byte	.LASF49
 2315 050e 09       		.byte	0x9
ARM GAS  C:\Users\DNIEL~1\AppData\Local\Temp\ccahiECR.s 			page 43


 2316 050f 65       		.byte	0x65
 2317 0510 14050000 		.4byte	0x514
 2318 0514 05       		.uleb128 0x5
 2319 0515 04       		.byte	0x4
 2320 0516 1A050000 		.4byte	0x51a
 2321 051a 18       		.uleb128 0x18
 2322 051b 01       		.byte	0x1
 2323 051c 26050000 		.4byte	0x526
 2324 0520 0A       		.uleb128 0xa
 2325 0521 26050000 		.4byte	0x526
 2326 0525 00       		.byte	0x0
 2327 0526 05       		.uleb128 0x5
 2328 0527 04       		.byte	0x4
 2329 0528 A5040000 		.4byte	0x4a5
 2330 052c 14       		.uleb128 0x14
 2331 052d 9A010000 		.4byte	.LASF50
 2332 0531 0A       		.byte	0xa
 2333 0532 2001     		.2byte	0x120
 2334 0534 C0000000 		.4byte	0xc0
 2335 0538 14       		.uleb128 0x14
 2336 0539 47030000 		.4byte	.LASF51
 2337 053d 0A       		.byte	0xa
 2338 053e 2A01     		.2byte	0x12a
 2339 0540 AA000000 		.4byte	0xaa
 2340 0544 11       		.uleb128 0x11
 2341 0545 08       		.byte	0x8
 2342 0546 0A       		.byte	0xa
 2343 0547 2F01     		.2byte	0x12f
 2344 0549 6C050000 		.4byte	0x56c
 2345 054d 13       		.uleb128 0x13
 2346 054e D6020000 		.4byte	.LASF52
 2347 0552 0A       		.byte	0xa
 2348 0553 3301     		.2byte	0x133
 2349 0555 2C050000 		.4byte	0x52c
 2350 0559 02       		.byte	0x2
 2351 055a 23       		.byte	0x23
 2352 055b 00       		.uleb128 0x0
 2353 055c 13       		.uleb128 0x13
 2354 055d E1010000 		.4byte	.LASF53
 2355 0561 0A       		.byte	0xa
 2356 0562 3901     		.2byte	0x139
 2357 0564 09050000 		.4byte	0x509
 2358 0568 02       		.byte	0x2
 2359 0569 23       		.byte	0x23
 2360 056a 04       		.uleb128 0x4
 2361 056b 00       		.byte	0x0
 2362 056c 14       		.uleb128 0x14
 2363 056d 01030000 		.4byte	.LASF54
 2364 0571 0A       		.byte	0xa
 2365 0572 3B01     		.2byte	0x13b
 2366 0574 44050000 		.4byte	0x544
 2367 0578 11       		.uleb128 0x11
 2368 0579 34       		.byte	0x34
 2369 057a 0A       		.byte	0xa
 2370 057b 4001     		.2byte	0x140
 2371 057d DC050000 		.4byte	0x5dc
 2372 0581 13       		.uleb128 0x13
ARM GAS  C:\Users\DNIEL~1\AppData\Local\Temp\ccahiECR.s 			page 44


 2373 0582 6C000000 		.4byte	.LASF55
 2374 0586 0A       		.byte	0xa
 2375 0587 4601     		.2byte	0x146
 2376 0589 C0000000 		.4byte	0xc0
 2377 058d 02       		.byte	0x2
 2378 058e 23       		.byte	0x23
 2379 058f 00       		.uleb128 0x0
 2380 0590 13       		.uleb128 0x13
 2381 0591 28000000 		.4byte	.LASF47
 2382 0595 0A       		.byte	0xa
 2383 0596 4C01     		.2byte	0x14c
 2384 0598 38050000 		.4byte	0x538
 2385 059c 02       		.byte	0x2
 2386 059d 23       		.byte	0x23
 2387 059e 04       		.uleb128 0x4
 2388 059f 13       		.uleb128 0x13
 2389 05a0 E1010000 		.4byte	.LASF53
 2390 05a4 0A       		.byte	0xa
 2391 05a5 5201     		.2byte	0x152
 2392 05a7 09050000 		.4byte	0x509
 2393 05ab 02       		.byte	0x2
 2394 05ac 23       		.byte	0x23
 2395 05ad 08       		.uleb128 0x8
 2396 05ae 13       		.uleb128 0x13
 2397 05af F3000000 		.4byte	.LASF56
 2398 05b3 0A       		.byte	0xa
 2399 05b4 5601     		.2byte	0x156
 2400 05b6 DC050000 		.4byte	0x5dc
 2401 05ba 02       		.byte	0x2
 2402 05bb 23       		.byte	0x23
 2403 05bc 0C       		.uleb128 0xc
 2404 05bd 12       		.uleb128 0x12
 2405 05be 63723200 		.ascii	"cr2\000"
 2406 05c2 0A       		.byte	0xa
 2407 05c3 5C01     		.2byte	0x15c
 2408 05c5 C0000000 		.4byte	0xc0
 2409 05c9 02       		.byte	0x2
 2410 05ca 23       		.byte	0x23
 2411 05cb 2C       		.uleb128 0x2c
 2412 05cc 13       		.uleb128 0x13
 2413 05cd 8D030000 		.4byte	.LASF57
 2414 05d1 0A       		.byte	0xa
 2415 05d2 6901     		.2byte	0x169
 2416 05d4 C0000000 		.4byte	0xc0
 2417 05d8 02       		.byte	0x2
 2418 05d9 23       		.byte	0x23
 2419 05da 30       		.uleb128 0x30
 2420 05db 00       		.byte	0x0
 2421 05dc 0F       		.uleb128 0xf
 2422 05dd 6C050000 		.4byte	0x56c
 2423 05e1 EC050000 		.4byte	0x5ec
 2424 05e5 10       		.uleb128 0x10
 2425 05e6 4C000000 		.4byte	0x4c
 2426 05ea 03       		.byte	0x3
 2427 05eb 00       		.byte	0x0
 2428 05ec 14       		.uleb128 0x14
 2429 05ed BE020000 		.4byte	.LASF58
ARM GAS  C:\Users\DNIEL~1\AppData\Local\Temp\ccahiECR.s 			page 45


 2430 05f1 0A       		.byte	0xa
 2431 05f2 6A01     		.2byte	0x16a
 2432 05f4 78050000 		.4byte	0x578
 2433 05f8 05       		.uleb128 0x5
 2434 05f9 04       		.byte	0x4
 2435 05fa FE050000 		.4byte	0x5fe
 2436 05fe 06       		.uleb128 0x6
 2437 05ff EC050000 		.4byte	0x5ec
 2438 0603 07       		.uleb128 0x7
 2439 0604 1C020000 		.4byte	.LASF59
 2440 0608 0B       		.byte	0xb
 2441 0609 28       		.byte	0x28
 2442 060a 0E060000 		.4byte	0x60e
 2443 060e 0B       		.uleb128 0xb
 2444 060f 0A010000 		.4byte	.LASF60
 2445 0613 04       		.byte	0x4
 2446 0614 0C       		.byte	0xc
 2447 0615 00       		.byte	0x0
 2448 0616 28060000 		.4byte	0x628
 2449 061a 19       		.uleb128 0x19
 2450 061b F6020000 		.4byte	.LASF93
 2451 061f 68000000 		.4byte	0x68
 2452 0623 02       		.byte	0x2
 2453 0624 23       		.byte	0x23
 2454 0625 00       		.uleb128 0x0
 2455 0626 01       		.byte	0x1
 2456 0627 00       		.byte	0x0
 2457 0628 07       		.uleb128 0x7
 2458 0629 35010000 		.4byte	.LASF61
 2459 062d 0B       		.byte	0xb
 2460 062e 66       		.byte	0x66
 2461 062f 03060000 		.4byte	0x603
 2462 0633 1A       		.uleb128 0x1a
 2463 0634 01       		.byte	0x1
 2464 0635 28010000 		.4byte	.LASF62
 2465 0639 02       		.byte	0x2
 2466 063a 56       		.byte	0x56
 2467 063b 01       		.byte	0x1
 2468 063c 01       		.byte	0x1
 2469 063d 1A       		.uleb128 0x1a
 2470 063e 01       		.byte	0x1
 2471 063f FD010000 		.4byte	.LASF63
 2472 0643 02       		.byte	0x2
 2473 0644 5A       		.byte	0x5a
 2474 0645 01       		.byte	0x1
 2475 0646 01       		.byte	0x1
 2476 0647 1B       		.uleb128 0x1b
 2477 0648 92030000 		.4byte	.LASF94
 2478 064c 01       		.byte	0x1
 2479 064d 45       		.byte	0x45
 2480 064e 01       		.byte	0x1
 2481 064f 00000000 		.4byte	.LFB118
 2482 0653 1E000000 		.4byte	.LFE118
 2483 0657 00000000 		.4byte	.LLST0
 2484 065b 8B060000 		.4byte	0x68b
 2485 065f 1C       		.uleb128 0x1c
 2486 0660 63687000 		.ascii	"chp\000"
ARM GAS  C:\Users\DNIEL~1\AppData\Local\Temp\ccahiECR.s 			page 46


 2487 0664 01       		.byte	0x1
 2488 0665 45       		.byte	0x45
 2489 0666 8B060000 		.4byte	0x68b
 2490 066a 38000000 		.4byte	.LLST1
 2491 066e 1D       		.uleb128 0x1d
 2492 066f 666D7400 		.ascii	"fmt\000"
 2493 0673 01       		.byte	0x1
 2494 0674 45       		.byte	0x45
 2495 0675 7E000000 		.4byte	0x7e
 2496 0679 02       		.byte	0x2
 2497 067a 91       		.byte	0x91
 2498 067b 74       		.sleb128 -12
 2499 067c 1E       		.uleb128 0x1e
 2500 067d 1F       		.uleb128 0x1f
 2501 067e 617000   		.ascii	"ap\000"
 2502 0681 01       		.byte	0x1
 2503 0682 46       		.byte	0x46
 2504 0683 28060000 		.4byte	0x628
 2505 0687 02       		.byte	0x2
 2506 0688 91       		.byte	0x91
 2507 0689 6C       		.sleb128 -20
 2508 068a 00       		.byte	0x0
 2509 068b 05       		.uleb128 0x5
 2510 068c 04       		.byte	0x4
 2511 068d D6010000 		.4byte	0x1d6
 2512 0691 20       		.uleb128 0x20
 2513 0692 01       		.byte	0x1
 2514 0693 77020000 		.4byte	.LASF71
 2515 0697 02       		.byte	0x2
 2516 0698 30       		.byte	0x30
 2517 0699 01       		.byte	0x1
 2518 069a 00000000 		.4byte	.LFB119
 2519 069e 6C000000 		.4byte	.LFE119
 2520 06a2 4B000000 		.4byte	.LLST2
 2521 06a6 21       		.uleb128 0x21
 2522 06a7 33060000 		.4byte	0x633
 2523 06ab 00000000 		.4byte	.LFB121
 2524 06af 14000000 		.4byte	.LFE121
 2525 06b3 02       		.byte	0x2
 2526 06b4 7D       		.byte	0x7d
 2527 06b5 00       		.sleb128 0
 2528 06b6 21       		.uleb128 0x21
 2529 06b7 3D060000 		.4byte	0x63d
 2530 06bb 00000000 		.4byte	.LFB122
 2531 06bf 10000000 		.4byte	.LFE122
 2532 06c3 02       		.byte	0x2
 2533 06c4 7D       		.byte	0x7d
 2534 06c5 00       		.sleb128 0
 2535 06c6 22       		.uleb128 0x22
 2536 06c7 01       		.byte	0x1
 2537 06c8 71030000 		.4byte	.LASF95
 2538 06cc 02       		.byte	0x2
 2539 06cd 5E       		.byte	0x5e
 2540 06ce 01       		.byte	0x1
 2541 06cf B5000000 		.4byte	0xb5
 2542 06d3 00000000 		.4byte	.LFB123
 2543 06d7 74010000 		.4byte	.LFE123
ARM GAS  C:\Users\DNIEL~1\AppData\Local\Temp\ccahiECR.s 			page 47


 2544 06db 6B000000 		.4byte	.LLST3
 2545 06df 7E070000 		.4byte	0x77e
 2546 06e3 23       		.uleb128 0x23
 2547 06e4 42020000 		.4byte	.LASF64
 2548 06e8 02       		.byte	0x2
 2549 06e9 5E       		.byte	0x5e
 2550 06ea 9F000000 		.4byte	0x9f
 2551 06ee 97000000 		.4byte	.LLST4
 2552 06f2 1C       		.uleb128 0x1c
 2553 06f3 53657400 		.ascii	"Set\000"
 2554 06f7 02       		.byte	0x2
 2555 06f8 5E       		.byte	0x5e
 2556 06f9 9F000000 		.4byte	0x9f
 2557 06fd AA000000 		.4byte	.LLST5
 2558 0701 23       		.uleb128 0x23
 2559 0702 30020000 		.4byte	.LASF65
 2560 0706 02       		.byte	0x2
 2561 0707 5E       		.byte	0x5e
 2562 0708 B5000000 		.4byte	0xb5
 2563 070c BD000000 		.4byte	.LLST6
 2564 0710 23       		.uleb128 0x23
 2565 0711 72020000 		.4byte	.LASF66
 2566 0715 02       		.byte	0x2
 2567 0716 5E       		.byte	0x5e
 2568 0717 B5000000 		.4byte	0xb5
 2569 071b DC000000 		.4byte	.LLST7
 2570 071f 1D       		.uleb128 0x1d
 2571 0720 4B7000   		.ascii	"Kp\000"
 2572 0723 02       		.byte	0x2
 2573 0724 5E       		.byte	0x5e
 2574 0725 7E070000 		.4byte	0x77e
 2575 0729 02       		.byte	0x2
 2576 072a 91       		.byte	0x91
 2577 072b 00       		.sleb128 0
 2578 072c 1D       		.uleb128 0x1d
 2579 072d 4B6900   		.ascii	"Ki\000"
 2580 0730 02       		.byte	0x2
 2581 0731 5E       		.byte	0x5e
 2582 0732 7E070000 		.4byte	0x77e
 2583 0736 02       		.byte	0x2
 2584 0737 91       		.byte	0x91
 2585 0738 08       		.sleb128 8
 2586 0739 1D       		.uleb128 0x1d
 2587 073a 4B6400   		.ascii	"Kd\000"
 2588 073d 02       		.byte	0x2
 2589 073e 5E       		.byte	0x5e
 2590 073f 7E070000 		.4byte	0x77e
 2591 0743 02       		.byte	0x2
 2592 0744 91       		.byte	0x91
 2593 0745 10       		.sleb128 16
 2594 0746 24       		.uleb128 0x24
 2595 0747 2B020000 		.4byte	.LASF67
 2596 074b 02       		.byte	0x2
 2597 074c 5E       		.byte	0x5e
 2598 074d B5000000 		.4byte	0xb5
 2599 0751 02       		.byte	0x2
 2600 0752 91       		.byte	0x91
ARM GAS  C:\Users\DNIEL~1\AppData\Local\Temp\ccahiECR.s 			page 48


 2601 0753 18       		.sleb128 24
 2602 0754 24       		.uleb128 0x24
 2603 0755 BC010000 		.4byte	.LASF68
 2604 0759 02       		.byte	0x2
 2605 075a 5E       		.byte	0x5e
 2606 075b B5000000 		.4byte	0xb5
 2607 075f 02       		.byte	0x2
 2608 0760 91       		.byte	0x91
 2609 0761 1C       		.sleb128 28
 2610 0762 24       		.uleb128 0x24
 2611 0763 A4010000 		.4byte	.LASF69
 2612 0767 02       		.byte	0x2
 2613 0768 5E       		.byte	0x5e
 2614 0769 B5000000 		.4byte	0xb5
 2615 076d 02       		.byte	0x2
 2616 076e 91       		.byte	0x91
 2617 076f 20       		.sleb128 32
 2618 0770 25       		.uleb128 0x25
 2619 0771 5500     		.ascii	"U\000"
 2620 0773 02       		.byte	0x2
 2621 0774 60       		.byte	0x60
 2622 0775 B5000000 		.4byte	0xb5
 2623 0779 FB000000 		.4byte	.LLST8
 2624 077d 00       		.byte	0x0
 2625 077e 02       		.uleb128 0x2
 2626 077f 08       		.byte	0x8
 2627 0780 04       		.byte	0x4
 2628 0781 86030000 		.4byte	.LASF70
 2629 0785 20       		.uleb128 0x20
 2630 0786 01       		.byte	0x1
 2631 0787 0C000000 		.4byte	.LASF72
 2632 078b 02       		.byte	0x2
 2633 078c 40       		.byte	0x40
 2634 078d 01       		.byte	0x1
 2635 078e 00000000 		.4byte	.LFB120
 2636 0792 10010000 		.4byte	.LFE120
 2637 0796 24010000 		.4byte	.LLST9
 2638 079a 26       		.uleb128 0x26
 2639 079b 01       		.byte	0x1
 2640 079c A4020000 		.4byte	.LASF75
 2641 07a0 02       		.byte	0x2
 2642 07a1 90       		.byte	0x90
 2643 07a2 01       		.byte	0x1
 2644 07a3 00000000 		.4byte	.LFB124
 2645 07a7 FC000000 		.4byte	.LFE124
 2646 07ab 50010000 		.4byte	.LLST10
 2647 07af E1070000 		.4byte	0x7e1
 2648 07b3 1C       		.uleb128 0x1c
 2649 07b4 63687000 		.ascii	"chp\000"
 2650 07b8 02       		.byte	0x2
 2651 07b9 90       		.byte	0x90
 2652 07ba 8B060000 		.4byte	0x68b
 2653 07be 70010000 		.4byte	.LLST11
 2654 07c2 23       		.uleb128 0x23
 2655 07c3 61030000 		.4byte	.LASF73
 2656 07c7 02       		.byte	0x2
 2657 07c8 90       		.byte	0x90
ARM GAS  C:\Users\DNIEL~1\AppData\Local\Temp\ccahiECR.s 			page 49


 2658 07c9 45000000 		.4byte	0x45
 2659 07cd 8E010000 		.4byte	.LLST12
 2660 07d1 23       		.uleb128 0x23
 2661 07d2 6C030000 		.4byte	.LASF74
 2662 07d6 02       		.byte	0x2
 2663 07d7 90       		.byte	0x90
 2664 07d8 E1070000 		.4byte	0x7e1
 2665 07dc A1010000 		.4byte	.LLST13
 2666 07e0 00       		.byte	0x0
 2667 07e1 05       		.uleb128 0x5
 2668 07e2 04       		.byte	0x4
 2669 07e3 71000000 		.4byte	0x71
 2670 07e7 26       		.uleb128 0x26
 2671 07e8 01       		.byte	0x1
 2672 07e9 C1010000 		.4byte	.LASF76
 2673 07ed 02       		.byte	0x2
 2674 07ee A4       		.byte	0xa4
 2675 07ef 01       		.byte	0x1
 2676 07f0 00000000 		.4byte	.LFB125
 2677 07f4 14020000 		.4byte	.LFE125
 2678 07f8 B4010000 		.4byte	.LLST14
 2679 07fc 66080000 		.4byte	0x866
 2680 0800 1C       		.uleb128 0x1c
 2681 0801 63687000 		.ascii	"chp\000"
 2682 0805 02       		.byte	0x2
 2683 0806 A4       		.byte	0xa4
 2684 0807 8B060000 		.4byte	0x68b
 2685 080b D4010000 		.4byte	.LLST15
 2686 080f 23       		.uleb128 0x23
 2687 0810 61030000 		.4byte	.LASF73
 2688 0814 02       		.byte	0x2
 2689 0815 A4       		.byte	0xa4
 2690 0816 45000000 		.4byte	0x45
 2691 081a F2010000 		.4byte	.LLST16
 2692 081e 23       		.uleb128 0x23
 2693 081f 6C030000 		.4byte	.LASF74
 2694 0823 02       		.byte	0x2
 2695 0824 A4       		.byte	0xa4
 2696 0825 E1070000 		.4byte	0x7e1
 2697 0829 31020000 		.4byte	.LLST17
 2698 082d 27       		.uleb128 0x27
 2699 082e 17000000 		.4byte	.LASF77
 2700 0832 02       		.byte	0x2
 2701 0833 A8       		.byte	0xa8
 2702 0834 9F000000 		.4byte	0x9f
 2703 0838 7B020000 		.4byte	.LLST18
 2704 083c 28       		.uleb128 0x28
 2705 083d 16020000 		.4byte	.LASF79
 2706 0841 02       		.byte	0x2
 2707 0842 EB       		.byte	0xeb
 2708 0843 40000000 		.4byte	.L73
 2709 0847 29       		.uleb128 0x29
 2710 0848 3D060000 		.4byte	0x63d
 2711 084c AC000000 		.4byte	.LBB10
 2712 0850 00000000 		.4byte	.Ldebug_ranges0+0x0
 2713 0854 02       		.byte	0x2
 2714 0855 DD       		.byte	0xdd
ARM GAS  C:\Users\DNIEL~1\AppData\Local\Temp\ccahiECR.s 			page 50


 2715 0856 29       		.uleb128 0x29
 2716 0857 33060000 		.4byte	0x633
 2717 085b F8000000 		.4byte	.LBB14
 2718 085f 18000000 		.4byte	.Ldebug_ranges0+0x18
 2719 0863 02       		.byte	0x2
 2720 0864 D8       		.byte	0xd8
 2721 0865 00       		.byte	0x0
 2722 0866 26       		.uleb128 0x26
 2723 0867 01       		.byte	0x1
 2724 0868 8F010000 		.4byte	.LASF78
 2725 086c 02       		.byte	0x2
 2726 086d F3       		.byte	0xf3
 2727 086e 01       		.byte	0x1
 2728 086f 00000000 		.4byte	.LFB126
 2729 0873 AC000000 		.4byte	.LFE126
 2730 0877 C5020000 		.4byte	.LLST19
 2731 087b E3080000 		.4byte	0x8e3
 2732 087f 1C       		.uleb128 0x1c
 2733 0880 63687000 		.ascii	"chp\000"
 2734 0884 02       		.byte	0x2
 2735 0885 F3       		.byte	0xf3
 2736 0886 8B060000 		.4byte	0x68b
 2737 088a E5020000 		.4byte	.LLST20
 2738 088e 23       		.uleb128 0x23
 2739 088f 61030000 		.4byte	.LASF73
 2740 0893 02       		.byte	0x2
 2741 0894 F3       		.byte	0xf3
 2742 0895 45000000 		.4byte	0x45
 2743 0899 03030000 		.4byte	.LLST21
 2744 089d 23       		.uleb128 0x23
 2745 089e 6C030000 		.4byte	.LASF74
 2746 08a2 02       		.byte	0x2
 2747 08a3 F3       		.byte	0xf3
 2748 08a4 E1070000 		.4byte	0x7e1
 2749 08a8 2C030000 		.4byte	.LLST22
 2750 08ac 2A       		.uleb128 0x2a
 2751 08ad 17000000 		.4byte	.LASF77
 2752 08b1 02       		.byte	0x2
 2753 08b2 F7       		.byte	0xf7
 2754 08b3 9F000000 		.4byte	0x9f
 2755 08b7 2B       		.uleb128 0x2b
 2756 08b8 16020000 		.4byte	.LASF79
 2757 08bc 02       		.byte	0x2
 2758 08bd 0C01     		.2byte	0x10c
 2759 08bf 28000000 		.4byte	.L92
 2760 08c3 2C       		.uleb128 0x2c
 2761 08c4 3D060000 		.4byte	0x63d
 2762 08c8 54000000 		.4byte	.LBB18
 2763 08cc 30000000 		.4byte	.Ldebug_ranges0+0x30
 2764 08d0 02       		.byte	0x2
 2765 08d1 0301     		.2byte	0x103
 2766 08d3 29       		.uleb128 0x29
 2767 08d4 33060000 		.4byte	0x633
 2768 08d8 6A000000 		.4byte	.LBB24
 2769 08dc 50000000 		.4byte	.Ldebug_ranges0+0x50
 2770 08e0 02       		.byte	0x2
 2771 08e1 FE       		.byte	0xfe
ARM GAS  C:\Users\DNIEL~1\AppData\Local\Temp\ccahiECR.s 			page 51


 2772 08e2 00       		.byte	0x0
 2773 08e3 2D       		.uleb128 0x2d
 2774 08e4 5A000000 		.4byte	.LASF80
 2775 08e8 0D       		.byte	0xd
 2776 08e9 9806     		.2byte	0x698
 2777 08eb F1010000 		.4byte	0x1f1
 2778 08ef 01       		.byte	0x1
 2779 08f0 01       		.byte	0x1
 2780 08f1 2D       		.uleb128 0x2d
 2781 08f2 22010000 		.4byte	.LASF81
 2782 08f6 0A       		.byte	0xa
 2783 08f7 C301     		.2byte	0x1c3
 2784 08f9 A5040000 		.4byte	0x4a5
 2785 08fd 01       		.byte	0x1
 2786 08fe 01       		.byte	0x1
 2787 08ff 1F       		.uleb128 0x1f
 2788 0900 4B5F5000 		.ascii	"K_P\000"
 2789 0904 02       		.byte	0x2
 2790 0905 0D       		.byte	0xd
 2791 0906 9F000000 		.4byte	0x9f
 2792 090a 05       		.byte	0x5
 2793 090b 03       		.byte	0x3
 2794 090c 00000000 		.4byte	K_P
 2795 0910 1F       		.uleb128 0x1f
 2796 0911 4B5F4900 		.ascii	"K_I\000"
 2797 0915 02       		.byte	0x2
 2798 0916 0E       		.byte	0xe
 2799 0917 9F000000 		.4byte	0x9f
 2800 091b 05       		.byte	0x5
 2801 091c 03       		.byte	0x3
 2802 091d 00000000 		.4byte	K_I
 2803 0921 1F       		.uleb128 0x1f
 2804 0922 4B5F4400 		.ascii	"K_D\000"
 2805 0926 02       		.byte	0x2
 2806 0927 0F       		.byte	0xf
 2807 0928 9F000000 		.4byte	0x9f
 2808 092c 05       		.byte	0x5
 2809 092d 03       		.byte	0x3
 2810 092e 00000000 		.4byte	K_D
 2811 0932 2E       		.uleb128 0x2e
 2812 0933 F7010000 		.4byte	.LASF82
 2813 0937 02       		.byte	0x2
 2814 0938 11       		.byte	0x11
 2815 0939 46090000 		.4byte	0x946
 2816 093d 08       		.byte	0x8
 2817 093e 00000000 		.4byte	0x0
 2818 0942 80842E41 		.4byte	0x412e8480
 2819 0946 06       		.uleb128 0x6
 2820 0947 7E070000 		.4byte	0x77e
 2821 094b 2E       		.uleb128 0x2e
 2822 094c 89010000 		.4byte	.LASF83
 2823 0950 02       		.byte	0x2
 2824 0951 12       		.byte	0x12
 2825 0952 5F090000 		.4byte	0x95f
 2826 0956 08       		.byte	0x8
 2827 0957 00000000 		.4byte	0x0
 2828 095b 00000000 		.4byte	0x0
ARM GAS  C:\Users\DNIEL~1\AppData\Local\Temp\ccahiECR.s 			page 52


 2829 095f 06       		.uleb128 0x6
 2830 0960 7E070000 		.4byte	0x77e
 2831 0964 2E       		.uleb128 0x2e
 2832 0965 F1010000 		.4byte	.LASF84
 2833 0969 02       		.byte	0x2
 2834 096a 14       		.byte	0x14
 2835 096b 78090000 		.4byte	0x978
 2836 096f 08       		.byte	0x8
 2837 0970 00000000 		.4byte	0x0
 2838 0974 80842E41 		.4byte	0x412e8480
 2839 0978 06       		.uleb128 0x6
 2840 0979 7E070000 		.4byte	0x77e
 2841 097d 2E       		.uleb128 0x2e
 2842 097e DB010000 		.4byte	.LASF85
 2843 0982 02       		.byte	0x2
 2844 0983 15       		.byte	0x15
 2845 0984 91090000 		.4byte	0x991
 2846 0988 08       		.byte	0x8
 2847 0989 00000000 		.4byte	0x0
 2848 098d 80842E41 		.4byte	0x412e8480
 2849 0991 06       		.uleb128 0x6
 2850 0992 7E070000 		.4byte	0x77e
 2851 0996 2E       		.uleb128 0x2e
 2852 0997 1C000000 		.4byte	.LASF86
 2853 099b 02       		.byte	0x2
 2854 099c 16       		.byte	0x16
 2855 099d AA090000 		.4byte	0x9aa
 2856 09a1 08       		.byte	0x8
 2857 09a2 00000000 		.4byte	0x0
 2858 09a6 80842E41 		.4byte	0x412e8480
 2859 09aa 06       		.uleb128 0x6
 2860 09ab 7E070000 		.4byte	0x77e
 2861 09af 1F       		.uleb128 0x1f
 2862 09b0 70776D00 		.ascii	"pwm\000"
 2863 09b4 02       		.byte	0x2
 2864 09b5 18       		.byte	0x18
 2865 09b6 B5000000 		.4byte	0xb5
 2866 09ba 05       		.byte	0x5
 2867 09bb 03       		.byte	0x3
 2868 09bc 00000000 		.4byte	pwm
 2869 09c0 1F       		.uleb128 0x1f
 2870 09c1 5000     		.ascii	"P\000"
 2871 09c3 02       		.byte	0x2
 2872 09c4 19       		.byte	0x19
 2873 09c5 7E070000 		.4byte	0x77e
 2874 09c9 05       		.byte	0x5
 2875 09ca 03       		.byte	0x3
 2876 09cb 00000000 		.4byte	P
 2877 09cf 1F       		.uleb128 0x1f
 2878 09d0 4900     		.ascii	"I\000"
 2879 09d2 02       		.byte	0x2
 2880 09d3 1A       		.byte	0x1a
 2881 09d4 7E070000 		.4byte	0x77e
 2882 09d8 05       		.byte	0x5
 2883 09d9 03       		.byte	0x3
 2884 09da 00000000 		.4byte	I
 2885 09de 1F       		.uleb128 0x1f
ARM GAS  C:\Users\DNIEL~1\AppData\Local\Temp\ccahiECR.s 			page 53


 2886 09df 4400     		.ascii	"D\000"
 2887 09e1 02       		.byte	0x2
 2888 09e2 1B       		.byte	0x1b
 2889 09e3 7E070000 		.4byte	0x77e
 2890 09e7 05       		.byte	0x5
 2891 09e8 03       		.byte	0x3
 2892 09e9 00000000 		.4byte	D
 2893 09ed 2F       		.uleb128 0x2f
 2894 09ee 17030000 		.4byte	.LASF87
 2895 09f2 02       		.byte	0x2
 2896 09f3 1C       		.byte	0x1c
 2897 09f4 7E070000 		.4byte	0x77e
 2898 09f8 05       		.byte	0x5
 2899 09f9 03       		.byte	0x3
 2900 09fa 00000000 		.4byte	eelozo
 2901 09fe 1F       		.uleb128 0x1f
 2902 09ff 6500     		.ascii	"e\000"
 2903 0a01 02       		.byte	0x2
 2904 0a02 1D       		.byte	0x1d
 2905 0a03 7E070000 		.4byte	0x77e
 2906 0a07 05       		.byte	0x5
 2907 0a08 03       		.byte	0x3
 2908 0a09 00000000 		.4byte	e
 2909 0a0d 2F       		.uleb128 0x2f
 2910 0a0e 5F010000 		.4byte	.LASF88
 2911 0a12 02       		.byte	0x2
 2912 0a13 1E       		.byte	0x1e
 2913 0a14 7E070000 		.4byte	0x77e
 2914 0a18 05       		.byte	0x5
 2915 0a19 03       		.byte	0x3
 2916 0a1a 00000000 		.4byte	cruise_on
 2917 0a1e 1F       		.uleb128 0x1f
 2918 0a1f 73657400 		.ascii	"set\000"
 2919 0a23 02       		.byte	0x2
 2920 0a24 20       		.byte	0x20
 2921 0a25 45000000 		.4byte	0x45
 2922 0a29 05       		.byte	0x5
 2923 0a2a 03       		.byte	0x3
 2924 0a2b 00000000 		.4byte	set
 2925 0a2f 2F       		.uleb128 0x2f
 2926 0a30 7B010000 		.4byte	.LASF89
 2927 0a34 02       		.byte	0x2
 2928 0a35 22       		.byte	0x22
 2929 0a36 EC050000 		.4byte	0x5ec
 2930 0a3a 05       		.byte	0x5
 2931 0a3b 03       		.byte	0x3
 2932 0a3c 00000000 		.4byte	cruise_pwmcfg
 2933 0a40 2D       		.uleb128 0x2d
 2934 0a41 5A000000 		.4byte	.LASF80
 2935 0a45 0D       		.byte	0xd
 2936 0a46 9806     		.2byte	0x698
 2937 0a48 F1010000 		.4byte	0x1f1
 2938 0a4c 01       		.byte	0x1
 2939 0a4d 01       		.byte	0x1
 2940 0a4e 2D       		.uleb128 0x2d
 2941 0a4f 22010000 		.4byte	.LASF81
 2942 0a53 0A       		.byte	0xa
ARM GAS  C:\Users\DNIEL~1\AppData\Local\Temp\ccahiECR.s 			page 54


 2943 0a54 C301     		.2byte	0x1c3
 2944 0a56 A5040000 		.4byte	0x4a5
 2945 0a5a 01       		.byte	0x1
 2946 0a5b 01       		.byte	0x1
 2947 0a5c 00       		.byte	0x0
 2948              		.section	.debug_abbrev
 2949 0000 01       		.uleb128 0x1
 2950 0001 11       		.uleb128 0x11
 2951 0002 01       		.byte	0x1
 2952 0003 25       		.uleb128 0x25
 2953 0004 0E       		.uleb128 0xe
 2954 0005 13       		.uleb128 0x13
 2955 0006 0B       		.uleb128 0xb
 2956 0007 03       		.uleb128 0x3
 2957 0008 0E       		.uleb128 0xe
 2958 0009 1B       		.uleb128 0x1b
 2959 000a 0E       		.uleb128 0xe
 2960 000b 11       		.uleb128 0x11
 2961 000c 01       		.uleb128 0x1
 2962 000d 52       		.uleb128 0x52
 2963 000e 01       		.uleb128 0x1
 2964 000f 55       		.uleb128 0x55
 2965 0010 06       		.uleb128 0x6
 2966 0011 10       		.uleb128 0x10
 2967 0012 06       		.uleb128 0x6
 2968 0013 00       		.byte	0x0
 2969 0014 00       		.byte	0x0
 2970 0015 02       		.uleb128 0x2
 2971 0016 24       		.uleb128 0x24
 2972 0017 00       		.byte	0x0
 2973 0018 0B       		.uleb128 0xb
 2974 0019 0B       		.uleb128 0xb
 2975 001a 3E       		.uleb128 0x3e
 2976 001b 0B       		.uleb128 0xb
 2977 001c 03       		.uleb128 0x3
 2978 001d 0E       		.uleb128 0xe
 2979 001e 00       		.byte	0x0
 2980 001f 00       		.byte	0x0
 2981 0020 03       		.uleb128 0x3
 2982 0021 24       		.uleb128 0x24
 2983 0022 00       		.byte	0x0
 2984 0023 0B       		.uleb128 0xb
 2985 0024 0B       		.uleb128 0xb
 2986 0025 3E       		.uleb128 0x3e
 2987 0026 0B       		.uleb128 0xb
 2988 0027 03       		.uleb128 0x3
 2989 0028 08       		.uleb128 0x8
 2990 0029 00       		.byte	0x0
 2991 002a 00       		.byte	0x0
 2992 002b 04       		.uleb128 0x4
 2993 002c 0F       		.uleb128 0xf
 2994 002d 00       		.byte	0x0
 2995 002e 0B       		.uleb128 0xb
 2996 002f 0B       		.uleb128 0xb
 2997 0030 00       		.byte	0x0
 2998 0031 00       		.byte	0x0
 2999 0032 05       		.uleb128 0x5
ARM GAS  C:\Users\DNIEL~1\AppData\Local\Temp\ccahiECR.s 			page 55


 3000 0033 0F       		.uleb128 0xf
 3001 0034 00       		.byte	0x0
 3002 0035 0B       		.uleb128 0xb
 3003 0036 0B       		.uleb128 0xb
 3004 0037 49       		.uleb128 0x49
 3005 0038 13       		.uleb128 0x13
 3006 0039 00       		.byte	0x0
 3007 003a 00       		.byte	0x0
 3008 003b 06       		.uleb128 0x6
 3009 003c 26       		.uleb128 0x26
 3010 003d 00       		.byte	0x0
 3011 003e 49       		.uleb128 0x49
 3012 003f 13       		.uleb128 0x13
 3013 0040 00       		.byte	0x0
 3014 0041 00       		.byte	0x0
 3015 0042 07       		.uleb128 0x7
 3016 0043 16       		.uleb128 0x16
 3017 0044 00       		.byte	0x0
 3018 0045 03       		.uleb128 0x3
 3019 0046 0E       		.uleb128 0xe
 3020 0047 3A       		.uleb128 0x3a
 3021 0048 0B       		.uleb128 0xb
 3022 0049 3B       		.uleb128 0x3b
 3023 004a 0B       		.uleb128 0xb
 3024 004b 49       		.uleb128 0x49
 3025 004c 13       		.uleb128 0x13
 3026 004d 00       		.byte	0x0
 3027 004e 00       		.byte	0x0
 3028 004f 08       		.uleb128 0x8
 3029 0050 35       		.uleb128 0x35
 3030 0051 00       		.byte	0x0
 3031 0052 49       		.uleb128 0x49
 3032 0053 13       		.uleb128 0x13
 3033 0054 00       		.byte	0x0
 3034 0055 00       		.byte	0x0
 3035 0056 09       		.uleb128 0x9
 3036 0057 15       		.uleb128 0x15
 3037 0058 01       		.byte	0x1
 3038 0059 27       		.uleb128 0x27
 3039 005a 0C       		.uleb128 0xc
 3040 005b 49       		.uleb128 0x49
 3041 005c 13       		.uleb128 0x13
 3042 005d 01       		.uleb128 0x1
 3043 005e 13       		.uleb128 0x13
 3044 005f 00       		.byte	0x0
 3045 0060 00       		.byte	0x0
 3046 0061 0A       		.uleb128 0xa
 3047 0062 05       		.uleb128 0x5
 3048 0063 00       		.byte	0x0
 3049 0064 49       		.uleb128 0x49
 3050 0065 13       		.uleb128 0x13
 3051 0066 00       		.byte	0x0
 3052 0067 00       		.byte	0x0
 3053 0068 0B       		.uleb128 0xb
 3054 0069 13       		.uleb128 0x13
 3055 006a 01       		.byte	0x1
 3056 006b 03       		.uleb128 0x3
ARM GAS  C:\Users\DNIEL~1\AppData\Local\Temp\ccahiECR.s 			page 56


 3057 006c 0E       		.uleb128 0xe
 3058 006d 0B       		.uleb128 0xb
 3059 006e 0B       		.uleb128 0xb
 3060 006f 3A       		.uleb128 0x3a
 3061 0070 0B       		.uleb128 0xb
 3062 0071 3B       		.uleb128 0x3b
 3063 0072 0B       		.uleb128 0xb
 3064 0073 01       		.uleb128 0x1
 3065 0074 13       		.uleb128 0x13
 3066 0075 00       		.byte	0x0
 3067 0076 00       		.byte	0x0
 3068 0077 0C       		.uleb128 0xc
 3069 0078 0D       		.uleb128 0xd
 3070 0079 00       		.byte	0x0
 3071 007a 03       		.uleb128 0x3
 3072 007b 0E       		.uleb128 0xe
 3073 007c 3A       		.uleb128 0x3a
 3074 007d 0B       		.uleb128 0xb
 3075 007e 3B       		.uleb128 0x3b
 3076 007f 0B       		.uleb128 0xb
 3077 0080 49       		.uleb128 0x49
 3078 0081 13       		.uleb128 0x13
 3079 0082 38       		.uleb128 0x38
 3080 0083 0A       		.uleb128 0xa
 3081 0084 00       		.byte	0x0
 3082 0085 00       		.byte	0x0
 3083 0086 0D       		.uleb128 0xd
 3084 0087 0D       		.uleb128 0xd
 3085 0088 00       		.byte	0x0
 3086 0089 03       		.uleb128 0x3
 3087 008a 08       		.uleb128 0x8
 3088 008b 3A       		.uleb128 0x3a
 3089 008c 0B       		.uleb128 0xb
 3090 008d 3B       		.uleb128 0x3b
 3091 008e 0B       		.uleb128 0xb
 3092 008f 49       		.uleb128 0x49
 3093 0090 13       		.uleb128 0x13
 3094 0091 38       		.uleb128 0x38
 3095 0092 0A       		.uleb128 0xa
 3096 0093 00       		.byte	0x0
 3097 0094 00       		.byte	0x0
 3098 0095 0E       		.uleb128 0xe
 3099 0096 13       		.uleb128 0x13
 3100 0097 01       		.byte	0x1
 3101 0098 0B       		.uleb128 0xb
 3102 0099 0B       		.uleb128 0xb
 3103 009a 3A       		.uleb128 0x3a
 3104 009b 0B       		.uleb128 0xb
 3105 009c 3B       		.uleb128 0x3b
 3106 009d 0B       		.uleb128 0xb
 3107 009e 01       		.uleb128 0x1
 3108 009f 13       		.uleb128 0x13
 3109 00a0 00       		.byte	0x0
 3110 00a1 00       		.byte	0x0
 3111 00a2 0F       		.uleb128 0xf
 3112 00a3 01       		.uleb128 0x1
 3113 00a4 01       		.byte	0x1
ARM GAS  C:\Users\DNIEL~1\AppData\Local\Temp\ccahiECR.s 			page 57


 3114 00a5 49       		.uleb128 0x49
 3115 00a6 13       		.uleb128 0x13
 3116 00a7 01       		.uleb128 0x1
 3117 00a8 13       		.uleb128 0x13
 3118 00a9 00       		.byte	0x0
 3119 00aa 00       		.byte	0x0
 3120 00ab 10       		.uleb128 0x10
 3121 00ac 21       		.uleb128 0x21
 3122 00ad 00       		.byte	0x0
 3123 00ae 49       		.uleb128 0x49
 3124 00af 13       		.uleb128 0x13
 3125 00b0 2F       		.uleb128 0x2f
 3126 00b1 0B       		.uleb128 0xb
 3127 00b2 00       		.byte	0x0
 3128 00b3 00       		.byte	0x0
 3129 00b4 11       		.uleb128 0x11
 3130 00b5 13       		.uleb128 0x13
 3131 00b6 01       		.byte	0x1
 3132 00b7 0B       		.uleb128 0xb
 3133 00b8 0B       		.uleb128 0xb
 3134 00b9 3A       		.uleb128 0x3a
 3135 00ba 0B       		.uleb128 0xb
 3136 00bb 3B       		.uleb128 0x3b
 3137 00bc 05       		.uleb128 0x5
 3138 00bd 01       		.uleb128 0x1
 3139 00be 13       		.uleb128 0x13
 3140 00bf 00       		.byte	0x0
 3141 00c0 00       		.byte	0x0
 3142 00c1 12       		.uleb128 0x12
 3143 00c2 0D       		.uleb128 0xd
 3144 00c3 00       		.byte	0x0
 3145 00c4 03       		.uleb128 0x3
 3146 00c5 08       		.uleb128 0x8
 3147 00c6 3A       		.uleb128 0x3a
 3148 00c7 0B       		.uleb128 0xb
 3149 00c8 3B       		.uleb128 0x3b
 3150 00c9 05       		.uleb128 0x5
 3151 00ca 49       		.uleb128 0x49
 3152 00cb 13       		.uleb128 0x13
 3153 00cc 38       		.uleb128 0x38
 3154 00cd 0A       		.uleb128 0xa
 3155 00ce 00       		.byte	0x0
 3156 00cf 00       		.byte	0x0
 3157 00d0 13       		.uleb128 0x13
 3158 00d1 0D       		.uleb128 0xd
 3159 00d2 00       		.byte	0x0
 3160 00d3 03       		.uleb128 0x3
 3161 00d4 0E       		.uleb128 0xe
 3162 00d5 3A       		.uleb128 0x3a
 3163 00d6 0B       		.uleb128 0xb
 3164 00d7 3B       		.uleb128 0x3b
 3165 00d8 05       		.uleb128 0x5
 3166 00d9 49       		.uleb128 0x49
 3167 00da 13       		.uleb128 0x13
 3168 00db 38       		.uleb128 0x38
 3169 00dc 0A       		.uleb128 0xa
 3170 00dd 00       		.byte	0x0
ARM GAS  C:\Users\DNIEL~1\AppData\Local\Temp\ccahiECR.s 			page 58


 3171 00de 00       		.byte	0x0
 3172 00df 14       		.uleb128 0x14
 3173 00e0 16       		.uleb128 0x16
 3174 00e1 00       		.byte	0x0
 3175 00e2 03       		.uleb128 0x3
 3176 00e3 0E       		.uleb128 0xe
 3177 00e4 3A       		.uleb128 0x3a
 3178 00e5 0B       		.uleb128 0xb
 3179 00e6 3B       		.uleb128 0x3b
 3180 00e7 05       		.uleb128 0x5
 3181 00e8 49       		.uleb128 0x49
 3182 00e9 13       		.uleb128 0x13
 3183 00ea 00       		.byte	0x0
 3184 00eb 00       		.byte	0x0
 3185 00ec 15       		.uleb128 0x15
 3186 00ed 04       		.uleb128 0x4
 3187 00ee 01       		.byte	0x1
 3188 00ef 0B       		.uleb128 0xb
 3189 00f0 0B       		.uleb128 0xb
 3190 00f1 3A       		.uleb128 0x3a
 3191 00f2 0B       		.uleb128 0xb
 3192 00f3 3B       		.uleb128 0x3b
 3193 00f4 0B       		.uleb128 0xb
 3194 00f5 01       		.uleb128 0x1
 3195 00f6 13       		.uleb128 0x13
 3196 00f7 00       		.byte	0x0
 3197 00f8 00       		.byte	0x0
 3198 00f9 16       		.uleb128 0x16
 3199 00fa 28       		.uleb128 0x28
 3200 00fb 00       		.byte	0x0
 3201 00fc 03       		.uleb128 0x3
 3202 00fd 0E       		.uleb128 0xe
 3203 00fe 1C       		.uleb128 0x1c
 3204 00ff 0D       		.uleb128 0xd
 3205 0100 00       		.byte	0x0
 3206 0101 00       		.byte	0x0
 3207 0102 17       		.uleb128 0x17
 3208 0103 13       		.uleb128 0x13
 3209 0104 01       		.byte	0x1
 3210 0105 03       		.uleb128 0x3
 3211 0106 0E       		.uleb128 0xe
 3212 0107 0B       		.uleb128 0xb
 3213 0108 0B       		.uleb128 0xb
 3214 0109 3A       		.uleb128 0x3a
 3215 010a 0B       		.uleb128 0xb
 3216 010b 3B       		.uleb128 0x3b
 3217 010c 05       		.uleb128 0x5
 3218 010d 01       		.uleb128 0x1
 3219 010e 13       		.uleb128 0x13
 3220 010f 00       		.byte	0x0
 3221 0110 00       		.byte	0x0
 3222 0111 18       		.uleb128 0x18
 3223 0112 15       		.uleb128 0x15
 3224 0113 01       		.byte	0x1
 3225 0114 27       		.uleb128 0x27
 3226 0115 0C       		.uleb128 0xc
 3227 0116 01       		.uleb128 0x1
ARM GAS  C:\Users\DNIEL~1\AppData\Local\Temp\ccahiECR.s 			page 59


 3228 0117 13       		.uleb128 0x13
 3229 0118 00       		.byte	0x0
 3230 0119 00       		.byte	0x0
 3231 011a 19       		.uleb128 0x19
 3232 011b 0D       		.uleb128 0xd
 3233 011c 00       		.byte	0x0
 3234 011d 03       		.uleb128 0x3
 3235 011e 0E       		.uleb128 0xe
 3236 011f 49       		.uleb128 0x49
 3237 0120 13       		.uleb128 0x13
 3238 0121 38       		.uleb128 0x38
 3239 0122 0A       		.uleb128 0xa
 3240 0123 34       		.uleb128 0x34
 3241 0124 0C       		.uleb128 0xc
 3242 0125 00       		.byte	0x0
 3243 0126 00       		.byte	0x0
 3244 0127 1A       		.uleb128 0x1a
 3245 0128 2E       		.uleb128 0x2e
 3246 0129 00       		.byte	0x0
 3247 012a 3F       		.uleb128 0x3f
 3248 012b 0C       		.uleb128 0xc
 3249 012c 03       		.uleb128 0x3
 3250 012d 0E       		.uleb128 0xe
 3251 012e 3A       		.uleb128 0x3a
 3252 012f 0B       		.uleb128 0xb
 3253 0130 3B       		.uleb128 0x3b
 3254 0131 0B       		.uleb128 0xb
 3255 0132 27       		.uleb128 0x27
 3256 0133 0C       		.uleb128 0xc
 3257 0134 20       		.uleb128 0x20
 3258 0135 0B       		.uleb128 0xb
 3259 0136 00       		.byte	0x0
 3260 0137 00       		.byte	0x0
 3261 0138 1B       		.uleb128 0x1b
 3262 0139 2E       		.uleb128 0x2e
 3263 013a 01       		.byte	0x1
 3264 013b 03       		.uleb128 0x3
 3265 013c 0E       		.uleb128 0xe
 3266 013d 3A       		.uleb128 0x3a
 3267 013e 0B       		.uleb128 0xb
 3268 013f 3B       		.uleb128 0x3b
 3269 0140 0B       		.uleb128 0xb
 3270 0141 27       		.uleb128 0x27
 3271 0142 0C       		.uleb128 0xc
 3272 0143 11       		.uleb128 0x11
 3273 0144 01       		.uleb128 0x1
 3274 0145 12       		.uleb128 0x12
 3275 0146 01       		.uleb128 0x1
 3276 0147 40       		.uleb128 0x40
 3277 0148 06       		.uleb128 0x6
 3278 0149 01       		.uleb128 0x1
 3279 014a 13       		.uleb128 0x13
 3280 014b 00       		.byte	0x0
 3281 014c 00       		.byte	0x0
 3282 014d 1C       		.uleb128 0x1c
 3283 014e 05       		.uleb128 0x5
 3284 014f 00       		.byte	0x0
ARM GAS  C:\Users\DNIEL~1\AppData\Local\Temp\ccahiECR.s 			page 60


 3285 0150 03       		.uleb128 0x3
 3286 0151 08       		.uleb128 0x8
 3287 0152 3A       		.uleb128 0x3a
 3288 0153 0B       		.uleb128 0xb
 3289 0154 3B       		.uleb128 0x3b
 3290 0155 0B       		.uleb128 0xb
 3291 0156 49       		.uleb128 0x49
 3292 0157 13       		.uleb128 0x13
 3293 0158 02       		.uleb128 0x2
 3294 0159 06       		.uleb128 0x6
 3295 015a 00       		.byte	0x0
 3296 015b 00       		.byte	0x0
 3297 015c 1D       		.uleb128 0x1d
 3298 015d 05       		.uleb128 0x5
 3299 015e 00       		.byte	0x0
 3300 015f 03       		.uleb128 0x3
 3301 0160 08       		.uleb128 0x8
 3302 0161 3A       		.uleb128 0x3a
 3303 0162 0B       		.uleb128 0xb
 3304 0163 3B       		.uleb128 0x3b
 3305 0164 0B       		.uleb128 0xb
 3306 0165 49       		.uleb128 0x49
 3307 0166 13       		.uleb128 0x13
 3308 0167 02       		.uleb128 0x2
 3309 0168 0A       		.uleb128 0xa
 3310 0169 00       		.byte	0x0
 3311 016a 00       		.byte	0x0
 3312 016b 1E       		.uleb128 0x1e
 3313 016c 18       		.uleb128 0x18
 3314 016d 00       		.byte	0x0
 3315 016e 00       		.byte	0x0
 3316 016f 00       		.byte	0x0
 3317 0170 1F       		.uleb128 0x1f
 3318 0171 34       		.uleb128 0x34
 3319 0172 00       		.byte	0x0
 3320 0173 03       		.uleb128 0x3
 3321 0174 08       		.uleb128 0x8
 3322 0175 3A       		.uleb128 0x3a
 3323 0176 0B       		.uleb128 0xb
 3324 0177 3B       		.uleb128 0x3b
 3325 0178 0B       		.uleb128 0xb
 3326 0179 49       		.uleb128 0x49
 3327 017a 13       		.uleb128 0x13
 3328 017b 02       		.uleb128 0x2
 3329 017c 0A       		.uleb128 0xa
 3330 017d 00       		.byte	0x0
 3331 017e 00       		.byte	0x0
 3332 017f 20       		.uleb128 0x20
 3333 0180 2E       		.uleb128 0x2e
 3334 0181 00       		.byte	0x0
 3335 0182 3F       		.uleb128 0x3f
 3336 0183 0C       		.uleb128 0xc
 3337 0184 03       		.uleb128 0x3
 3338 0185 0E       		.uleb128 0xe
 3339 0186 3A       		.uleb128 0x3a
 3340 0187 0B       		.uleb128 0xb
 3341 0188 3B       		.uleb128 0x3b
ARM GAS  C:\Users\DNIEL~1\AppData\Local\Temp\ccahiECR.s 			page 61


 3342 0189 0B       		.uleb128 0xb
 3343 018a 27       		.uleb128 0x27
 3344 018b 0C       		.uleb128 0xc
 3345 018c 11       		.uleb128 0x11
 3346 018d 01       		.uleb128 0x1
 3347 018e 12       		.uleb128 0x12
 3348 018f 01       		.uleb128 0x1
 3349 0190 40       		.uleb128 0x40
 3350 0191 06       		.uleb128 0x6
 3351 0192 00       		.byte	0x0
 3352 0193 00       		.byte	0x0
 3353 0194 21       		.uleb128 0x21
 3354 0195 2E       		.uleb128 0x2e
 3355 0196 00       		.byte	0x0
 3356 0197 31       		.uleb128 0x31
 3357 0198 13       		.uleb128 0x13
 3358 0199 11       		.uleb128 0x11
 3359 019a 01       		.uleb128 0x1
 3360 019b 12       		.uleb128 0x12
 3361 019c 01       		.uleb128 0x1
 3362 019d 40       		.uleb128 0x40
 3363 019e 0A       		.uleb128 0xa
 3364 019f 00       		.byte	0x0
 3365 01a0 00       		.byte	0x0
 3366 01a1 22       		.uleb128 0x22
 3367 01a2 2E       		.uleb128 0x2e
 3368 01a3 01       		.byte	0x1
 3369 01a4 3F       		.uleb128 0x3f
 3370 01a5 0C       		.uleb128 0xc
 3371 01a6 03       		.uleb128 0x3
 3372 01a7 0E       		.uleb128 0xe
 3373 01a8 3A       		.uleb128 0x3a
 3374 01a9 0B       		.uleb128 0xb
 3375 01aa 3B       		.uleb128 0x3b
 3376 01ab 0B       		.uleb128 0xb
 3377 01ac 27       		.uleb128 0x27
 3378 01ad 0C       		.uleb128 0xc
 3379 01ae 49       		.uleb128 0x49
 3380 01af 13       		.uleb128 0x13
 3381 01b0 11       		.uleb128 0x11
 3382 01b1 01       		.uleb128 0x1
 3383 01b2 12       		.uleb128 0x12
 3384 01b3 01       		.uleb128 0x1
 3385 01b4 40       		.uleb128 0x40
 3386 01b5 06       		.uleb128 0x6
 3387 01b6 01       		.uleb128 0x1
 3388 01b7 13       		.uleb128 0x13
 3389 01b8 00       		.byte	0x0
 3390 01b9 00       		.byte	0x0
 3391 01ba 23       		.uleb128 0x23
 3392 01bb 05       		.uleb128 0x5
 3393 01bc 00       		.byte	0x0
 3394 01bd 03       		.uleb128 0x3
 3395 01be 0E       		.uleb128 0xe
 3396 01bf 3A       		.uleb128 0x3a
 3397 01c0 0B       		.uleb128 0xb
 3398 01c1 3B       		.uleb128 0x3b
ARM GAS  C:\Users\DNIEL~1\AppData\Local\Temp\ccahiECR.s 			page 62


 3399 01c2 0B       		.uleb128 0xb
 3400 01c3 49       		.uleb128 0x49
 3401 01c4 13       		.uleb128 0x13
 3402 01c5 02       		.uleb128 0x2
 3403 01c6 06       		.uleb128 0x6
 3404 01c7 00       		.byte	0x0
 3405 01c8 00       		.byte	0x0
 3406 01c9 24       		.uleb128 0x24
 3407 01ca 05       		.uleb128 0x5
 3408 01cb 00       		.byte	0x0
 3409 01cc 03       		.uleb128 0x3
 3410 01cd 0E       		.uleb128 0xe
 3411 01ce 3A       		.uleb128 0x3a
 3412 01cf 0B       		.uleb128 0xb
 3413 01d0 3B       		.uleb128 0x3b
 3414 01d1 0B       		.uleb128 0xb
 3415 01d2 49       		.uleb128 0x49
 3416 01d3 13       		.uleb128 0x13
 3417 01d4 02       		.uleb128 0x2
 3418 01d5 0A       		.uleb128 0xa
 3419 01d6 00       		.byte	0x0
 3420 01d7 00       		.byte	0x0
 3421 01d8 25       		.uleb128 0x25
 3422 01d9 34       		.uleb128 0x34
 3423 01da 00       		.byte	0x0
 3424 01db 03       		.uleb128 0x3
 3425 01dc 08       		.uleb128 0x8
 3426 01dd 3A       		.uleb128 0x3a
 3427 01de 0B       		.uleb128 0xb
 3428 01df 3B       		.uleb128 0x3b
 3429 01e0 0B       		.uleb128 0xb
 3430 01e1 49       		.uleb128 0x49
 3431 01e2 13       		.uleb128 0x13
 3432 01e3 02       		.uleb128 0x2
 3433 01e4 06       		.uleb128 0x6
 3434 01e5 00       		.byte	0x0
 3435 01e6 00       		.byte	0x0
 3436 01e7 26       		.uleb128 0x26
 3437 01e8 2E       		.uleb128 0x2e
 3438 01e9 01       		.byte	0x1
 3439 01ea 3F       		.uleb128 0x3f
 3440 01eb 0C       		.uleb128 0xc
 3441 01ec 03       		.uleb128 0x3
 3442 01ed 0E       		.uleb128 0xe
 3443 01ee 3A       		.uleb128 0x3a
 3444 01ef 0B       		.uleb128 0xb
 3445 01f0 3B       		.uleb128 0x3b
 3446 01f1 0B       		.uleb128 0xb
 3447 01f2 27       		.uleb128 0x27
 3448 01f3 0C       		.uleb128 0xc
 3449 01f4 11       		.uleb128 0x11
 3450 01f5 01       		.uleb128 0x1
 3451 01f6 12       		.uleb128 0x12
 3452 01f7 01       		.uleb128 0x1
 3453 01f8 40       		.uleb128 0x40
 3454 01f9 06       		.uleb128 0x6
 3455 01fa 01       		.uleb128 0x1
ARM GAS  C:\Users\DNIEL~1\AppData\Local\Temp\ccahiECR.s 			page 63


 3456 01fb 13       		.uleb128 0x13
 3457 01fc 00       		.byte	0x0
 3458 01fd 00       		.byte	0x0
 3459 01fe 27       		.uleb128 0x27
 3460 01ff 34       		.uleb128 0x34
 3461 0200 00       		.byte	0x0
 3462 0201 03       		.uleb128 0x3
 3463 0202 0E       		.uleb128 0xe
 3464 0203 3A       		.uleb128 0x3a
 3465 0204 0B       		.uleb128 0xb
 3466 0205 3B       		.uleb128 0x3b
 3467 0206 0B       		.uleb128 0xb
 3468 0207 49       		.uleb128 0x49
 3469 0208 13       		.uleb128 0x13
 3470 0209 02       		.uleb128 0x2
 3471 020a 06       		.uleb128 0x6
 3472 020b 00       		.byte	0x0
 3473 020c 00       		.byte	0x0
 3474 020d 28       		.uleb128 0x28
 3475 020e 0A       		.uleb128 0xa
 3476 020f 00       		.byte	0x0
 3477 0210 03       		.uleb128 0x3
 3478 0211 0E       		.uleb128 0xe
 3479 0212 3A       		.uleb128 0x3a
 3480 0213 0B       		.uleb128 0xb
 3481 0214 3B       		.uleb128 0x3b
 3482 0215 0B       		.uleb128 0xb
 3483 0216 11       		.uleb128 0x11
 3484 0217 01       		.uleb128 0x1
 3485 0218 00       		.byte	0x0
 3486 0219 00       		.byte	0x0
 3487 021a 29       		.uleb128 0x29
 3488 021b 1D       		.uleb128 0x1d
 3489 021c 00       		.byte	0x0
 3490 021d 31       		.uleb128 0x31
 3491 021e 13       		.uleb128 0x13
 3492 021f 52       		.uleb128 0x52
 3493 0220 01       		.uleb128 0x1
 3494 0221 55       		.uleb128 0x55
 3495 0222 06       		.uleb128 0x6
 3496 0223 58       		.uleb128 0x58
 3497 0224 0B       		.uleb128 0xb
 3498 0225 59       		.uleb128 0x59
 3499 0226 0B       		.uleb128 0xb
 3500 0227 00       		.byte	0x0
 3501 0228 00       		.byte	0x0
 3502 0229 2A       		.uleb128 0x2a
 3503 022a 34       		.uleb128 0x34
 3504 022b 00       		.byte	0x0
 3505 022c 03       		.uleb128 0x3
 3506 022d 0E       		.uleb128 0xe
 3507 022e 3A       		.uleb128 0x3a
 3508 022f 0B       		.uleb128 0xb
 3509 0230 3B       		.uleb128 0x3b
 3510 0231 0B       		.uleb128 0xb
 3511 0232 49       		.uleb128 0x49
 3512 0233 13       		.uleb128 0x13
ARM GAS  C:\Users\DNIEL~1\AppData\Local\Temp\ccahiECR.s 			page 64


 3513 0234 00       		.byte	0x0
 3514 0235 00       		.byte	0x0
 3515 0236 2B       		.uleb128 0x2b
 3516 0237 0A       		.uleb128 0xa
 3517 0238 00       		.byte	0x0
 3518 0239 03       		.uleb128 0x3
 3519 023a 0E       		.uleb128 0xe
 3520 023b 3A       		.uleb128 0x3a
 3521 023c 0B       		.uleb128 0xb
 3522 023d 3B       		.uleb128 0x3b
 3523 023e 05       		.uleb128 0x5
 3524 023f 11       		.uleb128 0x11
 3525 0240 01       		.uleb128 0x1
 3526 0241 00       		.byte	0x0
 3527 0242 00       		.byte	0x0
 3528 0243 2C       		.uleb128 0x2c
 3529 0244 1D       		.uleb128 0x1d
 3530 0245 00       		.byte	0x0
 3531 0246 31       		.uleb128 0x31
 3532 0247 13       		.uleb128 0x13
 3533 0248 52       		.uleb128 0x52
 3534 0249 01       		.uleb128 0x1
 3535 024a 55       		.uleb128 0x55
 3536 024b 06       		.uleb128 0x6
 3537 024c 58       		.uleb128 0x58
 3538 024d 0B       		.uleb128 0xb
 3539 024e 59       		.uleb128 0x59
 3540 024f 05       		.uleb128 0x5
 3541 0250 00       		.byte	0x0
 3542 0251 00       		.byte	0x0
 3543 0252 2D       		.uleb128 0x2d
 3544 0253 34       		.uleb128 0x34
 3545 0254 00       		.byte	0x0
 3546 0255 03       		.uleb128 0x3
 3547 0256 0E       		.uleb128 0xe
 3548 0257 3A       		.uleb128 0x3a
 3549 0258 0B       		.uleb128 0xb
 3550 0259 3B       		.uleb128 0x3b
 3551 025a 05       		.uleb128 0x5
 3552 025b 49       		.uleb128 0x49
 3553 025c 13       		.uleb128 0x13
 3554 025d 3F       		.uleb128 0x3f
 3555 025e 0C       		.uleb128 0xc
 3556 025f 3C       		.uleb128 0x3c
 3557 0260 0C       		.uleb128 0xc
 3558 0261 00       		.byte	0x0
 3559 0262 00       		.byte	0x0
 3560 0263 2E       		.uleb128 0x2e
 3561 0264 34       		.uleb128 0x34
 3562 0265 00       		.byte	0x0
 3563 0266 03       		.uleb128 0x3
 3564 0267 0E       		.uleb128 0xe
 3565 0268 3A       		.uleb128 0x3a
 3566 0269 0B       		.uleb128 0xb
 3567 026a 3B       		.uleb128 0x3b
 3568 026b 0B       		.uleb128 0xb
 3569 026c 49       		.uleb128 0x49
ARM GAS  C:\Users\DNIEL~1\AppData\Local\Temp\ccahiECR.s 			page 65


 3570 026d 13       		.uleb128 0x13
 3571 026e 1C       		.uleb128 0x1c
 3572 026f 0A       		.uleb128 0xa
 3573 0270 00       		.byte	0x0
 3574 0271 00       		.byte	0x0
 3575 0272 2F       		.uleb128 0x2f
 3576 0273 34       		.uleb128 0x34
 3577 0274 00       		.byte	0x0
 3578 0275 03       		.uleb128 0x3
 3579 0276 0E       		.uleb128 0xe
 3580 0277 3A       		.uleb128 0x3a
 3581 0278 0B       		.uleb128 0xb
 3582 0279 3B       		.uleb128 0x3b
 3583 027a 0B       		.uleb128 0xb
 3584 027b 49       		.uleb128 0x49
 3585 027c 13       		.uleb128 0x13
 3586 027d 02       		.uleb128 0x2
 3587 027e 0A       		.uleb128 0xa
 3588 027f 00       		.byte	0x0
 3589 0280 00       		.byte	0x0
 3590 0281 00       		.byte	0x0
 3591              		.section	.debug_pubnames,"",%progbits
 3592 0000 99000000 		.4byte	0x99
 3593 0004 0200     		.2byte	0x2
 3594 0006 00000000 		.4byte	.Ldebug_info0
 3595 000a 5D0A0000 		.4byte	0xa5d
 3596 000e 91060000 		.4byte	0x691
 3597 0012 63727569 		.ascii	"cruiseInit\000"
 3597      7365496E 
 3597      697400
 3598 001d A6060000 		.4byte	0x6a6
 3599 0021 63727569 		.ascii	"cruiseEnable\000"
 3599      7365456E 
 3599      61626C65 
 3599      00
 3600 002e B6060000 		.4byte	0x6b6
 3601 0032 63727569 		.ascii	"cruiseDisable\000"
 3601      73654469 
 3601      7361626C 
 3601      6500
 3602 0040 C6060000 		.4byte	0x6c6
 3603 0044 63727569 		.ascii	"cruisePID\000"
 3603      73655049 
 3603      4400
 3604 004e 85070000 		.4byte	0x785
 3605 0052 63727569 		.ascii	"cruiseCalc\000"
 3605      73654361 
 3605      6C6300
 3606 005d 9A070000 		.4byte	0x79a
 3607 0061 636D645F 		.ascii	"cmd_cruisevalues\000"
 3607      63727569 
 3607      73657661 
 3607      6C756573 
 3607      00
 3608 0072 E7070000 		.4byte	0x7e7
 3609 0076 636D645F 		.ascii	"cmd_setcruisevalues\000"
 3609      73657463 
ARM GAS  C:\Users\DNIEL~1\AppData\Local\Temp\ccahiECR.s 			page 66


 3609      72756973 
 3609      6576616C 
 3609      75657300 
 3610 008a 66080000 		.4byte	0x866
 3611 008e 636D645F 		.ascii	"cmd_cruise\000"
 3611      63727569 
 3611      736500
 3612 0099 00000000 		.4byte	0x0
 3613              		.section	.debug_pubtypes,"",%progbits
 3614 0000 7F010000 		.4byte	0x17f
 3615 0004 0200     		.2byte	0x2
 3616 0006 00000000 		.4byte	.Ldebug_info0
 3617 000a 5D0A0000 		.4byte	0xa5d
 3618 000e 89000000 		.4byte	0x89
 3619 0012 73697A65 		.ascii	"size_t\000"
 3619      5F7400
 3620 0019 94000000 		.4byte	0x94
 3621 001d 75696E74 		.ascii	"uint8_t\000"
 3621      385F7400 
 3622 0025 9F000000 		.4byte	0x9f
 3623 0029 696E7431 		.ascii	"int16_t\000"
 3623      365F7400 
 3624 0031 AA000000 		.4byte	0xaa
 3625 0035 75696E74 		.ascii	"uint16_t\000"
 3625      31365F74 
 3625      00
 3626 003e B5000000 		.4byte	0xb5
 3627 0042 696E7433 		.ascii	"int32_t\000"
 3627      325F7400 
 3628 004a C0000000 		.4byte	0xc0
 3629 004e 75696E74 		.ascii	"uint32_t\000"
 3629      33325F74 
 3629      00
 3630 0057 D2000000 		.4byte	0xd2
 3631 005b 6D73675F 		.ascii	"msg_t\000"
 3631      7400
 3632 0061 DD000000 		.4byte	0xdd
 3633 0065 73797374 		.ascii	"systime_t\000"
 3633      696D655F 
 3633      7400
 3634 006f 09010000 		.4byte	0x109
 3635 0073 42617365 		.ascii	"BaseSequentialStreamVMT\000"
 3635      53657175 
 3635      656E7469 
 3635      616C5374 
 3635      7265616D 
 3636 008b D6010000 		.4byte	0x1d6
 3637 008f 42617365 		.ascii	"BaseSequentialStream\000"
 3637      53657175 
 3637      656E7469 
 3637      616C5374 
 3637      7265616D 
 3638 00a4 F6010000 		.4byte	0x1f6
 3639 00a8 42617365 		.ascii	"BaseChannelVMT\000"
 3639      4368616E 
 3639      6E656C56 
 3639      4D5400
ARM GAS  C:\Users\DNIEL~1\AppData\Local\Temp\ccahiECR.s 			page 67


 3640 00b7 1A030000 		.4byte	0x31a
 3641 00bb 42617365 		.ascii	"BaseChannel\000"
 3641      4368616E 
 3641      6E656C00 
 3642 00c7 6D040000 		.4byte	0x46d
 3643 00cb 73746D33 		.ascii	"stm32_tim_t\000"
 3643      325F7469 
 3643      6D5F7400 
 3644 00d7 9A040000 		.4byte	0x49a
 3645 00db 70776D73 		.ascii	"pwmstate_t\000"
 3645      74617465 
 3645      5F7400
 3646 00e6 A5040000 		.4byte	0x4a5
 3647 00ea 50574D44 		.ascii	"PWMDriver\000"
 3647      72697665 
 3647      7200
 3648 00f4 09050000 		.4byte	0x509
 3649 00f8 70776D63 		.ascii	"pwmcallback_t\000"
 3649      616C6C62 
 3649      61636B5F 
 3649      7400
 3650 0106 2C050000 		.4byte	0x52c
 3651 010a 70776D6D 		.ascii	"pwmmode_t\000"
 3651      6F64655F 
 3651      7400
 3652 0114 38050000 		.4byte	0x538
 3653 0118 70776D63 		.ascii	"pwmcnt_t\000"
 3653      6E745F74 
 3653      00
 3654 0121 6C050000 		.4byte	0x56c
 3655 0125 50574D43 		.ascii	"PWMChannelConfig\000"
 3655      68616E6E 
 3655      656C436F 
 3655      6E666967 
 3655      00
 3656 0136 EC050000 		.4byte	0x5ec
 3657 013a 50574D43 		.ascii	"PWMConfig\000"
 3657      6F6E6669 
 3657      6700
 3658 0144 B0040000 		.4byte	0x4b0
 3659 0148 50574D44 		.ascii	"PWMDriver\000"
 3659      72697665 
 3659      7200
 3660 0152 0E060000 		.4byte	0x60e
 3661 0156 5F5F7661 		.ascii	"__va_list\000"
 3661      5F6C6973 
 3661      7400
 3662 0160 03060000 		.4byte	0x603
 3663 0164 5F5F676E 		.ascii	"__gnuc_va_list\000"
 3663      75635F76 
 3663      615F6C69 
 3663      737400
 3664 0173 28060000 		.4byte	0x628
 3665 0177 76615F6C 		.ascii	"va_list\000"
 3665      69737400 
 3666 017f 00000000 		.4byte	0x0
 3667              		.section	.debug_aranges,"",%progbits
ARM GAS  C:\Users\DNIEL~1\AppData\Local\Temp\ccahiECR.s 			page 68


 3668 0000 5C000000 		.4byte	0x5c
 3669 0004 0200     		.2byte	0x2
 3670 0006 00000000 		.4byte	.Ldebug_info0
 3671 000a 04       		.byte	0x4
 3672 000b 00       		.byte	0x0
 3673 000c 0000     		.2byte	0x0
 3674 000e 0000     		.2byte	0x0
 3675 0010 00000000 		.4byte	.LFB118
 3676 0014 1E000000 		.4byte	.LFE118-.LFB118
 3677 0018 00000000 		.4byte	.LFB119
 3678 001c 6C000000 		.4byte	.LFE119-.LFB119
 3679 0020 00000000 		.4byte	.LFB121
 3680 0024 14000000 		.4byte	.LFE121-.LFB121
 3681 0028 00000000 		.4byte	.LFB122
 3682 002c 10000000 		.4byte	.LFE122-.LFB122
 3683 0030 00000000 		.4byte	.LFB123
 3684 0034 74010000 		.4byte	.LFE123-.LFB123
 3685 0038 00000000 		.4byte	.LFB120
 3686 003c 10010000 		.4byte	.LFE120-.LFB120
 3687 0040 00000000 		.4byte	.LFB124
 3688 0044 FC000000 		.4byte	.LFE124-.LFB124
 3689 0048 00000000 		.4byte	.LFB125
 3690 004c 14020000 		.4byte	.LFE125-.LFB125
 3691 0050 00000000 		.4byte	.LFB126
 3692 0054 AC000000 		.4byte	.LFE126-.LFB126
 3693 0058 00000000 		.4byte	0x0
 3694 005c 00000000 		.4byte	0x0
 3695              		.section	.debug_ranges,"",%progbits
 3696              	.Ldebug_ranges0:
 3697 0000 AC000000 		.4byte	.LBB10
 3698 0004 AE000000 		.4byte	.LBE10
 3699 0008 B0000000 		.4byte	.LBB13
 3700 000c B8000000 		.4byte	.LBE13
 3701 0010 00000000 		.4byte	0x0
 3702 0014 00000000 		.4byte	0x0
 3703 0018 F8000000 		.4byte	.LBB14
 3704 001c FC000000 		.4byte	.LBE14
 3705 0020 FE000000 		.4byte	.LBB17
 3706 0024 04010000 		.4byte	.LBE17
 3707 0028 00000000 		.4byte	0x0
 3708 002c 00000000 		.4byte	0x0
 3709 0030 54000000 		.4byte	.LBB18
 3710 0034 56000000 		.4byte	.LBE18
 3711 0038 5E000000 		.4byte	.LBB23
 3712 003c 62000000 		.4byte	.LBE23
 3713 0040 58000000 		.4byte	.LBB22
 3714 0044 5C000000 		.4byte	.LBE22
 3715 0048 00000000 		.4byte	0x0
 3716 004c 00000000 		.4byte	0x0
 3717 0050 6A000000 		.4byte	.LBB24
 3718 0054 6E000000 		.4byte	.LBE24
 3719 0058 70000000 		.4byte	.LBB27
 3720 005c 76000000 		.4byte	.LBE27
 3721 0060 00000000 		.4byte	0x0
 3722 0064 00000000 		.4byte	0x0
 3723 0068 00000000 		.4byte	.LFB118
 3724 006c 1E000000 		.4byte	.LFE118
ARM GAS  C:\Users\DNIEL~1\AppData\Local\Temp\ccahiECR.s 			page 69


 3725 0070 00000000 		.4byte	.LFB119
 3726 0074 6C000000 		.4byte	.LFE119
 3727 0078 00000000 		.4byte	.LFB121
 3728 007c 14000000 		.4byte	.LFE121
 3729 0080 00000000 		.4byte	.LFB122
 3730 0084 10000000 		.4byte	.LFE122
 3731 0088 00000000 		.4byte	.LFB123
 3732 008c 74010000 		.4byte	.LFE123
 3733 0090 00000000 		.4byte	.LFB120
 3734 0094 10010000 		.4byte	.LFE120
 3735 0098 00000000 		.4byte	.LFB124
 3736 009c FC000000 		.4byte	.LFE124
 3737 00a0 00000000 		.4byte	.LFB125
 3738 00a4 14020000 		.4byte	.LFE125
 3739 00a8 00000000 		.4byte	.LFB126
 3740 00ac AC000000 		.4byte	.LFE126
 3741 00b0 00000000 		.4byte	0x0
 3742 00b4 00000000 		.4byte	0x0
 3743              		.section	.debug_str,"MS",%progbits,1
 3744              	.LASF30:
 3745 0000 44494552 		.ascii	"DIER\000"
 3745      00
 3746              	.LASF10:
 3747 0005 73697A65 		.ascii	"size_t\000"
 3747      5F7400
 3748              	.LASF72:
 3749 000c 63727569 		.ascii	"cruiseCalc\000"
 3749      73654361 
 3749      6C6300
 3750              	.LASF77:
 3751 0017 737A616D 		.ascii	"szam\000"
 3751      00
 3752              	.LASF86:
 3753 001c 4D41585F 		.ascii	"MAX_D\000"
 3753      4400
 3754              	.LASF36:
 3755 0022 43434D52 		.ascii	"CCMR3\000"
 3755      3300
 3756              	.LASF47:
 3757 0028 70657269 		.ascii	"period\000"
 3757      6F6400
 3758              	.LASF6:
 3759 002f 6C6F6E67 		.ascii	"long long unsigned int\000"
 3759      206C6F6E 
 3759      6720756E 
 3759      7369676E 
 3759      65642069 
 3760              	.LASF23:
 3761 0046 42617365 		.ascii	"BaseChannelVMT\000"
 3761      4368616E 
 3761      6E656C56 
 3761      4D5400
 3762              	.LASF38:
 3763 0055 43435236 		.ascii	"CCR6\000"
 3763      00
 3764              	.LASF80:
 3765 005a 49544D5F 		.ascii	"ITM_RxBuffer\000"
ARM GAS  C:\Users\DNIEL~1\AppData\Local\Temp\ccahiECR.s 			page 70


 3765      52784275 
 3765      66666572 
 3765      00
 3766              	.LASF34:
 3767 0067 42445452 		.ascii	"BDTR\000"
 3767      00
 3768              	.LASF55:
 3769 006c 66726571 		.ascii	"frequency\000"
 3769      75656E63 
 3769      7900
 3770              	.LASF42:
 3771 0076 50574D5F 		.ascii	"PWM_READY\000"
 3771      52454144 
 3771      5900
 3772              	.LASF27:
 3773 0080 72656164 		.ascii	"readt\000"
 3773      7400
 3774              	.LASF12:
 3775 0086 696E7431 		.ascii	"int16_t\000"
 3775      365F7400 
 3776              	.LASF32:
 3777 008e 43434D52 		.ascii	"CCMR2\000"
 3777      3200
 3778              	.LASF5:
 3779 0094 6C6F6E67 		.ascii	"long long int\000"
 3779      206C6F6E 
 3779      6720696E 
 3779      7400
 3780              	.LASF0:
 3781 00a2 7369676E 		.ascii	"signed char\000"
 3781      65642063 
 3781      68617200 
 3782              	.LASF39:
 3783 00ae 73746D33 		.ascii	"stm32_tim_t\000"
 3783      325F7469 
 3783      6D5F7400 
 3784              	.LASF92:
 3785 00ba 433A5C44 		.ascii	"C:\\Dani\\MegaLux\\Repo\\Smarty\\Smarty\\smarty\\fi"
 3785      616E695C 
 3785      4D656761 
 3785      4C75785C 
 3785      5265706F 
 3786 00e6 726D7761 		.ascii	"rmware\000"
 3786      726500
 3787              	.LASF45:
 3788 00ed 73746174 		.ascii	"state\000"
 3788      6500
 3789              	.LASF56:
 3790 00f3 6368616E 		.ascii	"channels\000"
 3790      6E656C73 
 3790      00
 3791              	.LASF7:
 3792 00fc 6C6F6E67 		.ascii	"long int\000"
 3792      20696E74 
 3792      00
 3793              	.LASF25:
 3794 0105 67657474 		.ascii	"gett\000"
ARM GAS  C:\Users\DNIEL~1\AppData\Local\Temp\ccahiECR.s 			page 71


 3794      00
 3795              	.LASF60:
 3796 010a 5F5F7661 		.ascii	"__va_list\000"
 3796      5F6C6973 
 3796      7400
 3797              	.LASF33:
 3798 0114 43434552 		.ascii	"CCER\000"
 3798      00
 3799              	.LASF13:
 3800 0119 75696E74 		.ascii	"uint16_t\000"
 3800      31365F74 
 3800      00
 3801              	.LASF81:
 3802 0122 50574D44 		.ascii	"PWMD5\000"
 3802      3500
 3803              	.LASF62:
 3804 0128 63727569 		.ascii	"cruiseEnable\000"
 3804      7365456E 
 3804      61626C65 
 3804      00
 3805              	.LASF61:
 3806 0135 76615F6C 		.ascii	"va_list\000"
 3806      69737400 
 3807              	.LASF21:
 3808 013d 42617365 		.ascii	"BaseSequentialStream\000"
 3808      53657175 
 3808      656E7469 
 3808      616C5374 
 3808      7265616D 
 3809              	.LASF4:
 3810 0152 756E7369 		.ascii	"unsigned int\000"
 3810      676E6564 
 3810      20696E74 
 3810      00
 3811              	.LASF88:
 3812 015f 63727569 		.ascii	"cruise_on\000"
 3812      73655F6F 
 3812      6E00
 3813              	.LASF8:
 3814 0169 6C6F6E67 		.ascii	"long unsigned int\000"
 3814      20756E73 
 3814      69676E65 
 3814      6420696E 
 3814      7400
 3815              	.LASF89:
 3816 017b 63727569 		.ascii	"cruise_pwmcfg\000"
 3816      73655F70 
 3816      776D6366 
 3816      6700
 3817              	.LASF83:
 3818 0189 4D494E5F 		.ascii	"MIN_U\000"
 3818      5500
 3819              	.LASF78:
 3820 018f 636D645F 		.ascii	"cmd_cruise\000"
 3820      63727569 
 3820      736500
 3821              	.LASF50:
ARM GAS  C:\Users\DNIEL~1\AppData\Local\Temp\ccahiECR.s 			page 72


 3822 019a 70776D6D 		.ascii	"pwmmode_t\000"
 3822      6F64655F 
 3822      7400
 3823              	.LASF69:
 3824 01a4 4D617844 		.ascii	"MaxD\000"
 3824      00
 3825              	.LASF3:
 3826 01a9 73686F72 		.ascii	"short unsigned int\000"
 3826      7420756E 
 3826      7369676E 
 3826      65642069 
 3826      6E7400
 3827              	.LASF68:
 3828 01bc 4D617849 		.ascii	"MaxI\000"
 3828      00
 3829              	.LASF76:
 3830 01c1 636D645F 		.ascii	"cmd_setcruisevalues\000"
 3830      73657463 
 3830      72756973 
 3830      6576616C 
 3830      75657300 
 3831              	.LASF17:
 3832 01d5 6D73675F 		.ascii	"msg_t\000"
 3832      7400
 3833              	.LASF85:
 3834 01db 4D41585F 		.ascii	"MAX_I\000"
 3834      4900
 3835              	.LASF53:
 3836 01e1 63616C6C 		.ascii	"callback\000"
 3836      6261636B 
 3836      00
 3837              	.LASF26:
 3838 01ea 77726974 		.ascii	"writet\000"
 3838      657400
 3839              	.LASF84:
 3840 01f1 4D41585F 		.ascii	"MAX_P\000"
 3840      5000
 3841              	.LASF82:
 3842 01f7 4D41585F 		.ascii	"MAX_U\000"
 3842      5500
 3843              	.LASF63:
 3844 01fd 63727569 		.ascii	"cruiseDisable\000"
 3844      73654469 
 3844      7361626C 
 3844      6500
 3845              	.LASF19:
 3846 020b 77726974 		.ascii	"write\000"
 3846      6500
 3847              	.LASF24:
 3848 0211 70757474 		.ascii	"putt\000"
 3848      00
 3849              	.LASF79:
 3850 0216 4552524F 		.ascii	"ERROR\000"
 3850      5200
 3851              	.LASF59:
 3852 021c 5F5F676E 		.ascii	"__gnuc_va_list\000"
 3852      75635F76 
ARM GAS  C:\Users\DNIEL~1\AppData\Local\Temp\ccahiECR.s 			page 73


 3852      615F6C69 
 3852      737400
 3853              	.LASF67:
 3854 022b 4D617850 		.ascii	"MaxP\000"
 3854      00
 3855              	.LASF65:
 3856 0230 4D617855 		.ascii	"MaxU\000"
 3856      00
 3857              	.LASF91:
 3858 0235 7372632F 		.ascii	"src/cruise.c\000"
 3858      63727569 
 3858      73652E63 
 3858      00
 3859              	.LASF64:
 3860 0242 496E7075 		.ascii	"Input\000"
 3860      7400
 3861              	.LASF49:
 3862 0248 70776D63 		.ascii	"pwmcallback_t\000"
 3862      616C6C62 
 3862      61636B5F 
 3862      7400
 3863              	.LASF16:
 3864 0256 5F426F6F 		.ascii	"_Bool\000"
 3864      6C00
 3865              	.LASF14:
 3866 025c 696E7433 		.ascii	"int32_t\000"
 3866      325F7400 
 3867              	.LASF1:
 3868 0264 756E7369 		.ascii	"unsigned char\000"
 3868      676E6564 
 3868      20636861 
 3868      7200
 3869              	.LASF66:
 3870 0272 4D696E55 		.ascii	"MinU\000"
 3870      00
 3871              	.LASF71:
 3872 0277 63727569 		.ascii	"cruiseInit\000"
 3872      7365496E 
 3872      697400
 3873              	.LASF2:
 3874 0282 73686F72 		.ascii	"short int\000"
 3874      7420696E 
 3874      7400
 3875              	.LASF22:
 3876 028c 42617365 		.ascii	"BaseSequentialStreamVMT\000"
 3876      53657175 
 3876      656E7469 
 3876      616C5374 
 3876      7265616D 
 3877              	.LASF75:
 3878 02a4 636D645F 		.ascii	"cmd_cruisevalues\000"
 3878      63727569 
 3878      73657661 
 3878      6C756573 
 3878      00
 3879              	.LASF15:
 3880 02b5 75696E74 		.ascii	"uint32_t\000"
ARM GAS  C:\Users\DNIEL~1\AppData\Local\Temp\ccahiECR.s 			page 74


 3880      33325F74 
 3880      00
 3881              	.LASF58:
 3882 02be 50574D43 		.ascii	"PWMConfig\000"
 3882      6F6E6669 
 3882      6700
 3883              	.LASF41:
 3884 02c8 50574D5F 		.ascii	"PWM_STOP\000"
 3884      53544F50 
 3884      00
 3885              	.LASF9:
 3886 02d1 63686172 		.ascii	"char\000"
 3886      00
 3887              	.LASF52:
 3888 02d6 6D6F6465 		.ascii	"mode\000"
 3888      00
 3889              	.LASF29:
 3890 02db 534D4352 		.ascii	"SMCR\000"
 3890      00
 3891              	.LASF46:
 3892 02e0 636F6E66 		.ascii	"config\000"
 3892      696700
 3893              	.LASF35:
 3894 02e7 444D4152 		.ascii	"DMAR\000"
 3894      00
 3895              	.LASF18:
 3896 02ec 73797374 		.ascii	"systime_t\000"
 3896      696D655F 
 3896      7400
 3897              	.LASF93:
 3898 02f6 5F5F6170 		.ascii	"__ap\000"
 3898      00
 3899              	.LASF31:
 3900 02fb 43434D52 		.ascii	"CCMR1\000"
 3900      3100
 3901              	.LASF54:
 3902 0301 50574D43 		.ascii	"PWMChannelConfig\000"
 3902      68616E6E 
 3902      656C436F 
 3902      6E666967 
 3902      00
 3903              	.LASF37:
 3904 0312 43435235 		.ascii	"CCR5\000"
 3904      00
 3905              	.LASF87:
 3906 0317 65656C6F 		.ascii	"eelozo\000"
 3906      7A6F00
 3907              	.LASF11:
 3908 031e 75696E74 		.ascii	"uint8_t\000"
 3908      385F7400 
 3909              	.LASF44:
 3910 0326 50574D44 		.ascii	"PWMDriver\000"
 3910      72697665 
 3910      7200
 3911              	.LASF28:
 3912 0330 42617365 		.ascii	"BaseChannel\000"
 3912      4368616E 
ARM GAS  C:\Users\DNIEL~1\AppData\Local\Temp\ccahiECR.s 			page 75


 3912      6E656C00 
 3913              	.LASF43:
 3914 033c 70776D73 		.ascii	"pwmstate_t\000"
 3914      74617465 
 3914      5F7400
 3915              	.LASF51:
 3916 0347 70776D63 		.ascii	"pwmcnt_t\000"
 3916      6E745F74 
 3916      00
 3917              	.LASF20:
 3918 0350 72656164 		.ascii	"read\000"
 3918      00
 3919              	.LASF90:
 3920 0355 474E5520 		.ascii	"GNU C 4.5.2\000"
 3920      4320342E 
 3920      352E3200 
 3921              	.LASF73:
 3922 0361 61726763 		.ascii	"argc\000"
 3922      00
 3923              	.LASF48:
 3924 0366 636C6F63 		.ascii	"clock\000"
 3924      6B00
 3925              	.LASF74:
 3926 036c 61726776 		.ascii	"argv\000"
 3926      00
 3927              	.LASF95:
 3928 0371 63727569 		.ascii	"cruisePID\000"
 3928      73655049 
 3928      4400
 3929              	.LASF40:
 3930 037b 50574D5F 		.ascii	"PWM_UNINIT\000"
 3930      554E494E 
 3930      495400
 3931              	.LASF70:
 3932 0386 646F7562 		.ascii	"double\000"
 3932      6C6500
 3933              	.LASF57:
 3934 038d 64696572 		.ascii	"dier\000"
 3934      00
 3935              	.LASF94:
 3936 0392 63687072 		.ascii	"chprintf\000"
 3936      696E7466 
 3936      00
 3937              		.ident	"GCC: (Sourcery G++ Lite 2011.03-42) 4.5.2"
ARM GAS  C:\Users\DNIEL~1\AppData\Local\Temp\ccahiECR.s 			page 76


DEFINED SYMBOLS
                            *ABS*:00000000 cruise.c
C:\Users\DNIEL~1\AppData\Local\Temp\ccahiECR.s:24     .text.chprintf:00000000 $t
C:\Users\DNIEL~1\AppData\Local\Temp\ccahiECR.s:29     .text.chprintf:00000000 chprintf
C:\Users\DNIEL~1\AppData\Local\Temp\ccahiECR.s:69     .text.cruiseInit:00000000 $t
C:\Users\DNIEL~1\AppData\Local\Temp\ccahiECR.s:75     .text.cruiseInit:00000000 cruiseInit
C:\Users\DNIEL~1\AppData\Local\Temp\ccahiECR.s:127    .text.cruiseInit:00000044 $d
C:\Users\DNIEL~1\AppData\Local\Temp\ccahiECR.s:141    .text.cruiseEnable:00000000 $t
C:\Users\DNIEL~1\AppData\Local\Temp\ccahiECR.s:147    .text.cruiseEnable:00000000 cruiseEnable
C:\Users\DNIEL~1\AppData\Local\Temp\ccahiECR.s:164    .text.cruiseEnable:0000000c $d
C:\Users\DNIEL~1\AppData\Local\Temp\ccahiECR.s:170    .text.cruiseDisable:00000000 $t
C:\Users\DNIEL~1\AppData\Local\Temp\ccahiECR.s:176    .text.cruiseDisable:00000000 cruiseDisable
C:\Users\DNIEL~1\AppData\Local\Temp\ccahiECR.s:193    .text.cruiseDisable:0000000c $d
C:\Users\DNIEL~1\AppData\Local\Temp\ccahiECR.s:205    .text.cruisePID:00000000 $t
C:\Users\DNIEL~1\AppData\Local\Temp\ccahiECR.s:211    .text.cruisePID:00000000 cruisePID
C:\Users\DNIEL~1\AppData\Local\Temp\ccahiECR.s:409    .text.cruisePID:00000160 $d
C:\Users\DNIEL~1\AppData\Local\Temp\ccahiECR.s:419    .text.cruiseCalc:00000000 $t
C:\Users\DNIEL~1\AppData\Local\Temp\ccahiECR.s:425    .text.cruiseCalc:00000000 cruiseCalc
C:\Users\DNIEL~1\AppData\Local\Temp\ccahiECR.s:543    .text.cruiseCalc:000000d4 $d
C:\Users\DNIEL~1\AppData\Local\Temp\ccahiECR.s:562    .text.cmd_cruisevalues:00000000 $t
C:\Users\DNIEL~1\AppData\Local\Temp\ccahiECR.s:568    .text.cmd_cruisevalues:00000000 cmd_cruisevalues
C:\Users\DNIEL~1\AppData\Local\Temp\ccahiECR.s:675    .text.cmd_cruisevalues:000000b8 $d
C:\Users\DNIEL~1\AppData\Local\Temp\ccahiECR.s:696    .text.cmd_setcruisevalues:00000000 $t
C:\Users\DNIEL~1\AppData\Local\Temp\ccahiECR.s:702    .text.cmd_setcruisevalues:00000000 cmd_setcruisevalues
C:\Users\DNIEL~1\AppData\Local\Temp\ccahiECR.s:987    .text.cmd_setcruisevalues:000001a8 $d
C:\Users\DNIEL~1\AppData\Local\Temp\ccahiECR.s:1018   .text.cmd_cruise:00000000 $t
C:\Users\DNIEL~1\AppData\Local\Temp\ccahiECR.s:1024   .text.cmd_cruise:00000000 cmd_cruise
C:\Users\DNIEL~1\AppData\Local\Temp\ccahiECR.s:1145   .text.cmd_cruise:00000080 $d
C:\Users\DNIEL~1\AppData\Local\Temp\ccahiECR.s:1160   .bss.P:00000000 $d
C:\Users\DNIEL~1\AppData\Local\Temp\ccahiECR.s:1164   .bss.P:00000000 P
C:\Users\DNIEL~1\AppData\Local\Temp\ccahiECR.s:1167   .data.K_D:00000000 $d
C:\Users\DNIEL~1\AppData\Local\Temp\ccahiECR.s:1171   .data.K_D:00000000 K_D
C:\Users\DNIEL~1\AppData\Local\Temp\ccahiECR.s:1174   .bss.set:00000000 $d
C:\Users\DNIEL~1\AppData\Local\Temp\ccahiECR.s:1178   .bss.set:00000000 set
C:\Users\DNIEL~1\AppData\Local\Temp\ccahiECR.s:1181   .data.K_I:00000000 $d
C:\Users\DNIEL~1\AppData\Local\Temp\ccahiECR.s:1185   .data.K_I:00000000 K_I
C:\Users\DNIEL~1\AppData\Local\Temp\ccahiECR.s:1188   .rodata.str1.4:00000000 $d
C:\Users\DNIEL~1\AppData\Local\Temp\ccahiECR.s:1256   .bss.pwm:00000000 $d
C:\Users\DNIEL~1\AppData\Local\Temp\ccahiECR.s:1260   .bss.pwm:00000000 pwm
C:\Users\DNIEL~1\AppData\Local\Temp\ccahiECR.s:1263   .data.cruise_pwmcfg:00000000 $d
C:\Users\DNIEL~1\AppData\Local\Temp\ccahiECR.s:1267   .data.cruise_pwmcfg:00000000 cruise_pwmcfg
C:\Users\DNIEL~1\AppData\Local\Temp\ccahiECR.s:1283   .data.K_P:00000000 $d
C:\Users\DNIEL~1\AppData\Local\Temp\ccahiECR.s:1287   .data.K_P:00000000 K_P
C:\Users\DNIEL~1\AppData\Local\Temp\ccahiECR.s:1290   .bss.cruise_on:00000000 $d
C:\Users\DNIEL~1\AppData\Local\Temp\ccahiECR.s:1294   .bss.cruise_on:00000000 cruise_on
C:\Users\DNIEL~1\AppData\Local\Temp\ccahiECR.s:1297   .bss.D:00000000 $d
C:\Users\DNIEL~1\AppData\Local\Temp\ccahiECR.s:1301   .bss.D:00000000 D
C:\Users\DNIEL~1\AppData\Local\Temp\ccahiECR.s:1304   .bss.e:00000000 $d
C:\Users\DNIEL~1\AppData\Local\Temp\ccahiECR.s:1308   .bss.e:00000000 e
C:\Users\DNIEL~1\AppData\Local\Temp\ccahiECR.s:1311   .bss.eelozo:00000000 $d
C:\Users\DNIEL~1\AppData\Local\Temp\ccahiECR.s:1315   .bss.eelozo:00000000 eelozo
C:\Users\DNIEL~1\AppData\Local\Temp\ccahiECR.s:1318   .bss.I:00000000 $d
C:\Users\DNIEL~1\AppData\Local\Temp\ccahiECR.s:1322   .bss.I:00000000 I
                     .debug_frame:00000010 $d
C:\Users\DNIEL~1\AppData\Local\Temp\ccahiECR.s:140    .text.cruiseInit:0000006c $t
C:\Users\DNIEL~1\AppData\Local\Temp\ccahiECR.s:169    .text.cruiseEnable:00000014 $t
C:\Users\DNIEL~1\AppData\Local\Temp\ccahiECR.s:418    .text.cruisePID:00000174 $t
ARM GAS  C:\Users\DNIEL~1\AppData\Local\Temp\ccahiECR.s 			page 77


C:\Users\DNIEL~1\AppData\Local\Temp\ccahiECR.s:695    .text.cmd_cruisevalues:000000fc $t
C:\Users\DNIEL~1\AppData\Local\Temp\ccahiECR.s:1017   .text.cmd_setcruisevalues:00000214 $t
C:\Users\DNIEL~1\AppData\Local\Temp\ccahiECR.s:1159   .text.cmd_cruise:000000ac $t

UNDEFINED SYMBOLS
chvprintf
pwmStart
PWMD5
__aeabi_i2d
__aeabi_dmul
__aeabi_dcmpgt
__aeabi_dcmplt
__aeabi_dadd
__aeabi_dsub
__aeabi_d2iz
__aeabi_dcmpeq
pwmEnableChannel
speedGetRpm
chThdSleep
strcmp
atol
