ARM GAS  C:\Users\DNIEL~1\AppData\Local\Temp\ccuHRGJz.s 			page 1


   1              		.syntax unified
   2              		.cpu cortex-m4
   3              		.fpu softvfp
   4              		.eabi_attribute 20, 1
   5              		.eabi_attribute 21, 1
   6              		.eabi_attribute 23, 3
   7              		.eabi_attribute 24, 1
   8              		.eabi_attribute 25, 1
   9              		.eabi_attribute 26, 1
  10              		.eabi_attribute 30, 2
  11              		.eabi_attribute 34, 1
  12              		.eabi_attribute 18, 4
  13              		.thumb
  14              		.file	"dsp.c"
  15              		.text
  16              	.Ltext0:
  17              		.cfi_sections	.debug_frame
  18              		.section	.text.chprintf,"ax",%progbits
  19              		.align	2
  20              		.p2align 4,,15
  21              		.thumb
  22              		.thumb_func
  23              		.type	chprintf, %function
  24              	chprintf:
  25              	.LFB118:
  26              		.file 1 "../../../ChibiOS/os/various/chprintf.h"
  27              		.loc 1 69 0
  28              		.cfi_startproc
  29              		@ args = 4, pretend = 12, frame = 8
  30              		@ frame_needed = 0, uses_anonymous_args = 1
  31              	.LVL0:
  32 0000 0EB4     		push	{r1, r2, r3}
  33              	.LCFI0:
  34              		.cfi_def_cfa_offset 12
  35              		.cfi_offset 1, -12
  36              		.cfi_offset 2, -8
  37              		.cfi_offset 3, -4
  38 0002 00B5     		push	{lr}
  39              	.LCFI1:
  40              		.cfi_def_cfa_offset 16
  41              		.cfi_offset 14, -16
  42 0004 82B0     		sub	sp, sp, #8
  43              	.LCFI2:
  44              		.cfi_def_cfa_offset 24
  45              		.loc 1 69 0
  46 0006 03AB     		add	r3, sp, #12
  47 0008 53F8041B 		ldr	r1, [r3], #4
  48              		.loc 1 73 0
  49 000c 1A46     		mov	r2, r3
  50              		.loc 1 72 0
  51 000e 0193     		str	r3, [sp, #4]
  52              		.loc 1 73 0
  53 0010 FFF7FEFF 		bl	chvprintf
  54              	.LVL1:
  55              		.loc 1 75 0
  56 0014 02B0     		add	sp, sp, #8
  57 0016 5DF804EB 		pop	{lr}
ARM GAS  C:\Users\DNIEL~1\AppData\Local\Temp\ccuHRGJz.s 			page 2


  58 001a 03B0     		add	sp, sp, #12
  59 001c 7047     		bx	lr
  60              		.cfi_endproc
  61              	.LFE118:
  62              		.size	chprintf, .-chprintf
  63 001e 00BF     		.section	.text.dsp_LoadTop,"ax",%progbits
  64              		.align	2
  65              		.p2align 4,,15
  66              		.global	dsp_LoadTop
  67              		.thumb
  68              		.thumb_func
  69              		.type	dsp_LoadTop, %function
  70              	dsp_LoadTop:
  71              	.LFB119:
  72              		.file 2 "src/dsp.c"
  73              		.loc 2 54 0
  74              		.cfi_startproc
  75              		@ args = 0, pretend = 0, frame = 0
  76              		@ frame_needed = 0, uses_anonymous_args = 0
  77 0000 08B5     		push	{r3, lr}
  78              	.LCFI3:
  79              		.cfi_def_cfa_offset 8
  80              		.cfi_offset 3, -8
  81              		.cfi_offset 14, -4
  82              		.loc 2 55 0
  83 0002 0020     		movs	r0, #0
  84 0004 2321     		movs	r1, #35
  85 0006 FFF7FEFF 		bl	media_SetSector
  86              	.LVL2:
  87              		.loc 2 56 0
  88 000a 0122     		movs	r2, #1
  89 000c 0721     		movs	r1, #7
  90 000e 40F2B110 		movw	r0, #433
  91 0012 FFF7FEFF 		bl	media_VideoFrame
  92              	.LVL3:
  93              		.loc 2 58 0
  94 0016 0020     		movs	r0, #0
  95 0018 41F6B611 		movw	r1, #6582
  96 001c FFF7FEFF 		bl	media_SetSector
  97              	.LVL4:
  98              		.loc 2 59 0
  99 0020 0122     		movs	r2, #1
 100 0022 3D21     		movs	r1, #61
 101 0024 40F2B110 		movw	r0, #433
 102 0028 FFF7FEFF 		bl	media_VideoFrame
 103              	.LVL5:
 104              		.loc 2 61 0
 105 002c 0020     		movs	r0, #0
 106 002e 3D21     		movs	r1, #61
 107 0030 FFF7FEFF 		bl	media_SetSector
 108              	.LVL6:
 109              		.loc 2 62 0
 110 0034 0122     		movs	r2, #1
 111 0036 9A21     		movs	r1, #154
 112 0038 40F2B110 		movw	r0, #433
 113 003c FFF7FEFF 		bl	media_VideoFrame
 114              	.LVL7:
ARM GAS  C:\Users\DNIEL~1\AppData\Local\Temp\ccuHRGJz.s 			page 3


 115              		.loc 2 64 0
 116 0040 0020     		movs	r0, #0
 117 0042 2E21     		movs	r1, #46
 118 0044 FFF7FEFF 		bl	media_SetSector
 119              	.LVL8:
 120              		.loc 2 65 0
 121 0048 0122     		movs	r2, #1
 122 004a E621     		movs	r1, #230
 123 004c 40F2B110 		movw	r0, #433
 124 0050 FFF7FEFF 		bl	media_VideoFrame
 125              	.LVL9:
 126              		.loc 2 67 0
 127 0054 0020     		movs	r0, #0
 128 0056 41F6C911 		movw	r1, #6601
 129 005a FFF7FEFF 		bl	media_SetSector
 130              	.LVL10:
 131              		.loc 2 68 0
 132 005e 0122     		movs	r2, #1
 133 0060 1A21     		movs	r1, #26
 134 0062 40F27710 		movw	r0, #375
 135 0066 FFF7FEFF 		bl	media_VideoFrame
 136              	.LVL11:
 137              		.loc 2 70 0
 138 006a 0020     		movs	r0, #0
 139 006c 0B21     		movs	r1, #11
 140 006e FFF7FEFF 		bl	media_SetSector
 141              	.LVL12:
 142              		.loc 2 71 0
 143 0072 0122     		movs	r2, #1
 144 0074 40F27710 		movw	r0, #375
 145 0078 5021     		movs	r1, #80
 146 007a FFF7FEFF 		bl	media_VideoFrame
 147              	.LVL13:
 148              		.loc 2 73 0
 149 007e 0020     		movs	r0, #0
 150 0080 4821     		movs	r1, #72
 151 0082 FFF7FEFF 		bl	media_SetSector
 152              	.LVL14:
 153              		.loc 2 74 0
 154 0086 0122     		movs	r2, #1
 155 0088 AA21     		movs	r1, #170
 156 008a 40F27710 		movw	r0, #375
 157 008e FFF7FEFF 		bl	media_VideoFrame
 158              	.LVL15:
 159              		.loc 2 76 0
 160 0092 0020     		movs	r0, #0
 161 0094 0146     		mov	r1, r0
 162 0096 FFF7FEFF 		bl	media_SetSector
 163              	.LVL16:
 164              		.loc 2 77 0
 165 009a 0122     		movs	r2, #1
 166 009c DB21     		movs	r1, #219
 167 009e 40F27710 		movw	r0, #375
 168 00a2 FFF7FEFF 		bl	media_VideoFrame
 169              	.LVL17:
 170              		.loc 2 79 0
 171 00a6 0020     		movs	r0, #0
ARM GAS  C:\Users\DNIEL~1\AppData\Local\Temp\ccuHRGJz.s 			page 4


 172 00a8 4FF4C851 		mov	r1, #6400
 173 00ac FFF7FEFF 		bl	media_SetSector
 174              	.LVL18:
 175              		.loc 2 80 0
 176 00b0 0421     		movs	r1, #4
 177 00b2 4FF4AA70 		mov	r0, #340
 178 00b6 FFF7FEFF 		bl	media_Image
 179              	.LVL19:
 180              		.loc 2 82 0
 181 00ba 0020     		movs	r0, #0
 182 00bc 41F6C111 		movw	r1, #6593
 183 00c0 FFF7FEFF 		bl	media_SetSector
 184              	.LVL20:
 185              		.loc 2 83 0
 186 00c4 4FF4AA70 		mov	r0, #340
 187 00c8 A621     		movs	r1, #166
 188              		.loc 2 86 0
 189 00ca BDE80840 		pop	{r3, lr}
 190              		.loc 2 83 0
 191 00ce FFF7FEBF 		b	media_Image
 192              	.LVL21:
 193              		.cfi_endproc
 194              	.LFE119:
 195              		.size	dsp_LoadTop, .-dsp_LoadTop
 196 00d2 00BFAFF3 		.section	.text.dsp_LoadMidle,"ax",%progbits
 196      0080AFF3 
 196      0080AFF3 
 196      0080
 197              		.align	2
 198              		.p2align 4,,15
 199              		.global	dsp_LoadMidle
 200              		.thumb
 201              		.thumb_func
 202              		.type	dsp_LoadMidle, %function
 203              	dsp_LoadMidle:
 204              	.LFB120:
 205              		.loc 2 87 0
 206              		.cfi_startproc
 207              		@ args = 0, pretend = 0, frame = 0
 208              		@ frame_needed = 0, uses_anonymous_args = 0
 209 0000 08B5     		push	{r3, lr}
 210              	.LCFI4:
 211              		.cfi_def_cfa_offset 8
 212              		.cfi_offset 3, -8
 213              		.cfi_offset 14, -4
 214              		.loc 2 89 0
 215 0002 0020     		movs	r0, #0
 216 0004 5321     		movs	r1, #83
 217 0006 FFF7FEFF 		bl	media_SetSector
 218              	.LVL22:
 219              		.loc 2 90 0
 220 000a 0122     		movs	r2, #1
 221 000c 9420     		movs	r0, #148
 222 000e 1521     		movs	r1, #21
 223 0010 FFF7FEFF 		bl	media_VideoFrame
 224              	.LVL23:
 225              		.loc 2 92 0
ARM GAS  C:\Users\DNIEL~1\AppData\Local\Temp\ccuHRGJz.s 			page 5


 226 0014 0020     		movs	r0, #0
 227 0016 3921     		movs	r1, #57
 228 0018 FFF7FEFF 		bl	media_SetSector
 229              	.LVL24:
 230              		.loc 2 93 0
 231 001c A820     		movs	r0, #168
 232 001e CC21     		movs	r1, #204
 233 0020 FFF7FEFF 		bl	media_Image
 234              	.LVL25:
 235              		.loc 2 95 0
 236 0024 0020     		movs	r0, #0
 237 0026 41F60611 		movw	r1, #6406
 238 002a FFF7FEFF 		bl	media_SetSector
 239              	.LVL26:
 240              		.loc 2 96 0
 241 002e 0122     		movs	r2, #1
 242 0030 F421     		movs	r1, #244
 243 0032 40F23B10 		movw	r0, #315
 244 0036 FFF7FEFF 		bl	media_VideoFrame
 245              	.LVL27:
 246              		.loc 2 97 0
 247 003a 0020     		movs	r0, #0
 248 003c 41F60611 		movw	r1, #6406
 249 0040 FFF7FEFF 		bl	media_SetSector
 250              	.LVL28:
 251              		.loc 2 98 0
 252 0044 0122     		movs	r2, #1
 253 0046 2121     		movs	r1, #33
 254 0048 40F23B10 		movw	r0, #315
 255 004c FFF7FEFF 		bl	media_VideoFrame
 256              	.LVL29:
 257              		.loc 2 100 0
 258 0050 0020     		movs	r0, #0
 259 0052 41F62911 		movw	r1, #6441
 260 0056 FFF7FEFF 		bl	media_SetSector
 261              	.LVL30:
 262              		.loc 2 101 0
 263 005a BA20     		movs	r0, #186
 264 005c 9B21     		movs	r1, #155
 265 005e 0122     		movs	r2, #1
 266              		.loc 2 103 0
 267 0060 BDE80840 		pop	{r3, lr}
 268              		.loc 2 101 0
 269 0064 FFF7FEBF 		b	media_VideoFrame
 270              	.LVL31:
 271              		.cfi_endproc
 272              	.LFE120:
 273              		.size	dsp_LoadMidle, .-dsp_LoadMidle
 274 0068 AFF30080 		.section	.text.dspInit,"ax",%progbits
 274      AFF30080 
 275              		.align	2
 276              		.p2align 4,,15
 277              		.global	dspInit
 278              		.thumb
 279              		.thumb_func
 280              		.type	dspInit, %function
 281              	dspInit:
ARM GAS  C:\Users\DNIEL~1\AppData\Local\Temp\ccuHRGJz.s 			page 6


 282              	.LFB121:
 283              		.loc 2 104 0
 284              		.cfi_startproc
 285              		@ args = 0, pretend = 0, frame = 0
 286              		@ frame_needed = 0, uses_anonymous_args = 0
 287 0000 08B5     		push	{r3, lr}
 288              	.LCFI5:
 289              		.cfi_def_cfa_offset 8
 290              		.cfi_offset 3, -8
 291              		.cfi_offset 14, -4
 292              		.loc 2 106 0
 293 0002 FFF7FEFF 		bl	gfx_Cls
 294              	.LVL32:
 295              		.loc 2 107 0
 296 0006 FFF7FEFF 		bl	file_Mount
 297              	.LVL33:
 298              		.loc 2 108 0
 299 000a FFF7FEFF 		bl	dsp_LoadTop
 300              	.LVL34:
 301              		.loc 2 114 0
 302 000e BDE80840 		pop	{r3, lr}
 303              		.loc 2 109 0
 304 0012 FFF7FEBF 		b	dsp_LoadMidle
 305              	.LVL35:
 306              		.cfi_endproc
 307              	.LFE121:
 308              		.size	dspInit, .-dspInit
 309 0016 00BFAFF3 		.section	.text.dspCalc,"ax",%progbits
 309      0080AFF3 
 309      0080
 310              		.align	2
 311              		.p2align 4,,15
 312              		.global	dspCalc
 313              		.thumb
 314              		.thumb_func
 315              		.type	dspCalc, %function
 316              	dspCalc:
 317              	.LFB122:
 318              		.loc 2 116 0
 319              		.cfi_startproc
 320              		@ args = 0, pretend = 0, frame = 0
 321              		@ frame_needed = 0, uses_anonymous_args = 0
 322              		@ link register save eliminated.
 323 0000 7047     		bx	lr
 324              		.cfi_endproc
 325              	.LFE122:
 326              		.size	dspCalc, .-dspCalc
 327 0002 00BFAFF3 		.section	.text.cmdfrappans_dspmessages,"ax",%progbits
 327      0080AFF3 
 327      0080AFF3 
 327      0080
 328              		.align	2
 329              		.p2align 4,,15
 330              		.global	cmdfrappans_dspmessages
 331              		.thumb
 332              		.thumb_func
 333              		.type	cmdfrappans_dspmessages, %function
ARM GAS  C:\Users\DNIEL~1\AppData\Local\Temp\ccuHRGJz.s 			page 7


 334              	cmdfrappans_dspmessages:
 335              	.LFB123:
 336              		.loc 2 139 0
 337              		.cfi_startproc
 338              		@ args = 0, pretend = 0, frame = 0
 339              		@ frame_needed = 0, uses_anonymous_args = 0
 340              	.LVL36:
 341              		.loc 2 139 0
 342 0000 70B5     		push	{r4, r5, r6, lr}
 343              	.LCFI6:
 344              		.cfi_def_cfa_offset 16
 345              		.cfi_offset 4, -16
 346              		.cfi_offset 5, -12
 347              		.cfi_offset 6, -8
 348              		.cfi_offset 14, -4
 349              		.loc 2 139 0
 350 0002 0446     		mov	r4, r0
 351 0004 0D46     		mov	r5, r1
 352              		.loc 2 146 0
 353 0006 3849     		ldr	r1, .L16
 354              	.LVL37:
 355              		.loc 2 139 0
 356 0008 1646     		mov	r6, r2
 357              		.loc 2 146 0
 358 000a FFF7FEFF 		bl	chprintf
 359              	.LVL38:
 360              		.loc 2 147 0
 361 000e 2046     		mov	r0, r4
 362 0010 3649     		ldr	r1, .L16+4
 363 0012 FFF7FEFF 		bl	chprintf
 364              	.LVL39:
 365              		.loc 2 148 0
 366 0016 2368     		ldr	r3, [r4, #0]
 367 0018 0021     		movs	r1, #0
 368 001a 2046     		mov	r0, r4
 369 001c 5A69     		ldr	r2, [r3, #20]
 370 001e 9047     		blx	r2
 371              	.LVL40:
 372 0020 0130     		adds	r0, r0, #1
 373 0022 11D0     		beq	.L12
 374              	.LVL41:
 375              	.L7:
 376              	.LDL1:
 377              		.loc 2 189 0
 378 0024 2046     		mov	r0, r4
 379 0026 3249     		ldr	r1, .L16+8
 380 0028 FFF7FEFF 		bl	chprintf
 381              	.LVL42:
 382              		.loc 2 190 0
 383 002c 2046     		mov	r0, r4
 384 002e 3149     		ldr	r1, .L16+12
 385 0030 FFF7FEFF 		bl	chprintf
 386              	.LVL43:
 387              		.loc 2 191 0
 388 0034 2046     		mov	r0, r4
 389 0036 3049     		ldr	r1, .L16+16
 390 0038 FFF7FEFF 		bl	chprintf
ARM GAS  C:\Users\DNIEL~1\AppData\Local\Temp\ccuHRGJz.s 			page 8


 391              	.LVL44:
 392              		.loc 2 192 0
 393 003c 2F49     		ldr	r1, .L16+20
 394 003e 2046     		mov	r0, r4
 395              		.loc 2 196 0
 396 0040 BDE87040 		pop	{r4, r5, r6, lr}
 397              		.loc 2 192 0
 398 0044 FFF7FEBF 		b	chprintf
 399              	.LVL45:
 400              	.L12:
 401              	.LBB2:
 402              		.loc 2 149 0
 403 0048 0022     		movs	r2, #0
 404 004a 2046     		mov	r0, r4
 405 004c 2C49     		ldr	r1, .L16+24
 406 004e 1346     		mov	r3, r2
 407 0050 FFF7FEFF 		bl	chprintf
 408              	.LVL46:
 409              		.loc 2 152 0
 410 0054 012D     		cmp	r5, #1
 411 0056 E5D1     		bne	.L7
 412              		.loc 2 152 0 is_stmt 0 discriminator 1
 413 0058 3568     		ldr	r5, [r6, #0]
 414              	.LVL47:
 415 005a 2A49     		ldr	r1, .L16+28
 416 005c 2846     		mov	r0, r5
 417 005e FFF7FEFF 		bl	strcmp
 418              	.LVL48:
 419 0062 0028     		cmp	r0, #0
 420 0064 1DD0     		beq	.L13
 421              		.loc 2 159 0 is_stmt 1 discriminator 1
 422 0066 2846     		mov	r0, r5
 423 0068 2749     		ldr	r1, .L16+32
 424 006a FFF7FEFF 		bl	strcmp
 425              	.LVL49:
 426 006e 0646     		mov	r6, r0
 427              	.LVL50:
 428 0070 0028     		cmp	r0, #0
 429 0072 1ED0     		beq	.L14
 430              		.loc 2 167 0 discriminator 1
 431 0074 2846     		mov	r0, r5
 432 0076 2549     		ldr	r1, .L16+36
 433 0078 FFF7FEFF 		bl	strcmp
 434              	.LVL51:
 435 007c 0646     		mov	r6, r0
 436 007e 0028     		cmp	r0, #0
 437 0080 22D0     		beq	.L15
 438              		.loc 2 176 0 discriminator 1
 439 0082 2846     		mov	r0, r5
 440 0084 2249     		ldr	r1, .L16+40
 441 0086 FFF7FEFF 		bl	strcmp
 442              	.LVL52:
 443 008a 0028     		cmp	r0, #0
 444 008c CAD1     		bne	.L7
 445              		.loc 2 178 0
 446 008e 2046     		mov	r0, r4
 447 0090 2049     		ldr	r1, .L16+44
ARM GAS  C:\Users\DNIEL~1\AppData\Local\Temp\ccuHRGJz.s 			page 9


 448 0092 FFF7FEFF 		bl	chprintf
 449              	.LVL53:
 450              		.loc 2 179 0
 451 0096 4FF47840 		mov	r0, #63488
 452              	.LBE2:
 453              		.loc 2 196 0
 454 009a BDE87040 		pop	{r4, r5, r6, lr}
 455              	.LBB3:
 456              		.loc 2 179 0
 457 009e FFF7FEBF 		b	gfx_BGcolour
 458              	.LVL54:
 459              	.L13:
 460              		.loc 2 154 0
 461 00a2 2046     		mov	r0, r4
 462 00a4 1C49     		ldr	r1, .L16+48
 463 00a6 FFF7FEFF 		bl	chprintf
 464              	.LVL55:
 465              	.LBE3:
 466              		.loc 2 196 0
 467 00aa BDE87040 		pop	{r4, r5, r6, lr}
 468              	.LBB4:
 469              		.loc 2 155 0
 470 00ae FFF7FEBF 		b	gfx_Cls
 471              	.LVL56:
 472              	.L14:
 473              		.loc 2 161 0
 474 00b2 2046     		mov	r0, r4
 475 00b4 1949     		ldr	r1, .L16+52
 476 00b6 FFF7FEFF 		bl	chprintf
 477              	.LVL57:
 478              		.loc 2 162 0
 479 00ba 3046     		mov	r0, r6
 480 00bc 41F6C111 		movw	r1, #6593
 481              	.LBE4:
 482              		.loc 2 196 0
 483 00c0 BDE87040 		pop	{r4, r5, r6, lr}
 484              	.LBB5:
 485              		.loc 2 162 0
 486 00c4 FFF7FEBF 		b	media_SetSector
 487              	.LVL58:
 488              	.L15:
 489              		.loc 2 169 0
 490 00c8 2046     		mov	r0, r4
 491 00ca 1549     		ldr	r1, .L16+56
 492 00cc FFF7FEFF 		bl	chprintf
 493              	.LVL59:
 494              		.loc 2 171 0
 495 00d0 3046     		mov	r0, r6
 496 00d2 41F6C111 		movw	r1, #6593
 497 00d6 FFF7FEFF 		bl	media_SetSector
 498              	.LVL60:
 499              		.loc 2 172 0
 500 00da 3046     		mov	r0, r6
 501 00dc 3146     		mov	r1, r6
 502              	.LBE5:
 503              		.loc 2 196 0
 504 00de BDE87040 		pop	{r4, r5, r6, lr}
ARM GAS  C:\Users\DNIEL~1\AppData\Local\Temp\ccuHRGJz.s 			page 10


 505              	.LBB6:
 506              		.loc 2 172 0
 507 00e2 FFF7FEBF 		b	media_Image
 508              	.LVL61:
 509              	.L17:
 510 00e6 00BF     		.align	2
 511              	.L16:
 512 00e8 00000000 		.word	.LC0
 513 00ec 04000000 		.word	.LC1
 514 00f0 E4000000 		.word	.LC11
 515 00f4 FC000000 		.word	.LC12
 516 00f8 10010000 		.word	.LC13
 517 00fc 28010000 		.word	.LC14
 518 0100 0C000000 		.word	.LC2
 519 0104 18000000 		.word	.LC3
 520 0108 4C000000 		.word	.LC5
 521 010c 80000000 		.word	.LC7
 522 0110 B4000000 		.word	.LC9
 523 0114 B8000000 		.word	.LC10
 524 0118 20000000 		.word	.LC4
 525 011c 54000000 		.word	.LC6
 526 0120 88000000 		.word	.LC8
 527              	.LBE6:
 528              		.cfi_endproc
 529              	.LFE123:
 530              		.size	cmdfrappans_dspmessages, .-cmdfrappans_dspmessages
 531              		.global	db2
 532              		.global	db
 533              		.global	c
 534              		.global	dsp_activ
 535              		.global	dspmessages
 536              		.global	dspstate
 537 0124 AFF30080 		.section	.bss.dspmessages,"aw",%nobits
 537      AFF30080 
 537      AFF30080 
 538              		.type	dspmessages, %object
 539              		.size	dspmessages, 1
 540              	dspmessages:
 541 0000 00       		.space	1
 542              		.section	.bss.db,"aw",%nobits
 543              		.align	2
 544              		.type	db, %object
 545              		.size	db, 4
 546              	db:
 547 0000 00000000 		.space	4
 548              		.section	.data.db2,"aw",%progbits
 549              		.align	2
 550              		.type	db2, %object
 551              		.size	db2, 4
 552              	db2:
 553 0000 0A000000 		.word	10
 554              		.section	.bss.dsp_activ,"aw",%nobits
 555              		.type	dsp_activ, %object
 556              		.size	dsp_activ, 1
 557              	dsp_activ:
 558 0000 00       		.space	1
 559              		.section	.rodata.str1.4,"aMS",%progbits,1
ARM GAS  C:\Users\DNIEL~1\AppData\Local\Temp\ccuHRGJz.s 			page 11


 560              		.align	2
 561              	.LC0:
 562 0000 1B6300   		.ascii	"\033c\000"
 563 0003 00       		.space	1
 564              	.LC1:
 565 0004 1B5B324A 		.ascii	"\033[2J\000"
 565      00
 566 0009 000000   		.space	3
 567              	.LC2:
 568 000c 1B5B2564 		.ascii	"\033[%d;%dH\000"
 568      3B256448 
 568      00
 569 0015 000000   		.space	3
 570              	.LC3:
 571 0018 436C6561 		.ascii	"Clear\000"
 571      7200
 572 001e 0000     		.space	2
 573              	.LC4:
 574 0020 2D2D2D2D 		.ascii	"-------------- dps clear --------------\015\012\000"
 574      2D2D2D2D 
 574      2D2D2D2D 
 574      2D2D2064 
 574      70732063 
 575 004a 0000     		.space	2
 576              	.LC5:
 577 004c 53656374 		.ascii	"Sector\000"
 577      6F7200
 578 0053 00       		.space	1
 579              	.LC6:
 580 0054 2D2D2D2D 		.ascii	"--------------Set sector --------------\015\012\000"
 580      2D2D2D2D 
 580      2D2D2D2D 
 580      2D2D5365 
 580      74207365 
 581 007e 0000     		.space	2
 582              	.LC7:
 583 0080 496D6167 		.ascii	"Image\000"
 583      6500
 584 0086 0000     		.space	2
 585              	.LC8:
 586 0088 2D2D2D2D 		.ascii	"-------------- media Image --------------\015\012\000"
 586      2D2D2D2D 
 586      2D2D2D2D 
 586      2D2D206D 
 586      65646961 
 587              	.LC9:
 588 00b4 426700   		.ascii	"Bg\000"
 589 00b7 00       		.space	1
 590              	.LC10:
 591 00b8 2D2D2D2D 		.ascii	"-------------- Background --------------\015\012\000"
 591      2D2D2D2D 
 591      2D2D2D2D 
 591      2D2D2042 
 591      61636B67 
 592 00e3 00       		.space	1
 593              	.LC11:
 594 00e4 55736167 		.ascii	"Usage: start right\015\012\000"
ARM GAS  C:\Users\DNIEL~1\AppData\Local\Temp\ccuHRGJz.s 			page 12


 594      653A2073 
 594      74617274 
 594      20726967 
 594      68740D0A 
 595 00f9 000000   		.space	3
 596              	.LC12:
 597 00fc 20202020 		.ascii	"       start left\015\012\000"
 597      20202073 
 597      74617274 
 597      206C6566 
 597      740D0A00 
 598              	.LC13:
 599 0110 20202020 		.ascii	"       start warning\015\012\000"
 599      20202073 
 599      74617274 
 599      20776172 
 599      6E696E67 
 600 0127 00       		.space	1
 601              	.LC14:
 602 0128 20202020 		.ascii	"       stop\015\012\000"
 602      20202073 
 602      746F700D 
 602      0A00
 603 0136 0000     		.section	.bss.c,"aw",%nobits
 604              		.type	c, %object
 605              		.size	c, 1
 606              	c:
 607 0000 00       		.space	1
 608              		.section	.bss.dspstate,"aw",%nobits
 609              		.type	dspstate, %object
 610              		.size	dspstate, 1
 611              	dspstate:
 612 0000 00       		.space	1
 613              		.text
 614              	.Letext0:
 615              		.file 3 "c:\\chibistudio\\tools\\gnu tools arm embedded\\4.7 2014q2\\bin\\../lib/gcc/arm-none-eabi
 616              		.file 4 "c:\\chibistudio\\tools\\gnu tools arm embedded\\4.7 2014q2\\bin\\../lib/gcc/arm-none-eabi
 617              		.file 5 "../../../ChibiOS/os/ports/GCC/ARMCMx/chtypes.h"
 618              		.file 6 "../../../ChibiOS/os/kernel/include/chstreams.h"
 619              		.file 7 "../../../ChibiOS/os/hal/include/io_channel.h"
 620              		.file 8 "c:\\chibistudio\\tools\\gnu tools arm embedded\\4.7 2014q2\\bin\\../lib/gcc/arm-none-eabi
 621              		.file 9 "<built-in>"
 622              		.file 10 "../../../ChibiOS/os/ports/common/ARMCMx/CMSIS/include/core_cm4.h"
 623              		.file 11 "include/gfx.h"
 624              		.section	.debug_info,"",%progbits
 625              	.Ldebug_info0:
 626 0000 F60B0000 		.4byte	0xbf6
 627 0004 0200     		.2byte	0x2
 628 0006 00000000 		.4byte	.Ldebug_abbrev0
 629 000a 04       		.byte	0x4
 630 000b 01       		.uleb128 0x1
 631 000c 4B000000 		.4byte	.LASF70
 632 0010 01       		.byte	0x1
 633 0011 86010000 		.4byte	.LASF71
 634 0015 94000000 		.4byte	.LASF72
 635 0019 30000000 		.4byte	.Ldebug_ranges0+0x30
 636 001d 00000000 		.4byte	0
ARM GAS  C:\Users\DNIEL~1\AppData\Local\Temp\ccuHRGJz.s 			page 13


 637 0021 00000000 		.4byte	0
 638 0025 00000000 		.4byte	.Ldebug_line0
 639 0029 02       		.uleb128 0x2
 640 002a 04       		.byte	0x4
 641 002b 05       		.byte	0x5
 642 002c 696E7400 		.ascii	"int\000"
 643 0030 03       		.uleb128 0x3
 644 0031 32000000 		.4byte	.LASF2
 645 0035 03       		.byte	0x3
 646 0036 D5       		.byte	0xd5
 647 0037 3B000000 		.4byte	0x3b
 648 003b 04       		.uleb128 0x4
 649 003c 04       		.byte	0x4
 650 003d 07       		.byte	0x7
 651 003e 05020000 		.4byte	.LASF0
 652 0042 04       		.uleb128 0x4
 653 0043 01       		.byte	0x1
 654 0044 06       		.byte	0x6
 655 0045 D2010000 		.4byte	.LASF1
 656 0049 03       		.uleb128 0x3
 657 004a 04010000 		.4byte	.LASF3
 658 004e 04       		.byte	0x4
 659 004f 2A       		.byte	0x2a
 660 0050 54000000 		.4byte	0x54
 661 0054 04       		.uleb128 0x4
 662 0055 01       		.byte	0x1
 663 0056 08       		.byte	0x8
 664 0057 BF010000 		.4byte	.LASF4
 665 005b 04       		.uleb128 0x4
 666 005c 02       		.byte	0x2
 667 005d 05       		.byte	0x5
 668 005e 28000000 		.4byte	.LASF5
 669 0062 04       		.uleb128 0x4
 670 0063 02       		.byte	0x2
 671 0064 07       		.byte	0x7
 672 0065 3E020000 		.4byte	.LASF6
 673 0069 03       		.uleb128 0x3
 674 006a 89020000 		.4byte	.LASF7
 675 006e 04       		.byte	0x4
 676 006f 4F       		.byte	0x4f
 677 0070 74000000 		.4byte	0x74
 678 0074 04       		.uleb128 0x4
 679 0075 04       		.byte	0x4
 680 0076 05       		.byte	0x5
 681 0077 6E010000 		.4byte	.LASF8
 682 007b 03       		.uleb128 0x3
 683 007c 0C010000 		.4byte	.LASF9
 684 0080 04       		.byte	0x4
 685 0081 50       		.byte	0x50
 686 0082 86000000 		.4byte	0x86
 687 0086 04       		.uleb128 0x4
 688 0087 04       		.byte	0x4
 689 0088 07       		.byte	0x7
 690 0089 DA020000 		.4byte	.LASF10
 691 008d 04       		.uleb128 0x4
 692 008e 08       		.byte	0x8
 693 008f 05       		.byte	0x5
ARM GAS  C:\Users\DNIEL~1\AppData\Local\Temp\ccuHRGJz.s 			page 14


 694 0090 4B010000 		.4byte	.LASF11
 695 0094 04       		.uleb128 0x4
 696 0095 08       		.byte	0x8
 697 0096 07       		.byte	0x7
 698 0097 DE010000 		.4byte	.LASF12
 699 009b 03       		.uleb128 0x3
 700 009c A1030000 		.4byte	.LASF13
 701 00a0 05       		.byte	0x5
 702 00a1 2B       		.byte	0x2b
 703 00a2 A6000000 		.4byte	0xa6
 704 00a6 04       		.uleb128 0x4
 705 00a7 01       		.byte	0x1
 706 00a8 02       		.byte	0x2
 707 00a9 BB020000 		.4byte	.LASF14
 708 00ad 03       		.uleb128 0x3
 709 00ae 9B030000 		.4byte	.LASF15
 710 00b2 05       		.byte	0x5
 711 00b3 31       		.byte	0x31
 712 00b4 69000000 		.4byte	0x69
 713 00b8 03       		.uleb128 0x3
 714 00b9 66020000 		.4byte	.LASF16
 715 00bd 05       		.byte	0x5
 716 00be 35       		.byte	0x35
 717 00bf 7B000000 		.4byte	0x7b
 718 00c3 05       		.uleb128 0x5
 719 00c4 04       		.byte	0x4
 720 00c5 04       		.uleb128 0x4
 721 00c6 04       		.byte	0x4
 722 00c7 07       		.byte	0x7
 723 00c8 42000000 		.4byte	.LASF17
 724 00cc 06       		.uleb128 0x6
 725 00cd 04       		.byte	0x4
 726 00ce D2000000 		.4byte	0xd2
 727 00d2 07       		.uleb128 0x7
 728 00d3 D7000000 		.4byte	0xd7
 729 00d7 04       		.uleb128 0x4
 730 00d8 01       		.byte	0x1
 731 00d9 08       		.byte	0x8
 732 00da 76020000 		.4byte	.LASF18
 733 00de 06       		.uleb128 0x6
 734 00df 04       		.byte	0x4
 735 00e0 E4000000 		.4byte	0xe4
 736 00e4 08       		.uleb128 0x8
 737 00e5 01       		.byte	0x1
 738 00e6 AD000000 		.4byte	0xad
 739 00ea F4000000 		.4byte	0xf4
 740 00ee 09       		.uleb128 0x9
 741 00ef C3000000 		.4byte	0xc3
 742 00f3 00       		.byte	0
 743 00f4 06       		.uleb128 0x6
 744 00f5 04       		.byte	0x4
 745 00f6 49000000 		.4byte	0x49
 746 00fa 0A       		.uleb128 0xa
 747 00fb B1030000 		.4byte	.LASF22
 748 00ff 10       		.byte	0x10
 749 0100 06       		.byte	0x6
 750 0101 48       		.byte	0x48
ARM GAS  C:\Users\DNIEL~1\AppData\Local\Temp\ccuHRGJz.s 			page 15


 751 0102 3F010000 		.4byte	0x13f
 752 0106 0B       		.uleb128 0xb
 753 0107 10000000 		.4byte	.LASF19
 754 010b 06       		.byte	0x6
 755 010c 49       		.byte	0x49
 756 010d 64010000 		.4byte	0x164
 757 0111 02       		.byte	0x2
 758 0112 23       		.byte	0x23
 759 0113 00       		.uleb128 0
 760 0114 0B       		.uleb128 0xb
 761 0115 3A010000 		.4byte	.LASF20
 762 0119 06       		.byte	0x6
 763 011a 49       		.byte	0x49
 764 011b 84010000 		.4byte	0x184
 765 011f 02       		.byte	0x2
 766 0120 23       		.byte	0x23
 767 0121 04       		.uleb128 0x4
 768 0122 0C       		.uleb128 0xc
 769 0123 70757400 		.ascii	"put\000"
 770 0127 06       		.byte	0x6
 771 0128 49       		.byte	0x49
 772 0129 9F010000 		.4byte	0x19f
 773 012d 02       		.byte	0x2
 774 012e 23       		.byte	0x23
 775 012f 08       		.uleb128 0x8
 776 0130 0C       		.uleb128 0xc
 777 0131 67657400 		.ascii	"get\000"
 778 0135 06       		.byte	0x6
 779 0136 49       		.byte	0x49
 780 0137 DE000000 		.4byte	0xde
 781 013b 02       		.byte	0x2
 782 013c 23       		.byte	0x23
 783 013d 0C       		.uleb128 0xc
 784 013e 00       		.byte	0
 785 013f 08       		.uleb128 0x8
 786 0140 01       		.byte	0x1
 787 0141 30000000 		.4byte	0x30
 788 0145 59010000 		.4byte	0x159
 789 0149 09       		.uleb128 0x9
 790 014a C3000000 		.4byte	0xc3
 791 014e 09       		.uleb128 0x9
 792 014f 59010000 		.4byte	0x159
 793 0153 09       		.uleb128 0x9
 794 0154 30000000 		.4byte	0x30
 795 0158 00       		.byte	0
 796 0159 06       		.uleb128 0x6
 797 015a 04       		.byte	0x4
 798 015b 5F010000 		.4byte	0x15f
 799 015f 07       		.uleb128 0x7
 800 0160 49000000 		.4byte	0x49
 801 0164 06       		.uleb128 0x6
 802 0165 04       		.byte	0x4
 803 0166 3F010000 		.4byte	0x13f
 804 016a 08       		.uleb128 0x8
 805 016b 01       		.byte	0x1
 806 016c 30000000 		.4byte	0x30
 807 0170 84010000 		.4byte	0x184
ARM GAS  C:\Users\DNIEL~1\AppData\Local\Temp\ccuHRGJz.s 			page 16


 808 0174 09       		.uleb128 0x9
 809 0175 C3000000 		.4byte	0xc3
 810 0179 09       		.uleb128 0x9
 811 017a F4000000 		.4byte	0xf4
 812 017e 09       		.uleb128 0x9
 813 017f 30000000 		.4byte	0x30
 814 0183 00       		.byte	0
 815 0184 06       		.uleb128 0x6
 816 0185 04       		.byte	0x4
 817 0186 6A010000 		.4byte	0x16a
 818 018a 08       		.uleb128 0x8
 819 018b 01       		.byte	0x1
 820 018c AD000000 		.4byte	0xad
 821 0190 9F010000 		.4byte	0x19f
 822 0194 09       		.uleb128 0x9
 823 0195 C3000000 		.4byte	0xc3
 824 0199 09       		.uleb128 0x9
 825 019a 49000000 		.4byte	0x49
 826 019e 00       		.byte	0
 827 019f 06       		.uleb128 0x6
 828 01a0 04       		.byte	0x4
 829 01a1 8A010000 		.4byte	0x18a
 830 01a5 0D       		.uleb128 0xd
 831 01a6 04       		.byte	0x4
 832 01a7 06       		.byte	0x6
 833 01a8 51       		.byte	0x51
 834 01a9 BC010000 		.4byte	0x1bc
 835 01ad 0C       		.uleb128 0xc
 836 01ae 766D7400 		.ascii	"vmt\000"
 837 01b2 06       		.byte	0x6
 838 01b3 53       		.byte	0x53
 839 01b4 BC010000 		.4byte	0x1bc
 840 01b8 02       		.byte	0x2
 841 01b9 23       		.byte	0x23
 842 01ba 00       		.uleb128 0
 843 01bb 00       		.byte	0
 844 01bc 06       		.uleb128 0x6
 845 01bd 04       		.byte	0x4
 846 01be C2010000 		.4byte	0x1c2
 847 01c2 07       		.uleb128 0x7
 848 01c3 FA000000 		.4byte	0xfa
 849 01c7 03       		.uleb128 0x3
 850 01c8 BF000000 		.4byte	.LASF21
 851 01cc 06       		.byte	0x6
 852 01cd 55       		.byte	0x55
 853 01ce A5010000 		.4byte	0x1a5
 854 01d2 0E       		.uleb128 0xe
 855 01d3 69000000 		.4byte	0x69
 856 01d7 0A       		.uleb128 0xa
 857 01d8 15010000 		.4byte	.LASF23
 858 01dc 20       		.byte	0x20
 859 01dd 07       		.byte	0x7
 860 01de 4E       		.byte	0x4e
 861 01df 54020000 		.4byte	0x254
 862 01e3 0B       		.uleb128 0xb
 863 01e4 10000000 		.4byte	.LASF19
 864 01e8 07       		.byte	0x7
ARM GAS  C:\Users\DNIEL~1\AppData\Local\Temp\ccuHRGJz.s 			page 17


 865 01e9 4F       		.byte	0x4f
 866 01ea 64010000 		.4byte	0x164
 867 01ee 02       		.byte	0x2
 868 01ef 23       		.byte	0x23
 869 01f0 00       		.uleb128 0
 870 01f1 0B       		.uleb128 0xb
 871 01f2 3A010000 		.4byte	.LASF20
 872 01f6 07       		.byte	0x7
 873 01f7 4F       		.byte	0x4f
 874 01f8 84010000 		.4byte	0x184
 875 01fc 02       		.byte	0x2
 876 01fd 23       		.byte	0x23
 877 01fe 04       		.uleb128 0x4
 878 01ff 0C       		.uleb128 0xc
 879 0200 70757400 		.ascii	"put\000"
 880 0204 07       		.byte	0x7
 881 0205 4F       		.byte	0x4f
 882 0206 9F010000 		.4byte	0x19f
 883 020a 02       		.byte	0x2
 884 020b 23       		.byte	0x23
 885 020c 08       		.uleb128 0x8
 886 020d 0C       		.uleb128 0xc
 887 020e 67657400 		.ascii	"get\000"
 888 0212 07       		.byte	0x7
 889 0213 4F       		.byte	0x4f
 890 0214 DE000000 		.4byte	0xde
 891 0218 02       		.byte	0x2
 892 0219 23       		.byte	0x23
 893 021a 0C       		.uleb128 0xc
 894 021b 0B       		.uleb128 0xb
 895 021c 2D020000 		.4byte	.LASF24
 896 0220 07       		.byte	0x7
 897 0221 4F       		.byte	0x4f
 898 0222 6E020000 		.4byte	0x26e
 899 0226 02       		.byte	0x2
 900 0227 23       		.byte	0x23
 901 0228 10       		.uleb128 0x10
 902 0229 0B       		.uleb128 0xb
 903 022a 81010000 		.4byte	.LASF25
 904 022e 07       		.byte	0x7
 905 022f 4F       		.byte	0x4f
 906 0230 89020000 		.4byte	0x289
 907 0234 02       		.byte	0x2
 908 0235 23       		.byte	0x23
 909 0236 14       		.uleb128 0x14
 910 0237 0B       		.uleb128 0xb
 911 0238 E8000000 		.4byte	.LASF26
 912 023c 07       		.byte	0x7
 913 023d 4F       		.byte	0x4f
 914 023e AE020000 		.4byte	0x2ae
 915 0242 02       		.byte	0x2
 916 0243 23       		.byte	0x23
 917 0244 18       		.uleb128 0x18
 918 0245 0B       		.uleb128 0xb
 919 0246 70020000 		.4byte	.LASF27
 920 024a 07       		.byte	0x7
 921 024b 4F       		.byte	0x4f
ARM GAS  C:\Users\DNIEL~1\AppData\Local\Temp\ccuHRGJz.s 			page 18


 922 024c D3020000 		.4byte	0x2d3
 923 0250 02       		.byte	0x2
 924 0251 23       		.byte	0x23
 925 0252 1C       		.uleb128 0x1c
 926 0253 00       		.byte	0
 927 0254 08       		.uleb128 0x8
 928 0255 01       		.byte	0x1
 929 0256 AD000000 		.4byte	0xad
 930 025a 6E020000 		.4byte	0x26e
 931 025e 09       		.uleb128 0x9
 932 025f C3000000 		.4byte	0xc3
 933 0263 09       		.uleb128 0x9
 934 0264 49000000 		.4byte	0x49
 935 0268 09       		.uleb128 0x9
 936 0269 B8000000 		.4byte	0xb8
 937 026d 00       		.byte	0
 938 026e 06       		.uleb128 0x6
 939 026f 04       		.byte	0x4
 940 0270 54020000 		.4byte	0x254
 941 0274 08       		.uleb128 0x8
 942 0275 01       		.byte	0x1
 943 0276 AD000000 		.4byte	0xad
 944 027a 89020000 		.4byte	0x289
 945 027e 09       		.uleb128 0x9
 946 027f C3000000 		.4byte	0xc3
 947 0283 09       		.uleb128 0x9
 948 0284 B8000000 		.4byte	0xb8
 949 0288 00       		.byte	0
 950 0289 06       		.uleb128 0x6
 951 028a 04       		.byte	0x4
 952 028b 74020000 		.4byte	0x274
 953 028f 08       		.uleb128 0x8
 954 0290 01       		.byte	0x1
 955 0291 30000000 		.4byte	0x30
 956 0295 AE020000 		.4byte	0x2ae
 957 0299 09       		.uleb128 0x9
 958 029a C3000000 		.4byte	0xc3
 959 029e 09       		.uleb128 0x9
 960 029f 59010000 		.4byte	0x159
 961 02a3 09       		.uleb128 0x9
 962 02a4 30000000 		.4byte	0x30
 963 02a8 09       		.uleb128 0x9
 964 02a9 B8000000 		.4byte	0xb8
 965 02ad 00       		.byte	0
 966 02ae 06       		.uleb128 0x6
 967 02af 04       		.byte	0x4
 968 02b0 8F020000 		.4byte	0x28f
 969 02b4 08       		.uleb128 0x8
 970 02b5 01       		.byte	0x1
 971 02b6 30000000 		.4byte	0x30
 972 02ba D3020000 		.4byte	0x2d3
 973 02be 09       		.uleb128 0x9
 974 02bf C3000000 		.4byte	0xc3
 975 02c3 09       		.uleb128 0x9
 976 02c4 F4000000 		.4byte	0xf4
 977 02c8 09       		.uleb128 0x9
 978 02c9 30000000 		.4byte	0x30
ARM GAS  C:\Users\DNIEL~1\AppData\Local\Temp\ccuHRGJz.s 			page 19


 979 02cd 09       		.uleb128 0x9
 980 02ce B8000000 		.4byte	0xb8
 981 02d2 00       		.byte	0
 982 02d3 06       		.uleb128 0x6
 983 02d4 04       		.byte	0x4
 984 02d5 B4020000 		.4byte	0x2b4
 985 02d9 0D       		.uleb128 0xd
 986 02da 04       		.byte	0x4
 987 02db 07       		.byte	0x7
 988 02dc 59       		.byte	0x59
 989 02dd F0020000 		.4byte	0x2f0
 990 02e1 0C       		.uleb128 0xc
 991 02e2 766D7400 		.ascii	"vmt\000"
 992 02e6 07       		.byte	0x7
 993 02e7 5B       		.byte	0x5b
 994 02e8 F0020000 		.4byte	0x2f0
 995 02ec 02       		.byte	0x2
 996 02ed 23       		.byte	0x23
 997 02ee 00       		.uleb128 0
 998 02ef 00       		.byte	0
 999 02f0 06       		.uleb128 0x6
 1000 02f1 04       		.byte	0x4
 1001 02f2 F6020000 		.4byte	0x2f6
 1002 02f6 07       		.uleb128 0x7
 1003 02f7 D7010000 		.4byte	0x1d7
 1004 02fb 03       		.uleb128 0x3
 1005 02fc 55030000 		.4byte	.LASF28
 1006 0300 07       		.byte	0x7
 1007 0301 5D       		.byte	0x5d
 1008 0302 D9020000 		.4byte	0x2d9
 1009 0306 03       		.uleb128 0x3
 1010 0307 39030000 		.4byte	.LASF29
 1011 030b 08       		.byte	0x8
 1012 030c 28       		.byte	0x28
 1013 030d 11030000 		.4byte	0x311
 1014 0311 0A       		.uleb128 0xa
 1015 0312 64010000 		.4byte	.LASF30
 1016 0316 04       		.byte	0x4
 1017 0317 09       		.byte	0x9
 1018 0318 00       		.byte	0
 1019 0319 2B030000 		.4byte	0x32b
 1020 031d 0F       		.uleb128 0xf
 1021 031e 12020000 		.4byte	.LASF73
 1022 0322 C3000000 		.4byte	0xc3
 1023 0326 02       		.byte	0x2
 1024 0327 23       		.byte	0x23
 1025 0328 00       		.uleb128 0
 1026 0329 01       		.byte	0x1
 1027 032a 00       		.byte	0
 1028 032b 03       		.uleb128 0x3
 1029 032c E0000000 		.4byte	.LASF31
 1030 0330 08       		.byte	0x8
 1031 0331 66       		.byte	0x66
 1032 0332 06030000 		.4byte	0x306
 1033 0336 10       		.uleb128 0x10
 1034 0337 A8030000 		.4byte	.LASF34
 1035 033b 01       		.byte	0x1
ARM GAS  C:\Users\DNIEL~1\AppData\Local\Temp\ccuHRGJz.s 			page 20


 1036 033c 02       		.byte	0x2
 1037 033d 15       		.byte	0x15
 1038 033e 4F030000 		.4byte	0x34f
 1039 0342 11       		.uleb128 0x11
 1040 0343 F8000000 		.4byte	.LASF32
 1041 0347 00       		.sleb128 0
 1042 0348 11       		.uleb128 0x11
 1043 0349 17020000 		.4byte	.LASF33
 1044 034d 01       		.sleb128 1
 1045 034e 00       		.byte	0
 1046 034f 10       		.uleb128 0x10
 1047 0350 21030000 		.4byte	.LASF35
 1048 0354 01       		.byte	0x1
 1049 0355 02       		.byte	0x2
 1050 0356 1B       		.byte	0x1b
 1051 0357 B6030000 		.4byte	0x3b6
 1052 035b 11       		.uleb128 0x11
 1053 035c 77010000 		.4byte	.LASF36
 1054 0360 00       		.sleb128 0
 1055 0361 11       		.uleb128 0x11
 1056 0362 7B020000 		.4byte	.LASF37
 1057 0366 01       		.sleb128 1
 1058 0367 11       		.uleb128 0x11
 1059 0368 48030000 		.4byte	.LASF38
 1060 036c 02       		.sleb128 2
 1061 036d 11       		.uleb128 0x11
 1062 036e A9020000 		.4byte	.LASF39
 1063 0372 03       		.sleb128 3
 1064 0373 11       		.uleb128 0x11
 1065 0374 90010000 		.4byte	.LASF40
 1066 0378 04       		.sleb128 4
 1067 0379 11       		.uleb128 0x11
 1068 037a 16000000 		.4byte	.LASF41
 1069 037e 05       		.sleb128 5
 1070 037f 11       		.uleb128 0x11
 1071 0380 6D030000 		.4byte	.LASF42
 1072 0384 06       		.sleb128 6
 1073 0385 11       		.uleb128 0x11
 1074 0386 8F030000 		.4byte	.LASF43
 1075 038a 07       		.sleb128 7
 1076 038b 11       		.uleb128 0x11
 1077 038c 59010000 		.4byte	.LASF44
 1078 0390 08       		.sleb128 8
 1079 0391 11       		.uleb128 0x11
 1080 0392 00000000 		.4byte	.LASF45
 1081 0396 09       		.sleb128 9
 1082 0397 11       		.uleb128 0x11
 1083 0398 EC020000 		.4byte	.LASF46
 1084 039c 0A       		.sleb128 10
 1085 039d 11       		.uleb128 0x11
 1086 039e F5010000 		.4byte	.LASF47
 1087 03a2 0B       		.sleb128 11
 1088 03a3 11       		.uleb128 0x11
 1089 03a4 61030000 		.4byte	.LASF48
 1090 03a8 0C       		.sleb128 12
 1091 03a9 11       		.uleb128 0x11
 1092 03aa 24010000 		.4byte	.LASF49
ARM GAS  C:\Users\DNIEL~1\AppData\Local\Temp\ccuHRGJz.s 			page 21


 1093 03ae 0D       		.sleb128 13
 1094 03af 11       		.uleb128 0x11
 1095 03b0 3F010000 		.4byte	.LASF50
 1096 03b4 0E       		.sleb128 14
 1097 03b5 00       		.byte	0
 1098 03b6 12       		.uleb128 0x12
 1099 03b7 C1020000 		.4byte	.LASF74
 1100 03bb 01       		.byte	0x1
 1101 03bc 45       		.byte	0x45
 1102 03bd 01       		.byte	0x1
 1103 03be 00000000 		.4byte	.LFB118
 1104 03c2 1E000000 		.4byte	.LFE118
 1105 03c6 00000000 		.4byte	.LLST0
 1106 03ca 01       		.byte	0x1
 1107 03cb 19040000 		.4byte	0x419
 1108 03cf 13       		.uleb128 0x13
 1109 03d0 63687000 		.ascii	"chp\000"
 1110 03d4 01       		.byte	0x1
 1111 03d5 45       		.byte	0x45
 1112 03d6 19040000 		.4byte	0x419
 1113 03da 38000000 		.4byte	.LLST1
 1114 03de 14       		.uleb128 0x14
 1115 03df 666D7400 		.ascii	"fmt\000"
 1116 03e3 01       		.byte	0x1
 1117 03e4 45       		.byte	0x45
 1118 03e5 CC000000 		.4byte	0xcc
 1119 03e9 02       		.byte	0x2
 1120 03ea 91       		.byte	0x91
 1121 03eb 74       		.sleb128 -12
 1122 03ec 15       		.uleb128 0x15
 1123 03ed 16       		.uleb128 0x16
 1124 03ee 617000   		.ascii	"ap\000"
 1125 03f1 01       		.byte	0x1
 1126 03f2 46       		.byte	0x46
 1127 03f3 2B030000 		.4byte	0x32b
 1128 03f7 02       		.byte	0x2
 1129 03f8 91       		.byte	0x91
 1130 03f9 6C       		.sleb128 -20
 1131 03fa 17       		.uleb128 0x17
 1132 03fb 14000000 		.4byte	.LVL1
 1133 03ff 4A0B0000 		.4byte	0xb4a
 1134 0403 18       		.uleb128 0x18
 1135 0404 01       		.byte	0x1
 1136 0405 52       		.byte	0x52
 1137 0406 02       		.byte	0x2
 1138 0407 91       		.byte	0x91
 1139 0408 60       		.sleb128 -32
 1140 0409 18       		.uleb128 0x18
 1141 040a 01       		.byte	0x1
 1142 040b 51       		.byte	0x51
 1143 040c 03       		.byte	0x3
 1144 040d 91       		.byte	0x91
 1145 040e 5C       		.sleb128 -36
 1146 040f 06       		.byte	0x6
 1147 0410 18       		.uleb128 0x18
 1148 0411 01       		.byte	0x1
 1149 0412 50       		.byte	0x50
ARM GAS  C:\Users\DNIEL~1\AppData\Local\Temp\ccuHRGJz.s 			page 22


 1150 0413 03       		.byte	0x3
 1151 0414 F3       		.byte	0xf3
 1152 0415 01       		.uleb128 0x1
 1153 0416 50       		.byte	0x50
 1154 0417 00       		.byte	0
 1155 0418 00       		.byte	0
 1156 0419 06       		.uleb128 0x6
 1157 041a 04       		.byte	0x4
 1158 041b C7010000 		.4byte	0x1c7
 1159 041f 19       		.uleb128 0x19
 1160 0420 01       		.byte	0x1
 1161 0421 32020000 		.4byte	.LASF51
 1162 0425 02       		.byte	0x2
 1163 0426 36       		.byte	0x36
 1164 0427 01       		.byte	0x1
 1165 0428 00000000 		.4byte	.LFB119
 1166 042c D2000000 		.4byte	.LFE119
 1167 0430 59000000 		.4byte	.LLST2
 1168 0434 01       		.byte	0x1
 1169 0435 66060000 		.4byte	0x666
 1170 0439 1A       		.uleb128 0x1a
 1171 043a 0A000000 		.4byte	.LVL2
 1172 043e 680B0000 		.4byte	0xb68
 1173 0442 52040000 		.4byte	0x452
 1174 0446 18       		.uleb128 0x18
 1175 0447 01       		.byte	0x1
 1176 0448 51       		.byte	0x51
 1177 0449 02       		.byte	0x2
 1178 044a 08       		.byte	0x8
 1179 044b 23       		.byte	0x23
 1180 044c 18       		.uleb128 0x18
 1181 044d 01       		.byte	0x1
 1182 044e 50       		.byte	0x50
 1183 044f 01       		.byte	0x1
 1184 0450 30       		.byte	0x30
 1185 0451 00       		.byte	0
 1186 0452 1A       		.uleb128 0x1a
 1187 0453 16000000 		.4byte	.LVL3
 1188 0457 810B0000 		.4byte	0xb81
 1189 045b 71040000 		.4byte	0x471
 1190 045f 18       		.uleb128 0x18
 1191 0460 01       		.byte	0x1
 1192 0461 52       		.byte	0x52
 1193 0462 01       		.byte	0x1
 1194 0463 31       		.byte	0x31
 1195 0464 18       		.uleb128 0x18
 1196 0465 01       		.byte	0x1
 1197 0466 51       		.byte	0x51
 1198 0467 01       		.byte	0x1
 1199 0468 37       		.byte	0x37
 1200 0469 18       		.uleb128 0x18
 1201 046a 01       		.byte	0x1
 1202 046b 50       		.byte	0x50
 1203 046c 03       		.byte	0x3
 1204 046d 0A       		.byte	0xa
 1205 046e B101     		.2byte	0x1b1
 1206 0470 00       		.byte	0
ARM GAS  C:\Users\DNIEL~1\AppData\Local\Temp\ccuHRGJz.s 			page 23


 1207 0471 1A       		.uleb128 0x1a
 1208 0472 20000000 		.4byte	.LVL4
 1209 0476 680B0000 		.4byte	0xb68
 1210 047a 8B040000 		.4byte	0x48b
 1211 047e 18       		.uleb128 0x18
 1212 047f 01       		.byte	0x1
 1213 0480 51       		.byte	0x51
 1214 0481 03       		.byte	0x3
 1215 0482 0A       		.byte	0xa
 1216 0483 B619     		.2byte	0x19b6
 1217 0485 18       		.uleb128 0x18
 1218 0486 01       		.byte	0x1
 1219 0487 50       		.byte	0x50
 1220 0488 01       		.byte	0x1
 1221 0489 30       		.byte	0x30
 1222 048a 00       		.byte	0
 1223 048b 1A       		.uleb128 0x1a
 1224 048c 2C000000 		.4byte	.LVL5
 1225 0490 810B0000 		.4byte	0xb81
 1226 0494 AB040000 		.4byte	0x4ab
 1227 0498 18       		.uleb128 0x18
 1228 0499 01       		.byte	0x1
 1229 049a 52       		.byte	0x52
 1230 049b 01       		.byte	0x1
 1231 049c 31       		.byte	0x31
 1232 049d 18       		.uleb128 0x18
 1233 049e 01       		.byte	0x1
 1234 049f 51       		.byte	0x51
 1235 04a0 02       		.byte	0x2
 1236 04a1 08       		.byte	0x8
 1237 04a2 3D       		.byte	0x3d
 1238 04a3 18       		.uleb128 0x18
 1239 04a4 01       		.byte	0x1
 1240 04a5 50       		.byte	0x50
 1241 04a6 03       		.byte	0x3
 1242 04a7 0A       		.byte	0xa
 1243 04a8 B101     		.2byte	0x1b1
 1244 04aa 00       		.byte	0
 1245 04ab 1A       		.uleb128 0x1a
 1246 04ac 34000000 		.4byte	.LVL6
 1247 04b0 680B0000 		.4byte	0xb68
 1248 04b4 C4040000 		.4byte	0x4c4
 1249 04b8 18       		.uleb128 0x18
 1250 04b9 01       		.byte	0x1
 1251 04ba 51       		.byte	0x51
 1252 04bb 02       		.byte	0x2
 1253 04bc 08       		.byte	0x8
 1254 04bd 3D       		.byte	0x3d
 1255 04be 18       		.uleb128 0x18
 1256 04bf 01       		.byte	0x1
 1257 04c0 50       		.byte	0x50
 1258 04c1 01       		.byte	0x1
 1259 04c2 30       		.byte	0x30
 1260 04c3 00       		.byte	0
 1261 04c4 1A       		.uleb128 0x1a
 1262 04c5 40000000 		.4byte	.LVL7
 1263 04c9 810B0000 		.4byte	0xb81
ARM GAS  C:\Users\DNIEL~1\AppData\Local\Temp\ccuHRGJz.s 			page 24


 1264 04cd E4040000 		.4byte	0x4e4
 1265 04d1 18       		.uleb128 0x18
 1266 04d2 01       		.byte	0x1
 1267 04d3 52       		.byte	0x52
 1268 04d4 01       		.byte	0x1
 1269 04d5 31       		.byte	0x31
 1270 04d6 18       		.uleb128 0x18
 1271 04d7 01       		.byte	0x1
 1272 04d8 51       		.byte	0x51
 1273 04d9 02       		.byte	0x2
 1274 04da 08       		.byte	0x8
 1275 04db 9A       		.byte	0x9a
 1276 04dc 18       		.uleb128 0x18
 1277 04dd 01       		.byte	0x1
 1278 04de 50       		.byte	0x50
 1279 04df 03       		.byte	0x3
 1280 04e0 0A       		.byte	0xa
 1281 04e1 B101     		.2byte	0x1b1
 1282 04e3 00       		.byte	0
 1283 04e4 1A       		.uleb128 0x1a
 1284 04e5 48000000 		.4byte	.LVL8
 1285 04e9 680B0000 		.4byte	0xb68
 1286 04ed FD040000 		.4byte	0x4fd
 1287 04f1 18       		.uleb128 0x18
 1288 04f2 01       		.byte	0x1
 1289 04f3 51       		.byte	0x51
 1290 04f4 02       		.byte	0x2
 1291 04f5 08       		.byte	0x8
 1292 04f6 2E       		.byte	0x2e
 1293 04f7 18       		.uleb128 0x18
 1294 04f8 01       		.byte	0x1
 1295 04f9 50       		.byte	0x50
 1296 04fa 01       		.byte	0x1
 1297 04fb 30       		.byte	0x30
 1298 04fc 00       		.byte	0
 1299 04fd 1A       		.uleb128 0x1a
 1300 04fe 54000000 		.4byte	.LVL9
 1301 0502 810B0000 		.4byte	0xb81
 1302 0506 1D050000 		.4byte	0x51d
 1303 050a 18       		.uleb128 0x18
 1304 050b 01       		.byte	0x1
 1305 050c 52       		.byte	0x52
 1306 050d 01       		.byte	0x1
 1307 050e 31       		.byte	0x31
 1308 050f 18       		.uleb128 0x18
 1309 0510 01       		.byte	0x1
 1310 0511 51       		.byte	0x51
 1311 0512 02       		.byte	0x2
 1312 0513 08       		.byte	0x8
 1313 0514 E6       		.byte	0xe6
 1314 0515 18       		.uleb128 0x18
 1315 0516 01       		.byte	0x1
 1316 0517 50       		.byte	0x50
 1317 0518 03       		.byte	0x3
 1318 0519 0A       		.byte	0xa
 1319 051a B101     		.2byte	0x1b1
 1320 051c 00       		.byte	0
ARM GAS  C:\Users\DNIEL~1\AppData\Local\Temp\ccuHRGJz.s 			page 25


 1321 051d 1A       		.uleb128 0x1a
 1322 051e 5E000000 		.4byte	.LVL10
 1323 0522 680B0000 		.4byte	0xb68
 1324 0526 37050000 		.4byte	0x537
 1325 052a 18       		.uleb128 0x18
 1326 052b 01       		.byte	0x1
 1327 052c 51       		.byte	0x51
 1328 052d 03       		.byte	0x3
 1329 052e 0A       		.byte	0xa
 1330 052f C919     		.2byte	0x19c9
 1331 0531 18       		.uleb128 0x18
 1332 0532 01       		.byte	0x1
 1333 0533 50       		.byte	0x50
 1334 0534 01       		.byte	0x1
 1335 0535 30       		.byte	0x30
 1336 0536 00       		.byte	0
 1337 0537 1A       		.uleb128 0x1a
 1338 0538 6A000000 		.4byte	.LVL11
 1339 053c 810B0000 		.4byte	0xb81
 1340 0540 56050000 		.4byte	0x556
 1341 0544 18       		.uleb128 0x18
 1342 0545 01       		.byte	0x1
 1343 0546 52       		.byte	0x52
 1344 0547 01       		.byte	0x1
 1345 0548 31       		.byte	0x31
 1346 0549 18       		.uleb128 0x18
 1347 054a 01       		.byte	0x1
 1348 054b 51       		.byte	0x51
 1349 054c 01       		.byte	0x1
 1350 054d 4A       		.byte	0x4a
 1351 054e 18       		.uleb128 0x18
 1352 054f 01       		.byte	0x1
 1353 0550 50       		.byte	0x50
 1354 0551 03       		.byte	0x3
 1355 0552 0A       		.byte	0xa
 1356 0553 7701     		.2byte	0x177
 1357 0555 00       		.byte	0
 1358 0556 1A       		.uleb128 0x1a
 1359 0557 72000000 		.4byte	.LVL12
 1360 055b 680B0000 		.4byte	0xb68
 1361 055f 6E050000 		.4byte	0x56e
 1362 0563 18       		.uleb128 0x18
 1363 0564 01       		.byte	0x1
 1364 0565 51       		.byte	0x51
 1365 0566 01       		.byte	0x1
 1366 0567 3B       		.byte	0x3b
 1367 0568 18       		.uleb128 0x18
 1368 0569 01       		.byte	0x1
 1369 056a 50       		.byte	0x50
 1370 056b 01       		.byte	0x1
 1371 056c 30       		.byte	0x30
 1372 056d 00       		.byte	0
 1373 056e 1A       		.uleb128 0x1a
 1374 056f 7E000000 		.4byte	.LVL13
 1375 0573 810B0000 		.4byte	0xb81
 1376 0577 8E050000 		.4byte	0x58e
 1377 057b 18       		.uleb128 0x18
ARM GAS  C:\Users\DNIEL~1\AppData\Local\Temp\ccuHRGJz.s 			page 26


 1378 057c 01       		.byte	0x1
 1379 057d 52       		.byte	0x52
 1380 057e 01       		.byte	0x1
 1381 057f 31       		.byte	0x31
 1382 0580 18       		.uleb128 0x18
 1383 0581 01       		.byte	0x1
 1384 0582 51       		.byte	0x51
 1385 0583 02       		.byte	0x2
 1386 0584 08       		.byte	0x8
 1387 0585 50       		.byte	0x50
 1388 0586 18       		.uleb128 0x18
 1389 0587 01       		.byte	0x1
 1390 0588 50       		.byte	0x50
 1391 0589 03       		.byte	0x3
 1392 058a 0A       		.byte	0xa
 1393 058b 7701     		.2byte	0x177
 1394 058d 00       		.byte	0
 1395 058e 1A       		.uleb128 0x1a
 1396 058f 86000000 		.4byte	.LVL14
 1397 0593 680B0000 		.4byte	0xb68
 1398 0597 A7050000 		.4byte	0x5a7
 1399 059b 18       		.uleb128 0x18
 1400 059c 01       		.byte	0x1
 1401 059d 51       		.byte	0x51
 1402 059e 02       		.byte	0x2
 1403 059f 08       		.byte	0x8
 1404 05a0 48       		.byte	0x48
 1405 05a1 18       		.uleb128 0x18
 1406 05a2 01       		.byte	0x1
 1407 05a3 50       		.byte	0x50
 1408 05a4 01       		.byte	0x1
 1409 05a5 30       		.byte	0x30
 1410 05a6 00       		.byte	0
 1411 05a7 1A       		.uleb128 0x1a
 1412 05a8 92000000 		.4byte	.LVL15
 1413 05ac 810B0000 		.4byte	0xb81
 1414 05b0 C7050000 		.4byte	0x5c7
 1415 05b4 18       		.uleb128 0x18
 1416 05b5 01       		.byte	0x1
 1417 05b6 52       		.byte	0x52
 1418 05b7 01       		.byte	0x1
 1419 05b8 31       		.byte	0x31
 1420 05b9 18       		.uleb128 0x18
 1421 05ba 01       		.byte	0x1
 1422 05bb 51       		.byte	0x51
 1423 05bc 02       		.byte	0x2
 1424 05bd 08       		.byte	0x8
 1425 05be AA       		.byte	0xaa
 1426 05bf 18       		.uleb128 0x18
 1427 05c0 01       		.byte	0x1
 1428 05c1 50       		.byte	0x50
 1429 05c2 03       		.byte	0x3
 1430 05c3 0A       		.byte	0xa
 1431 05c4 7701     		.2byte	0x177
 1432 05c6 00       		.byte	0
 1433 05c7 1A       		.uleb128 0x1a
 1434 05c8 9A000000 		.4byte	.LVL16
ARM GAS  C:\Users\DNIEL~1\AppData\Local\Temp\ccuHRGJz.s 			page 27


 1435 05cc 680B0000 		.4byte	0xb68
 1436 05d0 DF050000 		.4byte	0x5df
 1437 05d4 18       		.uleb128 0x18
 1438 05d5 01       		.byte	0x1
 1439 05d6 51       		.byte	0x51
 1440 05d7 01       		.byte	0x1
 1441 05d8 30       		.byte	0x30
 1442 05d9 18       		.uleb128 0x18
 1443 05da 01       		.byte	0x1
 1444 05db 50       		.byte	0x50
 1445 05dc 01       		.byte	0x1
 1446 05dd 30       		.byte	0x30
 1447 05de 00       		.byte	0
 1448 05df 1A       		.uleb128 0x1a
 1449 05e0 A6000000 		.4byte	.LVL17
 1450 05e4 810B0000 		.4byte	0xb81
 1451 05e8 FF050000 		.4byte	0x5ff
 1452 05ec 18       		.uleb128 0x18
 1453 05ed 01       		.byte	0x1
 1454 05ee 52       		.byte	0x52
 1455 05ef 01       		.byte	0x1
 1456 05f0 31       		.byte	0x31
 1457 05f1 18       		.uleb128 0x18
 1458 05f2 01       		.byte	0x1
 1459 05f3 51       		.byte	0x51
 1460 05f4 02       		.byte	0x2
 1461 05f5 08       		.byte	0x8
 1462 05f6 DB       		.byte	0xdb
 1463 05f7 18       		.uleb128 0x18
 1464 05f8 01       		.byte	0x1
 1465 05f9 50       		.byte	0x50
 1466 05fa 03       		.byte	0x3
 1467 05fb 0A       		.byte	0xa
 1468 05fc 7701     		.2byte	0x177
 1469 05fe 00       		.byte	0
 1470 05ff 1A       		.uleb128 0x1a
 1471 0600 B0000000 		.4byte	.LVL18
 1472 0604 680B0000 		.4byte	0xb68
 1473 0608 19060000 		.4byte	0x619
 1474 060c 18       		.uleb128 0x18
 1475 060d 01       		.byte	0x1
 1476 060e 51       		.byte	0x51
 1477 060f 03       		.byte	0x3
 1478 0610 0A       		.byte	0xa
 1479 0611 0019     		.2byte	0x1900
 1480 0613 18       		.uleb128 0x18
 1481 0614 01       		.byte	0x1
 1482 0615 50       		.byte	0x50
 1483 0616 01       		.byte	0x1
 1484 0617 30       		.byte	0x30
 1485 0618 00       		.byte	0
 1486 0619 1A       		.uleb128 0x1a
 1487 061a BA000000 		.4byte	.LVL19
 1488 061e 9F0B0000 		.4byte	0xb9f
 1489 0622 33060000 		.4byte	0x633
 1490 0626 18       		.uleb128 0x18
 1491 0627 01       		.byte	0x1
ARM GAS  C:\Users\DNIEL~1\AppData\Local\Temp\ccuHRGJz.s 			page 28


 1492 0628 51       		.byte	0x51
 1493 0629 01       		.byte	0x1
 1494 062a 34       		.byte	0x34
 1495 062b 18       		.uleb128 0x18
 1496 062c 01       		.byte	0x1
 1497 062d 50       		.byte	0x50
 1498 062e 03       		.byte	0x3
 1499 062f 0A       		.byte	0xa
 1500 0630 5401     		.2byte	0x154
 1501 0632 00       		.byte	0
 1502 0633 1A       		.uleb128 0x1a
 1503 0634 C4000000 		.4byte	.LVL20
 1504 0638 680B0000 		.4byte	0xb68
 1505 063c 4D060000 		.4byte	0x64d
 1506 0640 18       		.uleb128 0x18
 1507 0641 01       		.byte	0x1
 1508 0642 51       		.byte	0x51
 1509 0643 03       		.byte	0x3
 1510 0644 0A       		.byte	0xa
 1511 0645 C119     		.2byte	0x19c1
 1512 0647 18       		.uleb128 0x18
 1513 0648 01       		.byte	0x1
 1514 0649 50       		.byte	0x50
 1515 064a 01       		.byte	0x1
 1516 064b 30       		.byte	0x30
 1517 064c 00       		.byte	0
 1518 064d 1B       		.uleb128 0x1b
 1519 064e D2000000 		.4byte	.LVL21
 1520 0652 01       		.byte	0x1
 1521 0653 9F0B0000 		.4byte	0xb9f
 1522 0657 18       		.uleb128 0x18
 1523 0658 01       		.byte	0x1
 1524 0659 51       		.byte	0x51
 1525 065a 02       		.byte	0x2
 1526 065b 08       		.byte	0x8
 1527 065c A6       		.byte	0xa6
 1528 065d 18       		.uleb128 0x18
 1529 065e 01       		.byte	0x1
 1530 065f 50       		.byte	0x50
 1531 0660 03       		.byte	0x3
 1532 0661 0A       		.byte	0xa
 1533 0662 5401     		.2byte	0x154
 1534 0664 00       		.byte	0
 1535 0665 00       		.byte	0
 1536 0666 19       		.uleb128 0x19
 1537 0667 01       		.byte	0x1
 1538 0668 FB020000 		.4byte	.LASF52
 1539 066c 02       		.byte	0x2
 1540 066d 57       		.byte	0x57
 1541 066e 01       		.byte	0x1
 1542 066f 00000000 		.4byte	.LFB120
 1543 0673 68000000 		.4byte	.LFE120
 1544 0677 79000000 		.4byte	.LLST3
 1545 067b 01       		.byte	0x1
 1546 067c 95070000 		.4byte	0x795
 1547 0680 1A       		.uleb128 0x1a
 1548 0681 0A000000 		.4byte	.LVL22
ARM GAS  C:\Users\DNIEL~1\AppData\Local\Temp\ccuHRGJz.s 			page 29


 1549 0685 680B0000 		.4byte	0xb68
 1550 0689 99060000 		.4byte	0x699
 1551 068d 18       		.uleb128 0x18
 1552 068e 01       		.byte	0x1
 1553 068f 51       		.byte	0x51
 1554 0690 02       		.byte	0x2
 1555 0691 08       		.byte	0x8
 1556 0692 53       		.byte	0x53
 1557 0693 18       		.uleb128 0x18
 1558 0694 01       		.byte	0x1
 1559 0695 50       		.byte	0x50
 1560 0696 01       		.byte	0x1
 1561 0697 30       		.byte	0x30
 1562 0698 00       		.byte	0
 1563 0699 1A       		.uleb128 0x1a
 1564 069a 14000000 		.4byte	.LVL23
 1565 069e 810B0000 		.4byte	0xb81
 1566 06a2 B7060000 		.4byte	0x6b7
 1567 06a6 18       		.uleb128 0x18
 1568 06a7 01       		.byte	0x1
 1569 06a8 52       		.byte	0x52
 1570 06a9 01       		.byte	0x1
 1571 06aa 31       		.byte	0x31
 1572 06ab 18       		.uleb128 0x18
 1573 06ac 01       		.byte	0x1
 1574 06ad 51       		.byte	0x51
 1575 06ae 01       		.byte	0x1
 1576 06af 45       		.byte	0x45
 1577 06b0 18       		.uleb128 0x18
 1578 06b1 01       		.byte	0x1
 1579 06b2 50       		.byte	0x50
 1580 06b3 02       		.byte	0x2
 1581 06b4 08       		.byte	0x8
 1582 06b5 94       		.byte	0x94
 1583 06b6 00       		.byte	0
 1584 06b7 1A       		.uleb128 0x1a
 1585 06b8 1C000000 		.4byte	.LVL24
 1586 06bc 680B0000 		.4byte	0xb68
 1587 06c0 D0060000 		.4byte	0x6d0
 1588 06c4 18       		.uleb128 0x18
 1589 06c5 01       		.byte	0x1
 1590 06c6 51       		.byte	0x51
 1591 06c7 02       		.byte	0x2
 1592 06c8 08       		.byte	0x8
 1593 06c9 39       		.byte	0x39
 1594 06ca 18       		.uleb128 0x18
 1595 06cb 01       		.byte	0x1
 1596 06cc 50       		.byte	0x50
 1597 06cd 01       		.byte	0x1
 1598 06ce 30       		.byte	0x30
 1599 06cf 00       		.byte	0
 1600 06d0 1A       		.uleb128 0x1a
 1601 06d1 24000000 		.4byte	.LVL25
 1602 06d5 9F0B0000 		.4byte	0xb9f
 1603 06d9 EA060000 		.4byte	0x6ea
 1604 06dd 18       		.uleb128 0x18
 1605 06de 01       		.byte	0x1
ARM GAS  C:\Users\DNIEL~1\AppData\Local\Temp\ccuHRGJz.s 			page 30


 1606 06df 51       		.byte	0x51
 1607 06e0 02       		.byte	0x2
 1608 06e1 08       		.byte	0x8
 1609 06e2 CC       		.byte	0xcc
 1610 06e3 18       		.uleb128 0x18
 1611 06e4 01       		.byte	0x1
 1612 06e5 50       		.byte	0x50
 1613 06e6 02       		.byte	0x2
 1614 06e7 08       		.byte	0x8
 1615 06e8 A8       		.byte	0xa8
 1616 06e9 00       		.byte	0
 1617 06ea 1A       		.uleb128 0x1a
 1618 06eb 2E000000 		.4byte	.LVL26
 1619 06ef 680B0000 		.4byte	0xb68
 1620 06f3 04070000 		.4byte	0x704
 1621 06f7 18       		.uleb128 0x18
 1622 06f8 01       		.byte	0x1
 1623 06f9 51       		.byte	0x51
 1624 06fa 03       		.byte	0x3
 1625 06fb 0A       		.byte	0xa
 1626 06fc 0619     		.2byte	0x1906
 1627 06fe 18       		.uleb128 0x18
 1628 06ff 01       		.byte	0x1
 1629 0700 50       		.byte	0x50
 1630 0701 01       		.byte	0x1
 1631 0702 30       		.byte	0x30
 1632 0703 00       		.byte	0
 1633 0704 1A       		.uleb128 0x1a
 1634 0705 3A000000 		.4byte	.LVL27
 1635 0709 810B0000 		.4byte	0xb81
 1636 070d 24070000 		.4byte	0x724
 1637 0711 18       		.uleb128 0x18
 1638 0712 01       		.byte	0x1
 1639 0713 52       		.byte	0x52
 1640 0714 01       		.byte	0x1
 1641 0715 31       		.byte	0x31
 1642 0716 18       		.uleb128 0x18
 1643 0717 01       		.byte	0x1
 1644 0718 51       		.byte	0x51
 1645 0719 02       		.byte	0x2
 1646 071a 08       		.byte	0x8
 1647 071b F4       		.byte	0xf4
 1648 071c 18       		.uleb128 0x18
 1649 071d 01       		.byte	0x1
 1650 071e 50       		.byte	0x50
 1651 071f 03       		.byte	0x3
 1652 0720 0A       		.byte	0xa
 1653 0721 3B01     		.2byte	0x13b
 1654 0723 00       		.byte	0
 1655 0724 1A       		.uleb128 0x1a
 1656 0725 44000000 		.4byte	.LVL28
 1657 0729 680B0000 		.4byte	0xb68
 1658 072d 3E070000 		.4byte	0x73e
 1659 0731 18       		.uleb128 0x18
 1660 0732 01       		.byte	0x1
 1661 0733 51       		.byte	0x51
 1662 0734 03       		.byte	0x3
ARM GAS  C:\Users\DNIEL~1\AppData\Local\Temp\ccuHRGJz.s 			page 31


 1663 0735 0A       		.byte	0xa
 1664 0736 0619     		.2byte	0x1906
 1665 0738 18       		.uleb128 0x18
 1666 0739 01       		.byte	0x1
 1667 073a 50       		.byte	0x50
 1668 073b 01       		.byte	0x1
 1669 073c 30       		.byte	0x30
 1670 073d 00       		.byte	0
 1671 073e 1A       		.uleb128 0x1a
 1672 073f 50000000 		.4byte	.LVL29
 1673 0743 810B0000 		.4byte	0xb81
 1674 0747 5E070000 		.4byte	0x75e
 1675 074b 18       		.uleb128 0x18
 1676 074c 01       		.byte	0x1
 1677 074d 52       		.byte	0x52
 1678 074e 01       		.byte	0x1
 1679 074f 31       		.byte	0x31
 1680 0750 18       		.uleb128 0x18
 1681 0751 01       		.byte	0x1
 1682 0752 51       		.byte	0x51
 1683 0753 02       		.byte	0x2
 1684 0754 08       		.byte	0x8
 1685 0755 21       		.byte	0x21
 1686 0756 18       		.uleb128 0x18
 1687 0757 01       		.byte	0x1
 1688 0758 50       		.byte	0x50
 1689 0759 03       		.byte	0x3
 1690 075a 0A       		.byte	0xa
 1691 075b 3B01     		.2byte	0x13b
 1692 075d 00       		.byte	0
 1693 075e 1A       		.uleb128 0x1a
 1694 075f 5A000000 		.4byte	.LVL30
 1695 0763 680B0000 		.4byte	0xb68
 1696 0767 78070000 		.4byte	0x778
 1697 076b 18       		.uleb128 0x18
 1698 076c 01       		.byte	0x1
 1699 076d 51       		.byte	0x51
 1700 076e 03       		.byte	0x3
 1701 076f 0A       		.byte	0xa
 1702 0770 2919     		.2byte	0x1929
 1703 0772 18       		.uleb128 0x18
 1704 0773 01       		.byte	0x1
 1705 0774 50       		.byte	0x50
 1706 0775 01       		.byte	0x1
 1707 0776 30       		.byte	0x30
 1708 0777 00       		.byte	0
 1709 0778 1B       		.uleb128 0x1b
 1710 0779 68000000 		.4byte	.LVL31
 1711 077d 01       		.byte	0x1
 1712 077e 810B0000 		.4byte	0xb81
 1713 0782 18       		.uleb128 0x18
 1714 0783 01       		.byte	0x1
 1715 0784 52       		.byte	0x52
 1716 0785 01       		.byte	0x1
 1717 0786 31       		.byte	0x31
 1718 0787 18       		.uleb128 0x18
 1719 0788 01       		.byte	0x1
ARM GAS  C:\Users\DNIEL~1\AppData\Local\Temp\ccuHRGJz.s 			page 32


 1720 0789 51       		.byte	0x51
 1721 078a 02       		.byte	0x2
 1722 078b 08       		.byte	0x8
 1723 078c 9B       		.byte	0x9b
 1724 078d 18       		.uleb128 0x18
 1725 078e 01       		.byte	0x1
 1726 078f 50       		.byte	0x50
 1727 0790 02       		.byte	0x2
 1728 0791 08       		.byte	0x8
 1729 0792 BA       		.byte	0xba
 1730 0793 00       		.byte	0
 1731 0794 00       		.byte	0
 1732 0795 19       		.uleb128 0x19
 1733 0796 01       		.byte	0x1
 1734 0797 87030000 		.4byte	.LASF53
 1735 079b 02       		.byte	0x2
 1736 079c 68       		.byte	0x68
 1737 079d 01       		.byte	0x1
 1738 079e 00000000 		.4byte	.LFB121
 1739 07a2 16000000 		.4byte	.LFE121
 1740 07a6 99000000 		.4byte	.LLST4
 1741 07aa 01       		.byte	0x1
 1742 07ab D5070000 		.4byte	0x7d5
 1743 07af 1C       		.uleb128 0x1c
 1744 07b0 06000000 		.4byte	.LVL32
 1745 07b4 B80B0000 		.4byte	0xbb8
 1746 07b8 1C       		.uleb128 0x1c
 1747 07b9 0A000000 		.4byte	.LVL33
 1748 07bd C20B0000 		.4byte	0xbc2
 1749 07c1 1C       		.uleb128 0x1c
 1750 07c2 0E000000 		.4byte	.LVL34
 1751 07c6 1F040000 		.4byte	0x41f
 1752 07ca 1D       		.uleb128 0x1d
 1753 07cb 16000000 		.4byte	.LVL35
 1754 07cf 01       		.byte	0x1
 1755 07d0 66060000 		.4byte	0x666
 1756 07d4 00       		.byte	0
 1757 07d5 1E       		.uleb128 0x1e
 1758 07d6 01       		.byte	0x1
 1759 07d7 5E020000 		.4byte	.LASF75
 1760 07db 02       		.byte	0x2
 1761 07dc 74       		.byte	0x74
 1762 07dd 01       		.byte	0x1
 1763 07de 00000000 		.4byte	.LFB122
 1764 07e2 02000000 		.4byte	.LFE122
 1765 07e6 02       		.byte	0x2
 1766 07e7 7D       		.byte	0x7d
 1767 07e8 00       		.sleb128 0
 1768 07e9 01       		.byte	0x1
 1769 07ea 19       		.uleb128 0x19
 1770 07eb 01       		.byte	0x1
 1771 07ec 91020000 		.4byte	.LASF54
 1772 07f0 02       		.byte	0x2
 1773 07f1 8B       		.byte	0x8b
 1774 07f2 01       		.byte	0x1
 1775 07f3 00000000 		.4byte	.LFB123
 1776 07f7 24010000 		.4byte	.LFE123
ARM GAS  C:\Users\DNIEL~1\AppData\Local\Temp\ccuHRGJz.s 			page 33


 1777 07fb B9000000 		.4byte	.LLST5
 1778 07ff 01       		.byte	0x1
 1779 0800 A10A0000 		.4byte	0xaa1
 1780 0804 13       		.uleb128 0x13
 1781 0805 63687000 		.ascii	"chp\000"
 1782 0809 02       		.byte	0x2
 1783 080a 8B       		.byte	0x8b
 1784 080b 19040000 		.4byte	0x419
 1785 080f D9000000 		.4byte	.LLST6
 1786 0813 1F       		.uleb128 0x1f
 1787 0814 CD010000 		.4byte	.LASF55
 1788 0818 02       		.byte	0x2
 1789 0819 8B       		.byte	0x8b
 1790 081a 29000000 		.4byte	0x29
 1791 081e F7000000 		.4byte	.LLST7
 1792 0822 1F       		.uleb128 0x1f
 1793 0823 AF010000 		.4byte	.LASF56
 1794 0827 02       		.byte	0x2
 1795 0828 8B       		.byte	0x8b
 1796 0829 A10A0000 		.4byte	0xaa1
 1797 082d 3C010000 		.4byte	.LLST8
 1798 0831 20       		.uleb128 0x20
 1799 0832 636800   		.ascii	"ch\000"
 1800 0835 02       		.byte	0x2
 1801 0836 8D       		.byte	0x8d
 1802 0837 4F030000 		.4byte	0x34f
 1803 083b 21       		.uleb128 0x21
 1804 083c A1010000 		.4byte	.LASF76
 1805 0840 02       		.byte	0x2
 1806 0841 BC       		.byte	0xbc
 1807 0842 24000000 		.4byte	.LDL1
 1808 0846 22       		.uleb128 0x22
 1809 0847 00000000 		.4byte	.Ldebug_ranges0+0
 1810 084b E0090000 		.4byte	0x9e0
 1811 084f 23       		.uleb128 0x23
 1812 0850 01       		.byte	0x1
 1813 0851 09030000 		.4byte	.LASF63
 1814 0855 09       		.byte	0x9
 1815 0856 00       		.byte	0
 1816 0857 29000000 		.4byte	0x29
 1817 085b 01       		.byte	0x1
 1818 085c 62080000 		.4byte	0x862
 1819 0860 15       		.uleb128 0x15
 1820 0861 00       		.byte	0
 1821 0862 1A       		.uleb128 0x1a
 1822 0863 54000000 		.4byte	.LVL46
 1823 0867 B6030000 		.4byte	0x3b6
 1824 086b 89080000 		.4byte	0x889
 1825 086f 18       		.uleb128 0x18
 1826 0870 01       		.byte	0x1
 1827 0871 53       		.byte	0x53
 1828 0872 01       		.byte	0x1
 1829 0873 30       		.byte	0x30
 1830 0874 18       		.uleb128 0x18
 1831 0875 01       		.byte	0x1
 1832 0876 52       		.byte	0x52
 1833 0877 01       		.byte	0x1
ARM GAS  C:\Users\DNIEL~1\AppData\Local\Temp\ccuHRGJz.s 			page 34


 1834 0878 30       		.byte	0x30
 1835 0879 18       		.uleb128 0x18
 1836 087a 01       		.byte	0x1
 1837 087b 51       		.byte	0x51
 1838 087c 05       		.byte	0x5
 1839 087d 03       		.byte	0x3
 1840 087e 0C000000 		.4byte	.LC2
 1841 0882 18       		.uleb128 0x18
 1842 0883 01       		.byte	0x1
 1843 0884 50       		.byte	0x50
 1844 0885 02       		.byte	0x2
 1845 0886 74       		.byte	0x74
 1846 0887 00       		.sleb128 0
 1847 0888 00       		.byte	0
 1848 0889 1A       		.uleb128 0x1a
 1849 088a 62000000 		.4byte	.LVL48
 1850 088e CC0B0000 		.4byte	0xbcc
 1851 0892 A6080000 		.4byte	0x8a6
 1852 0896 18       		.uleb128 0x18
 1853 0897 01       		.byte	0x1
 1854 0898 51       		.byte	0x51
 1855 0899 05       		.byte	0x5
 1856 089a 03       		.byte	0x3
 1857 089b 18000000 		.4byte	.LC3
 1858 089f 18       		.uleb128 0x18
 1859 08a0 01       		.byte	0x1
 1860 08a1 50       		.byte	0x50
 1861 08a2 02       		.byte	0x2
 1862 08a3 75       		.byte	0x75
 1863 08a4 00       		.sleb128 0
 1864 08a5 00       		.byte	0
 1865 08a6 1A       		.uleb128 0x1a
 1866 08a7 6E000000 		.4byte	.LVL49
 1867 08ab CC0B0000 		.4byte	0xbcc
 1868 08af C3080000 		.4byte	0x8c3
 1869 08b3 18       		.uleb128 0x18
 1870 08b4 01       		.byte	0x1
 1871 08b5 51       		.byte	0x51
 1872 08b6 05       		.byte	0x5
 1873 08b7 03       		.byte	0x3
 1874 08b8 4C000000 		.4byte	.LC5
 1875 08bc 18       		.uleb128 0x18
 1876 08bd 01       		.byte	0x1
 1877 08be 50       		.byte	0x50
 1878 08bf 02       		.byte	0x2
 1879 08c0 75       		.byte	0x75
 1880 08c1 00       		.sleb128 0
 1881 08c2 00       		.byte	0
 1882 08c3 1A       		.uleb128 0x1a
 1883 08c4 7C000000 		.4byte	.LVL51
 1884 08c8 CC0B0000 		.4byte	0xbcc
 1885 08cc E0080000 		.4byte	0x8e0
 1886 08d0 18       		.uleb128 0x18
 1887 08d1 01       		.byte	0x1
 1888 08d2 51       		.byte	0x51
 1889 08d3 05       		.byte	0x5
 1890 08d4 03       		.byte	0x3
ARM GAS  C:\Users\DNIEL~1\AppData\Local\Temp\ccuHRGJz.s 			page 35


 1891 08d5 80000000 		.4byte	.LC7
 1892 08d9 18       		.uleb128 0x18
 1893 08da 01       		.byte	0x1
 1894 08db 50       		.byte	0x50
 1895 08dc 02       		.byte	0x2
 1896 08dd 75       		.byte	0x75
 1897 08de 00       		.sleb128 0
 1898 08df 00       		.byte	0
 1899 08e0 1A       		.uleb128 0x1a
 1900 08e1 8A000000 		.4byte	.LVL52
 1901 08e5 CC0B0000 		.4byte	0xbcc
 1902 08e9 FD080000 		.4byte	0x8fd
 1903 08ed 18       		.uleb128 0x18
 1904 08ee 01       		.byte	0x1
 1905 08ef 51       		.byte	0x51
 1906 08f0 05       		.byte	0x5
 1907 08f1 03       		.byte	0x3
 1908 08f2 B4000000 		.4byte	.LC9
 1909 08f6 18       		.uleb128 0x18
 1910 08f7 01       		.byte	0x1
 1911 08f8 50       		.byte	0x50
 1912 08f9 02       		.byte	0x2
 1913 08fa 75       		.byte	0x75
 1914 08fb 00       		.sleb128 0
 1915 08fc 00       		.byte	0
 1916 08fd 1A       		.uleb128 0x1a
 1917 08fe 96000000 		.4byte	.LVL53
 1918 0902 B6030000 		.4byte	0x3b6
 1919 0906 1A090000 		.4byte	0x91a
 1920 090a 18       		.uleb128 0x18
 1921 090b 01       		.byte	0x1
 1922 090c 51       		.byte	0x51
 1923 090d 05       		.byte	0x5
 1924 090e 03       		.byte	0x3
 1925 090f B8000000 		.4byte	.LC10
 1926 0913 18       		.uleb128 0x18
 1927 0914 01       		.byte	0x1
 1928 0915 50       		.byte	0x50
 1929 0916 02       		.byte	0x2
 1930 0917 74       		.byte	0x74
 1931 0918 00       		.sleb128 0
 1932 0919 00       		.byte	0
 1933 091a 24       		.uleb128 0x24
 1934 091b A2000000 		.4byte	.LVL54
 1935 091f 01       		.byte	0x1
 1936 0920 E90B0000 		.4byte	0xbe9
 1937 0924 30090000 		.4byte	0x930
 1938 0928 18       		.uleb128 0x18
 1939 0929 01       		.byte	0x1
 1940 092a 50       		.byte	0x50
 1941 092b 03       		.byte	0x3
 1942 092c 0A       		.byte	0xa
 1943 092d 00F8     		.2byte	0xf800
 1944 092f 00       		.byte	0
 1945 0930 1A       		.uleb128 0x1a
 1946 0931 AA000000 		.4byte	.LVL55
 1947 0935 B6030000 		.4byte	0x3b6
ARM GAS  C:\Users\DNIEL~1\AppData\Local\Temp\ccuHRGJz.s 			page 36


 1948 0939 4D090000 		.4byte	0x94d
 1949 093d 18       		.uleb128 0x18
 1950 093e 01       		.byte	0x1
 1951 093f 51       		.byte	0x51
 1952 0940 05       		.byte	0x5
 1953 0941 03       		.byte	0x3
 1954 0942 20000000 		.4byte	.LC4
 1955 0946 18       		.uleb128 0x18
 1956 0947 01       		.byte	0x1
 1957 0948 50       		.byte	0x50
 1958 0949 02       		.byte	0x2
 1959 094a 74       		.byte	0x74
 1960 094b 00       		.sleb128 0
 1961 094c 00       		.byte	0
 1962 094d 1D       		.uleb128 0x1d
 1963 094e B2000000 		.4byte	.LVL56
 1964 0952 01       		.byte	0x1
 1965 0953 B80B0000 		.4byte	0xbb8
 1966 0957 1A       		.uleb128 0x1a
 1967 0958 BA000000 		.4byte	.LVL57
 1968 095c B6030000 		.4byte	0x3b6
 1969 0960 74090000 		.4byte	0x974
 1970 0964 18       		.uleb128 0x18
 1971 0965 01       		.byte	0x1
 1972 0966 51       		.byte	0x51
 1973 0967 05       		.byte	0x5
 1974 0968 03       		.byte	0x3
 1975 0969 54000000 		.4byte	.LC6
 1976 096d 18       		.uleb128 0x18
 1977 096e 01       		.byte	0x1
 1978 096f 50       		.byte	0x50
 1979 0970 02       		.byte	0x2
 1980 0971 74       		.byte	0x74
 1981 0972 00       		.sleb128 0
 1982 0973 00       		.byte	0
 1983 0974 24       		.uleb128 0x24
 1984 0975 C8000000 		.4byte	.LVL58
 1985 0979 01       		.byte	0x1
 1986 097a 680B0000 		.4byte	0xb68
 1987 097e 90090000 		.4byte	0x990
 1988 0982 18       		.uleb128 0x18
 1989 0983 01       		.byte	0x1
 1990 0984 51       		.byte	0x51
 1991 0985 03       		.byte	0x3
 1992 0986 0A       		.byte	0xa
 1993 0987 C119     		.2byte	0x19c1
 1994 0989 18       		.uleb128 0x18
 1995 098a 01       		.byte	0x1
 1996 098b 50       		.byte	0x50
 1997 098c 02       		.byte	0x2
 1998 098d 76       		.byte	0x76
 1999 098e 00       		.sleb128 0
 2000 098f 00       		.byte	0
 2001 0990 1A       		.uleb128 0x1a
 2002 0991 D0000000 		.4byte	.LVL59
 2003 0995 B6030000 		.4byte	0x3b6
 2004 0999 AD090000 		.4byte	0x9ad
ARM GAS  C:\Users\DNIEL~1\AppData\Local\Temp\ccuHRGJz.s 			page 37


 2005 099d 18       		.uleb128 0x18
 2006 099e 01       		.byte	0x1
 2007 099f 51       		.byte	0x51
 2008 09a0 05       		.byte	0x5
 2009 09a1 03       		.byte	0x3
 2010 09a2 88000000 		.4byte	.LC8
 2011 09a6 18       		.uleb128 0x18
 2012 09a7 01       		.byte	0x1
 2013 09a8 50       		.byte	0x50
 2014 09a9 02       		.byte	0x2
 2015 09aa 74       		.byte	0x74
 2016 09ab 00       		.sleb128 0
 2017 09ac 00       		.byte	0
 2018 09ad 1A       		.uleb128 0x1a
 2019 09ae DA000000 		.4byte	.LVL60
 2020 09b2 680B0000 		.4byte	0xb68
 2021 09b6 C8090000 		.4byte	0x9c8
 2022 09ba 18       		.uleb128 0x18
 2023 09bb 01       		.byte	0x1
 2024 09bc 51       		.byte	0x51
 2025 09bd 03       		.byte	0x3
 2026 09be 0A       		.byte	0xa
 2027 09bf C119     		.2byte	0x19c1
 2028 09c1 18       		.uleb128 0x18
 2029 09c2 01       		.byte	0x1
 2030 09c3 50       		.byte	0x50
 2031 09c4 02       		.byte	0x2
 2032 09c5 76       		.byte	0x76
 2033 09c6 00       		.sleb128 0
 2034 09c7 00       		.byte	0
 2035 09c8 1B       		.uleb128 0x1b
 2036 09c9 E6000000 		.4byte	.LVL61
 2037 09cd 01       		.byte	0x1
 2038 09ce 9F0B0000 		.4byte	0xb9f
 2039 09d2 18       		.uleb128 0x18
 2040 09d3 01       		.byte	0x1
 2041 09d4 51       		.byte	0x51
 2042 09d5 02       		.byte	0x2
 2043 09d6 76       		.byte	0x76
 2044 09d7 00       		.sleb128 0
 2045 09d8 18       		.uleb128 0x18
 2046 09d9 01       		.byte	0x1
 2047 09da 50       		.byte	0x50
 2048 09db 02       		.byte	0x2
 2049 09dc 76       		.byte	0x76
 2050 09dd 00       		.sleb128 0
 2051 09de 00       		.byte	0
 2052 09df 00       		.byte	0
 2053 09e0 1A       		.uleb128 0x1a
 2054 09e1 0E000000 		.4byte	.LVL38
 2055 09e5 B6030000 		.4byte	0x3b6
 2056 09e9 FD090000 		.4byte	0x9fd
 2057 09ed 18       		.uleb128 0x18
 2058 09ee 01       		.byte	0x1
 2059 09ef 51       		.byte	0x51
 2060 09f0 05       		.byte	0x5
 2061 09f1 03       		.byte	0x3
ARM GAS  C:\Users\DNIEL~1\AppData\Local\Temp\ccuHRGJz.s 			page 38


 2062 09f2 00000000 		.4byte	.LC0
 2063 09f6 18       		.uleb128 0x18
 2064 09f7 01       		.byte	0x1
 2065 09f8 50       		.byte	0x50
 2066 09f9 02       		.byte	0x2
 2067 09fa 74       		.byte	0x74
 2068 09fb 00       		.sleb128 0
 2069 09fc 00       		.byte	0
 2070 09fd 1A       		.uleb128 0x1a
 2071 09fe 16000000 		.4byte	.LVL39
 2072 0a02 B6030000 		.4byte	0x3b6
 2073 0a06 1A0A0000 		.4byte	0xa1a
 2074 0a0a 18       		.uleb128 0x18
 2075 0a0b 01       		.byte	0x1
 2076 0a0c 51       		.byte	0x51
 2077 0a0d 05       		.byte	0x5
 2078 0a0e 03       		.byte	0x3
 2079 0a0f 04000000 		.4byte	.LC1
 2080 0a13 18       		.uleb128 0x18
 2081 0a14 01       		.byte	0x1
 2082 0a15 50       		.byte	0x50
 2083 0a16 02       		.byte	0x2
 2084 0a17 74       		.byte	0x74
 2085 0a18 00       		.sleb128 0
 2086 0a19 00       		.byte	0
 2087 0a1a 25       		.uleb128 0x25
 2088 0a1b 20000000 		.4byte	.LVL40
 2089 0a1f 2F0A0000 		.4byte	0xa2f
 2090 0a23 18       		.uleb128 0x18
 2091 0a24 01       		.byte	0x1
 2092 0a25 51       		.byte	0x51
 2093 0a26 01       		.byte	0x1
 2094 0a27 30       		.byte	0x30
 2095 0a28 18       		.uleb128 0x18
 2096 0a29 01       		.byte	0x1
 2097 0a2a 50       		.byte	0x50
 2098 0a2b 02       		.byte	0x2
 2099 0a2c 74       		.byte	0x74
 2100 0a2d 00       		.sleb128 0
 2101 0a2e 00       		.byte	0
 2102 0a2f 1A       		.uleb128 0x1a
 2103 0a30 2C000000 		.4byte	.LVL42
 2104 0a34 B6030000 		.4byte	0x3b6
 2105 0a38 4C0A0000 		.4byte	0xa4c
 2106 0a3c 18       		.uleb128 0x18
 2107 0a3d 01       		.byte	0x1
 2108 0a3e 51       		.byte	0x51
 2109 0a3f 05       		.byte	0x5
 2110 0a40 03       		.byte	0x3
 2111 0a41 E4000000 		.4byte	.LC11
 2112 0a45 18       		.uleb128 0x18
 2113 0a46 01       		.byte	0x1
 2114 0a47 50       		.byte	0x50
 2115 0a48 02       		.byte	0x2
 2116 0a49 74       		.byte	0x74
 2117 0a4a 00       		.sleb128 0
 2118 0a4b 00       		.byte	0
ARM GAS  C:\Users\DNIEL~1\AppData\Local\Temp\ccuHRGJz.s 			page 39


 2119 0a4c 1A       		.uleb128 0x1a
 2120 0a4d 34000000 		.4byte	.LVL43
 2121 0a51 B6030000 		.4byte	0x3b6
 2122 0a55 690A0000 		.4byte	0xa69
 2123 0a59 18       		.uleb128 0x18
 2124 0a5a 01       		.byte	0x1
 2125 0a5b 51       		.byte	0x51
 2126 0a5c 05       		.byte	0x5
 2127 0a5d 03       		.byte	0x3
 2128 0a5e FC000000 		.4byte	.LC12
 2129 0a62 18       		.uleb128 0x18
 2130 0a63 01       		.byte	0x1
 2131 0a64 50       		.byte	0x50
 2132 0a65 02       		.byte	0x2
 2133 0a66 74       		.byte	0x74
 2134 0a67 00       		.sleb128 0
 2135 0a68 00       		.byte	0
 2136 0a69 1A       		.uleb128 0x1a
 2137 0a6a 3C000000 		.4byte	.LVL44
 2138 0a6e B6030000 		.4byte	0x3b6
 2139 0a72 860A0000 		.4byte	0xa86
 2140 0a76 18       		.uleb128 0x18
 2141 0a77 01       		.byte	0x1
 2142 0a78 51       		.byte	0x51
 2143 0a79 05       		.byte	0x5
 2144 0a7a 03       		.byte	0x3
 2145 0a7b 10010000 		.4byte	.LC13
 2146 0a7f 18       		.uleb128 0x18
 2147 0a80 01       		.byte	0x1
 2148 0a81 50       		.byte	0x50
 2149 0a82 02       		.byte	0x2
 2150 0a83 74       		.byte	0x74
 2151 0a84 00       		.sleb128 0
 2152 0a85 00       		.byte	0
 2153 0a86 1B       		.uleb128 0x1b
 2154 0a87 48000000 		.4byte	.LVL45
 2155 0a8b 01       		.byte	0x1
 2156 0a8c B6030000 		.4byte	0x3b6
 2157 0a90 18       		.uleb128 0x18
 2158 0a91 01       		.byte	0x1
 2159 0a92 51       		.byte	0x51
 2160 0a93 05       		.byte	0x5
 2161 0a94 03       		.byte	0x3
 2162 0a95 28010000 		.4byte	.LC14
 2163 0a99 18       		.uleb128 0x18
 2164 0a9a 01       		.byte	0x1
 2165 0a9b 50       		.byte	0x50
 2166 0a9c 02       		.byte	0x2
 2167 0a9d 74       		.byte	0x74
 2168 0a9e 00       		.sleb128 0
 2169 0a9f 00       		.byte	0
 2170 0aa0 00       		.byte	0
 2171 0aa1 06       		.uleb128 0x6
 2172 0aa2 04       		.byte	0x4
 2173 0aa3 A70A0000 		.4byte	0xaa7
 2174 0aa7 06       		.uleb128 0x6
 2175 0aa8 04       		.byte	0x4
ARM GAS  C:\Users\DNIEL~1\AppData\Local\Temp\ccuHRGJz.s 			page 40


 2176 0aa9 D7000000 		.4byte	0xd7
 2177 0aad 26       		.uleb128 0x26
 2178 0aae 69000000 		.4byte	0x69
 2179 0ab2 BD0A0000 		.4byte	0xabd
 2180 0ab6 27       		.uleb128 0x27
 2181 0ab7 C5000000 		.4byte	0xc5
 2182 0abb 0F       		.byte	0xf
 2183 0abc 00       		.byte	0
 2184 0abd 28       		.uleb128 0x28
 2185 0abe 39000000 		.4byte	.LASF57
 2186 0ac2 02       		.byte	0x2
 2187 0ac3 2E       		.byte	0x2e
 2188 0ac4 AD0A0000 		.4byte	0xaad
 2189 0ac8 28       		.uleb128 0x28
 2190 0ac9 B4010000 		.4byte	.LASF58
 2191 0acd 02       		.byte	0x2
 2192 0ace 2F       		.byte	0x2f
 2193 0acf 29000000 		.4byte	0x29
 2194 0ad3 29       		.uleb128 0x29
 2195 0ad4 7A030000 		.4byte	.LASF59
 2196 0ad8 0A       		.byte	0xa
 2197 0ad9 9806     		.2byte	0x698
 2198 0adb D2010000 		.4byte	0x1d2
 2199 0adf 01       		.byte	0x1
 2200 0ae0 01       		.byte	0x1
 2201 0ae1 2A       		.uleb128 0x2a
 2202 0ae2 EF000000 		.4byte	.LASF60
 2203 0ae6 02       		.byte	0x2
 2204 0ae7 19       		.byte	0x19
 2205 0ae8 36030000 		.4byte	0x336
 2206 0aec 01       		.byte	0x1
 2207 0aed 05       		.byte	0x5
 2208 0aee 03       		.byte	0x3
 2209 0aef 00000000 		.4byte	dspstate
 2210 0af3 2A       		.uleb128 0x2a
 2211 0af4 D4000000 		.4byte	.LASF61
 2212 0af8 02       		.byte	0x2
 2213 0af9 2C       		.byte	0x2c
 2214 0afa 4F030000 		.4byte	0x34f
 2215 0afe 01       		.byte	0x1
 2216 0aff 05       		.byte	0x5
 2217 0b00 03       		.byte	0x3
 2218 0b01 00000000 		.4byte	dspmessages
 2219 0b05 2A       		.uleb128 0x2a
 2220 0b06 23020000 		.4byte	.LASF62
 2221 0b0a 02       		.byte	0x2
 2222 0b0b 30       		.byte	0x30
 2223 0b0c 9B000000 		.4byte	0x9b
 2224 0b10 01       		.byte	0x1
 2225 0b11 05       		.byte	0x5
 2226 0b12 03       		.byte	0x3
 2227 0b13 00000000 		.4byte	dsp_activ
 2228 0b17 2B       		.uleb128 0x2b
 2229 0b18 6300     		.ascii	"c\000"
 2230 0b1a 02       		.byte	0x2
 2231 0b1b 31       		.byte	0x31
 2232 0b1c 49000000 		.4byte	0x49
ARM GAS  C:\Users\DNIEL~1\AppData\Local\Temp\ccuHRGJz.s 			page 41


 2233 0b20 01       		.byte	0x1
 2234 0b21 05       		.byte	0x5
 2235 0b22 03       		.byte	0x3
 2236 0b23 00000000 		.4byte	c
 2237 0b27 2B       		.uleb128 0x2b
 2238 0b28 646200   		.ascii	"db\000"
 2239 0b2b 02       		.byte	0x2
 2240 0b2c 33       		.byte	0x33
 2241 0b2d 29000000 		.4byte	0x29
 2242 0b31 01       		.byte	0x1
 2243 0b32 05       		.byte	0x5
 2244 0b33 03       		.byte	0x3
 2245 0b34 00000000 		.4byte	db
 2246 0b38 2B       		.uleb128 0x2b
 2247 0b39 64623200 		.ascii	"db2\000"
 2248 0b3d 02       		.byte	0x2
 2249 0b3e 34       		.byte	0x34
 2250 0b3f 29000000 		.4byte	0x29
 2251 0b43 01       		.byte	0x1
 2252 0b44 05       		.byte	0x5
 2253 0b45 03       		.byte	0x3
 2254 0b46 00000000 		.4byte	db2
 2255 0b4a 2C       		.uleb128 0x2c
 2256 0b4b 01       		.byte	0x1
 2257 0b4c C9030000 		.4byte	.LASF64
 2258 0b50 01       		.byte	0x1
 2259 0b51 28       		.byte	0x28
 2260 0b52 01       		.byte	0x1
 2261 0b53 01       		.byte	0x1
 2262 0b54 680B0000 		.4byte	0xb68
 2263 0b58 09       		.uleb128 0x9
 2264 0b59 19040000 		.4byte	0x419
 2265 0b5d 09       		.uleb128 0x9
 2266 0b5e CC000000 		.4byte	0xcc
 2267 0b62 09       		.uleb128 0x9
 2268 0b63 2B030000 		.4byte	0x32b
 2269 0b67 00       		.byte	0
 2270 0b68 2C       		.uleb128 0x2c
 2271 0b69 01       		.byte	0x1
 2272 0b6a CA020000 		.4byte	.LASF65
 2273 0b6e 0B       		.byte	0xb
 2274 0b6f 0E       		.byte	0xe
 2275 0b70 01       		.byte	0x1
 2276 0b71 01       		.byte	0x1
 2277 0b72 810B0000 		.4byte	0xb81
 2278 0b76 09       		.uleb128 0x9
 2279 0b77 29000000 		.4byte	0x29
 2280 0b7b 09       		.uleb128 0x9
 2281 0b7c 29000000 		.4byte	0x29
 2282 0b80 00       		.byte	0
 2283 0b81 2C       		.uleb128 0x2c
 2284 0b82 01       		.byte	0x1
 2285 0b83 10030000 		.4byte	.LASF66
 2286 0b87 0B       		.byte	0xb
 2287 0b88 16       		.byte	0x16
 2288 0b89 01       		.byte	0x1
 2289 0b8a 01       		.byte	0x1
ARM GAS  C:\Users\DNIEL~1\AppData\Local\Temp\ccuHRGJz.s 			page 42


 2290 0b8b 9F0B0000 		.4byte	0xb9f
 2291 0b8f 09       		.uleb128 0x9
 2292 0b90 29000000 		.4byte	0x29
 2293 0b94 09       		.uleb128 0x9
 2294 0b95 29000000 		.4byte	0x29
 2295 0b99 09       		.uleb128 0x9
 2296 0b9a 29000000 		.4byte	0x29
 2297 0b9e 00       		.byte	0
 2298 0b9f 2C       		.uleb128 0x2c
 2299 0ba0 01       		.byte	0x1
 2300 0ba1 2D030000 		.4byte	.LASF67
 2301 0ba5 0B       		.byte	0xb
 2302 0ba6 0D       		.byte	0xd
 2303 0ba7 01       		.byte	0x1
 2304 0ba8 01       		.byte	0x1
 2305 0ba9 B80B0000 		.4byte	0xbb8
 2306 0bad 09       		.uleb128 0x9
 2307 0bae 29000000 		.4byte	0x29
 2308 0bb2 09       		.uleb128 0x9
 2309 0bb3 29000000 		.4byte	0x29
 2310 0bb7 00       		.byte	0
 2311 0bb8 2D       		.uleb128 0x2d
 2312 0bb9 01       		.byte	0x1
 2313 0bba A7010000 		.4byte	.LASF68
 2314 0bbe 0B       		.byte	0xb
 2315 0bbf 0B       		.byte	0xb
 2316 0bc0 01       		.byte	0x1
 2317 0bc1 01       		.byte	0x1
 2318 0bc2 2D       		.uleb128 0x2d
 2319 0bc3 01       		.byte	0x1
 2320 0bc4 2F010000 		.4byte	.LASF69
 2321 0bc8 0B       		.byte	0xb
 2322 0bc9 0C       		.byte	0xc
 2323 0bca 01       		.byte	0x1
 2324 0bcb 01       		.byte	0x1
 2325 0bcc 2E       		.uleb128 0x2e
 2326 0bcd 01       		.byte	0x1
 2327 0bce 09030000 		.4byte	.LASF63
 2328 0bd2 09       		.byte	0x9
 2329 0bd3 00       		.byte	0
 2330 0bd4 01       		.byte	0x1
 2331 0bd5 29000000 		.4byte	0x29
 2332 0bd9 01       		.byte	0x1
 2333 0bda E90B0000 		.4byte	0xbe9
 2334 0bde 09       		.uleb128 0x9
 2335 0bdf CC000000 		.4byte	0xcc
 2336 0be3 09       		.uleb128 0x9
 2337 0be4 CC000000 		.4byte	0xcc
 2338 0be8 00       		.byte	0
 2339 0be9 2F       		.uleb128 0x2f
 2340 0bea 01       		.byte	0x1
 2341 0beb 51020000 		.4byte	.LASF77
 2342 0bef 0B       		.byte	0xb
 2343 0bf0 11       		.byte	0x11
 2344 0bf1 01       		.byte	0x1
 2345 0bf2 01       		.byte	0x1
 2346 0bf3 09       		.uleb128 0x9
ARM GAS  C:\Users\DNIEL~1\AppData\Local\Temp\ccuHRGJz.s 			page 43


 2347 0bf4 29000000 		.4byte	0x29
 2348 0bf8 00       		.byte	0
 2349 0bf9 00       		.byte	0
 2350              		.section	.debug_abbrev,"",%progbits
 2351              	.Ldebug_abbrev0:
 2352 0000 01       		.uleb128 0x1
 2353 0001 11       		.uleb128 0x11
 2354 0002 01       		.byte	0x1
 2355 0003 25       		.uleb128 0x25
 2356 0004 0E       		.uleb128 0xe
 2357 0005 13       		.uleb128 0x13
 2358 0006 0B       		.uleb128 0xb
 2359 0007 03       		.uleb128 0x3
 2360 0008 0E       		.uleb128 0xe
 2361 0009 1B       		.uleb128 0x1b
 2362 000a 0E       		.uleb128 0xe
 2363 000b 55       		.uleb128 0x55
 2364 000c 06       		.uleb128 0x6
 2365 000d 11       		.uleb128 0x11
 2366 000e 01       		.uleb128 0x1
 2367 000f 52       		.uleb128 0x52
 2368 0010 01       		.uleb128 0x1
 2369 0011 10       		.uleb128 0x10
 2370 0012 06       		.uleb128 0x6
 2371 0013 00       		.byte	0
 2372 0014 00       		.byte	0
 2373 0015 02       		.uleb128 0x2
 2374 0016 24       		.uleb128 0x24
 2375 0017 00       		.byte	0
 2376 0018 0B       		.uleb128 0xb
 2377 0019 0B       		.uleb128 0xb
 2378 001a 3E       		.uleb128 0x3e
 2379 001b 0B       		.uleb128 0xb
 2380 001c 03       		.uleb128 0x3
 2381 001d 08       		.uleb128 0x8
 2382 001e 00       		.byte	0
 2383 001f 00       		.byte	0
 2384 0020 03       		.uleb128 0x3
 2385 0021 16       		.uleb128 0x16
 2386 0022 00       		.byte	0
 2387 0023 03       		.uleb128 0x3
 2388 0024 0E       		.uleb128 0xe
 2389 0025 3A       		.uleb128 0x3a
 2390 0026 0B       		.uleb128 0xb
 2391 0027 3B       		.uleb128 0x3b
 2392 0028 0B       		.uleb128 0xb
 2393 0029 49       		.uleb128 0x49
 2394 002a 13       		.uleb128 0x13
 2395 002b 00       		.byte	0
 2396 002c 00       		.byte	0
 2397 002d 04       		.uleb128 0x4
 2398 002e 24       		.uleb128 0x24
 2399 002f 00       		.byte	0
 2400 0030 0B       		.uleb128 0xb
 2401 0031 0B       		.uleb128 0xb
 2402 0032 3E       		.uleb128 0x3e
 2403 0033 0B       		.uleb128 0xb
ARM GAS  C:\Users\DNIEL~1\AppData\Local\Temp\ccuHRGJz.s 			page 44


 2404 0034 03       		.uleb128 0x3
 2405 0035 0E       		.uleb128 0xe
 2406 0036 00       		.byte	0
 2407 0037 00       		.byte	0
 2408 0038 05       		.uleb128 0x5
 2409 0039 0F       		.uleb128 0xf
 2410 003a 00       		.byte	0
 2411 003b 0B       		.uleb128 0xb
 2412 003c 0B       		.uleb128 0xb
 2413 003d 00       		.byte	0
 2414 003e 00       		.byte	0
 2415 003f 06       		.uleb128 0x6
 2416 0040 0F       		.uleb128 0xf
 2417 0041 00       		.byte	0
 2418 0042 0B       		.uleb128 0xb
 2419 0043 0B       		.uleb128 0xb
 2420 0044 49       		.uleb128 0x49
 2421 0045 13       		.uleb128 0x13
 2422 0046 00       		.byte	0
 2423 0047 00       		.byte	0
 2424 0048 07       		.uleb128 0x7
 2425 0049 26       		.uleb128 0x26
 2426 004a 00       		.byte	0
 2427 004b 49       		.uleb128 0x49
 2428 004c 13       		.uleb128 0x13
 2429 004d 00       		.byte	0
 2430 004e 00       		.byte	0
 2431 004f 08       		.uleb128 0x8
 2432 0050 15       		.uleb128 0x15
 2433 0051 01       		.byte	0x1
 2434 0052 27       		.uleb128 0x27
 2435 0053 0C       		.uleb128 0xc
 2436 0054 49       		.uleb128 0x49
 2437 0055 13       		.uleb128 0x13
 2438 0056 01       		.uleb128 0x1
 2439 0057 13       		.uleb128 0x13
 2440 0058 00       		.byte	0
 2441 0059 00       		.byte	0
 2442 005a 09       		.uleb128 0x9
 2443 005b 05       		.uleb128 0x5
 2444 005c 00       		.byte	0
 2445 005d 49       		.uleb128 0x49
 2446 005e 13       		.uleb128 0x13
 2447 005f 00       		.byte	0
 2448 0060 00       		.byte	0
 2449 0061 0A       		.uleb128 0xa
 2450 0062 13       		.uleb128 0x13
 2451 0063 01       		.byte	0x1
 2452 0064 03       		.uleb128 0x3
 2453 0065 0E       		.uleb128 0xe
 2454 0066 0B       		.uleb128 0xb
 2455 0067 0B       		.uleb128 0xb
 2456 0068 3A       		.uleb128 0x3a
 2457 0069 0B       		.uleb128 0xb
 2458 006a 3B       		.uleb128 0x3b
 2459 006b 0B       		.uleb128 0xb
 2460 006c 01       		.uleb128 0x1
ARM GAS  C:\Users\DNIEL~1\AppData\Local\Temp\ccuHRGJz.s 			page 45


 2461 006d 13       		.uleb128 0x13
 2462 006e 00       		.byte	0
 2463 006f 00       		.byte	0
 2464 0070 0B       		.uleb128 0xb
 2465 0071 0D       		.uleb128 0xd
 2466 0072 00       		.byte	0
 2467 0073 03       		.uleb128 0x3
 2468 0074 0E       		.uleb128 0xe
 2469 0075 3A       		.uleb128 0x3a
 2470 0076 0B       		.uleb128 0xb
 2471 0077 3B       		.uleb128 0x3b
 2472 0078 0B       		.uleb128 0xb
 2473 0079 49       		.uleb128 0x49
 2474 007a 13       		.uleb128 0x13
 2475 007b 38       		.uleb128 0x38
 2476 007c 0A       		.uleb128 0xa
 2477 007d 00       		.byte	0
 2478 007e 00       		.byte	0
 2479 007f 0C       		.uleb128 0xc
 2480 0080 0D       		.uleb128 0xd
 2481 0081 00       		.byte	0
 2482 0082 03       		.uleb128 0x3
 2483 0083 08       		.uleb128 0x8
 2484 0084 3A       		.uleb128 0x3a
 2485 0085 0B       		.uleb128 0xb
 2486 0086 3B       		.uleb128 0x3b
 2487 0087 0B       		.uleb128 0xb
 2488 0088 49       		.uleb128 0x49
 2489 0089 13       		.uleb128 0x13
 2490 008a 38       		.uleb128 0x38
 2491 008b 0A       		.uleb128 0xa
 2492 008c 00       		.byte	0
 2493 008d 00       		.byte	0
 2494 008e 0D       		.uleb128 0xd
 2495 008f 13       		.uleb128 0x13
 2496 0090 01       		.byte	0x1
 2497 0091 0B       		.uleb128 0xb
 2498 0092 0B       		.uleb128 0xb
 2499 0093 3A       		.uleb128 0x3a
 2500 0094 0B       		.uleb128 0xb
 2501 0095 3B       		.uleb128 0x3b
 2502 0096 0B       		.uleb128 0xb
 2503 0097 01       		.uleb128 0x1
 2504 0098 13       		.uleb128 0x13
 2505 0099 00       		.byte	0
 2506 009a 00       		.byte	0
 2507 009b 0E       		.uleb128 0xe
 2508 009c 35       		.uleb128 0x35
 2509 009d 00       		.byte	0
 2510 009e 49       		.uleb128 0x49
 2511 009f 13       		.uleb128 0x13
 2512 00a0 00       		.byte	0
 2513 00a1 00       		.byte	0
 2514 00a2 0F       		.uleb128 0xf
 2515 00a3 0D       		.uleb128 0xd
 2516 00a4 00       		.byte	0
 2517 00a5 03       		.uleb128 0x3
ARM GAS  C:\Users\DNIEL~1\AppData\Local\Temp\ccuHRGJz.s 			page 46


 2518 00a6 0E       		.uleb128 0xe
 2519 00a7 49       		.uleb128 0x49
 2520 00a8 13       		.uleb128 0x13
 2521 00a9 38       		.uleb128 0x38
 2522 00aa 0A       		.uleb128 0xa
 2523 00ab 34       		.uleb128 0x34
 2524 00ac 0C       		.uleb128 0xc
 2525 00ad 00       		.byte	0
 2526 00ae 00       		.byte	0
 2527 00af 10       		.uleb128 0x10
 2528 00b0 04       		.uleb128 0x4
 2529 00b1 01       		.byte	0x1
 2530 00b2 03       		.uleb128 0x3
 2531 00b3 0E       		.uleb128 0xe
 2532 00b4 0B       		.uleb128 0xb
 2533 00b5 0B       		.uleb128 0xb
 2534 00b6 3A       		.uleb128 0x3a
 2535 00b7 0B       		.uleb128 0xb
 2536 00b8 3B       		.uleb128 0x3b
 2537 00b9 0B       		.uleb128 0xb
 2538 00ba 01       		.uleb128 0x1
 2539 00bb 13       		.uleb128 0x13
 2540 00bc 00       		.byte	0
 2541 00bd 00       		.byte	0
 2542 00be 11       		.uleb128 0x11
 2543 00bf 28       		.uleb128 0x28
 2544 00c0 00       		.byte	0
 2545 00c1 03       		.uleb128 0x3
 2546 00c2 0E       		.uleb128 0xe
 2547 00c3 1C       		.uleb128 0x1c
 2548 00c4 0D       		.uleb128 0xd
 2549 00c5 00       		.byte	0
 2550 00c6 00       		.byte	0
 2551 00c7 12       		.uleb128 0x12
 2552 00c8 2E       		.uleb128 0x2e
 2553 00c9 01       		.byte	0x1
 2554 00ca 03       		.uleb128 0x3
 2555 00cb 0E       		.uleb128 0xe
 2556 00cc 3A       		.uleb128 0x3a
 2557 00cd 0B       		.uleb128 0xb
 2558 00ce 3B       		.uleb128 0x3b
 2559 00cf 0B       		.uleb128 0xb
 2560 00d0 27       		.uleb128 0x27
 2561 00d1 0C       		.uleb128 0xc
 2562 00d2 11       		.uleb128 0x11
 2563 00d3 01       		.uleb128 0x1
 2564 00d4 12       		.uleb128 0x12
 2565 00d5 01       		.uleb128 0x1
 2566 00d6 40       		.uleb128 0x40
 2567 00d7 06       		.uleb128 0x6
 2568 00d8 9742     		.uleb128 0x2117
 2569 00da 0C       		.uleb128 0xc
 2570 00db 01       		.uleb128 0x1
 2571 00dc 13       		.uleb128 0x13
 2572 00dd 00       		.byte	0
 2573 00de 00       		.byte	0
 2574 00df 13       		.uleb128 0x13
ARM GAS  C:\Users\DNIEL~1\AppData\Local\Temp\ccuHRGJz.s 			page 47


 2575 00e0 05       		.uleb128 0x5
 2576 00e1 00       		.byte	0
 2577 00e2 03       		.uleb128 0x3
 2578 00e3 08       		.uleb128 0x8
 2579 00e4 3A       		.uleb128 0x3a
 2580 00e5 0B       		.uleb128 0xb
 2581 00e6 3B       		.uleb128 0x3b
 2582 00e7 0B       		.uleb128 0xb
 2583 00e8 49       		.uleb128 0x49
 2584 00e9 13       		.uleb128 0x13
 2585 00ea 02       		.uleb128 0x2
 2586 00eb 06       		.uleb128 0x6
 2587 00ec 00       		.byte	0
 2588 00ed 00       		.byte	0
 2589 00ee 14       		.uleb128 0x14
 2590 00ef 05       		.uleb128 0x5
 2591 00f0 00       		.byte	0
 2592 00f1 03       		.uleb128 0x3
 2593 00f2 08       		.uleb128 0x8
 2594 00f3 3A       		.uleb128 0x3a
 2595 00f4 0B       		.uleb128 0xb
 2596 00f5 3B       		.uleb128 0x3b
 2597 00f6 0B       		.uleb128 0xb
 2598 00f7 49       		.uleb128 0x49
 2599 00f8 13       		.uleb128 0x13
 2600 00f9 02       		.uleb128 0x2
 2601 00fa 0A       		.uleb128 0xa
 2602 00fb 00       		.byte	0
 2603 00fc 00       		.byte	0
 2604 00fd 15       		.uleb128 0x15
 2605 00fe 18       		.uleb128 0x18
 2606 00ff 00       		.byte	0
 2607 0100 00       		.byte	0
 2608 0101 00       		.byte	0
 2609 0102 16       		.uleb128 0x16
 2610 0103 34       		.uleb128 0x34
 2611 0104 00       		.byte	0
 2612 0105 03       		.uleb128 0x3
 2613 0106 08       		.uleb128 0x8
 2614 0107 3A       		.uleb128 0x3a
 2615 0108 0B       		.uleb128 0xb
 2616 0109 3B       		.uleb128 0x3b
 2617 010a 0B       		.uleb128 0xb
 2618 010b 49       		.uleb128 0x49
 2619 010c 13       		.uleb128 0x13
 2620 010d 02       		.uleb128 0x2
 2621 010e 0A       		.uleb128 0xa
 2622 010f 00       		.byte	0
 2623 0110 00       		.byte	0
 2624 0111 17       		.uleb128 0x17
 2625 0112 898201   		.uleb128 0x4109
 2626 0115 01       		.byte	0x1
 2627 0116 11       		.uleb128 0x11
 2628 0117 01       		.uleb128 0x1
 2629 0118 31       		.uleb128 0x31
 2630 0119 13       		.uleb128 0x13
 2631 011a 00       		.byte	0
ARM GAS  C:\Users\DNIEL~1\AppData\Local\Temp\ccuHRGJz.s 			page 48


 2632 011b 00       		.byte	0
 2633 011c 18       		.uleb128 0x18
 2634 011d 8A8201   		.uleb128 0x410a
 2635 0120 00       		.byte	0
 2636 0121 02       		.uleb128 0x2
 2637 0122 0A       		.uleb128 0xa
 2638 0123 9142     		.uleb128 0x2111
 2639 0125 0A       		.uleb128 0xa
 2640 0126 00       		.byte	0
 2641 0127 00       		.byte	0
 2642 0128 19       		.uleb128 0x19
 2643 0129 2E       		.uleb128 0x2e
 2644 012a 01       		.byte	0x1
 2645 012b 3F       		.uleb128 0x3f
 2646 012c 0C       		.uleb128 0xc
 2647 012d 03       		.uleb128 0x3
 2648 012e 0E       		.uleb128 0xe
 2649 012f 3A       		.uleb128 0x3a
 2650 0130 0B       		.uleb128 0xb
 2651 0131 3B       		.uleb128 0x3b
 2652 0132 0B       		.uleb128 0xb
 2653 0133 27       		.uleb128 0x27
 2654 0134 0C       		.uleb128 0xc
 2655 0135 11       		.uleb128 0x11
 2656 0136 01       		.uleb128 0x1
 2657 0137 12       		.uleb128 0x12
 2658 0138 01       		.uleb128 0x1
 2659 0139 40       		.uleb128 0x40
 2660 013a 06       		.uleb128 0x6
 2661 013b 9742     		.uleb128 0x2117
 2662 013d 0C       		.uleb128 0xc
 2663 013e 01       		.uleb128 0x1
 2664 013f 13       		.uleb128 0x13
 2665 0140 00       		.byte	0
 2666 0141 00       		.byte	0
 2667 0142 1A       		.uleb128 0x1a
 2668 0143 898201   		.uleb128 0x4109
 2669 0146 01       		.byte	0x1
 2670 0147 11       		.uleb128 0x11
 2671 0148 01       		.uleb128 0x1
 2672 0149 31       		.uleb128 0x31
 2673 014a 13       		.uleb128 0x13
 2674 014b 01       		.uleb128 0x1
 2675 014c 13       		.uleb128 0x13
 2676 014d 00       		.byte	0
 2677 014e 00       		.byte	0
 2678 014f 1B       		.uleb128 0x1b
 2679 0150 898201   		.uleb128 0x4109
 2680 0153 01       		.byte	0x1
 2681 0154 11       		.uleb128 0x11
 2682 0155 01       		.uleb128 0x1
 2683 0156 9542     		.uleb128 0x2115
 2684 0158 0C       		.uleb128 0xc
 2685 0159 31       		.uleb128 0x31
 2686 015a 13       		.uleb128 0x13
 2687 015b 00       		.byte	0
 2688 015c 00       		.byte	0
ARM GAS  C:\Users\DNIEL~1\AppData\Local\Temp\ccuHRGJz.s 			page 49


 2689 015d 1C       		.uleb128 0x1c
 2690 015e 898201   		.uleb128 0x4109
 2691 0161 00       		.byte	0
 2692 0162 11       		.uleb128 0x11
 2693 0163 01       		.uleb128 0x1
 2694 0164 31       		.uleb128 0x31
 2695 0165 13       		.uleb128 0x13
 2696 0166 00       		.byte	0
 2697 0167 00       		.byte	0
 2698 0168 1D       		.uleb128 0x1d
 2699 0169 898201   		.uleb128 0x4109
 2700 016c 00       		.byte	0
 2701 016d 11       		.uleb128 0x11
 2702 016e 01       		.uleb128 0x1
 2703 016f 9542     		.uleb128 0x2115
 2704 0171 0C       		.uleb128 0xc
 2705 0172 31       		.uleb128 0x31
 2706 0173 13       		.uleb128 0x13
 2707 0174 00       		.byte	0
 2708 0175 00       		.byte	0
 2709 0176 1E       		.uleb128 0x1e
 2710 0177 2E       		.uleb128 0x2e
 2711 0178 00       		.byte	0
 2712 0179 3F       		.uleb128 0x3f
 2713 017a 0C       		.uleb128 0xc
 2714 017b 03       		.uleb128 0x3
 2715 017c 0E       		.uleb128 0xe
 2716 017d 3A       		.uleb128 0x3a
 2717 017e 0B       		.uleb128 0xb
 2718 017f 3B       		.uleb128 0x3b
 2719 0180 0B       		.uleb128 0xb
 2720 0181 27       		.uleb128 0x27
 2721 0182 0C       		.uleb128 0xc
 2722 0183 11       		.uleb128 0x11
 2723 0184 01       		.uleb128 0x1
 2724 0185 12       		.uleb128 0x12
 2725 0186 01       		.uleb128 0x1
 2726 0187 40       		.uleb128 0x40
 2727 0188 0A       		.uleb128 0xa
 2728 0189 9742     		.uleb128 0x2117
 2729 018b 0C       		.uleb128 0xc
 2730 018c 00       		.byte	0
 2731 018d 00       		.byte	0
 2732 018e 1F       		.uleb128 0x1f
 2733 018f 05       		.uleb128 0x5
 2734 0190 00       		.byte	0
 2735 0191 03       		.uleb128 0x3
 2736 0192 0E       		.uleb128 0xe
 2737 0193 3A       		.uleb128 0x3a
 2738 0194 0B       		.uleb128 0xb
 2739 0195 3B       		.uleb128 0x3b
 2740 0196 0B       		.uleb128 0xb
 2741 0197 49       		.uleb128 0x49
 2742 0198 13       		.uleb128 0x13
 2743 0199 02       		.uleb128 0x2
 2744 019a 06       		.uleb128 0x6
 2745 019b 00       		.byte	0
ARM GAS  C:\Users\DNIEL~1\AppData\Local\Temp\ccuHRGJz.s 			page 50


 2746 019c 00       		.byte	0
 2747 019d 20       		.uleb128 0x20
 2748 019e 34       		.uleb128 0x34
 2749 019f 00       		.byte	0
 2750 01a0 03       		.uleb128 0x3
 2751 01a1 08       		.uleb128 0x8
 2752 01a2 3A       		.uleb128 0x3a
 2753 01a3 0B       		.uleb128 0xb
 2754 01a4 3B       		.uleb128 0x3b
 2755 01a5 0B       		.uleb128 0xb
 2756 01a6 49       		.uleb128 0x49
 2757 01a7 13       		.uleb128 0x13
 2758 01a8 00       		.byte	0
 2759 01a9 00       		.byte	0
 2760 01aa 21       		.uleb128 0x21
 2761 01ab 0A       		.uleb128 0xa
 2762 01ac 00       		.byte	0
 2763 01ad 03       		.uleb128 0x3
 2764 01ae 0E       		.uleb128 0xe
 2765 01af 3A       		.uleb128 0x3a
 2766 01b0 0B       		.uleb128 0xb
 2767 01b1 3B       		.uleb128 0x3b
 2768 01b2 0B       		.uleb128 0xb
 2769 01b3 11       		.uleb128 0x11
 2770 01b4 01       		.uleb128 0x1
 2771 01b5 00       		.byte	0
 2772 01b6 00       		.byte	0
 2773 01b7 22       		.uleb128 0x22
 2774 01b8 0B       		.uleb128 0xb
 2775 01b9 01       		.byte	0x1
 2776 01ba 55       		.uleb128 0x55
 2777 01bb 06       		.uleb128 0x6
 2778 01bc 01       		.uleb128 0x1
 2779 01bd 13       		.uleb128 0x13
 2780 01be 00       		.byte	0
 2781 01bf 00       		.byte	0
 2782 01c0 23       		.uleb128 0x23
 2783 01c1 2E       		.uleb128 0x2e
 2784 01c2 01       		.byte	0x1
 2785 01c3 3F       		.uleb128 0x3f
 2786 01c4 0C       		.uleb128 0xc
 2787 01c5 03       		.uleb128 0x3
 2788 01c6 0E       		.uleb128 0xe
 2789 01c7 3A       		.uleb128 0x3a
 2790 01c8 0B       		.uleb128 0xb
 2791 01c9 3B       		.uleb128 0x3b
 2792 01ca 0B       		.uleb128 0xb
 2793 01cb 49       		.uleb128 0x49
 2794 01cc 13       		.uleb128 0x13
 2795 01cd 3C       		.uleb128 0x3c
 2796 01ce 0C       		.uleb128 0xc
 2797 01cf 01       		.uleb128 0x1
 2798 01d0 13       		.uleb128 0x13
 2799 01d1 00       		.byte	0
 2800 01d2 00       		.byte	0
 2801 01d3 24       		.uleb128 0x24
 2802 01d4 898201   		.uleb128 0x4109
ARM GAS  C:\Users\DNIEL~1\AppData\Local\Temp\ccuHRGJz.s 			page 51


 2803 01d7 01       		.byte	0x1
 2804 01d8 11       		.uleb128 0x11
 2805 01d9 01       		.uleb128 0x1
 2806 01da 9542     		.uleb128 0x2115
 2807 01dc 0C       		.uleb128 0xc
 2808 01dd 31       		.uleb128 0x31
 2809 01de 13       		.uleb128 0x13
 2810 01df 01       		.uleb128 0x1
 2811 01e0 13       		.uleb128 0x13
 2812 01e1 00       		.byte	0
 2813 01e2 00       		.byte	0
 2814 01e3 25       		.uleb128 0x25
 2815 01e4 898201   		.uleb128 0x4109
 2816 01e7 01       		.byte	0x1
 2817 01e8 11       		.uleb128 0x11
 2818 01e9 01       		.uleb128 0x1
 2819 01ea 01       		.uleb128 0x1
 2820 01eb 13       		.uleb128 0x13
 2821 01ec 00       		.byte	0
 2822 01ed 00       		.byte	0
 2823 01ee 26       		.uleb128 0x26
 2824 01ef 01       		.uleb128 0x1
 2825 01f0 01       		.byte	0x1
 2826 01f1 49       		.uleb128 0x49
 2827 01f2 13       		.uleb128 0x13
 2828 01f3 01       		.uleb128 0x1
 2829 01f4 13       		.uleb128 0x13
 2830 01f5 00       		.byte	0
 2831 01f6 00       		.byte	0
 2832 01f7 27       		.uleb128 0x27
 2833 01f8 21       		.uleb128 0x21
 2834 01f9 00       		.byte	0
 2835 01fa 49       		.uleb128 0x49
 2836 01fb 13       		.uleb128 0x13
 2837 01fc 2F       		.uleb128 0x2f
 2838 01fd 0B       		.uleb128 0xb
 2839 01fe 00       		.byte	0
 2840 01ff 00       		.byte	0
 2841 0200 28       		.uleb128 0x28
 2842 0201 34       		.uleb128 0x34
 2843 0202 00       		.byte	0
 2844 0203 03       		.uleb128 0x3
 2845 0204 0E       		.uleb128 0xe
 2846 0205 3A       		.uleb128 0x3a
 2847 0206 0B       		.uleb128 0xb
 2848 0207 3B       		.uleb128 0x3b
 2849 0208 0B       		.uleb128 0xb
 2850 0209 49       		.uleb128 0x49
 2851 020a 13       		.uleb128 0x13
 2852 020b 00       		.byte	0
 2853 020c 00       		.byte	0
 2854 020d 29       		.uleb128 0x29
 2855 020e 34       		.uleb128 0x34
 2856 020f 00       		.byte	0
 2857 0210 03       		.uleb128 0x3
 2858 0211 0E       		.uleb128 0xe
 2859 0212 3A       		.uleb128 0x3a
ARM GAS  C:\Users\DNIEL~1\AppData\Local\Temp\ccuHRGJz.s 			page 52


 2860 0213 0B       		.uleb128 0xb
 2861 0214 3B       		.uleb128 0x3b
 2862 0215 05       		.uleb128 0x5
 2863 0216 49       		.uleb128 0x49
 2864 0217 13       		.uleb128 0x13
 2865 0218 3F       		.uleb128 0x3f
 2866 0219 0C       		.uleb128 0xc
 2867 021a 3C       		.uleb128 0x3c
 2868 021b 0C       		.uleb128 0xc
 2869 021c 00       		.byte	0
 2870 021d 00       		.byte	0
 2871 021e 2A       		.uleb128 0x2a
 2872 021f 34       		.uleb128 0x34
 2873 0220 00       		.byte	0
 2874 0221 03       		.uleb128 0x3
 2875 0222 0E       		.uleb128 0xe
 2876 0223 3A       		.uleb128 0x3a
 2877 0224 0B       		.uleb128 0xb
 2878 0225 3B       		.uleb128 0x3b
 2879 0226 0B       		.uleb128 0xb
 2880 0227 49       		.uleb128 0x49
 2881 0228 13       		.uleb128 0x13
 2882 0229 3F       		.uleb128 0x3f
 2883 022a 0C       		.uleb128 0xc
 2884 022b 02       		.uleb128 0x2
 2885 022c 0A       		.uleb128 0xa
 2886 022d 00       		.byte	0
 2887 022e 00       		.byte	0
 2888 022f 2B       		.uleb128 0x2b
 2889 0230 34       		.uleb128 0x34
 2890 0231 00       		.byte	0
 2891 0232 03       		.uleb128 0x3
 2892 0233 08       		.uleb128 0x8
 2893 0234 3A       		.uleb128 0x3a
 2894 0235 0B       		.uleb128 0xb
 2895 0236 3B       		.uleb128 0x3b
 2896 0237 0B       		.uleb128 0xb
 2897 0238 49       		.uleb128 0x49
 2898 0239 13       		.uleb128 0x13
 2899 023a 3F       		.uleb128 0x3f
 2900 023b 0C       		.uleb128 0xc
 2901 023c 02       		.uleb128 0x2
 2902 023d 0A       		.uleb128 0xa
 2903 023e 00       		.byte	0
 2904 023f 00       		.byte	0
 2905 0240 2C       		.uleb128 0x2c
 2906 0241 2E       		.uleb128 0x2e
 2907 0242 01       		.byte	0x1
 2908 0243 3F       		.uleb128 0x3f
 2909 0244 0C       		.uleb128 0xc
 2910 0245 03       		.uleb128 0x3
 2911 0246 0E       		.uleb128 0xe
 2912 0247 3A       		.uleb128 0x3a
 2913 0248 0B       		.uleb128 0xb
 2914 0249 3B       		.uleb128 0x3b
 2915 024a 0B       		.uleb128 0xb
 2916 024b 27       		.uleb128 0x27
ARM GAS  C:\Users\DNIEL~1\AppData\Local\Temp\ccuHRGJz.s 			page 53


 2917 024c 0C       		.uleb128 0xc
 2918 024d 3C       		.uleb128 0x3c
 2919 024e 0C       		.uleb128 0xc
 2920 024f 01       		.uleb128 0x1
 2921 0250 13       		.uleb128 0x13
 2922 0251 00       		.byte	0
 2923 0252 00       		.byte	0
 2924 0253 2D       		.uleb128 0x2d
 2925 0254 2E       		.uleb128 0x2e
 2926 0255 00       		.byte	0
 2927 0256 3F       		.uleb128 0x3f
 2928 0257 0C       		.uleb128 0xc
 2929 0258 03       		.uleb128 0x3
 2930 0259 0E       		.uleb128 0xe
 2931 025a 3A       		.uleb128 0x3a
 2932 025b 0B       		.uleb128 0xb
 2933 025c 3B       		.uleb128 0x3b
 2934 025d 0B       		.uleb128 0xb
 2935 025e 27       		.uleb128 0x27
 2936 025f 0C       		.uleb128 0xc
 2937 0260 3C       		.uleb128 0x3c
 2938 0261 0C       		.uleb128 0xc
 2939 0262 00       		.byte	0
 2940 0263 00       		.byte	0
 2941 0264 2E       		.uleb128 0x2e
 2942 0265 2E       		.uleb128 0x2e
 2943 0266 01       		.byte	0x1
 2944 0267 3F       		.uleb128 0x3f
 2945 0268 0C       		.uleb128 0xc
 2946 0269 03       		.uleb128 0x3
 2947 026a 0E       		.uleb128 0xe
 2948 026b 3A       		.uleb128 0x3a
 2949 026c 0B       		.uleb128 0xb
 2950 026d 3B       		.uleb128 0x3b
 2951 026e 0B       		.uleb128 0xb
 2952 026f 27       		.uleb128 0x27
 2953 0270 0C       		.uleb128 0xc
 2954 0271 49       		.uleb128 0x49
 2955 0272 13       		.uleb128 0x13
 2956 0273 3C       		.uleb128 0x3c
 2957 0274 0C       		.uleb128 0xc
 2958 0275 01       		.uleb128 0x1
 2959 0276 13       		.uleb128 0x13
 2960 0277 00       		.byte	0
 2961 0278 00       		.byte	0
 2962 0279 2F       		.uleb128 0x2f
 2963 027a 2E       		.uleb128 0x2e
 2964 027b 01       		.byte	0x1
 2965 027c 3F       		.uleb128 0x3f
 2966 027d 0C       		.uleb128 0xc
 2967 027e 03       		.uleb128 0x3
 2968 027f 0E       		.uleb128 0xe
 2969 0280 3A       		.uleb128 0x3a
 2970 0281 0B       		.uleb128 0xb
 2971 0282 3B       		.uleb128 0x3b
 2972 0283 0B       		.uleb128 0xb
 2973 0284 27       		.uleb128 0x27
ARM GAS  C:\Users\DNIEL~1\AppData\Local\Temp\ccuHRGJz.s 			page 54


 2974 0285 0C       		.uleb128 0xc
 2975 0286 3C       		.uleb128 0x3c
 2976 0287 0C       		.uleb128 0xc
 2977 0288 00       		.byte	0
 2978 0289 00       		.byte	0
 2979 028a 00       		.byte	0
 2980              		.section	.debug_loc,"",%progbits
 2981              	.Ldebug_loc0:
 2982              	.LLST0:
 2983 0000 00000000 		.4byte	.LFB118
 2984 0004 02000000 		.4byte	.LCFI0
 2985 0008 0200     		.2byte	0x2
 2986 000a 7D       		.byte	0x7d
 2987 000b 00       		.sleb128 0
 2988 000c 02000000 		.4byte	.LCFI0
 2989 0010 04000000 		.4byte	.LCFI1
 2990 0014 0200     		.2byte	0x2
 2991 0016 7D       		.byte	0x7d
 2992 0017 0C       		.sleb128 12
 2993 0018 04000000 		.4byte	.LCFI1
 2994 001c 06000000 		.4byte	.LCFI2
 2995 0020 0200     		.2byte	0x2
 2996 0022 7D       		.byte	0x7d
 2997 0023 10       		.sleb128 16
 2998 0024 06000000 		.4byte	.LCFI2
 2999 0028 1E000000 		.4byte	.LFE118
 3000 002c 0200     		.2byte	0x2
 3001 002e 7D       		.byte	0x7d
 3002 002f 18       		.sleb128 24
 3003 0030 00000000 		.4byte	0
 3004 0034 00000000 		.4byte	0
 3005              	.LLST1:
 3006 0038 00000000 		.4byte	.LVL0
 3007 003c 13000000 		.4byte	.LVL1-1
 3008 0040 0100     		.2byte	0x1
 3009 0042 50       		.byte	0x50
 3010 0043 13000000 		.4byte	.LVL1-1
 3011 0047 1E000000 		.4byte	.LFE118
 3012 004b 0400     		.2byte	0x4
 3013 004d F3       		.byte	0xf3
 3014 004e 01       		.uleb128 0x1
 3015 004f 50       		.byte	0x50
 3016 0050 9F       		.byte	0x9f
 3017 0051 00000000 		.4byte	0
 3018 0055 00000000 		.4byte	0
 3019              	.LLST2:
 3020 0059 00000000 		.4byte	.LFB119
 3021 005d 02000000 		.4byte	.LCFI3
 3022 0061 0200     		.2byte	0x2
 3023 0063 7D       		.byte	0x7d
 3024 0064 00       		.sleb128 0
 3025 0065 02000000 		.4byte	.LCFI3
 3026 0069 D2000000 		.4byte	.LFE119
 3027 006d 0200     		.2byte	0x2
 3028 006f 7D       		.byte	0x7d
 3029 0070 08       		.sleb128 8
 3030 0071 00000000 		.4byte	0
ARM GAS  C:\Users\DNIEL~1\AppData\Local\Temp\ccuHRGJz.s 			page 55


 3031 0075 00000000 		.4byte	0
 3032              	.LLST3:
 3033 0079 00000000 		.4byte	.LFB120
 3034 007d 02000000 		.4byte	.LCFI4
 3035 0081 0200     		.2byte	0x2
 3036 0083 7D       		.byte	0x7d
 3037 0084 00       		.sleb128 0
 3038 0085 02000000 		.4byte	.LCFI4
 3039 0089 68000000 		.4byte	.LFE120
 3040 008d 0200     		.2byte	0x2
 3041 008f 7D       		.byte	0x7d
 3042 0090 08       		.sleb128 8
 3043 0091 00000000 		.4byte	0
 3044 0095 00000000 		.4byte	0
 3045              	.LLST4:
 3046 0099 00000000 		.4byte	.LFB121
 3047 009d 02000000 		.4byte	.LCFI5
 3048 00a1 0200     		.2byte	0x2
 3049 00a3 7D       		.byte	0x7d
 3050 00a4 00       		.sleb128 0
 3051 00a5 02000000 		.4byte	.LCFI5
 3052 00a9 16000000 		.4byte	.LFE121
 3053 00ad 0200     		.2byte	0x2
 3054 00af 7D       		.byte	0x7d
 3055 00b0 08       		.sleb128 8
 3056 00b1 00000000 		.4byte	0
 3057 00b5 00000000 		.4byte	0
 3058              	.LLST5:
 3059 00b9 00000000 		.4byte	.LFB123
 3060 00bd 02000000 		.4byte	.LCFI6
 3061 00c1 0200     		.2byte	0x2
 3062 00c3 7D       		.byte	0x7d
 3063 00c4 00       		.sleb128 0
 3064 00c5 02000000 		.4byte	.LCFI6
 3065 00c9 24010000 		.4byte	.LFE123
 3066 00cd 0200     		.2byte	0x2
 3067 00cf 7D       		.byte	0x7d
 3068 00d0 10       		.sleb128 16
 3069 00d1 00000000 		.4byte	0
 3070 00d5 00000000 		.4byte	0
 3071              	.LLST6:
 3072 00d9 00000000 		.4byte	.LVL36
 3073 00dd 0D000000 		.4byte	.LVL38-1
 3074 00e1 0100     		.2byte	0x1
 3075 00e3 50       		.byte	0x50
 3076 00e4 0D000000 		.4byte	.LVL38-1
 3077 00e8 24010000 		.4byte	.LFE123
 3078 00ec 0100     		.2byte	0x1
 3079 00ee 54       		.byte	0x54
 3080 00ef 00000000 		.4byte	0
 3081 00f3 00000000 		.4byte	0
 3082              	.LLST7:
 3083 00f7 00000000 		.4byte	.LVL36
 3084 00fb 08000000 		.4byte	.LVL37
 3085 00ff 0100     		.2byte	0x1
 3086 0101 51       		.byte	0x51
 3087 0102 08000000 		.4byte	.LVL37
ARM GAS  C:\Users\DNIEL~1\AppData\Local\Temp\ccuHRGJz.s 			page 56


 3088 0106 24000000 		.4byte	.LVL41
 3089 010a 0100     		.2byte	0x1
 3090 010c 55       		.byte	0x55
 3091 010d 24000000 		.4byte	.LVL41
 3092 0111 48000000 		.4byte	.LVL45
 3093 0115 0400     		.2byte	0x4
 3094 0117 F3       		.byte	0xf3
 3095 0118 01       		.uleb128 0x1
 3096 0119 51       		.byte	0x51
 3097 011a 9F       		.byte	0x9f
 3098 011b 48000000 		.4byte	.LVL45
 3099 011f 5A000000 		.4byte	.LVL47
 3100 0123 0100     		.2byte	0x1
 3101 0125 55       		.byte	0x55
 3102 0126 5A000000 		.4byte	.LVL47
 3103 012a 24010000 		.4byte	.LFE123
 3104 012e 0400     		.2byte	0x4
 3105 0130 F3       		.byte	0xf3
 3106 0131 01       		.uleb128 0x1
 3107 0132 51       		.byte	0x51
 3108 0133 9F       		.byte	0x9f
 3109 0134 00000000 		.4byte	0
 3110 0138 00000000 		.4byte	0
 3111              	.LLST8:
 3112 013c 00000000 		.4byte	.LVL36
 3113 0140 0D000000 		.4byte	.LVL38-1
 3114 0144 0100     		.2byte	0x1
 3115 0146 52       		.byte	0x52
 3116 0147 0D000000 		.4byte	.LVL38-1
 3117 014b 24000000 		.4byte	.LVL41
 3118 014f 0100     		.2byte	0x1
 3119 0151 56       		.byte	0x56
 3120 0152 24000000 		.4byte	.LVL41
 3121 0156 48000000 		.4byte	.LVL45
 3122 015a 0400     		.2byte	0x4
 3123 015c F3       		.byte	0xf3
 3124 015d 01       		.uleb128 0x1
 3125 015e 52       		.byte	0x52
 3126 015f 9F       		.byte	0x9f
 3127 0160 48000000 		.4byte	.LVL45
 3128 0164 70000000 		.4byte	.LVL50
 3129 0168 0100     		.2byte	0x1
 3130 016a 56       		.byte	0x56
 3131 016b 70000000 		.4byte	.LVL50
 3132 016f A2000000 		.4byte	.LVL54
 3133 0173 0400     		.2byte	0x4
 3134 0175 F3       		.byte	0xf3
 3135 0176 01       		.uleb128 0x1
 3136 0177 52       		.byte	0x52
 3137 0178 9F       		.byte	0x9f
 3138 0179 A2000000 		.4byte	.LVL54
 3139 017d B2000000 		.4byte	.LVL56
 3140 0181 0100     		.2byte	0x1
 3141 0183 56       		.byte	0x56
 3142 0184 B2000000 		.4byte	.LVL56
 3143 0188 24010000 		.4byte	.LFE123
 3144 018c 0400     		.2byte	0x4
ARM GAS  C:\Users\DNIEL~1\AppData\Local\Temp\ccuHRGJz.s 			page 57


 3145 018e F3       		.byte	0xf3
 3146 018f 01       		.uleb128 0x1
 3147 0190 52       		.byte	0x52
 3148 0191 9F       		.byte	0x9f
 3149 0192 00000000 		.4byte	0
 3150 0196 00000000 		.4byte	0
 3151              		.section	.debug_aranges,"",%progbits
 3152 0000 44000000 		.4byte	0x44
 3153 0004 0200     		.2byte	0x2
 3154 0006 00000000 		.4byte	.Ldebug_info0
 3155 000a 04       		.byte	0x4
 3156 000b 00       		.byte	0
 3157 000c 0000     		.2byte	0
 3158 000e 0000     		.2byte	0
 3159 0010 00000000 		.4byte	.LFB118
 3160 0014 1E000000 		.4byte	.LFE118-.LFB118
 3161 0018 00000000 		.4byte	.LFB119
 3162 001c D2000000 		.4byte	.LFE119-.LFB119
 3163 0020 00000000 		.4byte	.LFB120
 3164 0024 68000000 		.4byte	.LFE120-.LFB120
 3165 0028 00000000 		.4byte	.LFB121
 3166 002c 16000000 		.4byte	.LFE121-.LFB121
 3167 0030 00000000 		.4byte	.LFB122
 3168 0034 02000000 		.4byte	.LFE122-.LFB122
 3169 0038 00000000 		.4byte	.LFB123
 3170 003c 24010000 		.4byte	.LFE123-.LFB123
 3171 0040 00000000 		.4byte	0
 3172 0044 00000000 		.4byte	0
 3173              		.section	.debug_ranges,"",%progbits
 3174              	.Ldebug_ranges0:
 3175 0000 48000000 		.4byte	.LBB2
 3176 0004 9A000000 		.4byte	.LBE2
 3177 0008 9E000000 		.4byte	.LBB3
 3178 000c AA000000 		.4byte	.LBE3
 3179 0010 AE000000 		.4byte	.LBB4
 3180 0014 C0000000 		.4byte	.LBE4
 3181 0018 C4000000 		.4byte	.LBB5
 3182 001c DE000000 		.4byte	.LBE5
 3183 0020 E2000000 		.4byte	.LBB6
 3184 0024 24010000 		.4byte	.LBE6
 3185 0028 00000000 		.4byte	0
 3186 002c 00000000 		.4byte	0
 3187 0030 00000000 		.4byte	.LFB118
 3188 0034 1E000000 		.4byte	.LFE118
 3189 0038 00000000 		.4byte	.LFB119
 3190 003c D2000000 		.4byte	.LFE119
 3191 0040 00000000 		.4byte	.LFB120
 3192 0044 68000000 		.4byte	.LFE120
 3193 0048 00000000 		.4byte	.LFB121
 3194 004c 16000000 		.4byte	.LFE121
 3195 0050 00000000 		.4byte	.LFB122
 3196 0054 02000000 		.4byte	.LFE122
 3197 0058 00000000 		.4byte	.LFB123
 3198 005c 24010000 		.4byte	.LFE123
 3199 0060 00000000 		.4byte	0
 3200 0064 00000000 		.4byte	0
 3201              		.section	.debug_line,"",%progbits
ARM GAS  C:\Users\DNIEL~1\AppData\Local\Temp\ccuHRGJz.s 			page 58


 3202              	.Ldebug_line0:
 3203 0000 2D030000 		.section	.debug_str,"MS",%progbits,1
 3203      02004302 
 3203      00000201 
 3203      FB0E0D00 
 3203      01010101 
 3204              	.LASF45:
 3205 0000 4453505F 		.ascii	"DSP_x10_VOLTAGE\000"
 3205      7831305F 
 3205      564F4C54 
 3205      41474500 
 3206              	.LASF19:
 3207 0010 77726974 		.ascii	"write\000"
 3207      6500
 3208              	.LASF41:
 3209 0016 4453505F 		.ascii	"DSP_x01_AVG_SPEED\000"
 3209      7830315F 
 3209      4156475F 
 3209      53504545 
 3209      4400
 3210              	.LASF5:
 3211 0028 73686F72 		.ascii	"short int\000"
 3211      7420696E 
 3211      7400
 3212              	.LASF2:
 3213 0032 73697A65 		.ascii	"size_t\000"
 3213      5F7400
 3214              	.LASF57:
 3215 0039 64737056 		.ascii	"dspValue\000"
 3215      616C7565 
 3215      00
 3216              	.LASF17:
 3217 0042 73697A65 		.ascii	"sizetype\000"
 3217      74797065 
 3217      00
 3218              	.LASF70:
 3219 004b 474E5520 		.ascii	"GNU C 4.7.4 20140401 (release) [ARM/embedded-4_7-br"
 3219      4320342E 
 3219      372E3420 
 3219      32303134 
 3219      30343031 
 3220 007e 616E6368 		.ascii	"anch revision 209195]\000"
 3220      20726576 
 3220      6973696F 
 3220      6E203230 
 3220      39313935 
 3221              	.LASF72:
 3222 0094 433A5C55 		.ascii	"C:\\Users\\D\341niel\\git\\Smarty\\smarty\\firmware"
 3222      73657273 
 3222      5C44E16E 
 3222      69656C5C 
 3222      6769745C 
 3223 00be 00       		.ascii	"\000"
 3224              	.LASF21:
 3225 00bf 42617365 		.ascii	"BaseSequentialStream\000"
 3225      53657175 
 3225      656E7469 
ARM GAS  C:\Users\DNIEL~1\AppData\Local\Temp\ccuHRGJz.s 			page 59


 3225      616C5374 
 3225      7265616D 
 3226              	.LASF61:
 3227 00d4 6473706D 		.ascii	"dspmessages\000"
 3227      65737361 
 3227      67657300 
 3228              	.LASF31:
 3229 00e0 76615F6C 		.ascii	"va_list\000"
 3229      69737400 
 3230              	.LASF26:
 3231 00e8 77726974 		.ascii	"writet\000"
 3231      657400
 3232              	.LASF60:
 3233 00ef 64737073 		.ascii	"dspstate\000"
 3233      74617465 
 3233      00
 3234              	.LASF32:
 3235 00f8 4453505F 		.ascii	"DSP_WAITING\000"
 3235      57414954 
 3235      494E4700 
 3236              	.LASF3:
 3237 0104 75696E74 		.ascii	"uint8_t\000"
 3237      385F7400 
 3238              	.LASF9:
 3239 010c 75696E74 		.ascii	"uint32_t\000"
 3239      33325F74 
 3239      00
 3240              	.LASF23:
 3241 0115 42617365 		.ascii	"BaseChannelVMT\000"
 3241      4368616E 
 3241      6E656C56 
 3241      4D5400
 3242              	.LASF49:
 3243 0124 4453505F 		.ascii	"DSP_x1_ETM\000"
 3243      78315F45 
 3243      544D00
 3244              	.LASF69:
 3245 012f 66696C65 		.ascii	"file_Mount\000"
 3245      5F4D6F75 
 3245      6E7400
 3246              	.LASF20:
 3247 013a 72656164 		.ascii	"read\000"
 3247      00
 3248              	.LASF50:
 3249 013f 4453505F 		.ascii	"DSP_NUM_MSG\000"
 3249      4E554D5F 
 3249      4D534700 
 3250              	.LASF11:
 3251 014b 6C6F6E67 		.ascii	"long long int\000"
 3251      206C6F6E 
 3251      6720696E 
 3251      7400
 3252              	.LASF44:
 3253 0159 4453505F 		.ascii	"DSP_x1_CHT\000"
 3253      78315F43 
 3253      485400
 3254              	.LASF30:
ARM GAS  C:\Users\DNIEL~1\AppData\Local\Temp\ccuHRGJz.s 			page 60


 3255 0164 5F5F7661 		.ascii	"__va_list\000"
 3255      5F6C6973 
 3255      7400
 3256              	.LASF8:
 3257 016e 6C6F6E67 		.ascii	"long int\000"
 3257      20696E74 
 3257      00
 3258              	.LASF36:
 3259 0177 4453505F 		.ascii	"DSP_SPEED\000"
 3259      53504545 
 3259      4400
 3260              	.LASF25:
 3261 0181 67657474 		.ascii	"gett\000"
 3261      00
 3262              	.LASF71:
 3263 0186 7372632F 		.ascii	"src/dsp.c\000"
 3263      6473702E 
 3263      6300
 3264              	.LASF40:
 3265 0190 4453505F 		.ascii	"DSP_x1_AVG_SPEED\000"
 3265      78315F41 
 3265      56475F53 
 3265      50454544 
 3265      00
 3266              	.LASF76:
 3267 01a1 4552524F 		.ascii	"ERROR\000"
 3267      5200
 3268              	.LASF68:
 3269 01a7 6766785F 		.ascii	"gfx_Cls\000"
 3269      436C7300 
 3270              	.LASF56:
 3271 01af 61726776 		.ascii	"argv\000"
 3271      00
 3272              	.LASF58:
 3273 01b4 7461736B 		.ascii	"tasknumber\000"
 3273      6E756D62 
 3273      657200
 3274              	.LASF4:
 3275 01bf 756E7369 		.ascii	"unsigned char\000"
 3275      676E6564 
 3275      20636861 
 3275      7200
 3276              	.LASF55:
 3277 01cd 61726763 		.ascii	"argc\000"
 3277      00
 3278              	.LASF1:
 3279 01d2 7369676E 		.ascii	"signed char\000"
 3279      65642063 
 3279      68617200 
 3280              	.LASF12:
 3281 01de 6C6F6E67 		.ascii	"long long unsigned int\000"
 3281      206C6F6E 
 3281      6720756E 
 3281      7369676E 
 3281      65642069 
 3282              	.LASF47:
 3283 01f5 4453505F 		.ascii	"DSP_x01_VOLTAGE\000"
ARM GAS  C:\Users\DNIEL~1\AppData\Local\Temp\ccuHRGJz.s 			page 61


 3283      7830315F 
 3283      564F4C54 
 3283      41474500 
 3284              	.LASF0:
 3285 0205 756E7369 		.ascii	"unsigned int\000"
 3285      676E6564 
 3285      20696E74 
 3285      00
 3286              	.LASF73:
 3287 0212 5F5F6170 		.ascii	"__ap\000"
 3287      00
 3288              	.LASF33:
 3289 0217 4453505F 		.ascii	"DSP_RUNNING\000"
 3289      52554E4E 
 3289      494E4700 
 3290              	.LASF62:
 3291 0223 6473705F 		.ascii	"dsp_activ\000"
 3291      61637469 
 3291      7600
 3292              	.LASF24:
 3293 022d 70757474 		.ascii	"putt\000"
 3293      00
 3294              	.LASF51:
 3295 0232 6473705F 		.ascii	"dsp_LoadTop\000"
 3295      4C6F6164 
 3295      546F7000 
 3296              	.LASF6:
 3297 023e 73686F72 		.ascii	"short unsigned int\000"
 3297      7420756E 
 3297      7369676E 
 3297      65642069 
 3297      6E7400
 3298              	.LASF77:
 3299 0251 6766785F 		.ascii	"gfx_BGcolour\000"
 3299      4247636F 
 3299      6C6F7572 
 3299      00
 3300              	.LASF75:
 3301 025e 64737043 		.ascii	"dspCalc\000"
 3301      616C6300 
 3302              	.LASF16:
 3303 0266 73797374 		.ascii	"systime_t\000"
 3303      696D655F 
 3303      7400
 3304              	.LASF27:
 3305 0270 72656164 		.ascii	"readt\000"
 3305      7400
 3306              	.LASF18:
 3307 0276 63686172 		.ascii	"char\000"
 3307      00
 3308              	.LASF37:
 3309 027b 4453505F 		.ascii	"DSP_x10_SPEED\000"
 3309      7831305F 
 3309      53504545 
 3309      4400
 3310              	.LASF7:
 3311 0289 696E7433 		.ascii	"int32_t\000"
ARM GAS  C:\Users\DNIEL~1\AppData\Local\Temp\ccuHRGJz.s 			page 62


 3311      325F7400 
 3312              	.LASF54:
 3313 0291 636D6466 		.ascii	"cmdfrappans_dspmessages\000"
 3313      72617070 
 3313      616E735F 
 3313      6473706D 
 3313      65737361 
 3314              	.LASF39:
 3315 02a9 4453505F 		.ascii	"DSP_x10_AVG_SPEED\000"
 3315      7831305F 
 3315      4156475F 
 3315      53504545 
 3315      4400
 3316              	.LASF14:
 3317 02bb 5F426F6F 		.ascii	"_Bool\000"
 3317      6C00
 3318              	.LASF74:
 3319 02c1 63687072 		.ascii	"chprintf\000"
 3319      696E7466 
 3319      00
 3320              	.LASF65:
 3321 02ca 6D656469 		.ascii	"media_SetSector\000"
 3321      615F5365 
 3321      74536563 
 3321      746F7200 
 3322              	.LASF10:
 3323 02da 6C6F6E67 		.ascii	"long unsigned int\000"
 3323      20756E73 
 3323      69676E65 
 3323      6420696E 
 3323      7400
 3324              	.LASF46:
 3325 02ec 4453505F 		.ascii	"DSP_x1_VOLTAGE\000"
 3325      78315F56 
 3325      4F4C5441 
 3325      474500
 3326              	.LASF52:
 3327 02fb 6473705F 		.ascii	"dsp_LoadMidle\000"
 3327      4C6F6164 
 3327      4D69646C 
 3327      6500
 3328              	.LASF63:
 3329 0309 73747263 		.ascii	"strcmp\000"
 3329      6D7000
 3330              	.LASF66:
 3331 0310 6D656469 		.ascii	"media_VideoFrame\000"
 3331      615F5669 
 3331      64656F46 
 3331      72616D65 
 3331      00
 3332              	.LASF35:
 3333 0321 6473704D 		.ascii	"dspMessages\000"
 3333      65737361 
 3333      67657300 
 3334              	.LASF67:
 3335 032d 6D656469 		.ascii	"media_Image\000"
 3335      615F496D 
ARM GAS  C:\Users\DNIEL~1\AppData\Local\Temp\ccuHRGJz.s 			page 63


 3335      61676500 
 3336              	.LASF29:
 3337 0339 5F5F676E 		.ascii	"__gnuc_va_list\000"
 3337      75635F76 
 3337      615F6C69 
 3337      737400
 3338              	.LASF38:
 3339 0348 4453505F 		.ascii	"DSP_x1_SPEED\000"
 3339      78315F53 
 3339      50454544 
 3339      00
 3340              	.LASF28:
 3341 0355 42617365 		.ascii	"BaseChannel\000"
 3341      4368616E 
 3341      6E656C00 
 3342              	.LASF48:
 3343 0361 4453505F 		.ascii	"DSP_x10_ETM\000"
 3343      7831305F 
 3343      45544D00 
 3344              	.LASF42:
 3345 036d 4453505F 		.ascii	"DSP_x100_CHT\000"
 3345      78313030 
 3345      5F434854 
 3345      00
 3346              	.LASF59:
 3347 037a 49544D5F 		.ascii	"ITM_RxBuffer\000"
 3347      52784275 
 3347      66666572 
 3347      00
 3348              	.LASF53:
 3349 0387 64737049 		.ascii	"dspInit\000"
 3349      6E697400 
 3350              	.LASF43:
 3351 038f 4453505F 		.ascii	"DSP_x10_CHT\000"
 3351      7831305F 
 3351      43485400 
 3352              	.LASF15:
 3353 039b 6D73675F 		.ascii	"msg_t\000"
 3353      7400
 3354              	.LASF13:
 3355 03a1 626F6F6C 		.ascii	"bool_t\000"
 3355      5F7400
 3356              	.LASF34:
 3357 03a8 64737053 		.ascii	"dspState\000"
 3357      74617465 
 3357      00
 3358              	.LASF22:
 3359 03b1 42617365 		.ascii	"BaseSequentialStreamVMT\000"
 3359      53657175 
 3359      656E7469 
 3359      616C5374 
 3359      7265616D 
 3360              	.LASF64:
 3361 03c9 63687670 		.ascii	"chvprintf\000"
 3361      72696E74 
 3361      6600
 3362              		.ident	"GCC: (GNU Tools for ARM Embedded Processors) 4.7.4 20140401 (release) [ARM/embedded-4_7-br
ARM GAS  C:\Users\DNIEL~1\AppData\Local\Temp\ccuHRGJz.s 			page 64


ARM GAS  C:\Users\DNIEL~1\AppData\Local\Temp\ccuHRGJz.s 			page 65


DEFINED SYMBOLS
                            *ABS*:00000000 dsp.c
C:\Users\DNIEL~1\AppData\Local\Temp\ccuHRGJz.s:19     .text.chprintf:00000000 $t
C:\Users\DNIEL~1\AppData\Local\Temp\ccuHRGJz.s:24     .text.chprintf:00000000 chprintf
C:\Users\DNIEL~1\AppData\Local\Temp\ccuHRGJz.s:64     .text.dsp_LoadTop:00000000 $t
C:\Users\DNIEL~1\AppData\Local\Temp\ccuHRGJz.s:70     .text.dsp_LoadTop:00000000 dsp_LoadTop
C:\Users\DNIEL~1\AppData\Local\Temp\ccuHRGJz.s:197    .text.dsp_LoadMidle:00000000 $t
C:\Users\DNIEL~1\AppData\Local\Temp\ccuHRGJz.s:203    .text.dsp_LoadMidle:00000000 dsp_LoadMidle
C:\Users\DNIEL~1\AppData\Local\Temp\ccuHRGJz.s:275    .text.dspInit:00000000 $t
C:\Users\DNIEL~1\AppData\Local\Temp\ccuHRGJz.s:281    .text.dspInit:00000000 dspInit
C:\Users\DNIEL~1\AppData\Local\Temp\ccuHRGJz.s:310    .text.dspCalc:00000000 $t
C:\Users\DNIEL~1\AppData\Local\Temp\ccuHRGJz.s:316    .text.dspCalc:00000000 dspCalc
C:\Users\DNIEL~1\AppData\Local\Temp\ccuHRGJz.s:328    .text.cmdfrappans_dspmessages:00000000 $t
C:\Users\DNIEL~1\AppData\Local\Temp\ccuHRGJz.s:334    .text.cmdfrappans_dspmessages:00000000 cmdfrappans_dspmessages
C:\Users\DNIEL~1\AppData\Local\Temp\ccuHRGJz.s:512    .text.cmdfrappans_dspmessages:000000e8 $d
C:\Users\DNIEL~1\AppData\Local\Temp\ccuHRGJz.s:552    .data.db2:00000000 db2
C:\Users\DNIEL~1\AppData\Local\Temp\ccuHRGJz.s:546    .bss.db:00000000 db
C:\Users\DNIEL~1\AppData\Local\Temp\ccuHRGJz.s:606    .bss.c:00000000 c
C:\Users\DNIEL~1\AppData\Local\Temp\ccuHRGJz.s:557    .bss.dsp_activ:00000000 dsp_activ
C:\Users\DNIEL~1\AppData\Local\Temp\ccuHRGJz.s:540    .bss.dspmessages:00000000 dspmessages
C:\Users\DNIEL~1\AppData\Local\Temp\ccuHRGJz.s:611    .bss.dspstate:00000000 dspstate
C:\Users\DNIEL~1\AppData\Local\Temp\ccuHRGJz.s:541    .bss.dspmessages:00000000 $d
C:\Users\DNIEL~1\AppData\Local\Temp\ccuHRGJz.s:543    .bss.db:00000000 $d
C:\Users\DNIEL~1\AppData\Local\Temp\ccuHRGJz.s:549    .data.db2:00000000 $d
C:\Users\DNIEL~1\AppData\Local\Temp\ccuHRGJz.s:558    .bss.dsp_activ:00000000 $d
C:\Users\DNIEL~1\AppData\Local\Temp\ccuHRGJz.s:560    .rodata.str1.4:00000000 $d
C:\Users\DNIEL~1\AppData\Local\Temp\ccuHRGJz.s:607    .bss.c:00000000 $d
C:\Users\DNIEL~1\AppData\Local\Temp\ccuHRGJz.s:612    .bss.dspstate:00000000 $d
                     .debug_frame:00000010 $d
C:\Users\DNIEL~1\AppData\Local\Temp\ccuHRGJz.s:537    .text.cmdfrappans_dspmessages:00000124 $t

UNDEFINED SYMBOLS
chvprintf
media_SetSector
media_VideoFrame
media_Image
gfx_Cls
file_Mount
strcmp
gfx_BGcolour
