ARM GAS  C:\Users\DNIEL~1\AppData\Local\Temp\ccssI76W.s 			page 1


   1              		.syntax unified
   2              		.cpu cortex-m4
   3              		.fpu softvfp
   4              		.eabi_attribute 20, 1
   5              		.eabi_attribute 21, 1
   6              		.eabi_attribute 23, 3
   7              		.eabi_attribute 24, 1
   8              		.eabi_attribute 25, 1
   9              		.eabi_attribute 26, 1
  10              		.eabi_attribute 30, 2
  11              		.eabi_attribute 18, 4
  12              		.thumb
  13              		.file	"dsp.c"
  20 0000 21060000 		.text
  20      02007D02 
  20      00000201 
  20      FB0E0D00 
  20      01010101 
  21              	.Ltext0:
  22              		.cfi_sections	.debug_frame
  23              		.section	.text.chprintf,"ax",%progbits
  24              		.align	2
  25              		.p2align 4,,15
  26              		.thumb
  27              		.thumb_func
  28              		.type	chprintf, %function
  29              	chprintf:
  30              	.LFB118:
  31              		.file 1 "../../../ChibiOS/os/various/chprintf.h"
  32              		.loc 1 69 0
  33              		.cfi_startproc
  34              		@ args = 4, pretend = 12, frame = 8
  35              		@ frame_needed = 0, uses_anonymous_args = 1
  36              	.LVL0:
  37 0000 0EB4     		push	{r1, r2, r3}
  38              	.LCFI0:
  39              		.cfi_def_cfa_offset 12
  40 0002 00B5     		push	{lr}
  41              	.LCFI1:
  42              		.cfi_def_cfa_offset 16
  43 0004 82B0     		sub	sp, sp, #8
  44              	.LCFI2:
  45              		.cfi_def_cfa_offset 24
  46              		.loc 1 69 0
  47 0006 03AB     		add	r3, sp, #12
  48              		.cfi_offset 14, -16
  49              		.cfi_offset 3, -4
  50              		.cfi_offset 2, -8
  51              		.cfi_offset 1, -12
  52 0008 53F8041B 		ldr	r1, [r3], #4
  53              		.loc 1 73 0
ARM GAS  C:\Users\DNIEL~1\AppData\Local\Temp\ccssI76W.s 			page 2


  54 000c 1A46     		mov	r2, r3
  55              		.loc 1 72 0
  56 000e 0193     		str	r3, [sp, #4]
  57              		.loc 1 73 0
  58 0010 FFF7FEFF 		bl	chvprintf
  59              	.LVL1:
  60              		.loc 1 75 0
  61 0014 02B0     		add	sp, sp, #8
  62 0016 5DF804EB 		pop	{lr}
  63 001a 03B0     		add	sp, sp, #12
  64 001c 7047     		bx	lr
  65              		.cfi_endproc
  66              	.LFE118:
  67              		.size	chprintf, .-chprintf
  68 001e 00BF     		.section	.text.dspTask,"ax",%progbits
  69              		.align	2
  70              		.p2align 4,,15
  71              		.thumb
  72              		.thumb_func
  73              		.type	dspTask, %function
  74              	dspTask:
  75              	.LFB123:
  76              		.file 2 "src/dsp.c"
  77              		.loc 2 200 0
  78              		.cfi_startproc
  79              		@ args = 0, pretend = 0, frame = 8
  80              		@ frame_needed = 0, uses_anonymous_args = 0
  81              	.LVL2:
  82 0000 2DE9F04F 		push	{r4, r5, r6, r7, r8, r9, sl, fp, lr}
  83              	.LCFI3:
  84              		.cfi_def_cfa_offset 36
  85              		.loc 2 204 0
  86 0004 A849     		ldr	r1, .L114
  87              		.loc 2 205 0
  88 0006 A948     		ldr	r0, .L114+4
  89              	.LVL3:
  90              		.loc 2 204 0
  91 0008 8B69     		ldr	r3, [r1, #24]
  92 000a A94D     		ldr	r5, .L114+8
  93              		.cfi_offset 14, -4
  94              		.cfi_offset 11, -8
  95              		.cfi_offset 10, -12
  96              		.cfi_offset 9, -16
  97              		.cfi_offset 8, -20
  98              		.cfi_offset 7, -24
  99              		.cfi_offset 6, -28
 100              		.cfi_offset 5, -32
 101              		.cfi_offset 4, -36
 102              		.loc 2 205 0
 103 000c C268     		ldr	r2, [r0, #12]
 104              		.loc 2 204 0
 105 000e A94A     		ldr	r2, .L114+12
 106 0010 DFF8B4A2 		ldr	sl, .L114+32
 107 0014 A84C     		ldr	r4, .L114+16
 108 0016 DFF8B482 		ldr	r8, .L114+36
 109 001a A84F     		ldr	r7, .L114+20
 110 001c A84E     		ldr	r6, .L114+24
ARM GAS  C:\Users\DNIEL~1\AppData\Local\Temp\ccssI76W.s 			page 3


 111 001e DFF8A492 		ldr	r9, .L114+28
 112 0022 9A61     		str	r2, [r3, #24]
 113              		.loc 2 200 0
 114 0024 83B0     		sub	sp, sp, #12
 115              	.LCFI4:
 116              		.cfi_def_cfa_offset 48
 117              	.LBB2:
 118              		.loc 2 210 0
 119 0026 AB46     		mov	fp, r5
 120 0028 35E0     		b	.L91
 121              	.L110:
 122              		.loc 2 214 0
 123 002a 0020     		movs	r0, #0
 124 002c 8BF80000 		strb	r0, [fp, #0]
 125              		.loc 2 215 0
 126 0030 8AF80000 		strb	r0, [sl, #0]
 127              		.loc 2 216 0
 128 0034 FFF7FEFF 		bl	bus_Read
 129              		.loc 2 217 0
 130 0038 0628     		cmp	r0, #6
 131              		.loc 2 216 0
 132 003a 8AF80000 		strb	r0, [sl, #0]
 133              		.loc 2 217 0
 134 003e 27D9     		bls	.L4
 135              		.loc 2 221 0
 136 0040 10F00101 		ands	r1, r0, #1
 137              		.loc 2 223 0
 138 0044 18BF     		it	ne
 139 0046 0121     		movne	r1, #1
 140              		.loc 2 221 0
 141 0048 C0F34003 		ubfx	r3, r0, #1, #1
 142              		.loc 2 223 0
 143 004c 2170     		strb	r1, [r4, #0]
 144              	.LVL4:
 145              		.loc 2 221 0
 146 004e 03B1     		cbz	r3, .L96
 147              		.loc 2 223 0
 148 0050 0123     		movs	r3, #1
 149              	.L96:
 150 0052 6370     		strb	r3, [r4, #1]
 151              	.LVL5:
 152              		.loc 2 221 0
 153 0054 C0F38003 		ubfx	r3, r0, #2, #1
 154 0058 03B1     		cbz	r3, .L97
 155              		.loc 2 223 0
 156 005a 0123     		movs	r3, #1
 157              	.L97:
 158 005c A370     		strb	r3, [r4, #2]
 159              	.LVL6:
 160              		.loc 2 221 0
 161 005e C0F3C003 		ubfx	r3, r0, #3, #1
 162 0062 03B1     		cbz	r3, .L98
 163              		.loc 2 223 0
 164 0064 0123     		movs	r3, #1
 165              	.L98:
 166 0066 E370     		strb	r3, [r4, #3]
 167              	.LVL7:
ARM GAS  C:\Users\DNIEL~1\AppData\Local\Temp\ccssI76W.s 			page 4


 168              		.loc 2 221 0
 169 0068 C0F30013 		ubfx	r3, r0, #4, #1
 170 006c 03B1     		cbz	r3, .L99
 171              		.loc 2 223 0
 172 006e 0123     		movs	r3, #1
 173              	.L99:
 174 0070 2371     		strb	r3, [r4, #4]
 175              	.LVL8:
 176              		.loc 2 221 0
 177 0072 C0F34013 		ubfx	r3, r0, #5, #1
 178 0076 03B1     		cbz	r3, .L100
 179              		.loc 2 223 0
 180 0078 0123     		movs	r3, #1
 181              	.L100:
 182 007a 6371     		strb	r3, [r4, #5]
 183              	.LVL9:
 184              		.loc 2 221 0
 185 007c C0F38013 		ubfx	r3, r0, #6, #1
 186 0080 03B1     		cbz	r3, .L101
 187              		.loc 2 223 0
 188 0082 0123     		movs	r3, #1
 189              	.L101:
 190              		.loc 2 221 0
 191 0084 C009     		lsrs	r0, r0, #7
 192              		.loc 2 223 0
 193 0086 A371     		strb	r3, [r4, #6]
 194              	.LVL10:
 195              		.loc 2 221 0
 196 0088 00F07583 		beq	.L19
 197              		.loc 2 223 0
 198 008c 0122     		movs	r2, #1
 199 008e E271     		strb	r2, [r4, #7]
 200              	.LVL11:
 201              	.L4:
 202              		.loc 2 702 0
 203 0090 0A20     		movs	r0, #10
 204 0092 FFF7FEFF 		bl	chThdSleep
 205              	.L91:
 206              		.loc 2 210 0
 207 0096 2B78     		ldrb	r3, [r5, #0]	@ zero_extendqisi2
 208 0098 5A1C     		adds	r2, r3, #1
 209 009a 5FFA82FC 		uxtb	ip, r2
 210              		.loc 2 212 0
 211 009e BCF1010F 		cmp	ip, #1
 212              		.loc 2 210 0
 213 00a2 85F800C0 		strb	ip, [r5, #0]
 214              		.loc 2 212 0
 215 00a6 C0D8     		bhi	.L110
 216              		.loc 2 233 0
 217 00a8 D8F80000 		ldr	r0, [r8, #0]
 218              		.loc 2 236 0
 219 00ac 3968     		ldr	r1, [r7, #0]
 220              		.loc 2 238 0
 221 00ae 3278     		ldrb	r2, [r6, #0]	@ zero_extendqisi2
 222              		.loc 2 233 0
 223 00b0 431C     		adds	r3, r0, #1
 224              		.loc 2 234 0
ARM GAS  C:\Users\DNIEL~1\AppData\Local\Temp\ccssI76W.s 			page 5


 225 00b2 B3F57A7F 		cmp	r3, #1000
 226 00b6 A8BF     		it	ge
 227 00b8 0023     		movge	r3, #0
 228              		.loc 2 236 0
 229 00ba 481C     		adds	r0, r1, #1
 230              		.loc 2 234 0
 231 00bc C8F80030 		str	r3, [r8, #0]
 232              		.loc 2 236 0
 233 00c0 3860     		str	r0, [r7, #0]
 234              		.loc 2 238 0
 235 00c2 1E2A     		cmp	r2, #30
 236 00c4 47D8     		bhi	.L22
 237 00c6 DFE812F0 		tbh	[pc, r2, lsl #1]
 238              	.L54:
 239 00ca 1F00     		.2byte	(.L23-.L54)/2
 240 00cc 1E03     		.2byte	(.L24-.L54)/2
 241 00ce DB02     		.2byte	(.L25-.L54)/2
 242 00d0 B502     		.2byte	(.L26-.L54)/2
 243 00d2 A002     		.2byte	(.L27-.L54)/2
 244 00d4 8C02     		.2byte	(.L28-.L54)/2
 245 00d6 7402     		.2byte	(.L29-.L54)/2
 246 00d8 6302     		.2byte	(.L30-.L54)/2
 247 00da 5202     		.2byte	(.L31-.L54)/2
 248 00dc 0002     		.2byte	(.L32-.L54)/2
 249 00de 3202     		.2byte	(.L33-.L54)/2
 250 00e0 BE01     		.2byte	(.L34-.L54)/2
 251 00e2 4202     		.2byte	(.L35-.L54)/2
 252 00e4 DF01     		.2byte	(.L36-.L54)/2
 253 00e6 2202     		.2byte	(.L37-.L54)/2
 254 00e8 AB01     		.2byte	(.L38-.L54)/2
 255 00ea 9801     		.2byte	(.L39-.L54)/2
 256 00ec 4C01     		.2byte	(.L40-.L54)/2
 257 00ee 7201     		.2byte	(.L41-.L54)/2
 258 00f0 1501     		.2byte	(.L42-.L54)/2
 259 00f2 8501     		.2byte	(.L43-.L54)/2
 260 00f4 3901     		.2byte	(.L44-.L54)/2
 261 00f6 5F01     		.2byte	(.L45-.L54)/2
 262 00f8 0601     		.2byte	(.L46-.L54)/2
 263 00fa E300     		.2byte	(.L47-.L54)/2
 264 00fc A300     		.2byte	(.L48-.L54)/2
 265 00fe D400     		.2byte	(.L49-.L54)/2
 266 0100 9400     		.2byte	(.L50-.L54)/2
 267 0102 8500     		.2byte	(.L51-.L54)/2
 268 0104 7600     		.2byte	(.L52-.L54)/2
 269 0106 5400     		.2byte	(.L53-.L54)/2
 270              	.L23:
 271              	.LBB3:
 272              		.loc 2 241 0
 273 0108 FFF7FEFF 		bl	speedGetRpm
 274 010c 0028     		cmp	r0, #0
 275 010e 06DD     		ble	.L94
 276              		.loc 2 241 0 is_stmt 0 discriminator 1
 277 0110 FFF7FEFF 		bl	speedGetRpm
 278 0114 40F2E63C 		movw	ip, #998
 279 0118 6045     		cmp	r0, ip
 280 011a 40F32283 		ble	.L111
 281              	.L94:
ARM GAS  C:\Users\DNIEL~1\AppData\Local\Temp\ccssI76W.s 			page 6


 282              		.loc 2 245 0 is_stmt 1
 283 011e 0023     		movs	r3, #0
 284              	.L55:
 285              	.LVL12:
 286              		.loc 2 247 0
 287 0120 3278     		ldrb	r2, [r6, #0]	@ zero_extendqisi2
 288 0122 59F82200 		ldr	r0, [r9, r2, lsl #2]
 289 0126 9842     		cmp	r0, r3
 290 0128 00F0EA82 		beq	.L56
 291              		.loc 2 248 0
 292 012c 002B     		cmp	r3, #0
 293 012e 00F03183 		beq	.L57
 294              		.loc 2 249 0
 295 0132 0020     		movs	r0, #0
 296 0134 41F63111 		movw	r1, #6449
 297 0138 0093     		str	r3, [sp, #0]
 298 013a FFF7FEFF 		bl	media_SetSector
 299              	.LVL13:
 300              		.loc 2 250 0
 301 013e 009B     		ldr	r3, [sp, #0]
 302 0140 BA20     		movs	r0, #186
 303 0142 1A46     		mov	r2, r3
 304 0144 3E21     		movs	r1, #62
 305 0146 FFF7FEFF 		bl	media_VideoFrame
 306 014a 009B     		ldr	r3, [sp, #0]
 307              	.L58:
 308              		.loc 2 257 0
 309 014c 3178     		ldrb	r1, [r6, #0]	@ zero_extendqisi2
 310              		.loc 2 258 0
 311 014e 4A1C     		adds	r2, r1, #1
 312              		.loc 2 257 0
 313 0150 49F82130 		str	r3, [r9, r1, lsl #2]
 314              		.loc 2 258 0
 315 0154 D2B2     		uxtb	r2, r2
 316              	.L22:
 317              	.LBE3:
 318              		.loc 2 695 0
 319 0156 531C     		adds	r3, r2, #1
 320 0158 D9B2     		uxtb	r1, r3
 321              		.loc 2 696 0
 322 015a 0020     		movs	r0, #0
 323              		.loc 2 697 0
 324 015c 1F29     		cmp	r1, #31
 325              		.loc 2 695 0
 326 015e 3170     		strb	r1, [r6, #0]
 327              		.loc 2 698 0
 328 0160 88BF     		it	hi
 329 0162 5749     		ldrhi	r1, .L114+24
 330              		.loc 2 696 0
 331 0164 3860     		str	r0, [r7, #0]
 332              		.loc 2 698 0
 333 0166 88BF     		it	hi
 334 0168 0870     		strbhi	r0, [r1, #0]
 335 016a 91E7     		b	.L4
 336              	.LVL14:
 337              	.L89:
 338              	.LBB4:
ARM GAS  C:\Users\DNIEL~1\AppData\Local\Temp\ccssI76W.s 			page 7


 339              		.loc 2 678 0
 340 016c 0132     		adds	r2, r2, #1
 341 016e D2B2     		uxtb	r2, r2
 342 0170 3270     		strb	r2, [r6, #0]
 343              	.LVL15:
 344              	.L53:
 345              		.loc 2 682 0
 346 0172 59F82210 		ldr	r1, [r9, r2, lsl #2]
 347 0176 0129     		cmp	r1, #1
 348 0178 00F0FF82 		beq	.L90
 349              		.loc 2 683 0
 350 017c 0020     		movs	r0, #0
 351 017e 0B21     		movs	r1, #11
 352 0180 FFF7FEFF 		bl	media_SetSector
 353              		.loc 2 684 0
 354 0184 40F27710 		movw	r0, #375
 355 0188 5021     		movs	r1, #80
 356              	.L105:
 357 018a 0122     		movs	r2, #1
 358 018c FFF7FEFF 		bl	media_VideoFrame
 359              		.loc 2 686 0
 360 0190 3278     		ldrb	r2, [r6, #0]	@ zero_extendqisi2
 361 0192 4C4B     		ldr	r3, .L114+28
 362 0194 0120     		movs	r0, #1
 363 0196 43F82200 		str	r0, [r3, r2, lsl #2]
 364              	.LBE4:
 365              		.loc 2 695 0
 366 019a 531C     		adds	r3, r2, #1
 367 019c D9B2     		uxtb	r1, r3
 368              		.loc 2 696 0
 369 019e 0020     		movs	r0, #0
 370              		.loc 2 697 0
 371 01a0 1F29     		cmp	r1, #31
 372              		.loc 2 695 0
 373 01a2 3170     		strb	r1, [r6, #0]
 374              		.loc 2 698 0
 375 01a4 88BF     		it	hi
 376 01a6 4649     		ldrhi	r1, .L114+24
 377              		.loc 2 696 0
 378 01a8 3860     		str	r0, [r7, #0]
 379              		.loc 2 698 0
 380 01aa 88BF     		it	hi
 381 01ac 0870     		strbhi	r0, [r1, #0]
 382 01ae 6FE7     		b	.L4
 383              	.L88:
 384              	.LBB5:
 385              		.loc 2 666 0
 386 01b0 531C     		adds	r3, r2, #1
 387 01b2 DAB2     		uxtb	r2, r3
 388 01b4 3270     		strb	r2, [r6, #0]
 389              	.LVL16:
 390              	.L52:
 391              		.loc 2 670 0
 392 01b6 59F82200 		ldr	r0, [r9, r2, lsl #2]
 393 01ba 0128     		cmp	r0, #1
 394 01bc D6D0     		beq	.L89
 395              		.loc 2 671 0
ARM GAS  C:\Users\DNIEL~1\AppData\Local\Temp\ccssI76W.s 			page 8


 396 01be 0020     		movs	r0, #0
 397 01c0 4C21     		movs	r1, #76
 398 01c2 FFF7FEFF 		bl	media_SetSector
 399              		.loc 2 672 0
 400 01c6 40F27710 		movw	r0, #375
 401 01ca AA21     		movs	r1, #170
 402 01cc DDE7     		b	.L105
 403              	.L87:
 404              		.loc 2 654 0
 405 01ce 0132     		adds	r2, r2, #1
 406 01d0 D2B2     		uxtb	r2, r2
 407 01d2 3270     		strb	r2, [r6, #0]
 408              	.LVL17:
 409              	.L51:
 410              		.loc 2 658 0
 411 01d4 59F82210 		ldr	r1, [r9, r2, lsl #2]
 412 01d8 0129     		cmp	r1, #1
 413 01da E9D0     		beq	.L88
 414              		.loc 2 659 0
 415 01dc 0020     		movs	r0, #0
 416 01de 0146     		mov	r1, r0
 417 01e0 FFF7FEFF 		bl	media_SetSector
 418              		.loc 2 660 0
 419 01e4 40F27710 		movw	r0, #375
 420 01e8 DB21     		movs	r1, #219
 421 01ea CEE7     		b	.L105
 422              	.L86:
 423              		.loc 2 642 0
 424 01ec 531C     		adds	r3, r2, #1
 425 01ee DAB2     		uxtb	r2, r3
 426 01f0 3270     		strb	r2, [r6, #0]
 427              	.LVL18:
 428              	.L50:
 429              		.loc 2 646 0
 430 01f2 59F82200 		ldr	r0, [r9, r2, lsl #2]
 431 01f6 0128     		cmp	r0, #1
 432 01f8 E9D0     		beq	.L87
 433              		.loc 2 647 0
 434 01fa 0020     		movs	r0, #0
 435 01fc 41F6DF11 		movw	r1, #6623
 436 0200 FFF7FEFF 		bl	media_SetSector
 437              		.loc 2 648 0
 438 0204 40F27710 		movw	r0, #375
 439 0208 1A21     		movs	r1, #26
 440 020a BEE7     		b	.L105
 441              	.L84:
 442              		.loc 2 612 0
 443 020c 531C     		adds	r3, r2, #1
 444 020e 3370     		strb	r3, [r6, #0]
 445              	.LVL19:
 446              	.L48:
 447              		.loc 2 615 0
 448 0210 FFF7FEFF 		bl	cruiseStatus
 449              		.loc 2 622 0
 450 0214 3278     		ldrb	r2, [r6, #0]	@ zero_extendqisi2
 451 0216 DFF8A8C0 		ldr	ip, .L114+24
 452 021a 59F82210 		ldr	r1, [r9, r2, lsl #2]
ARM GAS  C:\Users\DNIEL~1\AppData\Local\Temp\ccssI76W.s 			page 9


 453              		.loc 2 200 0
 454 021e 80F00100 		eor	r0, r0, #1
 455              		.loc 2 617 0
 456 0222 C3B2     		uxtb	r3, r0
 457              	.LVL20:
 458              		.loc 2 622 0
 459 0224 8B42     		cmp	r3, r1
 460 0226 20D0     		beq	.L85
 461              		.loc 2 623 0
 462 0228 0020     		movs	r0, #0
 463 022a 41F6CC11 		movw	r1, #6604
 464 022e 0093     		str	r3, [sp, #0]
 465 0230 CDF804C0 		str	ip, [sp, #4]
 466 0234 FFF7FEFF 		bl	media_SetSector
 467              	.LVL21:
 468              		.loc 2 624 0
 469 0238 3D21     		movs	r1, #61
 470 023a 40F2B110 		movw	r0, #433
 471 023e 009A     		ldr	r2, [sp, #0]
 472 0240 FFF7FEFF 		bl	media_VideoFrame
 473              		.loc 2 626 0
 474 0244 DDF804C0 		ldr	ip, [sp, #4]
 475 0248 009B     		ldr	r3, [sp, #0]
 476 024a 9CF80020 		ldrb	r2, [ip, #0]	@ zero_extendqisi2
 477 024e 1D49     		ldr	r1, .L114+28
 478 0250 41F82230 		str	r3, [r1, r2, lsl #2]
 479              	.LBE5:
 480              		.loc 2 695 0
 481 0254 531C     		adds	r3, r2, #1
 482 0256 D9B2     		uxtb	r1, r3
 483              		.loc 2 696 0
 484 0258 0020     		movs	r0, #0
 485              		.loc 2 697 0
 486 025a 1F29     		cmp	r1, #31
 487              		.loc 2 695 0
 488 025c 3170     		strb	r1, [r6, #0]
 489              		.loc 2 698 0
 490 025e 88BF     		it	hi
 491 0260 1749     		ldrhi	r1, .L114+24
 492              		.loc 2 696 0
 493 0262 3860     		str	r0, [r7, #0]
 494              		.loc 2 698 0
 495 0264 88BF     		it	hi
 496 0266 0870     		strbhi	r0, [r1, #0]
 497 0268 12E7     		b	.L4
 498              	.LVL22:
 499              	.L85:
 500              	.LBB6:
 501              		.loc 2 630 0
 502 026a 501C     		adds	r0, r2, #1
 503 026c C2B2     		uxtb	r2, r0
 504 026e 8CF80020 		strb	r2, [ip, #0]
 505              	.LVL23:
 506              	.L49:
 507              		.loc 2 634 0
 508 0272 59F82210 		ldr	r1, [r9, r2, lsl #2]
 509 0276 0129     		cmp	r1, #1
ARM GAS  C:\Users\DNIEL~1\AppData\Local\Temp\ccssI76W.s 			page 10


 510 0278 B8D0     		beq	.L86
 511              		.loc 2 635 0
 512 027a 0020     		movs	r0, #0
 513 027c 4121     		movs	r1, #65
 514 027e FFF7FEFF 		bl	media_SetSector
 515              		.loc 2 636 0
 516 0282 40F2B110 		movw	r0, #433
 517 0286 9A21     		movs	r1, #154
 518 0288 7FE7     		b	.L105
 519              	.L83:
 520              		.loc 2 600 0
 521 028a 0132     		adds	r2, r2, #1
 522 028c D2B2     		uxtb	r2, r2
 523 028e 3270     		strb	r2, [r6, #0]
 524              	.LVL24:
 525              	.L47:
 526              		.loc 2 604 0
 527 0290 59F82200 		ldr	r0, [r9, r2, lsl #2]
 528 0294 0128     		cmp	r0, #1
 529 0296 B9D0     		beq	.L84
 530              		.loc 2 605 0
 531 0298 0020     		movs	r0, #0
 532 029a 2721     		movs	r1, #39
 533 029c FFF7FEFF 		bl	media_SetSector
 534              		.loc 2 606 0
 535 02a0 40F2B110 		movw	r0, #433
 536 02a4 0721     		movs	r1, #7
 537 02a6 70E7     		b	.L105
 538              	.L115:
 539              		.align	2
 540              	.L114:
 541 02a8 00000000 		.word	rlist
 542 02ac 00000000 		.word	vtlist
 543 02b0 00000000 		.word	.LANCHOR0
 544 02b4 00000000 		.word	.LC0
 545 02b8 00000000 		.word	.LANCHOR2
 546 02bc 00000000 		.word	.LANCHOR4
 547 02c0 00000000 		.word	.LANCHOR5
 548 02c4 00000000 		.word	.LANCHOR6
 549 02c8 00000000 		.word	.LANCHOR1
 550 02cc 00000000 		.word	.LANCHOR3
 551              	.LVL25:
 552              	.L82:
 553              		.loc 2 588 0
 554 02d0 531C     		adds	r3, r2, #1
 555 02d2 DAB2     		uxtb	r2, r3
 556 02d4 3270     		strb	r2, [r6, #0]
 557              	.LVL26:
 558              	.L46:
 559              		.loc 2 592 0
 560 02d6 59F82210 		ldr	r1, [r9, r2, lsl #2]
 561 02da 0129     		cmp	r1, #1
 562 02dc D5D0     		beq	.L83
 563              		.loc 2 593 0
 564 02de 0020     		movs	r0, #0
 565 02e0 3221     		movs	r1, #50
 566 02e2 FFF7FEFF 		bl	media_SetSector
ARM GAS  C:\Users\DNIEL~1\AppData\Local\Temp\ccssI76W.s 			page 11


 567              		.loc 2 594 0
 568 02e6 40F2B110 		movw	r0, #433
 569 02ea E621     		movs	r1, #230
 570 02ec 4DE7     		b	.L105
 571              	.LVL27:
 572              	.L78:
 573              		.loc 2 540 0
 574 02ee 531C     		adds	r3, r2, #1
 575 02f0 DAB2     		uxtb	r2, r3
 576 02f2 3270     		strb	r2, [r6, #0]
 577              	.LVL28:
 578              	.L42:
 579              		.loc 2 544 0
 580 02f4 59F82210 		ldr	r1, [r9, r2, lsl #2]
 581 02f8 40F60813 		movw	r3, #2312
 582 02fc 9942     		cmp	r1, r3
 583 02fe 66D0     		beq	.L79
 584              		.loc 2 545 0
 585 0300 0020     		movs	r0, #0
 586 0302 41F61711 		movw	r1, #6423
 587 0306 0093     		str	r3, [sp, #0]
 588 0308 FFF7FEFF 		bl	media_SetSector
 589              		.loc 2 546 0
 590 030c 4220     		movs	r0, #66
 591 030e A821     		movs	r1, #168
 592 0310 0222     		movs	r2, #2
 593              	.LVL29:
 594              	.L104:
 595              		.loc 2 378 0
 596 0312 FFF7FEFF 		bl	media_VideoFrame
 597              		.loc 2 380 0
 598 0316 3278     		ldrb	r2, [r6, #0]	@ zero_extendqisi2
 599 0318 009B     		ldr	r3, [sp, #0]
 600 031a AE48     		ldr	r0, .L116
 601 031c 40F82230 		str	r3, [r0, r2, lsl #2]
 602              	.LBE6:
 603              		.loc 2 695 0
 604 0320 531C     		adds	r3, r2, #1
 605 0322 D9B2     		uxtb	r1, r3
 606              		.loc 2 696 0
 607 0324 0020     		movs	r0, #0
 608              		.loc 2 697 0
 609 0326 1F29     		cmp	r1, #31
 610              		.loc 2 695 0
 611 0328 3170     		strb	r1, [r6, #0]
 612              		.loc 2 698 0
 613 032a 88BF     		it	hi
 614 032c AA49     		ldrhi	r1, .L116+4
 615              		.loc 2 696 0
 616 032e 3860     		str	r0, [r7, #0]
 617              		.loc 2 698 0
 618 0330 88BF     		it	hi
 619 0332 0870     		strbhi	r0, [r1, #0]
 620 0334 ACE6     		b	.L4
 621              	.LVL30:
 622              	.L80:
 623              	.LBB7:
ARM GAS  C:\Users\DNIEL~1\AppData\Local\Temp\ccssI76W.s 			page 12


 624              		.loc 2 564 0
 625 0336 531C     		adds	r3, r2, #1
 626 0338 DAB2     		uxtb	r2, r3
 627 033a 3270     		strb	r2, [r6, #0]
 628              	.LVL31:
 629              	.L44:
 630              		.loc 2 568 0
 631 033c 59F82210 		ldr	r1, [r9, r2, lsl #2]
 632 0340 40F60813 		movw	r3, #2312
 633 0344 9942     		cmp	r1, r3
 634 0346 1CD0     		beq	.L81
 635              		.loc 2 569 0
 636 0348 0020     		movs	r0, #0
 637 034a 41F61711 		movw	r1, #6423
 638 034e 0093     		str	r3, [sp, #0]
 639 0350 FFF7FEFF 		bl	media_SetSector
 640              		.loc 2 570 0
 641 0354 4220     		movs	r0, #66
 642 0356 D021     		movs	r1, #208
 643 0358 0122     		movs	r2, #1
 644 035a DAE7     		b	.L104
 645              	.LVL32:
 646              	.L76:
 647              		.loc 2 516 0
 648 035c 531C     		adds	r3, r2, #1
 649 035e DAB2     		uxtb	r2, r3
 650 0360 3270     		strb	r2, [r6, #0]
 651              	.LVL33:
 652              	.L40:
 653              		.loc 2 520 0
 654 0362 59F82210 		ldr	r1, [r9, r2, lsl #2]
 655 0366 40F2D243 		movw	r3, #1234
 656 036a 9942     		cmp	r1, r3
 657 036c 1CD0     		beq	.L77
 658              		.loc 2 521 0
 659 036e 0020     		movs	r0, #0
 660 0370 41F61711 		movw	r1, #6423
 661 0374 0093     		str	r3, [sp, #0]
 662 0376 FFF7FEFF 		bl	media_SetSector
 663              		.loc 2 522 0
 664 037a 6C20     		movs	r0, #108
 665 037c D021     		movs	r1, #208
 666 037e 0322     		movs	r2, #3
 667 0380 C7E7     		b	.L104
 668              	.LVL34:
 669              	.L81:
 670              		.loc 2 576 0
 671 0382 0132     		adds	r2, r2, #1
 672 0384 D2B2     		uxtb	r2, r2
 673 0386 3270     		strb	r2, [r6, #0]
 674              	.LVL35:
 675              	.L45:
 676              		.loc 2 580 0
 677 0388 59F82200 		ldr	r0, [r9, r2, lsl #2]
 678 038c 40F60813 		movw	r3, #2312
 679 0390 9842     		cmp	r0, r3
 680 0392 9DD0     		beq	.L82
ARM GAS  C:\Users\DNIEL~1\AppData\Local\Temp\ccssI76W.s 			page 13


 681              		.loc 2 581 0
 682 0394 0020     		movs	r0, #0
 683 0396 41F61711 		movw	r1, #6423
 684 039a 0093     		str	r3, [sp, #0]
 685 039c FFF7FEFF 		bl	media_SetSector
 686              		.loc 2 582 0
 687 03a0 4220     		movs	r0, #66
 688 03a2 E421     		movs	r1, #228
 689 03a4 0222     		movs	r2, #2
 690 03a6 B4E7     		b	.L104
 691              	.LVL36:
 692              	.L77:
 693              		.loc 2 528 0
 694 03a8 0132     		adds	r2, r2, #1
 695 03aa D2B2     		uxtb	r2, r2
 696 03ac 3270     		strb	r2, [r6, #0]
 697              	.LVL37:
 698              	.L41:
 699              		.loc 2 532 0
 700 03ae 59F82200 		ldr	r0, [r9, r2, lsl #2]
 701 03b2 40F2D243 		movw	r3, #1234
 702 03b6 9842     		cmp	r0, r3
 703 03b8 99D0     		beq	.L78
 704              		.loc 2 533 0
 705 03ba 0020     		movs	r0, #0
 706 03bc 41F61711 		movw	r1, #6423
 707 03c0 0093     		str	r3, [sp, #0]
 708 03c2 FFF7FEFF 		bl	media_SetSector
 709              		.loc 2 534 0
 710 03c6 6C20     		movs	r0, #108
 711 03c8 E421     		movs	r1, #228
 712 03ca 0422     		movs	r2, #4
 713 03cc A1E7     		b	.L104
 714              	.LVL38:
 715              	.L79:
 716              		.loc 2 552 0
 717 03ce 0132     		adds	r2, r2, #1
 718 03d0 D2B2     		uxtb	r2, r2
 719 03d2 3270     		strb	r2, [r6, #0]
 720              	.LVL39:
 721              	.L43:
 722              		.loc 2 556 0
 723 03d4 59F82200 		ldr	r0, [r9, r2, lsl #2]
 724 03d8 40F60813 		movw	r3, #2312
 725 03dc 9842     		cmp	r0, r3
 726 03de AAD0     		beq	.L80
 727              		.loc 2 557 0
 728 03e0 0020     		movs	r0, #0
 729 03e2 41F61711 		movw	r1, #6423
 730 03e6 0093     		str	r3, [sp, #0]
 731 03e8 FFF7FEFF 		bl	media_SetSector
 732              		.loc 2 558 0
 733 03ec 4220     		movs	r0, #66
 734 03ee BC21     		movs	r1, #188
 735 03f0 0322     		movs	r2, #3
 736 03f2 8EE7     		b	.L104
 737              	.LVL40:
ARM GAS  C:\Users\DNIEL~1\AppData\Local\Temp\ccssI76W.s 			page 14


 738              	.L75:
 739              		.loc 2 504 0
 740 03f4 511C     		adds	r1, r2, #1
 741 03f6 CAB2     		uxtb	r2, r1
 742 03f8 3270     		strb	r2, [r6, #0]
 743              	.LVL41:
 744              	.L39:
 745              		.loc 2 508 0
 746 03fa 59F82200 		ldr	r0, [r9, r2, lsl #2]
 747 03fe 40F2D243 		movw	r3, #1234
 748 0402 9842     		cmp	r0, r3
 749 0404 AAD0     		beq	.L76
 750              		.loc 2 509 0
 751 0406 0020     		movs	r0, #0
 752 0408 41F61711 		movw	r1, #6423
 753 040c 0093     		str	r3, [sp, #0]
 754 040e FFF7FEFF 		bl	media_SetSector
 755              		.loc 2 510 0
 756 0412 6C20     		movs	r0, #108
 757 0414 BC21     		movs	r1, #188
 758 0416 0222     		movs	r2, #2
 759 0418 7BE7     		b	.L104
 760              	.LVL42:
 761              	.L74:
 762              		.loc 2 492 0
 763 041a 0132     		adds	r2, r2, #1
 764 041c D2B2     		uxtb	r2, r2
 765 041e 3270     		strb	r2, [r6, #0]
 766              	.LVL43:
 767              	.L38:
 768              		.loc 2 496 0
 769 0420 59F82200 		ldr	r0, [r9, r2, lsl #2]
 770 0424 40F2D243 		movw	r3, #1234
 771 0428 9842     		cmp	r0, r3
 772 042a E3D0     		beq	.L75
 773              		.loc 2 497 0
 774 042c 0020     		movs	r0, #0
 775 042e 41F61711 		movw	r1, #6423
 776 0432 0093     		str	r3, [sp, #0]
 777 0434 FFF7FEFF 		bl	media_SetSector
 778              		.loc 2 498 0
 779 0438 6C20     		movs	r0, #108
 780 043a A821     		movs	r1, #168
 781 043c 0122     		movs	r2, #1
 782 043e 68E7     		b	.L104
 783              	.LVL44:
 784              	.L70:
 785              		.loc 2 444 0
 786 0440 0132     		adds	r2, r2, #1
 787 0442 D2B2     		uxtb	r2, r2
 788 0444 3270     		strb	r2, [r6, #0]
 789              	.LVL45:
 790              	.L34:
 791              		.loc 2 448 0
 792 0446 59F82210 		ldr	r1, [r9, r2, lsl #2]
 793 044a 6429     		cmp	r1, #100
 794 044c 7CD0     		beq	.L71
ARM GAS  C:\Users\DNIEL~1\AppData\Local\Temp\ccssI76W.s 			page 15


 795              		.loc 2 449 0
 796 044e 0020     		movs	r0, #0
 797 0450 41F61711 		movw	r1, #6423
 798 0454 FFF7FEFF 		bl	media_SetSector
 799              		.loc 2 450 0
 800 0458 6C20     		movs	r0, #108
 801 045a 3B21     		movs	r1, #59
 802 045c 0022     		movs	r2, #0
 803              	.L108:
 804              		.loc 2 462 0
 805 045e FFF7FEFF 		bl	media_VideoFrame
 806              		.loc 2 464 0
 807 0462 3278     		ldrb	r2, [r6, #0]	@ zero_extendqisi2
 808 0464 5B48     		ldr	r0, .L116
 809 0466 6421     		movs	r1, #100
 810              	.LBE7:
 811              		.loc 2 695 0
 812 0468 531C     		adds	r3, r2, #1
 813              	.LBB8:
 814              		.loc 2 464 0
 815 046a 40F82210 		str	r1, [r0, r2, lsl #2]
 816              	.LBE8:
 817              		.loc 2 695 0
 818 046e D9B2     		uxtb	r1, r3
 819              		.loc 2 696 0
 820 0470 0020     		movs	r0, #0
 821              		.loc 2 697 0
 822 0472 1F29     		cmp	r1, #31
 823              		.loc 2 695 0
 824 0474 3170     		strb	r1, [r6, #0]
 825              		.loc 2 698 0
 826 0476 88BF     		it	hi
 827 0478 5749     		ldrhi	r1, .L116+4
 828              		.loc 2 696 0
 829 047a 3860     		str	r0, [r7, #0]
 830              		.loc 2 698 0
 831 047c 88BF     		it	hi
 832 047e 0870     		strbhi	r0, [r1, #0]
 833 0480 06E6     		b	.L4
 834              	.L72:
 835              	.LBB9:
 836              		.loc 2 468 0
 837 0482 0132     		adds	r2, r2, #1
 838 0484 D2B2     		uxtb	r2, r2
 839 0486 3270     		strb	r2, [r6, #0]
 840              	.LVL46:
 841              	.L36:
 842              		.loc 2 472 0
 843 0488 59F82230 		ldr	r3, [r9, r2, lsl #2]
 844 048c 2F2B     		cmp	r3, #47
 845 048e 3BD0     		beq	.L73
 846              		.loc 2 473 0
 847 0490 0020     		movs	r0, #0
 848 0492 41F61711 		movw	r1, #6423
 849 0496 FFF7FEFF 		bl	media_SetSector
 850              		.loc 2 474 0
 851 049a 4220     		movs	r0, #66
ARM GAS  C:\Users\DNIEL~1\AppData\Local\Temp\ccssI76W.s 			page 16


 852 049c 3B21     		movs	r1, #59
 853 049e 0422     		movs	r2, #4
 854              	.L107:
 855              		.loc 2 486 0
 856 04a0 FFF7FEFF 		bl	media_VideoFrame
 857              		.loc 2 488 0
 858 04a4 3278     		ldrb	r2, [r6, #0]	@ zero_extendqisi2
 859 04a6 4B4B     		ldr	r3, .L116
 860 04a8 2F21     		movs	r1, #47
 861 04aa 43F82210 		str	r1, [r3, r2, lsl #2]
 862              	.LBE9:
 863              		.loc 2 695 0
 864 04ae 531C     		adds	r3, r2, #1
 865 04b0 D9B2     		uxtb	r1, r3
 866              		.loc 2 696 0
 867 04b2 0020     		movs	r0, #0
 868              		.loc 2 697 0
 869 04b4 1F29     		cmp	r1, #31
 870              		.loc 2 695 0
 871 04b6 3170     		strb	r1, [r6, #0]
 872              		.loc 2 698 0
 873 04b8 88BF     		it	hi
 874 04ba 4749     		ldrhi	r1, .L116+4
 875              		.loc 2 696 0
 876 04bc 3860     		str	r0, [r7, #0]
 877              		.loc 2 698 0
 878 04be 88BF     		it	hi
 879 04c0 0870     		strbhi	r0, [r1, #0]
 880 04c2 E5E5     		b	.L4
 881              	.LVL47:
 882              	.L68:
 883              	.LBB10:
 884              		.loc 2 420 0
 885 04c4 0132     		adds	r2, r2, #1
 886 04c6 D2B2     		uxtb	r2, r2
 887 04c8 3270     		strb	r2, [r6, #0]
 888              	.LVL48:
 889              	.L32:
 890              		.loc 2 424 0
 891 04ca 59F82210 		ldr	r1, [r9, r2, lsl #2]
 892 04ce 5729     		cmp	r1, #87
 893 04d0 2AD0     		beq	.L69
 894              		.loc 2 425 0
 895 04d2 0020     		movs	r0, #0
 896 04d4 41F60A11 		movw	r1, #6410
 897 04d8 FFF7FEFF 		bl	media_SetSector
 898              		.loc 2 426 0
 899 04dc 40F23B10 		movw	r0, #315
 900 04e0 F521     		movs	r1, #245
 901 04e2 0722     		movs	r2, #7
 902              	.L106:
 903              		.loc 2 414 0
 904 04e4 FFF7FEFF 		bl	media_VideoFrame
 905              		.loc 2 416 0
 906 04e8 3278     		ldrb	r2, [r6, #0]	@ zero_extendqisi2
 907 04ea 3A4B     		ldr	r3, .L116
 908 04ec 5720     		movs	r0, #87
ARM GAS  C:\Users\DNIEL~1\AppData\Local\Temp\ccssI76W.s 			page 17


 909 04ee 43F82200 		str	r0, [r3, r2, lsl #2]
 910              	.LBE10:
 911              		.loc 2 695 0
 912 04f2 531C     		adds	r3, r2, #1
 913 04f4 D9B2     		uxtb	r1, r3
 914              		.loc 2 696 0
 915 04f6 0020     		movs	r0, #0
 916              		.loc 2 697 0
 917 04f8 1F29     		cmp	r1, #31
 918              		.loc 2 695 0
 919 04fa 3170     		strb	r1, [r6, #0]
 920              		.loc 2 698 0
 921 04fc 88BF     		it	hi
 922 04fe 3649     		ldrhi	r1, .L116+4
 923              		.loc 2 696 0
 924 0500 3860     		str	r0, [r7, #0]
 925              		.loc 2 698 0
 926 0502 88BF     		it	hi
 927 0504 0870     		strbhi	r0, [r1, #0]
 928 0506 C3E5     		b	.L4
 929              	.LVL49:
 930              	.L73:
 931              	.LBB11:
 932              		.loc 2 480 0
 933 0508 511C     		adds	r1, r2, #1
 934 050a CAB2     		uxtb	r2, r1
 935 050c 3270     		strb	r2, [r6, #0]
 936              	.LVL50:
 937              	.L37:
 938              		.loc 2 484 0
 939 050e 59F82200 		ldr	r0, [r9, r2, lsl #2]
 940 0512 2F28     		cmp	r0, #47
 941 0514 81D0     		beq	.L74
 942              		.loc 2 485 0
 943 0516 0020     		movs	r0, #0
 944 0518 41F61711 		movw	r1, #6423
 945 051c FFF7FEFF 		bl	media_SetSector
 946              		.loc 2 486 0
 947 0520 4220     		movs	r0, #66
 948 0522 4F21     		movs	r1, #79
 949 0524 0722     		movs	r2, #7
 950 0526 BBE7     		b	.L107
 951              	.LVL51:
 952              	.L69:
 953              		.loc 2 432 0
 954 0528 501C     		adds	r0, r2, #1
 955 052a C2B2     		uxtb	r2, r0
 956 052c 3270     		strb	r2, [r6, #0]
 957              	.LVL52:
 958              	.L33:
 959              		.loc 2 436 0
 960 052e 59F82230 		ldr	r3, [r9, r2, lsl #2]
 961 0532 642B     		cmp	r3, #100
 962 0534 84D0     		beq	.L70
 963              		.loc 2 437 0
 964 0536 0020     		movs	r0, #0
 965 0538 41F61711 		movw	r1, #6423
ARM GAS  C:\Users\DNIEL~1\AppData\Local\Temp\ccssI76W.s 			page 18


 966 053c FFF7FEFF 		bl	media_SetSector
 967              		.loc 2 438 0
 968 0540 6C20     		movs	r0, #108
 969 0542 2721     		movs	r1, #39
 970 0544 0122     		movs	r2, #1
 971 0546 8AE7     		b	.L108
 972              	.L71:
 973              		.loc 2 456 0
 974 0548 501C     		adds	r0, r2, #1
 975 054a C2B2     		uxtb	r2, r0
 976 054c 3270     		strb	r2, [r6, #0]
 977              	.LVL53:
 978              	.L35:
 979              		.loc 2 460 0
 980 054e 59F82230 		ldr	r3, [r9, r2, lsl #2]
 981 0552 642B     		cmp	r3, #100
 982 0554 95D0     		beq	.L72
 983              		.loc 2 461 0
 984 0556 0020     		movs	r0, #0
 985 0558 41F61711 		movw	r1, #6423
 986 055c FFF7FEFF 		bl	media_SetSector
 987              		.loc 2 462 0
 988 0560 6C20     		movs	r0, #108
 989 0562 4F21     		movs	r1, #79
 990 0564 0022     		movs	r2, #0
 991 0566 7AE7     		b	.L108
 992              	.LVL54:
 993              	.L67:
 994              		.loc 2 408 0
 995 0568 0132     		adds	r2, r2, #1
 996 056a D2B2     		uxtb	r2, r2
 997 056c 3270     		strb	r2, [r6, #0]
 998              	.LVL55:
 999              	.L31:
 1000              		.loc 2 412 0
 1001 056e 59F82210 		ldr	r1, [r9, r2, lsl #2]
 1002 0572 5729     		cmp	r1, #87
 1003 0574 A6D0     		beq	.L68
 1004              		.loc 2 413 0
 1005 0576 0020     		movs	r0, #0
 1006 0578 41F60A11 		movw	r1, #6410
 1007 057c FFF7FEFF 		bl	media_SetSector
 1008              		.loc 2 414 0
 1009 0580 40F23B10 		movw	r0, #315
 1010 0584 E121     		movs	r1, #225
 1011 0586 0822     		movs	r2, #8
 1012 0588 ACE7     		b	.L106
 1013              	.LVL56:
 1014              	.L66:
 1015              		.loc 2 396 0
 1016 058a 501C     		adds	r0, r2, #1
 1017 058c C2B2     		uxtb	r2, r0
 1018 058e 3270     		strb	r2, [r6, #0]
 1019              	.LVL57:
 1020              	.L30:
 1021              		.loc 2 400 0
 1022 0590 59F82230 		ldr	r3, [r9, r2, lsl #2]
ARM GAS  C:\Users\DNIEL~1\AppData\Local\Temp\ccssI76W.s 			page 19


 1023 0594 572B     		cmp	r3, #87
 1024 0596 E7D0     		beq	.L67
 1025              		.loc 2 401 0
 1026 0598 0020     		movs	r0, #0
 1027 059a 41F60A11 		movw	r1, #6410
 1028 059e FFF7FEFF 		bl	media_SetSector
 1029              		.loc 2 402 0
 1030 05a2 40F23B10 		movw	r0, #315
 1031 05a6 CD21     		movs	r1, #205
 1032 05a8 0022     		movs	r2, #0
 1033 05aa 9BE7     		b	.L106
 1034              	.LVL58:
 1035              	.L65:
 1036              		.loc 2 384 0
 1037 05ac 0132     		adds	r2, r2, #1
 1038 05ae D2B2     		uxtb	r2, r2
 1039 05b0 3270     		strb	r2, [r6, #0]
 1040              	.LVL59:
 1041              	.L29:
 1042              		.loc 2 388 0
 1043 05b2 59F82210 		ldr	r1, [r9, r2, lsl #2]
 1044 05b6 40F2E333 		movw	r3, #995
 1045 05ba 9942     		cmp	r1, r3
 1046 05bc E5D0     		beq	.L66
 1047              		.loc 2 389 0
 1048 05be 0020     		movs	r0, #0
 1049 05c0 41F60A11 		movw	r1, #6410
 1050 05c4 0093     		str	r3, [sp, #0]
 1051 05c6 FFF7FEFF 		bl	media_SetSector
 1052              		.loc 2 390 0
 1053 05ca 40F23B10 		movw	r0, #315
 1054 05ce 2821     		movs	r1, #40
 1055 05d0 0522     		movs	r2, #5
 1056 05d2 9EE6     		b	.L104
 1057              	.L117:
 1058              		.align	2
 1059              	.L116:
 1060 05d4 00000000 		.word	.LANCHOR6
 1061 05d8 00000000 		.word	.LANCHOR5
 1062              	.L64:
 1063              		.loc 2 372 0
 1064 05dc 501C     		adds	r0, r2, #1
 1065 05de C2B2     		uxtb	r2, r0
 1066 05e0 3270     		strb	r2, [r6, #0]
 1067              	.LVL60:
 1068              	.L28:
 1069              		.loc 2 376 0
 1070 05e2 59F82210 		ldr	r1, [r9, r2, lsl #2]
 1071 05e6 40F2E333 		movw	r3, #995
 1072 05ea 9942     		cmp	r1, r3
 1073 05ec DED0     		beq	.L65
 1074              		.loc 2 377 0
 1075 05ee 0020     		movs	r0, #0
 1076 05f0 41F60A11 		movw	r1, #6410
 1077 05f4 0093     		str	r3, [sp, #0]
 1078 05f6 FFF7FEFF 		bl	media_SetSector
 1079              		.loc 2 378 0
ARM GAS  C:\Users\DNIEL~1\AppData\Local\Temp\ccssI76W.s 			page 20


 1080 05fa 40F23B10 		movw	r0, #315
 1081 05fe 1421     		movs	r1, #20
 1082 0600 0922     		movs	r2, #9
 1083 0602 86E6     		b	.L104
 1084              	.LVL61:
 1085              	.L63:
 1086              		.loc 2 360 0
 1087 0604 0132     		adds	r2, r2, #1
 1088 0606 D2B2     		uxtb	r2, r2
 1089 0608 3270     		strb	r2, [r6, #0]
 1090              	.LVL62:
 1091              	.L27:
 1092              		.loc 2 364 0
 1093 060a 59F82210 		ldr	r1, [r9, r2, lsl #2]
 1094 060e 40F2E333 		movw	r3, #995
 1095 0612 9942     		cmp	r1, r3
 1096 0614 E2D0     		beq	.L64
 1097              		.loc 2 365 0
 1098 0616 0020     		movs	r0, #0
 1099 0618 41F60A11 		movw	r1, #6410
 1100 061c 0093     		str	r3, [sp, #0]
 1101 061e FFF7FEFF 		bl	media_SetSector
 1102              		.loc 2 366 0
 1103 0622 40F23B10 		movw	r0, #315
 1104 0626 0021     		movs	r1, #0
 1105              		.loc 2 378 0
 1106 0628 0922     		movs	r2, #9
 1107 062a 72E6     		b	.L104
 1108              	.LVL63:
 1109              	.L62:
 1110              		.loc 2 301 0
 1111 062c 501C     		adds	r0, r2, #1
 1112 062e C2B2     		uxtb	r2, r0
 1113 0630 8CF80020 		strb	r2, [ip, #0]
 1114              	.L26:
 1115              	.LVL64:
 1116              		.loc 2 350 0
 1117 0634 59F82210 		ldr	r1, [r9, r2, lsl #2]
 1118 0638 7F29     		cmp	r1, #127
 1119 063a E3D0     		beq	.L63
 1120              		.loc 2 351 0
 1121 063c 0120     		movs	r0, #1
 1122 063e FFF7FEFF 		bl	gfx_Transparency
 1123              		.loc 2 352 0
 1124 0642 1F20     		movs	r0, #31
 1125 0644 FFF7FEFF 		bl	gfx_TransparentColour
 1126              		.loc 2 353 0
 1127 0648 0020     		movs	r0, #0
 1128 064a 5721     		movs	r1, #87
 1129 064c FFF7FEFF 		bl	media_SetSector
 1130              		.loc 2 354 0
 1131 0650 9420     		movs	r0, #148
 1132 0652 1521     		movs	r1, #21
 1133 0654 1922     		movs	r2, #25
 1134 0656 FFF7FEFF 		bl	media_VideoFrame
 1135              		.loc 2 356 0
 1136 065a 3278     		ldrb	r2, [r6, #0]	@ zero_extendqisi2
ARM GAS  C:\Users\DNIEL~1\AppData\Local\Temp\ccssI76W.s 			page 21


 1137 065c 574B     		ldr	r3, .L118
 1138 065e 7F20     		movs	r0, #127
 1139 0660 43F82200 		str	r0, [r3, r2, lsl #2]
 1140              	.LBE11:
 1141              		.loc 2 695 0
 1142 0664 531C     		adds	r3, r2, #1
 1143 0666 D9B2     		uxtb	r1, r3
 1144              		.loc 2 696 0
 1145 0668 0020     		movs	r0, #0
 1146              		.loc 2 697 0
 1147 066a 1F29     		cmp	r1, #31
 1148              		.loc 2 695 0
 1149 066c 3170     		strb	r1, [r6, #0]
 1150              		.loc 2 698 0
 1151 066e 88BF     		it	hi
 1152 0670 5349     		ldrhi	r1, .L118+4
 1153              		.loc 2 696 0
 1154 0672 3860     		str	r0, [r7, #0]
 1155              		.loc 2 698 0
 1156 0674 88BF     		it	hi
 1157 0676 0870     		strbhi	r0, [r1, #0]
 1158 0678 0AE5     		b	.L4
 1159              	.LVL65:
 1160              	.L60:
 1161              	.LBB12:
 1162              		.loc 2 282 0
 1163 067a 4B1C     		adds	r3, r1, #1
 1164 067c 8CF80030 		strb	r3, [ip, #0]
 1165              	.L25:
 1166              		.loc 2 285 0
 1167 0680 FFF7FEFF 		bl	speedGetRpm
 1168 0684 0028     		cmp	r0, #0
 1169 0686 06DD     		ble	.L61
 1170              		.loc 2 285 0 is_stmt 0 discriminator 1
 1171 0688 FFF7FEFF 		bl	speedGetRpm
 1172 068c 40F2E631 		movw	r1, #998
 1173 0690 8842     		cmp	r0, r1
 1174 0692 40F38C80 		ble	.L112
 1175              	.L61:
 1176              		.loc 2 291 0 is_stmt 1
 1177 0696 FFF7FEFF 		bl	speedGetRpm
 1178 069a 4A4A     		ldr	r2, .L118+8
 1179              		.loc 2 292 0
 1180 069c DFF820C1 		ldr	ip, .L118+4
 1181              		.loc 2 291 0
 1182 06a0 82FB002E 		smull	r2, lr, r2, r0
 1183 06a4 C317     		asrs	r3, r0, #31
 1184              		.loc 2 292 0
 1185 06a6 3278     		ldrb	r2, [r6, #0]	@ zero_extendqisi2
 1186              		.loc 2 291 0
 1187 06a8 C3EBAE03 		rsb	r3, r3, lr, asr #2
 1188              		.loc 2 292 0
 1189 06ac 59F82210 		ldr	r1, [r9, r2, lsl #2]
 1190              		.loc 2 291 0
 1191 06b0 03EB830E 		add	lr, r3, r3, lsl #2
 1192 06b4 A0EB4E03 		sub	r3, r0, lr, lsl #1
 1193              		.loc 2 292 0
ARM GAS  C:\Users\DNIEL~1\AppData\Local\Temp\ccssI76W.s 			page 22


 1194 06b8 9942     		cmp	r1, r3
 1195 06ba B7D0     		beq	.L62
 1196              		.loc 2 293 0
 1197 06bc 0020     		movs	r0, #0
 1198 06be 41F63111 		movw	r1, #6449
 1199 06c2 0093     		str	r3, [sp, #0]
 1200 06c4 CDF804C0 		str	ip, [sp, #4]
 1201 06c8 FFF7FEFF 		bl	media_SetSector
 1202              		.loc 2 294 0
 1203 06cc BA20     		movs	r0, #186
 1204 06ce A221     		movs	r1, #162
 1205              	.L102:
 1206 06d0 009A     		ldr	r2, [sp, #0]
 1207 06d2 FFF7FEFF 		bl	media_VideoFrame
 1208              		.loc 2 296 0
 1209 06d6 DDF804C0 		ldr	ip, [sp, #4]
 1210 06da 009B     		ldr	r3, [sp, #0]
 1211 06dc 9CF80010 		ldrb	r1, [ip, #0]	@ zero_extendqisi2
 1212 06e0 3648     		ldr	r0, .L118
 1213              		.loc 2 297 0
 1214 06e2 4A1C     		adds	r2, r1, #1
 1215 06e4 D2B2     		uxtb	r2, r2
 1216              		.loc 2 296 0
 1217 06e6 40F82130 		str	r3, [r0, r1, lsl #2]
 1218              	.LBE12:
 1219              		.loc 2 695 0
 1220 06ea 531C     		adds	r3, r2, #1
 1221 06ec D9B2     		uxtb	r1, r3
 1222              		.loc 2 696 0
 1223 06ee 0020     		movs	r0, #0
 1224              		.loc 2 697 0
 1225 06f0 1F29     		cmp	r1, #31
 1226              		.loc 2 695 0
 1227 06f2 3170     		strb	r1, [r6, #0]
 1228              		.loc 2 698 0
 1229 06f4 88BF     		it	hi
 1230 06f6 3249     		ldrhi	r1, .L118+4
 1231              		.loc 2 696 0
 1232 06f8 3860     		str	r0, [r7, #0]
 1233              		.loc 2 698 0
 1234 06fa 88BF     		it	hi
 1235 06fc 0870     		strbhi	r0, [r1, #0]
 1236 06fe C7E4     		b	.L4
 1237              	.LVL66:
 1238              	.L56:
 1239              	.LBB13:
 1240              		.loc 2 262 0
 1241 0700 2F4B     		ldr	r3, .L118+4
 1242              	.LVL67:
 1243 0702 501C     		adds	r0, r2, #1
 1244 0704 1870     		strb	r0, [r3, #0]
 1245              	.L24:
 1246              		.loc 2 265 0
 1247 0706 FFF7FEFF 		bl	speedGetRpm
 1248 070a 0028     		cmp	r0, #0
 1249 070c 05DD     		ble	.L59
 1250              		.loc 2 265 0 is_stmt 0 discriminator 1
ARM GAS  C:\Users\DNIEL~1\AppData\Local\Temp\ccssI76W.s 			page 23


 1251 070e FFF7FEFF 		bl	speedGetRpm
 1252 0712 40F2E63C 		movw	ip, #998
 1253 0716 6045     		cmp	r0, ip
 1254 0718 4CDD     		ble	.L113
 1255              	.L59:
 1256              		.loc 2 271 0 is_stmt 1
 1257 071a FFF7FEFF 		bl	speedGetRpm
 1258 071e 294A     		ldr	r2, .L118+8
 1259 0720 2849     		ldr	r1, .L118+8
 1260 0722 82FB003C 		smull	r3, ip, r2, r0
 1261 0726 C017     		asrs	r0, r0, #31
 1262 0728 C0EBAC02 		rsb	r2, r0, ip, asr #2
 1263 072c 81FB023E 		smull	r3, lr, r1, r2
 1264 0730 D317     		asrs	r3, r2, #31
 1265              		.loc 2 272 0
 1266 0732 3178     		ldrb	r1, [r6, #0]	@ zero_extendqisi2
 1267 0734 DFF888C0 		ldr	ip, .L118+4
 1268 0738 59F82100 		ldr	r0, [r9, r1, lsl #2]
 1269              		.loc 2 271 0
 1270 073c C3EBAE03 		rsb	r3, r3, lr, asr #2
 1271 0740 03EB830E 		add	lr, r3, r3, lsl #2
 1272 0744 A2EB4E03 		sub	r3, r2, lr, lsl #1
 1273              		.loc 2 272 0
 1274 0748 9842     		cmp	r0, r3
 1275 074a 96D0     		beq	.L60
 1276              		.loc 2 274 0
 1277 074c 0020     		movs	r0, #0
 1278 074e 41F63111 		movw	r1, #6449
 1279 0752 0093     		str	r3, [sp, #0]
 1280 0754 CDF804C0 		str	ip, [sp, #4]
 1281 0758 FFF7FEFF 		bl	media_SetSector
 1282              		.loc 2 275 0
 1283 075c BA20     		movs	r0, #186
 1284 075e 7021     		movs	r1, #112
 1285 0760 B6E7     		b	.L102
 1286              	.L111:
 1287              		.loc 2 242 0
 1288 0762 FFF7FEFF 		bl	speedGetRpm
 1289 0766 184A     		ldr	r2, .L118+12
 1290 0768 C117     		asrs	r1, r0, #31
 1291 076a 82FB0023 		smull	r2, r3, r2, r0
 1292 076e C1EB6312 		rsb	r2, r1, r3, asr #5
 1293 0772 13B2     		sxth	r3, r2
 1294              	.LVL68:
 1295 0774 D4E4     		b	.L55
 1296              	.LVL69:
 1297              	.L19:
 1298              	.LBE13:
 1299              		.loc 2 226 0
 1300 0776 E071     		strb	r0, [r4, #7]
 1301              	.LVL70:
 1302 0778 8AE4     		b	.L4
 1303              	.LVL71:
 1304              	.L90:
 1305              	.LBB14:
 1306              		.loc 2 690 0
 1307 077a 0132     		adds	r2, r2, #1
ARM GAS  C:\Users\DNIEL~1\AppData\Local\Temp\ccssI76W.s 			page 24


 1308 077c D2B2     		uxtb	r2, r2
 1309              	.LBE14:
 1310              		.loc 2 695 0
 1311 077e 531C     		adds	r3, r2, #1
 1312 0780 D9B2     		uxtb	r1, r3
 1313              		.loc 2 696 0
 1314 0782 0020     		movs	r0, #0
 1315              		.loc 2 697 0
 1316 0784 1F29     		cmp	r1, #31
 1317              		.loc 2 695 0
 1318 0786 3170     		strb	r1, [r6, #0]
 1319              		.loc 2 698 0
 1320 0788 88BF     		it	hi
 1321 078a 0D49     		ldrhi	r1, .L118+4
 1322              		.loc 2 696 0
 1323 078c 3860     		str	r0, [r7, #0]
 1324              		.loc 2 698 0
 1325 078e 88BF     		it	hi
 1326 0790 0870     		strbhi	r0, [r1, #0]
 1327 0792 7DE4     		b	.L4
 1328              	.LVL72:
 1329              	.L57:
 1330              	.LBB15:
 1331              		.loc 2 253 0
 1332 0794 1846     		mov	r0, r3
 1333 0796 41F63111 		movw	r1, #6449
 1334 079a 0093     		str	r3, [sp, #0]
 1335 079c FFF7FEFF 		bl	media_SetSector
 1336              	.LVL73:
 1337              		.loc 2 254 0
 1338 07a0 BA20     		movs	r0, #186
 1339 07a2 3E21     		movs	r1, #62
 1340 07a4 0A22     		movs	r2, #10
 1341 07a6 FFF7FEFF 		bl	media_VideoFrame
 1342 07aa 009B     		ldr	r3, [sp, #0]
 1343 07ac CEE4     		b	.L58
 1344              	.L112:
 1345              		.loc 2 286 0
 1346 07ae FFF7FEFF 		bl	speedGetRpm
 1347 07b2 70E7     		b	.L61
 1348              	.L113:
 1349              		.loc 2 266 0
 1350 07b4 FFF7FEFF 		bl	speedGetRpm
 1351 07b8 AFE7     		b	.L59
 1352              	.L119:
 1353 07ba 00BF     		.align	2
 1354              	.L118:
 1355 07bc 00000000 		.word	.LANCHOR6
 1356 07c0 00000000 		.word	.LANCHOR5
 1357 07c4 67666666 		.word	1717986919
 1358 07c8 1F85EB51 		.word	1374389535
 1359              	.LBE15:
 1360              	.LBE2:
 1361              		.cfi_endproc
 1362              	.LFE123:
 1363              		.size	dspTask, .-dspTask
 1364 07cc AFF30080 		.section	.text.dsp_LoadTop,"ax",%progbits
ARM GAS  C:\Users\DNIEL~1\AppData\Local\Temp\ccssI76W.s 			page 25


 1365              		.align	2
 1366              		.p2align 4,,15
 1367              		.global	dsp_LoadTop
 1368              		.thumb
 1369              		.thumb_func
 1370              		.type	dsp_LoadTop, %function
 1371              	dsp_LoadTop:
 1372              	.LFB119:
 1373              		.loc 2 74 0
 1374              		.cfi_startproc
 1375              		@ args = 0, pretend = 0, frame = 0
 1376              		@ frame_needed = 0, uses_anonymous_args = 0
 1377 0000 10B5     		push	{r4, lr}
 1378              	.LCFI5:
 1379              		.cfi_def_cfa_offset 8
 1380              		.loc 2 76 0
 1381 0002 0020     		movs	r0, #0
 1382 0004 2721     		movs	r1, #39
 1383              		.cfi_offset 14, -4
 1384              		.cfi_offset 4, -8
 1385 0006 FFF7FEFF 		bl	media_SetSector
 1386              		.loc 2 77 0
 1387 000a 0022     		movs	r2, #0
 1388 000c 0721     		movs	r1, #7
 1389 000e 40F2B110 		movw	r0, #433
 1390 0012 FFF7FEFF 		bl	media_VideoFrame
 1391              		.loc 2 79 0
 1392 0016 0020     		movs	r0, #0
 1393 0018 41F6CC11 		movw	r1, #6604
 1394 001c FFF7FEFF 		bl	media_SetSector
 1395              		.loc 2 80 0
 1396 0020 0022     		movs	r2, #0
 1397 0022 3D21     		movs	r1, #61
 1398 0024 40F2B110 		movw	r0, #433
 1399 0028 FFF7FEFF 		bl	media_VideoFrame
 1400              		.loc 2 82 0
 1401 002c 0020     		movs	r0, #0
 1402 002e 4121     		movs	r1, #65
 1403 0030 FFF7FEFF 		bl	media_SetSector
 1404              		.loc 2 83 0
 1405 0034 0022     		movs	r2, #0
 1406 0036 9A21     		movs	r1, #154
 1407 0038 40F2B110 		movw	r0, #433
 1408 003c FFF7FEFF 		bl	media_VideoFrame
 1409              		.loc 2 85 0
 1410 0040 0020     		movs	r0, #0
 1411 0042 3221     		movs	r1, #50
 1412 0044 FFF7FEFF 		bl	media_SetSector
 1413              		.loc 2 86 0
 1414 0048 0022     		movs	r2, #0
 1415 004a E621     		movs	r1, #230
 1416 004c 40F2B110 		movw	r0, #433
 1417 0050 FFF7FEFF 		bl	media_VideoFrame
 1418              		.loc 2 88 0
 1419 0054 0020     		movs	r0, #0
 1420 0056 41F6DF11 		movw	r1, #6623
 1421 005a FFF7FEFF 		bl	media_SetSector
ARM GAS  C:\Users\DNIEL~1\AppData\Local\Temp\ccssI76W.s 			page 26


 1422              		.loc 2 89 0
 1423 005e 0022     		movs	r2, #0
 1424 0060 1A21     		movs	r1, #26
 1425 0062 40F27710 		movw	r0, #375
 1426 0066 FFF7FEFF 		bl	media_VideoFrame
 1427              		.loc 2 91 0
 1428 006a 0020     		movs	r0, #0
 1429 006c 0B21     		movs	r1, #11
 1430 006e FFF7FEFF 		bl	media_SetSector
 1431              		.loc 2 92 0
 1432 0072 0022     		movs	r2, #0
 1433 0074 40F27710 		movw	r0, #375
 1434 0078 5021     		movs	r1, #80
 1435 007a FFF7FEFF 		bl	media_VideoFrame
 1436              		.loc 2 94 0
 1437 007e 0020     		movs	r0, #0
 1438 0080 4C21     		movs	r1, #76
 1439 0082 FFF7FEFF 		bl	media_SetSector
 1440              		.loc 2 95 0
 1441 0086 0022     		movs	r2, #0
 1442 0088 AA21     		movs	r1, #170
 1443 008a 40F27710 		movw	r0, #375
 1444 008e FFF7FEFF 		bl	media_VideoFrame
 1445              		.loc 2 97 0
 1446 0092 0020     		movs	r0, #0
 1447 0094 0146     		mov	r1, r0
 1448 0096 FFF7FEFF 		bl	media_SetSector
 1449              		.loc 2 98 0
 1450 009a 0022     		movs	r2, #0
 1451 009c DB21     		movs	r1, #219
 1452 009e 40F27710 		movw	r0, #375
 1453 00a2 FFF7FEFF 		bl	media_VideoFrame
 1454              		.loc 2 100 0
 1455 00a6 0020     		movs	r0, #0
 1456 00a8 41F60411 		movw	r1, #6404
 1457 00ac FFF7FEFF 		bl	media_SetSector
 1458              		.loc 2 101 0
 1459 00b0 0421     		movs	r1, #4
 1460 00b2 4FF4AA70 		mov	r0, #340
 1461 00b6 FFF7FEFF 		bl	media_Image
 1462              		.loc 2 103 0
 1463 00ba 0020     		movs	r0, #0
 1464 00bc 41F6D711 		movw	r1, #6615
 1465 00c0 FFF7FEFF 		bl	media_SetSector
 1466              		.loc 2 104 0
 1467 00c4 4FF4AA70 		mov	r0, #340
 1468 00c8 A621     		movs	r1, #166
 1469              		.loc 2 106 0
 1470 00ca BDE81040 		pop	{r4, lr}
 1471              		.loc 2 104 0
 1472 00ce FFF7FEBF 		b	media_Image
 1473              		.cfi_endproc
 1474              	.LFE119:
 1475              		.size	dsp_LoadTop, .-dsp_LoadTop
 1476 00d2 00BFAFF3 		.section	.text.dsp_LoadMidle,"ax",%progbits
 1476      0080AFF3 
 1476      0080AFF3 
ARM GAS  C:\Users\DNIEL~1\AppData\Local\Temp\ccssI76W.s 			page 27


 1476      0080
 1477              		.align	2
 1478              		.p2align 4,,15
 1479              		.global	dsp_LoadMidle
 1480              		.thumb
 1481              		.thumb_func
 1482              		.type	dsp_LoadMidle, %function
 1483              	dsp_LoadMidle:
 1484              	.LFB120:
 1485              		.loc 2 107 0
 1486              		.cfi_startproc
 1487              		@ args = 0, pretend = 0, frame = 0
 1488              		@ frame_needed = 0, uses_anonymous_args = 0
 1489 0000 10B5     		push	{r4, lr}
 1490              	.LCFI6:
 1491              		.cfi_def_cfa_offset 8
 1492              		.loc 2 109 0
 1493 0002 0120     		movs	r0, #1
 1494              		.cfi_offset 14, -4
 1495              		.cfi_offset 4, -8
 1496 0004 FFF7FEFF 		bl	gfx_Transparency
 1497              		.loc 2 110 0
 1498 0008 1F20     		movs	r0, #31
 1499 000a FFF7FEFF 		bl	gfx_TransparentColour
 1500              		.loc 2 111 0
 1501 000e 0020     		movs	r0, #0
 1502 0010 5721     		movs	r1, #87
 1503 0012 FFF7FEFF 		bl	media_SetSector
 1504              		.loc 2 112 0
 1505 0016 0022     		movs	r2, #0
 1506 0018 9420     		movs	r0, #148
 1507 001a 1521     		movs	r1, #21
 1508 001c FFF7FEFF 		bl	media_VideoFrame
 1509              		.loc 2 114 0
 1510 0020 0020     		movs	r0, #0
 1511 0022 3D21     		movs	r1, #61
 1512 0024 FFF7FEFF 		bl	media_SetSector
 1513              		.loc 2 115 0
 1514 0028 A820     		movs	r0, #168
 1515 002a CC21     		movs	r1, #204
 1516 002c FFF7FEFF 		bl	media_Image
 1517              		.loc 2 117 0
 1518 0030 0020     		movs	r0, #0
 1519 0032 41F60A11 		movw	r1, #6410
 1520 0036 FFF7FEFF 		bl	media_SetSector
 1521              		.loc 2 118 0
 1522 003a 0022     		movs	r2, #0
 1523 003c F421     		movs	r1, #244
 1524 003e 40F23B10 		movw	r0, #315
 1525 0042 FFF7FEFF 		bl	media_VideoFrame
 1526              		.loc 2 119 0
 1527 0046 0020     		movs	r0, #0
 1528 0048 41F60A11 		movw	r1, #6410
 1529 004c FFF7FEFF 		bl	media_SetSector
 1530              		.loc 2 120 0
 1531 0050 0022     		movs	r2, #0
 1532 0052 2821     		movs	r1, #40
ARM GAS  C:\Users\DNIEL~1\AppData\Local\Temp\ccssI76W.s 			page 28


 1533 0054 40F23B10 		movw	r0, #315
 1534 0058 FFF7FEFF 		bl	media_VideoFrame
 1535              		.loc 2 122 0
 1536 005c 0020     		movs	r0, #0
 1537 005e 41F63111 		movw	r1, #6449
 1538 0062 FFF7FEFF 		bl	media_SetSector
 1539              		.loc 2 123 0
 1540 0066 BA20     		movs	r0, #186
 1541 0068 9B21     		movs	r1, #155
 1542 006a 0022     		movs	r2, #0
 1543              		.loc 2 125 0
 1544 006c BDE81040 		pop	{r4, lr}
 1545              		.loc 2 123 0
 1546 0070 FFF7FEBF 		b	media_VideoFrame
 1547              		.cfi_endproc
 1548              	.LFE120:
 1549              		.size	dsp_LoadMidle, .-dsp_LoadMidle
 1550 0074 AFF30080 		.section	.text.dsp_LoadBottom,"ax",%progbits
 1550      AFF30080 
 1550      AFF30080 
 1551              		.align	2
 1552              		.p2align 4,,15
 1553              		.global	dsp_LoadBottom
 1554              		.thumb
 1555              		.thumb_func
 1556              		.type	dsp_LoadBottom, %function
 1557              	dsp_LoadBottom:
 1558              	.LFB121:
 1559              		.loc 2 126 0
 1560              		.cfi_startproc
 1561              		@ args = 0, pretend = 0, frame = 0
 1562              		@ frame_needed = 0, uses_anonymous_args = 0
 1563 0000 10B5     		push	{r4, lr}
 1564              	.LCFI7:
 1565              		.cfi_def_cfa_offset 8
 1566              		.loc 2 128 0
 1567 0002 4FF4B470 		mov	r0, #360
 1568              		.loc 2 126 0
 1569 0006 82B0     		sub	sp, sp, #8
 1570              	.LCFI8:
 1571              		.cfi_def_cfa_offset 16
 1572              		.loc 2 128 0
 1573 0008 4FF6FF74 		movw	r4, #65535
 1574              		.cfi_offset 14, -4
 1575              		.cfi_offset 4, -8
 1576 000c 0021     		movs	r1, #0
 1577 000e 0246     		mov	r2, r0
 1578 0010 4FF48873 		mov	r3, #272
 1579 0014 0094     		str	r4, [sp, #0]
 1580 0016 FFF7FEFF 		bl	draw_line
 1581              		.loc 2 129 0
 1582 001a 9120     		movs	r0, #145
 1583 001c 4FF48873 		mov	r3, #272
 1584 0020 0246     		mov	r2, r0
 1585 0022 0021     		movs	r1, #0
 1586 0024 0094     		str	r4, [sp, #0]
 1587 0026 FFF7FEFF 		bl	draw_line
ARM GAS  C:\Users\DNIEL~1\AppData\Local\Temp\ccssI76W.s 			page 29


 1588              		.loc 2 131 0
 1589 002a 0020     		movs	r0, #0
 1590 002c 1C21     		movs	r1, #28
 1591 002e FFF7FEFF 		bl	media_SetSector
 1592              		.loc 2 132 0
 1593 0032 0022     		movs	r2, #0
 1594 0034 6C20     		movs	r0, #108
 1595 0036 0521     		movs	r1, #5
 1596 0038 FFF7FEFF 		bl	media_VideoFrame
 1597              		.loc 2 134 0
 1598 003c 0020     		movs	r0, #0
 1599 003e 1C21     		movs	r1, #28
 1600 0040 FFF7FEFF 		bl	media_SetSector
 1601              		.loc 2 135 0
 1602 0044 0122     		movs	r2, #1
 1603 0046 6C20     		movs	r0, #108
 1604 0048 8721     		movs	r1, #135
 1605 004a FFF7FEFF 		bl	media_VideoFrame
 1606              		.loc 2 137 0
 1607 004e 0020     		movs	r0, #0
 1608 0050 1C21     		movs	r1, #28
 1609 0052 FFF7FEFF 		bl	media_SetSector
 1610              		.loc 2 138 0
 1611 0056 0222     		movs	r2, #2
 1612 0058 4220     		movs	r0, #66
 1613 005a 8721     		movs	r1, #135
 1614 005c FFF7FEFF 		bl	media_VideoFrame
 1615              		.loc 2 140 0
 1616 0060 0020     		movs	r0, #0
 1617 0062 41F6EA11 		movw	r1, #6634
 1618 0066 FFF7FEFF 		bl	media_SetSector
 1619              		.loc 2 141 0
 1620 006a 4120     		movs	r0, #65
 1621 006c 0521     		movs	r1, #5
 1622 006e FFF7FEFF 		bl	media_Image
 1623              		.loc 2 143 0
 1624 0072 0020     		movs	r0, #0
 1625 0074 41F61711 		movw	r1, #6423
 1626 0078 FFF7FEFF 		bl	media_SetSector
 1627              		.loc 2 144 0
 1628 007c 0022     		movs	r2, #0
 1629 007e 6C20     		movs	r0, #108
 1630 0080 4F21     		movs	r1, #79
 1631 0082 FFF7FEFF 		bl	media_VideoFrame
 1632              		.loc 2 145 0
 1633 0086 0020     		movs	r0, #0
 1634 0088 41F61711 		movw	r1, #6423
 1635 008c FFF7FEFF 		bl	media_SetSector
 1636              		.loc 2 146 0
 1637 0090 0022     		movs	r2, #0
 1638 0092 6C20     		movs	r0, #108
 1639 0094 E421     		movs	r1, #228
 1640 0096 FFF7FEFF 		bl	media_VideoFrame
 1641              		.loc 2 147 0
 1642 009a 0020     		movs	r0, #0
 1643 009c 41F61711 		movw	r1, #6423
 1644 00a0 FFF7FEFF 		bl	media_SetSector
ARM GAS  C:\Users\DNIEL~1\AppData\Local\Temp\ccssI76W.s 			page 30


 1645              		.loc 2 148 0
 1646 00a4 0022     		movs	r2, #0
 1647 00a6 4220     		movs	r0, #66
 1648 00a8 4F21     		movs	r1, #79
 1649 00aa FFF7FEFF 		bl	media_VideoFrame
 1650              		.loc 2 149 0
 1651 00ae 0020     		movs	r0, #0
 1652 00b0 41F61711 		movw	r1, #6423
 1653 00b4 FFF7FEFF 		bl	media_SetSector
 1654              		.loc 2 150 0
 1655 00b8 0022     		movs	r2, #0
 1656 00ba 4220     		movs	r0, #66
 1657 00bc E421     		movs	r1, #228
 1658 00be FFF7FEFF 		bl	media_VideoFrame
 1659              		.loc 2 152 0
 1660 00c2 0020     		movs	r0, #0
 1661 00c4 1621     		movs	r1, #22
 1662 00c6 FFF7FEFF 		bl	media_SetSector
 1663              		.loc 2 153 0
 1664 00ca 0222     		movs	r2, #2
 1665 00cc 6620     		movs	r0, #102
 1666 00ce 6921     		movs	r1, #105
 1667 00d0 FFF7FEFF 		bl	media_VideoFrame
 1668              		.loc 2 154 0
 1669 00d4 1621     		movs	r1, #22
 1670 00d6 0020     		movs	r0, #0
 1671 00d8 FFF7FEFF 		bl	media_SetSector
 1672              		.loc 2 155 0
 1673 00dc 0122     		movs	r2, #1
 1674 00de 4120     		movs	r0, #65
 1675 00e0 6921     		movs	r1, #105
 1676 00e2 FFF7FEFF 		bl	media_VideoFrame
 1677              		.loc 2 156 0
 1678 00e6 0020     		movs	r0, #0
 1679 00e8 1621     		movs	r1, #22
 1680 00ea FFF7FEFF 		bl	media_SetSector
 1681              		.loc 2 157 0
 1682 00ee 0022     		movs	r2, #0
 1683 00f0 6620     		movs	r0, #102
 1684 00f2 F921     		movs	r1, #249
 1685 00f4 FFF7FEFF 		bl	media_VideoFrame
 1686              		.loc 2 158 0
 1687 00f8 0020     		movs	r0, #0
 1688 00fa 1621     		movs	r1, #22
 1689 00fc FFF7FEFF 		bl	media_SetSector
 1690              		.loc 2 159 0
 1691 0100 4120     		movs	r0, #65
 1692 0102 F921     		movs	r1, #249
 1693 0104 0022     		movs	r2, #0
 1694              		.loc 2 161 0
 1695 0106 02B0     		add	sp, sp, #8
 1696 0108 BDE81040 		pop	{r4, lr}
 1697              		.loc 2 159 0
 1698 010c FFF7FEBF 		b	media_VideoFrame
 1699              		.cfi_endproc
 1700              	.LFE121:
 1701              		.size	dsp_LoadBottom, .-dsp_LoadBottom
ARM GAS  C:\Users\DNIEL~1\AppData\Local\Temp\ccssI76W.s 			page 31


 1702              		.section	.text.dsp_RefreshMidle,"ax",%progbits
 1703              		.align	2
 1704              		.p2align 4,,15
 1705              		.global	dsp_RefreshMidle
 1706              		.thumb
 1707              		.thumb_func
 1708              		.type	dsp_RefreshMidle, %function
 1709              	dsp_RefreshMidle:
 1710              	.LFB122:
 1711              		.loc 2 163 0
 1712              		.cfi_startproc
 1713              		@ args = 0, pretend = 0, frame = 0
 1714              		@ frame_needed = 0, uses_anonymous_args = 0
 1715              	.LVL74:
 1716 0000 70B5     		push	{r4, r5, r6, lr}
 1717              	.LCFI9:
 1718              		.cfi_def_cfa_offset 16
 1719              		.loc 2 163 0
 1720 0002 0446     		mov	r4, r0
 1721              		.cfi_offset 14, -4
 1722              		.cfi_offset 6, -8
 1723              		.cfi_offset 5, -12
 1724              		.cfi_offset 4, -16
 1725              		.loc 2 165 0
 1726 0004 0120     		movs	r0, #1
 1727              	.LVL75:
 1728 0006 FFF7FEFF 		bl	gfx_Transparency
 1729              		.loc 2 166 0
 1730 000a 1F20     		movs	r0, #31
 1731 000c FFF7FEFF 		bl	gfx_TransparentColour
 1732              		.loc 2 167 0
 1733 0010 5721     		movs	r1, #87
 1734 0012 0020     		movs	r0, #0
 1735 0014 FFF7FEFF 		bl	media_SetSector
 1736              		.loc 2 168 0
 1737 0018 3548     		ldr	r0, .L127
 1738 001a E517     		asrs	r5, r4, #31
 1739 001c 80FB0412 		smull	r1, r2, r0, r4
 1740 0020 C5EB6202 		rsb	r2, r5, r2, asr #1
 1741 0024 9420     		movs	r0, #148
 1742 0026 1521     		movs	r1, #21
 1743 0028 FFF7FEFF 		bl	media_VideoFrame
 1744              		.loc 2 170 0
 1745 002c 0020     		movs	r0, #0
 1746 002e 3D21     		movs	r1, #61
 1747 0030 FFF7FEFF 		bl	media_SetSector
 1748              		.loc 2 171 0
 1749 0034 A820     		movs	r0, #168
 1750 0036 CC21     		movs	r1, #204
 1751 0038 FFF7FEFF 		bl	media_Image
 1752              		.loc 2 173 0
 1753 003c 0020     		movs	r0, #0
 1754 003e 41F60A11 		movw	r1, #6410
 1755 0042 FFF7FEFF 		bl	media_SetSector
 1756              		.loc 2 174 0
 1757 0046 0022     		movs	r2, #0
 1758 0048 F421     		movs	r1, #244
ARM GAS  C:\Users\DNIEL~1\AppData\Local\Temp\ccssI76W.s 			page 32


 1759 004a 40F23B10 		movw	r0, #315
 1760 004e FFF7FEFF 		bl	media_VideoFrame
 1761              		.loc 2 175 0
 1762 0052 0020     		movs	r0, #0
 1763 0054 41F60A11 		movw	r1, #6410
 1764 0058 FFF7FEFF 		bl	media_SetSector
 1765              		.loc 2 176 0
 1766 005c 2121     		movs	r1, #33
 1767 005e 0022     		movs	r2, #0
 1768 0060 40F23B10 		movw	r0, #315
 1769 0064 FFF7FEFF 		bl	media_VideoFrame
 1770              		.loc 2 178 0
 1771 0068 04F16303 		add	r3, r4, #99
 1772 006c C62B     		cmp	r3, #198
 1773 006e 2FD8     		bhi	.L126
 1774              		.loc 2 183 0
 1775 0070 0020     		movs	r0, #0
 1776 0072 41F63111 		movw	r1, #6449
 1777 0076 FFF7FEFF 		bl	media_SetSector
 1778              		.loc 2 184 0
 1779 007a BA20     		movs	r0, #186
 1780 007c 3E21     		movs	r1, #62
 1781 007e 0A22     		movs	r2, #10
 1782 0080 FFF7FEFF 		bl	media_VideoFrame
 1783              	.L125:
 1784              		.loc 2 186 0
 1785 0084 0020     		movs	r0, #0
 1786 0086 41F63111 		movw	r1, #6449
 1787 008a FFF7FEFF 		bl	media_SetSector
 1788              		.loc 2 187 0
 1789 008e 184A     		ldr	r2, .L127
 1790 0090 82FB041C 		smull	r1, ip, r2, r4
 1791 0094 C5EBAC05 		rsb	r5, r5, ip, asr #2
 1792 0098 82FB0530 		smull	r3, r0, r2, r5
 1793 009c E917     		asrs	r1, r5, #31
 1794 009e C1EBA002 		rsb	r2, r1, r0, asr #2
 1795 00a2 02EB8203 		add	r3, r2, r2, lsl #2
 1796 00a6 A5EB4302 		sub	r2, r5, r3, lsl #1
 1797 00aa BA20     		movs	r0, #186
 1798 00ac 7021     		movs	r1, #112
 1799 00ae FFF7FEFF 		bl	media_VideoFrame
 1800              		.loc 2 188 0
 1801 00b2 0020     		movs	r0, #0
 1802 00b4 41F63111 		movw	r1, #6449
 1803 00b8 FFF7FEFF 		bl	media_SetSector
 1804              		.loc 2 189 0
 1805 00bc 05EB8505 		add	r5, r5, r5, lsl #2
 1806 00c0 BA20     		movs	r0, #186
 1807 00c2 A221     		movs	r1, #162
 1808 00c4 A4EB4502 		sub	r2, r4, r5, lsl #1
 1809              		.loc 2 190 0
 1810 00c8 BDE87040 		pop	{r4, r5, r6, lr}
 1811              		.loc 2 189 0
 1812 00cc FFF7FEBF 		b	media_VideoFrame
 1813              	.L126:
 1814              		.loc 2 179 0
 1815 00d0 0020     		movs	r0, #0
ARM GAS  C:\Users\DNIEL~1\AppData\Local\Temp\ccssI76W.s 			page 33


 1816 00d2 41F63111 		movw	r1, #6449
 1817 00d6 FFF7FEFF 		bl	media_SetSector
 1818              		.loc 2 180 0
 1819 00da 0649     		ldr	r1, .L127+4
 1820 00dc 81FB043C 		smull	r3, ip, r1, r4
 1821 00e0 BA20     		movs	r0, #186
 1822 00e2 3E21     		movs	r1, #62
 1823 00e4 C5EB6C12 		rsb	r2, r5, ip, asr #5
 1824 00e8 FFF7FEFF 		bl	media_VideoFrame
 1825 00ec CAE7     		b	.L125
 1826              	.L128:
 1827 00ee 00BF     		.align	2
 1828              	.L127:
 1829 00f0 67666666 		.word	1717986919
 1830 00f4 1F85EB51 		.word	1374389535
 1831              		.cfi_endproc
 1832              	.LFE122:
 1833              		.size	dsp_RefreshMidle, .-dsp_RefreshMidle
 1834 00f8 AFF30080 		.section	.text.dspInit,"ax",%progbits
 1834      AFF30080 
 1835              		.align	2
 1836              		.p2align 4,,15
 1837              		.global	dspInit
 1838              		.thumb
 1839              		.thumb_func
 1840              		.type	dspInit, %function
 1841              	dspInit:
 1842              	.LFB124:
 1843              		.loc 2 708 0
 1844              		.cfi_startproc
 1845              		@ args = 0, pretend = 0, frame = 0
 1846              		@ frame_needed = 0, uses_anonymous_args = 0
 1847 0000 30B5     		push	{r4, r5, lr}
 1848              	.LCFI10:
 1849              		.cfi_def_cfa_offset 12
 1850              		.loc 2 716 0
 1851 0002 0D4D     		ldr	r5, .L130
 1852              		.cfi_offset 14, -4
 1853              		.cfi_offset 5, -8
 1854              		.cfi_offset 4, -12
 1855              		.loc 2 708 0
 1856 0004 83B0     		sub	sp, sp, #12
 1857              	.LCFI11:
 1858              		.cfi_def_cfa_offset 24
 1859              		.loc 2 710 0
 1860 0006 FFF7FEFF 		bl	gfx_Cls
 1861              		.loc 2 716 0
 1862 000a 0024     		movs	r4, #0
 1863              		.loc 2 711 0
 1864 000c FFF7FEFF 		bl	file_Mount
 1865              		.loc 2 712 0
 1866 0010 FFF7FEFF 		bl	dsp_LoadTop
 1867              		.loc 2 713 0
 1868 0014 FFF7FEFF 		bl	dsp_LoadMidle
 1869              		.loc 2 714 0
 1870 0018 FFF7FEFF 		bl	dsp_LoadBottom
 1871              		.loc 2 715 0
ARM GAS  C:\Users\DNIEL~1\AppData\Local\Temp\ccssI76W.s 			page 34


 1872 001c FFF7FEFF 		bl	bus_In
 1873              		.loc 2 717 0
 1874 0020 064B     		ldr	r3, .L130+4
 1875 0022 0748     		ldr	r0, .L130+8
 1876              		.loc 2 716 0
 1877 0024 2C70     		strb	r4, [r5, #0]
 1878              		.loc 2 717 0
 1879 0026 4FF4E871 		mov	r1, #464
 1880 002a 4722     		movs	r2, #71
 1881 002c 0094     		str	r4, [sp, #0]
 1882 002e FFF7FEFF 		bl	chThdCreateStatic
 1883              		.loc 2 718 0
 1884 0032 03B0     		add	sp, sp, #12
 1885 0034 30BD     		pop	{r4, r5, pc}
 1886              	.L131:
 1887 0036 00BF     		.align	2
 1888              	.L130:
 1889 0038 00000000 		.word	.LANCHOR5
 1890 003c 00000000 		.word	dspTask
 1891 0040 00000000 		.word	.LANCHOR7
 1892              		.cfi_endproc
 1893              	.LFE124:
 1894              		.size	dspInit, .-dspInit
 1895 0044 AFF30080 		.section	.text.dspCalc,"ax",%progbits
 1895      AFF30080 
 1895      AFF30080 
 1896              		.align	2
 1897              		.p2align 4,,15
 1898              		.global	dspCalc
 1899              		.thumb
 1900              		.thumb_func
 1901              		.type	dspCalc, %function
 1902              	dspCalc:
 1903              	.LFB125:
 1904              		.loc 2 720 0
 1905              		.cfi_startproc
 1906              		@ args = 0, pretend = 0, frame = 0
 1907              		@ frame_needed = 0, uses_anonymous_args = 0
 1908              		@ link register save eliminated.
 1909              		.loc 2 1215 0
 1910 0000 7047     		bx	lr
 1911              		.cfi_endproc
 1912              	.LFE125:
 1913              		.size	dspCalc, .-dspCalc
 1914 0002 00BFAFF3 		.section	.text.dspGetValue,"ax",%progbits
 1914      0080AFF3 
 1914      0080AFF3 
 1914      0080
 1915              		.align	2
 1916              		.p2align 4,,15
 1917              		.global	dspGetValue
 1918              		.thumb
 1919              		.thumb_func
 1920              		.type	dspGetValue, %function
 1921              	dspGetValue:
 1922              	.LFB126:
 1923              		.loc 2 1217 0
ARM GAS  C:\Users\DNIEL~1\AppData\Local\Temp\ccssI76W.s 			page 35


 1924              		.cfi_startproc
 1925              		@ args = 0, pretend = 0, frame = 0
 1926              		@ frame_needed = 0, uses_anonymous_args = 0
 1927              		@ link register save eliminated.
 1928              	.LVL76:
 1929              		.loc 2 1220 0
 1930 0000 034B     		ldr	r3, .L134
 1931 0002 0828     		cmp	r0, #8
 1932 0004 94BF     		ite	ls
 1933 0006 1B18     		addls	r3, r3, r0
 1934 0008 0833     		addhi	r3, r3, #8
 1935              		.loc 2 1221 0
 1936 000a 13F8010C 		ldrb	r0, [r3, #-1]	@ zero_extendqisi2
 1937              	.LVL77:
 1938 000e 7047     		bx	lr
 1939              	.L135:
 1940              		.align	2
 1941              	.L134:
 1942 0010 00000000 		.word	.LANCHOR2
 1943              		.cfi_endproc
 1944              	.LFE126:
 1945              		.size	dspGetValue, .-dspGetValue
 1946 0014 AFF30080 		.section	.text.cmd_dspvalues,"ax",%progbits
 1946      AFF30080 
 1946      AFF30080 
 1947              		.align	2
 1948              		.p2align 4,,15
 1949              		.global	cmd_dspvalues
 1950              		.thumb
 1951              		.thumb_func
 1952              		.type	cmd_dspvalues, %function
 1953              	cmd_dspvalues:
 1954              	.LFB127:
 1955              		.loc 2 1223 0
 1956              		.cfi_startproc
 1957              		@ args = 0, pretend = 0, frame = 0
 1958              		@ frame_needed = 0, uses_anonymous_args = 0
 1959              	.LVL78:
 1960 0000 2DE9F041 		push	{r4, r5, r6, r7, r8, lr}
 1961              	.LCFI12:
 1962              		.cfi_def_cfa_offset 24
 1963              		.loc 2 1228 0
 1964 0004 3F49     		ldr	r1, .L147
 1965              	.LVL79:
 1966              		.loc 2 1232 0
 1967 0006 DFF83081 		ldr	r8, .L147+52
 1968              		.cfi_offset 14, -4
 1969              		.cfi_offset 8, -8
 1970              		.cfi_offset 7, -12
 1971              		.cfi_offset 6, -16
 1972              		.cfi_offset 5, -20
 1973              		.cfi_offset 4, -24
 1974              		.loc 2 1223 0
 1975 000a 3F4E     		ldr	r6, .L147+4
 1976 000c 0546     		mov	r5, r0
 1977              		.loc 2 1228 0
 1978 000e FFF7FEFF 		bl	chprintf
ARM GAS  C:\Users\DNIEL~1\AppData\Local\Temp\ccssI76W.s 			page 36


 1979              	.LVL80:
 1980              		.loc 2 1229 0
 1981 0012 2846     		mov	r0, r5
 1982 0014 3D49     		ldr	r1, .L147+8
 1983 0016 FFF7FEFF 		bl	chprintf
 1984              		.loc 2 1230 0
 1985 001a 2968     		ldr	r1, [r5, #0]
 1986 001c 2846     		mov	r0, r5
 1987 001e 4A69     		ldr	r2, [r1, #20]
 1988 0020 0021     		movs	r1, #0
 1989 0022 9047     		blx	r2
 1990 0024 B0F1FF3F 		cmp	r0, #-1
 1991 0028 69D1     		bne	.L146
 1992              	.L139:
 1993              		.loc 2 1231 0
 1994 002a 0022     		movs	r2, #0
 1995 002c 1346     		mov	r3, r2
 1996 002e 3849     		ldr	r1, .L147+12
 1997              		.loc 2 1236 0
 1998 0030 384F     		ldr	r7, .L147+16
 1999              		.loc 2 1223 0
 2000 0032 394C     		ldr	r4, .L147+20
 2001              		.loc 2 1231 0
 2002 0034 2846     		mov	r0, r5
 2003 0036 FFF7FEFF 		bl	chprintf
 2004              		.loc 2 1232 0
 2005 003a 98F80020 		ldrb	r2, [r8, #0]	@ zero_extendqisi2
 2006 003e 3749     		ldr	r1, .L147+24
 2007 0040 2846     		mov	r0, r5
 2008 0042 FFF7FEFF 		bl	chprintf
 2009              		.loc 2 1233 0
 2010 0046 2846     		mov	r0, r5
 2011 0048 3549     		ldr	r1, .L147+28
 2012 004a FFF7FEFF 		bl	chprintf
 2013              	.LVL81:
 2014              		.loc 2 1236 0
 2015 004e 3549     		ldr	r1, .L147+32
 2016 0050 3A78     		ldrb	r2, [r7, #0]	@ zero_extendqisi2
 2017 0052 2846     		mov	r0, r5
 2018 0054 FFF7FEFF 		bl	chprintf
 2019              	.LVL82:
 2020 0058 2846     		mov	r0, r5
 2021 005a 3249     		ldr	r1, .L147+32
 2022 005c 7A78     		ldrb	r2, [r7, #1]	@ zero_extendqisi2
 2023 005e FFF7FEFF 		bl	chprintf
 2024              	.LVL83:
 2025 0062 2846     		mov	r0, r5
 2026 0064 2F49     		ldr	r1, .L147+32
 2027 0066 BA78     		ldrb	r2, [r7, #2]	@ zero_extendqisi2
 2028 0068 FFF7FEFF 		bl	chprintf
 2029              	.LVL84:
 2030 006c 2846     		mov	r0, r5
 2031 006e 2D49     		ldr	r1, .L147+32
 2032 0070 FA78     		ldrb	r2, [r7, #3]	@ zero_extendqisi2
 2033 0072 FFF7FEFF 		bl	chprintf
 2034              	.LVL85:
 2035 0076 2846     		mov	r0, r5
ARM GAS  C:\Users\DNIEL~1\AppData\Local\Temp\ccssI76W.s 			page 37


 2036 0078 2A49     		ldr	r1, .L147+32
 2037 007a 3A79     		ldrb	r2, [r7, #4]	@ zero_extendqisi2
 2038 007c FFF7FEFF 		bl	chprintf
 2039              	.LVL86:
 2040 0080 2846     		mov	r0, r5
 2041 0082 2849     		ldr	r1, .L147+32
 2042 0084 7A79     		ldrb	r2, [r7, #5]	@ zero_extendqisi2
 2043 0086 FFF7FEFF 		bl	chprintf
 2044              	.LVL87:
 2045 008a 2846     		mov	r0, r5
 2046 008c 2549     		ldr	r1, .L147+32
 2047 008e BA79     		ldrb	r2, [r7, #6]	@ zero_extendqisi2
 2048 0090 FFF7FEFF 		bl	chprintf
 2049              	.LVL88:
 2050 0094 FA79     		ldrb	r2, [r7, #7]	@ zero_extendqisi2
 2051 0096 2349     		ldr	r1, .L147+32
 2052 0098 2846     		mov	r0, r5
 2053 009a FFF7FEFF 		bl	chprintf
 2054              	.LVL89:
 2055              		.loc 2 1238 0
 2056 009e 2846     		mov	r0, r5
 2057 00a0 2149     		ldr	r1, .L147+36
 2058 00a2 FFF7FEFF 		bl	chprintf
 2059              		.loc 2 1239 0
 2060 00a6 2846     		mov	r0, r5
 2061 00a8 2049     		ldr	r1, .L147+40
 2062 00aa FFF7FEFF 		bl	chprintf
 2063              	.LVL90:
 2064              		.loc 2 1242 0
 2065 00ae 2846     		mov	r0, r5
 2066 00b0 1C49     		ldr	r1, .L147+32
 2067 00b2 2268     		ldr	r2, [r4, #0]
 2068 00b4 FFF7FEFF 		bl	chprintf
 2069              	.LVL91:
 2070              	.L138:
 2071              		.loc 2 1223 0 discriminator 2
 2072 00b8 271D     		adds	r7, r4, #4
 2073              		.loc 2 1242 0 discriminator 2
 2074 00ba 6268     		ldr	r2, [r4, #4]
 2075 00bc 1949     		ldr	r1, .L147+32
 2076 00be 2846     		mov	r0, r5
 2077 00c0 FFF7FEFF 		bl	chprintf
 2078              		.loc 2 1223 0 discriminator 2
 2079 00c4 0834     		adds	r4, r4, #8
 2080              		.loc 2 1242 0 discriminator 2
 2081 00c6 2846     		mov	r0, r5
 2082 00c8 1649     		ldr	r1, .L147+32
 2083 00ca 7A68     		ldr	r2, [r7, #4]
 2084 00cc FFF7FEFF 		bl	chprintf
 2085              		.loc 2 1240 0 discriminator 2
 2086 00d0 B442     		cmp	r4, r6
 2087 00d2 F1D1     		bne	.L138
 2088              		.loc 2 1244 0
 2089 00d4 2846     		mov	r0, r5
 2090 00d6 1449     		ldr	r1, .L147+36
 2091 00d8 FFF7FEFF 		bl	chprintf
 2092              		.loc 2 1245 0
ARM GAS  C:\Users\DNIEL~1\AppData\Local\Temp\ccssI76W.s 			page 38


 2093 00dc 144B     		ldr	r3, .L147+44
 2094 00de 1549     		ldr	r1, .L147+48
 2095 00e0 1A78     		ldrb	r2, [r3, #0]	@ zero_extendqisi2
 2096 00e2 2846     		mov	r0, r5
 2097 00e4 FFF7FEFF 		bl	chprintf
 2098              		.loc 2 1246 0
 2099 00e8 9620     		movs	r0, #150
 2100 00ea FFF7FEFF 		bl	chThdSleep
 2101              		.loc 2 1230 0
 2102 00ee 2968     		ldr	r1, [r5, #0]
 2103 00f0 2846     		mov	r0, r5
 2104 00f2 4A69     		ldr	r2, [r1, #20]
 2105 00f4 0021     		movs	r1, #0
 2106 00f6 9047     		blx	r2
 2107 00f8 B0F1FF3F 		cmp	r0, #-1
 2108 00fc 95D0     		beq	.L139
 2109              	.L146:
 2110              		.loc 2 1248 0
 2111 00fe BDE8F081 		pop	{r4, r5, r6, r7, r8, pc}
 2112              	.L148:
 2113 0102 00BF     		.align	2
 2114              	.L147:
 2115 0104 08000000 		.word	.LC1
 2116 0108 80000000 		.word	.LANCHOR6+128
 2117 010c 0C000000 		.word	.LC2
 2118 0110 14000000 		.word	.LC3
 2119 0114 00000000 		.word	.LANCHOR2
 2120 0118 00000000 		.word	.LANCHOR6
 2121 011c 20000000 		.word	.LC4
 2122 0120 34000000 		.word	.LC5
 2123 0124 40000000 		.word	.LC6
 2124 0128 44000000 		.word	.LC7
 2125 012c 48000000 		.word	.LC8
 2126 0130 00000000 		.word	.LANCHOR5
 2127 0134 58000000 		.word	.LC9
 2128 0138 00000000 		.word	.LANCHOR1
 2129              		.cfi_endproc
 2130              	.LFE127:
 2131              		.size	cmd_dspvalues, .-cmd_dspvalues
 2132 013c AFF30080 		.section	.text.cmdfrappans_dspmessages,"ax",%progbits
 2133              		.align	2
 2134              		.p2align 4,,15
 2135              		.global	cmdfrappans_dspmessages
 2136              		.thumb
 2137              		.thumb_func
 2138              		.type	cmdfrappans_dspmessages, %function
 2139              	cmdfrappans_dspmessages:
 2140              	.LFB128:
 2141              		.loc 2 1250 0
 2142              		.cfi_startproc
 2143              		@ args = 0, pretend = 0, frame = 0
 2144              		@ frame_needed = 0, uses_anonymous_args = 0
 2145              	.LVL92:
 2146 0000 70B5     		push	{r4, r5, r6, lr}
 2147              	.LCFI13:
 2148              		.cfi_def_cfa_offset 16
 2149              		.loc 2 1250 0
ARM GAS  C:\Users\DNIEL~1\AppData\Local\Temp\ccssI76W.s 			page 39


 2150 0002 0446     		mov	r4, r0
 2151              		.cfi_offset 14, -4
 2152              		.cfi_offset 6, -8
 2153              		.cfi_offset 5, -12
 2154              		.cfi_offset 4, -16
 2155 0004 0D46     		mov	r5, r1
 2156              		.loc 2 1256 0
 2157 0006 4149     		ldr	r1, .L161
 2158              	.LVL93:
 2159              		.loc 2 1250 0
 2160 0008 1646     		mov	r6, r2
 2161              		.loc 2 1256 0
 2162 000a FFF7FEFF 		bl	chprintf
 2163              	.LVL94:
 2164              		.loc 2 1257 0
 2165 000e 2046     		mov	r0, r4
 2166 0010 3F49     		ldr	r1, .L161+4
 2167 0012 FFF7FEFF 		bl	chprintf
 2168              		.loc 2 1258 0
 2169 0016 2168     		ldr	r1, [r4, #0]
 2170 0018 2046     		mov	r0, r4
 2171 001a 4B69     		ldr	r3, [r1, #20]
 2172 001c 0021     		movs	r1, #0
 2173 001e 9847     		blx	r3
 2174 0020 B0F1FF3F 		cmp	r0, #-1
 2175 0024 11D0     		beq	.L156
 2176              	.LVL95:
 2177              	.L150:
 2178              		.loc 2 1303 0
 2179 0026 2046     		mov	r0, r4
 2180 0028 3A49     		ldr	r1, .L161+8
 2181 002a FFF7FEFF 		bl	chprintf
 2182              		.loc 2 1304 0
 2183 002e 2046     		mov	r0, r4
 2184 0030 3949     		ldr	r1, .L161+12
 2185 0032 FFF7FEFF 		bl	chprintf
 2186              		.loc 2 1305 0
 2187 0036 2046     		mov	r0, r4
 2188 0038 3849     		ldr	r1, .L161+16
 2189 003a FFF7FEFF 		bl	chprintf
 2190              		.loc 2 1306 0
 2191 003e 3849     		ldr	r1, .L161+20
 2192 0040 2046     		mov	r0, r4
 2193              		.loc 2 1310 0
 2194 0042 BDE87040 		pop	{r4, r5, r6, lr}
 2195              		.loc 2 1306 0
 2196 0046 FFF7FEBF 		b	chprintf
 2197              	.LVL96:
 2198              	.L156:
 2199              	.LBB16:
 2200              		.loc 2 1259 0
 2201 004a 0022     		movs	r2, #0
 2202 004c 2046     		mov	r0, r4
 2203 004e 3549     		ldr	r1, .L161+24
 2204 0050 1346     		mov	r3, r2
 2205 0052 FFF7FEFF 		bl	chprintf
 2206              		.loc 2 1261 0
ARM GAS  C:\Users\DNIEL~1\AppData\Local\Temp\ccssI76W.s 			page 40


 2207 0056 012D     		cmp	r5, #1
 2208 0058 11D0     		beq	.L157
 2209              		.loc 2 1291 0
 2210 005a 022D     		cmp	r5, #2
 2211 005c E3D1     		bne	.L150
 2212              		.loc 2 1291 0 is_stmt 0 discriminator 1
 2213 005e 3068     		ldr	r0, [r6, #0]
 2214 0060 3149     		ldr	r1, .L161+28
 2215 0062 FFF7FEFF 		bl	strcmp
 2216 0066 0028     		cmp	r0, #0
 2217 0068 DDD1     		bne	.L150
 2218              	.LBB17:
 2219              		.loc 2 1293 0 is_stmt 1
 2220 006a 2046     		mov	r0, r4
 2221 006c 2F49     		ldr	r1, .L161+32
 2222 006e FFF7FEFF 		bl	chprintf
 2223              		.loc 2 1294 0
 2224 0072 7068     		ldr	r0, [r6, #4]
 2225 0074 FFF7FEFF 		bl	atol
 2226 0078 2D4A     		ldr	r2, .L161+36
 2227 007a 1060     		str	r0, [r2, #0]
 2228              	.LBE17:
 2229              	.LBE16:
 2230              		.loc 2 1310 0
 2231 007c 70BD     		pop	{r4, r5, r6, pc}
 2232              	.L157:
 2233              	.LBB18:
 2234              		.loc 2 1261 0 discriminator 1
 2235 007e 3568     		ldr	r5, [r6, #0]
 2236              	.LVL97:
 2237 0080 2C49     		ldr	r1, .L161+40
 2238 0082 2846     		mov	r0, r5
 2239 0084 FFF7FEFF 		bl	strcmp
 2240 0088 0028     		cmp	r0, #0
 2241 008a 1DD0     		beq	.L158
 2242              		.loc 2 1268 0 discriminator 1
 2243 008c 2846     		mov	r0, r5
 2244 008e 2A49     		ldr	r1, .L161+44
 2245 0090 FFF7FEFF 		bl	strcmp
 2246 0094 0646     		mov	r6, r0
 2247              	.LVL98:
 2248 0096 0028     		cmp	r0, #0
 2249 0098 1ED0     		beq	.L159
 2250              		.loc 2 1276 0 discriminator 1
 2251 009a 2846     		mov	r0, r5
 2252 009c 2749     		ldr	r1, .L161+48
 2253 009e FFF7FEFF 		bl	strcmp
 2254 00a2 0646     		mov	r6, r0
 2255 00a4 0028     		cmp	r0, #0
 2256 00a6 22D0     		beq	.L160
 2257              		.loc 2 1285 0 discriminator 1
 2258 00a8 2846     		mov	r0, r5
 2259 00aa 2549     		ldr	r1, .L161+52
 2260 00ac FFF7FEFF 		bl	strcmp
 2261 00b0 0028     		cmp	r0, #0
 2262 00b2 B8D1     		bne	.L150
 2263              		.loc 2 1287 0
ARM GAS  C:\Users\DNIEL~1\AppData\Local\Temp\ccssI76W.s 			page 41


 2264 00b4 2046     		mov	r0, r4
 2265 00b6 1D49     		ldr	r1, .L161+32
 2266 00b8 FFF7FEFF 		bl	chprintf
 2267              		.loc 2 1288 0
 2268 00bc 4FF47840 		mov	r0, #63488
 2269              	.LBE18:
 2270              		.loc 2 1310 0
 2271 00c0 BDE87040 		pop	{r4, r5, r6, lr}
 2272              	.LBB19:
 2273              		.loc 2 1288 0
 2274 00c4 FFF7FEBF 		b	gfx_BGcolour
 2275              	.LVL99:
 2276              	.L158:
 2277              		.loc 2 1263 0
 2278 00c8 2046     		mov	r0, r4
 2279 00ca 1E49     		ldr	r1, .L161+56
 2280 00cc FFF7FEFF 		bl	chprintf
 2281              	.LBE19:
 2282              		.loc 2 1310 0
 2283 00d0 BDE87040 		pop	{r4, r5, r6, lr}
 2284              	.LBB20:
 2285              		.loc 2 1264 0
 2286 00d4 FFF7FEBF 		b	gfx_Cls
 2287              	.LVL100:
 2288              	.L159:
 2289              		.loc 2 1270 0
 2290 00d8 2046     		mov	r0, r4
 2291 00da 1B49     		ldr	r1, .L161+60
 2292 00dc FFF7FEFF 		bl	chprintf
 2293              		.loc 2 1271 0
 2294 00e0 3046     		mov	r0, r6
 2295 00e2 41F6C111 		movw	r1, #6593
 2296              	.LBE20:
 2297              		.loc 2 1310 0
 2298 00e6 BDE87040 		pop	{r4, r5, r6, lr}
 2299              	.LBB21:
 2300              		.loc 2 1271 0
 2301 00ea FFF7FEBF 		b	media_SetSector
 2302              	.L160:
 2303              		.loc 2 1278 0
 2304 00ee 2046     		mov	r0, r4
 2305 00f0 1649     		ldr	r1, .L161+64
 2306 00f2 FFF7FEFF 		bl	chprintf
 2307              		.loc 2 1280 0
 2308 00f6 3046     		mov	r0, r6
 2309 00f8 41F6C111 		movw	r1, #6593
 2310 00fc FFF7FEFF 		bl	media_SetSector
 2311              		.loc 2 1281 0
 2312 0100 3046     		mov	r0, r6
 2313 0102 3146     		mov	r1, r6
 2314              	.LBE21:
 2315              		.loc 2 1310 0
 2316 0104 BDE87040 		pop	{r4, r5, r6, lr}
 2317              	.LBB22:
 2318              		.loc 2 1281 0
 2319 0108 FFF7FEBF 		b	media_Image
 2320              	.L162:
ARM GAS  C:\Users\DNIEL~1\AppData\Local\Temp\ccssI76W.s 			page 42


 2321              		.align	2
 2322              	.L161:
 2323 010c 08000000 		.word	.LC1
 2324 0110 0C000000 		.word	.LC2
 2325 0114 48010000 		.word	.LC19
 2326 0118 58010000 		.word	.LC20
 2327 011c 68010000 		.word	.LC21
 2328 0120 78010000 		.word	.LC22
 2329 0124 14000000 		.word	.LC3
 2330 0128 40010000 		.word	.LC18
 2331 012c 14010000 		.word	.LC17
 2332 0130 00000000 		.word	.LANCHOR8
 2333 0134 6C000000 		.word	.LC10
 2334 0138 A0000000 		.word	.LC12
 2335 013c D4000000 		.word	.LC14
 2336 0140 08010000 		.word	.LC16
 2337 0144 74000000 		.word	.LC11
 2338 0148 A8000000 		.word	.LC13
 2339 014c DC000000 		.word	.LC15
 2340              	.LBE22:
 2341              		.cfi_endproc
 2342              	.LFE128:
 2343              		.size	cmdfrappans_dspmessages, .-cmdfrappans_dspmessages
 2344              		.global	db
 2345              		.global	db2
 2346              		.global	cruise_assis
 2347              		.global	dspstate
 2348              		.global	dspmessages
 2349              		.global	dsp_activ
 2350              		.global	c
 2351              		.global	szamlalo
 2352              		.section	.bss.bus_status,"aw",%nobits
 2353              		.set	.LANCHOR1,. + 0
 2354              		.type	bus_status, %object
 2355              		.size	bus_status, 1
 2356              	bus_status:
 2357 0000 00       		.space	1
 2358              		.section	.bss.cruise_assis,"aw",%nobits
 2359              		.type	cruise_assis, %object
 2360              		.size	cruise_assis, 1
 2361              	cruise_assis:
 2362 0000 00       		.space	1
 2363              		.section	.bss.dspstate,"aw",%nobits
 2364              		.type	dspstate, %object
 2365              		.size	dspstate, 1
 2366              	dspstate:
 2367 0000 00       		.space	1
 2368              		.section	.bss.tasknumber,"aw",%nobits
 2369              		.align	2
 2370              		.set	.LANCHOR4,. + 0
 2371              		.type	tasknumber, %object
 2372              		.size	tasknumber, 4
 2373              	tasknumber:
 2374 0000 00000000 		.space	4
 2375              		.section	.bss.c,"aw",%nobits
 2376              		.type	c, %object
 2377              		.size	c, 1
ARM GAS  C:\Users\DNIEL~1\AppData\Local\Temp\ccssI76W.s 			page 43


 2378              	c:
 2379 0000 00       		.space	1
 2380              		.section	.bss.dsp_activ,"aw",%nobits
 2381              		.type	dsp_activ, %object
 2382              		.size	dsp_activ, 1
 2383              	dsp_activ:
 2384 0000 00       		.space	1
 2385              		.section	.bss.bus_read,"aw",%nobits
 2386              		.set	.LANCHOR0,. + 0
 2387              		.type	bus_read, %object
 2388              		.size	bus_read, 1
 2389              	bus_read:
 2390 0000 00       		.space	1
 2391              		.section	.rodata.str1.4,"aMS",%progbits,1
 2392              		.align	2
 2393              	.LC0:
 2394 0000 64737054 		.ascii	"dspTask\000"
 2394      61736B00 
 2395              	.LC1:
 2396 0008 1B6300   		.ascii	"\033c\000"
 2397 000b 00       		.space	1
 2398              	.LC2:
 2399 000c 1B5B324A 		.ascii	"\033[2J\000"
 2399      00
 2400 0011 000000   		.space	3
 2401              	.LC3:
 2402 0014 1B5B2564 		.ascii	"\033[%d;%dH\000"
 2402      3B256448 
 2402      00
 2403 001d 000000   		.space	3
 2404              	.LC4:
 2405 0020 6275735F 		.ascii	"bus_status: %x\015\012\000"
 2405      73746174 
 2405      75733A20 
 2405      25780D0A 
 2405      00
 2406 0031 000000   		.space	3
 2407              	.LC5:
 2408 0034 6275735F 		.ascii	"bus_bit[]: \000"
 2408      6269745B 
 2408      5D3A2000 
 2409              	.LC6:
 2410 0040 25642000 		.ascii	"%d \000"
 2411              	.LC7:
 2412 0044 0D0A00   		.ascii	"\015\012\000"
 2413 0047 00       		.space	1
 2414              	.LC8:
 2415 0048 64737056 		.ascii	"dspValues[]: \000"
 2415      616C7565 
 2415      735B5D3A 
 2415      2000
 2416 0056 0000     		.space	2
 2417              	.LC9:
 2418 0058 6473706D 		.ascii	"dspmessages: %d\015\012\000"
 2418      65737361 
 2418      6765733A 
 2418      2025640D 
ARM GAS  C:\Users\DNIEL~1\AppData\Local\Temp\ccssI76W.s 			page 44


 2418      0A00
 2419 006a 0000     		.space	2
 2420              	.LC10:
 2421 006c 436C6561 		.ascii	"Clear\000"
 2421      7200
 2422 0072 0000     		.space	2
 2423              	.LC11:
 2424 0074 2D2D2D2D 		.ascii	"-------------- dps clear --------------\015\012\000"
 2424      2D2D2D2D 
 2424      2D2D2D2D 
 2424      2D2D2064 
 2424      70732063 
 2425 009e 0000     		.space	2
 2426              	.LC12:
 2427 00a0 53656374 		.ascii	"Sector\000"
 2427      6F7200
 2428 00a7 00       		.space	1
 2429              	.LC13:
 2430 00a8 2D2D2D2D 		.ascii	"--------------Set sector --------------\015\012\000"
 2430      2D2D2D2D 
 2430      2D2D2D2D 
 2430      2D2D5365 
 2430      74207365 
 2431 00d2 0000     		.space	2
 2432              	.LC14:
 2433 00d4 496D6167 		.ascii	"Image\000"
 2433      6500
 2434 00da 0000     		.space	2
 2435              	.LC15:
 2436 00dc 2D2D2D2D 		.ascii	"-------------- media Image --------------\015\012\000"
 2436      2D2D2D2D 
 2436      2D2D2D2D 
 2436      2D2D206D 
 2436      65646961 
 2437              	.LC16:
 2438 0108 4261636B 		.ascii	"Background\000"
 2438      67726F75 
 2438      6E6400
 2439 0113 00       		.space	1
 2440              	.LC17:
 2441 0114 2D2D2D2D 		.ascii	"-------------- Background --------------\015\012\000"
 2441      2D2D2D2D 
 2441      2D2D2D2D 
 2441      2D2D2042 
 2441      61636B67 
 2442 013f 00       		.space	1
 2443              	.LC18:
 2444 0140 53706565 		.ascii	"Speed\000"
 2444      6400
 2445 0146 0000     		.space	2
 2446              	.LC19:
 2447 0148 55736167 		.ascii	"Usage: Clear\015\012\000"
 2447      653A2043 
 2447      6C656172 
 2447      0D0A00
 2448 0157 00       		.space	1
 2449              	.LC20:
ARM GAS  C:\Users\DNIEL~1\AppData\Local\Temp\ccssI76W.s 			page 45


 2450 0158 20202020 		.ascii	"       Sector\015\012\000"
 2450      20202053 
 2450      6563746F 
 2450      720D0A00 
 2451              	.LC21:
 2452 0168 20202020 		.ascii	"       Image\015\012\000"
 2452      20202049 
 2452      6D616765 
 2452      0D0A00
 2453 0177 00       		.space	1
 2454              	.LC22:
 2455 0178 20202020 		.ascii	"       Background\015\012\000"
 2455      20202042 
 2455      61636B67 
 2455      726F756E 
 2455      640D0A00 
 2456              		.section	.data.db,"aw",%progbits
 2457              		.align	2
 2458              		.set	.LANCHOR8,. + 0
 2459              		.type	db, %object
 2460              		.size	db, 4
 2461              	db:
 2462 0000 7F000000 		.word	127
 2463              		.section	.bss.bus_bit,"aw",%nobits
 2464              		.align	2
 2465              		.set	.LANCHOR2,. + 0
 2466              		.type	bus_bit, %object
 2467              		.size	bus_bit, 8
 2468              	bus_bit:
 2469 0000 00000000 		.space	8
 2469      00000000 
 2470              		.section	.bss.szamlalo,"aw",%nobits
 2471              		.align	2
 2472              		.set	.LANCHOR3,. + 0
 2473              		.type	szamlalo, %object
 2474              		.size	szamlalo, 4
 2475              	szamlalo:
 2476 0000 00000000 		.space	4
 2477              		.section	.data.dspValue,"aw",%progbits
 2478              		.align	2
 2479              		.set	.LANCHOR6,. + 0
 2480              		.type	dspValue, %object
 2481              		.size	dspValue, 132
 2482              	dspValue:
 2483 0000 FFFFFFFF 		.word	-1
 2484 0004 00000000 		.space	128
 2484      00000000 
 2484      00000000 
 2484      00000000 
 2484      00000000 
 2485              		.section	.bss.dspmessages,"aw",%nobits
 2486              		.set	.LANCHOR5,. + 0
 2487              		.type	dspmessages, %object
 2488              		.size	dspmessages, 1
 2489              	dspmessages:
 2490 0000 00       		.space	1
 2491              		.section	.bss.db2,"aw",%nobits
ARM GAS  C:\Users\DNIEL~1\AppData\Local\Temp\ccssI76W.s 			page 46


 2492              		.align	2
 2493              		.type	db2, %object
 2494              		.size	db2, 4
 2495              	db2:
 2496 0000 00000000 		.space	4
 2497              		.section	.bss.wadspTask,"aw",%nobits
 2498              		.align	3
 2499              		.set	.LANCHOR7,. + 0
 2500              		.type	wadspTask, %object
 2501              		.size	wadspTask, 464
 2502              	wadspTask:
 2503 0000 00000000 		.space	464
 2503      00000000 
 2503      00000000 
 2503      00000000 
 2503      00000000 
 2504              		.text
 2505              	.Letext0: