ARM GAS  C:\Users\DNIEL~1\AppData\Local\Temp\ccoiOgWq.s 			page 1


   1              		.syntax unified
   2              		.cpu cortex-m4
   3              		.fpu softvfp
   4              		.eabi_attribute 20, 1
   5              		.eabi_attribute 21, 1
   6              		.eabi_attribute 23, 3
   7              		.eabi_attribute 24, 1
   8              		.eabi_attribute 25, 1
   9              		.eabi_attribute 26, 1
  10              		.eabi_attribute 30, 2
  11              		.eabi_attribute 18, 4
  12              		.thumb
  13              		.file	"eeprom.c"
  20 0000 8B030000 		.text
  20      0200E802 
  20      00000201 
  20      FB0E0D00 
  20      01010101 
  21              	.Ltext0:
  22              		.cfi_sections	.debug_frame
  23              		.section	.text.chprintf,"ax",%progbits
  24              		.align	2
  25              		.p2align 4,,15
  26              		.thumb
  27              		.thumb_func
  28              		.type	chprintf, %function
  29              	chprintf:
  30              	.LFB118:
  31              		.file 1 "../../../ChibiOS/os/various/chprintf.h"
  32              		.loc 1 69 0
  33              		.cfi_startproc
  34              		@ args = 4, pretend = 12, frame = 8
  35              		@ frame_needed = 0, uses_anonymous_args = 1
  36              	.LVL0:
  37 0000 0EB4     		push	{r1, r2, r3}
  38              	.LCFI0:
  39              		.cfi_def_cfa_offset 12
  40 0002 00B5     		push	{lr}
  41              	.LCFI1:
  42              		.cfi_def_cfa_offset 16
  43 0004 82B0     		sub	sp, sp, #8
  44              	.LCFI2:
  45              		.cfi_def_cfa_offset 24
  46              		.loc 1 69 0
  47 0006 03AB     		add	r3, sp, #12
  48              		.cfi_offset 14, -16
  49              		.cfi_offset 3, -4
  50              		.cfi_offset 2, -8
  51              		.cfi_offset 1, -12
  52 0008 53F8041B 		ldr	r1, [r3], #4
  53              		.loc 1 73 0
ARM GAS  C:\Users\DNIEL~1\AppData\Local\Temp\ccoiOgWq.s 			page 2


  54 000c 1A46     		mov	r2, r3
  55              		.loc 1 72 0
  56 000e 0193     		str	r3, [sp, #4]
  57              		.loc 1 73 0
  58 0010 FFF7FEFF 		bl	chvprintf
  59              	.LVL1:
  60              		.loc 1 75 0
  61 0014 02B0     		add	sp, sp, #8
  62 0016 5DF804EB 		pop	{lr}
  63 001a 03B0     		add	sp, sp, #12
  64 001c 7047     		bx	lr
  65              		.cfi_endproc
  66              	.LFE118:
  67              		.size	chprintf, .-chprintf
  68 001e 00BF     		.section	.text.eepromInit,"ax",%progbits
  69              		.align	2
  70              		.p2align 4,,15
  71              		.global	eepromInit
  72              		.thumb
  73              		.thumb_func
  74              		.type	eepromInit, %function
  75              	eepromInit:
  76              	.LFB119:
  77              		.file 2 "src/eeprom.c"
  78              		.loc 2 31 0
  79              		.cfi_startproc
  80              		@ args = 0, pretend = 0, frame = 0
  81              		@ frame_needed = 0, uses_anonymous_args = 0
  82              		@ link register save eliminated.
  83              		.loc 2 32 0
  84 0000 0148     		ldr	r0, .L3
  85 0002 0249     		ldr	r1, .L3+4
  86              		.loc 2 33 0
  87              		.loc 2 32 0
  88 0004 FFF7FEBF 		b	i2cStart
  89              	.L4:
  90              		.align	2
  91              	.L3:
  92 0008 00000000 		.word	I2CD1
  93 000c 00000000 		.word	.LANCHOR0
  94              		.cfi_endproc
  95              	.LFE119:
  96              		.size	eepromInit, .-eepromInit
  97              		.section	.text.eepromWrite,"ax",%progbits
  98              		.align	2
  99              		.p2align 4,,15
 100              		.global	eepromWrite
 101              		.thumb
 102              		.thumb_func
 103              		.type	eepromWrite, %function
 104              	eepromWrite:
 105              	.LFB120:
 106              		.loc 2 54 0
 107              		.cfi_startproc
 108              		@ args = 0, pretend = 0, frame = 8
 109              		@ frame_needed = 0, uses_anonymous_args = 0
 110              	.LVL2:
ARM GAS  C:\Users\DNIEL~1\AppData\Local\Temp\ccoiOgWq.s 			page 3


 111 0000 F0B5     		push	{r4, r5, r6, r7, lr}
 112              	.LCFI3:
 113              		.cfi_def_cfa_offset 20
 114 0002 87B0     		sub	sp, sp, #28
 115              	.LCFI4:
 116              		.cfi_def_cfa_offset 48
 117              		.loc 2 60 0
 118 0004 030A     		lsrs	r3, r0, #8
 119              		.loc 2 63 0
 120 0006 0C46     		mov	r4, r1
 121              		.cfi_offset 14, -4
 122              		.cfi_offset 7, -8
 123              		.cfi_offset 6, -12
 124              		.cfi_offset 5, -16
 125              		.cfi_offset 4, -20
 126              		.loc 2 60 0
 127 0008 8DF81030 		strb	r3, [sp, #16]
 128              		.loc 2 61 0
 129 000c 8DF81100 		strb	r0, [sp, #17]
 130              		.loc 2 63 0
 131 0010 0029     		cmp	r1, #0
 132 0012 34D0     		beq	.L20
 133              		.loc 2 54 0
 134 0014 481C     		adds	r0, r1, #1
 135              	.LVL3:
 136 0016 04AE     		add	r6, sp, #16
 137 0018 0139     		subs	r1, r1, #1
 138              	.LVL4:
 139 001a 3318     		adds	r3, r6, r0
 140 001c C900     		lsls	r1, r1, #3
 141 001e B71C     		adds	r7, r6, #2
 142 0020 701C     		adds	r0, r6, #1
 143 0022 13F0010F 		tst	r3, #1
 144 0026 06D0     		beq	.L8
 145              	.L16:
 146              		.loc 2 64 0
 147 0028 013B     		subs	r3, r3, #1
 148              		.loc 2 65 0
 149 002a 32FA01F5 		lsrs	r5, r2, r1
 150 002e 0839     		subs	r1, r1, #8
 151              		.loc 2 63 0
 152 0030 8342     		cmp	r3, r0
 153              		.loc 2 65 0
 154 0032 5D70     		strb	r5, [r3, #1]
 155              		.loc 2 63 0
 156 0034 0BD0     		beq	.L6
 157              	.LVL5:
 158              	.L8:
 159              		.loc 2 64 0
 160 0036 BB42     		cmp	r3, r7
 161 0038 07D0     		beq	.L7
 162 003a 013B     		subs	r3, r3, #1
 163              		.loc 2 65 0
 164 003c 32FA01F5 		lsrs	r5, r2, r1
 165 0040 0839     		subs	r1, r1, #8
 166              		.loc 2 63 0
 167 0042 8342     		cmp	r3, r0
ARM GAS  C:\Users\DNIEL~1\AppData\Local\Temp\ccoiOgWq.s 			page 4


 168              		.loc 2 65 0
 169 0044 5D70     		strb	r5, [r3, #1]
 170              		.loc 2 63 0
 171 0046 EFD1     		bne	.L16
 172 0048 01E0     		b	.L6
 173              	.L7:
 174              		.loc 2 68 0
 175 004a 8DF81220 		strb	r2, [sp, #18]
 176              	.L6:
 177              		.loc 2 71 0
 178 004e 0D48     		ldr	r0, .L21
 179 0050 FFF7FEFF 		bl	i2cAcquireBus
 180              	.LVL6:
 181              		.loc 2 72 0
 182 0054 0025     		movs	r5, #0
 183 0056 A31C     		adds	r3, r4, #2
 184 0058 5021     		movs	r1, #80
 185 005a 3246     		mov	r2, r6
 186 005c 4FF0FF34 		mov	r4, #-1
 187 0060 0848     		ldr	r0, .L21
 188 0062 0294     		str	r4, [sp, #8]
 189 0064 0095     		str	r5, [sp, #0]
 190 0066 0195     		str	r5, [sp, #4]
 191 0068 FFF7FEFF 		bl	i2cMasterTransmitTimeout
 192 006c 0446     		mov	r4, r0
 193              	.LVL7:
 194              		.loc 2 73 0
 195 006e 0548     		ldr	r0, .L21
 196              	.LVL8:
 197 0070 FFF7FEFF 		bl	i2cReleaseBus
 198              		.loc 2 80 0
 199 0074 601B     		subs	r0, r4, r5
 200 0076 18BF     		it	ne
 201 0078 0120     		movne	r0, #1
 202 007a 07B0     		add	sp, sp, #28
 203 007c F0BD     		pop	{r4, r5, r6, r7, pc}
 204              	.LVL9:
 205              	.L20:
 206 007e 04AE     		add	r6, sp, #16
 207 0080 E5E7     		b	.L6
 208              	.L22:
 209 0082 00BF     		.align	2
 210              	.L21:
 211 0084 00000000 		.word	I2CD1
 212              		.cfi_endproc
 213              	.LFE120:
 214              		.size	eepromWrite, .-eepromWrite
 215 0088 AFF30080 		.section	.text.eepromRead,"ax",%progbits
 215      AFF30080 
 216              		.align	2
 217              		.p2align 4,,15
 218              		.global	eepromRead
 219              		.thumb
 220              		.thumb_func
 221              		.type	eepromRead, %function
 222              	eepromRead:
 223              	.LFB121:
ARM GAS  C:\Users\DNIEL~1\AppData\Local\Temp\ccoiOgWq.s 			page 5


 224              		.loc 2 82 0
 225              		.cfi_startproc
 226              		@ args = 0, pretend = 0, frame = 8
 227              		@ frame_needed = 0, uses_anonymous_args = 0
 228              	.LVL10:
 229 0000 F0B5     		push	{r4, r5, r6, r7, lr}
 230              	.LCFI5:
 231              		.cfi_def_cfa_offset 20
 232              		.loc 2 89 0
 233 0002 104C     		ldr	r4, .L24
 234              		.cfi_offset 14, -4
 235              		.cfi_offset 7, -8
 236              		.cfi_offset 6, -12
 237              		.cfi_offset 5, -16
 238              		.cfi_offset 4, -20
 239              		.loc 2 82 0
 240 0004 87B0     		sub	sp, sp, #28
 241              	.LCFI6:
 242              		.cfi_def_cfa_offset 48
 243              		.loc 2 82 0
 244 0006 0346     		mov	r3, r0
 245              		.loc 2 86 0
 246 0008 070A     		lsrs	r7, r0, #8
 247              		.loc 2 82 0
 248 000a 0D46     		mov	r5, r1
 249              		.loc 2 89 0
 250 000c 2046     		mov	r0, r4
 251              	.LVL11:
 252              		.loc 2 82 0
 253 000e 1646     		mov	r6, r2
 254              		.loc 2 87 0
 255 0010 8DF81530 		strb	r3, [sp, #21]
 256              		.loc 2 86 0
 257 0014 8DF81470 		strb	r7, [sp, #20]
 258              		.loc 2 89 0
 259 0018 FFF7FEFF 		bl	i2cAcquireBus
 260              	.LVL12:
 261              		.loc 2 90 0
 262 001c 5021     		movs	r1, #80
 263 001e 0223     		movs	r3, #2
 264 0020 05AA     		add	r2, sp, #20
 265 0022 0195     		str	r5, [sp, #4]
 266 0024 2046     		mov	r0, r4
 267 0026 4FF0FF35 		mov	r5, #-1
 268 002a 0295     		str	r5, [sp, #8]
 269 002c 0096     		str	r6, [sp, #0]
 270 002e FFF7FEFF 		bl	i2cMasterTransmitTimeout
 271 0032 0546     		mov	r5, r0
 272              	.LVL13:
 273              		.loc 2 91 0
 274 0034 2046     		mov	r0, r4
 275              	.LVL14:
 276 0036 FFF7FEFF 		bl	i2cReleaseBus
 277              		.loc 2 98 0
 278 003a 281E     		subs	r0, r5, #0
 279 003c 18BF     		it	ne
 280 003e 0120     		movne	r0, #1
ARM GAS  C:\Users\DNIEL~1\AppData\Local\Temp\ccoiOgWq.s 			page 6


 281 0040 07B0     		add	sp, sp, #28
 282 0042 F0BD     		pop	{r4, r5, r6, r7, pc}
 283              	.L25:
 284              		.align	2
 285              	.L24:
 286 0044 00000000 		.word	I2CD1
 287              		.cfi_endproc
 288              	.LFE121:
 289              		.size	eepromRead, .-eepromRead
 290 0048 AFF30080 		.section	.text.cmd_eepromTest,"ax",%progbits
 290      AFF30080 
 291              		.align	2
 292              		.p2align 4,,15
 293              		.global	cmd_eepromTest
 294              		.thumb
 295              		.thumb_func
 296              		.type	cmd_eepromTest, %function
 297              	cmd_eepromTest:
 298              	.LFB122:
 299              		.loc 2 120 0
 300              		.cfi_startproc
 301              		@ args = 0, pretend = 0, frame = 8
 302              		@ frame_needed = 0, uses_anonymous_args = 0
 303              	.LVL15:
 304 0000 30B5     		push	{r4, r5, lr}
 305              	.LCFI7:
 306              		.cfi_def_cfa_offset 12
 307 0002 83B0     		sub	sp, sp, #12
 308              	.LCFI8:
 309              		.cfi_def_cfa_offset 24
 310              		.loc 2 120 0
 311 0004 0446     		mov	r4, r0
 312              		.cfi_offset 14, -4
 313              		.cfi_offset 5, -8
 314              		.cfi_offset 4, -12
 315              		.loc 2 123 0
 316 0006 FFF7FEFF 		bl	rand
 317              	.LVL16:
 318 000a 204D     		ldr	r5, .L30
 319              		.loc 2 126 0
 320 000c 2049     		ldr	r1, .L30+4
 321              		.loc 2 123 0
 322 000e 8446     		mov	ip, r0
 323 0010 85FB0023 		smull	r2, r3, r5, r0
 324 0014 1F4A     		ldr	r2, .L30+8
 325 0016 C017     		asrs	r0, r0, #31
 326 0018 C0EB2375 		rsb	r5, r0, r3, asr #28
 327              		.loc 2 124 0
 328 001c 0023     		movs	r3, #0
 329              		.loc 2 126 0
 330 001e 2046     		mov	r0, r4
 331              		.loc 2 123 0
 332 0020 02FB15C5 		mls	r5, r2, r5, ip
 333              		.loc 2 124 0
 334 0024 0193     		str	r3, [sp, #4]
 335              	.LVL17:
 336              		.loc 2 126 0
ARM GAS  C:\Users\DNIEL~1\AppData\Local\Temp\ccoiOgWq.s 			page 7


 337 0026 FFF7FEFF 		bl	chprintf
 338              		.loc 2 127 0
 339 002a 2046     		mov	r0, r4
 340 002c 1A49     		ldr	r1, .L30+12
 341 002e FFF7FEFF 		bl	chprintf
 342              		.loc 2 129 0
 343 0032 2046     		mov	r0, r4
 344 0034 1949     		ldr	r1, .L30+16
 345 0036 1022     		movs	r2, #16
 346 0038 2B46     		mov	r3, r5
 347 003a FFF7FEFF 		bl	chprintf
 348              		.loc 2 132 0
 349 003e 1020     		movs	r0, #16
 350 0040 0421     		movs	r1, #4
 351 0042 2A46     		mov	r2, r5
 352 0044 FFF7FEFF 		bl	eepromWrite
 353 0048 D0B9     		cbnz	r0, .L29
 354              	.L27:
 355              		.loc 2 136 0
 356 004a 1549     		ldr	r1, .L30+20
 357 004c 2046     		mov	r0, r4
 358 004e FFF7FEFF 		bl	chprintf
 359              		.loc 2 137 0
 360 0052 2046     		mov	r0, r4
 361 0054 1349     		ldr	r1, .L30+24
 362 0056 FFF7FEFF 		bl	chprintf
 363              		.loc 2 139 0
 364 005a 0421     		movs	r1, #4
 365 005c 1020     		movs	r0, #16
 366 005e 0DEB0102 		add	r2, sp, r1
 367 0062 FFF7FEFF 		bl	eepromRead
 368 0066 18B1     		cbz	r0, .L28
 369              		.loc 2 140 0
 370 0068 2046     		mov	r0, r4
 371 006a 0F49     		ldr	r1, .L30+28
 372 006c FFF7FEFF 		bl	chprintf
 373              	.L28:
 374              		.loc 2 142 0
 375 0070 2046     		mov	r0, r4
 376 0072 0E49     		ldr	r1, .L30+32
 377 0074 019B     		ldr	r3, [sp, #4]
 378 0076 1022     		movs	r2, #16
 379 0078 FFF7FEFF 		bl	chprintf
 380              		.loc 2 143 0
 381 007c 03B0     		add	sp, sp, #12
 382 007e 30BD     		pop	{r4, r5, pc}
 383              	.L29:
 384              		.loc 2 133 0
 385 0080 2046     		mov	r0, r4
 386 0082 0B49     		ldr	r1, .L30+36
 387 0084 FFF7FEFF 		bl	chprintf
 388 0088 DFE7     		b	.L27
 389              	.L31:
 390 008a 00BF     		.align	2
 391              	.L30:
 392 008c A12FB844 		.word	1152921505
 393 0090 00000000 		.word	.LC0
ARM GAS  C:\Users\DNIEL~1\AppData\Local\Temp\ccoiOgWq.s 			page 8


 394 0094 00CA9A3B 		.word	1000000000
 395 0098 04000000 		.word	.LC1
 396 009c 0C000000 		.word	.LC2
 397 00a0 58000000 		.word	.LC4
 398 00a4 78000000 		.word	.LC5
 399 00a8 90000000 		.word	.LC6
 400 00ac A8000000 		.word	.LC7
 401 00b0 40000000 		.word	.LC3
 402              		.cfi_endproc
 403              	.LFE122:
 404              		.size	cmd_eepromTest, .-cmd_eepromTest
 405 00b4 AFF30080 		.section	.rodata.str1.4,"aMS",%progbits,1
 405      AFF30080 
 405      AFF30080 
 406              		.align	2
 407              	.LC0:
 408 0000 1B6300   		.ascii	"\033c\000"
 409 0003 00       		.space	1
 410              	.LC1:
 411 0004 1B5B324A 		.ascii	"\033[2J\000"
 411      00
 412 0009 000000   		.space	3
 413              	.LC2:
 414 000c 45455052 		.ascii	"EEPROM write test !\015\012Address: 0x%02x, Value: "
 414      4F4D2077 
 414      72697465 
 414      20746573 
 414      7420210D 
 415 0039 25326400 		.ascii	"%2d\000"
 416 003d 000000   		.space	3
 417              	.LC3:
 418 0040 45455052 		.ascii	"EEPROM write error! \015\012\000"
 418      4F4D2077 
 418      72697465 
 418      20657272 
 418      6F722120 
 419 0057 00       		.space	1
 420              	.LC4:
 421 0058 0D0A2D2D 		.ascii	"\015\012----------------------- \015\012\000"
 421      2D2D2D2D 
 421      2D2D2D2D 
 421      2D2D2D2D 
 421      2D2D2D2D 
 422 0075 000000   		.space	3
 423              	.LC5:
 424 0078 45455052 		.ascii	"EEPROM read test ! \015\012\000"
 424      4F4D2072 
 424      65616420 
 424      74657374 
 424      2021200D 
 425 008e 0000     		.space	2
 426              	.LC6:
 427 0090 45455052 		.ascii	"EEPROM read error! \015\012\000"
 427      4F4D2072 
 427      65616420 
 427      6572726F 
 427      7221200D 
ARM GAS  C:\Users\DNIEL~1\AppData\Local\Temp\ccoiOgWq.s 			page 9


 428 00a6 0000     		.space	2
 429              	.LC7:
 430 00a8 41646472 		.ascii	"Address: 0x%02x, value: %2d\015\012\000"
 430      6573733A 
 430      20307825 
 430      3032782C 
 430      2076616C 
 431 00c6 0000     		.section	.rodata.i2ccfg,"a",%progbits
 432              		.align	2
 433              		.set	.LANCHOR0,. + 0
 434              		.type	i2ccfg, %object
 435              		.size	i2ccfg, 12
 436              	i2ccfg:
 437 0000 01       		.byte	1
 438 0001 000000   		.space	3
 439 0004 801A0600 		.word	400000
 440 0008 02       		.byte	2
 441 0009 000000   		.space	3
 442              		.text
 443              	.Letext0: