ARM GAS  C:\Users\DNIEL~1\AppData\Local\Temp\ccZp6Zm1.s 			page 1


   1              		.syntax unified
   2              		.cpu cortex-m4
   3              		.fpu softvfp
   4              		.eabi_attribute 20, 1
   5              		.eabi_attribute 21, 1
   6              		.eabi_attribute 23, 3
   7              		.eabi_attribute 24, 1
   8              		.eabi_attribute 25, 1
   9              		.eabi_attribute 26, 1
  10              		.eabi_attribute 30, 2
  11              		.eabi_attribute 34, 1
  12              		.eabi_attribute 18, 4
  13              		.thumb
  14              		.file	"fatfs_diskio.c"
  15              		.text
  16              	.Ltext0:
  17              		.cfi_sections	.debug_frame
  18              		.section	.text.disk_initialize,"ax",%progbits
  19              		.align	2
  20              		.p2align 4,,15
  21              		.global	disk_initialize
  22              		.thumb
  23              		.thumb_func
  24              		.type	disk_initialize, %function
  25              	disk_initialize:
  26              	.LFB118:
  27              		.file 1 "../../../ChibiOS/os/various/fatfs_bindings/fatfs_diskio.c"
  28              		.loc 1 44 0
  29              		.cfi_startproc
  30              		@ args = 0, pretend = 0, frame = 0
  31              		@ frame_needed = 0, uses_anonymous_args = 0
  32              	.LVL0:
  33 0000 10B5     		push	{r4, lr}
  34              	.LCFI0:
  35              		.cfi_def_cfa_offset 8
  36              		.cfi_offset 4, -8
  37              		.cfi_offset 14, -4
  38              		.loc 1 47 0
  39 0002 60B9     		cbnz	r0, .L8
  40              	.LVL1:
  41              		.loc 1 61 0
  42 0004 0748     		ldr	r0, .L10
  43              	.LVL2:
  44 0006 0479     		ldrb	r4, [r0, #4]	@ zero_extendqisi2
  45              		.loc 1 59 0
  46 0008 053C     		subs	r4, r4, #5
  47 000a 18BF     		it	ne
  48 000c 0124     		movne	r4, #1
  49              	.LVL3:
  50              		.loc 1 63 0
  51 000e FFF7FEFF 		bl	sdc_lld_is_write_protected
  52              	.LVL4:
  53 0012 10B1     		cbz	r0, .L2
  54              		.loc 1 64 0
  55 0014 44F00400 		orr	r0, r4, #4
  56 0018 C4B2     		uxtb	r4, r0
  57              	.LVL5:
ARM GAS  C:\Users\DNIEL~1\AppData\Local\Temp\ccZp6Zm1.s 			page 2


  58              	.L2:
  59              		.loc 1 69 0
  60 001a 2046     		mov	r0, r4
  61 001c 10BD     		pop	{r4, pc}
  62              	.LVL6:
  63              	.L8:
  64              		.loc 1 68 0
  65 001e 0224     		movs	r4, #2
  66              		.loc 1 69 0
  67 0020 2046     		mov	r0, r4
  68              	.LVL7:
  69 0022 10BD     		pop	{r4, pc}
  70              	.L11:
  71              		.align	2
  72              	.L10:
  73 0024 00000000 		.word	SDCD1
  74              		.cfi_endproc
  75              	.LFE118:
  76              		.size	disk_initialize, .-disk_initialize
  77 0028 AFF30080 		.section	.text.disk_status,"ax",%progbits
  77      AFF30080 
  78              		.align	2
  79              		.p2align 4,,15
  80              		.global	disk_status
  81              		.thumb
  82              		.thumb_func
  83              		.type	disk_status, %function
  84              	disk_status:
  85              	.LFB119:
  86              		.loc 1 79 0
  87              		.cfi_startproc
  88              		@ args = 0, pretend = 0, frame = 0
  89              		@ frame_needed = 0, uses_anonymous_args = 0
  90              	.LVL8:
  91 0000 10B5     		push	{r4, lr}
  92              	.LCFI1:
  93              		.cfi_def_cfa_offset 8
  94              		.cfi_offset 4, -8
  95              		.cfi_offset 14, -4
  96              		.loc 1 82 0
  97 0002 60B9     		cbnz	r0, .L19
  98              	.LVL9:
  99              		.loc 1 96 0
 100 0004 0748     		ldr	r0, .L20
 101              	.LVL10:
 102 0006 0479     		ldrb	r4, [r0, #4]	@ zero_extendqisi2
 103              		.loc 1 94 0
 104 0008 053C     		subs	r4, r4, #5
 105 000a 18BF     		it	ne
 106 000c 0124     		movne	r4, #1
 107              	.LVL11:
 108              		.loc 1 98 0
 109 000e FFF7FEFF 		bl	sdc_lld_is_write_protected
 110              	.LVL12:
 111 0012 10B1     		cbz	r0, .L13
 112              		.loc 1 99 0
 113 0014 44F00400 		orr	r0, r4, #4
ARM GAS  C:\Users\DNIEL~1\AppData\Local\Temp\ccZp6Zm1.s 			page 3


 114 0018 C4B2     		uxtb	r4, r0
 115              	.LVL13:
 116              	.L13:
 117              		.loc 1 104 0
 118 001a 2046     		mov	r0, r4
 119 001c 10BD     		pop	{r4, pc}
 120              	.LVL14:
 121              	.L19:
 122              		.loc 1 103 0
 123 001e 0224     		movs	r4, #2
 124              		.loc 1 104 0
 125 0020 2046     		mov	r0, r4
 126              	.LVL15:
 127 0022 10BD     		pop	{r4, pc}
 128              	.L21:
 129              		.align	2
 130              	.L20:
 131 0024 00000000 		.word	SDCD1
 132              		.cfi_endproc
 133              	.LFE119:
 134              		.size	disk_status, .-disk_status
 135 0028 AFF30080 		.section	.text.disk_read,"ax",%progbits
 135      AFF30080 
 136              		.align	2
 137              		.p2align 4,,15
 138              		.global	disk_read
 139              		.thumb
 140              		.thumb_func
 141              		.type	disk_read, %function
 142              	disk_read:
 143              	.LFB120:
 144              		.loc 1 117 0
 145              		.cfi_startproc
 146              		@ args = 0, pretend = 0, frame = 0
 147              		@ frame_needed = 0, uses_anonymous_args = 0
 148              		@ link register save eliminated.
 149              	.LVL16:
 150 0000 10B4     		push	{r4}
 151              	.LCFI2:
 152              		.cfi_def_cfa_offset 4
 153              		.cfi_offset 4, -4
 154              		.loc 1 117 0
 155 0002 0C46     		mov	r4, r1
 156              		.loc 1 118 0
 157 0004 28B9     		cbnz	r0, .L27
 158              		.loc 1 136 0
 159 0006 0748     		ldr	r0, .L29
 160              	.LVL17:
 161 0008 0179     		ldrb	r1, [r0, #4]	@ zero_extendqisi2
 162              	.LVL18:
 163 000a 0529     		cmp	r1, #5
 164 000c 04D0     		beq	.L28
 165              		.loc 1 137 0
 166 000e 0320     		movs	r0, #3
 167 0010 00E0     		b	.L23
 168              	.LVL19:
 169              	.L27:
ARM GAS  C:\Users\DNIEL~1\AppData\Local\Temp\ccZp6Zm1.s 			page 4


 170              		.loc 1 143 0
 171 0012 0420     		movs	r0, #4
 172              	.LVL20:
 173              	.L23:
 174              		.loc 1 144 0
 175 0014 10BC     		pop	{r4}
 176 0016 7047     		bx	lr
 177              	.L28:
 178              		.loc 1 138 0
 179 0018 1146     		mov	r1, r2
 180 001a 2246     		mov	r2, r4
 181              	.LVL21:
 182              		.loc 1 144 0
 183 001c 10BC     		pop	{r4}
 184              		.loc 1 138 0
 185 001e FFF7FEBF 		b	sdcRead
 186              	.LVL22:
 187              	.L30:
 188 0022 00BF     		.align	2
 189              	.L29:
 190 0024 00000000 		.word	SDCD1
 191              		.cfi_endproc
 192              	.LFE120:
 193              		.size	disk_read, .-disk_read
 194 0028 AFF30080 		.section	.text.disk_write,"ax",%progbits
 194      AFF30080 
 195              		.align	2
 196              		.p2align 4,,15
 197              		.global	disk_write
 198              		.thumb
 199              		.thumb_func
 200              		.type	disk_write, %function
 201              	disk_write:
 202              	.LFB121:
 203              		.loc 1 158 0
 204              		.cfi_startproc
 205              		@ args = 0, pretend = 0, frame = 0
 206              		@ frame_needed = 0, uses_anonymous_args = 0
 207              		@ link register save eliminated.
 208              	.LVL23:
 209 0000 10B4     		push	{r4}
 210              	.LCFI3:
 211              		.cfi_def_cfa_offset 4
 212              		.cfi_offset 4, -4
 213              		.loc 1 158 0
 214 0002 0C46     		mov	r4, r1
 215              		.loc 1 159 0
 216 0004 28B9     		cbnz	r0, .L36
 217              		.loc 1 179 0
 218 0006 0748     		ldr	r0, .L38
 219              	.LVL24:
 220 0008 0179     		ldrb	r1, [r0, #4]	@ zero_extendqisi2
 221              	.LVL25:
 222 000a 0529     		cmp	r1, #5
 223 000c 04D0     		beq	.L37
 224              		.loc 1 180 0
 225 000e 0320     		movs	r0, #3
ARM GAS  C:\Users\DNIEL~1\AppData\Local\Temp\ccZp6Zm1.s 			page 5


 226 0010 00E0     		b	.L32
 227              	.LVL26:
 228              	.L36:
 229              		.loc 1 186 0
 230 0012 0420     		movs	r0, #4
 231              	.LVL27:
 232              	.L32:
 233              		.loc 1 187 0
 234 0014 10BC     		pop	{r4}
 235 0016 7047     		bx	lr
 236              	.L37:
 237              		.loc 1 181 0
 238 0018 1146     		mov	r1, r2
 239 001a 2246     		mov	r2, r4
 240              	.LVL28:
 241              		.loc 1 187 0
 242 001c 10BC     		pop	{r4}
 243              		.loc 1 181 0
 244 001e FFF7FEBF 		b	sdcWrite
 245              	.LVL29:
 246              	.L39:
 247 0022 00BF     		.align	2
 248              	.L38:
 249 0024 00000000 		.word	SDCD1
 250              		.cfi_endproc
 251              	.LFE121:
 252              		.size	disk_write, .-disk_write
 253 0028 AFF30080 		.section	.text.disk_ioctl,"ax",%progbits
 253      AFF30080 
 254              		.align	2
 255              		.p2align 4,,15
 256              		.global	disk_ioctl
 257              		.thumb
 258              		.thumb_func
 259              		.type	disk_ioctl, %function
 260              	disk_ioctl:
 261              	.LFB122:
 262              		.loc 1 200 0
 263              		.cfi_startproc
 264              		@ args = 0, pretend = 0, frame = 0
 265              		@ frame_needed = 0, uses_anonymous_args = 0
 266              	.LVL30:
 267 0000 08B5     		push	{r3, lr}
 268              	.LCFI4:
 269              		.cfi_def_cfa_offset 8
 270              		.cfi_offset 3, -8
 271              		.cfi_offset 14, -4
 272              		.loc 1 201 0
 273 0002 30B9     		cbnz	r0, .L50
 274              		.loc 1 220 0
 275 0004 0429     		cmp	r1, #4
 276 0006 04D8     		bhi	.L50
 277 0008 DFE801F0 		tbb	[pc, r1]
 278              	.L48:
 279 000c 09       		.byte	(.L52-.L48)/2
 280 000d 0B       		.byte	(.L44-.L48)/2
 281 000e 10       		.byte	(.L45-.L48)/2
ARM GAS  C:\Users\DNIEL~1\AppData\Local\Temp\ccZp6Zm1.s 			page 6


 282 000f 15       		.byte	(.L46-.L48)/2
 283 0010 05       		.byte	(.L47-.L48)/2
 284 0011 00       		.align	1
 285              	.L50:
 286              		.loc 1 238 0
 287 0012 0420     		movs	r0, #4
 288              	.LVL31:
 289              		.loc 1 243 0
 290 0014 08BD     		pop	{r3, pc}
 291              	.LVL32:
 292              	.L47:
 293              		.loc 1 234 0
 294 0016 0A48     		ldr	r0, .L53
 295              	.LVL33:
 296 0018 06CA     		ldmia	r2, {r1, r2}
 297              	.LVL34:
 298 001a FFF7FEFF 		bl	sdcErase
 299              	.LVL35:
 300              	.L52:
 301              		.loc 1 235 0
 302 001e 0020     		movs	r0, #0
 303 0020 08BD     		pop	{r3, pc}
 304              	.LVL36:
 305              	.L44:
 306              		.loc 1 224 0
 307 0022 0749     		ldr	r1, .L53
 308              	.LVL37:
 309 0024 8B6A     		ldr	r3, [r1, #40]
 310              		.loc 1 225 0
 311 0026 0020     		movs	r0, #0
 312              	.LVL38:
 313              		.loc 1 224 0
 314 0028 1360     		str	r3, [r2, #0]
 315              		.loc 1 225 0
 316 002a 08BD     		pop	{r3, pc}
 317              	.LVL39:
 318              	.L45:
 319              		.loc 1 227 0
 320 002c 4FF40070 		mov	r0, #512
 321              	.LVL40:
 322 0030 1080     		strh	r0, [r2, #0]	@ movhi
 323              		.loc 1 228 0
 324 0032 0020     		movs	r0, #0
 325 0034 08BD     		pop	{r3, pc}
 326              	.LVL41:
 327              	.L46:
 328              		.loc 1 230 0
 329 0036 4FF48073 		mov	r3, #256
 330 003a 1360     		str	r3, [r2, #0]
 331              		.loc 1 231 0
 332 003c 0020     		movs	r0, #0
 333              	.LVL42:
 334 003e 08BD     		pop	{r3, pc}
 335              	.L54:
 336              		.align	2
 337              	.L53:
 338 0040 00000000 		.word	SDCD1
ARM GAS  C:\Users\DNIEL~1\AppData\Local\Temp\ccZp6Zm1.s 			page 7


 339              		.cfi_endproc
 340              	.LFE122:
 341              		.size	disk_ioctl, .-disk_ioctl
 342 0044 AFF30080 		.section	.text.get_fattime,"ax",%progbits
 342      AFF30080 
 342      AFF30080 
 343              		.align	2
 344              		.p2align 4,,15
 345              		.global	get_fattime
 346              		.thumb
 347              		.thumb_func
 348              		.type	get_fattime, %function
 349              	get_fattime:
 350              	.LFB123:
 351              		.loc 1 245 0
 352              		.cfi_startproc
 353              		@ args = 0, pretend = 0, frame = 0
 354              		@ frame_needed = 0, uses_anonymous_args = 0
 355              		@ link register save eliminated.
 356              		.loc 1 247 0
 357 0000 40F20000 		movw	r0, #:lower16:RTCD1
 358 0004 C0F20000 		movt	r0, #:upper16:RTCD1
 359              		.loc 1 251 0
 360              		.loc 1 247 0
 361 0008 FFF7FEBF 		b	rtcGetTimeFat
 362              	.LVL43:
 363              		.cfi_endproc
 364              	.LFE123:
 365              		.size	get_fattime, .-get_fattime
 366 000c AFF30080 		.text
 367              	.Letext0:
 368              		.file 2 "c:\\chibistudio\\tools\\gnu tools arm embedded\\4.7 2014q2\\bin\\../lib/gcc/arm-none-eabi
 369              		.file 3 "../../../ChibiOS/os/ports/GCC/ARMCMx/chtypes.h"
 370              		.file 4 "../../../ChibiOS/os/kernel/include/chlists.h"
 371              		.file 5 "../../../ChibiOS/os/kernel/include/chthreads.h"
 372              		.file 6 "../../../ChibiOS/os/ports/GCC/ARMCMx/chcore_v7m.h"
 373              		.file 7 "../../../ChibiOS/os/kernel/include/chmtx.h"
 374              		.file 8 "../../../ChibiOS/os/hal/platforms/STM32F4xx/stm32f4xx.h"
 375              		.file 9 "../../../ChibiOS/os/hal/platforms/STM32F4xx/stm32_dma.h"
 376              		.file 10 "../../../ChibiOS/os/hal/include/io_block.h"
 377              		.file 11 "../../../ChibiOS/os/hal/include/rtc.h"
 378              		.file 12 "../../../ChibiOS/os/hal/platforms/STM32/RTCv2/rtc_lld.h"
 379              		.file 13 "../../../ChibiOS/os/hal/platforms/STM32/sdc_lld.h"
 380              		.file 14 "../../../ChibiOS/ext/fatfs/src/integer.h"
 381              		.file 15 "../../../ChibiOS/ext/fatfs/src/diskio.h"
 382              		.file 16 "../../../ChibiOS/os/ports/common/ARMCMx/CMSIS/include/core_cm4.h"
 383              		.file 17 "../../../ChibiOS/os/hal/include/sdc.h"