ARM GAS  C:\Users\DNIEL~1\AppData\Local\Temp\cce1REmO.s 			page 1


   1              		.syntax unified
   2              		.cpu cortex-m4
   3              		.fpu softvfp
   4              		.eabi_attribute 20, 1
   5              		.eabi_attribute 21, 1
   6              		.eabi_attribute 23, 3
   7              		.eabi_attribute 24, 1
   8              		.eabi_attribute 25, 1
   9              		.eabi_attribute 26, 1
  10              		.eabi_attribute 30, 2
  11              		.eabi_attribute 34, 1
  12              		.eabi_attribute 18, 4
  13              		.thumb
  14              		.file	"fatfs_diskio.c"
  15              		.text
  16              	.Ltext0:
  17              		.cfi_sections	.debug_frame
  18              		.section	.text.disk_initialize,"ax",%progbits
  19              		.align	2
  20              		.p2align 4,,15
  21              		.global	disk_initialize
  22              		.thumb
  23              		.thumb_func
  24              		.type	disk_initialize, %function
  25              	disk_initialize:
  26              	.LFB118:
  27              		.file 1 "../../../ChibiOS/os/various/fatfs_bindings/fatfs_diskio.c"
  28              		.loc 1 44 0
  29              		.cfi_startproc
  30              		@ args = 0, pretend = 0, frame = 0
  31              		@ frame_needed = 0, uses_anonymous_args = 0
  32              	.LVL0:
  33 0000 10B5     		push	{r4, lr}
  34              	.LCFI0:
  35              		.cfi_def_cfa_offset 8
  36              		.cfi_offset 4, -8
  37              		.cfi_offset 14, -4
  38              		.loc 1 47 0
  39 0002 60B9     		cbnz	r0, .L8
  40              	.LVL1:
  41              		.loc 1 61 0
  42 0004 0748     		ldr	r0, .L10
  43              	.LVL2:
  44 0006 0479     		ldrb	r4, [r0, #4]	@ zero_extendqisi2
  45              		.loc 1 59 0
  46 0008 053C     		subs	r4, r4, #5
  47 000a 18BF     		it	ne
  48 000c 0124     		movne	r4, #1
  49              	.LVL3:
  50              		.loc 1 63 0
  51 000e FFF7FEFF 		bl	sdc_lld_is_write_protected
  52              	.LVL4:
  53 0012 10B1     		cbz	r0, .L2
  54              		.loc 1 64 0
  55 0014 44F00400 		orr	r0, r4, #4
  56 0018 C4B2     		uxtb	r4, r0
  57              	.LVL5:
ARM GAS  C:\Users\DNIEL~1\AppData\Local\Temp\cce1REmO.s 			page 2


  58              	.L2:
  59              		.loc 1 69 0
  60 001a 2046     		mov	r0, r4
  61 001c 10BD     		pop	{r4, pc}
  62              	.LVL6:
  63              	.L8:
  64              		.loc 1 68 0
  65 001e 0224     		movs	r4, #2
  66              		.loc 1 69 0
  67 0020 2046     		mov	r0, r4
  68              	.LVL7:
  69 0022 10BD     		pop	{r4, pc}
  70              	.L11:
  71              		.align	2
  72              	.L10:
  73 0024 00000000 		.word	SDCD1
  74              		.cfi_endproc
  75              	.LFE118:
  76              		.size	disk_initialize, .-disk_initialize
  77 0028 AFF30080 		.section	.text.disk_status,"ax",%progbits
  77      AFF30080 
  78              		.align	2
  79              		.p2align 4,,15
  80              		.global	disk_status
  81              		.thumb
  82              		.thumb_func
  83              		.type	disk_status, %function
  84              	disk_status:
  85              	.LFB119:
  86              		.loc 1 79 0
  87              		.cfi_startproc
  88              		@ args = 0, pretend = 0, frame = 0
  89              		@ frame_needed = 0, uses_anonymous_args = 0
  90              	.LVL8:
  91 0000 10B5     		push	{r4, lr}
  92              	.LCFI1:
  93              		.cfi_def_cfa_offset 8
  94              		.cfi_offset 4, -8
  95              		.cfi_offset 14, -4
  96              		.loc 1 82 0
  97 0002 60B9     		cbnz	r0, .L19
  98              	.LVL9:
  99              		.loc 1 96 0
 100 0004 0748     		ldr	r0, .L20
 101              	.LVL10:
 102 0006 0479     		ldrb	r4, [r0, #4]	@ zero_extendqisi2
 103              		.loc 1 94 0
 104 0008 053C     		subs	r4, r4, #5
 105 000a 18BF     		it	ne
 106 000c 0124     		movne	r4, #1
 107              	.LVL11:
 108              		.loc 1 98 0
 109 000e FFF7FEFF 		bl	sdc_lld_is_write_protected
 110              	.LVL12:
 111 0012 10B1     		cbz	r0, .L13
 112              		.loc 1 99 0
 113 0014 44F00400 		orr	r0, r4, #4
ARM GAS  C:\Users\DNIEL~1\AppData\Local\Temp\cce1REmO.s 			page 3


 114 0018 C4B2     		uxtb	r4, r0
 115              	.LVL13:
 116              	.L13:
 117              		.loc 1 104 0
 118 001a 2046     		mov	r0, r4
 119 001c 10BD     		pop	{r4, pc}
 120              	.LVL14:
 121              	.L19:
 122              		.loc 1 103 0
 123 001e 0224     		movs	r4, #2
 124              		.loc 1 104 0
 125 0020 2046     		mov	r0, r4
 126              	.LVL15:
 127 0022 10BD     		pop	{r4, pc}
 128              	.L21:
 129              		.align	2
 130              	.L20:
 131 0024 00000000 		.word	SDCD1
 132              		.cfi_endproc
 133              	.LFE119:
 134              		.size	disk_status, .-disk_status
 135 0028 AFF30080 		.section	.text.disk_read,"ax",%progbits
 135      AFF30080 
 136              		.align	2
 137              		.p2align 4,,15
 138              		.global	disk_read
 139              		.thumb
 140              		.thumb_func
 141              		.type	disk_read, %function
 142              	disk_read:
 143              	.LFB120:
 144              		.loc 1 117 0
 145              		.cfi_startproc
 146              		@ args = 0, pretend = 0, frame = 0
 147              		@ frame_needed = 0, uses_anonymous_args = 0
 148              	.LVL16:
 149 0000 10B5     		push	{r4, lr}
 150              	.LCFI2:
 151              		.cfi_def_cfa_offset 8
 152              		.cfi_offset 4, -8
 153              		.cfi_offset 14, -4
 154              		.loc 1 117 0
 155 0002 0C46     		mov	r4, r1
 156              		.loc 1 118 0
 157 0004 28B9     		cbnz	r0, .L27
 158              		.loc 1 136 0
 159 0006 0848     		ldr	r0, .L29
 160              	.LVL17:
 161 0008 0179     		ldrb	r1, [r0, #4]	@ zero_extendqisi2
 162              	.LVL18:
 163 000a 0529     		cmp	r1, #5
 164 000c 03D0     		beq	.L28
 165              		.loc 1 137 0
 166 000e 0320     		movs	r0, #3
 167              		.loc 1 144 0
 168 0010 10BD     		pop	{r4, pc}
 169              	.LVL19:
ARM GAS  C:\Users\DNIEL~1\AppData\Local\Temp\cce1REmO.s 			page 4


 170              	.L27:
 171              		.loc 1 143 0
 172 0012 0420     		movs	r0, #4
 173              	.LVL20:
 174 0014 10BD     		pop	{r4, pc}
 175              	.LVL21:
 176              	.L28:
 177              		.loc 1 138 0
 178 0016 1146     		mov	r1, r2
 179 0018 2246     		mov	r2, r4
 180              	.LVL22:
 181 001a FFF7FEFF 		bl	sdcRead
 182              	.LVL23:
 183              		.loc 1 137 0
 184 001e 0030     		adds	r0, r0, #0
 185 0020 18BF     		it	ne
 186 0022 0120     		movne	r0, #1
 187 0024 10BD     		pop	{r4, pc}
 188              	.L30:
 189 0026 00BF     		.align	2
 190              	.L29:
 191 0028 00000000 		.word	SDCD1
 192              		.cfi_endproc
 193              	.LFE120:
 194              		.size	disk_read, .-disk_read
 195 002c AFF30080 		.section	.text.disk_write,"ax",%progbits
 196              		.align	2
 197              		.p2align 4,,15
 198              		.global	disk_write
 199              		.thumb
 200              		.thumb_func
 201              		.type	disk_write, %function
 202              	disk_write:
 203              	.LFB121:
 204              		.loc 1 158 0
 205              		.cfi_startproc
 206              		@ args = 0, pretend = 0, frame = 0
 207              		@ frame_needed = 0, uses_anonymous_args = 0
 208              	.LVL24:
 209 0000 10B5     		push	{r4, lr}
 210              	.LCFI3:
 211              		.cfi_def_cfa_offset 8
 212              		.cfi_offset 4, -8
 213              		.cfi_offset 14, -4
 214              		.loc 1 158 0
 215 0002 0C46     		mov	r4, r1
 216              		.loc 1 159 0
 217 0004 28B9     		cbnz	r0, .L36
 218              		.loc 1 179 0
 219 0006 0848     		ldr	r0, .L38
 220              	.LVL25:
 221 0008 0179     		ldrb	r1, [r0, #4]	@ zero_extendqisi2
 222              	.LVL26:
 223 000a 0529     		cmp	r1, #5
 224 000c 03D0     		beq	.L37
 225              		.loc 1 180 0
 226 000e 0320     		movs	r0, #3
ARM GAS  C:\Users\DNIEL~1\AppData\Local\Temp\cce1REmO.s 			page 5


 227              		.loc 1 187 0
 228 0010 10BD     		pop	{r4, pc}
 229              	.LVL27:
 230              	.L36:
 231              		.loc 1 186 0
 232 0012 0420     		movs	r0, #4
 233              	.LVL28:
 234 0014 10BD     		pop	{r4, pc}
 235              	.LVL29:
 236              	.L37:
 237              		.loc 1 181 0
 238 0016 1146     		mov	r1, r2
 239 0018 2246     		mov	r2, r4
 240              	.LVL30:
 241 001a FFF7FEFF 		bl	sdcWrite
 242              	.LVL31:
 243              		.loc 1 180 0
 244 001e 0030     		adds	r0, r0, #0
 245 0020 18BF     		it	ne
 246 0022 0120     		movne	r0, #1
 247 0024 10BD     		pop	{r4, pc}
 248              	.L39:
 249 0026 00BF     		.align	2
 250              	.L38:
 251 0028 00000000 		.word	SDCD1
 252              		.cfi_endproc
 253              	.LFE121:
 254              		.size	disk_write, .-disk_write
 255 002c AFF30080 		.section	.text.disk_ioctl,"ax",%progbits
 256              		.align	2
 257              		.p2align 4,,15
 258              		.global	disk_ioctl
 259              		.thumb
 260              		.thumb_func
 261              		.type	disk_ioctl, %function
 262              	disk_ioctl:
 263              	.LFB122:
 264              		.loc 1 200 0
 265              		.cfi_startproc
 266              		@ args = 0, pretend = 0, frame = 0
 267              		@ frame_needed = 0, uses_anonymous_args = 0
 268              	.LVL32:
 269 0000 08B5     		push	{r3, lr}
 270              	.LCFI4:
 271              		.cfi_def_cfa_offset 8
 272              		.cfi_offset 3, -8
 273              		.cfi_offset 14, -4
 274              		.loc 1 201 0
 275 0002 30B9     		cbnz	r0, .L50
 276              		.loc 1 220 0
 277 0004 0429     		cmp	r1, #4
 278 0006 04D8     		bhi	.L50
 279 0008 DFE801F0 		tbb	[pc, r1]
 280              	.L48:
 281 000c 09       		.byte	(.L52-.L48)/2
 282 000d 0B       		.byte	(.L44-.L48)/2
 283 000e 10       		.byte	(.L45-.L48)/2
ARM GAS  C:\Users\DNIEL~1\AppData\Local\Temp\cce1REmO.s 			page 6


 284 000f 15       		.byte	(.L46-.L48)/2
 285 0010 05       		.byte	(.L47-.L48)/2
 286 0011 00       		.align	1
 287              	.L50:
 288              		.loc 1 238 0
 289 0012 0420     		movs	r0, #4
 290              	.LVL33:
 291              		.loc 1 243 0
 292 0014 08BD     		pop	{r3, pc}
 293              	.LVL34:
 294              	.L47:
 295              		.loc 1 234 0
 296 0016 0A48     		ldr	r0, .L53
 297              	.LVL35:
 298 0018 06CA     		ldmia	r2, {r1, r2}
 299              	.LVL36:
 300 001a FFF7FEFF 		bl	sdcErase
 301              	.LVL37:
 302              	.L52:
 303              		.loc 1 235 0
 304 001e 0020     		movs	r0, #0
 305 0020 08BD     		pop	{r3, pc}
 306              	.LVL38:
 307              	.L44:
 308              		.loc 1 224 0
 309 0022 0749     		ldr	r1, .L53
 310              	.LVL39:
 311 0024 8B6A     		ldr	r3, [r1, #40]
 312              		.loc 1 225 0
 313 0026 0020     		movs	r0, #0
 314              	.LVL40:
 315              		.loc 1 224 0
 316 0028 1360     		str	r3, [r2, #0]
 317              		.loc 1 225 0
 318 002a 08BD     		pop	{r3, pc}
 319              	.LVL41:
 320              	.L45:
 321              		.loc 1 227 0
 322 002c 4FF40070 		mov	r0, #512
 323              	.LVL42:
 324 0030 1080     		strh	r0, [r2, #0]	@ movhi
 325              		.loc 1 228 0
 326 0032 0020     		movs	r0, #0
 327 0034 08BD     		pop	{r3, pc}
 328              	.LVL43:
 329              	.L46:
 330              		.loc 1 230 0
 331 0036 4FF48073 		mov	r3, #256
 332 003a 1360     		str	r3, [r2, #0]
 333              		.loc 1 231 0
 334 003c 0020     		movs	r0, #0
 335              	.LVL44:
 336 003e 08BD     		pop	{r3, pc}
 337              	.L54:
 338              		.align	2
 339              	.L53:
 340 0040 00000000 		.word	SDCD1
ARM GAS  C:\Users\DNIEL~1\AppData\Local\Temp\cce1REmO.s 			page 7


 341              		.cfi_endproc
 342              	.LFE122:
 343              		.size	disk_ioctl, .-disk_ioctl
 344 0044 AFF30080 		.section	.text.get_fattime,"ax",%progbits
 344      AFF30080 
 344      AFF30080 
 345              		.align	2
 346              		.p2align 4,,15
 347              		.global	get_fattime
 348              		.thumb
 349              		.thumb_func
 350              		.type	get_fattime, %function
 351              	get_fattime:
 352              	.LFB123:
 353              		.loc 1 245 0
 354              		.cfi_startproc
 355              		@ args = 0, pretend = 0, frame = 0
 356              		@ frame_needed = 0, uses_anonymous_args = 0
 357              		@ link register save eliminated.
 358              		.loc 1 247 0
 359 0000 40F20000 		movw	r0, #:lower16:RTCD1
 360 0004 C0F20000 		movt	r0, #:upper16:RTCD1
 361              		.loc 1 251 0
 362              		.loc 1 247 0
 363 0008 FFF7FEBF 		b	rtcGetTimeFat
 364              	.LVL45:
 365              		.cfi_endproc
 366              	.LFE123:
 367              		.size	get_fattime, .-get_fattime
 368 000c AFF30080 		.text
 369              	.Letext0:
 370              		.file 2 "c:\\chibistudio\\tools\\gnu tools arm embedded\\4.7 2014q2\\bin\\../lib/gcc/arm-none-eabi
 371              		.file 3 "../../../ChibiOS/os/ports/GCC/ARMCMx/chtypes.h"
 372              		.file 4 "../../../ChibiOS/os/kernel/include/chlists.h"
 373              		.file 5 "../../../ChibiOS/os/kernel/include/chthreads.h"
 374              		.file 6 "../../../ChibiOS/os/ports/GCC/ARMCMx/chcore_v7m.h"
 375              		.file 7 "../../../ChibiOS/os/kernel/include/chmtx.h"
 376              		.file 8 "../../../ChibiOS/os/hal/platforms/STM32F4xx/stm32f4xx.h"
 377              		.file 9 "../../../ChibiOS/os/hal/platforms/STM32F4xx/stm32_dma.h"
 378              		.file 10 "../../../ChibiOS/os/hal/include/io_block.h"
 379              		.file 11 "../../../ChibiOS/os/hal/include/rtc.h"
 380              		.file 12 "../../../ChibiOS/os/hal/platforms/STM32/RTCv2/rtc_lld.h"
 381              		.file 13 "../../../ChibiOS/os/hal/platforms/STM32/sdc_lld.h"
 382              		.file 14 "../../../ChibiOS/ext/fatfs/src/integer.h"
 383              		.file 15 "../../../ChibiOS/ext/fatfs/src/diskio.h"
 384              		.file 16 "../../../ChibiOS/os/ports/common/ARMCMx/CMSIS/include/core_cm4.h"
 385              		.file 17 "../../../ChibiOS/os/hal/include/sdc.h"
 386              		.section	.debug_info,"",%progbits
 387              	.Ldebug_info0:
 388 0000 340D0000 		.4byte	0xd34
 389 0004 0200     		.2byte	0x2
 390 0006 00000000 		.4byte	.Ldebug_abbrev0
 391 000a 04       		.byte	0x4
 392 000b 01       		.uleb128 0x1
 393 000c 3B030000 		.4byte	.LASF165
 394 0010 01       		.byte	0x1
 395 0011 D2030000 		.4byte	.LASF166
ARM GAS  C:\Users\DNIEL~1\AppData\Local\Temp\cce1REmO.s 			page 8


 396 0015 C9050000 		.4byte	.LASF167
 397 0019 00000000 		.4byte	.Ldebug_ranges0+0
 398 001d 00000000 		.4byte	0
 399 0021 00000000 		.4byte	0
 400 0025 00000000 		.4byte	.Ldebug_line0
 401 0029 02       		.uleb128 0x2
 402 002a 04       		.byte	0x4
 403 002b 05       		.byte	0x5
 404 002c 696E7400 		.ascii	"int\000"
 405 0030 03       		.uleb128 0x3
 406 0031 04       		.byte	0x4
 407 0032 07       		.byte	0x7
 408 0033 7C010000 		.4byte	.LASF0
 409 0037 03       		.uleb128 0x3
 410 0038 01       		.byte	0x1
 411 0039 06       		.byte	0x6
 412 003a EE000000 		.4byte	.LASF1
 413 003e 04       		.uleb128 0x4
 414 003f 04060000 		.4byte	.LASF5
 415 0043 02       		.byte	0x2
 416 0044 2A       		.byte	0x2a
 417 0045 49000000 		.4byte	0x49
 418 0049 03       		.uleb128 0x3
 419 004a 01       		.byte	0x1
 420 004b 08       		.byte	0x8
 421 004c 36040000 		.4byte	.LASF2
 422 0050 03       		.uleb128 0x3
 423 0051 02       		.byte	0x2
 424 0052 05       		.byte	0x5
 425 0053 54040000 		.4byte	.LASF3
 426 0057 03       		.uleb128 0x3
 427 0058 02       		.byte	0x2
 428 0059 07       		.byte	0x7
 429 005a 70020000 		.4byte	.LASF4
 430 005e 04       		.uleb128 0x4
 431 005f 2E040000 		.4byte	.LASF6
 432 0063 02       		.byte	0x2
 433 0064 4F       		.byte	0x4f
 434 0065 69000000 		.4byte	0x69
 435 0069 03       		.uleb128 0x3
 436 006a 04       		.byte	0x4
 437 006b 05       		.byte	0x5
 438 006c 59010000 		.4byte	.LASF7
 439 0070 04       		.uleb128 0x4
 440 0071 AC050000 		.4byte	.LASF8
 441 0075 02       		.byte	0x2
 442 0076 50       		.byte	0x50
 443 0077 7B000000 		.4byte	0x7b
 444 007b 03       		.uleb128 0x3
 445 007c 04       		.byte	0x4
 446 007d 07       		.byte	0x7
 447 007e F2040000 		.4byte	.LASF9
 448 0082 03       		.uleb128 0x3
 449 0083 08       		.byte	0x8
 450 0084 05       		.byte	0x5
 451 0085 E0000000 		.4byte	.LASF10
 452 0089 03       		.uleb128 0x3
ARM GAS  C:\Users\DNIEL~1\AppData\Local\Temp\cce1REmO.s 			page 9


 453 008a 08       		.byte	0x8
 454 008b 07       		.byte	0x7
 455 008c 90010000 		.4byte	.LASF11
 456 0090 04       		.uleb128 0x4
 457 0091 13010000 		.4byte	.LASF12
 458 0095 03       		.byte	0x3
 459 0096 27       		.byte	0x27
 460 0097 5E000000 		.4byte	0x5e
 461 009b 04       		.uleb128 0x4
 462 009c B0020000 		.4byte	.LASF13
 463 00a0 03       		.byte	0x3
 464 00a1 28       		.byte	0x28
 465 00a2 3E000000 		.4byte	0x3e
 466 00a6 04       		.uleb128 0x4
 467 00a7 E0010000 		.4byte	.LASF14
 468 00ab 03       		.byte	0x3
 469 00ac 29       		.byte	0x29
 470 00ad 3E000000 		.4byte	0x3e
 471 00b1 04       		.uleb128 0x4
 472 00b2 BC030000 		.4byte	.LASF15
 473 00b6 03       		.byte	0x3
 474 00b7 2A       		.byte	0x2a
 475 00b8 3E000000 		.4byte	0x3e
 476 00bc 04       		.uleb128 0x4
 477 00bd E8040000 		.4byte	.LASF16
 478 00c1 03       		.byte	0x3
 479 00c2 2B       		.byte	0x2b
 480 00c3 3E000000 		.4byte	0x3e
 481 00c7 04       		.uleb128 0x4
 482 00c8 1F040000 		.4byte	.LASF17
 483 00cc 03       		.byte	0x3
 484 00cd 2C       		.byte	0x2c
 485 00ce 70000000 		.4byte	0x70
 486 00d2 04       		.uleb128 0x4
 487 00d3 94020000 		.4byte	.LASF18
 488 00d7 03       		.byte	0x3
 489 00d8 2D       		.byte	0x2d
 490 00d9 5E000000 		.4byte	0x5e
 491 00dd 04       		.uleb128 0x4
 492 00de DA020000 		.4byte	.LASF19
 493 00e2 03       		.byte	0x3
 494 00e3 2F       		.byte	0x2f
 495 00e4 70000000 		.4byte	0x70
 496 00e8 04       		.uleb128 0x4
 497 00e9 29050000 		.4byte	.LASF20
 498 00ed 03       		.byte	0x3
 499 00ee 31       		.byte	0x31
 500 00ef 70000000 		.4byte	0x70
 501 00f3 04       		.uleb128 0x4
 502 00f4 A6040000 		.4byte	.LASF21
 503 00f8 04       		.byte	0x4
 504 00f9 23       		.byte	0x23
 505 00fa FE000000 		.4byte	0xfe
 506 00fe 05       		.uleb128 0x5
 507 00ff A6040000 		.4byte	.LASF21
 508 0103 48       		.byte	0x48
 509 0104 05       		.byte	0x5
ARM GAS  C:\Users\DNIEL~1\AppData\Local\Temp\cce1REmO.s 			page 10


 510 0105 57       		.byte	0x57
 511 0106 23020000 		.4byte	0x223
 512 010a 06       		.uleb128 0x6
 513 010b 98040000 		.4byte	.LASF22
 514 010f 05       		.byte	0x5
 515 0110 58       		.byte	0x58
 516 0111 48020000 		.4byte	0x248
 517 0115 02       		.byte	0x2
 518 0116 23       		.byte	0x23
 519 0117 00       		.uleb128 0
 520 0118 06       		.uleb128 0x6
 521 0119 CB030000 		.4byte	.LASF23
 522 011d 05       		.byte	0x5
 523 011e 5A       		.byte	0x5a
 524 011f 48020000 		.4byte	0x248
 525 0123 02       		.byte	0x2
 526 0124 23       		.byte	0x23
 527 0125 04       		.uleb128 0x4
 528 0126 06       		.uleb128 0x6
 529 0127 D4000000 		.4byte	.LASF24
 530 012b 05       		.byte	0x5
 531 012c 5C       		.byte	0x5c
 532 012d C7000000 		.4byte	0xc7
 533 0131 02       		.byte	0x2
 534 0132 23       		.byte	0x23
 535 0133 08       		.uleb128 0x8
 536 0134 06       		.uleb128 0x6
 537 0135 51060000 		.4byte	.LASF25
 538 0139 05       		.byte	0x5
 539 013a 5D       		.byte	0x5d
 540 013b 16030000 		.4byte	0x316
 541 013f 02       		.byte	0x2
 542 0140 23       		.byte	0x23
 543 0141 0C       		.uleb128 0xc
 544 0142 06       		.uleb128 0x6
 545 0143 B4010000 		.4byte	.LASF26
 546 0147 05       		.byte	0x5
 547 0148 5F       		.byte	0x5f
 548 0149 48020000 		.4byte	0x248
 549 014d 02       		.byte	0x2
 550 014e 23       		.byte	0x23
 551 014f 10       		.uleb128 0x10
 552 0150 06       		.uleb128 0x6
 553 0151 7C040000 		.4byte	.LASF27
 554 0155 05       		.byte	0x5
 555 0156 60       		.byte	0x60
 556 0157 48020000 		.4byte	0x248
 557 015b 02       		.byte	0x2
 558 015c 23       		.byte	0x23
 559 015d 14       		.uleb128 0x14
 560 015e 06       		.uleb128 0x6
 561 015f BB050000 		.4byte	.LASF28
 562 0163 05       		.byte	0x5
 563 0164 67       		.byte	0x67
 564 0165 C7030000 		.4byte	0x3c7
 565 0169 02       		.byte	0x2
 566 016a 23       		.byte	0x23
ARM GAS  C:\Users\DNIEL~1\AppData\Local\Temp\cce1REmO.s 			page 11


 567 016b 18       		.uleb128 0x18
 568 016c 06       		.uleb128 0x6
 569 016d 5E040000 		.4byte	.LASF29
 570 0171 05       		.byte	0x5
 571 0172 72       		.byte	0x72
 572 0173 A6000000 		.4byte	0xa6
 573 0177 02       		.byte	0x2
 574 0178 23       		.byte	0x23
 575 0179 1C       		.uleb128 0x1c
 576 017a 06       		.uleb128 0x6
 577 017b 20020000 		.4byte	.LASF30
 578 017f 05       		.byte	0x5
 579 0180 76       		.byte	0x76
 580 0181 9B000000 		.4byte	0x9b
 581 0185 02       		.byte	0x2
 582 0186 23       		.byte	0x23
 583 0187 1D       		.uleb128 0x1d
 584 0188 06       		.uleb128 0x6
 585 0189 C2050000 		.4byte	.LASF31
 586 018d 05       		.byte	0x5
 587 018e 7B       		.byte	0x7b
 588 018f B1000000 		.4byte	0xb1
 589 0193 02       		.byte	0x2
 590 0194 23       		.byte	0x23
 591 0195 1E       		.uleb128 0x1e
 592 0196 06       		.uleb128 0x6
 593 0197 72040000 		.4byte	.LASF32
 594 019b 05       		.byte	0x5
 595 019c 81       		.byte	0x81
 596 019d BC000000 		.4byte	0xbc
 597 01a1 02       		.byte	0x2
 598 01a2 23       		.byte	0x23
 599 01a3 1F       		.uleb128 0x1f
 600 01a4 06       		.uleb128 0x6
 601 01a5 70050000 		.4byte	.LASF33
 602 01a9 05       		.byte	0x5
 603 01aa 88       		.byte	0x88
 604 01ab 45030000 		.4byte	0x345
 605 01af 02       		.byte	0x2
 606 01b0 23       		.byte	0x23
 607 01b1 20       		.uleb128 0x20
 608 01b2 07       		.uleb128 0x7
 609 01b3 705F7500 		.ascii	"p_u\000"
 610 01b7 05       		.byte	0x5
 611 01b8 AD       		.byte	0xad
 612 01b9 92030000 		.4byte	0x392
 613 01bd 02       		.byte	0x2
 614 01be 23       		.byte	0x23
 615 01bf 24       		.uleb128 0x24
 616 01c0 06       		.uleb128 0x6
 617 01c1 57060000 		.4byte	.LASF34
 618 01c5 05       		.byte	0x5
 619 01c6 B2       		.byte	0xb2
 620 01c7 70020000 		.4byte	0x270
 621 01cb 02       		.byte	0x2
 622 01cc 23       		.byte	0x23
 623 01cd 28       		.uleb128 0x28
ARM GAS  C:\Users\DNIEL~1\AppData\Local\Temp\cce1REmO.s 			page 12


 624 01ce 06       		.uleb128 0x6
 625 01cf 4A020000 		.4byte	.LASF35
 626 01d3 05       		.byte	0x5
 627 01d4 B8       		.byte	0xb8
 628 01d5 4E020000 		.4byte	0x24e
 629 01d9 02       		.byte	0x2
 630 01da 23       		.byte	0x23
 631 01db 2C       		.uleb128 0x2c
 632 01dc 06       		.uleb128 0x6
 633 01dd FE050000 		.4byte	.LASF36
 634 01e1 05       		.byte	0x5
 635 01e2 BC       		.byte	0xbc
 636 01e3 D2000000 		.4byte	0xd2
 637 01e7 02       		.byte	0x2
 638 01e8 23       		.byte	0x23
 639 01e9 34       		.uleb128 0x34
 640 01ea 06       		.uleb128 0x6
 641 01eb B5040000 		.4byte	.LASF37
 642 01ef 05       		.byte	0x5
 643 01f0 C2       		.byte	0xc2
 644 01f1 DD000000 		.4byte	0xdd
 645 01f5 02       		.byte	0x2
 646 01f6 23       		.byte	0x23
 647 01f7 38       		.uleb128 0x38
 648 01f8 06       		.uleb128 0x6
 649 01f9 D0020000 		.4byte	.LASF38
 650 01fd 05       		.byte	0x5
 651 01fe C9       		.byte	0xc9
 652 01ff D9030000 		.4byte	0x3d9
 653 0203 02       		.byte	0x2
 654 0204 23       		.byte	0x23
 655 0205 3C       		.uleb128 0x3c
 656 0206 06       		.uleb128 0x6
 657 0207 33050000 		.4byte	.LASF39
 658 020b 05       		.byte	0x5
 659 020c CD       		.byte	0xcd
 660 020d C7000000 		.4byte	0xc7
 661 0211 02       		.byte	0x2
 662 0212 23       		.byte	0x23
 663 0213 40       		.uleb128 0x40
 664 0214 06       		.uleb128 0x6
 665 0215 0B010000 		.4byte	.LASF40
 666 0219 05       		.byte	0x5
 667 021a D3       		.byte	0xd3
 668 021b 86020000 		.4byte	0x286
 669 021f 02       		.byte	0x2
 670 0220 23       		.byte	0x23
 671 0221 44       		.uleb128 0x44
 672 0222 00       		.byte	0
 673 0223 08       		.uleb128 0x8
 674 0224 08       		.byte	0x8
 675 0225 04       		.byte	0x4
 676 0226 5A       		.byte	0x5a
 677 0227 48020000 		.4byte	0x248
 678 022b 06       		.uleb128 0x6
 679 022c 98040000 		.4byte	.LASF22
 680 0230 04       		.byte	0x4
ARM GAS  C:\Users\DNIEL~1\AppData\Local\Temp\cce1REmO.s 			page 13


 681 0231 5B       		.byte	0x5b
 682 0232 48020000 		.4byte	0x248
 683 0236 02       		.byte	0x2
 684 0237 23       		.byte	0x23
 685 0238 00       		.uleb128 0
 686 0239 06       		.uleb128 0x6
 687 023a CB030000 		.4byte	.LASF23
 688 023e 04       		.byte	0x4
 689 023f 5D       		.byte	0x5d
 690 0240 48020000 		.4byte	0x248
 691 0244 02       		.byte	0x2
 692 0245 23       		.byte	0x23
 693 0246 04       		.uleb128 0x4
 694 0247 00       		.byte	0
 695 0248 09       		.uleb128 0x9
 696 0249 04       		.byte	0x4
 697 024a F3000000 		.4byte	0xf3
 698 024e 04       		.uleb128 0x4
 699 024f 71000000 		.4byte	.LASF41
 700 0253 04       		.byte	0x4
 701 0254 5F       		.byte	0x5f
 702 0255 23020000 		.4byte	0x223
 703 0259 08       		.uleb128 0x8
 704 025a 04       		.byte	0x4
 705 025b 04       		.byte	0x4
 706 025c 64       		.byte	0x64
 707 025d 70020000 		.4byte	0x270
 708 0261 06       		.uleb128 0x6
 709 0262 98040000 		.4byte	.LASF22
 710 0266 04       		.byte	0x4
 711 0267 66       		.byte	0x66
 712 0268 48020000 		.4byte	0x248
 713 026c 02       		.byte	0x2
 714 026d 23       		.byte	0x23
 715 026e 00       		.uleb128 0
 716 026f 00       		.byte	0
 717 0270 04       		.uleb128 0x4
 718 0271 C4020000 		.4byte	.LASF42
 719 0275 04       		.byte	0x4
 720 0276 69       		.byte	0x69
 721 0277 59020000 		.4byte	0x259
 722 027b 04       		.uleb128 0x4
 723 027c D2040000 		.4byte	.LASF43
 724 0280 06       		.byte	0x6
 725 0281 DE       		.byte	0xde
 726 0282 86020000 		.4byte	0x286
 727 0286 0A       		.uleb128 0xa
 728 0287 04       		.byte	0x4
 729 0288 0B       		.uleb128 0xb
 730 0289 89050000 		.4byte	.LASF44
 731 028d 24       		.byte	0x24
 732 028e 06       		.byte	0x6
 733 028f 0501     		.2byte	0x105
 734 0291 16030000 		.4byte	0x316
 735 0295 0C       		.uleb128 0xc
 736 0296 723400   		.ascii	"r4\000"
 737 0299 06       		.byte	0x6
ARM GAS  C:\Users\DNIEL~1\AppData\Local\Temp\cce1REmO.s 			page 14


 738 029a 1801     		.2byte	0x118
 739 029c 7B020000 		.4byte	0x27b
 740 02a0 02       		.byte	0x2
 741 02a1 23       		.byte	0x23
 742 02a2 00       		.uleb128 0
 743 02a3 0C       		.uleb128 0xc
 744 02a4 723500   		.ascii	"r5\000"
 745 02a7 06       		.byte	0x6
 746 02a8 1901     		.2byte	0x119
 747 02aa 7B020000 		.4byte	0x27b
 748 02ae 02       		.byte	0x2
 749 02af 23       		.byte	0x23
 750 02b0 04       		.uleb128 0x4
 751 02b1 0C       		.uleb128 0xc
 752 02b2 723600   		.ascii	"r6\000"
 753 02b5 06       		.byte	0x6
 754 02b6 1A01     		.2byte	0x11a
 755 02b8 7B020000 		.4byte	0x27b
 756 02bc 02       		.byte	0x2
 757 02bd 23       		.byte	0x23
 758 02be 08       		.uleb128 0x8
 759 02bf 0C       		.uleb128 0xc
 760 02c0 723700   		.ascii	"r7\000"
 761 02c3 06       		.byte	0x6
 762 02c4 1B01     		.2byte	0x11b
 763 02c6 7B020000 		.4byte	0x27b
 764 02ca 02       		.byte	0x2
 765 02cb 23       		.byte	0x23
 766 02cc 0C       		.uleb128 0xc
 767 02cd 0C       		.uleb128 0xc
 768 02ce 723800   		.ascii	"r8\000"
 769 02d1 06       		.byte	0x6
 770 02d2 1C01     		.2byte	0x11c
 771 02d4 7B020000 		.4byte	0x27b
 772 02d8 02       		.byte	0x2
 773 02d9 23       		.byte	0x23
 774 02da 10       		.uleb128 0x10
 775 02db 0C       		.uleb128 0xc
 776 02dc 723900   		.ascii	"r9\000"
 777 02df 06       		.byte	0x6
 778 02e0 1D01     		.2byte	0x11d
 779 02e2 7B020000 		.4byte	0x27b
 780 02e6 02       		.byte	0x2
 781 02e7 23       		.byte	0x23
 782 02e8 14       		.uleb128 0x14
 783 02e9 0C       		.uleb128 0xc
 784 02ea 72313000 		.ascii	"r10\000"
 785 02ee 06       		.byte	0x6
 786 02ef 1E01     		.2byte	0x11e
 787 02f1 7B020000 		.4byte	0x27b
 788 02f5 02       		.byte	0x2
 789 02f6 23       		.byte	0x23
 790 02f7 18       		.uleb128 0x18
 791 02f8 0C       		.uleb128 0xc
 792 02f9 72313100 		.ascii	"r11\000"
 793 02fd 06       		.byte	0x6
 794 02fe 1F01     		.2byte	0x11f
ARM GAS  C:\Users\DNIEL~1\AppData\Local\Temp\cce1REmO.s 			page 15


 795 0300 7B020000 		.4byte	0x27b
 796 0304 02       		.byte	0x2
 797 0305 23       		.byte	0x23
 798 0306 1C       		.uleb128 0x1c
 799 0307 0C       		.uleb128 0xc
 800 0308 6C7200   		.ascii	"lr\000"
 801 030b 06       		.byte	0x6
 802 030c 2001     		.2byte	0x120
 803 030e 7B020000 		.4byte	0x27b
 804 0312 02       		.byte	0x2
 805 0313 23       		.byte	0x23
 806 0314 20       		.uleb128 0x20
 807 0315 00       		.byte	0
 808 0316 0B       		.uleb128 0xb
 809 0317 68020000 		.4byte	.LASF45
 810 031b 04       		.byte	0x4
 811 031c 06       		.byte	0x6
 812 031d 2A01     		.2byte	0x12a
 813 031f 33030000 		.4byte	0x333
 814 0323 0C       		.uleb128 0xc
 815 0324 72313300 		.ascii	"r13\000"
 816 0328 06       		.byte	0x6
 817 0329 2B01     		.2byte	0x12b
 818 032b 33030000 		.4byte	0x333
 819 032f 02       		.byte	0x2
 820 0330 23       		.byte	0x23
 821 0331 00       		.uleb128 0
 822 0332 00       		.byte	0
 823 0333 09       		.uleb128 0x9
 824 0334 04       		.byte	0x4
 825 0335 88020000 		.4byte	0x288
 826 0339 0D       		.uleb128 0xd
 827 033a 70000000 		.4byte	0x70
 828 033e 03       		.uleb128 0x3
 829 033f 04       		.byte	0x4
 830 0340 07       		.byte	0x7
 831 0341 2D020000 		.4byte	.LASF46
 832 0345 0D       		.uleb128 0xd
 833 0346 E8000000 		.4byte	0xe8
 834 034a 05       		.uleb128 0x5
 835 034b E6020000 		.4byte	.LASF47
 836 034f 10       		.byte	0x10
 837 0350 07       		.byte	0x7
 838 0351 25       		.byte	0x25
 839 0352 81030000 		.4byte	0x381
 840 0356 06       		.uleb128 0x6
 841 0357 1A010000 		.4byte	.LASF48
 842 035b 07       		.byte	0x7
 843 035c 26       		.byte	0x26
 844 035d 4E020000 		.4byte	0x24e
 845 0361 02       		.byte	0x2
 846 0362 23       		.byte	0x23
 847 0363 00       		.uleb128 0
 848 0364 06       		.uleb128 0x6
 849 0365 49060000 		.4byte	.LASF49
 850 0369 07       		.byte	0x7
 851 036a 28       		.byte	0x28
ARM GAS  C:\Users\DNIEL~1\AppData\Local\Temp\cce1REmO.s 			page 16


 852 036b 48020000 		.4byte	0x248
 853 036f 02       		.byte	0x2
 854 0370 23       		.byte	0x23
 855 0371 08       		.uleb128 0x8
 856 0372 06       		.uleb128 0x6
 857 0373 22050000 		.4byte	.LASF50
 858 0377 07       		.byte	0x7
 859 0378 2A       		.byte	0x2a
 860 0379 81030000 		.4byte	0x381
 861 037d 02       		.byte	0x2
 862 037e 23       		.byte	0x23
 863 037f 0C       		.uleb128 0xc
 864 0380 00       		.byte	0
 865 0381 09       		.uleb128 0x9
 866 0382 04       		.byte	0x4
 867 0383 4A030000 		.4byte	0x34a
 868 0387 04       		.uleb128 0x4
 869 0388 E6020000 		.4byte	.LASF47
 870 038c 07       		.byte	0x7
 871 038d 2C       		.byte	0x2c
 872 038e 4A030000 		.4byte	0x34a
 873 0392 0E       		.uleb128 0xe
 874 0393 04       		.byte	0x4
 875 0394 05       		.byte	0x5
 876 0395 8F       		.byte	0x8f
 877 0396 C7030000 		.4byte	0x3c7
 878 039a 0F       		.uleb128 0xf
 879 039b 36000000 		.4byte	.LASF51
 880 039f 05       		.byte	0x5
 881 03a0 96       		.byte	0x96
 882 03a1 D2000000 		.4byte	0xd2
 883 03a5 0F       		.uleb128 0xf
 884 03a6 7E000000 		.4byte	.LASF52
 885 03aa 05       		.byte	0x5
 886 03ab 9D       		.byte	0x9d
 887 03ac D2000000 		.4byte	0xd2
 888 03b0 0F       		.uleb128 0xf
 889 03b1 8A040000 		.4byte	.LASF53
 890 03b5 05       		.byte	0x5
 891 03b6 A4       		.byte	0xa4
 892 03b7 86020000 		.4byte	0x286
 893 03bb 0F       		.uleb128 0xf
 894 03bc 91040000 		.4byte	.LASF54
 895 03c0 05       		.byte	0x5
 896 03c1 AB       		.byte	0xab
 897 03c2 DD000000 		.4byte	0xdd
 898 03c6 00       		.byte	0
 899 03c7 09       		.uleb128 0x9
 900 03c8 04       		.byte	0x4
 901 03c9 CD030000 		.4byte	0x3cd
 902 03cd 10       		.uleb128 0x10
 903 03ce D2030000 		.4byte	0x3d2
 904 03d2 03       		.uleb128 0x3
 905 03d3 01       		.byte	0x1
 906 03d4 08       		.byte	0x8
 907 03d5 04050000 		.4byte	.LASF55
 908 03d9 09       		.uleb128 0x9
ARM GAS  C:\Users\DNIEL~1\AppData\Local\Temp\cce1REmO.s 			page 17


 909 03da 04       		.byte	0x4
 910 03db 87030000 		.4byte	0x387
 911 03df 09       		.uleb128 0x9
 912 03e0 04       		.byte	0x4
 913 03e1 3E000000 		.4byte	0x3e
 914 03e5 09       		.uleb128 0x9
 915 03e6 04       		.byte	0x4
 916 03e7 EB030000 		.4byte	0x3eb
 917 03eb 10       		.uleb128 0x10
 918 03ec 3E000000 		.4byte	0x3e
 919 03f0 11       		.uleb128 0x11
 920 03f1 70000000 		.4byte	0x70
 921 03f5 00040000 		.4byte	0x400
 922 03f9 12       		.uleb128 0x12
 923 03fa 3E030000 		.4byte	0x33e
 924 03fe 03       		.byte	0x3
 925 03ff 00       		.byte	0
 926 0400 0D       		.uleb128 0xd
 927 0401 5E000000 		.4byte	0x5e
 928 0405 13       		.uleb128 0x13
 929 0406 18       		.byte	0x18
 930 0407 08       		.byte	0x8
 931 0408 D301     		.2byte	0x1d3
 932 040a 68040000 		.4byte	0x468
 933 040e 0C       		.uleb128 0xc
 934 040f 435200   		.ascii	"CR\000"
 935 0412 08       		.byte	0x8
 936 0413 D501     		.2byte	0x1d5
 937 0415 39030000 		.4byte	0x339
 938 0419 02       		.byte	0x2
 939 041a 23       		.byte	0x23
 940 041b 00       		.uleb128 0
 941 041c 14       		.uleb128 0x14
 942 041d 46050000 		.4byte	.LASF56
 943 0421 08       		.byte	0x8
 944 0422 D601     		.2byte	0x1d6
 945 0424 39030000 		.4byte	0x339
 946 0428 02       		.byte	0x2
 947 0429 23       		.byte	0x23
 948 042a 04       		.uleb128 0x4
 949 042b 0C       		.uleb128 0xc
 950 042c 50415200 		.ascii	"PAR\000"
 951 0430 08       		.byte	0x8
 952 0431 D701     		.2byte	0x1d7
 953 0433 39030000 		.4byte	0x339
 954 0437 02       		.byte	0x2
 955 0438 23       		.byte	0x23
 956 0439 08       		.uleb128 0x8
 957 043a 14       		.uleb128 0x14
 958 043b 29000000 		.4byte	.LASF57
 959 043f 08       		.byte	0x8
 960 0440 D801     		.2byte	0x1d8
 961 0442 39030000 		.4byte	0x339
 962 0446 02       		.byte	0x2
 963 0447 23       		.byte	0x23
 964 0448 0C       		.uleb128 0xc
 965 0449 14       		.uleb128 0x14
ARM GAS  C:\Users\DNIEL~1\AppData\Local\Temp\cce1REmO.s 			page 18


 966 044a 9D050000 		.4byte	.LASF58
 967 044e 08       		.byte	0x8
 968 044f D901     		.2byte	0x1d9
 969 0451 39030000 		.4byte	0x339
 970 0455 02       		.byte	0x2
 971 0456 23       		.byte	0x23
 972 0457 10       		.uleb128 0x10
 973 0458 0C       		.uleb128 0xc
 974 0459 46435200 		.ascii	"FCR\000"
 975 045d 08       		.byte	0x8
 976 045e DA01     		.2byte	0x1da
 977 0460 39030000 		.4byte	0x339
 978 0464 02       		.byte	0x2
 979 0465 23       		.byte	0x23
 980 0466 14       		.uleb128 0x14
 981 0467 00       		.byte	0
 982 0468 15       		.uleb128 0x15
 983 0469 51050000 		.4byte	.LASF59
 984 046d 08       		.byte	0x8
 985 046e DB01     		.2byte	0x1db
 986 0470 05040000 		.4byte	0x405
 987 0474 13       		.uleb128 0x13
 988 0475 A0       		.byte	0xa0
 989 0476 08       		.byte	0x8
 990 0477 0103     		.2byte	0x301
 991 0479 DB060000 		.4byte	0x6db
 992 047d 0C       		.uleb128 0xc
 993 047e 545200   		.ascii	"TR\000"
 994 0481 08       		.byte	0x8
 995 0482 0303     		.2byte	0x303
 996 0484 39030000 		.4byte	0x339
 997 0488 02       		.byte	0x2
 998 0489 23       		.byte	0x23
 999 048a 00       		.uleb128 0
 1000 048b 0C       		.uleb128 0xc
 1001 048c 445200   		.ascii	"DR\000"
 1002 048f 08       		.byte	0x8
 1003 0490 0403     		.2byte	0x304
 1004 0492 39030000 		.4byte	0x339
 1005 0496 02       		.byte	0x2
 1006 0497 23       		.byte	0x23
 1007 0498 04       		.uleb128 0x4
 1008 0499 0C       		.uleb128 0xc
 1009 049a 435200   		.ascii	"CR\000"
 1010 049d 08       		.byte	0x8
 1011 049e 0503     		.2byte	0x305
 1012 04a0 39030000 		.4byte	0x339
 1013 04a4 02       		.byte	0x2
 1014 04a5 23       		.byte	0x23
 1015 04a6 08       		.uleb128 0x8
 1016 04a7 0C       		.uleb128 0xc
 1017 04a8 49535200 		.ascii	"ISR\000"
 1018 04ac 08       		.byte	0x8
 1019 04ad 0603     		.2byte	0x306
 1020 04af 39030000 		.4byte	0x339
 1021 04b3 02       		.byte	0x2
 1022 04b4 23       		.byte	0x23
ARM GAS  C:\Users\DNIEL~1\AppData\Local\Temp\cce1REmO.s 			page 19


 1023 04b5 0C       		.uleb128 0xc
 1024 04b6 14       		.uleb128 0x14
 1025 04b7 65000000 		.4byte	.LASF60
 1026 04bb 08       		.byte	0x8
 1027 04bc 0703     		.2byte	0x307
 1028 04be 39030000 		.4byte	0x339
 1029 04c2 02       		.byte	0x2
 1030 04c3 23       		.byte	0x23
 1031 04c4 10       		.uleb128 0x10
 1032 04c5 14       		.uleb128 0x14
 1033 04c6 DB040000 		.4byte	.LASF61
 1034 04ca 08       		.byte	0x8
 1035 04cb 0803     		.2byte	0x308
 1036 04cd 39030000 		.4byte	0x339
 1037 04d1 02       		.byte	0x2
 1038 04d2 23       		.byte	0x23
 1039 04d3 14       		.uleb128 0x14
 1040 04d4 14       		.uleb128 0x14
 1041 04d5 CB040000 		.4byte	.LASF62
 1042 04d9 08       		.byte	0x8
 1043 04da 0903     		.2byte	0x309
 1044 04dc 39030000 		.4byte	0x339
 1045 04e0 02       		.byte	0x2
 1046 04e1 23       		.byte	0x23
 1047 04e2 18       		.uleb128 0x18
 1048 04e3 14       		.uleb128 0x14
 1049 04e4 AF030000 		.4byte	.LASF63
 1050 04e8 08       		.byte	0x8
 1051 04e9 0A03     		.2byte	0x30a
 1052 04eb 39030000 		.4byte	0x339
 1053 04ef 02       		.byte	0x2
 1054 04f0 23       		.byte	0x23
 1055 04f1 1C       		.uleb128 0x1c
 1056 04f2 14       		.uleb128 0x14
 1057 04f3 AB000000 		.4byte	.LASF64
 1058 04f7 08       		.byte	0x8
 1059 04f8 0B03     		.2byte	0x30b
 1060 04fa 39030000 		.4byte	0x339
 1061 04fe 02       		.byte	0x2
 1062 04ff 23       		.byte	0x23
 1063 0500 20       		.uleb128 0x20
 1064 0501 0C       		.uleb128 0xc
 1065 0502 57505200 		.ascii	"WPR\000"
 1066 0506 08       		.byte	0x8
 1067 0507 0C03     		.2byte	0x30c
 1068 0509 39030000 		.4byte	0x339
 1069 050d 02       		.byte	0x2
 1070 050e 23       		.byte	0x23
 1071 050f 24       		.uleb128 0x24
 1072 0510 0C       		.uleb128 0xc
 1073 0511 53535200 		.ascii	"SSR\000"
 1074 0515 08       		.byte	0x8
 1075 0516 0D03     		.2byte	0x30d
 1076 0518 39030000 		.4byte	0x339
 1077 051c 02       		.byte	0x2
 1078 051d 23       		.byte	0x23
 1079 051e 28       		.uleb128 0x28
ARM GAS  C:\Users\DNIEL~1\AppData\Local\Temp\cce1REmO.s 			page 20


 1080 051f 14       		.uleb128 0x14
 1081 0520 82050000 		.4byte	.LASF65
 1082 0524 08       		.byte	0x8
 1083 0525 0E03     		.2byte	0x30e
 1084 0527 39030000 		.4byte	0x339
 1085 052b 02       		.byte	0x2
 1086 052c 23       		.byte	0x23
 1087 052d 2C       		.uleb128 0x2c
 1088 052e 14       		.uleb128 0x14
 1089 052f B8020000 		.4byte	.LASF66
 1090 0533 08       		.byte	0x8
 1091 0534 0F03     		.2byte	0x30f
 1092 0536 39030000 		.4byte	0x339
 1093 053a 02       		.byte	0x2
 1094 053b 23       		.byte	0x23
 1095 053c 30       		.uleb128 0x30
 1096 053d 14       		.uleb128 0x14
 1097 053e 28020000 		.4byte	.LASF67
 1098 0542 08       		.byte	0x8
 1099 0543 1003     		.2byte	0x310
 1100 0545 39030000 		.4byte	0x339
 1101 0549 02       		.byte	0x2
 1102 054a 23       		.byte	0x23
 1103 054b 34       		.uleb128 0x34
 1104 054c 14       		.uleb128 0x14
 1105 054d 2D010000 		.4byte	.LASF68
 1106 0551 08       		.byte	0x8
 1107 0552 1103     		.2byte	0x311
 1108 0554 39030000 		.4byte	0x339
 1109 0558 02       		.byte	0x2
 1110 0559 23       		.byte	0x23
 1111 055a 38       		.uleb128 0x38
 1112 055b 14       		.uleb128 0x14
 1113 055c 16030000 		.4byte	.LASF69
 1114 0560 08       		.byte	0x8
 1115 0561 1203     		.2byte	0x312
 1116 0563 39030000 		.4byte	0x339
 1117 0567 02       		.byte	0x2
 1118 0568 23       		.byte	0x23
 1119 0569 3C       		.uleb128 0x3c
 1120 056a 14       		.uleb128 0x14
 1121 056b 8E020000 		.4byte	.LASF70
 1122 056f 08       		.byte	0x8
 1123 0570 1303     		.2byte	0x313
 1124 0572 39030000 		.4byte	0x339
 1125 0576 02       		.byte	0x2
 1126 0577 23       		.byte	0x23
 1127 0578 40       		.uleb128 0x40
 1128 0579 14       		.uleb128 0x14
 1129 057a 17020000 		.4byte	.LASF71
 1130 057e 08       		.byte	0x8
 1131 057f 1403     		.2byte	0x314
 1132 0581 39030000 		.4byte	0x339
 1133 0585 02       		.byte	0x2
 1134 0586 23       		.byte	0x23
 1135 0587 44       		.uleb128 0x44
 1136 0588 14       		.uleb128 0x14
ARM GAS  C:\Users\DNIEL~1\AppData\Local\Temp\cce1REmO.s 			page 21


 1137 0589 68010000 		.4byte	.LASF72
 1138 058d 08       		.byte	0x8
 1139 058e 1503     		.2byte	0x315
 1140 0590 39030000 		.4byte	0x339
 1141 0594 02       		.byte	0x2
 1142 0595 23       		.byte	0x23
 1143 0596 48       		.uleb128 0x48
 1144 0597 14       		.uleb128 0x14
 1145 0598 35060000 		.4byte	.LASF73
 1146 059c 08       		.byte	0x8
 1147 059d 1603     		.2byte	0x316
 1148 059f 70000000 		.4byte	0x70
 1149 05a3 02       		.byte	0x2
 1150 05a4 23       		.byte	0x23
 1151 05a5 4C       		.uleb128 0x4c
 1152 05a6 14       		.uleb128 0x14
 1153 05a7 84040000 		.4byte	.LASF74
 1154 05ab 08       		.byte	0x8
 1155 05ac 1703     		.2byte	0x317
 1156 05ae 39030000 		.4byte	0x339
 1157 05b2 02       		.byte	0x2
 1158 05b3 23       		.byte	0x23
 1159 05b4 50       		.uleb128 0x50
 1160 05b5 14       		.uleb128 0x14
 1161 05b6 4B050000 		.4byte	.LASF75
 1162 05ba 08       		.byte	0x8
 1163 05bb 1803     		.2byte	0x318
 1164 05bd 39030000 		.4byte	0x339
 1165 05c1 02       		.byte	0x2
 1166 05c2 23       		.byte	0x23
 1167 05c3 54       		.uleb128 0x54
 1168 05c4 14       		.uleb128 0x14
 1169 05c5 28060000 		.4byte	.LASF76
 1170 05c9 08       		.byte	0x8
 1171 05ca 1903     		.2byte	0x319
 1172 05cc 39030000 		.4byte	0x339
 1173 05d0 02       		.byte	0x2
 1174 05d1 23       		.byte	0x23
 1175 05d2 58       		.uleb128 0x58
 1176 05d3 14       		.uleb128 0x14
 1177 05d4 58000000 		.4byte	.LASF77
 1178 05d8 08       		.byte	0x8
 1179 05d9 1A03     		.2byte	0x31a
 1180 05db 39030000 		.4byte	0x339
 1181 05df 02       		.byte	0x2
 1182 05e0 23       		.byte	0x23
 1183 05e1 5C       		.uleb128 0x5c
 1184 05e2 14       		.uleb128 0x14
 1185 05e3 62010000 		.4byte	.LASF78
 1186 05e7 08       		.byte	0x8
 1187 05e8 1B03     		.2byte	0x31b
 1188 05ea 39030000 		.4byte	0x339
 1189 05ee 02       		.byte	0x2
 1190 05ef 23       		.byte	0x23
 1191 05f0 60       		.uleb128 0x60
 1192 05f1 14       		.uleb128 0x14
 1193 05f2 36020000 		.4byte	.LASF79
ARM GAS  C:\Users\DNIEL~1\AppData\Local\Temp\cce1REmO.s 			page 22


 1194 05f6 08       		.byte	0x8
 1195 05f7 1C03     		.2byte	0x31c
 1196 05f9 39030000 		.4byte	0x339
 1197 05fd 02       		.byte	0x2
 1198 05fe 23       		.byte	0x23
 1199 05ff 64       		.uleb128 0x64
 1200 0600 14       		.uleb128 0x14
 1201 0601 F7020000 		.4byte	.LASF80
 1202 0605 08       		.byte	0x8
 1203 0606 1D03     		.2byte	0x31d
 1204 0608 39030000 		.4byte	0x339
 1205 060c 02       		.byte	0x2
 1206 060d 23       		.byte	0x23
 1207 060e 68       		.uleb128 0x68
 1208 060f 14       		.uleb128 0x14
 1209 0610 B6030000 		.4byte	.LASF81
 1210 0614 08       		.byte	0x8
 1211 0615 1E03     		.2byte	0x31e
 1212 0617 39030000 		.4byte	0x339
 1213 061b 02       		.byte	0x2
 1214 061c 23       		.byte	0x23
 1215 061d 6C       		.uleb128 0x6c
 1216 061e 14       		.uleb128 0x14
 1217 061f C5040000 		.4byte	.LASF82
 1218 0623 08       		.byte	0x8
 1219 0624 1F03     		.2byte	0x31f
 1220 0626 39030000 		.4byte	0x339
 1221 062a 02       		.byte	0x2
 1222 062b 23       		.byte	0x23
 1223 062c 70       		.uleb128 0x70
 1224 062d 14       		.uleb128 0x14
 1225 062e B5050000 		.4byte	.LASF83
 1226 0632 08       		.byte	0x8
 1227 0633 2003     		.2byte	0x320
 1228 0635 39030000 		.4byte	0x339
 1229 0639 02       		.byte	0x2
 1230 063a 23       		.byte	0x23
 1231 063b 74       		.uleb128 0x74
 1232 063c 14       		.uleb128 0x14
 1233 063d A9020000 		.4byte	.LASF84
 1234 0641 08       		.byte	0x8
 1235 0642 2103     		.2byte	0x321
 1236 0644 39030000 		.4byte	0x339
 1237 0648 02       		.byte	0x2
 1238 0649 23       		.byte	0x23
 1239 064a 78       		.uleb128 0x78
 1240 064b 14       		.uleb128 0x14
 1241 064c A0030000 		.4byte	.LASF85
 1242 0650 08       		.byte	0x8
 1243 0651 2203     		.2byte	0x322
 1244 0653 39030000 		.4byte	0x339
 1245 0657 02       		.byte	0x2
 1246 0658 23       		.byte	0x23
 1247 0659 7C       		.uleb128 0x7c
 1248 065a 14       		.uleb128 0x14
 1249 065b 9F040000 		.4byte	.LASF86
 1250 065f 08       		.byte	0x8
ARM GAS  C:\Users\DNIEL~1\AppData\Local\Temp\cce1REmO.s 			page 23


 1251 0660 2303     		.2byte	0x323
 1252 0662 39030000 		.4byte	0x339
 1253 0666 03       		.byte	0x3
 1254 0667 23       		.byte	0x23
 1255 0668 8001     		.uleb128 0x80
 1256 066a 14       		.uleb128 0x14
 1257 066b 69050000 		.4byte	.LASF87
 1258 066f 08       		.byte	0x8
 1259 0670 2403     		.2byte	0x324
 1260 0672 39030000 		.4byte	0x339
 1261 0676 03       		.byte	0x3
 1262 0677 23       		.byte	0x23
 1263 0678 8401     		.uleb128 0x84
 1264 067a 14       		.uleb128 0x14
 1265 067b 2E060000 		.4byte	.LASF88
 1266 067f 08       		.byte	0x8
 1267 0680 2503     		.2byte	0x325
 1268 0682 39030000 		.4byte	0x339
 1269 0686 03       		.byte	0x3
 1270 0687 23       		.byte	0x23
 1271 0688 8801     		.uleb128 0x88
 1272 068a 14       		.uleb128 0x14
 1273 068b 6A000000 		.4byte	.LASF89
 1274 068f 08       		.byte	0x8
 1275 0690 2603     		.2byte	0x326
 1276 0692 39030000 		.4byte	0x339
 1277 0696 03       		.byte	0x3
 1278 0697 23       		.byte	0x23
 1279 0698 8C01     		.uleb128 0x8c
 1280 069a 14       		.uleb128 0x14
 1281 069b 89010000 		.4byte	.LASF90
 1282 069f 08       		.byte	0x8
 1283 06a0 2703     		.2byte	0x327
 1284 06a2 39030000 		.4byte	0x339
 1285 06a6 03       		.byte	0x3
 1286 06a7 23       		.byte	0x23
 1287 06a8 9001     		.uleb128 0x90
 1288 06aa 14       		.uleb128 0x14
 1289 06ab 43020000 		.4byte	.LASF91
 1290 06af 08       		.byte	0x8
 1291 06b0 2803     		.2byte	0x328
 1292 06b2 39030000 		.4byte	0x339
 1293 06b6 03       		.byte	0x3
 1294 06b7 23       		.byte	0x23
 1295 06b8 9401     		.uleb128 0x94
 1296 06ba 14       		.uleb128 0x14
 1297 06bb 03030000 		.4byte	.LASF92
 1298 06bf 08       		.byte	0x8
 1299 06c0 2903     		.2byte	0x329
 1300 06c2 39030000 		.4byte	0x339
 1301 06c6 03       		.byte	0x3
 1302 06c7 23       		.byte	0x23
 1303 06c8 9801     		.uleb128 0x98
 1304 06ca 14       		.uleb128 0x14
 1305 06cb C4030000 		.4byte	.LASF93
 1306 06cf 08       		.byte	0x8
 1307 06d0 2A03     		.2byte	0x32a
ARM GAS  C:\Users\DNIEL~1\AppData\Local\Temp\cce1REmO.s 			page 24


 1308 06d2 39030000 		.4byte	0x339
 1309 06d6 03       		.byte	0x3
 1310 06d7 23       		.byte	0x23
 1311 06d8 9C01     		.uleb128 0x9c
 1312 06da 00       		.byte	0
 1313 06db 15       		.uleb128 0x15
 1314 06dc BD000000 		.4byte	.LASF94
 1315 06e0 08       		.byte	0x8
 1316 06e1 2B03     		.2byte	0x32b
 1317 06e3 74040000 		.4byte	0x474
 1318 06e7 08       		.uleb128 0x8
 1319 06e8 0C       		.byte	0xc
 1320 06e9 09       		.byte	0x9
 1321 06ea DE       		.byte	0xde
 1322 06eb 36070000 		.4byte	0x736
 1323 06ef 06       		.uleb128 0x6
 1324 06f0 5E000000 		.4byte	.LASF95
 1325 06f4 09       		.byte	0x9
 1326 06f5 DF       		.byte	0xdf
 1327 06f6 36070000 		.4byte	0x736
 1328 06fa 02       		.byte	0x2
 1329 06fb 23       		.byte	0x23
 1330 06fc 00       		.uleb128 0
 1331 06fd 06       		.uleb128 0x6
 1332 06fe C0040000 		.4byte	.LASF96
 1333 0702 09       		.byte	0x9
 1334 0703 E0       		.byte	0xe0
 1335 0704 3C070000 		.4byte	0x73c
 1336 0708 02       		.byte	0x2
 1337 0709 23       		.byte	0x23
 1338 070a 04       		.uleb128 0x4
 1339 070b 06       		.uleb128 0x6
 1340 070c 61020000 		.4byte	.LASF97
 1341 0710 09       		.byte	0x9
 1342 0711 E1       		.byte	0xe1
 1343 0712 3E000000 		.4byte	0x3e
 1344 0716 02       		.byte	0x2
 1345 0717 23       		.byte	0x23
 1346 0718 08       		.uleb128 0x8
 1347 0719 06       		.uleb128 0x6
 1348 071a A2050000 		.4byte	.LASF98
 1349 071e 09       		.byte	0x9
 1350 071f E3       		.byte	0xe3
 1351 0720 3E000000 		.4byte	0x3e
 1352 0724 02       		.byte	0x2
 1353 0725 23       		.byte	0x23
 1354 0726 09       		.uleb128 0x9
 1355 0727 06       		.uleb128 0x6
 1356 0728 87000000 		.4byte	.LASF99
 1357 072c 09       		.byte	0x9
 1358 072d E4       		.byte	0xe4
 1359 072e 3E000000 		.4byte	0x3e
 1360 0732 02       		.byte	0x2
 1361 0733 23       		.byte	0x23
 1362 0734 0A       		.uleb128 0xa
 1363 0735 00       		.byte	0
 1364 0736 09       		.uleb128 0x9
ARM GAS  C:\Users\DNIEL~1\AppData\Local\Temp\cce1REmO.s 			page 25


 1365 0737 04       		.byte	0x4
 1366 0738 68040000 		.4byte	0x468
 1367 073c 09       		.uleb128 0x9
 1368 073d 04       		.byte	0x4
 1369 073e 39030000 		.4byte	0x339
 1370 0742 04       		.uleb128 0x4
 1371 0743 0C040000 		.4byte	.LASF100
 1372 0747 09       		.byte	0x9
 1373 0748 E5       		.byte	0xe5
 1374 0749 E7060000 		.4byte	0x6e7
 1375 074d 16       		.uleb128 0x16
 1376 074e 01       		.byte	0x1
 1377 074f 0A       		.byte	0xa
 1378 0750 2C       		.byte	0x2c
 1379 0751 86070000 		.4byte	0x786
 1380 0755 17       		.uleb128 0x17
 1381 0756 48010000 		.4byte	.LASF101
 1382 075a 00       		.sleb128 0
 1383 075b 17       		.uleb128 0x17
 1384 075c 33010000 		.4byte	.LASF102
 1385 0760 01       		.sleb128 1
 1386 0761 17       		.uleb128 0x17
 1387 0762 83020000 		.4byte	.LASF103
 1388 0766 02       		.sleb128 2
 1389 0767 17       		.uleb128 0x17
 1390 0768 9A020000 		.4byte	.LASF104
 1391 076c 03       		.sleb128 3
 1392 076d 17       		.uleb128 0x17
 1393 076e 09050000 		.4byte	.LASF105
 1394 0772 04       		.sleb128 4
 1395 0773 17       		.uleb128 0x17
 1396 0774 96030000 		.4byte	.LASF106
 1397 0778 05       		.sleb128 5
 1398 0779 17       		.uleb128 0x17
 1399 077a 0A030000 		.4byte	.LASF107
 1400 077e 06       		.sleb128 6
 1401 077f 17       		.uleb128 0x17
 1402 0780 66040000 		.4byte	.LASF108
 1403 0784 07       		.sleb128 7
 1404 0785 00       		.byte	0
 1405 0786 04       		.uleb128 0x4
 1406 0787 B2000000 		.4byte	.LASF109
 1407 078b 0A       		.byte	0xa
 1408 078c 35       		.byte	0x35
 1409 078d 4D070000 		.4byte	0x74d
 1410 0791 08       		.uleb128 0x8
 1411 0792 08       		.byte	0x8
 1412 0793 0A       		.byte	0xa
 1413 0794 3A       		.byte	0x3a
 1414 0795 B6070000 		.4byte	0x7b6
 1415 0799 06       		.uleb128 0x6
 1416 079a FF010000 		.4byte	.LASF110
 1417 079e 0A       		.byte	0xa
 1418 079f 3B       		.byte	0x3b
 1419 07a0 70000000 		.4byte	0x70
 1420 07a4 02       		.byte	0x2
 1421 07a5 23       		.byte	0x23
ARM GAS  C:\Users\DNIEL~1\AppData\Local\Temp\cce1REmO.s 			page 26


 1422 07a6 00       		.uleb128 0
 1423 07a7 06       		.uleb128 0x6
 1424 07a8 2E000000 		.4byte	.LASF111
 1425 07ac 0A       		.byte	0xa
 1426 07ad 3C       		.byte	0x3c
 1427 07ae 70000000 		.4byte	0x70
 1428 07b2 02       		.byte	0x2
 1429 07b3 23       		.byte	0x23
 1430 07b4 04       		.uleb128 0x4
 1431 07b5 00       		.byte	0
 1432 07b6 04       		.uleb128 0x4
 1433 07b7 00000000 		.4byte	.LASF112
 1434 07bb 0A       		.byte	0xa
 1435 07bc 3D       		.byte	0x3d
 1436 07bd 91070000 		.4byte	0x791
 1437 07c1 18       		.uleb128 0x18
 1438 07c2 01       		.byte	0x1
 1439 07c3 90000000 		.4byte	0x90
 1440 07c7 D1070000 		.4byte	0x7d1
 1441 07cb 19       		.uleb128 0x19
 1442 07cc 86020000 		.4byte	0x286
 1443 07d0 00       		.byte	0
 1444 07d1 09       		.uleb128 0x9
 1445 07d2 04       		.byte	0x4
 1446 07d3 C1070000 		.4byte	0x7c1
 1447 07d7 18       		.uleb128 0x18
 1448 07d8 01       		.byte	0x1
 1449 07d9 90000000 		.4byte	0x90
 1450 07dd F6070000 		.4byte	0x7f6
 1451 07e1 19       		.uleb128 0x19
 1452 07e2 86020000 		.4byte	0x286
 1453 07e6 19       		.uleb128 0x19
 1454 07e7 70000000 		.4byte	0x70
 1455 07eb 19       		.uleb128 0x19
 1456 07ec DF030000 		.4byte	0x3df
 1457 07f0 19       		.uleb128 0x19
 1458 07f1 70000000 		.4byte	0x70
 1459 07f5 00       		.byte	0
 1460 07f6 09       		.uleb128 0x9
 1461 07f7 04       		.byte	0x4
 1462 07f8 D7070000 		.4byte	0x7d7
 1463 07fc 18       		.uleb128 0x18
 1464 07fd 01       		.byte	0x1
 1465 07fe 90000000 		.4byte	0x90
 1466 0802 1B080000 		.4byte	0x81b
 1467 0806 19       		.uleb128 0x19
 1468 0807 86020000 		.4byte	0x286
 1469 080b 19       		.uleb128 0x19
 1470 080c 70000000 		.4byte	0x70
 1471 0810 19       		.uleb128 0x19
 1472 0811 E5030000 		.4byte	0x3e5
 1473 0815 19       		.uleb128 0x19
 1474 0816 70000000 		.4byte	0x70
 1475 081a 00       		.byte	0
 1476 081b 09       		.uleb128 0x9
 1477 081c 04       		.byte	0x4
 1478 081d FC070000 		.4byte	0x7fc
ARM GAS  C:\Users\DNIEL~1\AppData\Local\Temp\cce1REmO.s 			page 27


 1479 0821 18       		.uleb128 0x18
 1480 0822 01       		.byte	0x1
 1481 0823 90000000 		.4byte	0x90
 1482 0827 36080000 		.4byte	0x836
 1483 082b 19       		.uleb128 0x19
 1484 082c 86020000 		.4byte	0x286
 1485 0830 19       		.uleb128 0x19
 1486 0831 36080000 		.4byte	0x836
 1487 0835 00       		.byte	0
 1488 0836 09       		.uleb128 0x9
 1489 0837 04       		.byte	0x4
 1490 0838 B6070000 		.4byte	0x7b6
 1491 083c 09       		.uleb128 0x9
 1492 083d 04       		.byte	0x4
 1493 083e 21080000 		.4byte	0x821
 1494 0842 09       		.uleb128 0x9
 1495 0843 04       		.byte	0x4
 1496 0844 48080000 		.4byte	0x848
 1497 0848 10       		.uleb128 0x10
 1498 0849 42070000 		.4byte	0x742
 1499 084d 04       		.uleb128 0x4
 1500 084e 44040000 		.4byte	.LASF113
 1501 0852 0B       		.byte	0xb
 1502 0853 45       		.byte	0x45
 1503 0854 58080000 		.4byte	0x858
 1504 0858 05       		.uleb128 0x5
 1505 0859 44040000 		.4byte	.LASF113
 1506 085d 04       		.byte	0x4
 1507 085e 0C       		.byte	0xc
 1508 085f A8       		.byte	0xa8
 1509 0860 73080000 		.4byte	0x873
 1510 0864 06       		.uleb128 0x6
 1511 0865 97000000 		.4byte	.LASF114
 1512 0869 0C       		.byte	0xc
 1513 086a AC       		.byte	0xac
 1514 086b 73080000 		.4byte	0x873
 1515 086f 02       		.byte	0x2
 1516 0870 23       		.byte	0x23
 1517 0871 00       		.uleb128 0
 1518 0872 00       		.byte	0
 1519 0873 09       		.uleb128 0x9
 1520 0874 04       		.byte	0x4
 1521 0875 DB060000 		.4byte	0x6db
 1522 0879 04       		.uleb128 0x4
 1523 087a 0D020000 		.4byte	.LASF115
 1524 087e 0D       		.byte	0xd
 1525 087f BC       		.byte	0xbc
 1526 0880 70000000 		.4byte	0x70
 1527 0884 04       		.uleb128 0x4
 1528 0885 77050000 		.4byte	.LASF116
 1529 0889 0D       		.byte	0xd
 1530 088a C1       		.byte	0xc1
 1531 088b 70000000 		.4byte	0x70
 1532 088f 04       		.uleb128 0x4
 1533 0890 3D000000 		.4byte	.LASF117
 1534 0894 0D       		.byte	0xd
 1535 0895 C6       		.byte	0xc6
ARM GAS  C:\Users\DNIEL~1\AppData\Local\Temp\cce1REmO.s 			page 28


 1536 0896 9A080000 		.4byte	0x89a
 1537 089a 05       		.uleb128 0x5
 1538 089b 3D000000 		.4byte	.LASF117
 1539 089f 48       		.byte	0x48
 1540 08a0 0D       		.byte	0xd
 1541 08a1 E2       		.byte	0xe2
 1542 08a2 51090000 		.4byte	0x951
 1543 08a6 07       		.uleb128 0x7
 1544 08a7 766D7400 		.ascii	"vmt\000"
 1545 08ab 0D       		.byte	0xd
 1546 08ac E6       		.byte	0xe6
 1547 08ad F0090000 		.4byte	0x9f0
 1548 08b1 02       		.byte	0x2
 1549 08b2 23       		.byte	0x23
 1550 08b3 00       		.uleb128 0
 1551 08b4 06       		.uleb128 0x6
 1552 08b5 53010000 		.4byte	.LASF118
 1553 08b9 0D       		.byte	0xd
 1554 08ba E7       		.byte	0xe7
 1555 08bb 86070000 		.4byte	0x786
 1556 08bf 02       		.byte	0x2
 1557 08c0 23       		.byte	0x23
 1558 08c1 04       		.uleb128 0x4
 1559 08c2 07       		.uleb128 0x7
 1560 08c3 63696400 		.ascii	"cid\000"
 1561 08c7 0D       		.byte	0xd
 1562 08c8 E7       		.byte	0xe7
 1563 08c9 F0030000 		.4byte	0x3f0
 1564 08cd 02       		.byte	0x2
 1565 08ce 23       		.byte	0x23
 1566 08cf 08       		.uleb128 0x8
 1567 08d0 07       		.uleb128 0x7
 1568 08d1 63736400 		.ascii	"csd\000"
 1569 08d5 0D       		.byte	0xd
 1570 08d6 E7       		.byte	0xe7
 1571 08d7 F0030000 		.4byte	0x3f0
 1572 08db 02       		.byte	0x2
 1573 08dc 23       		.byte	0x23
 1574 08dd 18       		.uleb128 0x18
 1575 08de 06       		.uleb128 0x6
 1576 08df 16000000 		.4byte	.LASF119
 1577 08e3 0D       		.byte	0xd
 1578 08e4 E7       		.byte	0xe7
 1579 08e5 70000000 		.4byte	0x70
 1580 08e9 02       		.byte	0x2
 1581 08ea 23       		.byte	0x23
 1582 08eb 28       		.uleb128 0x28
 1583 08ec 06       		.uleb128 0x6
 1584 08ed 1B050000 		.4byte	.LASF120
 1585 08f1 0D       		.byte	0xd
 1586 08f2 EB       		.byte	0xeb
 1587 08f3 FB090000 		.4byte	0x9fb
 1588 08f7 02       		.byte	0x2
 1589 08f8 23       		.byte	0x23
 1590 08f9 2C       		.uleb128 0x2c
 1591 08fa 06       		.uleb128 0x6
 1592 08fb 8E000000 		.4byte	.LASF121
ARM GAS  C:\Users\DNIEL~1\AppData\Local\Temp\cce1REmO.s 			page 29


 1593 08ff 0D       		.byte	0xd
 1594 0900 EF       		.byte	0xef
 1595 0901 79080000 		.4byte	0x879
 1596 0905 02       		.byte	0x2
 1597 0906 23       		.byte	0x23
 1598 0907 30       		.uleb128 0x30
 1599 0908 06       		.uleb128 0x6
 1600 0909 3C020000 		.4byte	.LASF122
 1601 090d 0D       		.byte	0xd
 1602 090e F3       		.byte	0xf3
 1603 090f 84080000 		.4byte	0x884
 1604 0913 02       		.byte	0x2
 1605 0914 23       		.byte	0x23
 1606 0915 34       		.uleb128 0x34
 1607 0916 07       		.uleb128 0x7
 1608 0917 72636100 		.ascii	"rca\000"
 1609 091b 0D       		.byte	0xd
 1610 091c F7       		.byte	0xf7
 1611 091d 70000000 		.4byte	0x70
 1612 0921 02       		.byte	0x2
 1613 0922 23       		.byte	0x23
 1614 0923 38       		.uleb128 0x38
 1615 0924 06       		.uleb128 0x6
 1616 0925 27040000 		.4byte	.LASF123
 1617 0929 0D       		.byte	0xd
 1618 092a FC       		.byte	0xfc
 1619 092b 48020000 		.4byte	0x248
 1620 092f 02       		.byte	0x2
 1621 0930 23       		.byte	0x23
 1622 0931 3C       		.uleb128 0x3c
 1623 0932 14       		.uleb128 0x14
 1624 0933 11060000 		.4byte	.LASF124
 1625 0937 0D       		.byte	0xd
 1626 0938 0001     		.2byte	0x100
 1627 093a 70000000 		.4byte	0x70
 1628 093e 02       		.byte	0x2
 1629 093f 23       		.byte	0x23
 1630 0940 40       		.uleb128 0x40
 1631 0941 0C       		.uleb128 0xc
 1632 0942 646D6100 		.ascii	"dma\000"
 1633 0946 0D       		.byte	0xd
 1634 0947 0401     		.2byte	0x104
 1635 0949 42080000 		.4byte	0x842
 1636 094d 02       		.byte	0x2
 1637 094e 23       		.byte	0x23
 1638 094f 44       		.uleb128 0x44
 1639 0950 00       		.byte	0
 1640 0951 08       		.uleb128 0x8
 1641 0952 04       		.byte	0x4
 1642 0953 0D       		.byte	0xd
 1643 0954 CC       		.byte	0xcc
 1644 0955 68090000 		.4byte	0x968
 1645 0959 06       		.uleb128 0x6
 1646 095a F9010000 		.4byte	.LASF125
 1647 095e 0D       		.byte	0xd
 1648 095f CD       		.byte	0xcd
 1649 0960 70000000 		.4byte	0x70
ARM GAS  C:\Users\DNIEL~1\AppData\Local\Temp\cce1REmO.s 			page 30


 1650 0964 02       		.byte	0x2
 1651 0965 23       		.byte	0x23
 1652 0966 00       		.uleb128 0
 1653 0967 00       		.byte	0
 1654 0968 04       		.uleb128 0x4
 1655 0969 F4050000 		.4byte	.LASF126
 1656 096d 0D       		.byte	0xd
 1657 096e CE       		.byte	0xce
 1658 096f 51090000 		.4byte	0x951
 1659 0973 05       		.uleb128 0x5
 1660 0974 BC010000 		.4byte	.LASF127
 1661 0978 20       		.byte	0x20
 1662 0979 0D       		.byte	0xd
 1663 097a DB       		.byte	0xdb
 1664 097b F0090000 		.4byte	0x9f0
 1665 097f 06       		.uleb128 0x6
 1666 0980 FA000000 		.4byte	.LASF128
 1667 0984 0D       		.byte	0xd
 1668 0985 DC       		.byte	0xdc
 1669 0986 D1070000 		.4byte	0x7d1
 1670 098a 02       		.byte	0x2
 1671 098b 23       		.byte	0x23
 1672 098c 00       		.uleb128 0
 1673 098d 06       		.uleb128 0x6
 1674 098e 90050000 		.4byte	.LASF129
 1675 0992 0D       		.byte	0xd
 1676 0993 DC       		.byte	0xdc
 1677 0994 D1070000 		.4byte	0x7d1
 1678 0998 02       		.byte	0x2
 1679 0999 23       		.byte	0x23
 1680 099a 04       		.uleb128 0x4
 1681 099b 06       		.uleb128 0x6
 1682 099c AD040000 		.4byte	.LASF130
 1683 09a0 0D       		.byte	0xd
 1684 09a1 DC       		.byte	0xdc
 1685 09a2 D1070000 		.4byte	0x7d1
 1686 09a6 02       		.byte	0x2
 1687 09a7 23       		.byte	0x23
 1688 09a8 08       		.uleb128 0x8
 1689 09a9 06       		.uleb128 0x6
 1690 09aa 22010000 		.4byte	.LASF131
 1691 09ae 0D       		.byte	0xd
 1692 09af DC       		.byte	0xdc
 1693 09b0 D1070000 		.4byte	0x7d1
 1694 09b4 02       		.byte	0x2
 1695 09b5 23       		.byte	0x23
 1696 09b6 0C       		.uleb128 0xc
 1697 09b7 06       		.uleb128 0x6
 1698 09b8 19060000 		.4byte	.LASF132
 1699 09bc 0D       		.byte	0xd
 1700 09bd DC       		.byte	0xdc
 1701 09be F6070000 		.4byte	0x7f6
 1702 09c2 02       		.byte	0x2
 1703 09c3 23       		.byte	0x23
 1704 09c4 10       		.uleb128 0x10
 1705 09c5 06       		.uleb128 0x6
 1706 09c6 FD020000 		.4byte	.LASF133
ARM GAS  C:\Users\DNIEL~1\AppData\Local\Temp\cce1REmO.s 			page 31


 1707 09ca 0D       		.byte	0xd
 1708 09cb DC       		.byte	0xdc
 1709 09cc 1B080000 		.4byte	0x81b
 1710 09d0 02       		.byte	0x2
 1711 09d1 23       		.byte	0x23
 1712 09d2 14       		.uleb128 0x14
 1713 09d3 06       		.uleb128 0x6
 1714 09d4 0C060000 		.4byte	.LASF134
 1715 09d8 0D       		.byte	0xd
 1716 09d9 DC       		.byte	0xdc
 1717 09da D1070000 		.4byte	0x7d1
 1718 09de 02       		.byte	0x2
 1719 09df 23       		.byte	0x23
 1720 09e0 18       		.uleb128 0x18
 1721 09e1 06       		.uleb128 0x6
 1722 09e2 C9010000 		.4byte	.LASF135
 1723 09e6 0D       		.byte	0xd
 1724 09e7 DC       		.byte	0xdc
 1725 09e8 3C080000 		.4byte	0x83c
 1726 09ec 02       		.byte	0x2
 1727 09ed 23       		.byte	0x23
 1728 09ee 1C       		.uleb128 0x1c
 1729 09ef 00       		.byte	0
 1730 09f0 09       		.uleb128 0x9
 1731 09f1 04       		.byte	0x4
 1732 09f2 F6090000 		.4byte	0x9f6
 1733 09f6 10       		.uleb128 0x10
 1734 09f7 73090000 		.4byte	0x973
 1735 09fb 09       		.uleb128 0x9
 1736 09fc 04       		.byte	0x4
 1737 09fd 010A0000 		.4byte	0xa01
 1738 0a01 10       		.uleb128 0x10
 1739 0a02 68090000 		.4byte	0x968
 1740 0a06 04       		.uleb128 0x4
 1741 0a07 08020000 		.4byte	.LASF136
 1742 0a0b 0E       		.byte	0xe
 1743 0a0c 16       		.byte	0x16
 1744 0a0d 49000000 		.4byte	0x49
 1745 0a11 04       		.uleb128 0x4
 1746 0a12 36030000 		.4byte	.LASF137
 1747 0a16 0E       		.byte	0xe
 1748 0a17 1B       		.byte	0x1b
 1749 0a18 57000000 		.4byte	0x57
 1750 0a1c 04       		.uleb128 0x4
 1751 0a1d A7010000 		.4byte	.LASF138
 1752 0a21 0E       		.byte	0xe
 1753 0a22 21       		.byte	0x21
 1754 0a23 7B000000 		.4byte	0x7b
 1755 0a27 04       		.uleb128 0x4
 1756 0a28 3E050000 		.4byte	.LASF139
 1757 0a2c 0F       		.byte	0xf
 1758 0a2d 0E       		.byte	0xe
 1759 0a2e 060A0000 		.4byte	0xa06
 1760 0a32 16       		.uleb128 0x16
 1761 0a33 01       		.byte	0x1
 1762 0a34 0F       		.byte	0xf
 1763 0a35 11       		.byte	0x11
ARM GAS  C:\Users\DNIEL~1\AppData\Local\Temp\cce1REmO.s 			page 32


 1764 0a36 590A0000 		.4byte	0xa59
 1765 0a3a 17       		.uleb128 0x17
 1766 0a3b AD010000 		.4byte	.LASF140
 1767 0a3f 00       		.sleb128 0
 1768 0a40 17       		.uleb128 0x17
 1769 0a41 1E060000 		.4byte	.LASF141
 1770 0a45 01       		.sleb128 1
 1771 0a46 17       		.uleb128 0x17
 1772 0a47 1F000000 		.4byte	.LASF142
 1773 0a4b 02       		.sleb128 2
 1774 0a4c 17       		.uleb128 0x17
 1775 0a4d 4D000000 		.4byte	.LASF143
 1776 0a51 03       		.sleb128 3
 1777 0a52 17       		.uleb128 0x17
 1778 0a53 71010000 		.4byte	.LASF144
 1779 0a57 04       		.sleb128 4
 1780 0a58 00       		.byte	0
 1781 0a59 04       		.uleb128 0x4
 1782 0a5a E0040000 		.4byte	.LASF145
 1783 0a5e 0F       		.byte	0xf
 1784 0a5f 17       		.byte	0x17
 1785 0a60 320A0000 		.4byte	0xa32
 1786 0a64 1A       		.uleb128 0x1a
 1787 0a65 01       		.byte	0x1
 1788 0a66 E9010000 		.4byte	.LASF146
 1789 0a6a 01       		.byte	0x1
 1790 0a6b 29       		.byte	0x29
 1791 0a6c 01       		.byte	0x1
 1792 0a6d 270A0000 		.4byte	0xa27
 1793 0a71 00000000 		.4byte	.LFB118
 1794 0a75 28000000 		.4byte	.LFE118
 1795 0a79 00000000 		.4byte	.LLST0
 1796 0a7d 01       		.byte	0x1
 1797 0a7e AA0A0000 		.4byte	0xaaa
 1798 0a82 1B       		.uleb128 0x1b
 1799 0a83 64727600 		.ascii	"drv\000"
 1800 0a87 01       		.byte	0x1
 1801 0a88 2A       		.byte	0x2a
 1802 0a89 060A0000 		.4byte	0xa06
 1803 0a8d 20000000 		.4byte	.LLST1
 1804 0a91 1C       		.uleb128 0x1c
 1805 0a92 DB000000 		.4byte	.LASF148
 1806 0a96 01       		.byte	0x1
 1807 0a97 2D       		.byte	0x2d
 1808 0a98 270A0000 		.4byte	0xa27
 1809 0a9c 5A000000 		.4byte	.LLST2
 1810 0aa0 1D       		.uleb128 0x1d
 1811 0aa1 12000000 		.4byte	.LVL4
 1812 0aa5 8A0C0000 		.4byte	0xc8a
 1813 0aa9 00       		.byte	0
 1814 0aaa 1A       		.uleb128 0x1a
 1815 0aab 01       		.byte	0x1
 1816 0aac 55020000 		.4byte	.LASF147
 1817 0ab0 01       		.byte	0x1
 1818 0ab1 4C       		.byte	0x4c
 1819 0ab2 01       		.byte	0x1
 1820 0ab3 270A0000 		.4byte	0xa27
ARM GAS  C:\Users\DNIEL~1\AppData\Local\Temp\cce1REmO.s 			page 33


 1821 0ab7 00000000 		.4byte	.LFB119
 1822 0abb 28000000 		.4byte	.LFE119
 1823 0abf 82000000 		.4byte	.LLST3
 1824 0ac3 01       		.byte	0x1
 1825 0ac4 F00A0000 		.4byte	0xaf0
 1826 0ac8 1B       		.uleb128 0x1b
 1827 0ac9 64727600 		.ascii	"drv\000"
 1828 0acd 01       		.byte	0x1
 1829 0ace 4D       		.byte	0x4d
 1830 0acf 060A0000 		.4byte	0xa06
 1831 0ad3 A2000000 		.4byte	.LLST4
 1832 0ad7 1C       		.uleb128 0x1c
 1833 0ad8 DB000000 		.4byte	.LASF148
 1834 0adc 01       		.byte	0x1
 1835 0add 50       		.byte	0x50
 1836 0ade 270A0000 		.4byte	0xa27
 1837 0ae2 DC000000 		.4byte	.LLST5
 1838 0ae6 1D       		.uleb128 0x1d
 1839 0ae7 12000000 		.4byte	.LVL12
 1840 0aeb 8A0C0000 		.4byte	0xc8a
 1841 0aef 00       		.byte	0
 1842 0af0 1A       		.uleb128 0x1a
 1843 0af1 01       		.byte	0x1
 1844 0af2 3F060000 		.4byte	.LASF149
 1845 0af6 01       		.byte	0x1
 1846 0af7 6F       		.byte	0x6f
 1847 0af8 01       		.byte	0x1
 1848 0af9 590A0000 		.4byte	0xa59
 1849 0afd 00000000 		.4byte	.LFB120
 1850 0b01 2C000000 		.4byte	.LFE120
 1851 0b05 04010000 		.4byte	.LLST6
 1852 0b09 01       		.byte	0x1
 1853 0b0a 620B0000 		.4byte	0xb62
 1854 0b0e 1B       		.uleb128 0x1b
 1855 0b0f 64727600 		.ascii	"drv\000"
 1856 0b13 01       		.byte	0x1
 1857 0b14 70       		.byte	0x70
 1858 0b15 060A0000 		.4byte	0xa06
 1859 0b19 24010000 		.4byte	.LLST7
 1860 0b1d 1E       		.uleb128 0x1e
 1861 0b1e 06010000 		.4byte	.LASF150
 1862 0b22 01       		.byte	0x1
 1863 0b23 71       		.byte	0x71
 1864 0b24 620B0000 		.4byte	0xb62
 1865 0b28 5E010000 		.4byte	.LLST8
 1866 0b2c 1E       		.uleb128 0x1e
 1867 0b2d BD020000 		.4byte	.LASF151
 1868 0b31 01       		.byte	0x1
 1869 0b32 72       		.byte	0x72
 1870 0b33 1C0A0000 		.4byte	0xa1c
 1871 0b37 92010000 		.4byte	.LLST9
 1872 0b3b 1E       		.uleb128 0x1e
 1873 0b3c 10000000 		.4byte	.LASF152
 1874 0b40 01       		.byte	0x1
 1875 0b41 73       		.byte	0x73
 1876 0b42 060A0000 		.4byte	0xa06
 1877 0b46 BE010000 		.4byte	.LLST10
ARM GAS  C:\Users\DNIEL~1\AppData\Local\Temp\cce1REmO.s 			page 34


 1878 0b4a 1F       		.uleb128 0x1f
 1879 0b4b 1E000000 		.4byte	.LVL23
 1880 0b4f A90C0000 		.4byte	0xca9
 1881 0b53 20       		.uleb128 0x20
 1882 0b54 01       		.byte	0x1
 1883 0b55 52       		.byte	0x52
 1884 0b56 02       		.byte	0x2
 1885 0b57 74       		.byte	0x74
 1886 0b58 00       		.sleb128 0
 1887 0b59 20       		.uleb128 0x20
 1888 0b5a 01       		.byte	0x1
 1889 0b5b 51       		.byte	0x51
 1890 0b5c 03       		.byte	0x3
 1891 0b5d F3       		.byte	0xf3
 1892 0b5e 01       		.uleb128 0x1
 1893 0b5f 52       		.byte	0x52
 1894 0b60 00       		.byte	0
 1895 0b61 00       		.byte	0
 1896 0b62 09       		.uleb128 0x9
 1897 0b63 04       		.byte	0x4
 1898 0b64 060A0000 		.4byte	0xa06
 1899 0b68 1A       		.uleb128 0x1a
 1900 0b69 01       		.byte	0x1
 1901 0b6a C9000000 		.4byte	.LASF153
 1902 0b6e 01       		.byte	0x1
 1903 0b6f 98       		.byte	0x98
 1904 0b70 01       		.byte	0x1
 1905 0b71 590A0000 		.4byte	0xa59
 1906 0b75 00000000 		.4byte	.LFB121
 1907 0b79 2C000000 		.4byte	.LFE121
 1908 0b7d DF010000 		.4byte	.LLST11
 1909 0b81 01       		.byte	0x1
 1910 0b82 DA0B0000 		.4byte	0xbda
 1911 0b86 1B       		.uleb128 0x1b
 1912 0b87 64727600 		.ascii	"drv\000"
 1913 0b8b 01       		.byte	0x1
 1914 0b8c 99       		.byte	0x99
 1915 0b8d 060A0000 		.4byte	0xa06
 1916 0b91 FF010000 		.4byte	.LLST12
 1917 0b95 1E       		.uleb128 0x1e
 1918 0b96 06010000 		.4byte	.LASF150
 1919 0b9a 01       		.byte	0x1
 1920 0b9b 9A       		.byte	0x9a
 1921 0b9c DA0B0000 		.4byte	0xbda
 1922 0ba0 39020000 		.4byte	.LLST13
 1923 0ba4 1E       		.uleb128 0x1e
 1924 0ba5 BD020000 		.4byte	.LASF151
 1925 0ba9 01       		.byte	0x1
 1926 0baa 9B       		.byte	0x9b
 1927 0bab 1C0A0000 		.4byte	0xa1c
 1928 0baf 6D020000 		.4byte	.LLST14
 1929 0bb3 1E       		.uleb128 0x1e
 1930 0bb4 10000000 		.4byte	.LASF152
 1931 0bb8 01       		.byte	0x1
 1932 0bb9 9C       		.byte	0x9c
 1933 0bba 060A0000 		.4byte	0xa06
 1934 0bbe 99020000 		.4byte	.LLST15
ARM GAS  C:\Users\DNIEL~1\AppData\Local\Temp\cce1REmO.s 			page 35


 1935 0bc2 1F       		.uleb128 0x1f
 1936 0bc3 1E000000 		.4byte	.LVL31
 1937 0bc7 D00C0000 		.4byte	0xcd0
 1938 0bcb 20       		.uleb128 0x20
 1939 0bcc 01       		.byte	0x1
 1940 0bcd 52       		.byte	0x52
 1941 0bce 02       		.byte	0x2
 1942 0bcf 74       		.byte	0x74
 1943 0bd0 00       		.sleb128 0
 1944 0bd1 20       		.uleb128 0x20
 1945 0bd2 01       		.byte	0x1
 1946 0bd3 51       		.byte	0x51
 1947 0bd4 03       		.byte	0x3
 1948 0bd5 F3       		.byte	0xf3
 1949 0bd6 01       		.uleb128 0x1
 1950 0bd7 52       		.byte	0x52
 1951 0bd8 00       		.byte	0
 1952 0bd9 00       		.byte	0
 1953 0bda 09       		.uleb128 0x9
 1954 0bdb 04       		.byte	0x4
 1955 0bdc E00B0000 		.4byte	0xbe0
 1956 0be0 10       		.uleb128 0x10
 1957 0be1 060A0000 		.4byte	0xa06
 1958 0be5 1A       		.uleb128 0x1a
 1959 0be6 01       		.byte	0x1
 1960 0be7 EC020000 		.4byte	.LASF154
 1961 0beb 01       		.byte	0x1
 1962 0bec C3       		.byte	0xc3
 1963 0bed 01       		.byte	0x1
 1964 0bee 590A0000 		.4byte	0xa59
 1965 0bf2 00000000 		.4byte	.LFB122
 1966 0bf6 44000000 		.4byte	.LFE122
 1967 0bfa BA020000 		.4byte	.LLST16
 1968 0bfe 01       		.byte	0x1
 1969 0bff 3A0C0000 		.4byte	0xc3a
 1970 0c03 1B       		.uleb128 0x1b
 1971 0c04 64727600 		.ascii	"drv\000"
 1972 0c08 01       		.byte	0x1
 1973 0c09 C4       		.byte	0xc4
 1974 0c0a 060A0000 		.4byte	0xa06
 1975 0c0e DA020000 		.4byte	.LLST17
 1976 0c12 1E       		.uleb128 0x1e
 1977 0c13 64050000 		.4byte	.LASF155
 1978 0c17 01       		.byte	0x1
 1979 0c18 C5       		.byte	0xc5
 1980 0c19 060A0000 		.4byte	0xa06
 1981 0c1d 5F030000 		.4byte	.LLST18
 1982 0c21 1E       		.uleb128 0x1e
 1983 0c22 06010000 		.4byte	.LASF150
 1984 0c26 01       		.byte	0x1
 1985 0c27 C6       		.byte	0xc6
 1986 0c28 86020000 		.4byte	0x286
 1987 0c2c A4030000 		.4byte	.LLST19
 1988 0c30 1D       		.uleb128 0x1d
 1989 0c31 1E000000 		.4byte	.LVL37
 1990 0c35 F70C0000 		.4byte	0xcf7
 1991 0c39 00       		.byte	0
ARM GAS  C:\Users\DNIEL~1\AppData\Local\Temp\cce1REmO.s 			page 36


 1992 0c3a 21       		.uleb128 0x21
 1993 0c3b 01       		.byte	0x1
 1994 0c3c 3C010000 		.4byte	.LASF156
 1995 0c40 01       		.byte	0x1
 1996 0c41 F5       		.byte	0xf5
 1997 0c42 01       		.byte	0x1
 1998 0c43 1C0A0000 		.4byte	0xa1c
 1999 0c47 00000000 		.4byte	.LFB123
 2000 0c4b 0C000000 		.4byte	.LFE123
 2001 0c4f 02       		.byte	0x2
 2002 0c50 7D       		.byte	0x7d
 2003 0c51 00       		.sleb128 0
 2004 0c52 01       		.byte	0x1
 2005 0c53 620C0000 		.4byte	0xc62
 2006 0c57 22       		.uleb128 0x22
 2007 0c58 0C000000 		.4byte	.LVL45
 2008 0c5c 01       		.byte	0x1
 2009 0c5d 190D0000 		.4byte	0xd19
 2010 0c61 00       		.byte	0
 2011 0c62 23       		.uleb128 0x23
 2012 0c63 9E000000 		.4byte	.LASF157
 2013 0c67 10       		.byte	0x10
 2014 0c68 9806     		.2byte	0x698
 2015 0c6a 00040000 		.4byte	0x400
 2016 0c6e 01       		.byte	0x1
 2017 0c6f 01       		.byte	0x1
 2018 0c70 24       		.uleb128 0x24
 2019 0c71 4E040000 		.4byte	.LASF158
 2020 0c75 01       		.byte	0x1
 2021 0c76 1B       		.byte	0x1b
 2022 0c77 4D080000 		.4byte	0x84d
 2023 0c7b 01       		.byte	0x1
 2024 0c7c 01       		.byte	0x1
 2025 0c7d 24       		.uleb128 0x24
 2026 0c7e 47000000 		.4byte	.LASF159
 2027 0c82 01       		.byte	0x1
 2028 0c83 14       		.byte	0x14
 2029 0c84 8F080000 		.4byte	0x88f
 2030 0c88 01       		.byte	0x1
 2031 0c89 01       		.byte	0x1
 2032 0c8a 25       		.uleb128 0x25
 2033 0c8b 01       		.byte	0x1
 2034 0c8c 1B030000 		.4byte	.LASF160
 2035 0c90 0D       		.byte	0xd
 2036 0c91 4B01     		.2byte	0x14b
 2037 0c93 01       		.byte	0x1
 2038 0c94 90000000 		.4byte	0x90
 2039 0c98 01       		.byte	0x1
 2040 0c99 A30C0000 		.4byte	0xca3
 2041 0c9d 19       		.uleb128 0x19
 2042 0c9e A30C0000 		.4byte	0xca3
 2043 0ca2 00       		.byte	0
 2044 0ca3 09       		.uleb128 0x9
 2045 0ca4 04       		.byte	0x4
 2046 0ca5 8F080000 		.4byte	0x88f
 2047 0ca9 26       		.uleb128 0x26
 2048 0caa 01       		.byte	0x1
ARM GAS  C:\Users\DNIEL~1\AppData\Local\Temp\cce1REmO.s 			page 37


 2049 0cab A7030000 		.4byte	.LASF161
 2050 0caf 11       		.byte	0x11
 2051 0cb0 A5       		.byte	0xa5
 2052 0cb1 01       		.byte	0x1
 2053 0cb2 90000000 		.4byte	0x90
 2054 0cb6 01       		.byte	0x1
 2055 0cb7 D00C0000 		.4byte	0xcd0
 2056 0cbb 19       		.uleb128 0x19
 2057 0cbc A30C0000 		.4byte	0xca3
 2058 0cc0 19       		.uleb128 0x19
 2059 0cc1 70000000 		.4byte	0x70
 2060 0cc5 19       		.uleb128 0x19
 2061 0cc6 DF030000 		.4byte	0x3df
 2062 0cca 19       		.uleb128 0x19
 2063 0ccb 70000000 		.4byte	0x70
 2064 0ccf 00       		.byte	0
 2065 0cd0 26       		.uleb128 0x26
 2066 0cd1 01       		.byte	0x1
 2067 0cd2 8D030000 		.4byte	.LASF162
 2068 0cd6 11       		.byte	0x11
 2069 0cd7 A7       		.byte	0xa7
 2070 0cd8 01       		.byte	0x1
 2071 0cd9 90000000 		.4byte	0x90
 2072 0cdd 01       		.byte	0x1
 2073 0cde F70C0000 		.4byte	0xcf7
 2074 0ce2 19       		.uleb128 0x19
 2075 0ce3 A30C0000 		.4byte	0xca3
 2076 0ce7 19       		.uleb128 0x19
 2077 0ce8 70000000 		.4byte	0x70
 2078 0cec 19       		.uleb128 0x19
 2079 0ced E5030000 		.4byte	0x3e5
 2080 0cf1 19       		.uleb128 0x19
 2081 0cf2 70000000 		.4byte	0x70
 2082 0cf6 00       		.byte	0
 2083 0cf7 26       		.uleb128 0x26
 2084 0cf8 01       		.byte	0x1
 2085 0cf9 84030000 		.4byte	.LASF163
 2086 0cfd 11       		.byte	0x11
 2087 0cfe AC       		.byte	0xac
 2088 0cff 01       		.byte	0x1
 2089 0d00 90000000 		.4byte	0x90
 2090 0d04 01       		.byte	0x1
 2091 0d05 190D0000 		.4byte	0xd19
 2092 0d09 19       		.uleb128 0x19
 2093 0d0a A30C0000 		.4byte	0xca3
 2094 0d0e 19       		.uleb128 0x19
 2095 0d0f 70000000 		.4byte	0x70
 2096 0d13 19       		.uleb128 0x19
 2097 0d14 70000000 		.4byte	0x70
 2098 0d18 00       		.byte	0
 2099 0d19 26       		.uleb128 0x26
 2100 0d1a 01       		.byte	0x1
 2101 0d1b D2010000 		.4byte	.LASF164
 2102 0d1f 0B       		.byte	0xb
 2103 0d20 A0       		.byte	0xa0
 2104 0d21 01       		.byte	0x1
 2105 0d22 70000000 		.4byte	0x70
ARM GAS  C:\Users\DNIEL~1\AppData\Local\Temp\cce1REmO.s 			page 38


 2106 0d26 01       		.byte	0x1
 2107 0d27 310D0000 		.4byte	0xd31
 2108 0d2b 19       		.uleb128 0x19
 2109 0d2c 310D0000 		.4byte	0xd31
 2110 0d30 00       		.byte	0
 2111 0d31 09       		.uleb128 0x9
 2112 0d32 04       		.byte	0x4
 2113 0d33 4D080000 		.4byte	0x84d
 2114 0d37 00       		.byte	0
 2115              		.section	.debug_abbrev,"",%progbits
 2116              	.Ldebug_abbrev0:
 2117 0000 01       		.uleb128 0x1
 2118 0001 11       		.uleb128 0x11
 2119 0002 01       		.byte	0x1
 2120 0003 25       		.uleb128 0x25
 2121 0004 0E       		.uleb128 0xe
 2122 0005 13       		.uleb128 0x13
 2123 0006 0B       		.uleb128 0xb
 2124 0007 03       		.uleb128 0x3
 2125 0008 0E       		.uleb128 0xe
 2126 0009 1B       		.uleb128 0x1b
 2127 000a 0E       		.uleb128 0xe
 2128 000b 55       		.uleb128 0x55
 2129 000c 06       		.uleb128 0x6
 2130 000d 11       		.uleb128 0x11
 2131 000e 01       		.uleb128 0x1
 2132 000f 52       		.uleb128 0x52
 2133 0010 01       		.uleb128 0x1
 2134 0011 10       		.uleb128 0x10
 2135 0012 06       		.uleb128 0x6
 2136 0013 00       		.byte	0
 2137 0014 00       		.byte	0
 2138 0015 02       		.uleb128 0x2
 2139 0016 24       		.uleb128 0x24
 2140 0017 00       		.byte	0
 2141 0018 0B       		.uleb128 0xb
 2142 0019 0B       		.uleb128 0xb
 2143 001a 3E       		.uleb128 0x3e
 2144 001b 0B       		.uleb128 0xb
 2145 001c 03       		.uleb128 0x3
 2146 001d 08       		.uleb128 0x8
 2147 001e 00       		.byte	0
 2148 001f 00       		.byte	0
 2149 0020 03       		.uleb128 0x3
 2150 0021 24       		.uleb128 0x24
 2151 0022 00       		.byte	0
 2152 0023 0B       		.uleb128 0xb
 2153 0024 0B       		.uleb128 0xb
 2154 0025 3E       		.uleb128 0x3e
 2155 0026 0B       		.uleb128 0xb
 2156 0027 03       		.uleb128 0x3
 2157 0028 0E       		.uleb128 0xe
 2158 0029 00       		.byte	0
 2159 002a 00       		.byte	0
 2160 002b 04       		.uleb128 0x4
 2161 002c 16       		.uleb128 0x16
 2162 002d 00       		.byte	0
ARM GAS  C:\Users\DNIEL~1\AppData\Local\Temp\cce1REmO.s 			page 39


 2163 002e 03       		.uleb128 0x3
 2164 002f 0E       		.uleb128 0xe
 2165 0030 3A       		.uleb128 0x3a
 2166 0031 0B       		.uleb128 0xb
 2167 0032 3B       		.uleb128 0x3b
 2168 0033 0B       		.uleb128 0xb
 2169 0034 49       		.uleb128 0x49
 2170 0035 13       		.uleb128 0x13
 2171 0036 00       		.byte	0
 2172 0037 00       		.byte	0
 2173 0038 05       		.uleb128 0x5
 2174 0039 13       		.uleb128 0x13
 2175 003a 01       		.byte	0x1
 2176 003b 03       		.uleb128 0x3
 2177 003c 0E       		.uleb128 0xe
 2178 003d 0B       		.uleb128 0xb
 2179 003e 0B       		.uleb128 0xb
 2180 003f 3A       		.uleb128 0x3a
 2181 0040 0B       		.uleb128 0xb
 2182 0041 3B       		.uleb128 0x3b
 2183 0042 0B       		.uleb128 0xb
 2184 0043 01       		.uleb128 0x1
 2185 0044 13       		.uleb128 0x13
 2186 0045 00       		.byte	0
 2187 0046 00       		.byte	0
 2188 0047 06       		.uleb128 0x6
 2189 0048 0D       		.uleb128 0xd
 2190 0049 00       		.byte	0
 2191 004a 03       		.uleb128 0x3
 2192 004b 0E       		.uleb128 0xe
 2193 004c 3A       		.uleb128 0x3a
 2194 004d 0B       		.uleb128 0xb
 2195 004e 3B       		.uleb128 0x3b
 2196 004f 0B       		.uleb128 0xb
 2197 0050 49       		.uleb128 0x49
 2198 0051 13       		.uleb128 0x13
 2199 0052 38       		.uleb128 0x38
 2200 0053 0A       		.uleb128 0xa
 2201 0054 00       		.byte	0
 2202 0055 00       		.byte	0
 2203 0056 07       		.uleb128 0x7
 2204 0057 0D       		.uleb128 0xd
 2205 0058 00       		.byte	0
 2206 0059 03       		.uleb128 0x3
 2207 005a 08       		.uleb128 0x8
 2208 005b 3A       		.uleb128 0x3a
 2209 005c 0B       		.uleb128 0xb
 2210 005d 3B       		.uleb128 0x3b
 2211 005e 0B       		.uleb128 0xb
 2212 005f 49       		.uleb128 0x49
 2213 0060 13       		.uleb128 0x13
 2214 0061 38       		.uleb128 0x38
 2215 0062 0A       		.uleb128 0xa
 2216 0063 00       		.byte	0
 2217 0064 00       		.byte	0
 2218 0065 08       		.uleb128 0x8
 2219 0066 13       		.uleb128 0x13
ARM GAS  C:\Users\DNIEL~1\AppData\Local\Temp\cce1REmO.s 			page 40


 2220 0067 01       		.byte	0x1
 2221 0068 0B       		.uleb128 0xb
 2222 0069 0B       		.uleb128 0xb
 2223 006a 3A       		.uleb128 0x3a
 2224 006b 0B       		.uleb128 0xb
 2225 006c 3B       		.uleb128 0x3b
 2226 006d 0B       		.uleb128 0xb
 2227 006e 01       		.uleb128 0x1
 2228 006f 13       		.uleb128 0x13
 2229 0070 00       		.byte	0
 2230 0071 00       		.byte	0
 2231 0072 09       		.uleb128 0x9
 2232 0073 0F       		.uleb128 0xf
 2233 0074 00       		.byte	0
 2234 0075 0B       		.uleb128 0xb
 2235 0076 0B       		.uleb128 0xb
 2236 0077 49       		.uleb128 0x49
 2237 0078 13       		.uleb128 0x13
 2238 0079 00       		.byte	0
 2239 007a 00       		.byte	0
 2240 007b 0A       		.uleb128 0xa
 2241 007c 0F       		.uleb128 0xf
 2242 007d 00       		.byte	0
 2243 007e 0B       		.uleb128 0xb
 2244 007f 0B       		.uleb128 0xb
 2245 0080 00       		.byte	0
 2246 0081 00       		.byte	0
 2247 0082 0B       		.uleb128 0xb
 2248 0083 13       		.uleb128 0x13
 2249 0084 01       		.byte	0x1
 2250 0085 03       		.uleb128 0x3
 2251 0086 0E       		.uleb128 0xe
 2252 0087 0B       		.uleb128 0xb
 2253 0088 0B       		.uleb128 0xb
 2254 0089 3A       		.uleb128 0x3a
 2255 008a 0B       		.uleb128 0xb
 2256 008b 3B       		.uleb128 0x3b
 2257 008c 05       		.uleb128 0x5
 2258 008d 01       		.uleb128 0x1
 2259 008e 13       		.uleb128 0x13
 2260 008f 00       		.byte	0
 2261 0090 00       		.byte	0
 2262 0091 0C       		.uleb128 0xc
 2263 0092 0D       		.uleb128 0xd
 2264 0093 00       		.byte	0
 2265 0094 03       		.uleb128 0x3
 2266 0095 08       		.uleb128 0x8
 2267 0096 3A       		.uleb128 0x3a
 2268 0097 0B       		.uleb128 0xb
 2269 0098 3B       		.uleb128 0x3b
 2270 0099 05       		.uleb128 0x5
 2271 009a 49       		.uleb128 0x49
 2272 009b 13       		.uleb128 0x13
 2273 009c 38       		.uleb128 0x38
 2274 009d 0A       		.uleb128 0xa
 2275 009e 00       		.byte	0
 2276 009f 00       		.byte	0
ARM GAS  C:\Users\DNIEL~1\AppData\Local\Temp\cce1REmO.s 			page 41


 2277 00a0 0D       		.uleb128 0xd
 2278 00a1 35       		.uleb128 0x35
 2279 00a2 00       		.byte	0
 2280 00a3 49       		.uleb128 0x49
 2281 00a4 13       		.uleb128 0x13
 2282 00a5 00       		.byte	0
 2283 00a6 00       		.byte	0
 2284 00a7 0E       		.uleb128 0xe
 2285 00a8 17       		.uleb128 0x17
 2286 00a9 01       		.byte	0x1
 2287 00aa 0B       		.uleb128 0xb
 2288 00ab 0B       		.uleb128 0xb
 2289 00ac 3A       		.uleb128 0x3a
 2290 00ad 0B       		.uleb128 0xb
 2291 00ae 3B       		.uleb128 0x3b
 2292 00af 0B       		.uleb128 0xb
 2293 00b0 01       		.uleb128 0x1
 2294 00b1 13       		.uleb128 0x13
 2295 00b2 00       		.byte	0
 2296 00b3 00       		.byte	0
 2297 00b4 0F       		.uleb128 0xf
 2298 00b5 0D       		.uleb128 0xd
 2299 00b6 00       		.byte	0
 2300 00b7 03       		.uleb128 0x3
 2301 00b8 0E       		.uleb128 0xe
 2302 00b9 3A       		.uleb128 0x3a
 2303 00ba 0B       		.uleb128 0xb
 2304 00bb 3B       		.uleb128 0x3b
 2305 00bc 0B       		.uleb128 0xb
 2306 00bd 49       		.uleb128 0x49
 2307 00be 13       		.uleb128 0x13
 2308 00bf 00       		.byte	0
 2309 00c0 00       		.byte	0
 2310 00c1 10       		.uleb128 0x10
 2311 00c2 26       		.uleb128 0x26
 2312 00c3 00       		.byte	0
 2313 00c4 49       		.uleb128 0x49
 2314 00c5 13       		.uleb128 0x13
 2315 00c6 00       		.byte	0
 2316 00c7 00       		.byte	0
 2317 00c8 11       		.uleb128 0x11
 2318 00c9 01       		.uleb128 0x1
 2319 00ca 01       		.byte	0x1
 2320 00cb 49       		.uleb128 0x49
 2321 00cc 13       		.uleb128 0x13
 2322 00cd 01       		.uleb128 0x1
 2323 00ce 13       		.uleb128 0x13
 2324 00cf 00       		.byte	0
 2325 00d0 00       		.byte	0
 2326 00d1 12       		.uleb128 0x12
 2327 00d2 21       		.uleb128 0x21
 2328 00d3 00       		.byte	0
 2329 00d4 49       		.uleb128 0x49
 2330 00d5 13       		.uleb128 0x13
 2331 00d6 2F       		.uleb128 0x2f
 2332 00d7 0B       		.uleb128 0xb
 2333 00d8 00       		.byte	0
ARM GAS  C:\Users\DNIEL~1\AppData\Local\Temp\cce1REmO.s 			page 42


 2334 00d9 00       		.byte	0
 2335 00da 13       		.uleb128 0x13
 2336 00db 13       		.uleb128 0x13
 2337 00dc 01       		.byte	0x1
 2338 00dd 0B       		.uleb128 0xb
 2339 00de 0B       		.uleb128 0xb
 2340 00df 3A       		.uleb128 0x3a
 2341 00e0 0B       		.uleb128 0xb
 2342 00e1 3B       		.uleb128 0x3b
 2343 00e2 05       		.uleb128 0x5
 2344 00e3 01       		.uleb128 0x1
 2345 00e4 13       		.uleb128 0x13
 2346 00e5 00       		.byte	0
 2347 00e6 00       		.byte	0
 2348 00e7 14       		.uleb128 0x14
 2349 00e8 0D       		.uleb128 0xd
 2350 00e9 00       		.byte	0
 2351 00ea 03       		.uleb128 0x3
 2352 00eb 0E       		.uleb128 0xe
 2353 00ec 3A       		.uleb128 0x3a
 2354 00ed 0B       		.uleb128 0xb
 2355 00ee 3B       		.uleb128 0x3b
 2356 00ef 05       		.uleb128 0x5
 2357 00f0 49       		.uleb128 0x49
 2358 00f1 13       		.uleb128 0x13
 2359 00f2 38       		.uleb128 0x38
 2360 00f3 0A       		.uleb128 0xa
 2361 00f4 00       		.byte	0
 2362 00f5 00       		.byte	0
 2363 00f6 15       		.uleb128 0x15
 2364 00f7 16       		.uleb128 0x16
 2365 00f8 00       		.byte	0
 2366 00f9 03       		.uleb128 0x3
 2367 00fa 0E       		.uleb128 0xe
 2368 00fb 3A       		.uleb128 0x3a
 2369 00fc 0B       		.uleb128 0xb
 2370 00fd 3B       		.uleb128 0x3b
 2371 00fe 05       		.uleb128 0x5
 2372 00ff 49       		.uleb128 0x49
 2373 0100 13       		.uleb128 0x13
 2374 0101 00       		.byte	0
 2375 0102 00       		.byte	0
 2376 0103 16       		.uleb128 0x16
 2377 0104 04       		.uleb128 0x4
 2378 0105 01       		.byte	0x1
 2379 0106 0B       		.uleb128 0xb
 2380 0107 0B       		.uleb128 0xb
 2381 0108 3A       		.uleb128 0x3a
 2382 0109 0B       		.uleb128 0xb
 2383 010a 3B       		.uleb128 0x3b
 2384 010b 0B       		.uleb128 0xb
 2385 010c 01       		.uleb128 0x1
 2386 010d 13       		.uleb128 0x13
 2387 010e 00       		.byte	0
 2388 010f 00       		.byte	0
 2389 0110 17       		.uleb128 0x17
 2390 0111 28       		.uleb128 0x28
ARM GAS  C:\Users\DNIEL~1\AppData\Local\Temp\cce1REmO.s 			page 43


 2391 0112 00       		.byte	0
 2392 0113 03       		.uleb128 0x3
 2393 0114 0E       		.uleb128 0xe
 2394 0115 1C       		.uleb128 0x1c
 2395 0116 0D       		.uleb128 0xd
 2396 0117 00       		.byte	0
 2397 0118 00       		.byte	0
 2398 0119 18       		.uleb128 0x18
 2399 011a 15       		.uleb128 0x15
 2400 011b 01       		.byte	0x1
 2401 011c 27       		.uleb128 0x27
 2402 011d 0C       		.uleb128 0xc
 2403 011e 49       		.uleb128 0x49
 2404 011f 13       		.uleb128 0x13
 2405 0120 01       		.uleb128 0x1
 2406 0121 13       		.uleb128 0x13
 2407 0122 00       		.byte	0
 2408 0123 00       		.byte	0
 2409 0124 19       		.uleb128 0x19
 2410 0125 05       		.uleb128 0x5
 2411 0126 00       		.byte	0
 2412 0127 49       		.uleb128 0x49
 2413 0128 13       		.uleb128 0x13
 2414 0129 00       		.byte	0
 2415 012a 00       		.byte	0
 2416 012b 1A       		.uleb128 0x1a
 2417 012c 2E       		.uleb128 0x2e
 2418 012d 01       		.byte	0x1
 2419 012e 3F       		.uleb128 0x3f
 2420 012f 0C       		.uleb128 0xc
 2421 0130 03       		.uleb128 0x3
 2422 0131 0E       		.uleb128 0xe
 2423 0132 3A       		.uleb128 0x3a
 2424 0133 0B       		.uleb128 0xb
 2425 0134 3B       		.uleb128 0x3b
 2426 0135 0B       		.uleb128 0xb
 2427 0136 27       		.uleb128 0x27
 2428 0137 0C       		.uleb128 0xc
 2429 0138 49       		.uleb128 0x49
 2430 0139 13       		.uleb128 0x13
 2431 013a 11       		.uleb128 0x11
 2432 013b 01       		.uleb128 0x1
 2433 013c 12       		.uleb128 0x12
 2434 013d 01       		.uleb128 0x1
 2435 013e 40       		.uleb128 0x40
 2436 013f 06       		.uleb128 0x6
 2437 0140 9742     		.uleb128 0x2117
 2438 0142 0C       		.uleb128 0xc
 2439 0143 01       		.uleb128 0x1
 2440 0144 13       		.uleb128 0x13
 2441 0145 00       		.byte	0
 2442 0146 00       		.byte	0
 2443 0147 1B       		.uleb128 0x1b
 2444 0148 05       		.uleb128 0x5
 2445 0149 00       		.byte	0
 2446 014a 03       		.uleb128 0x3
 2447 014b 08       		.uleb128 0x8
ARM GAS  C:\Users\DNIEL~1\AppData\Local\Temp\cce1REmO.s 			page 44


 2448 014c 3A       		.uleb128 0x3a
 2449 014d 0B       		.uleb128 0xb
 2450 014e 3B       		.uleb128 0x3b
 2451 014f 0B       		.uleb128 0xb
 2452 0150 49       		.uleb128 0x49
 2453 0151 13       		.uleb128 0x13
 2454 0152 02       		.uleb128 0x2
 2455 0153 06       		.uleb128 0x6
 2456 0154 00       		.byte	0
 2457 0155 00       		.byte	0
 2458 0156 1C       		.uleb128 0x1c
 2459 0157 34       		.uleb128 0x34
 2460 0158 00       		.byte	0
 2461 0159 03       		.uleb128 0x3
 2462 015a 0E       		.uleb128 0xe
 2463 015b 3A       		.uleb128 0x3a
 2464 015c 0B       		.uleb128 0xb
 2465 015d 3B       		.uleb128 0x3b
 2466 015e 0B       		.uleb128 0xb
 2467 015f 49       		.uleb128 0x49
 2468 0160 13       		.uleb128 0x13
 2469 0161 02       		.uleb128 0x2
 2470 0162 06       		.uleb128 0x6
 2471 0163 00       		.byte	0
 2472 0164 00       		.byte	0
 2473 0165 1D       		.uleb128 0x1d
 2474 0166 898201   		.uleb128 0x4109
 2475 0169 00       		.byte	0
 2476 016a 11       		.uleb128 0x11
 2477 016b 01       		.uleb128 0x1
 2478 016c 31       		.uleb128 0x31
 2479 016d 13       		.uleb128 0x13
 2480 016e 00       		.byte	0
 2481 016f 00       		.byte	0
 2482 0170 1E       		.uleb128 0x1e
 2483 0171 05       		.uleb128 0x5
 2484 0172 00       		.byte	0
 2485 0173 03       		.uleb128 0x3
 2486 0174 0E       		.uleb128 0xe
 2487 0175 3A       		.uleb128 0x3a
 2488 0176 0B       		.uleb128 0xb
 2489 0177 3B       		.uleb128 0x3b
 2490 0178 0B       		.uleb128 0xb
 2491 0179 49       		.uleb128 0x49
 2492 017a 13       		.uleb128 0x13
 2493 017b 02       		.uleb128 0x2
 2494 017c 06       		.uleb128 0x6
 2495 017d 00       		.byte	0
 2496 017e 00       		.byte	0
 2497 017f 1F       		.uleb128 0x1f
 2498 0180 898201   		.uleb128 0x4109
 2499 0183 01       		.byte	0x1
 2500 0184 11       		.uleb128 0x11
 2501 0185 01       		.uleb128 0x1
 2502 0186 31       		.uleb128 0x31
 2503 0187 13       		.uleb128 0x13
 2504 0188 00       		.byte	0
ARM GAS  C:\Users\DNIEL~1\AppData\Local\Temp\cce1REmO.s 			page 45


 2505 0189 00       		.byte	0
 2506 018a 20       		.uleb128 0x20
 2507 018b 8A8201   		.uleb128 0x410a
 2508 018e 00       		.byte	0
 2509 018f 02       		.uleb128 0x2
 2510 0190 0A       		.uleb128 0xa
 2511 0191 9142     		.uleb128 0x2111
 2512 0193 0A       		.uleb128 0xa
 2513 0194 00       		.byte	0
 2514 0195 00       		.byte	0
 2515 0196 21       		.uleb128 0x21
 2516 0197 2E       		.uleb128 0x2e
 2517 0198 01       		.byte	0x1
 2518 0199 3F       		.uleb128 0x3f
 2519 019a 0C       		.uleb128 0xc
 2520 019b 03       		.uleb128 0x3
 2521 019c 0E       		.uleb128 0xe
 2522 019d 3A       		.uleb128 0x3a
 2523 019e 0B       		.uleb128 0xb
 2524 019f 3B       		.uleb128 0x3b
 2525 01a0 0B       		.uleb128 0xb
 2526 01a1 27       		.uleb128 0x27
 2527 01a2 0C       		.uleb128 0xc
 2528 01a3 49       		.uleb128 0x49
 2529 01a4 13       		.uleb128 0x13
 2530 01a5 11       		.uleb128 0x11
 2531 01a6 01       		.uleb128 0x1
 2532 01a7 12       		.uleb128 0x12
 2533 01a8 01       		.uleb128 0x1
 2534 01a9 40       		.uleb128 0x40
 2535 01aa 0A       		.uleb128 0xa
 2536 01ab 9742     		.uleb128 0x2117
 2537 01ad 0C       		.uleb128 0xc
 2538 01ae 01       		.uleb128 0x1
 2539 01af 13       		.uleb128 0x13
 2540 01b0 00       		.byte	0
 2541 01b1 00       		.byte	0
 2542 01b2 22       		.uleb128 0x22
 2543 01b3 898201   		.uleb128 0x4109
 2544 01b6 00       		.byte	0
 2545 01b7 11       		.uleb128 0x11
 2546 01b8 01       		.uleb128 0x1
 2547 01b9 9542     		.uleb128 0x2115
 2548 01bb 0C       		.uleb128 0xc
 2549 01bc 31       		.uleb128 0x31
 2550 01bd 13       		.uleb128 0x13
 2551 01be 00       		.byte	0
 2552 01bf 00       		.byte	0
 2553 01c0 23       		.uleb128 0x23
 2554 01c1 34       		.uleb128 0x34
 2555 01c2 00       		.byte	0
 2556 01c3 03       		.uleb128 0x3
 2557 01c4 0E       		.uleb128 0xe
 2558 01c5 3A       		.uleb128 0x3a
 2559 01c6 0B       		.uleb128 0xb
 2560 01c7 3B       		.uleb128 0x3b
 2561 01c8 05       		.uleb128 0x5
ARM GAS  C:\Users\DNIEL~1\AppData\Local\Temp\cce1REmO.s 			page 46


 2562 01c9 49       		.uleb128 0x49
 2563 01ca 13       		.uleb128 0x13
 2564 01cb 3F       		.uleb128 0x3f
 2565 01cc 0C       		.uleb128 0xc
 2566 01cd 3C       		.uleb128 0x3c
 2567 01ce 0C       		.uleb128 0xc
 2568 01cf 00       		.byte	0
 2569 01d0 00       		.byte	0
 2570 01d1 24       		.uleb128 0x24
 2571 01d2 34       		.uleb128 0x34
 2572 01d3 00       		.byte	0
 2573 01d4 03       		.uleb128 0x3
 2574 01d5 0E       		.uleb128 0xe
 2575 01d6 3A       		.uleb128 0x3a
 2576 01d7 0B       		.uleb128 0xb
 2577 01d8 3B       		.uleb128 0x3b
 2578 01d9 0B       		.uleb128 0xb
 2579 01da 49       		.uleb128 0x49
 2580 01db 13       		.uleb128 0x13
 2581 01dc 3F       		.uleb128 0x3f
 2582 01dd 0C       		.uleb128 0xc
 2583 01de 3C       		.uleb128 0x3c
 2584 01df 0C       		.uleb128 0xc
 2585 01e0 00       		.byte	0
 2586 01e1 00       		.byte	0
 2587 01e2 25       		.uleb128 0x25
 2588 01e3 2E       		.uleb128 0x2e
 2589 01e4 01       		.byte	0x1
 2590 01e5 3F       		.uleb128 0x3f
 2591 01e6 0C       		.uleb128 0xc
 2592 01e7 03       		.uleb128 0x3
 2593 01e8 0E       		.uleb128 0xe
 2594 01e9 3A       		.uleb128 0x3a
 2595 01ea 0B       		.uleb128 0xb
 2596 01eb 3B       		.uleb128 0x3b
 2597 01ec 05       		.uleb128 0x5
 2598 01ed 27       		.uleb128 0x27
 2599 01ee 0C       		.uleb128 0xc
 2600 01ef 49       		.uleb128 0x49
 2601 01f0 13       		.uleb128 0x13
 2602 01f1 3C       		.uleb128 0x3c
 2603 01f2 0C       		.uleb128 0xc
 2604 01f3 01       		.uleb128 0x1
 2605 01f4 13       		.uleb128 0x13
 2606 01f5 00       		.byte	0
 2607 01f6 00       		.byte	0
 2608 01f7 26       		.uleb128 0x26
 2609 01f8 2E       		.uleb128 0x2e
 2610 01f9 01       		.byte	0x1
 2611 01fa 3F       		.uleb128 0x3f
 2612 01fb 0C       		.uleb128 0xc
 2613 01fc 03       		.uleb128 0x3
 2614 01fd 0E       		.uleb128 0xe
 2615 01fe 3A       		.uleb128 0x3a
 2616 01ff 0B       		.uleb128 0xb
 2617 0200 3B       		.uleb128 0x3b
 2618 0201 0B       		.uleb128 0xb
ARM GAS  C:\Users\DNIEL~1\AppData\Local\Temp\cce1REmO.s 			page 47


 2619 0202 27       		.uleb128 0x27
 2620 0203 0C       		.uleb128 0xc
 2621 0204 49       		.uleb128 0x49
 2622 0205 13       		.uleb128 0x13
 2623 0206 3C       		.uleb128 0x3c
 2624 0207 0C       		.uleb128 0xc
 2625 0208 01       		.uleb128 0x1
 2626 0209 13       		.uleb128 0x13
 2627 020a 00       		.byte	0
 2628 020b 00       		.byte	0
 2629 020c 00       		.byte	0
 2630              		.section	.debug_loc,"",%progbits
 2631              	.Ldebug_loc0:
 2632              	.LLST0:
 2633 0000 00000000 		.4byte	.LFB118
 2634 0004 02000000 		.4byte	.LCFI0
 2635 0008 0200     		.2byte	0x2
 2636 000a 7D       		.byte	0x7d
 2637 000b 00       		.sleb128 0
 2638 000c 02000000 		.4byte	.LCFI0
 2639 0010 28000000 		.4byte	.LFE118
 2640 0014 0200     		.2byte	0x2
 2641 0016 7D       		.byte	0x7d
 2642 0017 08       		.sleb128 8
 2643 0018 00000000 		.4byte	0
 2644 001c 00000000 		.4byte	0
 2645              	.LLST1:
 2646 0020 00000000 		.4byte	.LVL0
 2647 0024 06000000 		.4byte	.LVL2
 2648 0028 0100     		.2byte	0x1
 2649 002a 50       		.byte	0x50
 2650 002b 06000000 		.4byte	.LVL2
 2651 002f 1E000000 		.4byte	.LVL6
 2652 0033 0400     		.2byte	0x4
 2653 0035 F3       		.byte	0xf3
 2654 0036 01       		.uleb128 0x1
 2655 0037 50       		.byte	0x50
 2656 0038 9F       		.byte	0x9f
 2657 0039 1E000000 		.4byte	.LVL6
 2658 003d 22000000 		.4byte	.LVL7
 2659 0041 0100     		.2byte	0x1
 2660 0043 50       		.byte	0x50
 2661 0044 22000000 		.4byte	.LVL7
 2662 0048 28000000 		.4byte	.LFE118
 2663 004c 0400     		.2byte	0x4
 2664 004e F3       		.byte	0xf3
 2665 004f 01       		.uleb128 0x1
 2666 0050 50       		.byte	0x50
 2667 0051 9F       		.byte	0x9f
 2668 0052 00000000 		.4byte	0
 2669 0056 00000000 		.4byte	0
 2670              	.LLST2:
 2671 005a 04000000 		.4byte	.LVL1
 2672 005e 0E000000 		.4byte	.LVL3
 2673 0062 0200     		.2byte	0x2
 2674 0064 30       		.byte	0x30
 2675 0065 9F       		.byte	0x9f
ARM GAS  C:\Users\DNIEL~1\AppData\Local\Temp\cce1REmO.s 			page 48


 2676 0066 0E000000 		.4byte	.LVL3
 2677 006a 11000000 		.4byte	.LVL4-1
 2678 006e 0A00     		.2byte	0xa
 2679 0070 70       		.byte	0x70
 2680 0071 04       		.sleb128 4
 2681 0072 94       		.byte	0x94
 2682 0073 01       		.byte	0x1
 2683 0074 08       		.byte	0x8
 2684 0075 FF       		.byte	0xff
 2685 0076 1A       		.byte	0x1a
 2686 0077 35       		.byte	0x35
 2687 0078 2E       		.byte	0x2e
 2688 0079 9F       		.byte	0x9f
 2689 007a 00000000 		.4byte	0
 2690 007e 00000000 		.4byte	0
 2691              	.LLST3:
 2692 0082 00000000 		.4byte	.LFB119
 2693 0086 02000000 		.4byte	.LCFI1
 2694 008a 0200     		.2byte	0x2
 2695 008c 7D       		.byte	0x7d
 2696 008d 00       		.sleb128 0
 2697 008e 02000000 		.4byte	.LCFI1
 2698 0092 28000000 		.4byte	.LFE119
 2699 0096 0200     		.2byte	0x2
 2700 0098 7D       		.byte	0x7d
 2701 0099 08       		.sleb128 8
 2702 009a 00000000 		.4byte	0
 2703 009e 00000000 		.4byte	0
 2704              	.LLST4:
 2705 00a2 00000000 		.4byte	.LVL8
 2706 00a6 06000000 		.4byte	.LVL10
 2707 00aa 0100     		.2byte	0x1
 2708 00ac 50       		.byte	0x50
 2709 00ad 06000000 		.4byte	.LVL10
 2710 00b1 1E000000 		.4byte	.LVL14
 2711 00b5 0400     		.2byte	0x4
 2712 00b7 F3       		.byte	0xf3
 2713 00b8 01       		.uleb128 0x1
 2714 00b9 50       		.byte	0x50
 2715 00ba 9F       		.byte	0x9f
 2716 00bb 1E000000 		.4byte	.LVL14
 2717 00bf 22000000 		.4byte	.LVL15
 2718 00c3 0100     		.2byte	0x1
 2719 00c5 50       		.byte	0x50
 2720 00c6 22000000 		.4byte	.LVL15
 2721 00ca 28000000 		.4byte	.LFE119
 2722 00ce 0400     		.2byte	0x4
 2723 00d0 F3       		.byte	0xf3
 2724 00d1 01       		.uleb128 0x1
 2725 00d2 50       		.byte	0x50
 2726 00d3 9F       		.byte	0x9f
 2727 00d4 00000000 		.4byte	0
 2728 00d8 00000000 		.4byte	0
 2729              	.LLST5:
 2730 00dc 04000000 		.4byte	.LVL9
 2731 00e0 0E000000 		.4byte	.LVL11
 2732 00e4 0200     		.2byte	0x2
ARM GAS  C:\Users\DNIEL~1\AppData\Local\Temp\cce1REmO.s 			page 49


 2733 00e6 30       		.byte	0x30
 2734 00e7 9F       		.byte	0x9f
 2735 00e8 0E000000 		.4byte	.LVL11
 2736 00ec 11000000 		.4byte	.LVL12-1
 2737 00f0 0A00     		.2byte	0xa
 2738 00f2 70       		.byte	0x70
 2739 00f3 04       		.sleb128 4
 2740 00f4 94       		.byte	0x94
 2741 00f5 01       		.byte	0x1
 2742 00f6 08       		.byte	0x8
 2743 00f7 FF       		.byte	0xff
 2744 00f8 1A       		.byte	0x1a
 2745 00f9 35       		.byte	0x35
 2746 00fa 2E       		.byte	0x2e
 2747 00fb 9F       		.byte	0x9f
 2748 00fc 00000000 		.4byte	0
 2749 0100 00000000 		.4byte	0
 2750              	.LLST6:
 2751 0104 00000000 		.4byte	.LFB120
 2752 0108 02000000 		.4byte	.LCFI2
 2753 010c 0200     		.2byte	0x2
 2754 010e 7D       		.byte	0x7d
 2755 010f 00       		.sleb128 0
 2756 0110 02000000 		.4byte	.LCFI2
 2757 0114 2C000000 		.4byte	.LFE120
 2758 0118 0200     		.2byte	0x2
 2759 011a 7D       		.byte	0x7d
 2760 011b 08       		.sleb128 8
 2761 011c 00000000 		.4byte	0
 2762 0120 00000000 		.4byte	0
 2763              	.LLST7:
 2764 0124 00000000 		.4byte	.LVL16
 2765 0128 08000000 		.4byte	.LVL17
 2766 012c 0100     		.2byte	0x1
 2767 012e 50       		.byte	0x50
 2768 012f 08000000 		.4byte	.LVL17
 2769 0133 12000000 		.4byte	.LVL19
 2770 0137 0400     		.2byte	0x4
 2771 0139 F3       		.byte	0xf3
 2772 013a 01       		.uleb128 0x1
 2773 013b 50       		.byte	0x50
 2774 013c 9F       		.byte	0x9f
 2775 013d 12000000 		.4byte	.LVL19
 2776 0141 14000000 		.4byte	.LVL20
 2777 0145 0100     		.2byte	0x1
 2778 0147 50       		.byte	0x50
 2779 0148 14000000 		.4byte	.LVL20
 2780 014c 2C000000 		.4byte	.LFE120
 2781 0150 0400     		.2byte	0x4
 2782 0152 F3       		.byte	0xf3
 2783 0153 01       		.uleb128 0x1
 2784 0154 50       		.byte	0x50
 2785 0155 9F       		.byte	0x9f
 2786 0156 00000000 		.4byte	0
 2787 015a 00000000 		.4byte	0
 2788              	.LLST8:
 2789 015e 00000000 		.4byte	.LVL16
ARM GAS  C:\Users\DNIEL~1\AppData\Local\Temp\cce1REmO.s 			page 50


 2790 0162 0A000000 		.4byte	.LVL18
 2791 0166 0100     		.2byte	0x1
 2792 0168 51       		.byte	0x51
 2793 0169 0A000000 		.4byte	.LVL18
 2794 016d 12000000 		.4byte	.LVL19
 2795 0171 0100     		.2byte	0x1
 2796 0173 54       		.byte	0x54
 2797 0174 12000000 		.4byte	.LVL19
 2798 0178 16000000 		.4byte	.LVL21
 2799 017c 0100     		.2byte	0x1
 2800 017e 51       		.byte	0x51
 2801 017f 16000000 		.4byte	.LVL21
 2802 0183 2C000000 		.4byte	.LFE120
 2803 0187 0100     		.2byte	0x1
 2804 0189 54       		.byte	0x54
 2805 018a 00000000 		.4byte	0
 2806 018e 00000000 		.4byte	0
 2807              	.LLST9:
 2808 0192 00000000 		.4byte	.LVL16
 2809 0196 1A000000 		.4byte	.LVL22
 2810 019a 0100     		.2byte	0x1
 2811 019c 52       		.byte	0x52
 2812 019d 1A000000 		.4byte	.LVL22
 2813 01a1 1D000000 		.4byte	.LVL23-1
 2814 01a5 0100     		.2byte	0x1
 2815 01a7 51       		.byte	0x51
 2816 01a8 1D000000 		.4byte	.LVL23-1
 2817 01ac 2C000000 		.4byte	.LFE120
 2818 01b0 0400     		.2byte	0x4
 2819 01b2 F3       		.byte	0xf3
 2820 01b3 01       		.uleb128 0x1
 2821 01b4 52       		.byte	0x52
 2822 01b5 9F       		.byte	0x9f
 2823 01b6 00000000 		.4byte	0
 2824 01ba 00000000 		.4byte	0
 2825              	.LLST10:
 2826 01be 00000000 		.4byte	.LVL16
 2827 01c2 1D000000 		.4byte	.LVL23-1
 2828 01c6 0100     		.2byte	0x1
 2829 01c8 53       		.byte	0x53
 2830 01c9 1D000000 		.4byte	.LVL23-1
 2831 01cd 2C000000 		.4byte	.LFE120
 2832 01d1 0400     		.2byte	0x4
 2833 01d3 F3       		.byte	0xf3
 2834 01d4 01       		.uleb128 0x1
 2835 01d5 53       		.byte	0x53
 2836 01d6 9F       		.byte	0x9f
 2837 01d7 00000000 		.4byte	0
 2838 01db 00000000 		.4byte	0
 2839              	.LLST11:
 2840 01df 00000000 		.4byte	.LFB121
 2841 01e3 02000000 		.4byte	.LCFI3
 2842 01e7 0200     		.2byte	0x2
 2843 01e9 7D       		.byte	0x7d
 2844 01ea 00       		.sleb128 0
 2845 01eb 02000000 		.4byte	.LCFI3
 2846 01ef 2C000000 		.4byte	.LFE121
ARM GAS  C:\Users\DNIEL~1\AppData\Local\Temp\cce1REmO.s 			page 51


 2847 01f3 0200     		.2byte	0x2
 2848 01f5 7D       		.byte	0x7d
 2849 01f6 08       		.sleb128 8
 2850 01f7 00000000 		.4byte	0
 2851 01fb 00000000 		.4byte	0
 2852              	.LLST12:
 2853 01ff 00000000 		.4byte	.LVL24
 2854 0203 08000000 		.4byte	.LVL25
 2855 0207 0100     		.2byte	0x1
 2856 0209 50       		.byte	0x50
 2857 020a 08000000 		.4byte	.LVL25
 2858 020e 12000000 		.4byte	.LVL27
 2859 0212 0400     		.2byte	0x4
 2860 0214 F3       		.byte	0xf3
 2861 0215 01       		.uleb128 0x1
 2862 0216 50       		.byte	0x50
 2863 0217 9F       		.byte	0x9f
 2864 0218 12000000 		.4byte	.LVL27
 2865 021c 14000000 		.4byte	.LVL28
 2866 0220 0100     		.2byte	0x1
 2867 0222 50       		.byte	0x50
 2868 0223 14000000 		.4byte	.LVL28
 2869 0227 2C000000 		.4byte	.LFE121
 2870 022b 0400     		.2byte	0x4
 2871 022d F3       		.byte	0xf3
 2872 022e 01       		.uleb128 0x1
 2873 022f 50       		.byte	0x50
 2874 0230 9F       		.byte	0x9f
 2875 0231 00000000 		.4byte	0
 2876 0235 00000000 		.4byte	0
 2877              	.LLST13:
 2878 0239 00000000 		.4byte	.LVL24
 2879 023d 0A000000 		.4byte	.LVL26
 2880 0241 0100     		.2byte	0x1
 2881 0243 51       		.byte	0x51
 2882 0244 0A000000 		.4byte	.LVL26
 2883 0248 12000000 		.4byte	.LVL27
 2884 024c 0100     		.2byte	0x1
 2885 024e 54       		.byte	0x54
 2886 024f 12000000 		.4byte	.LVL27
 2887 0253 16000000 		.4byte	.LVL29
 2888 0257 0100     		.2byte	0x1
 2889 0259 51       		.byte	0x51
 2890 025a 16000000 		.4byte	.LVL29
 2891 025e 2C000000 		.4byte	.LFE121
 2892 0262 0100     		.2byte	0x1
 2893 0264 54       		.byte	0x54
 2894 0265 00000000 		.4byte	0
 2895 0269 00000000 		.4byte	0
 2896              	.LLST14:
 2897 026d 00000000 		.4byte	.LVL24
 2898 0271 1A000000 		.4byte	.LVL30
 2899 0275 0100     		.2byte	0x1
 2900 0277 52       		.byte	0x52
 2901 0278 1A000000 		.4byte	.LVL30
 2902 027c 1D000000 		.4byte	.LVL31-1
 2903 0280 0100     		.2byte	0x1
ARM GAS  C:\Users\DNIEL~1\AppData\Local\Temp\cce1REmO.s 			page 52


 2904 0282 51       		.byte	0x51
 2905 0283 1D000000 		.4byte	.LVL31-1
 2906 0287 2C000000 		.4byte	.LFE121
 2907 028b 0400     		.2byte	0x4
 2908 028d F3       		.byte	0xf3
 2909 028e 01       		.uleb128 0x1
 2910 028f 52       		.byte	0x52
 2911 0290 9F       		.byte	0x9f
 2912 0291 00000000 		.4byte	0
 2913 0295 00000000 		.4byte	0
 2914              	.LLST15:
 2915 0299 00000000 		.4byte	.LVL24
 2916 029d 1D000000 		.4byte	.LVL31-1
 2917 02a1 0100     		.2byte	0x1
 2918 02a3 53       		.byte	0x53
 2919 02a4 1D000000 		.4byte	.LVL31-1
 2920 02a8 2C000000 		.4byte	.LFE121
 2921 02ac 0400     		.2byte	0x4
 2922 02ae F3       		.byte	0xf3
 2923 02af 01       		.uleb128 0x1
 2924 02b0 53       		.byte	0x53
 2925 02b1 9F       		.byte	0x9f
 2926 02b2 00000000 		.4byte	0
 2927 02b6 00000000 		.4byte	0
 2928              	.LLST16:
 2929 02ba 00000000 		.4byte	.LFB122
 2930 02be 02000000 		.4byte	.LCFI4
 2931 02c2 0200     		.2byte	0x2
 2932 02c4 7D       		.byte	0x7d
 2933 02c5 00       		.sleb128 0
 2934 02c6 02000000 		.4byte	.LCFI4
 2935 02ca 44000000 		.4byte	.LFE122
 2936 02ce 0200     		.2byte	0x2
 2937 02d0 7D       		.byte	0x7d
 2938 02d1 08       		.sleb128 8
 2939 02d2 00000000 		.4byte	0
 2940 02d6 00000000 		.4byte	0
 2941              	.LLST17:
 2942 02da 00000000 		.4byte	.LVL32
 2943 02de 14000000 		.4byte	.LVL33
 2944 02e2 0100     		.2byte	0x1
 2945 02e4 50       		.byte	0x50
 2946 02e5 14000000 		.4byte	.LVL33
 2947 02e9 16000000 		.4byte	.LVL34
 2948 02ed 0400     		.2byte	0x4
 2949 02ef F3       		.byte	0xf3
 2950 02f0 01       		.uleb128 0x1
 2951 02f1 50       		.byte	0x50
 2952 02f2 9F       		.byte	0x9f
 2953 02f3 16000000 		.4byte	.LVL34
 2954 02f7 18000000 		.4byte	.LVL35
 2955 02fb 0100     		.2byte	0x1
 2956 02fd 50       		.byte	0x50
 2957 02fe 18000000 		.4byte	.LVL35
 2958 0302 22000000 		.4byte	.LVL38
 2959 0306 0400     		.2byte	0x4
 2960 0308 F3       		.byte	0xf3
ARM GAS  C:\Users\DNIEL~1\AppData\Local\Temp\cce1REmO.s 			page 53


 2961 0309 01       		.uleb128 0x1
 2962 030a 50       		.byte	0x50
 2963 030b 9F       		.byte	0x9f
 2964 030c 22000000 		.4byte	.LVL38
 2965 0310 28000000 		.4byte	.LVL40
 2966 0314 0100     		.2byte	0x1
 2967 0316 50       		.byte	0x50
 2968 0317 28000000 		.4byte	.LVL40
 2969 031b 2C000000 		.4byte	.LVL41
 2970 031f 0400     		.2byte	0x4
 2971 0321 F3       		.byte	0xf3
 2972 0322 01       		.uleb128 0x1
 2973 0323 50       		.byte	0x50
 2974 0324 9F       		.byte	0x9f
 2975 0325 2C000000 		.4byte	.LVL41
 2976 0329 30000000 		.4byte	.LVL42
 2977 032d 0100     		.2byte	0x1
 2978 032f 50       		.byte	0x50
 2979 0330 30000000 		.4byte	.LVL42
 2980 0334 36000000 		.4byte	.LVL43
 2981 0338 0400     		.2byte	0x4
 2982 033a F3       		.byte	0xf3
 2983 033b 01       		.uleb128 0x1
 2984 033c 50       		.byte	0x50
 2985 033d 9F       		.byte	0x9f
 2986 033e 36000000 		.4byte	.LVL43
 2987 0342 3E000000 		.4byte	.LVL44
 2988 0346 0100     		.2byte	0x1
 2989 0348 50       		.byte	0x50
 2990 0349 3E000000 		.4byte	.LVL44
 2991 034d 44000000 		.4byte	.LFE122
 2992 0351 0400     		.2byte	0x4
 2993 0353 F3       		.byte	0xf3
 2994 0354 01       		.uleb128 0x1
 2995 0355 50       		.byte	0x50
 2996 0356 9F       		.byte	0x9f
 2997 0357 00000000 		.4byte	0
 2998 035b 00000000 		.4byte	0
 2999              	.LLST18:
 3000 035f 00000000 		.4byte	.LVL32
 3001 0363 1A000000 		.4byte	.LVL36
 3002 0367 0100     		.2byte	0x1
 3003 0369 51       		.byte	0x51
 3004 036a 1A000000 		.4byte	.LVL36
 3005 036e 22000000 		.4byte	.LVL38
 3006 0372 0400     		.2byte	0x4
 3007 0374 F3       		.byte	0xf3
 3008 0375 01       		.uleb128 0x1
 3009 0376 51       		.byte	0x51
 3010 0377 9F       		.byte	0x9f
 3011 0378 22000000 		.4byte	.LVL38
 3012 037c 24000000 		.4byte	.LVL39
 3013 0380 0100     		.2byte	0x1
 3014 0382 51       		.byte	0x51
 3015 0383 24000000 		.4byte	.LVL39
 3016 0387 2C000000 		.4byte	.LVL41
 3017 038b 0400     		.2byte	0x4
ARM GAS  C:\Users\DNIEL~1\AppData\Local\Temp\cce1REmO.s 			page 54


 3018 038d F3       		.byte	0xf3
 3019 038e 01       		.uleb128 0x1
 3020 038f 51       		.byte	0x51
 3021 0390 9F       		.byte	0x9f
 3022 0391 2C000000 		.4byte	.LVL41
 3023 0395 44000000 		.4byte	.LFE122
 3024 0399 0100     		.2byte	0x1
 3025 039b 51       		.byte	0x51
 3026 039c 00000000 		.4byte	0
 3027 03a0 00000000 		.4byte	0
 3028              	.LLST19:
 3029 03a4 00000000 		.4byte	.LVL32
 3030 03a8 1A000000 		.4byte	.LVL36
 3031 03ac 0100     		.2byte	0x1
 3032 03ae 52       		.byte	0x52
 3033 03af 1A000000 		.4byte	.LVL36
 3034 03b3 22000000 		.4byte	.LVL38
 3035 03b7 0400     		.2byte	0x4
 3036 03b9 F3       		.byte	0xf3
 3037 03ba 01       		.uleb128 0x1
 3038 03bb 52       		.byte	0x52
 3039 03bc 9F       		.byte	0x9f
 3040 03bd 22000000 		.4byte	.LVL38
 3041 03c1 44000000 		.4byte	.LFE122
 3042 03c5 0100     		.2byte	0x1
 3043 03c7 52       		.byte	0x52
 3044 03c8 00000000 		.4byte	0
 3045 03cc 00000000 		.4byte	0
 3046              		.section	.debug_aranges,"",%progbits
 3047 0000 44000000 		.4byte	0x44
 3048 0004 0200     		.2byte	0x2
 3049 0006 00000000 		.4byte	.Ldebug_info0
 3050 000a 04       		.byte	0x4
 3051 000b 00       		.byte	0
 3052 000c 0000     		.2byte	0
 3053 000e 0000     		.2byte	0
 3054 0010 00000000 		.4byte	.LFB118
 3055 0014 28000000 		.4byte	.LFE118-.LFB118
 3056 0018 00000000 		.4byte	.LFB119
 3057 001c 28000000 		.4byte	.LFE119-.LFB119
 3058 0020 00000000 		.4byte	.LFB120
 3059 0024 2C000000 		.4byte	.LFE120-.LFB120
 3060 0028 00000000 		.4byte	.LFB121
 3061 002c 2C000000 		.4byte	.LFE121-.LFB121
 3062 0030 00000000 		.4byte	.LFB122
 3063 0034 44000000 		.4byte	.LFE122-.LFB122
 3064 0038 00000000 		.4byte	.LFB123
 3065 003c 0C000000 		.4byte	.LFE123-.LFB123
 3066 0040 00000000 		.4byte	0
 3067 0044 00000000 		.4byte	0
 3068              		.section	.debug_ranges,"",%progbits
 3069              	.Ldebug_ranges0:
 3070 0000 00000000 		.4byte	.LFB118
 3071 0004 28000000 		.4byte	.LFE118
 3072 0008 00000000 		.4byte	.LFB119
 3073 000c 28000000 		.4byte	.LFE119
 3074 0010 00000000 		.4byte	.LFB120
ARM GAS  C:\Users\DNIEL~1\AppData\Local\Temp\cce1REmO.s 			page 55


 3075 0014 2C000000 		.4byte	.LFE120
 3076 0018 00000000 		.4byte	.LFB121
 3077 001c 2C000000 		.4byte	.LFE121
 3078 0020 00000000 		.4byte	.LFB122
 3079 0024 44000000 		.4byte	.LFE122
 3080 0028 00000000 		.4byte	.LFB123
 3081 002c 0C000000 		.4byte	.LFE123
 3082 0030 00000000 		.4byte	0
 3083 0034 00000000 		.4byte	0
 3084              		.section	.debug_line,"",%progbits
 3085              	.Ldebug_line0:
 3086 0000 80030000 		.section	.debug_str,"MS",%progbits,1
 3086      0200DA02 
 3086      00000201 
 3086      FB0E0D00 
 3086      01010101 
 3087              	.LASF112:
 3088 0000 426C6F63 		.ascii	"BlockDeviceInfo\000"
 3088      6B446576 
 3088      69636549 
 3088      6E666F00 
 3089              	.LASF152:
 3090 0010 636F756E 		.ascii	"count\000"
 3090      7400
 3091              	.LASF119:
 3092 0016 63617061 		.ascii	"capacity\000"
 3092      63697479 
 3092      00
 3093              	.LASF142:
 3094 001f 5245535F 		.ascii	"RES_WRPRT\000"
 3094      57525052 
 3094      5400
 3095              	.LASF57:
 3096 0029 4D304152 		.ascii	"M0AR\000"
 3096      00
 3097              	.LASF111:
 3098 002e 626C6B5F 		.ascii	"blk_num\000"
 3098      6E756D00 
 3099              	.LASF51:
 3100 0036 7264796D 		.ascii	"rdymsg\000"
 3100      736700
 3101              	.LASF117:
 3102 003d 53444344 		.ascii	"SDCDriver\000"
 3102      72697665 
 3102      7200
 3103              	.LASF159:
 3104 0047 53444344 		.ascii	"SDCD1\000"
 3104      3100
 3105              	.LASF143:
 3106 004d 5245535F 		.ascii	"RES_NOTRDY\000"
 3106      4E4F5452 
 3106      445900
 3107              	.LASF77:
 3108 0058 424B5033 		.ascii	"BKP3R\000"
 3108      5200
 3109              	.LASF95:
 3110 005e 73747265 		.ascii	"stream\000"
ARM GAS  C:\Users\DNIEL~1\AppData\Local\Temp\cce1REmO.s 			page 56


 3110      616D00
 3111              	.LASF60:
 3112 0065 50524552 		.ascii	"PRER\000"
 3112      00
 3113              	.LASF89:
 3114 006a 424B5031 		.ascii	"BKP15R\000"
 3114      355200
 3115              	.LASF41:
 3116 0071 54687265 		.ascii	"ThreadsQueue\000"
 3116      61647351 
 3116      75657565 
 3116      00
 3117              	.LASF52:
 3118 007e 65786974 		.ascii	"exitcode\000"
 3118      636F6465 
 3118      00
 3119              	.LASF99:
 3120 0087 76656374 		.ascii	"vector\000"
 3120      6F7200
 3121              	.LASF121:
 3122 008e 63617264 		.ascii	"cardmode\000"
 3122      6D6F6465 
 3122      00
 3123              	.LASF114:
 3124 0097 69645F72 		.ascii	"id_rtc\000"
 3124      746300
 3125              	.LASF157:
 3126 009e 49544D5F 		.ascii	"ITM_RxBuffer\000"
 3126      52784275 
 3126      66666572 
 3126      00
 3127              	.LASF64:
 3128 00ab 414C524D 		.ascii	"ALRMBR\000"
 3128      425200
 3129              	.LASF109:
 3130 00b2 626C6B73 		.ascii	"blkstate_t\000"
 3130      74617465 
 3130      5F7400
 3131              	.LASF94:
 3132 00bd 5254435F 		.ascii	"RTC_TypeDef\000"
 3132      54797065 
 3132      44656600 
 3133              	.LASF153:
 3134 00c9 6469736B 		.ascii	"disk_write\000"
 3134      5F777269 
 3134      746500
 3135              	.LASF24:
 3136 00d4 705F7072 		.ascii	"p_prio\000"
 3136      696F00
 3137              	.LASF148:
 3138 00db 73746174 		.ascii	"stat\000"
 3138      00
 3139              	.LASF10:
 3140 00e0 6C6F6E67 		.ascii	"long long int\000"
 3140      206C6F6E 
 3140      6720696E 
 3140      7400
ARM GAS  C:\Users\DNIEL~1\AppData\Local\Temp\cce1REmO.s 			page 57


 3141              	.LASF1:
 3142 00ee 7369676E 		.ascii	"signed char\000"
 3142      65642063 
 3142      68617200 
 3143              	.LASF128:
 3144 00fa 69735F69 		.ascii	"is_inserted\000"
 3144      6E736572 
 3144      74656400 
 3145              	.LASF150:
 3146 0106 62756666 		.ascii	"buff\000"
 3146      00
 3147              	.LASF40:
 3148 010b 705F6D70 		.ascii	"p_mpool\000"
 3148      6F6F6C00 
 3149              	.LASF12:
 3150 0113 626F6F6C 		.ascii	"bool_t\000"
 3150      5F7400
 3151              	.LASF48:
 3152 011a 6D5F7175 		.ascii	"m_queue\000"
 3152      65756500 
 3153              	.LASF131:
 3154 0122 64697363 		.ascii	"disconnect\000"
 3154      6F6E6E65 
 3154      637400
 3155              	.LASF68:
 3156 012d 54535353 		.ascii	"TSSSR\000"
 3156      5200
 3157              	.LASF102:
 3158 0133 424C4B5F 		.ascii	"BLK_STOP\000"
 3158      53544F50 
 3158      00
 3159              	.LASF156:
 3160 013c 6765745F 		.ascii	"get_fattime\000"
 3160      66617474 
 3160      696D6500 
 3161              	.LASF101:
 3162 0148 424C4B5F 		.ascii	"BLK_UNINIT\000"
 3162      554E494E 
 3162      495400
 3163              	.LASF118:
 3164 0153 73746174 		.ascii	"state\000"
 3164      6500
 3165              	.LASF7:
 3166 0159 6C6F6E67 		.ascii	"long int\000"
 3166      20696E74 
 3166      00
 3167              	.LASF78:
 3168 0162 424B5034 		.ascii	"BKP4R\000"
 3168      5200
 3169              	.LASF72:
 3170 0168 414C524D 		.ascii	"ALRMBSSR\000"
 3170      42535352 
 3170      00
 3171              	.LASF144:
 3172 0171 5245535F 		.ascii	"RES_PARERR\000"
 3172      50415245 
 3172      525200
ARM GAS  C:\Users\DNIEL~1\AppData\Local\Temp\cce1REmO.s 			page 58


 3173              	.LASF0:
 3174 017c 756E7369 		.ascii	"unsigned int\000"
 3174      676E6564 
 3174      20696E74 
 3174      00
 3175              	.LASF90:
 3176 0189 424B5031 		.ascii	"BKP16R\000"
 3176      365200
 3177              	.LASF11:
 3178 0190 6C6F6E67 		.ascii	"long long unsigned int\000"
 3178      206C6F6E 
 3178      6720756E 
 3178      7369676E 
 3178      65642069 
 3179              	.LASF138:
 3180 01a7 44574F52 		.ascii	"DWORD\000"
 3180      4400
 3181              	.LASF140:
 3182 01ad 5245535F 		.ascii	"RES_OK\000"
 3182      4F4B00
 3183              	.LASF26:
 3184 01b4 705F6E65 		.ascii	"p_newer\000"
 3184      77657200 
 3185              	.LASF127:
 3186 01bc 53444344 		.ascii	"SDCDriverVMT\000"
 3186      72697665 
 3186      72564D54 
 3186      00
 3187              	.LASF135:
 3188 01c9 6765745F 		.ascii	"get_info\000"
 3188      696E666F 
 3188      00
 3189              	.LASF164:
 3190 01d2 72746347 		.ascii	"rtcGetTimeFat\000"
 3190      65745469 
 3190      6D654661 
 3190      7400
 3191              	.LASF14:
 3192 01e0 74737461 		.ascii	"tstate_t\000"
 3192      74655F74 
 3192      00
 3193              	.LASF146:
 3194 01e9 6469736B 		.ascii	"disk_initialize\000"
 3194      5F696E69 
 3194      7469616C 
 3194      697A6500 
 3195              	.LASF125:
 3196 01f9 64756D6D 		.ascii	"dummy\000"
 3196      7900
 3197              	.LASF110:
 3198 01ff 626C6B5F 		.ascii	"blk_size\000"
 3198      73697A65 
 3198      00
 3199              	.LASF136:
 3200 0208 42595445 		.ascii	"BYTE\000"
 3200      00
 3201              	.LASF115:
ARM GAS  C:\Users\DNIEL~1\AppData\Local\Temp\cce1REmO.s 			page 59


 3202 020d 7364636D 		.ascii	"sdcmode_t\000"
 3202      6F64655F 
 3202      7400
 3203              	.LASF71:
 3204 0217 414C524D 		.ascii	"ALRMASSR\000"
 3204      41535352 
 3204      00
 3205              	.LASF30:
 3206 0220 705F666C 		.ascii	"p_flags\000"
 3206      61677300 
 3207              	.LASF67:
 3208 0228 54534452 		.ascii	"TSDR\000"
 3208      00
 3209              	.LASF46:
 3210 022d 73697A65 		.ascii	"sizetype\000"
 3210      74797065 
 3210      00
 3211              	.LASF79:
 3212 0236 424B5035 		.ascii	"BKP5R\000"
 3212      5200
 3213              	.LASF122:
 3214 023c 6572726F 		.ascii	"errors\000"
 3214      727300
 3215              	.LASF91:
 3216 0243 424B5031 		.ascii	"BKP17R\000"
 3216      375200
 3217              	.LASF35:
 3218 024a 705F6D73 		.ascii	"p_msgqueue\000"
 3218      67717565 
 3218      756500
 3219              	.LASF147:
 3220 0255 6469736B 		.ascii	"disk_status\000"
 3220      5F737461 
 3220      74757300 
 3221              	.LASF97:
 3222 0261 69736869 		.ascii	"ishift\000"
 3222      667400
 3223              	.LASF45:
 3224 0268 636F6E74 		.ascii	"context\000"
 3224      65787400 
 3225              	.LASF4:
 3226 0270 73686F72 		.ascii	"short unsigned int\000"
 3226      7420756E 
 3226      7369676E 
 3226      65642069 
 3226      6E7400
 3227              	.LASF103:
 3228 0283 424C4B5F 		.ascii	"BLK_ACTIVE\000"
 3228      41435449 
 3228      564500
 3229              	.LASF70:
 3230 028e 54414643 		.ascii	"TAFCR\000"
 3230      5200
 3231              	.LASF18:
 3232 0294 6D73675F 		.ascii	"msg_t\000"
 3232      7400
 3233              	.LASF104:
ARM GAS  C:\Users\DNIEL~1\AppData\Local\Temp\cce1REmO.s 			page 60


 3234 029a 424C4B5F 		.ascii	"BLK_CONNECTING\000"
 3234      434F4E4E 
 3234      45435449 
 3234      4E4700
 3235              	.LASF84:
 3236 02a9 424B5031 		.ascii	"BKP10R\000"
 3236      305200
 3237              	.LASF13:
 3238 02b0 746D6F64 		.ascii	"tmode_t\000"
 3238      655F7400 
 3239              	.LASF66:
 3240 02b8 54535452 		.ascii	"TSTR\000"
 3240      00
 3241              	.LASF151:
 3242 02bd 73656374 		.ascii	"sector\000"
 3242      6F7200
 3243              	.LASF42:
 3244 02c4 54687265 		.ascii	"ThreadsList\000"
 3244      6164734C 
 3244      69737400 
 3245              	.LASF38:
 3246 02d0 705F6D74 		.ascii	"p_mtxlist\000"
 3246      786C6973 
 3246      7400
 3247              	.LASF19:
 3248 02da 6576656E 		.ascii	"eventmask_t\000"
 3248      746D6173 
 3248      6B5F7400 
 3249              	.LASF47:
 3250 02e6 4D757465 		.ascii	"Mutex\000"
 3250      7800
 3251              	.LASF154:
 3252 02ec 6469736B 		.ascii	"disk_ioctl\000"
 3252      5F696F63 
 3252      746C00
 3253              	.LASF80:
 3254 02f7 424B5036 		.ascii	"BKP6R\000"
 3254      5200
 3255              	.LASF133:
 3256 02fd 77726974 		.ascii	"write\000"
 3256      6500
 3257              	.LASF92:
 3258 0303 424B5031 		.ascii	"BKP18R\000"
 3258      385200
 3259              	.LASF107:
 3260 030a 424C4B5F 		.ascii	"BLK_READING\000"
 3260      52454144 
 3260      494E4700 
 3261              	.LASF69:
 3262 0316 43414C52 		.ascii	"CALR\000"
 3262      00
 3263              	.LASF160:
 3264 031b 7364635F 		.ascii	"sdc_lld_is_write_protected\000"
 3264      6C6C645F 
 3264      69735F77 
 3264      72697465 
 3264      5F70726F 
ARM GAS  C:\Users\DNIEL~1\AppData\Local\Temp\cce1REmO.s 			page 61


 3265              	.LASF137:
 3266 0336 574F5244 		.ascii	"WORD\000"
 3266      00
 3267              	.LASF165:
 3268 033b 474E5520 		.ascii	"GNU C 4.7.4 20140401 (release) [ARM/embedded-4_7-br"
 3268      4320342E 
 3268      372E3420 
 3268      32303134 
 3268      30343031 
 3269 036e 616E6368 		.ascii	"anch revision 209195]\000"
 3269      20726576 
 3269      6973696F 
 3269      6E203230 
 3269      39313935 
 3270              	.LASF163:
 3271 0384 73646345 		.ascii	"sdcErase\000"
 3271      72617365 
 3271      00
 3272              	.LASF162:
 3273 038d 73646357 		.ascii	"sdcWrite\000"
 3273      72697465 
 3273      00
 3274              	.LASF106:
 3275 0396 424C4B5F 		.ascii	"BLK_READY\000"
 3275      52454144 
 3275      5900
 3276              	.LASF85:
 3277 03a0 424B5031 		.ascii	"BKP11R\000"
 3277      315200
 3278              	.LASF161:
 3279 03a7 73646352 		.ascii	"sdcRead\000"
 3279      65616400 
 3280              	.LASF63:
 3281 03af 414C524D 		.ascii	"ALRMAR\000"
 3281      415200
 3282              	.LASF81:
 3283 03b6 424B5037 		.ascii	"BKP7R\000"
 3283      5200
 3284              	.LASF15:
 3285 03bc 74726566 		.ascii	"trefs_t\000"
 3285      735F7400 
 3286              	.LASF93:
 3287 03c4 424B5031 		.ascii	"BKP19R\000"
 3287      395200
 3288              	.LASF23:
 3289 03cb 705F7072 		.ascii	"p_prev\000"
 3289      657600
 3290              	.LASF166:
 3291 03d2 2E2E2F2E 		.ascii	"../../../ChibiOS/os/various/fatfs_bindings/fatfs_di"
 3291      2E2F2E2E 
 3291      2F436869 
 3291      62694F53 
 3291      2F6F732F 
 3292 0405 736B696F 		.ascii	"skio.c\000"
 3292      2E6300
 3293              	.LASF100:
 3294 040c 73746D33 		.ascii	"stm32_dma_stream_t\000"
ARM GAS  C:\Users\DNIEL~1\AppData\Local\Temp\cce1REmO.s 			page 62


 3294      325F646D 
 3294      615F7374 
 3294      7265616D 
 3294      5F7400
 3295              	.LASF17:
 3296 041f 74707269 		.ascii	"tprio_t\000"
 3296      6F5F7400 
 3297              	.LASF123:
 3298 0427 74687265 		.ascii	"thread\000"
 3298      616400
 3299              	.LASF6:
 3300 042e 696E7433 		.ascii	"int32_t\000"
 3300      325F7400 
 3301              	.LASF2:
 3302 0436 756E7369 		.ascii	"unsigned char\000"
 3302      676E6564 
 3302      20636861 
 3302      7200
 3303              	.LASF113:
 3304 0444 52544344 		.ascii	"RTCDriver\000"
 3304      72697665 
 3304      7200
 3305              	.LASF158:
 3306 044e 52544344 		.ascii	"RTCD1\000"
 3306      3100
 3307              	.LASF3:
 3308 0454 73686F72 		.ascii	"short int\000"
 3308      7420696E 
 3308      7400
 3309              	.LASF29:
 3310 045e 705F7374 		.ascii	"p_state\000"
 3310      61746500 
 3311              	.LASF108:
 3312 0466 424C4B5F 		.ascii	"BLK_WRITING\000"
 3312      57524954 
 3312      494E4700 
 3313              	.LASF32:
 3314 0472 705F7072 		.ascii	"p_preempt\000"
 3314      65656D70 
 3314      7400
 3315              	.LASF27:
 3316 047c 705F6F6C 		.ascii	"p_older\000"
 3316      64657200 
 3317              	.LASF74:
 3318 0484 424B5030 		.ascii	"BKP0R\000"
 3318      5200
 3319              	.LASF53:
 3320 048a 77746F62 		.ascii	"wtobjp\000"
 3320      6A7000
 3321              	.LASF54:
 3322 0491 65776D61 		.ascii	"ewmask\000"
 3322      736B00
 3323              	.LASF22:
 3324 0498 705F6E65 		.ascii	"p_next\000"
 3324      787400
 3325              	.LASF86:
 3326 049f 424B5031 		.ascii	"BKP12R\000"
ARM GAS  C:\Users\DNIEL~1\AppData\Local\Temp\cce1REmO.s 			page 63


 3326      325200
 3327              	.LASF21:
 3328 04a6 54687265 		.ascii	"Thread\000"
 3328      616400
 3329              	.LASF130:
 3330 04ad 636F6E6E 		.ascii	"connect\000"
 3330      65637400 
 3331              	.LASF37:
 3332 04b5 705F6570 		.ascii	"p_epending\000"
 3332      656E6469 
 3332      6E6700
 3333              	.LASF96:
 3334 04c0 69666372 		.ascii	"ifcr\000"
 3334      00
 3335              	.LASF82:
 3336 04c5 424B5038 		.ascii	"BKP8R\000"
 3336      5200
 3337              	.LASF62:
 3338 04cb 43414C49 		.ascii	"CALIBR\000"
 3338      425200
 3339              	.LASF43:
 3340 04d2 72656761 		.ascii	"regarm_t\000"
 3340      726D5F74 
 3340      00
 3341              	.LASF61:
 3342 04db 57555452 		.ascii	"WUTR\000"
 3342      00
 3343              	.LASF145:
 3344 04e0 44524553 		.ascii	"DRESULT\000"
 3344      554C5400 
 3345              	.LASF16:
 3346 04e8 74736C69 		.ascii	"tslices_t\000"
 3346      6365735F 
 3346      7400
 3347              	.LASF9:
 3348 04f2 6C6F6E67 		.ascii	"long unsigned int\000"
 3348      20756E73 
 3348      69676E65 
 3348      6420696E 
 3348      7400
 3349              	.LASF55:
 3350 0504 63686172 		.ascii	"char\000"
 3350      00
 3351              	.LASF105:
 3352 0509 424C4B5F 		.ascii	"BLK_DISCONNECTING\000"
 3352      44495343 
 3352      4F4E4E45 
 3352      4354494E 
 3352      4700
 3353              	.LASF120:
 3354 051b 636F6E66 		.ascii	"config\000"
 3354      696700
 3355              	.LASF50:
 3356 0522 6D5F6E65 		.ascii	"m_next\000"
 3356      787400
 3357              	.LASF20:
 3358 0529 73797374 		.ascii	"systime_t\000"
ARM GAS  C:\Users\DNIEL~1\AppData\Local\Temp\cce1REmO.s 			page 64


 3358      696D655F 
 3358      7400
 3359              	.LASF39:
 3360 0533 705F7265 		.ascii	"p_realprio\000"
 3360      616C7072 
 3360      696F00
 3361              	.LASF139:
 3362 053e 44535441 		.ascii	"DSTATUS\000"
 3362      54555300 
 3363              	.LASF56:
 3364 0546 4E445452 		.ascii	"NDTR\000"
 3364      00
 3365              	.LASF75:
 3366 054b 424B5031 		.ascii	"BKP1R\000"
 3366      5200
 3367              	.LASF59:
 3368 0551 444D415F 		.ascii	"DMA_Stream_TypeDef\000"
 3368      53747265 
 3368      616D5F54 
 3368      79706544 
 3368      656600
 3369              	.LASF155:
 3370 0564 6374726C 		.ascii	"ctrl\000"
 3370      00
 3371              	.LASF87:
 3372 0569 424B5031 		.ascii	"BKP13R\000"
 3372      335200
 3373              	.LASF33:
 3374 0570 705F7469 		.ascii	"p_time\000"
 3374      6D6500
 3375              	.LASF116:
 3376 0577 73646366 		.ascii	"sdcflags_t\000"
 3376      6C616773 
 3376      5F7400
 3377              	.LASF65:
 3378 0582 53484946 		.ascii	"SHIFTR\000"
 3378      545200
 3379              	.LASF44:
 3380 0589 696E7463 		.ascii	"intctx\000"
 3380      747800
 3381              	.LASF129:
 3382 0590 69735F70 		.ascii	"is_protected\000"
 3382      726F7465 
 3382      63746564 
 3382      00
 3383              	.LASF58:
 3384 059d 4D314152 		.ascii	"M1AR\000"
 3384      00
 3385              	.LASF98:
 3386 05a2 73656C66 		.ascii	"selfindex\000"
 3386      696E6465 
 3386      7800
 3387              	.LASF8:
 3388 05ac 75696E74 		.ascii	"uint32_t\000"
 3388      33325F74 
 3388      00
 3389              	.LASF83:
ARM GAS  C:\Users\DNIEL~1\AppData\Local\Temp\cce1REmO.s 			page 65


 3390 05b5 424B5039 		.ascii	"BKP9R\000"
 3390      5200
 3391              	.LASF28:
 3392 05bb 705F6E61 		.ascii	"p_name\000"
 3392      6D6500
 3393              	.LASF31:
 3394 05c2 705F7265 		.ascii	"p_refs\000"
 3394      667300
 3395              	.LASF167:
 3396 05c9 433A5C55 		.ascii	"C:\\Users\\D\341niel\\git\\Smarty\\smarty\\firmware"
 3396      73657273 
 3396      5C44E16E 
 3396      69656C5C 
 3396      6769745C 
 3397 05f3 00       		.ascii	"\000"
 3398              	.LASF126:
 3399 05f4 53444343 		.ascii	"SDCConfig\000"
 3399      6F6E6669 
 3399      6700
 3400              	.LASF36:
 3401 05fe 705F6D73 		.ascii	"p_msg\000"
 3401      6700
 3402              	.LASF5:
 3403 0604 75696E74 		.ascii	"uint8_t\000"
 3403      385F7400 
 3404              	.LASF134:
 3405 060c 73796E63 		.ascii	"sync\000"
 3405      00
 3406              	.LASF124:
 3407 0611 646D616D 		.ascii	"dmamode\000"
 3407      6F646500 
 3408              	.LASF132:
 3409 0619 72656164 		.ascii	"read\000"
 3409      00
 3410              	.LASF141:
 3411 061e 5245535F 		.ascii	"RES_ERROR\000"
 3411      4552524F 
 3411      5200
 3412              	.LASF76:
 3413 0628 424B5032 		.ascii	"BKP2R\000"
 3413      5200
 3414              	.LASF88:
 3415 062e 424B5031 		.ascii	"BKP14R\000"
 3415      345200
 3416              	.LASF73:
 3417 0635 52455345 		.ascii	"RESERVED7\000"
 3417      52564544 
 3417      3700
 3418              	.LASF149:
 3419 063f 6469736B 		.ascii	"disk_read\000"
 3419      5F726561 
 3419      6400
 3420              	.LASF49:
 3421 0649 6D5F6F77 		.ascii	"m_owner\000"
 3421      6E657200 
 3422              	.LASF25:
 3423 0651 705F6374 		.ascii	"p_ctx\000"
ARM GAS  C:\Users\DNIEL~1\AppData\Local\Temp\cce1REmO.s 			page 66


 3423      7800
 3424              	.LASF34:
 3425 0657 705F7761 		.ascii	"p_waiting\000"
 3425      6974696E 
 3425      6700
 3426              		.ident	"GCC: (GNU Tools for ARM Embedded Processors) 4.7.4 20140401 (release) [ARM/embedded-4_7-br
ARM GAS  C:\Users\DNIEL~1\AppData\Local\Temp\cce1REmO.s 			page 67


DEFINED SYMBOLS
                            *ABS*:00000000 fatfs_diskio.c
C:\Users\DNIEL~1\AppData\Local\Temp\cce1REmO.s:19     .text.disk_initialize:00000000 $t
C:\Users\DNIEL~1\AppData\Local\Temp\cce1REmO.s:25     .text.disk_initialize:00000000 disk_initialize
C:\Users\DNIEL~1\AppData\Local\Temp\cce1REmO.s:73     .text.disk_initialize:00000024 $d
C:\Users\DNIEL~1\AppData\Local\Temp\cce1REmO.s:78     .text.disk_status:00000000 $t
C:\Users\DNIEL~1\AppData\Local\Temp\cce1REmO.s:84     .text.disk_status:00000000 disk_status
C:\Users\DNIEL~1\AppData\Local\Temp\cce1REmO.s:131    .text.disk_status:00000024 $d
C:\Users\DNIEL~1\AppData\Local\Temp\cce1REmO.s:136    .text.disk_read:00000000 $t
C:\Users\DNIEL~1\AppData\Local\Temp\cce1REmO.s:142    .text.disk_read:00000000 disk_read
C:\Users\DNIEL~1\AppData\Local\Temp\cce1REmO.s:191    .text.disk_read:00000028 $d
C:\Users\DNIEL~1\AppData\Local\Temp\cce1REmO.s:196    .text.disk_write:00000000 $t
C:\Users\DNIEL~1\AppData\Local\Temp\cce1REmO.s:202    .text.disk_write:00000000 disk_write
C:\Users\DNIEL~1\AppData\Local\Temp\cce1REmO.s:251    .text.disk_write:00000028 $d
C:\Users\DNIEL~1\AppData\Local\Temp\cce1REmO.s:256    .text.disk_ioctl:00000000 $t
C:\Users\DNIEL~1\AppData\Local\Temp\cce1REmO.s:262    .text.disk_ioctl:00000000 disk_ioctl
C:\Users\DNIEL~1\AppData\Local\Temp\cce1REmO.s:281    .text.disk_ioctl:0000000c $d
C:\Users\DNIEL~1\AppData\Local\Temp\cce1REmO.s:340    .text.disk_ioctl:00000040 $d
C:\Users\DNIEL~1\AppData\Local\Temp\cce1REmO.s:345    .text.get_fattime:00000000 $t
C:\Users\DNIEL~1\AppData\Local\Temp\cce1REmO.s:351    .text.get_fattime:00000000 get_fattime
                     .debug_frame:00000010 $d
C:\Users\DNIEL~1\AppData\Local\Temp\cce1REmO.s:77     .text.disk_initialize:00000028 $t
C:\Users\DNIEL~1\AppData\Local\Temp\cce1REmO.s:135    .text.disk_status:00000028 $t
C:\Users\DNIEL~1\AppData\Local\Temp\cce1REmO.s:195    .text.disk_read:0000002c $t
C:\Users\DNIEL~1\AppData\Local\Temp\cce1REmO.s:255    .text.disk_write:0000002c $t
C:\Users\DNIEL~1\AppData\Local\Temp\cce1REmO.s:344    .text.disk_ioctl:00000044 $t
C:\Users\DNIEL~1\AppData\Local\Temp\cce1REmO.s:286    .text.disk_ioctl:00000011 $d
C:\Users\DNIEL~1\AppData\Local\Temp\cce1REmO.s:286    .text.disk_ioctl:00000012 $t

UNDEFINED SYMBOLS
sdc_lld_is_write_protected
SDCD1
sdcRead
sdcWrite
sdcErase
RTCD1
rtcGetTimeFat
