ARM GAS  C:\Users\DNIEL~1\AppData\Local\Temp\ccZp6Zm1.s 			page 1


   1              		.syntax unified
   2              		.cpu cortex-m4
   3              		.fpu softvfp
   4              		.eabi_attribute 20, 1
   5              		.eabi_attribute 21, 1
   6              		.eabi_attribute 23, 3
   7              		.eabi_attribute 24, 1
   8              		.eabi_attribute 25, 1
   9              		.eabi_attribute 26, 1
  10              		.eabi_attribute 30, 2
  11              		.eabi_attribute 34, 1
  12              		.eabi_attribute 18, 4
  13              		.thumb
  14              		.file	"fatfs_diskio.c"
  15              		.text
  16              	.Ltext0:
  17              		.cfi_sections	.debug_frame
  18              		.section	.text.disk_initialize,"ax",%progbits
  19              		.align	2
  20              		.p2align 4,,15
  21              		.global	disk_initialize
  22              		.thumb
  23              		.thumb_func
  24              		.type	disk_initialize, %function
  25              	disk_initialize:
  26              	.LFB118:
  27              		.file 1 "../../../ChibiOS/os/various/fatfs_bindings/fatfs_diskio.c"
  28              		.loc 1 44 0
  29              		.cfi_startproc
  30              		@ args = 0, pretend = 0, frame = 0
  31              		@ frame_needed = 0, uses_anonymous_args = 0
  32              	.LVL0:
  33 0000 10B5     		push	{r4, lr}
  34              	.LCFI0:
  35              		.cfi_def_cfa_offset 8
  36              		.cfi_offset 4, -8
  37              		.cfi_offset 14, -4
  38              		.loc 1 47 0
  39 0002 60B9     		cbnz	r0, .L8
  40              	.LVL1:
  41              		.loc 1 61 0
  42 0004 0748     		ldr	r0, .L10
  43              	.LVL2:
  44 0006 0479     		ldrb	r4, [r0, #4]	@ zero_extendqisi2
  45              		.loc 1 59 0
  46 0008 053C     		subs	r4, r4, #5
  47 000a 18BF     		it	ne
  48 000c 0124     		movne	r4, #1
  49              	.LVL3:
  50              		.loc 1 63 0
  51 000e FFF7FEFF 		bl	sdc_lld_is_write_protected
  52              	.LVL4:
  53 0012 10B1     		cbz	r0, .L2
  54              		.loc 1 64 0
  55 0014 44F00400 		orr	r0, r4, #4
  56 0018 C4B2     		uxtb	r4, r0
  57              	.LVL5:
ARM GAS  C:\Users\DNIEL~1\AppData\Local\Temp\ccZp6Zm1.s 			page 2


  58              	.L2:
  59              		.loc 1 69 0
  60 001a 2046     		mov	r0, r4
  61 001c 10BD     		pop	{r4, pc}
  62              	.LVL6:
  63              	.L8:
  64              		.loc 1 68 0
  65 001e 0224     		movs	r4, #2
  66              		.loc 1 69 0
  67 0020 2046     		mov	r0, r4
  68              	.LVL7:
  69 0022 10BD     		pop	{r4, pc}
  70              	.L11:
  71              		.align	2
  72              	.L10:
  73 0024 00000000 		.word	SDCD1
  74              		.cfi_endproc
  75              	.LFE118:
  76              		.size	disk_initialize, .-disk_initialize
  77 0028 AFF30080 		.section	.text.disk_status,"ax",%progbits
  77      AFF30080 
  78              		.align	2
  79              		.p2align 4,,15
  80              		.global	disk_status
  81              		.thumb
  82              		.thumb_func
  83              		.type	disk_status, %function
  84              	disk_status:
  85              	.LFB119:
  86              		.loc 1 79 0
  87              		.cfi_startproc
  88              		@ args = 0, pretend = 0, frame = 0
  89              		@ frame_needed = 0, uses_anonymous_args = 0
  90              	.LVL8:
  91 0000 10B5     		push	{r4, lr}
  92              	.LCFI1:
  93              		.cfi_def_cfa_offset 8
  94              		.cfi_offset 4, -8
  95              		.cfi_offset 14, -4
  96              		.loc 1 82 0
  97 0002 60B9     		cbnz	r0, .L19
  98              	.LVL9:
  99              		.loc 1 96 0
 100 0004 0748     		ldr	r0, .L20
 101              	.LVL10:
 102 0006 0479     		ldrb	r4, [r0, #4]	@ zero_extendqisi2
 103              		.loc 1 94 0
 104 0008 053C     		subs	r4, r4, #5
 105 000a 18BF     		it	ne
 106 000c 0124     		movne	r4, #1
 107              	.LVL11:
 108              		.loc 1 98 0
 109 000e FFF7FEFF 		bl	sdc_lld_is_write_protected
 110              	.LVL12:
 111 0012 10B1     		cbz	r0, .L13
 112              		.loc 1 99 0
 113 0014 44F00400 		orr	r0, r4, #4
ARM GAS  C:\Users\DNIEL~1\AppData\Local\Temp\ccZp6Zm1.s 			page 3


 114 0018 C4B2     		uxtb	r4, r0
 115              	.LVL13:
 116              	.L13:
 117              		.loc 1 104 0
 118 001a 2046     		mov	r0, r4
 119 001c 10BD     		pop	{r4, pc}
 120              	.LVL14:
 121              	.L19:
 122              		.loc 1 103 0
 123 001e 0224     		movs	r4, #2
 124              		.loc 1 104 0
 125 0020 2046     		mov	r0, r4
 126              	.LVL15:
 127 0022 10BD     		pop	{r4, pc}
 128              	.L21:
 129              		.align	2
 130              	.L20:
 131 0024 00000000 		.word	SDCD1
 132              		.cfi_endproc
 133              	.LFE119:
 134              		.size	disk_status, .-disk_status
 135 0028 AFF30080 		.section	.text.disk_read,"ax",%progbits
 135      AFF30080 
 136              		.align	2
 137              		.p2align 4,,15
 138              		.global	disk_read
 139              		.thumb
 140              		.thumb_func
 141              		.type	disk_read, %function
 142              	disk_read:
 143              	.LFB120:
 144              		.loc 1 117 0
 145              		.cfi_startproc
 146              		@ args = 0, pretend = 0, frame = 0
 147              		@ frame_needed = 0, uses_anonymous_args = 0
 148              		@ link register save eliminated.
 149              	.LVL16:
 150 0000 10B4     		push	{r4}
 151              	.LCFI2:
 152              		.cfi_def_cfa_offset 4
 153              		.cfi_offset 4, -4
 154              		.loc 1 117 0
 155 0002 0C46     		mov	r4, r1
 156              		.loc 1 118 0
 157 0004 28B9     		cbnz	r0, .L27
 158              		.loc 1 136 0
 159 0006 0748     		ldr	r0, .L29
 160              	.LVL17:
 161 0008 0179     		ldrb	r1, [r0, #4]	@ zero_extendqisi2
 162              	.LVL18:
 163 000a 0529     		cmp	r1, #5
 164 000c 04D0     		beq	.L28
 165              		.loc 1 137 0
 166 000e 0320     		movs	r0, #3
 167 0010 00E0     		b	.L23
 168              	.LVL19:
 169              	.L27:
ARM GAS  C:\Users\DNIEL~1\AppData\Local\Temp\ccZp6Zm1.s 			page 4


 170              		.loc 1 143 0
 171 0012 0420     		movs	r0, #4
 172              	.LVL20:
 173              	.L23:
 174              		.loc 1 144 0
 175 0014 10BC     		pop	{r4}
 176 0016 7047     		bx	lr
 177              	.L28:
 178              		.loc 1 138 0
 179 0018 1146     		mov	r1, r2
 180 001a 2246     		mov	r2, r4
 181              	.LVL21:
 182              		.loc 1 144 0
 183 001c 10BC     		pop	{r4}
 184              		.loc 1 138 0
 185 001e FFF7FEBF 		b	sdcRead
 186              	.LVL22:
 187              	.L30:
 188 0022 00BF     		.align	2
 189              	.L29:
 190 0024 00000000 		.word	SDCD1
 191              		.cfi_endproc
 192              	.LFE120:
 193              		.size	disk_read, .-disk_read
 194 0028 AFF30080 		.section	.text.disk_write,"ax",%progbits
 194      AFF30080 
 195              		.align	2
 196              		.p2align 4,,15
 197              		.global	disk_write
 198              		.thumb
 199              		.thumb_func
 200              		.type	disk_write, %function
 201              	disk_write:
 202              	.LFB121:
 203              		.loc 1 158 0
 204              		.cfi_startproc
 205              		@ args = 0, pretend = 0, frame = 0
 206              		@ frame_needed = 0, uses_anonymous_args = 0
 207              		@ link register save eliminated.
 208              	.LVL23:
 209 0000 10B4     		push	{r4}
 210              	.LCFI3:
 211              		.cfi_def_cfa_offset 4
 212              		.cfi_offset 4, -4
 213              		.loc 1 158 0
 214 0002 0C46     		mov	r4, r1
 215              		.loc 1 159 0
 216 0004 28B9     		cbnz	r0, .L36
 217              		.loc 1 179 0
 218 0006 0748     		ldr	r0, .L38
 219              	.LVL24:
 220 0008 0179     		ldrb	r1, [r0, #4]	@ zero_extendqisi2
 221              	.LVL25:
 222 000a 0529     		cmp	r1, #5
 223 000c 04D0     		beq	.L37
 224              		.loc 1 180 0
 225 000e 0320     		movs	r0, #3
ARM GAS  C:\Users\DNIEL~1\AppData\Local\Temp\ccZp6Zm1.s 			page 5


 226 0010 00E0     		b	.L32
 227              	.LVL26:
 228              	.L36:
 229              		.loc 1 186 0
 230 0012 0420     		movs	r0, #4
 231              	.LVL27:
 232              	.L32:
 233              		.loc 1 187 0
 234 0014 10BC     		pop	{r4}
 235 0016 7047     		bx	lr
 236              	.L37:
 237              		.loc 1 181 0
 238 0018 1146     		mov	r1, r2
 239 001a 2246     		mov	r2, r4
 240              	.LVL28:
 241              		.loc 1 187 0
 242 001c 10BC     		pop	{r4}
 243              		.loc 1 181 0
 244 001e FFF7FEBF 		b	sdcWrite
 245              	.LVL29:
 246              	.L39:
 247 0022 00BF     		.align	2
 248              	.L38:
 249 0024 00000000 		.word	SDCD1
 250              		.cfi_endproc
 251              	.LFE121:
 252              		.size	disk_write, .-disk_write
 253 0028 AFF30080 		.section	.text.disk_ioctl,"ax",%progbits
 253      AFF30080 
 254              		.align	2
 255              		.p2align 4,,15
 256              		.global	disk_ioctl
 257              		.thumb
 258              		.thumb_func
 259              		.type	disk_ioctl, %function
 260              	disk_ioctl:
 261              	.LFB122:
 262              		.loc 1 200 0
 263              		.cfi_startproc
 264              		@ args = 0, pretend = 0, frame = 0
 265              		@ frame_needed = 0, uses_anonymous_args = 0
 266              	.LVL30:
 267 0000 08B5     		push	{r3, lr}
 268              	.LCFI4:
 269              		.cfi_def_cfa_offset 8
 270              		.cfi_offset 3, -8
 271              		.cfi_offset 14, -4
 272              		.loc 1 201 0
 273 0002 30B9     		cbnz	r0, .L50
 274              		.loc 1 220 0
 275 0004 0429     		cmp	r1, #4
 276 0006 04D8     		bhi	.L50
 277 0008 DFE801F0 		tbb	[pc, r1]
 278              	.L48:
 279 000c 09       		.byte	(.L52-.L48)/2
 280 000d 0B       		.byte	(.L44-.L48)/2
 281 000e 10       		.byte	(.L45-.L48)/2
ARM GAS  C:\Users\DNIEL~1\AppData\Local\Temp\ccZp6Zm1.s 			page 6


 282 000f 15       		.byte	(.L46-.L48)/2
 283 0010 05       		.byte	(.L47-.L48)/2
 284 0011 00       		.align	1
 285              	.L50:
 286              		.loc 1 238 0
 287 0012 0420     		movs	r0, #4
 288              	.LVL31:
 289              		.loc 1 243 0
 290 0014 08BD     		pop	{r3, pc}
 291              	.LVL32:
 292              	.L47:
 293              		.loc 1 234 0
 294 0016 0A48     		ldr	r0, .L53
 295              	.LVL33:
 296 0018 06CA     		ldmia	r2, {r1, r2}
 297              	.LVL34:
 298 001a FFF7FEFF 		bl	sdcErase
 299              	.LVL35:
 300              	.L52:
 301              		.loc 1 235 0
 302 001e 0020     		movs	r0, #0
 303 0020 08BD     		pop	{r3, pc}
 304              	.LVL36:
 305              	.L44:
 306              		.loc 1 224 0
 307 0022 0749     		ldr	r1, .L53
 308              	.LVL37:
 309 0024 8B6A     		ldr	r3, [r1, #40]
 310              		.loc 1 225 0
 311 0026 0020     		movs	r0, #0
 312              	.LVL38:
 313              		.loc 1 224 0
 314 0028 1360     		str	r3, [r2, #0]
 315              		.loc 1 225 0
 316 002a 08BD     		pop	{r3, pc}
 317              	.LVL39:
 318              	.L45:
 319              		.loc 1 227 0
 320 002c 4FF40070 		mov	r0, #512
 321              	.LVL40:
 322 0030 1080     		strh	r0, [r2, #0]	@ movhi
 323              		.loc 1 228 0
 324 0032 0020     		movs	r0, #0
 325 0034 08BD     		pop	{r3, pc}
 326              	.LVL41:
 327              	.L46:
 328              		.loc 1 230 0
 329 0036 4FF48073 		mov	r3, #256
 330 003a 1360     		str	r3, [r2, #0]
 331              		.loc 1 231 0
 332 003c 0020     		movs	r0, #0
 333              	.LVL42:
 334 003e 08BD     		pop	{r3, pc}
 335              	.L54:
 336              		.align	2
 337              	.L53:
 338 0040 00000000 		.word	SDCD1
ARM GAS  C:\Users\DNIEL~1\AppData\Local\Temp\ccZp6Zm1.s 			page 7


 339              		.cfi_endproc
 340              	.LFE122:
 341              		.size	disk_ioctl, .-disk_ioctl
 342 0044 AFF30080 		.section	.text.get_fattime,"ax",%progbits
 342      AFF30080 
 342      AFF30080 
 343              		.align	2
 344              		.p2align 4,,15
 345              		.global	get_fattime
 346              		.thumb
 347              		.thumb_func
 348              		.type	get_fattime, %function
 349              	get_fattime:
 350              	.LFB123:
 351              		.loc 1 245 0
 352              		.cfi_startproc
 353              		@ args = 0, pretend = 0, frame = 0
 354              		@ frame_needed = 0, uses_anonymous_args = 0
 355              		@ link register save eliminated.
 356              		.loc 1 247 0
 357 0000 40F20000 		movw	r0, #:lower16:RTCD1
 358 0004 C0F20000 		movt	r0, #:upper16:RTCD1
 359              		.loc 1 251 0
 360              		.loc 1 247 0
 361 0008 FFF7FEBF 		b	rtcGetTimeFat
 362              	.LVL43:
 363              		.cfi_endproc
 364              	.LFE123:
 365              		.size	get_fattime, .-get_fattime
 366 000c AFF30080 		.text
 367              	.Letext0:
 368              		.file 2 "c:\\chibistudio\\tools\\gnu tools arm embedded\\4.7 2014q2\\bin\\../lib/gcc/arm-none-eabi
 369              		.file 3 "../../../ChibiOS/os/ports/GCC/ARMCMx/chtypes.h"
 370              		.file 4 "../../../ChibiOS/os/kernel/include/chlists.h"
 371              		.file 5 "../../../ChibiOS/os/kernel/include/chthreads.h"
 372              		.file 6 "../../../ChibiOS/os/ports/GCC/ARMCMx/chcore_v7m.h"
 373              		.file 7 "../../../ChibiOS/os/kernel/include/chmtx.h"
 374              		.file 8 "../../../ChibiOS/os/hal/platforms/STM32F4xx/stm32f4xx.h"
 375              		.file 9 "../../../ChibiOS/os/hal/platforms/STM32F4xx/stm32_dma.h"
 376              		.file 10 "../../../ChibiOS/os/hal/include/io_block.h"
 377              		.file 11 "../../../ChibiOS/os/hal/include/rtc.h"
 378              		.file 12 "../../../ChibiOS/os/hal/platforms/STM32/RTCv2/rtc_lld.h"
 379              		.file 13 "../../../ChibiOS/os/hal/platforms/STM32/sdc_lld.h"
 380              		.file 14 "../../../ChibiOS/ext/fatfs/src/integer.h"
 381              		.file 15 "../../../ChibiOS/ext/fatfs/src/diskio.h"
 382              		.file 16 "../../../ChibiOS/os/ports/common/ARMCMx/CMSIS/include/core_cm4.h"
 383              		.file 17 "../../../ChibiOS/os/hal/include/sdc.h"
 384              		.section	.debug_info,"",%progbits
 385              	.Ldebug_info0:
 386 0000 430D0000 		.4byte	0xd43
 387 0004 0200     		.2byte	0x2
 388 0006 00000000 		.4byte	.Ldebug_abbrev0
 389 000a 04       		.byte	0x4
 390 000b 01       		.uleb128 0x1
 391 000c 3B030000 		.4byte	.LASF167
 392 0010 01       		.byte	0x1
 393 0011 D2030000 		.4byte	.LASF168
ARM GAS  C:\Users\DNIEL~1\AppData\Local\Temp\ccZp6Zm1.s 			page 8


 394 0015 DB050000 		.4byte	.LASF169
 395 0019 00000000 		.4byte	.Ldebug_ranges0+0
 396 001d 00000000 		.4byte	0
 397 0021 00000000 		.4byte	0
 398 0025 00000000 		.4byte	.Ldebug_line0
 399 0029 02       		.uleb128 0x2
 400 002a 04       		.byte	0x4
 401 002b 05       		.byte	0x5
 402 002c 696E7400 		.ascii	"int\000"
 403 0030 03       		.uleb128 0x3
 404 0031 04       		.byte	0x4
 405 0032 07       		.byte	0x7
 406 0033 7C010000 		.4byte	.LASF0
 407 0037 03       		.uleb128 0x3
 408 0038 01       		.byte	0x1
 409 0039 06       		.byte	0x6
 410 003a EE000000 		.4byte	.LASF1
 411 003e 04       		.uleb128 0x4
 412 003f 16060000 		.4byte	.LASF5
 413 0043 02       		.byte	0x2
 414 0044 2A       		.byte	0x2a
 415 0045 49000000 		.4byte	0x49
 416 0049 03       		.uleb128 0x3
 417 004a 01       		.byte	0x1
 418 004b 08       		.byte	0x8
 419 004c 3C040000 		.4byte	.LASF2
 420 0050 03       		.uleb128 0x3
 421 0051 02       		.byte	0x2
 422 0052 05       		.byte	0x5
 423 0053 5A040000 		.4byte	.LASF3
 424 0057 03       		.uleb128 0x3
 425 0058 02       		.byte	0x2
 426 0059 07       		.byte	0x7
 427 005a 70020000 		.4byte	.LASF4
 428 005e 04       		.uleb128 0x4
 429 005f 34040000 		.4byte	.LASF6
 430 0063 02       		.byte	0x2
 431 0064 4F       		.byte	0x4f
 432 0065 69000000 		.4byte	0x69
 433 0069 03       		.uleb128 0x3
 434 006a 04       		.byte	0x4
 435 006b 05       		.byte	0x5
 436 006c 59010000 		.4byte	.LASF7
 437 0070 04       		.uleb128 0x4
 438 0071 B2050000 		.4byte	.LASF8
 439 0075 02       		.byte	0x2
 440 0076 50       		.byte	0x50
 441 0077 7B000000 		.4byte	0x7b
 442 007b 03       		.uleb128 0x3
 443 007c 04       		.byte	0x4
 444 007d 07       		.byte	0x7
 445 007e F8040000 		.4byte	.LASF9
 446 0082 03       		.uleb128 0x3
 447 0083 08       		.byte	0x8
 448 0084 05       		.byte	0x5
 449 0085 E0000000 		.4byte	.LASF10
 450 0089 03       		.uleb128 0x3
ARM GAS  C:\Users\DNIEL~1\AppData\Local\Temp\ccZp6Zm1.s 			page 9


 451 008a 08       		.byte	0x8
 452 008b 07       		.byte	0x7
 453 008c 90010000 		.4byte	.LASF11
 454 0090 04       		.uleb128 0x4
 455 0091 13010000 		.4byte	.LASF12
 456 0095 03       		.byte	0x3
 457 0096 2B       		.byte	0x2b
 458 0097 9B000000 		.4byte	0x9b
 459 009b 03       		.uleb128 0x3
 460 009c 01       		.byte	0x1
 461 009d 02       		.byte	0x2
 462 009e 2E040000 		.4byte	.LASF13
 463 00a2 04       		.uleb128 0x4
 464 00a3 B0020000 		.4byte	.LASF14
 465 00a7 03       		.byte	0x3
 466 00a8 2C       		.byte	0x2c
 467 00a9 3E000000 		.4byte	0x3e
 468 00ad 04       		.uleb128 0x4
 469 00ae E0010000 		.4byte	.LASF15
 470 00b2 03       		.byte	0x3
 471 00b3 2D       		.byte	0x2d
 472 00b4 3E000000 		.4byte	0x3e
 473 00b8 04       		.uleb128 0x4
 474 00b9 BC030000 		.4byte	.LASF16
 475 00bd 03       		.byte	0x3
 476 00be 2E       		.byte	0x2e
 477 00bf 3E000000 		.4byte	0x3e
 478 00c3 04       		.uleb128 0x4
 479 00c4 EE040000 		.4byte	.LASF17
 480 00c8 03       		.byte	0x3
 481 00c9 2F       		.byte	0x2f
 482 00ca 3E000000 		.4byte	0x3e
 483 00ce 04       		.uleb128 0x4
 484 00cf 1F040000 		.4byte	.LASF18
 485 00d3 03       		.byte	0x3
 486 00d4 30       		.byte	0x30
 487 00d5 70000000 		.4byte	0x70
 488 00d9 04       		.uleb128 0x4
 489 00da 94020000 		.4byte	.LASF19
 490 00de 03       		.byte	0x3
 491 00df 31       		.byte	0x31
 492 00e0 5E000000 		.4byte	0x5e
 493 00e4 04       		.uleb128 0x4
 494 00e5 DA020000 		.4byte	.LASF20
 495 00e9 03       		.byte	0x3
 496 00ea 33       		.byte	0x33
 497 00eb 70000000 		.4byte	0x70
 498 00ef 04       		.uleb128 0x4
 499 00f0 2F050000 		.4byte	.LASF21
 500 00f4 03       		.byte	0x3
 501 00f5 35       		.byte	0x35
 502 00f6 70000000 		.4byte	0x70
 503 00fa 04       		.uleb128 0x4
 504 00fb AC040000 		.4byte	.LASF22
 505 00ff 04       		.byte	0x4
 506 0100 2A       		.byte	0x2a
 507 0101 05010000 		.4byte	0x105
ARM GAS  C:\Users\DNIEL~1\AppData\Local\Temp\ccZp6Zm1.s 			page 10


 508 0105 05       		.uleb128 0x5
 509 0106 AC040000 		.4byte	.LASF22
 510 010a 48       		.byte	0x48
 511 010b 05       		.byte	0x5
 512 010c 5E       		.byte	0x5e
 513 010d 2A020000 		.4byte	0x22a
 514 0111 06       		.uleb128 0x6
 515 0112 9E040000 		.4byte	.LASF23
 516 0116 05       		.byte	0x5
 517 0117 5F       		.byte	0x5f
 518 0118 4F020000 		.4byte	0x24f
 519 011c 02       		.byte	0x2
 520 011d 23       		.byte	0x23
 521 011e 00       		.uleb128 0
 522 011f 06       		.uleb128 0x6
 523 0120 CB030000 		.4byte	.LASF24
 524 0124 05       		.byte	0x5
 525 0125 61       		.byte	0x61
 526 0126 4F020000 		.4byte	0x24f
 527 012a 02       		.byte	0x2
 528 012b 23       		.byte	0x23
 529 012c 04       		.uleb128 0x4
 530 012d 06       		.uleb128 0x6
 531 012e D4000000 		.4byte	.LASF25
 532 0132 05       		.byte	0x5
 533 0133 63       		.byte	0x63
 534 0134 CE000000 		.4byte	0xce
 535 0138 02       		.byte	0x2
 536 0139 23       		.byte	0x23
 537 013a 08       		.uleb128 0x8
 538 013b 06       		.uleb128 0x6
 539 013c 63060000 		.4byte	.LASF26
 540 0140 05       		.byte	0x5
 541 0141 64       		.byte	0x64
 542 0142 1D030000 		.4byte	0x31d
 543 0146 02       		.byte	0x2
 544 0147 23       		.byte	0x23
 545 0148 0C       		.uleb128 0xc
 546 0149 06       		.uleb128 0x6
 547 014a B4010000 		.4byte	.LASF27
 548 014e 05       		.byte	0x5
 549 014f 66       		.byte	0x66
 550 0150 4F020000 		.4byte	0x24f
 551 0154 02       		.byte	0x2
 552 0155 23       		.byte	0x23
 553 0156 10       		.uleb128 0x10
 554 0157 06       		.uleb128 0x6
 555 0158 82040000 		.4byte	.LASF28
 556 015c 05       		.byte	0x5
 557 015d 67       		.byte	0x67
 558 015e 4F020000 		.4byte	0x24f
 559 0162 02       		.byte	0x2
 560 0163 23       		.byte	0x23
 561 0164 14       		.uleb128 0x14
 562 0165 06       		.uleb128 0x6
 563 0166 C1050000 		.4byte	.LASF29
 564 016a 05       		.byte	0x5
ARM GAS  C:\Users\DNIEL~1\AppData\Local\Temp\ccZp6Zm1.s 			page 11


 565 016b 6E       		.byte	0x6e
 566 016c CE030000 		.4byte	0x3ce
 567 0170 02       		.byte	0x2
 568 0171 23       		.byte	0x23
 569 0172 18       		.uleb128 0x18
 570 0173 06       		.uleb128 0x6
 571 0174 64040000 		.4byte	.LASF30
 572 0178 05       		.byte	0x5
 573 0179 79       		.byte	0x79
 574 017a AD000000 		.4byte	0xad
 575 017e 02       		.byte	0x2
 576 017f 23       		.byte	0x23
 577 0180 1C       		.uleb128 0x1c
 578 0181 06       		.uleb128 0x6
 579 0182 20020000 		.4byte	.LASF31
 580 0186 05       		.byte	0x5
 581 0187 7D       		.byte	0x7d
 582 0188 A2000000 		.4byte	0xa2
 583 018c 02       		.byte	0x2
 584 018d 23       		.byte	0x23
 585 018e 1D       		.uleb128 0x1d
 586 018f 06       		.uleb128 0x6
 587 0190 C8050000 		.4byte	.LASF32
 588 0194 05       		.byte	0x5
 589 0195 82       		.byte	0x82
 590 0196 B8000000 		.4byte	0xb8
 591 019a 02       		.byte	0x2
 592 019b 23       		.byte	0x23
 593 019c 1E       		.uleb128 0x1e
 594 019d 06       		.uleb128 0x6
 595 019e 78040000 		.4byte	.LASF33
 596 01a2 05       		.byte	0x5
 597 01a3 88       		.byte	0x88
 598 01a4 C3000000 		.4byte	0xc3
 599 01a8 02       		.byte	0x2
 600 01a9 23       		.byte	0x23
 601 01aa 1F       		.uleb128 0x1f
 602 01ab 06       		.uleb128 0x6
 603 01ac 76050000 		.4byte	.LASF34
 604 01b0 05       		.byte	0x5
 605 01b1 8F       		.byte	0x8f
 606 01b2 4C030000 		.4byte	0x34c
 607 01b6 02       		.byte	0x2
 608 01b7 23       		.byte	0x23
 609 01b8 20       		.uleb128 0x20
 610 01b9 07       		.uleb128 0x7
 611 01ba 705F7500 		.ascii	"p_u\000"
 612 01be 05       		.byte	0x5
 613 01bf B4       		.byte	0xb4
 614 01c0 99030000 		.4byte	0x399
 615 01c4 02       		.byte	0x2
 616 01c5 23       		.byte	0x23
 617 01c6 24       		.uleb128 0x24
 618 01c7 06       		.uleb128 0x6
 619 01c8 69060000 		.4byte	.LASF35
 620 01cc 05       		.byte	0x5
 621 01cd B9       		.byte	0xb9
ARM GAS  C:\Users\DNIEL~1\AppData\Local\Temp\ccZp6Zm1.s 			page 12


 622 01ce 77020000 		.4byte	0x277
 623 01d2 02       		.byte	0x2
 624 01d3 23       		.byte	0x23
 625 01d4 28       		.uleb128 0x28
 626 01d5 06       		.uleb128 0x6
 627 01d6 4A020000 		.4byte	.LASF36
 628 01da 05       		.byte	0x5
 629 01db BF       		.byte	0xbf
 630 01dc 55020000 		.4byte	0x255
 631 01e0 02       		.byte	0x2
 632 01e1 23       		.byte	0x23
 633 01e2 2C       		.uleb128 0x2c
 634 01e3 06       		.uleb128 0x6
 635 01e4 10060000 		.4byte	.LASF37
 636 01e8 05       		.byte	0x5
 637 01e9 C3       		.byte	0xc3
 638 01ea D9000000 		.4byte	0xd9
 639 01ee 02       		.byte	0x2
 640 01ef 23       		.byte	0x23
 641 01f0 34       		.uleb128 0x34
 642 01f1 06       		.uleb128 0x6
 643 01f2 BB040000 		.4byte	.LASF38
 644 01f6 05       		.byte	0x5
 645 01f7 C9       		.byte	0xc9
 646 01f8 E4000000 		.4byte	0xe4
 647 01fc 02       		.byte	0x2
 648 01fd 23       		.byte	0x23
 649 01fe 38       		.uleb128 0x38
 650 01ff 06       		.uleb128 0x6
 651 0200 D0020000 		.4byte	.LASF39
 652 0204 05       		.byte	0x5
 653 0205 D0       		.byte	0xd0
 654 0206 E0030000 		.4byte	0x3e0
 655 020a 02       		.byte	0x2
 656 020b 23       		.byte	0x23
 657 020c 3C       		.uleb128 0x3c
 658 020d 06       		.uleb128 0x6
 659 020e 39050000 		.4byte	.LASF40
 660 0212 05       		.byte	0x5
 661 0213 D4       		.byte	0xd4
 662 0214 CE000000 		.4byte	0xce
 663 0218 02       		.byte	0x2
 664 0219 23       		.byte	0x23
 665 021a 40       		.uleb128 0x40
 666 021b 06       		.uleb128 0x6
 667 021c 0B010000 		.4byte	.LASF41
 668 0220 05       		.byte	0x5
 669 0221 DA       		.byte	0xda
 670 0222 8D020000 		.4byte	0x28d
 671 0226 02       		.byte	0x2
 672 0227 23       		.byte	0x23
 673 0228 44       		.uleb128 0x44
 674 0229 00       		.byte	0
 675 022a 08       		.uleb128 0x8
 676 022b 08       		.byte	0x8
 677 022c 04       		.byte	0x4
 678 022d 61       		.byte	0x61
ARM GAS  C:\Users\DNIEL~1\AppData\Local\Temp\ccZp6Zm1.s 			page 13


 679 022e 4F020000 		.4byte	0x24f
 680 0232 06       		.uleb128 0x6
 681 0233 9E040000 		.4byte	.LASF23
 682 0237 04       		.byte	0x4
 683 0238 62       		.byte	0x62
 684 0239 4F020000 		.4byte	0x24f
 685 023d 02       		.byte	0x2
 686 023e 23       		.byte	0x23
 687 023f 00       		.uleb128 0
 688 0240 06       		.uleb128 0x6
 689 0241 CB030000 		.4byte	.LASF24
 690 0245 04       		.byte	0x4
 691 0246 64       		.byte	0x64
 692 0247 4F020000 		.4byte	0x24f
 693 024b 02       		.byte	0x2
 694 024c 23       		.byte	0x23
 695 024d 04       		.uleb128 0x4
 696 024e 00       		.byte	0
 697 024f 09       		.uleb128 0x9
 698 0250 04       		.byte	0x4
 699 0251 FA000000 		.4byte	0xfa
 700 0255 04       		.uleb128 0x4
 701 0256 71000000 		.4byte	.LASF42
 702 025a 04       		.byte	0x4
 703 025b 66       		.byte	0x66
 704 025c 2A020000 		.4byte	0x22a
 705 0260 08       		.uleb128 0x8
 706 0261 04       		.byte	0x4
 707 0262 04       		.byte	0x4
 708 0263 6B       		.byte	0x6b
 709 0264 77020000 		.4byte	0x277
 710 0268 06       		.uleb128 0x6
 711 0269 9E040000 		.4byte	.LASF23
 712 026d 04       		.byte	0x4
 713 026e 6D       		.byte	0x6d
 714 026f 4F020000 		.4byte	0x24f
 715 0273 02       		.byte	0x2
 716 0274 23       		.byte	0x23
 717 0275 00       		.uleb128 0
 718 0276 00       		.byte	0
 719 0277 04       		.uleb128 0x4
 720 0278 C4020000 		.4byte	.LASF43
 721 027c 04       		.byte	0x4
 722 027d 70       		.byte	0x70
 723 027e 60020000 		.4byte	0x260
 724 0282 04       		.uleb128 0x4
 725 0283 D8040000 		.4byte	.LASF44
 726 0287 06       		.byte	0x6
 727 0288 E5       		.byte	0xe5
 728 0289 8D020000 		.4byte	0x28d
 729 028d 0A       		.uleb128 0xa
 730 028e 04       		.byte	0x4
 731 028f 0B       		.uleb128 0xb
 732 0290 8F050000 		.4byte	.LASF45
 733 0294 24       		.byte	0x24
 734 0295 06       		.byte	0x6
 735 0296 0C01     		.2byte	0x10c
ARM GAS  C:\Users\DNIEL~1\AppData\Local\Temp\ccZp6Zm1.s 			page 14


 736 0298 1D030000 		.4byte	0x31d
 737 029c 0C       		.uleb128 0xc
 738 029d 723400   		.ascii	"r4\000"
 739 02a0 06       		.byte	0x6
 740 02a1 1F01     		.2byte	0x11f
 741 02a3 82020000 		.4byte	0x282
 742 02a7 02       		.byte	0x2
 743 02a8 23       		.byte	0x23
 744 02a9 00       		.uleb128 0
 745 02aa 0C       		.uleb128 0xc
 746 02ab 723500   		.ascii	"r5\000"
 747 02ae 06       		.byte	0x6
 748 02af 2001     		.2byte	0x120
 749 02b1 82020000 		.4byte	0x282
 750 02b5 02       		.byte	0x2
 751 02b6 23       		.byte	0x23
 752 02b7 04       		.uleb128 0x4
 753 02b8 0C       		.uleb128 0xc
 754 02b9 723600   		.ascii	"r6\000"
 755 02bc 06       		.byte	0x6
 756 02bd 2101     		.2byte	0x121
 757 02bf 82020000 		.4byte	0x282
 758 02c3 02       		.byte	0x2
 759 02c4 23       		.byte	0x23
 760 02c5 08       		.uleb128 0x8
 761 02c6 0C       		.uleb128 0xc
 762 02c7 723700   		.ascii	"r7\000"
 763 02ca 06       		.byte	0x6
 764 02cb 2201     		.2byte	0x122
 765 02cd 82020000 		.4byte	0x282
 766 02d1 02       		.byte	0x2
 767 02d2 23       		.byte	0x23
 768 02d3 0C       		.uleb128 0xc
 769 02d4 0C       		.uleb128 0xc
 770 02d5 723800   		.ascii	"r8\000"
 771 02d8 06       		.byte	0x6
 772 02d9 2301     		.2byte	0x123
 773 02db 82020000 		.4byte	0x282
 774 02df 02       		.byte	0x2
 775 02e0 23       		.byte	0x23
 776 02e1 10       		.uleb128 0x10
 777 02e2 0C       		.uleb128 0xc
 778 02e3 723900   		.ascii	"r9\000"
 779 02e6 06       		.byte	0x6
 780 02e7 2401     		.2byte	0x124
 781 02e9 82020000 		.4byte	0x282
 782 02ed 02       		.byte	0x2
 783 02ee 23       		.byte	0x23
 784 02ef 14       		.uleb128 0x14
 785 02f0 0C       		.uleb128 0xc
 786 02f1 72313000 		.ascii	"r10\000"
 787 02f5 06       		.byte	0x6
 788 02f6 2501     		.2byte	0x125
 789 02f8 82020000 		.4byte	0x282
 790 02fc 02       		.byte	0x2
 791 02fd 23       		.byte	0x23
 792 02fe 18       		.uleb128 0x18
ARM GAS  C:\Users\DNIEL~1\AppData\Local\Temp\ccZp6Zm1.s 			page 15


 793 02ff 0C       		.uleb128 0xc
 794 0300 72313100 		.ascii	"r11\000"
 795 0304 06       		.byte	0x6
 796 0305 2601     		.2byte	0x126
 797 0307 82020000 		.4byte	0x282
 798 030b 02       		.byte	0x2
 799 030c 23       		.byte	0x23
 800 030d 1C       		.uleb128 0x1c
 801 030e 0C       		.uleb128 0xc
 802 030f 6C7200   		.ascii	"lr\000"
 803 0312 06       		.byte	0x6
 804 0313 2701     		.2byte	0x127
 805 0315 82020000 		.4byte	0x282
 806 0319 02       		.byte	0x2
 807 031a 23       		.byte	0x23
 808 031b 20       		.uleb128 0x20
 809 031c 00       		.byte	0
 810 031d 0B       		.uleb128 0xb
 811 031e 68020000 		.4byte	.LASF46
 812 0322 04       		.byte	0x4
 813 0323 06       		.byte	0x6
 814 0324 3101     		.2byte	0x131
 815 0326 3A030000 		.4byte	0x33a
 816 032a 0C       		.uleb128 0xc
 817 032b 72313300 		.ascii	"r13\000"
 818 032f 06       		.byte	0x6
 819 0330 3201     		.2byte	0x132
 820 0332 3A030000 		.4byte	0x33a
 821 0336 02       		.byte	0x2
 822 0337 23       		.byte	0x23
 823 0338 00       		.uleb128 0
 824 0339 00       		.byte	0
 825 033a 09       		.uleb128 0x9
 826 033b 04       		.byte	0x4
 827 033c 8F020000 		.4byte	0x28f
 828 0340 0D       		.uleb128 0xd
 829 0341 70000000 		.4byte	0x70
 830 0345 03       		.uleb128 0x3
 831 0346 04       		.byte	0x4
 832 0347 07       		.byte	0x7
 833 0348 2D020000 		.4byte	.LASF47
 834 034c 0D       		.uleb128 0xd
 835 034d EF000000 		.4byte	0xef
 836 0351 05       		.uleb128 0x5
 837 0352 E6020000 		.4byte	.LASF48
 838 0356 10       		.byte	0x10
 839 0357 07       		.byte	0x7
 840 0358 2C       		.byte	0x2c
 841 0359 88030000 		.4byte	0x388
 842 035d 06       		.uleb128 0x6
 843 035e 1A010000 		.4byte	.LASF49
 844 0362 07       		.byte	0x7
 845 0363 2D       		.byte	0x2d
 846 0364 55020000 		.4byte	0x255
 847 0368 02       		.byte	0x2
 848 0369 23       		.byte	0x23
 849 036a 00       		.uleb128 0
ARM GAS  C:\Users\DNIEL~1\AppData\Local\Temp\ccZp6Zm1.s 			page 16


 850 036b 06       		.uleb128 0x6
 851 036c 5B060000 		.4byte	.LASF50
 852 0370 07       		.byte	0x7
 853 0371 2F       		.byte	0x2f
 854 0372 4F020000 		.4byte	0x24f
 855 0376 02       		.byte	0x2
 856 0377 23       		.byte	0x23
 857 0378 08       		.uleb128 0x8
 858 0379 06       		.uleb128 0x6
 859 037a 28050000 		.4byte	.LASF51
 860 037e 07       		.byte	0x7
 861 037f 31       		.byte	0x31
 862 0380 88030000 		.4byte	0x388
 863 0384 02       		.byte	0x2
 864 0385 23       		.byte	0x23
 865 0386 0C       		.uleb128 0xc
 866 0387 00       		.byte	0
 867 0388 09       		.uleb128 0x9
 868 0389 04       		.byte	0x4
 869 038a 51030000 		.4byte	0x351
 870 038e 04       		.uleb128 0x4
 871 038f E6020000 		.4byte	.LASF48
 872 0393 07       		.byte	0x7
 873 0394 33       		.byte	0x33
 874 0395 51030000 		.4byte	0x351
 875 0399 0E       		.uleb128 0xe
 876 039a 04       		.byte	0x4
 877 039b 05       		.byte	0x5
 878 039c 96       		.byte	0x96
 879 039d CE030000 		.4byte	0x3ce
 880 03a1 0F       		.uleb128 0xf
 881 03a2 36000000 		.4byte	.LASF52
 882 03a6 05       		.byte	0x5
 883 03a7 9D       		.byte	0x9d
 884 03a8 D9000000 		.4byte	0xd9
 885 03ac 0F       		.uleb128 0xf
 886 03ad 7E000000 		.4byte	.LASF53
 887 03b1 05       		.byte	0x5
 888 03b2 A4       		.byte	0xa4
 889 03b3 D9000000 		.4byte	0xd9
 890 03b7 0F       		.uleb128 0xf
 891 03b8 90040000 		.4byte	.LASF54
 892 03bc 05       		.byte	0x5
 893 03bd AB       		.byte	0xab
 894 03be 8D020000 		.4byte	0x28d
 895 03c2 0F       		.uleb128 0xf
 896 03c3 97040000 		.4byte	.LASF55
 897 03c7 05       		.byte	0x5
 898 03c8 B2       		.byte	0xb2
 899 03c9 E4000000 		.4byte	0xe4
 900 03cd 00       		.byte	0
 901 03ce 09       		.uleb128 0x9
 902 03cf 04       		.byte	0x4
 903 03d0 D4030000 		.4byte	0x3d4
 904 03d4 10       		.uleb128 0x10
 905 03d5 D9030000 		.4byte	0x3d9
 906 03d9 03       		.uleb128 0x3
ARM GAS  C:\Users\DNIEL~1\AppData\Local\Temp\ccZp6Zm1.s 			page 17


 907 03da 01       		.byte	0x1
 908 03db 08       		.byte	0x8
 909 03dc 0A050000 		.4byte	.LASF56
 910 03e0 09       		.uleb128 0x9
 911 03e1 04       		.byte	0x4
 912 03e2 8E030000 		.4byte	0x38e
 913 03e6 09       		.uleb128 0x9
 914 03e7 04       		.byte	0x4
 915 03e8 3E000000 		.4byte	0x3e
 916 03ec 09       		.uleb128 0x9
 917 03ed 04       		.byte	0x4
 918 03ee F2030000 		.4byte	0x3f2
 919 03f2 10       		.uleb128 0x10
 920 03f3 3E000000 		.4byte	0x3e
 921 03f7 11       		.uleb128 0x11
 922 03f8 70000000 		.4byte	0x70
 923 03fc 07040000 		.4byte	0x407
 924 0400 12       		.uleb128 0x12
 925 0401 45030000 		.4byte	0x345
 926 0405 03       		.byte	0x3
 927 0406 00       		.byte	0
 928 0407 0D       		.uleb128 0xd
 929 0408 5E000000 		.4byte	0x5e
 930 040c 13       		.uleb128 0x13
 931 040d 18       		.byte	0x18
 932 040e 08       		.byte	0x8
 933 040f B102     		.2byte	0x2b1
 934 0411 6F040000 		.4byte	0x46f
 935 0415 0C       		.uleb128 0xc
 936 0416 435200   		.ascii	"CR\000"
 937 0419 08       		.byte	0x8
 938 041a B302     		.2byte	0x2b3
 939 041c 40030000 		.4byte	0x340
 940 0420 02       		.byte	0x2
 941 0421 23       		.byte	0x23
 942 0422 00       		.uleb128 0
 943 0423 14       		.uleb128 0x14
 944 0424 4C050000 		.4byte	.LASF57
 945 0428 08       		.byte	0x8
 946 0429 B402     		.2byte	0x2b4
 947 042b 40030000 		.4byte	0x340
 948 042f 02       		.byte	0x2
 949 0430 23       		.byte	0x23
 950 0431 04       		.uleb128 0x4
 951 0432 0C       		.uleb128 0xc
 952 0433 50415200 		.ascii	"PAR\000"
 953 0437 08       		.byte	0x8
 954 0438 B502     		.2byte	0x2b5
 955 043a 40030000 		.4byte	0x340
 956 043e 02       		.byte	0x2
 957 043f 23       		.byte	0x23
 958 0440 08       		.uleb128 0x8
 959 0441 14       		.uleb128 0x14
 960 0442 29000000 		.4byte	.LASF58
 961 0446 08       		.byte	0x8
 962 0447 B602     		.2byte	0x2b6
 963 0449 40030000 		.4byte	0x340
ARM GAS  C:\Users\DNIEL~1\AppData\Local\Temp\ccZp6Zm1.s 			page 18


 964 044d 02       		.byte	0x2
 965 044e 23       		.byte	0x23
 966 044f 0C       		.uleb128 0xc
 967 0450 14       		.uleb128 0x14
 968 0451 A3050000 		.4byte	.LASF59
 969 0455 08       		.byte	0x8
 970 0456 B702     		.2byte	0x2b7
 971 0458 40030000 		.4byte	0x340
 972 045c 02       		.byte	0x2
 973 045d 23       		.byte	0x23
 974 045e 10       		.uleb128 0x10
 975 045f 0C       		.uleb128 0xc
 976 0460 46435200 		.ascii	"FCR\000"
 977 0464 08       		.byte	0x8
 978 0465 B802     		.2byte	0x2b8
 979 0467 40030000 		.4byte	0x340
 980 046b 02       		.byte	0x2
 981 046c 23       		.byte	0x23
 982 046d 14       		.uleb128 0x14
 983 046e 00       		.byte	0
 984 046f 15       		.uleb128 0x15
 985 0470 57050000 		.4byte	.LASF60
 986 0474 08       		.byte	0x8
 987 0475 B902     		.2byte	0x2b9
 988 0477 0C040000 		.4byte	0x40c
 989 047b 13       		.uleb128 0x13
 990 047c A0       		.byte	0xa0
 991 047d 08       		.byte	0x8
 992 047e 8104     		.2byte	0x481
 993 0480 E2060000 		.4byte	0x6e2
 994 0484 0C       		.uleb128 0xc
 995 0485 545200   		.ascii	"TR\000"
 996 0488 08       		.byte	0x8
 997 0489 8304     		.2byte	0x483
 998 048b 40030000 		.4byte	0x340
 999 048f 02       		.byte	0x2
 1000 0490 23       		.byte	0x23
 1001 0491 00       		.uleb128 0
 1002 0492 0C       		.uleb128 0xc
 1003 0493 445200   		.ascii	"DR\000"
 1004 0496 08       		.byte	0x8
 1005 0497 8404     		.2byte	0x484
 1006 0499 40030000 		.4byte	0x340
 1007 049d 02       		.byte	0x2
 1008 049e 23       		.byte	0x23
 1009 049f 04       		.uleb128 0x4
 1010 04a0 0C       		.uleb128 0xc
 1011 04a1 435200   		.ascii	"CR\000"
 1012 04a4 08       		.byte	0x8
 1013 04a5 8504     		.2byte	0x485
 1014 04a7 40030000 		.4byte	0x340
 1015 04ab 02       		.byte	0x2
 1016 04ac 23       		.byte	0x23
 1017 04ad 08       		.uleb128 0x8
 1018 04ae 0C       		.uleb128 0xc
 1019 04af 49535200 		.ascii	"ISR\000"
 1020 04b3 08       		.byte	0x8
ARM GAS  C:\Users\DNIEL~1\AppData\Local\Temp\ccZp6Zm1.s 			page 19


 1021 04b4 8604     		.2byte	0x486
 1022 04b6 40030000 		.4byte	0x340
 1023 04ba 02       		.byte	0x2
 1024 04bb 23       		.byte	0x23
 1025 04bc 0C       		.uleb128 0xc
 1026 04bd 14       		.uleb128 0x14
 1027 04be 65000000 		.4byte	.LASF61
 1028 04c2 08       		.byte	0x8
 1029 04c3 8704     		.2byte	0x487
 1030 04c5 40030000 		.4byte	0x340
 1031 04c9 02       		.byte	0x2
 1032 04ca 23       		.byte	0x23
 1033 04cb 10       		.uleb128 0x10
 1034 04cc 14       		.uleb128 0x14
 1035 04cd E1040000 		.4byte	.LASF62
 1036 04d1 08       		.byte	0x8
 1037 04d2 8804     		.2byte	0x488
 1038 04d4 40030000 		.4byte	0x340
 1039 04d8 02       		.byte	0x2
 1040 04d9 23       		.byte	0x23
 1041 04da 14       		.uleb128 0x14
 1042 04db 14       		.uleb128 0x14
 1043 04dc D1040000 		.4byte	.LASF63
 1044 04e0 08       		.byte	0x8
 1045 04e1 8904     		.2byte	0x489
 1046 04e3 40030000 		.4byte	0x340
 1047 04e7 02       		.byte	0x2
 1048 04e8 23       		.byte	0x23
 1049 04e9 18       		.uleb128 0x18
 1050 04ea 14       		.uleb128 0x14
 1051 04eb AF030000 		.4byte	.LASF64
 1052 04ef 08       		.byte	0x8
 1053 04f0 8A04     		.2byte	0x48a
 1054 04f2 40030000 		.4byte	0x340
 1055 04f6 02       		.byte	0x2
 1056 04f7 23       		.byte	0x23
 1057 04f8 1C       		.uleb128 0x1c
 1058 04f9 14       		.uleb128 0x14
 1059 04fa AB000000 		.4byte	.LASF65
 1060 04fe 08       		.byte	0x8
 1061 04ff 8B04     		.2byte	0x48b
 1062 0501 40030000 		.4byte	0x340
 1063 0505 02       		.byte	0x2
 1064 0506 23       		.byte	0x23
 1065 0507 20       		.uleb128 0x20
 1066 0508 0C       		.uleb128 0xc
 1067 0509 57505200 		.ascii	"WPR\000"
 1068 050d 08       		.byte	0x8
 1069 050e 8C04     		.2byte	0x48c
 1070 0510 40030000 		.4byte	0x340
 1071 0514 02       		.byte	0x2
 1072 0515 23       		.byte	0x23
 1073 0516 24       		.uleb128 0x24
 1074 0517 0C       		.uleb128 0xc
 1075 0518 53535200 		.ascii	"SSR\000"
 1076 051c 08       		.byte	0x8
 1077 051d 8D04     		.2byte	0x48d
ARM GAS  C:\Users\DNIEL~1\AppData\Local\Temp\ccZp6Zm1.s 			page 20


 1078 051f 40030000 		.4byte	0x340
 1079 0523 02       		.byte	0x2
 1080 0524 23       		.byte	0x23
 1081 0525 28       		.uleb128 0x28
 1082 0526 14       		.uleb128 0x14
 1083 0527 88050000 		.4byte	.LASF66
 1084 052b 08       		.byte	0x8
 1085 052c 8E04     		.2byte	0x48e
 1086 052e 40030000 		.4byte	0x340
 1087 0532 02       		.byte	0x2
 1088 0533 23       		.byte	0x23
 1089 0534 2C       		.uleb128 0x2c
 1090 0535 14       		.uleb128 0x14
 1091 0536 B8020000 		.4byte	.LASF67
 1092 053a 08       		.byte	0x8
 1093 053b 8F04     		.2byte	0x48f
 1094 053d 40030000 		.4byte	0x340
 1095 0541 02       		.byte	0x2
 1096 0542 23       		.byte	0x23
 1097 0543 30       		.uleb128 0x30
 1098 0544 14       		.uleb128 0x14
 1099 0545 28020000 		.4byte	.LASF68
 1100 0549 08       		.byte	0x8
 1101 054a 9004     		.2byte	0x490
 1102 054c 40030000 		.4byte	0x340
 1103 0550 02       		.byte	0x2
 1104 0551 23       		.byte	0x23
 1105 0552 34       		.uleb128 0x34
 1106 0553 14       		.uleb128 0x14
 1107 0554 2D010000 		.4byte	.LASF69
 1108 0558 08       		.byte	0x8
 1109 0559 9104     		.2byte	0x491
 1110 055b 40030000 		.4byte	0x340
 1111 055f 02       		.byte	0x2
 1112 0560 23       		.byte	0x23
 1113 0561 38       		.uleb128 0x38
 1114 0562 14       		.uleb128 0x14
 1115 0563 16030000 		.4byte	.LASF70
 1116 0567 08       		.byte	0x8
 1117 0568 9204     		.2byte	0x492
 1118 056a 40030000 		.4byte	0x340
 1119 056e 02       		.byte	0x2
 1120 056f 23       		.byte	0x23
 1121 0570 3C       		.uleb128 0x3c
 1122 0571 14       		.uleb128 0x14
 1123 0572 8E020000 		.4byte	.LASF71
 1124 0576 08       		.byte	0x8
 1125 0577 9304     		.2byte	0x493
 1126 0579 40030000 		.4byte	0x340
 1127 057d 02       		.byte	0x2
 1128 057e 23       		.byte	0x23
 1129 057f 40       		.uleb128 0x40
 1130 0580 14       		.uleb128 0x14
 1131 0581 17020000 		.4byte	.LASF72
 1132 0585 08       		.byte	0x8
 1133 0586 9404     		.2byte	0x494
 1134 0588 40030000 		.4byte	0x340
ARM GAS  C:\Users\DNIEL~1\AppData\Local\Temp\ccZp6Zm1.s 			page 21


 1135 058c 02       		.byte	0x2
 1136 058d 23       		.byte	0x23
 1137 058e 44       		.uleb128 0x44
 1138 058f 14       		.uleb128 0x14
 1139 0590 68010000 		.4byte	.LASF73
 1140 0594 08       		.byte	0x8
 1141 0595 9504     		.2byte	0x495
 1142 0597 40030000 		.4byte	0x340
 1143 059b 02       		.byte	0x2
 1144 059c 23       		.byte	0x23
 1145 059d 48       		.uleb128 0x48
 1146 059e 14       		.uleb128 0x14
 1147 059f 47060000 		.4byte	.LASF74
 1148 05a3 08       		.byte	0x8
 1149 05a4 9604     		.2byte	0x496
 1150 05a6 70000000 		.4byte	0x70
 1151 05aa 02       		.byte	0x2
 1152 05ab 23       		.byte	0x23
 1153 05ac 4C       		.uleb128 0x4c
 1154 05ad 14       		.uleb128 0x14
 1155 05ae 8A040000 		.4byte	.LASF75
 1156 05b2 08       		.byte	0x8
 1157 05b3 9704     		.2byte	0x497
 1158 05b5 40030000 		.4byte	0x340
 1159 05b9 02       		.byte	0x2
 1160 05ba 23       		.byte	0x23
 1161 05bb 50       		.uleb128 0x50
 1162 05bc 14       		.uleb128 0x14
 1163 05bd 51050000 		.4byte	.LASF76
 1164 05c1 08       		.byte	0x8
 1165 05c2 9804     		.2byte	0x498
 1166 05c4 40030000 		.4byte	0x340
 1167 05c8 02       		.byte	0x2
 1168 05c9 23       		.byte	0x23
 1169 05ca 54       		.uleb128 0x54
 1170 05cb 14       		.uleb128 0x14
 1171 05cc 3A060000 		.4byte	.LASF77
 1172 05d0 08       		.byte	0x8
 1173 05d1 9904     		.2byte	0x499
 1174 05d3 40030000 		.4byte	0x340
 1175 05d7 02       		.byte	0x2
 1176 05d8 23       		.byte	0x23
 1177 05d9 58       		.uleb128 0x58
 1178 05da 14       		.uleb128 0x14
 1179 05db 58000000 		.4byte	.LASF78
 1180 05df 08       		.byte	0x8
 1181 05e0 9A04     		.2byte	0x49a
 1182 05e2 40030000 		.4byte	0x340
 1183 05e6 02       		.byte	0x2
 1184 05e7 23       		.byte	0x23
 1185 05e8 5C       		.uleb128 0x5c
 1186 05e9 14       		.uleb128 0x14
 1187 05ea 62010000 		.4byte	.LASF79
 1188 05ee 08       		.byte	0x8
 1189 05ef 9B04     		.2byte	0x49b
 1190 05f1 40030000 		.4byte	0x340
 1191 05f5 02       		.byte	0x2
ARM GAS  C:\Users\DNIEL~1\AppData\Local\Temp\ccZp6Zm1.s 			page 22


 1192 05f6 23       		.byte	0x23
 1193 05f7 60       		.uleb128 0x60
 1194 05f8 14       		.uleb128 0x14
 1195 05f9 36020000 		.4byte	.LASF80
 1196 05fd 08       		.byte	0x8
 1197 05fe 9C04     		.2byte	0x49c
 1198 0600 40030000 		.4byte	0x340
 1199 0604 02       		.byte	0x2
 1200 0605 23       		.byte	0x23
 1201 0606 64       		.uleb128 0x64
 1202 0607 14       		.uleb128 0x14
 1203 0608 F7020000 		.4byte	.LASF81
 1204 060c 08       		.byte	0x8
 1205 060d 9D04     		.2byte	0x49d
 1206 060f 40030000 		.4byte	0x340
 1207 0613 02       		.byte	0x2
 1208 0614 23       		.byte	0x23
 1209 0615 68       		.uleb128 0x68
 1210 0616 14       		.uleb128 0x14
 1211 0617 B6030000 		.4byte	.LASF82
 1212 061b 08       		.byte	0x8
 1213 061c 9E04     		.2byte	0x49e
 1214 061e 40030000 		.4byte	0x340
 1215 0622 02       		.byte	0x2
 1216 0623 23       		.byte	0x23
 1217 0624 6C       		.uleb128 0x6c
 1218 0625 14       		.uleb128 0x14
 1219 0626 CB040000 		.4byte	.LASF83
 1220 062a 08       		.byte	0x8
 1221 062b 9F04     		.2byte	0x49f
 1222 062d 40030000 		.4byte	0x340
 1223 0631 02       		.byte	0x2
 1224 0632 23       		.byte	0x23
 1225 0633 70       		.uleb128 0x70
 1226 0634 14       		.uleb128 0x14
 1227 0635 BB050000 		.4byte	.LASF84
 1228 0639 08       		.byte	0x8
 1229 063a A004     		.2byte	0x4a0
 1230 063c 40030000 		.4byte	0x340
 1231 0640 02       		.byte	0x2
 1232 0641 23       		.byte	0x23
 1233 0642 74       		.uleb128 0x74
 1234 0643 14       		.uleb128 0x14
 1235 0644 A9020000 		.4byte	.LASF85
 1236 0648 08       		.byte	0x8
 1237 0649 A104     		.2byte	0x4a1
 1238 064b 40030000 		.4byte	0x340
 1239 064f 02       		.byte	0x2
 1240 0650 23       		.byte	0x23
 1241 0651 78       		.uleb128 0x78
 1242 0652 14       		.uleb128 0x14
 1243 0653 A0030000 		.4byte	.LASF86
 1244 0657 08       		.byte	0x8
 1245 0658 A204     		.2byte	0x4a2
 1246 065a 40030000 		.4byte	0x340
 1247 065e 02       		.byte	0x2
 1248 065f 23       		.byte	0x23
ARM GAS  C:\Users\DNIEL~1\AppData\Local\Temp\ccZp6Zm1.s 			page 23


 1249 0660 7C       		.uleb128 0x7c
 1250 0661 14       		.uleb128 0x14
 1251 0662 A5040000 		.4byte	.LASF87
 1252 0666 08       		.byte	0x8
 1253 0667 A304     		.2byte	0x4a3
 1254 0669 40030000 		.4byte	0x340
 1255 066d 03       		.byte	0x3
 1256 066e 23       		.byte	0x23
 1257 066f 8001     		.uleb128 0x80
 1258 0671 14       		.uleb128 0x14
 1259 0672 6F050000 		.4byte	.LASF88
 1260 0676 08       		.byte	0x8
 1261 0677 A404     		.2byte	0x4a4
 1262 0679 40030000 		.4byte	0x340
 1263 067d 03       		.byte	0x3
 1264 067e 23       		.byte	0x23
 1265 067f 8401     		.uleb128 0x84
 1266 0681 14       		.uleb128 0x14
 1267 0682 40060000 		.4byte	.LASF89
 1268 0686 08       		.byte	0x8
 1269 0687 A504     		.2byte	0x4a5
 1270 0689 40030000 		.4byte	0x340
 1271 068d 03       		.byte	0x3
 1272 068e 23       		.byte	0x23
 1273 068f 8801     		.uleb128 0x88
 1274 0691 14       		.uleb128 0x14
 1275 0692 6A000000 		.4byte	.LASF90
 1276 0696 08       		.byte	0x8
 1277 0697 A604     		.2byte	0x4a6
 1278 0699 40030000 		.4byte	0x340
 1279 069d 03       		.byte	0x3
 1280 069e 23       		.byte	0x23
 1281 069f 8C01     		.uleb128 0x8c
 1282 06a1 14       		.uleb128 0x14
 1283 06a2 89010000 		.4byte	.LASF91
 1284 06a6 08       		.byte	0x8
 1285 06a7 A704     		.2byte	0x4a7
 1286 06a9 40030000 		.4byte	0x340
 1287 06ad 03       		.byte	0x3
 1288 06ae 23       		.byte	0x23
 1289 06af 9001     		.uleb128 0x90
 1290 06b1 14       		.uleb128 0x14
 1291 06b2 43020000 		.4byte	.LASF92
 1292 06b6 08       		.byte	0x8
 1293 06b7 A804     		.2byte	0x4a8
 1294 06b9 40030000 		.4byte	0x340
 1295 06bd 03       		.byte	0x3
 1296 06be 23       		.byte	0x23
 1297 06bf 9401     		.uleb128 0x94
 1298 06c1 14       		.uleb128 0x14
 1299 06c2 03030000 		.4byte	.LASF93
 1300 06c6 08       		.byte	0x8
 1301 06c7 A904     		.2byte	0x4a9
 1302 06c9 40030000 		.4byte	0x340
 1303 06cd 03       		.byte	0x3
 1304 06ce 23       		.byte	0x23
 1305 06cf 9801     		.uleb128 0x98
ARM GAS  C:\Users\DNIEL~1\AppData\Local\Temp\ccZp6Zm1.s 			page 24


 1306 06d1 14       		.uleb128 0x14
 1307 06d2 C4030000 		.4byte	.LASF94
 1308 06d6 08       		.byte	0x8
 1309 06d7 AA04     		.2byte	0x4aa
 1310 06d9 40030000 		.4byte	0x340
 1311 06dd 03       		.byte	0x3
 1312 06de 23       		.byte	0x23
 1313 06df 9C01     		.uleb128 0x9c
 1314 06e1 00       		.byte	0
 1315 06e2 15       		.uleb128 0x15
 1316 06e3 BD000000 		.4byte	.LASF95
 1317 06e7 08       		.byte	0x8
 1318 06e8 AB04     		.2byte	0x4ab
 1319 06ea 7B040000 		.4byte	0x47b
 1320 06ee 08       		.uleb128 0x8
 1321 06ef 0C       		.byte	0xc
 1322 06f0 09       		.byte	0x9
 1323 06f1 DA       		.byte	0xda
 1324 06f2 3D070000 		.4byte	0x73d
 1325 06f6 06       		.uleb128 0x6
 1326 06f7 5E000000 		.4byte	.LASF96
 1327 06fb 09       		.byte	0x9
 1328 06fc DB       		.byte	0xdb
 1329 06fd 3D070000 		.4byte	0x73d
 1330 0701 02       		.byte	0x2
 1331 0702 23       		.byte	0x23
 1332 0703 00       		.uleb128 0
 1333 0704 06       		.uleb128 0x6
 1334 0705 C6040000 		.4byte	.LASF97
 1335 0709 09       		.byte	0x9
 1336 070a DC       		.byte	0xdc
 1337 070b 43070000 		.4byte	0x743
 1338 070f 02       		.byte	0x2
 1339 0710 23       		.byte	0x23
 1340 0711 04       		.uleb128 0x4
 1341 0712 06       		.uleb128 0x6
 1342 0713 61020000 		.4byte	.LASF98
 1343 0717 09       		.byte	0x9
 1344 0718 DD       		.byte	0xdd
 1345 0719 3E000000 		.4byte	0x3e
 1346 071d 02       		.byte	0x2
 1347 071e 23       		.byte	0x23
 1348 071f 08       		.uleb128 0x8
 1349 0720 06       		.uleb128 0x6
 1350 0721 A8050000 		.4byte	.LASF99
 1351 0725 09       		.byte	0x9
 1352 0726 DF       		.byte	0xdf
 1353 0727 3E000000 		.4byte	0x3e
 1354 072b 02       		.byte	0x2
 1355 072c 23       		.byte	0x23
 1356 072d 09       		.uleb128 0x9
 1357 072e 06       		.uleb128 0x6
 1358 072f 87000000 		.4byte	.LASF100
 1359 0733 09       		.byte	0x9
 1360 0734 E0       		.byte	0xe0
 1361 0735 3E000000 		.4byte	0x3e
 1362 0739 02       		.byte	0x2
ARM GAS  C:\Users\DNIEL~1\AppData\Local\Temp\ccZp6Zm1.s 			page 25


 1363 073a 23       		.byte	0x23
 1364 073b 0A       		.uleb128 0xa
 1365 073c 00       		.byte	0
 1366 073d 09       		.uleb128 0x9
 1367 073e 04       		.byte	0x4
 1368 073f 6F040000 		.4byte	0x46f
 1369 0743 09       		.uleb128 0x9
 1370 0744 04       		.byte	0x4
 1371 0745 40030000 		.4byte	0x340
 1372 0749 04       		.uleb128 0x4
 1373 074a 0C040000 		.4byte	.LASF101
 1374 074e 09       		.byte	0x9
 1375 074f E1       		.byte	0xe1
 1376 0750 EE060000 		.4byte	0x6ee
 1377 0754 16       		.uleb128 0x16
 1378 0755 01       		.byte	0x1
 1379 0756 0A       		.byte	0xa
 1380 0757 33       		.byte	0x33
 1381 0758 93070000 		.4byte	0x793
 1382 075c 17       		.uleb128 0x17
 1383 075d 48010000 		.4byte	.LASF102
 1384 0761 00       		.sleb128 0
 1385 0762 17       		.uleb128 0x17
 1386 0763 33010000 		.4byte	.LASF103
 1387 0767 01       		.sleb128 1
 1388 0768 17       		.uleb128 0x17
 1389 0769 83020000 		.4byte	.LASF104
 1390 076d 02       		.sleb128 2
 1391 076e 17       		.uleb128 0x17
 1392 076f 9A020000 		.4byte	.LASF105
 1393 0773 03       		.sleb128 3
 1394 0774 17       		.uleb128 0x17
 1395 0775 0F050000 		.4byte	.LASF106
 1396 0779 04       		.sleb128 4
 1397 077a 17       		.uleb128 0x17
 1398 077b 96030000 		.4byte	.LASF107
 1399 077f 05       		.sleb128 5
 1400 0780 17       		.uleb128 0x17
 1401 0781 0A030000 		.4byte	.LASF108
 1402 0785 06       		.sleb128 6
 1403 0786 17       		.uleb128 0x17
 1404 0787 6C040000 		.4byte	.LASF109
 1405 078b 07       		.sleb128 7
 1406 078c 17       		.uleb128 0x17
 1407 078d CF050000 		.4byte	.LASF110
 1408 0791 08       		.sleb128 8
 1409 0792 00       		.byte	0
 1410 0793 04       		.uleb128 0x4
 1411 0794 B2000000 		.4byte	.LASF111
 1412 0798 0A       		.byte	0xa
 1413 0799 3D       		.byte	0x3d
 1414 079a 54070000 		.4byte	0x754
 1415 079e 08       		.uleb128 0x8
 1416 079f 08       		.byte	0x8
 1417 07a0 0A       		.byte	0xa
 1418 07a1 42       		.byte	0x42
 1419 07a2 C3070000 		.4byte	0x7c3
ARM GAS  C:\Users\DNIEL~1\AppData\Local\Temp\ccZp6Zm1.s 			page 26


 1420 07a6 06       		.uleb128 0x6
 1421 07a7 FF010000 		.4byte	.LASF112
 1422 07ab 0A       		.byte	0xa
 1423 07ac 43       		.byte	0x43
 1424 07ad 70000000 		.4byte	0x70
 1425 07b1 02       		.byte	0x2
 1426 07b2 23       		.byte	0x23
 1427 07b3 00       		.uleb128 0
 1428 07b4 06       		.uleb128 0x6
 1429 07b5 2E000000 		.4byte	.LASF113
 1430 07b9 0A       		.byte	0xa
 1431 07ba 44       		.byte	0x44
 1432 07bb 70000000 		.4byte	0x70
 1433 07bf 02       		.byte	0x2
 1434 07c0 23       		.byte	0x23
 1435 07c1 04       		.uleb128 0x4
 1436 07c2 00       		.byte	0
 1437 07c3 04       		.uleb128 0x4
 1438 07c4 00000000 		.4byte	.LASF114
 1439 07c8 0A       		.byte	0xa
 1440 07c9 45       		.byte	0x45
 1441 07ca 9E070000 		.4byte	0x79e
 1442 07ce 18       		.uleb128 0x18
 1443 07cf 01       		.byte	0x1
 1444 07d0 90000000 		.4byte	0x90
 1445 07d4 DE070000 		.4byte	0x7de
 1446 07d8 19       		.uleb128 0x19
 1447 07d9 8D020000 		.4byte	0x28d
 1448 07dd 00       		.byte	0
 1449 07de 09       		.uleb128 0x9
 1450 07df 04       		.byte	0x4
 1451 07e0 CE070000 		.4byte	0x7ce
 1452 07e4 18       		.uleb128 0x18
 1453 07e5 01       		.byte	0x1
 1454 07e6 90000000 		.4byte	0x90
 1455 07ea 03080000 		.4byte	0x803
 1456 07ee 19       		.uleb128 0x19
 1457 07ef 8D020000 		.4byte	0x28d
 1458 07f3 19       		.uleb128 0x19
 1459 07f4 70000000 		.4byte	0x70
 1460 07f8 19       		.uleb128 0x19
 1461 07f9 E6030000 		.4byte	0x3e6
 1462 07fd 19       		.uleb128 0x19
 1463 07fe 70000000 		.4byte	0x70
 1464 0802 00       		.byte	0
 1465 0803 09       		.uleb128 0x9
 1466 0804 04       		.byte	0x4
 1467 0805 E4070000 		.4byte	0x7e4
 1468 0809 18       		.uleb128 0x18
 1469 080a 01       		.byte	0x1
 1470 080b 90000000 		.4byte	0x90
 1471 080f 28080000 		.4byte	0x828
 1472 0813 19       		.uleb128 0x19
 1473 0814 8D020000 		.4byte	0x28d
 1474 0818 19       		.uleb128 0x19
 1475 0819 70000000 		.4byte	0x70
 1476 081d 19       		.uleb128 0x19
ARM GAS  C:\Users\DNIEL~1\AppData\Local\Temp\ccZp6Zm1.s 			page 27


 1477 081e EC030000 		.4byte	0x3ec
 1478 0822 19       		.uleb128 0x19
 1479 0823 70000000 		.4byte	0x70
 1480 0827 00       		.byte	0
 1481 0828 09       		.uleb128 0x9
 1482 0829 04       		.byte	0x4
 1483 082a 09080000 		.4byte	0x809
 1484 082e 18       		.uleb128 0x18
 1485 082f 01       		.byte	0x1
 1486 0830 90000000 		.4byte	0x90
 1487 0834 43080000 		.4byte	0x843
 1488 0838 19       		.uleb128 0x19
 1489 0839 8D020000 		.4byte	0x28d
 1490 083d 19       		.uleb128 0x19
 1491 083e 43080000 		.4byte	0x843
 1492 0842 00       		.byte	0
 1493 0843 09       		.uleb128 0x9
 1494 0844 04       		.byte	0x4
 1495 0845 C3070000 		.4byte	0x7c3
 1496 0849 09       		.uleb128 0x9
 1497 084a 04       		.byte	0x4
 1498 084b 2E080000 		.4byte	0x82e
 1499 084f 09       		.uleb128 0x9
 1500 0850 04       		.byte	0x4
 1501 0851 55080000 		.4byte	0x855
 1502 0855 10       		.uleb128 0x10
 1503 0856 49070000 		.4byte	0x749
 1504 085a 04       		.uleb128 0x4
 1505 085b 4A040000 		.4byte	.LASF115
 1506 085f 0B       		.byte	0xb
 1507 0860 4C       		.byte	0x4c
 1508 0861 65080000 		.4byte	0x865
 1509 0865 05       		.uleb128 0x5
 1510 0866 4A040000 		.4byte	.LASF115
 1511 086a 04       		.byte	0x4
 1512 086b 0C       		.byte	0xc
 1513 086c B5       		.byte	0xb5
 1514 086d 80080000 		.4byte	0x880
 1515 0871 06       		.uleb128 0x6
 1516 0872 97000000 		.4byte	.LASF116
 1517 0876 0C       		.byte	0xc
 1518 0877 B9       		.byte	0xb9
 1519 0878 80080000 		.4byte	0x880
 1520 087c 02       		.byte	0x2
 1521 087d 23       		.byte	0x23
 1522 087e 00       		.uleb128 0
 1523 087f 00       		.byte	0
 1524 0880 09       		.uleb128 0x9
 1525 0881 04       		.byte	0x4
 1526 0882 E2060000 		.4byte	0x6e2
 1527 0886 04       		.uleb128 0x4
 1528 0887 0D020000 		.4byte	.LASF117
 1529 088b 0D       		.byte	0xd
 1530 088c BF       		.byte	0xbf
 1531 088d 70000000 		.4byte	0x70
 1532 0891 04       		.uleb128 0x4
 1533 0892 7D050000 		.4byte	.LASF118
ARM GAS  C:\Users\DNIEL~1\AppData\Local\Temp\ccZp6Zm1.s 			page 28


 1534 0896 0D       		.byte	0xd
 1535 0897 C4       		.byte	0xc4
 1536 0898 70000000 		.4byte	0x70
 1537 089c 04       		.uleb128 0x4
 1538 089d 3D000000 		.4byte	.LASF119
 1539 08a1 0D       		.byte	0xd
 1540 08a2 C9       		.byte	0xc9
 1541 08a3 A7080000 		.4byte	0x8a7
 1542 08a7 05       		.uleb128 0x5
 1543 08a8 3D000000 		.4byte	.LASF119
 1544 08ac 48       		.byte	0x48
 1545 08ad 0D       		.byte	0xd
 1546 08ae E5       		.byte	0xe5
 1547 08af 5E090000 		.4byte	0x95e
 1548 08b3 07       		.uleb128 0x7
 1549 08b4 766D7400 		.ascii	"vmt\000"
 1550 08b8 0D       		.byte	0xd
 1551 08b9 E9       		.byte	0xe9
 1552 08ba FD090000 		.4byte	0x9fd
 1553 08be 02       		.byte	0x2
 1554 08bf 23       		.byte	0x23
 1555 08c0 00       		.uleb128 0
 1556 08c1 06       		.uleb128 0x6
 1557 08c2 53010000 		.4byte	.LASF120
 1558 08c6 0D       		.byte	0xd
 1559 08c7 EA       		.byte	0xea
 1560 08c8 93070000 		.4byte	0x793
 1561 08cc 02       		.byte	0x2
 1562 08cd 23       		.byte	0x23
 1563 08ce 04       		.uleb128 0x4
 1564 08cf 07       		.uleb128 0x7
 1565 08d0 63696400 		.ascii	"cid\000"
 1566 08d4 0D       		.byte	0xd
 1567 08d5 EA       		.byte	0xea
 1568 08d6 F7030000 		.4byte	0x3f7
 1569 08da 02       		.byte	0x2
 1570 08db 23       		.byte	0x23
 1571 08dc 08       		.uleb128 0x8
 1572 08dd 07       		.uleb128 0x7
 1573 08de 63736400 		.ascii	"csd\000"
 1574 08e2 0D       		.byte	0xd
 1575 08e3 EA       		.byte	0xea
 1576 08e4 F7030000 		.4byte	0x3f7
 1577 08e8 02       		.byte	0x2
 1578 08e9 23       		.byte	0x23
 1579 08ea 18       		.uleb128 0x18
 1580 08eb 06       		.uleb128 0x6
 1581 08ec 16000000 		.4byte	.LASF121
 1582 08f0 0D       		.byte	0xd
 1583 08f1 EA       		.byte	0xea
 1584 08f2 70000000 		.4byte	0x70
 1585 08f6 02       		.byte	0x2
 1586 08f7 23       		.byte	0x23
 1587 08f8 28       		.uleb128 0x28
 1588 08f9 06       		.uleb128 0x6
 1589 08fa 21050000 		.4byte	.LASF122
 1590 08fe 0D       		.byte	0xd
ARM GAS  C:\Users\DNIEL~1\AppData\Local\Temp\ccZp6Zm1.s 			page 29


 1591 08ff EE       		.byte	0xee
 1592 0900 080A0000 		.4byte	0xa08
 1593 0904 02       		.byte	0x2
 1594 0905 23       		.byte	0x23
 1595 0906 2C       		.uleb128 0x2c
 1596 0907 06       		.uleb128 0x6
 1597 0908 8E000000 		.4byte	.LASF123
 1598 090c 0D       		.byte	0xd
 1599 090d F2       		.byte	0xf2
 1600 090e 86080000 		.4byte	0x886
 1601 0912 02       		.byte	0x2
 1602 0913 23       		.byte	0x23
 1603 0914 30       		.uleb128 0x30
 1604 0915 06       		.uleb128 0x6
 1605 0916 3C020000 		.4byte	.LASF124
 1606 091a 0D       		.byte	0xd
 1607 091b F6       		.byte	0xf6
 1608 091c 91080000 		.4byte	0x891
 1609 0920 02       		.byte	0x2
 1610 0921 23       		.byte	0x23
 1611 0922 34       		.uleb128 0x34
 1612 0923 07       		.uleb128 0x7
 1613 0924 72636100 		.ascii	"rca\000"
 1614 0928 0D       		.byte	0xd
 1615 0929 FA       		.byte	0xfa
 1616 092a 70000000 		.4byte	0x70
 1617 092e 02       		.byte	0x2
 1618 092f 23       		.byte	0x23
 1619 0930 38       		.uleb128 0x38
 1620 0931 06       		.uleb128 0x6
 1621 0932 27040000 		.4byte	.LASF125
 1622 0936 0D       		.byte	0xd
 1623 0937 FF       		.byte	0xff
 1624 0938 4F020000 		.4byte	0x24f
 1625 093c 02       		.byte	0x2
 1626 093d 23       		.byte	0x23
 1627 093e 3C       		.uleb128 0x3c
 1628 093f 14       		.uleb128 0x14
 1629 0940 23060000 		.4byte	.LASF126
 1630 0944 0D       		.byte	0xd
 1631 0945 0301     		.2byte	0x103
 1632 0947 70000000 		.4byte	0x70
 1633 094b 02       		.byte	0x2
 1634 094c 23       		.byte	0x23
 1635 094d 40       		.uleb128 0x40
 1636 094e 0C       		.uleb128 0xc
 1637 094f 646D6100 		.ascii	"dma\000"
 1638 0953 0D       		.byte	0xd
 1639 0954 0701     		.2byte	0x107
 1640 0956 4F080000 		.4byte	0x84f
 1641 095a 02       		.byte	0x2
 1642 095b 23       		.byte	0x23
 1643 095c 44       		.uleb128 0x44
 1644 095d 00       		.byte	0
 1645 095e 08       		.uleb128 0x8
 1646 095f 04       		.byte	0x4
 1647 0960 0D       		.byte	0xd
ARM GAS  C:\Users\DNIEL~1\AppData\Local\Temp\ccZp6Zm1.s 			page 30


 1648 0961 CF       		.byte	0xcf
 1649 0962 75090000 		.4byte	0x975
 1650 0966 06       		.uleb128 0x6
 1651 0967 F9010000 		.4byte	.LASF127
 1652 096b 0D       		.byte	0xd
 1653 096c D0       		.byte	0xd0
 1654 096d 70000000 		.4byte	0x70
 1655 0971 02       		.byte	0x2
 1656 0972 23       		.byte	0x23
 1657 0973 00       		.uleb128 0
 1658 0974 00       		.byte	0
 1659 0975 04       		.uleb128 0x4
 1660 0976 06060000 		.4byte	.LASF128
 1661 097a 0D       		.byte	0xd
 1662 097b D1       		.byte	0xd1
 1663 097c 5E090000 		.4byte	0x95e
 1664 0980 05       		.uleb128 0x5
 1665 0981 BC010000 		.4byte	.LASF129
 1666 0985 20       		.byte	0x20
 1667 0986 0D       		.byte	0xd
 1668 0987 DE       		.byte	0xde
 1669 0988 FD090000 		.4byte	0x9fd
 1670 098c 06       		.uleb128 0x6
 1671 098d FA000000 		.4byte	.LASF130
 1672 0991 0D       		.byte	0xd
 1673 0992 DF       		.byte	0xdf
 1674 0993 DE070000 		.4byte	0x7de
 1675 0997 02       		.byte	0x2
 1676 0998 23       		.byte	0x23
 1677 0999 00       		.uleb128 0
 1678 099a 06       		.uleb128 0x6
 1679 099b 96050000 		.4byte	.LASF131
 1680 099f 0D       		.byte	0xd
 1681 09a0 DF       		.byte	0xdf
 1682 09a1 DE070000 		.4byte	0x7de
 1683 09a5 02       		.byte	0x2
 1684 09a6 23       		.byte	0x23
 1685 09a7 04       		.uleb128 0x4
 1686 09a8 06       		.uleb128 0x6
 1687 09a9 B3040000 		.4byte	.LASF132
 1688 09ad 0D       		.byte	0xd
 1689 09ae DF       		.byte	0xdf
 1690 09af DE070000 		.4byte	0x7de
 1691 09b3 02       		.byte	0x2
 1692 09b4 23       		.byte	0x23
 1693 09b5 08       		.uleb128 0x8
 1694 09b6 06       		.uleb128 0x6
 1695 09b7 22010000 		.4byte	.LASF133
 1696 09bb 0D       		.byte	0xd
 1697 09bc DF       		.byte	0xdf
 1698 09bd DE070000 		.4byte	0x7de
 1699 09c1 02       		.byte	0x2
 1700 09c2 23       		.byte	0x23
 1701 09c3 0C       		.uleb128 0xc
 1702 09c4 06       		.uleb128 0x6
 1703 09c5 2B060000 		.4byte	.LASF134
 1704 09c9 0D       		.byte	0xd
ARM GAS  C:\Users\DNIEL~1\AppData\Local\Temp\ccZp6Zm1.s 			page 31


 1705 09ca DF       		.byte	0xdf
 1706 09cb 03080000 		.4byte	0x803
 1707 09cf 02       		.byte	0x2
 1708 09d0 23       		.byte	0x23
 1709 09d1 10       		.uleb128 0x10
 1710 09d2 06       		.uleb128 0x6
 1711 09d3 FD020000 		.4byte	.LASF135
 1712 09d7 0D       		.byte	0xd
 1713 09d8 DF       		.byte	0xdf
 1714 09d9 28080000 		.4byte	0x828
 1715 09dd 02       		.byte	0x2
 1716 09de 23       		.byte	0x23
 1717 09df 14       		.uleb128 0x14
 1718 09e0 06       		.uleb128 0x6
 1719 09e1 1E060000 		.4byte	.LASF136
 1720 09e5 0D       		.byte	0xd
 1721 09e6 DF       		.byte	0xdf
 1722 09e7 DE070000 		.4byte	0x7de
 1723 09eb 02       		.byte	0x2
 1724 09ec 23       		.byte	0x23
 1725 09ed 18       		.uleb128 0x18
 1726 09ee 06       		.uleb128 0x6
 1727 09ef C9010000 		.4byte	.LASF137
 1728 09f3 0D       		.byte	0xd
 1729 09f4 DF       		.byte	0xdf
 1730 09f5 49080000 		.4byte	0x849
 1731 09f9 02       		.byte	0x2
 1732 09fa 23       		.byte	0x23
 1733 09fb 1C       		.uleb128 0x1c
 1734 09fc 00       		.byte	0
 1735 09fd 09       		.uleb128 0x9
 1736 09fe 04       		.byte	0x4
 1737 09ff 030A0000 		.4byte	0xa03
 1738 0a03 10       		.uleb128 0x10
 1739 0a04 80090000 		.4byte	0x980
 1740 0a08 09       		.uleb128 0x9
 1741 0a09 04       		.byte	0x4
 1742 0a0a 0E0A0000 		.4byte	0xa0e
 1743 0a0e 10       		.uleb128 0x10
 1744 0a0f 75090000 		.4byte	0x975
 1745 0a13 04       		.uleb128 0x4
 1746 0a14 08020000 		.4byte	.LASF138
 1747 0a18 0E       		.byte	0xe
 1748 0a19 16       		.byte	0x16
 1749 0a1a 49000000 		.4byte	0x49
 1750 0a1e 04       		.uleb128 0x4
 1751 0a1f 36030000 		.4byte	.LASF139
 1752 0a23 0E       		.byte	0xe
 1753 0a24 1B       		.byte	0x1b
 1754 0a25 57000000 		.4byte	0x57
 1755 0a29 04       		.uleb128 0x4
 1756 0a2a A7010000 		.4byte	.LASF140
 1757 0a2e 0E       		.byte	0xe
 1758 0a2f 21       		.byte	0x21
 1759 0a30 7B000000 		.4byte	0x7b
 1760 0a34 04       		.uleb128 0x4
 1761 0a35 44050000 		.4byte	.LASF141
ARM GAS  C:\Users\DNIEL~1\AppData\Local\Temp\ccZp6Zm1.s 			page 32


 1762 0a39 0F       		.byte	0xf
 1763 0a3a 0E       		.byte	0xe
 1764 0a3b 130A0000 		.4byte	0xa13
 1765 0a3f 16       		.uleb128 0x16
 1766 0a40 01       		.byte	0x1
 1767 0a41 0F       		.byte	0xf
 1768 0a42 11       		.byte	0x11
 1769 0a43 660A0000 		.4byte	0xa66
 1770 0a47 17       		.uleb128 0x17
 1771 0a48 AD010000 		.4byte	.LASF142
 1772 0a4c 00       		.sleb128 0
 1773 0a4d 17       		.uleb128 0x17
 1774 0a4e 30060000 		.4byte	.LASF143
 1775 0a52 01       		.sleb128 1
 1776 0a53 17       		.uleb128 0x17
 1777 0a54 1F000000 		.4byte	.LASF144
 1778 0a58 02       		.sleb128 2
 1779 0a59 17       		.uleb128 0x17
 1780 0a5a 4D000000 		.4byte	.LASF145
 1781 0a5e 03       		.sleb128 3
 1782 0a5f 17       		.uleb128 0x17
 1783 0a60 71010000 		.4byte	.LASF146
 1784 0a64 04       		.sleb128 4
 1785 0a65 00       		.byte	0
 1786 0a66 04       		.uleb128 0x4
 1787 0a67 E6040000 		.4byte	.LASF147
 1788 0a6b 0F       		.byte	0xf
 1789 0a6c 17       		.byte	0x17
 1790 0a6d 3F0A0000 		.4byte	0xa3f
 1791 0a71 1A       		.uleb128 0x1a
 1792 0a72 01       		.byte	0x1
 1793 0a73 E9010000 		.4byte	.LASF148
 1794 0a77 01       		.byte	0x1
 1795 0a78 29       		.byte	0x29
 1796 0a79 01       		.byte	0x1
 1797 0a7a 340A0000 		.4byte	0xa34
 1798 0a7e 00000000 		.4byte	.LFB118
 1799 0a82 28000000 		.4byte	.LFE118
 1800 0a86 00000000 		.4byte	.LLST0
 1801 0a8a 01       		.byte	0x1
 1802 0a8b B70A0000 		.4byte	0xab7
 1803 0a8f 1B       		.uleb128 0x1b
 1804 0a90 64727600 		.ascii	"drv\000"
 1805 0a94 01       		.byte	0x1
 1806 0a95 2A       		.byte	0x2a
 1807 0a96 130A0000 		.4byte	0xa13
 1808 0a9a 20000000 		.4byte	.LLST1
 1809 0a9e 1C       		.uleb128 0x1c
 1810 0a9f DB000000 		.4byte	.LASF150
 1811 0aa3 01       		.byte	0x1
 1812 0aa4 2D       		.byte	0x2d
 1813 0aa5 340A0000 		.4byte	0xa34
 1814 0aa9 5A000000 		.4byte	.LLST2
 1815 0aad 1D       		.uleb128 0x1d
 1816 0aae 12000000 		.4byte	.LVL4
 1817 0ab2 990C0000 		.4byte	0xc99
 1818 0ab6 00       		.byte	0
ARM GAS  C:\Users\DNIEL~1\AppData\Local\Temp\ccZp6Zm1.s 			page 33


 1819 0ab7 1A       		.uleb128 0x1a
 1820 0ab8 01       		.byte	0x1
 1821 0ab9 55020000 		.4byte	.LASF149
 1822 0abd 01       		.byte	0x1
 1823 0abe 4C       		.byte	0x4c
 1824 0abf 01       		.byte	0x1
 1825 0ac0 340A0000 		.4byte	0xa34
 1826 0ac4 00000000 		.4byte	.LFB119
 1827 0ac8 28000000 		.4byte	.LFE119
 1828 0acc 82000000 		.4byte	.LLST3
 1829 0ad0 01       		.byte	0x1
 1830 0ad1 FD0A0000 		.4byte	0xafd
 1831 0ad5 1B       		.uleb128 0x1b
 1832 0ad6 64727600 		.ascii	"drv\000"
 1833 0ada 01       		.byte	0x1
 1834 0adb 4D       		.byte	0x4d
 1835 0adc 130A0000 		.4byte	0xa13
 1836 0ae0 A2000000 		.4byte	.LLST4
 1837 0ae4 1C       		.uleb128 0x1c
 1838 0ae5 DB000000 		.4byte	.LASF150
 1839 0ae9 01       		.byte	0x1
 1840 0aea 50       		.byte	0x50
 1841 0aeb 340A0000 		.4byte	0xa34
 1842 0aef DC000000 		.4byte	.LLST5
 1843 0af3 1D       		.uleb128 0x1d
 1844 0af4 12000000 		.4byte	.LVL12
 1845 0af8 990C0000 		.4byte	0xc99
 1846 0afc 00       		.byte	0
 1847 0afd 1A       		.uleb128 0x1a
 1848 0afe 01       		.byte	0x1
 1849 0aff 51060000 		.4byte	.LASF151
 1850 0b03 01       		.byte	0x1
 1851 0b04 6F       		.byte	0x6f
 1852 0b05 01       		.byte	0x1
 1853 0b06 660A0000 		.4byte	0xa66
 1854 0b0a 00000000 		.4byte	.LFB120
 1855 0b0e 28000000 		.4byte	.LFE120
 1856 0b12 04010000 		.4byte	.LLST6
 1857 0b16 01       		.byte	0x1
 1858 0b17 700B0000 		.4byte	0xb70
 1859 0b1b 1B       		.uleb128 0x1b
 1860 0b1c 64727600 		.ascii	"drv\000"
 1861 0b20 01       		.byte	0x1
 1862 0b21 70       		.byte	0x70
 1863 0b22 130A0000 		.4byte	0xa13
 1864 0b26 24010000 		.4byte	.LLST7
 1865 0b2a 1E       		.uleb128 0x1e
 1866 0b2b 06010000 		.4byte	.LASF152
 1867 0b2f 01       		.byte	0x1
 1868 0b30 71       		.byte	0x71
 1869 0b31 700B0000 		.4byte	0xb70
 1870 0b35 5E010000 		.4byte	.LLST8
 1871 0b39 1E       		.uleb128 0x1e
 1872 0b3a BD020000 		.4byte	.LASF153
 1873 0b3e 01       		.byte	0x1
 1874 0b3f 72       		.byte	0x72
 1875 0b40 290A0000 		.4byte	0xa29
ARM GAS  C:\Users\DNIEL~1\AppData\Local\Temp\ccZp6Zm1.s 			page 34


 1876 0b44 92010000 		.4byte	.LLST9
 1877 0b48 1E       		.uleb128 0x1e
 1878 0b49 10000000 		.4byte	.LASF154
 1879 0b4d 01       		.byte	0x1
 1880 0b4e 73       		.byte	0x73
 1881 0b4f 130A0000 		.4byte	0xa13
 1882 0b53 BE010000 		.4byte	.LLST10
 1883 0b57 1F       		.uleb128 0x1f
 1884 0b58 22000000 		.4byte	.LVL22
 1885 0b5c 01       		.byte	0x1
 1886 0b5d B80C0000 		.4byte	0xcb8
 1887 0b61 20       		.uleb128 0x20
 1888 0b62 01       		.byte	0x1
 1889 0b63 52       		.byte	0x52
 1890 0b64 02       		.byte	0x2
 1891 0b65 74       		.byte	0x74
 1892 0b66 00       		.sleb128 0
 1893 0b67 20       		.uleb128 0x20
 1894 0b68 01       		.byte	0x1
 1895 0b69 51       		.byte	0x51
 1896 0b6a 03       		.byte	0x3
 1897 0b6b F3       		.byte	0xf3
 1898 0b6c 01       		.uleb128 0x1
 1899 0b6d 52       		.byte	0x52
 1900 0b6e 00       		.byte	0
 1901 0b6f 00       		.byte	0
 1902 0b70 09       		.uleb128 0x9
 1903 0b71 04       		.byte	0x4
 1904 0b72 130A0000 		.4byte	0xa13
 1905 0b76 1A       		.uleb128 0x1a
 1906 0b77 01       		.byte	0x1
 1907 0b78 C9000000 		.4byte	.LASF155
 1908 0b7c 01       		.byte	0x1
 1909 0b7d 98       		.byte	0x98
 1910 0b7e 01       		.byte	0x1
 1911 0b7f 660A0000 		.4byte	0xa66
 1912 0b83 00000000 		.4byte	.LFB121
 1913 0b87 28000000 		.4byte	.LFE121
 1914 0b8b DF010000 		.4byte	.LLST11
 1915 0b8f 01       		.byte	0x1
 1916 0b90 E90B0000 		.4byte	0xbe9
 1917 0b94 1B       		.uleb128 0x1b
 1918 0b95 64727600 		.ascii	"drv\000"
 1919 0b99 01       		.byte	0x1
 1920 0b9a 99       		.byte	0x99
 1921 0b9b 130A0000 		.4byte	0xa13
 1922 0b9f FF010000 		.4byte	.LLST12
 1923 0ba3 1E       		.uleb128 0x1e
 1924 0ba4 06010000 		.4byte	.LASF152
 1925 0ba8 01       		.byte	0x1
 1926 0ba9 9A       		.byte	0x9a
 1927 0baa E90B0000 		.4byte	0xbe9
 1928 0bae 39020000 		.4byte	.LLST13
 1929 0bb2 1E       		.uleb128 0x1e
 1930 0bb3 BD020000 		.4byte	.LASF153
 1931 0bb7 01       		.byte	0x1
 1932 0bb8 9B       		.byte	0x9b
ARM GAS  C:\Users\DNIEL~1\AppData\Local\Temp\ccZp6Zm1.s 			page 35


 1933 0bb9 290A0000 		.4byte	0xa29
 1934 0bbd 6D020000 		.4byte	.LLST14
 1935 0bc1 1E       		.uleb128 0x1e
 1936 0bc2 10000000 		.4byte	.LASF154
 1937 0bc6 01       		.byte	0x1
 1938 0bc7 9C       		.byte	0x9c
 1939 0bc8 130A0000 		.4byte	0xa13
 1940 0bcc 99020000 		.4byte	.LLST15
 1941 0bd0 1F       		.uleb128 0x1f
 1942 0bd1 22000000 		.4byte	.LVL29
 1943 0bd5 01       		.byte	0x1
 1944 0bd6 DF0C0000 		.4byte	0xcdf
 1945 0bda 20       		.uleb128 0x20
 1946 0bdb 01       		.byte	0x1
 1947 0bdc 52       		.byte	0x52
 1948 0bdd 02       		.byte	0x2
 1949 0bde 74       		.byte	0x74
 1950 0bdf 00       		.sleb128 0
 1951 0be0 20       		.uleb128 0x20
 1952 0be1 01       		.byte	0x1
 1953 0be2 51       		.byte	0x51
 1954 0be3 03       		.byte	0x3
 1955 0be4 F3       		.byte	0xf3
 1956 0be5 01       		.uleb128 0x1
 1957 0be6 52       		.byte	0x52
 1958 0be7 00       		.byte	0
 1959 0be8 00       		.byte	0
 1960 0be9 09       		.uleb128 0x9
 1961 0bea 04       		.byte	0x4
 1962 0beb EF0B0000 		.4byte	0xbef
 1963 0bef 10       		.uleb128 0x10
 1964 0bf0 130A0000 		.4byte	0xa13
 1965 0bf4 1A       		.uleb128 0x1a
 1966 0bf5 01       		.byte	0x1
 1967 0bf6 EC020000 		.4byte	.LASF156
 1968 0bfa 01       		.byte	0x1
 1969 0bfb C3       		.byte	0xc3
 1970 0bfc 01       		.byte	0x1
 1971 0bfd 660A0000 		.4byte	0xa66
 1972 0c01 00000000 		.4byte	.LFB122
 1973 0c05 44000000 		.4byte	.LFE122
 1974 0c09 BA020000 		.4byte	.LLST16
 1975 0c0d 01       		.byte	0x1
 1976 0c0e 490C0000 		.4byte	0xc49
 1977 0c12 1B       		.uleb128 0x1b
 1978 0c13 64727600 		.ascii	"drv\000"
 1979 0c17 01       		.byte	0x1
 1980 0c18 C4       		.byte	0xc4
 1981 0c19 130A0000 		.4byte	0xa13
 1982 0c1d DA020000 		.4byte	.LLST17
 1983 0c21 1E       		.uleb128 0x1e
 1984 0c22 6A050000 		.4byte	.LASF157
 1985 0c26 01       		.byte	0x1
 1986 0c27 C5       		.byte	0xc5
 1987 0c28 130A0000 		.4byte	0xa13
 1988 0c2c 5F030000 		.4byte	.LLST18
 1989 0c30 1E       		.uleb128 0x1e
ARM GAS  C:\Users\DNIEL~1\AppData\Local\Temp\ccZp6Zm1.s 			page 36


 1990 0c31 06010000 		.4byte	.LASF152
 1991 0c35 01       		.byte	0x1
 1992 0c36 C6       		.byte	0xc6
 1993 0c37 8D020000 		.4byte	0x28d
 1994 0c3b A4030000 		.4byte	.LLST19
 1995 0c3f 1D       		.uleb128 0x1d
 1996 0c40 1E000000 		.4byte	.LVL35
 1997 0c44 060D0000 		.4byte	0xd06
 1998 0c48 00       		.byte	0
 1999 0c49 21       		.uleb128 0x21
 2000 0c4a 01       		.byte	0x1
 2001 0c4b 3C010000 		.4byte	.LASF158
 2002 0c4f 01       		.byte	0x1
 2003 0c50 F5       		.byte	0xf5
 2004 0c51 01       		.byte	0x1
 2005 0c52 290A0000 		.4byte	0xa29
 2006 0c56 00000000 		.4byte	.LFB123
 2007 0c5a 0C000000 		.4byte	.LFE123
 2008 0c5e 02       		.byte	0x2
 2009 0c5f 7D       		.byte	0x7d
 2010 0c60 00       		.sleb128 0
 2011 0c61 01       		.byte	0x1
 2012 0c62 710C0000 		.4byte	0xc71
 2013 0c66 22       		.uleb128 0x22
 2014 0c67 0C000000 		.4byte	.LVL43
 2015 0c6b 01       		.byte	0x1
 2016 0c6c 280D0000 		.4byte	0xd28
 2017 0c70 00       		.byte	0
 2018 0c71 23       		.uleb128 0x23
 2019 0c72 9E000000 		.4byte	.LASF159
 2020 0c76 10       		.byte	0x10
 2021 0c77 9806     		.2byte	0x698
 2022 0c79 07040000 		.4byte	0x407
 2023 0c7d 01       		.byte	0x1
 2024 0c7e 01       		.byte	0x1
 2025 0c7f 24       		.uleb128 0x24
 2026 0c80 54040000 		.4byte	.LASF160
 2027 0c84 01       		.byte	0x1
 2028 0c85 1B       		.byte	0x1b
 2029 0c86 5A080000 		.4byte	0x85a
 2030 0c8a 01       		.byte	0x1
 2031 0c8b 01       		.byte	0x1
 2032 0c8c 24       		.uleb128 0x24
 2033 0c8d 47000000 		.4byte	.LASF161
 2034 0c91 01       		.byte	0x1
 2035 0c92 14       		.byte	0x14
 2036 0c93 9C080000 		.4byte	0x89c
 2037 0c97 01       		.byte	0x1
 2038 0c98 01       		.byte	0x1
 2039 0c99 25       		.uleb128 0x25
 2040 0c9a 01       		.byte	0x1
 2041 0c9b 1B030000 		.4byte	.LASF162
 2042 0c9f 0D       		.byte	0xd
 2043 0ca0 3401     		.2byte	0x134
 2044 0ca2 01       		.byte	0x1
 2045 0ca3 90000000 		.4byte	0x90
 2046 0ca7 01       		.byte	0x1
ARM GAS  C:\Users\DNIEL~1\AppData\Local\Temp\ccZp6Zm1.s 			page 37


 2047 0ca8 B20C0000 		.4byte	0xcb2
 2048 0cac 19       		.uleb128 0x19
 2049 0cad B20C0000 		.4byte	0xcb2
 2050 0cb1 00       		.byte	0
 2051 0cb2 09       		.uleb128 0x9
 2052 0cb3 04       		.byte	0x4
 2053 0cb4 9C080000 		.4byte	0x89c
 2054 0cb8 26       		.uleb128 0x26
 2055 0cb9 01       		.byte	0x1
 2056 0cba A7030000 		.4byte	.LASF163
 2057 0cbe 11       		.byte	0x11
 2058 0cbf AC       		.byte	0xac
 2059 0cc0 01       		.byte	0x1
 2060 0cc1 90000000 		.4byte	0x90
 2061 0cc5 01       		.byte	0x1
 2062 0cc6 DF0C0000 		.4byte	0xcdf
 2063 0cca 19       		.uleb128 0x19
 2064 0ccb B20C0000 		.4byte	0xcb2
 2065 0ccf 19       		.uleb128 0x19
 2066 0cd0 70000000 		.4byte	0x70
 2067 0cd4 19       		.uleb128 0x19
 2068 0cd5 E6030000 		.4byte	0x3e6
 2069 0cd9 19       		.uleb128 0x19
 2070 0cda 70000000 		.4byte	0x70
 2071 0cde 00       		.byte	0
 2072 0cdf 26       		.uleb128 0x26
 2073 0ce0 01       		.byte	0x1
 2074 0ce1 8D030000 		.4byte	.LASF164
 2075 0ce5 11       		.byte	0x11
 2076 0ce6 AE       		.byte	0xae
 2077 0ce7 01       		.byte	0x1
 2078 0ce8 90000000 		.4byte	0x90
 2079 0cec 01       		.byte	0x1
 2080 0ced 060D0000 		.4byte	0xd06
 2081 0cf1 19       		.uleb128 0x19
 2082 0cf2 B20C0000 		.4byte	0xcb2
 2083 0cf6 19       		.uleb128 0x19
 2084 0cf7 70000000 		.4byte	0x70
 2085 0cfb 19       		.uleb128 0x19
 2086 0cfc EC030000 		.4byte	0x3ec
 2087 0d00 19       		.uleb128 0x19
 2088 0d01 70000000 		.4byte	0x70
 2089 0d05 00       		.byte	0
 2090 0d06 26       		.uleb128 0x26
 2091 0d07 01       		.byte	0x1
 2092 0d08 84030000 		.4byte	.LASF165
 2093 0d0c 11       		.byte	0x11
 2094 0d0d B3       		.byte	0xb3
 2095 0d0e 01       		.byte	0x1
 2096 0d0f 90000000 		.4byte	0x90
 2097 0d13 01       		.byte	0x1
 2098 0d14 280D0000 		.4byte	0xd28
 2099 0d18 19       		.uleb128 0x19
 2100 0d19 B20C0000 		.4byte	0xcb2
 2101 0d1d 19       		.uleb128 0x19
 2102 0d1e 70000000 		.4byte	0x70
 2103 0d22 19       		.uleb128 0x19
ARM GAS  C:\Users\DNIEL~1\AppData\Local\Temp\ccZp6Zm1.s 			page 38


 2104 0d23 70000000 		.4byte	0x70
 2105 0d27 00       		.byte	0
 2106 0d28 26       		.uleb128 0x26
 2107 0d29 01       		.byte	0x1
 2108 0d2a D2010000 		.4byte	.LASF166
 2109 0d2e 0B       		.byte	0xb
 2110 0d2f A7       		.byte	0xa7
 2111 0d30 01       		.byte	0x1
 2112 0d31 70000000 		.4byte	0x70
 2113 0d35 01       		.byte	0x1
 2114 0d36 400D0000 		.4byte	0xd40
 2115 0d3a 19       		.uleb128 0x19
 2116 0d3b 400D0000 		.4byte	0xd40
 2117 0d3f 00       		.byte	0
 2118 0d40 09       		.uleb128 0x9
 2119 0d41 04       		.byte	0x4
 2120 0d42 5A080000 		.4byte	0x85a
 2121 0d46 00       		.byte	0
 2122              		.section	.debug_abbrev,"",%progbits
 2123              	.Ldebug_abbrev0:
 2124 0000 01       		.uleb128 0x1
 2125 0001 11       		.uleb128 0x11
 2126 0002 01       		.byte	0x1
 2127 0003 25       		.uleb128 0x25
 2128 0004 0E       		.uleb128 0xe
 2129 0005 13       		.uleb128 0x13
 2130 0006 0B       		.uleb128 0xb
 2131 0007 03       		.uleb128 0x3
 2132 0008 0E       		.uleb128 0xe
 2133 0009 1B       		.uleb128 0x1b
 2134 000a 0E       		.uleb128 0xe
 2135 000b 55       		.uleb128 0x55
 2136 000c 06       		.uleb128 0x6
 2137 000d 11       		.uleb128 0x11
 2138 000e 01       		.uleb128 0x1
 2139 000f 52       		.uleb128 0x52
 2140 0010 01       		.uleb128 0x1
 2141 0011 10       		.uleb128 0x10
 2142 0012 06       		.uleb128 0x6
 2143 0013 00       		.byte	0
 2144 0014 00       		.byte	0
 2145 0015 02       		.uleb128 0x2
 2146 0016 24       		.uleb128 0x24
 2147 0017 00       		.byte	0
 2148 0018 0B       		.uleb128 0xb
 2149 0019 0B       		.uleb128 0xb
 2150 001a 3E       		.uleb128 0x3e
 2151 001b 0B       		.uleb128 0xb
 2152 001c 03       		.uleb128 0x3
 2153 001d 08       		.uleb128 0x8
 2154 001e 00       		.byte	0
 2155 001f 00       		.byte	0
 2156 0020 03       		.uleb128 0x3
 2157 0021 24       		.uleb128 0x24
 2158 0022 00       		.byte	0
 2159 0023 0B       		.uleb128 0xb
 2160 0024 0B       		.uleb128 0xb
ARM GAS  C:\Users\DNIEL~1\AppData\Local\Temp\ccZp6Zm1.s 			page 39


 2161 0025 3E       		.uleb128 0x3e
 2162 0026 0B       		.uleb128 0xb
 2163 0027 03       		.uleb128 0x3
 2164 0028 0E       		.uleb128 0xe
 2165 0029 00       		.byte	0
 2166 002a 00       		.byte	0
 2167 002b 04       		.uleb128 0x4
 2168 002c 16       		.uleb128 0x16
 2169 002d 00       		.byte	0
 2170 002e 03       		.uleb128 0x3
 2171 002f 0E       		.uleb128 0xe
 2172 0030 3A       		.uleb128 0x3a
 2173 0031 0B       		.uleb128 0xb
 2174 0032 3B       		.uleb128 0x3b
 2175 0033 0B       		.uleb128 0xb
 2176 0034 49       		.uleb128 0x49
 2177 0035 13       		.uleb128 0x13
 2178 0036 00       		.byte	0
 2179 0037 00       		.byte	0
 2180 0038 05       		.uleb128 0x5
 2181 0039 13       		.uleb128 0x13
 2182 003a 01       		.byte	0x1
 2183 003b 03       		.uleb128 0x3
 2184 003c 0E       		.uleb128 0xe
 2185 003d 0B       		.uleb128 0xb
 2186 003e 0B       		.uleb128 0xb
 2187 003f 3A       		.uleb128 0x3a
 2188 0040 0B       		.uleb128 0xb
 2189 0041 3B       		.uleb128 0x3b
 2190 0042 0B       		.uleb128 0xb
 2191 0043 01       		.uleb128 0x1
 2192 0044 13       		.uleb128 0x13
 2193 0045 00       		.byte	0
 2194 0046 00       		.byte	0
 2195 0047 06       		.uleb128 0x6
 2196 0048 0D       		.uleb128 0xd
 2197 0049 00       		.byte	0
 2198 004a 03       		.uleb128 0x3
 2199 004b 0E       		.uleb128 0xe
 2200 004c 3A       		.uleb128 0x3a
 2201 004d 0B       		.uleb128 0xb
 2202 004e 3B       		.uleb128 0x3b
 2203 004f 0B       		.uleb128 0xb
 2204 0050 49       		.uleb128 0x49
 2205 0051 13       		.uleb128 0x13
 2206 0052 38       		.uleb128 0x38
 2207 0053 0A       		.uleb128 0xa
 2208 0054 00       		.byte	0
 2209 0055 00       		.byte	0
 2210 0056 07       		.uleb128 0x7
 2211 0057 0D       		.uleb128 0xd
 2212 0058 00       		.byte	0
 2213 0059 03       		.uleb128 0x3
 2214 005a 08       		.uleb128 0x8
 2215 005b 3A       		.uleb128 0x3a
 2216 005c 0B       		.uleb128 0xb
 2217 005d 3B       		.uleb128 0x3b
ARM GAS  C:\Users\DNIEL~1\AppData\Local\Temp\ccZp6Zm1.s 			page 40


 2218 005e 0B       		.uleb128 0xb
 2219 005f 49       		.uleb128 0x49
 2220 0060 13       		.uleb128 0x13
 2221 0061 38       		.uleb128 0x38
 2222 0062 0A       		.uleb128 0xa
 2223 0063 00       		.byte	0
 2224 0064 00       		.byte	0
 2225 0065 08       		.uleb128 0x8
 2226 0066 13       		.uleb128 0x13
 2227 0067 01       		.byte	0x1
 2228 0068 0B       		.uleb128 0xb
 2229 0069 0B       		.uleb128 0xb
 2230 006a 3A       		.uleb128 0x3a
 2231 006b 0B       		.uleb128 0xb
 2232 006c 3B       		.uleb128 0x3b
 2233 006d 0B       		.uleb128 0xb
 2234 006e 01       		.uleb128 0x1
 2235 006f 13       		.uleb128 0x13
 2236 0070 00       		.byte	0
 2237 0071 00       		.byte	0
 2238 0072 09       		.uleb128 0x9
 2239 0073 0F       		.uleb128 0xf
 2240 0074 00       		.byte	0
 2241 0075 0B       		.uleb128 0xb
 2242 0076 0B       		.uleb128 0xb
 2243 0077 49       		.uleb128 0x49
 2244 0078 13       		.uleb128 0x13
 2245 0079 00       		.byte	0
 2246 007a 00       		.byte	0
 2247 007b 0A       		.uleb128 0xa
 2248 007c 0F       		.uleb128 0xf
 2249 007d 00       		.byte	0
 2250 007e 0B       		.uleb128 0xb
 2251 007f 0B       		.uleb128 0xb
 2252 0080 00       		.byte	0
 2253 0081 00       		.byte	0
 2254 0082 0B       		.uleb128 0xb
 2255 0083 13       		.uleb128 0x13
 2256 0084 01       		.byte	0x1
 2257 0085 03       		.uleb128 0x3
 2258 0086 0E       		.uleb128 0xe
 2259 0087 0B       		.uleb128 0xb
 2260 0088 0B       		.uleb128 0xb
 2261 0089 3A       		.uleb128 0x3a
 2262 008a 0B       		.uleb128 0xb
 2263 008b 3B       		.uleb128 0x3b
 2264 008c 05       		.uleb128 0x5
 2265 008d 01       		.uleb128 0x1
 2266 008e 13       		.uleb128 0x13
 2267 008f 00       		.byte	0
 2268 0090 00       		.byte	0
 2269 0091 0C       		.uleb128 0xc
 2270 0092 0D       		.uleb128 0xd
 2271 0093 00       		.byte	0
 2272 0094 03       		.uleb128 0x3
 2273 0095 08       		.uleb128 0x8
 2274 0096 3A       		.uleb128 0x3a
ARM GAS  C:\Users\DNIEL~1\AppData\Local\Temp\ccZp6Zm1.s 			page 41


 2275 0097 0B       		.uleb128 0xb
 2276 0098 3B       		.uleb128 0x3b
 2277 0099 05       		.uleb128 0x5
 2278 009a 49       		.uleb128 0x49
 2279 009b 13       		.uleb128 0x13
 2280 009c 38       		.uleb128 0x38
 2281 009d 0A       		.uleb128 0xa
 2282 009e 00       		.byte	0
 2283 009f 00       		.byte	0
 2284 00a0 0D       		.uleb128 0xd
 2285 00a1 35       		.uleb128 0x35
 2286 00a2 00       		.byte	0
 2287 00a3 49       		.uleb128 0x49
 2288 00a4 13       		.uleb128 0x13
 2289 00a5 00       		.byte	0
 2290 00a6 00       		.byte	0
 2291 00a7 0E       		.uleb128 0xe
 2292 00a8 17       		.uleb128 0x17
 2293 00a9 01       		.byte	0x1
 2294 00aa 0B       		.uleb128 0xb
 2295 00ab 0B       		.uleb128 0xb
 2296 00ac 3A       		.uleb128 0x3a
 2297 00ad 0B       		.uleb128 0xb
 2298 00ae 3B       		.uleb128 0x3b
 2299 00af 0B       		.uleb128 0xb
 2300 00b0 01       		.uleb128 0x1
 2301 00b1 13       		.uleb128 0x13
 2302 00b2 00       		.byte	0
 2303 00b3 00       		.byte	0
 2304 00b4 0F       		.uleb128 0xf
 2305 00b5 0D       		.uleb128 0xd
 2306 00b6 00       		.byte	0
 2307 00b7 03       		.uleb128 0x3
 2308 00b8 0E       		.uleb128 0xe
 2309 00b9 3A       		.uleb128 0x3a
 2310 00ba 0B       		.uleb128 0xb
 2311 00bb 3B       		.uleb128 0x3b
 2312 00bc 0B       		.uleb128 0xb
 2313 00bd 49       		.uleb128 0x49
 2314 00be 13       		.uleb128 0x13
 2315 00bf 00       		.byte	0
 2316 00c0 00       		.byte	0
 2317 00c1 10       		.uleb128 0x10
 2318 00c2 26       		.uleb128 0x26
 2319 00c3 00       		.byte	0
 2320 00c4 49       		.uleb128 0x49
 2321 00c5 13       		.uleb128 0x13
 2322 00c6 00       		.byte	0
 2323 00c7 00       		.byte	0
 2324 00c8 11       		.uleb128 0x11
 2325 00c9 01       		.uleb128 0x1
 2326 00ca 01       		.byte	0x1
 2327 00cb 49       		.uleb128 0x49
 2328 00cc 13       		.uleb128 0x13
 2329 00cd 01       		.uleb128 0x1
 2330 00ce 13       		.uleb128 0x13
 2331 00cf 00       		.byte	0
ARM GAS  C:\Users\DNIEL~1\AppData\Local\Temp\ccZp6Zm1.s 			page 42


 2332 00d0 00       		.byte	0
 2333 00d1 12       		.uleb128 0x12
 2334 00d2 21       		.uleb128 0x21
 2335 00d3 00       		.byte	0
 2336 00d4 49       		.uleb128 0x49
 2337 00d5 13       		.uleb128 0x13
 2338 00d6 2F       		.uleb128 0x2f
 2339 00d7 0B       		.uleb128 0xb
 2340 00d8 00       		.byte	0
 2341 00d9 00       		.byte	0
 2342 00da 13       		.uleb128 0x13
 2343 00db 13       		.uleb128 0x13
 2344 00dc 01       		.byte	0x1
 2345 00dd 0B       		.uleb128 0xb
 2346 00de 0B       		.uleb128 0xb
 2347 00df 3A       		.uleb128 0x3a
 2348 00e0 0B       		.uleb128 0xb
 2349 00e1 3B       		.uleb128 0x3b
 2350 00e2 05       		.uleb128 0x5
 2351 00e3 01       		.uleb128 0x1
 2352 00e4 13       		.uleb128 0x13
 2353 00e5 00       		.byte	0
 2354 00e6 00       		.byte	0
 2355 00e7 14       		.uleb128 0x14
 2356 00e8 0D       		.uleb128 0xd
 2357 00e9 00       		.byte	0
 2358 00ea 03       		.uleb128 0x3
 2359 00eb 0E       		.uleb128 0xe
 2360 00ec 3A       		.uleb128 0x3a
 2361 00ed 0B       		.uleb128 0xb
 2362 00ee 3B       		.uleb128 0x3b
 2363 00ef 05       		.uleb128 0x5
 2364 00f0 49       		.uleb128 0x49
 2365 00f1 13       		.uleb128 0x13
 2366 00f2 38       		.uleb128 0x38
 2367 00f3 0A       		.uleb128 0xa
 2368 00f4 00       		.byte	0
 2369 00f5 00       		.byte	0
 2370 00f6 15       		.uleb128 0x15
 2371 00f7 16       		.uleb128 0x16
 2372 00f8 00       		.byte	0
 2373 00f9 03       		.uleb128 0x3
 2374 00fa 0E       		.uleb128 0xe
 2375 00fb 3A       		.uleb128 0x3a
 2376 00fc 0B       		.uleb128 0xb
 2377 00fd 3B       		.uleb128 0x3b
 2378 00fe 05       		.uleb128 0x5
 2379 00ff 49       		.uleb128 0x49
 2380 0100 13       		.uleb128 0x13
 2381 0101 00       		.byte	0
 2382 0102 00       		.byte	0
 2383 0103 16       		.uleb128 0x16
 2384 0104 04       		.uleb128 0x4
 2385 0105 01       		.byte	0x1
 2386 0106 0B       		.uleb128 0xb
 2387 0107 0B       		.uleb128 0xb
 2388 0108 3A       		.uleb128 0x3a
ARM GAS  C:\Users\DNIEL~1\AppData\Local\Temp\ccZp6Zm1.s 			page 43


 2389 0109 0B       		.uleb128 0xb
 2390 010a 3B       		.uleb128 0x3b
 2391 010b 0B       		.uleb128 0xb
 2392 010c 01       		.uleb128 0x1
 2393 010d 13       		.uleb128 0x13
 2394 010e 00       		.byte	0
 2395 010f 00       		.byte	0
 2396 0110 17       		.uleb128 0x17
 2397 0111 28       		.uleb128 0x28
 2398 0112 00       		.byte	0
 2399 0113 03       		.uleb128 0x3
 2400 0114 0E       		.uleb128 0xe
 2401 0115 1C       		.uleb128 0x1c
 2402 0116 0D       		.uleb128 0xd
 2403 0117 00       		.byte	0
 2404 0118 00       		.byte	0
 2405 0119 18       		.uleb128 0x18
 2406 011a 15       		.uleb128 0x15
 2407 011b 01       		.byte	0x1
 2408 011c 27       		.uleb128 0x27
 2409 011d 0C       		.uleb128 0xc
 2410 011e 49       		.uleb128 0x49
 2411 011f 13       		.uleb128 0x13
 2412 0120 01       		.uleb128 0x1
 2413 0121 13       		.uleb128 0x13
 2414 0122 00       		.byte	0
 2415 0123 00       		.byte	0
 2416 0124 19       		.uleb128 0x19
 2417 0125 05       		.uleb128 0x5
 2418 0126 00       		.byte	0
 2419 0127 49       		.uleb128 0x49
 2420 0128 13       		.uleb128 0x13
 2421 0129 00       		.byte	0
 2422 012a 00       		.byte	0
 2423 012b 1A       		.uleb128 0x1a
 2424 012c 2E       		.uleb128 0x2e
 2425 012d 01       		.byte	0x1
 2426 012e 3F       		.uleb128 0x3f
 2427 012f 0C       		.uleb128 0xc
 2428 0130 03       		.uleb128 0x3
 2429 0131 0E       		.uleb128 0xe
 2430 0132 3A       		.uleb128 0x3a
 2431 0133 0B       		.uleb128 0xb
 2432 0134 3B       		.uleb128 0x3b
 2433 0135 0B       		.uleb128 0xb
 2434 0136 27       		.uleb128 0x27
 2435 0137 0C       		.uleb128 0xc
 2436 0138 49       		.uleb128 0x49
 2437 0139 13       		.uleb128 0x13
 2438 013a 11       		.uleb128 0x11
 2439 013b 01       		.uleb128 0x1
 2440 013c 12       		.uleb128 0x12
 2441 013d 01       		.uleb128 0x1
 2442 013e 40       		.uleb128 0x40
 2443 013f 06       		.uleb128 0x6
 2444 0140 9742     		.uleb128 0x2117
 2445 0142 0C       		.uleb128 0xc
ARM GAS  C:\Users\DNIEL~1\AppData\Local\Temp\ccZp6Zm1.s 			page 44


 2446 0143 01       		.uleb128 0x1
 2447 0144 13       		.uleb128 0x13
 2448 0145 00       		.byte	0
 2449 0146 00       		.byte	0
 2450 0147 1B       		.uleb128 0x1b
 2451 0148 05       		.uleb128 0x5
 2452 0149 00       		.byte	0
 2453 014a 03       		.uleb128 0x3
 2454 014b 08       		.uleb128 0x8
 2455 014c 3A       		.uleb128 0x3a
 2456 014d 0B       		.uleb128 0xb
 2457 014e 3B       		.uleb128 0x3b
 2458 014f 0B       		.uleb128 0xb
 2459 0150 49       		.uleb128 0x49
 2460 0151 13       		.uleb128 0x13
 2461 0152 02       		.uleb128 0x2
 2462 0153 06       		.uleb128 0x6
 2463 0154 00       		.byte	0
 2464 0155 00       		.byte	0
 2465 0156 1C       		.uleb128 0x1c
 2466 0157 34       		.uleb128 0x34
 2467 0158 00       		.byte	0
 2468 0159 03       		.uleb128 0x3
 2469 015a 0E       		.uleb128 0xe
 2470 015b 3A       		.uleb128 0x3a
 2471 015c 0B       		.uleb128 0xb
 2472 015d 3B       		.uleb128 0x3b
 2473 015e 0B       		.uleb128 0xb
 2474 015f 49       		.uleb128 0x49
 2475 0160 13       		.uleb128 0x13
 2476 0161 02       		.uleb128 0x2
 2477 0162 06       		.uleb128 0x6
 2478 0163 00       		.byte	0
 2479 0164 00       		.byte	0
 2480 0165 1D       		.uleb128 0x1d
 2481 0166 898201   		.uleb128 0x4109
 2482 0169 00       		.byte	0
 2483 016a 11       		.uleb128 0x11
 2484 016b 01       		.uleb128 0x1
 2485 016c 31       		.uleb128 0x31
 2486 016d 13       		.uleb128 0x13
 2487 016e 00       		.byte	0
 2488 016f 00       		.byte	0
 2489 0170 1E       		.uleb128 0x1e
 2490 0171 05       		.uleb128 0x5
 2491 0172 00       		.byte	0
 2492 0173 03       		.uleb128 0x3
 2493 0174 0E       		.uleb128 0xe
 2494 0175 3A       		.uleb128 0x3a
 2495 0176 0B       		.uleb128 0xb
 2496 0177 3B       		.uleb128 0x3b
 2497 0178 0B       		.uleb128 0xb
 2498 0179 49       		.uleb128 0x49
 2499 017a 13       		.uleb128 0x13
 2500 017b 02       		.uleb128 0x2
 2501 017c 06       		.uleb128 0x6
 2502 017d 00       		.byte	0
ARM GAS  C:\Users\DNIEL~1\AppData\Local\Temp\ccZp6Zm1.s 			page 45


 2503 017e 00       		.byte	0
 2504 017f 1F       		.uleb128 0x1f
 2505 0180 898201   		.uleb128 0x4109
 2506 0183 01       		.byte	0x1
 2507 0184 11       		.uleb128 0x11
 2508 0185 01       		.uleb128 0x1
 2509 0186 9542     		.uleb128 0x2115
 2510 0188 0C       		.uleb128 0xc
 2511 0189 31       		.uleb128 0x31
 2512 018a 13       		.uleb128 0x13
 2513 018b 00       		.byte	0
 2514 018c 00       		.byte	0
 2515 018d 20       		.uleb128 0x20
 2516 018e 8A8201   		.uleb128 0x410a
 2517 0191 00       		.byte	0
 2518 0192 02       		.uleb128 0x2
 2519 0193 0A       		.uleb128 0xa
 2520 0194 9142     		.uleb128 0x2111
 2521 0196 0A       		.uleb128 0xa
 2522 0197 00       		.byte	0
 2523 0198 00       		.byte	0
 2524 0199 21       		.uleb128 0x21
 2525 019a 2E       		.uleb128 0x2e
 2526 019b 01       		.byte	0x1
 2527 019c 3F       		.uleb128 0x3f
 2528 019d 0C       		.uleb128 0xc
 2529 019e 03       		.uleb128 0x3
 2530 019f 0E       		.uleb128 0xe
 2531 01a0 3A       		.uleb128 0x3a
 2532 01a1 0B       		.uleb128 0xb
 2533 01a2 3B       		.uleb128 0x3b
 2534 01a3 0B       		.uleb128 0xb
 2535 01a4 27       		.uleb128 0x27
 2536 01a5 0C       		.uleb128 0xc
 2537 01a6 49       		.uleb128 0x49
 2538 01a7 13       		.uleb128 0x13
 2539 01a8 11       		.uleb128 0x11
 2540 01a9 01       		.uleb128 0x1
 2541 01aa 12       		.uleb128 0x12
 2542 01ab 01       		.uleb128 0x1
 2543 01ac 40       		.uleb128 0x40
 2544 01ad 0A       		.uleb128 0xa
 2545 01ae 9742     		.uleb128 0x2117
 2546 01b0 0C       		.uleb128 0xc
 2547 01b1 01       		.uleb128 0x1
 2548 01b2 13       		.uleb128 0x13
 2549 01b3 00       		.byte	0
 2550 01b4 00       		.byte	0
 2551 01b5 22       		.uleb128 0x22
 2552 01b6 898201   		.uleb128 0x4109
 2553 01b9 00       		.byte	0
 2554 01ba 11       		.uleb128 0x11
 2555 01bb 01       		.uleb128 0x1
 2556 01bc 9542     		.uleb128 0x2115
 2557 01be 0C       		.uleb128 0xc
 2558 01bf 31       		.uleb128 0x31
 2559 01c0 13       		.uleb128 0x13
ARM GAS  C:\Users\DNIEL~1\AppData\Local\Temp\ccZp6Zm1.s 			page 46


 2560 01c1 00       		.byte	0
 2561 01c2 00       		.byte	0
 2562 01c3 23       		.uleb128 0x23
 2563 01c4 34       		.uleb128 0x34
 2564 01c5 00       		.byte	0
 2565 01c6 03       		.uleb128 0x3
 2566 01c7 0E       		.uleb128 0xe
 2567 01c8 3A       		.uleb128 0x3a
 2568 01c9 0B       		.uleb128 0xb
 2569 01ca 3B       		.uleb128 0x3b
 2570 01cb 05       		.uleb128 0x5
 2571 01cc 49       		.uleb128 0x49
 2572 01cd 13       		.uleb128 0x13
 2573 01ce 3F       		.uleb128 0x3f
 2574 01cf 0C       		.uleb128 0xc
 2575 01d0 3C       		.uleb128 0x3c
 2576 01d1 0C       		.uleb128 0xc
 2577 01d2 00       		.byte	0
 2578 01d3 00       		.byte	0
 2579 01d4 24       		.uleb128 0x24
 2580 01d5 34       		.uleb128 0x34
 2581 01d6 00       		.byte	0
 2582 01d7 03       		.uleb128 0x3
 2583 01d8 0E       		.uleb128 0xe
 2584 01d9 3A       		.uleb128 0x3a
 2585 01da 0B       		.uleb128 0xb
 2586 01db 3B       		.uleb128 0x3b
 2587 01dc 0B       		.uleb128 0xb
 2588 01dd 49       		.uleb128 0x49
 2589 01de 13       		.uleb128 0x13
 2590 01df 3F       		.uleb128 0x3f
 2591 01e0 0C       		.uleb128 0xc
 2592 01e1 3C       		.uleb128 0x3c
 2593 01e2 0C       		.uleb128 0xc
 2594 01e3 00       		.byte	0
 2595 01e4 00       		.byte	0
 2596 01e5 25       		.uleb128 0x25
 2597 01e6 2E       		.uleb128 0x2e
 2598 01e7 01       		.byte	0x1
 2599 01e8 3F       		.uleb128 0x3f
 2600 01e9 0C       		.uleb128 0xc
 2601 01ea 03       		.uleb128 0x3
 2602 01eb 0E       		.uleb128 0xe
 2603 01ec 3A       		.uleb128 0x3a
 2604 01ed 0B       		.uleb128 0xb
 2605 01ee 3B       		.uleb128 0x3b
 2606 01ef 05       		.uleb128 0x5
 2607 01f0 27       		.uleb128 0x27
 2608 01f1 0C       		.uleb128 0xc
 2609 01f2 49       		.uleb128 0x49
 2610 01f3 13       		.uleb128 0x13
 2611 01f4 3C       		.uleb128 0x3c
 2612 01f5 0C       		.uleb128 0xc
 2613 01f6 01       		.uleb128 0x1
 2614 01f7 13       		.uleb128 0x13
 2615 01f8 00       		.byte	0
 2616 01f9 00       		.byte	0
ARM GAS  C:\Users\DNIEL~1\AppData\Local\Temp\ccZp6Zm1.s 			page 47


 2617 01fa 26       		.uleb128 0x26
 2618 01fb 2E       		.uleb128 0x2e
 2619 01fc 01       		.byte	0x1
 2620 01fd 3F       		.uleb128 0x3f
 2621 01fe 0C       		.uleb128 0xc
 2622 01ff 03       		.uleb128 0x3
 2623 0200 0E       		.uleb128 0xe
 2624 0201 3A       		.uleb128 0x3a
 2625 0202 0B       		.uleb128 0xb
 2626 0203 3B       		.uleb128 0x3b
 2627 0204 0B       		.uleb128 0xb
 2628 0205 27       		.uleb128 0x27
 2629 0206 0C       		.uleb128 0xc
 2630 0207 49       		.uleb128 0x49
 2631 0208 13       		.uleb128 0x13
 2632 0209 3C       		.uleb128 0x3c
 2633 020a 0C       		.uleb128 0xc
 2634 020b 01       		.uleb128 0x1
 2635 020c 13       		.uleb128 0x13
 2636 020d 00       		.byte	0
 2637 020e 00       		.byte	0
 2638 020f 00       		.byte	0
 2639              		.section	.debug_loc,"",%progbits
 2640              	.Ldebug_loc0:
 2641              	.LLST0:
 2642 0000 00000000 		.4byte	.LFB118
 2643 0004 02000000 		.4byte	.LCFI0
 2644 0008 0200     		.2byte	0x2
 2645 000a 7D       		.byte	0x7d
 2646 000b 00       		.sleb128 0
 2647 000c 02000000 		.4byte	.LCFI0
 2648 0010 28000000 		.4byte	.LFE118
 2649 0014 0200     		.2byte	0x2
 2650 0016 7D       		.byte	0x7d
 2651 0017 08       		.sleb128 8
 2652 0018 00000000 		.4byte	0
 2653 001c 00000000 		.4byte	0
 2654              	.LLST1:
 2655 0020 00000000 		.4byte	.LVL0
 2656 0024 06000000 		.4byte	.LVL2
 2657 0028 0100     		.2byte	0x1
 2658 002a 50       		.byte	0x50
 2659 002b 06000000 		.4byte	.LVL2
 2660 002f 1E000000 		.4byte	.LVL6
 2661 0033 0400     		.2byte	0x4
 2662 0035 F3       		.byte	0xf3
 2663 0036 01       		.uleb128 0x1
 2664 0037 50       		.byte	0x50
 2665 0038 9F       		.byte	0x9f
 2666 0039 1E000000 		.4byte	.LVL6
 2667 003d 22000000 		.4byte	.LVL7
 2668 0041 0100     		.2byte	0x1
 2669 0043 50       		.byte	0x50
 2670 0044 22000000 		.4byte	.LVL7
 2671 0048 28000000 		.4byte	.LFE118
 2672 004c 0400     		.2byte	0x4
 2673 004e F3       		.byte	0xf3
ARM GAS  C:\Users\DNIEL~1\AppData\Local\Temp\ccZp6Zm1.s 			page 48


 2674 004f 01       		.uleb128 0x1
 2675 0050 50       		.byte	0x50
 2676 0051 9F       		.byte	0x9f
 2677 0052 00000000 		.4byte	0
 2678 0056 00000000 		.4byte	0
 2679              	.LLST2:
 2680 005a 04000000 		.4byte	.LVL1
 2681 005e 0E000000 		.4byte	.LVL3
 2682 0062 0200     		.2byte	0x2
 2683 0064 30       		.byte	0x30
 2684 0065 9F       		.byte	0x9f
 2685 0066 0E000000 		.4byte	.LVL3
 2686 006a 11000000 		.4byte	.LVL4-1
 2687 006e 0A00     		.2byte	0xa
 2688 0070 70       		.byte	0x70
 2689 0071 04       		.sleb128 4
 2690 0072 94       		.byte	0x94
 2691 0073 01       		.byte	0x1
 2692 0074 08       		.byte	0x8
 2693 0075 FF       		.byte	0xff
 2694 0076 1A       		.byte	0x1a
 2695 0077 35       		.byte	0x35
 2696 0078 2E       		.byte	0x2e
 2697 0079 9F       		.byte	0x9f
 2698 007a 00000000 		.4byte	0
 2699 007e 00000000 		.4byte	0
 2700              	.LLST3:
 2701 0082 00000000 		.4byte	.LFB119
 2702 0086 02000000 		.4byte	.LCFI1
 2703 008a 0200     		.2byte	0x2
 2704 008c 7D       		.byte	0x7d
 2705 008d 00       		.sleb128 0
 2706 008e 02000000 		.4byte	.LCFI1
 2707 0092 28000000 		.4byte	.LFE119
 2708 0096 0200     		.2byte	0x2
 2709 0098 7D       		.byte	0x7d
 2710 0099 08       		.sleb128 8
 2711 009a 00000000 		.4byte	0
 2712 009e 00000000 		.4byte	0
 2713              	.LLST4:
 2714 00a2 00000000 		.4byte	.LVL8
 2715 00a6 06000000 		.4byte	.LVL10
 2716 00aa 0100     		.2byte	0x1
 2717 00ac 50       		.byte	0x50
 2718 00ad 06000000 		.4byte	.LVL10
 2719 00b1 1E000000 		.4byte	.LVL14
 2720 00b5 0400     		.2byte	0x4
 2721 00b7 F3       		.byte	0xf3
 2722 00b8 01       		.uleb128 0x1
 2723 00b9 50       		.byte	0x50
 2724 00ba 9F       		.byte	0x9f
 2725 00bb 1E000000 		.4byte	.LVL14
 2726 00bf 22000000 		.4byte	.LVL15
 2727 00c3 0100     		.2byte	0x1
 2728 00c5 50       		.byte	0x50
 2729 00c6 22000000 		.4byte	.LVL15
 2730 00ca 28000000 		.4byte	.LFE119
ARM GAS  C:\Users\DNIEL~1\AppData\Local\Temp\ccZp6Zm1.s 			page 49


 2731 00ce 0400     		.2byte	0x4
 2732 00d0 F3       		.byte	0xf3
 2733 00d1 01       		.uleb128 0x1
 2734 00d2 50       		.byte	0x50
 2735 00d3 9F       		.byte	0x9f
 2736 00d4 00000000 		.4byte	0
 2737 00d8 00000000 		.4byte	0
 2738              	.LLST5:
 2739 00dc 04000000 		.4byte	.LVL9
 2740 00e0 0E000000 		.4byte	.LVL11
 2741 00e4 0200     		.2byte	0x2
 2742 00e6 30       		.byte	0x30
 2743 00e7 9F       		.byte	0x9f
 2744 00e8 0E000000 		.4byte	.LVL11
 2745 00ec 11000000 		.4byte	.LVL12-1
 2746 00f0 0A00     		.2byte	0xa
 2747 00f2 70       		.byte	0x70
 2748 00f3 04       		.sleb128 4
 2749 00f4 94       		.byte	0x94
 2750 00f5 01       		.byte	0x1
 2751 00f6 08       		.byte	0x8
 2752 00f7 FF       		.byte	0xff
 2753 00f8 1A       		.byte	0x1a
 2754 00f9 35       		.byte	0x35
 2755 00fa 2E       		.byte	0x2e
 2756 00fb 9F       		.byte	0x9f
 2757 00fc 00000000 		.4byte	0
 2758 0100 00000000 		.4byte	0
 2759              	.LLST6:
 2760 0104 00000000 		.4byte	.LFB120
 2761 0108 02000000 		.4byte	.LCFI2
 2762 010c 0200     		.2byte	0x2
 2763 010e 7D       		.byte	0x7d
 2764 010f 00       		.sleb128 0
 2765 0110 02000000 		.4byte	.LCFI2
 2766 0114 28000000 		.4byte	.LFE120
 2767 0118 0200     		.2byte	0x2
 2768 011a 7D       		.byte	0x7d
 2769 011b 04       		.sleb128 4
 2770 011c 00000000 		.4byte	0
 2771 0120 00000000 		.4byte	0
 2772              	.LLST7:
 2773 0124 00000000 		.4byte	.LVL16
 2774 0128 08000000 		.4byte	.LVL17
 2775 012c 0100     		.2byte	0x1
 2776 012e 50       		.byte	0x50
 2777 012f 08000000 		.4byte	.LVL17
 2778 0133 12000000 		.4byte	.LVL19
 2779 0137 0400     		.2byte	0x4
 2780 0139 F3       		.byte	0xf3
 2781 013a 01       		.uleb128 0x1
 2782 013b 50       		.byte	0x50
 2783 013c 9F       		.byte	0x9f
 2784 013d 12000000 		.4byte	.LVL19
 2785 0141 14000000 		.4byte	.LVL20
 2786 0145 0100     		.2byte	0x1
 2787 0147 50       		.byte	0x50
ARM GAS  C:\Users\DNIEL~1\AppData\Local\Temp\ccZp6Zm1.s 			page 50


 2788 0148 14000000 		.4byte	.LVL20
 2789 014c 28000000 		.4byte	.LFE120
 2790 0150 0400     		.2byte	0x4
 2791 0152 F3       		.byte	0xf3
 2792 0153 01       		.uleb128 0x1
 2793 0154 50       		.byte	0x50
 2794 0155 9F       		.byte	0x9f
 2795 0156 00000000 		.4byte	0
 2796 015a 00000000 		.4byte	0
 2797              	.LLST8:
 2798 015e 00000000 		.4byte	.LVL16
 2799 0162 0A000000 		.4byte	.LVL18
 2800 0166 0100     		.2byte	0x1
 2801 0168 51       		.byte	0x51
 2802 0169 0A000000 		.4byte	.LVL18
 2803 016d 12000000 		.4byte	.LVL19
 2804 0171 0100     		.2byte	0x1
 2805 0173 54       		.byte	0x54
 2806 0174 12000000 		.4byte	.LVL19
 2807 0178 14000000 		.4byte	.LVL20
 2808 017c 0100     		.2byte	0x1
 2809 017e 51       		.byte	0x51
 2810 017f 14000000 		.4byte	.LVL20
 2811 0183 28000000 		.4byte	.LFE120
 2812 0187 0100     		.2byte	0x1
 2813 0189 54       		.byte	0x54
 2814 018a 00000000 		.4byte	0
 2815 018e 00000000 		.4byte	0
 2816              	.LLST9:
 2817 0192 00000000 		.4byte	.LVL16
 2818 0196 1C000000 		.4byte	.LVL21
 2819 019a 0100     		.2byte	0x1
 2820 019c 52       		.byte	0x52
 2821 019d 1C000000 		.4byte	.LVL21
 2822 01a1 21000000 		.4byte	.LVL22-1
 2823 01a5 0100     		.2byte	0x1
 2824 01a7 51       		.byte	0x51
 2825 01a8 21000000 		.4byte	.LVL22-1
 2826 01ac 28000000 		.4byte	.LFE120
 2827 01b0 0400     		.2byte	0x4
 2828 01b2 F3       		.byte	0xf3
 2829 01b3 01       		.uleb128 0x1
 2830 01b4 52       		.byte	0x52
 2831 01b5 9F       		.byte	0x9f
 2832 01b6 00000000 		.4byte	0
 2833 01ba 00000000 		.4byte	0
 2834              	.LLST10:
 2835 01be 00000000 		.4byte	.LVL16
 2836 01c2 21000000 		.4byte	.LVL22-1
 2837 01c6 0100     		.2byte	0x1
 2838 01c8 53       		.byte	0x53
 2839 01c9 21000000 		.4byte	.LVL22-1
 2840 01cd 28000000 		.4byte	.LFE120
 2841 01d1 0400     		.2byte	0x4
 2842 01d3 F3       		.byte	0xf3
 2843 01d4 01       		.uleb128 0x1
 2844 01d5 53       		.byte	0x53
ARM GAS  C:\Users\DNIEL~1\AppData\Local\Temp\ccZp6Zm1.s 			page 51


 2845 01d6 9F       		.byte	0x9f
 2846 01d7 00000000 		.4byte	0
 2847 01db 00000000 		.4byte	0
 2848              	.LLST11:
 2849 01df 00000000 		.4byte	.LFB121
 2850 01e3 02000000 		.4byte	.LCFI3
 2851 01e7 0200     		.2byte	0x2
 2852 01e9 7D       		.byte	0x7d
 2853 01ea 00       		.sleb128 0
 2854 01eb 02000000 		.4byte	.LCFI3
 2855 01ef 28000000 		.4byte	.LFE121
 2856 01f3 0200     		.2byte	0x2
 2857 01f5 7D       		.byte	0x7d
 2858 01f6 04       		.sleb128 4
 2859 01f7 00000000 		.4byte	0
 2860 01fb 00000000 		.4byte	0
 2861              	.LLST12:
 2862 01ff 00000000 		.4byte	.LVL23
 2863 0203 08000000 		.4byte	.LVL24
 2864 0207 0100     		.2byte	0x1
 2865 0209 50       		.byte	0x50
 2866 020a 08000000 		.4byte	.LVL24
 2867 020e 12000000 		.4byte	.LVL26
 2868 0212 0400     		.2byte	0x4
 2869 0214 F3       		.byte	0xf3
 2870 0215 01       		.uleb128 0x1
 2871 0216 50       		.byte	0x50
 2872 0217 9F       		.byte	0x9f
 2873 0218 12000000 		.4byte	.LVL26
 2874 021c 14000000 		.4byte	.LVL27
 2875 0220 0100     		.2byte	0x1
 2876 0222 50       		.byte	0x50
 2877 0223 14000000 		.4byte	.LVL27
 2878 0227 28000000 		.4byte	.LFE121
 2879 022b 0400     		.2byte	0x4
 2880 022d F3       		.byte	0xf3
 2881 022e 01       		.uleb128 0x1
 2882 022f 50       		.byte	0x50
 2883 0230 9F       		.byte	0x9f
 2884 0231 00000000 		.4byte	0
 2885 0235 00000000 		.4byte	0
 2886              	.LLST13:
 2887 0239 00000000 		.4byte	.LVL23
 2888 023d 0A000000 		.4byte	.LVL25
 2889 0241 0100     		.2byte	0x1
 2890 0243 51       		.byte	0x51
 2891 0244 0A000000 		.4byte	.LVL25
 2892 0248 12000000 		.4byte	.LVL26
 2893 024c 0100     		.2byte	0x1
 2894 024e 54       		.byte	0x54
 2895 024f 12000000 		.4byte	.LVL26
 2896 0253 14000000 		.4byte	.LVL27
 2897 0257 0100     		.2byte	0x1
 2898 0259 51       		.byte	0x51
 2899 025a 14000000 		.4byte	.LVL27
 2900 025e 28000000 		.4byte	.LFE121
 2901 0262 0100     		.2byte	0x1
ARM GAS  C:\Users\DNIEL~1\AppData\Local\Temp\ccZp6Zm1.s 			page 52


 2902 0264 54       		.byte	0x54
 2903 0265 00000000 		.4byte	0
 2904 0269 00000000 		.4byte	0
 2905              	.LLST14:
 2906 026d 00000000 		.4byte	.LVL23
 2907 0271 1C000000 		.4byte	.LVL28
 2908 0275 0100     		.2byte	0x1
 2909 0277 52       		.byte	0x52
 2910 0278 1C000000 		.4byte	.LVL28
 2911 027c 21000000 		.4byte	.LVL29-1
 2912 0280 0100     		.2byte	0x1
 2913 0282 51       		.byte	0x51
 2914 0283 21000000 		.4byte	.LVL29-1
 2915 0287 28000000 		.4byte	.LFE121
 2916 028b 0400     		.2byte	0x4
 2917 028d F3       		.byte	0xf3
 2918 028e 01       		.uleb128 0x1
 2919 028f 52       		.byte	0x52
 2920 0290 9F       		.byte	0x9f
 2921 0291 00000000 		.4byte	0
 2922 0295 00000000 		.4byte	0
 2923              	.LLST15:
 2924 0299 00000000 		.4byte	.LVL23
 2925 029d 21000000 		.4byte	.LVL29-1
 2926 02a1 0100     		.2byte	0x1
 2927 02a3 53       		.byte	0x53
 2928 02a4 21000000 		.4byte	.LVL29-1
 2929 02a8 28000000 		.4byte	.LFE121
 2930 02ac 0400     		.2byte	0x4
 2931 02ae F3       		.byte	0xf3
 2932 02af 01       		.uleb128 0x1
 2933 02b0 53       		.byte	0x53
 2934 02b1 9F       		.byte	0x9f
 2935 02b2 00000000 		.4byte	0
 2936 02b6 00000000 		.4byte	0
 2937              	.LLST16:
 2938 02ba 00000000 		.4byte	.LFB122
 2939 02be 02000000 		.4byte	.LCFI4
 2940 02c2 0200     		.2byte	0x2
 2941 02c4 7D       		.byte	0x7d
 2942 02c5 00       		.sleb128 0
 2943 02c6 02000000 		.4byte	.LCFI4
 2944 02ca 44000000 		.4byte	.LFE122
 2945 02ce 0200     		.2byte	0x2
 2946 02d0 7D       		.byte	0x7d
 2947 02d1 08       		.sleb128 8
 2948 02d2 00000000 		.4byte	0
 2949 02d6 00000000 		.4byte	0
 2950              	.LLST17:
 2951 02da 00000000 		.4byte	.LVL30
 2952 02de 14000000 		.4byte	.LVL31
 2953 02e2 0100     		.2byte	0x1
 2954 02e4 50       		.byte	0x50
 2955 02e5 14000000 		.4byte	.LVL31
 2956 02e9 16000000 		.4byte	.LVL32
 2957 02ed 0400     		.2byte	0x4
 2958 02ef F3       		.byte	0xf3
ARM GAS  C:\Users\DNIEL~1\AppData\Local\Temp\ccZp6Zm1.s 			page 53


 2959 02f0 01       		.uleb128 0x1
 2960 02f1 50       		.byte	0x50
 2961 02f2 9F       		.byte	0x9f
 2962 02f3 16000000 		.4byte	.LVL32
 2963 02f7 18000000 		.4byte	.LVL33
 2964 02fb 0100     		.2byte	0x1
 2965 02fd 50       		.byte	0x50
 2966 02fe 18000000 		.4byte	.LVL33
 2967 0302 22000000 		.4byte	.LVL36
 2968 0306 0400     		.2byte	0x4
 2969 0308 F3       		.byte	0xf3
 2970 0309 01       		.uleb128 0x1
 2971 030a 50       		.byte	0x50
 2972 030b 9F       		.byte	0x9f
 2973 030c 22000000 		.4byte	.LVL36
 2974 0310 28000000 		.4byte	.LVL38
 2975 0314 0100     		.2byte	0x1
 2976 0316 50       		.byte	0x50
 2977 0317 28000000 		.4byte	.LVL38
 2978 031b 2C000000 		.4byte	.LVL39
 2979 031f 0400     		.2byte	0x4
 2980 0321 F3       		.byte	0xf3
 2981 0322 01       		.uleb128 0x1
 2982 0323 50       		.byte	0x50
 2983 0324 9F       		.byte	0x9f
 2984 0325 2C000000 		.4byte	.LVL39
 2985 0329 30000000 		.4byte	.LVL40
 2986 032d 0100     		.2byte	0x1
 2987 032f 50       		.byte	0x50
 2988 0330 30000000 		.4byte	.LVL40
 2989 0334 36000000 		.4byte	.LVL41
 2990 0338 0400     		.2byte	0x4
 2991 033a F3       		.byte	0xf3
 2992 033b 01       		.uleb128 0x1
 2993 033c 50       		.byte	0x50
 2994 033d 9F       		.byte	0x9f
 2995 033e 36000000 		.4byte	.LVL41
 2996 0342 3E000000 		.4byte	.LVL42
 2997 0346 0100     		.2byte	0x1
 2998 0348 50       		.byte	0x50
 2999 0349 3E000000 		.4byte	.LVL42
 3000 034d 44000000 		.4byte	.LFE122
 3001 0351 0400     		.2byte	0x4
 3002 0353 F3       		.byte	0xf3
 3003 0354 01       		.uleb128 0x1
 3004 0355 50       		.byte	0x50
 3005 0356 9F       		.byte	0x9f
 3006 0357 00000000 		.4byte	0
 3007 035b 00000000 		.4byte	0
 3008              	.LLST18:
 3009 035f 00000000 		.4byte	.LVL30
 3010 0363 1A000000 		.4byte	.LVL34
 3011 0367 0100     		.2byte	0x1
 3012 0369 51       		.byte	0x51
 3013 036a 1A000000 		.4byte	.LVL34
 3014 036e 22000000 		.4byte	.LVL36
 3015 0372 0400     		.2byte	0x4
ARM GAS  C:\Users\DNIEL~1\AppData\Local\Temp\ccZp6Zm1.s 			page 54


 3016 0374 F3       		.byte	0xf3
 3017 0375 01       		.uleb128 0x1
 3018 0376 51       		.byte	0x51
 3019 0377 9F       		.byte	0x9f
 3020 0378 22000000 		.4byte	.LVL36
 3021 037c 24000000 		.4byte	.LVL37
 3022 0380 0100     		.2byte	0x1
 3023 0382 51       		.byte	0x51
 3024 0383 24000000 		.4byte	.LVL37
 3025 0387 2C000000 		.4byte	.LVL39
 3026 038b 0400     		.2byte	0x4
 3027 038d F3       		.byte	0xf3
 3028 038e 01       		.uleb128 0x1
 3029 038f 51       		.byte	0x51
 3030 0390 9F       		.byte	0x9f
 3031 0391 2C000000 		.4byte	.LVL39
 3032 0395 44000000 		.4byte	.LFE122
 3033 0399 0100     		.2byte	0x1
 3034 039b 51       		.byte	0x51
 3035 039c 00000000 		.4byte	0
 3036 03a0 00000000 		.4byte	0
 3037              	.LLST19:
 3038 03a4 00000000 		.4byte	.LVL30
 3039 03a8 1A000000 		.4byte	.LVL34
 3040 03ac 0100     		.2byte	0x1
 3041 03ae 52       		.byte	0x52
 3042 03af 1A000000 		.4byte	.LVL34
 3043 03b3 22000000 		.4byte	.LVL36
 3044 03b7 0400     		.2byte	0x4
 3045 03b9 F3       		.byte	0xf3
 3046 03ba 01       		.uleb128 0x1
 3047 03bb 52       		.byte	0x52
 3048 03bc 9F       		.byte	0x9f
 3049 03bd 22000000 		.4byte	.LVL36
 3050 03c1 44000000 		.4byte	.LFE122
 3051 03c5 0100     		.2byte	0x1
 3052 03c7 52       		.byte	0x52
 3053 03c8 00000000 		.4byte	0
 3054 03cc 00000000 		.4byte	0
 3055              		.section	.debug_aranges,"",%progbits
 3056 0000 44000000 		.4byte	0x44
 3057 0004 0200     		.2byte	0x2
 3058 0006 00000000 		.4byte	.Ldebug_info0
 3059 000a 04       		.byte	0x4
 3060 000b 00       		.byte	0
 3061 000c 0000     		.2byte	0
 3062 000e 0000     		.2byte	0
 3063 0010 00000000 		.4byte	.LFB118
 3064 0014 28000000 		.4byte	.LFE118-.LFB118
 3065 0018 00000000 		.4byte	.LFB119
 3066 001c 28000000 		.4byte	.LFE119-.LFB119
 3067 0020 00000000 		.4byte	.LFB120
 3068 0024 28000000 		.4byte	.LFE120-.LFB120
 3069 0028 00000000 		.4byte	.LFB121
 3070 002c 28000000 		.4byte	.LFE121-.LFB121
 3071 0030 00000000 		.4byte	.LFB122
 3072 0034 44000000 		.4byte	.LFE122-.LFB122
ARM GAS  C:\Users\DNIEL~1\AppData\Local\Temp\ccZp6Zm1.s 			page 55


 3073 0038 00000000 		.4byte	.LFB123
 3074 003c 0C000000 		.4byte	.LFE123-.LFB123
 3075 0040 00000000 		.4byte	0
 3076 0044 00000000 		.4byte	0
 3077              		.section	.debug_ranges,"",%progbits
 3078              	.Ldebug_ranges0:
 3079 0000 00000000 		.4byte	.LFB118
 3080 0004 28000000 		.4byte	.LFE118
 3081 0008 00000000 		.4byte	.LFB119
 3082 000c 28000000 		.4byte	.LFE119
 3083 0010 00000000 		.4byte	.LFB120
 3084 0014 28000000 		.4byte	.LFE120
 3085 0018 00000000 		.4byte	.LFB121
 3086 001c 28000000 		.4byte	.LFE121
 3087 0020 00000000 		.4byte	.LFB122
 3088 0024 44000000 		.4byte	.LFE122
 3089 0028 00000000 		.4byte	.LFB123
 3090 002c 0C000000 		.4byte	.LFE123
 3091 0030 00000000 		.4byte	0
 3092 0034 00000000 		.4byte	0
 3093              		.section	.debug_line,"",%progbits
 3094              	.Ldebug_line0:
 3095 0000 8A030000 		.section	.debug_str,"MS",%progbits,1
 3095      0200DA02 
 3095      00000201 
 3095      FB0E0D00 
 3095      01010101 
 3096              	.LASF114:
 3097 0000 426C6F63 		.ascii	"BlockDeviceInfo\000"
 3097      6B446576 
 3097      69636549 
 3097      6E666F00 
 3098              	.LASF154:
 3099 0010 636F756E 		.ascii	"count\000"
 3099      7400
 3100              	.LASF121:
 3101 0016 63617061 		.ascii	"capacity\000"
 3101      63697479 
 3101      00
 3102              	.LASF144:
 3103 001f 5245535F 		.ascii	"RES_WRPRT\000"
 3103      57525052 
 3103      5400
 3104              	.LASF58:
 3105 0029 4D304152 		.ascii	"M0AR\000"
 3105      00
 3106              	.LASF113:
 3107 002e 626C6B5F 		.ascii	"blk_num\000"
 3107      6E756D00 
 3108              	.LASF52:
 3109 0036 7264796D 		.ascii	"rdymsg\000"
 3109      736700
 3110              	.LASF119:
 3111 003d 53444344 		.ascii	"SDCDriver\000"
 3111      72697665 
 3111      7200
 3112              	.LASF161:
ARM GAS  C:\Users\DNIEL~1\AppData\Local\Temp\ccZp6Zm1.s 			page 56


 3113 0047 53444344 		.ascii	"SDCD1\000"
 3113      3100
 3114              	.LASF145:
 3115 004d 5245535F 		.ascii	"RES_NOTRDY\000"
 3115      4E4F5452 
 3115      445900
 3116              	.LASF78:
 3117 0058 424B5033 		.ascii	"BKP3R\000"
 3117      5200
 3118              	.LASF96:
 3119 005e 73747265 		.ascii	"stream\000"
 3119      616D00
 3120              	.LASF61:
 3121 0065 50524552 		.ascii	"PRER\000"
 3121      00
 3122              	.LASF90:
 3123 006a 424B5031 		.ascii	"BKP15R\000"
 3123      355200
 3124              	.LASF42:
 3125 0071 54687265 		.ascii	"ThreadsQueue\000"
 3125      61647351 
 3125      75657565 
 3125      00
 3126              	.LASF53:
 3127 007e 65786974 		.ascii	"exitcode\000"
 3127      636F6465 
 3127      00
 3128              	.LASF100:
 3129 0087 76656374 		.ascii	"vector\000"
 3129      6F7200
 3130              	.LASF123:
 3131 008e 63617264 		.ascii	"cardmode\000"
 3131      6D6F6465 
 3131      00
 3132              	.LASF116:
 3133 0097 69645F72 		.ascii	"id_rtc\000"
 3133      746300
 3134              	.LASF159:
 3135 009e 49544D5F 		.ascii	"ITM_RxBuffer\000"
 3135      52784275 
 3135      66666572 
 3135      00
 3136              	.LASF65:
 3137 00ab 414C524D 		.ascii	"ALRMBR\000"
 3137      425200
 3138              	.LASF111:
 3139 00b2 626C6B73 		.ascii	"blkstate_t\000"
 3139      74617465 
 3139      5F7400
 3140              	.LASF95:
 3141 00bd 5254435F 		.ascii	"RTC_TypeDef\000"
 3141      54797065 
 3141      44656600 
 3142              	.LASF155:
 3143 00c9 6469736B 		.ascii	"disk_write\000"
 3143      5F777269 
 3143      746500
ARM GAS  C:\Users\DNIEL~1\AppData\Local\Temp\ccZp6Zm1.s 			page 57


 3144              	.LASF25:
 3145 00d4 705F7072 		.ascii	"p_prio\000"
 3145      696F00
 3146              	.LASF150:
 3147 00db 73746174 		.ascii	"stat\000"
 3147      00
 3148              	.LASF10:
 3149 00e0 6C6F6E67 		.ascii	"long long int\000"
 3149      206C6F6E 
 3149      6720696E 
 3149      7400
 3150              	.LASF1:
 3151 00ee 7369676E 		.ascii	"signed char\000"
 3151      65642063 
 3151      68617200 
 3152              	.LASF130:
 3153 00fa 69735F69 		.ascii	"is_inserted\000"
 3153      6E736572 
 3153      74656400 
 3154              	.LASF152:
 3155 0106 62756666 		.ascii	"buff\000"
 3155      00
 3156              	.LASF41:
 3157 010b 705F6D70 		.ascii	"p_mpool\000"
 3157      6F6F6C00 
 3158              	.LASF12:
 3159 0113 626F6F6C 		.ascii	"bool_t\000"
 3159      5F7400
 3160              	.LASF49:
 3161 011a 6D5F7175 		.ascii	"m_queue\000"
 3161      65756500 
 3162              	.LASF133:
 3163 0122 64697363 		.ascii	"disconnect\000"
 3163      6F6E6E65 
 3163      637400
 3164              	.LASF69:
 3165 012d 54535353 		.ascii	"TSSSR\000"
 3165      5200
 3166              	.LASF103:
 3167 0133 424C4B5F 		.ascii	"BLK_STOP\000"
 3167      53544F50 
 3167      00
 3168              	.LASF158:
 3169 013c 6765745F 		.ascii	"get_fattime\000"
 3169      66617474 
 3169      696D6500 
 3170              	.LASF102:
 3171 0148 424C4B5F 		.ascii	"BLK_UNINIT\000"
 3171      554E494E 
 3171      495400
 3172              	.LASF120:
 3173 0153 73746174 		.ascii	"state\000"
 3173      6500
 3174              	.LASF7:
 3175 0159 6C6F6E67 		.ascii	"long int\000"
 3175      20696E74 
 3175      00
ARM GAS  C:\Users\DNIEL~1\AppData\Local\Temp\ccZp6Zm1.s 			page 58


 3176              	.LASF79:
 3177 0162 424B5034 		.ascii	"BKP4R\000"
 3177      5200
 3178              	.LASF73:
 3179 0168 414C524D 		.ascii	"ALRMBSSR\000"
 3179      42535352 
 3179      00
 3180              	.LASF146:
 3181 0171 5245535F 		.ascii	"RES_PARERR\000"
 3181      50415245 
 3181      525200
 3182              	.LASF0:
 3183 017c 756E7369 		.ascii	"unsigned int\000"
 3183      676E6564 
 3183      20696E74 
 3183      00
 3184              	.LASF91:
 3185 0189 424B5031 		.ascii	"BKP16R\000"
 3185      365200
 3186              	.LASF11:
 3187 0190 6C6F6E67 		.ascii	"long long unsigned int\000"
 3187      206C6F6E 
 3187      6720756E 
 3187      7369676E 
 3187      65642069 
 3188              	.LASF140:
 3189 01a7 44574F52 		.ascii	"DWORD\000"
 3189      4400
 3190              	.LASF142:
 3191 01ad 5245535F 		.ascii	"RES_OK\000"
 3191      4F4B00
 3192              	.LASF27:
 3193 01b4 705F6E65 		.ascii	"p_newer\000"
 3193      77657200 
 3194              	.LASF129:
 3195 01bc 53444344 		.ascii	"SDCDriverVMT\000"
 3195      72697665 
 3195      72564D54 
 3195      00
 3196              	.LASF137:
 3197 01c9 6765745F 		.ascii	"get_info\000"
 3197      696E666F 
 3197      00
 3198              	.LASF166:
 3199 01d2 72746347 		.ascii	"rtcGetTimeFat\000"
 3199      65745469 
 3199      6D654661 
 3199      7400
 3200              	.LASF15:
 3201 01e0 74737461 		.ascii	"tstate_t\000"
 3201      74655F74 
 3201      00
 3202              	.LASF148:
 3203 01e9 6469736B 		.ascii	"disk_initialize\000"
 3203      5F696E69 
 3203      7469616C 
 3203      697A6500 
ARM GAS  C:\Users\DNIEL~1\AppData\Local\Temp\ccZp6Zm1.s 			page 59


 3204              	.LASF127:
 3205 01f9 64756D6D 		.ascii	"dummy\000"
 3205      7900
 3206              	.LASF112:
 3207 01ff 626C6B5F 		.ascii	"blk_size\000"
 3207      73697A65 
 3207      00
 3208              	.LASF138:
 3209 0208 42595445 		.ascii	"BYTE\000"
 3209      00
 3210              	.LASF117:
 3211 020d 7364636D 		.ascii	"sdcmode_t\000"
 3211      6F64655F 
 3211      7400
 3212              	.LASF72:
 3213 0217 414C524D 		.ascii	"ALRMASSR\000"
 3213      41535352 
 3213      00
 3214              	.LASF31:
 3215 0220 705F666C 		.ascii	"p_flags\000"
 3215      61677300 
 3216              	.LASF68:
 3217 0228 54534452 		.ascii	"TSDR\000"
 3217      00
 3218              	.LASF47:
 3219 022d 73697A65 		.ascii	"sizetype\000"
 3219      74797065 
 3219      00
 3220              	.LASF80:
 3221 0236 424B5035 		.ascii	"BKP5R\000"
 3221      5200
 3222              	.LASF124:
 3223 023c 6572726F 		.ascii	"errors\000"
 3223      727300
 3224              	.LASF92:
 3225 0243 424B5031 		.ascii	"BKP17R\000"
 3225      375200
 3226              	.LASF36:
 3227 024a 705F6D73 		.ascii	"p_msgqueue\000"
 3227      67717565 
 3227      756500
 3228              	.LASF149:
 3229 0255 6469736B 		.ascii	"disk_status\000"
 3229      5F737461 
 3229      74757300 
 3230              	.LASF98:
 3231 0261 69736869 		.ascii	"ishift\000"
 3231      667400
 3232              	.LASF46:
 3233 0268 636F6E74 		.ascii	"context\000"
 3233      65787400 
 3234              	.LASF4:
 3235 0270 73686F72 		.ascii	"short unsigned int\000"
 3235      7420756E 
 3235      7369676E 
 3235      65642069 
 3235      6E7400
ARM GAS  C:\Users\DNIEL~1\AppData\Local\Temp\ccZp6Zm1.s 			page 60


 3236              	.LASF104:
 3237 0283 424C4B5F 		.ascii	"BLK_ACTIVE\000"
 3237      41435449 
 3237      564500
 3238              	.LASF71:
 3239 028e 54414643 		.ascii	"TAFCR\000"
 3239      5200
 3240              	.LASF19:
 3241 0294 6D73675F 		.ascii	"msg_t\000"
 3241      7400
 3242              	.LASF105:
 3243 029a 424C4B5F 		.ascii	"BLK_CONNECTING\000"
 3243      434F4E4E 
 3243      45435449 
 3243      4E4700
 3244              	.LASF85:
 3245 02a9 424B5031 		.ascii	"BKP10R\000"
 3245      305200
 3246              	.LASF14:
 3247 02b0 746D6F64 		.ascii	"tmode_t\000"
 3247      655F7400 
 3248              	.LASF67:
 3249 02b8 54535452 		.ascii	"TSTR\000"
 3249      00
 3250              	.LASF153:
 3251 02bd 73656374 		.ascii	"sector\000"
 3251      6F7200
 3252              	.LASF43:
 3253 02c4 54687265 		.ascii	"ThreadsList\000"
 3253      6164734C 
 3253      69737400 
 3254              	.LASF39:
 3255 02d0 705F6D74 		.ascii	"p_mtxlist\000"
 3255      786C6973 
 3255      7400
 3256              	.LASF20:
 3257 02da 6576656E 		.ascii	"eventmask_t\000"
 3257      746D6173 
 3257      6B5F7400 
 3258              	.LASF48:
 3259 02e6 4D757465 		.ascii	"Mutex\000"
 3259      7800
 3260              	.LASF156:
 3261 02ec 6469736B 		.ascii	"disk_ioctl\000"
 3261      5F696F63 
 3261      746C00
 3262              	.LASF81:
 3263 02f7 424B5036 		.ascii	"BKP6R\000"
 3263      5200
 3264              	.LASF135:
 3265 02fd 77726974 		.ascii	"write\000"
 3265      6500
 3266              	.LASF93:
 3267 0303 424B5031 		.ascii	"BKP18R\000"
 3267      385200
 3268              	.LASF108:
 3269 030a 424C4B5F 		.ascii	"BLK_READING\000"
ARM GAS  C:\Users\DNIEL~1\AppData\Local\Temp\ccZp6Zm1.s 			page 61


 3269      52454144 
 3269      494E4700 
 3270              	.LASF70:
 3271 0316 43414C52 		.ascii	"CALR\000"
 3271      00
 3272              	.LASF162:
 3273 031b 7364635F 		.ascii	"sdc_lld_is_write_protected\000"
 3273      6C6C645F 
 3273      69735F77 
 3273      72697465 
 3273      5F70726F 
 3274              	.LASF139:
 3275 0336 574F5244 		.ascii	"WORD\000"
 3275      00
 3276              	.LASF167:
 3277 033b 474E5520 		.ascii	"GNU C 4.7.4 20140401 (release) [ARM/embedded-4_7-br"
 3277      4320342E 
 3277      372E3420 
 3277      32303134 
 3277      30343031 
 3278 036e 616E6368 		.ascii	"anch revision 209195]\000"
 3278      20726576 
 3278      6973696F 
 3278      6E203230 
 3278      39313935 
 3279              	.LASF165:
 3280 0384 73646345 		.ascii	"sdcErase\000"
 3280      72617365 
 3280      00
 3281              	.LASF164:
 3282 038d 73646357 		.ascii	"sdcWrite\000"
 3282      72697465 
 3282      00
 3283              	.LASF107:
 3284 0396 424C4B5F 		.ascii	"BLK_READY\000"
 3284      52454144 
 3284      5900
 3285              	.LASF86:
 3286 03a0 424B5031 		.ascii	"BKP11R\000"
 3286      315200
 3287              	.LASF163:
 3288 03a7 73646352 		.ascii	"sdcRead\000"
 3288      65616400 
 3289              	.LASF64:
 3290 03af 414C524D 		.ascii	"ALRMAR\000"
 3290      415200
 3291              	.LASF82:
 3292 03b6 424B5037 		.ascii	"BKP7R\000"
 3292      5200
 3293              	.LASF16:
 3294 03bc 74726566 		.ascii	"trefs_t\000"
 3294      735F7400 
 3295              	.LASF94:
 3296 03c4 424B5031 		.ascii	"BKP19R\000"
 3296      395200
 3297              	.LASF24:
 3298 03cb 705F7072 		.ascii	"p_prev\000"
ARM GAS  C:\Users\DNIEL~1\AppData\Local\Temp\ccZp6Zm1.s 			page 62


 3298      657600
 3299              	.LASF168:
 3300 03d2 2E2E2F2E 		.ascii	"../../../ChibiOS/os/various/fatfs_bindings/fatfs_di"
 3300      2E2F2E2E 
 3300      2F436869 
 3300      62694F53 
 3300      2F6F732F 
 3301 0405 736B696F 		.ascii	"skio.c\000"
 3301      2E6300
 3302              	.LASF101:
 3303 040c 73746D33 		.ascii	"stm32_dma_stream_t\000"
 3303      325F646D 
 3303      615F7374 
 3303      7265616D 
 3303      5F7400
 3304              	.LASF18:
 3305 041f 74707269 		.ascii	"tprio_t\000"
 3305      6F5F7400 
 3306              	.LASF125:
 3307 0427 74687265 		.ascii	"thread\000"
 3307      616400
 3308              	.LASF13:
 3309 042e 5F426F6F 		.ascii	"_Bool\000"
 3309      6C00
 3310              	.LASF6:
 3311 0434 696E7433 		.ascii	"int32_t\000"
 3311      325F7400 
 3312              	.LASF2:
 3313 043c 756E7369 		.ascii	"unsigned char\000"
 3313      676E6564 
 3313      20636861 
 3313      7200
 3314              	.LASF115:
 3315 044a 52544344 		.ascii	"RTCDriver\000"
 3315      72697665 
 3315      7200
 3316              	.LASF160:
 3317 0454 52544344 		.ascii	"RTCD1\000"
 3317      3100
 3318              	.LASF3:
 3319 045a 73686F72 		.ascii	"short int\000"
 3319      7420696E 
 3319      7400
 3320              	.LASF30:
 3321 0464 705F7374 		.ascii	"p_state\000"
 3321      61746500 
 3322              	.LASF109:
 3323 046c 424C4B5F 		.ascii	"BLK_WRITING\000"
 3323      57524954 
 3323      494E4700 
 3324              	.LASF33:
 3325 0478 705F7072 		.ascii	"p_preempt\000"
 3325      65656D70 
 3325      7400
 3326              	.LASF28:
 3327 0482 705F6F6C 		.ascii	"p_older\000"
 3327      64657200 
ARM GAS  C:\Users\DNIEL~1\AppData\Local\Temp\ccZp6Zm1.s 			page 63


 3328              	.LASF75:
 3329 048a 424B5030 		.ascii	"BKP0R\000"
 3329      5200
 3330              	.LASF54:
 3331 0490 77746F62 		.ascii	"wtobjp\000"
 3331      6A7000
 3332              	.LASF55:
 3333 0497 65776D61 		.ascii	"ewmask\000"
 3333      736B00
 3334              	.LASF23:
 3335 049e 705F6E65 		.ascii	"p_next\000"
 3335      787400
 3336              	.LASF87:
 3337 04a5 424B5031 		.ascii	"BKP12R\000"
 3337      325200
 3338              	.LASF22:
 3339 04ac 54687265 		.ascii	"Thread\000"
 3339      616400
 3340              	.LASF132:
 3341 04b3 636F6E6E 		.ascii	"connect\000"
 3341      65637400 
 3342              	.LASF38:
 3343 04bb 705F6570 		.ascii	"p_epending\000"
 3343      656E6469 
 3343      6E6700
 3344              	.LASF97:
 3345 04c6 69666372 		.ascii	"ifcr\000"
 3345      00
 3346              	.LASF83:
 3347 04cb 424B5038 		.ascii	"BKP8R\000"
 3347      5200
 3348              	.LASF63:
 3349 04d1 43414C49 		.ascii	"CALIBR\000"
 3349      425200
 3350              	.LASF44:
 3351 04d8 72656761 		.ascii	"regarm_t\000"
 3351      726D5F74 
 3351      00
 3352              	.LASF62:
 3353 04e1 57555452 		.ascii	"WUTR\000"
 3353      00
 3354              	.LASF147:
 3355 04e6 44524553 		.ascii	"DRESULT\000"
 3355      554C5400 
 3356              	.LASF17:
 3357 04ee 74736C69 		.ascii	"tslices_t\000"
 3357      6365735F 
 3357      7400
 3358              	.LASF9:
 3359 04f8 6C6F6E67 		.ascii	"long unsigned int\000"
 3359      20756E73 
 3359      69676E65 
 3359      6420696E 
 3359      7400
 3360              	.LASF56:
 3361 050a 63686172 		.ascii	"char\000"
 3361      00
ARM GAS  C:\Users\DNIEL~1\AppData\Local\Temp\ccZp6Zm1.s 			page 64


 3362              	.LASF106:
 3363 050f 424C4B5F 		.ascii	"BLK_DISCONNECTING\000"
 3363      44495343 
 3363      4F4E4E45 
 3363      4354494E 
 3363      4700
 3364              	.LASF122:
 3365 0521 636F6E66 		.ascii	"config\000"
 3365      696700
 3366              	.LASF51:
 3367 0528 6D5F6E65 		.ascii	"m_next\000"
 3367      787400
 3368              	.LASF21:
 3369 052f 73797374 		.ascii	"systime_t\000"
 3369      696D655F 
 3369      7400
 3370              	.LASF40:
 3371 0539 705F7265 		.ascii	"p_realprio\000"
 3371      616C7072 
 3371      696F00
 3372              	.LASF141:
 3373 0544 44535441 		.ascii	"DSTATUS\000"
 3373      54555300 
 3374              	.LASF57:
 3375 054c 4E445452 		.ascii	"NDTR\000"
 3375      00
 3376              	.LASF76:
 3377 0551 424B5031 		.ascii	"BKP1R\000"
 3377      5200
 3378              	.LASF60:
 3379 0557 444D415F 		.ascii	"DMA_Stream_TypeDef\000"
 3379      53747265 
 3379      616D5F54 
 3379      79706544 
 3379      656600
 3380              	.LASF157:
 3381 056a 6374726C 		.ascii	"ctrl\000"
 3381      00
 3382              	.LASF88:
 3383 056f 424B5031 		.ascii	"BKP13R\000"
 3383      335200
 3384              	.LASF34:
 3385 0576 705F7469 		.ascii	"p_time\000"
 3385      6D6500
 3386              	.LASF118:
 3387 057d 73646366 		.ascii	"sdcflags_t\000"
 3387      6C616773 
 3387      5F7400
 3388              	.LASF66:
 3389 0588 53484946 		.ascii	"SHIFTR\000"
 3389      545200
 3390              	.LASF45:
 3391 058f 696E7463 		.ascii	"intctx\000"
 3391      747800
 3392              	.LASF131:
 3393 0596 69735F70 		.ascii	"is_protected\000"
 3393      726F7465 
ARM GAS  C:\Users\DNIEL~1\AppData\Local\Temp\ccZp6Zm1.s 			page 65


 3393      63746564 
 3393      00
 3394              	.LASF59:
 3395 05a3 4D314152 		.ascii	"M1AR\000"
 3395      00
 3396              	.LASF99:
 3397 05a8 73656C66 		.ascii	"selfindex\000"
 3397      696E6465 
 3397      7800
 3398              	.LASF8:
 3399 05b2 75696E74 		.ascii	"uint32_t\000"
 3399      33325F74 
 3399      00
 3400              	.LASF84:
 3401 05bb 424B5039 		.ascii	"BKP9R\000"
 3401      5200
 3402              	.LASF29:
 3403 05c1 705F6E61 		.ascii	"p_name\000"
 3403      6D6500
 3404              	.LASF32:
 3405 05c8 705F7265 		.ascii	"p_refs\000"
 3405      667300
 3406              	.LASF110:
 3407 05cf 424C4B5F 		.ascii	"BLK_SYNCING\000"
 3407      53594E43 
 3407      494E4700 
 3408              	.LASF169:
 3409 05db 433A5C55 		.ascii	"C:\\Users\\D\341niel\\git\\Smarty\\smarty\\firmware"
 3409      73657273 
 3409      5C44E16E 
 3409      69656C5C 
 3409      6769745C 
 3410 0605 00       		.ascii	"\000"
 3411              	.LASF128:
 3412 0606 53444343 		.ascii	"SDCConfig\000"
 3412      6F6E6669 
 3412      6700
 3413              	.LASF37:
 3414 0610 705F6D73 		.ascii	"p_msg\000"
 3414      6700
 3415              	.LASF5:
 3416 0616 75696E74 		.ascii	"uint8_t\000"
 3416      385F7400 
 3417              	.LASF136:
 3418 061e 73796E63 		.ascii	"sync\000"
 3418      00
 3419              	.LASF126:
 3420 0623 646D616D 		.ascii	"dmamode\000"
 3420      6F646500 
 3421              	.LASF134:
 3422 062b 72656164 		.ascii	"read\000"
 3422      00
 3423              	.LASF143:
 3424 0630 5245535F 		.ascii	"RES_ERROR\000"
 3424      4552524F 
 3424      5200
 3425              	.LASF77:
ARM GAS  C:\Users\DNIEL~1\AppData\Local\Temp\ccZp6Zm1.s 			page 66


 3426 063a 424B5032 		.ascii	"BKP2R\000"
 3426      5200
 3427              	.LASF89:
 3428 0640 424B5031 		.ascii	"BKP14R\000"
 3428      345200
 3429              	.LASF74:
 3430 0647 52455345 		.ascii	"RESERVED7\000"
 3430      52564544 
 3430      3700
 3431              	.LASF151:
 3432 0651 6469736B 		.ascii	"disk_read\000"
 3432      5F726561 
 3432      6400
 3433              	.LASF50:
 3434 065b 6D5F6F77 		.ascii	"m_owner\000"
 3434      6E657200 
 3435              	.LASF26:
 3436 0663 705F6374 		.ascii	"p_ctx\000"
 3436      7800
 3437              	.LASF35:
 3438 0669 705F7761 		.ascii	"p_waiting\000"
 3438      6974696E 
 3438      6700
 3439              		.ident	"GCC: (GNU Tools for ARM Embedded Processors) 4.7.4 20140401 (release) [ARM/embedded-4_7-br
ARM GAS  C:\Users\DNIEL~1\AppData\Local\Temp\ccZp6Zm1.s 			page 67


DEFINED SYMBOLS
                            *ABS*:00000000 fatfs_diskio.c
C:\Users\DNIEL~1\AppData\Local\Temp\ccZp6Zm1.s:19     .text.disk_initialize:00000000 $t
C:\Users\DNIEL~1\AppData\Local\Temp\ccZp6Zm1.s:25     .text.disk_initialize:00000000 disk_initialize
C:\Users\DNIEL~1\AppData\Local\Temp\ccZp6Zm1.s:73     .text.disk_initialize:00000024 $d
C:\Users\DNIEL~1\AppData\Local\Temp\ccZp6Zm1.s:78     .text.disk_status:00000000 $t
C:\Users\DNIEL~1\AppData\Local\Temp\ccZp6Zm1.s:84     .text.disk_status:00000000 disk_status
C:\Users\DNIEL~1\AppData\Local\Temp\ccZp6Zm1.s:131    .text.disk_status:00000024 $d
C:\Users\DNIEL~1\AppData\Local\Temp\ccZp6Zm1.s:136    .text.disk_read:00000000 $t
C:\Users\DNIEL~1\AppData\Local\Temp\ccZp6Zm1.s:142    .text.disk_read:00000000 disk_read
C:\Users\DNIEL~1\AppData\Local\Temp\ccZp6Zm1.s:190    .text.disk_read:00000024 $d
C:\Users\DNIEL~1\AppData\Local\Temp\ccZp6Zm1.s:195    .text.disk_write:00000000 $t
C:\Users\DNIEL~1\AppData\Local\Temp\ccZp6Zm1.s:201    .text.disk_write:00000000 disk_write
C:\Users\DNIEL~1\AppData\Local\Temp\ccZp6Zm1.s:249    .text.disk_write:00000024 $d
C:\Users\DNIEL~1\AppData\Local\Temp\ccZp6Zm1.s:254    .text.disk_ioctl:00000000 $t
C:\Users\DNIEL~1\AppData\Local\Temp\ccZp6Zm1.s:260    .text.disk_ioctl:00000000 disk_ioctl
C:\Users\DNIEL~1\AppData\Local\Temp\ccZp6Zm1.s:279    .text.disk_ioctl:0000000c $d
C:\Users\DNIEL~1\AppData\Local\Temp\ccZp6Zm1.s:338    .text.disk_ioctl:00000040 $d
C:\Users\DNIEL~1\AppData\Local\Temp\ccZp6Zm1.s:343    .text.get_fattime:00000000 $t
C:\Users\DNIEL~1\AppData\Local\Temp\ccZp6Zm1.s:349    .text.get_fattime:00000000 get_fattime
                     .debug_frame:00000010 $d
C:\Users\DNIEL~1\AppData\Local\Temp\ccZp6Zm1.s:77     .text.disk_initialize:00000028 $t
C:\Users\DNIEL~1\AppData\Local\Temp\ccZp6Zm1.s:135    .text.disk_status:00000028 $t
C:\Users\DNIEL~1\AppData\Local\Temp\ccZp6Zm1.s:194    .text.disk_read:00000028 $t
C:\Users\DNIEL~1\AppData\Local\Temp\ccZp6Zm1.s:253    .text.disk_write:00000028 $t
C:\Users\DNIEL~1\AppData\Local\Temp\ccZp6Zm1.s:342    .text.disk_ioctl:00000044 $t
C:\Users\DNIEL~1\AppData\Local\Temp\ccZp6Zm1.s:284    .text.disk_ioctl:00000011 $d
C:\Users\DNIEL~1\AppData\Local\Temp\ccZp6Zm1.s:284    .text.disk_ioctl:00000012 $t

UNDEFINED SYMBOLS
sdc_lld_is_write_protected
SDCD1
sdcRead
sdcWrite
sdcErase
RTCD1
rtcGetTimeFat
