ARM GAS  C:\Users\DNIEL~1\AppData\Local\Temp\ccTrwnMY.s 			page 1


   1              		.syntax unified
   2              		.cpu cortex-m4
   3              		.fpu softvfp
   4              		.eabi_attribute 20, 1
   5              		.eabi_attribute 21, 1
   6              		.eabi_attribute 23, 3
   7              		.eabi_attribute 24, 1
   8              		.eabi_attribute 25, 1
   9              		.eabi_attribute 26, 1
  10              		.eabi_attribute 30, 2
  11              		.eabi_attribute 34, 1
  12              		.eabi_attribute 18, 4
  13              		.thumb
  14              		.file	"gfx.c"
  15              		.text
  16              	.Ltext0:
  17              		.cfi_sections	.debug_frame
  18              		.section	.text.gfx_Cls,"ax",%progbits
  19              		.align	2
  20              		.p2align 4,,15
  21              		.global	gfx_Cls
  22              		.thumb
  23              		.thumb_func
  24              		.type	gfx_Cls, %function
  25              	gfx_Cls:
  26              	.LFB119:
  27              		.file 1 "src/gfx.c"
  28              		.loc 1 25 0
  29              		.cfi_startproc
  30              		@ args = 0, pretend = 0, frame = 0
  31              		@ frame_needed = 0, uses_anonymous_args = 0
  32 0000 10B5     		push	{r4, lr}
  33              	.LCFI0:
  34              		.cfi_def_cfa_offset 8
  35              		.cfi_offset 4, -8
  36              		.cfi_offset 14, -4
  37              		.loc 1 26 0
  38 0002 074C     		ldr	r4, .L2
  39 0004 FF21     		movs	r1, #255
  40 0006 4FF0FF32 		mov	r2, #-1
  41 000a 2046     		mov	r0, r4
  42 000c FFF7FEFF 		bl	chOQPutTimeout
  43              	.LVL0:
  44              		.loc 1 27 0
  45 0010 2046     		mov	r0, r4
  46 0012 CD21     		movs	r1, #205
  47 0014 4FF0FF32 		mov	r2, #-1
  48              		.loc 1 28 0
  49 0018 BDE81040 		pop	{r4, lr}
  50              		.loc 1 27 0
  51 001c FFF7FEBF 		b	chOQPutTimeout
  52              	.LVL1:
  53              	.L3:
  54              		.align	2
  55              	.L2:
  56 0020 30000000 		.word	SD2+48
  57              		.cfi_endproc
ARM GAS  C:\Users\DNIEL~1\AppData\Local\Temp\ccTrwnMY.s 			page 2


  58              	.LFE119:
  59              		.size	gfx_Cls, .-gfx_Cls
  60 0024 AFF30080 		.section	.text.file_Mount,"ax",%progbits
  60      AFF30080 
  60      AFF30080 
  61              		.align	2
  62              		.p2align 4,,15
  63              		.global	file_Mount
  64              		.thumb
  65              		.thumb_func
  66              		.type	file_Mount, %function
  67              	file_Mount:
  68              	.LFB120:
  69              		.loc 1 31 0
  70              		.cfi_startproc
  71              		@ args = 0, pretend = 0, frame = 0
  72              		@ frame_needed = 0, uses_anonymous_args = 0
  73 0000 10B5     		push	{r4, lr}
  74              	.LCFI1:
  75              		.cfi_def_cfa_offset 8
  76              		.cfi_offset 4, -8
  77              		.cfi_offset 14, -4
  78              		.loc 1 32 0
  79 0002 074C     		ldr	r4, .L5
  80 0004 FF21     		movs	r1, #255
  81 0006 4FF0FF32 		mov	r2, #-1
  82 000a 2046     		mov	r0, r4
  83 000c FFF7FEFF 		bl	chOQPutTimeout
  84              	.LVL2:
  85              		.loc 1 33 0
  86 0010 2046     		mov	r0, r4
  87 0012 0321     		movs	r1, #3
  88 0014 4FF0FF32 		mov	r2, #-1
  89              		.loc 1 34 0
  90 0018 BDE81040 		pop	{r4, lr}
  91              		.loc 1 33 0
  92 001c FFF7FEBF 		b	chOQPutTimeout
  93              	.LVL3:
  94              	.L6:
  95              		.align	2
  96              	.L5:
  97 0020 30000000 		.word	SD2+48
  98              		.cfi_endproc
  99              	.LFE120:
 100              		.size	file_Mount, .-file_Mount
 101 0024 AFF30080 		.section	.text.media_Image,"ax",%progbits
 101      AFF30080 
 101      AFF30080 
 102              		.align	2
 103              		.p2align 4,,15
 104              		.global	media_Image
 105              		.thumb
 106              		.thumb_func
 107              		.type	media_Image, %function
 108              	media_Image:
 109              	.LFB121:
 110              		.loc 1 37 0
ARM GAS  C:\Users\DNIEL~1\AppData\Local\Temp\ccTrwnMY.s 			page 3


 111              		.cfi_startproc
 112              		@ args = 0, pretend = 0, frame = 0
 113              		@ frame_needed = 0, uses_anonymous_args = 0
 114              	.LVL4:
 115 0000 70B5     		push	{r4, r5, r6, lr}
 116              	.LCFI2:
 117              		.cfi_def_cfa_offset 16
 118              		.cfi_offset 4, -16
 119              		.cfi_offset 5, -12
 120              		.cfi_offset 6, -8
 121              		.cfi_offset 14, -4
 122              		.loc 1 38 0
 123 0002 154C     		ldr	r4, .L8
 124              		.loc 1 37 0
 125 0004 0646     		mov	r6, r0
 126 0006 0D46     		mov	r5, r1
 127              		.loc 1 38 0
 128 0008 4FF0FF32 		mov	r2, #-1
 129 000c FF21     		movs	r1, #255
 130              	.LVL5:
 131 000e 2046     		mov	r0, r4
 132              	.LVL6:
 133 0010 FFF7FEFF 		bl	chOQPutTimeout
 134              	.LVL7:
 135              		.loc 1 39 0
 136 0014 8B21     		movs	r1, #139
 137 0016 2046     		mov	r0, r4
 138 0018 4FF0FF32 		mov	r2, #-1
 139 001c FFF7FEFF 		bl	chOQPutTimeout
 140              	.LVL8:
 141              		.loc 1 40 0
 142 0020 C6F30721 		ubfx	r1, r6, #8, #8
 143 0024 2046     		mov	r0, r4
 144 0026 4FF0FF32 		mov	r2, #-1
 145 002a FFF7FEFF 		bl	chOQPutTimeout
 146              	.LVL9:
 147              		.loc 1 41 0
 148 002e F1B2     		uxtb	r1, r6
 149 0030 2046     		mov	r0, r4
 150 0032 4FF0FF32 		mov	r2, #-1
 151 0036 FFF7FEFF 		bl	chOQPutTimeout
 152              	.LVL10:
 153              		.loc 1 42 0
 154 003a C5F30721 		ubfx	r1, r5, #8, #8
 155 003e 2046     		mov	r0, r4
 156 0040 4FF0FF32 		mov	r2, #-1
 157 0044 FFF7FEFF 		bl	chOQPutTimeout
 158              	.LVL11:
 159              		.loc 1 43 0
 160 0048 2046     		mov	r0, r4
 161 004a E9B2     		uxtb	r1, r5
 162 004c 4FF0FF32 		mov	r2, #-1
 163              		.loc 1 44 0
 164 0050 BDE87040 		pop	{r4, r5, r6, lr}
 165              		.loc 1 43 0
 166 0054 FFF7FEBF 		b	chOQPutTimeout
 167              	.LVL12:
ARM GAS  C:\Users\DNIEL~1\AppData\Local\Temp\ccTrwnMY.s 			page 4


 168              	.L9:
 169              		.align	2
 170              	.L8:
 171 0058 30000000 		.word	SD2+48
 172              		.cfi_endproc
 173              	.LFE121:
 174              		.size	media_Image, .-media_Image
 175 005c AFF30080 		.section	.text.media_SetSector,"ax",%progbits
 176              		.align	2
 177              		.p2align 4,,15
 178              		.global	media_SetSector
 179              		.thumb
 180              		.thumb_func
 181              		.type	media_SetSector, %function
 182              	media_SetSector:
 183              	.LFB122:
 184              		.loc 1 47 0
 185              		.cfi_startproc
 186              		@ args = 0, pretend = 0, frame = 0
 187              		@ frame_needed = 0, uses_anonymous_args = 0
 188              	.LVL13:
 189 0000 70B5     		push	{r4, r5, r6, lr}
 190              	.LCFI3:
 191              		.cfi_def_cfa_offset 16
 192              		.cfi_offset 4, -16
 193              		.cfi_offset 5, -12
 194              		.cfi_offset 6, -8
 195              		.cfi_offset 14, -4
 196              		.loc 1 48 0
 197 0002 154C     		ldr	r4, .L11
 198              		.loc 1 47 0
 199 0004 0646     		mov	r6, r0
 200 0006 0D46     		mov	r5, r1
 201              		.loc 1 48 0
 202 0008 4FF0FF32 		mov	r2, #-1
 203 000c FF21     		movs	r1, #255
 204              	.LVL14:
 205 000e 2046     		mov	r0, r4
 206              	.LVL15:
 207 0010 FFF7FEFF 		bl	chOQPutTimeout
 208              	.LVL16:
 209              		.loc 1 49 0
 210 0014 9221     		movs	r1, #146
 211 0016 2046     		mov	r0, r4
 212 0018 4FF0FF32 		mov	r2, #-1
 213 001c FFF7FEFF 		bl	chOQPutTimeout
 214              	.LVL17:
 215              		.loc 1 50 0
 216 0020 C6F30721 		ubfx	r1, r6, #8, #8
 217 0024 2046     		mov	r0, r4
 218 0026 4FF0FF32 		mov	r2, #-1
 219 002a FFF7FEFF 		bl	chOQPutTimeout
 220              	.LVL18:
 221              		.loc 1 51 0
 222 002e F1B2     		uxtb	r1, r6
 223 0030 2046     		mov	r0, r4
 224 0032 4FF0FF32 		mov	r2, #-1
ARM GAS  C:\Users\DNIEL~1\AppData\Local\Temp\ccTrwnMY.s 			page 5


 225 0036 FFF7FEFF 		bl	chOQPutTimeout
 226              	.LVL19:
 227              		.loc 1 52 0
 228 003a C5F30721 		ubfx	r1, r5, #8, #8
 229 003e 2046     		mov	r0, r4
 230 0040 4FF0FF32 		mov	r2, #-1
 231 0044 FFF7FEFF 		bl	chOQPutTimeout
 232              	.LVL20:
 233              		.loc 1 53 0
 234 0048 2046     		mov	r0, r4
 235 004a E9B2     		uxtb	r1, r5
 236 004c 4FF0FF32 		mov	r2, #-1
 237              		.loc 1 54 0
 238 0050 BDE87040 		pop	{r4, r5, r6, lr}
 239              		.loc 1 53 0
 240 0054 FFF7FEBF 		b	chOQPutTimeout
 241              	.LVL21:
 242              	.L12:
 243              		.align	2
 244              	.L11:
 245 0058 30000000 		.word	SD2+48
 246              		.cfi_endproc
 247              	.LFE122:
 248              		.size	media_SetSector, .-media_SetSector
 249 005c AFF30080 		.section	.text.media_Video,"ax",%progbits
 250              		.align	2
 251              		.p2align 4,,15
 252              		.global	media_Video
 253              		.thumb
 254              		.thumb_func
 255              		.type	media_Video, %function
 256              	media_Video:
 257              	.LFB123:
 258              		.loc 1 57 0
 259              		.cfi_startproc
 260              		@ args = 0, pretend = 0, frame = 0
 261              		@ frame_needed = 0, uses_anonymous_args = 0
 262              	.LVL22:
 263 0000 70B5     		push	{r4, r5, r6, lr}
 264              	.LCFI4:
 265              		.cfi_def_cfa_offset 16
 266              		.cfi_offset 4, -16
 267              		.cfi_offset 5, -12
 268              		.cfi_offset 6, -8
 269              		.cfi_offset 14, -4
 270              		.loc 1 58 0
 271 0002 154C     		ldr	r4, .L14
 272              		.loc 1 57 0
 273 0004 0646     		mov	r6, r0
 274 0006 0D46     		mov	r5, r1
 275              		.loc 1 58 0
 276 0008 4FF0FF32 		mov	r2, #-1
 277 000c FF21     		movs	r1, #255
 278              	.LVL23:
 279 000e 2046     		mov	r0, r4
 280              	.LVL24:
 281 0010 FFF7FEFF 		bl	chOQPutTimeout
ARM GAS  C:\Users\DNIEL~1\AppData\Local\Temp\ccTrwnMY.s 			page 6


 282              	.LVL25:
 283              		.loc 1 59 0
 284 0014 9521     		movs	r1, #149
 285 0016 2046     		mov	r0, r4
 286 0018 4FF0FF32 		mov	r2, #-1
 287 001c FFF7FEFF 		bl	chOQPutTimeout
 288              	.LVL26:
 289              		.loc 1 60 0
 290 0020 C6F30721 		ubfx	r1, r6, #8, #8
 291 0024 2046     		mov	r0, r4
 292 0026 4FF0FF32 		mov	r2, #-1
 293 002a FFF7FEFF 		bl	chOQPutTimeout
 294              	.LVL27:
 295              		.loc 1 61 0
 296 002e F1B2     		uxtb	r1, r6
 297 0030 2046     		mov	r0, r4
 298 0032 4FF0FF32 		mov	r2, #-1
 299 0036 FFF7FEFF 		bl	chOQPutTimeout
 300              	.LVL28:
 301              		.loc 1 62 0
 302 003a C5F30721 		ubfx	r1, r5, #8, #8
 303 003e 2046     		mov	r0, r4
 304 0040 4FF0FF32 		mov	r2, #-1
 305 0044 FFF7FEFF 		bl	chOQPutTimeout
 306              	.LVL29:
 307              		.loc 1 63 0
 308 0048 2046     		mov	r0, r4
 309 004a E9B2     		uxtb	r1, r5
 310 004c 4FF0FF32 		mov	r2, #-1
 311              		.loc 1 64 0
 312 0050 BDE87040 		pop	{r4, r5, r6, lr}
 313              		.loc 1 63 0
 314 0054 FFF7FEBF 		b	chOQPutTimeout
 315              	.LVL30:
 316              	.L15:
 317              		.align	2
 318              	.L14:
 319 0058 30000000 		.word	SD2+48
 320              		.cfi_endproc
 321              	.LFE123:
 322              		.size	media_Video, .-media_Video
 323 005c AFF30080 		.section	.text.media_VideoFrame,"ax",%progbits
 324              		.align	2
 325              		.p2align 4,,15
 326              		.global	media_VideoFrame
 327              		.thumb
 328              		.thumb_func
 329              		.type	media_VideoFrame, %function
 330              	media_VideoFrame:
 331              	.LFB124:
 332              		.loc 1 67 0
 333              		.cfi_startproc
 334              		@ args = 0, pretend = 0, frame = 0
 335              		@ frame_needed = 0, uses_anonymous_args = 0
 336              	.LVL31:
 337 0000 F8B5     		push	{r3, r4, r5, r6, r7, lr}
 338              	.LCFI5:
ARM GAS  C:\Users\DNIEL~1\AppData\Local\Temp\ccTrwnMY.s 			page 7


 339              		.cfi_def_cfa_offset 24
 340              		.cfi_offset 3, -24
 341              		.cfi_offset 4, -20
 342              		.cfi_offset 5, -16
 343              		.cfi_offset 6, -12
 344              		.cfi_offset 7, -8
 345              		.cfi_offset 14, -4
 346              		.loc 1 68 0
 347 0002 1C4C     		ldr	r4, .L17
 348              		.loc 1 67 0
 349 0004 0746     		mov	r7, r0
 350 0006 0E46     		mov	r6, r1
 351 0008 1546     		mov	r5, r2
 352              		.loc 1 68 0
 353 000a FF21     		movs	r1, #255
 354              	.LVL32:
 355 000c 4FF0FF32 		mov	r2, #-1
 356              	.LVL33:
 357 0010 2046     		mov	r0, r4
 358              	.LVL34:
 359 0012 FFF7FEFF 		bl	chOQPutTimeout
 360              	.LVL35:
 361              		.loc 1 69 0
 362 0016 9421     		movs	r1, #148
 363 0018 2046     		mov	r0, r4
 364 001a 4FF0FF32 		mov	r2, #-1
 365 001e FFF7FEFF 		bl	chOQPutTimeout
 366              	.LVL36:
 367              		.loc 1 70 0
 368 0022 C7F30721 		ubfx	r1, r7, #8, #8
 369 0026 2046     		mov	r0, r4
 370 0028 4FF0FF32 		mov	r2, #-1
 371 002c FFF7FEFF 		bl	chOQPutTimeout
 372              	.LVL37:
 373              		.loc 1 71 0
 374 0030 F9B2     		uxtb	r1, r7
 375 0032 2046     		mov	r0, r4
 376 0034 4FF0FF32 		mov	r2, #-1
 377 0038 FFF7FEFF 		bl	chOQPutTimeout
 378              	.LVL38:
 379              		.loc 1 72 0
 380 003c C6F30721 		ubfx	r1, r6, #8, #8
 381 0040 2046     		mov	r0, r4
 382 0042 4FF0FF32 		mov	r2, #-1
 383 0046 FFF7FEFF 		bl	chOQPutTimeout
 384              	.LVL39:
 385              		.loc 1 73 0
 386 004a F1B2     		uxtb	r1, r6
 387 004c 2046     		mov	r0, r4
 388 004e 4FF0FF32 		mov	r2, #-1
 389 0052 FFF7FEFF 		bl	chOQPutTimeout
 390              	.LVL40:
 391              		.loc 1 74 0
 392 0056 C5F30721 		ubfx	r1, r5, #8, #8
 393 005a 2046     		mov	r0, r4
 394 005c 4FF0FF32 		mov	r2, #-1
 395 0060 FFF7FEFF 		bl	chOQPutTimeout
ARM GAS  C:\Users\DNIEL~1\AppData\Local\Temp\ccTrwnMY.s 			page 8


 396              	.LVL41:
 397              		.loc 1 75 0
 398 0064 2046     		mov	r0, r4
 399 0066 E9B2     		uxtb	r1, r5
 400 0068 4FF0FF32 		mov	r2, #-1
 401              		.loc 1 76 0
 402 006c BDE8F840 		pop	{r3, r4, r5, r6, r7, lr}
 403              		.loc 1 75 0
 404 0070 FFF7FEBF 		b	chOQPutTimeout
 405              	.LVL42:
 406              	.L18:
 407              		.align	2
 408              	.L17:
 409 0074 30000000 		.word	SD2+48
 410              		.cfi_endproc
 411              	.LFE124:
 412              		.size	media_VideoFrame, .-media_VideoFrame
 413 0078 AFF30080 		.section	.text.gfx_BGcolour,"ax",%progbits
 413      AFF30080 
 414              		.align	2
 415              		.p2align 4,,15
 416              		.global	gfx_BGcolour
 417              		.thumb
 418              		.thumb_func
 419              		.type	gfx_BGcolour, %function
 420              	gfx_BGcolour:
 421              	.LFB125:
 422              		.loc 1 79 0
 423              		.cfi_startproc
 424              		@ args = 0, pretend = 0, frame = 0
 425              		@ frame_needed = 0, uses_anonymous_args = 0
 426              	.LVL43:
 427 0000 38B5     		push	{r3, r4, r5, lr}
 428              	.LCFI6:
 429              		.cfi_def_cfa_offset 16
 430              		.cfi_offset 3, -16
 431              		.cfi_offset 4, -12
 432              		.cfi_offset 5, -8
 433              		.cfi_offset 14, -4
 434              		.loc 1 80 0
 435 0002 0E4C     		ldr	r4, .L20
 436              		.loc 1 79 0
 437 0004 0546     		mov	r5, r0
 438              		.loc 1 80 0
 439 0006 FF21     		movs	r1, #255
 440 0008 4FF0FF32 		mov	r2, #-1
 441 000c 2046     		mov	r0, r4
 442              	.LVL44:
 443 000e FFF7FEFF 		bl	chOQPutTimeout
 444              	.LVL45:
 445              		.loc 1 81 0
 446 0012 A421     		movs	r1, #164
 447 0014 2046     		mov	r0, r4
 448 0016 4FF0FF32 		mov	r2, #-1
 449 001a FFF7FEFF 		bl	chOQPutTimeout
 450              	.LVL46:
 451              		.loc 1 82 0
ARM GAS  C:\Users\DNIEL~1\AppData\Local\Temp\ccTrwnMY.s 			page 9


 452 001e C5F30721 		ubfx	r1, r5, #8, #8
 453 0022 2046     		mov	r0, r4
 454 0024 4FF0FF32 		mov	r2, #-1
 455 0028 FFF7FEFF 		bl	chOQPutTimeout
 456              	.LVL47:
 457              		.loc 1 83 0
 458 002c 2046     		mov	r0, r4
 459 002e E9B2     		uxtb	r1, r5
 460 0030 4FF0FF32 		mov	r2, #-1
 461              		.loc 1 84 0
 462 0034 BDE83840 		pop	{r3, r4, r5, lr}
 463              		.loc 1 83 0
 464 0038 FFF7FEBF 		b	chOQPutTimeout
 465              	.LVL48:
 466              	.L21:
 467              		.align	2
 468              	.L20:
 469 003c 30000000 		.word	SD2+48
 470              		.cfi_endproc
 471              	.LFE125:
 472              		.size	gfx_BGcolour, .-gfx_BGcolour
 473              		.section	.text.gfx_Contrast,"ax",%progbits
 474              		.align	2
 475              		.p2align 4,,15
 476              		.global	gfx_Contrast
 477              		.thumb
 478              		.thumb_func
 479              		.type	gfx_Contrast, %function
 480              	gfx_Contrast:
 481              	.LFB126:
 482              		.loc 1 87 0
 483              		.cfi_startproc
 484              		@ args = 0, pretend = 0, frame = 0
 485              		@ frame_needed = 0, uses_anonymous_args = 0
 486              	.LVL49:
 487 0000 38B5     		push	{r3, r4, r5, lr}
 488              	.LCFI7:
 489              		.cfi_def_cfa_offset 16
 490              		.cfi_offset 3, -16
 491              		.cfi_offset 4, -12
 492              		.cfi_offset 5, -8
 493              		.cfi_offset 14, -4
 494              		.loc 1 88 0
 495 0002 0E4C     		ldr	r4, .L23
 496              		.loc 1 87 0
 497 0004 0546     		mov	r5, r0
 498              		.loc 1 88 0
 499 0006 FF21     		movs	r1, #255
 500 0008 4FF0FF32 		mov	r2, #-1
 501 000c 2046     		mov	r0, r4
 502              	.LVL50:
 503 000e FFF7FEFF 		bl	chOQPutTimeout
 504              	.LVL51:
 505              		.loc 1 89 0
 506 0012 9C21     		movs	r1, #156
 507 0014 2046     		mov	r0, r4
 508 0016 4FF0FF32 		mov	r2, #-1
ARM GAS  C:\Users\DNIEL~1\AppData\Local\Temp\ccTrwnMY.s 			page 10


 509 001a FFF7FEFF 		bl	chOQPutTimeout
 510              	.LVL52:
 511              		.loc 1 90 0
 512 001e C5F30721 		ubfx	r1, r5, #8, #8
 513 0022 2046     		mov	r0, r4
 514 0024 4FF0FF32 		mov	r2, #-1
 515 0028 FFF7FEFF 		bl	chOQPutTimeout
 516              	.LVL53:
 517              		.loc 1 91 0
 518 002c 2046     		mov	r0, r4
 519 002e E9B2     		uxtb	r1, r5
 520 0030 4FF0FF32 		mov	r2, #-1
 521              		.loc 1 92 0
 522 0034 BDE83840 		pop	{r3, r4, r5, lr}
 523              		.loc 1 91 0
 524 0038 FFF7FEBF 		b	chOQPutTimeout
 525              	.LVL54:
 526              	.L24:
 527              		.align	2
 528              	.L23:
 529 003c 30000000 		.word	SD2+48
 530              		.cfi_endproc
 531              	.LFE126:
 532              		.size	gfx_Contrast, .-gfx_Contrast
 533              		.section	.text.gfx_Transparency,"ax",%progbits
 534              		.align	2
 535              		.p2align 4,,15
 536              		.global	gfx_Transparency
 537              		.thumb
 538              		.thumb_func
 539              		.type	gfx_Transparency, %function
 540              	gfx_Transparency:
 541              	.LFB127:
 542              		.loc 1 95 0
 543              		.cfi_startproc
 544              		@ args = 0, pretend = 0, frame = 0
 545              		@ frame_needed = 0, uses_anonymous_args = 0
 546              	.LVL55:
 547 0000 38B5     		push	{r3, r4, r5, lr}
 548              	.LCFI8:
 549              		.cfi_def_cfa_offset 16
 550              		.cfi_offset 3, -16
 551              		.cfi_offset 4, -12
 552              		.cfi_offset 5, -8
 553              		.cfi_offset 14, -4
 554              		.loc 1 96 0
 555 0002 0E4C     		ldr	r4, .L26
 556              		.loc 1 95 0
 557 0004 0546     		mov	r5, r0
 558              		.loc 1 96 0
 559 0006 FF21     		movs	r1, #255
 560 0008 4FF0FF32 		mov	r2, #-1
 561 000c 2046     		mov	r0, r4
 562              	.LVL56:
 563 000e FFF7FEFF 		bl	chOQPutTimeout
 564              	.LVL57:
 565              		.loc 1 97 0
ARM GAS  C:\Users\DNIEL~1\AppData\Local\Temp\ccTrwnMY.s 			page 11


 566 0012 A021     		movs	r1, #160
 567 0014 2046     		mov	r0, r4
 568 0016 4FF0FF32 		mov	r2, #-1
 569 001a FFF7FEFF 		bl	chOQPutTimeout
 570              	.LVL58:
 571              		.loc 1 98 0
 572 001e C5F30721 		ubfx	r1, r5, #8, #8
 573 0022 2046     		mov	r0, r4
 574 0024 4FF0FF32 		mov	r2, #-1
 575 0028 FFF7FEFF 		bl	chOQPutTimeout
 576              	.LVL59:
 577              		.loc 1 99 0
 578 002c 2046     		mov	r0, r4
 579 002e E9B2     		uxtb	r1, r5
 580 0030 4FF0FF32 		mov	r2, #-1
 581              		.loc 1 100 0
 582 0034 BDE83840 		pop	{r3, r4, r5, lr}
 583              		.loc 1 99 0
 584 0038 FFF7FEBF 		b	chOQPutTimeout
 585              	.LVL60:
 586              	.L27:
 587              		.align	2
 588              	.L26:
 589 003c 30000000 		.word	SD2+48
 590              		.cfi_endproc
 591              	.LFE127:
 592              		.size	gfx_Transparency, .-gfx_Transparency
 593              		.section	.text.gfx_TransparentColour,"ax",%progbits
 594              		.align	2
 595              		.p2align 4,,15
 596              		.global	gfx_TransparentColour
 597              		.thumb
 598              		.thumb_func
 599              		.type	gfx_TransparentColour, %function
 600              	gfx_TransparentColour:
 601              	.LFB128:
 602              		.loc 1 103 0
 603              		.cfi_startproc
 604              		@ args = 0, pretend = 0, frame = 0
 605              		@ frame_needed = 0, uses_anonymous_args = 0
 606              	.LVL61:
 607 0000 38B5     		push	{r3, r4, r5, lr}
 608              	.LCFI9:
 609              		.cfi_def_cfa_offset 16
 610              		.cfi_offset 3, -16
 611              		.cfi_offset 4, -12
 612              		.cfi_offset 5, -8
 613              		.cfi_offset 14, -4
 614              		.loc 1 104 0
 615 0002 0E4C     		ldr	r4, .L29
 616              		.loc 1 103 0
 617 0004 0546     		mov	r5, r0
 618              		.loc 1 104 0
 619 0006 FF21     		movs	r1, #255
 620 0008 4FF0FF32 		mov	r2, #-1
 621 000c 2046     		mov	r0, r4
 622              	.LVL62:
ARM GAS  C:\Users\DNIEL~1\AppData\Local\Temp\ccTrwnMY.s 			page 12


 623 000e FFF7FEFF 		bl	chOQPutTimeout
 624              	.LVL63:
 625              		.loc 1 105 0
 626 0012 A121     		movs	r1, #161
 627 0014 2046     		mov	r0, r4
 628 0016 4FF0FF32 		mov	r2, #-1
 629 001a FFF7FEFF 		bl	chOQPutTimeout
 630              	.LVL64:
 631              		.loc 1 106 0
 632 001e C5F30721 		ubfx	r1, r5, #8, #8
 633 0022 2046     		mov	r0, r4
 634 0024 4FF0FF32 		mov	r2, #-1
 635 0028 FFF7FEFF 		bl	chOQPutTimeout
 636              	.LVL65:
 637              		.loc 1 107 0
 638 002c 2046     		mov	r0, r4
 639 002e E9B2     		uxtb	r1, r5
 640 0030 4FF0FF32 		mov	r2, #-1
 641              		.loc 1 108 0
 642 0034 BDE83840 		pop	{r3, r4, r5, lr}
 643              		.loc 1 107 0
 644 0038 FFF7FEBF 		b	chOQPutTimeout
 645              	.LVL66:
 646              	.L30:
 647              		.align	2
 648              	.L29:
 649 003c 30000000 		.word	SD2+48
 650              		.cfi_endproc
 651              	.LFE128:
 652              		.size	gfx_TransparentColour, .-gfx_TransparentColour
 653              		.section	.text.file_LoadImageControl,"ax",%progbits
 654              		.align	2
 655              		.p2align 4,,15
 656              		.global	file_LoadImageControl
 657              		.thumb
 658              		.thumb_func
 659              		.type	file_LoadImageControl, %function
 660              	file_LoadImageControl:
 661              	.LFB129:
 662              		.loc 1 111 0
 663              		.cfi_startproc
 664              		@ args = 0, pretend = 0, frame = 0
 665              		@ frame_needed = 0, uses_anonymous_args = 0
 666              	.LVL67:
 667 0000 F8B5     		push	{r3, r4, r5, r6, r7, lr}
 668              	.LCFI10:
 669              		.cfi_def_cfa_offset 24
 670              		.cfi_offset 3, -24
 671              		.cfi_offset 4, -20
 672              		.cfi_offset 5, -16
 673              		.cfi_offset 6, -12
 674              		.cfi_offset 7, -8
 675              		.cfi_offset 14, -4
 676              		.loc 1 112 0
 677 0002 154C     		ldr	r4, .L32
 678              		.loc 1 111 0
 679 0004 1546     		mov	r5, r2
ARM GAS  C:\Users\DNIEL~1\AppData\Local\Temp\ccTrwnMY.s 			page 13


 680 0006 0746     		mov	r7, r0
 681 0008 0E46     		mov	r6, r1
 682              		.loc 1 112 0
 683 000a 4FF0FF32 		mov	r2, #-1
 684              	.LVL68:
 685 000e 0021     		movs	r1, #0
 686              	.LVL69:
 687 0010 2046     		mov	r0, r4
 688              	.LVL70:
 689 0012 FFF7FEFF 		bl	chOQPutTimeout
 690              	.LVL71:
 691              		.loc 1 113 0
 692 0016 0921     		movs	r1, #9
 693 0018 2046     		mov	r0, r4
 694 001a 4FF0FF32 		mov	r2, #-1
 695 001e FFF7FEFF 		bl	chOQPutTimeout
 696              	.LVL72:
 697              		.loc 1 114 0
 698 0022 F9B2     		uxtb	r1, r7
 699 0024 2046     		mov	r0, r4
 700 0026 4FF0FF32 		mov	r2, #-1
 701 002a FFF7FEFF 		bl	chOQPutTimeout
 702              	.LVL73:
 703              		.loc 1 115 0
 704 002e F1B2     		uxtb	r1, r6
 705 0030 2046     		mov	r0, r4
 706 0032 4FF0FF32 		mov	r2, #-1
 707 0036 FFF7FEFF 		bl	chOQPutTimeout
 708              	.LVL74:
 709              		.loc 1 116 0
 710 003a C5F30721 		ubfx	r1, r5, #8, #8
 711 003e 2046     		mov	r0, r4
 712 0040 4FF0FF32 		mov	r2, #-1
 713 0044 FFF7FEFF 		bl	chOQPutTimeout
 714              	.LVL75:
 715              		.loc 1 117 0
 716 0048 2046     		mov	r0, r4
 717 004a E9B2     		uxtb	r1, r5
 718 004c 4FF0FF32 		mov	r2, #-1
 719              		.loc 1 118 0
 720 0050 BDE8F840 		pop	{r3, r4, r5, r6, r7, lr}
 721              		.loc 1 117 0
 722 0054 FFF7FEBF 		b	chOQPutTimeout
 723              	.LVL76:
 724              	.L33:
 725              		.align	2
 726              	.L32:
 727 0058 30000000 		.word	SD2+48
 728              		.cfi_endproc
 729              	.LFE129:
 730              		.size	file_LoadImageControl, .-file_LoadImageControl
 731 005c AFF30080 		.section	.text.putstr,"ax",%progbits
 732              		.align	2
 733              		.p2align 4,,15
 734              		.global	putstr
 735              		.thumb
 736              		.thumb_func
ARM GAS  C:\Users\DNIEL~1\AppData\Local\Temp\ccTrwnMY.s 			page 14


 737              		.type	putstr, %function
 738              	putstr:
 739              	.LFB130:
 740              		.loc 1 121 0
 741              		.cfi_startproc
 742              		@ args = 0, pretend = 0, frame = 0
 743              		@ frame_needed = 0, uses_anonymous_args = 0
 744              	.LVL77:
 745 0000 38B5     		push	{r3, r4, r5, lr}
 746              	.LCFI11:
 747              		.cfi_def_cfa_offset 16
 748              		.cfi_offset 3, -16
 749              		.cfi_offset 4, -12
 750              		.cfi_offset 5, -8
 751              		.cfi_offset 14, -4
 752              		.loc 1 122 0
 753 0002 0B4C     		ldr	r4, .L35
 754              		.loc 1 121 0
 755 0004 0546     		mov	r5, r0
 756              		.loc 1 122 0
 757 0006 0021     		movs	r1, #0
 758 0008 4FF0FF32 		mov	r2, #-1
 759 000c 2046     		mov	r0, r4
 760              	.LVL78:
 761 000e FFF7FEFF 		bl	chOQPutTimeout
 762              	.LVL79:
 763              		.loc 1 123 0
 764 0012 1821     		movs	r1, #24
 765 0014 2046     		mov	r0, r4
 766 0016 4FF0FF32 		mov	r2, #-1
 767 001a FFF7FEFF 		bl	chOQPutTimeout
 768              	.LVL80:
 769              		.loc 1 124 0
 770 001e 2046     		mov	r0, r4
 771 0020 E9B2     		uxtb	r1, r5
 772 0022 4FF0FF32 		mov	r2, #-1
 773              		.loc 1 125 0
 774 0026 BDE83840 		pop	{r3, r4, r5, lr}
 775              		.loc 1 124 0
 776 002a FFF7FEBF 		b	chOQPutTimeout
 777              	.LVL81:
 778              	.L36:
 779 002e 00BF     		.align	2
 780              	.L35:
 781 0030 30000000 		.word	SD2+48
 782              		.cfi_endproc
 783              	.LFE130:
 784              		.size	putstr, .-putstr
 785 0034 AFF30080 		.section	.text.WriteChars,"ax",%progbits
 785      AFF30080 
 785      AFF30080 
 786              		.align	2
 787              		.p2align 4,,15
 788              		.global	WriteChars
 789              		.thumb
 790              		.thumb_func
 791              		.type	WriteChars, %function
ARM GAS  C:\Users\DNIEL~1\AppData\Local\Temp\ccTrwnMY.s 			page 15


 792              	WriteChars:
 793              	.LFB131:
 794              		.loc 1 128 0
 795              		.cfi_startproc
 796              		@ args = 0, pretend = 0, frame = 0
 797              		@ frame_needed = 0, uses_anonymous_args = 0
 798              	.LVL82:
 799 0000 38B5     		push	{r3, r4, r5, lr}
 800              	.LCFI12:
 801              		.cfi_def_cfa_offset 16
 802              		.cfi_offset 3, -16
 803              		.cfi_offset 4, -12
 804              		.cfi_offset 5, -8
 805              		.cfi_offset 14, -4
 806 0002 0546     		mov	r5, r0
 807              	.LVL83:
 808              	.L38:
 809              		.loc 1 132 0 discriminator 1
 810 0004 15F8014B 		ldrb	r4, [r5], #1	@ zero_extendqisi2
 811              	.LVL84:
 812              		.loc 1 133 0 discriminator 1
 813 0008 0448     		ldr	r0, .L41
 814 000a 2146     		mov	r1, r4
 815 000c 4FF0FF32 		mov	r2, #-1
 816 0010 FFF7FEFF 		bl	chOQPutTimeout
 817              	.LVL85:
 818              		.loc 1 134 0 discriminator 1
 819 0014 002C     		cmp	r4, #0
 820 0016 F5D1     		bne	.L38
 821              		.loc 1 135 0
 822 0018 38BD     		pop	{r3, r4, r5, pc}
 823              	.L42:
 824 001a 00BF     		.align	2
 825              	.L41:
 826 001c 30000000 		.word	SD2+48
 827              		.cfi_endproc
 828              	.LFE131:
 829              		.size	WriteChars, .-WriteChars
 830              		.text
 831              	.Letext0:
 832              		.file 2 "c:\\chibistudio\\tools\\gnu tools arm embedded\\4.7 2014q2\\bin\\../lib/gcc/arm-none-eabi
 833              		.file 3 "c:\\chibistudio\\tools\\gnu tools arm embedded\\4.7 2014q2\\bin\\../lib/gcc/arm-none-eabi
 834              		.file 4 "../../../ChibiOS/os/ports/GCC/ARMCMx/chtypes.h"
 835              		.file 5 "../../../ChibiOS/os/kernel/include/chlists.h"
 836              		.file 6 "../../../ChibiOS/os/kernel/include/chthreads.h"
 837              		.file 7 "../../../ChibiOS/os/ports/GCC/ARMCMx/chcore_v7m.h"
 838              		.file 8 "../../../ChibiOS/os/kernel/include/chmtx.h"
 839              		.file 9 "../../../ChibiOS/os/kernel/include/chevents.h"
 840              		.file 10 "../../../ChibiOS/os/kernel/include/chqueues.h"
 841              		.file 11 "../../../ChibiOS/os/hal/platforms/STM32F4xx/stm32f4xx.h"
 842              		.file 12 "../../../ChibiOS/os/hal/include/serial.h"
 843              		.file 13 "../../../ChibiOS/os/ports/common/ARMCMx/CMSIS/include/core_cm4.h"
 844              		.file 14 "../../../ChibiOS/os/hal/platforms/STM32/USARTv1/serial_lld.h"
 845              		.section	.debug_info,"",%progbits
 846              	.Ldebug_info0:
 847 0000 49120000 		.4byte	0x1249
 848 0004 0200     		.2byte	0x2
ARM GAS  C:\Users\DNIEL~1\AppData\Local\Temp\ccTrwnMY.s 			page 16


 849 0006 00000000 		.4byte	.Ldebug_abbrev0
 850 000a 04       		.byte	0x4
 851 000b 01       		.uleb128 0x1
 852 000c 71020000 		.4byte	.LASF129
 853 0010 01       		.byte	0x1
 854 0011 F4040000 		.4byte	.LASF130
 855 0015 B8040000 		.4byte	.LASF131
 856 0019 00000000 		.4byte	.Ldebug_ranges0+0
 857 001d 00000000 		.4byte	0
 858 0021 00000000 		.4byte	0
 859 0025 00000000 		.4byte	.Ldebug_line0
 860 0029 02       		.uleb128 0x2
 861 002a 04       		.byte	0x4
 862 002b 05       		.byte	0x5
 863 002c 696E7400 		.ascii	"int\000"
 864 0030 03       		.uleb128 0x3
 865 0031 17000000 		.4byte	.LASF2
 866 0035 02       		.byte	0x2
 867 0036 D5       		.byte	0xd5
 868 0037 3B000000 		.4byte	0x3b
 869 003b 04       		.uleb128 0x4
 870 003c 04       		.byte	0x4
 871 003d 07       		.byte	0x7
 872 003e 4E010000 		.4byte	.LASF0
 873 0042 04       		.uleb128 0x4
 874 0043 01       		.byte	0x1
 875 0044 06       		.byte	0x6
 876 0045 92000000 		.4byte	.LASF1
 877 0049 03       		.uleb128 0x3
 878 004a EC040000 		.4byte	.LASF3
 879 004e 03       		.byte	0x3
 880 004f 2A       		.byte	0x2a
 881 0050 54000000 		.4byte	0x54
 882 0054 04       		.uleb128 0x4
 883 0055 01       		.byte	0x1
 884 0056 08       		.byte	0x8
 885 0057 64030000 		.4byte	.LASF4
 886 005b 04       		.uleb128 0x4
 887 005c 02       		.byte	0x2
 888 005d 05       		.byte	0x5
 889 005e 9E030000 		.4byte	.LASF5
 890 0062 03       		.uleb128 0x3
 891 0063 05010000 		.4byte	.LASF6
 892 0067 03       		.byte	0x3
 893 0068 36       		.byte	0x36
 894 0069 6D000000 		.4byte	0x6d
 895 006d 04       		.uleb128 0x4
 896 006e 02       		.byte	0x2
 897 006f 07       		.byte	0x7
 898 0070 AF010000 		.4byte	.LASF7
 899 0074 03       		.uleb128 0x3
 900 0075 5C030000 		.4byte	.LASF8
 901 0079 03       		.byte	0x3
 902 007a 4F       		.byte	0x4f
 903 007b 7F000000 		.4byte	0x7f
 904 007f 04       		.uleb128 0x4
 905 0080 04       		.byte	0x4
ARM GAS  C:\Users\DNIEL~1\AppData\Local\Temp\ccTrwnMY.s 			page 17


 906 0081 05       		.byte	0x5
 907 0082 EA000000 		.4byte	.LASF9
 908 0086 03       		.uleb128 0x3
 909 0087 12040000 		.4byte	.LASF10
 910 008b 03       		.byte	0x3
 911 008c 50       		.byte	0x50
 912 008d 91000000 		.4byte	0x91
 913 0091 04       		.uleb128 0x4
 914 0092 04       		.byte	0x4
 915 0093 07       		.byte	0x7
 916 0094 33040000 		.4byte	.LASF11
 917 0098 04       		.uleb128 0x4
 918 0099 08       		.byte	0x8
 919 009a 05       		.byte	0x5
 920 009b 84000000 		.4byte	.LASF12
 921 009f 04       		.uleb128 0x4
 922 00a0 08       		.byte	0x8
 923 00a1 07       		.byte	0x7
 924 00a2 AB000000 		.4byte	.LASF13
 925 00a6 04       		.uleb128 0x4
 926 00a7 01       		.byte	0x1
 927 00a8 02       		.byte	0x2
 928 00a9 56030000 		.4byte	.LASF14
 929 00ad 03       		.uleb128 0x3
 930 00ae EC010000 		.4byte	.LASF15
 931 00b2 04       		.byte	0x4
 932 00b3 2C       		.byte	0x2c
 933 00b4 49000000 		.4byte	0x49
 934 00b8 03       		.uleb128 0x3
 935 00b9 F3000000 		.4byte	.LASF16
 936 00bd 04       		.byte	0x4
 937 00be 2D       		.byte	0x2d
 938 00bf 49000000 		.4byte	0x49
 939 00c3 03       		.uleb128 0x3
 940 00c4 EE020000 		.4byte	.LASF17
 941 00c8 04       		.byte	0x4
 942 00c9 2E       		.byte	0x2e
 943 00ca 49000000 		.4byte	0x49
 944 00ce 03       		.uleb128 0x3
 945 00cf DA000000 		.4byte	.LASF18
 946 00d3 04       		.byte	0x4
 947 00d4 2F       		.byte	0x2f
 948 00d5 49000000 		.4byte	0x49
 949 00d9 03       		.uleb128 0x3
 950 00da 3A030000 		.4byte	.LASF19
 951 00de 04       		.byte	0x4
 952 00df 30       		.byte	0x30
 953 00e0 86000000 		.4byte	0x86
 954 00e4 03       		.uleb128 0x3
 955 00e5 C2010000 		.4byte	.LASF20
 956 00e9 04       		.byte	0x4
 957 00ea 31       		.byte	0x31
 958 00eb 74000000 		.4byte	0x74
 959 00ef 03       		.uleb128 0x3
 960 00f0 00020000 		.4byte	.LASF21
 961 00f4 04       		.byte	0x4
 962 00f5 33       		.byte	0x33
ARM GAS  C:\Users\DNIEL~1\AppData\Local\Temp\ccTrwnMY.s 			page 18


 963 00f6 86000000 		.4byte	0x86
 964 00fa 03       		.uleb128 0x3
 965 00fb 8E040000 		.4byte	.LASF22
 966 00ff 04       		.byte	0x4
 967 0100 34       		.byte	0x34
 968 0101 86000000 		.4byte	0x86
 969 0105 03       		.uleb128 0x3
 970 0106 51040000 		.4byte	.LASF23
 971 010a 04       		.byte	0x4
 972 010b 35       		.byte	0x35
 973 010c 86000000 		.4byte	0x86
 974 0110 03       		.uleb128 0x3
 975 0111 D0030000 		.4byte	.LASF24
 976 0115 05       		.byte	0x5
 977 0116 2A       		.byte	0x2a
 978 0117 1B010000 		.4byte	0x11b
 979 011b 05       		.uleb128 0x5
 980 011c D0030000 		.4byte	.LASF24
 981 0120 48       		.byte	0x48
 982 0121 06       		.byte	0x6
 983 0122 5E       		.byte	0x5e
 984 0123 40020000 		.4byte	0x240
 985 0127 06       		.uleb128 0x6
 986 0128 C1030000 		.4byte	.LASF25
 987 012c 06       		.byte	0x6
 988 012d 5F       		.byte	0x5f
 989 012e 65020000 		.4byte	0x265
 990 0132 02       		.byte	0x2
 991 0133 23       		.byte	0x23
 992 0134 00       		.uleb128 0
 993 0135 06       		.uleb128 0x6
 994 0136 4E020000 		.4byte	.LASF26
 995 013a 06       		.byte	0x6
 996 013b 61       		.byte	0x61
 997 013c 65020000 		.4byte	0x265
 998 0140 02       		.byte	0x2
 999 0141 23       		.byte	0x23
 1000 0142 04       		.uleb128 0x4
 1001 0143 06       		.uleb128 0x6
 1002 0144 6D000000 		.4byte	.LASF27
 1003 0148 06       		.byte	0x6
 1004 0149 63       		.byte	0x63
 1005 014a D9000000 		.4byte	0xd9
 1006 014e 02       		.byte	0x2
 1007 014f 23       		.byte	0x23
 1008 0150 08       		.uleb128 0x8
 1009 0151 06       		.uleb128 0x6
 1010 0152 3D050000 		.4byte	.LASF28
 1011 0156 06       		.byte	0x6
 1012 0157 64       		.byte	0x64
 1013 0158 33030000 		.4byte	0x333
 1014 015c 02       		.byte	0x2
 1015 015d 23       		.byte	0x23
 1016 015e 0C       		.uleb128 0xc
 1017 015f 06       		.uleb128 0x6
 1018 0160 0E010000 		.4byte	.LASF29
 1019 0164 06       		.byte	0x6
ARM GAS  C:\Users\DNIEL~1\AppData\Local\Temp\ccTrwnMY.s 			page 19


 1020 0165 66       		.byte	0x66
 1021 0166 65020000 		.4byte	0x265
 1022 016a 02       		.byte	0x2
 1023 016b 23       		.byte	0x23
 1024 016c 10       		.uleb128 0x10
 1025 016d 06       		.uleb128 0x6
 1026 016e BA020000 		.4byte	.LASF30
 1027 0172 06       		.byte	0x6
 1028 0173 67       		.byte	0x67
 1029 0174 65020000 		.4byte	0x265
 1030 0178 02       		.byte	0x2
 1031 0179 23       		.byte	0x23
 1032 017a 14       		.uleb128 0x14
 1033 017b 06       		.uleb128 0x6
 1034 017c AA040000 		.4byte	.LASF31
 1035 0180 06       		.byte	0x6
 1036 0181 6E       		.byte	0x6e
 1037 0182 5B040000 		.4byte	0x45b
 1038 0186 02       		.byte	0x2
 1039 0187 23       		.byte	0x23
 1040 0188 18       		.uleb128 0x18
 1041 0189 06       		.uleb128 0x6
 1042 018a A8030000 		.4byte	.LASF32
 1043 018e 06       		.byte	0x6
 1044 018f 79       		.byte	0x79
 1045 0190 B8000000 		.4byte	0xb8
 1046 0194 02       		.byte	0x2
 1047 0195 23       		.byte	0x23
 1048 0196 1C       		.uleb128 0x1c
 1049 0197 06       		.uleb128 0x6
 1050 0198 C8030000 		.4byte	.LASF33
 1051 019c 06       		.byte	0x6
 1052 019d 7D       		.byte	0x7d
 1053 019e AD000000 		.4byte	0xad
 1054 01a2 02       		.byte	0x2
 1055 01a3 23       		.byte	0x23
 1056 01a4 1D       		.uleb128 0x1d
 1057 01a5 06       		.uleb128 0x6
 1058 01a6 B1040000 		.4byte	.LASF34
 1059 01aa 06       		.byte	0x6
 1060 01ab 82       		.byte	0x82
 1061 01ac C3000000 		.4byte	0xc3
 1062 01b0 02       		.byte	0x2
 1063 01b1 23       		.byte	0x23
 1064 01b2 1E       		.uleb128 0x1e
 1065 01b3 06       		.uleb128 0x6
 1066 01b4 B0030000 		.4byte	.LASF35
 1067 01b8 06       		.byte	0x6
 1068 01b9 88       		.byte	0x88
 1069 01ba CE000000 		.4byte	0xce
 1070 01be 02       		.byte	0x2
 1071 01bf 23       		.byte	0x23
 1072 01c0 1F       		.uleb128 0x1f
 1073 01c1 06       		.uleb128 0x6
 1074 01c2 6D040000 		.4byte	.LASF36
 1075 01c6 06       		.byte	0x6
 1076 01c7 8F       		.byte	0x8f
ARM GAS  C:\Users\DNIEL~1\AppData\Local\Temp\ccTrwnMY.s 			page 20


 1077 01c8 5D030000 		.4byte	0x35d
 1078 01cc 02       		.byte	0x2
 1079 01cd 23       		.byte	0x23
 1080 01ce 20       		.uleb128 0x20
 1081 01cf 07       		.uleb128 0x7
 1082 01d0 705F7500 		.ascii	"p_u\000"
 1083 01d4 06       		.byte	0x6
 1084 01d5 B4       		.byte	0xb4
 1085 01d6 26040000 		.4byte	0x426
 1086 01da 02       		.byte	0x2
 1087 01db 23       		.byte	0x23
 1088 01dc 24       		.uleb128 0x24
 1089 01dd 06       		.uleb128 0x6
 1090 01de 43050000 		.4byte	.LASF37
 1091 01e2 06       		.byte	0x6
 1092 01e3 B9       		.byte	0xb9
 1093 01e4 8D020000 		.4byte	0x28d
 1094 01e8 02       		.byte	0x2
 1095 01e9 23       		.byte	0x23
 1096 01ea 28       		.uleb128 0x28
 1097 01eb 06       		.uleb128 0x6
 1098 01ec 82010000 		.4byte	.LASF38
 1099 01f0 06       		.byte	0x6
 1100 01f1 BF       		.byte	0xbf
 1101 01f2 6B020000 		.4byte	0x26b
 1102 01f6 02       		.byte	0x2
 1103 01f7 23       		.byte	0x23
 1104 01f8 2C       		.uleb128 0x2c
 1105 01f9 06       		.uleb128 0x6
 1106 01fa 28050000 		.4byte	.LASF39
 1107 01fe 06       		.byte	0x6
 1108 01ff C3       		.byte	0xc3
 1109 0200 E4000000 		.4byte	0xe4
 1110 0204 02       		.byte	0x2
 1111 0205 23       		.byte	0x23
 1112 0206 34       		.uleb128 0x34
 1113 0207 06       		.uleb128 0x6
 1114 0208 DD030000 		.4byte	.LASF40
 1115 020c 06       		.byte	0x6
 1116 020d C9       		.byte	0xc9
 1117 020e EF000000 		.4byte	0xef
 1118 0212 02       		.byte	0x2
 1119 0213 23       		.byte	0x23
 1120 0214 38       		.uleb128 0x38
 1121 0215 06       		.uleb128 0x6
 1122 0216 94030000 		.4byte	.LASF41
 1123 021a 06       		.byte	0x6
 1124 021b D0       		.byte	0xd0
 1125 021c 6D040000 		.4byte	0x46d
 1126 0220 02       		.byte	0x2
 1127 0221 23       		.byte	0x23
 1128 0222 3C       		.uleb128 0x3c
 1129 0223 06       		.uleb128 0x6
 1130 0224 5B040000 		.4byte	.LASF42
 1131 0228 06       		.byte	0x6
 1132 0229 D4       		.byte	0xd4
 1133 022a D9000000 		.4byte	0xd9
ARM GAS  C:\Users\DNIEL~1\AppData\Local\Temp\ccTrwnMY.s 			page 21


 1134 022e 02       		.byte	0x2
 1135 022f 23       		.byte	0x23
 1136 0230 40       		.uleb128 0x40
 1137 0231 06       		.uleb128 0x6
 1138 0232 A3000000 		.4byte	.LASF43
 1139 0236 06       		.byte	0x6
 1140 0237 DA       		.byte	0xda
 1141 0238 A3020000 		.4byte	0x2a3
 1142 023c 02       		.byte	0x2
 1143 023d 23       		.byte	0x23
 1144 023e 44       		.uleb128 0x44
 1145 023f 00       		.byte	0
 1146 0240 08       		.uleb128 0x8
 1147 0241 08       		.byte	0x8
 1148 0242 05       		.byte	0x5
 1149 0243 61       		.byte	0x61
 1150 0244 65020000 		.4byte	0x265
 1151 0248 06       		.uleb128 0x6
 1152 0249 C1030000 		.4byte	.LASF25
 1153 024d 05       		.byte	0x5
 1154 024e 62       		.byte	0x62
 1155 024f 65020000 		.4byte	0x265
 1156 0253 02       		.byte	0x2
 1157 0254 23       		.byte	0x23
 1158 0255 00       		.uleb128 0
 1159 0256 06       		.uleb128 0x6
 1160 0257 4E020000 		.4byte	.LASF26
 1161 025b 05       		.byte	0x5
 1162 025c 64       		.byte	0x64
 1163 025d 65020000 		.4byte	0x265
 1164 0261 02       		.byte	0x2
 1165 0262 23       		.byte	0x23
 1166 0263 04       		.uleb128 0x4
 1167 0264 00       		.byte	0
 1168 0265 09       		.uleb128 0x9
 1169 0266 04       		.byte	0x4
 1170 0267 10010000 		.4byte	0x110
 1171 026b 03       		.uleb128 0x3
 1172 026c 41000000 		.4byte	.LASF44
 1173 0270 05       		.byte	0x5
 1174 0271 66       		.byte	0x66
 1175 0272 40020000 		.4byte	0x240
 1176 0276 08       		.uleb128 0x8
 1177 0277 04       		.byte	0x4
 1178 0278 05       		.byte	0x5
 1179 0279 6B       		.byte	0x6b
 1180 027a 8D020000 		.4byte	0x28d
 1181 027e 06       		.uleb128 0x6
 1182 027f C1030000 		.4byte	.LASF25
 1183 0283 05       		.byte	0x5
 1184 0284 6D       		.byte	0x6d
 1185 0285 65020000 		.4byte	0x265
 1186 0289 02       		.byte	0x2
 1187 028a 23       		.byte	0x23
 1188 028b 00       		.uleb128 0
 1189 028c 00       		.byte	0
 1190 028d 03       		.uleb128 0x3
ARM GAS  C:\Users\DNIEL~1\AppData\Local\Temp\ccTrwnMY.s 			page 22


 1191 028e F4010000 		.4byte	.LASF45
 1192 0292 05       		.byte	0x5
 1193 0293 70       		.byte	0x70
 1194 0294 76020000 		.4byte	0x276
 1195 0298 03       		.uleb128 0x3
 1196 0299 21010000 		.4byte	.LASF46
 1197 029d 07       		.byte	0x7
 1198 029e E5       		.byte	0xe5
 1199 029f A3020000 		.4byte	0x2a3
 1200 02a3 0A       		.uleb128 0xa
 1201 02a4 04       		.byte	0x4
 1202 02a5 0B       		.uleb128 0xb
 1203 02a6 7E040000 		.4byte	.LASF47
 1204 02aa 24       		.byte	0x24
 1205 02ab 07       		.byte	0x7
 1206 02ac 0C01     		.2byte	0x10c
 1207 02ae 33030000 		.4byte	0x333
 1208 02b2 0C       		.uleb128 0xc
 1209 02b3 723400   		.ascii	"r4\000"
 1210 02b6 07       		.byte	0x7
 1211 02b7 1F01     		.2byte	0x11f
 1212 02b9 98020000 		.4byte	0x298
 1213 02bd 02       		.byte	0x2
 1214 02be 23       		.byte	0x23
 1215 02bf 00       		.uleb128 0
 1216 02c0 0C       		.uleb128 0xc
 1217 02c1 723500   		.ascii	"r5\000"
 1218 02c4 07       		.byte	0x7
 1219 02c5 2001     		.2byte	0x120
 1220 02c7 98020000 		.4byte	0x298
 1221 02cb 02       		.byte	0x2
 1222 02cc 23       		.byte	0x23
 1223 02cd 04       		.uleb128 0x4
 1224 02ce 0C       		.uleb128 0xc
 1225 02cf 723600   		.ascii	"r6\000"
 1226 02d2 07       		.byte	0x7
 1227 02d3 2101     		.2byte	0x121
 1228 02d5 98020000 		.4byte	0x298
 1229 02d9 02       		.byte	0x2
 1230 02da 23       		.byte	0x23
 1231 02db 08       		.uleb128 0x8
 1232 02dc 0C       		.uleb128 0xc
 1233 02dd 723700   		.ascii	"r7\000"
 1234 02e0 07       		.byte	0x7
 1235 02e1 2201     		.2byte	0x122
 1236 02e3 98020000 		.4byte	0x298
 1237 02e7 02       		.byte	0x2
 1238 02e8 23       		.byte	0x23
 1239 02e9 0C       		.uleb128 0xc
 1240 02ea 0C       		.uleb128 0xc
 1241 02eb 723800   		.ascii	"r8\000"
 1242 02ee 07       		.byte	0x7
 1243 02ef 2301     		.2byte	0x123
 1244 02f1 98020000 		.4byte	0x298
 1245 02f5 02       		.byte	0x2
 1246 02f6 23       		.byte	0x23
 1247 02f7 10       		.uleb128 0x10
ARM GAS  C:\Users\DNIEL~1\AppData\Local\Temp\ccTrwnMY.s 			page 23


 1248 02f8 0C       		.uleb128 0xc
 1249 02f9 723900   		.ascii	"r9\000"
 1250 02fc 07       		.byte	0x7
 1251 02fd 2401     		.2byte	0x124
 1252 02ff 98020000 		.4byte	0x298
 1253 0303 02       		.byte	0x2
 1254 0304 23       		.byte	0x23
 1255 0305 14       		.uleb128 0x14
 1256 0306 0C       		.uleb128 0xc
 1257 0307 72313000 		.ascii	"r10\000"
 1258 030b 07       		.byte	0x7
 1259 030c 2501     		.2byte	0x125
 1260 030e 98020000 		.4byte	0x298
 1261 0312 02       		.byte	0x2
 1262 0313 23       		.byte	0x23
 1263 0314 18       		.uleb128 0x18
 1264 0315 0C       		.uleb128 0xc
 1265 0316 72313100 		.ascii	"r11\000"
 1266 031a 07       		.byte	0x7
 1267 031b 2601     		.2byte	0x126
 1268 031d 98020000 		.4byte	0x298
 1269 0321 02       		.byte	0x2
 1270 0322 23       		.byte	0x23
 1271 0323 1C       		.uleb128 0x1c
 1272 0324 0C       		.uleb128 0xc
 1273 0325 6C7200   		.ascii	"lr\000"
 1274 0328 07       		.byte	0x7
 1275 0329 2701     		.2byte	0x127
 1276 032b 98020000 		.4byte	0x298
 1277 032f 02       		.byte	0x2
 1278 0330 23       		.byte	0x23
 1279 0331 20       		.uleb128 0x20
 1280 0332 00       		.byte	0
 1281 0333 0B       		.uleb128 0xb
 1282 0334 A7010000 		.4byte	.LASF48
 1283 0338 04       		.byte	0x4
 1284 0339 07       		.byte	0x7
 1285 033a 3101     		.2byte	0x131
 1286 033c 50030000 		.4byte	0x350
 1287 0340 0C       		.uleb128 0xc
 1288 0341 72313300 		.ascii	"r13\000"
 1289 0345 07       		.byte	0x7
 1290 0346 3201     		.2byte	0x132
 1291 0348 50030000 		.4byte	0x350
 1292 034c 02       		.byte	0x2
 1293 034d 23       		.byte	0x23
 1294 034e 00       		.uleb128 0
 1295 034f 00       		.byte	0
 1296 0350 09       		.uleb128 0x9
 1297 0351 04       		.byte	0x4
 1298 0352 A5020000 		.4byte	0x2a5
 1299 0356 04       		.uleb128 0x4
 1300 0357 04       		.byte	0x4
 1301 0358 07       		.byte	0x7
 1302 0359 55020000 		.4byte	.LASF49
 1303 035d 0D       		.uleb128 0xd
 1304 035e 05010000 		.4byte	0x105
ARM GAS  C:\Users\DNIEL~1\AppData\Local\Temp\ccTrwnMY.s 			page 24


 1305 0362 05       		.uleb128 0x5
 1306 0363 17020000 		.4byte	.LASF50
 1307 0367 10       		.byte	0x10
 1308 0368 08       		.byte	0x8
 1309 0369 2C       		.byte	0x2c
 1310 036a 99030000 		.4byte	0x399
 1311 036e 06       		.uleb128 0x6
 1312 036f C2000000 		.4byte	.LASF51
 1313 0373 08       		.byte	0x8
 1314 0374 2D       		.byte	0x2d
 1315 0375 6B020000 		.4byte	0x26b
 1316 0379 02       		.byte	0x2
 1317 037a 23       		.byte	0x23
 1318 037b 00       		.uleb128 0
 1319 037c 06       		.uleb128 0x6
 1320 037d 35050000 		.4byte	.LASF52
 1321 0381 08       		.byte	0x8
 1322 0382 2F       		.byte	0x2f
 1323 0383 65020000 		.4byte	0x265
 1324 0387 02       		.byte	0x2
 1325 0388 23       		.byte	0x23
 1326 0389 08       		.uleb128 0x8
 1327 038a 06       		.uleb128 0x6
 1328 038b 4A040000 		.4byte	.LASF53
 1329 038f 08       		.byte	0x8
 1330 0390 31       		.byte	0x31
 1331 0391 99030000 		.4byte	0x399
 1332 0395 02       		.byte	0x2
 1333 0396 23       		.byte	0x23
 1334 0397 0C       		.uleb128 0xc
 1335 0398 00       		.byte	0
 1336 0399 09       		.uleb128 0x9
 1337 039a 04       		.byte	0x4
 1338 039b 62030000 		.4byte	0x362
 1339 039f 03       		.uleb128 0x3
 1340 03a0 17020000 		.4byte	.LASF50
 1341 03a4 08       		.byte	0x8
 1342 03a5 33       		.byte	0x33
 1343 03a6 62030000 		.4byte	0x362
 1344 03aa 03       		.uleb128 0x3
 1345 03ab FE040000 		.4byte	.LASF54
 1346 03af 09       		.byte	0x9
 1347 03b0 2C       		.byte	0x2c
 1348 03b1 B5030000 		.4byte	0x3b5
 1349 03b5 05       		.uleb128 0x5
 1350 03b6 FE040000 		.4byte	.LASF54
 1351 03ba 10       		.byte	0x10
 1352 03bb 09       		.byte	0x9
 1353 03bc 31       		.byte	0x31
 1354 03bd FA030000 		.4byte	0x3fa
 1355 03c1 06       		.uleb128 0x6
 1356 03c2 CF010000 		.4byte	.LASF55
 1357 03c6 09       		.byte	0x9
 1358 03c7 32       		.byte	0x32
 1359 03c8 FA030000 		.4byte	0x3fa
 1360 03cc 02       		.byte	0x2
 1361 03cd 23       		.byte	0x23
ARM GAS  C:\Users\DNIEL~1\AppData\Local\Temp\ccTrwnMY.s 			page 25


 1362 03ce 00       		.uleb128 0
 1363 03cf 06       		.uleb128 0x6
 1364 03d0 72030000 		.4byte	.LASF56
 1365 03d4 09       		.byte	0x9
 1366 03d5 35       		.byte	0x35
 1367 03d6 65020000 		.4byte	0x265
 1368 03da 02       		.byte	0x2
 1369 03db 23       		.byte	0x23
 1370 03dc 04       		.uleb128 0x4
 1371 03dd 06       		.uleb128 0x6
 1372 03de E6020000 		.4byte	.LASF57
 1373 03e2 09       		.byte	0x9
 1374 03e3 37       		.byte	0x37
 1375 03e4 EF000000 		.4byte	0xef
 1376 03e8 02       		.byte	0x2
 1377 03e9 23       		.byte	0x23
 1378 03ea 08       		.uleb128 0x8
 1379 03eb 06       		.uleb128 0x6
 1380 03ec 8B030000 		.4byte	.LASF58
 1381 03f0 09       		.byte	0x9
 1382 03f1 3A       		.byte	0x3a
 1383 03f2 FA000000 		.4byte	0xfa
 1384 03f6 02       		.byte	0x2
 1385 03f7 23       		.byte	0x23
 1386 03f8 0C       		.uleb128 0xc
 1387 03f9 00       		.byte	0
 1388 03fa 09       		.uleb128 0x9
 1389 03fb 04       		.byte	0x4
 1390 03fc AA030000 		.4byte	0x3aa
 1391 0400 05       		.uleb128 0x5
 1392 0401 3C010000 		.4byte	.LASF59
 1393 0405 04       		.byte	0x4
 1394 0406 09       		.byte	0x9
 1395 0407 41       		.byte	0x41
 1396 0408 1B040000 		.4byte	0x41b
 1397 040c 06       		.uleb128 0x6
 1398 040d 39000000 		.4byte	.LASF60
 1399 0411 09       		.byte	0x9
 1400 0412 42       		.byte	0x42
 1401 0413 FA030000 		.4byte	0x3fa
 1402 0417 02       		.byte	0x2
 1403 0418 23       		.byte	0x23
 1404 0419 00       		.uleb128 0
 1405 041a 00       		.byte	0
 1406 041b 03       		.uleb128 0x3
 1407 041c 3C010000 		.4byte	.LASF59
 1408 0420 09       		.byte	0x9
 1409 0421 45       		.byte	0x45
 1410 0422 00040000 		.4byte	0x400
 1411 0426 0E       		.uleb128 0xe
 1412 0427 04       		.byte	0x4
 1413 0428 06       		.byte	0x6
 1414 0429 96       		.byte	0x96
 1415 042a 5B040000 		.4byte	0x45b
 1416 042e 0F       		.uleb128 0xf
 1417 042f 1E000000 		.4byte	.LASF61
 1418 0433 06       		.byte	0x6
ARM GAS  C:\Users\DNIEL~1\AppData\Local\Temp\ccTrwnMY.s 			page 26


 1419 0434 9D       		.byte	0x9d
 1420 0435 E4000000 		.4byte	0xe4
 1421 0439 0F       		.uleb128 0xf
 1422 043a 4E000000 		.4byte	.LASF62
 1423 043e 06       		.byte	0x6
 1424 043f A4       		.byte	0xa4
 1425 0440 E4000000 		.4byte	0xe4
 1426 0444 0F       		.uleb128 0xf
 1427 0445 D3000000 		.4byte	.LASF63
 1428 0449 06       		.byte	0x6
 1429 044a AB       		.byte	0xab
 1430 044b A3020000 		.4byte	0x2a3
 1431 044f 0F       		.uleb128 0xf
 1432 0450 BA030000 		.4byte	.LASF64
 1433 0454 06       		.byte	0x6
 1434 0455 B2       		.byte	0xb2
 1435 0456 EF000000 		.4byte	0xef
 1436 045a 00       		.byte	0
 1437 045b 09       		.uleb128 0x9
 1438 045c 04       		.byte	0x4
 1439 045d 61040000 		.4byte	0x461
 1440 0461 10       		.uleb128 0x10
 1441 0462 66040000 		.4byte	0x466
 1442 0466 04       		.uleb128 0x4
 1443 0467 01       		.byte	0x1
 1444 0468 08       		.byte	0x8
 1445 0469 45040000 		.4byte	.LASF65
 1446 046d 09       		.uleb128 0x9
 1447 046e 04       		.byte	0x4
 1448 046f 9F030000 		.4byte	0x39f
 1449 0473 09       		.uleb128 0x9
 1450 0474 04       		.byte	0x4
 1451 0475 79040000 		.4byte	0x479
 1452 0479 11       		.uleb128 0x11
 1453 047a 01       		.byte	0x1
 1454 047b E4000000 		.4byte	0xe4
 1455 047f 89040000 		.4byte	0x489
 1456 0483 12       		.uleb128 0x12
 1457 0484 A3020000 		.4byte	0x2a3
 1458 0488 00       		.byte	0
 1459 0489 03       		.uleb128 0x3
 1460 048a 1D020000 		.4byte	.LASF66
 1461 048e 0A       		.byte	0xa
 1462 048f 37       		.byte	0x37
 1463 0490 94040000 		.4byte	0x494
 1464 0494 05       		.uleb128 0x5
 1465 0495 1D020000 		.4byte	.LASF66
 1466 0499 24       		.byte	0x24
 1467 049a 0A       		.byte	0xa
 1468 049b 45       		.byte	0x45
 1469 049c 11050000 		.4byte	0x511
 1470 04a0 06       		.uleb128 0x6
 1471 04a1 7A000000 		.4byte	.LASF67
 1472 04a5 0A       		.byte	0xa
 1473 04a6 46       		.byte	0x46
 1474 04a7 6B020000 		.4byte	0x26b
 1475 04ab 02       		.byte	0x2
ARM GAS  C:\Users\DNIEL~1\AppData\Local\Temp\ccTrwnMY.s 			page 27


 1476 04ac 23       		.byte	0x23
 1477 04ad 00       		.uleb128 0
 1478 04ae 06       		.uleb128 0x6
 1479 04af 5E020000 		.4byte	.LASF68
 1480 04b3 0A       		.byte	0xa
 1481 04b4 47       		.byte	0x47
 1482 04b5 30000000 		.4byte	0x30
 1483 04b9 02       		.byte	0x2
 1484 04ba 23       		.byte	0x23
 1485 04bb 08       		.uleb128 0x8
 1486 04bc 06       		.uleb128 0x6
 1487 04bd FC000000 		.4byte	.LASF69
 1488 04c1 0A       		.byte	0xa
 1489 04c2 48       		.byte	0x48
 1490 04c3 34050000 		.4byte	0x534
 1491 04c7 02       		.byte	0x2
 1492 04c8 23       		.byte	0x23
 1493 04c9 0C       		.uleb128 0xc
 1494 04ca 06       		.uleb128 0x6
 1495 04cb A4040000 		.4byte	.LASF70
 1496 04cf 0A       		.byte	0xa
 1497 04d0 49       		.byte	0x49
 1498 04d1 34050000 		.4byte	0x534
 1499 04d5 02       		.byte	0x2
 1500 04d6 23       		.byte	0x23
 1501 04d7 10       		.uleb128 0x10
 1502 04d8 06       		.uleb128 0x6
 1503 04d9 CE020000 		.4byte	.LASF71
 1504 04dd 0A       		.byte	0xa
 1505 04de 4B       		.byte	0x4b
 1506 04df 34050000 		.4byte	0x534
 1507 04e3 02       		.byte	0x2
 1508 04e4 23       		.byte	0x23
 1509 04e5 14       		.uleb128 0x14
 1510 04e6 06       		.uleb128 0x6
 1511 04e7 42030000 		.4byte	.LASF72
 1512 04eb 0A       		.byte	0xa
 1513 04ec 4C       		.byte	0x4c
 1514 04ed 34050000 		.4byte	0x534
 1515 04f1 02       		.byte	0x2
 1516 04f2 23       		.byte	0x23
 1517 04f3 18       		.uleb128 0x18
 1518 04f4 06       		.uleb128 0x6
 1519 04f5 E3040000 		.4byte	.LASF73
 1520 04f9 0A       		.byte	0xa
 1521 04fa 4D       		.byte	0x4d
 1522 04fb 11050000 		.4byte	0x511
 1523 04ff 02       		.byte	0x2
 1524 0500 23       		.byte	0x23
 1525 0501 1C       		.uleb128 0x1c
 1526 0502 06       		.uleb128 0x6
 1527 0503 2E050000 		.4byte	.LASF74
 1528 0507 0A       		.byte	0xa
 1529 0508 4E       		.byte	0x4e
 1530 0509 A3020000 		.4byte	0x2a3
 1531 050d 02       		.byte	0x2
 1532 050e 23       		.byte	0x23
ARM GAS  C:\Users\DNIEL~1\AppData\Local\Temp\ccTrwnMY.s 			page 28


 1533 050f 20       		.uleb128 0x20
 1534 0510 00       		.byte	0
 1535 0511 03       		.uleb128 0x3
 1536 0512 14030000 		.4byte	.LASF75
 1537 0516 0A       		.byte	0xa
 1538 0517 3A       		.byte	0x3a
 1539 0518 1C050000 		.4byte	0x51c
 1540 051c 09       		.uleb128 0x9
 1541 051d 04       		.byte	0x4
 1542 051e 22050000 		.4byte	0x522
 1543 0522 13       		.uleb128 0x13
 1544 0523 01       		.byte	0x1
 1545 0524 2E050000 		.4byte	0x52e
 1546 0528 12       		.uleb128 0x12
 1547 0529 2E050000 		.4byte	0x52e
 1548 052d 00       		.byte	0
 1549 052e 09       		.uleb128 0x9
 1550 052f 04       		.byte	0x4
 1551 0530 89040000 		.4byte	0x489
 1552 0534 09       		.uleb128 0x9
 1553 0535 04       		.byte	0x4
 1554 0536 49000000 		.4byte	0x49
 1555 053a 03       		.uleb128 0x3
 1556 053b 0C020000 		.4byte	.LASF76
 1557 053f 0A       		.byte	0xa
 1558 0540 82       		.byte	0x82
 1559 0541 89040000 		.4byte	0x489
 1560 0545 03       		.uleb128 0x3
 1561 0546 25000000 		.4byte	.LASF77
 1562 054a 0A       		.byte	0xa
 1563 054b F5       		.byte	0xf5
 1564 054c 89040000 		.4byte	0x489
 1565 0550 11       		.uleb128 0x11
 1566 0551 01       		.byte	0x1
 1567 0552 30000000 		.4byte	0x30
 1568 0556 6A050000 		.4byte	0x56a
 1569 055a 12       		.uleb128 0x12
 1570 055b A3020000 		.4byte	0x2a3
 1571 055f 12       		.uleb128 0x12
 1572 0560 6A050000 		.4byte	0x56a
 1573 0564 12       		.uleb128 0x12
 1574 0565 30000000 		.4byte	0x30
 1575 0569 00       		.byte	0
 1576 056a 09       		.uleb128 0x9
 1577 056b 04       		.byte	0x4
 1578 056c 70050000 		.4byte	0x570
 1579 0570 10       		.uleb128 0x10
 1580 0571 49000000 		.4byte	0x49
 1581 0575 09       		.uleb128 0x9
 1582 0576 04       		.byte	0x4
 1583 0577 50050000 		.4byte	0x550
 1584 057b 11       		.uleb128 0x11
 1585 057c 01       		.byte	0x1
 1586 057d 30000000 		.4byte	0x30
 1587 0581 95050000 		.4byte	0x595
 1588 0585 12       		.uleb128 0x12
 1589 0586 A3020000 		.4byte	0x2a3
ARM GAS  C:\Users\DNIEL~1\AppData\Local\Temp\ccTrwnMY.s 			page 29


 1590 058a 12       		.uleb128 0x12
 1591 058b 34050000 		.4byte	0x534
 1592 058f 12       		.uleb128 0x12
 1593 0590 30000000 		.4byte	0x30
 1594 0594 00       		.byte	0
 1595 0595 09       		.uleb128 0x9
 1596 0596 04       		.byte	0x4
 1597 0597 7B050000 		.4byte	0x57b
 1598 059b 11       		.uleb128 0x11
 1599 059c 01       		.byte	0x1
 1600 059d E4000000 		.4byte	0xe4
 1601 05a1 B0050000 		.4byte	0x5b0
 1602 05a5 12       		.uleb128 0x12
 1603 05a6 A3020000 		.4byte	0x2a3
 1604 05aa 12       		.uleb128 0x12
 1605 05ab 49000000 		.4byte	0x49
 1606 05af 00       		.byte	0
 1607 05b0 09       		.uleb128 0x9
 1608 05b1 04       		.byte	0x4
 1609 05b2 9B050000 		.4byte	0x59b
 1610 05b6 0D       		.uleb128 0xd
 1611 05b7 62000000 		.4byte	0x62
 1612 05bb 0D       		.uleb128 0xd
 1613 05bc 74000000 		.4byte	0x74
 1614 05c0 14       		.uleb128 0x14
 1615 05c1 1C       		.byte	0x1c
 1616 05c2 0B       		.byte	0xb
 1617 05c3 2905     		.2byte	0x529
 1618 05c5 9A060000 		.4byte	0x69a
 1619 05c9 0C       		.uleb128 0xc
 1620 05ca 535200   		.ascii	"SR\000"
 1621 05cd 0B       		.byte	0xb
 1622 05ce 2B05     		.2byte	0x52b
 1623 05d0 B6050000 		.4byte	0x5b6
 1624 05d4 02       		.byte	0x2
 1625 05d5 23       		.byte	0x23
 1626 05d6 00       		.uleb128 0
 1627 05d7 15       		.uleb128 0x15
 1628 05d8 F6020000 		.4byte	.LASF78
 1629 05dc 0B       		.byte	0xb
 1630 05dd 2C05     		.2byte	0x52c
 1631 05df 62000000 		.4byte	0x62
 1632 05e3 02       		.byte	0x2
 1633 05e4 23       		.byte	0x23
 1634 05e5 02       		.uleb128 0x2
 1635 05e6 0C       		.uleb128 0xc
 1636 05e7 445200   		.ascii	"DR\000"
 1637 05ea 0B       		.byte	0xb
 1638 05eb 2D05     		.2byte	0x52d
 1639 05ed B6050000 		.4byte	0x5b6
 1640 05f1 02       		.byte	0x2
 1641 05f2 23       		.byte	0x23
 1642 05f3 04       		.uleb128 0x4
 1643 05f4 15       		.uleb128 0x15
 1644 05f5 00030000 		.4byte	.LASF79
 1645 05f9 0B       		.byte	0xb
 1646 05fa 2E05     		.2byte	0x52e
ARM GAS  C:\Users\DNIEL~1\AppData\Local\Temp\ccTrwnMY.s 			page 30


 1647 05fc 62000000 		.4byte	0x62
 1648 0600 02       		.byte	0x2
 1649 0601 23       		.byte	0x23
 1650 0602 06       		.uleb128 0x6
 1651 0603 0C       		.uleb128 0xc
 1652 0604 42525200 		.ascii	"BRR\000"
 1653 0608 0B       		.byte	0xb
 1654 0609 2F05     		.2byte	0x52f
 1655 060b B6050000 		.4byte	0x5b6
 1656 060f 02       		.byte	0x2
 1657 0610 23       		.byte	0x23
 1658 0611 08       		.uleb128 0x8
 1659 0612 15       		.uleb128 0x15
 1660 0613 0A030000 		.4byte	.LASF80
 1661 0617 0B       		.byte	0xb
 1662 0618 3005     		.2byte	0x530
 1663 061a 62000000 		.4byte	0x62
 1664 061e 02       		.byte	0x2
 1665 061f 23       		.byte	0x23
 1666 0620 0A       		.uleb128 0xa
 1667 0621 0C       		.uleb128 0xc
 1668 0622 43523100 		.ascii	"CR1\000"
 1669 0626 0B       		.byte	0xb
 1670 0627 3105     		.2byte	0x531
 1671 0629 B6050000 		.4byte	0x5b6
 1672 062d 02       		.byte	0x2
 1673 062e 23       		.byte	0x23
 1674 062f 0C       		.uleb128 0xc
 1675 0630 15       		.uleb128 0x15
 1676 0631 74040000 		.4byte	.LASF81
 1677 0635 0B       		.byte	0xb
 1678 0636 3205     		.2byte	0x532
 1679 0638 62000000 		.4byte	0x62
 1680 063c 02       		.byte	0x2
 1681 063d 23       		.byte	0x23
 1682 063e 0E       		.uleb128 0xe
 1683 063f 0C       		.uleb128 0xc
 1684 0640 43523200 		.ascii	"CR2\000"
 1685 0644 0B       		.byte	0xb
 1686 0645 3305     		.2byte	0x533
 1687 0647 B6050000 		.4byte	0x5b6
 1688 064b 02       		.byte	0x2
 1689 064c 23       		.byte	0x23
 1690 064d 10       		.uleb128 0x10
 1691 064e 15       		.uleb128 0x15
 1692 064f 1E030000 		.4byte	.LASF82
 1693 0653 0B       		.byte	0xb
 1694 0654 3405     		.2byte	0x534
 1695 0656 62000000 		.4byte	0x62
 1696 065a 02       		.byte	0x2
 1697 065b 23       		.byte	0x23
 1698 065c 12       		.uleb128 0x12
 1699 065d 0C       		.uleb128 0xc
 1700 065e 43523300 		.ascii	"CR3\000"
 1701 0662 0B       		.byte	0xb
 1702 0663 3505     		.2byte	0x535
 1703 0665 B6050000 		.4byte	0x5b6
ARM GAS  C:\Users\DNIEL~1\AppData\Local\Temp\ccTrwnMY.s 			page 31


 1704 0669 02       		.byte	0x2
 1705 066a 23       		.byte	0x23
 1706 066b 14       		.uleb128 0x14
 1707 066c 15       		.uleb128 0x15
 1708 066d 08040000 		.4byte	.LASF83
 1709 0671 0B       		.byte	0xb
 1710 0672 3605     		.2byte	0x536
 1711 0674 62000000 		.4byte	0x62
 1712 0678 02       		.byte	0x2
 1713 0679 23       		.byte	0x23
 1714 067a 16       		.uleb128 0x16
 1715 067b 15       		.uleb128 0x15
 1716 067c 9E000000 		.4byte	.LASF84
 1717 0680 0B       		.byte	0xb
 1718 0681 3705     		.2byte	0x537
 1719 0683 B6050000 		.4byte	0x5b6
 1720 0687 02       		.byte	0x2
 1721 0688 23       		.byte	0x23
 1722 0689 18       		.uleb128 0x18
 1723 068a 15       		.uleb128 0x15
 1724 068b 30030000 		.4byte	.LASF85
 1725 068f 0B       		.byte	0xb
 1726 0690 3805     		.2byte	0x538
 1727 0692 62000000 		.4byte	0x62
 1728 0696 02       		.byte	0x2
 1729 0697 23       		.byte	0x23
 1730 0698 1A       		.uleb128 0x1a
 1731 0699 00       		.byte	0
 1732 069a 16       		.uleb128 0x16
 1733 069b D7010000 		.4byte	.LASF86
 1734 069f 0B       		.byte	0xb
 1735 06a0 3905     		.2byte	0x539
 1736 06a2 C0050000 		.4byte	0x5c0
 1737 06a6 11       		.uleb128 0x11
 1738 06a7 01       		.byte	0x1
 1739 06a8 E4000000 		.4byte	0xe4
 1740 06ac C0060000 		.4byte	0x6c0
 1741 06b0 12       		.uleb128 0x12
 1742 06b1 A3020000 		.4byte	0x2a3
 1743 06b5 12       		.uleb128 0x12
 1744 06b6 49000000 		.4byte	0x49
 1745 06ba 12       		.uleb128 0x12
 1746 06bb 05010000 		.4byte	0x105
 1747 06bf 00       		.byte	0
 1748 06c0 09       		.uleb128 0x9
 1749 06c1 04       		.byte	0x4
 1750 06c2 A6060000 		.4byte	0x6a6
 1751 06c6 11       		.uleb128 0x11
 1752 06c7 01       		.byte	0x1
 1753 06c8 E4000000 		.4byte	0xe4
 1754 06cc DB060000 		.4byte	0x6db
 1755 06d0 12       		.uleb128 0x12
 1756 06d1 A3020000 		.4byte	0x2a3
 1757 06d5 12       		.uleb128 0x12
 1758 06d6 05010000 		.4byte	0x105
 1759 06da 00       		.byte	0
 1760 06db 09       		.uleb128 0x9
ARM GAS  C:\Users\DNIEL~1\AppData\Local\Temp\ccTrwnMY.s 			page 32


 1761 06dc 04       		.byte	0x4
 1762 06dd C6060000 		.4byte	0x6c6
 1763 06e1 11       		.uleb128 0x11
 1764 06e2 01       		.byte	0x1
 1765 06e3 30000000 		.4byte	0x30
 1766 06e7 00070000 		.4byte	0x700
 1767 06eb 12       		.uleb128 0x12
 1768 06ec A3020000 		.4byte	0x2a3
 1769 06f0 12       		.uleb128 0x12
 1770 06f1 6A050000 		.4byte	0x56a
 1771 06f5 12       		.uleb128 0x12
 1772 06f6 30000000 		.4byte	0x30
 1773 06fa 12       		.uleb128 0x12
 1774 06fb 05010000 		.4byte	0x105
 1775 06ff 00       		.byte	0
 1776 0700 09       		.uleb128 0x9
 1777 0701 04       		.byte	0x4
 1778 0702 E1060000 		.4byte	0x6e1
 1779 0706 11       		.uleb128 0x11
 1780 0707 01       		.byte	0x1
 1781 0708 30000000 		.4byte	0x30
 1782 070c 25070000 		.4byte	0x725
 1783 0710 12       		.uleb128 0x12
 1784 0711 A3020000 		.4byte	0x2a3
 1785 0715 12       		.uleb128 0x12
 1786 0716 34050000 		.4byte	0x534
 1787 071a 12       		.uleb128 0x12
 1788 071b 30000000 		.4byte	0x30
 1789 071f 12       		.uleb128 0x12
 1790 0720 05010000 		.4byte	0x105
 1791 0724 00       		.byte	0
 1792 0725 09       		.uleb128 0x9
 1793 0726 04       		.byte	0x4
 1794 0727 06070000 		.4byte	0x706
 1795 072b 17       		.uleb128 0x17
 1796 072c 01       		.byte	0x1
 1797 072d 0C       		.byte	0xc
 1798 072e 64       		.byte	0x64
 1799 072f 46070000 		.4byte	0x746
 1800 0733 18       		.uleb128 0x18
 1801 0734 E8030000 		.4byte	.LASF87
 1802 0738 00       		.sleb128 0
 1803 0739 18       		.uleb128 0x18
 1804 073a 28030000 		.4byte	.LASF88
 1805 073e 01       		.sleb128 1
 1806 073f 18       		.uleb128 0x18
 1807 0740 85040000 		.4byte	.LASF89
 1808 0744 02       		.sleb128 2
 1809 0745 00       		.byte	0
 1810 0746 03       		.uleb128 0x3
 1811 0747 9A040000 		.4byte	.LASF90
 1812 074b 0C       		.byte	0xc
 1813 074c 68       		.byte	0x68
 1814 074d 2B070000 		.4byte	0x72b
 1815 0751 03       		.uleb128 0x3
 1816 0752 26040000 		.4byte	.LASF91
 1817 0756 0C       		.byte	0xc
ARM GAS  C:\Users\DNIEL~1\AppData\Local\Temp\ccTrwnMY.s 			page 33


 1818 0757 6D       		.byte	0x6d
 1819 0758 5C070000 		.4byte	0x75c
 1820 075c 05       		.uleb128 0x5
 1821 075d 26040000 		.4byte	.LASF91
 1822 0761 78       		.byte	0x78
 1823 0762 0C       		.byte	0xc
 1824 0763 87       		.byte	0x87
 1825 0764 D7070000 		.4byte	0x7d7
 1826 0768 07       		.uleb128 0x7
 1827 0769 766D7400 		.ascii	"vmt\000"
 1828 076d 0C       		.byte	0xc
 1829 076e 89       		.byte	0x89
 1830 076f 54080000 		.4byte	0x854
 1831 0773 02       		.byte	0x2
 1832 0774 23       		.byte	0x23
 1833 0775 00       		.uleb128 0
 1834 0776 06       		.uleb128 0x6
 1835 0777 A1010000 		.4byte	.LASF92
 1836 077b 0C       		.byte	0xc
 1837 077c 8A       		.byte	0x8a
 1838 077d 1B040000 		.4byte	0x41b
 1839 0781 02       		.byte	0x2
 1840 0782 23       		.byte	0x23
 1841 0783 04       		.uleb128 0x4
 1842 0784 06       		.uleb128 0x6
 1843 0785 E4000000 		.4byte	.LASF93
 1844 0789 0C       		.byte	0xc
 1845 078a 8A       		.byte	0x8a
 1846 078b 46070000 		.4byte	0x746
 1847 078f 02       		.byte	0x2
 1848 0790 23       		.byte	0x23
 1849 0791 08       		.uleb128 0x8
 1850 0792 06       		.uleb128 0x6
 1851 0793 7B010000 		.4byte	.LASF94
 1852 0797 0C       		.byte	0xc
 1853 0798 8A       		.byte	0x8a
 1854 0799 3A050000 		.4byte	0x53a
 1855 079d 02       		.byte	0x2
 1856 079e 23       		.byte	0x23
 1857 079f 0C       		.uleb128 0xc
 1858 07a0 06       		.uleb128 0x6
 1859 07a1 C8010000 		.4byte	.LASF95
 1860 07a5 0C       		.byte	0xc
 1861 07a6 8A       		.byte	0x8a
 1862 07a7 45050000 		.4byte	0x545
 1863 07ab 02       		.byte	0x2
 1864 07ac 23       		.byte	0x23
 1865 07ad 30       		.uleb128 0x30
 1866 07ae 07       		.uleb128 0x7
 1867 07af 696200   		.ascii	"ib\000"
 1868 07b2 0C       		.byte	0xc
 1869 07b3 8A       		.byte	0x8a
 1870 07b4 5F080000 		.4byte	0x85f
 1871 07b8 02       		.byte	0x2
 1872 07b9 23       		.byte	0x23
 1873 07ba 54       		.uleb128 0x54
 1874 07bb 07       		.uleb128 0x7
ARM GAS  C:\Users\DNIEL~1\AppData\Local\Temp\ccTrwnMY.s 			page 34


 1875 07bc 6F6200   		.ascii	"ob\000"
 1876 07bf 0C       		.byte	0xc
 1877 07c0 8A       		.byte	0x8a
 1878 07c1 5F080000 		.4byte	0x85f
 1879 07c5 02       		.byte	0x2
 1880 07c6 23       		.byte	0x23
 1881 07c7 64       		.uleb128 0x64
 1882 07c8 06       		.uleb128 0x6
 1883 07c9 48010000 		.4byte	.LASF96
 1884 07cd 0C       		.byte	0xc
 1885 07ce 8A       		.byte	0x8a
 1886 07cf 6F080000 		.4byte	0x86f
 1887 07d3 02       		.byte	0x2
 1888 07d4 23       		.byte	0x23
 1889 07d5 74       		.uleb128 0x74
 1890 07d6 00       		.byte	0
 1891 07d7 05       		.uleb128 0x5
 1892 07d8 18050000 		.4byte	.LASF97
 1893 07dc 20       		.byte	0x20
 1894 07dd 0C       		.byte	0xc
 1895 07de 7C       		.byte	0x7c
 1896 07df 54080000 		.4byte	0x854
 1897 07e3 06       		.uleb128 0x6
 1898 07e4 36020000 		.4byte	.LASF98
 1899 07e8 0C       		.byte	0xc
 1900 07e9 7D       		.byte	0x7d
 1901 07ea 75050000 		.4byte	0x575
 1902 07ee 02       		.byte	0x2
 1903 07ef 23       		.byte	0x23
 1904 07f0 00       		.uleb128 0
 1905 07f1 06       		.uleb128 0x6
 1906 07f2 0C050000 		.4byte	.LASF99
 1907 07f6 0C       		.byte	0xc
 1908 07f7 7D       		.byte	0x7d
 1909 07f8 95050000 		.4byte	0x595
 1910 07fc 02       		.byte	0x2
 1911 07fd 23       		.byte	0x23
 1912 07fe 04       		.uleb128 0x4
 1913 07ff 07       		.uleb128 0x7
 1914 0800 70757400 		.ascii	"put\000"
 1915 0804 0C       		.byte	0xc
 1916 0805 7D       		.byte	0x7d
 1917 0806 B0050000 		.4byte	0x5b0
 1918 080a 02       		.byte	0x2
 1919 080b 23       		.byte	0x23
 1920 080c 08       		.uleb128 0x8
 1921 080d 07       		.uleb128 0x7
 1922 080e 67657400 		.ascii	"get\000"
 1923 0812 0C       		.byte	0xc
 1924 0813 7D       		.byte	0x7d
 1925 0814 73040000 		.4byte	0x473
 1926 0818 02       		.byte	0x2
 1927 0819 23       		.byte	0x23
 1928 081a 0C       		.uleb128 0xc
 1929 081b 06       		.uleb128 0x6
 1930 081c 3C020000 		.4byte	.LASF100
 1931 0820 0C       		.byte	0xc
ARM GAS  C:\Users\DNIEL~1\AppData\Local\Temp\ccTrwnMY.s 			page 35


 1932 0821 7D       		.byte	0x7d
 1933 0822 C0060000 		.4byte	0x6c0
 1934 0826 02       		.byte	0x2
 1935 0827 23       		.byte	0x23
 1936 0828 10       		.uleb128 0x10
 1937 0829 06       		.uleb128 0x6
 1938 082a 8D010000 		.4byte	.LASF101
 1939 082e 0C       		.byte	0xc
 1940 082f 7D       		.byte	0x7d
 1941 0830 DB060000 		.4byte	0x6db
 1942 0834 02       		.byte	0x2
 1943 0835 23       		.byte	0x23
 1944 0836 14       		.uleb128 0x14
 1945 0837 06       		.uleb128 0x6
 1946 0838 E5010000 		.4byte	.LASF102
 1947 083c 0C       		.byte	0xc
 1948 083d 7D       		.byte	0x7d
 1949 083e 00070000 		.4byte	0x700
 1950 0842 02       		.byte	0x2
 1951 0843 23       		.byte	0x23
 1952 0844 18       		.uleb128 0x18
 1953 0845 06       		.uleb128 0x6
 1954 0846 74000000 		.4byte	.LASF103
 1955 084a 0C       		.byte	0xc
 1956 084b 7D       		.byte	0x7d
 1957 084c 25070000 		.4byte	0x725
 1958 0850 02       		.byte	0x2
 1959 0851 23       		.byte	0x23
 1960 0852 1C       		.uleb128 0x1c
 1961 0853 00       		.byte	0
 1962 0854 09       		.uleb128 0x9
 1963 0855 04       		.byte	0x4
 1964 0856 5A080000 		.4byte	0x85a
 1965 085a 10       		.uleb128 0x10
 1966 085b D7070000 		.4byte	0x7d7
 1967 085f 19       		.uleb128 0x19
 1968 0860 49000000 		.4byte	0x49
 1969 0864 6F080000 		.4byte	0x86f
 1970 0868 1A       		.uleb128 0x1a
 1971 0869 56030000 		.4byte	0x356
 1972 086d 0F       		.byte	0xf
 1973 086e 00       		.byte	0
 1974 086f 09       		.uleb128 0x9
 1975 0870 04       		.byte	0x4
 1976 0871 9A060000 		.4byte	0x69a
 1977 0875 09       		.uleb128 0x9
 1978 0876 04       		.byte	0x4
 1979 0877 45050000 		.4byte	0x545
 1980 087b 09       		.uleb128 0x9
 1981 087c 04       		.byte	0x4
 1982 087d 66040000 		.4byte	0x466
 1983 0881 1B       		.uleb128 0x1b
 1984 0882 01       		.byte	0x1
 1985 0883 31000000 		.4byte	.LASF104
 1986 0887 01       		.byte	0x1
 1987 0888 18       		.byte	0x18
 1988 0889 01       		.byte	0x1
ARM GAS  C:\Users\DNIEL~1\AppData\Local\Temp\ccTrwnMY.s 			page 36


 1989 088a 00000000 		.4byte	.LFB119
 1990 088e 24000000 		.4byte	.LFE119
 1991 0892 00000000 		.4byte	.LLST0
 1992 0896 01       		.byte	0x1
 1993 0897 D9080000 		.4byte	0x8d9
 1994 089b 1C       		.uleb128 0x1c
 1995 089c 10000000 		.4byte	.LVL0
 1996 08a0 2D120000 		.4byte	0x122d
 1997 08a4 BB080000 		.4byte	0x8bb
 1998 08a8 1D       		.uleb128 0x1d
 1999 08a9 01       		.byte	0x1
 2000 08aa 52       		.byte	0x52
 2001 08ab 02       		.byte	0x2
 2002 08ac 09       		.byte	0x9
 2003 08ad FF       		.byte	0xff
 2004 08ae 1D       		.uleb128 0x1d
 2005 08af 01       		.byte	0x1
 2006 08b0 51       		.byte	0x51
 2007 08b1 02       		.byte	0x2
 2008 08b2 09       		.byte	0x9
 2009 08b3 FF       		.byte	0xff
 2010 08b4 1D       		.uleb128 0x1d
 2011 08b5 01       		.byte	0x1
 2012 08b6 50       		.byte	0x50
 2013 08b7 02       		.byte	0x2
 2014 08b8 74       		.byte	0x74
 2015 08b9 00       		.sleb128 0
 2016 08ba 00       		.byte	0
 2017 08bb 1E       		.uleb128 0x1e
 2018 08bc 20000000 		.4byte	.LVL1
 2019 08c0 01       		.byte	0x1
 2020 08c1 2D120000 		.4byte	0x122d
 2021 08c5 1D       		.uleb128 0x1d
 2022 08c6 01       		.byte	0x1
 2023 08c7 52       		.byte	0x52
 2024 08c8 02       		.byte	0x2
 2025 08c9 09       		.byte	0x9
 2026 08ca FF       		.byte	0xff
 2027 08cb 1D       		.uleb128 0x1d
 2028 08cc 01       		.byte	0x1
 2029 08cd 51       		.byte	0x51
 2030 08ce 02       		.byte	0x2
 2031 08cf 09       		.byte	0x9
 2032 08d0 CD       		.byte	0xcd
 2033 08d1 1D       		.uleb128 0x1d
 2034 08d2 01       		.byte	0x1
 2035 08d3 50       		.byte	0x50
 2036 08d4 02       		.byte	0x2
 2037 08d5 74       		.byte	0x74
 2038 08d6 00       		.sleb128 0
 2039 08d7 00       		.byte	0
 2040 08d8 00       		.byte	0
 2041 08d9 1B       		.uleb128 0x1b
 2042 08da 01       		.byte	0x1
 2043 08db 16010000 		.4byte	.LASF105
 2044 08df 01       		.byte	0x1
 2045 08e0 1E       		.byte	0x1e
ARM GAS  C:\Users\DNIEL~1\AppData\Local\Temp\ccTrwnMY.s 			page 37


 2046 08e1 01       		.byte	0x1
 2047 08e2 00000000 		.4byte	.LFB120
 2048 08e6 24000000 		.4byte	.LFE120
 2049 08ea 20000000 		.4byte	.LLST1
 2050 08ee 01       		.byte	0x1
 2051 08ef 30090000 		.4byte	0x930
 2052 08f3 1C       		.uleb128 0x1c
 2053 08f4 10000000 		.4byte	.LVL2
 2054 08f8 2D120000 		.4byte	0x122d
 2055 08fc 13090000 		.4byte	0x913
 2056 0900 1D       		.uleb128 0x1d
 2057 0901 01       		.byte	0x1
 2058 0902 52       		.byte	0x52
 2059 0903 02       		.byte	0x2
 2060 0904 09       		.byte	0x9
 2061 0905 FF       		.byte	0xff
 2062 0906 1D       		.uleb128 0x1d
 2063 0907 01       		.byte	0x1
 2064 0908 51       		.byte	0x51
 2065 0909 02       		.byte	0x2
 2066 090a 09       		.byte	0x9
 2067 090b FF       		.byte	0xff
 2068 090c 1D       		.uleb128 0x1d
 2069 090d 01       		.byte	0x1
 2070 090e 50       		.byte	0x50
 2071 090f 02       		.byte	0x2
 2072 0910 74       		.byte	0x74
 2073 0911 00       		.sleb128 0
 2074 0912 00       		.byte	0
 2075 0913 1E       		.uleb128 0x1e
 2076 0914 20000000 		.4byte	.LVL3
 2077 0918 01       		.byte	0x1
 2078 0919 2D120000 		.4byte	0x122d
 2079 091d 1D       		.uleb128 0x1d
 2080 091e 01       		.byte	0x1
 2081 091f 52       		.byte	0x52
 2082 0920 02       		.byte	0x2
 2083 0921 09       		.byte	0x9
 2084 0922 FF       		.byte	0xff
 2085 0923 1D       		.uleb128 0x1d
 2086 0924 01       		.byte	0x1
 2087 0925 51       		.byte	0x51
 2088 0926 01       		.byte	0x1
 2089 0927 33       		.byte	0x33
 2090 0928 1D       		.uleb128 0x1d
 2091 0929 01       		.byte	0x1
 2092 092a 50       		.byte	0x50
 2093 092b 02       		.byte	0x2
 2094 092c 74       		.byte	0x74
 2095 092d 00       		.sleb128 0
 2096 092e 00       		.byte	0
 2097 092f 00       		.byte	0
 2098 0930 1B       		.uleb128 0x1b
 2099 0931 01       		.byte	0x1
 2100 0932 4A030000 		.4byte	.LASF106
 2101 0936 01       		.byte	0x1
 2102 0937 24       		.byte	0x24
ARM GAS  C:\Users\DNIEL~1\AppData\Local\Temp\ccTrwnMY.s 			page 38


 2103 0938 01       		.byte	0x1
 2104 0939 00000000 		.4byte	.LFB121
 2105 093d 5C000000 		.4byte	.LFE121
 2106 0941 40000000 		.4byte	.LLST2
 2107 0945 01       		.byte	0x1
 2108 0946 2E0A0000 		.4byte	0xa2e
 2109 094a 1F       		.uleb128 0x1f
 2110 094b 5800     		.ascii	"X\000"
 2111 094d 01       		.byte	0x1
 2112 094e 24       		.byte	0x24
 2113 094f 29000000 		.4byte	0x29
 2114 0953 60000000 		.4byte	.LLST3
 2115 0957 1F       		.uleb128 0x1f
 2116 0958 5900     		.ascii	"Y\000"
 2117 095a 01       		.byte	0x1
 2118 095b 24       		.byte	0x24
 2119 095c 29000000 		.4byte	0x29
 2120 0960 7E000000 		.4byte	.LLST4
 2121 0964 1C       		.uleb128 0x1c
 2122 0965 14000000 		.4byte	.LVL7
 2123 0969 2D120000 		.4byte	0x122d
 2124 096d 84090000 		.4byte	0x984
 2125 0971 1D       		.uleb128 0x1d
 2126 0972 01       		.byte	0x1
 2127 0973 52       		.byte	0x52
 2128 0974 02       		.byte	0x2
 2129 0975 09       		.byte	0x9
 2130 0976 FF       		.byte	0xff
 2131 0977 1D       		.uleb128 0x1d
 2132 0978 01       		.byte	0x1
 2133 0979 51       		.byte	0x51
 2134 097a 02       		.byte	0x2
 2135 097b 09       		.byte	0x9
 2136 097c FF       		.byte	0xff
 2137 097d 1D       		.uleb128 0x1d
 2138 097e 01       		.byte	0x1
 2139 097f 50       		.byte	0x50
 2140 0980 02       		.byte	0x2
 2141 0981 74       		.byte	0x74
 2142 0982 00       		.sleb128 0
 2143 0983 00       		.byte	0
 2144 0984 1C       		.uleb128 0x1c
 2145 0985 20000000 		.4byte	.LVL8
 2146 0989 2D120000 		.4byte	0x122d
 2147 098d A4090000 		.4byte	0x9a4
 2148 0991 1D       		.uleb128 0x1d
 2149 0992 01       		.byte	0x1
 2150 0993 52       		.byte	0x52
 2151 0994 02       		.byte	0x2
 2152 0995 09       		.byte	0x9
 2153 0996 FF       		.byte	0xff
 2154 0997 1D       		.uleb128 0x1d
 2155 0998 01       		.byte	0x1
 2156 0999 51       		.byte	0x51
 2157 099a 02       		.byte	0x2
 2158 099b 09       		.byte	0x9
 2159 099c 8B       		.byte	0x8b
ARM GAS  C:\Users\DNIEL~1\AppData\Local\Temp\ccTrwnMY.s 			page 39


 2160 099d 1D       		.uleb128 0x1d
 2161 099e 01       		.byte	0x1
 2162 099f 50       		.byte	0x50
 2163 09a0 02       		.byte	0x2
 2164 09a1 74       		.byte	0x74
 2165 09a2 00       		.sleb128 0
 2166 09a3 00       		.byte	0
 2167 09a4 1C       		.uleb128 0x1c
 2168 09a5 2E000000 		.4byte	.LVL9
 2169 09a9 2D120000 		.4byte	0x122d
 2170 09ad CA090000 		.4byte	0x9ca
 2171 09b1 1D       		.uleb128 0x1d
 2172 09b2 01       		.byte	0x1
 2173 09b3 52       		.byte	0x52
 2174 09b4 02       		.byte	0x2
 2175 09b5 09       		.byte	0x9
 2176 09b6 FF       		.byte	0xff
 2177 09b7 1D       		.uleb128 0x1d
 2178 09b8 01       		.byte	0x1
 2179 09b9 51       		.byte	0x51
 2180 09ba 08       		.byte	0x8
 2181 09bb 76       		.byte	0x76
 2182 09bc 00       		.sleb128 0
 2183 09bd 09       		.byte	0x9
 2184 09be F4       		.byte	0xf4
 2185 09bf 24       		.byte	0x24
 2186 09c0 09       		.byte	0x9
 2187 09c1 FC       		.byte	0xfc
 2188 09c2 25       		.byte	0x25
 2189 09c3 1D       		.uleb128 0x1d
 2190 09c4 01       		.byte	0x1
 2191 09c5 50       		.byte	0x50
 2192 09c6 02       		.byte	0x2
 2193 09c7 74       		.byte	0x74
 2194 09c8 00       		.sleb128 0
 2195 09c9 00       		.byte	0
 2196 09ca 1C       		.uleb128 0x1c
 2197 09cb 3A000000 		.4byte	.LVL10
 2198 09cf 2D120000 		.4byte	0x122d
 2199 09d3 EA090000 		.4byte	0x9ea
 2200 09d7 1D       		.uleb128 0x1d
 2201 09d8 01       		.byte	0x1
 2202 09d9 52       		.byte	0x52
 2203 09da 02       		.byte	0x2
 2204 09db 09       		.byte	0x9
 2205 09dc FF       		.byte	0xff
 2206 09dd 1D       		.uleb128 0x1d
 2207 09de 01       		.byte	0x1
 2208 09df 51       		.byte	0x51
 2209 09e0 02       		.byte	0x2
 2210 09e1 76       		.byte	0x76
 2211 09e2 00       		.sleb128 0
 2212 09e3 1D       		.uleb128 0x1d
 2213 09e4 01       		.byte	0x1
 2214 09e5 50       		.byte	0x50
 2215 09e6 02       		.byte	0x2
 2216 09e7 74       		.byte	0x74
ARM GAS  C:\Users\DNIEL~1\AppData\Local\Temp\ccTrwnMY.s 			page 40


 2217 09e8 00       		.sleb128 0
 2218 09e9 00       		.byte	0
 2219 09ea 1C       		.uleb128 0x1c
 2220 09eb 48000000 		.4byte	.LVL11
 2221 09ef 2D120000 		.4byte	0x122d
 2222 09f3 100A0000 		.4byte	0xa10
 2223 09f7 1D       		.uleb128 0x1d
 2224 09f8 01       		.byte	0x1
 2225 09f9 52       		.byte	0x52
 2226 09fa 02       		.byte	0x2
 2227 09fb 09       		.byte	0x9
 2228 09fc FF       		.byte	0xff
 2229 09fd 1D       		.uleb128 0x1d
 2230 09fe 01       		.byte	0x1
 2231 09ff 51       		.byte	0x51
 2232 0a00 08       		.byte	0x8
 2233 0a01 75       		.byte	0x75
 2234 0a02 00       		.sleb128 0
 2235 0a03 09       		.byte	0x9
 2236 0a04 F4       		.byte	0xf4
 2237 0a05 24       		.byte	0x24
 2238 0a06 09       		.byte	0x9
 2239 0a07 FC       		.byte	0xfc
 2240 0a08 25       		.byte	0x25
 2241 0a09 1D       		.uleb128 0x1d
 2242 0a0a 01       		.byte	0x1
 2243 0a0b 50       		.byte	0x50
 2244 0a0c 02       		.byte	0x2
 2245 0a0d 74       		.byte	0x74
 2246 0a0e 00       		.sleb128 0
 2247 0a0f 00       		.byte	0
 2248 0a10 1E       		.uleb128 0x1e
 2249 0a11 58000000 		.4byte	.LVL12
 2250 0a15 01       		.byte	0x1
 2251 0a16 2D120000 		.4byte	0x122d
 2252 0a1a 1D       		.uleb128 0x1d
 2253 0a1b 01       		.byte	0x1
 2254 0a1c 52       		.byte	0x52
 2255 0a1d 02       		.byte	0x2
 2256 0a1e 09       		.byte	0x9
 2257 0a1f FF       		.byte	0xff
 2258 0a20 1D       		.uleb128 0x1d
 2259 0a21 01       		.byte	0x1
 2260 0a22 51       		.byte	0x51
 2261 0a23 02       		.byte	0x2
 2262 0a24 75       		.byte	0x75
 2263 0a25 00       		.sleb128 0
 2264 0a26 1D       		.uleb128 0x1d
 2265 0a27 01       		.byte	0x1
 2266 0a28 50       		.byte	0x50
 2267 0a29 02       		.byte	0x2
 2268 0a2a 74       		.byte	0x74
 2269 0a2b 00       		.sleb128 0
 2270 0a2c 00       		.byte	0
 2271 0a2d 00       		.byte	0
 2272 0a2e 1B       		.uleb128 0x1b
 2273 0a2f 01       		.byte	0x1
ARM GAS  C:\Users\DNIEL~1\AppData\Local\Temp\ccTrwnMY.s 			page 41


 2274 0a30 D6020000 		.4byte	.LASF107
 2275 0a34 01       		.byte	0x1
 2276 0a35 2E       		.byte	0x2e
 2277 0a36 01       		.byte	0x1
 2278 0a37 00000000 		.4byte	.LFB122
 2279 0a3b 5C000000 		.4byte	.LFE122
 2280 0a3f 9C000000 		.4byte	.LLST5
 2281 0a43 01       		.byte	0x1
 2282 0a44 300B0000 		.4byte	0xb30
 2283 0a48 20       		.uleb128 0x20
 2284 0a49 92010000 		.4byte	.LASF108
 2285 0a4d 01       		.byte	0x1
 2286 0a4e 2E       		.byte	0x2e
 2287 0a4f 29000000 		.4byte	0x29
 2288 0a53 BC000000 		.4byte	.LLST6
 2289 0a57 20       		.uleb128 0x20
 2290 0a58 11050000 		.4byte	.LASF109
 2291 0a5c 01       		.byte	0x1
 2292 0a5d 2E       		.byte	0x2e
 2293 0a5e 29000000 		.4byte	0x29
 2294 0a62 DA000000 		.4byte	.LLST7
 2295 0a66 1C       		.uleb128 0x1c
 2296 0a67 14000000 		.4byte	.LVL16
 2297 0a6b 2D120000 		.4byte	0x122d
 2298 0a6f 860A0000 		.4byte	0xa86
 2299 0a73 1D       		.uleb128 0x1d
 2300 0a74 01       		.byte	0x1
 2301 0a75 52       		.byte	0x52
 2302 0a76 02       		.byte	0x2
 2303 0a77 09       		.byte	0x9
 2304 0a78 FF       		.byte	0xff
 2305 0a79 1D       		.uleb128 0x1d
 2306 0a7a 01       		.byte	0x1
 2307 0a7b 51       		.byte	0x51
 2308 0a7c 02       		.byte	0x2
 2309 0a7d 09       		.byte	0x9
 2310 0a7e FF       		.byte	0xff
 2311 0a7f 1D       		.uleb128 0x1d
 2312 0a80 01       		.byte	0x1
 2313 0a81 50       		.byte	0x50
 2314 0a82 02       		.byte	0x2
 2315 0a83 74       		.byte	0x74
 2316 0a84 00       		.sleb128 0
 2317 0a85 00       		.byte	0
 2318 0a86 1C       		.uleb128 0x1c
 2319 0a87 20000000 		.4byte	.LVL17
 2320 0a8b 2D120000 		.4byte	0x122d
 2321 0a8f A60A0000 		.4byte	0xaa6
 2322 0a93 1D       		.uleb128 0x1d
 2323 0a94 01       		.byte	0x1
 2324 0a95 52       		.byte	0x52
 2325 0a96 02       		.byte	0x2
 2326 0a97 09       		.byte	0x9
 2327 0a98 FF       		.byte	0xff
 2328 0a99 1D       		.uleb128 0x1d
 2329 0a9a 01       		.byte	0x1
 2330 0a9b 51       		.byte	0x51
ARM GAS  C:\Users\DNIEL~1\AppData\Local\Temp\ccTrwnMY.s 			page 42


 2331 0a9c 02       		.byte	0x2
 2332 0a9d 09       		.byte	0x9
 2333 0a9e 92       		.byte	0x92
 2334 0a9f 1D       		.uleb128 0x1d
 2335 0aa0 01       		.byte	0x1
 2336 0aa1 50       		.byte	0x50
 2337 0aa2 02       		.byte	0x2
 2338 0aa3 74       		.byte	0x74
 2339 0aa4 00       		.sleb128 0
 2340 0aa5 00       		.byte	0
 2341 0aa6 1C       		.uleb128 0x1c
 2342 0aa7 2E000000 		.4byte	.LVL18
 2343 0aab 2D120000 		.4byte	0x122d
 2344 0aaf CC0A0000 		.4byte	0xacc
 2345 0ab3 1D       		.uleb128 0x1d
 2346 0ab4 01       		.byte	0x1
 2347 0ab5 52       		.byte	0x52
 2348 0ab6 02       		.byte	0x2
 2349 0ab7 09       		.byte	0x9
 2350 0ab8 FF       		.byte	0xff
 2351 0ab9 1D       		.uleb128 0x1d
 2352 0aba 01       		.byte	0x1
 2353 0abb 51       		.byte	0x51
 2354 0abc 08       		.byte	0x8
 2355 0abd 76       		.byte	0x76
 2356 0abe 00       		.sleb128 0
 2357 0abf 09       		.byte	0x9
 2358 0ac0 F4       		.byte	0xf4
 2359 0ac1 24       		.byte	0x24
 2360 0ac2 09       		.byte	0x9
 2361 0ac3 FC       		.byte	0xfc
 2362 0ac4 25       		.byte	0x25
 2363 0ac5 1D       		.uleb128 0x1d
 2364 0ac6 01       		.byte	0x1
 2365 0ac7 50       		.byte	0x50
 2366 0ac8 02       		.byte	0x2
 2367 0ac9 74       		.byte	0x74
 2368 0aca 00       		.sleb128 0
 2369 0acb 00       		.byte	0
 2370 0acc 1C       		.uleb128 0x1c
 2371 0acd 3A000000 		.4byte	.LVL19
 2372 0ad1 2D120000 		.4byte	0x122d
 2373 0ad5 EC0A0000 		.4byte	0xaec
 2374 0ad9 1D       		.uleb128 0x1d
 2375 0ada 01       		.byte	0x1
 2376 0adb 52       		.byte	0x52
 2377 0adc 02       		.byte	0x2
 2378 0add 09       		.byte	0x9
 2379 0ade FF       		.byte	0xff
 2380 0adf 1D       		.uleb128 0x1d
 2381 0ae0 01       		.byte	0x1
 2382 0ae1 51       		.byte	0x51
 2383 0ae2 02       		.byte	0x2
 2384 0ae3 76       		.byte	0x76
 2385 0ae4 00       		.sleb128 0
 2386 0ae5 1D       		.uleb128 0x1d
 2387 0ae6 01       		.byte	0x1
ARM GAS  C:\Users\DNIEL~1\AppData\Local\Temp\ccTrwnMY.s 			page 43


 2388 0ae7 50       		.byte	0x50
 2389 0ae8 02       		.byte	0x2
 2390 0ae9 74       		.byte	0x74
 2391 0aea 00       		.sleb128 0
 2392 0aeb 00       		.byte	0
 2393 0aec 1C       		.uleb128 0x1c
 2394 0aed 48000000 		.4byte	.LVL20
 2395 0af1 2D120000 		.4byte	0x122d
 2396 0af5 120B0000 		.4byte	0xb12
 2397 0af9 1D       		.uleb128 0x1d
 2398 0afa 01       		.byte	0x1
 2399 0afb 52       		.byte	0x52
 2400 0afc 02       		.byte	0x2
 2401 0afd 09       		.byte	0x9
 2402 0afe FF       		.byte	0xff
 2403 0aff 1D       		.uleb128 0x1d
 2404 0b00 01       		.byte	0x1
 2405 0b01 51       		.byte	0x51
 2406 0b02 08       		.byte	0x8
 2407 0b03 75       		.byte	0x75
 2408 0b04 00       		.sleb128 0
 2409 0b05 09       		.byte	0x9
 2410 0b06 F4       		.byte	0xf4
 2411 0b07 24       		.byte	0x24
 2412 0b08 09       		.byte	0x9
 2413 0b09 FC       		.byte	0xfc
 2414 0b0a 25       		.byte	0x25
 2415 0b0b 1D       		.uleb128 0x1d
 2416 0b0c 01       		.byte	0x1
 2417 0b0d 50       		.byte	0x50
 2418 0b0e 02       		.byte	0x2
 2419 0b0f 74       		.byte	0x74
 2420 0b10 00       		.sleb128 0
 2421 0b11 00       		.byte	0
 2422 0b12 1E       		.uleb128 0x1e
 2423 0b13 58000000 		.4byte	.LVL21
 2424 0b17 01       		.byte	0x1
 2425 0b18 2D120000 		.4byte	0x122d
 2426 0b1c 1D       		.uleb128 0x1d
 2427 0b1d 01       		.byte	0x1
 2428 0b1e 52       		.byte	0x52
 2429 0b1f 02       		.byte	0x2
 2430 0b20 09       		.byte	0x9
 2431 0b21 FF       		.byte	0xff
 2432 0b22 1D       		.uleb128 0x1d
 2433 0b23 01       		.byte	0x1
 2434 0b24 51       		.byte	0x51
 2435 0b25 02       		.byte	0x2
 2436 0b26 75       		.byte	0x75
 2437 0b27 00       		.sleb128 0
 2438 0b28 1D       		.uleb128 0x1d
 2439 0b29 01       		.byte	0x1
 2440 0b2a 50       		.byte	0x50
 2441 0b2b 02       		.byte	0x2
 2442 0b2c 74       		.byte	0x74
 2443 0b2d 00       		.sleb128 0
 2444 0b2e 00       		.byte	0
ARM GAS  C:\Users\DNIEL~1\AppData\Local\Temp\ccTrwnMY.s 			page 44


 2445 0b2f 00       		.byte	0
 2446 0b30 1B       		.uleb128 0x1b
 2447 0b31 01       		.byte	0x1
 2448 0b32 2A020000 		.4byte	.LASF110
 2449 0b36 01       		.byte	0x1
 2450 0b37 38       		.byte	0x38
 2451 0b38 01       		.byte	0x1
 2452 0b39 00000000 		.4byte	.LFB123
 2453 0b3d 5C000000 		.4byte	.LFE123
 2454 0b41 F8000000 		.4byte	.LLST8
 2455 0b45 01       		.byte	0x1
 2456 0b46 2E0C0000 		.4byte	0xc2e
 2457 0b4a 1F       		.uleb128 0x1f
 2458 0b4b 5800     		.ascii	"X\000"
 2459 0b4d 01       		.byte	0x1
 2460 0b4e 38       		.byte	0x38
 2461 0b4f 29000000 		.4byte	0x29
 2462 0b53 18010000 		.4byte	.LLST9
 2463 0b57 1F       		.uleb128 0x1f
 2464 0b58 5900     		.ascii	"Y\000"
 2465 0b5a 01       		.byte	0x1
 2466 0b5b 38       		.byte	0x38
 2467 0b5c 29000000 		.4byte	0x29
 2468 0b60 36010000 		.4byte	.LLST10
 2469 0b64 1C       		.uleb128 0x1c
 2470 0b65 14000000 		.4byte	.LVL25
 2471 0b69 2D120000 		.4byte	0x122d
 2472 0b6d 840B0000 		.4byte	0xb84
 2473 0b71 1D       		.uleb128 0x1d
 2474 0b72 01       		.byte	0x1
 2475 0b73 52       		.byte	0x52
 2476 0b74 02       		.byte	0x2
 2477 0b75 09       		.byte	0x9
 2478 0b76 FF       		.byte	0xff
 2479 0b77 1D       		.uleb128 0x1d
 2480 0b78 01       		.byte	0x1
 2481 0b79 51       		.byte	0x51
 2482 0b7a 02       		.byte	0x2
 2483 0b7b 09       		.byte	0x9
 2484 0b7c FF       		.byte	0xff
 2485 0b7d 1D       		.uleb128 0x1d
 2486 0b7e 01       		.byte	0x1
 2487 0b7f 50       		.byte	0x50
 2488 0b80 02       		.byte	0x2
 2489 0b81 74       		.byte	0x74
 2490 0b82 00       		.sleb128 0
 2491 0b83 00       		.byte	0
 2492 0b84 1C       		.uleb128 0x1c
 2493 0b85 20000000 		.4byte	.LVL26
 2494 0b89 2D120000 		.4byte	0x122d
 2495 0b8d A40B0000 		.4byte	0xba4
 2496 0b91 1D       		.uleb128 0x1d
 2497 0b92 01       		.byte	0x1
 2498 0b93 52       		.byte	0x52
 2499 0b94 02       		.byte	0x2
 2500 0b95 09       		.byte	0x9
 2501 0b96 FF       		.byte	0xff
ARM GAS  C:\Users\DNIEL~1\AppData\Local\Temp\ccTrwnMY.s 			page 45


 2502 0b97 1D       		.uleb128 0x1d
 2503 0b98 01       		.byte	0x1
 2504 0b99 51       		.byte	0x51
 2505 0b9a 02       		.byte	0x2
 2506 0b9b 09       		.byte	0x9
 2507 0b9c 95       		.byte	0x95
 2508 0b9d 1D       		.uleb128 0x1d
 2509 0b9e 01       		.byte	0x1
 2510 0b9f 50       		.byte	0x50
 2511 0ba0 02       		.byte	0x2
 2512 0ba1 74       		.byte	0x74
 2513 0ba2 00       		.sleb128 0
 2514 0ba3 00       		.byte	0
 2515 0ba4 1C       		.uleb128 0x1c
 2516 0ba5 2E000000 		.4byte	.LVL27
 2517 0ba9 2D120000 		.4byte	0x122d
 2518 0bad CA0B0000 		.4byte	0xbca
 2519 0bb1 1D       		.uleb128 0x1d
 2520 0bb2 01       		.byte	0x1
 2521 0bb3 52       		.byte	0x52
 2522 0bb4 02       		.byte	0x2
 2523 0bb5 09       		.byte	0x9
 2524 0bb6 FF       		.byte	0xff
 2525 0bb7 1D       		.uleb128 0x1d
 2526 0bb8 01       		.byte	0x1
 2527 0bb9 51       		.byte	0x51
 2528 0bba 08       		.byte	0x8
 2529 0bbb 76       		.byte	0x76
 2530 0bbc 00       		.sleb128 0
 2531 0bbd 09       		.byte	0x9
 2532 0bbe F4       		.byte	0xf4
 2533 0bbf 24       		.byte	0x24
 2534 0bc0 09       		.byte	0x9
 2535 0bc1 FC       		.byte	0xfc
 2536 0bc2 25       		.byte	0x25
 2537 0bc3 1D       		.uleb128 0x1d
 2538 0bc4 01       		.byte	0x1
 2539 0bc5 50       		.byte	0x50
 2540 0bc6 02       		.byte	0x2
 2541 0bc7 74       		.byte	0x74
 2542 0bc8 00       		.sleb128 0
 2543 0bc9 00       		.byte	0
 2544 0bca 1C       		.uleb128 0x1c
 2545 0bcb 3A000000 		.4byte	.LVL28
 2546 0bcf 2D120000 		.4byte	0x122d
 2547 0bd3 EA0B0000 		.4byte	0xbea
 2548 0bd7 1D       		.uleb128 0x1d
 2549 0bd8 01       		.byte	0x1
 2550 0bd9 52       		.byte	0x52
 2551 0bda 02       		.byte	0x2
 2552 0bdb 09       		.byte	0x9
 2553 0bdc FF       		.byte	0xff
 2554 0bdd 1D       		.uleb128 0x1d
 2555 0bde 01       		.byte	0x1
 2556 0bdf 51       		.byte	0x51
 2557 0be0 02       		.byte	0x2
 2558 0be1 76       		.byte	0x76
ARM GAS  C:\Users\DNIEL~1\AppData\Local\Temp\ccTrwnMY.s 			page 46


 2559 0be2 00       		.sleb128 0
 2560 0be3 1D       		.uleb128 0x1d
 2561 0be4 01       		.byte	0x1
 2562 0be5 50       		.byte	0x50
 2563 0be6 02       		.byte	0x2
 2564 0be7 74       		.byte	0x74
 2565 0be8 00       		.sleb128 0
 2566 0be9 00       		.byte	0
 2567 0bea 1C       		.uleb128 0x1c
 2568 0beb 48000000 		.4byte	.LVL29
 2569 0bef 2D120000 		.4byte	0x122d
 2570 0bf3 100C0000 		.4byte	0xc10
 2571 0bf7 1D       		.uleb128 0x1d
 2572 0bf8 01       		.byte	0x1
 2573 0bf9 52       		.byte	0x52
 2574 0bfa 02       		.byte	0x2
 2575 0bfb 09       		.byte	0x9
 2576 0bfc FF       		.byte	0xff
 2577 0bfd 1D       		.uleb128 0x1d
 2578 0bfe 01       		.byte	0x1
 2579 0bff 51       		.byte	0x51
 2580 0c00 08       		.byte	0x8
 2581 0c01 75       		.byte	0x75
 2582 0c02 00       		.sleb128 0
 2583 0c03 09       		.byte	0x9
 2584 0c04 F4       		.byte	0xf4
 2585 0c05 24       		.byte	0x24
 2586 0c06 09       		.byte	0x9
 2587 0c07 FC       		.byte	0xfc
 2588 0c08 25       		.byte	0x25
 2589 0c09 1D       		.uleb128 0x1d
 2590 0c0a 01       		.byte	0x1
 2591 0c0b 50       		.byte	0x50
 2592 0c0c 02       		.byte	0x2
 2593 0c0d 74       		.byte	0x74
 2594 0c0e 00       		.sleb128 0
 2595 0c0f 00       		.byte	0
 2596 0c10 1E       		.uleb128 0x1e
 2597 0c11 58000000 		.4byte	.LVL30
 2598 0c15 01       		.byte	0x1
 2599 0c16 2D120000 		.4byte	0x122d
 2600 0c1a 1D       		.uleb128 0x1d
 2601 0c1b 01       		.byte	0x1
 2602 0c1c 52       		.byte	0x52
 2603 0c1d 02       		.byte	0x2
 2604 0c1e 09       		.byte	0x9
 2605 0c1f FF       		.byte	0xff
 2606 0c20 1D       		.uleb128 0x1d
 2607 0c21 01       		.byte	0x1
 2608 0c22 51       		.byte	0x51
 2609 0c23 02       		.byte	0x2
 2610 0c24 75       		.byte	0x75
 2611 0c25 00       		.sleb128 0
 2612 0c26 1D       		.uleb128 0x1d
 2613 0c27 01       		.byte	0x1
 2614 0c28 50       		.byte	0x50
 2615 0c29 02       		.byte	0x2
ARM GAS  C:\Users\DNIEL~1\AppData\Local\Temp\ccTrwnMY.s 			page 47


 2616 0c2a 74       		.byte	0x74
 2617 0c2b 00       		.sleb128 0
 2618 0c2c 00       		.byte	0
 2619 0c2d 00       		.byte	0
 2620 0c2e 1B       		.uleb128 0x1b
 2621 0c2f 01       		.byte	0x1
 2622 0c30 61010000 		.4byte	.LASF111
 2623 0c34 01       		.byte	0x1
 2624 0c35 42       		.byte	0x42
 2625 0c36 01       		.byte	0x1
 2626 0c37 00000000 		.4byte	.LFB124
 2627 0c3b 78000000 		.4byte	.LFE124
 2628 0c3f 54010000 		.4byte	.LLST11
 2629 0c43 01       		.byte	0x1
 2630 0c44 810D0000 		.4byte	0xd81
 2631 0c48 1F       		.uleb128 0x1f
 2632 0c49 5800     		.ascii	"X\000"
 2633 0c4b 01       		.byte	0x1
 2634 0c4c 42       		.byte	0x42
 2635 0c4d 29000000 		.4byte	0x29
 2636 0c51 74010000 		.4byte	.LLST12
 2637 0c55 1F       		.uleb128 0x1f
 2638 0c56 5900     		.ascii	"Y\000"
 2639 0c58 01       		.byte	0x1
 2640 0c59 42       		.byte	0x42
 2641 0c5a 29000000 		.4byte	0x29
 2642 0c5e 92010000 		.4byte	.LLST13
 2643 0c62 20       		.uleb128 0x20
 2644 0c63 C2020000 		.4byte	.LASF112
 2645 0c67 01       		.byte	0x1
 2646 0c68 42       		.byte	0x42
 2647 0c69 29000000 		.4byte	0x29
 2648 0c6d B0010000 		.4byte	.LLST14
 2649 0c71 1C       		.uleb128 0x1c
 2650 0c72 16000000 		.4byte	.LVL35
 2651 0c76 2D120000 		.4byte	0x122d
 2652 0c7a 910C0000 		.4byte	0xc91
 2653 0c7e 1D       		.uleb128 0x1d
 2654 0c7f 01       		.byte	0x1
 2655 0c80 52       		.byte	0x52
 2656 0c81 02       		.byte	0x2
 2657 0c82 09       		.byte	0x9
 2658 0c83 FF       		.byte	0xff
 2659 0c84 1D       		.uleb128 0x1d
 2660 0c85 01       		.byte	0x1
 2661 0c86 51       		.byte	0x51
 2662 0c87 02       		.byte	0x2
 2663 0c88 09       		.byte	0x9
 2664 0c89 FF       		.byte	0xff
 2665 0c8a 1D       		.uleb128 0x1d
 2666 0c8b 01       		.byte	0x1
 2667 0c8c 50       		.byte	0x50
 2668 0c8d 02       		.byte	0x2
 2669 0c8e 74       		.byte	0x74
 2670 0c8f 00       		.sleb128 0
 2671 0c90 00       		.byte	0
 2672 0c91 1C       		.uleb128 0x1c
ARM GAS  C:\Users\DNIEL~1\AppData\Local\Temp\ccTrwnMY.s 			page 48


 2673 0c92 22000000 		.4byte	.LVL36
 2674 0c96 2D120000 		.4byte	0x122d
 2675 0c9a B10C0000 		.4byte	0xcb1
 2676 0c9e 1D       		.uleb128 0x1d
 2677 0c9f 01       		.byte	0x1
 2678 0ca0 52       		.byte	0x52
 2679 0ca1 02       		.byte	0x2
 2680 0ca2 09       		.byte	0x9
 2681 0ca3 FF       		.byte	0xff
 2682 0ca4 1D       		.uleb128 0x1d
 2683 0ca5 01       		.byte	0x1
 2684 0ca6 51       		.byte	0x51
 2685 0ca7 02       		.byte	0x2
 2686 0ca8 09       		.byte	0x9
 2687 0ca9 94       		.byte	0x94
 2688 0caa 1D       		.uleb128 0x1d
 2689 0cab 01       		.byte	0x1
 2690 0cac 50       		.byte	0x50
 2691 0cad 02       		.byte	0x2
 2692 0cae 74       		.byte	0x74
 2693 0caf 00       		.sleb128 0
 2694 0cb0 00       		.byte	0
 2695 0cb1 1C       		.uleb128 0x1c
 2696 0cb2 30000000 		.4byte	.LVL37
 2697 0cb6 2D120000 		.4byte	0x122d
 2698 0cba D70C0000 		.4byte	0xcd7
 2699 0cbe 1D       		.uleb128 0x1d
 2700 0cbf 01       		.byte	0x1
 2701 0cc0 52       		.byte	0x52
 2702 0cc1 02       		.byte	0x2
 2703 0cc2 09       		.byte	0x9
 2704 0cc3 FF       		.byte	0xff
 2705 0cc4 1D       		.uleb128 0x1d
 2706 0cc5 01       		.byte	0x1
 2707 0cc6 51       		.byte	0x51
 2708 0cc7 08       		.byte	0x8
 2709 0cc8 77       		.byte	0x77
 2710 0cc9 00       		.sleb128 0
 2711 0cca 09       		.byte	0x9
 2712 0ccb F4       		.byte	0xf4
 2713 0ccc 24       		.byte	0x24
 2714 0ccd 09       		.byte	0x9
 2715 0cce FC       		.byte	0xfc
 2716 0ccf 25       		.byte	0x25
 2717 0cd0 1D       		.uleb128 0x1d
 2718 0cd1 01       		.byte	0x1
 2719 0cd2 50       		.byte	0x50
 2720 0cd3 02       		.byte	0x2
 2721 0cd4 74       		.byte	0x74
 2722 0cd5 00       		.sleb128 0
 2723 0cd6 00       		.byte	0
 2724 0cd7 1C       		.uleb128 0x1c
 2725 0cd8 3C000000 		.4byte	.LVL38
 2726 0cdc 2D120000 		.4byte	0x122d
 2727 0ce0 F70C0000 		.4byte	0xcf7
 2728 0ce4 1D       		.uleb128 0x1d
 2729 0ce5 01       		.byte	0x1
ARM GAS  C:\Users\DNIEL~1\AppData\Local\Temp\ccTrwnMY.s 			page 49


 2730 0ce6 52       		.byte	0x52
 2731 0ce7 02       		.byte	0x2
 2732 0ce8 09       		.byte	0x9
 2733 0ce9 FF       		.byte	0xff
 2734 0cea 1D       		.uleb128 0x1d
 2735 0ceb 01       		.byte	0x1
 2736 0cec 51       		.byte	0x51
 2737 0ced 02       		.byte	0x2
 2738 0cee 77       		.byte	0x77
 2739 0cef 00       		.sleb128 0
 2740 0cf0 1D       		.uleb128 0x1d
 2741 0cf1 01       		.byte	0x1
 2742 0cf2 50       		.byte	0x50
 2743 0cf3 02       		.byte	0x2
 2744 0cf4 74       		.byte	0x74
 2745 0cf5 00       		.sleb128 0
 2746 0cf6 00       		.byte	0
 2747 0cf7 1C       		.uleb128 0x1c
 2748 0cf8 4A000000 		.4byte	.LVL39
 2749 0cfc 2D120000 		.4byte	0x122d
 2750 0d00 1D0D0000 		.4byte	0xd1d
 2751 0d04 1D       		.uleb128 0x1d
 2752 0d05 01       		.byte	0x1
 2753 0d06 52       		.byte	0x52
 2754 0d07 02       		.byte	0x2
 2755 0d08 09       		.byte	0x9
 2756 0d09 FF       		.byte	0xff
 2757 0d0a 1D       		.uleb128 0x1d
 2758 0d0b 01       		.byte	0x1
 2759 0d0c 51       		.byte	0x51
 2760 0d0d 08       		.byte	0x8
 2761 0d0e 76       		.byte	0x76
 2762 0d0f 00       		.sleb128 0
 2763 0d10 09       		.byte	0x9
 2764 0d11 F4       		.byte	0xf4
 2765 0d12 24       		.byte	0x24
 2766 0d13 09       		.byte	0x9
 2767 0d14 FC       		.byte	0xfc
 2768 0d15 25       		.byte	0x25
 2769 0d16 1D       		.uleb128 0x1d
 2770 0d17 01       		.byte	0x1
 2771 0d18 50       		.byte	0x50
 2772 0d19 02       		.byte	0x2
 2773 0d1a 74       		.byte	0x74
 2774 0d1b 00       		.sleb128 0
 2775 0d1c 00       		.byte	0
 2776 0d1d 1C       		.uleb128 0x1c
 2777 0d1e 56000000 		.4byte	.LVL40
 2778 0d22 2D120000 		.4byte	0x122d
 2779 0d26 3D0D0000 		.4byte	0xd3d
 2780 0d2a 1D       		.uleb128 0x1d
 2781 0d2b 01       		.byte	0x1
 2782 0d2c 52       		.byte	0x52
 2783 0d2d 02       		.byte	0x2
 2784 0d2e 09       		.byte	0x9
 2785 0d2f FF       		.byte	0xff
 2786 0d30 1D       		.uleb128 0x1d
ARM GAS  C:\Users\DNIEL~1\AppData\Local\Temp\ccTrwnMY.s 			page 50


 2787 0d31 01       		.byte	0x1
 2788 0d32 51       		.byte	0x51
 2789 0d33 02       		.byte	0x2
 2790 0d34 76       		.byte	0x76
 2791 0d35 00       		.sleb128 0
 2792 0d36 1D       		.uleb128 0x1d
 2793 0d37 01       		.byte	0x1
 2794 0d38 50       		.byte	0x50
 2795 0d39 02       		.byte	0x2
 2796 0d3a 74       		.byte	0x74
 2797 0d3b 00       		.sleb128 0
 2798 0d3c 00       		.byte	0
 2799 0d3d 1C       		.uleb128 0x1c
 2800 0d3e 64000000 		.4byte	.LVL41
 2801 0d42 2D120000 		.4byte	0x122d
 2802 0d46 630D0000 		.4byte	0xd63
 2803 0d4a 1D       		.uleb128 0x1d
 2804 0d4b 01       		.byte	0x1
 2805 0d4c 52       		.byte	0x52
 2806 0d4d 02       		.byte	0x2
 2807 0d4e 09       		.byte	0x9
 2808 0d4f FF       		.byte	0xff
 2809 0d50 1D       		.uleb128 0x1d
 2810 0d51 01       		.byte	0x1
 2811 0d52 51       		.byte	0x51
 2812 0d53 08       		.byte	0x8
 2813 0d54 75       		.byte	0x75
 2814 0d55 00       		.sleb128 0
 2815 0d56 09       		.byte	0x9
 2816 0d57 F4       		.byte	0xf4
 2817 0d58 24       		.byte	0x24
 2818 0d59 09       		.byte	0x9
 2819 0d5a FC       		.byte	0xfc
 2820 0d5b 25       		.byte	0x25
 2821 0d5c 1D       		.uleb128 0x1d
 2822 0d5d 01       		.byte	0x1
 2823 0d5e 50       		.byte	0x50
 2824 0d5f 02       		.byte	0x2
 2825 0d60 74       		.byte	0x74
 2826 0d61 00       		.sleb128 0
 2827 0d62 00       		.byte	0
 2828 0d63 1E       		.uleb128 0x1e
 2829 0d64 74000000 		.4byte	.LVL42
 2830 0d68 01       		.byte	0x1
 2831 0d69 2D120000 		.4byte	0x122d
 2832 0d6d 1D       		.uleb128 0x1d
 2833 0d6e 01       		.byte	0x1
 2834 0d6f 52       		.byte	0x52
 2835 0d70 02       		.byte	0x2
 2836 0d71 09       		.byte	0x9
 2837 0d72 FF       		.byte	0xff
 2838 0d73 1D       		.uleb128 0x1d
 2839 0d74 01       		.byte	0x1
 2840 0d75 51       		.byte	0x51
 2841 0d76 02       		.byte	0x2
 2842 0d77 75       		.byte	0x75
 2843 0d78 00       		.sleb128 0
ARM GAS  C:\Users\DNIEL~1\AppData\Local\Temp\ccTrwnMY.s 			page 51


 2844 0d79 1D       		.uleb128 0x1d
 2845 0d7a 01       		.byte	0x1
 2846 0d7b 50       		.byte	0x50
 2847 0d7c 02       		.byte	0x2
 2848 0d7d 74       		.byte	0x74
 2849 0d7e 00       		.sleb128 0
 2850 0d7f 00       		.byte	0
 2851 0d80 00       		.byte	0
 2852 0d81 1B       		.uleb128 0x1b
 2853 0d82 01       		.byte	0x1
 2854 0d83 2F010000 		.4byte	.LASF113
 2855 0d87 01       		.byte	0x1
 2856 0d88 4E       		.byte	0x4e
 2857 0d89 01       		.byte	0x1
 2858 0d8a 00000000 		.4byte	.LFB125
 2859 0d8e 40000000 		.4byte	.LFE125
 2860 0d92 CE010000 		.4byte	.LLST15
 2861 0d96 01       		.byte	0x1
 2862 0d97 2E0E0000 		.4byte	0xe2e
 2863 0d9b 20       		.uleb128 0x20
 2864 0d9c D7030000 		.4byte	.LASF114
 2865 0da0 01       		.byte	0x1
 2866 0da1 4E       		.byte	0x4e
 2867 0da2 29000000 		.4byte	0x29
 2868 0da6 EE010000 		.4byte	.LLST16
 2869 0daa 1C       		.uleb128 0x1c
 2870 0dab 12000000 		.4byte	.LVL45
 2871 0daf 2D120000 		.4byte	0x122d
 2872 0db3 CA0D0000 		.4byte	0xdca
 2873 0db7 1D       		.uleb128 0x1d
 2874 0db8 01       		.byte	0x1
 2875 0db9 52       		.byte	0x52
 2876 0dba 02       		.byte	0x2
 2877 0dbb 09       		.byte	0x9
 2878 0dbc FF       		.byte	0xff
 2879 0dbd 1D       		.uleb128 0x1d
 2880 0dbe 01       		.byte	0x1
 2881 0dbf 51       		.byte	0x51
 2882 0dc0 02       		.byte	0x2
 2883 0dc1 09       		.byte	0x9
 2884 0dc2 FF       		.byte	0xff
 2885 0dc3 1D       		.uleb128 0x1d
 2886 0dc4 01       		.byte	0x1
 2887 0dc5 50       		.byte	0x50
 2888 0dc6 02       		.byte	0x2
 2889 0dc7 74       		.byte	0x74
 2890 0dc8 00       		.sleb128 0
 2891 0dc9 00       		.byte	0
 2892 0dca 1C       		.uleb128 0x1c
 2893 0dcb 1E000000 		.4byte	.LVL46
 2894 0dcf 2D120000 		.4byte	0x122d
 2895 0dd3 EA0D0000 		.4byte	0xdea
 2896 0dd7 1D       		.uleb128 0x1d
 2897 0dd8 01       		.byte	0x1
 2898 0dd9 52       		.byte	0x52
 2899 0dda 02       		.byte	0x2
 2900 0ddb 09       		.byte	0x9
ARM GAS  C:\Users\DNIEL~1\AppData\Local\Temp\ccTrwnMY.s 			page 52


 2901 0ddc FF       		.byte	0xff
 2902 0ddd 1D       		.uleb128 0x1d
 2903 0dde 01       		.byte	0x1
 2904 0ddf 51       		.byte	0x51
 2905 0de0 02       		.byte	0x2
 2906 0de1 09       		.byte	0x9
 2907 0de2 A4       		.byte	0xa4
 2908 0de3 1D       		.uleb128 0x1d
 2909 0de4 01       		.byte	0x1
 2910 0de5 50       		.byte	0x50
 2911 0de6 02       		.byte	0x2
 2912 0de7 74       		.byte	0x74
 2913 0de8 00       		.sleb128 0
 2914 0de9 00       		.byte	0
 2915 0dea 1C       		.uleb128 0x1c
 2916 0deb 2C000000 		.4byte	.LVL47
 2917 0def 2D120000 		.4byte	0x122d
 2918 0df3 100E0000 		.4byte	0xe10
 2919 0df7 1D       		.uleb128 0x1d
 2920 0df8 01       		.byte	0x1
 2921 0df9 52       		.byte	0x52
 2922 0dfa 02       		.byte	0x2
 2923 0dfb 09       		.byte	0x9
 2924 0dfc FF       		.byte	0xff
 2925 0dfd 1D       		.uleb128 0x1d
 2926 0dfe 01       		.byte	0x1
 2927 0dff 51       		.byte	0x51
 2928 0e00 08       		.byte	0x8
 2929 0e01 75       		.byte	0x75
 2930 0e02 00       		.sleb128 0
 2931 0e03 09       		.byte	0x9
 2932 0e04 F4       		.byte	0xf4
 2933 0e05 24       		.byte	0x24
 2934 0e06 09       		.byte	0x9
 2935 0e07 FC       		.byte	0xfc
 2936 0e08 25       		.byte	0x25
 2937 0e09 1D       		.uleb128 0x1d
 2938 0e0a 01       		.byte	0x1
 2939 0e0b 50       		.byte	0x50
 2940 0e0c 02       		.byte	0x2
 2941 0e0d 74       		.byte	0x74
 2942 0e0e 00       		.sleb128 0
 2943 0e0f 00       		.byte	0
 2944 0e10 1E       		.uleb128 0x1e
 2945 0e11 3C000000 		.4byte	.LVL48
 2946 0e15 01       		.byte	0x1
 2947 0e16 2D120000 		.4byte	0x122d
 2948 0e1a 1D       		.uleb128 0x1d
 2949 0e1b 01       		.byte	0x1
 2950 0e1c 52       		.byte	0x52
 2951 0e1d 02       		.byte	0x2
 2952 0e1e 09       		.byte	0x9
 2953 0e1f FF       		.byte	0xff
 2954 0e20 1D       		.uleb128 0x1d
 2955 0e21 01       		.byte	0x1
 2956 0e22 51       		.byte	0x51
 2957 0e23 02       		.byte	0x2
ARM GAS  C:\Users\DNIEL~1\AppData\Local\Temp\ccTrwnMY.s 			page 53


 2958 0e24 75       		.byte	0x75
 2959 0e25 00       		.sleb128 0
 2960 0e26 1D       		.uleb128 0x1d
 2961 0e27 01       		.byte	0x1
 2962 0e28 50       		.byte	0x50
 2963 0e29 02       		.byte	0x2
 2964 0e2a 74       		.byte	0x74
 2965 0e2b 00       		.sleb128 0
 2966 0e2c 00       		.byte	0
 2967 0e2d 00       		.byte	0
 2968 0e2e 1B       		.uleb128 0x1b
 2969 0e2f 01       		.byte	0x1
 2970 0e30 41020000 		.4byte	.LASF115
 2971 0e34 01       		.byte	0x1
 2972 0e35 56       		.byte	0x56
 2973 0e36 01       		.byte	0x1
 2974 0e37 00000000 		.4byte	.LFB126
 2975 0e3b 40000000 		.4byte	.LFE126
 2976 0e3f 0C020000 		.4byte	.LLST17
 2977 0e43 01       		.byte	0x1
 2978 0e44 DB0E0000 		.4byte	0xedb
 2979 0e48 20       		.uleb128 0x20
 2980 0e49 72010000 		.4byte	.LASF116
 2981 0e4d 01       		.byte	0x1
 2982 0e4e 56       		.byte	0x56
 2983 0e4f 29000000 		.4byte	0x29
 2984 0e53 2C020000 		.4byte	.LLST18
 2985 0e57 1C       		.uleb128 0x1c
 2986 0e58 12000000 		.4byte	.LVL51
 2987 0e5c 2D120000 		.4byte	0x122d
 2988 0e60 770E0000 		.4byte	0xe77
 2989 0e64 1D       		.uleb128 0x1d
 2990 0e65 01       		.byte	0x1
 2991 0e66 52       		.byte	0x52
 2992 0e67 02       		.byte	0x2
 2993 0e68 09       		.byte	0x9
 2994 0e69 FF       		.byte	0xff
 2995 0e6a 1D       		.uleb128 0x1d
 2996 0e6b 01       		.byte	0x1
 2997 0e6c 51       		.byte	0x51
 2998 0e6d 02       		.byte	0x2
 2999 0e6e 09       		.byte	0x9
 3000 0e6f FF       		.byte	0xff
 3001 0e70 1D       		.uleb128 0x1d
 3002 0e71 01       		.byte	0x1
 3003 0e72 50       		.byte	0x50
 3004 0e73 02       		.byte	0x2
 3005 0e74 74       		.byte	0x74
 3006 0e75 00       		.sleb128 0
 3007 0e76 00       		.byte	0
 3008 0e77 1C       		.uleb128 0x1c
 3009 0e78 1E000000 		.4byte	.LVL52
 3010 0e7c 2D120000 		.4byte	0x122d
 3011 0e80 970E0000 		.4byte	0xe97
 3012 0e84 1D       		.uleb128 0x1d
 3013 0e85 01       		.byte	0x1
 3014 0e86 52       		.byte	0x52
ARM GAS  C:\Users\DNIEL~1\AppData\Local\Temp\ccTrwnMY.s 			page 54


 3015 0e87 02       		.byte	0x2
 3016 0e88 09       		.byte	0x9
 3017 0e89 FF       		.byte	0xff
 3018 0e8a 1D       		.uleb128 0x1d
 3019 0e8b 01       		.byte	0x1
 3020 0e8c 51       		.byte	0x51
 3021 0e8d 02       		.byte	0x2
 3022 0e8e 09       		.byte	0x9
 3023 0e8f 9C       		.byte	0x9c
 3024 0e90 1D       		.uleb128 0x1d
 3025 0e91 01       		.byte	0x1
 3026 0e92 50       		.byte	0x50
 3027 0e93 02       		.byte	0x2
 3028 0e94 74       		.byte	0x74
 3029 0e95 00       		.sleb128 0
 3030 0e96 00       		.byte	0
 3031 0e97 1C       		.uleb128 0x1c
 3032 0e98 2C000000 		.4byte	.LVL53
 3033 0e9c 2D120000 		.4byte	0x122d
 3034 0ea0 BD0E0000 		.4byte	0xebd
 3035 0ea4 1D       		.uleb128 0x1d
 3036 0ea5 01       		.byte	0x1
 3037 0ea6 52       		.byte	0x52
 3038 0ea7 02       		.byte	0x2
 3039 0ea8 09       		.byte	0x9
 3040 0ea9 FF       		.byte	0xff
 3041 0eaa 1D       		.uleb128 0x1d
 3042 0eab 01       		.byte	0x1
 3043 0eac 51       		.byte	0x51
 3044 0ead 08       		.byte	0x8
 3045 0eae 75       		.byte	0x75
 3046 0eaf 00       		.sleb128 0
 3047 0eb0 09       		.byte	0x9
 3048 0eb1 F4       		.byte	0xf4
 3049 0eb2 24       		.byte	0x24
 3050 0eb3 09       		.byte	0x9
 3051 0eb4 FC       		.byte	0xfc
 3052 0eb5 25       		.byte	0x25
 3053 0eb6 1D       		.uleb128 0x1d
 3054 0eb7 01       		.byte	0x1
 3055 0eb8 50       		.byte	0x50
 3056 0eb9 02       		.byte	0x2
 3057 0eba 74       		.byte	0x74
 3058 0ebb 00       		.sleb128 0
 3059 0ebc 00       		.byte	0
 3060 0ebd 1E       		.uleb128 0x1e
 3061 0ebe 3C000000 		.4byte	.LVL54
 3062 0ec2 01       		.byte	0x1
 3063 0ec3 2D120000 		.4byte	0x122d
 3064 0ec7 1D       		.uleb128 0x1d
 3065 0ec8 01       		.byte	0x1
 3066 0ec9 52       		.byte	0x52
 3067 0eca 02       		.byte	0x2
 3068 0ecb 09       		.byte	0x9
 3069 0ecc FF       		.byte	0xff
 3070 0ecd 1D       		.uleb128 0x1d
 3071 0ece 01       		.byte	0x1
ARM GAS  C:\Users\DNIEL~1\AppData\Local\Temp\ccTrwnMY.s 			page 55


 3072 0ecf 51       		.byte	0x51
 3073 0ed0 02       		.byte	0x2
 3074 0ed1 75       		.byte	0x75
 3075 0ed2 00       		.sleb128 0
 3076 0ed3 1D       		.uleb128 0x1d
 3077 0ed4 01       		.byte	0x1
 3078 0ed5 50       		.byte	0x50
 3079 0ed6 02       		.byte	0x2
 3080 0ed7 74       		.byte	0x74
 3081 0ed8 00       		.sleb128 0
 3082 0ed9 00       		.byte	0
 3083 0eda 00       		.byte	0
 3084 0edb 1B       		.uleb128 0x1b
 3085 0edc 01       		.byte	0x1
 3086 0edd 4D050000 		.4byte	.LASF117
 3087 0ee1 01       		.byte	0x1
 3088 0ee2 5E       		.byte	0x5e
 3089 0ee3 01       		.byte	0x1
 3090 0ee4 00000000 		.4byte	.LFB127
 3091 0ee8 40000000 		.4byte	.LFE127
 3092 0eec 4A020000 		.4byte	.LLST19
 3093 0ef0 01       		.byte	0x1
 3094 0ef1 880F0000 		.4byte	0xf88
 3095 0ef5 20       		.uleb128 0x20
 3096 0ef6 5B010000 		.4byte	.LASF118
 3097 0efa 01       		.byte	0x1
 3098 0efb 5E       		.byte	0x5e
 3099 0efc 29000000 		.4byte	0x29
 3100 0f00 6A020000 		.4byte	.LLST20
 3101 0f04 1C       		.uleb128 0x1c
 3102 0f05 12000000 		.4byte	.LVL57
 3103 0f09 2D120000 		.4byte	0x122d
 3104 0f0d 240F0000 		.4byte	0xf24
 3105 0f11 1D       		.uleb128 0x1d
 3106 0f12 01       		.byte	0x1
 3107 0f13 52       		.byte	0x52
 3108 0f14 02       		.byte	0x2
 3109 0f15 09       		.byte	0x9
 3110 0f16 FF       		.byte	0xff
 3111 0f17 1D       		.uleb128 0x1d
 3112 0f18 01       		.byte	0x1
 3113 0f19 51       		.byte	0x51
 3114 0f1a 02       		.byte	0x2
 3115 0f1b 09       		.byte	0x9
 3116 0f1c FF       		.byte	0xff
 3117 0f1d 1D       		.uleb128 0x1d
 3118 0f1e 01       		.byte	0x1
 3119 0f1f 50       		.byte	0x50
 3120 0f20 02       		.byte	0x2
 3121 0f21 74       		.byte	0x74
 3122 0f22 00       		.sleb128 0
 3123 0f23 00       		.byte	0
 3124 0f24 1C       		.uleb128 0x1c
 3125 0f25 1E000000 		.4byte	.LVL58
 3126 0f29 2D120000 		.4byte	0x122d
 3127 0f2d 440F0000 		.4byte	0xf44
 3128 0f31 1D       		.uleb128 0x1d
ARM GAS  C:\Users\DNIEL~1\AppData\Local\Temp\ccTrwnMY.s 			page 56


 3129 0f32 01       		.byte	0x1
 3130 0f33 52       		.byte	0x52
 3131 0f34 02       		.byte	0x2
 3132 0f35 09       		.byte	0x9
 3133 0f36 FF       		.byte	0xff
 3134 0f37 1D       		.uleb128 0x1d
 3135 0f38 01       		.byte	0x1
 3136 0f39 51       		.byte	0x51
 3137 0f3a 02       		.byte	0x2
 3138 0f3b 09       		.byte	0x9
 3139 0f3c A0       		.byte	0xa0
 3140 0f3d 1D       		.uleb128 0x1d
 3141 0f3e 01       		.byte	0x1
 3142 0f3f 50       		.byte	0x50
 3143 0f40 02       		.byte	0x2
 3144 0f41 74       		.byte	0x74
 3145 0f42 00       		.sleb128 0
 3146 0f43 00       		.byte	0
 3147 0f44 1C       		.uleb128 0x1c
 3148 0f45 2C000000 		.4byte	.LVL59
 3149 0f49 2D120000 		.4byte	0x122d
 3150 0f4d 6A0F0000 		.4byte	0xf6a
 3151 0f51 1D       		.uleb128 0x1d
 3152 0f52 01       		.byte	0x1
 3153 0f53 52       		.byte	0x52
 3154 0f54 02       		.byte	0x2
 3155 0f55 09       		.byte	0x9
 3156 0f56 FF       		.byte	0xff
 3157 0f57 1D       		.uleb128 0x1d
 3158 0f58 01       		.byte	0x1
 3159 0f59 51       		.byte	0x51
 3160 0f5a 08       		.byte	0x8
 3161 0f5b 75       		.byte	0x75
 3162 0f5c 00       		.sleb128 0
 3163 0f5d 09       		.byte	0x9
 3164 0f5e F4       		.byte	0xf4
 3165 0f5f 24       		.byte	0x24
 3166 0f60 09       		.byte	0x9
 3167 0f61 FC       		.byte	0xfc
 3168 0f62 25       		.byte	0x25
 3169 0f63 1D       		.uleb128 0x1d
 3170 0f64 01       		.byte	0x1
 3171 0f65 50       		.byte	0x50
 3172 0f66 02       		.byte	0x2
 3173 0f67 74       		.byte	0x74
 3174 0f68 00       		.sleb128 0
 3175 0f69 00       		.byte	0
 3176 0f6a 1E       		.uleb128 0x1e
 3177 0f6b 3C000000 		.4byte	.LVL60
 3178 0f6f 01       		.byte	0x1
 3179 0f70 2D120000 		.4byte	0x122d
 3180 0f74 1D       		.uleb128 0x1d
 3181 0f75 01       		.byte	0x1
 3182 0f76 52       		.byte	0x52
 3183 0f77 02       		.byte	0x2
 3184 0f78 09       		.byte	0x9
 3185 0f79 FF       		.byte	0xff
ARM GAS  C:\Users\DNIEL~1\AppData\Local\Temp\ccTrwnMY.s 			page 57


 3186 0f7a 1D       		.uleb128 0x1d
 3187 0f7b 01       		.byte	0x1
 3188 0f7c 51       		.byte	0x51
 3189 0f7d 02       		.byte	0x2
 3190 0f7e 75       		.byte	0x75
 3191 0f7f 00       		.sleb128 0
 3192 0f80 1D       		.uleb128 0x1d
 3193 0f81 01       		.byte	0x1
 3194 0f82 50       		.byte	0x50
 3195 0f83 02       		.byte	0x2
 3196 0f84 74       		.byte	0x74
 3197 0f85 00       		.sleb128 0
 3198 0f86 00       		.byte	0
 3199 0f87 00       		.byte	0
 3200 0f88 1B       		.uleb128 0x1b
 3201 0f89 01       		.byte	0x1
 3202 0f8a 57000000 		.4byte	.LASF119
 3203 0f8e 01       		.byte	0x1
 3204 0f8f 66       		.byte	0x66
 3205 0f90 01       		.byte	0x1
 3206 0f91 00000000 		.4byte	.LFB128
 3207 0f95 40000000 		.4byte	.LFE128
 3208 0f99 88020000 		.4byte	.LLST21
 3209 0f9d 01       		.byte	0x1
 3210 0f9e 35100000 		.4byte	0x1035
 3211 0fa2 20       		.uleb128 0x20
 3212 0fa3 D7030000 		.4byte	.LASF114
 3213 0fa7 01       		.byte	0x1
 3214 0fa8 66       		.byte	0x66
 3215 0fa9 29000000 		.4byte	0x29
 3216 0fad A8020000 		.4byte	.LLST22
 3217 0fb1 1C       		.uleb128 0x1c
 3218 0fb2 12000000 		.4byte	.LVL63
 3219 0fb6 2D120000 		.4byte	0x122d
 3220 0fba D10F0000 		.4byte	0xfd1
 3221 0fbe 1D       		.uleb128 0x1d
 3222 0fbf 01       		.byte	0x1
 3223 0fc0 52       		.byte	0x52
 3224 0fc1 02       		.byte	0x2
 3225 0fc2 09       		.byte	0x9
 3226 0fc3 FF       		.byte	0xff
 3227 0fc4 1D       		.uleb128 0x1d
 3228 0fc5 01       		.byte	0x1
 3229 0fc6 51       		.byte	0x51
 3230 0fc7 02       		.byte	0x2
 3231 0fc8 09       		.byte	0x9
 3232 0fc9 FF       		.byte	0xff
 3233 0fca 1D       		.uleb128 0x1d
 3234 0fcb 01       		.byte	0x1
 3235 0fcc 50       		.byte	0x50
 3236 0fcd 02       		.byte	0x2
 3237 0fce 74       		.byte	0x74
 3238 0fcf 00       		.sleb128 0
 3239 0fd0 00       		.byte	0
 3240 0fd1 1C       		.uleb128 0x1c
 3241 0fd2 1E000000 		.4byte	.LVL64
 3242 0fd6 2D120000 		.4byte	0x122d
ARM GAS  C:\Users\DNIEL~1\AppData\Local\Temp\ccTrwnMY.s 			page 58


 3243 0fda F10F0000 		.4byte	0xff1
 3244 0fde 1D       		.uleb128 0x1d
 3245 0fdf 01       		.byte	0x1
 3246 0fe0 52       		.byte	0x52
 3247 0fe1 02       		.byte	0x2
 3248 0fe2 09       		.byte	0x9
 3249 0fe3 FF       		.byte	0xff
 3250 0fe4 1D       		.uleb128 0x1d
 3251 0fe5 01       		.byte	0x1
 3252 0fe6 51       		.byte	0x51
 3253 0fe7 02       		.byte	0x2
 3254 0fe8 09       		.byte	0x9
 3255 0fe9 A1       		.byte	0xa1
 3256 0fea 1D       		.uleb128 0x1d
 3257 0feb 01       		.byte	0x1
 3258 0fec 50       		.byte	0x50
 3259 0fed 02       		.byte	0x2
 3260 0fee 74       		.byte	0x74
 3261 0fef 00       		.sleb128 0
 3262 0ff0 00       		.byte	0
 3263 0ff1 1C       		.uleb128 0x1c
 3264 0ff2 2C000000 		.4byte	.LVL65
 3265 0ff6 2D120000 		.4byte	0x122d
 3266 0ffa 17100000 		.4byte	0x1017
 3267 0ffe 1D       		.uleb128 0x1d
 3268 0fff 01       		.byte	0x1
 3269 1000 52       		.byte	0x52
 3270 1001 02       		.byte	0x2
 3271 1002 09       		.byte	0x9
 3272 1003 FF       		.byte	0xff
 3273 1004 1D       		.uleb128 0x1d
 3274 1005 01       		.byte	0x1
 3275 1006 51       		.byte	0x51
 3276 1007 08       		.byte	0x8
 3277 1008 75       		.byte	0x75
 3278 1009 00       		.sleb128 0
 3279 100a 09       		.byte	0x9
 3280 100b F4       		.byte	0xf4
 3281 100c 24       		.byte	0x24
 3282 100d 09       		.byte	0x9
 3283 100e FC       		.byte	0xfc
 3284 100f 25       		.byte	0x25
 3285 1010 1D       		.uleb128 0x1d
 3286 1011 01       		.byte	0x1
 3287 1012 50       		.byte	0x50
 3288 1013 02       		.byte	0x2
 3289 1014 74       		.byte	0x74
 3290 1015 00       		.sleb128 0
 3291 1016 00       		.byte	0
 3292 1017 1E       		.uleb128 0x1e
 3293 1018 3C000000 		.4byte	.LVL66
 3294 101c 01       		.byte	0x1
 3295 101d 2D120000 		.4byte	0x122d
 3296 1021 1D       		.uleb128 0x1d
 3297 1022 01       		.byte	0x1
 3298 1023 52       		.byte	0x52
 3299 1024 02       		.byte	0x2
ARM GAS  C:\Users\DNIEL~1\AppData\Local\Temp\ccTrwnMY.s 			page 59


 3300 1025 09       		.byte	0x9
 3301 1026 FF       		.byte	0xff
 3302 1027 1D       		.uleb128 0x1d
 3303 1028 01       		.byte	0x1
 3304 1029 51       		.byte	0x51
 3305 102a 02       		.byte	0x2
 3306 102b 75       		.byte	0x75
 3307 102c 00       		.sleb128 0
 3308 102d 1D       		.uleb128 0x1d
 3309 102e 01       		.byte	0x1
 3310 102f 50       		.byte	0x50
 3311 1030 02       		.byte	0x2
 3312 1031 74       		.byte	0x74
 3313 1032 00       		.sleb128 0
 3314 1033 00       		.byte	0
 3315 1034 00       		.byte	0
 3316 1035 1B       		.uleb128 0x1b
 3317 1036 01       		.byte	0x1
 3318 1037 F2030000 		.4byte	.LASF120
 3319 103b 01       		.byte	0x1
 3320 103c 6E       		.byte	0x6e
 3321 103d 01       		.byte	0x1
 3322 103e 00000000 		.4byte	.LFB129
 3323 1042 5C000000 		.4byte	.LFE129
 3324 1046 C6020000 		.4byte	.LLST23
 3325 104a 01       		.byte	0x1
 3326 104b 3E110000 		.4byte	0x113e
 3327 104f 20       		.uleb128 0x20
 3328 1050 0F000000 		.4byte	.LASF121
 3329 1054 01       		.byte	0x1
 3330 1055 6E       		.byte	0x6e
 3331 1056 7B080000 		.4byte	0x87b
 3332 105a E6020000 		.4byte	.LLST24
 3333 105e 20       		.uleb128 0x20
 3334 105f 99010000 		.4byte	.LASF122
 3335 1063 01       		.byte	0x1
 3336 1064 6E       		.byte	0x6e
 3337 1065 7B080000 		.4byte	0x87b
 3338 1069 04030000 		.4byte	.LLST25
 3339 106d 20       		.uleb128 0x20
 3340 106e 2A010000 		.4byte	.LASF123
 3341 1072 01       		.byte	0x1
 3342 1073 6E       		.byte	0x6e
 3343 1074 29000000 		.4byte	0x29
 3344 1078 22030000 		.4byte	.LLST26
 3345 107c 1C       		.uleb128 0x1c
 3346 107d 16000000 		.4byte	.LVL71
 3347 1081 2D120000 		.4byte	0x122d
 3348 1085 9B100000 		.4byte	0x109b
 3349 1089 1D       		.uleb128 0x1d
 3350 108a 01       		.byte	0x1
 3351 108b 52       		.byte	0x52
 3352 108c 02       		.byte	0x2
 3353 108d 09       		.byte	0x9
 3354 108e FF       		.byte	0xff
 3355 108f 1D       		.uleb128 0x1d
 3356 1090 01       		.byte	0x1
ARM GAS  C:\Users\DNIEL~1\AppData\Local\Temp\ccTrwnMY.s 			page 60


 3357 1091 51       		.byte	0x51
 3358 1092 01       		.byte	0x1
 3359 1093 30       		.byte	0x30
 3360 1094 1D       		.uleb128 0x1d
 3361 1095 01       		.byte	0x1
 3362 1096 50       		.byte	0x50
 3363 1097 02       		.byte	0x2
 3364 1098 74       		.byte	0x74
 3365 1099 00       		.sleb128 0
 3366 109a 00       		.byte	0
 3367 109b 1C       		.uleb128 0x1c
 3368 109c 22000000 		.4byte	.LVL72
 3369 10a0 2D120000 		.4byte	0x122d
 3370 10a4 BA100000 		.4byte	0x10ba
 3371 10a8 1D       		.uleb128 0x1d
 3372 10a9 01       		.byte	0x1
 3373 10aa 52       		.byte	0x52
 3374 10ab 02       		.byte	0x2
 3375 10ac 09       		.byte	0x9
 3376 10ad FF       		.byte	0xff
 3377 10ae 1D       		.uleb128 0x1d
 3378 10af 01       		.byte	0x1
 3379 10b0 51       		.byte	0x51
 3380 10b1 01       		.byte	0x1
 3381 10b2 39       		.byte	0x39
 3382 10b3 1D       		.uleb128 0x1d
 3383 10b4 01       		.byte	0x1
 3384 10b5 50       		.byte	0x50
 3385 10b6 02       		.byte	0x2
 3386 10b7 74       		.byte	0x74
 3387 10b8 00       		.sleb128 0
 3388 10b9 00       		.byte	0
 3389 10ba 1C       		.uleb128 0x1c
 3390 10bb 2E000000 		.4byte	.LVL73
 3391 10bf 2D120000 		.4byte	0x122d
 3392 10c3 DA100000 		.4byte	0x10da
 3393 10c7 1D       		.uleb128 0x1d
 3394 10c8 01       		.byte	0x1
 3395 10c9 52       		.byte	0x52
 3396 10ca 02       		.byte	0x2
 3397 10cb 09       		.byte	0x9
 3398 10cc FF       		.byte	0xff
 3399 10cd 1D       		.uleb128 0x1d
 3400 10ce 01       		.byte	0x1
 3401 10cf 51       		.byte	0x51
 3402 10d0 02       		.byte	0x2
 3403 10d1 77       		.byte	0x77
 3404 10d2 00       		.sleb128 0
 3405 10d3 1D       		.uleb128 0x1d
 3406 10d4 01       		.byte	0x1
 3407 10d5 50       		.byte	0x50
 3408 10d6 02       		.byte	0x2
 3409 10d7 74       		.byte	0x74
 3410 10d8 00       		.sleb128 0
 3411 10d9 00       		.byte	0
 3412 10da 1C       		.uleb128 0x1c
 3413 10db 3A000000 		.4byte	.LVL74
ARM GAS  C:\Users\DNIEL~1\AppData\Local\Temp\ccTrwnMY.s 			page 61


 3414 10df 2D120000 		.4byte	0x122d
 3415 10e3 FA100000 		.4byte	0x10fa
 3416 10e7 1D       		.uleb128 0x1d
 3417 10e8 01       		.byte	0x1
 3418 10e9 52       		.byte	0x52
 3419 10ea 02       		.byte	0x2
 3420 10eb 09       		.byte	0x9
 3421 10ec FF       		.byte	0xff
 3422 10ed 1D       		.uleb128 0x1d
 3423 10ee 01       		.byte	0x1
 3424 10ef 51       		.byte	0x51
 3425 10f0 02       		.byte	0x2
 3426 10f1 76       		.byte	0x76
 3427 10f2 00       		.sleb128 0
 3428 10f3 1D       		.uleb128 0x1d
 3429 10f4 01       		.byte	0x1
 3430 10f5 50       		.byte	0x50
 3431 10f6 02       		.byte	0x2
 3432 10f7 74       		.byte	0x74
 3433 10f8 00       		.sleb128 0
 3434 10f9 00       		.byte	0
 3435 10fa 1C       		.uleb128 0x1c
 3436 10fb 48000000 		.4byte	.LVL75
 3437 10ff 2D120000 		.4byte	0x122d
 3438 1103 20110000 		.4byte	0x1120
 3439 1107 1D       		.uleb128 0x1d
 3440 1108 01       		.byte	0x1
 3441 1109 52       		.byte	0x52
 3442 110a 02       		.byte	0x2
 3443 110b 09       		.byte	0x9
 3444 110c FF       		.byte	0xff
 3445 110d 1D       		.uleb128 0x1d
 3446 110e 01       		.byte	0x1
 3447 110f 51       		.byte	0x51
 3448 1110 08       		.byte	0x8
 3449 1111 75       		.byte	0x75
 3450 1112 00       		.sleb128 0
 3451 1113 09       		.byte	0x9
 3452 1114 F4       		.byte	0xf4
 3453 1115 24       		.byte	0x24
 3454 1116 09       		.byte	0x9
 3455 1117 FC       		.byte	0xfc
 3456 1118 25       		.byte	0x25
 3457 1119 1D       		.uleb128 0x1d
 3458 111a 01       		.byte	0x1
 3459 111b 50       		.byte	0x50
 3460 111c 02       		.byte	0x2
 3461 111d 74       		.byte	0x74
 3462 111e 00       		.sleb128 0
 3463 111f 00       		.byte	0
 3464 1120 1E       		.uleb128 0x1e
 3465 1121 58000000 		.4byte	.LVL76
 3466 1125 01       		.byte	0x1
 3467 1126 2D120000 		.4byte	0x122d
 3468 112a 1D       		.uleb128 0x1d
 3469 112b 01       		.byte	0x1
 3470 112c 52       		.byte	0x52
ARM GAS  C:\Users\DNIEL~1\AppData\Local\Temp\ccTrwnMY.s 			page 62


 3471 112d 02       		.byte	0x2
 3472 112e 09       		.byte	0x9
 3473 112f FF       		.byte	0xff
 3474 1130 1D       		.uleb128 0x1d
 3475 1131 01       		.byte	0x1
 3476 1132 51       		.byte	0x51
 3477 1133 02       		.byte	0x2
 3478 1134 75       		.byte	0x75
 3479 1135 00       		.sleb128 0
 3480 1136 1D       		.uleb128 0x1d
 3481 1137 01       		.byte	0x1
 3482 1138 50       		.byte	0x50
 3483 1139 02       		.byte	0x2
 3484 113a 74       		.byte	0x74
 3485 113b 00       		.sleb128 0
 3486 113c 00       		.byte	0
 3487 113d 00       		.byte	0
 3488 113e 1B       		.uleb128 0x1b
 3489 113f 01       		.byte	0x1
 3490 1140 66040000 		.4byte	.LASF124
 3491 1144 01       		.byte	0x1
 3492 1145 78       		.byte	0x78
 3493 1146 01       		.byte	0x1
 3494 1147 00000000 		.4byte	.LFB130
 3495 114b 34000000 		.4byte	.LFE130
 3496 114f 40030000 		.4byte	.LLST27
 3497 1153 01       		.byte	0x1
 3498 1154 C3110000 		.4byte	0x11c3
 3499 1158 20       		.uleb128 0x20
 3500 1159 CA000000 		.4byte	.LASF125
 3501 115d 01       		.byte	0x1
 3502 115e 78       		.byte	0x78
 3503 115f 7B080000 		.4byte	0x87b
 3504 1163 60030000 		.4byte	.LLST28
 3505 1167 1C       		.uleb128 0x1c
 3506 1168 12000000 		.4byte	.LVL79
 3507 116c 2D120000 		.4byte	0x122d
 3508 1170 86110000 		.4byte	0x1186
 3509 1174 1D       		.uleb128 0x1d
 3510 1175 01       		.byte	0x1
 3511 1176 52       		.byte	0x52
 3512 1177 02       		.byte	0x2
 3513 1178 09       		.byte	0x9
 3514 1179 FF       		.byte	0xff
 3515 117a 1D       		.uleb128 0x1d
 3516 117b 01       		.byte	0x1
 3517 117c 51       		.byte	0x51
 3518 117d 01       		.byte	0x1
 3519 117e 30       		.byte	0x30
 3520 117f 1D       		.uleb128 0x1d
 3521 1180 01       		.byte	0x1
 3522 1181 50       		.byte	0x50
 3523 1182 02       		.byte	0x2
 3524 1183 74       		.byte	0x74
 3525 1184 00       		.sleb128 0
 3526 1185 00       		.byte	0
 3527 1186 1C       		.uleb128 0x1c
ARM GAS  C:\Users\DNIEL~1\AppData\Local\Temp\ccTrwnMY.s 			page 63


 3528 1187 1E000000 		.4byte	.LVL80
 3529 118b 2D120000 		.4byte	0x122d
 3530 118f A5110000 		.4byte	0x11a5
 3531 1193 1D       		.uleb128 0x1d
 3532 1194 01       		.byte	0x1
 3533 1195 52       		.byte	0x52
 3534 1196 02       		.byte	0x2
 3535 1197 09       		.byte	0x9
 3536 1198 FF       		.byte	0xff
 3537 1199 1D       		.uleb128 0x1d
 3538 119a 01       		.byte	0x1
 3539 119b 51       		.byte	0x51
 3540 119c 01       		.byte	0x1
 3541 119d 48       		.byte	0x48
 3542 119e 1D       		.uleb128 0x1d
 3543 119f 01       		.byte	0x1
 3544 11a0 50       		.byte	0x50
 3545 11a1 02       		.byte	0x2
 3546 11a2 74       		.byte	0x74
 3547 11a3 00       		.sleb128 0
 3548 11a4 00       		.byte	0
 3549 11a5 1E       		.uleb128 0x1e
 3550 11a6 2E000000 		.4byte	.LVL81
 3551 11aa 01       		.byte	0x1
 3552 11ab 2D120000 		.4byte	0x122d
 3553 11af 1D       		.uleb128 0x1d
 3554 11b0 01       		.byte	0x1
 3555 11b1 52       		.byte	0x52
 3556 11b2 02       		.byte	0x2
 3557 11b3 09       		.byte	0x9
 3558 11b4 FF       		.byte	0xff
 3559 11b5 1D       		.uleb128 0x1d
 3560 11b6 01       		.byte	0x1
 3561 11b7 51       		.byte	0x51
 3562 11b8 02       		.byte	0x2
 3563 11b9 75       		.byte	0x75
 3564 11ba 00       		.sleb128 0
 3565 11bb 1D       		.uleb128 0x1d
 3566 11bc 01       		.byte	0x1
 3567 11bd 50       		.byte	0x50
 3568 11be 02       		.byte	0x2
 3569 11bf 74       		.byte	0x74
 3570 11c0 00       		.sleb128 0
 3571 11c1 00       		.byte	0
 3572 11c2 00       		.byte	0
 3573 11c3 1B       		.uleb128 0x1b
 3574 11c4 01       		.byte	0x1
 3575 11c5 1B040000 		.4byte	.LASF126
 3576 11c9 01       		.byte	0x1
 3577 11ca 7F       		.byte	0x7f
 3578 11cb 01       		.byte	0x1
 3579 11cc 00000000 		.4byte	.LFB131
 3580 11d0 20000000 		.4byte	.LFE131
 3581 11d4 7E030000 		.4byte	.LLST29
 3582 11d8 01       		.byte	0x1
 3583 11d9 11120000 		.4byte	0x1211
 3584 11dd 20       		.uleb128 0x20
ARM GAS  C:\Users\DNIEL~1\AppData\Local\Temp\ccTrwnMY.s 			page 64


 3585 11de 68020000 		.4byte	.LASF127
 3586 11e2 01       		.byte	0x1
 3587 11e3 7F       		.byte	0x7f
 3588 11e4 7B080000 		.4byte	0x87b
 3589 11e8 9E030000 		.4byte	.LLST30
 3590 11ec 21       		.uleb128 0x21
 3591 11ed 776B00   		.ascii	"wk\000"
 3592 11f0 01       		.byte	0x1
 3593 11f1 81       		.byte	0x81
 3594 11f2 54000000 		.4byte	0x54
 3595 11f6 BC030000 		.4byte	.LLST31
 3596 11fa 22       		.uleb128 0x22
 3597 11fb 14000000 		.4byte	.LVL85
 3598 11ff 2D120000 		.4byte	0x122d
 3599 1203 1D       		.uleb128 0x1d
 3600 1204 01       		.byte	0x1
 3601 1205 52       		.byte	0x52
 3602 1206 02       		.byte	0x2
 3603 1207 09       		.byte	0x9
 3604 1208 FF       		.byte	0xff
 3605 1209 1D       		.uleb128 0x1d
 3606 120a 01       		.byte	0x1
 3607 120b 51       		.byte	0x51
 3608 120c 02       		.byte	0x2
 3609 120d 74       		.byte	0x74
 3610 120e 00       		.sleb128 0
 3611 120f 00       		.byte	0
 3612 1210 00       		.byte	0
 3613 1211 23       		.uleb128 0x23
 3614 1212 7E030000 		.4byte	.LASF128
 3615 1216 0D       		.byte	0xd
 3616 1217 9806     		.2byte	0x698
 3617 1219 BB050000 		.4byte	0x5bb
 3618 121d 01       		.byte	0x1
 3619 121e 01       		.byte	0x1
 3620 121f 24       		.uleb128 0x24
 3621 1220 53443200 		.ascii	"SD2\000"
 3622 1224 0E       		.byte	0xe
 3623 1225 1201     		.2byte	0x112
 3624 1227 51070000 		.4byte	0x751
 3625 122b 01       		.byte	0x1
 3626 122c 01       		.byte	0x1
 3627 122d 25       		.uleb128 0x25
 3628 122e 01       		.byte	0x1
 3629 122f 00000000 		.4byte	.LASF132
 3630 1233 0A       		.byte	0xa
 3631 1234 6D01     		.2byte	0x16d
 3632 1236 01       		.byte	0x1
 3633 1237 E4000000 		.4byte	0xe4
 3634 123b 01       		.byte	0x1
 3635 123c 12       		.uleb128 0x12
 3636 123d 75080000 		.4byte	0x875
 3637 1241 12       		.uleb128 0x12
 3638 1242 49000000 		.4byte	0x49
 3639 1246 12       		.uleb128 0x12
 3640 1247 05010000 		.4byte	0x105
 3641 124b 00       		.byte	0
ARM GAS  C:\Users\DNIEL~1\AppData\Local\Temp\ccTrwnMY.s 			page 65


 3642 124c 00       		.byte	0
 3643              		.section	.debug_abbrev,"",%progbits
 3644              	.Ldebug_abbrev0:
 3645 0000 01       		.uleb128 0x1
 3646 0001 11       		.uleb128 0x11
 3647 0002 01       		.byte	0x1
 3648 0003 25       		.uleb128 0x25
 3649 0004 0E       		.uleb128 0xe
 3650 0005 13       		.uleb128 0x13
 3651 0006 0B       		.uleb128 0xb
 3652 0007 03       		.uleb128 0x3
 3653 0008 0E       		.uleb128 0xe
 3654 0009 1B       		.uleb128 0x1b
 3655 000a 0E       		.uleb128 0xe
 3656 000b 55       		.uleb128 0x55
 3657 000c 06       		.uleb128 0x6
 3658 000d 11       		.uleb128 0x11
 3659 000e 01       		.uleb128 0x1
 3660 000f 52       		.uleb128 0x52
 3661 0010 01       		.uleb128 0x1
 3662 0011 10       		.uleb128 0x10
 3663 0012 06       		.uleb128 0x6
 3664 0013 00       		.byte	0
 3665 0014 00       		.byte	0
 3666 0015 02       		.uleb128 0x2
 3667 0016 24       		.uleb128 0x24
 3668 0017 00       		.byte	0
 3669 0018 0B       		.uleb128 0xb
 3670 0019 0B       		.uleb128 0xb
 3671 001a 3E       		.uleb128 0x3e
 3672 001b 0B       		.uleb128 0xb
 3673 001c 03       		.uleb128 0x3
 3674 001d 08       		.uleb128 0x8
 3675 001e 00       		.byte	0
 3676 001f 00       		.byte	0
 3677 0020 03       		.uleb128 0x3
 3678 0021 16       		.uleb128 0x16
 3679 0022 00       		.byte	0
 3680 0023 03       		.uleb128 0x3
 3681 0024 0E       		.uleb128 0xe
 3682 0025 3A       		.uleb128 0x3a
 3683 0026 0B       		.uleb128 0xb
 3684 0027 3B       		.uleb128 0x3b
 3685 0028 0B       		.uleb128 0xb
 3686 0029 49       		.uleb128 0x49
 3687 002a 13       		.uleb128 0x13
 3688 002b 00       		.byte	0
 3689 002c 00       		.byte	0
 3690 002d 04       		.uleb128 0x4
 3691 002e 24       		.uleb128 0x24
 3692 002f 00       		.byte	0
 3693 0030 0B       		.uleb128 0xb
 3694 0031 0B       		.uleb128 0xb
 3695 0032 3E       		.uleb128 0x3e
 3696 0033 0B       		.uleb128 0xb
 3697 0034 03       		.uleb128 0x3
 3698 0035 0E       		.uleb128 0xe
ARM GAS  C:\Users\DNIEL~1\AppData\Local\Temp\ccTrwnMY.s 			page 66


 3699 0036 00       		.byte	0
 3700 0037 00       		.byte	0
 3701 0038 05       		.uleb128 0x5
 3702 0039 13       		.uleb128 0x13
 3703 003a 01       		.byte	0x1
 3704 003b 03       		.uleb128 0x3
 3705 003c 0E       		.uleb128 0xe
 3706 003d 0B       		.uleb128 0xb
 3707 003e 0B       		.uleb128 0xb
 3708 003f 3A       		.uleb128 0x3a
 3709 0040 0B       		.uleb128 0xb
 3710 0041 3B       		.uleb128 0x3b
 3711 0042 0B       		.uleb128 0xb
 3712 0043 01       		.uleb128 0x1
 3713 0044 13       		.uleb128 0x13
 3714 0045 00       		.byte	0
 3715 0046 00       		.byte	0
 3716 0047 06       		.uleb128 0x6
 3717 0048 0D       		.uleb128 0xd
 3718 0049 00       		.byte	0
 3719 004a 03       		.uleb128 0x3
 3720 004b 0E       		.uleb128 0xe
 3721 004c 3A       		.uleb128 0x3a
 3722 004d 0B       		.uleb128 0xb
 3723 004e 3B       		.uleb128 0x3b
 3724 004f 0B       		.uleb128 0xb
 3725 0050 49       		.uleb128 0x49
 3726 0051 13       		.uleb128 0x13
 3727 0052 38       		.uleb128 0x38
 3728 0053 0A       		.uleb128 0xa
 3729 0054 00       		.byte	0
 3730 0055 00       		.byte	0
 3731 0056 07       		.uleb128 0x7
 3732 0057 0D       		.uleb128 0xd
 3733 0058 00       		.byte	0
 3734 0059 03       		.uleb128 0x3
 3735 005a 08       		.uleb128 0x8
 3736 005b 3A       		.uleb128 0x3a
 3737 005c 0B       		.uleb128 0xb
 3738 005d 3B       		.uleb128 0x3b
 3739 005e 0B       		.uleb128 0xb
 3740 005f 49       		.uleb128 0x49
 3741 0060 13       		.uleb128 0x13
 3742 0061 38       		.uleb128 0x38
 3743 0062 0A       		.uleb128 0xa
 3744 0063 00       		.byte	0
 3745 0064 00       		.byte	0
 3746 0065 08       		.uleb128 0x8
 3747 0066 13       		.uleb128 0x13
 3748 0067 01       		.byte	0x1
 3749 0068 0B       		.uleb128 0xb
 3750 0069 0B       		.uleb128 0xb
 3751 006a 3A       		.uleb128 0x3a
 3752 006b 0B       		.uleb128 0xb
 3753 006c 3B       		.uleb128 0x3b
 3754 006d 0B       		.uleb128 0xb
 3755 006e 01       		.uleb128 0x1
ARM GAS  C:\Users\DNIEL~1\AppData\Local\Temp\ccTrwnMY.s 			page 67


 3756 006f 13       		.uleb128 0x13
 3757 0070 00       		.byte	0
 3758 0071 00       		.byte	0
 3759 0072 09       		.uleb128 0x9
 3760 0073 0F       		.uleb128 0xf
 3761 0074 00       		.byte	0
 3762 0075 0B       		.uleb128 0xb
 3763 0076 0B       		.uleb128 0xb
 3764 0077 49       		.uleb128 0x49
 3765 0078 13       		.uleb128 0x13
 3766 0079 00       		.byte	0
 3767 007a 00       		.byte	0
 3768 007b 0A       		.uleb128 0xa
 3769 007c 0F       		.uleb128 0xf
 3770 007d 00       		.byte	0
 3771 007e 0B       		.uleb128 0xb
 3772 007f 0B       		.uleb128 0xb
 3773 0080 00       		.byte	0
 3774 0081 00       		.byte	0
 3775 0082 0B       		.uleb128 0xb
 3776 0083 13       		.uleb128 0x13
 3777 0084 01       		.byte	0x1
 3778 0085 03       		.uleb128 0x3
 3779 0086 0E       		.uleb128 0xe
 3780 0087 0B       		.uleb128 0xb
 3781 0088 0B       		.uleb128 0xb
 3782 0089 3A       		.uleb128 0x3a
 3783 008a 0B       		.uleb128 0xb
 3784 008b 3B       		.uleb128 0x3b
 3785 008c 05       		.uleb128 0x5
 3786 008d 01       		.uleb128 0x1
 3787 008e 13       		.uleb128 0x13
 3788 008f 00       		.byte	0
 3789 0090 00       		.byte	0
 3790 0091 0C       		.uleb128 0xc
 3791 0092 0D       		.uleb128 0xd
 3792 0093 00       		.byte	0
 3793 0094 03       		.uleb128 0x3
 3794 0095 08       		.uleb128 0x8
 3795 0096 3A       		.uleb128 0x3a
 3796 0097 0B       		.uleb128 0xb
 3797 0098 3B       		.uleb128 0x3b
 3798 0099 05       		.uleb128 0x5
 3799 009a 49       		.uleb128 0x49
 3800 009b 13       		.uleb128 0x13
 3801 009c 38       		.uleb128 0x38
 3802 009d 0A       		.uleb128 0xa
 3803 009e 00       		.byte	0
 3804 009f 00       		.byte	0
 3805 00a0 0D       		.uleb128 0xd
 3806 00a1 35       		.uleb128 0x35
 3807 00a2 00       		.byte	0
 3808 00a3 49       		.uleb128 0x49
 3809 00a4 13       		.uleb128 0x13
 3810 00a5 00       		.byte	0
 3811 00a6 00       		.byte	0
 3812 00a7 0E       		.uleb128 0xe
ARM GAS  C:\Users\DNIEL~1\AppData\Local\Temp\ccTrwnMY.s 			page 68


 3813 00a8 17       		.uleb128 0x17
 3814 00a9 01       		.byte	0x1
 3815 00aa 0B       		.uleb128 0xb
 3816 00ab 0B       		.uleb128 0xb
 3817 00ac 3A       		.uleb128 0x3a
 3818 00ad 0B       		.uleb128 0xb
 3819 00ae 3B       		.uleb128 0x3b
 3820 00af 0B       		.uleb128 0xb
 3821 00b0 01       		.uleb128 0x1
 3822 00b1 13       		.uleb128 0x13
 3823 00b2 00       		.byte	0
 3824 00b3 00       		.byte	0
 3825 00b4 0F       		.uleb128 0xf
 3826 00b5 0D       		.uleb128 0xd
 3827 00b6 00       		.byte	0
 3828 00b7 03       		.uleb128 0x3
 3829 00b8 0E       		.uleb128 0xe
 3830 00b9 3A       		.uleb128 0x3a
 3831 00ba 0B       		.uleb128 0xb
 3832 00bb 3B       		.uleb128 0x3b
 3833 00bc 0B       		.uleb128 0xb
 3834 00bd 49       		.uleb128 0x49
 3835 00be 13       		.uleb128 0x13
 3836 00bf 00       		.byte	0
 3837 00c0 00       		.byte	0
 3838 00c1 10       		.uleb128 0x10
 3839 00c2 26       		.uleb128 0x26
 3840 00c3 00       		.byte	0
 3841 00c4 49       		.uleb128 0x49
 3842 00c5 13       		.uleb128 0x13
 3843 00c6 00       		.byte	0
 3844 00c7 00       		.byte	0
 3845 00c8 11       		.uleb128 0x11
 3846 00c9 15       		.uleb128 0x15
 3847 00ca 01       		.byte	0x1
 3848 00cb 27       		.uleb128 0x27
 3849 00cc 0C       		.uleb128 0xc
 3850 00cd 49       		.uleb128 0x49
 3851 00ce 13       		.uleb128 0x13
 3852 00cf 01       		.uleb128 0x1
 3853 00d0 13       		.uleb128 0x13
 3854 00d1 00       		.byte	0
 3855 00d2 00       		.byte	0
 3856 00d3 12       		.uleb128 0x12
 3857 00d4 05       		.uleb128 0x5
 3858 00d5 00       		.byte	0
 3859 00d6 49       		.uleb128 0x49
 3860 00d7 13       		.uleb128 0x13
 3861 00d8 00       		.byte	0
 3862 00d9 00       		.byte	0
 3863 00da 13       		.uleb128 0x13
 3864 00db 15       		.uleb128 0x15
 3865 00dc 01       		.byte	0x1
 3866 00dd 27       		.uleb128 0x27
 3867 00de 0C       		.uleb128 0xc
 3868 00df 01       		.uleb128 0x1
 3869 00e0 13       		.uleb128 0x13
ARM GAS  C:\Users\DNIEL~1\AppData\Local\Temp\ccTrwnMY.s 			page 69


 3870 00e1 00       		.byte	0
 3871 00e2 00       		.byte	0
 3872 00e3 14       		.uleb128 0x14
 3873 00e4 13       		.uleb128 0x13
 3874 00e5 01       		.byte	0x1
 3875 00e6 0B       		.uleb128 0xb
 3876 00e7 0B       		.uleb128 0xb
 3877 00e8 3A       		.uleb128 0x3a
 3878 00e9 0B       		.uleb128 0xb
 3879 00ea 3B       		.uleb128 0x3b
 3880 00eb 05       		.uleb128 0x5
 3881 00ec 01       		.uleb128 0x1
 3882 00ed 13       		.uleb128 0x13
 3883 00ee 00       		.byte	0
 3884 00ef 00       		.byte	0
 3885 00f0 15       		.uleb128 0x15
 3886 00f1 0D       		.uleb128 0xd
 3887 00f2 00       		.byte	0
 3888 00f3 03       		.uleb128 0x3
 3889 00f4 0E       		.uleb128 0xe
 3890 00f5 3A       		.uleb128 0x3a
 3891 00f6 0B       		.uleb128 0xb
 3892 00f7 3B       		.uleb128 0x3b
 3893 00f8 05       		.uleb128 0x5
 3894 00f9 49       		.uleb128 0x49
 3895 00fa 13       		.uleb128 0x13
 3896 00fb 38       		.uleb128 0x38
 3897 00fc 0A       		.uleb128 0xa
 3898 00fd 00       		.byte	0
 3899 00fe 00       		.byte	0
 3900 00ff 16       		.uleb128 0x16
 3901 0100 16       		.uleb128 0x16
 3902 0101 00       		.byte	0
 3903 0102 03       		.uleb128 0x3
 3904 0103 0E       		.uleb128 0xe
 3905 0104 3A       		.uleb128 0x3a
 3906 0105 0B       		.uleb128 0xb
 3907 0106 3B       		.uleb128 0x3b
 3908 0107 05       		.uleb128 0x5
 3909 0108 49       		.uleb128 0x49
 3910 0109 13       		.uleb128 0x13
 3911 010a 00       		.byte	0
 3912 010b 00       		.byte	0
 3913 010c 17       		.uleb128 0x17
 3914 010d 04       		.uleb128 0x4
 3915 010e 01       		.byte	0x1
 3916 010f 0B       		.uleb128 0xb
 3917 0110 0B       		.uleb128 0xb
 3918 0111 3A       		.uleb128 0x3a
 3919 0112 0B       		.uleb128 0xb
 3920 0113 3B       		.uleb128 0x3b
 3921 0114 0B       		.uleb128 0xb
 3922 0115 01       		.uleb128 0x1
 3923 0116 13       		.uleb128 0x13
 3924 0117 00       		.byte	0
 3925 0118 00       		.byte	0
 3926 0119 18       		.uleb128 0x18
ARM GAS  C:\Users\DNIEL~1\AppData\Local\Temp\ccTrwnMY.s 			page 70


 3927 011a 28       		.uleb128 0x28
 3928 011b 00       		.byte	0
 3929 011c 03       		.uleb128 0x3
 3930 011d 0E       		.uleb128 0xe
 3931 011e 1C       		.uleb128 0x1c
 3932 011f 0D       		.uleb128 0xd
 3933 0120 00       		.byte	0
 3934 0121 00       		.byte	0
 3935 0122 19       		.uleb128 0x19
 3936 0123 01       		.uleb128 0x1
 3937 0124 01       		.byte	0x1
 3938 0125 49       		.uleb128 0x49
 3939 0126 13       		.uleb128 0x13
 3940 0127 01       		.uleb128 0x1
 3941 0128 13       		.uleb128 0x13
 3942 0129 00       		.byte	0
 3943 012a 00       		.byte	0
 3944 012b 1A       		.uleb128 0x1a
 3945 012c 21       		.uleb128 0x21
 3946 012d 00       		.byte	0
 3947 012e 49       		.uleb128 0x49
 3948 012f 13       		.uleb128 0x13
 3949 0130 2F       		.uleb128 0x2f
 3950 0131 0B       		.uleb128 0xb
 3951 0132 00       		.byte	0
 3952 0133 00       		.byte	0
 3953 0134 1B       		.uleb128 0x1b
 3954 0135 2E       		.uleb128 0x2e
 3955 0136 01       		.byte	0x1
 3956 0137 3F       		.uleb128 0x3f
 3957 0138 0C       		.uleb128 0xc
 3958 0139 03       		.uleb128 0x3
 3959 013a 0E       		.uleb128 0xe
 3960 013b 3A       		.uleb128 0x3a
 3961 013c 0B       		.uleb128 0xb
 3962 013d 3B       		.uleb128 0x3b
 3963 013e 0B       		.uleb128 0xb
 3964 013f 27       		.uleb128 0x27
 3965 0140 0C       		.uleb128 0xc
 3966 0141 11       		.uleb128 0x11
 3967 0142 01       		.uleb128 0x1
 3968 0143 12       		.uleb128 0x12
 3969 0144 01       		.uleb128 0x1
 3970 0145 40       		.uleb128 0x40
 3971 0146 06       		.uleb128 0x6
 3972 0147 9742     		.uleb128 0x2117
 3973 0149 0C       		.uleb128 0xc
 3974 014a 01       		.uleb128 0x1
 3975 014b 13       		.uleb128 0x13
 3976 014c 00       		.byte	0
 3977 014d 00       		.byte	0
 3978 014e 1C       		.uleb128 0x1c
 3979 014f 898201   		.uleb128 0x4109
 3980 0152 01       		.byte	0x1
 3981 0153 11       		.uleb128 0x11
 3982 0154 01       		.uleb128 0x1
 3983 0155 31       		.uleb128 0x31
ARM GAS  C:\Users\DNIEL~1\AppData\Local\Temp\ccTrwnMY.s 			page 71


 3984 0156 13       		.uleb128 0x13
 3985 0157 01       		.uleb128 0x1
 3986 0158 13       		.uleb128 0x13
 3987 0159 00       		.byte	0
 3988 015a 00       		.byte	0
 3989 015b 1D       		.uleb128 0x1d
 3990 015c 8A8201   		.uleb128 0x410a
 3991 015f 00       		.byte	0
 3992 0160 02       		.uleb128 0x2
 3993 0161 0A       		.uleb128 0xa
 3994 0162 9142     		.uleb128 0x2111
 3995 0164 0A       		.uleb128 0xa
 3996 0165 00       		.byte	0
 3997 0166 00       		.byte	0
 3998 0167 1E       		.uleb128 0x1e
 3999 0168 898201   		.uleb128 0x4109
 4000 016b 01       		.byte	0x1
 4001 016c 11       		.uleb128 0x11
 4002 016d 01       		.uleb128 0x1
 4003 016e 9542     		.uleb128 0x2115
 4004 0170 0C       		.uleb128 0xc
 4005 0171 31       		.uleb128 0x31
 4006 0172 13       		.uleb128 0x13
 4007 0173 00       		.byte	0
 4008 0174 00       		.byte	0
 4009 0175 1F       		.uleb128 0x1f
 4010 0176 05       		.uleb128 0x5
 4011 0177 00       		.byte	0
 4012 0178 03       		.uleb128 0x3
 4013 0179 08       		.uleb128 0x8
 4014 017a 3A       		.uleb128 0x3a
 4015 017b 0B       		.uleb128 0xb
 4016 017c 3B       		.uleb128 0x3b
 4017 017d 0B       		.uleb128 0xb
 4018 017e 49       		.uleb128 0x49
 4019 017f 13       		.uleb128 0x13
 4020 0180 02       		.uleb128 0x2
 4021 0181 06       		.uleb128 0x6
 4022 0182 00       		.byte	0
 4023 0183 00       		.byte	0
 4024 0184 20       		.uleb128 0x20
 4025 0185 05       		.uleb128 0x5
 4026 0186 00       		.byte	0
 4027 0187 03       		.uleb128 0x3
 4028 0188 0E       		.uleb128 0xe
 4029 0189 3A       		.uleb128 0x3a
 4030 018a 0B       		.uleb128 0xb
 4031 018b 3B       		.uleb128 0x3b
 4032 018c 0B       		.uleb128 0xb
 4033 018d 49       		.uleb128 0x49
 4034 018e 13       		.uleb128 0x13
 4035 018f 02       		.uleb128 0x2
 4036 0190 06       		.uleb128 0x6
 4037 0191 00       		.byte	0
 4038 0192 00       		.byte	0
 4039 0193 21       		.uleb128 0x21
 4040 0194 34       		.uleb128 0x34
ARM GAS  C:\Users\DNIEL~1\AppData\Local\Temp\ccTrwnMY.s 			page 72


 4041 0195 00       		.byte	0
 4042 0196 03       		.uleb128 0x3
 4043 0197 08       		.uleb128 0x8
 4044 0198 3A       		.uleb128 0x3a
 4045 0199 0B       		.uleb128 0xb
 4046 019a 3B       		.uleb128 0x3b
 4047 019b 0B       		.uleb128 0xb
 4048 019c 49       		.uleb128 0x49
 4049 019d 13       		.uleb128 0x13
 4050 019e 02       		.uleb128 0x2
 4051 019f 06       		.uleb128 0x6
 4052 01a0 00       		.byte	0
 4053 01a1 00       		.byte	0
 4054 01a2 22       		.uleb128 0x22
 4055 01a3 898201   		.uleb128 0x4109
 4056 01a6 01       		.byte	0x1
 4057 01a7 11       		.uleb128 0x11
 4058 01a8 01       		.uleb128 0x1
 4059 01a9 31       		.uleb128 0x31
 4060 01aa 13       		.uleb128 0x13
 4061 01ab 00       		.byte	0
 4062 01ac 00       		.byte	0
 4063 01ad 23       		.uleb128 0x23
 4064 01ae 34       		.uleb128 0x34
 4065 01af 00       		.byte	0
 4066 01b0 03       		.uleb128 0x3
 4067 01b1 0E       		.uleb128 0xe
 4068 01b2 3A       		.uleb128 0x3a
 4069 01b3 0B       		.uleb128 0xb
 4070 01b4 3B       		.uleb128 0x3b
 4071 01b5 05       		.uleb128 0x5
 4072 01b6 49       		.uleb128 0x49
 4073 01b7 13       		.uleb128 0x13
 4074 01b8 3F       		.uleb128 0x3f
 4075 01b9 0C       		.uleb128 0xc
 4076 01ba 3C       		.uleb128 0x3c
 4077 01bb 0C       		.uleb128 0xc
 4078 01bc 00       		.byte	0
 4079 01bd 00       		.byte	0
 4080 01be 24       		.uleb128 0x24
 4081 01bf 34       		.uleb128 0x34
 4082 01c0 00       		.byte	0
 4083 01c1 03       		.uleb128 0x3
 4084 01c2 08       		.uleb128 0x8
 4085 01c3 3A       		.uleb128 0x3a
 4086 01c4 0B       		.uleb128 0xb
 4087 01c5 3B       		.uleb128 0x3b
 4088 01c6 05       		.uleb128 0x5
 4089 01c7 49       		.uleb128 0x49
 4090 01c8 13       		.uleb128 0x13
 4091 01c9 3F       		.uleb128 0x3f
 4092 01ca 0C       		.uleb128 0xc
 4093 01cb 3C       		.uleb128 0x3c
 4094 01cc 0C       		.uleb128 0xc
 4095 01cd 00       		.byte	0
 4096 01ce 00       		.byte	0
 4097 01cf 25       		.uleb128 0x25
ARM GAS  C:\Users\DNIEL~1\AppData\Local\Temp\ccTrwnMY.s 			page 73


 4098 01d0 2E       		.uleb128 0x2e
 4099 01d1 01       		.byte	0x1
 4100 01d2 3F       		.uleb128 0x3f
 4101 01d3 0C       		.uleb128 0xc
 4102 01d4 03       		.uleb128 0x3
 4103 01d5 0E       		.uleb128 0xe
 4104 01d6 3A       		.uleb128 0x3a
 4105 01d7 0B       		.uleb128 0xb
 4106 01d8 3B       		.uleb128 0x3b
 4107 01d9 05       		.uleb128 0x5
 4108 01da 27       		.uleb128 0x27
 4109 01db 0C       		.uleb128 0xc
 4110 01dc 49       		.uleb128 0x49
 4111 01dd 13       		.uleb128 0x13
 4112 01de 3C       		.uleb128 0x3c
 4113 01df 0C       		.uleb128 0xc
 4114 01e0 00       		.byte	0
 4115 01e1 00       		.byte	0
 4116 01e2 00       		.byte	0
 4117              		.section	.debug_loc,"",%progbits
 4118              	.Ldebug_loc0:
 4119              	.LLST0:
 4120 0000 00000000 		.4byte	.LFB119
 4121 0004 02000000 		.4byte	.LCFI0
 4122 0008 0200     		.2byte	0x2
 4123 000a 7D       		.byte	0x7d
 4124 000b 00       		.sleb128 0
 4125 000c 02000000 		.4byte	.LCFI0
 4126 0010 24000000 		.4byte	.LFE119
 4127 0014 0200     		.2byte	0x2
 4128 0016 7D       		.byte	0x7d
 4129 0017 08       		.sleb128 8
 4130 0018 00000000 		.4byte	0
 4131 001c 00000000 		.4byte	0
 4132              	.LLST1:
 4133 0020 00000000 		.4byte	.LFB120
 4134 0024 02000000 		.4byte	.LCFI1
 4135 0028 0200     		.2byte	0x2
 4136 002a 7D       		.byte	0x7d
 4137 002b 00       		.sleb128 0
 4138 002c 02000000 		.4byte	.LCFI1
 4139 0030 24000000 		.4byte	.LFE120
 4140 0034 0200     		.2byte	0x2
 4141 0036 7D       		.byte	0x7d
 4142 0037 08       		.sleb128 8
 4143 0038 00000000 		.4byte	0
 4144 003c 00000000 		.4byte	0
 4145              	.LLST2:
 4146 0040 00000000 		.4byte	.LFB121
 4147 0044 02000000 		.4byte	.LCFI2
 4148 0048 0200     		.2byte	0x2
 4149 004a 7D       		.byte	0x7d
 4150 004b 00       		.sleb128 0
 4151 004c 02000000 		.4byte	.LCFI2
 4152 0050 5C000000 		.4byte	.LFE121
 4153 0054 0200     		.2byte	0x2
 4154 0056 7D       		.byte	0x7d
ARM GAS  C:\Users\DNIEL~1\AppData\Local\Temp\ccTrwnMY.s 			page 74


 4155 0057 10       		.sleb128 16
 4156 0058 00000000 		.4byte	0
 4157 005c 00000000 		.4byte	0
 4158              	.LLST3:
 4159 0060 00000000 		.4byte	.LVL4
 4160 0064 10000000 		.4byte	.LVL6
 4161 0068 0100     		.2byte	0x1
 4162 006a 50       		.byte	0x50
 4163 006b 10000000 		.4byte	.LVL6
 4164 006f 5C000000 		.4byte	.LFE121
 4165 0073 0100     		.2byte	0x1
 4166 0075 56       		.byte	0x56
 4167 0076 00000000 		.4byte	0
 4168 007a 00000000 		.4byte	0
 4169              	.LLST4:
 4170 007e 00000000 		.4byte	.LVL4
 4171 0082 0E000000 		.4byte	.LVL5
 4172 0086 0100     		.2byte	0x1
 4173 0088 51       		.byte	0x51
 4174 0089 0E000000 		.4byte	.LVL5
 4175 008d 5C000000 		.4byte	.LFE121
 4176 0091 0100     		.2byte	0x1
 4177 0093 55       		.byte	0x55
 4178 0094 00000000 		.4byte	0
 4179 0098 00000000 		.4byte	0
 4180              	.LLST5:
 4181 009c 00000000 		.4byte	.LFB122
 4182 00a0 02000000 		.4byte	.LCFI3
 4183 00a4 0200     		.2byte	0x2
 4184 00a6 7D       		.byte	0x7d
 4185 00a7 00       		.sleb128 0
 4186 00a8 02000000 		.4byte	.LCFI3
 4187 00ac 5C000000 		.4byte	.LFE122
 4188 00b0 0200     		.2byte	0x2
 4189 00b2 7D       		.byte	0x7d
 4190 00b3 10       		.sleb128 16
 4191 00b4 00000000 		.4byte	0
 4192 00b8 00000000 		.4byte	0
 4193              	.LLST6:
 4194 00bc 00000000 		.4byte	.LVL13
 4195 00c0 10000000 		.4byte	.LVL15
 4196 00c4 0100     		.2byte	0x1
 4197 00c6 50       		.byte	0x50
 4198 00c7 10000000 		.4byte	.LVL15
 4199 00cb 5C000000 		.4byte	.LFE122
 4200 00cf 0100     		.2byte	0x1
 4201 00d1 56       		.byte	0x56
 4202 00d2 00000000 		.4byte	0
 4203 00d6 00000000 		.4byte	0
 4204              	.LLST7:
 4205 00da 00000000 		.4byte	.LVL13
 4206 00de 0E000000 		.4byte	.LVL14
 4207 00e2 0100     		.2byte	0x1
 4208 00e4 51       		.byte	0x51
 4209 00e5 0E000000 		.4byte	.LVL14
 4210 00e9 5C000000 		.4byte	.LFE122
 4211 00ed 0100     		.2byte	0x1
ARM GAS  C:\Users\DNIEL~1\AppData\Local\Temp\ccTrwnMY.s 			page 75


 4212 00ef 55       		.byte	0x55
 4213 00f0 00000000 		.4byte	0
 4214 00f4 00000000 		.4byte	0
 4215              	.LLST8:
 4216 00f8 00000000 		.4byte	.LFB123
 4217 00fc 02000000 		.4byte	.LCFI4
 4218 0100 0200     		.2byte	0x2
 4219 0102 7D       		.byte	0x7d
 4220 0103 00       		.sleb128 0
 4221 0104 02000000 		.4byte	.LCFI4
 4222 0108 5C000000 		.4byte	.LFE123
 4223 010c 0200     		.2byte	0x2
 4224 010e 7D       		.byte	0x7d
 4225 010f 10       		.sleb128 16
 4226 0110 00000000 		.4byte	0
 4227 0114 00000000 		.4byte	0
 4228              	.LLST9:
 4229 0118 00000000 		.4byte	.LVL22
 4230 011c 10000000 		.4byte	.LVL24
 4231 0120 0100     		.2byte	0x1
 4232 0122 50       		.byte	0x50
 4233 0123 10000000 		.4byte	.LVL24
 4234 0127 5C000000 		.4byte	.LFE123
 4235 012b 0100     		.2byte	0x1
 4236 012d 56       		.byte	0x56
 4237 012e 00000000 		.4byte	0
 4238 0132 00000000 		.4byte	0
 4239              	.LLST10:
 4240 0136 00000000 		.4byte	.LVL22
 4241 013a 0E000000 		.4byte	.LVL23
 4242 013e 0100     		.2byte	0x1
 4243 0140 51       		.byte	0x51
 4244 0141 0E000000 		.4byte	.LVL23
 4245 0145 5C000000 		.4byte	.LFE123
 4246 0149 0100     		.2byte	0x1
 4247 014b 55       		.byte	0x55
 4248 014c 00000000 		.4byte	0
 4249 0150 00000000 		.4byte	0
 4250              	.LLST11:
 4251 0154 00000000 		.4byte	.LFB124
 4252 0158 02000000 		.4byte	.LCFI5
 4253 015c 0200     		.2byte	0x2
 4254 015e 7D       		.byte	0x7d
 4255 015f 00       		.sleb128 0
 4256 0160 02000000 		.4byte	.LCFI5
 4257 0164 78000000 		.4byte	.LFE124
 4258 0168 0200     		.2byte	0x2
 4259 016a 7D       		.byte	0x7d
 4260 016b 18       		.sleb128 24
 4261 016c 00000000 		.4byte	0
 4262 0170 00000000 		.4byte	0
 4263              	.LLST12:
 4264 0174 00000000 		.4byte	.LVL31
 4265 0178 12000000 		.4byte	.LVL34
 4266 017c 0100     		.2byte	0x1
 4267 017e 50       		.byte	0x50
 4268 017f 12000000 		.4byte	.LVL34
ARM GAS  C:\Users\DNIEL~1\AppData\Local\Temp\ccTrwnMY.s 			page 76


 4269 0183 78000000 		.4byte	.LFE124
 4270 0187 0100     		.2byte	0x1
 4271 0189 57       		.byte	0x57
 4272 018a 00000000 		.4byte	0
 4273 018e 00000000 		.4byte	0
 4274              	.LLST13:
 4275 0192 00000000 		.4byte	.LVL31
 4276 0196 0C000000 		.4byte	.LVL32
 4277 019a 0100     		.2byte	0x1
 4278 019c 51       		.byte	0x51
 4279 019d 0C000000 		.4byte	.LVL32
 4280 01a1 78000000 		.4byte	.LFE124
 4281 01a5 0100     		.2byte	0x1
 4282 01a7 56       		.byte	0x56
 4283 01a8 00000000 		.4byte	0
 4284 01ac 00000000 		.4byte	0
 4285              	.LLST14:
 4286 01b0 00000000 		.4byte	.LVL31
 4287 01b4 10000000 		.4byte	.LVL33
 4288 01b8 0100     		.2byte	0x1
 4289 01ba 52       		.byte	0x52
 4290 01bb 10000000 		.4byte	.LVL33
 4291 01bf 78000000 		.4byte	.LFE124
 4292 01c3 0100     		.2byte	0x1
 4293 01c5 55       		.byte	0x55
 4294 01c6 00000000 		.4byte	0
 4295 01ca 00000000 		.4byte	0
 4296              	.LLST15:
 4297 01ce 00000000 		.4byte	.LFB125
 4298 01d2 02000000 		.4byte	.LCFI6
 4299 01d6 0200     		.2byte	0x2
 4300 01d8 7D       		.byte	0x7d
 4301 01d9 00       		.sleb128 0
 4302 01da 02000000 		.4byte	.LCFI6
 4303 01de 40000000 		.4byte	.LFE125
 4304 01e2 0200     		.2byte	0x2
 4305 01e4 7D       		.byte	0x7d
 4306 01e5 10       		.sleb128 16
 4307 01e6 00000000 		.4byte	0
 4308 01ea 00000000 		.4byte	0
 4309              	.LLST16:
 4310 01ee 00000000 		.4byte	.LVL43
 4311 01f2 0E000000 		.4byte	.LVL44
 4312 01f6 0100     		.2byte	0x1
 4313 01f8 50       		.byte	0x50
 4314 01f9 0E000000 		.4byte	.LVL44
 4315 01fd 40000000 		.4byte	.LFE125
 4316 0201 0100     		.2byte	0x1
 4317 0203 55       		.byte	0x55
 4318 0204 00000000 		.4byte	0
 4319 0208 00000000 		.4byte	0
 4320              	.LLST17:
 4321 020c 00000000 		.4byte	.LFB126
 4322 0210 02000000 		.4byte	.LCFI7
 4323 0214 0200     		.2byte	0x2
 4324 0216 7D       		.byte	0x7d
 4325 0217 00       		.sleb128 0
ARM GAS  C:\Users\DNIEL~1\AppData\Local\Temp\ccTrwnMY.s 			page 77


 4326 0218 02000000 		.4byte	.LCFI7
 4327 021c 40000000 		.4byte	.LFE126
 4328 0220 0200     		.2byte	0x2
 4329 0222 7D       		.byte	0x7d
 4330 0223 10       		.sleb128 16
 4331 0224 00000000 		.4byte	0
 4332 0228 00000000 		.4byte	0
 4333              	.LLST18:
 4334 022c 00000000 		.4byte	.LVL49
 4335 0230 0E000000 		.4byte	.LVL50
 4336 0234 0100     		.2byte	0x1
 4337 0236 50       		.byte	0x50
 4338 0237 0E000000 		.4byte	.LVL50
 4339 023b 40000000 		.4byte	.LFE126
 4340 023f 0100     		.2byte	0x1
 4341 0241 55       		.byte	0x55
 4342 0242 00000000 		.4byte	0
 4343 0246 00000000 		.4byte	0
 4344              	.LLST19:
 4345 024a 00000000 		.4byte	.LFB127
 4346 024e 02000000 		.4byte	.LCFI8
 4347 0252 0200     		.2byte	0x2
 4348 0254 7D       		.byte	0x7d
 4349 0255 00       		.sleb128 0
 4350 0256 02000000 		.4byte	.LCFI8
 4351 025a 40000000 		.4byte	.LFE127
 4352 025e 0200     		.2byte	0x2
 4353 0260 7D       		.byte	0x7d
 4354 0261 10       		.sleb128 16
 4355 0262 00000000 		.4byte	0
 4356 0266 00000000 		.4byte	0
 4357              	.LLST20:
 4358 026a 00000000 		.4byte	.LVL55
 4359 026e 0E000000 		.4byte	.LVL56
 4360 0272 0100     		.2byte	0x1
 4361 0274 50       		.byte	0x50
 4362 0275 0E000000 		.4byte	.LVL56
 4363 0279 40000000 		.4byte	.LFE127
 4364 027d 0100     		.2byte	0x1
 4365 027f 55       		.byte	0x55
 4366 0280 00000000 		.4byte	0
 4367 0284 00000000 		.4byte	0
 4368              	.LLST21:
 4369 0288 00000000 		.4byte	.LFB128
 4370 028c 02000000 		.4byte	.LCFI9
 4371 0290 0200     		.2byte	0x2
 4372 0292 7D       		.byte	0x7d
 4373 0293 00       		.sleb128 0
 4374 0294 02000000 		.4byte	.LCFI9
 4375 0298 40000000 		.4byte	.LFE128
 4376 029c 0200     		.2byte	0x2
 4377 029e 7D       		.byte	0x7d
 4378 029f 10       		.sleb128 16
 4379 02a0 00000000 		.4byte	0
 4380 02a4 00000000 		.4byte	0
 4381              	.LLST22:
 4382 02a8 00000000 		.4byte	.LVL61
ARM GAS  C:\Users\DNIEL~1\AppData\Local\Temp\ccTrwnMY.s 			page 78


 4383 02ac 0E000000 		.4byte	.LVL62
 4384 02b0 0100     		.2byte	0x1
 4385 02b2 50       		.byte	0x50
 4386 02b3 0E000000 		.4byte	.LVL62
 4387 02b7 40000000 		.4byte	.LFE128
 4388 02bb 0100     		.2byte	0x1
 4389 02bd 55       		.byte	0x55
 4390 02be 00000000 		.4byte	0
 4391 02c2 00000000 		.4byte	0
 4392              	.LLST23:
 4393 02c6 00000000 		.4byte	.LFB129
 4394 02ca 02000000 		.4byte	.LCFI10
 4395 02ce 0200     		.2byte	0x2
 4396 02d0 7D       		.byte	0x7d
 4397 02d1 00       		.sleb128 0
 4398 02d2 02000000 		.4byte	.LCFI10
 4399 02d6 5C000000 		.4byte	.LFE129
 4400 02da 0200     		.2byte	0x2
 4401 02dc 7D       		.byte	0x7d
 4402 02dd 18       		.sleb128 24
 4403 02de 00000000 		.4byte	0
 4404 02e2 00000000 		.4byte	0
 4405              	.LLST24:
 4406 02e6 00000000 		.4byte	.LVL67
 4407 02ea 12000000 		.4byte	.LVL70
 4408 02ee 0100     		.2byte	0x1
 4409 02f0 50       		.byte	0x50
 4410 02f1 12000000 		.4byte	.LVL70
 4411 02f5 5C000000 		.4byte	.LFE129
 4412 02f9 0100     		.2byte	0x1
 4413 02fb 57       		.byte	0x57
 4414 02fc 00000000 		.4byte	0
 4415 0300 00000000 		.4byte	0
 4416              	.LLST25:
 4417 0304 00000000 		.4byte	.LVL67
 4418 0308 10000000 		.4byte	.LVL69
 4419 030c 0100     		.2byte	0x1
 4420 030e 51       		.byte	0x51
 4421 030f 10000000 		.4byte	.LVL69
 4422 0313 5C000000 		.4byte	.LFE129
 4423 0317 0100     		.2byte	0x1
 4424 0319 56       		.byte	0x56
 4425 031a 00000000 		.4byte	0
 4426 031e 00000000 		.4byte	0
 4427              	.LLST26:
 4428 0322 00000000 		.4byte	.LVL67
 4429 0326 0E000000 		.4byte	.LVL68
 4430 032a 0100     		.2byte	0x1
 4431 032c 52       		.byte	0x52
 4432 032d 0E000000 		.4byte	.LVL68
 4433 0331 5C000000 		.4byte	.LFE129
 4434 0335 0100     		.2byte	0x1
 4435 0337 55       		.byte	0x55
 4436 0338 00000000 		.4byte	0
 4437 033c 00000000 		.4byte	0
 4438              	.LLST27:
 4439 0340 00000000 		.4byte	.LFB130
ARM GAS  C:\Users\DNIEL~1\AppData\Local\Temp\ccTrwnMY.s 			page 79


 4440 0344 02000000 		.4byte	.LCFI11
 4441 0348 0200     		.2byte	0x2
 4442 034a 7D       		.byte	0x7d
 4443 034b 00       		.sleb128 0
 4444 034c 02000000 		.4byte	.LCFI11
 4445 0350 34000000 		.4byte	.LFE130
 4446 0354 0200     		.2byte	0x2
 4447 0356 7D       		.byte	0x7d
 4448 0357 10       		.sleb128 16
 4449 0358 00000000 		.4byte	0
 4450 035c 00000000 		.4byte	0
 4451              	.LLST28:
 4452 0360 00000000 		.4byte	.LVL77
 4453 0364 0E000000 		.4byte	.LVL78
 4454 0368 0100     		.2byte	0x1
 4455 036a 50       		.byte	0x50
 4456 036b 0E000000 		.4byte	.LVL78
 4457 036f 34000000 		.4byte	.LFE130
 4458 0373 0100     		.2byte	0x1
 4459 0375 55       		.byte	0x55
 4460 0376 00000000 		.4byte	0
 4461 037a 00000000 		.4byte	0
 4462              	.LLST29:
 4463 037e 00000000 		.4byte	.LFB131
 4464 0382 02000000 		.4byte	.LCFI12
 4465 0386 0200     		.2byte	0x2
 4466 0388 7D       		.byte	0x7d
 4467 0389 00       		.sleb128 0
 4468 038a 02000000 		.4byte	.LCFI12
 4469 038e 20000000 		.4byte	.LFE131
 4470 0392 0200     		.2byte	0x2
 4471 0394 7D       		.byte	0x7d
 4472 0395 10       		.sleb128 16
 4473 0396 00000000 		.4byte	0
 4474 039a 00000000 		.4byte	0
 4475              	.LLST30:
 4476 039e 00000000 		.4byte	.LVL82
 4477 03a2 04000000 		.4byte	.LVL83
 4478 03a6 0100     		.2byte	0x1
 4479 03a8 50       		.byte	0x50
 4480 03a9 04000000 		.4byte	.LVL83
 4481 03ad 20000000 		.4byte	.LFE131
 4482 03b1 0100     		.2byte	0x1
 4483 03b3 55       		.byte	0x55
 4484 03b4 00000000 		.4byte	0
 4485 03b8 00000000 		.4byte	0
 4486              	.LLST31:
 4487 03bc 08000000 		.4byte	.LVL84
 4488 03c0 13000000 		.4byte	.LVL85-1
 4489 03c4 0200     		.2byte	0x2
 4490 03c6 75       		.byte	0x75
 4491 03c7 7F       		.sleb128 -1
 4492 03c8 13000000 		.4byte	.LVL85-1
 4493 03cc 20000000 		.4byte	.LFE131
 4494 03d0 0100     		.2byte	0x1
 4495 03d2 54       		.byte	0x54
 4496 03d3 00000000 		.4byte	0
ARM GAS  C:\Users\DNIEL~1\AppData\Local\Temp\ccTrwnMY.s 			page 80


 4497 03d7 00000000 		.4byte	0
 4498              		.section	.debug_aranges,"",%progbits
 4499 0000 7C000000 		.4byte	0x7c
 4500 0004 0200     		.2byte	0x2
 4501 0006 00000000 		.4byte	.Ldebug_info0
 4502 000a 04       		.byte	0x4
 4503 000b 00       		.byte	0
 4504 000c 0000     		.2byte	0
 4505 000e 0000     		.2byte	0
 4506 0010 00000000 		.4byte	.LFB119
 4507 0014 24000000 		.4byte	.LFE119-.LFB119
 4508 0018 00000000 		.4byte	.LFB120
 4509 001c 24000000 		.4byte	.LFE120-.LFB120
 4510 0020 00000000 		.4byte	.LFB121
 4511 0024 5C000000 		.4byte	.LFE121-.LFB121
 4512 0028 00000000 		.4byte	.LFB122
 4513 002c 5C000000 		.4byte	.LFE122-.LFB122
 4514 0030 00000000 		.4byte	.LFB123
 4515 0034 5C000000 		.4byte	.LFE123-.LFB123
 4516 0038 00000000 		.4byte	.LFB124
 4517 003c 78000000 		.4byte	.LFE124-.LFB124
 4518 0040 00000000 		.4byte	.LFB125
 4519 0044 40000000 		.4byte	.LFE125-.LFB125
 4520 0048 00000000 		.4byte	.LFB126
 4521 004c 40000000 		.4byte	.LFE126-.LFB126
 4522 0050 00000000 		.4byte	.LFB127
 4523 0054 40000000 		.4byte	.LFE127-.LFB127
 4524 0058 00000000 		.4byte	.LFB128
 4525 005c 40000000 		.4byte	.LFE128-.LFB128
 4526 0060 00000000 		.4byte	.LFB129
 4527 0064 5C000000 		.4byte	.LFE129-.LFB129
 4528 0068 00000000 		.4byte	.LFB130
 4529 006c 34000000 		.4byte	.LFE130-.LFB130
 4530 0070 00000000 		.4byte	.LFB131
 4531 0074 20000000 		.4byte	.LFE131-.LFB131
 4532 0078 00000000 		.4byte	0
 4533 007c 00000000 		.4byte	0
 4534              		.section	.debug_ranges,"",%progbits
 4535              	.Ldebug_ranges0:
 4536 0000 00000000 		.4byte	.LFB119
 4537 0004 24000000 		.4byte	.LFE119
 4538 0008 00000000 		.4byte	.LFB120
 4539 000c 24000000 		.4byte	.LFE120
 4540 0010 00000000 		.4byte	.LFB121
 4541 0014 5C000000 		.4byte	.LFE121
 4542 0018 00000000 		.4byte	.LFB122
 4543 001c 5C000000 		.4byte	.LFE122
 4544 0020 00000000 		.4byte	.LFB123
 4545 0024 5C000000 		.4byte	.LFE123
 4546 0028 00000000 		.4byte	.LFB124
 4547 002c 78000000 		.4byte	.LFE124
 4548 0030 00000000 		.4byte	.LFB125
 4549 0034 40000000 		.4byte	.LFE125
 4550 0038 00000000 		.4byte	.LFB126
 4551 003c 40000000 		.4byte	.LFE126
 4552 0040 00000000 		.4byte	.LFB127
 4553 0044 40000000 		.4byte	.LFE127
ARM GAS  C:\Users\DNIEL~1\AppData\Local\Temp\ccTrwnMY.s 			page 81


 4554 0048 00000000 		.4byte	.LFB128
 4555 004c 40000000 		.4byte	.LFE128
 4556 0050 00000000 		.4byte	.LFB129
 4557 0054 5C000000 		.4byte	.LFE129
 4558 0058 00000000 		.4byte	.LFB130
 4559 005c 34000000 		.4byte	.LFE130
 4560 0060 00000000 		.4byte	.LFB131
 4561 0064 20000000 		.4byte	.LFE131
 4562 0068 00000000 		.4byte	0
 4563 006c 00000000 		.4byte	0
 4564              		.section	.debug_line,"",%progbits
 4565              	.Ldebug_line0:
 4566 0000 ED030000 		.section	.debug_str,"MS",%progbits,1
 4566      0200A902 
 4566      00000201 
 4566      FB0E0D00 
 4566      01010101 
 4567              	.LASF132:
 4568 0000 63684F51 		.ascii	"chOQPutTimeout\000"
 4568      50757454 
 4568      696D656F 
 4568      757400
 4569              	.LASF121:
 4570 000f 4461746E 		.ascii	"Datname\000"
 4570      616D6500 
 4571              	.LASF2:
 4572 0017 73697A65 		.ascii	"size_t\000"
 4572      5F7400
 4573              	.LASF61:
 4574 001e 7264796D 		.ascii	"rdymsg\000"
 4574      736700
 4575              	.LASF77:
 4576 0025 4F757470 		.ascii	"OutputQueue\000"
 4576      75745175 
 4576      65756500 
 4577              	.LASF104:
 4578 0031 6766785F 		.ascii	"gfx_Cls\000"
 4578      436C7300 
 4579              	.LASF60:
 4580 0039 65735F6E 		.ascii	"es_next\000"
 4580      65787400 
 4581              	.LASF44:
 4582 0041 54687265 		.ascii	"ThreadsQueue\000"
 4582      61647351 
 4582      75657565 
 4582      00
 4583              	.LASF62:
 4584 004e 65786974 		.ascii	"exitcode\000"
 4584      636F6465 
 4584      00
 4585              	.LASF119:
 4586 0057 6766785F 		.ascii	"gfx_TransparentColour\000"
 4586      5472616E 
 4586      73706172 
 4586      656E7443 
 4586      6F6C6F75 
 4587              	.LASF27:
ARM GAS  C:\Users\DNIEL~1\AppData\Local\Temp\ccTrwnMY.s 			page 82


 4588 006d 705F7072 		.ascii	"p_prio\000"
 4588      696F00
 4589              	.LASF103:
 4590 0074 72656164 		.ascii	"readt\000"
 4590      7400
 4591              	.LASF67:
 4592 007a 715F7761 		.ascii	"q_waiting\000"
 4592      6974696E 
 4592      6700
 4593              	.LASF12:
 4594 0084 6C6F6E67 		.ascii	"long long int\000"
 4594      206C6F6E 
 4594      6720696E 
 4594      7400
 4595              	.LASF1:
 4596 0092 7369676E 		.ascii	"signed char\000"
 4596      65642063 
 4596      68617200 
 4597              	.LASF84:
 4598 009e 47545052 		.ascii	"GTPR\000"
 4598      00
 4599              	.LASF43:
 4600 00a3 705F6D70 		.ascii	"p_mpool\000"
 4600      6F6F6C00 
 4601              	.LASF13:
 4602 00ab 6C6F6E67 		.ascii	"long long unsigned int\000"
 4602      206C6F6E 
 4602      6720756E 
 4602      7369676E 
 4602      65642069 
 4603              	.LASF51:
 4604 00c2 6D5F7175 		.ascii	"m_queue\000"
 4604      65756500 
 4605              	.LASF125:
 4606 00ca 496E5374 		.ascii	"InString\000"
 4606      72696E67 
 4606      00
 4607              	.LASF63:
 4608 00d3 77746F62 		.ascii	"wtobjp\000"
 4608      6A7000
 4609              	.LASF18:
 4610 00da 74736C69 		.ascii	"tslices_t\000"
 4610      6365735F 
 4610      7400
 4611              	.LASF93:
 4612 00e4 73746174 		.ascii	"state\000"
 4612      6500
 4613              	.LASF9:
 4614 00ea 6C6F6E67 		.ascii	"long int\000"
 4614      20696E74 
 4614      00
 4615              	.LASF16:
 4616 00f3 74737461 		.ascii	"tstate_t\000"
 4616      74655F74 
 4616      00
 4617              	.LASF69:
 4618 00fc 715F6275 		.ascii	"q_buffer\000"
ARM GAS  C:\Users\DNIEL~1\AppData\Local\Temp\ccTrwnMY.s 			page 83


 4618      66666572 
 4618      00
 4619              	.LASF6:
 4620 0105 75696E74 		.ascii	"uint16_t\000"
 4620      31365F74 
 4620      00
 4621              	.LASF29:
 4622 010e 705F6E65 		.ascii	"p_newer\000"
 4622      77657200 
 4623              	.LASF105:
 4624 0116 66696C65 		.ascii	"file_Mount\000"
 4624      5F4D6F75 
 4624      6E7400
 4625              	.LASF46:
 4626 0121 72656761 		.ascii	"regarm_t\000"
 4626      726D5F74 
 4626      00
 4627              	.LASF123:
 4628 012a 4D6F6465 		.ascii	"Mode\000"
 4628      00
 4629              	.LASF113:
 4630 012f 6766785F 		.ascii	"gfx_BGcolour\000"
 4630      4247636F 
 4630      6C6F7572 
 4630      00
 4631              	.LASF59:
 4632 013c 4576656E 		.ascii	"EventSource\000"
 4632      74536F75 
 4632      72636500 
 4633              	.LASF96:
 4634 0148 75736172 		.ascii	"usart\000"
 4634      7400
 4635              	.LASF0:
 4636 014e 756E7369 		.ascii	"unsigned int\000"
 4636      676E6564 
 4636      20696E74 
 4636      00
 4637              	.LASF118:
 4638 015b 4F6E4F66 		.ascii	"OnOff\000"
 4638      6600
 4639              	.LASF111:
 4640 0161 6D656469 		.ascii	"media_VideoFrame\000"
 4640      615F5669 
 4640      64656F46 
 4640      72616D65 
 4640      00
 4641              	.LASF116:
 4642 0172 436F6E74 		.ascii	"Contrast\000"
 4642      72617374 
 4642      00
 4643              	.LASF94:
 4644 017b 69717565 		.ascii	"iqueue\000"
 4644      756500
 4645              	.LASF38:
 4646 0182 705F6D73 		.ascii	"p_msgqueue\000"
 4646      67717565 
 4646      756500
ARM GAS  C:\Users\DNIEL~1\AppData\Local\Temp\ccTrwnMY.s 			page 84


 4647              	.LASF101:
 4648 018d 67657474 		.ascii	"gett\000"
 4648      00
 4649              	.LASF108:
 4650 0192 4869576F 		.ascii	"HiWord\000"
 4650      726400
 4651              	.LASF122:
 4652 0199 4743494E 		.ascii	"GCIName\000"
 4652      616D6500 
 4653              	.LASF92:
 4654 01a1 6576656E 		.ascii	"event\000"
 4654      7400
 4655              	.LASF48:
 4656 01a7 636F6E74 		.ascii	"context\000"
 4656      65787400 
 4657              	.LASF7:
 4658 01af 73686F72 		.ascii	"short unsigned int\000"
 4658      7420756E 
 4658      7369676E 
 4658      65642069 
 4658      6E7400
 4659              	.LASF20:
 4660 01c2 6D73675F 		.ascii	"msg_t\000"
 4660      7400
 4661              	.LASF95:
 4662 01c8 6F717565 		.ascii	"oqueue\000"
 4662      756500
 4663              	.LASF55:
 4664 01cf 656C5F6E 		.ascii	"el_next\000"
 4664      65787400 
 4665              	.LASF86:
 4666 01d7 55534152 		.ascii	"USART_TypeDef\000"
 4666      545F5479 
 4666      70654465 
 4666      6600
 4667              	.LASF102:
 4668 01e5 77726974 		.ascii	"writet\000"
 4668      657400
 4669              	.LASF15:
 4670 01ec 746D6F64 		.ascii	"tmode_t\000"
 4670      655F7400 
 4671              	.LASF45:
 4672 01f4 54687265 		.ascii	"ThreadsList\000"
 4672      6164734C 
 4672      69737400 
 4673              	.LASF21:
 4674 0200 6576656E 		.ascii	"eventmask_t\000"
 4674      746D6173 
 4674      6B5F7400 
 4675              	.LASF76:
 4676 020c 496E7075 		.ascii	"InputQueue\000"
 4676      74517565 
 4676      756500
 4677              	.LASF50:
 4678 0217 4D757465 		.ascii	"Mutex\000"
 4678      7800
 4679              	.LASF66:
ARM GAS  C:\Users\DNIEL~1\AppData\Local\Temp\ccTrwnMY.s 			page 85


 4680 021d 47656E65 		.ascii	"GenericQueue\000"
 4680      72696351 
 4680      75657565 
 4680      00
 4681              	.LASF110:
 4682 022a 6D656469 		.ascii	"media_Video\000"
 4682      615F5669 
 4682      64656F00 
 4683              	.LASF98:
 4684 0236 77726974 		.ascii	"write\000"
 4684      6500
 4685              	.LASF100:
 4686 023c 70757474 		.ascii	"putt\000"
 4686      00
 4687              	.LASF115:
 4688 0241 6766785F 		.ascii	"gfx_Contrast\000"
 4688      436F6E74 
 4688      72617374 
 4688      00
 4689              	.LASF26:
 4690 024e 705F7072 		.ascii	"p_prev\000"
 4690      657600
 4691              	.LASF49:
 4692 0255 73697A65 		.ascii	"sizetype\000"
 4692      74797065 
 4692      00
 4693              	.LASF68:
 4694 025e 715F636F 		.ascii	"q_counter\000"
 4694      756E7465 
 4694      7200
 4695              	.LASF127:
 4696 0268 63686172 		.ascii	"charsout\000"
 4696      736F7574 
 4696      00
 4697              	.LASF129:
 4698 0271 474E5520 		.ascii	"GNU C 4.7.4 20140401 (release) [ARM/embedded-4_7-br"
 4698      4320342E 
 4698      372E3420 
 4698      32303134 
 4698      30343031 
 4699 02a4 616E6368 		.ascii	"anch revision 209195]\000"
 4699      20726576 
 4699      6973696F 
 4699      6E203230 
 4699      39313935 
 4700              	.LASF30:
 4701 02ba 705F6F6C 		.ascii	"p_older\000"
 4701      64657200 
 4702              	.LASF112:
 4703 02c2 4672616D 		.ascii	"Framenumber\000"
 4703      656E756D 
 4703      62657200 
 4704              	.LASF71:
 4705 02ce 715F7772 		.ascii	"q_wrptr\000"
 4705      70747200 
 4706              	.LASF107:
 4707 02d6 6D656469 		.ascii	"media_SetSector\000"
ARM GAS  C:\Users\DNIEL~1\AppData\Local\Temp\ccTrwnMY.s 			page 86


 4707      615F5365 
 4707      74536563 
 4707      746F7200 
 4708              	.LASF57:
 4709 02e6 656C5F6D 		.ascii	"el_mask\000"
 4709      61736B00 
 4710              	.LASF17:
 4711 02ee 74726566 		.ascii	"trefs_t\000"
 4711      735F7400 
 4712              	.LASF78:
 4713 02f6 52455345 		.ascii	"RESERVED0\000"
 4713      52564544 
 4713      3000
 4714              	.LASF79:
 4715 0300 52455345 		.ascii	"RESERVED1\000"
 4715      52564544 
 4715      3100
 4716              	.LASF80:
 4717 030a 52455345 		.ascii	"RESERVED2\000"
 4717      52564544 
 4717      3200
 4718              	.LASF75:
 4719 0314 716E6F74 		.ascii	"qnotify_t\000"
 4719      6966795F 
 4719      7400
 4720              	.LASF82:
 4721 031e 52455345 		.ascii	"RESERVED4\000"
 4721      52564544 
 4721      3400
 4722              	.LASF88:
 4723 0328 53445F53 		.ascii	"SD_STOP\000"
 4723      544F5000 
 4724              	.LASF85:
 4725 0330 52455345 		.ascii	"RESERVED6\000"
 4725      52564544 
 4725      3600
 4726              	.LASF19:
 4727 033a 74707269 		.ascii	"tprio_t\000"
 4727      6F5F7400 
 4728              	.LASF72:
 4729 0342 715F7264 		.ascii	"q_rdptr\000"
 4729      70747200 
 4730              	.LASF106:
 4731 034a 6D656469 		.ascii	"media_Image\000"
 4731      615F496D 
 4731      61676500 
 4732              	.LASF14:
 4733 0356 5F426F6F 		.ascii	"_Bool\000"
 4733      6C00
 4734              	.LASF8:
 4735 035c 696E7433 		.ascii	"int32_t\000"
 4735      325F7400 
 4736              	.LASF4:
 4737 0364 756E7369 		.ascii	"unsigned char\000"
 4737      676E6564 
 4737      20636861 
 4737      7200
ARM GAS  C:\Users\DNIEL~1\AppData\Local\Temp\ccTrwnMY.s 			page 87


 4738              	.LASF56:
 4739 0372 656C5F6C 		.ascii	"el_listener\000"
 4739      69737465 
 4739      6E657200 
 4740              	.LASF128:
 4741 037e 49544D5F 		.ascii	"ITM_RxBuffer\000"
 4741      52784275 
 4741      66666572 
 4741      00
 4742              	.LASF58:
 4743 038b 656C5F66 		.ascii	"el_flags\000"
 4743      6C616773 
 4743      00
 4744              	.LASF41:
 4745 0394 705F6D74 		.ascii	"p_mtxlist\000"
 4745      786C6973 
 4745      7400
 4746              	.LASF5:
 4747 039e 73686F72 		.ascii	"short int\000"
 4747      7420696E 
 4747      7400
 4748              	.LASF32:
 4749 03a8 705F7374 		.ascii	"p_state\000"
 4749      61746500 
 4750              	.LASF35:
 4751 03b0 705F7072 		.ascii	"p_preempt\000"
 4751      65656D70 
 4751      7400
 4752              	.LASF64:
 4753 03ba 65776D61 		.ascii	"ewmask\000"
 4753      736B00
 4754              	.LASF25:
 4755 03c1 705F6E65 		.ascii	"p_next\000"
 4755      787400
 4756              	.LASF33:
 4757 03c8 705F666C 		.ascii	"p_flags\000"
 4757      61677300 
 4758              	.LASF24:
 4759 03d0 54687265 		.ascii	"Thread\000"
 4759      616400
 4760              	.LASF114:
 4761 03d7 436F6C6F 		.ascii	"Color\000"
 4761      7200
 4762              	.LASF40:
 4763 03dd 705F6570 		.ascii	"p_epending\000"
 4763      656E6469 
 4763      6E6700
 4764              	.LASF87:
 4765 03e8 53445F55 		.ascii	"SD_UNINIT\000"
 4765      4E494E49 
 4765      5400
 4766              	.LASF120:
 4767 03f2 66696C65 		.ascii	"file_LoadImageControl\000"
 4767      5F4C6F61 
 4767      64496D61 
 4767      6765436F 
 4767      6E74726F 
ARM GAS  C:\Users\DNIEL~1\AppData\Local\Temp\ccTrwnMY.s 			page 88


 4768              	.LASF83:
 4769 0408 52455345 		.ascii	"RESERVED5\000"
 4769      52564544 
 4769      3500
 4770              	.LASF10:
 4771 0412 75696E74 		.ascii	"uint32_t\000"
 4771      33325F74 
 4771      00
 4772              	.LASF126:
 4773 041b 57726974 		.ascii	"WriteChars\000"
 4773      65436861 
 4773      727300
 4774              	.LASF91:
 4775 0426 53657269 		.ascii	"SerialDriver\000"
 4775      616C4472 
 4775      69766572 
 4775      00
 4776              	.LASF11:
 4777 0433 6C6F6E67 		.ascii	"long unsigned int\000"
 4777      20756E73 
 4777      69676E65 
 4777      6420696E 
 4777      7400
 4778              	.LASF65:
 4779 0445 63686172 		.ascii	"char\000"
 4779      00
 4780              	.LASF53:
 4781 044a 6D5F6E65 		.ascii	"m_next\000"
 4781      787400
 4782              	.LASF23:
 4783 0451 73797374 		.ascii	"systime_t\000"
 4783      696D655F 
 4783      7400
 4784              	.LASF42:
 4785 045b 705F7265 		.ascii	"p_realprio\000"
 4785      616C7072 
 4785      696F00
 4786              	.LASF124:
 4787 0466 70757473 		.ascii	"putstr\000"
 4787      747200
 4788              	.LASF36:
 4789 046d 705F7469 		.ascii	"p_time\000"
 4789      6D6500
 4790              	.LASF81:
 4791 0474 52455345 		.ascii	"RESERVED3\000"
 4791      52564544 
 4791      3300
 4792              	.LASF47:
 4793 047e 696E7463 		.ascii	"intctx\000"
 4793      747800
 4794              	.LASF89:
 4795 0485 53445F52 		.ascii	"SD_READY\000"
 4795      45414459 
 4795      00
 4796              	.LASF22:
 4797 048e 666C6167 		.ascii	"flagsmask_t\000"
 4797      736D6173 
ARM GAS  C:\Users\DNIEL~1\AppData\Local\Temp\ccTrwnMY.s 			page 89


 4797      6B5F7400 
 4798              	.LASF90:
 4799 049a 73647374 		.ascii	"sdstate_t\000"
 4799      6174655F 
 4799      7400
 4800              	.LASF70:
 4801 04a4 715F746F 		.ascii	"q_top\000"
 4801      7000
 4802              	.LASF31:
 4803 04aa 705F6E61 		.ascii	"p_name\000"
 4803      6D6500
 4804              	.LASF34:
 4805 04b1 705F7265 		.ascii	"p_refs\000"
 4805      667300
 4806              	.LASF131:
 4807 04b8 433A5C55 		.ascii	"C:\\Users\\D\341niel\\git\\Smarty\\smarty\\firmware"
 4807      73657273 
 4807      5C44E16E 
 4807      69656C5C 
 4807      6769745C 
 4808 04e2 00       		.ascii	"\000"
 4809              	.LASF73:
 4810 04e3 715F6E6F 		.ascii	"q_notify\000"
 4810      74696679 
 4810      00
 4811              	.LASF3:
 4812 04ec 75696E74 		.ascii	"uint8_t\000"
 4812      385F7400 
 4813              	.LASF130:
 4814 04f4 7372632F 		.ascii	"src/gfx.c\000"
 4814      6766782E 
 4814      6300
 4815              	.LASF54:
 4816 04fe 4576656E 		.ascii	"EventListener\000"
 4816      744C6973 
 4816      74656E65 
 4816      7200
 4817              	.LASF99:
 4818 050c 72656164 		.ascii	"read\000"
 4818      00
 4819              	.LASF109:
 4820 0511 4C6F576F 		.ascii	"LoWord\000"
 4820      726400
 4821              	.LASF97:
 4822 0518 53657269 		.ascii	"SerialDriverVMT\000"
 4822      616C4472 
 4822      69766572 
 4822      564D5400 
 4823              	.LASF39:
 4824 0528 705F6D73 		.ascii	"p_msg\000"
 4824      6700
 4825              	.LASF74:
 4826 052e 715F6C69 		.ascii	"q_link\000"
 4826      6E6B00
 4827              	.LASF52:
 4828 0535 6D5F6F77 		.ascii	"m_owner\000"
 4828      6E657200 
ARM GAS  C:\Users\DNIEL~1\AppData\Local\Temp\ccTrwnMY.s 			page 90


 4829              	.LASF28:
 4830 053d 705F6374 		.ascii	"p_ctx\000"
 4830      7800
 4831              	.LASF37:
 4832 0543 705F7761 		.ascii	"p_waiting\000"
 4832      6974696E 
 4832      6700
 4833              	.LASF117:
 4834 054d 6766785F 		.ascii	"gfx_Transparency\000"
 4834      5472616E 
 4834      73706172 
 4834      656E6379 
 4834      00
 4835              		.ident	"GCC: (GNU Tools for ARM Embedded Processors) 4.7.4 20140401 (release) [ARM/embedded-4_7-br
ARM GAS  C:\Users\DNIEL~1\AppData\Local\Temp\ccTrwnMY.s 			page 91


DEFINED SYMBOLS
                            *ABS*:00000000 gfx.c
C:\Users\DNIEL~1\AppData\Local\Temp\ccTrwnMY.s:19     .text.gfx_Cls:00000000 $t
C:\Users\DNIEL~1\AppData\Local\Temp\ccTrwnMY.s:25     .text.gfx_Cls:00000000 gfx_Cls
C:\Users\DNIEL~1\AppData\Local\Temp\ccTrwnMY.s:56     .text.gfx_Cls:00000020 $d
C:\Users\DNIEL~1\AppData\Local\Temp\ccTrwnMY.s:61     .text.file_Mount:00000000 $t
C:\Users\DNIEL~1\AppData\Local\Temp\ccTrwnMY.s:67     .text.file_Mount:00000000 file_Mount
C:\Users\DNIEL~1\AppData\Local\Temp\ccTrwnMY.s:97     .text.file_Mount:00000020 $d
C:\Users\DNIEL~1\AppData\Local\Temp\ccTrwnMY.s:102    .text.media_Image:00000000 $t
C:\Users\DNIEL~1\AppData\Local\Temp\ccTrwnMY.s:108    .text.media_Image:00000000 media_Image
C:\Users\DNIEL~1\AppData\Local\Temp\ccTrwnMY.s:171    .text.media_Image:00000058 $d
C:\Users\DNIEL~1\AppData\Local\Temp\ccTrwnMY.s:176    .text.media_SetSector:00000000 $t
C:\Users\DNIEL~1\AppData\Local\Temp\ccTrwnMY.s:182    .text.media_SetSector:00000000 media_SetSector
C:\Users\DNIEL~1\AppData\Local\Temp\ccTrwnMY.s:245    .text.media_SetSector:00000058 $d
C:\Users\DNIEL~1\AppData\Local\Temp\ccTrwnMY.s:250    .text.media_Video:00000000 $t
C:\Users\DNIEL~1\AppData\Local\Temp\ccTrwnMY.s:256    .text.media_Video:00000000 media_Video
C:\Users\DNIEL~1\AppData\Local\Temp\ccTrwnMY.s:319    .text.media_Video:00000058 $d
C:\Users\DNIEL~1\AppData\Local\Temp\ccTrwnMY.s:324    .text.media_VideoFrame:00000000 $t
C:\Users\DNIEL~1\AppData\Local\Temp\ccTrwnMY.s:330    .text.media_VideoFrame:00000000 media_VideoFrame
C:\Users\DNIEL~1\AppData\Local\Temp\ccTrwnMY.s:409    .text.media_VideoFrame:00000074 $d
C:\Users\DNIEL~1\AppData\Local\Temp\ccTrwnMY.s:414    .text.gfx_BGcolour:00000000 $t
C:\Users\DNIEL~1\AppData\Local\Temp\ccTrwnMY.s:420    .text.gfx_BGcolour:00000000 gfx_BGcolour
C:\Users\DNIEL~1\AppData\Local\Temp\ccTrwnMY.s:469    .text.gfx_BGcolour:0000003c $d
C:\Users\DNIEL~1\AppData\Local\Temp\ccTrwnMY.s:474    .text.gfx_Contrast:00000000 $t
C:\Users\DNIEL~1\AppData\Local\Temp\ccTrwnMY.s:480    .text.gfx_Contrast:00000000 gfx_Contrast
C:\Users\DNIEL~1\AppData\Local\Temp\ccTrwnMY.s:529    .text.gfx_Contrast:0000003c $d
C:\Users\DNIEL~1\AppData\Local\Temp\ccTrwnMY.s:534    .text.gfx_Transparency:00000000 $t
C:\Users\DNIEL~1\AppData\Local\Temp\ccTrwnMY.s:540    .text.gfx_Transparency:00000000 gfx_Transparency
C:\Users\DNIEL~1\AppData\Local\Temp\ccTrwnMY.s:589    .text.gfx_Transparency:0000003c $d
C:\Users\DNIEL~1\AppData\Local\Temp\ccTrwnMY.s:594    .text.gfx_TransparentColour:00000000 $t
C:\Users\DNIEL~1\AppData\Local\Temp\ccTrwnMY.s:600    .text.gfx_TransparentColour:00000000 gfx_TransparentColour
C:\Users\DNIEL~1\AppData\Local\Temp\ccTrwnMY.s:649    .text.gfx_TransparentColour:0000003c $d
C:\Users\DNIEL~1\AppData\Local\Temp\ccTrwnMY.s:654    .text.file_LoadImageControl:00000000 $t
C:\Users\DNIEL~1\AppData\Local\Temp\ccTrwnMY.s:660    .text.file_LoadImageControl:00000000 file_LoadImageControl
C:\Users\DNIEL~1\AppData\Local\Temp\ccTrwnMY.s:727    .text.file_LoadImageControl:00000058 $d
C:\Users\DNIEL~1\AppData\Local\Temp\ccTrwnMY.s:732    .text.putstr:00000000 $t
C:\Users\DNIEL~1\AppData\Local\Temp\ccTrwnMY.s:738    .text.putstr:00000000 putstr
C:\Users\DNIEL~1\AppData\Local\Temp\ccTrwnMY.s:781    .text.putstr:00000030 $d
C:\Users\DNIEL~1\AppData\Local\Temp\ccTrwnMY.s:786    .text.WriteChars:00000000 $t
C:\Users\DNIEL~1\AppData\Local\Temp\ccTrwnMY.s:792    .text.WriteChars:00000000 WriteChars
C:\Users\DNIEL~1\AppData\Local\Temp\ccTrwnMY.s:826    .text.WriteChars:0000001c $d
                     .debug_frame:00000010 $d
C:\Users\DNIEL~1\AppData\Local\Temp\ccTrwnMY.s:60     .text.gfx_Cls:00000024 $t
C:\Users\DNIEL~1\AppData\Local\Temp\ccTrwnMY.s:101    .text.file_Mount:00000024 $t
C:\Users\DNIEL~1\AppData\Local\Temp\ccTrwnMY.s:175    .text.media_Image:0000005c $t
C:\Users\DNIEL~1\AppData\Local\Temp\ccTrwnMY.s:249    .text.media_SetSector:0000005c $t
C:\Users\DNIEL~1\AppData\Local\Temp\ccTrwnMY.s:323    .text.media_Video:0000005c $t
C:\Users\DNIEL~1\AppData\Local\Temp\ccTrwnMY.s:413    .text.media_VideoFrame:00000078 $t
C:\Users\DNIEL~1\AppData\Local\Temp\ccTrwnMY.s:731    .text.file_LoadImageControl:0000005c $t
C:\Users\DNIEL~1\AppData\Local\Temp\ccTrwnMY.s:785    .text.putstr:00000034 $t

UNDEFINED SYMBOLS
chOQPutTimeout
SD2
