ARM GAS  C:\Users\DNIEL~1\AppData\Local\Temp\ccQszIGi.s 			page 1


   1              		.syntax unified
   2              		.cpu cortex-m4
   3              		.fpu softvfp
   4              		.eabi_attribute 20, 1
   5              		.eabi_attribute 21, 1
   6              		.eabi_attribute 23, 3
   7              		.eabi_attribute 24, 1
   8              		.eabi_attribute 25, 1
   9              		.eabi_attribute 26, 1
  10              		.eabi_attribute 30, 2
  11              		.eabi_attribute 18, 4
  12              		.thumb
  13              		.file	"gfx.c"
  20 0000 EB030000 		.text
  20      0200A702 
  20      00000201 
  20      FB0E0D00 
  20      01010101 
  21              	.Ltext0:
  22              		.cfi_sections	.debug_frame
  23              		.section	.text.gfx_Cls,"ax",%progbits
  24              		.align	2
  25              		.p2align 4,,15
  26              		.global	gfx_Cls
  27              		.thumb
  28              		.thumb_func
  29              		.type	gfx_Cls, %function
  30              	gfx_Cls:
  31              	.LFB119:
  32              		.file 1 "src/gfx.c"
  33              		.loc 1 25 0
  34              		.cfi_startproc
  35              		@ args = 0, pretend = 0, frame = 0
  36              		@ frame_needed = 0, uses_anonymous_args = 0
  37 0000 10B5     		push	{r4, lr}
  38              	.LCFI0:
  39              		.cfi_def_cfa_offset 8
  40              		.loc 1 26 0
  41 0002 074C     		ldr	r4, .L2
  42              		.cfi_offset 14, -4
  43              		.cfi_offset 4, -8
  44 0004 FF21     		movs	r1, #255
  45 0006 4FF0FF32 		mov	r2, #-1
  46 000a 2046     		mov	r0, r4
  47 000c FFF7FEFF 		bl	chOQPutTimeout
  48              		.loc 1 27 0
  49 0010 2046     		mov	r0, r4
  50 0012 CD21     		movs	r1, #205
  51 0014 4FF0FF32 		mov	r2, #-1
  52              		.loc 1 28 0
  53 0018 BDE81040 		pop	{r4, lr}
ARM GAS  C:\Users\DNIEL~1\AppData\Local\Temp\ccQszIGi.s 			page 2


  54              		.loc 1 27 0
  55 001c FFF7FEBF 		b	chOQPutTimeout
  56              	.L3:
  57              		.align	2
  58              	.L2:
  59 0020 30000000 		.word	SD2+48
  60              		.cfi_endproc
  61              	.LFE119:
  62              		.size	gfx_Cls, .-gfx_Cls
  63 0024 AFF30080 		.section	.text.file_Mount,"ax",%progbits
  63      AFF30080 
  63      AFF30080 
  64              		.align	2
  65              		.p2align 4,,15
  66              		.global	file_Mount
  67              		.thumb
  68              		.thumb_func
  69              		.type	file_Mount, %function
  70              	file_Mount:
  71              	.LFB120:
  72              		.loc 1 31 0
  73              		.cfi_startproc
  74              		@ args = 0, pretend = 0, frame = 0
  75              		@ frame_needed = 0, uses_anonymous_args = 0
  76 0000 10B5     		push	{r4, lr}
  77              	.LCFI1:
  78              		.cfi_def_cfa_offset 8
  79              		.loc 1 32 0
  80 0002 074C     		ldr	r4, .L5
  81              		.cfi_offset 14, -4
  82              		.cfi_offset 4, -8
  83 0004 FF21     		movs	r1, #255
  84 0006 4FF0FF32 		mov	r2, #-1
  85 000a 2046     		mov	r0, r4
  86 000c FFF7FEFF 		bl	chOQPutTimeout
  87              		.loc 1 33 0
  88 0010 2046     		mov	r0, r4
  89 0012 0321     		movs	r1, #3
  90 0014 4FF0FF32 		mov	r2, #-1
  91              		.loc 1 34 0
  92 0018 BDE81040 		pop	{r4, lr}
  93              		.loc 1 33 0
  94 001c FFF7FEBF 		b	chOQPutTimeout
  95              	.L6:
  96              		.align	2
  97              	.L5:
  98 0020 30000000 		.word	SD2+48
  99              		.cfi_endproc
 100              	.LFE120:
 101              		.size	file_Mount, .-file_Mount
 102 0024 AFF30080 		.section	.text.media_Image,"ax",%progbits
 102      AFF30080 
 102      AFF30080 
 103              		.align	2
 104              		.p2align 4,,15
 105              		.global	media_Image
 106              		.thumb
ARM GAS  C:\Users\DNIEL~1\AppData\Local\Temp\ccQszIGi.s 			page 3


 107              		.thumb_func
 108              		.type	media_Image, %function
 109              	media_Image:
 110              	.LFB121:
 111              		.loc 1 37 0
 112              		.cfi_startproc
 113              		@ args = 0, pretend = 0, frame = 0
 114              		@ frame_needed = 0, uses_anonymous_args = 0
 115              	.LVL0:
 116 0000 70B5     		push	{r4, r5, r6, lr}
 117              	.LCFI2:
 118              		.cfi_def_cfa_offset 16
 119              		.loc 1 38 0
 120 0002 154C     		ldr	r4, .L8
 121              		.cfi_offset 14, -4
 122              		.cfi_offset 6, -8
 123              		.cfi_offset 5, -12
 124              		.cfi_offset 4, -16
 125              		.loc 1 37 0
 126 0004 0646     		mov	r6, r0
 127 0006 0D46     		mov	r5, r1
 128              		.loc 1 38 0
 129 0008 4FF0FF32 		mov	r2, #-1
 130 000c FF21     		movs	r1, #255
 131              	.LVL1:
 132 000e 2046     		mov	r0, r4
 133              	.LVL2:
 134 0010 FFF7FEFF 		bl	chOQPutTimeout
 135              		.loc 1 39 0
 136 0014 8B21     		movs	r1, #139
 137 0016 2046     		mov	r0, r4
 138 0018 4FF0FF32 		mov	r2, #-1
 139 001c FFF7FEFF 		bl	chOQPutTimeout
 140              		.loc 1 40 0
 141 0020 C6F30721 		ubfx	r1, r6, #8, #8
 142 0024 2046     		mov	r0, r4
 143 0026 4FF0FF32 		mov	r2, #-1
 144 002a FFF7FEFF 		bl	chOQPutTimeout
 145              		.loc 1 41 0
 146 002e F1B2     		uxtb	r1, r6
 147 0030 2046     		mov	r0, r4
 148 0032 4FF0FF32 		mov	r2, #-1
 149 0036 FFF7FEFF 		bl	chOQPutTimeout
 150              		.loc 1 42 0
 151 003a C5F30721 		ubfx	r1, r5, #8, #8
 152 003e 2046     		mov	r0, r4
 153 0040 4FF0FF32 		mov	r2, #-1
 154 0044 FFF7FEFF 		bl	chOQPutTimeout
 155              		.loc 1 43 0
 156 0048 2046     		mov	r0, r4
 157 004a E9B2     		uxtb	r1, r5
 158 004c 4FF0FF32 		mov	r2, #-1
 159              		.loc 1 44 0
 160 0050 BDE87040 		pop	{r4, r5, r6, lr}
 161              		.loc 1 43 0
 162 0054 FFF7FEBF 		b	chOQPutTimeout
 163              	.L9:
ARM GAS  C:\Users\DNIEL~1\AppData\Local\Temp\ccQszIGi.s 			page 4


 164              		.align	2
 165              	.L8:
 166 0058 30000000 		.word	SD2+48
 167              		.cfi_endproc
 168              	.LFE121:
 169              		.size	media_Image, .-media_Image
 170 005c AFF30080 		.section	.text.media_SetSector,"ax",%progbits
 171              		.align	2
 172              		.p2align 4,,15
 173              		.global	media_SetSector
 174              		.thumb
 175              		.thumb_func
 176              		.type	media_SetSector, %function
 177              	media_SetSector:
 178              	.LFB122:
 179              		.loc 1 47 0
 180              		.cfi_startproc
 181              		@ args = 0, pretend = 0, frame = 0
 182              		@ frame_needed = 0, uses_anonymous_args = 0
 183              	.LVL3:
 184 0000 70B5     		push	{r4, r5, r6, lr}
 185              	.LCFI3:
 186              		.cfi_def_cfa_offset 16
 187              		.loc 1 48 0
 188 0002 154C     		ldr	r4, .L11
 189              		.cfi_offset 14, -4
 190              		.cfi_offset 6, -8
 191              		.cfi_offset 5, -12
 192              		.cfi_offset 4, -16
 193              		.loc 1 47 0
 194 0004 0646     		mov	r6, r0
 195 0006 0D46     		mov	r5, r1
 196              		.loc 1 48 0
 197 0008 4FF0FF32 		mov	r2, #-1
 198 000c FF21     		movs	r1, #255
 199              	.LVL4:
 200 000e 2046     		mov	r0, r4
 201              	.LVL5:
 202 0010 FFF7FEFF 		bl	chOQPutTimeout
 203              		.loc 1 49 0
 204 0014 9221     		movs	r1, #146
 205 0016 2046     		mov	r0, r4
 206 0018 4FF0FF32 		mov	r2, #-1
 207 001c FFF7FEFF 		bl	chOQPutTimeout
 208              		.loc 1 50 0
 209 0020 C6F30721 		ubfx	r1, r6, #8, #8
 210 0024 2046     		mov	r0, r4
 211 0026 4FF0FF32 		mov	r2, #-1
 212 002a FFF7FEFF 		bl	chOQPutTimeout
 213              		.loc 1 51 0
 214 002e F1B2     		uxtb	r1, r6
 215 0030 2046     		mov	r0, r4
 216 0032 4FF0FF32 		mov	r2, #-1
 217 0036 FFF7FEFF 		bl	chOQPutTimeout
 218              		.loc 1 52 0
 219 003a C5F30721 		ubfx	r1, r5, #8, #8
 220 003e 2046     		mov	r0, r4
ARM GAS  C:\Users\DNIEL~1\AppData\Local\Temp\ccQszIGi.s 			page 5


 221 0040 4FF0FF32 		mov	r2, #-1
 222 0044 FFF7FEFF 		bl	chOQPutTimeout
 223              		.loc 1 53 0
 224 0048 2046     		mov	r0, r4
 225 004a E9B2     		uxtb	r1, r5
 226 004c 4FF0FF32 		mov	r2, #-1
 227              		.loc 1 54 0
 228 0050 BDE87040 		pop	{r4, r5, r6, lr}
 229              		.loc 1 53 0
 230 0054 FFF7FEBF 		b	chOQPutTimeout
 231              	.L12:
 232              		.align	2
 233              	.L11:
 234 0058 30000000 		.word	SD2+48
 235              		.cfi_endproc
 236              	.LFE122:
 237              		.size	media_SetSector, .-media_SetSector
 238 005c AFF30080 		.section	.text.media_Video,"ax",%progbits
 239              		.align	2
 240              		.p2align 4,,15
 241              		.global	media_Video
 242              		.thumb
 243              		.thumb_func
 244              		.type	media_Video, %function
 245              	media_Video:
 246              	.LFB123:
 247              		.loc 1 57 0
 248              		.cfi_startproc
 249              		@ args = 0, pretend = 0, frame = 0
 250              		@ frame_needed = 0, uses_anonymous_args = 0
 251              	.LVL6:
 252 0000 70B5     		push	{r4, r5, r6, lr}
 253              	.LCFI4:
 254              		.cfi_def_cfa_offset 16
 255              		.loc 1 58 0
 256 0002 154C     		ldr	r4, .L14
 257              		.cfi_offset 14, -4
 258              		.cfi_offset 6, -8
 259              		.cfi_offset 5, -12
 260              		.cfi_offset 4, -16
 261              		.loc 1 57 0
 262 0004 0646     		mov	r6, r0
 263 0006 0D46     		mov	r5, r1
 264              		.loc 1 58 0
 265 0008 4FF0FF32 		mov	r2, #-1
 266 000c FF21     		movs	r1, #255
 267              	.LVL7:
 268 000e 2046     		mov	r0, r4
 269              	.LVL8:
 270 0010 FFF7FEFF 		bl	chOQPutTimeout
 271              		.loc 1 59 0
 272 0014 9521     		movs	r1, #149
 273 0016 2046     		mov	r0, r4
 274 0018 4FF0FF32 		mov	r2, #-1
 275 001c FFF7FEFF 		bl	chOQPutTimeout
 276              		.loc 1 60 0
 277 0020 C6F30721 		ubfx	r1, r6, #8, #8
ARM GAS  C:\Users\DNIEL~1\AppData\Local\Temp\ccQszIGi.s 			page 6


 278 0024 2046     		mov	r0, r4
 279 0026 4FF0FF32 		mov	r2, #-1
 280 002a FFF7FEFF 		bl	chOQPutTimeout
 281              		.loc 1 61 0
 282 002e F1B2     		uxtb	r1, r6
 283 0030 2046     		mov	r0, r4
 284 0032 4FF0FF32 		mov	r2, #-1
 285 0036 FFF7FEFF 		bl	chOQPutTimeout
 286              		.loc 1 62 0
 287 003a C5F30721 		ubfx	r1, r5, #8, #8
 288 003e 2046     		mov	r0, r4
 289 0040 4FF0FF32 		mov	r2, #-1
 290 0044 FFF7FEFF 		bl	chOQPutTimeout
 291              		.loc 1 63 0
 292 0048 2046     		mov	r0, r4
 293 004a E9B2     		uxtb	r1, r5
 294 004c 4FF0FF32 		mov	r2, #-1
 295              		.loc 1 64 0
 296 0050 BDE87040 		pop	{r4, r5, r6, lr}
 297              		.loc 1 63 0
 298 0054 FFF7FEBF 		b	chOQPutTimeout
 299              	.L15:
 300              		.align	2
 301              	.L14:
 302 0058 30000000 		.word	SD2+48
 303              		.cfi_endproc
 304              	.LFE123:
 305              		.size	media_Video, .-media_Video
 306 005c AFF30080 		.section	.text.media_VideoFrame,"ax",%progbits
 307              		.align	2
 308              		.p2align 4,,15
 309              		.global	media_VideoFrame
 310              		.thumb
 311              		.thumb_func
 312              		.type	media_VideoFrame, %function
 313              	media_VideoFrame:
 314              	.LFB124:
 315              		.loc 1 67 0
 316              		.cfi_startproc
 317              		@ args = 0, pretend = 0, frame = 0
 318              		@ frame_needed = 0, uses_anonymous_args = 0
 319              	.LVL9:
 320 0000 2DE9F041 		push	{r4, r5, r6, r7, r8, lr}
 321              	.LCFI5:
 322              		.cfi_def_cfa_offset 24
 323              		.loc 1 68 0
 324 0004 1C4C     		ldr	r4, .L17
 325              		.cfi_offset 14, -4
 326              		.cfi_offset 8, -8
 327              		.cfi_offset 7, -12
 328              		.cfi_offset 6, -16
 329              		.cfi_offset 5, -20
 330              		.cfi_offset 4, -24
 331              		.loc 1 67 0
 332 0006 0746     		mov	r7, r0
 333 0008 0E46     		mov	r6, r1
 334 000a 1546     		mov	r5, r2
ARM GAS  C:\Users\DNIEL~1\AppData\Local\Temp\ccQszIGi.s 			page 7


 335              		.loc 1 68 0
 336 000c FF21     		movs	r1, #255
 337              	.LVL10:
 338 000e 4FF0FF32 		mov	r2, #-1
 339              	.LVL11:
 340 0012 2046     		mov	r0, r4
 341              	.LVL12:
 342 0014 FFF7FEFF 		bl	chOQPutTimeout
 343              		.loc 1 69 0
 344 0018 9421     		movs	r1, #148
 345 001a 2046     		mov	r0, r4
 346 001c 4FF0FF32 		mov	r2, #-1
 347 0020 FFF7FEFF 		bl	chOQPutTimeout
 348              		.loc 1 70 0
 349 0024 C7F30721 		ubfx	r1, r7, #8, #8
 350 0028 2046     		mov	r0, r4
 351 002a 4FF0FF32 		mov	r2, #-1
 352 002e FFF7FEFF 		bl	chOQPutTimeout
 353              		.loc 1 71 0
 354 0032 F9B2     		uxtb	r1, r7
 355 0034 2046     		mov	r0, r4
 356 0036 4FF0FF32 		mov	r2, #-1
 357 003a FFF7FEFF 		bl	chOQPutTimeout
 358              		.loc 1 72 0
 359 003e C6F30721 		ubfx	r1, r6, #8, #8
 360 0042 2046     		mov	r0, r4
 361 0044 4FF0FF32 		mov	r2, #-1
 362 0048 FFF7FEFF 		bl	chOQPutTimeout
 363              		.loc 1 73 0
 364 004c F1B2     		uxtb	r1, r6
 365 004e 2046     		mov	r0, r4
 366 0050 4FF0FF32 		mov	r2, #-1
 367 0054 FFF7FEFF 		bl	chOQPutTimeout
 368              		.loc 1 74 0
 369 0058 C5F30721 		ubfx	r1, r5, #8, #8
 370 005c 2046     		mov	r0, r4
 371 005e 4FF0FF32 		mov	r2, #-1
 372 0062 FFF7FEFF 		bl	chOQPutTimeout
 373              		.loc 1 75 0
 374 0066 2046     		mov	r0, r4
 375 0068 E9B2     		uxtb	r1, r5
 376 006a 4FF0FF32 		mov	r2, #-1
 377              		.loc 1 76 0
 378 006e BDE8F041 		pop	{r4, r5, r6, r7, r8, lr}
 379              		.loc 1 75 0
 380 0072 FFF7FEBF 		b	chOQPutTimeout
 381              	.L18:
 382 0076 00BF     		.align	2
 383              	.L17:
 384 0078 30000000 		.word	SD2+48
 385              		.cfi_endproc
 386              	.LFE124:
 387              		.size	media_VideoFrame, .-media_VideoFrame
 388 007c AFF30080 		.section	.text.gfx_BGcolour,"ax",%progbits
 389              		.align	2
 390              		.p2align 4,,15
 391              		.global	gfx_BGcolour
ARM GAS  C:\Users\DNIEL~1\AppData\Local\Temp\ccQszIGi.s 			page 8


 392              		.thumb
 393              		.thumb_func
 394              		.type	gfx_BGcolour, %function
 395              	gfx_BGcolour:
 396              	.LFB125:
 397              		.loc 1 79 0
 398              		.cfi_startproc
 399              		@ args = 0, pretend = 0, frame = 0
 400              		@ frame_needed = 0, uses_anonymous_args = 0
 401              	.LVL13:
 402 0000 70B5     		push	{r4, r5, r6, lr}
 403              	.LCFI6:
 404              		.cfi_def_cfa_offset 16
 405              		.loc 1 80 0
 406 0002 0E4C     		ldr	r4, .L20
 407              		.cfi_offset 14, -4
 408              		.cfi_offset 6, -8
 409              		.cfi_offset 5, -12
 410              		.cfi_offset 4, -16
 411              		.loc 1 79 0
 412 0004 0546     		mov	r5, r0
 413              		.loc 1 80 0
 414 0006 FF21     		movs	r1, #255
 415 0008 4FF0FF32 		mov	r2, #-1
 416 000c 2046     		mov	r0, r4
 417              	.LVL14:
 418 000e FFF7FEFF 		bl	chOQPutTimeout
 419              		.loc 1 81 0
 420 0012 A421     		movs	r1, #164
 421 0014 2046     		mov	r0, r4
 422 0016 4FF0FF32 		mov	r2, #-1
 423 001a FFF7FEFF 		bl	chOQPutTimeout
 424              		.loc 1 82 0
 425 001e C5F30721 		ubfx	r1, r5, #8, #8
 426 0022 2046     		mov	r0, r4
 427 0024 4FF0FF32 		mov	r2, #-1
 428 0028 FFF7FEFF 		bl	chOQPutTimeout
 429              		.loc 1 83 0
 430 002c 2046     		mov	r0, r4
 431 002e E9B2     		uxtb	r1, r5
 432 0030 4FF0FF32 		mov	r2, #-1
 433              		.loc 1 84 0
 434 0034 BDE87040 		pop	{r4, r5, r6, lr}
 435              		.loc 1 83 0
 436 0038 FFF7FEBF 		b	chOQPutTimeout
 437              	.L21:
 438              		.align	2
 439              	.L20:
 440 003c 30000000 		.word	SD2+48
 441              		.cfi_endproc
 442              	.LFE125:
 443              		.size	gfx_BGcolour, .-gfx_BGcolour
 444              		.section	.text.gfx_Contrast,"ax",%progbits
 445              		.align	2
 446              		.p2align 4,,15
 447              		.global	gfx_Contrast
 448              		.thumb
ARM GAS  C:\Users\DNIEL~1\AppData\Local\Temp\ccQszIGi.s 			page 9


 449              		.thumb_func
 450              		.type	gfx_Contrast, %function
 451              	gfx_Contrast:
 452              	.LFB126:
 453              		.loc 1 87 0
 454              		.cfi_startproc
 455              		@ args = 0, pretend = 0, frame = 0
 456              		@ frame_needed = 0, uses_anonymous_args = 0
 457              	.LVL15:
 458 0000 70B5     		push	{r4, r5, r6, lr}
 459              	.LCFI7:
 460              		.cfi_def_cfa_offset 16
 461              		.loc 1 88 0
 462 0002 0E4C     		ldr	r4, .L23
 463              		.cfi_offset 14, -4
 464              		.cfi_offset 6, -8
 465              		.cfi_offset 5, -12
 466              		.cfi_offset 4, -16
 467              		.loc 1 87 0
 468 0004 0546     		mov	r5, r0
 469              		.loc 1 88 0
 470 0006 FF21     		movs	r1, #255
 471 0008 4FF0FF32 		mov	r2, #-1
 472 000c 2046     		mov	r0, r4
 473              	.LVL16:
 474 000e FFF7FEFF 		bl	chOQPutTimeout
 475              		.loc 1 89 0
 476 0012 9C21     		movs	r1, #156
 477 0014 2046     		mov	r0, r4
 478 0016 4FF0FF32 		mov	r2, #-1
 479 001a FFF7FEFF 		bl	chOQPutTimeout
 480              		.loc 1 90 0
 481 001e C5F30721 		ubfx	r1, r5, #8, #8
 482 0022 2046     		mov	r0, r4
 483 0024 4FF0FF32 		mov	r2, #-1
 484 0028 FFF7FEFF 		bl	chOQPutTimeout
 485              		.loc 1 91 0
 486 002c 2046     		mov	r0, r4
 487 002e E9B2     		uxtb	r1, r5
 488 0030 4FF0FF32 		mov	r2, #-1
 489              		.loc 1 92 0
 490 0034 BDE87040 		pop	{r4, r5, r6, lr}
 491              		.loc 1 91 0
 492 0038 FFF7FEBF 		b	chOQPutTimeout
 493              	.L24:
 494              		.align	2
 495              	.L23:
 496 003c 30000000 		.word	SD2+48
 497              		.cfi_endproc
 498              	.LFE126:
 499              		.size	gfx_Contrast, .-gfx_Contrast
 500              		.section	.text.gfx_Transparency,"ax",%progbits
 501              		.align	2
 502              		.p2align 4,,15
 503              		.global	gfx_Transparency
 504              		.thumb
 505              		.thumb_func
ARM GAS  C:\Users\DNIEL~1\AppData\Local\Temp\ccQszIGi.s 			page 10


 506              		.type	gfx_Transparency, %function
 507              	gfx_Transparency:
 508              	.LFB127:
 509              		.loc 1 95 0
 510              		.cfi_startproc
 511              		@ args = 0, pretend = 0, frame = 0
 512              		@ frame_needed = 0, uses_anonymous_args = 0
 513              	.LVL17:
 514 0000 70B5     		push	{r4, r5, r6, lr}
 515              	.LCFI8:
 516              		.cfi_def_cfa_offset 16
 517              		.loc 1 96 0
 518 0002 0E4C     		ldr	r4, .L26
 519              		.cfi_offset 14, -4
 520              		.cfi_offset 6, -8
 521              		.cfi_offset 5, -12
 522              		.cfi_offset 4, -16
 523              		.loc 1 95 0
 524 0004 0546     		mov	r5, r0
 525              		.loc 1 96 0
 526 0006 FF21     		movs	r1, #255
 527 0008 4FF0FF32 		mov	r2, #-1
 528 000c 2046     		mov	r0, r4
 529              	.LVL18:
 530 000e FFF7FEFF 		bl	chOQPutTimeout
 531              		.loc 1 97 0
 532 0012 A021     		movs	r1, #160
 533 0014 2046     		mov	r0, r4
 534 0016 4FF0FF32 		mov	r2, #-1
 535 001a FFF7FEFF 		bl	chOQPutTimeout
 536              		.loc 1 98 0
 537 001e C5F30721 		ubfx	r1, r5, #8, #8
 538 0022 2046     		mov	r0, r4
 539 0024 4FF0FF32 		mov	r2, #-1
 540 0028 FFF7FEFF 		bl	chOQPutTimeout
 541              		.loc 1 99 0
 542 002c 2046     		mov	r0, r4
 543 002e E9B2     		uxtb	r1, r5
 544 0030 4FF0FF32 		mov	r2, #-1
 545              		.loc 1 100 0
 546 0034 BDE87040 		pop	{r4, r5, r6, lr}
 547              		.loc 1 99 0
 548 0038 FFF7FEBF 		b	chOQPutTimeout
 549              	.L27:
 550              		.align	2
 551              	.L26:
 552 003c 30000000 		.word	SD2+48
 553              		.cfi_endproc
 554              	.LFE127:
 555              		.size	gfx_Transparency, .-gfx_Transparency
 556              		.section	.text.gfx_TransparentColour,"ax",%progbits
 557              		.align	2
 558              		.p2align 4,,15
 559              		.global	gfx_TransparentColour
 560              		.thumb
 561              		.thumb_func
 562              		.type	gfx_TransparentColour, %function
ARM GAS  C:\Users\DNIEL~1\AppData\Local\Temp\ccQszIGi.s 			page 11


 563              	gfx_TransparentColour:
 564              	.LFB128:
 565              		.loc 1 103 0
 566              		.cfi_startproc
 567              		@ args = 0, pretend = 0, frame = 0
 568              		@ frame_needed = 0, uses_anonymous_args = 0
 569              	.LVL19:
 570 0000 70B5     		push	{r4, r5, r6, lr}
 571              	.LCFI9:
 572              		.cfi_def_cfa_offset 16
 573              		.loc 1 104 0
 574 0002 0E4C     		ldr	r4, .L29
 575              		.cfi_offset 14, -4
 576              		.cfi_offset 6, -8
 577              		.cfi_offset 5, -12
 578              		.cfi_offset 4, -16
 579              		.loc 1 103 0
 580 0004 0546     		mov	r5, r0
 581              		.loc 1 104 0
 582 0006 FF21     		movs	r1, #255
 583 0008 4FF0FF32 		mov	r2, #-1
 584 000c 2046     		mov	r0, r4
 585              	.LVL20:
 586 000e FFF7FEFF 		bl	chOQPutTimeout
 587              		.loc 1 105 0
 588 0012 A121     		movs	r1, #161
 589 0014 2046     		mov	r0, r4
 590 0016 4FF0FF32 		mov	r2, #-1
 591 001a FFF7FEFF 		bl	chOQPutTimeout
 592              		.loc 1 106 0
 593 001e C5F30721 		ubfx	r1, r5, #8, #8
 594 0022 2046     		mov	r0, r4
 595 0024 4FF0FF32 		mov	r2, #-1
 596 0028 FFF7FEFF 		bl	chOQPutTimeout
 597              		.loc 1 107 0
 598 002c 2046     		mov	r0, r4
 599 002e E9B2     		uxtb	r1, r5
 600 0030 4FF0FF32 		mov	r2, #-1
 601              		.loc 1 108 0
 602 0034 BDE87040 		pop	{r4, r5, r6, lr}
 603              		.loc 1 107 0
 604 0038 FFF7FEBF 		b	chOQPutTimeout
 605              	.L30:
 606              		.align	2
 607              	.L29:
 608 003c 30000000 		.word	SD2+48
 609              		.cfi_endproc
 610              	.LFE128:
 611              		.size	gfx_TransparentColour, .-gfx_TransparentColour
 612              		.section	.text.file_LoadImageControl,"ax",%progbits
 613              		.align	2
 614              		.p2align 4,,15
 615              		.global	file_LoadImageControl
 616              		.thumb
 617              		.thumb_func
 618              		.type	file_LoadImageControl, %function
 619              	file_LoadImageControl:
ARM GAS  C:\Users\DNIEL~1\AppData\Local\Temp\ccQszIGi.s 			page 12


 620              	.LFB129:
 621              		.loc 1 111 0
 622              		.cfi_startproc
 623              		@ args = 0, pretend = 0, frame = 0
 624              		@ frame_needed = 0, uses_anonymous_args = 0
 625              	.LVL21:
 626 0000 2DE9F041 		push	{r4, r5, r6, r7, r8, lr}
 627              	.LCFI10:
 628              		.cfi_def_cfa_offset 24
 629              		.loc 1 112 0
 630 0004 154C     		ldr	r4, .L32
 631              		.cfi_offset 14, -4
 632              		.cfi_offset 8, -8
 633              		.cfi_offset 7, -12
 634              		.cfi_offset 6, -16
 635              		.cfi_offset 5, -20
 636              		.cfi_offset 4, -24
 637              		.loc 1 111 0
 638 0006 1546     		mov	r5, r2
 639 0008 0746     		mov	r7, r0
 640 000a 0E46     		mov	r6, r1
 641              		.loc 1 112 0
 642 000c 4FF0FF32 		mov	r2, #-1
 643              	.LVL22:
 644 0010 0021     		movs	r1, #0
 645              	.LVL23:
 646 0012 2046     		mov	r0, r4
 647              	.LVL24:
 648 0014 FFF7FEFF 		bl	chOQPutTimeout
 649              		.loc 1 113 0
 650 0018 0921     		movs	r1, #9
 651 001a 2046     		mov	r0, r4
 652 001c 4FF0FF32 		mov	r2, #-1
 653 0020 FFF7FEFF 		bl	chOQPutTimeout
 654              		.loc 1 114 0
 655 0024 F9B2     		uxtb	r1, r7
 656 0026 2046     		mov	r0, r4
 657 0028 4FF0FF32 		mov	r2, #-1
 658 002c FFF7FEFF 		bl	chOQPutTimeout
 659              		.loc 1 115 0
 660 0030 F1B2     		uxtb	r1, r6
 661 0032 2046     		mov	r0, r4
 662 0034 4FF0FF32 		mov	r2, #-1
 663 0038 FFF7FEFF 		bl	chOQPutTimeout
 664              		.loc 1 116 0
 665 003c C5F30721 		ubfx	r1, r5, #8, #8
 666 0040 2046     		mov	r0, r4
 667 0042 4FF0FF32 		mov	r2, #-1
 668 0046 FFF7FEFF 		bl	chOQPutTimeout
 669              		.loc 1 117 0
 670 004a 2046     		mov	r0, r4
 671 004c E9B2     		uxtb	r1, r5
 672 004e 4FF0FF32 		mov	r2, #-1
 673              		.loc 1 118 0
 674 0052 BDE8F041 		pop	{r4, r5, r6, r7, r8, lr}
 675              		.loc 1 117 0
 676 0056 FFF7FEBF 		b	chOQPutTimeout
ARM GAS  C:\Users\DNIEL~1\AppData\Local\Temp\ccQszIGi.s 			page 13


 677              	.L33:
 678 005a 00BF     		.align	2
 679              	.L32:
 680 005c 30000000 		.word	SD2+48
 681              		.cfi_endproc
 682              	.LFE129:
 683              		.size	file_LoadImageControl, .-file_LoadImageControl
 684              		.section	.text.putstr,"ax",%progbits
 685              		.align	2
 686              		.p2align 4,,15
 687              		.global	putstr
 688              		.thumb
 689              		.thumb_func
 690              		.type	putstr, %function
 691              	putstr:
 692              	.LFB130:
 693              		.loc 1 121 0
 694              		.cfi_startproc
 695              		@ args = 0, pretend = 0, frame = 0
 696              		@ frame_needed = 0, uses_anonymous_args = 0
 697              	.LVL25:
 698 0000 70B5     		push	{r4, r5, r6, lr}
 699              	.LCFI11:
 700              		.cfi_def_cfa_offset 16
 701              		.loc 1 122 0
 702 0002 0B4C     		ldr	r4, .L35
 703              		.cfi_offset 14, -4
 704              		.cfi_offset 6, -8
 705              		.cfi_offset 5, -12
 706              		.cfi_offset 4, -16
 707              		.loc 1 121 0
 708 0004 0546     		mov	r5, r0
 709              		.loc 1 122 0
 710 0006 0021     		movs	r1, #0
 711 0008 4FF0FF32 		mov	r2, #-1
 712 000c 2046     		mov	r0, r4
 713              	.LVL26:
 714 000e FFF7FEFF 		bl	chOQPutTimeout
 715              		.loc 1 123 0
 716 0012 1821     		movs	r1, #24
 717 0014 2046     		mov	r0, r4
 718 0016 4FF0FF32 		mov	r2, #-1
 719 001a FFF7FEFF 		bl	chOQPutTimeout
 720              		.loc 1 124 0
 721 001e 2046     		mov	r0, r4
 722 0020 E9B2     		uxtb	r1, r5
 723 0022 4FF0FF32 		mov	r2, #-1
 724              		.loc 1 125 0
 725 0026 BDE87040 		pop	{r4, r5, r6, lr}
 726              		.loc 1 124 0
 727 002a FFF7FEBF 		b	chOQPutTimeout
 728              	.L36:
 729 002e 00BF     		.align	2
 730              	.L35:
 731 0030 30000000 		.word	SD2+48
 732              		.cfi_endproc
 733              	.LFE130:
ARM GAS  C:\Users\DNIEL~1\AppData\Local\Temp\ccQszIGi.s 			page 14


 734              		.size	putstr, .-putstr
 735 0034 AFF30080 		.section	.text.WriteChars,"ax",%progbits
 735      AFF30080 
 735      AFF30080 
 736              		.align	2
 737              		.p2align 4,,15
 738              		.global	WriteChars
 739              		.thumb
 740              		.thumb_func
 741              		.type	WriteChars, %function
 742              	WriteChars:
 743              	.LFB131:
 744              		.loc 1 128 0
 745              		.cfi_startproc
 746              		@ args = 0, pretend = 0, frame = 0
 747              		@ frame_needed = 0, uses_anonymous_args = 0
 748              	.LVL27:
 749 0000 38B5     		push	{r3, r4, r5, lr}
 750              	.LCFI12:
 751              		.cfi_def_cfa_offset 16
 752 0002 0546     		mov	r5, r0
 753              		.cfi_offset 14, -4
 754              		.cfi_offset 5, -8
 755              		.cfi_offset 4, -12
 756              		.cfi_offset 3, -16
 757              	.LVL28:
 758              	.L38:
 759              		.loc 1 132 0 discriminator 1
 760 0004 15F8014B 		ldrb	r4, [r5], #1	@ zero_extendqisi2
 761              	.LVL29:
 762              		.loc 1 133 0 discriminator 1
 763 0008 0448     		ldr	r0, .L41
 764 000a 2146     		mov	r1, r4
 765 000c 4FF0FF32 		mov	r2, #-1
 766 0010 FFF7FEFF 		bl	chOQPutTimeout
 767              		.loc 1 134 0 discriminator 1
 768 0014 002C     		cmp	r4, #0
 769 0016 F5D1     		bne	.L38
 770              		.loc 1 135 0
 771 0018 38BD     		pop	{r3, r4, r5, pc}
 772              	.L42:
 773 001a 00BF     		.align	2
 774              	.L41:
 775 001c 30000000 		.word	SD2+48
 776              		.cfi_endproc
 777              	.LFE131:
 778              		.size	WriteChars, .-WriteChars
 779              		.text
 780              	.Letext0: