ARM GAS  C:\Users\DNIEL~1\AppData\Local\Temp\ccVdkgIc.s 			page 1


   1              		.syntax unified
   2              		.cpu cortex-m4
   3              		.fpu softvfp
   4              		.eabi_attribute 20, 1
   5              		.eabi_attribute 21, 1
   6              		.eabi_attribute 23, 3
   7              		.eabi_attribute 24, 1
   8              		.eabi_attribute 25, 1
   9              		.eabi_attribute 26, 1
  10              		.eabi_attribute 30, 2
  11              		.eabi_attribute 34, 1
  12              		.eabi_attribute 18, 4
  13              		.thumb
  14              		.file	"gfx.c"
  15              		.text
  16              	.Ltext0:
  17              		.cfi_sections	.debug_frame
  18              		.section	.text.gfx_Cls,"ax",%progbits
  19              		.align	2
  20              		.p2align 4,,15
  21              		.global	gfx_Cls
  22              		.thumb
  23              		.thumb_func
  24              		.type	gfx_Cls, %function
  25              	gfx_Cls:
  26              	.LFB118:
  27              		.file 1 "src/gfx.c"
  28              		.loc 1 25 0
  29              		.cfi_startproc
  30              		@ args = 0, pretend = 0, frame = 0
  31              		@ frame_needed = 0, uses_anonymous_args = 0
  32 0000 10B5     		push	{r4, lr}
  33              	.LCFI0:
  34              		.cfi_def_cfa_offset 8
  35              		.cfi_offset 4, -8
  36              		.cfi_offset 14, -4
  37              		.loc 1 26 0
  38 0002 074C     		ldr	r4, .L2
  39 0004 FF21     		movs	r1, #255
  40 0006 4FF0FF32 		mov	r2, #-1
  41 000a 2046     		mov	r0, r4
  42 000c FFF7FEFF 		bl	chOQPutTimeout
  43              	.LVL0:
  44              		.loc 1 27 0
  45 0010 2046     		mov	r0, r4
  46 0012 CD21     		movs	r1, #205
  47 0014 4FF0FF32 		mov	r2, #-1
  48              		.loc 1 28 0
  49 0018 BDE81040 		pop	{r4, lr}
  50              		.loc 1 27 0
  51 001c FFF7FEBF 		b	chOQPutTimeout
  52              	.LVL1:
  53              	.L3:
  54              		.align	2
  55              	.L2:
  56 0020 30000000 		.word	SD2+48
  57              		.cfi_endproc
ARM GAS  C:\Users\DNIEL~1\AppData\Local\Temp\ccVdkgIc.s 			page 2


  58              	.LFE118:
  59              		.size	gfx_Cls, .-gfx_Cls
  60 0024 AFF30080 		.section	.text.file_Mount,"ax",%progbits
  60      AFF30080 
  60      AFF30080 
  61              		.align	2
  62              		.p2align 4,,15
  63              		.global	file_Mount
  64              		.thumb
  65              		.thumb_func
  66              		.type	file_Mount, %function
  67              	file_Mount:
  68              	.LFB119:
  69              		.loc 1 31 0
  70              		.cfi_startproc
  71              		@ args = 0, pretend = 0, frame = 0
  72              		@ frame_needed = 0, uses_anonymous_args = 0
  73 0000 10B5     		push	{r4, lr}
  74              	.LCFI1:
  75              		.cfi_def_cfa_offset 8
  76              		.cfi_offset 4, -8
  77              		.cfi_offset 14, -4
  78              		.loc 1 32 0
  79 0002 074C     		ldr	r4, .L5
  80 0004 FF21     		movs	r1, #255
  81 0006 4FF0FF32 		mov	r2, #-1
  82 000a 2046     		mov	r0, r4
  83 000c FFF7FEFF 		bl	chOQPutTimeout
  84              	.LVL2:
  85              		.loc 1 33 0
  86 0010 2046     		mov	r0, r4
  87 0012 0321     		movs	r1, #3
  88 0014 4FF0FF32 		mov	r2, #-1
  89              		.loc 1 34 0
  90 0018 BDE81040 		pop	{r4, lr}
  91              		.loc 1 33 0
  92 001c FFF7FEBF 		b	chOQPutTimeout
  93              	.LVL3:
  94              	.L6:
  95              		.align	2
  96              	.L5:
  97 0020 30000000 		.word	SD2+48
  98              		.cfi_endproc
  99              	.LFE119:
 100              		.size	file_Mount, .-file_Mount
 101 0024 AFF30080 		.section	.text.media_Image,"ax",%progbits
 101      AFF30080 
 101      AFF30080 
 102              		.align	2
 103              		.p2align 4,,15
 104              		.global	media_Image
 105              		.thumb
 106              		.thumb_func
 107              		.type	media_Image, %function
 108              	media_Image:
 109              	.LFB120:
 110              		.loc 1 37 0
ARM GAS  C:\Users\DNIEL~1\AppData\Local\Temp\ccVdkgIc.s 			page 3


 111              		.cfi_startproc
 112              		@ args = 0, pretend = 0, frame = 0
 113              		@ frame_needed = 0, uses_anonymous_args = 0
 114              	.LVL4:
 115 0000 70B5     		push	{r4, r5, r6, lr}
 116              	.LCFI2:
 117              		.cfi_def_cfa_offset 16
 118              		.cfi_offset 4, -16
 119              		.cfi_offset 5, -12
 120              		.cfi_offset 6, -8
 121              		.cfi_offset 14, -4
 122              		.loc 1 38 0
 123 0002 154C     		ldr	r4, .L8
 124              		.loc 1 37 0
 125 0004 0646     		mov	r6, r0
 126 0006 0D46     		mov	r5, r1
 127              		.loc 1 38 0
 128 0008 4FF0FF32 		mov	r2, #-1
 129 000c FF21     		movs	r1, #255
 130              	.LVL5:
 131 000e 2046     		mov	r0, r4
 132              	.LVL6:
 133 0010 FFF7FEFF 		bl	chOQPutTimeout
 134              	.LVL7:
 135              		.loc 1 39 0
 136 0014 8B21     		movs	r1, #139
 137 0016 2046     		mov	r0, r4
 138 0018 4FF0FF32 		mov	r2, #-1
 139 001c FFF7FEFF 		bl	chOQPutTimeout
 140              	.LVL8:
 141              		.loc 1 40 0
 142 0020 C6F30721 		ubfx	r1, r6, #8, #8
 143 0024 2046     		mov	r0, r4
 144 0026 4FF0FF32 		mov	r2, #-1
 145 002a FFF7FEFF 		bl	chOQPutTimeout
 146              	.LVL9:
 147              		.loc 1 41 0
 148 002e F1B2     		uxtb	r1, r6
 149 0030 2046     		mov	r0, r4
 150 0032 4FF0FF32 		mov	r2, #-1
 151 0036 FFF7FEFF 		bl	chOQPutTimeout
 152              	.LVL10:
 153              		.loc 1 42 0
 154 003a C5F30721 		ubfx	r1, r5, #8, #8
 155 003e 2046     		mov	r0, r4
 156 0040 4FF0FF32 		mov	r2, #-1
 157 0044 FFF7FEFF 		bl	chOQPutTimeout
 158              	.LVL11:
 159              		.loc 1 43 0
 160 0048 2046     		mov	r0, r4
 161 004a E9B2     		uxtb	r1, r5
 162 004c 4FF0FF32 		mov	r2, #-1
 163              		.loc 1 44 0
 164 0050 BDE87040 		pop	{r4, r5, r6, lr}
 165              		.loc 1 43 0
 166 0054 FFF7FEBF 		b	chOQPutTimeout
 167              	.LVL12:
ARM GAS  C:\Users\DNIEL~1\AppData\Local\Temp\ccVdkgIc.s 			page 4


 168              	.L9:
 169              		.align	2
 170              	.L8:
 171 0058 30000000 		.word	SD2+48
 172              		.cfi_endproc
 173              	.LFE120:
 174              		.size	media_Image, .-media_Image
 175 005c AFF30080 		.section	.text.media_SetSector,"ax",%progbits
 176              		.align	2
 177              		.p2align 4,,15
 178              		.global	media_SetSector
 179              		.thumb
 180              		.thumb_func
 181              		.type	media_SetSector, %function
 182              	media_SetSector:
 183              	.LFB121:
 184              		.loc 1 47 0
 185              		.cfi_startproc
 186              		@ args = 0, pretend = 0, frame = 0
 187              		@ frame_needed = 0, uses_anonymous_args = 0
 188              	.LVL13:
 189 0000 70B5     		push	{r4, r5, r6, lr}
 190              	.LCFI3:
 191              		.cfi_def_cfa_offset 16
 192              		.cfi_offset 4, -16
 193              		.cfi_offset 5, -12
 194              		.cfi_offset 6, -8
 195              		.cfi_offset 14, -4
 196              		.loc 1 48 0
 197 0002 154C     		ldr	r4, .L11
 198              		.loc 1 47 0
 199 0004 0646     		mov	r6, r0
 200 0006 0D46     		mov	r5, r1
 201              		.loc 1 48 0
 202 0008 4FF0FF32 		mov	r2, #-1
 203 000c FF21     		movs	r1, #255
 204              	.LVL14:
 205 000e 2046     		mov	r0, r4
 206              	.LVL15:
 207 0010 FFF7FEFF 		bl	chOQPutTimeout
 208              	.LVL16:
 209              		.loc 1 49 0
 210 0014 9221     		movs	r1, #146
 211 0016 2046     		mov	r0, r4
 212 0018 4FF0FF32 		mov	r2, #-1
 213 001c FFF7FEFF 		bl	chOQPutTimeout
 214              	.LVL17:
 215              		.loc 1 50 0
 216 0020 C6F30721 		ubfx	r1, r6, #8, #8
 217 0024 2046     		mov	r0, r4
 218 0026 4FF0FF32 		mov	r2, #-1
 219 002a FFF7FEFF 		bl	chOQPutTimeout
 220              	.LVL18:
 221              		.loc 1 51 0
 222 002e F1B2     		uxtb	r1, r6
 223 0030 2046     		mov	r0, r4
 224 0032 4FF0FF32 		mov	r2, #-1
ARM GAS  C:\Users\DNIEL~1\AppData\Local\Temp\ccVdkgIc.s 			page 5


 225 0036 FFF7FEFF 		bl	chOQPutTimeout
 226              	.LVL19:
 227              		.loc 1 52 0
 228 003a C5F30721 		ubfx	r1, r5, #8, #8
 229 003e 2046     		mov	r0, r4
 230 0040 4FF0FF32 		mov	r2, #-1
 231 0044 FFF7FEFF 		bl	chOQPutTimeout
 232              	.LVL20:
 233              		.loc 1 53 0
 234 0048 2046     		mov	r0, r4
 235 004a E9B2     		uxtb	r1, r5
 236 004c 4FF0FF32 		mov	r2, #-1
 237              		.loc 1 54 0
 238 0050 BDE87040 		pop	{r4, r5, r6, lr}
 239              		.loc 1 53 0
 240 0054 FFF7FEBF 		b	chOQPutTimeout
 241              	.LVL21:
 242              	.L12:
 243              		.align	2
 244              	.L11:
 245 0058 30000000 		.word	SD2+48
 246              		.cfi_endproc
 247              	.LFE121:
 248              		.size	media_SetSector, .-media_SetSector
 249 005c AFF30080 		.section	.text.media_Video,"ax",%progbits
 250              		.align	2
 251              		.p2align 4,,15
 252              		.global	media_Video
 253              		.thumb
 254              		.thumb_func
 255              		.type	media_Video, %function
 256              	media_Video:
 257              	.LFB122:
 258              		.loc 1 57 0
 259              		.cfi_startproc
 260              		@ args = 0, pretend = 0, frame = 0
 261              		@ frame_needed = 0, uses_anonymous_args = 0
 262              	.LVL22:
 263 0000 70B5     		push	{r4, r5, r6, lr}
 264              	.LCFI4:
 265              		.cfi_def_cfa_offset 16
 266              		.cfi_offset 4, -16
 267              		.cfi_offset 5, -12
 268              		.cfi_offset 6, -8
 269              		.cfi_offset 14, -4
 270              		.loc 1 58 0
 271 0002 154C     		ldr	r4, .L14
 272              		.loc 1 57 0
 273 0004 0646     		mov	r6, r0
 274 0006 0D46     		mov	r5, r1
 275              		.loc 1 58 0
 276 0008 4FF0FF32 		mov	r2, #-1
 277 000c FF21     		movs	r1, #255
 278              	.LVL23:
 279 000e 2046     		mov	r0, r4
 280              	.LVL24:
 281 0010 FFF7FEFF 		bl	chOQPutTimeout
ARM GAS  C:\Users\DNIEL~1\AppData\Local\Temp\ccVdkgIc.s 			page 6


 282              	.LVL25:
 283              		.loc 1 59 0
 284 0014 9521     		movs	r1, #149
 285 0016 2046     		mov	r0, r4
 286 0018 4FF0FF32 		mov	r2, #-1
 287 001c FFF7FEFF 		bl	chOQPutTimeout
 288              	.LVL26:
 289              		.loc 1 60 0
 290 0020 C6F30721 		ubfx	r1, r6, #8, #8
 291 0024 2046     		mov	r0, r4
 292 0026 4FF0FF32 		mov	r2, #-1
 293 002a FFF7FEFF 		bl	chOQPutTimeout
 294              	.LVL27:
 295              		.loc 1 61 0
 296 002e F1B2     		uxtb	r1, r6
 297 0030 2046     		mov	r0, r4
 298 0032 4FF0FF32 		mov	r2, #-1
 299 0036 FFF7FEFF 		bl	chOQPutTimeout
 300              	.LVL28:
 301              		.loc 1 62 0
 302 003a C5F30721 		ubfx	r1, r5, #8, #8
 303 003e 2046     		mov	r0, r4
 304 0040 4FF0FF32 		mov	r2, #-1
 305 0044 FFF7FEFF 		bl	chOQPutTimeout
 306              	.LVL29:
 307              		.loc 1 63 0
 308 0048 2046     		mov	r0, r4
 309 004a E9B2     		uxtb	r1, r5
 310 004c 4FF0FF32 		mov	r2, #-1
 311              		.loc 1 64 0
 312 0050 BDE87040 		pop	{r4, r5, r6, lr}
 313              		.loc 1 63 0
 314 0054 FFF7FEBF 		b	chOQPutTimeout
 315              	.LVL30:
 316              	.L15:
 317              		.align	2
 318              	.L14:
 319 0058 30000000 		.word	SD2+48
 320              		.cfi_endproc
 321              	.LFE122:
 322              		.size	media_Video, .-media_Video
 323 005c AFF30080 		.section	.text.media_VideoFrame,"ax",%progbits
 324              		.align	2
 325              		.p2align 4,,15
 326              		.global	media_VideoFrame
 327              		.thumb
 328              		.thumb_func
 329              		.type	media_VideoFrame, %function
 330              	media_VideoFrame:
 331              	.LFB123:
 332              		.loc 1 67 0
 333              		.cfi_startproc
 334              		@ args = 0, pretend = 0, frame = 0
 335              		@ frame_needed = 0, uses_anonymous_args = 0
 336              	.LVL31:
 337 0000 F8B5     		push	{r3, r4, r5, r6, r7, lr}
 338              	.LCFI5:
ARM GAS  C:\Users\DNIEL~1\AppData\Local\Temp\ccVdkgIc.s 			page 7


 339              		.cfi_def_cfa_offset 24
 340              		.cfi_offset 3, -24
 341              		.cfi_offset 4, -20
 342              		.cfi_offset 5, -16
 343              		.cfi_offset 6, -12
 344              		.cfi_offset 7, -8
 345              		.cfi_offset 14, -4
 346              		.loc 1 68 0
 347 0002 1C4C     		ldr	r4, .L17
 348              		.loc 1 67 0
 349 0004 0746     		mov	r7, r0
 350 0006 0E46     		mov	r6, r1
 351 0008 1546     		mov	r5, r2
 352              		.loc 1 68 0
 353 000a FF21     		movs	r1, #255
 354              	.LVL32:
 355 000c 4FF0FF32 		mov	r2, #-1
 356              	.LVL33:
 357 0010 2046     		mov	r0, r4
 358              	.LVL34:
 359 0012 FFF7FEFF 		bl	chOQPutTimeout
 360              	.LVL35:
 361              		.loc 1 69 0
 362 0016 9421     		movs	r1, #148
 363 0018 2046     		mov	r0, r4
 364 001a 4FF0FF32 		mov	r2, #-1
 365 001e FFF7FEFF 		bl	chOQPutTimeout
 366              	.LVL36:
 367              		.loc 1 70 0
 368 0022 C7F30721 		ubfx	r1, r7, #8, #8
 369 0026 2046     		mov	r0, r4
 370 0028 4FF0FF32 		mov	r2, #-1
 371 002c FFF7FEFF 		bl	chOQPutTimeout
 372              	.LVL37:
 373              		.loc 1 71 0
 374 0030 F9B2     		uxtb	r1, r7
 375 0032 2046     		mov	r0, r4
 376 0034 4FF0FF32 		mov	r2, #-1
 377 0038 FFF7FEFF 		bl	chOQPutTimeout
 378              	.LVL38:
 379              		.loc 1 72 0
 380 003c C6F30721 		ubfx	r1, r6, #8, #8
 381 0040 2046     		mov	r0, r4
 382 0042 4FF0FF32 		mov	r2, #-1
 383 0046 FFF7FEFF 		bl	chOQPutTimeout
 384              	.LVL39:
 385              		.loc 1 73 0
 386 004a F1B2     		uxtb	r1, r6
 387 004c 2046     		mov	r0, r4
 388 004e 4FF0FF32 		mov	r2, #-1
 389 0052 FFF7FEFF 		bl	chOQPutTimeout
 390              	.LVL40:
 391              		.loc 1 74 0
 392 0056 C5F30721 		ubfx	r1, r5, #8, #8
 393 005a 2046     		mov	r0, r4
 394 005c 4FF0FF32 		mov	r2, #-1
 395 0060 FFF7FEFF 		bl	chOQPutTimeout
ARM GAS  C:\Users\DNIEL~1\AppData\Local\Temp\ccVdkgIc.s 			page 8


 396              	.LVL41:
 397              		.loc 1 75 0
 398 0064 2046     		mov	r0, r4
 399 0066 E9B2     		uxtb	r1, r5
 400 0068 4FF0FF32 		mov	r2, #-1
 401              		.loc 1 76 0
 402 006c BDE8F840 		pop	{r3, r4, r5, r6, r7, lr}
 403              		.loc 1 75 0
 404 0070 FFF7FEBF 		b	chOQPutTimeout
 405              	.LVL42:
 406              	.L18:
 407              		.align	2
 408              	.L17:
 409 0074 30000000 		.word	SD2+48
 410              		.cfi_endproc
 411              	.LFE123:
 412              		.size	media_VideoFrame, .-media_VideoFrame
 413 0078 AFF30080 		.section	.text.gfx_BGcolour,"ax",%progbits
 413      AFF30080 
 414              		.align	2
 415              		.p2align 4,,15
 416              		.global	gfx_BGcolour
 417              		.thumb
 418              		.thumb_func
 419              		.type	gfx_BGcolour, %function
 420              	gfx_BGcolour:
 421              	.LFB124:
 422              		.loc 1 79 0
 423              		.cfi_startproc
 424              		@ args = 0, pretend = 0, frame = 0
 425              		@ frame_needed = 0, uses_anonymous_args = 0
 426              	.LVL43:
 427 0000 38B5     		push	{r3, r4, r5, lr}
 428              	.LCFI6:
 429              		.cfi_def_cfa_offset 16
 430              		.cfi_offset 3, -16
 431              		.cfi_offset 4, -12
 432              		.cfi_offset 5, -8
 433              		.cfi_offset 14, -4
 434              		.loc 1 80 0
 435 0002 0E4C     		ldr	r4, .L20
 436              		.loc 1 79 0
 437 0004 0546     		mov	r5, r0
 438              		.loc 1 80 0
 439 0006 FF21     		movs	r1, #255
 440 0008 4FF0FF32 		mov	r2, #-1
 441 000c 2046     		mov	r0, r4
 442              	.LVL44:
 443 000e FFF7FEFF 		bl	chOQPutTimeout
 444              	.LVL45:
 445              		.loc 1 81 0
 446 0012 A421     		movs	r1, #164
 447 0014 2046     		mov	r0, r4
 448 0016 4FF0FF32 		mov	r2, #-1
 449 001a FFF7FEFF 		bl	chOQPutTimeout
 450              	.LVL46:
 451              		.loc 1 82 0
ARM GAS  C:\Users\DNIEL~1\AppData\Local\Temp\ccVdkgIc.s 			page 9


 452 001e C5F30721 		ubfx	r1, r5, #8, #8
 453 0022 2046     		mov	r0, r4
 454 0024 4FF0FF32 		mov	r2, #-1
 455 0028 FFF7FEFF 		bl	chOQPutTimeout
 456              	.LVL47:
 457              		.loc 1 83 0
 458 002c 2046     		mov	r0, r4
 459 002e E9B2     		uxtb	r1, r5
 460 0030 4FF0FF32 		mov	r2, #-1
 461              		.loc 1 84 0
 462 0034 BDE83840 		pop	{r3, r4, r5, lr}
 463              		.loc 1 83 0
 464 0038 FFF7FEBF 		b	chOQPutTimeout
 465              	.LVL48:
 466              	.L21:
 467              		.align	2
 468              	.L20:
 469 003c 30000000 		.word	SD2+48
 470              		.cfi_endproc
 471              	.LFE124:
 472              		.size	gfx_BGcolour, .-gfx_BGcolour
 473              		.section	.text.gfx_Contrast,"ax",%progbits
 474              		.align	2
 475              		.p2align 4,,15
 476              		.global	gfx_Contrast
 477              		.thumb
 478              		.thumb_func
 479              		.type	gfx_Contrast, %function
 480              	gfx_Contrast:
 481              	.LFB125:
 482              		.loc 1 87 0
 483              		.cfi_startproc
 484              		@ args = 0, pretend = 0, frame = 0
 485              		@ frame_needed = 0, uses_anonymous_args = 0
 486              	.LVL49:
 487 0000 38B5     		push	{r3, r4, r5, lr}
 488              	.LCFI7:
 489              		.cfi_def_cfa_offset 16
 490              		.cfi_offset 3, -16
 491              		.cfi_offset 4, -12
 492              		.cfi_offset 5, -8
 493              		.cfi_offset 14, -4
 494              		.loc 1 88 0
 495 0002 0E4C     		ldr	r4, .L23
 496              		.loc 1 87 0
 497 0004 0546     		mov	r5, r0
 498              		.loc 1 88 0
 499 0006 FF21     		movs	r1, #255
 500 0008 4FF0FF32 		mov	r2, #-1
 501 000c 2046     		mov	r0, r4
 502              	.LVL50:
 503 000e FFF7FEFF 		bl	chOQPutTimeout
 504              	.LVL51:
 505              		.loc 1 89 0
 506 0012 9C21     		movs	r1, #156
 507 0014 2046     		mov	r0, r4
 508 0016 4FF0FF32 		mov	r2, #-1
ARM GAS  C:\Users\DNIEL~1\AppData\Local\Temp\ccVdkgIc.s 			page 10


 509 001a FFF7FEFF 		bl	chOQPutTimeout
 510              	.LVL52:
 511              		.loc 1 90 0
 512 001e C5F30721 		ubfx	r1, r5, #8, #8
 513 0022 2046     		mov	r0, r4
 514 0024 4FF0FF32 		mov	r2, #-1
 515 0028 FFF7FEFF 		bl	chOQPutTimeout
 516              	.LVL53:
 517              		.loc 1 91 0
 518 002c 2046     		mov	r0, r4
 519 002e E9B2     		uxtb	r1, r5
 520 0030 4FF0FF32 		mov	r2, #-1
 521              		.loc 1 92 0
 522 0034 BDE83840 		pop	{r3, r4, r5, lr}
 523              		.loc 1 91 0
 524 0038 FFF7FEBF 		b	chOQPutTimeout
 525              	.LVL54:
 526              	.L24:
 527              		.align	2
 528              	.L23:
 529 003c 30000000 		.word	SD2+48
 530              		.cfi_endproc
 531              	.LFE125:
 532              		.size	gfx_Contrast, .-gfx_Contrast
 533              		.section	.text.gfx_Transparency,"ax",%progbits
 534              		.align	2
 535              		.p2align 4,,15
 536              		.global	gfx_Transparency
 537              		.thumb
 538              		.thumb_func
 539              		.type	gfx_Transparency, %function
 540              	gfx_Transparency:
 541              	.LFB126:
 542              		.loc 1 95 0
 543              		.cfi_startproc
 544              		@ args = 0, pretend = 0, frame = 0
 545              		@ frame_needed = 0, uses_anonymous_args = 0
 546              	.LVL55:
 547 0000 38B5     		push	{r3, r4, r5, lr}
 548              	.LCFI8:
 549              		.cfi_def_cfa_offset 16
 550              		.cfi_offset 3, -16
 551              		.cfi_offset 4, -12
 552              		.cfi_offset 5, -8
 553              		.cfi_offset 14, -4
 554              		.loc 1 96 0
 555 0002 0E4C     		ldr	r4, .L26
 556              		.loc 1 95 0
 557 0004 0546     		mov	r5, r0
 558              		.loc 1 96 0
 559 0006 FF21     		movs	r1, #255
 560 0008 4FF0FF32 		mov	r2, #-1
 561 000c 2046     		mov	r0, r4
 562              	.LVL56:
 563 000e FFF7FEFF 		bl	chOQPutTimeout
 564              	.LVL57:
 565              		.loc 1 97 0
ARM GAS  C:\Users\DNIEL~1\AppData\Local\Temp\ccVdkgIc.s 			page 11


 566 0012 A021     		movs	r1, #160
 567 0014 2046     		mov	r0, r4
 568 0016 4FF0FF32 		mov	r2, #-1
 569 001a FFF7FEFF 		bl	chOQPutTimeout
 570              	.LVL58:
 571              		.loc 1 98 0
 572 001e C5F30721 		ubfx	r1, r5, #8, #8
 573 0022 2046     		mov	r0, r4
 574 0024 4FF0FF32 		mov	r2, #-1
 575 0028 FFF7FEFF 		bl	chOQPutTimeout
 576              	.LVL59:
 577              		.loc 1 99 0
 578 002c 2046     		mov	r0, r4
 579 002e E9B2     		uxtb	r1, r5
 580 0030 4FF0FF32 		mov	r2, #-1
 581              		.loc 1 100 0
 582 0034 BDE83840 		pop	{r3, r4, r5, lr}
 583              		.loc 1 99 0
 584 0038 FFF7FEBF 		b	chOQPutTimeout
 585              	.LVL60:
 586              	.L27:
 587              		.align	2
 588              	.L26:
 589 003c 30000000 		.word	SD2+48
 590              		.cfi_endproc
 591              	.LFE126:
 592              		.size	gfx_Transparency, .-gfx_Transparency
 593              		.section	.text.gfx_TransparentColour,"ax",%progbits
 594              		.align	2
 595              		.p2align 4,,15
 596              		.global	gfx_TransparentColour
 597              		.thumb
 598              		.thumb_func
 599              		.type	gfx_TransparentColour, %function
 600              	gfx_TransparentColour:
 601              	.LFB127:
 602              		.loc 1 103 0
 603              		.cfi_startproc
 604              		@ args = 0, pretend = 0, frame = 0
 605              		@ frame_needed = 0, uses_anonymous_args = 0
 606              	.LVL61:
 607 0000 38B5     		push	{r3, r4, r5, lr}
 608              	.LCFI9:
 609              		.cfi_def_cfa_offset 16
 610              		.cfi_offset 3, -16
 611              		.cfi_offset 4, -12
 612              		.cfi_offset 5, -8
 613              		.cfi_offset 14, -4
 614              		.loc 1 104 0
 615 0002 0E4C     		ldr	r4, .L29
 616              		.loc 1 103 0
 617 0004 0546     		mov	r5, r0
 618              		.loc 1 104 0
 619 0006 FF21     		movs	r1, #255
 620 0008 4FF0FF32 		mov	r2, #-1
 621 000c 2046     		mov	r0, r4
 622              	.LVL62:
ARM GAS  C:\Users\DNIEL~1\AppData\Local\Temp\ccVdkgIc.s 			page 12


 623 000e FFF7FEFF 		bl	chOQPutTimeout
 624              	.LVL63:
 625              		.loc 1 105 0
 626 0012 A121     		movs	r1, #161
 627 0014 2046     		mov	r0, r4
 628 0016 4FF0FF32 		mov	r2, #-1
 629 001a FFF7FEFF 		bl	chOQPutTimeout
 630              	.LVL64:
 631              		.loc 1 106 0
 632 001e C5F30721 		ubfx	r1, r5, #8, #8
 633 0022 2046     		mov	r0, r4
 634 0024 4FF0FF32 		mov	r2, #-1
 635 0028 FFF7FEFF 		bl	chOQPutTimeout
 636              	.LVL65:
 637              		.loc 1 107 0
 638 002c 2046     		mov	r0, r4
 639 002e E9B2     		uxtb	r1, r5
 640 0030 4FF0FF32 		mov	r2, #-1
 641              		.loc 1 108 0
 642 0034 BDE83840 		pop	{r3, r4, r5, lr}
 643              		.loc 1 107 0
 644 0038 FFF7FEBF 		b	chOQPutTimeout
 645              	.LVL66:
 646              	.L30:
 647              		.align	2
 648              	.L29:
 649 003c 30000000 		.word	SD2+48
 650              		.cfi_endproc
 651              	.LFE127:
 652              		.size	gfx_TransparentColour, .-gfx_TransparentColour
 653              		.section	.text.file_LoadImageControl,"ax",%progbits
 654              		.align	2
 655              		.p2align 4,,15
 656              		.global	file_LoadImageControl
 657              		.thumb
 658              		.thumb_func
 659              		.type	file_LoadImageControl, %function
 660              	file_LoadImageControl:
 661              	.LFB128:
 662              		.loc 1 111 0
 663              		.cfi_startproc
 664              		@ args = 0, pretend = 0, frame = 0
 665              		@ frame_needed = 0, uses_anonymous_args = 0
 666              	.LVL67:
 667 0000 F8B5     		push	{r3, r4, r5, r6, r7, lr}
 668              	.LCFI10:
 669              		.cfi_def_cfa_offset 24
 670              		.cfi_offset 3, -24
 671              		.cfi_offset 4, -20
 672              		.cfi_offset 5, -16
 673              		.cfi_offset 6, -12
 674              		.cfi_offset 7, -8
 675              		.cfi_offset 14, -4
 676              		.loc 1 112 0
 677 0002 154C     		ldr	r4, .L32
 678              		.loc 1 111 0
 679 0004 1546     		mov	r5, r2
ARM GAS  C:\Users\DNIEL~1\AppData\Local\Temp\ccVdkgIc.s 			page 13


 680 0006 0746     		mov	r7, r0
 681 0008 0E46     		mov	r6, r1
 682              		.loc 1 112 0
 683 000a 4FF0FF32 		mov	r2, #-1
 684              	.LVL68:
 685 000e 0021     		movs	r1, #0
 686              	.LVL69:
 687 0010 2046     		mov	r0, r4
 688              	.LVL70:
 689 0012 FFF7FEFF 		bl	chOQPutTimeout
 690              	.LVL71:
 691              		.loc 1 113 0
 692 0016 0921     		movs	r1, #9
 693 0018 2046     		mov	r0, r4
 694 001a 4FF0FF32 		mov	r2, #-1
 695 001e FFF7FEFF 		bl	chOQPutTimeout
 696              	.LVL72:
 697              		.loc 1 114 0
 698 0022 F9B2     		uxtb	r1, r7
 699 0024 2046     		mov	r0, r4
 700 0026 4FF0FF32 		mov	r2, #-1
 701 002a FFF7FEFF 		bl	chOQPutTimeout
 702              	.LVL73:
 703              		.loc 1 115 0
 704 002e F1B2     		uxtb	r1, r6
 705 0030 2046     		mov	r0, r4
 706 0032 4FF0FF32 		mov	r2, #-1
 707 0036 FFF7FEFF 		bl	chOQPutTimeout
 708              	.LVL74:
 709              		.loc 1 116 0
 710 003a C5F30721 		ubfx	r1, r5, #8, #8
 711 003e 2046     		mov	r0, r4
 712 0040 4FF0FF32 		mov	r2, #-1
 713 0044 FFF7FEFF 		bl	chOQPutTimeout
 714              	.LVL75:
 715              		.loc 1 117 0
 716 0048 2046     		mov	r0, r4
 717 004a E9B2     		uxtb	r1, r5
 718 004c 4FF0FF32 		mov	r2, #-1
 719              		.loc 1 118 0
 720 0050 BDE8F840 		pop	{r3, r4, r5, r6, r7, lr}
 721              		.loc 1 117 0
 722 0054 FFF7FEBF 		b	chOQPutTimeout
 723              	.LVL76:
 724              	.L33:
 725              		.align	2
 726              	.L32:
 727 0058 30000000 		.word	SD2+48
 728              		.cfi_endproc
 729              	.LFE128:
 730              		.size	file_LoadImageControl, .-file_LoadImageControl
 731 005c AFF30080 		.section	.text.putstr,"ax",%progbits
 732              		.align	2
 733              		.p2align 4,,15
 734              		.global	putstr
 735              		.thumb
 736              		.thumb_func
ARM GAS  C:\Users\DNIEL~1\AppData\Local\Temp\ccVdkgIc.s 			page 14


 737              		.type	putstr, %function
 738              	putstr:
 739              	.LFB129:
 740              		.loc 1 121 0
 741              		.cfi_startproc
 742              		@ args = 0, pretend = 0, frame = 0
 743              		@ frame_needed = 0, uses_anonymous_args = 0
 744              	.LVL77:
 745 0000 38B5     		push	{r3, r4, r5, lr}
 746              	.LCFI11:
 747              		.cfi_def_cfa_offset 16
 748              		.cfi_offset 3, -16
 749              		.cfi_offset 4, -12
 750              		.cfi_offset 5, -8
 751              		.cfi_offset 14, -4
 752              		.loc 1 122 0
 753 0002 0B4C     		ldr	r4, .L35
 754              		.loc 1 121 0
 755 0004 0546     		mov	r5, r0
 756              		.loc 1 122 0
 757 0006 0021     		movs	r1, #0
 758 0008 4FF0FF32 		mov	r2, #-1
 759 000c 2046     		mov	r0, r4
 760              	.LVL78:
 761 000e FFF7FEFF 		bl	chOQPutTimeout
 762              	.LVL79:
 763              		.loc 1 123 0
 764 0012 1821     		movs	r1, #24
 765 0014 2046     		mov	r0, r4
 766 0016 4FF0FF32 		mov	r2, #-1
 767 001a FFF7FEFF 		bl	chOQPutTimeout
 768              	.LVL80:
 769              		.loc 1 124 0
 770 001e 2046     		mov	r0, r4
 771 0020 E9B2     		uxtb	r1, r5
 772 0022 4FF0FF32 		mov	r2, #-1
 773              		.loc 1 125 0
 774 0026 BDE83840 		pop	{r3, r4, r5, lr}
 775              		.loc 1 124 0
 776 002a FFF7FEBF 		b	chOQPutTimeout
 777              	.LVL81:
 778              	.L36:
 779 002e 00BF     		.align	2
 780              	.L35:
 781 0030 30000000 		.word	SD2+48
 782              		.cfi_endproc
 783              	.LFE129:
 784              		.size	putstr, .-putstr
 785 0034 AFF30080 		.section	.text.WriteChars,"ax",%progbits
 785      AFF30080 
 785      AFF30080 
 786              		.align	2
 787              		.p2align 4,,15
 788              		.global	WriteChars
 789              		.thumb
 790              		.thumb_func
 791              		.type	WriteChars, %function
ARM GAS  C:\Users\DNIEL~1\AppData\Local\Temp\ccVdkgIc.s 			page 15


 792              	WriteChars:
 793              	.LFB130:
 794              		.loc 1 128 0
 795              		.cfi_startproc
 796              		@ args = 0, pretend = 0, frame = 0
 797              		@ frame_needed = 0, uses_anonymous_args = 0
 798              	.LVL82:
 799 0000 38B5     		push	{r3, r4, r5, lr}
 800              	.LCFI12:
 801              		.cfi_def_cfa_offset 16
 802              		.cfi_offset 3, -16
 803              		.cfi_offset 4, -12
 804              		.cfi_offset 5, -8
 805              		.cfi_offset 14, -4
 806 0002 0546     		mov	r5, r0
 807              	.LVL83:
 808              	.L38:
 809              		.loc 1 132 0 discriminator 1
 810 0004 15F8014B 		ldrb	r4, [r5], #1	@ zero_extendqisi2
 811              	.LVL84:
 812              		.loc 1 133 0 discriminator 1
 813 0008 0448     		ldr	r0, .L41
 814 000a 2146     		mov	r1, r4
 815 000c 4FF0FF32 		mov	r2, #-1
 816 0010 FFF7FEFF 		bl	chOQPutTimeout
 817              	.LVL85:
 818              		.loc 1 134 0 discriminator 1
 819 0014 002C     		cmp	r4, #0
 820 0016 F5D1     		bne	.L38
 821              		.loc 1 135 0
 822 0018 38BD     		pop	{r3, r4, r5, pc}
 823              	.L42:
 824 001a 00BF     		.align	2
 825              	.L41:
 826 001c 30000000 		.word	SD2+48
 827              		.cfi_endproc
 828              	.LFE130:
 829              		.size	WriteChars, .-WriteChars
 830              		.text
 831              	.Letext0:
 832              		.file 2 "c:\\chibistudio\\tools\\gnu tools arm embedded\\4.7 2014q2\\bin\\../lib/gcc/arm-none-eabi
 833              		.file 3 "c:\\chibistudio\\tools\\gnu tools arm embedded\\4.7 2014q2\\bin\\../lib/gcc/arm-none-eabi
 834              		.file 4 "../../../ChibiOS/os/ports/GCC/ARMCMx/chtypes.h"
 835              		.file 5 "../../../ChibiOS/os/kernel/include/chlists.h"
 836              		.file 6 "../../../ChibiOS/os/kernel/include/chthreads.h"
 837              		.file 7 "../../../ChibiOS/os/ports/GCC/ARMCMx/chcore_v7m.h"
 838              		.file 8 "../../../ChibiOS/os/kernel/include/chmtx.h"
 839              		.file 9 "../../../ChibiOS/os/kernel/include/chevents.h"
 840              		.file 10 "../../../ChibiOS/os/kernel/include/chqueues.h"
 841              		.file 11 "../../../ChibiOS/os/hal/platforms/STM32F4xx/stm32f4xx.h"
 842              		.file 12 "../../../ChibiOS/os/hal/include/serial.h"
 843              		.file 13 "../../../ChibiOS/os/ports/common/ARMCMx/CMSIS/include/core_cm4.h"
 844              		.file 14 "../../../ChibiOS/os/hal/platforms/STM32/serial_lld.h"
 845              		.section	.debug_info,"",%progbits
 846              	.Ldebug_info0:
 847 0000 42120000 		.4byte	0x1242
 848 0004 0200     		.2byte	0x2
ARM GAS  C:\Users\DNIEL~1\AppData\Local\Temp\ccVdkgIc.s 			page 16


 849 0006 00000000 		.4byte	.Ldebug_abbrev0
 850 000a 04       		.byte	0x4
 851 000b 01       		.uleb128 0x1
 852 000c 6B020000 		.4byte	.LASF128
 853 0010 01       		.byte	0x1
 854 0011 EC040000 		.4byte	.LASF129
 855 0015 B0040000 		.4byte	.LASF130
 856 0019 00000000 		.4byte	.Ldebug_ranges0+0
 857 001d 00000000 		.4byte	0
 858 0021 00000000 		.4byte	0
 859 0025 00000000 		.4byte	.Ldebug_line0
 860 0029 02       		.uleb128 0x2
 861 002a 04       		.byte	0x4
 862 002b 05       		.byte	0x5
 863 002c 696E7400 		.ascii	"int\000"
 864 0030 03       		.uleb128 0x3
 865 0031 17000000 		.4byte	.LASF2
 866 0035 02       		.byte	0x2
 867 0036 D5       		.byte	0xd5
 868 0037 3B000000 		.4byte	0x3b
 869 003b 04       		.uleb128 0x4
 870 003c 04       		.byte	0x4
 871 003d 07       		.byte	0x7
 872 003e 4C010000 		.4byte	.LASF0
 873 0042 04       		.uleb128 0x4
 874 0043 01       		.byte	0x1
 875 0044 06       		.byte	0x6
 876 0045 A1000000 		.4byte	.LASF1
 877 0049 03       		.uleb128 0x3
 878 004a E4040000 		.4byte	.LASF3
 879 004e 03       		.byte	0x3
 880 004f 2A       		.byte	0x2a
 881 0050 54000000 		.4byte	0x54
 882 0054 04       		.uleb128 0x4
 883 0055 01       		.byte	0x1
 884 0056 08       		.byte	0x8
 885 0057 62030000 		.4byte	.LASF4
 886 005b 04       		.uleb128 0x4
 887 005c 02       		.byte	0x2
 888 005d 05       		.byte	0x5
 889 005e 8F030000 		.4byte	.LASF5
 890 0062 03       		.uleb128 0x3
 891 0063 5F010000 		.4byte	.LASF6
 892 0067 03       		.byte	0x3
 893 0068 36       		.byte	0x36
 894 0069 6D000000 		.4byte	0x6d
 895 006d 04       		.uleb128 0x4
 896 006e 02       		.byte	0x2
 897 006f 07       		.byte	0x7
 898 0070 AE010000 		.4byte	.LASF7
 899 0074 03       		.uleb128 0x3
 900 0075 5A030000 		.4byte	.LASF8
 901 0079 03       		.byte	0x3
 902 007a 4F       		.byte	0x4f
 903 007b 7F000000 		.4byte	0x7f
 904 007f 04       		.uleb128 0x4
 905 0080 04       		.byte	0x4
ARM GAS  C:\Users\DNIEL~1\AppData\Local\Temp\ccVdkgIc.s 			page 17


 906 0081 05       		.byte	0x5
 907 0082 DB000000 		.4byte	.LASF9
 908 0086 03       		.uleb128 0x3
 909 0087 0D040000 		.4byte	.LASF10
 910 008b 03       		.byte	0x3
 911 008c 50       		.byte	0x50
 912 008d 91000000 		.4byte	0x91
 913 0091 04       		.uleb128 0x4
 914 0092 04       		.byte	0x4
 915 0093 07       		.byte	0x7
 916 0094 2E040000 		.4byte	.LASF11
 917 0098 04       		.uleb128 0x4
 918 0099 08       		.byte	0x8
 919 009a 05       		.byte	0x5
 920 009b 93000000 		.4byte	.LASF12
 921 009f 04       		.uleb128 0x4
 922 00a0 08       		.byte	0x8
 923 00a1 07       		.byte	0x7
 924 00a2 39000000 		.4byte	.LASF13
 925 00a6 03       		.uleb128 0x3
 926 00a7 E3010000 		.4byte	.LASF14
 927 00ab 04       		.byte	0x4
 928 00ac 28       		.byte	0x28
 929 00ad 49000000 		.4byte	0x49
 930 00b1 03       		.uleb128 0x3
 931 00b2 E4000000 		.4byte	.LASF15
 932 00b6 04       		.byte	0x4
 933 00b7 29       		.byte	0x29
 934 00b8 49000000 		.4byte	0x49
 935 00bc 03       		.uleb128 0x3
 936 00bd ED020000 		.4byte	.LASF16
 937 00c1 04       		.byte	0x4
 938 00c2 2A       		.byte	0x2a
 939 00c3 49000000 		.4byte	0x49
 940 00c7 03       		.uleb128 0x3
 941 00c8 CB000000 		.4byte	.LASF17
 942 00cc 04       		.byte	0x4
 943 00cd 2B       		.byte	0x2b
 944 00ce 49000000 		.4byte	0x49
 945 00d2 03       		.uleb128 0x3
 946 00d3 38030000 		.4byte	.LASF18
 947 00d7 04       		.byte	0x4
 948 00d8 2C       		.byte	0x2c
 949 00d9 86000000 		.4byte	0x86
 950 00dd 03       		.uleb128 0x3
 951 00de C1010000 		.4byte	.LASF19
 952 00e2 04       		.byte	0x4
 953 00e3 2D       		.byte	0x2d
 954 00e4 74000000 		.4byte	0x74
 955 00e8 03       		.uleb128 0x3
 956 00e9 F7010000 		.4byte	.LASF20
 957 00ed 04       		.byte	0x4
 958 00ee 2F       		.byte	0x2f
 959 00ef 86000000 		.4byte	0x86
 960 00f3 03       		.uleb128 0x3
 961 00f4 85040000 		.4byte	.LASF21
 962 00f8 04       		.byte	0x4
ARM GAS  C:\Users\DNIEL~1\AppData\Local\Temp\ccVdkgIc.s 			page 18


 963 00f9 30       		.byte	0x30
 964 00fa 86000000 		.4byte	0x86
 965 00fe 03       		.uleb128 0x3
 966 00ff 51040000 		.4byte	.LASF22
 967 0103 04       		.byte	0x4
 968 0104 31       		.byte	0x31
 969 0105 86000000 		.4byte	0x86
 970 0109 03       		.uleb128 0x3
 971 010a D1030000 		.4byte	.LASF23
 972 010e 05       		.byte	0x5
 973 010f 23       		.byte	0x23
 974 0110 14010000 		.4byte	0x114
 975 0114 05       		.uleb128 0x5
 976 0115 D1030000 		.4byte	.LASF23
 977 0119 48       		.byte	0x48
 978 011a 06       		.byte	0x6
 979 011b 57       		.byte	0x57
 980 011c 39020000 		.4byte	0x239
 981 0120 06       		.uleb128 0x6
 982 0121 B2030000 		.4byte	.LASF24
 983 0125 06       		.byte	0x6
 984 0126 58       		.byte	0x58
 985 0127 5E020000 		.4byte	0x25e
 986 012b 02       		.byte	0x2
 987 012c 23       		.byte	0x23
 988 012d 00       		.uleb128 0
 989 012e 06       		.uleb128 0x6
 990 012f 27030000 		.4byte	.LASF25
 991 0133 06       		.byte	0x6
 992 0134 5A       		.byte	0x5a
 993 0135 5E020000 		.4byte	0x25e
 994 0139 02       		.byte	0x2
 995 013a 23       		.byte	0x23
 996 013b 04       		.uleb128 0x4
 997 013c 06       		.uleb128 0x6
 998 013d 7C000000 		.4byte	.LASF26
 999 0141 06       		.byte	0x6
 1000 0142 5C       		.byte	0x5c
 1001 0143 D2000000 		.4byte	0xd2
 1002 0147 02       		.byte	0x2
 1003 0148 23       		.byte	0x23
 1004 0149 08       		.uleb128 0x8
 1005 014a 06       		.uleb128 0x6
 1006 014b 37050000 		.4byte	.LASF27
 1007 014f 06       		.byte	0x6
 1008 0150 5D       		.byte	0x5d
 1009 0151 2C030000 		.4byte	0x32c
 1010 0155 02       		.byte	0x2
 1011 0156 23       		.byte	0x23
 1012 0157 0C       		.uleb128 0xc
 1013 0158 06       		.uleb128 0x6
 1014 0159 0C010000 		.4byte	.LASF28
 1015 015d 06       		.byte	0x6
 1016 015e 5F       		.byte	0x5f
 1017 015f 5E020000 		.4byte	0x25e
 1018 0163 02       		.byte	0x2
 1019 0164 23       		.byte	0x23
ARM GAS  C:\Users\DNIEL~1\AppData\Local\Temp\ccVdkgIc.s 			page 19


 1020 0165 10       		.uleb128 0x10
 1021 0166 06       		.uleb128 0x6
 1022 0167 B4020000 		.4byte	.LASF29
 1023 016b 06       		.byte	0x6
 1024 016c 60       		.byte	0x60
 1025 016d 5E020000 		.4byte	0x25e
 1026 0171 02       		.byte	0x2
 1027 0172 23       		.byte	0x23
 1028 0173 14       		.uleb128 0x14
 1029 0174 06       		.uleb128 0x6
 1030 0175 A1040000 		.4byte	.LASF30
 1031 0179 06       		.byte	0x6
 1032 017a 67       		.byte	0x67
 1033 017b 54040000 		.4byte	0x454
 1034 017f 02       		.byte	0x2
 1035 0180 23       		.byte	0x23
 1036 0181 18       		.uleb128 0x18
 1037 0182 06       		.uleb128 0x6
 1038 0183 99030000 		.4byte	.LASF31
 1039 0187 06       		.byte	0x6
 1040 0188 72       		.byte	0x72
 1041 0189 B1000000 		.4byte	0xb1
 1042 018d 02       		.byte	0x2
 1043 018e 23       		.byte	0x23
 1044 018f 1C       		.uleb128 0x1c
 1045 0190 06       		.uleb128 0x6
 1046 0191 B9030000 		.4byte	.LASF32
 1047 0195 06       		.byte	0x6
 1048 0196 76       		.byte	0x76
 1049 0197 A6000000 		.4byte	0xa6
 1050 019b 02       		.byte	0x2
 1051 019c 23       		.byte	0x23
 1052 019d 1D       		.uleb128 0x1d
 1053 019e 06       		.uleb128 0x6
 1054 019f ED000000 		.4byte	.LASF33
 1055 01a3 06       		.byte	0x6
 1056 01a4 7B       		.byte	0x7b
 1057 01a5 BC000000 		.4byte	0xbc
 1058 01a9 02       		.byte	0x2
 1059 01aa 23       		.byte	0x23
 1060 01ab 1E       		.uleb128 0x1e
 1061 01ac 06       		.uleb128 0x6
 1062 01ad A1030000 		.4byte	.LASF34
 1063 01b1 06       		.byte	0x6
 1064 01b2 81       		.byte	0x81
 1065 01b3 C7000000 		.4byte	0xc7
 1066 01b7 02       		.byte	0x2
 1067 01b8 23       		.byte	0x23
 1068 01b9 1F       		.uleb128 0x1f
 1069 01ba 06       		.uleb128 0x6
 1070 01bb 05010000 		.4byte	.LASF35
 1071 01bf 06       		.byte	0x6
 1072 01c0 88       		.byte	0x88
 1073 01c1 56030000 		.4byte	0x356
 1074 01c5 02       		.byte	0x2
 1075 01c6 23       		.byte	0x23
 1076 01c7 20       		.uleb128 0x20
ARM GAS  C:\Users\DNIEL~1\AppData\Local\Temp\ccVdkgIc.s 			page 20


 1077 01c8 07       		.uleb128 0x7
 1078 01c9 705F7500 		.ascii	"p_u\000"
 1079 01cd 06       		.byte	0x6
 1080 01ce AD       		.byte	0xad
 1081 01cf 1F040000 		.4byte	0x41f
 1082 01d3 02       		.byte	0x2
 1083 01d4 23       		.byte	0x23
 1084 01d5 24       		.uleb128 0x24
 1085 01d6 06       		.uleb128 0x6
 1086 01d7 3D050000 		.4byte	.LASF36
 1087 01db 06       		.byte	0x6
 1088 01dc B2       		.byte	0xb2
 1089 01dd 86020000 		.4byte	0x286
 1090 01e1 02       		.byte	0x2
 1091 01e2 23       		.byte	0x23
 1092 01e3 28       		.uleb128 0x28
 1093 01e4 06       		.uleb128 0x6
 1094 01e5 89010000 		.4byte	.LASF37
 1095 01e9 06       		.byte	0x6
 1096 01ea B8       		.byte	0xb8
 1097 01eb 64020000 		.4byte	0x264
 1098 01ef 02       		.byte	0x2
 1099 01f0 23       		.byte	0x23
 1100 01f1 2C       		.uleb128 0x2c
 1101 01f2 06       		.uleb128 0x6
 1102 01f3 22050000 		.4byte	.LASF38
 1103 01f7 06       		.byte	0x6
 1104 01f8 BC       		.byte	0xbc
 1105 01f9 DD000000 		.4byte	0xdd
 1106 01fd 02       		.byte	0x2
 1107 01fe 23       		.byte	0x23
 1108 01ff 34       		.uleb128 0x34
 1109 0200 06       		.uleb128 0x6
 1110 0201 D8030000 		.4byte	.LASF39
 1111 0205 06       		.byte	0x6
 1112 0206 C2       		.byte	0xc2
 1113 0207 E8000000 		.4byte	0xe8
 1114 020b 02       		.byte	0x2
 1115 020c 23       		.byte	0x23
 1116 020d 38       		.uleb128 0x38
 1117 020e 06       		.uleb128 0x6
 1118 020f 85030000 		.4byte	.LASF40
 1119 0213 06       		.byte	0x6
 1120 0214 C9       		.byte	0xc9
 1121 0215 66040000 		.4byte	0x466
 1122 0219 02       		.byte	0x2
 1123 021a 23       		.byte	0x23
 1124 021b 3C       		.uleb128 0x3c
 1125 021c 06       		.uleb128 0x6
 1126 021d 5B040000 		.4byte	.LASF41
 1127 0221 06       		.byte	0x6
 1128 0222 CD       		.byte	0xcd
 1129 0223 D2000000 		.4byte	0xd2
 1130 0227 02       		.byte	0x2
 1131 0228 23       		.byte	0x23
 1132 0229 40       		.uleb128 0x40
 1133 022a 06       		.uleb128 0x6
ARM GAS  C:\Users\DNIEL~1\AppData\Local\Temp\ccVdkgIc.s 			page 21


 1134 022b B2000000 		.4byte	.LASF42
 1135 022f 06       		.byte	0x6
 1136 0230 D3       		.byte	0xd3
 1137 0231 9C020000 		.4byte	0x29c
 1138 0235 02       		.byte	0x2
 1139 0236 23       		.byte	0x23
 1140 0237 44       		.uleb128 0x44
 1141 0238 00       		.byte	0
 1142 0239 08       		.uleb128 0x8
 1143 023a 08       		.byte	0x8
 1144 023b 05       		.byte	0x5
 1145 023c 5A       		.byte	0x5a
 1146 023d 5E020000 		.4byte	0x25e
 1147 0241 06       		.uleb128 0x6
 1148 0242 B2030000 		.4byte	.LASF24
 1149 0246 05       		.byte	0x5
 1150 0247 5B       		.byte	0x5b
 1151 0248 5E020000 		.4byte	0x25e
 1152 024c 02       		.byte	0x2
 1153 024d 23       		.byte	0x23
 1154 024e 00       		.uleb128 0
 1155 024f 06       		.uleb128 0x6
 1156 0250 27030000 		.4byte	.LASF25
 1157 0254 05       		.byte	0x5
 1158 0255 5D       		.byte	0x5d
 1159 0256 5E020000 		.4byte	0x25e
 1160 025a 02       		.byte	0x2
 1161 025b 23       		.byte	0x23
 1162 025c 04       		.uleb128 0x4
 1163 025d 00       		.byte	0
 1164 025e 09       		.uleb128 0x9
 1165 025f 04       		.byte	0x4
 1166 0260 09010000 		.4byte	0x109
 1167 0264 03       		.uleb128 0x3
 1168 0265 C8020000 		.4byte	.LASF43
 1169 0269 05       		.byte	0x5
 1170 026a 5F       		.byte	0x5f
 1171 026b 39020000 		.4byte	0x239
 1172 026f 08       		.uleb128 0x8
 1173 0270 04       		.byte	0x4
 1174 0271 05       		.byte	0x5
 1175 0272 64       		.byte	0x64
 1176 0273 86020000 		.4byte	0x286
 1177 0277 06       		.uleb128 0x6
 1178 0278 B2030000 		.4byte	.LASF24
 1179 027c 05       		.byte	0x5
 1180 027d 66       		.byte	0x66
 1181 027e 5E020000 		.4byte	0x25e
 1182 0282 02       		.byte	0x2
 1183 0283 23       		.byte	0x23
 1184 0284 00       		.uleb128 0
 1185 0285 00       		.byte	0
 1186 0286 03       		.uleb128 0x3
 1187 0287 EB010000 		.4byte	.LASF44
 1188 028b 05       		.byte	0x5
 1189 028c 69       		.byte	0x69
 1190 028d 6F020000 		.4byte	0x26f
ARM GAS  C:\Users\DNIEL~1\AppData\Local\Temp\ccVdkgIc.s 			page 22


 1191 0291 03       		.uleb128 0x3
 1192 0292 1F010000 		.4byte	.LASF45
 1193 0296 07       		.byte	0x7
 1194 0297 DE       		.byte	0xde
 1195 0298 9C020000 		.4byte	0x29c
 1196 029c 0A       		.uleb128 0xa
 1197 029d 04       		.byte	0x4
 1198 029e 0B       		.uleb128 0xb
 1199 029f 75040000 		.4byte	.LASF46
 1200 02a3 24       		.byte	0x24
 1201 02a4 07       		.byte	0x7
 1202 02a5 0501     		.2byte	0x105
 1203 02a7 2C030000 		.4byte	0x32c
 1204 02ab 0C       		.uleb128 0xc
 1205 02ac 723400   		.ascii	"r4\000"
 1206 02af 07       		.byte	0x7
 1207 02b0 1801     		.2byte	0x118
 1208 02b2 91020000 		.4byte	0x291
 1209 02b6 02       		.byte	0x2
 1210 02b7 23       		.byte	0x23
 1211 02b8 00       		.uleb128 0
 1212 02b9 0C       		.uleb128 0xc
 1213 02ba 723500   		.ascii	"r5\000"
 1214 02bd 07       		.byte	0x7
 1215 02be 1901     		.2byte	0x119
 1216 02c0 91020000 		.4byte	0x291
 1217 02c4 02       		.byte	0x2
 1218 02c5 23       		.byte	0x23
 1219 02c6 04       		.uleb128 0x4
 1220 02c7 0C       		.uleb128 0xc
 1221 02c8 723600   		.ascii	"r6\000"
 1222 02cb 07       		.byte	0x7
 1223 02cc 1A01     		.2byte	0x11a
 1224 02ce 91020000 		.4byte	0x291
 1225 02d2 02       		.byte	0x2
 1226 02d3 23       		.byte	0x23
 1227 02d4 08       		.uleb128 0x8
 1228 02d5 0C       		.uleb128 0xc
 1229 02d6 723700   		.ascii	"r7\000"
 1230 02d9 07       		.byte	0x7
 1231 02da 1B01     		.2byte	0x11b
 1232 02dc 91020000 		.4byte	0x291
 1233 02e0 02       		.byte	0x2
 1234 02e1 23       		.byte	0x23
 1235 02e2 0C       		.uleb128 0xc
 1236 02e3 0C       		.uleb128 0xc
 1237 02e4 723800   		.ascii	"r8\000"
 1238 02e7 07       		.byte	0x7
 1239 02e8 1C01     		.2byte	0x11c
 1240 02ea 91020000 		.4byte	0x291
 1241 02ee 02       		.byte	0x2
 1242 02ef 23       		.byte	0x23
 1243 02f0 10       		.uleb128 0x10
 1244 02f1 0C       		.uleb128 0xc
 1245 02f2 723900   		.ascii	"r9\000"
 1246 02f5 07       		.byte	0x7
 1247 02f6 1D01     		.2byte	0x11d
ARM GAS  C:\Users\DNIEL~1\AppData\Local\Temp\ccVdkgIc.s 			page 23


 1248 02f8 91020000 		.4byte	0x291
 1249 02fc 02       		.byte	0x2
 1250 02fd 23       		.byte	0x23
 1251 02fe 14       		.uleb128 0x14
 1252 02ff 0C       		.uleb128 0xc
 1253 0300 72313000 		.ascii	"r10\000"
 1254 0304 07       		.byte	0x7
 1255 0305 1E01     		.2byte	0x11e
 1256 0307 91020000 		.4byte	0x291
 1257 030b 02       		.byte	0x2
 1258 030c 23       		.byte	0x23
 1259 030d 18       		.uleb128 0x18
 1260 030e 0C       		.uleb128 0xc
 1261 030f 72313100 		.ascii	"r11\000"
 1262 0313 07       		.byte	0x7
 1263 0314 1F01     		.2byte	0x11f
 1264 0316 91020000 		.4byte	0x291
 1265 031a 02       		.byte	0x2
 1266 031b 23       		.byte	0x23
 1267 031c 1C       		.uleb128 0x1c
 1268 031d 0C       		.uleb128 0xc
 1269 031e 6C7200   		.ascii	"lr\000"
 1270 0321 07       		.byte	0x7
 1271 0322 2001     		.2byte	0x120
 1272 0324 91020000 		.4byte	0x291
 1273 0328 02       		.byte	0x2
 1274 0329 23       		.byte	0x23
 1275 032a 20       		.uleb128 0x20
 1276 032b 00       		.byte	0
 1277 032c 0B       		.uleb128 0xb
 1278 032d 6D040000 		.4byte	.LASF47
 1279 0331 04       		.byte	0x4
 1280 0332 07       		.byte	0x7
 1281 0333 2A01     		.2byte	0x12a
 1282 0335 49030000 		.4byte	0x349
 1283 0339 0C       		.uleb128 0xc
 1284 033a 72313300 		.ascii	"r13\000"
 1285 033e 07       		.byte	0x7
 1286 033f 2B01     		.2byte	0x12b
 1287 0341 49030000 		.4byte	0x349
 1288 0345 02       		.byte	0x2
 1289 0346 23       		.byte	0x23
 1290 0347 00       		.uleb128 0
 1291 0348 00       		.byte	0
 1292 0349 09       		.uleb128 0x9
 1293 034a 04       		.byte	0x4
 1294 034b 9E020000 		.4byte	0x29e
 1295 034f 04       		.uleb128 0x4
 1296 0350 04       		.byte	0x4
 1297 0351 07       		.byte	0x7
 1298 0352 49020000 		.4byte	.LASF48
 1299 0356 0D       		.uleb128 0xd
 1300 0357 FE000000 		.4byte	0xfe
 1301 035b 05       		.uleb128 0x5
 1302 035c 5C020000 		.4byte	.LASF49
 1303 0360 10       		.byte	0x10
 1304 0361 08       		.byte	0x8
ARM GAS  C:\Users\DNIEL~1\AppData\Local\Temp\ccVdkgIc.s 			page 24


 1305 0362 25       		.byte	0x25
 1306 0363 92030000 		.4byte	0x392
 1307 0367 06       		.uleb128 0x6
 1308 0368 BA000000 		.4byte	.LASF50
 1309 036c 08       		.byte	0x8
 1310 036d 26       		.byte	0x26
 1311 036e 64020000 		.4byte	0x264
 1312 0372 02       		.byte	0x2
 1313 0373 23       		.byte	0x23
 1314 0374 00       		.uleb128 0
 1315 0375 06       		.uleb128 0x6
 1316 0376 2F050000 		.4byte	.LASF51
 1317 037a 08       		.byte	0x8
 1318 037b 28       		.byte	0x28
 1319 037c 5E020000 		.4byte	0x25e
 1320 0380 02       		.byte	0x2
 1321 0381 23       		.byte	0x23
 1322 0382 08       		.uleb128 0x8
 1323 0383 06       		.uleb128 0x6
 1324 0384 4A040000 		.4byte	.LASF52
 1325 0388 08       		.byte	0x8
 1326 0389 2A       		.byte	0x2a
 1327 038a 92030000 		.4byte	0x392
 1328 038e 02       		.byte	0x2
 1329 038f 23       		.byte	0x23
 1330 0390 0C       		.uleb128 0xc
 1331 0391 00       		.byte	0
 1332 0392 09       		.uleb128 0x9
 1333 0393 04       		.byte	0x4
 1334 0394 5B030000 		.4byte	0x35b
 1335 0398 03       		.uleb128 0x3
 1336 0399 5C020000 		.4byte	.LASF49
 1337 039d 08       		.byte	0x8
 1338 039e 2C       		.byte	0x2c
 1339 039f 5B030000 		.4byte	0x35b
 1340 03a3 03       		.uleb128 0x3
 1341 03a4 F6040000 		.4byte	.LASF53
 1342 03a8 09       		.byte	0x9
 1343 03a9 25       		.byte	0x25
 1344 03aa AE030000 		.4byte	0x3ae
 1345 03ae 05       		.uleb128 0x5
 1346 03af F6040000 		.4byte	.LASF53
 1347 03b3 10       		.byte	0x10
 1348 03b4 09       		.byte	0x9
 1349 03b5 2A       		.byte	0x2a
 1350 03b6 F3030000 		.4byte	0x3f3
 1351 03ba 06       		.uleb128 0x6
 1352 03bb C1030000 		.4byte	.LASF54
 1353 03bf 09       		.byte	0x9
 1354 03c0 2B       		.byte	0x2b
 1355 03c1 F3030000 		.4byte	0x3f3
 1356 03c5 02       		.byte	0x2
 1357 03c6 23       		.byte	0x23
 1358 03c7 00       		.uleb128 0
 1359 03c8 06       		.uleb128 0x6
 1360 03c9 70030000 		.4byte	.LASF55
 1361 03cd 09       		.byte	0x9
ARM GAS  C:\Users\DNIEL~1\AppData\Local\Temp\ccVdkgIc.s 			page 25


 1362 03ce 2E       		.byte	0x2e
 1363 03cf 5E020000 		.4byte	0x25e
 1364 03d3 02       		.byte	0x2
 1365 03d4 23       		.byte	0x23
 1366 03d5 04       		.uleb128 0x4
 1367 03d6 06       		.uleb128 0x6
 1368 03d7 E5020000 		.4byte	.LASF56
 1369 03db 09       		.byte	0x9
 1370 03dc 30       		.byte	0x30
 1371 03dd E8000000 		.4byte	0xe8
 1372 03e1 02       		.byte	0x2
 1373 03e2 23       		.byte	0x23
 1374 03e3 08       		.uleb128 0x8
 1375 03e4 06       		.uleb128 0x6
 1376 03e5 7C030000 		.4byte	.LASF57
 1377 03e9 09       		.byte	0x9
 1378 03ea 33       		.byte	0x33
 1379 03eb F3000000 		.4byte	0xf3
 1380 03ef 02       		.byte	0x2
 1381 03f0 23       		.byte	0x23
 1382 03f1 0C       		.uleb128 0xc
 1383 03f2 00       		.byte	0
 1384 03f3 09       		.uleb128 0x9
 1385 03f4 04       		.byte	0x4
 1386 03f5 A3030000 		.4byte	0x3a3
 1387 03f9 05       		.uleb128 0x5
 1388 03fa 3A010000 		.4byte	.LASF58
 1389 03fe 04       		.byte	0x4
 1390 03ff 09       		.byte	0x9
 1391 0400 3A       		.byte	0x3a
 1392 0401 14040000 		.4byte	0x414
 1393 0405 06       		.uleb128 0x6
 1394 0406 A8040000 		.4byte	.LASF59
 1395 040a 09       		.byte	0x9
 1396 040b 3B       		.byte	0x3b
 1397 040c F3030000 		.4byte	0x3f3
 1398 0410 02       		.byte	0x2
 1399 0411 23       		.byte	0x23
 1400 0412 00       		.uleb128 0
 1401 0413 00       		.byte	0
 1402 0414 03       		.uleb128 0x3
 1403 0415 3A010000 		.4byte	.LASF58
 1404 0419 09       		.byte	0x9
 1405 041a 3E       		.byte	0x3e
 1406 041b F9030000 		.4byte	0x3f9
 1407 041f 0E       		.uleb128 0xe
 1408 0420 04       		.byte	0x4
 1409 0421 06       		.byte	0x6
 1410 0422 8F       		.byte	0x8f
 1411 0423 54040000 		.4byte	0x454
 1412 0427 0F       		.uleb128 0xf
 1413 0428 1E000000 		.4byte	.LASF60
 1414 042c 06       		.byte	0x6
 1415 042d 96       		.byte	0x96
 1416 042e DD000000 		.4byte	0xdd
 1417 0432 0F       		.uleb128 0xf
 1418 0433 50000000 		.4byte	.LASF61
ARM GAS  C:\Users\DNIEL~1\AppData\Local\Temp\ccVdkgIc.s 			page 26


 1419 0437 06       		.byte	0x6
 1420 0438 9D       		.byte	0x9d
 1421 0439 DD000000 		.4byte	0xdd
 1422 043d 0F       		.uleb128 0xf
 1423 043e 04050000 		.4byte	.LASF62
 1424 0442 06       		.byte	0x6
 1425 0443 A4       		.byte	0xa4
 1426 0444 9C020000 		.4byte	0x29c
 1427 0448 0F       		.uleb128 0xf
 1428 0449 AB030000 		.4byte	.LASF63
 1429 044d 06       		.byte	0x6
 1430 044e AB       		.byte	0xab
 1431 044f E8000000 		.4byte	0xe8
 1432 0453 00       		.byte	0
 1433 0454 09       		.uleb128 0x9
 1434 0455 04       		.byte	0x4
 1435 0456 5A040000 		.4byte	0x45a
 1436 045a 10       		.uleb128 0x10
 1437 045b 5F040000 		.4byte	0x45f
 1438 045f 04       		.uleb128 0x4
 1439 0460 01       		.byte	0x1
 1440 0461 08       		.byte	0x8
 1441 0462 45040000 		.4byte	.LASF64
 1442 0466 09       		.uleb128 0x9
 1443 0467 04       		.byte	0x4
 1444 0468 98030000 		.4byte	0x398
 1445 046c 09       		.uleb128 0x9
 1446 046d 04       		.byte	0x4
 1447 046e 72040000 		.4byte	0x472
 1448 0472 11       		.uleb128 0x11
 1449 0473 01       		.byte	0x1
 1450 0474 DD000000 		.4byte	0xdd
 1451 0478 82040000 		.4byte	0x482
 1452 047c 12       		.uleb128 0x12
 1453 047d 9C020000 		.4byte	0x29c
 1454 0481 00       		.byte	0
 1455 0482 03       		.uleb128 0x3
 1456 0483 18020000 		.4byte	.LASF65
 1457 0487 0A       		.byte	0xa
 1458 0488 30       		.byte	0x30
 1459 0489 8D040000 		.4byte	0x48d
 1460 048d 05       		.uleb128 0x5
 1461 048e 18020000 		.4byte	.LASF65
 1462 0492 24       		.byte	0x24
 1463 0493 0A       		.byte	0xa
 1464 0494 3E       		.byte	0x3e
 1465 0495 0A050000 		.4byte	0x50a
 1466 0499 06       		.uleb128 0x6
 1467 049a 89000000 		.4byte	.LASF66
 1468 049e 0A       		.byte	0xa
 1469 049f 3F       		.byte	0x3f
 1470 04a0 64020000 		.4byte	0x264
 1471 04a4 02       		.byte	0x2
 1472 04a5 23       		.byte	0x23
 1473 04a6 00       		.uleb128 0
 1474 04a7 06       		.uleb128 0x6
 1475 04a8 52020000 		.4byte	.LASF67
ARM GAS  C:\Users\DNIEL~1\AppData\Local\Temp\ccVdkgIc.s 			page 27


 1476 04ac 0A       		.byte	0xa
 1477 04ad 40       		.byte	0x40
 1478 04ae 30000000 		.4byte	0x30
 1479 04b2 02       		.byte	0x2
 1480 04b3 23       		.byte	0x23
 1481 04b4 08       		.uleb128 0x8
 1482 04b5 06       		.uleb128 0x6
 1483 04b6 F4000000 		.4byte	.LASF68
 1484 04ba 0A       		.byte	0xa
 1485 04bb 41       		.byte	0x41
 1486 04bc 2D050000 		.4byte	0x52d
 1487 04c0 02       		.byte	0x2
 1488 04c1 23       		.byte	0x23
 1489 04c2 0C       		.uleb128 0xc
 1490 04c3 06       		.uleb128 0x6
 1491 04c4 9B040000 		.4byte	.LASF69
 1492 04c8 0A       		.byte	0xa
 1493 04c9 42       		.byte	0x42
 1494 04ca 2D050000 		.4byte	0x52d
 1495 04ce 02       		.byte	0x2
 1496 04cf 23       		.byte	0x23
 1497 04d0 10       		.uleb128 0x10
 1498 04d1 06       		.uleb128 0x6
 1499 04d2 FD000000 		.4byte	.LASF70
 1500 04d6 0A       		.byte	0xa
 1501 04d7 44       		.byte	0x44
 1502 04d8 2D050000 		.4byte	0x52d
 1503 04dc 02       		.byte	0x2
 1504 04dd 23       		.byte	0x23
 1505 04de 14       		.uleb128 0x14
 1506 04df 06       		.uleb128 0x6
 1507 04e0 40030000 		.4byte	.LASF71
 1508 04e4 0A       		.byte	0xa
 1509 04e5 45       		.byte	0x45
 1510 04e6 2D050000 		.4byte	0x52d
 1511 04ea 02       		.byte	0x2
 1512 04eb 23       		.byte	0x23
 1513 04ec 18       		.uleb128 0x18
 1514 04ed 06       		.uleb128 0x6
 1515 04ee DB040000 		.4byte	.LASF72
 1516 04f2 0A       		.byte	0xa
 1517 04f3 46       		.byte	0x46
 1518 04f4 0A050000 		.4byte	0x50a
 1519 04f8 02       		.byte	0x2
 1520 04f9 23       		.byte	0x23
 1521 04fa 1C       		.uleb128 0x1c
 1522 04fb 06       		.uleb128 0x6
 1523 04fc 28050000 		.4byte	.LASF73
 1524 0500 0A       		.byte	0xa
 1525 0501 47       		.byte	0x47
 1526 0502 9C020000 		.4byte	0x29c
 1527 0506 02       		.byte	0x2
 1528 0507 23       		.byte	0x23
 1529 0508 20       		.uleb128 0x20
 1530 0509 00       		.byte	0
 1531 050a 03       		.uleb128 0x3
 1532 050b 0E020000 		.4byte	.LASF74
ARM GAS  C:\Users\DNIEL~1\AppData\Local\Temp\ccVdkgIc.s 			page 28


 1533 050f 0A       		.byte	0xa
 1534 0510 33       		.byte	0x33
 1535 0511 15050000 		.4byte	0x515
 1536 0515 09       		.uleb128 0x9
 1537 0516 04       		.byte	0x4
 1538 0517 1B050000 		.4byte	0x51b
 1539 051b 13       		.uleb128 0x13
 1540 051c 01       		.byte	0x1
 1541 051d 27050000 		.4byte	0x527
 1542 0521 12       		.uleb128 0x12
 1543 0522 27050000 		.4byte	0x527
 1544 0526 00       		.byte	0
 1545 0527 09       		.uleb128 0x9
 1546 0528 04       		.byte	0x4
 1547 0529 82040000 		.4byte	0x482
 1548 052d 09       		.uleb128 0x9
 1549 052e 04       		.byte	0x4
 1550 052f 49000000 		.4byte	0x49
 1551 0533 03       		.uleb128 0x3
 1552 0534 03020000 		.4byte	.LASF75
 1553 0538 0A       		.byte	0xa
 1554 0539 7B       		.byte	0x7b
 1555 053a 82040000 		.4byte	0x482
 1556 053e 03       		.uleb128 0x3
 1557 053f 2D000000 		.4byte	.LASF76
 1558 0543 0A       		.byte	0xa
 1559 0544 EE       		.byte	0xee
 1560 0545 82040000 		.4byte	0x482
 1561 0549 11       		.uleb128 0x11
 1562 054a 01       		.byte	0x1
 1563 054b 30000000 		.4byte	0x30
 1564 054f 63050000 		.4byte	0x563
 1565 0553 12       		.uleb128 0x12
 1566 0554 9C020000 		.4byte	0x29c
 1567 0558 12       		.uleb128 0x12
 1568 0559 63050000 		.4byte	0x563
 1569 055d 12       		.uleb128 0x12
 1570 055e 30000000 		.4byte	0x30
 1571 0562 00       		.byte	0
 1572 0563 09       		.uleb128 0x9
 1573 0564 04       		.byte	0x4
 1574 0565 69050000 		.4byte	0x569
 1575 0569 10       		.uleb128 0x10
 1576 056a 49000000 		.4byte	0x49
 1577 056e 09       		.uleb128 0x9
 1578 056f 04       		.byte	0x4
 1579 0570 49050000 		.4byte	0x549
 1580 0574 11       		.uleb128 0x11
 1581 0575 01       		.byte	0x1
 1582 0576 30000000 		.4byte	0x30
 1583 057a 8E050000 		.4byte	0x58e
 1584 057e 12       		.uleb128 0x12
 1585 057f 9C020000 		.4byte	0x29c
 1586 0583 12       		.uleb128 0x12
 1587 0584 2D050000 		.4byte	0x52d
 1588 0588 12       		.uleb128 0x12
 1589 0589 30000000 		.4byte	0x30
ARM GAS  C:\Users\DNIEL~1\AppData\Local\Temp\ccVdkgIc.s 			page 29


 1590 058d 00       		.byte	0
 1591 058e 09       		.uleb128 0x9
 1592 058f 04       		.byte	0x4
 1593 0590 74050000 		.4byte	0x574
 1594 0594 11       		.uleb128 0x11
 1595 0595 01       		.byte	0x1
 1596 0596 DD000000 		.4byte	0xdd
 1597 059a A9050000 		.4byte	0x5a9
 1598 059e 12       		.uleb128 0x12
 1599 059f 9C020000 		.4byte	0x29c
 1600 05a3 12       		.uleb128 0x12
 1601 05a4 49000000 		.4byte	0x49
 1602 05a8 00       		.byte	0
 1603 05a9 09       		.uleb128 0x9
 1604 05aa 04       		.byte	0x4
 1605 05ab 94050000 		.4byte	0x594
 1606 05af 0D       		.uleb128 0xd
 1607 05b0 62000000 		.4byte	0x62
 1608 05b4 0D       		.uleb128 0xd
 1609 05b5 74000000 		.4byte	0x74
 1610 05b9 14       		.uleb128 0x14
 1611 05ba 1C       		.byte	0x1c
 1612 05bb 0B       		.byte	0xb
 1613 05bc 9303     		.2byte	0x393
 1614 05be 93060000 		.4byte	0x693
 1615 05c2 0C       		.uleb128 0xc
 1616 05c3 535200   		.ascii	"SR\000"
 1617 05c6 0B       		.byte	0xb
 1618 05c7 9503     		.2byte	0x395
 1619 05c9 AF050000 		.4byte	0x5af
 1620 05cd 02       		.byte	0x2
 1621 05ce 23       		.byte	0x23
 1622 05cf 00       		.uleb128 0
 1623 05d0 15       		.uleb128 0x15
 1624 05d1 F5020000 		.4byte	.LASF77
 1625 05d5 0B       		.byte	0xb
 1626 05d6 9603     		.2byte	0x396
 1627 05d8 62000000 		.4byte	0x62
 1628 05dc 02       		.byte	0x2
 1629 05dd 23       		.byte	0x23
 1630 05de 02       		.uleb128 0x2
 1631 05df 0C       		.uleb128 0xc
 1632 05e0 445200   		.ascii	"DR\000"
 1633 05e3 0B       		.byte	0xb
 1634 05e4 9703     		.2byte	0x397
 1635 05e6 AF050000 		.4byte	0x5af
 1636 05ea 02       		.byte	0x2
 1637 05eb 23       		.byte	0x23
 1638 05ec 04       		.uleb128 0x4
 1639 05ed 15       		.uleb128 0x15
 1640 05ee FF020000 		.4byte	.LASF78
 1641 05f2 0B       		.byte	0xb
 1642 05f3 9803     		.2byte	0x398
 1643 05f5 62000000 		.4byte	0x62
 1644 05f9 02       		.byte	0x2
 1645 05fa 23       		.byte	0x23
 1646 05fb 06       		.uleb128 0x6
ARM GAS  C:\Users\DNIEL~1\AppData\Local\Temp\ccVdkgIc.s 			page 30


 1647 05fc 0C       		.uleb128 0xc
 1648 05fd 42525200 		.ascii	"BRR\000"
 1649 0601 0B       		.byte	0xb
 1650 0602 9903     		.2byte	0x399
 1651 0604 AF050000 		.4byte	0x5af
 1652 0608 02       		.byte	0x2
 1653 0609 23       		.byte	0x23
 1654 060a 08       		.uleb128 0x8
 1655 060b 15       		.uleb128 0x15
 1656 060c 09030000 		.4byte	.LASF79
 1657 0610 0B       		.byte	0xb
 1658 0611 9A03     		.2byte	0x39a
 1659 0613 62000000 		.4byte	0x62
 1660 0617 02       		.byte	0x2
 1661 0618 23       		.byte	0x23
 1662 0619 0A       		.uleb128 0xa
 1663 061a 0C       		.uleb128 0xc
 1664 061b 43523100 		.ascii	"CR1\000"
 1665 061f 0B       		.byte	0xb
 1666 0620 9B03     		.2byte	0x39b
 1667 0622 AF050000 		.4byte	0x5af
 1668 0626 02       		.byte	0x2
 1669 0627 23       		.byte	0x23
 1670 0628 0C       		.uleb128 0xc
 1671 0629 15       		.uleb128 0x15
 1672 062a 13030000 		.4byte	.LASF80
 1673 062e 0B       		.byte	0xb
 1674 062f 9C03     		.2byte	0x39c
 1675 0631 62000000 		.4byte	0x62
 1676 0635 02       		.byte	0x2
 1677 0636 23       		.byte	0x23
 1678 0637 0E       		.uleb128 0xe
 1679 0638 0C       		.uleb128 0xc
 1680 0639 43523200 		.ascii	"CR2\000"
 1681 063d 0B       		.byte	0xb
 1682 063e 9D03     		.2byte	0x39d
 1683 0640 AF050000 		.4byte	0x5af
 1684 0644 02       		.byte	0x2
 1685 0645 23       		.byte	0x23
 1686 0646 10       		.uleb128 0x10
 1687 0647 15       		.uleb128 0x15
 1688 0648 1D030000 		.4byte	.LASF81
 1689 064c 0B       		.byte	0xb
 1690 064d 9E03     		.2byte	0x39e
 1691 064f 62000000 		.4byte	0x62
 1692 0653 02       		.byte	0x2
 1693 0654 23       		.byte	0x23
 1694 0655 12       		.uleb128 0x12
 1695 0656 0C       		.uleb128 0xc
 1696 0657 43523300 		.ascii	"CR3\000"
 1697 065b 0B       		.byte	0xb
 1698 065c 9F03     		.2byte	0x39f
 1699 065e AF050000 		.4byte	0x5af
 1700 0662 02       		.byte	0x2
 1701 0663 23       		.byte	0x23
 1702 0664 14       		.uleb128 0x14
 1703 0665 15       		.uleb128 0x15
ARM GAS  C:\Users\DNIEL~1\AppData\Local\Temp\ccVdkgIc.s 			page 31


 1704 0666 03040000 		.4byte	.LASF82
 1705 066a 0B       		.byte	0xb
 1706 066b A003     		.2byte	0x3a0
 1707 066d 62000000 		.4byte	0x62
 1708 0671 02       		.byte	0x2
 1709 0672 23       		.byte	0x23
 1710 0673 16       		.uleb128 0x16
 1711 0674 15       		.uleb128 0x15
 1712 0675 AD000000 		.4byte	.LASF83
 1713 0679 0B       		.byte	0xb
 1714 067a A103     		.2byte	0x3a1
 1715 067c AF050000 		.4byte	0x5af
 1716 0680 02       		.byte	0x2
 1717 0681 23       		.byte	0x23
 1718 0682 18       		.uleb128 0x18
 1719 0683 15       		.uleb128 0x15
 1720 0684 2E030000 		.4byte	.LASF84
 1721 0688 0B       		.byte	0xb
 1722 0689 A203     		.2byte	0x3a2
 1723 068b 62000000 		.4byte	0x62
 1724 068f 02       		.byte	0x2
 1725 0690 23       		.byte	0x23
 1726 0691 1A       		.uleb128 0x1a
 1727 0692 00       		.byte	0
 1728 0693 16       		.uleb128 0x16
 1729 0694 CE010000 		.4byte	.LASF85
 1730 0698 0B       		.byte	0xb
 1731 0699 A303     		.2byte	0x3a3
 1732 069b B9050000 		.4byte	0x5b9
 1733 069f 11       		.uleb128 0x11
 1734 06a0 01       		.byte	0x1
 1735 06a1 DD000000 		.4byte	0xdd
 1736 06a5 B9060000 		.4byte	0x6b9
 1737 06a9 12       		.uleb128 0x12
 1738 06aa 9C020000 		.4byte	0x29c
 1739 06ae 12       		.uleb128 0x12
 1740 06af 49000000 		.4byte	0x49
 1741 06b3 12       		.uleb128 0x12
 1742 06b4 FE000000 		.4byte	0xfe
 1743 06b8 00       		.byte	0
 1744 06b9 09       		.uleb128 0x9
 1745 06ba 04       		.byte	0x4
 1746 06bb 9F060000 		.4byte	0x69f
 1747 06bf 11       		.uleb128 0x11
 1748 06c0 01       		.byte	0x1
 1749 06c1 DD000000 		.4byte	0xdd
 1750 06c5 D4060000 		.4byte	0x6d4
 1751 06c9 12       		.uleb128 0x12
 1752 06ca 9C020000 		.4byte	0x29c
 1753 06ce 12       		.uleb128 0x12
 1754 06cf FE000000 		.4byte	0xfe
 1755 06d3 00       		.byte	0
 1756 06d4 09       		.uleb128 0x9
 1757 06d5 04       		.byte	0x4
 1758 06d6 BF060000 		.4byte	0x6bf
 1759 06da 11       		.uleb128 0x11
 1760 06db 01       		.byte	0x1
ARM GAS  C:\Users\DNIEL~1\AppData\Local\Temp\ccVdkgIc.s 			page 32


 1761 06dc 30000000 		.4byte	0x30
 1762 06e0 F9060000 		.4byte	0x6f9
 1763 06e4 12       		.uleb128 0x12
 1764 06e5 9C020000 		.4byte	0x29c
 1765 06e9 12       		.uleb128 0x12
 1766 06ea 63050000 		.4byte	0x563
 1767 06ee 12       		.uleb128 0x12
 1768 06ef 30000000 		.4byte	0x30
 1769 06f3 12       		.uleb128 0x12
 1770 06f4 FE000000 		.4byte	0xfe
 1771 06f8 00       		.byte	0
 1772 06f9 09       		.uleb128 0x9
 1773 06fa 04       		.byte	0x4
 1774 06fb DA060000 		.4byte	0x6da
 1775 06ff 11       		.uleb128 0x11
 1776 0700 01       		.byte	0x1
 1777 0701 30000000 		.4byte	0x30
 1778 0705 1E070000 		.4byte	0x71e
 1779 0709 12       		.uleb128 0x12
 1780 070a 9C020000 		.4byte	0x29c
 1781 070e 12       		.uleb128 0x12
 1782 070f 2D050000 		.4byte	0x52d
 1783 0713 12       		.uleb128 0x12
 1784 0714 30000000 		.4byte	0x30
 1785 0718 12       		.uleb128 0x12
 1786 0719 FE000000 		.4byte	0xfe
 1787 071d 00       		.byte	0
 1788 071e 09       		.uleb128 0x9
 1789 071f 04       		.byte	0x4
 1790 0720 FF060000 		.4byte	0x6ff
 1791 0724 17       		.uleb128 0x17
 1792 0725 01       		.byte	0x1
 1793 0726 0C       		.byte	0xc
 1794 0727 5D       		.byte	0x5d
 1795 0728 3F070000 		.4byte	0x73f
 1796 072c 18       		.uleb128 0x18
 1797 072d E3030000 		.4byte	.LASF86
 1798 0731 00       		.sleb128 0
 1799 0732 18       		.uleb128 0x18
 1800 0733 C9030000 		.4byte	.LASF87
 1801 0737 01       		.sleb128 1
 1802 0738 18       		.uleb128 0x18
 1803 0739 7C040000 		.4byte	.LASF88
 1804 073d 02       		.sleb128 2
 1805 073e 00       		.byte	0
 1806 073f 03       		.uleb128 0x3
 1807 0740 91040000 		.4byte	.LASF89
 1808 0744 0C       		.byte	0xc
 1809 0745 61       		.byte	0x61
 1810 0746 24070000 		.4byte	0x724
 1811 074a 03       		.uleb128 0x3
 1812 074b 21040000 		.4byte	.LASF90
 1813 074f 0C       		.byte	0xc
 1814 0750 66       		.byte	0x66
 1815 0751 55070000 		.4byte	0x755
 1816 0755 05       		.uleb128 0x5
 1817 0756 21040000 		.4byte	.LASF90
ARM GAS  C:\Users\DNIEL~1\AppData\Local\Temp\ccVdkgIc.s 			page 33


 1818 075a 78       		.byte	0x78
 1819 075b 0C       		.byte	0xc
 1820 075c 80       		.byte	0x80
 1821 075d D0070000 		.4byte	0x7d0
 1822 0761 07       		.uleb128 0x7
 1823 0762 766D7400 		.ascii	"vmt\000"
 1824 0766 0C       		.byte	0xc
 1825 0767 82       		.byte	0x82
 1826 0768 4D080000 		.4byte	0x84d
 1827 076c 02       		.byte	0x2
 1828 076d 23       		.byte	0x23
 1829 076e 00       		.uleb128 0
 1830 076f 06       		.uleb128 0x6
 1831 0770 A8010000 		.4byte	.LASF91
 1832 0774 0C       		.byte	0xc
 1833 0775 83       		.byte	0x83
 1834 0776 14040000 		.4byte	0x414
 1835 077a 02       		.byte	0x2
 1836 077b 23       		.byte	0x23
 1837 077c 04       		.uleb128 0x4
 1838 077d 06       		.uleb128 0x6
 1839 077e D5000000 		.4byte	.LASF92
 1840 0782 0C       		.byte	0xc
 1841 0783 83       		.byte	0x83
 1842 0784 3F070000 		.4byte	0x73f
 1843 0788 02       		.byte	0x2
 1844 0789 23       		.byte	0x23
 1845 078a 08       		.uleb128 0x8
 1846 078b 06       		.uleb128 0x6
 1847 078c 82010000 		.4byte	.LASF93
 1848 0790 0C       		.byte	0xc
 1849 0791 83       		.byte	0x83
 1850 0792 33050000 		.4byte	0x533
 1851 0796 02       		.byte	0x2
 1852 0797 23       		.byte	0x23
 1853 0798 0C       		.uleb128 0xc
 1854 0799 06       		.uleb128 0x6
 1855 079a C7010000 		.4byte	.LASF94
 1856 079e 0C       		.byte	0xc
 1857 079f 83       		.byte	0x83
 1858 07a0 3E050000 		.4byte	0x53e
 1859 07a4 02       		.byte	0x2
 1860 07a5 23       		.byte	0x23
 1861 07a6 30       		.uleb128 0x30
 1862 07a7 07       		.uleb128 0x7
 1863 07a8 696200   		.ascii	"ib\000"
 1864 07ab 0C       		.byte	0xc
 1865 07ac 83       		.byte	0x83
 1866 07ad 58080000 		.4byte	0x858
 1867 07b1 02       		.byte	0x2
 1868 07b2 23       		.byte	0x23
 1869 07b3 54       		.uleb128 0x54
 1870 07b4 07       		.uleb128 0x7
 1871 07b5 6F6200   		.ascii	"ob\000"
 1872 07b8 0C       		.byte	0xc
 1873 07b9 83       		.byte	0x83
 1874 07ba 58080000 		.4byte	0x858
ARM GAS  C:\Users\DNIEL~1\AppData\Local\Temp\ccVdkgIc.s 			page 34


 1875 07be 02       		.byte	0x2
 1876 07bf 23       		.byte	0x23
 1877 07c0 64       		.uleb128 0x64
 1878 07c1 06       		.uleb128 0x6
 1879 07c2 46010000 		.4byte	.LASF95
 1880 07c6 0C       		.byte	0xc
 1881 07c7 83       		.byte	0x83
 1882 07c8 68080000 		.4byte	0x868
 1883 07cc 02       		.byte	0x2
 1884 07cd 23       		.byte	0x23
 1885 07ce 74       		.uleb128 0x74
 1886 07cf 00       		.byte	0
 1887 07d0 05       		.uleb128 0x5
 1888 07d1 12050000 		.4byte	.LASF96
 1889 07d5 20       		.byte	0x20
 1890 07d6 0C       		.byte	0xc
 1891 07d7 75       		.byte	0x75
 1892 07d8 4D080000 		.4byte	0x84d
 1893 07dc 06       		.uleb128 0x6
 1894 07dd 31020000 		.4byte	.LASF97
 1895 07e1 0C       		.byte	0xc
 1896 07e2 76       		.byte	0x76
 1897 07e3 6E050000 		.4byte	0x56e
 1898 07e7 02       		.byte	0x2
 1899 07e8 23       		.byte	0x23
 1900 07e9 00       		.uleb128 0
 1901 07ea 06       		.uleb128 0x6
 1902 07eb 40040000 		.4byte	.LASF98
 1903 07ef 0C       		.byte	0xc
 1904 07f0 76       		.byte	0x76
 1905 07f1 8E050000 		.4byte	0x58e
 1906 07f5 02       		.byte	0x2
 1907 07f6 23       		.byte	0x23
 1908 07f7 04       		.uleb128 0x4
 1909 07f8 07       		.uleb128 0x7
 1910 07f9 70757400 		.ascii	"put\000"
 1911 07fd 0C       		.byte	0xc
 1912 07fe 76       		.byte	0x76
 1913 07ff A9050000 		.4byte	0x5a9
 1914 0803 02       		.byte	0x2
 1915 0804 23       		.byte	0x23
 1916 0805 08       		.uleb128 0x8
 1917 0806 07       		.uleb128 0x7
 1918 0807 67657400 		.ascii	"get\000"
 1919 080b 0C       		.byte	0xc
 1920 080c 76       		.byte	0x76
 1921 080d 6C040000 		.4byte	0x46c
 1922 0811 02       		.byte	0x2
 1923 0812 23       		.byte	0x23
 1924 0813 0C       		.uleb128 0xc
 1925 0814 06       		.uleb128 0x6
 1926 0815 37020000 		.4byte	.LASF99
 1927 0819 0C       		.byte	0xc
 1928 081a 76       		.byte	0x76
 1929 081b B9060000 		.4byte	0x6b9
 1930 081f 02       		.byte	0x2
 1931 0820 23       		.byte	0x23
ARM GAS  C:\Users\DNIEL~1\AppData\Local\Temp\ccVdkgIc.s 			page 35


 1932 0821 10       		.uleb128 0x10
 1933 0822 06       		.uleb128 0x6
 1934 0823 94010000 		.4byte	.LASF100
 1935 0827 0C       		.byte	0xc
 1936 0828 76       		.byte	0x76
 1937 0829 D4060000 		.4byte	0x6d4
 1938 082d 02       		.byte	0x2
 1939 082e 23       		.byte	0x23
 1940 082f 14       		.uleb128 0x14
 1941 0830 06       		.uleb128 0x6
 1942 0831 DC010000 		.4byte	.LASF101
 1943 0835 0C       		.byte	0xc
 1944 0836 76       		.byte	0x76
 1945 0837 F9060000 		.4byte	0x6f9
 1946 083b 02       		.byte	0x2
 1947 083c 23       		.byte	0x23
 1948 083d 18       		.uleb128 0x18
 1949 083e 06       		.uleb128 0x6
 1950 083f 83000000 		.4byte	.LASF102
 1951 0843 0C       		.byte	0xc
 1952 0844 76       		.byte	0x76
 1953 0845 1E070000 		.4byte	0x71e
 1954 0849 02       		.byte	0x2
 1955 084a 23       		.byte	0x23
 1956 084b 1C       		.uleb128 0x1c
 1957 084c 00       		.byte	0
 1958 084d 09       		.uleb128 0x9
 1959 084e 04       		.byte	0x4
 1960 084f 53080000 		.4byte	0x853
 1961 0853 10       		.uleb128 0x10
 1962 0854 D0070000 		.4byte	0x7d0
 1963 0858 19       		.uleb128 0x19
 1964 0859 49000000 		.4byte	0x49
 1965 085d 68080000 		.4byte	0x868
 1966 0861 1A       		.uleb128 0x1a
 1967 0862 4F030000 		.4byte	0x34f
 1968 0866 0F       		.byte	0xf
 1969 0867 00       		.byte	0
 1970 0868 09       		.uleb128 0x9
 1971 0869 04       		.byte	0x4
 1972 086a 93060000 		.4byte	0x693
 1973 086e 09       		.uleb128 0x9
 1974 086f 04       		.byte	0x4
 1975 0870 3E050000 		.4byte	0x53e
 1976 0874 09       		.uleb128 0x9
 1977 0875 04       		.byte	0x4
 1978 0876 5F040000 		.4byte	0x45f
 1979 087a 1B       		.uleb128 0x1b
 1980 087b 01       		.byte	0x1
 1981 087c 25000000 		.4byte	.LASF103
 1982 0880 01       		.byte	0x1
 1983 0881 18       		.byte	0x18
 1984 0882 01       		.byte	0x1
 1985 0883 00000000 		.4byte	.LFB118
 1986 0887 24000000 		.4byte	.LFE118
 1987 088b 00000000 		.4byte	.LLST0
 1988 088f 01       		.byte	0x1
ARM GAS  C:\Users\DNIEL~1\AppData\Local\Temp\ccVdkgIc.s 			page 36


 1989 0890 D2080000 		.4byte	0x8d2
 1990 0894 1C       		.uleb128 0x1c
 1991 0895 10000000 		.4byte	.LVL0
 1992 0899 26120000 		.4byte	0x1226
 1993 089d B4080000 		.4byte	0x8b4
 1994 08a1 1D       		.uleb128 0x1d
 1995 08a2 01       		.byte	0x1
 1996 08a3 52       		.byte	0x52
 1997 08a4 02       		.byte	0x2
 1998 08a5 09       		.byte	0x9
 1999 08a6 FF       		.byte	0xff
 2000 08a7 1D       		.uleb128 0x1d
 2001 08a8 01       		.byte	0x1
 2002 08a9 51       		.byte	0x51
 2003 08aa 02       		.byte	0x2
 2004 08ab 09       		.byte	0x9
 2005 08ac FF       		.byte	0xff
 2006 08ad 1D       		.uleb128 0x1d
 2007 08ae 01       		.byte	0x1
 2008 08af 50       		.byte	0x50
 2009 08b0 02       		.byte	0x2
 2010 08b1 74       		.byte	0x74
 2011 08b2 00       		.sleb128 0
 2012 08b3 00       		.byte	0
 2013 08b4 1E       		.uleb128 0x1e
 2014 08b5 20000000 		.4byte	.LVL1
 2015 08b9 01       		.byte	0x1
 2016 08ba 26120000 		.4byte	0x1226
 2017 08be 1D       		.uleb128 0x1d
 2018 08bf 01       		.byte	0x1
 2019 08c0 52       		.byte	0x52
 2020 08c1 02       		.byte	0x2
 2021 08c2 09       		.byte	0x9
 2022 08c3 FF       		.byte	0xff
 2023 08c4 1D       		.uleb128 0x1d
 2024 08c5 01       		.byte	0x1
 2025 08c6 51       		.byte	0x51
 2026 08c7 02       		.byte	0x2
 2027 08c8 09       		.byte	0x9
 2028 08c9 CD       		.byte	0xcd
 2029 08ca 1D       		.uleb128 0x1d
 2030 08cb 01       		.byte	0x1
 2031 08cc 50       		.byte	0x50
 2032 08cd 02       		.byte	0x2
 2033 08ce 74       		.byte	0x74
 2034 08cf 00       		.sleb128 0
 2035 08d0 00       		.byte	0
 2036 08d1 00       		.byte	0
 2037 08d2 1B       		.uleb128 0x1b
 2038 08d3 01       		.byte	0x1
 2039 08d4 14010000 		.4byte	.LASF104
 2040 08d8 01       		.byte	0x1
 2041 08d9 1E       		.byte	0x1e
 2042 08da 01       		.byte	0x1
 2043 08db 00000000 		.4byte	.LFB119
 2044 08df 24000000 		.4byte	.LFE119
 2045 08e3 20000000 		.4byte	.LLST1
ARM GAS  C:\Users\DNIEL~1\AppData\Local\Temp\ccVdkgIc.s 			page 37


 2046 08e7 01       		.byte	0x1
 2047 08e8 29090000 		.4byte	0x929
 2048 08ec 1C       		.uleb128 0x1c
 2049 08ed 10000000 		.4byte	.LVL2
 2050 08f1 26120000 		.4byte	0x1226
 2051 08f5 0C090000 		.4byte	0x90c
 2052 08f9 1D       		.uleb128 0x1d
 2053 08fa 01       		.byte	0x1
 2054 08fb 52       		.byte	0x52
 2055 08fc 02       		.byte	0x2
 2056 08fd 09       		.byte	0x9
 2057 08fe FF       		.byte	0xff
 2058 08ff 1D       		.uleb128 0x1d
 2059 0900 01       		.byte	0x1
 2060 0901 51       		.byte	0x51
 2061 0902 02       		.byte	0x2
 2062 0903 09       		.byte	0x9
 2063 0904 FF       		.byte	0xff
 2064 0905 1D       		.uleb128 0x1d
 2065 0906 01       		.byte	0x1
 2066 0907 50       		.byte	0x50
 2067 0908 02       		.byte	0x2
 2068 0909 74       		.byte	0x74
 2069 090a 00       		.sleb128 0
 2070 090b 00       		.byte	0
 2071 090c 1E       		.uleb128 0x1e
 2072 090d 20000000 		.4byte	.LVL3
 2073 0911 01       		.byte	0x1
 2074 0912 26120000 		.4byte	0x1226
 2075 0916 1D       		.uleb128 0x1d
 2076 0917 01       		.byte	0x1
 2077 0918 52       		.byte	0x52
 2078 0919 02       		.byte	0x2
 2079 091a 09       		.byte	0x9
 2080 091b FF       		.byte	0xff
 2081 091c 1D       		.uleb128 0x1d
 2082 091d 01       		.byte	0x1
 2083 091e 51       		.byte	0x51
 2084 091f 01       		.byte	0x1
 2085 0920 33       		.byte	0x33
 2086 0921 1D       		.uleb128 0x1d
 2087 0922 01       		.byte	0x1
 2088 0923 50       		.byte	0x50
 2089 0924 02       		.byte	0x2
 2090 0925 74       		.byte	0x74
 2091 0926 00       		.sleb128 0
 2092 0927 00       		.byte	0
 2093 0928 00       		.byte	0
 2094 0929 1B       		.uleb128 0x1b
 2095 092a 01       		.byte	0x1
 2096 092b 48030000 		.4byte	.LASF105
 2097 092f 01       		.byte	0x1
 2098 0930 24       		.byte	0x24
 2099 0931 01       		.byte	0x1
 2100 0932 00000000 		.4byte	.LFB120
 2101 0936 5C000000 		.4byte	.LFE120
 2102 093a 40000000 		.4byte	.LLST2
ARM GAS  C:\Users\DNIEL~1\AppData\Local\Temp\ccVdkgIc.s 			page 38


 2103 093e 01       		.byte	0x1
 2104 093f 270A0000 		.4byte	0xa27
 2105 0943 1F       		.uleb128 0x1f
 2106 0944 5800     		.ascii	"X\000"
 2107 0946 01       		.byte	0x1
 2108 0947 24       		.byte	0x24
 2109 0948 29000000 		.4byte	0x29
 2110 094c 60000000 		.4byte	.LLST3
 2111 0950 1F       		.uleb128 0x1f
 2112 0951 5900     		.ascii	"Y\000"
 2113 0953 01       		.byte	0x1
 2114 0954 24       		.byte	0x24
 2115 0955 29000000 		.4byte	0x29
 2116 0959 7E000000 		.4byte	.LLST4
 2117 095d 1C       		.uleb128 0x1c
 2118 095e 14000000 		.4byte	.LVL7
 2119 0962 26120000 		.4byte	0x1226
 2120 0966 7D090000 		.4byte	0x97d
 2121 096a 1D       		.uleb128 0x1d
 2122 096b 01       		.byte	0x1
 2123 096c 52       		.byte	0x52
 2124 096d 02       		.byte	0x2
 2125 096e 09       		.byte	0x9
 2126 096f FF       		.byte	0xff
 2127 0970 1D       		.uleb128 0x1d
 2128 0971 01       		.byte	0x1
 2129 0972 51       		.byte	0x51
 2130 0973 02       		.byte	0x2
 2131 0974 09       		.byte	0x9
 2132 0975 FF       		.byte	0xff
 2133 0976 1D       		.uleb128 0x1d
 2134 0977 01       		.byte	0x1
 2135 0978 50       		.byte	0x50
 2136 0979 02       		.byte	0x2
 2137 097a 74       		.byte	0x74
 2138 097b 00       		.sleb128 0
 2139 097c 00       		.byte	0
 2140 097d 1C       		.uleb128 0x1c
 2141 097e 20000000 		.4byte	.LVL8
 2142 0982 26120000 		.4byte	0x1226
 2143 0986 9D090000 		.4byte	0x99d
 2144 098a 1D       		.uleb128 0x1d
 2145 098b 01       		.byte	0x1
 2146 098c 52       		.byte	0x52
 2147 098d 02       		.byte	0x2
 2148 098e 09       		.byte	0x9
 2149 098f FF       		.byte	0xff
 2150 0990 1D       		.uleb128 0x1d
 2151 0991 01       		.byte	0x1
 2152 0992 51       		.byte	0x51
 2153 0993 02       		.byte	0x2
 2154 0994 09       		.byte	0x9
 2155 0995 8B       		.byte	0x8b
 2156 0996 1D       		.uleb128 0x1d
 2157 0997 01       		.byte	0x1
 2158 0998 50       		.byte	0x50
 2159 0999 02       		.byte	0x2
ARM GAS  C:\Users\DNIEL~1\AppData\Local\Temp\ccVdkgIc.s 			page 39


 2160 099a 74       		.byte	0x74
 2161 099b 00       		.sleb128 0
 2162 099c 00       		.byte	0
 2163 099d 1C       		.uleb128 0x1c
 2164 099e 2E000000 		.4byte	.LVL9
 2165 09a2 26120000 		.4byte	0x1226
 2166 09a6 C3090000 		.4byte	0x9c3
 2167 09aa 1D       		.uleb128 0x1d
 2168 09ab 01       		.byte	0x1
 2169 09ac 52       		.byte	0x52
 2170 09ad 02       		.byte	0x2
 2171 09ae 09       		.byte	0x9
 2172 09af FF       		.byte	0xff
 2173 09b0 1D       		.uleb128 0x1d
 2174 09b1 01       		.byte	0x1
 2175 09b2 51       		.byte	0x51
 2176 09b3 08       		.byte	0x8
 2177 09b4 76       		.byte	0x76
 2178 09b5 00       		.sleb128 0
 2179 09b6 09       		.byte	0x9
 2180 09b7 F4       		.byte	0xf4
 2181 09b8 24       		.byte	0x24
 2182 09b9 09       		.byte	0x9
 2183 09ba FC       		.byte	0xfc
 2184 09bb 25       		.byte	0x25
 2185 09bc 1D       		.uleb128 0x1d
 2186 09bd 01       		.byte	0x1
 2187 09be 50       		.byte	0x50
 2188 09bf 02       		.byte	0x2
 2189 09c0 74       		.byte	0x74
 2190 09c1 00       		.sleb128 0
 2191 09c2 00       		.byte	0
 2192 09c3 1C       		.uleb128 0x1c
 2193 09c4 3A000000 		.4byte	.LVL10
 2194 09c8 26120000 		.4byte	0x1226
 2195 09cc E3090000 		.4byte	0x9e3
 2196 09d0 1D       		.uleb128 0x1d
 2197 09d1 01       		.byte	0x1
 2198 09d2 52       		.byte	0x52
 2199 09d3 02       		.byte	0x2
 2200 09d4 09       		.byte	0x9
 2201 09d5 FF       		.byte	0xff
 2202 09d6 1D       		.uleb128 0x1d
 2203 09d7 01       		.byte	0x1
 2204 09d8 51       		.byte	0x51
 2205 09d9 02       		.byte	0x2
 2206 09da 76       		.byte	0x76
 2207 09db 00       		.sleb128 0
 2208 09dc 1D       		.uleb128 0x1d
 2209 09dd 01       		.byte	0x1
 2210 09de 50       		.byte	0x50
 2211 09df 02       		.byte	0x2
 2212 09e0 74       		.byte	0x74
 2213 09e1 00       		.sleb128 0
 2214 09e2 00       		.byte	0
 2215 09e3 1C       		.uleb128 0x1c
 2216 09e4 48000000 		.4byte	.LVL11
ARM GAS  C:\Users\DNIEL~1\AppData\Local\Temp\ccVdkgIc.s 			page 40


 2217 09e8 26120000 		.4byte	0x1226
 2218 09ec 090A0000 		.4byte	0xa09
 2219 09f0 1D       		.uleb128 0x1d
 2220 09f1 01       		.byte	0x1
 2221 09f2 52       		.byte	0x52
 2222 09f3 02       		.byte	0x2
 2223 09f4 09       		.byte	0x9
 2224 09f5 FF       		.byte	0xff
 2225 09f6 1D       		.uleb128 0x1d
 2226 09f7 01       		.byte	0x1
 2227 09f8 51       		.byte	0x51
 2228 09f9 08       		.byte	0x8
 2229 09fa 75       		.byte	0x75
 2230 09fb 00       		.sleb128 0
 2231 09fc 09       		.byte	0x9
 2232 09fd F4       		.byte	0xf4
 2233 09fe 24       		.byte	0x24
 2234 09ff 09       		.byte	0x9
 2235 0a00 FC       		.byte	0xfc
 2236 0a01 25       		.byte	0x25
 2237 0a02 1D       		.uleb128 0x1d
 2238 0a03 01       		.byte	0x1
 2239 0a04 50       		.byte	0x50
 2240 0a05 02       		.byte	0x2
 2241 0a06 74       		.byte	0x74
 2242 0a07 00       		.sleb128 0
 2243 0a08 00       		.byte	0
 2244 0a09 1E       		.uleb128 0x1e
 2245 0a0a 58000000 		.4byte	.LVL12
 2246 0a0e 01       		.byte	0x1
 2247 0a0f 26120000 		.4byte	0x1226
 2248 0a13 1D       		.uleb128 0x1d
 2249 0a14 01       		.byte	0x1
 2250 0a15 52       		.byte	0x52
 2251 0a16 02       		.byte	0x2
 2252 0a17 09       		.byte	0x9
 2253 0a18 FF       		.byte	0xff
 2254 0a19 1D       		.uleb128 0x1d
 2255 0a1a 01       		.byte	0x1
 2256 0a1b 51       		.byte	0x51
 2257 0a1c 02       		.byte	0x2
 2258 0a1d 75       		.byte	0x75
 2259 0a1e 00       		.sleb128 0
 2260 0a1f 1D       		.uleb128 0x1d
 2261 0a20 01       		.byte	0x1
 2262 0a21 50       		.byte	0x50
 2263 0a22 02       		.byte	0x2
 2264 0a23 74       		.byte	0x74
 2265 0a24 00       		.sleb128 0
 2266 0a25 00       		.byte	0
 2267 0a26 00       		.byte	0
 2268 0a27 1B       		.uleb128 0x1b
 2269 0a28 01       		.byte	0x1
 2270 0a29 D5020000 		.4byte	.LASF106
 2271 0a2d 01       		.byte	0x1
 2272 0a2e 2E       		.byte	0x2e
 2273 0a2f 01       		.byte	0x1
ARM GAS  C:\Users\DNIEL~1\AppData\Local\Temp\ccVdkgIc.s 			page 41


 2274 0a30 00000000 		.4byte	.LFB121
 2275 0a34 5C000000 		.4byte	.LFE121
 2276 0a38 9C000000 		.4byte	.LLST5
 2277 0a3c 01       		.byte	0x1
 2278 0a3d 290B0000 		.4byte	0xb29
 2279 0a41 20       		.uleb128 0x20
 2280 0a42 99010000 		.4byte	.LASF107
 2281 0a46 01       		.byte	0x1
 2282 0a47 2E       		.byte	0x2e
 2283 0a48 29000000 		.4byte	0x29
 2284 0a4c BC000000 		.4byte	.LLST6
 2285 0a50 20       		.uleb128 0x20
 2286 0a51 0B050000 		.4byte	.LASF108
 2287 0a55 01       		.byte	0x1
 2288 0a56 2E       		.byte	0x2e
 2289 0a57 29000000 		.4byte	0x29
 2290 0a5b DA000000 		.4byte	.LLST7
 2291 0a5f 1C       		.uleb128 0x1c
 2292 0a60 14000000 		.4byte	.LVL16
 2293 0a64 26120000 		.4byte	0x1226
 2294 0a68 7F0A0000 		.4byte	0xa7f
 2295 0a6c 1D       		.uleb128 0x1d
 2296 0a6d 01       		.byte	0x1
 2297 0a6e 52       		.byte	0x52
 2298 0a6f 02       		.byte	0x2
 2299 0a70 09       		.byte	0x9
 2300 0a71 FF       		.byte	0xff
 2301 0a72 1D       		.uleb128 0x1d
 2302 0a73 01       		.byte	0x1
 2303 0a74 51       		.byte	0x51
 2304 0a75 02       		.byte	0x2
 2305 0a76 09       		.byte	0x9
 2306 0a77 FF       		.byte	0xff
 2307 0a78 1D       		.uleb128 0x1d
 2308 0a79 01       		.byte	0x1
 2309 0a7a 50       		.byte	0x50
 2310 0a7b 02       		.byte	0x2
 2311 0a7c 74       		.byte	0x74
 2312 0a7d 00       		.sleb128 0
 2313 0a7e 00       		.byte	0
 2314 0a7f 1C       		.uleb128 0x1c
 2315 0a80 20000000 		.4byte	.LVL17
 2316 0a84 26120000 		.4byte	0x1226
 2317 0a88 9F0A0000 		.4byte	0xa9f
 2318 0a8c 1D       		.uleb128 0x1d
 2319 0a8d 01       		.byte	0x1
 2320 0a8e 52       		.byte	0x52
 2321 0a8f 02       		.byte	0x2
 2322 0a90 09       		.byte	0x9
 2323 0a91 FF       		.byte	0xff
 2324 0a92 1D       		.uleb128 0x1d
 2325 0a93 01       		.byte	0x1
 2326 0a94 51       		.byte	0x51
 2327 0a95 02       		.byte	0x2
 2328 0a96 09       		.byte	0x9
 2329 0a97 92       		.byte	0x92
 2330 0a98 1D       		.uleb128 0x1d
ARM GAS  C:\Users\DNIEL~1\AppData\Local\Temp\ccVdkgIc.s 			page 42


 2331 0a99 01       		.byte	0x1
 2332 0a9a 50       		.byte	0x50
 2333 0a9b 02       		.byte	0x2
 2334 0a9c 74       		.byte	0x74
 2335 0a9d 00       		.sleb128 0
 2336 0a9e 00       		.byte	0
 2337 0a9f 1C       		.uleb128 0x1c
 2338 0aa0 2E000000 		.4byte	.LVL18
 2339 0aa4 26120000 		.4byte	0x1226
 2340 0aa8 C50A0000 		.4byte	0xac5
 2341 0aac 1D       		.uleb128 0x1d
 2342 0aad 01       		.byte	0x1
 2343 0aae 52       		.byte	0x52
 2344 0aaf 02       		.byte	0x2
 2345 0ab0 09       		.byte	0x9
 2346 0ab1 FF       		.byte	0xff
 2347 0ab2 1D       		.uleb128 0x1d
 2348 0ab3 01       		.byte	0x1
 2349 0ab4 51       		.byte	0x51
 2350 0ab5 08       		.byte	0x8
 2351 0ab6 76       		.byte	0x76
 2352 0ab7 00       		.sleb128 0
 2353 0ab8 09       		.byte	0x9
 2354 0ab9 F4       		.byte	0xf4
 2355 0aba 24       		.byte	0x24
 2356 0abb 09       		.byte	0x9
 2357 0abc FC       		.byte	0xfc
 2358 0abd 25       		.byte	0x25
 2359 0abe 1D       		.uleb128 0x1d
 2360 0abf 01       		.byte	0x1
 2361 0ac0 50       		.byte	0x50
 2362 0ac1 02       		.byte	0x2
 2363 0ac2 74       		.byte	0x74
 2364 0ac3 00       		.sleb128 0
 2365 0ac4 00       		.byte	0
 2366 0ac5 1C       		.uleb128 0x1c
 2367 0ac6 3A000000 		.4byte	.LVL19
 2368 0aca 26120000 		.4byte	0x1226
 2369 0ace E50A0000 		.4byte	0xae5
 2370 0ad2 1D       		.uleb128 0x1d
 2371 0ad3 01       		.byte	0x1
 2372 0ad4 52       		.byte	0x52
 2373 0ad5 02       		.byte	0x2
 2374 0ad6 09       		.byte	0x9
 2375 0ad7 FF       		.byte	0xff
 2376 0ad8 1D       		.uleb128 0x1d
 2377 0ad9 01       		.byte	0x1
 2378 0ada 51       		.byte	0x51
 2379 0adb 02       		.byte	0x2
 2380 0adc 76       		.byte	0x76
 2381 0add 00       		.sleb128 0
 2382 0ade 1D       		.uleb128 0x1d
 2383 0adf 01       		.byte	0x1
 2384 0ae0 50       		.byte	0x50
 2385 0ae1 02       		.byte	0x2
 2386 0ae2 74       		.byte	0x74
 2387 0ae3 00       		.sleb128 0
ARM GAS  C:\Users\DNIEL~1\AppData\Local\Temp\ccVdkgIc.s 			page 43


 2388 0ae4 00       		.byte	0
 2389 0ae5 1C       		.uleb128 0x1c
 2390 0ae6 48000000 		.4byte	.LVL20
 2391 0aea 26120000 		.4byte	0x1226
 2392 0aee 0B0B0000 		.4byte	0xb0b
 2393 0af2 1D       		.uleb128 0x1d
 2394 0af3 01       		.byte	0x1
 2395 0af4 52       		.byte	0x52
 2396 0af5 02       		.byte	0x2
 2397 0af6 09       		.byte	0x9
 2398 0af7 FF       		.byte	0xff
 2399 0af8 1D       		.uleb128 0x1d
 2400 0af9 01       		.byte	0x1
 2401 0afa 51       		.byte	0x51
 2402 0afb 08       		.byte	0x8
 2403 0afc 75       		.byte	0x75
 2404 0afd 00       		.sleb128 0
 2405 0afe 09       		.byte	0x9
 2406 0aff F4       		.byte	0xf4
 2407 0b00 24       		.byte	0x24
 2408 0b01 09       		.byte	0x9
 2409 0b02 FC       		.byte	0xfc
 2410 0b03 25       		.byte	0x25
 2411 0b04 1D       		.uleb128 0x1d
 2412 0b05 01       		.byte	0x1
 2413 0b06 50       		.byte	0x50
 2414 0b07 02       		.byte	0x2
 2415 0b08 74       		.byte	0x74
 2416 0b09 00       		.sleb128 0
 2417 0b0a 00       		.byte	0
 2418 0b0b 1E       		.uleb128 0x1e
 2419 0b0c 58000000 		.4byte	.LVL21
 2420 0b10 01       		.byte	0x1
 2421 0b11 26120000 		.4byte	0x1226
 2422 0b15 1D       		.uleb128 0x1d
 2423 0b16 01       		.byte	0x1
 2424 0b17 52       		.byte	0x52
 2425 0b18 02       		.byte	0x2
 2426 0b19 09       		.byte	0x9
 2427 0b1a FF       		.byte	0xff
 2428 0b1b 1D       		.uleb128 0x1d
 2429 0b1c 01       		.byte	0x1
 2430 0b1d 51       		.byte	0x51
 2431 0b1e 02       		.byte	0x2
 2432 0b1f 75       		.byte	0x75
 2433 0b20 00       		.sleb128 0
 2434 0b21 1D       		.uleb128 0x1d
 2435 0b22 01       		.byte	0x1
 2436 0b23 50       		.byte	0x50
 2437 0b24 02       		.byte	0x2
 2438 0b25 74       		.byte	0x74
 2439 0b26 00       		.sleb128 0
 2440 0b27 00       		.byte	0
 2441 0b28 00       		.byte	0
 2442 0b29 1B       		.uleb128 0x1b
 2443 0b2a 01       		.byte	0x1
 2444 0b2b 25020000 		.4byte	.LASF109
ARM GAS  C:\Users\DNIEL~1\AppData\Local\Temp\ccVdkgIc.s 			page 44


 2445 0b2f 01       		.byte	0x1
 2446 0b30 38       		.byte	0x38
 2447 0b31 01       		.byte	0x1
 2448 0b32 00000000 		.4byte	.LFB122
 2449 0b36 5C000000 		.4byte	.LFE122
 2450 0b3a F8000000 		.4byte	.LLST8
 2451 0b3e 01       		.byte	0x1
 2452 0b3f 270C0000 		.4byte	0xc27
 2453 0b43 1F       		.uleb128 0x1f
 2454 0b44 5800     		.ascii	"X\000"
 2455 0b46 01       		.byte	0x1
 2456 0b47 38       		.byte	0x38
 2457 0b48 29000000 		.4byte	0x29
 2458 0b4c 18010000 		.4byte	.LLST9
 2459 0b50 1F       		.uleb128 0x1f
 2460 0b51 5900     		.ascii	"Y\000"
 2461 0b53 01       		.byte	0x1
 2462 0b54 38       		.byte	0x38
 2463 0b55 29000000 		.4byte	0x29
 2464 0b59 36010000 		.4byte	.LLST10
 2465 0b5d 1C       		.uleb128 0x1c
 2466 0b5e 14000000 		.4byte	.LVL25
 2467 0b62 26120000 		.4byte	0x1226
 2468 0b66 7D0B0000 		.4byte	0xb7d
 2469 0b6a 1D       		.uleb128 0x1d
 2470 0b6b 01       		.byte	0x1
 2471 0b6c 52       		.byte	0x52
 2472 0b6d 02       		.byte	0x2
 2473 0b6e 09       		.byte	0x9
 2474 0b6f FF       		.byte	0xff
 2475 0b70 1D       		.uleb128 0x1d
 2476 0b71 01       		.byte	0x1
 2477 0b72 51       		.byte	0x51
 2478 0b73 02       		.byte	0x2
 2479 0b74 09       		.byte	0x9
 2480 0b75 FF       		.byte	0xff
 2481 0b76 1D       		.uleb128 0x1d
 2482 0b77 01       		.byte	0x1
 2483 0b78 50       		.byte	0x50
 2484 0b79 02       		.byte	0x2
 2485 0b7a 74       		.byte	0x74
 2486 0b7b 00       		.sleb128 0
 2487 0b7c 00       		.byte	0
 2488 0b7d 1C       		.uleb128 0x1c
 2489 0b7e 20000000 		.4byte	.LVL26
 2490 0b82 26120000 		.4byte	0x1226
 2491 0b86 9D0B0000 		.4byte	0xb9d
 2492 0b8a 1D       		.uleb128 0x1d
 2493 0b8b 01       		.byte	0x1
 2494 0b8c 52       		.byte	0x52
 2495 0b8d 02       		.byte	0x2
 2496 0b8e 09       		.byte	0x9
 2497 0b8f FF       		.byte	0xff
 2498 0b90 1D       		.uleb128 0x1d
 2499 0b91 01       		.byte	0x1
 2500 0b92 51       		.byte	0x51
 2501 0b93 02       		.byte	0x2
ARM GAS  C:\Users\DNIEL~1\AppData\Local\Temp\ccVdkgIc.s 			page 45


 2502 0b94 09       		.byte	0x9
 2503 0b95 95       		.byte	0x95
 2504 0b96 1D       		.uleb128 0x1d
 2505 0b97 01       		.byte	0x1
 2506 0b98 50       		.byte	0x50
 2507 0b99 02       		.byte	0x2
 2508 0b9a 74       		.byte	0x74
 2509 0b9b 00       		.sleb128 0
 2510 0b9c 00       		.byte	0
 2511 0b9d 1C       		.uleb128 0x1c
 2512 0b9e 2E000000 		.4byte	.LVL27
 2513 0ba2 26120000 		.4byte	0x1226
 2514 0ba6 C30B0000 		.4byte	0xbc3
 2515 0baa 1D       		.uleb128 0x1d
 2516 0bab 01       		.byte	0x1
 2517 0bac 52       		.byte	0x52
 2518 0bad 02       		.byte	0x2
 2519 0bae 09       		.byte	0x9
 2520 0baf FF       		.byte	0xff
 2521 0bb0 1D       		.uleb128 0x1d
 2522 0bb1 01       		.byte	0x1
 2523 0bb2 51       		.byte	0x51
 2524 0bb3 08       		.byte	0x8
 2525 0bb4 76       		.byte	0x76
 2526 0bb5 00       		.sleb128 0
 2527 0bb6 09       		.byte	0x9
 2528 0bb7 F4       		.byte	0xf4
 2529 0bb8 24       		.byte	0x24
 2530 0bb9 09       		.byte	0x9
 2531 0bba FC       		.byte	0xfc
 2532 0bbb 25       		.byte	0x25
 2533 0bbc 1D       		.uleb128 0x1d
 2534 0bbd 01       		.byte	0x1
 2535 0bbe 50       		.byte	0x50
 2536 0bbf 02       		.byte	0x2
 2537 0bc0 74       		.byte	0x74
 2538 0bc1 00       		.sleb128 0
 2539 0bc2 00       		.byte	0
 2540 0bc3 1C       		.uleb128 0x1c
 2541 0bc4 3A000000 		.4byte	.LVL28
 2542 0bc8 26120000 		.4byte	0x1226
 2543 0bcc E30B0000 		.4byte	0xbe3
 2544 0bd0 1D       		.uleb128 0x1d
 2545 0bd1 01       		.byte	0x1
 2546 0bd2 52       		.byte	0x52
 2547 0bd3 02       		.byte	0x2
 2548 0bd4 09       		.byte	0x9
 2549 0bd5 FF       		.byte	0xff
 2550 0bd6 1D       		.uleb128 0x1d
 2551 0bd7 01       		.byte	0x1
 2552 0bd8 51       		.byte	0x51
 2553 0bd9 02       		.byte	0x2
 2554 0bda 76       		.byte	0x76
 2555 0bdb 00       		.sleb128 0
 2556 0bdc 1D       		.uleb128 0x1d
 2557 0bdd 01       		.byte	0x1
 2558 0bde 50       		.byte	0x50
ARM GAS  C:\Users\DNIEL~1\AppData\Local\Temp\ccVdkgIc.s 			page 46


 2559 0bdf 02       		.byte	0x2
 2560 0be0 74       		.byte	0x74
 2561 0be1 00       		.sleb128 0
 2562 0be2 00       		.byte	0
 2563 0be3 1C       		.uleb128 0x1c
 2564 0be4 48000000 		.4byte	.LVL29
 2565 0be8 26120000 		.4byte	0x1226
 2566 0bec 090C0000 		.4byte	0xc09
 2567 0bf0 1D       		.uleb128 0x1d
 2568 0bf1 01       		.byte	0x1
 2569 0bf2 52       		.byte	0x52
 2570 0bf3 02       		.byte	0x2
 2571 0bf4 09       		.byte	0x9
 2572 0bf5 FF       		.byte	0xff
 2573 0bf6 1D       		.uleb128 0x1d
 2574 0bf7 01       		.byte	0x1
 2575 0bf8 51       		.byte	0x51
 2576 0bf9 08       		.byte	0x8
 2577 0bfa 75       		.byte	0x75
 2578 0bfb 00       		.sleb128 0
 2579 0bfc 09       		.byte	0x9
 2580 0bfd F4       		.byte	0xf4
 2581 0bfe 24       		.byte	0x24
 2582 0bff 09       		.byte	0x9
 2583 0c00 FC       		.byte	0xfc
 2584 0c01 25       		.byte	0x25
 2585 0c02 1D       		.uleb128 0x1d
 2586 0c03 01       		.byte	0x1
 2587 0c04 50       		.byte	0x50
 2588 0c05 02       		.byte	0x2
 2589 0c06 74       		.byte	0x74
 2590 0c07 00       		.sleb128 0
 2591 0c08 00       		.byte	0
 2592 0c09 1E       		.uleb128 0x1e
 2593 0c0a 58000000 		.4byte	.LVL30
 2594 0c0e 01       		.byte	0x1
 2595 0c0f 26120000 		.4byte	0x1226
 2596 0c13 1D       		.uleb128 0x1d
 2597 0c14 01       		.byte	0x1
 2598 0c15 52       		.byte	0x52
 2599 0c16 02       		.byte	0x2
 2600 0c17 09       		.byte	0x9
 2601 0c18 FF       		.byte	0xff
 2602 0c19 1D       		.uleb128 0x1d
 2603 0c1a 01       		.byte	0x1
 2604 0c1b 51       		.byte	0x51
 2605 0c1c 02       		.byte	0x2
 2606 0c1d 75       		.byte	0x75
 2607 0c1e 00       		.sleb128 0
 2608 0c1f 1D       		.uleb128 0x1d
 2609 0c20 01       		.byte	0x1
 2610 0c21 50       		.byte	0x50
 2611 0c22 02       		.byte	0x2
 2612 0c23 74       		.byte	0x74
 2613 0c24 00       		.sleb128 0
 2614 0c25 00       		.byte	0
 2615 0c26 00       		.byte	0
ARM GAS  C:\Users\DNIEL~1\AppData\Local\Temp\ccVdkgIc.s 			page 47


 2616 0c27 1B       		.uleb128 0x1b
 2617 0c28 01       		.byte	0x1
 2618 0c29 68010000 		.4byte	.LASF110
 2619 0c2d 01       		.byte	0x1
 2620 0c2e 42       		.byte	0x42
 2621 0c2f 01       		.byte	0x1
 2622 0c30 00000000 		.4byte	.LFB123
 2623 0c34 78000000 		.4byte	.LFE123
 2624 0c38 54010000 		.4byte	.LLST11
 2625 0c3c 01       		.byte	0x1
 2626 0c3d 7A0D0000 		.4byte	0xd7a
 2627 0c41 1F       		.uleb128 0x1f
 2628 0c42 5800     		.ascii	"X\000"
 2629 0c44 01       		.byte	0x1
 2630 0c45 42       		.byte	0x42
 2631 0c46 29000000 		.4byte	0x29
 2632 0c4a 74010000 		.4byte	.LLST12
 2633 0c4e 1F       		.uleb128 0x1f
 2634 0c4f 5900     		.ascii	"Y\000"
 2635 0c51 01       		.byte	0x1
 2636 0c52 42       		.byte	0x42
 2637 0c53 29000000 		.4byte	0x29
 2638 0c57 92010000 		.4byte	.LLST13
 2639 0c5b 20       		.uleb128 0x20
 2640 0c5c BC020000 		.4byte	.LASF111
 2641 0c60 01       		.byte	0x1
 2642 0c61 42       		.byte	0x42
 2643 0c62 29000000 		.4byte	0x29
 2644 0c66 B0010000 		.4byte	.LLST14
 2645 0c6a 1C       		.uleb128 0x1c
 2646 0c6b 16000000 		.4byte	.LVL35
 2647 0c6f 26120000 		.4byte	0x1226
 2648 0c73 8A0C0000 		.4byte	0xc8a
 2649 0c77 1D       		.uleb128 0x1d
 2650 0c78 01       		.byte	0x1
 2651 0c79 52       		.byte	0x52
 2652 0c7a 02       		.byte	0x2
 2653 0c7b 09       		.byte	0x9
 2654 0c7c FF       		.byte	0xff
 2655 0c7d 1D       		.uleb128 0x1d
 2656 0c7e 01       		.byte	0x1
 2657 0c7f 51       		.byte	0x51
 2658 0c80 02       		.byte	0x2
 2659 0c81 09       		.byte	0x9
 2660 0c82 FF       		.byte	0xff
 2661 0c83 1D       		.uleb128 0x1d
 2662 0c84 01       		.byte	0x1
 2663 0c85 50       		.byte	0x50
 2664 0c86 02       		.byte	0x2
 2665 0c87 74       		.byte	0x74
 2666 0c88 00       		.sleb128 0
 2667 0c89 00       		.byte	0
 2668 0c8a 1C       		.uleb128 0x1c
 2669 0c8b 22000000 		.4byte	.LVL36
 2670 0c8f 26120000 		.4byte	0x1226
 2671 0c93 AA0C0000 		.4byte	0xcaa
 2672 0c97 1D       		.uleb128 0x1d
ARM GAS  C:\Users\DNIEL~1\AppData\Local\Temp\ccVdkgIc.s 			page 48


 2673 0c98 01       		.byte	0x1
 2674 0c99 52       		.byte	0x52
 2675 0c9a 02       		.byte	0x2
 2676 0c9b 09       		.byte	0x9
 2677 0c9c FF       		.byte	0xff
 2678 0c9d 1D       		.uleb128 0x1d
 2679 0c9e 01       		.byte	0x1
 2680 0c9f 51       		.byte	0x51
 2681 0ca0 02       		.byte	0x2
 2682 0ca1 09       		.byte	0x9
 2683 0ca2 94       		.byte	0x94
 2684 0ca3 1D       		.uleb128 0x1d
 2685 0ca4 01       		.byte	0x1
 2686 0ca5 50       		.byte	0x50
 2687 0ca6 02       		.byte	0x2
 2688 0ca7 74       		.byte	0x74
 2689 0ca8 00       		.sleb128 0
 2690 0ca9 00       		.byte	0
 2691 0caa 1C       		.uleb128 0x1c
 2692 0cab 30000000 		.4byte	.LVL37
 2693 0caf 26120000 		.4byte	0x1226
 2694 0cb3 D00C0000 		.4byte	0xcd0
 2695 0cb7 1D       		.uleb128 0x1d
 2696 0cb8 01       		.byte	0x1
 2697 0cb9 52       		.byte	0x52
 2698 0cba 02       		.byte	0x2
 2699 0cbb 09       		.byte	0x9
 2700 0cbc FF       		.byte	0xff
 2701 0cbd 1D       		.uleb128 0x1d
 2702 0cbe 01       		.byte	0x1
 2703 0cbf 51       		.byte	0x51
 2704 0cc0 08       		.byte	0x8
 2705 0cc1 77       		.byte	0x77
 2706 0cc2 00       		.sleb128 0
 2707 0cc3 09       		.byte	0x9
 2708 0cc4 F4       		.byte	0xf4
 2709 0cc5 24       		.byte	0x24
 2710 0cc6 09       		.byte	0x9
 2711 0cc7 FC       		.byte	0xfc
 2712 0cc8 25       		.byte	0x25
 2713 0cc9 1D       		.uleb128 0x1d
 2714 0cca 01       		.byte	0x1
 2715 0ccb 50       		.byte	0x50
 2716 0ccc 02       		.byte	0x2
 2717 0ccd 74       		.byte	0x74
 2718 0cce 00       		.sleb128 0
 2719 0ccf 00       		.byte	0
 2720 0cd0 1C       		.uleb128 0x1c
 2721 0cd1 3C000000 		.4byte	.LVL38
 2722 0cd5 26120000 		.4byte	0x1226
 2723 0cd9 F00C0000 		.4byte	0xcf0
 2724 0cdd 1D       		.uleb128 0x1d
 2725 0cde 01       		.byte	0x1
 2726 0cdf 52       		.byte	0x52
 2727 0ce0 02       		.byte	0x2
 2728 0ce1 09       		.byte	0x9
 2729 0ce2 FF       		.byte	0xff
ARM GAS  C:\Users\DNIEL~1\AppData\Local\Temp\ccVdkgIc.s 			page 49


 2730 0ce3 1D       		.uleb128 0x1d
 2731 0ce4 01       		.byte	0x1
 2732 0ce5 51       		.byte	0x51
 2733 0ce6 02       		.byte	0x2
 2734 0ce7 77       		.byte	0x77
 2735 0ce8 00       		.sleb128 0
 2736 0ce9 1D       		.uleb128 0x1d
 2737 0cea 01       		.byte	0x1
 2738 0ceb 50       		.byte	0x50
 2739 0cec 02       		.byte	0x2
 2740 0ced 74       		.byte	0x74
 2741 0cee 00       		.sleb128 0
 2742 0cef 00       		.byte	0
 2743 0cf0 1C       		.uleb128 0x1c
 2744 0cf1 4A000000 		.4byte	.LVL39
 2745 0cf5 26120000 		.4byte	0x1226
 2746 0cf9 160D0000 		.4byte	0xd16
 2747 0cfd 1D       		.uleb128 0x1d
 2748 0cfe 01       		.byte	0x1
 2749 0cff 52       		.byte	0x52
 2750 0d00 02       		.byte	0x2
 2751 0d01 09       		.byte	0x9
 2752 0d02 FF       		.byte	0xff
 2753 0d03 1D       		.uleb128 0x1d
 2754 0d04 01       		.byte	0x1
 2755 0d05 51       		.byte	0x51
 2756 0d06 08       		.byte	0x8
 2757 0d07 76       		.byte	0x76
 2758 0d08 00       		.sleb128 0
 2759 0d09 09       		.byte	0x9
 2760 0d0a F4       		.byte	0xf4
 2761 0d0b 24       		.byte	0x24
 2762 0d0c 09       		.byte	0x9
 2763 0d0d FC       		.byte	0xfc
 2764 0d0e 25       		.byte	0x25
 2765 0d0f 1D       		.uleb128 0x1d
 2766 0d10 01       		.byte	0x1
 2767 0d11 50       		.byte	0x50
 2768 0d12 02       		.byte	0x2
 2769 0d13 74       		.byte	0x74
 2770 0d14 00       		.sleb128 0
 2771 0d15 00       		.byte	0
 2772 0d16 1C       		.uleb128 0x1c
 2773 0d17 56000000 		.4byte	.LVL40
 2774 0d1b 26120000 		.4byte	0x1226
 2775 0d1f 360D0000 		.4byte	0xd36
 2776 0d23 1D       		.uleb128 0x1d
 2777 0d24 01       		.byte	0x1
 2778 0d25 52       		.byte	0x52
 2779 0d26 02       		.byte	0x2
 2780 0d27 09       		.byte	0x9
 2781 0d28 FF       		.byte	0xff
 2782 0d29 1D       		.uleb128 0x1d
 2783 0d2a 01       		.byte	0x1
 2784 0d2b 51       		.byte	0x51
 2785 0d2c 02       		.byte	0x2
 2786 0d2d 76       		.byte	0x76
ARM GAS  C:\Users\DNIEL~1\AppData\Local\Temp\ccVdkgIc.s 			page 50


 2787 0d2e 00       		.sleb128 0
 2788 0d2f 1D       		.uleb128 0x1d
 2789 0d30 01       		.byte	0x1
 2790 0d31 50       		.byte	0x50
 2791 0d32 02       		.byte	0x2
 2792 0d33 74       		.byte	0x74
 2793 0d34 00       		.sleb128 0
 2794 0d35 00       		.byte	0
 2795 0d36 1C       		.uleb128 0x1c
 2796 0d37 64000000 		.4byte	.LVL41
 2797 0d3b 26120000 		.4byte	0x1226
 2798 0d3f 5C0D0000 		.4byte	0xd5c
 2799 0d43 1D       		.uleb128 0x1d
 2800 0d44 01       		.byte	0x1
 2801 0d45 52       		.byte	0x52
 2802 0d46 02       		.byte	0x2
 2803 0d47 09       		.byte	0x9
 2804 0d48 FF       		.byte	0xff
 2805 0d49 1D       		.uleb128 0x1d
 2806 0d4a 01       		.byte	0x1
 2807 0d4b 51       		.byte	0x51
 2808 0d4c 08       		.byte	0x8
 2809 0d4d 75       		.byte	0x75
 2810 0d4e 00       		.sleb128 0
 2811 0d4f 09       		.byte	0x9
 2812 0d50 F4       		.byte	0xf4
 2813 0d51 24       		.byte	0x24
 2814 0d52 09       		.byte	0x9
 2815 0d53 FC       		.byte	0xfc
 2816 0d54 25       		.byte	0x25
 2817 0d55 1D       		.uleb128 0x1d
 2818 0d56 01       		.byte	0x1
 2819 0d57 50       		.byte	0x50
 2820 0d58 02       		.byte	0x2
 2821 0d59 74       		.byte	0x74
 2822 0d5a 00       		.sleb128 0
 2823 0d5b 00       		.byte	0
 2824 0d5c 1E       		.uleb128 0x1e
 2825 0d5d 74000000 		.4byte	.LVL42
 2826 0d61 01       		.byte	0x1
 2827 0d62 26120000 		.4byte	0x1226
 2828 0d66 1D       		.uleb128 0x1d
 2829 0d67 01       		.byte	0x1
 2830 0d68 52       		.byte	0x52
 2831 0d69 02       		.byte	0x2
 2832 0d6a 09       		.byte	0x9
 2833 0d6b FF       		.byte	0xff
 2834 0d6c 1D       		.uleb128 0x1d
 2835 0d6d 01       		.byte	0x1
 2836 0d6e 51       		.byte	0x51
 2837 0d6f 02       		.byte	0x2
 2838 0d70 75       		.byte	0x75
 2839 0d71 00       		.sleb128 0
 2840 0d72 1D       		.uleb128 0x1d
 2841 0d73 01       		.byte	0x1
 2842 0d74 50       		.byte	0x50
 2843 0d75 02       		.byte	0x2
ARM GAS  C:\Users\DNIEL~1\AppData\Local\Temp\ccVdkgIc.s 			page 51


 2844 0d76 74       		.byte	0x74
 2845 0d77 00       		.sleb128 0
 2846 0d78 00       		.byte	0
 2847 0d79 00       		.byte	0
 2848 0d7a 1B       		.uleb128 0x1b
 2849 0d7b 01       		.byte	0x1
 2850 0d7c 2D010000 		.4byte	.LASF112
 2851 0d80 01       		.byte	0x1
 2852 0d81 4E       		.byte	0x4e
 2853 0d82 01       		.byte	0x1
 2854 0d83 00000000 		.4byte	.LFB124
 2855 0d87 40000000 		.4byte	.LFE124
 2856 0d8b CE010000 		.4byte	.LLST15
 2857 0d8f 01       		.byte	0x1
 2858 0d90 270E0000 		.4byte	0xe27
 2859 0d94 20       		.uleb128 0x20
 2860 0d95 54030000 		.4byte	.LASF113
 2861 0d99 01       		.byte	0x1
 2862 0d9a 4E       		.byte	0x4e
 2863 0d9b 29000000 		.4byte	0x29
 2864 0d9f EE010000 		.4byte	.LLST16
 2865 0da3 1C       		.uleb128 0x1c
 2866 0da4 12000000 		.4byte	.LVL45
 2867 0da8 26120000 		.4byte	0x1226
 2868 0dac C30D0000 		.4byte	0xdc3
 2869 0db0 1D       		.uleb128 0x1d
 2870 0db1 01       		.byte	0x1
 2871 0db2 52       		.byte	0x52
 2872 0db3 02       		.byte	0x2
 2873 0db4 09       		.byte	0x9
 2874 0db5 FF       		.byte	0xff
 2875 0db6 1D       		.uleb128 0x1d
 2876 0db7 01       		.byte	0x1
 2877 0db8 51       		.byte	0x51
 2878 0db9 02       		.byte	0x2
 2879 0dba 09       		.byte	0x9
 2880 0dbb FF       		.byte	0xff
 2881 0dbc 1D       		.uleb128 0x1d
 2882 0dbd 01       		.byte	0x1
 2883 0dbe 50       		.byte	0x50
 2884 0dbf 02       		.byte	0x2
 2885 0dc0 74       		.byte	0x74
 2886 0dc1 00       		.sleb128 0
 2887 0dc2 00       		.byte	0
 2888 0dc3 1C       		.uleb128 0x1c
 2889 0dc4 1E000000 		.4byte	.LVL46
 2890 0dc8 26120000 		.4byte	0x1226
 2891 0dcc E30D0000 		.4byte	0xde3
 2892 0dd0 1D       		.uleb128 0x1d
 2893 0dd1 01       		.byte	0x1
 2894 0dd2 52       		.byte	0x52
 2895 0dd3 02       		.byte	0x2
 2896 0dd4 09       		.byte	0x9
 2897 0dd5 FF       		.byte	0xff
 2898 0dd6 1D       		.uleb128 0x1d
 2899 0dd7 01       		.byte	0x1
 2900 0dd8 51       		.byte	0x51
ARM GAS  C:\Users\DNIEL~1\AppData\Local\Temp\ccVdkgIc.s 			page 52


 2901 0dd9 02       		.byte	0x2
 2902 0dda 09       		.byte	0x9
 2903 0ddb A4       		.byte	0xa4
 2904 0ddc 1D       		.uleb128 0x1d
 2905 0ddd 01       		.byte	0x1
 2906 0dde 50       		.byte	0x50
 2907 0ddf 02       		.byte	0x2
 2908 0de0 74       		.byte	0x74
 2909 0de1 00       		.sleb128 0
 2910 0de2 00       		.byte	0
 2911 0de3 1C       		.uleb128 0x1c
 2912 0de4 2C000000 		.4byte	.LVL47
 2913 0de8 26120000 		.4byte	0x1226
 2914 0dec 090E0000 		.4byte	0xe09
 2915 0df0 1D       		.uleb128 0x1d
 2916 0df1 01       		.byte	0x1
 2917 0df2 52       		.byte	0x52
 2918 0df3 02       		.byte	0x2
 2919 0df4 09       		.byte	0x9
 2920 0df5 FF       		.byte	0xff
 2921 0df6 1D       		.uleb128 0x1d
 2922 0df7 01       		.byte	0x1
 2923 0df8 51       		.byte	0x51
 2924 0df9 08       		.byte	0x8
 2925 0dfa 75       		.byte	0x75
 2926 0dfb 00       		.sleb128 0
 2927 0dfc 09       		.byte	0x9
 2928 0dfd F4       		.byte	0xf4
 2929 0dfe 24       		.byte	0x24
 2930 0dff 09       		.byte	0x9
 2931 0e00 FC       		.byte	0xfc
 2932 0e01 25       		.byte	0x25
 2933 0e02 1D       		.uleb128 0x1d
 2934 0e03 01       		.byte	0x1
 2935 0e04 50       		.byte	0x50
 2936 0e05 02       		.byte	0x2
 2937 0e06 74       		.byte	0x74
 2938 0e07 00       		.sleb128 0
 2939 0e08 00       		.byte	0
 2940 0e09 1E       		.uleb128 0x1e
 2941 0e0a 3C000000 		.4byte	.LVL48
 2942 0e0e 01       		.byte	0x1
 2943 0e0f 26120000 		.4byte	0x1226
 2944 0e13 1D       		.uleb128 0x1d
 2945 0e14 01       		.byte	0x1
 2946 0e15 52       		.byte	0x52
 2947 0e16 02       		.byte	0x2
 2948 0e17 09       		.byte	0x9
 2949 0e18 FF       		.byte	0xff
 2950 0e19 1D       		.uleb128 0x1d
 2951 0e1a 01       		.byte	0x1
 2952 0e1b 51       		.byte	0x51
 2953 0e1c 02       		.byte	0x2
 2954 0e1d 75       		.byte	0x75
 2955 0e1e 00       		.sleb128 0
 2956 0e1f 1D       		.uleb128 0x1d
 2957 0e20 01       		.byte	0x1
ARM GAS  C:\Users\DNIEL~1\AppData\Local\Temp\ccVdkgIc.s 			page 53


 2958 0e21 50       		.byte	0x50
 2959 0e22 02       		.byte	0x2
 2960 0e23 74       		.byte	0x74
 2961 0e24 00       		.sleb128 0
 2962 0e25 00       		.byte	0
 2963 0e26 00       		.byte	0
 2964 0e27 1B       		.uleb128 0x1b
 2965 0e28 01       		.byte	0x1
 2966 0e29 3C020000 		.4byte	.LASF114
 2967 0e2d 01       		.byte	0x1
 2968 0e2e 56       		.byte	0x56
 2969 0e2f 01       		.byte	0x1
 2970 0e30 00000000 		.4byte	.LFB125
 2971 0e34 40000000 		.4byte	.LFE125
 2972 0e38 0C020000 		.4byte	.LLST17
 2973 0e3c 01       		.byte	0x1
 2974 0e3d D40E0000 		.4byte	0xed4
 2975 0e41 20       		.uleb128 0x20
 2976 0e42 79010000 		.4byte	.LASF115
 2977 0e46 01       		.byte	0x1
 2978 0e47 56       		.byte	0x56
 2979 0e48 29000000 		.4byte	0x29
 2980 0e4c 2C020000 		.4byte	.LLST18
 2981 0e50 1C       		.uleb128 0x1c
 2982 0e51 12000000 		.4byte	.LVL51
 2983 0e55 26120000 		.4byte	0x1226
 2984 0e59 700E0000 		.4byte	0xe70
 2985 0e5d 1D       		.uleb128 0x1d
 2986 0e5e 01       		.byte	0x1
 2987 0e5f 52       		.byte	0x52
 2988 0e60 02       		.byte	0x2
 2989 0e61 09       		.byte	0x9
 2990 0e62 FF       		.byte	0xff
 2991 0e63 1D       		.uleb128 0x1d
 2992 0e64 01       		.byte	0x1
 2993 0e65 51       		.byte	0x51
 2994 0e66 02       		.byte	0x2
 2995 0e67 09       		.byte	0x9
 2996 0e68 FF       		.byte	0xff
 2997 0e69 1D       		.uleb128 0x1d
 2998 0e6a 01       		.byte	0x1
 2999 0e6b 50       		.byte	0x50
 3000 0e6c 02       		.byte	0x2
 3001 0e6d 74       		.byte	0x74
 3002 0e6e 00       		.sleb128 0
 3003 0e6f 00       		.byte	0
 3004 0e70 1C       		.uleb128 0x1c
 3005 0e71 1E000000 		.4byte	.LVL52
 3006 0e75 26120000 		.4byte	0x1226
 3007 0e79 900E0000 		.4byte	0xe90
 3008 0e7d 1D       		.uleb128 0x1d
 3009 0e7e 01       		.byte	0x1
 3010 0e7f 52       		.byte	0x52
 3011 0e80 02       		.byte	0x2
 3012 0e81 09       		.byte	0x9
 3013 0e82 FF       		.byte	0xff
 3014 0e83 1D       		.uleb128 0x1d
ARM GAS  C:\Users\DNIEL~1\AppData\Local\Temp\ccVdkgIc.s 			page 54


 3015 0e84 01       		.byte	0x1
 3016 0e85 51       		.byte	0x51
 3017 0e86 02       		.byte	0x2
 3018 0e87 09       		.byte	0x9
 3019 0e88 9C       		.byte	0x9c
 3020 0e89 1D       		.uleb128 0x1d
 3021 0e8a 01       		.byte	0x1
 3022 0e8b 50       		.byte	0x50
 3023 0e8c 02       		.byte	0x2
 3024 0e8d 74       		.byte	0x74
 3025 0e8e 00       		.sleb128 0
 3026 0e8f 00       		.byte	0
 3027 0e90 1C       		.uleb128 0x1c
 3028 0e91 2C000000 		.4byte	.LVL53
 3029 0e95 26120000 		.4byte	0x1226
 3030 0e99 B60E0000 		.4byte	0xeb6
 3031 0e9d 1D       		.uleb128 0x1d
 3032 0e9e 01       		.byte	0x1
 3033 0e9f 52       		.byte	0x52
 3034 0ea0 02       		.byte	0x2
 3035 0ea1 09       		.byte	0x9
 3036 0ea2 FF       		.byte	0xff
 3037 0ea3 1D       		.uleb128 0x1d
 3038 0ea4 01       		.byte	0x1
 3039 0ea5 51       		.byte	0x51
 3040 0ea6 08       		.byte	0x8
 3041 0ea7 75       		.byte	0x75
 3042 0ea8 00       		.sleb128 0
 3043 0ea9 09       		.byte	0x9
 3044 0eaa F4       		.byte	0xf4
 3045 0eab 24       		.byte	0x24
 3046 0eac 09       		.byte	0x9
 3047 0ead FC       		.byte	0xfc
 3048 0eae 25       		.byte	0x25
 3049 0eaf 1D       		.uleb128 0x1d
 3050 0eb0 01       		.byte	0x1
 3051 0eb1 50       		.byte	0x50
 3052 0eb2 02       		.byte	0x2
 3053 0eb3 74       		.byte	0x74
 3054 0eb4 00       		.sleb128 0
 3055 0eb5 00       		.byte	0
 3056 0eb6 1E       		.uleb128 0x1e
 3057 0eb7 3C000000 		.4byte	.LVL54
 3058 0ebb 01       		.byte	0x1
 3059 0ebc 26120000 		.4byte	0x1226
 3060 0ec0 1D       		.uleb128 0x1d
 3061 0ec1 01       		.byte	0x1
 3062 0ec2 52       		.byte	0x52
 3063 0ec3 02       		.byte	0x2
 3064 0ec4 09       		.byte	0x9
 3065 0ec5 FF       		.byte	0xff
 3066 0ec6 1D       		.uleb128 0x1d
 3067 0ec7 01       		.byte	0x1
 3068 0ec8 51       		.byte	0x51
 3069 0ec9 02       		.byte	0x2
 3070 0eca 75       		.byte	0x75
 3071 0ecb 00       		.sleb128 0
ARM GAS  C:\Users\DNIEL~1\AppData\Local\Temp\ccVdkgIc.s 			page 55


 3072 0ecc 1D       		.uleb128 0x1d
 3073 0ecd 01       		.byte	0x1
 3074 0ece 50       		.byte	0x50
 3075 0ecf 02       		.byte	0x2
 3076 0ed0 74       		.byte	0x74
 3077 0ed1 00       		.sleb128 0
 3078 0ed2 00       		.byte	0
 3079 0ed3 00       		.byte	0
 3080 0ed4 1B       		.uleb128 0x1b
 3081 0ed5 01       		.byte	0x1
 3082 0ed6 47050000 		.4byte	.LASF116
 3083 0eda 01       		.byte	0x1
 3084 0edb 5E       		.byte	0x5e
 3085 0edc 01       		.byte	0x1
 3086 0edd 00000000 		.4byte	.LFB126
 3087 0ee1 40000000 		.4byte	.LFE126
 3088 0ee5 4A020000 		.4byte	.LLST19
 3089 0ee9 01       		.byte	0x1
 3090 0eea 810F0000 		.4byte	0xf81
 3091 0eee 20       		.uleb128 0x20
 3092 0eef 59010000 		.4byte	.LASF117
 3093 0ef3 01       		.byte	0x1
 3094 0ef4 5E       		.byte	0x5e
 3095 0ef5 29000000 		.4byte	0x29
 3096 0ef9 6A020000 		.4byte	.LLST20
 3097 0efd 1C       		.uleb128 0x1c
 3098 0efe 12000000 		.4byte	.LVL57
 3099 0f02 26120000 		.4byte	0x1226
 3100 0f06 1D0F0000 		.4byte	0xf1d
 3101 0f0a 1D       		.uleb128 0x1d
 3102 0f0b 01       		.byte	0x1
 3103 0f0c 52       		.byte	0x52
 3104 0f0d 02       		.byte	0x2
 3105 0f0e 09       		.byte	0x9
 3106 0f0f FF       		.byte	0xff
 3107 0f10 1D       		.uleb128 0x1d
 3108 0f11 01       		.byte	0x1
 3109 0f12 51       		.byte	0x51
 3110 0f13 02       		.byte	0x2
 3111 0f14 09       		.byte	0x9
 3112 0f15 FF       		.byte	0xff
 3113 0f16 1D       		.uleb128 0x1d
 3114 0f17 01       		.byte	0x1
 3115 0f18 50       		.byte	0x50
 3116 0f19 02       		.byte	0x2
 3117 0f1a 74       		.byte	0x74
 3118 0f1b 00       		.sleb128 0
 3119 0f1c 00       		.byte	0
 3120 0f1d 1C       		.uleb128 0x1c
 3121 0f1e 1E000000 		.4byte	.LVL58
 3122 0f22 26120000 		.4byte	0x1226
 3123 0f26 3D0F0000 		.4byte	0xf3d
 3124 0f2a 1D       		.uleb128 0x1d
 3125 0f2b 01       		.byte	0x1
 3126 0f2c 52       		.byte	0x52
 3127 0f2d 02       		.byte	0x2
 3128 0f2e 09       		.byte	0x9
ARM GAS  C:\Users\DNIEL~1\AppData\Local\Temp\ccVdkgIc.s 			page 56


 3129 0f2f FF       		.byte	0xff
 3130 0f30 1D       		.uleb128 0x1d
 3131 0f31 01       		.byte	0x1
 3132 0f32 51       		.byte	0x51
 3133 0f33 02       		.byte	0x2
 3134 0f34 09       		.byte	0x9
 3135 0f35 A0       		.byte	0xa0
 3136 0f36 1D       		.uleb128 0x1d
 3137 0f37 01       		.byte	0x1
 3138 0f38 50       		.byte	0x50
 3139 0f39 02       		.byte	0x2
 3140 0f3a 74       		.byte	0x74
 3141 0f3b 00       		.sleb128 0
 3142 0f3c 00       		.byte	0
 3143 0f3d 1C       		.uleb128 0x1c
 3144 0f3e 2C000000 		.4byte	.LVL59
 3145 0f42 26120000 		.4byte	0x1226
 3146 0f46 630F0000 		.4byte	0xf63
 3147 0f4a 1D       		.uleb128 0x1d
 3148 0f4b 01       		.byte	0x1
 3149 0f4c 52       		.byte	0x52
 3150 0f4d 02       		.byte	0x2
 3151 0f4e 09       		.byte	0x9
 3152 0f4f FF       		.byte	0xff
 3153 0f50 1D       		.uleb128 0x1d
 3154 0f51 01       		.byte	0x1
 3155 0f52 51       		.byte	0x51
 3156 0f53 08       		.byte	0x8
 3157 0f54 75       		.byte	0x75
 3158 0f55 00       		.sleb128 0
 3159 0f56 09       		.byte	0x9
 3160 0f57 F4       		.byte	0xf4
 3161 0f58 24       		.byte	0x24
 3162 0f59 09       		.byte	0x9
 3163 0f5a FC       		.byte	0xfc
 3164 0f5b 25       		.byte	0x25
 3165 0f5c 1D       		.uleb128 0x1d
 3166 0f5d 01       		.byte	0x1
 3167 0f5e 50       		.byte	0x50
 3168 0f5f 02       		.byte	0x2
 3169 0f60 74       		.byte	0x74
 3170 0f61 00       		.sleb128 0
 3171 0f62 00       		.byte	0
 3172 0f63 1E       		.uleb128 0x1e
 3173 0f64 3C000000 		.4byte	.LVL60
 3174 0f68 01       		.byte	0x1
 3175 0f69 26120000 		.4byte	0x1226
 3176 0f6d 1D       		.uleb128 0x1d
 3177 0f6e 01       		.byte	0x1
 3178 0f6f 52       		.byte	0x52
 3179 0f70 02       		.byte	0x2
 3180 0f71 09       		.byte	0x9
 3181 0f72 FF       		.byte	0xff
 3182 0f73 1D       		.uleb128 0x1d
 3183 0f74 01       		.byte	0x1
 3184 0f75 51       		.byte	0x51
 3185 0f76 02       		.byte	0x2
ARM GAS  C:\Users\DNIEL~1\AppData\Local\Temp\ccVdkgIc.s 			page 57


 3186 0f77 75       		.byte	0x75
 3187 0f78 00       		.sleb128 0
 3188 0f79 1D       		.uleb128 0x1d
 3189 0f7a 01       		.byte	0x1
 3190 0f7b 50       		.byte	0x50
 3191 0f7c 02       		.byte	0x2
 3192 0f7d 74       		.byte	0x74
 3193 0f7e 00       		.sleb128 0
 3194 0f7f 00       		.byte	0
 3195 0f80 00       		.byte	0
 3196 0f81 1B       		.uleb128 0x1b
 3197 0f82 01       		.byte	0x1
 3198 0f83 66000000 		.4byte	.LASF118
 3199 0f87 01       		.byte	0x1
 3200 0f88 66       		.byte	0x66
 3201 0f89 01       		.byte	0x1
 3202 0f8a 00000000 		.4byte	.LFB127
 3203 0f8e 40000000 		.4byte	.LFE127
 3204 0f92 88020000 		.4byte	.LLST21
 3205 0f96 01       		.byte	0x1
 3206 0f97 2E100000 		.4byte	0x102e
 3207 0f9b 20       		.uleb128 0x20
 3208 0f9c 54030000 		.4byte	.LASF113
 3209 0fa0 01       		.byte	0x1
 3210 0fa1 66       		.byte	0x66
 3211 0fa2 29000000 		.4byte	0x29
 3212 0fa6 A8020000 		.4byte	.LLST22
 3213 0faa 1C       		.uleb128 0x1c
 3214 0fab 12000000 		.4byte	.LVL63
 3215 0faf 26120000 		.4byte	0x1226
 3216 0fb3 CA0F0000 		.4byte	0xfca
 3217 0fb7 1D       		.uleb128 0x1d
 3218 0fb8 01       		.byte	0x1
 3219 0fb9 52       		.byte	0x52
 3220 0fba 02       		.byte	0x2
 3221 0fbb 09       		.byte	0x9
 3222 0fbc FF       		.byte	0xff
 3223 0fbd 1D       		.uleb128 0x1d
 3224 0fbe 01       		.byte	0x1
 3225 0fbf 51       		.byte	0x51
 3226 0fc0 02       		.byte	0x2
 3227 0fc1 09       		.byte	0x9
 3228 0fc2 FF       		.byte	0xff
 3229 0fc3 1D       		.uleb128 0x1d
 3230 0fc4 01       		.byte	0x1
 3231 0fc5 50       		.byte	0x50
 3232 0fc6 02       		.byte	0x2
 3233 0fc7 74       		.byte	0x74
 3234 0fc8 00       		.sleb128 0
 3235 0fc9 00       		.byte	0
 3236 0fca 1C       		.uleb128 0x1c
 3237 0fcb 1E000000 		.4byte	.LVL64
 3238 0fcf 26120000 		.4byte	0x1226
 3239 0fd3 EA0F0000 		.4byte	0xfea
 3240 0fd7 1D       		.uleb128 0x1d
 3241 0fd8 01       		.byte	0x1
 3242 0fd9 52       		.byte	0x52
ARM GAS  C:\Users\DNIEL~1\AppData\Local\Temp\ccVdkgIc.s 			page 58


 3243 0fda 02       		.byte	0x2
 3244 0fdb 09       		.byte	0x9
 3245 0fdc FF       		.byte	0xff
 3246 0fdd 1D       		.uleb128 0x1d
 3247 0fde 01       		.byte	0x1
 3248 0fdf 51       		.byte	0x51
 3249 0fe0 02       		.byte	0x2
 3250 0fe1 09       		.byte	0x9
 3251 0fe2 A1       		.byte	0xa1
 3252 0fe3 1D       		.uleb128 0x1d
 3253 0fe4 01       		.byte	0x1
 3254 0fe5 50       		.byte	0x50
 3255 0fe6 02       		.byte	0x2
 3256 0fe7 74       		.byte	0x74
 3257 0fe8 00       		.sleb128 0
 3258 0fe9 00       		.byte	0
 3259 0fea 1C       		.uleb128 0x1c
 3260 0feb 2C000000 		.4byte	.LVL65
 3261 0fef 26120000 		.4byte	0x1226
 3262 0ff3 10100000 		.4byte	0x1010
 3263 0ff7 1D       		.uleb128 0x1d
 3264 0ff8 01       		.byte	0x1
 3265 0ff9 52       		.byte	0x52
 3266 0ffa 02       		.byte	0x2
 3267 0ffb 09       		.byte	0x9
 3268 0ffc FF       		.byte	0xff
 3269 0ffd 1D       		.uleb128 0x1d
 3270 0ffe 01       		.byte	0x1
 3271 0fff 51       		.byte	0x51
 3272 1000 08       		.byte	0x8
 3273 1001 75       		.byte	0x75
 3274 1002 00       		.sleb128 0
 3275 1003 09       		.byte	0x9
 3276 1004 F4       		.byte	0xf4
 3277 1005 24       		.byte	0x24
 3278 1006 09       		.byte	0x9
 3279 1007 FC       		.byte	0xfc
 3280 1008 25       		.byte	0x25
 3281 1009 1D       		.uleb128 0x1d
 3282 100a 01       		.byte	0x1
 3283 100b 50       		.byte	0x50
 3284 100c 02       		.byte	0x2
 3285 100d 74       		.byte	0x74
 3286 100e 00       		.sleb128 0
 3287 100f 00       		.byte	0
 3288 1010 1E       		.uleb128 0x1e
 3289 1011 3C000000 		.4byte	.LVL66
 3290 1015 01       		.byte	0x1
 3291 1016 26120000 		.4byte	0x1226
 3292 101a 1D       		.uleb128 0x1d
 3293 101b 01       		.byte	0x1
 3294 101c 52       		.byte	0x52
 3295 101d 02       		.byte	0x2
 3296 101e 09       		.byte	0x9
 3297 101f FF       		.byte	0xff
 3298 1020 1D       		.uleb128 0x1d
 3299 1021 01       		.byte	0x1
ARM GAS  C:\Users\DNIEL~1\AppData\Local\Temp\ccVdkgIc.s 			page 59


 3300 1022 51       		.byte	0x51
 3301 1023 02       		.byte	0x2
 3302 1024 75       		.byte	0x75
 3303 1025 00       		.sleb128 0
 3304 1026 1D       		.uleb128 0x1d
 3305 1027 01       		.byte	0x1
 3306 1028 50       		.byte	0x50
 3307 1029 02       		.byte	0x2
 3308 102a 74       		.byte	0x74
 3309 102b 00       		.sleb128 0
 3310 102c 00       		.byte	0
 3311 102d 00       		.byte	0
 3312 102e 1B       		.uleb128 0x1b
 3313 102f 01       		.byte	0x1
 3314 1030 ED030000 		.4byte	.LASF119
 3315 1034 01       		.byte	0x1
 3316 1035 6E       		.byte	0x6e
 3317 1036 01       		.byte	0x1
 3318 1037 00000000 		.4byte	.LFB128
 3319 103b 5C000000 		.4byte	.LFE128
 3320 103f C6020000 		.4byte	.LLST23
 3321 1043 01       		.byte	0x1
 3322 1044 37110000 		.4byte	0x1137
 3323 1048 20       		.uleb128 0x20
 3324 1049 0F000000 		.4byte	.LASF120
 3325 104d 01       		.byte	0x1
 3326 104e 6E       		.byte	0x6e
 3327 104f 74080000 		.4byte	0x874
 3328 1053 E6020000 		.4byte	.LLST24
 3329 1057 20       		.uleb128 0x20
 3330 1058 A0010000 		.4byte	.LASF121
 3331 105c 01       		.byte	0x1
 3332 105d 6E       		.byte	0x6e
 3333 105e 74080000 		.4byte	0x874
 3334 1062 04030000 		.4byte	.LLST25
 3335 1066 20       		.uleb128 0x20
 3336 1067 28010000 		.4byte	.LASF122
 3337 106b 01       		.byte	0x1
 3338 106c 6E       		.byte	0x6e
 3339 106d 29000000 		.4byte	0x29
 3340 1071 22030000 		.4byte	.LLST26
 3341 1075 1C       		.uleb128 0x1c
 3342 1076 16000000 		.4byte	.LVL71
 3343 107a 26120000 		.4byte	0x1226
 3344 107e 94100000 		.4byte	0x1094
 3345 1082 1D       		.uleb128 0x1d
 3346 1083 01       		.byte	0x1
 3347 1084 52       		.byte	0x52
 3348 1085 02       		.byte	0x2
 3349 1086 09       		.byte	0x9
 3350 1087 FF       		.byte	0xff
 3351 1088 1D       		.uleb128 0x1d
 3352 1089 01       		.byte	0x1
 3353 108a 51       		.byte	0x51
 3354 108b 01       		.byte	0x1
 3355 108c 30       		.byte	0x30
 3356 108d 1D       		.uleb128 0x1d
ARM GAS  C:\Users\DNIEL~1\AppData\Local\Temp\ccVdkgIc.s 			page 60


 3357 108e 01       		.byte	0x1
 3358 108f 50       		.byte	0x50
 3359 1090 02       		.byte	0x2
 3360 1091 74       		.byte	0x74
 3361 1092 00       		.sleb128 0
 3362 1093 00       		.byte	0
 3363 1094 1C       		.uleb128 0x1c
 3364 1095 22000000 		.4byte	.LVL72
 3365 1099 26120000 		.4byte	0x1226
 3366 109d B3100000 		.4byte	0x10b3
 3367 10a1 1D       		.uleb128 0x1d
 3368 10a2 01       		.byte	0x1
 3369 10a3 52       		.byte	0x52
 3370 10a4 02       		.byte	0x2
 3371 10a5 09       		.byte	0x9
 3372 10a6 FF       		.byte	0xff
 3373 10a7 1D       		.uleb128 0x1d
 3374 10a8 01       		.byte	0x1
 3375 10a9 51       		.byte	0x51
 3376 10aa 01       		.byte	0x1
 3377 10ab 39       		.byte	0x39
 3378 10ac 1D       		.uleb128 0x1d
 3379 10ad 01       		.byte	0x1
 3380 10ae 50       		.byte	0x50
 3381 10af 02       		.byte	0x2
 3382 10b0 74       		.byte	0x74
 3383 10b1 00       		.sleb128 0
 3384 10b2 00       		.byte	0
 3385 10b3 1C       		.uleb128 0x1c
 3386 10b4 2E000000 		.4byte	.LVL73
 3387 10b8 26120000 		.4byte	0x1226
 3388 10bc D3100000 		.4byte	0x10d3
 3389 10c0 1D       		.uleb128 0x1d
 3390 10c1 01       		.byte	0x1
 3391 10c2 52       		.byte	0x52
 3392 10c3 02       		.byte	0x2
 3393 10c4 09       		.byte	0x9
 3394 10c5 FF       		.byte	0xff
 3395 10c6 1D       		.uleb128 0x1d
 3396 10c7 01       		.byte	0x1
 3397 10c8 51       		.byte	0x51
 3398 10c9 02       		.byte	0x2
 3399 10ca 77       		.byte	0x77
 3400 10cb 00       		.sleb128 0
 3401 10cc 1D       		.uleb128 0x1d
 3402 10cd 01       		.byte	0x1
 3403 10ce 50       		.byte	0x50
 3404 10cf 02       		.byte	0x2
 3405 10d0 74       		.byte	0x74
 3406 10d1 00       		.sleb128 0
 3407 10d2 00       		.byte	0
 3408 10d3 1C       		.uleb128 0x1c
 3409 10d4 3A000000 		.4byte	.LVL74
 3410 10d8 26120000 		.4byte	0x1226
 3411 10dc F3100000 		.4byte	0x10f3
 3412 10e0 1D       		.uleb128 0x1d
 3413 10e1 01       		.byte	0x1
ARM GAS  C:\Users\DNIEL~1\AppData\Local\Temp\ccVdkgIc.s 			page 61


 3414 10e2 52       		.byte	0x52
 3415 10e3 02       		.byte	0x2
 3416 10e4 09       		.byte	0x9
 3417 10e5 FF       		.byte	0xff
 3418 10e6 1D       		.uleb128 0x1d
 3419 10e7 01       		.byte	0x1
 3420 10e8 51       		.byte	0x51
 3421 10e9 02       		.byte	0x2
 3422 10ea 76       		.byte	0x76
 3423 10eb 00       		.sleb128 0
 3424 10ec 1D       		.uleb128 0x1d
 3425 10ed 01       		.byte	0x1
 3426 10ee 50       		.byte	0x50
 3427 10ef 02       		.byte	0x2
 3428 10f0 74       		.byte	0x74
 3429 10f1 00       		.sleb128 0
 3430 10f2 00       		.byte	0
 3431 10f3 1C       		.uleb128 0x1c
 3432 10f4 48000000 		.4byte	.LVL75
 3433 10f8 26120000 		.4byte	0x1226
 3434 10fc 19110000 		.4byte	0x1119
 3435 1100 1D       		.uleb128 0x1d
 3436 1101 01       		.byte	0x1
 3437 1102 52       		.byte	0x52
 3438 1103 02       		.byte	0x2
 3439 1104 09       		.byte	0x9
 3440 1105 FF       		.byte	0xff
 3441 1106 1D       		.uleb128 0x1d
 3442 1107 01       		.byte	0x1
 3443 1108 51       		.byte	0x51
 3444 1109 08       		.byte	0x8
 3445 110a 75       		.byte	0x75
 3446 110b 00       		.sleb128 0
 3447 110c 09       		.byte	0x9
 3448 110d F4       		.byte	0xf4
 3449 110e 24       		.byte	0x24
 3450 110f 09       		.byte	0x9
 3451 1110 FC       		.byte	0xfc
 3452 1111 25       		.byte	0x25
 3453 1112 1D       		.uleb128 0x1d
 3454 1113 01       		.byte	0x1
 3455 1114 50       		.byte	0x50
 3456 1115 02       		.byte	0x2
 3457 1116 74       		.byte	0x74
 3458 1117 00       		.sleb128 0
 3459 1118 00       		.byte	0
 3460 1119 1E       		.uleb128 0x1e
 3461 111a 58000000 		.4byte	.LVL76
 3462 111e 01       		.byte	0x1
 3463 111f 26120000 		.4byte	0x1226
 3464 1123 1D       		.uleb128 0x1d
 3465 1124 01       		.byte	0x1
 3466 1125 52       		.byte	0x52
 3467 1126 02       		.byte	0x2
 3468 1127 09       		.byte	0x9
 3469 1128 FF       		.byte	0xff
 3470 1129 1D       		.uleb128 0x1d
ARM GAS  C:\Users\DNIEL~1\AppData\Local\Temp\ccVdkgIc.s 			page 62


 3471 112a 01       		.byte	0x1
 3472 112b 51       		.byte	0x51
 3473 112c 02       		.byte	0x2
 3474 112d 75       		.byte	0x75
 3475 112e 00       		.sleb128 0
 3476 112f 1D       		.uleb128 0x1d
 3477 1130 01       		.byte	0x1
 3478 1131 50       		.byte	0x50
 3479 1132 02       		.byte	0x2
 3480 1133 74       		.byte	0x74
 3481 1134 00       		.sleb128 0
 3482 1135 00       		.byte	0
 3483 1136 00       		.byte	0
 3484 1137 1B       		.uleb128 0x1b
 3485 1138 01       		.byte	0x1
 3486 1139 66040000 		.4byte	.LASF123
 3487 113d 01       		.byte	0x1
 3488 113e 78       		.byte	0x78
 3489 113f 01       		.byte	0x1
 3490 1140 00000000 		.4byte	.LFB129
 3491 1144 34000000 		.4byte	.LFE129
 3492 1148 40030000 		.4byte	.LLST27
 3493 114c 01       		.byte	0x1
 3494 114d BC110000 		.4byte	0x11bc
 3495 1151 20       		.uleb128 0x20
 3496 1152 C2000000 		.4byte	.LASF124
 3497 1156 01       		.byte	0x1
 3498 1157 78       		.byte	0x78
 3499 1158 74080000 		.4byte	0x874
 3500 115c 60030000 		.4byte	.LLST28
 3501 1160 1C       		.uleb128 0x1c
 3502 1161 12000000 		.4byte	.LVL79
 3503 1165 26120000 		.4byte	0x1226
 3504 1169 7F110000 		.4byte	0x117f
 3505 116d 1D       		.uleb128 0x1d
 3506 116e 01       		.byte	0x1
 3507 116f 52       		.byte	0x52
 3508 1170 02       		.byte	0x2
 3509 1171 09       		.byte	0x9
 3510 1172 FF       		.byte	0xff
 3511 1173 1D       		.uleb128 0x1d
 3512 1174 01       		.byte	0x1
 3513 1175 51       		.byte	0x51
 3514 1176 01       		.byte	0x1
 3515 1177 30       		.byte	0x30
 3516 1178 1D       		.uleb128 0x1d
 3517 1179 01       		.byte	0x1
 3518 117a 50       		.byte	0x50
 3519 117b 02       		.byte	0x2
 3520 117c 74       		.byte	0x74
 3521 117d 00       		.sleb128 0
 3522 117e 00       		.byte	0
 3523 117f 1C       		.uleb128 0x1c
 3524 1180 1E000000 		.4byte	.LVL80
 3525 1184 26120000 		.4byte	0x1226
 3526 1188 9E110000 		.4byte	0x119e
 3527 118c 1D       		.uleb128 0x1d
ARM GAS  C:\Users\DNIEL~1\AppData\Local\Temp\ccVdkgIc.s 			page 63


 3528 118d 01       		.byte	0x1
 3529 118e 52       		.byte	0x52
 3530 118f 02       		.byte	0x2
 3531 1190 09       		.byte	0x9
 3532 1191 FF       		.byte	0xff
 3533 1192 1D       		.uleb128 0x1d
 3534 1193 01       		.byte	0x1
 3535 1194 51       		.byte	0x51
 3536 1195 01       		.byte	0x1
 3537 1196 48       		.byte	0x48
 3538 1197 1D       		.uleb128 0x1d
 3539 1198 01       		.byte	0x1
 3540 1199 50       		.byte	0x50
 3541 119a 02       		.byte	0x2
 3542 119b 74       		.byte	0x74
 3543 119c 00       		.sleb128 0
 3544 119d 00       		.byte	0
 3545 119e 1E       		.uleb128 0x1e
 3546 119f 2E000000 		.4byte	.LVL81
 3547 11a3 01       		.byte	0x1
 3548 11a4 26120000 		.4byte	0x1226
 3549 11a8 1D       		.uleb128 0x1d
 3550 11a9 01       		.byte	0x1
 3551 11aa 52       		.byte	0x52
 3552 11ab 02       		.byte	0x2
 3553 11ac 09       		.byte	0x9
 3554 11ad FF       		.byte	0xff
 3555 11ae 1D       		.uleb128 0x1d
 3556 11af 01       		.byte	0x1
 3557 11b0 51       		.byte	0x51
 3558 11b1 02       		.byte	0x2
 3559 11b2 75       		.byte	0x75
 3560 11b3 00       		.sleb128 0
 3561 11b4 1D       		.uleb128 0x1d
 3562 11b5 01       		.byte	0x1
 3563 11b6 50       		.byte	0x50
 3564 11b7 02       		.byte	0x2
 3565 11b8 74       		.byte	0x74
 3566 11b9 00       		.sleb128 0
 3567 11ba 00       		.byte	0
 3568 11bb 00       		.byte	0
 3569 11bc 1B       		.uleb128 0x1b
 3570 11bd 01       		.byte	0x1
 3571 11be 16040000 		.4byte	.LASF125
 3572 11c2 01       		.byte	0x1
 3573 11c3 7F       		.byte	0x7f
 3574 11c4 01       		.byte	0x1
 3575 11c5 00000000 		.4byte	.LFB130
 3576 11c9 20000000 		.4byte	.LFE130
 3577 11cd 7E030000 		.4byte	.LLST29
 3578 11d1 01       		.byte	0x1
 3579 11d2 0A120000 		.4byte	0x120a
 3580 11d6 20       		.uleb128 0x20
 3581 11d7 62020000 		.4byte	.LASF126
 3582 11db 01       		.byte	0x1
 3583 11dc 7F       		.byte	0x7f
 3584 11dd 74080000 		.4byte	0x874
ARM GAS  C:\Users\DNIEL~1\AppData\Local\Temp\ccVdkgIc.s 			page 64


 3585 11e1 9E030000 		.4byte	.LLST30
 3586 11e5 21       		.uleb128 0x21
 3587 11e6 776B00   		.ascii	"wk\000"
 3588 11e9 01       		.byte	0x1
 3589 11ea 81       		.byte	0x81
 3590 11eb 54000000 		.4byte	0x54
 3591 11ef BC030000 		.4byte	.LLST31
 3592 11f3 22       		.uleb128 0x22
 3593 11f4 14000000 		.4byte	.LVL85
 3594 11f8 26120000 		.4byte	0x1226
 3595 11fc 1D       		.uleb128 0x1d
 3596 11fd 01       		.byte	0x1
 3597 11fe 52       		.byte	0x52
 3598 11ff 02       		.byte	0x2
 3599 1200 09       		.byte	0x9
 3600 1201 FF       		.byte	0xff
 3601 1202 1D       		.uleb128 0x1d
 3602 1203 01       		.byte	0x1
 3603 1204 51       		.byte	0x51
 3604 1205 02       		.byte	0x2
 3605 1206 74       		.byte	0x74
 3606 1207 00       		.sleb128 0
 3607 1208 00       		.byte	0
 3608 1209 00       		.byte	0
 3609 120a 23       		.uleb128 0x23
 3610 120b 59000000 		.4byte	.LASF127
 3611 120f 0D       		.byte	0xd
 3612 1210 9806     		.2byte	0x698
 3613 1212 B4050000 		.4byte	0x5b4
 3614 1216 01       		.byte	0x1
 3615 1217 01       		.byte	0x1
 3616 1218 24       		.uleb128 0x24
 3617 1219 53443200 		.ascii	"SD2\000"
 3618 121d 0E       		.byte	0xe
 3619 121e 1501     		.2byte	0x115
 3620 1220 4A070000 		.4byte	0x74a
 3621 1224 01       		.byte	0x1
 3622 1225 01       		.byte	0x1
 3623 1226 25       		.uleb128 0x25
 3624 1227 01       		.byte	0x1
 3625 1228 00000000 		.4byte	.LASF131
 3626 122c 0A       		.byte	0xa
 3627 122d 6601     		.2byte	0x166
 3628 122f 01       		.byte	0x1
 3629 1230 DD000000 		.4byte	0xdd
 3630 1234 01       		.byte	0x1
 3631 1235 12       		.uleb128 0x12
 3632 1236 6E080000 		.4byte	0x86e
 3633 123a 12       		.uleb128 0x12
 3634 123b 49000000 		.4byte	0x49
 3635 123f 12       		.uleb128 0x12
 3636 1240 FE000000 		.4byte	0xfe
 3637 1244 00       		.byte	0
 3638 1245 00       		.byte	0
 3639              		.section	.debug_abbrev,"",%progbits
 3640              	.Ldebug_abbrev0:
 3641 0000 01       		.uleb128 0x1
ARM GAS  C:\Users\DNIEL~1\AppData\Local\Temp\ccVdkgIc.s 			page 65


 3642 0001 11       		.uleb128 0x11
 3643 0002 01       		.byte	0x1
 3644 0003 25       		.uleb128 0x25
 3645 0004 0E       		.uleb128 0xe
 3646 0005 13       		.uleb128 0x13
 3647 0006 0B       		.uleb128 0xb
 3648 0007 03       		.uleb128 0x3
 3649 0008 0E       		.uleb128 0xe
 3650 0009 1B       		.uleb128 0x1b
 3651 000a 0E       		.uleb128 0xe
 3652 000b 55       		.uleb128 0x55
 3653 000c 06       		.uleb128 0x6
 3654 000d 11       		.uleb128 0x11
 3655 000e 01       		.uleb128 0x1
 3656 000f 52       		.uleb128 0x52
 3657 0010 01       		.uleb128 0x1
 3658 0011 10       		.uleb128 0x10
 3659 0012 06       		.uleb128 0x6
 3660 0013 00       		.byte	0
 3661 0014 00       		.byte	0
 3662 0015 02       		.uleb128 0x2
 3663 0016 24       		.uleb128 0x24
 3664 0017 00       		.byte	0
 3665 0018 0B       		.uleb128 0xb
 3666 0019 0B       		.uleb128 0xb
 3667 001a 3E       		.uleb128 0x3e
 3668 001b 0B       		.uleb128 0xb
 3669 001c 03       		.uleb128 0x3
 3670 001d 08       		.uleb128 0x8
 3671 001e 00       		.byte	0
 3672 001f 00       		.byte	0
 3673 0020 03       		.uleb128 0x3
 3674 0021 16       		.uleb128 0x16
 3675 0022 00       		.byte	0
 3676 0023 03       		.uleb128 0x3
 3677 0024 0E       		.uleb128 0xe
 3678 0025 3A       		.uleb128 0x3a
 3679 0026 0B       		.uleb128 0xb
 3680 0027 3B       		.uleb128 0x3b
 3681 0028 0B       		.uleb128 0xb
 3682 0029 49       		.uleb128 0x49
 3683 002a 13       		.uleb128 0x13
 3684 002b 00       		.byte	0
 3685 002c 00       		.byte	0
 3686 002d 04       		.uleb128 0x4
 3687 002e 24       		.uleb128 0x24
 3688 002f 00       		.byte	0
 3689 0030 0B       		.uleb128 0xb
 3690 0031 0B       		.uleb128 0xb
 3691 0032 3E       		.uleb128 0x3e
 3692 0033 0B       		.uleb128 0xb
 3693 0034 03       		.uleb128 0x3
 3694 0035 0E       		.uleb128 0xe
 3695 0036 00       		.byte	0
 3696 0037 00       		.byte	0
 3697 0038 05       		.uleb128 0x5
 3698 0039 13       		.uleb128 0x13
ARM GAS  C:\Users\DNIEL~1\AppData\Local\Temp\ccVdkgIc.s 			page 66


 3699 003a 01       		.byte	0x1
 3700 003b 03       		.uleb128 0x3
 3701 003c 0E       		.uleb128 0xe
 3702 003d 0B       		.uleb128 0xb
 3703 003e 0B       		.uleb128 0xb
 3704 003f 3A       		.uleb128 0x3a
 3705 0040 0B       		.uleb128 0xb
 3706 0041 3B       		.uleb128 0x3b
 3707 0042 0B       		.uleb128 0xb
 3708 0043 01       		.uleb128 0x1
 3709 0044 13       		.uleb128 0x13
 3710 0045 00       		.byte	0
 3711 0046 00       		.byte	0
 3712 0047 06       		.uleb128 0x6
 3713 0048 0D       		.uleb128 0xd
 3714 0049 00       		.byte	0
 3715 004a 03       		.uleb128 0x3
 3716 004b 0E       		.uleb128 0xe
 3717 004c 3A       		.uleb128 0x3a
 3718 004d 0B       		.uleb128 0xb
 3719 004e 3B       		.uleb128 0x3b
 3720 004f 0B       		.uleb128 0xb
 3721 0050 49       		.uleb128 0x49
 3722 0051 13       		.uleb128 0x13
 3723 0052 38       		.uleb128 0x38
 3724 0053 0A       		.uleb128 0xa
 3725 0054 00       		.byte	0
 3726 0055 00       		.byte	0
 3727 0056 07       		.uleb128 0x7
 3728 0057 0D       		.uleb128 0xd
 3729 0058 00       		.byte	0
 3730 0059 03       		.uleb128 0x3
 3731 005a 08       		.uleb128 0x8
 3732 005b 3A       		.uleb128 0x3a
 3733 005c 0B       		.uleb128 0xb
 3734 005d 3B       		.uleb128 0x3b
 3735 005e 0B       		.uleb128 0xb
 3736 005f 49       		.uleb128 0x49
 3737 0060 13       		.uleb128 0x13
 3738 0061 38       		.uleb128 0x38
 3739 0062 0A       		.uleb128 0xa
 3740 0063 00       		.byte	0
 3741 0064 00       		.byte	0
 3742 0065 08       		.uleb128 0x8
 3743 0066 13       		.uleb128 0x13
 3744 0067 01       		.byte	0x1
 3745 0068 0B       		.uleb128 0xb
 3746 0069 0B       		.uleb128 0xb
 3747 006a 3A       		.uleb128 0x3a
 3748 006b 0B       		.uleb128 0xb
 3749 006c 3B       		.uleb128 0x3b
 3750 006d 0B       		.uleb128 0xb
 3751 006e 01       		.uleb128 0x1
 3752 006f 13       		.uleb128 0x13
 3753 0070 00       		.byte	0
 3754 0071 00       		.byte	0
 3755 0072 09       		.uleb128 0x9
ARM GAS  C:\Users\DNIEL~1\AppData\Local\Temp\ccVdkgIc.s 			page 67


 3756 0073 0F       		.uleb128 0xf
 3757 0074 00       		.byte	0
 3758 0075 0B       		.uleb128 0xb
 3759 0076 0B       		.uleb128 0xb
 3760 0077 49       		.uleb128 0x49
 3761 0078 13       		.uleb128 0x13
 3762 0079 00       		.byte	0
 3763 007a 00       		.byte	0
 3764 007b 0A       		.uleb128 0xa
 3765 007c 0F       		.uleb128 0xf
 3766 007d 00       		.byte	0
 3767 007e 0B       		.uleb128 0xb
 3768 007f 0B       		.uleb128 0xb
 3769 0080 00       		.byte	0
 3770 0081 00       		.byte	0
 3771 0082 0B       		.uleb128 0xb
 3772 0083 13       		.uleb128 0x13
 3773 0084 01       		.byte	0x1
 3774 0085 03       		.uleb128 0x3
 3775 0086 0E       		.uleb128 0xe
 3776 0087 0B       		.uleb128 0xb
 3777 0088 0B       		.uleb128 0xb
 3778 0089 3A       		.uleb128 0x3a
 3779 008a 0B       		.uleb128 0xb
 3780 008b 3B       		.uleb128 0x3b
 3781 008c 05       		.uleb128 0x5
 3782 008d 01       		.uleb128 0x1
 3783 008e 13       		.uleb128 0x13
 3784 008f 00       		.byte	0
 3785 0090 00       		.byte	0
 3786 0091 0C       		.uleb128 0xc
 3787 0092 0D       		.uleb128 0xd
 3788 0093 00       		.byte	0
 3789 0094 03       		.uleb128 0x3
 3790 0095 08       		.uleb128 0x8
 3791 0096 3A       		.uleb128 0x3a
 3792 0097 0B       		.uleb128 0xb
 3793 0098 3B       		.uleb128 0x3b
 3794 0099 05       		.uleb128 0x5
 3795 009a 49       		.uleb128 0x49
 3796 009b 13       		.uleb128 0x13
 3797 009c 38       		.uleb128 0x38
 3798 009d 0A       		.uleb128 0xa
 3799 009e 00       		.byte	0
 3800 009f 00       		.byte	0
 3801 00a0 0D       		.uleb128 0xd
 3802 00a1 35       		.uleb128 0x35
 3803 00a2 00       		.byte	0
 3804 00a3 49       		.uleb128 0x49
 3805 00a4 13       		.uleb128 0x13
 3806 00a5 00       		.byte	0
 3807 00a6 00       		.byte	0
 3808 00a7 0E       		.uleb128 0xe
 3809 00a8 17       		.uleb128 0x17
 3810 00a9 01       		.byte	0x1
 3811 00aa 0B       		.uleb128 0xb
 3812 00ab 0B       		.uleb128 0xb
ARM GAS  C:\Users\DNIEL~1\AppData\Local\Temp\ccVdkgIc.s 			page 68


 3813 00ac 3A       		.uleb128 0x3a
 3814 00ad 0B       		.uleb128 0xb
 3815 00ae 3B       		.uleb128 0x3b
 3816 00af 0B       		.uleb128 0xb
 3817 00b0 01       		.uleb128 0x1
 3818 00b1 13       		.uleb128 0x13
 3819 00b2 00       		.byte	0
 3820 00b3 00       		.byte	0
 3821 00b4 0F       		.uleb128 0xf
 3822 00b5 0D       		.uleb128 0xd
 3823 00b6 00       		.byte	0
 3824 00b7 03       		.uleb128 0x3
 3825 00b8 0E       		.uleb128 0xe
 3826 00b9 3A       		.uleb128 0x3a
 3827 00ba 0B       		.uleb128 0xb
 3828 00bb 3B       		.uleb128 0x3b
 3829 00bc 0B       		.uleb128 0xb
 3830 00bd 49       		.uleb128 0x49
 3831 00be 13       		.uleb128 0x13
 3832 00bf 00       		.byte	0
 3833 00c0 00       		.byte	0
 3834 00c1 10       		.uleb128 0x10
 3835 00c2 26       		.uleb128 0x26
 3836 00c3 00       		.byte	0
 3837 00c4 49       		.uleb128 0x49
 3838 00c5 13       		.uleb128 0x13
 3839 00c6 00       		.byte	0
 3840 00c7 00       		.byte	0
 3841 00c8 11       		.uleb128 0x11
 3842 00c9 15       		.uleb128 0x15
 3843 00ca 01       		.byte	0x1
 3844 00cb 27       		.uleb128 0x27
 3845 00cc 0C       		.uleb128 0xc
 3846 00cd 49       		.uleb128 0x49
 3847 00ce 13       		.uleb128 0x13
 3848 00cf 01       		.uleb128 0x1
 3849 00d0 13       		.uleb128 0x13
 3850 00d1 00       		.byte	0
 3851 00d2 00       		.byte	0
 3852 00d3 12       		.uleb128 0x12
 3853 00d4 05       		.uleb128 0x5
 3854 00d5 00       		.byte	0
 3855 00d6 49       		.uleb128 0x49
 3856 00d7 13       		.uleb128 0x13
 3857 00d8 00       		.byte	0
 3858 00d9 00       		.byte	0
 3859 00da 13       		.uleb128 0x13
 3860 00db 15       		.uleb128 0x15
 3861 00dc 01       		.byte	0x1
 3862 00dd 27       		.uleb128 0x27
 3863 00de 0C       		.uleb128 0xc
 3864 00df 01       		.uleb128 0x1
 3865 00e0 13       		.uleb128 0x13
 3866 00e1 00       		.byte	0
 3867 00e2 00       		.byte	0
 3868 00e3 14       		.uleb128 0x14
 3869 00e4 13       		.uleb128 0x13
ARM GAS  C:\Users\DNIEL~1\AppData\Local\Temp\ccVdkgIc.s 			page 69


 3870 00e5 01       		.byte	0x1
 3871 00e6 0B       		.uleb128 0xb
 3872 00e7 0B       		.uleb128 0xb
 3873 00e8 3A       		.uleb128 0x3a
 3874 00e9 0B       		.uleb128 0xb
 3875 00ea 3B       		.uleb128 0x3b
 3876 00eb 05       		.uleb128 0x5
 3877 00ec 01       		.uleb128 0x1
 3878 00ed 13       		.uleb128 0x13
 3879 00ee 00       		.byte	0
 3880 00ef 00       		.byte	0
 3881 00f0 15       		.uleb128 0x15
 3882 00f1 0D       		.uleb128 0xd
 3883 00f2 00       		.byte	0
 3884 00f3 03       		.uleb128 0x3
 3885 00f4 0E       		.uleb128 0xe
 3886 00f5 3A       		.uleb128 0x3a
 3887 00f6 0B       		.uleb128 0xb
 3888 00f7 3B       		.uleb128 0x3b
 3889 00f8 05       		.uleb128 0x5
 3890 00f9 49       		.uleb128 0x49
 3891 00fa 13       		.uleb128 0x13
 3892 00fb 38       		.uleb128 0x38
 3893 00fc 0A       		.uleb128 0xa
 3894 00fd 00       		.byte	0
 3895 00fe 00       		.byte	0
 3896 00ff 16       		.uleb128 0x16
 3897 0100 16       		.uleb128 0x16
 3898 0101 00       		.byte	0
 3899 0102 03       		.uleb128 0x3
 3900 0103 0E       		.uleb128 0xe
 3901 0104 3A       		.uleb128 0x3a
 3902 0105 0B       		.uleb128 0xb
 3903 0106 3B       		.uleb128 0x3b
 3904 0107 05       		.uleb128 0x5
 3905 0108 49       		.uleb128 0x49
 3906 0109 13       		.uleb128 0x13
 3907 010a 00       		.byte	0
 3908 010b 00       		.byte	0
 3909 010c 17       		.uleb128 0x17
 3910 010d 04       		.uleb128 0x4
 3911 010e 01       		.byte	0x1
 3912 010f 0B       		.uleb128 0xb
 3913 0110 0B       		.uleb128 0xb
 3914 0111 3A       		.uleb128 0x3a
 3915 0112 0B       		.uleb128 0xb
 3916 0113 3B       		.uleb128 0x3b
 3917 0114 0B       		.uleb128 0xb
 3918 0115 01       		.uleb128 0x1
 3919 0116 13       		.uleb128 0x13
 3920 0117 00       		.byte	0
 3921 0118 00       		.byte	0
 3922 0119 18       		.uleb128 0x18
 3923 011a 28       		.uleb128 0x28
 3924 011b 00       		.byte	0
 3925 011c 03       		.uleb128 0x3
 3926 011d 0E       		.uleb128 0xe
ARM GAS  C:\Users\DNIEL~1\AppData\Local\Temp\ccVdkgIc.s 			page 70


 3927 011e 1C       		.uleb128 0x1c
 3928 011f 0D       		.uleb128 0xd
 3929 0120 00       		.byte	0
 3930 0121 00       		.byte	0
 3931 0122 19       		.uleb128 0x19
 3932 0123 01       		.uleb128 0x1
 3933 0124 01       		.byte	0x1
 3934 0125 49       		.uleb128 0x49
 3935 0126 13       		.uleb128 0x13
 3936 0127 01       		.uleb128 0x1
 3937 0128 13       		.uleb128 0x13
 3938 0129 00       		.byte	0
 3939 012a 00       		.byte	0
 3940 012b 1A       		.uleb128 0x1a
 3941 012c 21       		.uleb128 0x21
 3942 012d 00       		.byte	0
 3943 012e 49       		.uleb128 0x49
 3944 012f 13       		.uleb128 0x13
 3945 0130 2F       		.uleb128 0x2f
 3946 0131 0B       		.uleb128 0xb
 3947 0132 00       		.byte	0
 3948 0133 00       		.byte	0
 3949 0134 1B       		.uleb128 0x1b
 3950 0135 2E       		.uleb128 0x2e
 3951 0136 01       		.byte	0x1
 3952 0137 3F       		.uleb128 0x3f
 3953 0138 0C       		.uleb128 0xc
 3954 0139 03       		.uleb128 0x3
 3955 013a 0E       		.uleb128 0xe
 3956 013b 3A       		.uleb128 0x3a
 3957 013c 0B       		.uleb128 0xb
 3958 013d 3B       		.uleb128 0x3b
 3959 013e 0B       		.uleb128 0xb
 3960 013f 27       		.uleb128 0x27
 3961 0140 0C       		.uleb128 0xc
 3962 0141 11       		.uleb128 0x11
 3963 0142 01       		.uleb128 0x1
 3964 0143 12       		.uleb128 0x12
 3965 0144 01       		.uleb128 0x1
 3966 0145 40       		.uleb128 0x40
 3967 0146 06       		.uleb128 0x6
 3968 0147 9742     		.uleb128 0x2117
 3969 0149 0C       		.uleb128 0xc
 3970 014a 01       		.uleb128 0x1
 3971 014b 13       		.uleb128 0x13
 3972 014c 00       		.byte	0
 3973 014d 00       		.byte	0
 3974 014e 1C       		.uleb128 0x1c
 3975 014f 898201   		.uleb128 0x4109
 3976 0152 01       		.byte	0x1
 3977 0153 11       		.uleb128 0x11
 3978 0154 01       		.uleb128 0x1
 3979 0155 31       		.uleb128 0x31
 3980 0156 13       		.uleb128 0x13
 3981 0157 01       		.uleb128 0x1
 3982 0158 13       		.uleb128 0x13
 3983 0159 00       		.byte	0
ARM GAS  C:\Users\DNIEL~1\AppData\Local\Temp\ccVdkgIc.s 			page 71


 3984 015a 00       		.byte	0
 3985 015b 1D       		.uleb128 0x1d
 3986 015c 8A8201   		.uleb128 0x410a
 3987 015f 00       		.byte	0
 3988 0160 02       		.uleb128 0x2
 3989 0161 0A       		.uleb128 0xa
 3990 0162 9142     		.uleb128 0x2111
 3991 0164 0A       		.uleb128 0xa
 3992 0165 00       		.byte	0
 3993 0166 00       		.byte	0
 3994 0167 1E       		.uleb128 0x1e
 3995 0168 898201   		.uleb128 0x4109
 3996 016b 01       		.byte	0x1
 3997 016c 11       		.uleb128 0x11
 3998 016d 01       		.uleb128 0x1
 3999 016e 9542     		.uleb128 0x2115
 4000 0170 0C       		.uleb128 0xc
 4001 0171 31       		.uleb128 0x31
 4002 0172 13       		.uleb128 0x13
 4003 0173 00       		.byte	0
 4004 0174 00       		.byte	0
 4005 0175 1F       		.uleb128 0x1f
 4006 0176 05       		.uleb128 0x5
 4007 0177 00       		.byte	0
 4008 0178 03       		.uleb128 0x3
 4009 0179 08       		.uleb128 0x8
 4010 017a 3A       		.uleb128 0x3a
 4011 017b 0B       		.uleb128 0xb
 4012 017c 3B       		.uleb128 0x3b
 4013 017d 0B       		.uleb128 0xb
 4014 017e 49       		.uleb128 0x49
 4015 017f 13       		.uleb128 0x13
 4016 0180 02       		.uleb128 0x2
 4017 0181 06       		.uleb128 0x6
 4018 0182 00       		.byte	0
 4019 0183 00       		.byte	0
 4020 0184 20       		.uleb128 0x20
 4021 0185 05       		.uleb128 0x5
 4022 0186 00       		.byte	0
 4023 0187 03       		.uleb128 0x3
 4024 0188 0E       		.uleb128 0xe
 4025 0189 3A       		.uleb128 0x3a
 4026 018a 0B       		.uleb128 0xb
 4027 018b 3B       		.uleb128 0x3b
 4028 018c 0B       		.uleb128 0xb
 4029 018d 49       		.uleb128 0x49
 4030 018e 13       		.uleb128 0x13
 4031 018f 02       		.uleb128 0x2
 4032 0190 06       		.uleb128 0x6
 4033 0191 00       		.byte	0
 4034 0192 00       		.byte	0
 4035 0193 21       		.uleb128 0x21
 4036 0194 34       		.uleb128 0x34
 4037 0195 00       		.byte	0
 4038 0196 03       		.uleb128 0x3
 4039 0197 08       		.uleb128 0x8
 4040 0198 3A       		.uleb128 0x3a
ARM GAS  C:\Users\DNIEL~1\AppData\Local\Temp\ccVdkgIc.s 			page 72


 4041 0199 0B       		.uleb128 0xb
 4042 019a 3B       		.uleb128 0x3b
 4043 019b 0B       		.uleb128 0xb
 4044 019c 49       		.uleb128 0x49
 4045 019d 13       		.uleb128 0x13
 4046 019e 02       		.uleb128 0x2
 4047 019f 06       		.uleb128 0x6
 4048 01a0 00       		.byte	0
 4049 01a1 00       		.byte	0
 4050 01a2 22       		.uleb128 0x22
 4051 01a3 898201   		.uleb128 0x4109
 4052 01a6 01       		.byte	0x1
 4053 01a7 11       		.uleb128 0x11
 4054 01a8 01       		.uleb128 0x1
 4055 01a9 31       		.uleb128 0x31
 4056 01aa 13       		.uleb128 0x13
 4057 01ab 00       		.byte	0
 4058 01ac 00       		.byte	0
 4059 01ad 23       		.uleb128 0x23
 4060 01ae 34       		.uleb128 0x34
 4061 01af 00       		.byte	0
 4062 01b0 03       		.uleb128 0x3
 4063 01b1 0E       		.uleb128 0xe
 4064 01b2 3A       		.uleb128 0x3a
 4065 01b3 0B       		.uleb128 0xb
 4066 01b4 3B       		.uleb128 0x3b
 4067 01b5 05       		.uleb128 0x5
 4068 01b6 49       		.uleb128 0x49
 4069 01b7 13       		.uleb128 0x13
 4070 01b8 3F       		.uleb128 0x3f
 4071 01b9 0C       		.uleb128 0xc
 4072 01ba 3C       		.uleb128 0x3c
 4073 01bb 0C       		.uleb128 0xc
 4074 01bc 00       		.byte	0
 4075 01bd 00       		.byte	0
 4076 01be 24       		.uleb128 0x24
 4077 01bf 34       		.uleb128 0x34
 4078 01c0 00       		.byte	0
 4079 01c1 03       		.uleb128 0x3
 4080 01c2 08       		.uleb128 0x8
 4081 01c3 3A       		.uleb128 0x3a
 4082 01c4 0B       		.uleb128 0xb
 4083 01c5 3B       		.uleb128 0x3b
 4084 01c6 05       		.uleb128 0x5
 4085 01c7 49       		.uleb128 0x49
 4086 01c8 13       		.uleb128 0x13
 4087 01c9 3F       		.uleb128 0x3f
 4088 01ca 0C       		.uleb128 0xc
 4089 01cb 3C       		.uleb128 0x3c
 4090 01cc 0C       		.uleb128 0xc
 4091 01cd 00       		.byte	0
 4092 01ce 00       		.byte	0
 4093 01cf 25       		.uleb128 0x25
 4094 01d0 2E       		.uleb128 0x2e
 4095 01d1 01       		.byte	0x1
 4096 01d2 3F       		.uleb128 0x3f
 4097 01d3 0C       		.uleb128 0xc
ARM GAS  C:\Users\DNIEL~1\AppData\Local\Temp\ccVdkgIc.s 			page 73


 4098 01d4 03       		.uleb128 0x3
 4099 01d5 0E       		.uleb128 0xe
 4100 01d6 3A       		.uleb128 0x3a
 4101 01d7 0B       		.uleb128 0xb
 4102 01d8 3B       		.uleb128 0x3b
 4103 01d9 05       		.uleb128 0x5
 4104 01da 27       		.uleb128 0x27
 4105 01db 0C       		.uleb128 0xc
 4106 01dc 49       		.uleb128 0x49
 4107 01dd 13       		.uleb128 0x13
 4108 01de 3C       		.uleb128 0x3c
 4109 01df 0C       		.uleb128 0xc
 4110 01e0 00       		.byte	0
 4111 01e1 00       		.byte	0
 4112 01e2 00       		.byte	0
 4113              		.section	.debug_loc,"",%progbits
 4114              	.Ldebug_loc0:
 4115              	.LLST0:
 4116 0000 00000000 		.4byte	.LFB118
 4117 0004 02000000 		.4byte	.LCFI0
 4118 0008 0200     		.2byte	0x2
 4119 000a 7D       		.byte	0x7d
 4120 000b 00       		.sleb128 0
 4121 000c 02000000 		.4byte	.LCFI0
 4122 0010 24000000 		.4byte	.LFE118
 4123 0014 0200     		.2byte	0x2
 4124 0016 7D       		.byte	0x7d
 4125 0017 08       		.sleb128 8
 4126 0018 00000000 		.4byte	0
 4127 001c 00000000 		.4byte	0
 4128              	.LLST1:
 4129 0020 00000000 		.4byte	.LFB119
 4130 0024 02000000 		.4byte	.LCFI1
 4131 0028 0200     		.2byte	0x2
 4132 002a 7D       		.byte	0x7d
 4133 002b 00       		.sleb128 0
 4134 002c 02000000 		.4byte	.LCFI1
 4135 0030 24000000 		.4byte	.LFE119
 4136 0034 0200     		.2byte	0x2
 4137 0036 7D       		.byte	0x7d
 4138 0037 08       		.sleb128 8
 4139 0038 00000000 		.4byte	0
 4140 003c 00000000 		.4byte	0
 4141              	.LLST2:
 4142 0040 00000000 		.4byte	.LFB120
 4143 0044 02000000 		.4byte	.LCFI2
 4144 0048 0200     		.2byte	0x2
 4145 004a 7D       		.byte	0x7d
 4146 004b 00       		.sleb128 0
 4147 004c 02000000 		.4byte	.LCFI2
 4148 0050 5C000000 		.4byte	.LFE120
 4149 0054 0200     		.2byte	0x2
 4150 0056 7D       		.byte	0x7d
 4151 0057 10       		.sleb128 16
 4152 0058 00000000 		.4byte	0
 4153 005c 00000000 		.4byte	0
 4154              	.LLST3:
ARM GAS  C:\Users\DNIEL~1\AppData\Local\Temp\ccVdkgIc.s 			page 74


 4155 0060 00000000 		.4byte	.LVL4
 4156 0064 10000000 		.4byte	.LVL6
 4157 0068 0100     		.2byte	0x1
 4158 006a 50       		.byte	0x50
 4159 006b 10000000 		.4byte	.LVL6
 4160 006f 5C000000 		.4byte	.LFE120
 4161 0073 0100     		.2byte	0x1
 4162 0075 56       		.byte	0x56
 4163 0076 00000000 		.4byte	0
 4164 007a 00000000 		.4byte	0
 4165              	.LLST4:
 4166 007e 00000000 		.4byte	.LVL4
 4167 0082 0E000000 		.4byte	.LVL5
 4168 0086 0100     		.2byte	0x1
 4169 0088 51       		.byte	0x51
 4170 0089 0E000000 		.4byte	.LVL5
 4171 008d 5C000000 		.4byte	.LFE120
 4172 0091 0100     		.2byte	0x1
 4173 0093 55       		.byte	0x55
 4174 0094 00000000 		.4byte	0
 4175 0098 00000000 		.4byte	0
 4176              	.LLST5:
 4177 009c 00000000 		.4byte	.LFB121
 4178 00a0 02000000 		.4byte	.LCFI3
 4179 00a4 0200     		.2byte	0x2
 4180 00a6 7D       		.byte	0x7d
 4181 00a7 00       		.sleb128 0
 4182 00a8 02000000 		.4byte	.LCFI3
 4183 00ac 5C000000 		.4byte	.LFE121
 4184 00b0 0200     		.2byte	0x2
 4185 00b2 7D       		.byte	0x7d
 4186 00b3 10       		.sleb128 16
 4187 00b4 00000000 		.4byte	0
 4188 00b8 00000000 		.4byte	0
 4189              	.LLST6:
 4190 00bc 00000000 		.4byte	.LVL13
 4191 00c0 10000000 		.4byte	.LVL15
 4192 00c4 0100     		.2byte	0x1
 4193 00c6 50       		.byte	0x50
 4194 00c7 10000000 		.4byte	.LVL15
 4195 00cb 5C000000 		.4byte	.LFE121
 4196 00cf 0100     		.2byte	0x1
 4197 00d1 56       		.byte	0x56
 4198 00d2 00000000 		.4byte	0
 4199 00d6 00000000 		.4byte	0
 4200              	.LLST7:
 4201 00da 00000000 		.4byte	.LVL13
 4202 00de 0E000000 		.4byte	.LVL14
 4203 00e2 0100     		.2byte	0x1
 4204 00e4 51       		.byte	0x51
 4205 00e5 0E000000 		.4byte	.LVL14
 4206 00e9 5C000000 		.4byte	.LFE121
 4207 00ed 0100     		.2byte	0x1
 4208 00ef 55       		.byte	0x55
 4209 00f0 00000000 		.4byte	0
 4210 00f4 00000000 		.4byte	0
 4211              	.LLST8:
ARM GAS  C:\Users\DNIEL~1\AppData\Local\Temp\ccVdkgIc.s 			page 75


 4212 00f8 00000000 		.4byte	.LFB122
 4213 00fc 02000000 		.4byte	.LCFI4
 4214 0100 0200     		.2byte	0x2
 4215 0102 7D       		.byte	0x7d
 4216 0103 00       		.sleb128 0
 4217 0104 02000000 		.4byte	.LCFI4
 4218 0108 5C000000 		.4byte	.LFE122
 4219 010c 0200     		.2byte	0x2
 4220 010e 7D       		.byte	0x7d
 4221 010f 10       		.sleb128 16
 4222 0110 00000000 		.4byte	0
 4223 0114 00000000 		.4byte	0
 4224              	.LLST9:
 4225 0118 00000000 		.4byte	.LVL22
 4226 011c 10000000 		.4byte	.LVL24
 4227 0120 0100     		.2byte	0x1
 4228 0122 50       		.byte	0x50
 4229 0123 10000000 		.4byte	.LVL24
 4230 0127 5C000000 		.4byte	.LFE122
 4231 012b 0100     		.2byte	0x1
 4232 012d 56       		.byte	0x56
 4233 012e 00000000 		.4byte	0
 4234 0132 00000000 		.4byte	0
 4235              	.LLST10:
 4236 0136 00000000 		.4byte	.LVL22
 4237 013a 0E000000 		.4byte	.LVL23
 4238 013e 0100     		.2byte	0x1
 4239 0140 51       		.byte	0x51
 4240 0141 0E000000 		.4byte	.LVL23
 4241 0145 5C000000 		.4byte	.LFE122
 4242 0149 0100     		.2byte	0x1
 4243 014b 55       		.byte	0x55
 4244 014c 00000000 		.4byte	0
 4245 0150 00000000 		.4byte	0
 4246              	.LLST11:
 4247 0154 00000000 		.4byte	.LFB123
 4248 0158 02000000 		.4byte	.LCFI5
 4249 015c 0200     		.2byte	0x2
 4250 015e 7D       		.byte	0x7d
 4251 015f 00       		.sleb128 0
 4252 0160 02000000 		.4byte	.LCFI5
 4253 0164 78000000 		.4byte	.LFE123
 4254 0168 0200     		.2byte	0x2
 4255 016a 7D       		.byte	0x7d
 4256 016b 18       		.sleb128 24
 4257 016c 00000000 		.4byte	0
 4258 0170 00000000 		.4byte	0
 4259              	.LLST12:
 4260 0174 00000000 		.4byte	.LVL31
 4261 0178 12000000 		.4byte	.LVL34
 4262 017c 0100     		.2byte	0x1
 4263 017e 50       		.byte	0x50
 4264 017f 12000000 		.4byte	.LVL34
 4265 0183 78000000 		.4byte	.LFE123
 4266 0187 0100     		.2byte	0x1
 4267 0189 57       		.byte	0x57
 4268 018a 00000000 		.4byte	0
ARM GAS  C:\Users\DNIEL~1\AppData\Local\Temp\ccVdkgIc.s 			page 76


 4269 018e 00000000 		.4byte	0
 4270              	.LLST13:
 4271 0192 00000000 		.4byte	.LVL31
 4272 0196 0C000000 		.4byte	.LVL32
 4273 019a 0100     		.2byte	0x1
 4274 019c 51       		.byte	0x51
 4275 019d 0C000000 		.4byte	.LVL32
 4276 01a1 78000000 		.4byte	.LFE123
 4277 01a5 0100     		.2byte	0x1
 4278 01a7 56       		.byte	0x56
 4279 01a8 00000000 		.4byte	0
 4280 01ac 00000000 		.4byte	0
 4281              	.LLST14:
 4282 01b0 00000000 		.4byte	.LVL31
 4283 01b4 10000000 		.4byte	.LVL33
 4284 01b8 0100     		.2byte	0x1
 4285 01ba 52       		.byte	0x52
 4286 01bb 10000000 		.4byte	.LVL33
 4287 01bf 78000000 		.4byte	.LFE123
 4288 01c3 0100     		.2byte	0x1
 4289 01c5 55       		.byte	0x55
 4290 01c6 00000000 		.4byte	0
 4291 01ca 00000000 		.4byte	0
 4292              	.LLST15:
 4293 01ce 00000000 		.4byte	.LFB124
 4294 01d2 02000000 		.4byte	.LCFI6
 4295 01d6 0200     		.2byte	0x2
 4296 01d8 7D       		.byte	0x7d
 4297 01d9 00       		.sleb128 0
 4298 01da 02000000 		.4byte	.LCFI6
 4299 01de 40000000 		.4byte	.LFE124
 4300 01e2 0200     		.2byte	0x2
 4301 01e4 7D       		.byte	0x7d
 4302 01e5 10       		.sleb128 16
 4303 01e6 00000000 		.4byte	0
 4304 01ea 00000000 		.4byte	0
 4305              	.LLST16:
 4306 01ee 00000000 		.4byte	.LVL43
 4307 01f2 0E000000 		.4byte	.LVL44
 4308 01f6 0100     		.2byte	0x1
 4309 01f8 50       		.byte	0x50
 4310 01f9 0E000000 		.4byte	.LVL44
 4311 01fd 40000000 		.4byte	.LFE124
 4312 0201 0100     		.2byte	0x1
 4313 0203 55       		.byte	0x55
 4314 0204 00000000 		.4byte	0
 4315 0208 00000000 		.4byte	0
 4316              	.LLST17:
 4317 020c 00000000 		.4byte	.LFB125
 4318 0210 02000000 		.4byte	.LCFI7
 4319 0214 0200     		.2byte	0x2
 4320 0216 7D       		.byte	0x7d
 4321 0217 00       		.sleb128 0
 4322 0218 02000000 		.4byte	.LCFI7
 4323 021c 40000000 		.4byte	.LFE125
 4324 0220 0200     		.2byte	0x2
 4325 0222 7D       		.byte	0x7d
ARM GAS  C:\Users\DNIEL~1\AppData\Local\Temp\ccVdkgIc.s 			page 77


 4326 0223 10       		.sleb128 16
 4327 0224 00000000 		.4byte	0
 4328 0228 00000000 		.4byte	0
 4329              	.LLST18:
 4330 022c 00000000 		.4byte	.LVL49
 4331 0230 0E000000 		.4byte	.LVL50
 4332 0234 0100     		.2byte	0x1
 4333 0236 50       		.byte	0x50
 4334 0237 0E000000 		.4byte	.LVL50
 4335 023b 40000000 		.4byte	.LFE125
 4336 023f 0100     		.2byte	0x1
 4337 0241 55       		.byte	0x55
 4338 0242 00000000 		.4byte	0
 4339 0246 00000000 		.4byte	0
 4340              	.LLST19:
 4341 024a 00000000 		.4byte	.LFB126
 4342 024e 02000000 		.4byte	.LCFI8
 4343 0252 0200     		.2byte	0x2
 4344 0254 7D       		.byte	0x7d
 4345 0255 00       		.sleb128 0
 4346 0256 02000000 		.4byte	.LCFI8
 4347 025a 40000000 		.4byte	.LFE126
 4348 025e 0200     		.2byte	0x2
 4349 0260 7D       		.byte	0x7d
 4350 0261 10       		.sleb128 16
 4351 0262 00000000 		.4byte	0
 4352 0266 00000000 		.4byte	0
 4353              	.LLST20:
 4354 026a 00000000 		.4byte	.LVL55
 4355 026e 0E000000 		.4byte	.LVL56
 4356 0272 0100     		.2byte	0x1
 4357 0274 50       		.byte	0x50
 4358 0275 0E000000 		.4byte	.LVL56
 4359 0279 40000000 		.4byte	.LFE126
 4360 027d 0100     		.2byte	0x1
 4361 027f 55       		.byte	0x55
 4362 0280 00000000 		.4byte	0
 4363 0284 00000000 		.4byte	0
 4364              	.LLST21:
 4365 0288 00000000 		.4byte	.LFB127
 4366 028c 02000000 		.4byte	.LCFI9
 4367 0290 0200     		.2byte	0x2
 4368 0292 7D       		.byte	0x7d
 4369 0293 00       		.sleb128 0
 4370 0294 02000000 		.4byte	.LCFI9
 4371 0298 40000000 		.4byte	.LFE127
 4372 029c 0200     		.2byte	0x2
 4373 029e 7D       		.byte	0x7d
 4374 029f 10       		.sleb128 16
 4375 02a0 00000000 		.4byte	0
 4376 02a4 00000000 		.4byte	0
 4377              	.LLST22:
 4378 02a8 00000000 		.4byte	.LVL61
 4379 02ac 0E000000 		.4byte	.LVL62
 4380 02b0 0100     		.2byte	0x1
 4381 02b2 50       		.byte	0x50
 4382 02b3 0E000000 		.4byte	.LVL62
ARM GAS  C:\Users\DNIEL~1\AppData\Local\Temp\ccVdkgIc.s 			page 78


 4383 02b7 40000000 		.4byte	.LFE127
 4384 02bb 0100     		.2byte	0x1
 4385 02bd 55       		.byte	0x55
 4386 02be 00000000 		.4byte	0
 4387 02c2 00000000 		.4byte	0
 4388              	.LLST23:
 4389 02c6 00000000 		.4byte	.LFB128
 4390 02ca 02000000 		.4byte	.LCFI10
 4391 02ce 0200     		.2byte	0x2
 4392 02d0 7D       		.byte	0x7d
 4393 02d1 00       		.sleb128 0
 4394 02d2 02000000 		.4byte	.LCFI10
 4395 02d6 5C000000 		.4byte	.LFE128
 4396 02da 0200     		.2byte	0x2
 4397 02dc 7D       		.byte	0x7d
 4398 02dd 18       		.sleb128 24
 4399 02de 00000000 		.4byte	0
 4400 02e2 00000000 		.4byte	0
 4401              	.LLST24:
 4402 02e6 00000000 		.4byte	.LVL67
 4403 02ea 12000000 		.4byte	.LVL70
 4404 02ee 0100     		.2byte	0x1
 4405 02f0 50       		.byte	0x50
 4406 02f1 12000000 		.4byte	.LVL70
 4407 02f5 5C000000 		.4byte	.LFE128
 4408 02f9 0100     		.2byte	0x1
 4409 02fb 57       		.byte	0x57
 4410 02fc 00000000 		.4byte	0
 4411 0300 00000000 		.4byte	0
 4412              	.LLST25:
 4413 0304 00000000 		.4byte	.LVL67
 4414 0308 10000000 		.4byte	.LVL69
 4415 030c 0100     		.2byte	0x1
 4416 030e 51       		.byte	0x51
 4417 030f 10000000 		.4byte	.LVL69
 4418 0313 5C000000 		.4byte	.LFE128
 4419 0317 0100     		.2byte	0x1
 4420 0319 56       		.byte	0x56
 4421 031a 00000000 		.4byte	0
 4422 031e 00000000 		.4byte	0
 4423              	.LLST26:
 4424 0322 00000000 		.4byte	.LVL67
 4425 0326 0E000000 		.4byte	.LVL68
 4426 032a 0100     		.2byte	0x1
 4427 032c 52       		.byte	0x52
 4428 032d 0E000000 		.4byte	.LVL68
 4429 0331 5C000000 		.4byte	.LFE128
 4430 0335 0100     		.2byte	0x1
 4431 0337 55       		.byte	0x55
 4432 0338 00000000 		.4byte	0
 4433 033c 00000000 		.4byte	0
 4434              	.LLST27:
 4435 0340 00000000 		.4byte	.LFB129
 4436 0344 02000000 		.4byte	.LCFI11
 4437 0348 0200     		.2byte	0x2
 4438 034a 7D       		.byte	0x7d
 4439 034b 00       		.sleb128 0
ARM GAS  C:\Users\DNIEL~1\AppData\Local\Temp\ccVdkgIc.s 			page 79


 4440 034c 02000000 		.4byte	.LCFI11
 4441 0350 34000000 		.4byte	.LFE129
 4442 0354 0200     		.2byte	0x2
 4443 0356 7D       		.byte	0x7d
 4444 0357 10       		.sleb128 16
 4445 0358 00000000 		.4byte	0
 4446 035c 00000000 		.4byte	0
 4447              	.LLST28:
 4448 0360 00000000 		.4byte	.LVL77
 4449 0364 0E000000 		.4byte	.LVL78
 4450 0368 0100     		.2byte	0x1
 4451 036a 50       		.byte	0x50
 4452 036b 0E000000 		.4byte	.LVL78
 4453 036f 34000000 		.4byte	.LFE129
 4454 0373 0100     		.2byte	0x1
 4455 0375 55       		.byte	0x55
 4456 0376 00000000 		.4byte	0
 4457 037a 00000000 		.4byte	0
 4458              	.LLST29:
 4459 037e 00000000 		.4byte	.LFB130
 4460 0382 02000000 		.4byte	.LCFI12
 4461 0386 0200     		.2byte	0x2
 4462 0388 7D       		.byte	0x7d
 4463 0389 00       		.sleb128 0
 4464 038a 02000000 		.4byte	.LCFI12
 4465 038e 20000000 		.4byte	.LFE130
 4466 0392 0200     		.2byte	0x2
 4467 0394 7D       		.byte	0x7d
 4468 0395 10       		.sleb128 16
 4469 0396 00000000 		.4byte	0
 4470 039a 00000000 		.4byte	0
 4471              	.LLST30:
 4472 039e 00000000 		.4byte	.LVL82
 4473 03a2 04000000 		.4byte	.LVL83
 4474 03a6 0100     		.2byte	0x1
 4475 03a8 50       		.byte	0x50
 4476 03a9 04000000 		.4byte	.LVL83
 4477 03ad 20000000 		.4byte	.LFE130
 4478 03b1 0100     		.2byte	0x1
 4479 03b3 55       		.byte	0x55
 4480 03b4 00000000 		.4byte	0
 4481 03b8 00000000 		.4byte	0
 4482              	.LLST31:
 4483 03bc 08000000 		.4byte	.LVL84
 4484 03c0 13000000 		.4byte	.LVL85-1
 4485 03c4 0200     		.2byte	0x2
 4486 03c6 75       		.byte	0x75
 4487 03c7 7F       		.sleb128 -1
 4488 03c8 13000000 		.4byte	.LVL85-1
 4489 03cc 20000000 		.4byte	.LFE130
 4490 03d0 0100     		.2byte	0x1
 4491 03d2 54       		.byte	0x54
 4492 03d3 00000000 		.4byte	0
 4493 03d7 00000000 		.4byte	0
 4494              		.section	.debug_aranges,"",%progbits
 4495 0000 7C000000 		.4byte	0x7c
 4496 0004 0200     		.2byte	0x2
ARM GAS  C:\Users\DNIEL~1\AppData\Local\Temp\ccVdkgIc.s 			page 80


 4497 0006 00000000 		.4byte	.Ldebug_info0
 4498 000a 04       		.byte	0x4
 4499 000b 00       		.byte	0
 4500 000c 0000     		.2byte	0
 4501 000e 0000     		.2byte	0
 4502 0010 00000000 		.4byte	.LFB118
 4503 0014 24000000 		.4byte	.LFE118-.LFB118
 4504 0018 00000000 		.4byte	.LFB119
 4505 001c 24000000 		.4byte	.LFE119-.LFB119
 4506 0020 00000000 		.4byte	.LFB120
 4507 0024 5C000000 		.4byte	.LFE120-.LFB120
 4508 0028 00000000 		.4byte	.LFB121
 4509 002c 5C000000 		.4byte	.LFE121-.LFB121
 4510 0030 00000000 		.4byte	.LFB122
 4511 0034 5C000000 		.4byte	.LFE122-.LFB122
 4512 0038 00000000 		.4byte	.LFB123
 4513 003c 78000000 		.4byte	.LFE123-.LFB123
 4514 0040 00000000 		.4byte	.LFB124
 4515 0044 40000000 		.4byte	.LFE124-.LFB124
 4516 0048 00000000 		.4byte	.LFB125
 4517 004c 40000000 		.4byte	.LFE125-.LFB125
 4518 0050 00000000 		.4byte	.LFB126
 4519 0054 40000000 		.4byte	.LFE126-.LFB126
 4520 0058 00000000 		.4byte	.LFB127
 4521 005c 40000000 		.4byte	.LFE127-.LFB127
 4522 0060 00000000 		.4byte	.LFB128
 4523 0064 5C000000 		.4byte	.LFE128-.LFB128
 4524 0068 00000000 		.4byte	.LFB129
 4525 006c 34000000 		.4byte	.LFE129-.LFB129
 4526 0070 00000000 		.4byte	.LFB130
 4527 0074 20000000 		.4byte	.LFE130-.LFB130
 4528 0078 00000000 		.4byte	0
 4529 007c 00000000 		.4byte	0
 4530              		.section	.debug_ranges,"",%progbits
 4531              	.Ldebug_ranges0:
 4532 0000 00000000 		.4byte	.LFB118
 4533 0004 24000000 		.4byte	.LFE118
 4534 0008 00000000 		.4byte	.LFB119
 4535 000c 24000000 		.4byte	.LFE119
 4536 0010 00000000 		.4byte	.LFB120
 4537 0014 5C000000 		.4byte	.LFE120
 4538 0018 00000000 		.4byte	.LFB121
 4539 001c 5C000000 		.4byte	.LFE121
 4540 0020 00000000 		.4byte	.LFB122
 4541 0024 5C000000 		.4byte	.LFE122
 4542 0028 00000000 		.4byte	.LFB123
 4543 002c 78000000 		.4byte	.LFE123
 4544 0030 00000000 		.4byte	.LFB124
 4545 0034 40000000 		.4byte	.LFE124
 4546 0038 00000000 		.4byte	.LFB125
 4547 003c 40000000 		.4byte	.LFE125
 4548 0040 00000000 		.4byte	.LFB126
 4549 0044 40000000 		.4byte	.LFE126
 4550 0048 00000000 		.4byte	.LFB127
 4551 004c 40000000 		.4byte	.LFE127
 4552 0050 00000000 		.4byte	.LFB128
 4553 0054 5C000000 		.4byte	.LFE128
ARM GAS  C:\Users\DNIEL~1\AppData\Local\Temp\ccVdkgIc.s 			page 81


 4554 0058 00000000 		.4byte	.LFB129
 4555 005c 34000000 		.4byte	.LFE129
 4556 0060 00000000 		.4byte	.LFB130
 4557 0064 20000000 		.4byte	.LFE130
 4558 0068 00000000 		.4byte	0
 4559 006c 00000000 		.4byte	0
 4560              		.section	.debug_line,"",%progbits
 4561              	.Ldebug_line0:
 4562 0000 E5030000 		.section	.debug_str,"MS",%progbits,1
 4562      0200A102 
 4562      00000201 
 4562      FB0E0D00 
 4562      01010101 
 4563              	.LASF131:
 4564 0000 63684F51 		.ascii	"chOQPutTimeout\000"
 4564      50757454 
 4564      696D656F 
 4564      757400
 4565              	.LASF120:
 4566 000f 4461746E 		.ascii	"Datname\000"
 4566      616D6500 
 4567              	.LASF2:
 4568 0017 73697A65 		.ascii	"size_t\000"
 4568      5F7400
 4569              	.LASF60:
 4570 001e 7264796D 		.ascii	"rdymsg\000"
 4570      736700
 4571              	.LASF103:
 4572 0025 6766785F 		.ascii	"gfx_Cls\000"
 4572      436C7300 
 4573              	.LASF76:
 4574 002d 4F757470 		.ascii	"OutputQueue\000"
 4574      75745175 
 4574      65756500 
 4575              	.LASF13:
 4576 0039 6C6F6E67 		.ascii	"long long unsigned int\000"
 4576      206C6F6E 
 4576      6720756E 
 4576      7369676E 
 4576      65642069 
 4577              	.LASF61:
 4578 0050 65786974 		.ascii	"exitcode\000"
 4578      636F6465 
 4578      00
 4579              	.LASF127:
 4580 0059 49544D5F 		.ascii	"ITM_RxBuffer\000"
 4580      52784275 
 4580      66666572 
 4580      00
 4581              	.LASF118:
 4582 0066 6766785F 		.ascii	"gfx_TransparentColour\000"
 4582      5472616E 
 4582      73706172 
 4582      656E7443 
 4582      6F6C6F75 
 4583              	.LASF26:
 4584 007c 705F7072 		.ascii	"p_prio\000"
ARM GAS  C:\Users\DNIEL~1\AppData\Local\Temp\ccVdkgIc.s 			page 82


 4584      696F00
 4585              	.LASF102:
 4586 0083 72656164 		.ascii	"readt\000"
 4586      7400
 4587              	.LASF66:
 4588 0089 715F7761 		.ascii	"q_waiting\000"
 4588      6974696E 
 4588      6700
 4589              	.LASF12:
 4590 0093 6C6F6E67 		.ascii	"long long int\000"
 4590      206C6F6E 
 4590      6720696E 
 4590      7400
 4591              	.LASF1:
 4592 00a1 7369676E 		.ascii	"signed char\000"
 4592      65642063 
 4592      68617200 
 4593              	.LASF83:
 4594 00ad 47545052 		.ascii	"GTPR\000"
 4594      00
 4595              	.LASF42:
 4596 00b2 705F6D70 		.ascii	"p_mpool\000"
 4596      6F6F6C00 
 4597              	.LASF50:
 4598 00ba 6D5F7175 		.ascii	"m_queue\000"
 4598      65756500 
 4599              	.LASF124:
 4600 00c2 496E5374 		.ascii	"InString\000"
 4600      72696E67 
 4600      00
 4601              	.LASF17:
 4602 00cb 74736C69 		.ascii	"tslices_t\000"
 4602      6365735F 
 4602      7400
 4603              	.LASF92:
 4604 00d5 73746174 		.ascii	"state\000"
 4604      6500
 4605              	.LASF9:
 4606 00db 6C6F6E67 		.ascii	"long int\000"
 4606      20696E74 
 4606      00
 4607              	.LASF15:
 4608 00e4 74737461 		.ascii	"tstate_t\000"
 4608      74655F74 
 4608      00
 4609              	.LASF33:
 4610 00ed 705F7265 		.ascii	"p_refs\000"
 4610      667300
 4611              	.LASF68:
 4612 00f4 715F6275 		.ascii	"q_buffer\000"
 4612      66666572 
 4612      00
 4613              	.LASF70:
 4614 00fd 715F7772 		.ascii	"q_wrptr\000"
 4614      70747200 
 4615              	.LASF35:
 4616 0105 705F7469 		.ascii	"p_time\000"
ARM GAS  C:\Users\DNIEL~1\AppData\Local\Temp\ccVdkgIc.s 			page 83


 4616      6D6500
 4617              	.LASF28:
 4618 010c 705F6E65 		.ascii	"p_newer\000"
 4618      77657200 
 4619              	.LASF104:
 4620 0114 66696C65 		.ascii	"file_Mount\000"
 4620      5F4D6F75 
 4620      6E7400
 4621              	.LASF45:
 4622 011f 72656761 		.ascii	"regarm_t\000"
 4622      726D5F74 
 4622      00
 4623              	.LASF122:
 4624 0128 4D6F6465 		.ascii	"Mode\000"
 4624      00
 4625              	.LASF112:
 4626 012d 6766785F 		.ascii	"gfx_BGcolour\000"
 4626      4247636F 
 4626      6C6F7572 
 4626      00
 4627              	.LASF58:
 4628 013a 4576656E 		.ascii	"EventSource\000"
 4628      74536F75 
 4628      72636500 
 4629              	.LASF95:
 4630 0146 75736172 		.ascii	"usart\000"
 4630      7400
 4631              	.LASF0:
 4632 014c 756E7369 		.ascii	"unsigned int\000"
 4632      676E6564 
 4632      20696E74 
 4632      00
 4633              	.LASF117:
 4634 0159 4F6E4F66 		.ascii	"OnOff\000"
 4634      6600
 4635              	.LASF6:
 4636 015f 75696E74 		.ascii	"uint16_t\000"
 4636      31365F74 
 4636      00
 4637              	.LASF110:
 4638 0168 6D656469 		.ascii	"media_VideoFrame\000"
 4638      615F5669 
 4638      64656F46 
 4638      72616D65 
 4638      00
 4639              	.LASF115:
 4640 0179 436F6E74 		.ascii	"Contrast\000"
 4640      72617374 
 4640      00
 4641              	.LASF93:
 4642 0182 69717565 		.ascii	"iqueue\000"
 4642      756500
 4643              	.LASF37:
 4644 0189 705F6D73 		.ascii	"p_msgqueue\000"
 4644      67717565 
 4644      756500
 4645              	.LASF100:
ARM GAS  C:\Users\DNIEL~1\AppData\Local\Temp\ccVdkgIc.s 			page 84


 4646 0194 67657474 		.ascii	"gett\000"
 4646      00
 4647              	.LASF107:
 4648 0199 4869576F 		.ascii	"HiWord\000"
 4648      726400
 4649              	.LASF121:
 4650 01a0 4743494E 		.ascii	"GCIName\000"
 4650      616D6500 
 4651              	.LASF91:
 4652 01a8 6576656E 		.ascii	"event\000"
 4652      7400
 4653              	.LASF7:
 4654 01ae 73686F72 		.ascii	"short unsigned int\000"
 4654      7420756E 
 4654      7369676E 
 4654      65642069 
 4654      6E7400
 4655              	.LASF19:
 4656 01c1 6D73675F 		.ascii	"msg_t\000"
 4656      7400
 4657              	.LASF94:
 4658 01c7 6F717565 		.ascii	"oqueue\000"
 4658      756500
 4659              	.LASF85:
 4660 01ce 55534152 		.ascii	"USART_TypeDef\000"
 4660      545F5479 
 4660      70654465 
 4660      6600
 4661              	.LASF101:
 4662 01dc 77726974 		.ascii	"writet\000"
 4662      657400
 4663              	.LASF14:
 4664 01e3 746D6F64 		.ascii	"tmode_t\000"
 4664      655F7400 
 4665              	.LASF44:
 4666 01eb 54687265 		.ascii	"ThreadsList\000"
 4666      6164734C 
 4666      69737400 
 4667              	.LASF20:
 4668 01f7 6576656E 		.ascii	"eventmask_t\000"
 4668      746D6173 
 4668      6B5F7400 
 4669              	.LASF75:
 4670 0203 496E7075 		.ascii	"InputQueue\000"
 4670      74517565 
 4670      756500
 4671              	.LASF74:
 4672 020e 716E6F74 		.ascii	"qnotify_t\000"
 4672      6966795F 
 4672      7400
 4673              	.LASF65:
 4674 0218 47656E65 		.ascii	"GenericQueue\000"
 4674      72696351 
 4674      75657565 
 4674      00
 4675              	.LASF109:
 4676 0225 6D656469 		.ascii	"media_Video\000"
ARM GAS  C:\Users\DNIEL~1\AppData\Local\Temp\ccVdkgIc.s 			page 85


 4676      615F5669 
 4676      64656F00 
 4677              	.LASF97:
 4678 0231 77726974 		.ascii	"write\000"
 4678      6500
 4679              	.LASF99:
 4680 0237 70757474 		.ascii	"putt\000"
 4680      00
 4681              	.LASF114:
 4682 023c 6766785F 		.ascii	"gfx_Contrast\000"
 4682      436F6E74 
 4682      72617374 
 4682      00
 4683              	.LASF48:
 4684 0249 73697A65 		.ascii	"sizetype\000"
 4684      74797065 
 4684      00
 4685              	.LASF67:
 4686 0252 715F636F 		.ascii	"q_counter\000"
 4686      756E7465 
 4686      7200
 4687              	.LASF49:
 4688 025c 4D757465 		.ascii	"Mutex\000"
 4688      7800
 4689              	.LASF126:
 4690 0262 63686172 		.ascii	"charsout\000"
 4690      736F7574 
 4690      00
 4691              	.LASF128:
 4692 026b 474E5520 		.ascii	"GNU C 4.7.4 20140401 (release) [ARM/embedded-4_7-br"
 4692      4320342E 
 4692      372E3420 
 4692      32303134 
 4692      30343031 
 4693 029e 616E6368 		.ascii	"anch revision 209195]\000"
 4693      20726576 
 4693      6973696F 
 4693      6E203230 
 4693      39313935 
 4694              	.LASF29:
 4695 02b4 705F6F6C 		.ascii	"p_older\000"
 4695      64657200 
 4696              	.LASF111:
 4697 02bc 4672616D 		.ascii	"Framenumber\000"
 4697      656E756D 
 4697      62657200 
 4698              	.LASF43:
 4699 02c8 54687265 		.ascii	"ThreadsQueue\000"
 4699      61647351 
 4699      75657565 
 4699      00
 4700              	.LASF106:
 4701 02d5 6D656469 		.ascii	"media_SetSector\000"
 4701      615F5365 
 4701      74536563 
 4701      746F7200 
 4702              	.LASF56:
ARM GAS  C:\Users\DNIEL~1\AppData\Local\Temp\ccVdkgIc.s 			page 86


 4703 02e5 656C5F6D 		.ascii	"el_mask\000"
 4703      61736B00 
 4704              	.LASF16:
 4705 02ed 74726566 		.ascii	"trefs_t\000"
 4705      735F7400 
 4706              	.LASF77:
 4707 02f5 52455345 		.ascii	"RESERVED0\000"
 4707      52564544 
 4707      3000
 4708              	.LASF78:
 4709 02ff 52455345 		.ascii	"RESERVED1\000"
 4709      52564544 
 4709      3100
 4710              	.LASF79:
 4711 0309 52455345 		.ascii	"RESERVED2\000"
 4711      52564544 
 4711      3200
 4712              	.LASF80:
 4713 0313 52455345 		.ascii	"RESERVED3\000"
 4713      52564544 
 4713      3300
 4714              	.LASF81:
 4715 031d 52455345 		.ascii	"RESERVED4\000"
 4715      52564544 
 4715      3400
 4716              	.LASF25:
 4717 0327 705F7072 		.ascii	"p_prev\000"
 4717      657600
 4718              	.LASF84:
 4719 032e 52455345 		.ascii	"RESERVED6\000"
 4719      52564544 
 4719      3600
 4720              	.LASF18:
 4721 0338 74707269 		.ascii	"tprio_t\000"
 4721      6F5F7400 
 4722              	.LASF71:
 4723 0340 715F7264 		.ascii	"q_rdptr\000"
 4723      70747200 
 4724              	.LASF105:
 4725 0348 6D656469 		.ascii	"media_Image\000"
 4725      615F496D 
 4725      61676500 
 4726              	.LASF113:
 4727 0354 436F6C6F 		.ascii	"Color\000"
 4727      7200
 4728              	.LASF8:
 4729 035a 696E7433 		.ascii	"int32_t\000"
 4729      325F7400 
 4730              	.LASF4:
 4731 0362 756E7369 		.ascii	"unsigned char\000"
 4731      676E6564 
 4731      20636861 
 4731      7200
 4732              	.LASF55:
 4733 0370 656C5F6C 		.ascii	"el_listener\000"
 4733      69737465 
 4733      6E657200 
ARM GAS  C:\Users\DNIEL~1\AppData\Local\Temp\ccVdkgIc.s 			page 87


 4734              	.LASF57:
 4735 037c 656C5F66 		.ascii	"el_flags\000"
 4735      6C616773 
 4735      00
 4736              	.LASF40:
 4737 0385 705F6D74 		.ascii	"p_mtxlist\000"
 4737      786C6973 
 4737      7400
 4738              	.LASF5:
 4739 038f 73686F72 		.ascii	"short int\000"
 4739      7420696E 
 4739      7400
 4740              	.LASF31:
 4741 0399 705F7374 		.ascii	"p_state\000"
 4741      61746500 
 4742              	.LASF34:
 4743 03a1 705F7072 		.ascii	"p_preempt\000"
 4743      65656D70 
 4743      7400
 4744              	.LASF63:
 4745 03ab 65776D61 		.ascii	"ewmask\000"
 4745      736B00
 4746              	.LASF24:
 4747 03b2 705F6E65 		.ascii	"p_next\000"
 4747      787400
 4748              	.LASF32:
 4749 03b9 705F666C 		.ascii	"p_flags\000"
 4749      61677300 
 4750              	.LASF54:
 4751 03c1 656C5F6E 		.ascii	"el_next\000"
 4751      65787400 
 4752              	.LASF87:
 4753 03c9 53445F53 		.ascii	"SD_STOP\000"
 4753      544F5000 
 4754              	.LASF23:
 4755 03d1 54687265 		.ascii	"Thread\000"
 4755      616400
 4756              	.LASF39:
 4757 03d8 705F6570 		.ascii	"p_epending\000"
 4757      656E6469 
 4757      6E6700
 4758              	.LASF86:
 4759 03e3 53445F55 		.ascii	"SD_UNINIT\000"
 4759      4E494E49 
 4759      5400
 4760              	.LASF119:
 4761 03ed 66696C65 		.ascii	"file_LoadImageControl\000"
 4761      5F4C6F61 
 4761      64496D61 
 4761      6765436F 
 4761      6E74726F 
 4762              	.LASF82:
 4763 0403 52455345 		.ascii	"RESERVED5\000"
 4763      52564544 
 4763      3500
 4764              	.LASF10:
 4765 040d 75696E74 		.ascii	"uint32_t\000"
ARM GAS  C:\Users\DNIEL~1\AppData\Local\Temp\ccVdkgIc.s 			page 88


 4765      33325F74 
 4765      00
 4766              	.LASF125:
 4767 0416 57726974 		.ascii	"WriteChars\000"
 4767      65436861 
 4767      727300
 4768              	.LASF90:
 4769 0421 53657269 		.ascii	"SerialDriver\000"
 4769      616C4472 
 4769      69766572 
 4769      00
 4770              	.LASF11:
 4771 042e 6C6F6E67 		.ascii	"long unsigned int\000"
 4771      20756E73 
 4771      69676E65 
 4771      6420696E 
 4771      7400
 4772              	.LASF98:
 4773 0440 72656164 		.ascii	"read\000"
 4773      00
 4774              	.LASF64:
 4775 0445 63686172 		.ascii	"char\000"
 4775      00
 4776              	.LASF52:
 4777 044a 6D5F6E65 		.ascii	"m_next\000"
 4777      787400
 4778              	.LASF22:
 4779 0451 73797374 		.ascii	"systime_t\000"
 4779      696D655F 
 4779      7400
 4780              	.LASF41:
 4781 045b 705F7265 		.ascii	"p_realprio\000"
 4781      616C7072 
 4781      696F00
 4782              	.LASF123:
 4783 0466 70757473 		.ascii	"putstr\000"
 4783      747200
 4784              	.LASF47:
 4785 046d 636F6E74 		.ascii	"context\000"
 4785      65787400 
 4786              	.LASF46:
 4787 0475 696E7463 		.ascii	"intctx\000"
 4787      747800
 4788              	.LASF88:
 4789 047c 53445F52 		.ascii	"SD_READY\000"
 4789      45414459 
 4789      00
 4790              	.LASF21:
 4791 0485 666C6167 		.ascii	"flagsmask_t\000"
 4791      736D6173 
 4791      6B5F7400 
 4792              	.LASF89:
 4793 0491 73647374 		.ascii	"sdstate_t\000"
 4793      6174655F 
 4793      7400
 4794              	.LASF69:
 4795 049b 715F746F 		.ascii	"q_top\000"
ARM GAS  C:\Users\DNIEL~1\AppData\Local\Temp\ccVdkgIc.s 			page 89


 4795      7000
 4796              	.LASF30:
 4797 04a1 705F6E61 		.ascii	"p_name\000"
 4797      6D6500
 4798              	.LASF59:
 4799 04a8 65735F6E 		.ascii	"es_next\000"
 4799      65787400 
 4800              	.LASF130:
 4801 04b0 433A5C55 		.ascii	"C:\\Users\\D\341niel\\git\\Smarty\\smarty\\firmware"
 4801      73657273 
 4801      5C44E16E 
 4801      69656C5C 
 4801      6769745C 
 4802 04da 00       		.ascii	"\000"
 4803              	.LASF72:
 4804 04db 715F6E6F 		.ascii	"q_notify\000"
 4804      74696679 
 4804      00
 4805              	.LASF3:
 4806 04e4 75696E74 		.ascii	"uint8_t\000"
 4806      385F7400 
 4807              	.LASF129:
 4808 04ec 7372632F 		.ascii	"src/gfx.c\000"
 4808      6766782E 
 4808      6300
 4809              	.LASF53:
 4810 04f6 4576656E 		.ascii	"EventListener\000"
 4810      744C6973 
 4810      74656E65 
 4810      7200
 4811              	.LASF62:
 4812 0504 77746F62 		.ascii	"wtobjp\000"
 4812      6A7000
 4813              	.LASF108:
 4814 050b 4C6F576F 		.ascii	"LoWord\000"
 4814      726400
 4815              	.LASF96:
 4816 0512 53657269 		.ascii	"SerialDriverVMT\000"
 4816      616C4472 
 4816      69766572 
 4816      564D5400 
 4817              	.LASF38:
 4818 0522 705F6D73 		.ascii	"p_msg\000"
 4818      6700
 4819              	.LASF73:
 4820 0528 715F6C69 		.ascii	"q_link\000"
 4820      6E6B00
 4821              	.LASF51:
 4822 052f 6D5F6F77 		.ascii	"m_owner\000"
 4822      6E657200 
 4823              	.LASF27:
 4824 0537 705F6374 		.ascii	"p_ctx\000"
 4824      7800
 4825              	.LASF36:
 4826 053d 705F7761 		.ascii	"p_waiting\000"
 4826      6974696E 
 4826      6700
ARM GAS  C:\Users\DNIEL~1\AppData\Local\Temp\ccVdkgIc.s 			page 90


 4827              	.LASF116:
 4828 0547 6766785F 		.ascii	"gfx_Transparency\000"
 4828      5472616E 
 4828      73706172 
 4828      656E6379 
 4828      00
 4829              		.ident	"GCC: (GNU Tools for ARM Embedded Processors) 4.7.4 20140401 (release) [ARM/embedded-4_7-br
ARM GAS  C:\Users\DNIEL~1\AppData\Local\Temp\ccVdkgIc.s 			page 91


DEFINED SYMBOLS
                            *ABS*:00000000 gfx.c
C:\Users\DNIEL~1\AppData\Local\Temp\ccVdkgIc.s:19     .text.gfx_Cls:00000000 $t
C:\Users\DNIEL~1\AppData\Local\Temp\ccVdkgIc.s:25     .text.gfx_Cls:00000000 gfx_Cls
C:\Users\DNIEL~1\AppData\Local\Temp\ccVdkgIc.s:56     .text.gfx_Cls:00000020 $d
C:\Users\DNIEL~1\AppData\Local\Temp\ccVdkgIc.s:61     .text.file_Mount:00000000 $t
C:\Users\DNIEL~1\AppData\Local\Temp\ccVdkgIc.s:67     .text.file_Mount:00000000 file_Mount
C:\Users\DNIEL~1\AppData\Local\Temp\ccVdkgIc.s:97     .text.file_Mount:00000020 $d
C:\Users\DNIEL~1\AppData\Local\Temp\ccVdkgIc.s:102    .text.media_Image:00000000 $t
C:\Users\DNIEL~1\AppData\Local\Temp\ccVdkgIc.s:108    .text.media_Image:00000000 media_Image
C:\Users\DNIEL~1\AppData\Local\Temp\ccVdkgIc.s:171    .text.media_Image:00000058 $d
C:\Users\DNIEL~1\AppData\Local\Temp\ccVdkgIc.s:176    .text.media_SetSector:00000000 $t
C:\Users\DNIEL~1\AppData\Local\Temp\ccVdkgIc.s:182    .text.media_SetSector:00000000 media_SetSector
C:\Users\DNIEL~1\AppData\Local\Temp\ccVdkgIc.s:245    .text.media_SetSector:00000058 $d
C:\Users\DNIEL~1\AppData\Local\Temp\ccVdkgIc.s:250    .text.media_Video:00000000 $t
C:\Users\DNIEL~1\AppData\Local\Temp\ccVdkgIc.s:256    .text.media_Video:00000000 media_Video
C:\Users\DNIEL~1\AppData\Local\Temp\ccVdkgIc.s:319    .text.media_Video:00000058 $d
C:\Users\DNIEL~1\AppData\Local\Temp\ccVdkgIc.s:324    .text.media_VideoFrame:00000000 $t
C:\Users\DNIEL~1\AppData\Local\Temp\ccVdkgIc.s:330    .text.media_VideoFrame:00000000 media_VideoFrame
C:\Users\DNIEL~1\AppData\Local\Temp\ccVdkgIc.s:409    .text.media_VideoFrame:00000074 $d
C:\Users\DNIEL~1\AppData\Local\Temp\ccVdkgIc.s:414    .text.gfx_BGcolour:00000000 $t
C:\Users\DNIEL~1\AppData\Local\Temp\ccVdkgIc.s:420    .text.gfx_BGcolour:00000000 gfx_BGcolour
C:\Users\DNIEL~1\AppData\Local\Temp\ccVdkgIc.s:469    .text.gfx_BGcolour:0000003c $d
C:\Users\DNIEL~1\AppData\Local\Temp\ccVdkgIc.s:474    .text.gfx_Contrast:00000000 $t
C:\Users\DNIEL~1\AppData\Local\Temp\ccVdkgIc.s:480    .text.gfx_Contrast:00000000 gfx_Contrast
C:\Users\DNIEL~1\AppData\Local\Temp\ccVdkgIc.s:529    .text.gfx_Contrast:0000003c $d
C:\Users\DNIEL~1\AppData\Local\Temp\ccVdkgIc.s:534    .text.gfx_Transparency:00000000 $t
C:\Users\DNIEL~1\AppData\Local\Temp\ccVdkgIc.s:540    .text.gfx_Transparency:00000000 gfx_Transparency
C:\Users\DNIEL~1\AppData\Local\Temp\ccVdkgIc.s:589    .text.gfx_Transparency:0000003c $d
C:\Users\DNIEL~1\AppData\Local\Temp\ccVdkgIc.s:594    .text.gfx_TransparentColour:00000000 $t
C:\Users\DNIEL~1\AppData\Local\Temp\ccVdkgIc.s:600    .text.gfx_TransparentColour:00000000 gfx_TransparentColour
C:\Users\DNIEL~1\AppData\Local\Temp\ccVdkgIc.s:649    .text.gfx_TransparentColour:0000003c $d
C:\Users\DNIEL~1\AppData\Local\Temp\ccVdkgIc.s:654    .text.file_LoadImageControl:00000000 $t
C:\Users\DNIEL~1\AppData\Local\Temp\ccVdkgIc.s:660    .text.file_LoadImageControl:00000000 file_LoadImageControl
C:\Users\DNIEL~1\AppData\Local\Temp\ccVdkgIc.s:727    .text.file_LoadImageControl:00000058 $d
C:\Users\DNIEL~1\AppData\Local\Temp\ccVdkgIc.s:732    .text.putstr:00000000 $t
C:\Users\DNIEL~1\AppData\Local\Temp\ccVdkgIc.s:738    .text.putstr:00000000 putstr
C:\Users\DNIEL~1\AppData\Local\Temp\ccVdkgIc.s:781    .text.putstr:00000030 $d
C:\Users\DNIEL~1\AppData\Local\Temp\ccVdkgIc.s:786    .text.WriteChars:00000000 $t
C:\Users\DNIEL~1\AppData\Local\Temp\ccVdkgIc.s:792    .text.WriteChars:00000000 WriteChars
C:\Users\DNIEL~1\AppData\Local\Temp\ccVdkgIc.s:826    .text.WriteChars:0000001c $d
                     .debug_frame:00000010 $d
C:\Users\DNIEL~1\AppData\Local\Temp\ccVdkgIc.s:60     .text.gfx_Cls:00000024 $t
C:\Users\DNIEL~1\AppData\Local\Temp\ccVdkgIc.s:101    .text.file_Mount:00000024 $t
C:\Users\DNIEL~1\AppData\Local\Temp\ccVdkgIc.s:175    .text.media_Image:0000005c $t
C:\Users\DNIEL~1\AppData\Local\Temp\ccVdkgIc.s:249    .text.media_SetSector:0000005c $t
C:\Users\DNIEL~1\AppData\Local\Temp\ccVdkgIc.s:323    .text.media_Video:0000005c $t
C:\Users\DNIEL~1\AppData\Local\Temp\ccVdkgIc.s:413    .text.media_VideoFrame:00000078 $t
C:\Users\DNIEL~1\AppData\Local\Temp\ccVdkgIc.s:731    .text.file_LoadImageControl:0000005c $t
C:\Users\DNIEL~1\AppData\Local\Temp\ccVdkgIc.s:785    .text.putstr:00000034 $t

UNDEFINED SYMBOLS
chOQPutTimeout
SD2
