ARM GAS  C:\Users\DNIEL~1\AppData\Local\Temp\ccYkEs6t.s 			page 1


   1              		.syntax unified
   2              		.cpu cortex-m4
   3              		.fpu softvfp
   4              		.eabi_attribute 20, 1
   5              		.eabi_attribute 21, 1
   6              		.eabi_attribute 23, 3
   7              		.eabi_attribute 24, 1
   8              		.eabi_attribute 25, 1
   9              		.eabi_attribute 26, 1
  10              		.eabi_attribute 30, 2
  11              		.eabi_attribute 18, 4
  12              		.thumb
  13              		.file	"gfx.c"
  14              		.section	.debug_abbrev,"",%progbits
  15              	.Ldebug_abbrev0:
  16              		.section	.debug_info,"",%progbits
  17              	.Ldebug_info0:
  18              		.section	.debug_line,"",%progbits
  19              	.Ldebug_line0:
  20 0000 0D040000 		.text
  20      0200A702 
  20      00000201 
  20      FB0E0D00 
  20      01010101 
  21              	.Ltext0:
  22              		.cfi_sections	.debug_frame
  23              		.section	.text.gfx_Cls,"ax",%progbits
  24              		.align	2
  25              		.p2align 4,,15
  26              		.global	gfx_Cls
  27              		.thumb
  28              		.thumb_func
  29              		.type	gfx_Cls, %function
  30              	gfx_Cls:
  31              	.LFB119:
  32              		.file 1 "src/gfx.c"
  33              		.loc 1 26 0
  34              		.cfi_startproc
  35              		@ args = 0, pretend = 0, frame = 0
  36              		@ frame_needed = 0, uses_anonymous_args = 0
  37 0000 10B5     		push	{r4, lr}
  38              	.LCFI0:
  39              		.cfi_def_cfa_offset 8
  40              		.loc 1 27 0
  41 0002 074C     		ldr	r4, .L2
  42              		.cfi_offset 14, -4
  43              		.cfi_offset 4, -8
  44 0004 FF21     		movs	r1, #255
  45 0006 4FF0FF32 		mov	r2, #-1
  46 000a 2046     		mov	r0, r4
  47 000c FFF7FEFF 		bl	chOQPutTimeout
  48              		.loc 1 28 0
  49 0010 2046     		mov	r0, r4
  50 0012 CD21     		movs	r1, #205
  51 0014 4FF0FF32 		mov	r2, #-1
  52              		.loc 1 29 0
  53 0018 BDE81040 		pop	{r4, lr}
ARM GAS  C:\Users\DNIEL~1\AppData\Local\Temp\ccYkEs6t.s 			page 2


  54              		.loc 1 28 0
  55 001c FFF7FEBF 		b	chOQPutTimeout
  56              	.L3:
  57              		.align	2
  58              	.L2:
  59 0020 30000000 		.word	SD2+48
  60              		.cfi_endproc
  61              	.LFE119:
  62              		.size	gfx_Cls, .-gfx_Cls
  63 0024 AFF30080 		.section	.text.file_Mount,"ax",%progbits
  63      AFF30080 
  63      AFF30080 
  64              		.align	2
  65              		.p2align 4,,15
  66              		.global	file_Mount
  67              		.thumb
  68              		.thumb_func
  69              		.type	file_Mount, %function
  70              	file_Mount:
  71              	.LFB120:
  72              		.loc 1 32 0
  73              		.cfi_startproc
  74              		@ args = 0, pretend = 0, frame = 0
  75              		@ frame_needed = 0, uses_anonymous_args = 0
  76 0000 10B5     		push	{r4, lr}
  77              	.LCFI1:
  78              		.cfi_def_cfa_offset 8
  79              		.loc 1 33 0
  80 0002 074C     		ldr	r4, .L5
  81              		.cfi_offset 14, -4
  82              		.cfi_offset 4, -8
  83 0004 FF21     		movs	r1, #255
  84 0006 4FF0FF32 		mov	r2, #-1
  85 000a 2046     		mov	r0, r4
  86 000c FFF7FEFF 		bl	chOQPutTimeout
  87              		.loc 1 34 0
  88 0010 2046     		mov	r0, r4
  89 0012 0321     		movs	r1, #3
  90 0014 4FF0FF32 		mov	r2, #-1
  91              		.loc 1 35 0
  92 0018 BDE81040 		pop	{r4, lr}
  93              		.loc 1 34 0
  94 001c FFF7FEBF 		b	chOQPutTimeout
  95              	.L6:
  96              		.align	2
  97              	.L5:
  98 0020 30000000 		.word	SD2+48
  99              		.cfi_endproc
 100              	.LFE120:
 101              		.size	file_Mount, .-file_Mount
 102 0024 AFF30080 		.section	.text.media_Image,"ax",%progbits
 102      AFF30080 
 102      AFF30080 
 103              		.align	2
 104              		.p2align 4,,15
 105              		.global	media_Image
 106              		.thumb
ARM GAS  C:\Users\DNIEL~1\AppData\Local\Temp\ccYkEs6t.s 			page 3


 107              		.thumb_func
 108              		.type	media_Image, %function
 109              	media_Image:
 110              	.LFB121:
 111              		.loc 1 38 0
 112              		.cfi_startproc
 113              		@ args = 0, pretend = 0, frame = 0
 114              		@ frame_needed = 0, uses_anonymous_args = 0
 115              	.LVL0:
 116 0000 70B5     		push	{r4, r5, r6, lr}
 117              	.LCFI2:
 118              		.cfi_def_cfa_offset 16
 119              		.loc 1 39 0
 120 0002 154C     		ldr	r4, .L8
 121              		.cfi_offset 14, -4
 122              		.cfi_offset 6, -8
 123              		.cfi_offset 5, -12
 124              		.cfi_offset 4, -16
 125              		.loc 1 38 0
 126 0004 0646     		mov	r6, r0
 127 0006 0D46     		mov	r5, r1
 128              		.loc 1 39 0
 129 0008 4FF0FF32 		mov	r2, #-1
 130 000c FF21     		movs	r1, #255
 131              	.LVL1:
 132 000e 2046     		mov	r0, r4
 133              	.LVL2:
 134 0010 FFF7FEFF 		bl	chOQPutTimeout
 135              		.loc 1 40 0
 136 0014 8B21     		movs	r1, #139
 137 0016 2046     		mov	r0, r4
 138 0018 4FF0FF32 		mov	r2, #-1
 139 001c FFF7FEFF 		bl	chOQPutTimeout
 140              		.loc 1 41 0
 141 0020 C6F30721 		ubfx	r1, r6, #8, #8
 142 0024 2046     		mov	r0, r4
 143 0026 4FF0FF32 		mov	r2, #-1
 144 002a FFF7FEFF 		bl	chOQPutTimeout
 145              		.loc 1 42 0
 146 002e F1B2     		uxtb	r1, r6
 147 0030 2046     		mov	r0, r4
 148 0032 4FF0FF32 		mov	r2, #-1
 149 0036 FFF7FEFF 		bl	chOQPutTimeout
 150              		.loc 1 43 0
 151 003a C5F30721 		ubfx	r1, r5, #8, #8
 152 003e 2046     		mov	r0, r4
 153 0040 4FF0FF32 		mov	r2, #-1
 154 0044 FFF7FEFF 		bl	chOQPutTimeout
 155              		.loc 1 44 0
 156 0048 2046     		mov	r0, r4
 157 004a E9B2     		uxtb	r1, r5
 158 004c 4FF0FF32 		mov	r2, #-1
 159              		.loc 1 45 0
 160 0050 BDE87040 		pop	{r4, r5, r6, lr}
 161              		.loc 1 44 0
 162 0054 FFF7FEBF 		b	chOQPutTimeout
 163              	.L9:
ARM GAS  C:\Users\DNIEL~1\AppData\Local\Temp\ccYkEs6t.s 			page 4


 164              		.align	2
 165              	.L8:
 166 0058 30000000 		.word	SD2+48
 167              		.cfi_endproc
 168              	.LFE121:
 169              		.size	media_Image, .-media_Image
 170 005c AFF30080 		.section	.text.media_SetSector,"ax",%progbits
 171              		.align	2
 172              		.p2align 4,,15
 173              		.global	media_SetSector
 174              		.thumb
 175              		.thumb_func
 176              		.type	media_SetSector, %function
 177              	media_SetSector:
 178              	.LFB122:
 179              		.loc 1 48 0
 180              		.cfi_startproc
 181              		@ args = 0, pretend = 0, frame = 0
 182              		@ frame_needed = 0, uses_anonymous_args = 0
 183              	.LVL3:
 184 0000 70B5     		push	{r4, r5, r6, lr}
 185              	.LCFI3:
 186              		.cfi_def_cfa_offset 16
 187              		.loc 1 49 0
 188 0002 154C     		ldr	r4, .L11
 189              		.cfi_offset 14, -4
 190              		.cfi_offset 6, -8
 191              		.cfi_offset 5, -12
 192              		.cfi_offset 4, -16
 193              		.loc 1 48 0
 194 0004 0646     		mov	r6, r0
 195 0006 0D46     		mov	r5, r1
 196              		.loc 1 49 0
 197 0008 4FF0FF32 		mov	r2, #-1
 198 000c FF21     		movs	r1, #255
 199              	.LVL4:
 200 000e 2046     		mov	r0, r4
 201              	.LVL5:
 202 0010 FFF7FEFF 		bl	chOQPutTimeout
 203              		.loc 1 50 0
 204 0014 9221     		movs	r1, #146
 205 0016 2046     		mov	r0, r4
 206 0018 4FF0FF32 		mov	r2, #-1
 207 001c FFF7FEFF 		bl	chOQPutTimeout
 208              		.loc 1 51 0
 209 0020 C6F30721 		ubfx	r1, r6, #8, #8
 210 0024 2046     		mov	r0, r4
 211 0026 4FF0FF32 		mov	r2, #-1
 212 002a FFF7FEFF 		bl	chOQPutTimeout
 213              		.loc 1 52 0
 214 002e F1B2     		uxtb	r1, r6
 215 0030 2046     		mov	r0, r4
 216 0032 4FF0FF32 		mov	r2, #-1
 217 0036 FFF7FEFF 		bl	chOQPutTimeout
 218              		.loc 1 53 0
 219 003a C5F30721 		ubfx	r1, r5, #8, #8
 220 003e 2046     		mov	r0, r4
ARM GAS  C:\Users\DNIEL~1\AppData\Local\Temp\ccYkEs6t.s 			page 5


 221 0040 4FF0FF32 		mov	r2, #-1
 222 0044 FFF7FEFF 		bl	chOQPutTimeout
 223              		.loc 1 54 0
 224 0048 2046     		mov	r0, r4
 225 004a E9B2     		uxtb	r1, r5
 226 004c 4FF0FF32 		mov	r2, #-1
 227              		.loc 1 55 0
 228 0050 BDE87040 		pop	{r4, r5, r6, lr}
 229              		.loc 1 54 0
 230 0054 FFF7FEBF 		b	chOQPutTimeout
 231              	.L12:
 232              		.align	2
 233              	.L11:
 234 0058 30000000 		.word	SD2+48
 235              		.cfi_endproc
 236              	.LFE122:
 237              		.size	media_SetSector, .-media_SetSector
 238 005c AFF30080 		.section	.text.media_Video,"ax",%progbits
 239              		.align	2
 240              		.p2align 4,,15
 241              		.global	media_Video
 242              		.thumb
 243              		.thumb_func
 244              		.type	media_Video, %function
 245              	media_Video:
 246              	.LFB123:
 247              		.loc 1 58 0
 248              		.cfi_startproc
 249              		@ args = 0, pretend = 0, frame = 0
 250              		@ frame_needed = 0, uses_anonymous_args = 0
 251              	.LVL6:
 252 0000 70B5     		push	{r4, r5, r6, lr}
 253              	.LCFI4:
 254              		.cfi_def_cfa_offset 16
 255              		.loc 1 59 0
 256 0002 154C     		ldr	r4, .L14
 257              		.cfi_offset 14, -4
 258              		.cfi_offset 6, -8
 259              		.cfi_offset 5, -12
 260              		.cfi_offset 4, -16
 261              		.loc 1 58 0
 262 0004 0646     		mov	r6, r0
 263 0006 0D46     		mov	r5, r1
 264              		.loc 1 59 0
 265 0008 4FF0FF32 		mov	r2, #-1
 266 000c FF21     		movs	r1, #255
 267              	.LVL7:
 268 000e 2046     		mov	r0, r4
 269              	.LVL8:
 270 0010 FFF7FEFF 		bl	chOQPutTimeout
 271              		.loc 1 60 0
 272 0014 9521     		movs	r1, #149
 273 0016 2046     		mov	r0, r4
 274 0018 4FF0FF32 		mov	r2, #-1
 275 001c FFF7FEFF 		bl	chOQPutTimeout
 276              		.loc 1 61 0
 277 0020 C6F30721 		ubfx	r1, r6, #8, #8
ARM GAS  C:\Users\DNIEL~1\AppData\Local\Temp\ccYkEs6t.s 			page 6


 278 0024 2046     		mov	r0, r4
 279 0026 4FF0FF32 		mov	r2, #-1
 280 002a FFF7FEFF 		bl	chOQPutTimeout
 281              		.loc 1 62 0
 282 002e F1B2     		uxtb	r1, r6
 283 0030 2046     		mov	r0, r4
 284 0032 4FF0FF32 		mov	r2, #-1
 285 0036 FFF7FEFF 		bl	chOQPutTimeout
 286              		.loc 1 63 0
 287 003a C5F30721 		ubfx	r1, r5, #8, #8
 288 003e 2046     		mov	r0, r4
 289 0040 4FF0FF32 		mov	r2, #-1
 290 0044 FFF7FEFF 		bl	chOQPutTimeout
 291              		.loc 1 64 0
 292 0048 2046     		mov	r0, r4
 293 004a E9B2     		uxtb	r1, r5
 294 004c 4FF0FF32 		mov	r2, #-1
 295              		.loc 1 65 0
 296 0050 BDE87040 		pop	{r4, r5, r6, lr}
 297              		.loc 1 64 0
 298 0054 FFF7FEBF 		b	chOQPutTimeout
 299              	.L15:
 300              		.align	2
 301              	.L14:
 302 0058 30000000 		.word	SD2+48
 303              		.cfi_endproc
 304              	.LFE123:
 305              		.size	media_Video, .-media_Video
 306 005c AFF30080 		.section	.text.media_VideoFrame,"ax",%progbits
 307              		.align	2
 308              		.p2align 4,,15
 309              		.global	media_VideoFrame
 310              		.thumb
 311              		.thumb_func
 312              		.type	media_VideoFrame, %function
 313              	media_VideoFrame:
 314              	.LFB124:
 315              		.loc 1 68 0
 316              		.cfi_startproc
 317              		@ args = 0, pretend = 0, frame = 0
 318              		@ frame_needed = 0, uses_anonymous_args = 0
 319              	.LVL9:
 320 0000 2DE9F041 		push	{r4, r5, r6, r7, r8, lr}
 321              	.LCFI5:
 322              		.cfi_def_cfa_offset 24
 323              		.loc 1 69 0
 324 0004 1C4C     		ldr	r4, .L17
 325              		.cfi_offset 14, -4
 326              		.cfi_offset 8, -8
 327              		.cfi_offset 7, -12
 328              		.cfi_offset 6, -16
 329              		.cfi_offset 5, -20
 330              		.cfi_offset 4, -24
 331              		.loc 1 68 0
 332 0006 0746     		mov	r7, r0
 333 0008 0E46     		mov	r6, r1
 334 000a 1546     		mov	r5, r2
ARM GAS  C:\Users\DNIEL~1\AppData\Local\Temp\ccYkEs6t.s 			page 7


 335              		.loc 1 69 0
 336 000c FF21     		movs	r1, #255
 337              	.LVL10:
 338 000e 4FF0FF32 		mov	r2, #-1
 339              	.LVL11:
 340 0012 2046     		mov	r0, r4
 341              	.LVL12:
 342 0014 FFF7FEFF 		bl	chOQPutTimeout
 343              		.loc 1 70 0
 344 0018 9421     		movs	r1, #148
 345 001a 2046     		mov	r0, r4
 346 001c 4FF0FF32 		mov	r2, #-1
 347 0020 FFF7FEFF 		bl	chOQPutTimeout
 348              		.loc 1 71 0
 349 0024 C7F30721 		ubfx	r1, r7, #8, #8
 350 0028 2046     		mov	r0, r4
 351 002a 4FF0FF32 		mov	r2, #-1
 352 002e FFF7FEFF 		bl	chOQPutTimeout
 353              		.loc 1 72 0
 354 0032 F9B2     		uxtb	r1, r7
 355 0034 2046     		mov	r0, r4
 356 0036 4FF0FF32 		mov	r2, #-1
 357 003a FFF7FEFF 		bl	chOQPutTimeout
 358              		.loc 1 73 0
 359 003e C6F30721 		ubfx	r1, r6, #8, #8
 360 0042 2046     		mov	r0, r4
 361 0044 4FF0FF32 		mov	r2, #-1
 362 0048 FFF7FEFF 		bl	chOQPutTimeout
 363              		.loc 1 74 0
 364 004c F1B2     		uxtb	r1, r6
 365 004e 2046     		mov	r0, r4
 366 0050 4FF0FF32 		mov	r2, #-1
 367 0054 FFF7FEFF 		bl	chOQPutTimeout
 368              		.loc 1 75 0
 369 0058 C5F30721 		ubfx	r1, r5, #8, #8
 370 005c 2046     		mov	r0, r4
 371 005e 4FF0FF32 		mov	r2, #-1
 372 0062 FFF7FEFF 		bl	chOQPutTimeout
 373              		.loc 1 76 0
 374 0066 2046     		mov	r0, r4
 375 0068 E9B2     		uxtb	r1, r5
 376 006a 4FF0FF32 		mov	r2, #-1
 377              		.loc 1 77 0
 378 006e BDE8F041 		pop	{r4, r5, r6, r7, r8, lr}
 379              		.loc 1 76 0
 380 0072 FFF7FEBF 		b	chOQPutTimeout
 381              	.L18:
 382 0076 00BF     		.align	2
 383              	.L17:
 384 0078 30000000 		.word	SD2+48
 385              		.cfi_endproc
 386              	.LFE124:
 387              		.size	media_VideoFrame, .-media_VideoFrame
 388 007c AFF30080 		.section	.text.draw_line,"ax",%progbits
 389              		.align	2
 390              		.p2align 4,,15
 391              		.global	draw_line
ARM GAS  C:\Users\DNIEL~1\AppData\Local\Temp\ccYkEs6t.s 			page 8


 392              		.thumb
 393              		.thumb_func
 394              		.type	draw_line, %function
 395              	draw_line:
 396              	.LFB125:
 397              		.loc 1 79 0
 398              		.cfi_startproc
 399              		@ args = 4, pretend = 0, frame = 0
 400              		@ frame_needed = 0, uses_anonymous_args = 0
 401              	.LVL13:
 402 0000 2DE9F047 		push	{r4, r5, r6, r7, r8, r9, sl, lr}
 403              	.LCFI6:
 404              		.cfi_def_cfa_offset 32
 405              		.loc 1 80 0
 406 0004 2B4C     		ldr	r4, .L20
 407              		.cfi_offset 14, -4
 408              		.cfi_offset 10, -8
 409              		.cfi_offset 9, -12
 410              		.cfi_offset 8, -16
 411              		.cfi_offset 7, -20
 412              		.cfi_offset 6, -24
 413              		.cfi_offset 5, -28
 414              		.cfi_offset 4, -32
 415              		.loc 1 79 0
 416 0006 DDF82080 		ldr	r8, [sp, #32]
 417 000a 0746     		mov	r7, r0
 418 000c 0E46     		mov	r6, r1
 419 000e 1546     		mov	r5, r2
 420              		.loc 1 80 0
 421 0010 FF21     		movs	r1, #255
 422              	.LVL14:
 423 0012 4FF0FF32 		mov	r2, #-1
 424              	.LVL15:
 425 0016 2046     		mov	r0, r4
 426              	.LVL16:
 427              		.loc 1 79 0
 428 0018 9946     		mov	r9, r3
 429              		.loc 1 80 0
 430 001a FFF7FEFF 		bl	chOQPutTimeout
 431              	.LVL17:
 432              		.loc 1 81 0
 433 001e C821     		movs	r1, #200
 434 0020 2046     		mov	r0, r4
 435 0022 4FF0FF32 		mov	r2, #-1
 436 0026 FFF7FEFF 		bl	chOQPutTimeout
 437              		.loc 1 82 0
 438 002a C7F30721 		ubfx	r1, r7, #8, #8
 439 002e 2046     		mov	r0, r4
 440 0030 4FF0FF32 		mov	r2, #-1
 441 0034 FFF7FEFF 		bl	chOQPutTimeout
 442              		.loc 1 83 0
 443 0038 F9B2     		uxtb	r1, r7
 444 003a 2046     		mov	r0, r4
 445 003c 4FF0FF32 		mov	r2, #-1
 446 0040 FFF7FEFF 		bl	chOQPutTimeout
 447              		.loc 1 84 0
 448 0044 C6F30721 		ubfx	r1, r6, #8, #8
ARM GAS  C:\Users\DNIEL~1\AppData\Local\Temp\ccYkEs6t.s 			page 9


 449 0048 2046     		mov	r0, r4
 450 004a 4FF0FF32 		mov	r2, #-1
 451 004e FFF7FEFF 		bl	chOQPutTimeout
 452              		.loc 1 85 0
 453 0052 F1B2     		uxtb	r1, r6
 454 0054 2046     		mov	r0, r4
 455 0056 4FF0FF32 		mov	r2, #-1
 456 005a FFF7FEFF 		bl	chOQPutTimeout
 457              		.loc 1 86 0
 458 005e C5F30721 		ubfx	r1, r5, #8, #8
 459 0062 2046     		mov	r0, r4
 460 0064 4FF0FF32 		mov	r2, #-1
 461 0068 FFF7FEFF 		bl	chOQPutTimeout
 462              		.loc 1 87 0
 463 006c E9B2     		uxtb	r1, r5
 464 006e 2046     		mov	r0, r4
 465 0070 4FF0FF32 		mov	r2, #-1
 466 0074 FFF7FEFF 		bl	chOQPutTimeout
 467              		.loc 1 88 0
 468 0078 C9F30721 		ubfx	r1, r9, #8, #8
 469 007c 2046     		mov	r0, r4
 470 007e 4FF0FF32 		mov	r2, #-1
 471 0082 FFF7FEFF 		bl	chOQPutTimeout
 472              		.loc 1 89 0
 473 0086 5FFA89F1 		uxtb	r1, r9
 474 008a 2046     		mov	r0, r4
 475 008c 4FF0FF32 		mov	r2, #-1
 476 0090 FFF7FEFF 		bl	chOQPutTimeout
 477              		.loc 1 90 0
 478 0094 C8F30721 		ubfx	r1, r8, #8, #8
 479 0098 2046     		mov	r0, r4
 480 009a 4FF0FF32 		mov	r2, #-1
 481 009e FFF7FEFF 		bl	chOQPutTimeout
 482              		.loc 1 91 0
 483 00a2 2046     		mov	r0, r4
 484 00a4 5FFA88F1 		uxtb	r1, r8
 485 00a8 4FF0FF32 		mov	r2, #-1
 486              		.loc 1 92 0
 487 00ac BDE8F047 		pop	{r4, r5, r6, r7, r8, r9, sl, lr}
 488              		.loc 1 91 0
 489 00b0 FFF7FEBF 		b	chOQPutTimeout
 490              	.L21:
 491              		.align	2
 492              	.L20:
 493 00b4 30000000 		.word	SD2+48
 494              		.cfi_endproc
 495              	.LFE125:
 496              		.size	draw_line, .-draw_line
 497 00b8 AFF30080 		.section	.text.gfx_BGcolour,"ax",%progbits
 497      AFF30080 
 498              		.align	2
 499              		.p2align 4,,15
 500              		.global	gfx_BGcolour
 501              		.thumb
 502              		.thumb_func
 503              		.type	gfx_BGcolour, %function
 504              	gfx_BGcolour:
ARM GAS  C:\Users\DNIEL~1\AppData\Local\Temp\ccYkEs6t.s 			page 10


 505              	.LFB126:
 506              		.loc 1 95 0
 507              		.cfi_startproc
 508              		@ args = 0, pretend = 0, frame = 0
 509              		@ frame_needed = 0, uses_anonymous_args = 0
 510              	.LVL18:
 511 0000 70B5     		push	{r4, r5, r6, lr}
 512              	.LCFI7:
 513              		.cfi_def_cfa_offset 16
 514              		.loc 1 96 0
 515 0002 0E4C     		ldr	r4, .L23
 516              		.cfi_offset 14, -4
 517              		.cfi_offset 6, -8
 518              		.cfi_offset 5, -12
 519              		.cfi_offset 4, -16
 520              		.loc 1 95 0
 521 0004 0546     		mov	r5, r0
 522              		.loc 1 96 0
 523 0006 FF21     		movs	r1, #255
 524 0008 4FF0FF32 		mov	r2, #-1
 525 000c 2046     		mov	r0, r4
 526              	.LVL19:
 527 000e FFF7FEFF 		bl	chOQPutTimeout
 528              		.loc 1 97 0
 529 0012 A421     		movs	r1, #164
 530 0014 2046     		mov	r0, r4
 531 0016 4FF0FF32 		mov	r2, #-1
 532 001a FFF7FEFF 		bl	chOQPutTimeout
 533              		.loc 1 98 0
 534 001e C5F30721 		ubfx	r1, r5, #8, #8
 535 0022 2046     		mov	r0, r4
 536 0024 4FF0FF32 		mov	r2, #-1
 537 0028 FFF7FEFF 		bl	chOQPutTimeout
 538              		.loc 1 99 0
 539 002c 2046     		mov	r0, r4
 540 002e E9B2     		uxtb	r1, r5
 541 0030 4FF0FF32 		mov	r2, #-1
 542              		.loc 1 100 0
 543 0034 BDE87040 		pop	{r4, r5, r6, lr}
 544              		.loc 1 99 0
 545 0038 FFF7FEBF 		b	chOQPutTimeout
 546              	.L24:
 547              		.align	2
 548              	.L23:
 549 003c 30000000 		.word	SD2+48
 550              		.cfi_endproc
 551              	.LFE126:
 552              		.size	gfx_BGcolour, .-gfx_BGcolour
 553              		.section	.text.gfx_Contrast,"ax",%progbits
 554              		.align	2
 555              		.p2align 4,,15
 556              		.global	gfx_Contrast
 557              		.thumb
 558              		.thumb_func
 559              		.type	gfx_Contrast, %function
 560              	gfx_Contrast:
 561              	.LFB127:
ARM GAS  C:\Users\DNIEL~1\AppData\Local\Temp\ccYkEs6t.s 			page 11


 562              		.loc 1 103 0
 563              		.cfi_startproc
 564              		@ args = 0, pretend = 0, frame = 0
 565              		@ frame_needed = 0, uses_anonymous_args = 0
 566              	.LVL20:
 567 0000 70B5     		push	{r4, r5, r6, lr}
 568              	.LCFI8:
 569              		.cfi_def_cfa_offset 16
 570              		.loc 1 104 0
 571 0002 0E4C     		ldr	r4, .L26
 572              		.cfi_offset 14, -4
 573              		.cfi_offset 6, -8
 574              		.cfi_offset 5, -12
 575              		.cfi_offset 4, -16
 576              		.loc 1 103 0
 577 0004 0546     		mov	r5, r0
 578              		.loc 1 104 0
 579 0006 FF21     		movs	r1, #255
 580 0008 4FF0FF32 		mov	r2, #-1
 581 000c 2046     		mov	r0, r4
 582              	.LVL21:
 583 000e FFF7FEFF 		bl	chOQPutTimeout
 584              		.loc 1 105 0
 585 0012 9C21     		movs	r1, #156
 586 0014 2046     		mov	r0, r4
 587 0016 4FF0FF32 		mov	r2, #-1
 588 001a FFF7FEFF 		bl	chOQPutTimeout
 589              		.loc 1 106 0
 590 001e C5F30721 		ubfx	r1, r5, #8, #8
 591 0022 2046     		mov	r0, r4
 592 0024 4FF0FF32 		mov	r2, #-1
 593 0028 FFF7FEFF 		bl	chOQPutTimeout
 594              		.loc 1 107 0
 595 002c 2046     		mov	r0, r4
 596 002e E9B2     		uxtb	r1, r5
 597 0030 4FF0FF32 		mov	r2, #-1
 598              		.loc 1 108 0
 599 0034 BDE87040 		pop	{r4, r5, r6, lr}
 600              		.loc 1 107 0
 601 0038 FFF7FEBF 		b	chOQPutTimeout
 602              	.L27:
 603              		.align	2
 604              	.L26:
 605 003c 30000000 		.word	SD2+48
 606              		.cfi_endproc
 607              	.LFE127:
 608              		.size	gfx_Contrast, .-gfx_Contrast
 609              		.section	.text.gfx_Transparency,"ax",%progbits
 610              		.align	2
 611              		.p2align 4,,15
 612              		.global	gfx_Transparency
 613              		.thumb
 614              		.thumb_func
 615              		.type	gfx_Transparency, %function
 616              	gfx_Transparency:
 617              	.LFB128:
 618              		.loc 1 111 0
ARM GAS  C:\Users\DNIEL~1\AppData\Local\Temp\ccYkEs6t.s 			page 12


 619              		.cfi_startproc
 620              		@ args = 0, pretend = 0, frame = 0
 621              		@ frame_needed = 0, uses_anonymous_args = 0
 622              	.LVL22:
 623 0000 70B5     		push	{r4, r5, r6, lr}
 624              	.LCFI9:
 625              		.cfi_def_cfa_offset 16
 626              		.loc 1 112 0
 627 0002 0E4C     		ldr	r4, .L29
 628              		.cfi_offset 14, -4
 629              		.cfi_offset 6, -8
 630              		.cfi_offset 5, -12
 631              		.cfi_offset 4, -16
 632              		.loc 1 111 0
 633 0004 0546     		mov	r5, r0
 634              		.loc 1 112 0
 635 0006 FF21     		movs	r1, #255
 636 0008 4FF0FF32 		mov	r2, #-1
 637 000c 2046     		mov	r0, r4
 638              	.LVL23:
 639 000e FFF7FEFF 		bl	chOQPutTimeout
 640              		.loc 1 113 0
 641 0012 A021     		movs	r1, #160
 642 0014 2046     		mov	r0, r4
 643 0016 4FF0FF32 		mov	r2, #-1
 644 001a FFF7FEFF 		bl	chOQPutTimeout
 645              		.loc 1 114 0
 646 001e C5F30721 		ubfx	r1, r5, #8, #8
 647 0022 2046     		mov	r0, r4
 648 0024 4FF0FF32 		mov	r2, #-1
 649 0028 FFF7FEFF 		bl	chOQPutTimeout
 650              		.loc 1 115 0
 651 002c 2046     		mov	r0, r4
 652 002e E9B2     		uxtb	r1, r5
 653 0030 4FF0FF32 		mov	r2, #-1
 654              		.loc 1 116 0
 655 0034 BDE87040 		pop	{r4, r5, r6, lr}
 656              		.loc 1 115 0
 657 0038 FFF7FEBF 		b	chOQPutTimeout
 658              	.L30:
 659              		.align	2
 660              	.L29:
 661 003c 30000000 		.word	SD2+48
 662              		.cfi_endproc
 663              	.LFE128:
 664              		.size	gfx_Transparency, .-gfx_Transparency
 665              		.section	.text.gfx_TransparentColour,"ax",%progbits
 666              		.align	2
 667              		.p2align 4,,15
 668              		.global	gfx_TransparentColour
 669              		.thumb
 670              		.thumb_func
 671              		.type	gfx_TransparentColour, %function
 672              	gfx_TransparentColour:
 673              	.LFB129:
 674              		.loc 1 119 0
 675              		.cfi_startproc
ARM GAS  C:\Users\DNIEL~1\AppData\Local\Temp\ccYkEs6t.s 			page 13


 676              		@ args = 0, pretend = 0, frame = 0
 677              		@ frame_needed = 0, uses_anonymous_args = 0
 678              	.LVL24:
 679 0000 70B5     		push	{r4, r5, r6, lr}
 680              	.LCFI10:
 681              		.cfi_def_cfa_offset 16
 682              		.loc 1 120 0
 683 0002 0E4C     		ldr	r4, .L32
 684              		.cfi_offset 14, -4
 685              		.cfi_offset 6, -8
 686              		.cfi_offset 5, -12
 687              		.cfi_offset 4, -16
 688              		.loc 1 119 0
 689 0004 0546     		mov	r5, r0
 690              		.loc 1 120 0
 691 0006 FF21     		movs	r1, #255
 692 0008 4FF0FF32 		mov	r2, #-1
 693 000c 2046     		mov	r0, r4
 694              	.LVL25:
 695 000e FFF7FEFF 		bl	chOQPutTimeout
 696              		.loc 1 121 0
 697 0012 A121     		movs	r1, #161
 698 0014 2046     		mov	r0, r4
 699 0016 4FF0FF32 		mov	r2, #-1
 700 001a FFF7FEFF 		bl	chOQPutTimeout
 701              		.loc 1 122 0
 702 001e C5F30721 		ubfx	r1, r5, #8, #8
 703 0022 2046     		mov	r0, r4
 704 0024 4FF0FF32 		mov	r2, #-1
 705 0028 FFF7FEFF 		bl	chOQPutTimeout
 706              		.loc 1 123 0
 707 002c 2046     		mov	r0, r4
 708 002e E9B2     		uxtb	r1, r5
 709 0030 4FF0FF32 		mov	r2, #-1
 710              		.loc 1 124 0
 711 0034 BDE87040 		pop	{r4, r5, r6, lr}
 712              		.loc 1 123 0
 713 0038 FFF7FEBF 		b	chOQPutTimeout
 714              	.L33:
 715              		.align	2
 716              	.L32:
 717 003c 30000000 		.word	SD2+48
 718              		.cfi_endproc
 719              	.LFE129:
 720              		.size	gfx_TransparentColour, .-gfx_TransparentColour
 721              		.section	.text.file_LoadImageControl,"ax",%progbits
 722              		.align	2
 723              		.p2align 4,,15
 724              		.global	file_LoadImageControl
 725              		.thumb
 726              		.thumb_func
 727              		.type	file_LoadImageControl, %function
 728              	file_LoadImageControl:
 729              	.LFB130:
 730              		.loc 1 127 0
 731              		.cfi_startproc
 732              		@ args = 0, pretend = 0, frame = 0
ARM GAS  C:\Users\DNIEL~1\AppData\Local\Temp\ccYkEs6t.s 			page 14


 733              		@ frame_needed = 0, uses_anonymous_args = 0
 734              	.LVL26:
 735 0000 2DE9F041 		push	{r4, r5, r6, r7, r8, lr}
 736              	.LCFI11:
 737              		.cfi_def_cfa_offset 24
 738              		.loc 1 128 0
 739 0004 154C     		ldr	r4, .L35
 740              		.cfi_offset 14, -4
 741              		.cfi_offset 8, -8
 742              		.cfi_offset 7, -12
 743              		.cfi_offset 6, -16
 744              		.cfi_offset 5, -20
 745              		.cfi_offset 4, -24
 746              		.loc 1 127 0
 747 0006 1546     		mov	r5, r2
 748 0008 0746     		mov	r7, r0
 749 000a 0E46     		mov	r6, r1
 750              		.loc 1 128 0
 751 000c 4FF0FF32 		mov	r2, #-1
 752              	.LVL27:
 753 0010 0021     		movs	r1, #0
 754              	.LVL28:
 755 0012 2046     		mov	r0, r4
 756              	.LVL29:
 757 0014 FFF7FEFF 		bl	chOQPutTimeout
 758              		.loc 1 129 0
 759 0018 0921     		movs	r1, #9
 760 001a 2046     		mov	r0, r4
 761 001c 4FF0FF32 		mov	r2, #-1
 762 0020 FFF7FEFF 		bl	chOQPutTimeout
 763              		.loc 1 130 0
 764 0024 F9B2     		uxtb	r1, r7
 765 0026 2046     		mov	r0, r4
 766 0028 4FF0FF32 		mov	r2, #-1
 767 002c FFF7FEFF 		bl	chOQPutTimeout
 768              		.loc 1 131 0
 769 0030 F1B2     		uxtb	r1, r6
 770 0032 2046     		mov	r0, r4
 771 0034 4FF0FF32 		mov	r2, #-1
 772 0038 FFF7FEFF 		bl	chOQPutTimeout
 773              		.loc 1 132 0
 774 003c C5F30721 		ubfx	r1, r5, #8, #8
 775 0040 2046     		mov	r0, r4
 776 0042 4FF0FF32 		mov	r2, #-1
 777 0046 FFF7FEFF 		bl	chOQPutTimeout
 778              		.loc 1 133 0
 779 004a 2046     		mov	r0, r4
 780 004c E9B2     		uxtb	r1, r5
 781 004e 4FF0FF32 		mov	r2, #-1
 782              		.loc 1 134 0
 783 0052 BDE8F041 		pop	{r4, r5, r6, r7, r8, lr}
 784              		.loc 1 133 0
 785 0056 FFF7FEBF 		b	chOQPutTimeout
 786              	.L36:
 787 005a 00BF     		.align	2
 788              	.L35:
 789 005c 30000000 		.word	SD2+48
ARM GAS  C:\Users\DNIEL~1\AppData\Local\Temp\ccYkEs6t.s 			page 15


 790              		.cfi_endproc
 791              	.LFE130:
 792              		.size	file_LoadImageControl, .-file_LoadImageControl
 793              		.section	.text.putstr,"ax",%progbits
 794              		.align	2
 795              		.p2align 4,,15
 796              		.global	putstr
 797              		.thumb
 798              		.thumb_func
 799              		.type	putstr, %function
 800              	putstr:
 801              	.LFB131:
 802              		.loc 1 137 0
 803              		.cfi_startproc
 804              		@ args = 0, pretend = 0, frame = 0
 805              		@ frame_needed = 0, uses_anonymous_args = 0
 806              	.LVL30:
 807 0000 70B5     		push	{r4, r5, r6, lr}
 808              	.LCFI12:
 809              		.cfi_def_cfa_offset 16
 810              		.loc 1 138 0
 811 0002 0B4C     		ldr	r4, .L38
 812              		.cfi_offset 14, -4
 813              		.cfi_offset 6, -8
 814              		.cfi_offset 5, -12
 815              		.cfi_offset 4, -16
 816              		.loc 1 137 0
 817 0004 0546     		mov	r5, r0
 818              		.loc 1 138 0
 819 0006 0021     		movs	r1, #0
 820 0008 4FF0FF32 		mov	r2, #-1
 821 000c 2046     		mov	r0, r4
 822              	.LVL31:
 823 000e FFF7FEFF 		bl	chOQPutTimeout
 824              		.loc 1 139 0
 825 0012 1821     		movs	r1, #24
 826 0014 2046     		mov	r0, r4
 827 0016 4FF0FF32 		mov	r2, #-1
 828 001a FFF7FEFF 		bl	chOQPutTimeout
 829              		.loc 1 140 0
 830 001e 2046     		mov	r0, r4
 831 0020 E9B2     		uxtb	r1, r5
 832 0022 4FF0FF32 		mov	r2, #-1
 833              		.loc 1 141 0
 834 0026 BDE87040 		pop	{r4, r5, r6, lr}
 835              		.loc 1 140 0
 836 002a FFF7FEBF 		b	chOQPutTimeout
 837              	.L39:
 838 002e 00BF     		.align	2
 839              	.L38:
 840 0030 30000000 		.word	SD2+48
 841              		.cfi_endproc
 842              	.LFE131:
 843              		.size	putstr, .-putstr
 844 0034 AFF30080 		.section	.text.WriteChars,"ax",%progbits
 844      AFF30080 
 844      AFF30080 
ARM GAS  C:\Users\DNIEL~1\AppData\Local\Temp\ccYkEs6t.s 			page 16


 845              		.align	2
 846              		.p2align 4,,15
 847              		.global	WriteChars
 848              		.thumb
 849              		.thumb_func
 850              		.type	WriteChars, %function
 851              	WriteChars:
 852              	.LFB132:
 853              		.loc 1 144 0
 854              		.cfi_startproc
 855              		@ args = 0, pretend = 0, frame = 0
 856              		@ frame_needed = 0, uses_anonymous_args = 0
 857              	.LVL32:
 858 0000 38B5     		push	{r3, r4, r5, lr}
 859              	.LCFI13:
 860              		.cfi_def_cfa_offset 16
 861 0002 0546     		mov	r5, r0
 862              		.cfi_offset 14, -4
 863              		.cfi_offset 5, -8
 864              		.cfi_offset 4, -12
 865              		.cfi_offset 3, -16
 866              	.LVL33:
 867              	.L41:
 868              		.loc 1 148 0 discriminator 1
 869 0004 15F8014B 		ldrb	r4, [r5], #1	@ zero_extendqisi2
 870              	.LVL34:
 871              		.loc 1 149 0 discriminator 1
 872 0008 0448     		ldr	r0, .L44
 873 000a 2146     		mov	r1, r4
 874 000c 4FF0FF32 		mov	r2, #-1
 875 0010 FFF7FEFF 		bl	chOQPutTimeout
 876              		.loc 1 150 0 discriminator 1
 877 0014 002C     		cmp	r4, #0
 878 0016 F5D1     		bne	.L41
 879              		.loc 1 151 0
 880 0018 38BD     		pop	{r3, r4, r5, pc}
 881              	.L45:
 882 001a 00BF     		.align	2
 883              	.L44:
 884 001c 30000000 		.word	SD2+48
 885              		.cfi_endproc
 886              	.LFE132:
 887              		.size	WriteChars, .-WriteChars
 888              		.text
 889              	.Letext0:
 890              		.section	.debug_loc,"",%progbits
 891              	.Ldebug_loc0:
 892              	.LLST0:
 893 0000 00000000 		.4byte	.LFB119
 894 0004 02000000 		.4byte	.LCFI0
 895 0008 0200     		.2byte	0x2
 896 000a 7D       		.byte	0x7d
 897 000b 00       		.sleb128 0
 898 000c 02000000 		.4byte	.LCFI0
 899 0010 24000000 		.4byte	.LFE119
 900 0014 0200     		.2byte	0x2
 901 0016 7D       		.byte	0x7d
ARM GAS  C:\Users\DNIEL~1\AppData\Local\Temp\ccYkEs6t.s 			page 17


 902 0017 08       		.sleb128 8
 903 0018 00000000 		.4byte	0x0
 904 001c 00000000 		.4byte	0x0
 905              	.LLST1:
 906 0020 00000000 		.4byte	.LFB120
 907 0024 02000000 		.4byte	.LCFI1
 908 0028 0200     		.2byte	0x2
 909 002a 7D       		.byte	0x7d
 910 002b 00       		.sleb128 0
 911 002c 02000000 		.4byte	.LCFI1
 912 0030 24000000 		.4byte	.LFE120
 913 0034 0200     		.2byte	0x2
 914 0036 7D       		.byte	0x7d
 915 0037 08       		.sleb128 8
 916 0038 00000000 		.4byte	0x0
 917 003c 00000000 		.4byte	0x0
 918              	.LLST2:
 919 0040 00000000 		.4byte	.LFB121
 920 0044 02000000 		.4byte	.LCFI2
 921 0048 0200     		.2byte	0x2
 922 004a 7D       		.byte	0x7d
 923 004b 00       		.sleb128 0
 924 004c 02000000 		.4byte	.LCFI2
 925 0050 5C000000 		.4byte	.LFE121
 926 0054 0200     		.2byte	0x2
 927 0056 7D       		.byte	0x7d
 928 0057 10       		.sleb128 16
 929 0058 00000000 		.4byte	0x0
 930 005c 00000000 		.4byte	0x0
 931              	.LLST3:
 932 0060 00000000 		.4byte	.LVL0
 933 0064 10000000 		.4byte	.LVL2
 934 0068 0100     		.2byte	0x1
 935 006a 50       		.byte	0x50
 936 006b 10000000 		.4byte	.LVL2
 937 006f 5C000000 		.4byte	.LFE121
 938 0073 0100     		.2byte	0x1
 939 0075 56       		.byte	0x56
 940 0076 00000000 		.4byte	0x0
 941 007a 00000000 		.4byte	0x0
 942              	.LLST4:
 943 007e 00000000 		.4byte	.LVL0
 944 0082 0E000000 		.4byte	.LVL1
 945 0086 0100     		.2byte	0x1
 946 0088 51       		.byte	0x51
 947 0089 0E000000 		.4byte	.LVL1
 948 008d 5C000000 		.4byte	.LFE121
 949 0091 0100     		.2byte	0x1
 950 0093 55       		.byte	0x55
 951 0094 00000000 		.4byte	0x0
 952 0098 00000000 		.4byte	0x0
 953              	.LLST5:
 954 009c 00000000 		.4byte	.LFB122
 955 00a0 02000000 		.4byte	.LCFI3
 956 00a4 0200     		.2byte	0x2
 957 00a6 7D       		.byte	0x7d
 958 00a7 00       		.sleb128 0
ARM GAS  C:\Users\DNIEL~1\AppData\Local\Temp\ccYkEs6t.s 			page 18


 959 00a8 02000000 		.4byte	.LCFI3
 960 00ac 5C000000 		.4byte	.LFE122
 961 00b0 0200     		.2byte	0x2
 962 00b2 7D       		.byte	0x7d
 963 00b3 10       		.sleb128 16
 964 00b4 00000000 		.4byte	0x0
 965 00b8 00000000 		.4byte	0x0
 966              	.LLST6:
 967 00bc 00000000 		.4byte	.LVL3
 968 00c0 10000000 		.4byte	.LVL5
 969 00c4 0100     		.2byte	0x1
 970 00c6 50       		.byte	0x50
 971 00c7 10000000 		.4byte	.LVL5
 972 00cb 5C000000 		.4byte	.LFE122
 973 00cf 0100     		.2byte	0x1
 974 00d1 56       		.byte	0x56
 975 00d2 00000000 		.4byte	0x0
 976 00d6 00000000 		.4byte	0x0
 977              	.LLST7:
 978 00da 00000000 		.4byte	.LVL3
 979 00de 0E000000 		.4byte	.LVL4
 980 00e2 0100     		.2byte	0x1
 981 00e4 51       		.byte	0x51
 982 00e5 0E000000 		.4byte	.LVL4
 983 00e9 5C000000 		.4byte	.LFE122
 984 00ed 0100     		.2byte	0x1
 985 00ef 55       		.byte	0x55
 986 00f0 00000000 		.4byte	0x0
 987 00f4 00000000 		.4byte	0x0
 988              	.LLST8:
 989 00f8 00000000 		.4byte	.LFB123
 990 00fc 02000000 		.4byte	.LCFI4
 991 0100 0200     		.2byte	0x2
 992 0102 7D       		.byte	0x7d
 993 0103 00       		.sleb128 0
 994 0104 02000000 		.4byte	.LCFI4
 995 0108 5C000000 		.4byte	.LFE123
 996 010c 0200     		.2byte	0x2
 997 010e 7D       		.byte	0x7d
 998 010f 10       		.sleb128 16
 999 0110 00000000 		.4byte	0x0
 1000 0114 00000000 		.4byte	0x0
 1001              	.LLST9:
 1002 0118 00000000 		.4byte	.LVL6
 1003 011c 10000000 		.4byte	.LVL8
 1004 0120 0100     		.2byte	0x1
 1005 0122 50       		.byte	0x50
 1006 0123 10000000 		.4byte	.LVL8
 1007 0127 5C000000 		.4byte	.LFE123
 1008 012b 0100     		.2byte	0x1
 1009 012d 56       		.byte	0x56
 1010 012e 00000000 		.4byte	0x0
 1011 0132 00000000 		.4byte	0x0
 1012              	.LLST10:
 1013 0136 00000000 		.4byte	.LVL6
 1014 013a 0E000000 		.4byte	.LVL7
 1015 013e 0100     		.2byte	0x1
ARM GAS  C:\Users\DNIEL~1\AppData\Local\Temp\ccYkEs6t.s 			page 19


 1016 0140 51       		.byte	0x51
 1017 0141 0E000000 		.4byte	.LVL7
 1018 0145 5C000000 		.4byte	.LFE123
 1019 0149 0100     		.2byte	0x1
 1020 014b 55       		.byte	0x55
 1021 014c 00000000 		.4byte	0x0
 1022 0150 00000000 		.4byte	0x0
 1023              	.LLST11:
 1024 0154 00000000 		.4byte	.LFB124
 1025 0158 04000000 		.4byte	.LCFI5
 1026 015c 0200     		.2byte	0x2
 1027 015e 7D       		.byte	0x7d
 1028 015f 00       		.sleb128 0
 1029 0160 04000000 		.4byte	.LCFI5
 1030 0164 7C000000 		.4byte	.LFE124
 1031 0168 0200     		.2byte	0x2
 1032 016a 7D       		.byte	0x7d
 1033 016b 18       		.sleb128 24
 1034 016c 00000000 		.4byte	0x0
 1035 0170 00000000 		.4byte	0x0
 1036              	.LLST12:
 1037 0174 00000000 		.4byte	.LVL9
 1038 0178 14000000 		.4byte	.LVL12
 1039 017c 0100     		.2byte	0x1
 1040 017e 50       		.byte	0x50
 1041 017f 14000000 		.4byte	.LVL12
 1042 0183 7C000000 		.4byte	.LFE124
 1043 0187 0100     		.2byte	0x1
 1044 0189 57       		.byte	0x57
 1045 018a 00000000 		.4byte	0x0
 1046 018e 00000000 		.4byte	0x0
 1047              	.LLST13:
 1048 0192 00000000 		.4byte	.LVL9
 1049 0196 0E000000 		.4byte	.LVL10
 1050 019a 0100     		.2byte	0x1
 1051 019c 51       		.byte	0x51
 1052 019d 0E000000 		.4byte	.LVL10
 1053 01a1 7C000000 		.4byte	.LFE124
 1054 01a5 0100     		.2byte	0x1
 1055 01a7 56       		.byte	0x56
 1056 01a8 00000000 		.4byte	0x0
 1057 01ac 00000000 		.4byte	0x0
 1058              	.LLST14:
 1059 01b0 00000000 		.4byte	.LVL9
 1060 01b4 12000000 		.4byte	.LVL11
 1061 01b8 0100     		.2byte	0x1
 1062 01ba 52       		.byte	0x52
 1063 01bb 12000000 		.4byte	.LVL11
 1064 01bf 7C000000 		.4byte	.LFE124
 1065 01c3 0100     		.2byte	0x1
 1066 01c5 55       		.byte	0x55
 1067 01c6 00000000 		.4byte	0x0
 1068 01ca 00000000 		.4byte	0x0
 1069              	.LLST15:
 1070 01ce 00000000 		.4byte	.LFB125
 1071 01d2 04000000 		.4byte	.LCFI6
 1072 01d6 0200     		.2byte	0x2
ARM GAS  C:\Users\DNIEL~1\AppData\Local\Temp\ccYkEs6t.s 			page 20


 1073 01d8 7D       		.byte	0x7d
 1074 01d9 00       		.sleb128 0
 1075 01da 04000000 		.4byte	.LCFI6
 1076 01de B8000000 		.4byte	.LFE125
 1077 01e2 0200     		.2byte	0x2
 1078 01e4 7D       		.byte	0x7d
 1079 01e5 20       		.sleb128 32
 1080 01e6 00000000 		.4byte	0x0
 1081 01ea 00000000 		.4byte	0x0
 1082              	.LLST16:
 1083 01ee 00000000 		.4byte	.LVL13
 1084 01f2 18000000 		.4byte	.LVL16
 1085 01f6 0100     		.2byte	0x1
 1086 01f8 50       		.byte	0x50
 1087 01f9 18000000 		.4byte	.LVL16
 1088 01fd B8000000 		.4byte	.LFE125
 1089 0201 0100     		.2byte	0x1
 1090 0203 57       		.byte	0x57
 1091 0204 00000000 		.4byte	0x0
 1092 0208 00000000 		.4byte	0x0
 1093              	.LLST17:
 1094 020c 00000000 		.4byte	.LVL13
 1095 0210 12000000 		.4byte	.LVL14
 1096 0214 0100     		.2byte	0x1
 1097 0216 51       		.byte	0x51
 1098 0217 12000000 		.4byte	.LVL14
 1099 021b B8000000 		.4byte	.LFE125
 1100 021f 0100     		.2byte	0x1
 1101 0221 56       		.byte	0x56
 1102 0222 00000000 		.4byte	0x0
 1103 0226 00000000 		.4byte	0x0
 1104              	.LLST18:
 1105 022a 00000000 		.4byte	.LVL13
 1106 022e 16000000 		.4byte	.LVL15
 1107 0232 0100     		.2byte	0x1
 1108 0234 52       		.byte	0x52
 1109 0235 16000000 		.4byte	.LVL15
 1110 0239 B8000000 		.4byte	.LFE125
 1111 023d 0100     		.2byte	0x1
 1112 023f 55       		.byte	0x55
 1113 0240 00000000 		.4byte	0x0
 1114 0244 00000000 		.4byte	0x0
 1115              	.LLST19:
 1116 0248 00000000 		.4byte	.LVL13
 1117 024c 1D000000 		.4byte	.LVL17-1
 1118 0250 0100     		.2byte	0x1
 1119 0252 53       		.byte	0x53
 1120 0253 1D000000 		.4byte	.LVL17-1
 1121 0257 B8000000 		.4byte	.LFE125
 1122 025b 0100     		.2byte	0x1
 1123 025d 59       		.byte	0x59
 1124 025e 00000000 		.4byte	0x0
 1125 0262 00000000 		.4byte	0x0
 1126              	.LLST20:
 1127 0266 00000000 		.4byte	.LFB126
 1128 026a 02000000 		.4byte	.LCFI7
 1129 026e 0200     		.2byte	0x2
ARM GAS  C:\Users\DNIEL~1\AppData\Local\Temp\ccYkEs6t.s 			page 21


 1130 0270 7D       		.byte	0x7d
 1131 0271 00       		.sleb128 0
 1132 0272 02000000 		.4byte	.LCFI7
 1133 0276 40000000 		.4byte	.LFE126
 1134 027a 0200     		.2byte	0x2
 1135 027c 7D       		.byte	0x7d
 1136 027d 10       		.sleb128 16
 1137 027e 00000000 		.4byte	0x0
 1138 0282 00000000 		.4byte	0x0
 1139              	.LLST21:
 1140 0286 00000000 		.4byte	.LVL18
 1141 028a 0E000000 		.4byte	.LVL19
 1142 028e 0100     		.2byte	0x1
 1143 0290 50       		.byte	0x50
 1144 0291 0E000000 		.4byte	.LVL19
 1145 0295 40000000 		.4byte	.LFE126
 1146 0299 0100     		.2byte	0x1
 1147 029b 55       		.byte	0x55
 1148 029c 00000000 		.4byte	0x0
 1149 02a0 00000000 		.4byte	0x0
 1150              	.LLST22:
 1151 02a4 00000000 		.4byte	.LFB127
 1152 02a8 02000000 		.4byte	.LCFI8
 1153 02ac 0200     		.2byte	0x2
 1154 02ae 7D       		.byte	0x7d
 1155 02af 00       		.sleb128 0
 1156 02b0 02000000 		.4byte	.LCFI8
 1157 02b4 40000000 		.4byte	.LFE127
 1158 02b8 0200     		.2byte	0x2
 1159 02ba 7D       		.byte	0x7d
 1160 02bb 10       		.sleb128 16
 1161 02bc 00000000 		.4byte	0x0
 1162 02c0 00000000 		.4byte	0x0
 1163              	.LLST23:
 1164 02c4 00000000 		.4byte	.LVL20
 1165 02c8 0E000000 		.4byte	.LVL21
 1166 02cc 0100     		.2byte	0x1
 1167 02ce 50       		.byte	0x50
 1168 02cf 0E000000 		.4byte	.LVL21
 1169 02d3 40000000 		.4byte	.LFE127
 1170 02d7 0100     		.2byte	0x1
 1171 02d9 55       		.byte	0x55
 1172 02da 00000000 		.4byte	0x0
 1173 02de 00000000 		.4byte	0x0
 1174              	.LLST24:
 1175 02e2 00000000 		.4byte	.LFB128
 1176 02e6 02000000 		.4byte	.LCFI9
 1177 02ea 0200     		.2byte	0x2
 1178 02ec 7D       		.byte	0x7d
 1179 02ed 00       		.sleb128 0
 1180 02ee 02000000 		.4byte	.LCFI9
 1181 02f2 40000000 		.4byte	.LFE128
 1182 02f6 0200     		.2byte	0x2
 1183 02f8 7D       		.byte	0x7d
 1184 02f9 10       		.sleb128 16
 1185 02fa 00000000 		.4byte	0x0
 1186 02fe 00000000 		.4byte	0x0
ARM GAS  C:\Users\DNIEL~1\AppData\Local\Temp\ccYkEs6t.s 			page 22


 1187              	.LLST25:
 1188 0302 00000000 		.4byte	.LVL22
 1189 0306 0E000000 		.4byte	.LVL23
 1190 030a 0100     		.2byte	0x1
 1191 030c 50       		.byte	0x50
 1192 030d 0E000000 		.4byte	.LVL23
 1193 0311 40000000 		.4byte	.LFE128
 1194 0315 0100     		.2byte	0x1
 1195 0317 55       		.byte	0x55
 1196 0318 00000000 		.4byte	0x0
 1197 031c 00000000 		.4byte	0x0
 1198              	.LLST26:
 1199 0320 00000000 		.4byte	.LFB129
 1200 0324 02000000 		.4byte	.LCFI10
 1201 0328 0200     		.2byte	0x2
 1202 032a 7D       		.byte	0x7d
 1203 032b 00       		.sleb128 0
 1204 032c 02000000 		.4byte	.LCFI10
 1205 0330 40000000 		.4byte	.LFE129
 1206 0334 0200     		.2byte	0x2
 1207 0336 7D       		.byte	0x7d
 1208 0337 10       		.sleb128 16
 1209 0338 00000000 		.4byte	0x0
 1210 033c 00000000 		.4byte	0x0
 1211              	.LLST27:
 1212 0340 00000000 		.4byte	.LVL24
 1213 0344 0E000000 		.4byte	.LVL25
 1214 0348 0100     		.2byte	0x1
 1215 034a 50       		.byte	0x50
 1216 034b 0E000000 		.4byte	.LVL25
 1217 034f 40000000 		.4byte	.LFE129
 1218 0353 0100     		.2byte	0x1
 1219 0355 55       		.byte	0x55
 1220 0356 00000000 		.4byte	0x0
 1221 035a 00000000 		.4byte	0x0
 1222              	.LLST28:
 1223 035e 00000000 		.4byte	.LFB130
 1224 0362 04000000 		.4byte	.LCFI11
 1225 0366 0200     		.2byte	0x2
 1226 0368 7D       		.byte	0x7d
 1227 0369 00       		.sleb128 0
 1228 036a 04000000 		.4byte	.LCFI11
 1229 036e 60000000 		.4byte	.LFE130
 1230 0372 0200     		.2byte	0x2
 1231 0374 7D       		.byte	0x7d
 1232 0375 18       		.sleb128 24
 1233 0376 00000000 		.4byte	0x0
 1234 037a 00000000 		.4byte	0x0
 1235              	.LLST29:
 1236 037e 00000000 		.4byte	.LVL26
 1237 0382 14000000 		.4byte	.LVL29
 1238 0386 0100     		.2byte	0x1
 1239 0388 50       		.byte	0x50
 1240 0389 14000000 		.4byte	.LVL29
 1241 038d 60000000 		.4byte	.LFE130
 1242 0391 0100     		.2byte	0x1
 1243 0393 57       		.byte	0x57
ARM GAS  C:\Users\DNIEL~1\AppData\Local\Temp\ccYkEs6t.s 			page 23


 1244 0394 00000000 		.4byte	0x0
 1245 0398 00000000 		.4byte	0x0
 1246              	.LLST30:
 1247 039c 00000000 		.4byte	.LVL26
 1248 03a0 12000000 		.4byte	.LVL28
 1249 03a4 0100     		.2byte	0x1
 1250 03a6 51       		.byte	0x51
 1251 03a7 12000000 		.4byte	.LVL28
 1252 03ab 60000000 		.4byte	.LFE130
 1253 03af 0100     		.2byte	0x1
 1254 03b1 56       		.byte	0x56
 1255 03b2 00000000 		.4byte	0x0
 1256 03b6 00000000 		.4byte	0x0
 1257              	.LLST31:
 1258 03ba 00000000 		.4byte	.LVL26
 1259 03be 10000000 		.4byte	.LVL27
 1260 03c2 0100     		.2byte	0x1
 1261 03c4 52       		.byte	0x52
 1262 03c5 10000000 		.4byte	.LVL27
 1263 03c9 60000000 		.4byte	.LFE130
 1264 03cd 0100     		.2byte	0x1
 1265 03cf 55       		.byte	0x55
 1266 03d0 00000000 		.4byte	0x0
 1267 03d4 00000000 		.4byte	0x0
 1268              	.LLST32:
 1269 03d8 00000000 		.4byte	.LFB131
 1270 03dc 02000000 		.4byte	.LCFI12
 1271 03e0 0200     		.2byte	0x2
 1272 03e2 7D       		.byte	0x7d
 1273 03e3 00       		.sleb128 0
 1274 03e4 02000000 		.4byte	.LCFI12
 1275 03e8 34000000 		.4byte	.LFE131
 1276 03ec 0200     		.2byte	0x2
 1277 03ee 7D       		.byte	0x7d
 1278 03ef 10       		.sleb128 16
 1279 03f0 00000000 		.4byte	0x0
 1280 03f4 00000000 		.4byte	0x0
 1281              	.LLST33:
 1282 03f8 00000000 		.4byte	.LVL30
 1283 03fc 0E000000 		.4byte	.LVL31
 1284 0400 0100     		.2byte	0x1
 1285 0402 50       		.byte	0x50
 1286 0403 0E000000 		.4byte	.LVL31
 1287 0407 34000000 		.4byte	.LFE131
 1288 040b 0100     		.2byte	0x1
 1289 040d 55       		.byte	0x55
 1290 040e 00000000 		.4byte	0x0
 1291 0412 00000000 		.4byte	0x0
 1292              	.LLST34:
 1293 0416 00000000 		.4byte	.LFB132
 1294 041a 02000000 		.4byte	.LCFI13
 1295 041e 0200     		.2byte	0x2
 1296 0420 7D       		.byte	0x7d
 1297 0421 00       		.sleb128 0
 1298 0422 02000000 		.4byte	.LCFI13
 1299 0426 20000000 		.4byte	.LFE132
 1300 042a 0200     		.2byte	0x2
ARM GAS  C:\Users\DNIEL~1\AppData\Local\Temp\ccYkEs6t.s 			page 24


 1301 042c 7D       		.byte	0x7d
 1302 042d 10       		.sleb128 16
 1303 042e 00000000 		.4byte	0x0
 1304 0432 00000000 		.4byte	0x0
 1305              	.LLST35:
 1306 0436 00000000 		.4byte	.LVL32
 1307 043a 04000000 		.4byte	.LVL33
 1308 043e 0100     		.2byte	0x1
 1309 0440 50       		.byte	0x50
 1310 0441 04000000 		.4byte	.LVL33
 1311 0445 08000000 		.4byte	.LVL34
 1312 0449 0100     		.2byte	0x1
 1313 044b 55       		.byte	0x55
 1314 044c 08000000 		.4byte	.LVL34
 1315 0450 20000000 		.4byte	.LFE132
 1316 0454 0100     		.2byte	0x1
 1317 0456 55       		.byte	0x55
 1318 0457 00000000 		.4byte	0x0
 1319 045b 00000000 		.4byte	0x0
 1320              		.file 2 "c:\\program files (x86)\\codesourcery\\sourcery g++ lite\\bin\\../lib/gcc/arm-none-eabi/4
 1321              		.file 3 "c:\\program files (x86)\\codesourcery\\sourcery g++ lite\\bin\\../lib/gcc/arm-none-eabi/4
 1322              		.file 4 "../../../ChibiOS/os/ports/GCC/ARMCMx/chtypes.h"
 1323              		.file 5 "../../../ChibiOS/os/kernel/include/chlists.h"
 1324              		.file 6 "../../../ChibiOS/os/kernel/include/chthreads.h"
 1325              		.file 7 "../../../ChibiOS/os/ports/GCC/ARMCMx/chcore_v7m.h"
 1326              		.file 8 "../../../ChibiOS/os/kernel/include/chmtx.h"
 1327              		.file 9 "../../../ChibiOS/os/kernel/include/chevents.h"
 1328              		.file 10 "../../../ChibiOS/os/kernel/include/chqueues.h"
 1329              		.file 11 "../../../ChibiOS/os/hal/platforms/STM32F4xx/stm32f4xx.h"
 1330              		.file 12 "../../../ChibiOS/os/hal/include/serial.h"
 1331              		.file 13 "../../../ChibiOS/os/ports/common/ARMCMx/CMSIS/include/core_cm4.h"
 1332              		.file 14 "../../../ChibiOS/os/hal/platforms/STM32/USARTv1/serial_lld.h"
 1333              		.section	.debug_info
 1334 0000 5F0B0000 		.4byte	0xb5f
 1335 0004 0200     		.2byte	0x2
 1336 0006 00000000 		.4byte	.Ldebug_abbrev0
 1337 000a 04       		.byte	0x4
 1338 000b 01       		.uleb128 0x1
 1339 000c C2040000 		.4byte	.LASF129
 1340 0010 01       		.byte	0x1
 1341 0011 A5040000 		.4byte	.LASF130
 1342 0015 12030000 		.4byte	.LASF131
 1343 0019 00000000 		.4byte	0x0
 1344 001d 00000000 		.4byte	0x0
 1345 0021 00000000 		.4byte	.Ldebug_ranges0+0x0
 1346 0025 00000000 		.4byte	.Ldebug_line0
 1347 0029 02       		.uleb128 0x2
 1348 002a 04       		.byte	0x4
 1349 002b 05       		.byte	0x5
 1350 002c 696E7400 		.ascii	"int\000"
 1351 0030 03       		.uleb128 0x3
 1352 0031 08000000 		.4byte	.LASF2
 1353 0035 02       		.byte	0x2
 1354 0036 D3       		.byte	0xd3
 1355 0037 3B000000 		.4byte	0x3b
 1356 003b 04       		.uleb128 0x4
 1357 003c 04       		.byte	0x4
ARM GAS  C:\Users\DNIEL~1\AppData\Local\Temp\ccYkEs6t.s 			page 25


 1358 003d 07       		.byte	0x7
 1359 003e 36010000 		.4byte	.LASF0
 1360 0042 04       		.uleb128 0x4
 1361 0043 01       		.byte	0x1
 1362 0044 06       		.byte	0x6
 1363 0045 83000000 		.4byte	.LASF1
 1364 0049 03       		.uleb128 0x3
 1365 004a 9D040000 		.4byte	.LASF3
 1366 004e 03       		.byte	0x3
 1367 004f 2A       		.byte	0x2a
 1368 0050 54000000 		.4byte	0x54
 1369 0054 04       		.uleb128 0x4
 1370 0055 01       		.byte	0x1
 1371 0056 08       		.byte	0x8
 1372 0057 04030000 		.4byte	.LASF4
 1373 005b 04       		.uleb128 0x4
 1374 005c 02       		.byte	0x2
 1375 005d 05       		.byte	0x5
 1376 005e 71030000 		.4byte	.LASF5
 1377 0062 03       		.uleb128 0x3
 1378 0063 F6000000 		.4byte	.LASF6
 1379 0067 03       		.byte	0x3
 1380 0068 36       		.byte	0x36
 1381 0069 6D000000 		.4byte	0x6d
 1382 006d 04       		.uleb128 0x4
 1383 006e 02       		.byte	0x2
 1384 006f 07       		.byte	0x7
 1385 0070 97010000 		.4byte	.LASF7
 1386 0074 03       		.uleb128 0x3
 1387 0075 FC020000 		.4byte	.LASF8
 1388 0079 03       		.byte	0x3
 1389 007a 4F       		.byte	0x4f
 1390 007b 7F000000 		.4byte	0x7f
 1391 007f 04       		.uleb128 0x4
 1392 0080 04       		.byte	0x4
 1393 0081 05       		.byte	0x5
 1394 0082 DB000000 		.4byte	.LASF9
 1395 0086 03       		.uleb128 0x3
 1396 0087 E5030000 		.4byte	.LASF10
 1397 008b 03       		.byte	0x3
 1398 008c 50       		.byte	0x50
 1399 008d 91000000 		.4byte	0x91
 1400 0091 04       		.uleb128 0x4
 1401 0092 04       		.byte	0x4
 1402 0093 07       		.byte	0x7
 1403 0094 0F040000 		.4byte	.LASF11
 1404 0098 04       		.uleb128 0x4
 1405 0099 08       		.byte	0x8
 1406 009a 05       		.byte	0x5
 1407 009b 75000000 		.4byte	.LASF12
 1408 009f 04       		.uleb128 0x4
 1409 00a0 08       		.byte	0x8
 1410 00a1 07       		.byte	0x7
 1411 00a2 9C000000 		.4byte	.LASF13
 1412 00a6 04       		.uleb128 0x4
 1413 00a7 01       		.byte	0x1
 1414 00a8 02       		.byte	0x2
ARM GAS  C:\Users\DNIEL~1\AppData\Local\Temp\ccYkEs6t.s 			page 26


 1415 00a9 F6020000 		.4byte	.LASF14
 1416 00ad 03       		.uleb128 0x3
 1417 00ae D4010000 		.4byte	.LASF15
 1418 00b2 04       		.byte	0x4
 1419 00b3 2C       		.byte	0x2c
 1420 00b4 49000000 		.4byte	0x49
 1421 00b8 03       		.uleb128 0x3
 1422 00b9 E4000000 		.4byte	.LASF16
 1423 00bd 04       		.byte	0x4
 1424 00be 2D       		.byte	0x2d
 1425 00bf 49000000 		.4byte	0x49
 1426 00c3 03       		.uleb128 0x3
 1427 00c4 8E020000 		.4byte	.LASF17
 1428 00c8 04       		.byte	0x4
 1429 00c9 2E       		.byte	0x2e
 1430 00ca 49000000 		.4byte	0x49
 1431 00ce 03       		.uleb128 0x3
 1432 00cf CB000000 		.4byte	.LASF18
 1433 00d3 04       		.byte	0x4
 1434 00d4 2F       		.byte	0x2f
 1435 00d5 49000000 		.4byte	0x49
 1436 00d9 03       		.uleb128 0x3
 1437 00da DA020000 		.4byte	.LASF19
 1438 00de 04       		.byte	0x4
 1439 00df 30       		.byte	0x30
 1440 00e0 86000000 		.4byte	0x86
 1441 00e4 03       		.uleb128 0x3
 1442 00e5 AA010000 		.4byte	.LASF20
 1443 00e9 04       		.byte	0x4
 1444 00ea 31       		.byte	0x31
 1445 00eb 74000000 		.4byte	0x74
 1446 00ef 03       		.uleb128 0x3
 1447 00f0 E8010000 		.4byte	.LASF21
 1448 00f4 04       		.byte	0x4
 1449 00f5 33       		.byte	0x33
 1450 00f6 86000000 		.4byte	0x86
 1451 00fa 03       		.uleb128 0x3
 1452 00fb 6A040000 		.4byte	.LASF22
 1453 00ff 04       		.byte	0x4
 1454 0100 34       		.byte	0x34
 1455 0101 86000000 		.4byte	0x86
 1456 0105 03       		.uleb128 0x3
 1457 0106 2D040000 		.4byte	.LASF23
 1458 010a 04       		.byte	0x4
 1459 010b 35       		.byte	0x35
 1460 010c 86000000 		.4byte	0x86
 1461 0110 03       		.uleb128 0x3
 1462 0111 A3030000 		.4byte	.LASF24
 1463 0115 05       		.byte	0x5
 1464 0116 2A       		.byte	0x2a
 1465 0117 1B010000 		.4byte	0x11b
 1466 011b 05       		.uleb128 0x5
 1467 011c A3030000 		.4byte	.LASF24
 1468 0120 48       		.byte	0x48
 1469 0121 06       		.byte	0x6
 1470 0122 5E       		.byte	0x5e
 1471 0123 40020000 		.4byte	0x240
ARM GAS  C:\Users\DNIEL~1\AppData\Local\Temp\ccYkEs6t.s 			page 27


 1472 0127 06       		.uleb128 0x6
 1473 0128 94030000 		.4byte	.LASF25
 1474 012c 06       		.byte	0x6
 1475 012d 5F       		.byte	0x5f
 1476 012e 65020000 		.4byte	0x265
 1477 0132 02       		.byte	0x2
 1478 0133 23       		.byte	0x23
 1479 0134 00       		.uleb128 0x0
 1480 0135 06       		.uleb128 0x6
 1481 0136 36020000 		.4byte	.LASF26
 1482 013a 06       		.byte	0x6
 1483 013b 61       		.byte	0x61
 1484 013c 65020000 		.4byte	0x265
 1485 0140 02       		.byte	0x2
 1486 0141 23       		.byte	0x23
 1487 0142 04       		.uleb128 0x4
 1488 0143 06       		.uleb128 0x6
 1489 0144 5E000000 		.4byte	.LASF27
 1490 0148 06       		.byte	0x6
 1491 0149 63       		.byte	0x63
 1492 014a D9000000 		.4byte	0xd9
 1493 014e 02       		.byte	0x2
 1494 014f 23       		.byte	0x23
 1495 0150 08       		.uleb128 0x8
 1496 0151 06       		.uleb128 0x6
 1497 0152 FA040000 		.4byte	.LASF28
 1498 0156 06       		.byte	0x6
 1499 0157 64       		.byte	0x64
 1500 0158 33030000 		.4byte	0x333
 1501 015c 02       		.byte	0x2
 1502 015d 23       		.byte	0x23
 1503 015e 0C       		.uleb128 0xc
 1504 015f 06       		.uleb128 0x6
 1505 0160 FF000000 		.4byte	.LASF29
 1506 0164 06       		.byte	0x6
 1507 0165 66       		.byte	0x66
 1508 0166 65020000 		.4byte	0x265
 1509 016a 02       		.byte	0x2
 1510 016b 23       		.byte	0x23
 1511 016c 10       		.uleb128 0x10
 1512 016d 06       		.uleb128 0x6
 1513 016e 5A020000 		.4byte	.LASF30
 1514 0172 06       		.byte	0x6
 1515 0173 67       		.byte	0x67
 1516 0174 65020000 		.4byte	0x265
 1517 0178 02       		.byte	0x2
 1518 0179 23       		.byte	0x23
 1519 017a 14       		.uleb128 0x14
 1520 017b 06       		.uleb128 0x6
 1521 017c 86040000 		.4byte	.LASF31
 1522 0180 06       		.byte	0x6
 1523 0181 6E       		.byte	0x6e
 1524 0182 54040000 		.4byte	0x454
 1525 0186 02       		.byte	0x2
 1526 0187 23       		.byte	0x23
 1527 0188 18       		.uleb128 0x18
 1528 0189 06       		.uleb128 0x6
ARM GAS  C:\Users\DNIEL~1\AppData\Local\Temp\ccYkEs6t.s 			page 28


 1529 018a 7B030000 		.4byte	.LASF32
 1530 018e 06       		.byte	0x6
 1531 018f 79       		.byte	0x79
 1532 0190 B8000000 		.4byte	0xb8
 1533 0194 02       		.byte	0x2
 1534 0195 23       		.byte	0x23
 1535 0196 1C       		.uleb128 0x1c
 1536 0197 06       		.uleb128 0x6
 1537 0198 9B030000 		.4byte	.LASF33
 1538 019c 06       		.byte	0x6
 1539 019d 7D       		.byte	0x7d
 1540 019e AD000000 		.4byte	0xad
 1541 01a2 02       		.byte	0x2
 1542 01a3 23       		.byte	0x23
 1543 01a4 1D       		.uleb128 0x1d
 1544 01a5 06       		.uleb128 0x6
 1545 01a6 8D040000 		.4byte	.LASF34
 1546 01aa 06       		.byte	0x6
 1547 01ab 82       		.byte	0x82
 1548 01ac C3000000 		.4byte	0xc3
 1549 01b0 02       		.byte	0x2
 1550 01b1 23       		.byte	0x23
 1551 01b2 1E       		.uleb128 0x1e
 1552 01b3 06       		.uleb128 0x6
 1553 01b4 83030000 		.4byte	.LASF35
 1554 01b8 06       		.byte	0x6
 1555 01b9 88       		.byte	0x88
 1556 01ba CE000000 		.4byte	0xce
 1557 01be 02       		.byte	0x2
 1558 01bf 23       		.byte	0x23
 1559 01c0 1F       		.uleb128 0x1f
 1560 01c1 06       		.uleb128 0x6
 1561 01c2 49040000 		.4byte	.LASF36
 1562 01c6 06       		.byte	0x6
 1563 01c7 8F       		.byte	0x8f
 1564 01c8 56030000 		.4byte	0x356
 1565 01cc 02       		.byte	0x2
 1566 01cd 23       		.byte	0x23
 1567 01ce 20       		.uleb128 0x20
 1568 01cf 07       		.uleb128 0x7
 1569 01d0 705F7500 		.ascii	"p_u\000"
 1570 01d4 06       		.byte	0x6
 1571 01d5 B4       		.byte	0xb4
 1572 01d6 1F040000 		.4byte	0x41f
 1573 01da 02       		.byte	0x2
 1574 01db 23       		.byte	0x23
 1575 01dc 24       		.uleb128 0x24
 1576 01dd 06       		.uleb128 0x6
 1577 01de 00050000 		.4byte	.LASF37
 1578 01e2 06       		.byte	0x6
 1579 01e3 B9       		.byte	0xb9
 1580 01e4 8D020000 		.4byte	0x28d
 1581 01e8 02       		.byte	0x2
 1582 01e9 23       		.byte	0x23
 1583 01ea 28       		.uleb128 0x28
 1584 01eb 06       		.uleb128 0x6
 1585 01ec 6A010000 		.4byte	.LASF38
ARM GAS  C:\Users\DNIEL~1\AppData\Local\Temp\ccYkEs6t.s 			page 29


 1586 01f0 06       		.byte	0x6
 1587 01f1 BF       		.byte	0xbf
 1588 01f2 6B020000 		.4byte	0x26b
 1589 01f6 02       		.byte	0x2
 1590 01f7 23       		.byte	0x23
 1591 01f8 2C       		.uleb128 0x2c
 1592 01f9 06       		.uleb128 0x6
 1593 01fa E5040000 		.4byte	.LASF39
 1594 01fe 06       		.byte	0x6
 1595 01ff C3       		.byte	0xc3
 1596 0200 E4000000 		.4byte	0xe4
 1597 0204 02       		.byte	0x2
 1598 0205 23       		.byte	0x23
 1599 0206 34       		.uleb128 0x34
 1600 0207 06       		.uleb128 0x6
 1601 0208 B0030000 		.4byte	.LASF40
 1602 020c 06       		.byte	0x6
 1603 020d C9       		.byte	0xc9
 1604 020e EF000000 		.4byte	0xef
 1605 0212 02       		.byte	0x2
 1606 0213 23       		.byte	0x23
 1607 0214 38       		.uleb128 0x38
 1608 0215 06       		.uleb128 0x6
 1609 0216 67030000 		.4byte	.LASF41
 1610 021a 06       		.byte	0x6
 1611 021b D0       		.byte	0xd0
 1612 021c 66040000 		.4byte	0x466
 1613 0220 02       		.byte	0x2
 1614 0221 23       		.byte	0x23
 1615 0222 3C       		.uleb128 0x3c
 1616 0223 06       		.uleb128 0x6
 1617 0224 37040000 		.4byte	.LASF42
 1618 0228 06       		.byte	0x6
 1619 0229 D4       		.byte	0xd4
 1620 022a D9000000 		.4byte	0xd9
 1621 022e 02       		.byte	0x2
 1622 022f 23       		.byte	0x23
 1623 0230 40       		.uleb128 0x40
 1624 0231 06       		.uleb128 0x6
 1625 0232 94000000 		.4byte	.LASF43
 1626 0236 06       		.byte	0x6
 1627 0237 DA       		.byte	0xda
 1628 0238 A3020000 		.4byte	0x2a3
 1629 023c 02       		.byte	0x2
 1630 023d 23       		.byte	0x23
 1631 023e 44       		.uleb128 0x44
 1632 023f 00       		.byte	0x0
 1633 0240 08       		.uleb128 0x8
 1634 0241 08       		.byte	0x8
 1635 0242 05       		.byte	0x5
 1636 0243 61       		.byte	0x61
 1637 0244 65020000 		.4byte	0x265
 1638 0248 06       		.uleb128 0x6
 1639 0249 94030000 		.4byte	.LASF25
 1640 024d 05       		.byte	0x5
 1641 024e 62       		.byte	0x62
 1642 024f 65020000 		.4byte	0x265
ARM GAS  C:\Users\DNIEL~1\AppData\Local\Temp\ccYkEs6t.s 			page 30


 1643 0253 02       		.byte	0x2
 1644 0254 23       		.byte	0x23
 1645 0255 00       		.uleb128 0x0
 1646 0256 06       		.uleb128 0x6
 1647 0257 36020000 		.4byte	.LASF26
 1648 025b 05       		.byte	0x5
 1649 025c 64       		.byte	0x64
 1650 025d 65020000 		.4byte	0x265
 1651 0261 02       		.byte	0x2
 1652 0262 23       		.byte	0x23
 1653 0263 04       		.uleb128 0x4
 1654 0264 00       		.byte	0x0
 1655 0265 09       		.uleb128 0x9
 1656 0266 04       		.byte	0x4
 1657 0267 10010000 		.4byte	0x110
 1658 026b 03       		.uleb128 0x3
 1659 026c 32000000 		.4byte	.LASF44
 1660 0270 05       		.byte	0x5
 1661 0271 66       		.byte	0x66
 1662 0272 40020000 		.4byte	0x240
 1663 0276 08       		.uleb128 0x8
 1664 0277 04       		.byte	0x4
 1665 0278 05       		.byte	0x5
 1666 0279 6B       		.byte	0x6b
 1667 027a 8D020000 		.4byte	0x28d
 1668 027e 06       		.uleb128 0x6
 1669 027f 94030000 		.4byte	.LASF25
 1670 0283 05       		.byte	0x5
 1671 0284 6D       		.byte	0x6d
 1672 0285 65020000 		.4byte	0x265
 1673 0289 02       		.byte	0x2
 1674 028a 23       		.byte	0x23
 1675 028b 00       		.uleb128 0x0
 1676 028c 00       		.byte	0x0
 1677 028d 03       		.uleb128 0x3
 1678 028e DC010000 		.4byte	.LASF45
 1679 0292 05       		.byte	0x5
 1680 0293 70       		.byte	0x70
 1681 0294 76020000 		.4byte	0x276
 1682 0298 03       		.uleb128 0x3
 1683 0299 EE030000 		.4byte	.LASF46
 1684 029d 07       		.byte	0x7
 1685 029e E5       		.byte	0xe5
 1686 029f A3020000 		.4byte	0x2a3
 1687 02a3 0A       		.uleb128 0xa
 1688 02a4 04       		.byte	0x4
 1689 02a5 0B       		.uleb128 0xb
 1690 02a6 5A040000 		.4byte	.LASF47
 1691 02aa 24       		.byte	0x24
 1692 02ab 07       		.byte	0x7
 1693 02ac 0C01     		.2byte	0x10c
 1694 02ae 33030000 		.4byte	0x333
 1695 02b2 0C       		.uleb128 0xc
 1696 02b3 723400   		.ascii	"r4\000"
 1697 02b6 07       		.byte	0x7
 1698 02b7 1F01     		.2byte	0x11f
 1699 02b9 98020000 		.4byte	0x298
ARM GAS  C:\Users\DNIEL~1\AppData\Local\Temp\ccYkEs6t.s 			page 31


 1700 02bd 02       		.byte	0x2
 1701 02be 23       		.byte	0x23
 1702 02bf 00       		.uleb128 0x0
 1703 02c0 0C       		.uleb128 0xc
 1704 02c1 723500   		.ascii	"r5\000"
 1705 02c4 07       		.byte	0x7
 1706 02c5 2001     		.2byte	0x120
 1707 02c7 98020000 		.4byte	0x298
 1708 02cb 02       		.byte	0x2
 1709 02cc 23       		.byte	0x23
 1710 02cd 04       		.uleb128 0x4
 1711 02ce 0C       		.uleb128 0xc
 1712 02cf 723600   		.ascii	"r6\000"
 1713 02d2 07       		.byte	0x7
 1714 02d3 2101     		.2byte	0x121
 1715 02d5 98020000 		.4byte	0x298
 1716 02d9 02       		.byte	0x2
 1717 02da 23       		.byte	0x23
 1718 02db 08       		.uleb128 0x8
 1719 02dc 0C       		.uleb128 0xc
 1720 02dd 723700   		.ascii	"r7\000"
 1721 02e0 07       		.byte	0x7
 1722 02e1 2201     		.2byte	0x122
 1723 02e3 98020000 		.4byte	0x298
 1724 02e7 02       		.byte	0x2
 1725 02e8 23       		.byte	0x23
 1726 02e9 0C       		.uleb128 0xc
 1727 02ea 0C       		.uleb128 0xc
 1728 02eb 723800   		.ascii	"r8\000"
 1729 02ee 07       		.byte	0x7
 1730 02ef 2301     		.2byte	0x123
 1731 02f1 98020000 		.4byte	0x298
 1732 02f5 02       		.byte	0x2
 1733 02f6 23       		.byte	0x23
 1734 02f7 10       		.uleb128 0x10
 1735 02f8 0C       		.uleb128 0xc
 1736 02f9 723900   		.ascii	"r9\000"
 1737 02fc 07       		.byte	0x7
 1738 02fd 2401     		.2byte	0x124
 1739 02ff 98020000 		.4byte	0x298
 1740 0303 02       		.byte	0x2
 1741 0304 23       		.byte	0x23
 1742 0305 14       		.uleb128 0x14
 1743 0306 0C       		.uleb128 0xc
 1744 0307 72313000 		.ascii	"r10\000"
 1745 030b 07       		.byte	0x7
 1746 030c 2501     		.2byte	0x125
 1747 030e 98020000 		.4byte	0x298
 1748 0312 02       		.byte	0x2
 1749 0313 23       		.byte	0x23
 1750 0314 18       		.uleb128 0x18
 1751 0315 0C       		.uleb128 0xc
 1752 0316 72313100 		.ascii	"r11\000"
 1753 031a 07       		.byte	0x7
 1754 031b 2601     		.2byte	0x126
 1755 031d 98020000 		.4byte	0x298
 1756 0321 02       		.byte	0x2
ARM GAS  C:\Users\DNIEL~1\AppData\Local\Temp\ccYkEs6t.s 			page 32


 1757 0322 23       		.byte	0x23
 1758 0323 1C       		.uleb128 0x1c
 1759 0324 0C       		.uleb128 0xc
 1760 0325 6C7200   		.ascii	"lr\000"
 1761 0328 07       		.byte	0x7
 1762 0329 2701     		.2byte	0x127
 1763 032b 98020000 		.4byte	0x298
 1764 032f 02       		.byte	0x2
 1765 0330 23       		.byte	0x23
 1766 0331 20       		.uleb128 0x20
 1767 0332 00       		.byte	0x0
 1768 0333 0B       		.uleb128 0xb
 1769 0334 8F010000 		.4byte	.LASF48
 1770 0338 04       		.byte	0x4
 1771 0339 07       		.byte	0x7
 1772 033a 3101     		.2byte	0x131
 1773 033c 50030000 		.4byte	0x350
 1774 0340 0C       		.uleb128 0xc
 1775 0341 72313300 		.ascii	"r13\000"
 1776 0345 07       		.byte	0x7
 1777 0346 3201     		.2byte	0x132
 1778 0348 50030000 		.4byte	0x350
 1779 034c 02       		.byte	0x2
 1780 034d 23       		.byte	0x23
 1781 034e 00       		.uleb128 0x0
 1782 034f 00       		.byte	0x0
 1783 0350 09       		.uleb128 0x9
 1784 0351 04       		.byte	0x4
 1785 0352 A5020000 		.4byte	0x2a5
 1786 0356 0D       		.uleb128 0xd
 1787 0357 05010000 		.4byte	0x105
 1788 035b 05       		.uleb128 0x5
 1789 035c FF010000 		.4byte	.LASF49
 1790 0360 10       		.byte	0x10
 1791 0361 08       		.byte	0x8
 1792 0362 2C       		.byte	0x2c
 1793 0363 92030000 		.4byte	0x392
 1794 0367 06       		.uleb128 0x6
 1795 0368 B3000000 		.4byte	.LASF50
 1796 036c 08       		.byte	0x8
 1797 036d 2D       		.byte	0x2d
 1798 036e 6B020000 		.4byte	0x26b
 1799 0372 02       		.byte	0x2
 1800 0373 23       		.byte	0x23
 1801 0374 00       		.uleb128 0x0
 1802 0375 06       		.uleb128 0x6
 1803 0376 F2040000 		.4byte	.LASF51
 1804 037a 08       		.byte	0x8
 1805 037b 2F       		.byte	0x2f
 1806 037c 65020000 		.4byte	0x265
 1807 0380 02       		.byte	0x2
 1808 0381 23       		.byte	0x23
 1809 0382 08       		.uleb128 0x8
 1810 0383 06       		.uleb128 0x6
 1811 0384 26040000 		.4byte	.LASF52
 1812 0388 08       		.byte	0x8
 1813 0389 31       		.byte	0x31
ARM GAS  C:\Users\DNIEL~1\AppData\Local\Temp\ccYkEs6t.s 			page 33


 1814 038a 92030000 		.4byte	0x392
 1815 038e 02       		.byte	0x2
 1816 038f 23       		.byte	0x23
 1817 0390 0C       		.uleb128 0xc
 1818 0391 00       		.byte	0x0
 1819 0392 09       		.uleb128 0x9
 1820 0393 04       		.byte	0x4
 1821 0394 5B030000 		.4byte	0x35b
 1822 0398 03       		.uleb128 0x3
 1823 0399 FF010000 		.4byte	.LASF49
 1824 039d 08       		.byte	0x8
 1825 039e 33       		.byte	0x33
 1826 039f 5B030000 		.4byte	0x35b
 1827 03a3 03       		.uleb128 0x3
 1828 03a4 AF040000 		.4byte	.LASF53
 1829 03a8 09       		.byte	0x9
 1830 03a9 2C       		.byte	0x2c
 1831 03aa AE030000 		.4byte	0x3ae
 1832 03ae 05       		.uleb128 0x5
 1833 03af AF040000 		.4byte	.LASF53
 1834 03b3 10       		.byte	0x10
 1835 03b4 09       		.byte	0x9
 1836 03b5 31       		.byte	0x31
 1837 03b6 F3030000 		.4byte	0x3f3
 1838 03ba 06       		.uleb128 0x6
 1839 03bb B7010000 		.4byte	.LASF54
 1840 03bf 09       		.byte	0x9
 1841 03c0 32       		.byte	0x32
 1842 03c1 F3030000 		.4byte	0x3f3
 1843 03c5 02       		.byte	0x2
 1844 03c6 23       		.byte	0x23
 1845 03c7 00       		.uleb128 0x0
 1846 03c8 06       		.uleb128 0x6
 1847 03c9 45030000 		.4byte	.LASF55
 1848 03cd 09       		.byte	0x9
 1849 03ce 35       		.byte	0x35
 1850 03cf 65020000 		.4byte	0x265
 1851 03d3 02       		.byte	0x2
 1852 03d4 23       		.byte	0x23
 1853 03d5 04       		.uleb128 0x4
 1854 03d6 06       		.uleb128 0x6
 1855 03d7 86020000 		.4byte	.LASF56
 1856 03db 09       		.byte	0x9
 1857 03dc 37       		.byte	0x37
 1858 03dd EF000000 		.4byte	0xef
 1859 03e1 02       		.byte	0x2
 1860 03e2 23       		.byte	0x23
 1861 03e3 08       		.uleb128 0x8
 1862 03e4 06       		.uleb128 0x6
 1863 03e5 5E030000 		.4byte	.LASF57
 1864 03e9 09       		.byte	0x9
 1865 03ea 3A       		.byte	0x3a
 1866 03eb FA000000 		.4byte	0xfa
 1867 03ef 02       		.byte	0x2
 1868 03f0 23       		.byte	0x23
 1869 03f1 0C       		.uleb128 0xc
 1870 03f2 00       		.byte	0x0
ARM GAS  C:\Users\DNIEL~1\AppData\Local\Temp\ccYkEs6t.s 			page 34


 1871 03f3 09       		.uleb128 0x9
 1872 03f4 04       		.byte	0x4
 1873 03f5 A3030000 		.4byte	0x3a3
 1874 03f9 05       		.uleb128 0x5
 1875 03fa 24010000 		.4byte	.LASF58
 1876 03fe 04       		.byte	0x4
 1877 03ff 09       		.byte	0x9
 1878 0400 41       		.byte	0x41
 1879 0401 14040000 		.4byte	0x414
 1880 0405 06       		.uleb128 0x6
 1881 0406 2A000000 		.4byte	.LASF59
 1882 040a 09       		.byte	0x9
 1883 040b 42       		.byte	0x42
 1884 040c F3030000 		.4byte	0x3f3
 1885 0410 02       		.byte	0x2
 1886 0411 23       		.byte	0x23
 1887 0412 00       		.uleb128 0x0
 1888 0413 00       		.byte	0x0
 1889 0414 03       		.uleb128 0x3
 1890 0415 24010000 		.4byte	.LASF58
 1891 0419 09       		.byte	0x9
 1892 041a 45       		.byte	0x45
 1893 041b F9030000 		.4byte	0x3f9
 1894 041f 0E       		.uleb128 0xe
 1895 0420 04       		.byte	0x4
 1896 0421 06       		.byte	0x6
 1897 0422 96       		.byte	0x96
 1898 0423 54040000 		.4byte	0x454
 1899 0427 0F       		.uleb128 0xf
 1900 0428 0F000000 		.4byte	.LASF60
 1901 042c 06       		.byte	0x6
 1902 042d 9D       		.byte	0x9d
 1903 042e E4000000 		.4byte	0xe4
 1904 0432 0F       		.uleb128 0xf
 1905 0433 3F000000 		.4byte	.LASF61
 1906 0437 06       		.byte	0x6
 1907 0438 A4       		.byte	0xa4
 1908 0439 E4000000 		.4byte	0xe4
 1909 043d 0F       		.uleb128 0xf
 1910 043e C4000000 		.4byte	.LASF62
 1911 0442 06       		.byte	0x6
 1912 0443 AB       		.byte	0xab
 1913 0444 A3020000 		.4byte	0x2a3
 1914 0448 0F       		.uleb128 0xf
 1915 0449 8D030000 		.4byte	.LASF63
 1916 044d 06       		.byte	0x6
 1917 044e B2       		.byte	0xb2
 1918 044f EF000000 		.4byte	0xef
 1919 0453 00       		.byte	0x0
 1920 0454 09       		.uleb128 0x9
 1921 0455 04       		.byte	0x4
 1922 0456 5A040000 		.4byte	0x45a
 1923 045a 10       		.uleb128 0x10
 1924 045b 5F040000 		.4byte	0x45f
 1925 045f 04       		.uleb128 0x4
 1926 0460 01       		.byte	0x1
 1927 0461 08       		.byte	0x8
ARM GAS  C:\Users\DNIEL~1\AppData\Local\Temp\ccYkEs6t.s 			page 35


 1928 0462 21040000 		.4byte	.LASF64
 1929 0466 09       		.uleb128 0x9
 1930 0467 04       		.byte	0x4
 1931 0468 98030000 		.4byte	0x398
 1932 046c 09       		.uleb128 0x9
 1933 046d 04       		.byte	0x4
 1934 046e 72040000 		.4byte	0x472
 1935 0472 11       		.uleb128 0x11
 1936 0473 01       		.byte	0x1
 1937 0474 E4000000 		.4byte	0xe4
 1938 0478 82040000 		.4byte	0x482
 1939 047c 12       		.uleb128 0x12
 1940 047d A3020000 		.4byte	0x2a3
 1941 0481 00       		.byte	0x0
 1942 0482 03       		.uleb128 0x3
 1943 0483 05020000 		.4byte	.LASF65
 1944 0487 0A       		.byte	0xa
 1945 0488 37       		.byte	0x37
 1946 0489 8D040000 		.4byte	0x48d
 1947 048d 05       		.uleb128 0x5
 1948 048e 05020000 		.4byte	.LASF65
 1949 0492 24       		.byte	0x24
 1950 0493 0A       		.byte	0xa
 1951 0494 45       		.byte	0x45
 1952 0495 0A050000 		.4byte	0x50a
 1953 0499 06       		.uleb128 0x6
 1954 049a 6B000000 		.4byte	.LASF66
 1955 049e 0A       		.byte	0xa
 1956 049f 46       		.byte	0x46
 1957 04a0 6B020000 		.4byte	0x26b
 1958 04a4 02       		.byte	0x2
 1959 04a5 23       		.byte	0x23
 1960 04a6 00       		.uleb128 0x0
 1961 04a7 06       		.uleb128 0x6
 1962 04a8 3D020000 		.4byte	.LASF67
 1963 04ac 0A       		.byte	0xa
 1964 04ad 47       		.byte	0x47
 1965 04ae 30000000 		.4byte	0x30
 1966 04b2 02       		.byte	0x2
 1967 04b3 23       		.byte	0x23
 1968 04b4 08       		.uleb128 0x8
 1969 04b5 06       		.uleb128 0x6
 1970 04b6 ED000000 		.4byte	.LASF68
 1971 04ba 0A       		.byte	0xa
 1972 04bb 48       		.byte	0x48
 1973 04bc 2D050000 		.4byte	0x52d
 1974 04c0 02       		.byte	0x2
 1975 04c1 23       		.byte	0x23
 1976 04c2 0C       		.uleb128 0xc
 1977 04c3 06       		.uleb128 0x6
 1978 04c4 80040000 		.4byte	.LASF69
 1979 04c8 0A       		.byte	0xa
 1980 04c9 49       		.byte	0x49
 1981 04ca 2D050000 		.4byte	0x52d
 1982 04ce 02       		.byte	0x2
 1983 04cf 23       		.byte	0x23
 1984 04d0 10       		.uleb128 0x10
ARM GAS  C:\Users\DNIEL~1\AppData\Local\Temp\ccYkEs6t.s 			page 36


 1985 04d1 06       		.uleb128 0x6
 1986 04d2 6E020000 		.4byte	.LASF70
 1987 04d6 0A       		.byte	0xa
 1988 04d7 4B       		.byte	0x4b
 1989 04d8 2D050000 		.4byte	0x52d
 1990 04dc 02       		.byte	0x2
 1991 04dd 23       		.byte	0x23
 1992 04de 14       		.uleb128 0x14
 1993 04df 06       		.uleb128 0x6
 1994 04e0 E2020000 		.4byte	.LASF71
 1995 04e4 0A       		.byte	0xa
 1996 04e5 4C       		.byte	0x4c
 1997 04e6 2D050000 		.4byte	0x52d
 1998 04ea 02       		.byte	0x2
 1999 04eb 23       		.byte	0x23
 2000 04ec 18       		.uleb128 0x18
 2001 04ed 06       		.uleb128 0x6
 2002 04ee 94040000 		.4byte	.LASF72
 2003 04f2 0A       		.byte	0xa
 2004 04f3 4D       		.byte	0x4d
 2005 04f4 0A050000 		.4byte	0x50a
 2006 04f8 02       		.byte	0x2
 2007 04f9 23       		.byte	0x23
 2008 04fa 1C       		.uleb128 0x1c
 2009 04fb 06       		.uleb128 0x6
 2010 04fc EB040000 		.4byte	.LASF73
 2011 0500 0A       		.byte	0xa
 2012 0501 4E       		.byte	0x4e
 2013 0502 A3020000 		.4byte	0x2a3
 2014 0506 02       		.byte	0x2
 2015 0507 23       		.byte	0x23
 2016 0508 20       		.uleb128 0x20
 2017 0509 00       		.byte	0x0
 2018 050a 03       		.uleb128 0x3
 2019 050b B4020000 		.4byte	.LASF74
 2020 050f 0A       		.byte	0xa
 2021 0510 3A       		.byte	0x3a
 2022 0511 15050000 		.4byte	0x515
 2023 0515 09       		.uleb128 0x9
 2024 0516 04       		.byte	0x4
 2025 0517 1B050000 		.4byte	0x51b
 2026 051b 13       		.uleb128 0x13
 2027 051c 01       		.byte	0x1
 2028 051d 27050000 		.4byte	0x527
 2029 0521 12       		.uleb128 0x12
 2030 0522 27050000 		.4byte	0x527
 2031 0526 00       		.byte	0x0
 2032 0527 09       		.uleb128 0x9
 2033 0528 04       		.byte	0x4
 2034 0529 82040000 		.4byte	0x482
 2035 052d 09       		.uleb128 0x9
 2036 052e 04       		.byte	0x4
 2037 052f 49000000 		.4byte	0x49
 2038 0533 03       		.uleb128 0x3
 2039 0534 F4010000 		.4byte	.LASF75
 2040 0538 0A       		.byte	0xa
 2041 0539 82       		.byte	0x82
ARM GAS  C:\Users\DNIEL~1\AppData\Local\Temp\ccYkEs6t.s 			page 37


 2042 053a 82040000 		.4byte	0x482
 2043 053e 03       		.uleb128 0x3
 2044 053f 16000000 		.4byte	.LASF76
 2045 0543 0A       		.byte	0xa
 2046 0544 F5       		.byte	0xf5
 2047 0545 82040000 		.4byte	0x482
 2048 0549 11       		.uleb128 0x11
 2049 054a 01       		.byte	0x1
 2050 054b 30000000 		.4byte	0x30
 2051 054f 63050000 		.4byte	0x563
 2052 0553 12       		.uleb128 0x12
 2053 0554 A3020000 		.4byte	0x2a3
 2054 0558 12       		.uleb128 0x12
 2055 0559 63050000 		.4byte	0x563
 2056 055d 12       		.uleb128 0x12
 2057 055e 30000000 		.4byte	0x30
 2058 0562 00       		.byte	0x0
 2059 0563 09       		.uleb128 0x9
 2060 0564 04       		.byte	0x4
 2061 0565 69050000 		.4byte	0x569
 2062 0569 10       		.uleb128 0x10
 2063 056a 49000000 		.4byte	0x49
 2064 056e 09       		.uleb128 0x9
 2065 056f 04       		.byte	0x4
 2066 0570 49050000 		.4byte	0x549
 2067 0574 11       		.uleb128 0x11
 2068 0575 01       		.byte	0x1
 2069 0576 30000000 		.4byte	0x30
 2070 057a 8E050000 		.4byte	0x58e
 2071 057e 12       		.uleb128 0x12
 2072 057f A3020000 		.4byte	0x2a3
 2073 0583 12       		.uleb128 0x12
 2074 0584 2D050000 		.4byte	0x52d
 2075 0588 12       		.uleb128 0x12
 2076 0589 30000000 		.4byte	0x30
 2077 058d 00       		.byte	0x0
 2078 058e 09       		.uleb128 0x9
 2079 058f 04       		.byte	0x4
 2080 0590 74050000 		.4byte	0x574
 2081 0594 11       		.uleb128 0x11
 2082 0595 01       		.byte	0x1
 2083 0596 E4000000 		.4byte	0xe4
 2084 059a A9050000 		.4byte	0x5a9
 2085 059e 12       		.uleb128 0x12
 2086 059f A3020000 		.4byte	0x2a3
 2087 05a3 12       		.uleb128 0x12
 2088 05a4 49000000 		.4byte	0x49
 2089 05a8 00       		.byte	0x0
 2090 05a9 09       		.uleb128 0x9
 2091 05aa 04       		.byte	0x4
 2092 05ab 94050000 		.4byte	0x594
 2093 05af 0D       		.uleb128 0xd
 2094 05b0 62000000 		.4byte	0x62
 2095 05b4 0D       		.uleb128 0xd
 2096 05b5 74000000 		.4byte	0x74
 2097 05b9 14       		.uleb128 0x14
 2098 05ba 1C       		.byte	0x1c
ARM GAS  C:\Users\DNIEL~1\AppData\Local\Temp\ccYkEs6t.s 			page 38


 2099 05bb 0B       		.byte	0xb
 2100 05bc 2905     		.2byte	0x529
 2101 05be 93060000 		.4byte	0x693
 2102 05c2 0C       		.uleb128 0xc
 2103 05c3 535200   		.ascii	"SR\000"
 2104 05c6 0B       		.byte	0xb
 2105 05c7 2B05     		.2byte	0x52b
 2106 05c9 AF050000 		.4byte	0x5af
 2107 05cd 02       		.byte	0x2
 2108 05ce 23       		.byte	0x23
 2109 05cf 00       		.uleb128 0x0
 2110 05d0 15       		.uleb128 0x15
 2111 05d1 96020000 		.4byte	.LASF77
 2112 05d5 0B       		.byte	0xb
 2113 05d6 2C05     		.2byte	0x52c
 2114 05d8 62000000 		.4byte	0x62
 2115 05dc 02       		.byte	0x2
 2116 05dd 23       		.byte	0x23
 2117 05de 02       		.uleb128 0x2
 2118 05df 0C       		.uleb128 0xc
 2119 05e0 445200   		.ascii	"DR\000"
 2120 05e3 0B       		.byte	0xb
 2121 05e4 2D05     		.2byte	0x52d
 2122 05e6 AF050000 		.4byte	0x5af
 2123 05ea 02       		.byte	0x2
 2124 05eb 23       		.byte	0x23
 2125 05ec 04       		.uleb128 0x4
 2126 05ed 15       		.uleb128 0x15
 2127 05ee A0020000 		.4byte	.LASF78
 2128 05f2 0B       		.byte	0xb
 2129 05f3 2E05     		.2byte	0x52e
 2130 05f5 62000000 		.4byte	0x62
 2131 05f9 02       		.byte	0x2
 2132 05fa 23       		.byte	0x23
 2133 05fb 06       		.uleb128 0x6
 2134 05fc 0C       		.uleb128 0xc
 2135 05fd 42525200 		.ascii	"BRR\000"
 2136 0601 0B       		.byte	0xb
 2137 0602 2F05     		.2byte	0x52f
 2138 0604 AF050000 		.4byte	0x5af
 2139 0608 02       		.byte	0x2
 2140 0609 23       		.byte	0x23
 2141 060a 08       		.uleb128 0x8
 2142 060b 15       		.uleb128 0x15
 2143 060c AA020000 		.4byte	.LASF79
 2144 0610 0B       		.byte	0xb
 2145 0611 3005     		.2byte	0x530
 2146 0613 62000000 		.4byte	0x62
 2147 0617 02       		.byte	0x2
 2148 0618 23       		.byte	0x23
 2149 0619 0A       		.uleb128 0xa
 2150 061a 0C       		.uleb128 0xc
 2151 061b 43523100 		.ascii	"CR1\000"
 2152 061f 0B       		.byte	0xb
 2153 0620 3105     		.2byte	0x531
 2154 0622 AF050000 		.4byte	0x5af
 2155 0626 02       		.byte	0x2
ARM GAS  C:\Users\DNIEL~1\AppData\Local\Temp\ccYkEs6t.s 			page 39


 2156 0627 23       		.byte	0x23
 2157 0628 0C       		.uleb128 0xc
 2158 0629 15       		.uleb128 0x15
 2159 062a 50040000 		.4byte	.LASF80
 2160 062e 0B       		.byte	0xb
 2161 062f 3205     		.2byte	0x532
 2162 0631 62000000 		.4byte	0x62
 2163 0635 02       		.byte	0x2
 2164 0636 23       		.byte	0x23
 2165 0637 0E       		.uleb128 0xe
 2166 0638 0C       		.uleb128 0xc
 2167 0639 43523200 		.ascii	"CR2\000"
 2168 063d 0B       		.byte	0xb
 2169 063e 3305     		.2byte	0x533
 2170 0640 AF050000 		.4byte	0x5af
 2171 0644 02       		.byte	0x2
 2172 0645 23       		.byte	0x23
 2173 0646 10       		.uleb128 0x10
 2174 0647 15       		.uleb128 0x15
 2175 0648 BE020000 		.4byte	.LASF81
 2176 064c 0B       		.byte	0xb
 2177 064d 3405     		.2byte	0x534
 2178 064f 62000000 		.4byte	0x62
 2179 0653 02       		.byte	0x2
 2180 0654 23       		.byte	0x23
 2181 0655 12       		.uleb128 0x12
 2182 0656 0C       		.uleb128 0xc
 2183 0657 43523300 		.ascii	"CR3\000"
 2184 065b 0B       		.byte	0xb
 2185 065c 3505     		.2byte	0x535
 2186 065e AF050000 		.4byte	0x5af
 2187 0662 02       		.byte	0x2
 2188 0663 23       		.byte	0x23
 2189 0664 14       		.uleb128 0x14
 2190 0665 15       		.uleb128 0x15
 2191 0666 DB030000 		.4byte	.LASF82
 2192 066a 0B       		.byte	0xb
 2193 066b 3605     		.2byte	0x536
 2194 066d 62000000 		.4byte	0x62
 2195 0671 02       		.byte	0x2
 2196 0672 23       		.byte	0x23
 2197 0673 16       		.uleb128 0x16
 2198 0674 15       		.uleb128 0x15
 2199 0675 8F000000 		.4byte	.LASF83
 2200 0679 0B       		.byte	0xb
 2201 067a 3705     		.2byte	0x537
 2202 067c AF050000 		.4byte	0x5af
 2203 0680 02       		.byte	0x2
 2204 0681 23       		.byte	0x23
 2205 0682 18       		.uleb128 0x18
 2206 0683 15       		.uleb128 0x15
 2207 0684 D0020000 		.4byte	.LASF84
 2208 0688 0B       		.byte	0xb
 2209 0689 3805     		.2byte	0x538
 2210 068b 62000000 		.4byte	0x62
 2211 068f 02       		.byte	0x2
 2212 0690 23       		.byte	0x23
ARM GAS  C:\Users\DNIEL~1\AppData\Local\Temp\ccYkEs6t.s 			page 40


 2213 0691 1A       		.uleb128 0x1a
 2214 0692 00       		.byte	0x0
 2215 0693 16       		.uleb128 0x16
 2216 0694 BF010000 		.4byte	.LASF85
 2217 0698 0B       		.byte	0xb
 2218 0699 3905     		.2byte	0x539
 2219 069b B9050000 		.4byte	0x5b9
 2220 069f 11       		.uleb128 0x11
 2221 06a0 01       		.byte	0x1
 2222 06a1 E4000000 		.4byte	0xe4
 2223 06a5 B9060000 		.4byte	0x6b9
 2224 06a9 12       		.uleb128 0x12
 2225 06aa A3020000 		.4byte	0x2a3
 2226 06ae 12       		.uleb128 0x12
 2227 06af 49000000 		.4byte	0x49
 2228 06b3 12       		.uleb128 0x12
 2229 06b4 05010000 		.4byte	0x105
 2230 06b8 00       		.byte	0x0
 2231 06b9 09       		.uleb128 0x9
 2232 06ba 04       		.byte	0x4
 2233 06bb 9F060000 		.4byte	0x69f
 2234 06bf 11       		.uleb128 0x11
 2235 06c0 01       		.byte	0x1
 2236 06c1 E4000000 		.4byte	0xe4
 2237 06c5 D4060000 		.4byte	0x6d4
 2238 06c9 12       		.uleb128 0x12
 2239 06ca A3020000 		.4byte	0x2a3
 2240 06ce 12       		.uleb128 0x12
 2241 06cf 05010000 		.4byte	0x105
 2242 06d3 00       		.byte	0x0
 2243 06d4 09       		.uleb128 0x9
 2244 06d5 04       		.byte	0x4
 2245 06d6 BF060000 		.4byte	0x6bf
 2246 06da 11       		.uleb128 0x11
 2247 06db 01       		.byte	0x1
 2248 06dc 30000000 		.4byte	0x30
 2249 06e0 F9060000 		.4byte	0x6f9
 2250 06e4 12       		.uleb128 0x12
 2251 06e5 A3020000 		.4byte	0x2a3
 2252 06e9 12       		.uleb128 0x12
 2253 06ea 63050000 		.4byte	0x563
 2254 06ee 12       		.uleb128 0x12
 2255 06ef 30000000 		.4byte	0x30
 2256 06f3 12       		.uleb128 0x12
 2257 06f4 05010000 		.4byte	0x105
 2258 06f8 00       		.byte	0x0
 2259 06f9 09       		.uleb128 0x9
 2260 06fa 04       		.byte	0x4
 2261 06fb DA060000 		.4byte	0x6da
 2262 06ff 11       		.uleb128 0x11
 2263 0700 01       		.byte	0x1
 2264 0701 30000000 		.4byte	0x30
 2265 0705 1E070000 		.4byte	0x71e
 2266 0709 12       		.uleb128 0x12
 2267 070a A3020000 		.4byte	0x2a3
 2268 070e 12       		.uleb128 0x12
 2269 070f 2D050000 		.4byte	0x52d
ARM GAS  C:\Users\DNIEL~1\AppData\Local\Temp\ccYkEs6t.s 			page 41


 2270 0713 12       		.uleb128 0x12
 2271 0714 30000000 		.4byte	0x30
 2272 0718 12       		.uleb128 0x12
 2273 0719 05010000 		.4byte	0x105
 2274 071d 00       		.byte	0x0
 2275 071e 09       		.uleb128 0x9
 2276 071f 04       		.byte	0x4
 2277 0720 FF060000 		.4byte	0x6ff
 2278 0724 17       		.uleb128 0x17
 2279 0725 01       		.byte	0x1
 2280 0726 0C       		.byte	0xc
 2281 0727 64       		.byte	0x64
 2282 0728 3F070000 		.4byte	0x73f
 2283 072c 18       		.uleb128 0x18
 2284 072d BB030000 		.4byte	.LASF86
 2285 0731 00       		.sleb128 0
 2286 0732 18       		.uleb128 0x18
 2287 0733 C8020000 		.4byte	.LASF87
 2288 0737 01       		.sleb128 1
 2289 0738 18       		.uleb128 0x18
 2290 0739 61040000 		.4byte	.LASF88
 2291 073d 02       		.sleb128 2
 2292 073e 00       		.byte	0x0
 2293 073f 03       		.uleb128 0x3
 2294 0740 76040000 		.4byte	.LASF89
 2295 0744 0C       		.byte	0xc
 2296 0745 68       		.byte	0x68
 2297 0746 24070000 		.4byte	0x724
 2298 074a 03       		.uleb128 0x3
 2299 074b 02040000 		.4byte	.LASF90
 2300 074f 0C       		.byte	0xc
 2301 0750 6D       		.byte	0x6d
 2302 0751 55070000 		.4byte	0x755
 2303 0755 05       		.uleb128 0x5
 2304 0756 02040000 		.4byte	.LASF90
 2305 075a 78       		.byte	0x78
 2306 075b 0C       		.byte	0xc
 2307 075c 87       		.byte	0x87
 2308 075d D0070000 		.4byte	0x7d0
 2309 0761 07       		.uleb128 0x7
 2310 0762 766D7400 		.ascii	"vmt\000"
 2311 0766 0C       		.byte	0xc
 2312 0767 89       		.byte	0x89
 2313 0768 4D080000 		.4byte	0x84d
 2314 076c 02       		.byte	0x2
 2315 076d 23       		.byte	0x23
 2316 076e 00       		.uleb128 0x0
 2317 076f 06       		.uleb128 0x6
 2318 0770 89010000 		.4byte	.LASF91
 2319 0774 0C       		.byte	0xc
 2320 0775 8A       		.byte	0x8a
 2321 0776 14040000 		.4byte	0x414
 2322 077a 02       		.byte	0x2
 2323 077b 23       		.byte	0x23
 2324 077c 04       		.uleb128 0x4
 2325 077d 06       		.uleb128 0x6
 2326 077e D5000000 		.4byte	.LASF92
ARM GAS  C:\Users\DNIEL~1\AppData\Local\Temp\ccYkEs6t.s 			page 42


 2327 0782 0C       		.byte	0xc
 2328 0783 8A       		.byte	0x8a
 2329 0784 3F070000 		.4byte	0x73f
 2330 0788 02       		.byte	0x2
 2331 0789 23       		.byte	0x23
 2332 078a 08       		.uleb128 0x8
 2333 078b 06       		.uleb128 0x6
 2334 078c 63010000 		.4byte	.LASF93
 2335 0790 0C       		.byte	0xc
 2336 0791 8A       		.byte	0x8a
 2337 0792 33050000 		.4byte	0x533
 2338 0796 02       		.byte	0x2
 2339 0797 23       		.byte	0x23
 2340 0798 0C       		.uleb128 0xc
 2341 0799 06       		.uleb128 0x6
 2342 079a B0010000 		.4byte	.LASF94
 2343 079e 0C       		.byte	0xc
 2344 079f 8A       		.byte	0x8a
 2345 07a0 3E050000 		.4byte	0x53e
 2346 07a4 02       		.byte	0x2
 2347 07a5 23       		.byte	0x23
 2348 07a6 30       		.uleb128 0x30
 2349 07a7 07       		.uleb128 0x7
 2350 07a8 696200   		.ascii	"ib\000"
 2351 07ab 0C       		.byte	0xc
 2352 07ac 8A       		.byte	0x8a
 2353 07ad 58080000 		.4byte	0x858
 2354 07b1 02       		.byte	0x2
 2355 07b2 23       		.byte	0x23
 2356 07b3 54       		.uleb128 0x54
 2357 07b4 07       		.uleb128 0x7
 2358 07b5 6F6200   		.ascii	"ob\000"
 2359 07b8 0C       		.byte	0xc
 2360 07b9 8A       		.byte	0x8a
 2361 07ba 58080000 		.4byte	0x858
 2362 07be 02       		.byte	0x2
 2363 07bf 23       		.byte	0x23
 2364 07c0 64       		.uleb128 0x64
 2365 07c1 06       		.uleb128 0x6
 2366 07c2 30010000 		.4byte	.LASF95
 2367 07c6 0C       		.byte	0xc
 2368 07c7 8A       		.byte	0x8a
 2369 07c8 68080000 		.4byte	0x868
 2370 07cc 02       		.byte	0x2
 2371 07cd 23       		.byte	0x23
 2372 07ce 74       		.uleb128 0x74
 2373 07cf 00       		.byte	0x0
 2374 07d0 05       		.uleb128 0x5
 2375 07d1 D5040000 		.4byte	.LASF96
 2376 07d5 20       		.byte	0x20
 2377 07d6 0C       		.byte	0xc
 2378 07d7 7C       		.byte	0x7c
 2379 07d8 4D080000 		.4byte	0x84d
 2380 07dc 06       		.uleb128 0x6
 2381 07dd 1E020000 		.4byte	.LASF97
 2382 07e1 0C       		.byte	0xc
 2383 07e2 7D       		.byte	0x7d
ARM GAS  C:\Users\DNIEL~1\AppData\Local\Temp\ccYkEs6t.s 			page 43


 2384 07e3 6E050000 		.4byte	0x56e
 2385 07e7 02       		.byte	0x2
 2386 07e8 23       		.byte	0x23
 2387 07e9 00       		.uleb128 0x0
 2388 07ea 06       		.uleb128 0x6
 2389 07eb BD040000 		.4byte	.LASF98
 2390 07ef 0C       		.byte	0xc
 2391 07f0 7D       		.byte	0x7d
 2392 07f1 8E050000 		.4byte	0x58e
 2393 07f5 02       		.byte	0x2
 2394 07f6 23       		.byte	0x23
 2395 07f7 04       		.uleb128 0x4
 2396 07f8 07       		.uleb128 0x7
 2397 07f9 70757400 		.ascii	"put\000"
 2398 07fd 0C       		.byte	0xc
 2399 07fe 7D       		.byte	0x7d
 2400 07ff A9050000 		.4byte	0x5a9
 2401 0803 02       		.byte	0x2
 2402 0804 23       		.byte	0x23
 2403 0805 08       		.uleb128 0x8
 2404 0806 07       		.uleb128 0x7
 2405 0807 67657400 		.ascii	"get\000"
 2406 080b 0C       		.byte	0xc
 2407 080c 7D       		.byte	0x7d
 2408 080d 6C040000 		.4byte	0x46c
 2409 0811 02       		.byte	0x2
 2410 0812 23       		.byte	0x23
 2411 0813 0C       		.uleb128 0xc
 2412 0814 06       		.uleb128 0x6
 2413 0815 24020000 		.4byte	.LASF99
 2414 0819 0C       		.byte	0xc
 2415 081a 7D       		.byte	0x7d
 2416 081b B9060000 		.4byte	0x6b9
 2417 081f 02       		.byte	0x2
 2418 0820 23       		.byte	0x23
 2419 0821 10       		.uleb128 0x10
 2420 0822 06       		.uleb128 0x6
 2421 0823 75010000 		.4byte	.LASF100
 2422 0827 0C       		.byte	0xc
 2423 0828 7D       		.byte	0x7d
 2424 0829 D4060000 		.4byte	0x6d4
 2425 082d 02       		.byte	0x2
 2426 082e 23       		.byte	0x23
 2427 082f 14       		.uleb128 0x14
 2428 0830 06       		.uleb128 0x6
 2429 0831 CD010000 		.4byte	.LASF101
 2430 0835 0C       		.byte	0xc
 2431 0836 7D       		.byte	0x7d
 2432 0837 F9060000 		.4byte	0x6f9
 2433 083b 02       		.byte	0x2
 2434 083c 23       		.byte	0x23
 2435 083d 18       		.uleb128 0x18
 2436 083e 06       		.uleb128 0x6
 2437 083f 65000000 		.4byte	.LASF102
 2438 0843 0C       		.byte	0xc
 2439 0844 7D       		.byte	0x7d
 2440 0845 1E070000 		.4byte	0x71e
ARM GAS  C:\Users\DNIEL~1\AppData\Local\Temp\ccYkEs6t.s 			page 44


 2441 0849 02       		.byte	0x2
 2442 084a 23       		.byte	0x23
 2443 084b 1C       		.uleb128 0x1c
 2444 084c 00       		.byte	0x0
 2445 084d 09       		.uleb128 0x9
 2446 084e 04       		.byte	0x4
 2447 084f 53080000 		.4byte	0x853
 2448 0853 10       		.uleb128 0x10
 2449 0854 D0070000 		.4byte	0x7d0
 2450 0858 19       		.uleb128 0x19
 2451 0859 49000000 		.4byte	0x49
 2452 085d 68080000 		.4byte	0x868
 2453 0861 1A       		.uleb128 0x1a
 2454 0862 3B000000 		.4byte	0x3b
 2455 0866 0F       		.byte	0xf
 2456 0867 00       		.byte	0x0
 2457 0868 09       		.uleb128 0x9
 2458 0869 04       		.byte	0x4
 2459 086a 93060000 		.4byte	0x693
 2460 086e 09       		.uleb128 0x9
 2461 086f 04       		.byte	0x4
 2462 0870 5F040000 		.4byte	0x45f
 2463 0874 1B       		.uleb128 0x1b
 2464 0875 01       		.byte	0x1
 2465 0876 22000000 		.4byte	.LASF103
 2466 087a 01       		.byte	0x1
 2467 087b 19       		.byte	0x19
 2468 087c 01       		.byte	0x1
 2469 087d 00000000 		.4byte	.LFB119
 2470 0881 24000000 		.4byte	.LFE119
 2471 0885 00000000 		.4byte	.LLST0
 2472 0889 1B       		.uleb128 0x1b
 2473 088a 01       		.byte	0x1
 2474 088b 07010000 		.4byte	.LASF104
 2475 088f 01       		.byte	0x1
 2476 0890 1F       		.byte	0x1f
 2477 0891 01       		.byte	0x1
 2478 0892 00000000 		.4byte	.LFB120
 2479 0896 24000000 		.4byte	.LFE120
 2480 089a 20000000 		.4byte	.LLST1
 2481 089e 1C       		.uleb128 0x1c
 2482 089f 01       		.byte	0x1
 2483 08a0 EA020000 		.4byte	.LASF105
 2484 08a4 01       		.byte	0x1
 2485 08a5 25       		.byte	0x25
 2486 08a6 01       		.byte	0x1
 2487 08a7 00000000 		.4byte	.LFB121
 2488 08ab 5C000000 		.4byte	.LFE121
 2489 08af 40000000 		.4byte	.LLST2
 2490 08b3 D2080000 		.4byte	0x8d2
 2491 08b7 1D       		.uleb128 0x1d
 2492 08b8 5800     		.ascii	"X\000"
 2493 08ba 01       		.byte	0x1
 2494 08bb 25       		.byte	0x25
 2495 08bc 29000000 		.4byte	0x29
 2496 08c0 60000000 		.4byte	.LLST3
 2497 08c4 1D       		.uleb128 0x1d
ARM GAS  C:\Users\DNIEL~1\AppData\Local\Temp\ccYkEs6t.s 			page 45


 2498 08c5 5900     		.ascii	"Y\000"
 2499 08c7 01       		.byte	0x1
 2500 08c8 25       		.byte	0x25
 2501 08c9 29000000 		.4byte	0x29
 2502 08cd 7E000000 		.4byte	.LLST4
 2503 08d1 00       		.byte	0x0
 2504 08d2 1C       		.uleb128 0x1c
 2505 08d3 01       		.byte	0x1
 2506 08d4 76020000 		.4byte	.LASF106
 2507 08d8 01       		.byte	0x1
 2508 08d9 2F       		.byte	0x2f
 2509 08da 01       		.byte	0x1
 2510 08db 00000000 		.4byte	.LFB122
 2511 08df 5C000000 		.4byte	.LFE122
 2512 08e3 9C000000 		.4byte	.LLST5
 2513 08e7 0A090000 		.4byte	0x90a
 2514 08eb 1E       		.uleb128 0x1e
 2515 08ec 7A010000 		.4byte	.LASF107
 2516 08f0 01       		.byte	0x1
 2517 08f1 2F       		.byte	0x2f
 2518 08f2 29000000 		.4byte	0x29
 2519 08f6 BC000000 		.4byte	.LLST6
 2520 08fa 1E       		.uleb128 0x1e
 2521 08fb CE040000 		.4byte	.LASF108
 2522 08ff 01       		.byte	0x1
 2523 0900 2F       		.byte	0x2f
 2524 0901 29000000 		.4byte	0x29
 2525 0905 DA000000 		.4byte	.LLST7
 2526 0909 00       		.byte	0x0
 2527 090a 1C       		.uleb128 0x1c
 2528 090b 01       		.byte	0x1
 2529 090c 12020000 		.4byte	.LASF109
 2530 0910 01       		.byte	0x1
 2531 0911 39       		.byte	0x39
 2532 0912 01       		.byte	0x1
 2533 0913 00000000 		.4byte	.LFB123
 2534 0917 5C000000 		.4byte	.LFE123
 2535 091b F8000000 		.4byte	.LLST8
 2536 091f 3E090000 		.4byte	0x93e
 2537 0923 1D       		.uleb128 0x1d
 2538 0924 5800     		.ascii	"X\000"
 2539 0926 01       		.byte	0x1
 2540 0927 39       		.byte	0x39
 2541 0928 29000000 		.4byte	0x29
 2542 092c 18010000 		.4byte	.LLST9
 2543 0930 1D       		.uleb128 0x1d
 2544 0931 5900     		.ascii	"Y\000"
 2545 0933 01       		.byte	0x1
 2546 0934 39       		.byte	0x39
 2547 0935 29000000 		.4byte	0x29
 2548 0939 36010000 		.4byte	.LLST10
 2549 093d 00       		.byte	0x0
 2550 093e 1C       		.uleb128 0x1c
 2551 093f 01       		.byte	0x1
 2552 0940 49010000 		.4byte	.LASF110
 2553 0944 01       		.byte	0x1
 2554 0945 43       		.byte	0x43
ARM GAS  C:\Users\DNIEL~1\AppData\Local\Temp\ccYkEs6t.s 			page 46


 2555 0946 01       		.byte	0x1
 2556 0947 00000000 		.4byte	.LFB124
 2557 094b 7C000000 		.4byte	.LFE124
 2558 094f 54010000 		.4byte	.LLST11
 2559 0953 81090000 		.4byte	0x981
 2560 0957 1D       		.uleb128 0x1d
 2561 0958 5800     		.ascii	"X\000"
 2562 095a 01       		.byte	0x1
 2563 095b 43       		.byte	0x43
 2564 095c 29000000 		.4byte	0x29
 2565 0960 74010000 		.4byte	.LLST12
 2566 0964 1D       		.uleb128 0x1d
 2567 0965 5900     		.ascii	"Y\000"
 2568 0967 01       		.byte	0x1
 2569 0968 43       		.byte	0x43
 2570 0969 29000000 		.4byte	0x29
 2571 096d 92010000 		.4byte	.LLST13
 2572 0971 1E       		.uleb128 0x1e
 2573 0972 62020000 		.4byte	.LASF111
 2574 0976 01       		.byte	0x1
 2575 0977 43       		.byte	0x43
 2576 0978 29000000 		.4byte	0x29
 2577 097c B0010000 		.4byte	.LLST14
 2578 0980 00       		.byte	0x0
 2579 0981 1C       		.uleb128 0x1c
 2580 0982 01       		.byte	0x1
 2581 0983 47020000 		.4byte	.LASF112
 2582 0987 01       		.byte	0x1
 2583 0988 4E       		.byte	0x4e
 2584 0989 01       		.byte	0x1
 2585 098a 00000000 		.4byte	.LFB125
 2586 098e B8000000 		.4byte	.LFE125
 2587 0992 CE010000 		.4byte	.LLST15
 2588 0996 E1090000 		.4byte	0x9e1
 2589 099a 1D       		.uleb128 0x1d
 2590 099b 583100   		.ascii	"X1\000"
 2591 099e 01       		.byte	0x1
 2592 099f 4E       		.byte	0x4e
 2593 09a0 29000000 		.4byte	0x29
 2594 09a4 EE010000 		.4byte	.LLST16
 2595 09a8 1D       		.uleb128 0x1d
 2596 09a9 593100   		.ascii	"Y1\000"
 2597 09ac 01       		.byte	0x1
 2598 09ad 4E       		.byte	0x4e
 2599 09ae 29000000 		.4byte	0x29
 2600 09b2 0C020000 		.4byte	.LLST17
 2601 09b6 1D       		.uleb128 0x1d
 2602 09b7 583200   		.ascii	"X2\000"
 2603 09ba 01       		.byte	0x1
 2604 09bb 4E       		.byte	0x4e
 2605 09bc 29000000 		.4byte	0x29
 2606 09c0 2A020000 		.4byte	.LLST18
 2607 09c4 1D       		.uleb128 0x1d
 2608 09c5 593200   		.ascii	"Y2\000"
 2609 09c8 01       		.byte	0x1
 2610 09c9 4E       		.byte	0x4e
 2611 09ca 29000000 		.4byte	0x29
ARM GAS  C:\Users\DNIEL~1\AppData\Local\Temp\ccYkEs6t.s 			page 47


 2612 09ce 48020000 		.4byte	.LLST19
 2613 09d2 1F       		.uleb128 0x1f
 2614 09d3 AA030000 		.4byte	.LASF113
 2615 09d7 01       		.byte	0x1
 2616 09d8 4E       		.byte	0x4e
 2617 09d9 29000000 		.4byte	0x29
 2618 09dd 02       		.byte	0x2
 2619 09de 91       		.byte	0x91
 2620 09df 00       		.sleb128 0
 2621 09e0 00       		.byte	0x0
 2622 09e1 1C       		.uleb128 0x1c
 2623 09e2 01       		.byte	0x1
 2624 09e3 17010000 		.4byte	.LASF114
 2625 09e7 01       		.byte	0x1
 2626 09e8 5E       		.byte	0x5e
 2627 09e9 01       		.byte	0x1
 2628 09ea 00000000 		.4byte	.LFB126
 2629 09ee 40000000 		.4byte	.LFE126
 2630 09f2 66020000 		.4byte	.LLST20
 2631 09f6 0A0A0000 		.4byte	0xa0a
 2632 09fa 1E       		.uleb128 0x1e
 2633 09fb AA030000 		.4byte	.LASF113
 2634 09ff 01       		.byte	0x1
 2635 0a00 5E       		.byte	0x5e
 2636 0a01 29000000 		.4byte	0x29
 2637 0a05 86020000 		.4byte	.LLST21
 2638 0a09 00       		.byte	0x0
 2639 0a0a 1C       		.uleb128 0x1c
 2640 0a0b 01       		.byte	0x1
 2641 0a0c 29020000 		.4byte	.LASF115
 2642 0a10 01       		.byte	0x1
 2643 0a11 66       		.byte	0x66
 2644 0a12 01       		.byte	0x1
 2645 0a13 00000000 		.4byte	.LFB127
 2646 0a17 40000000 		.4byte	.LFE127
 2647 0a1b A4020000 		.4byte	.LLST22
 2648 0a1f 330A0000 		.4byte	0xa33
 2649 0a23 1E       		.uleb128 0x1e
 2650 0a24 5A010000 		.4byte	.LASF116
 2651 0a28 01       		.byte	0x1
 2652 0a29 66       		.byte	0x66
 2653 0a2a 29000000 		.4byte	0x29
 2654 0a2e C4020000 		.4byte	.LLST23
 2655 0a32 00       		.byte	0x0
 2656 0a33 1C       		.uleb128 0x1c
 2657 0a34 01       		.byte	0x1
 2658 0a35 0A050000 		.4byte	.LASF117
 2659 0a39 01       		.byte	0x1
 2660 0a3a 6E       		.byte	0x6e
 2661 0a3b 01       		.byte	0x1
 2662 0a3c 00000000 		.4byte	.LFB128
 2663 0a40 40000000 		.4byte	.LFE128
 2664 0a44 E2020000 		.4byte	.LLST24
 2665 0a48 5C0A0000 		.4byte	0xa5c
 2666 0a4c 1E       		.uleb128 0x1e
 2667 0a4d 43010000 		.4byte	.LASF118
 2668 0a51 01       		.byte	0x1
ARM GAS  C:\Users\DNIEL~1\AppData\Local\Temp\ccYkEs6t.s 			page 48


 2669 0a52 6E       		.byte	0x6e
 2670 0a53 29000000 		.4byte	0x29
 2671 0a57 02030000 		.4byte	.LLST25
 2672 0a5b 00       		.byte	0x0
 2673 0a5c 1C       		.uleb128 0x1c
 2674 0a5d 01       		.byte	0x1
 2675 0a5e 48000000 		.4byte	.LASF119
 2676 0a62 01       		.byte	0x1
 2677 0a63 76       		.byte	0x76
 2678 0a64 01       		.byte	0x1
 2679 0a65 00000000 		.4byte	.LFB129
 2680 0a69 40000000 		.4byte	.LFE129
 2681 0a6d 20030000 		.4byte	.LLST26
 2682 0a71 850A0000 		.4byte	0xa85
 2683 0a75 1E       		.uleb128 0x1e
 2684 0a76 AA030000 		.4byte	.LASF113
 2685 0a7a 01       		.byte	0x1
 2686 0a7b 76       		.byte	0x76
 2687 0a7c 29000000 		.4byte	0x29
 2688 0a80 40030000 		.4byte	.LLST27
 2689 0a84 00       		.byte	0x0
 2690 0a85 1C       		.uleb128 0x1c
 2691 0a86 01       		.byte	0x1
 2692 0a87 C5030000 		.4byte	.LASF120
 2693 0a8b 01       		.byte	0x1
 2694 0a8c 7E       		.byte	0x7e
 2695 0a8d 01       		.byte	0x1
 2696 0a8e 00000000 		.4byte	.LFB130
 2697 0a92 60000000 		.4byte	.LFE130
 2698 0a96 5E030000 		.4byte	.LLST28
 2699 0a9a CC0A0000 		.4byte	0xacc
 2700 0a9e 1E       		.uleb128 0x1e
 2701 0a9f 00000000 		.4byte	.LASF121
 2702 0aa3 01       		.byte	0x1
 2703 0aa4 7E       		.byte	0x7e
 2704 0aa5 6E080000 		.4byte	0x86e
 2705 0aa9 7E030000 		.4byte	.LLST29
 2706 0aad 1E       		.uleb128 0x1e
 2707 0aae 81010000 		.4byte	.LASF122
 2708 0ab2 01       		.byte	0x1
 2709 0ab3 7E       		.byte	0x7e
 2710 0ab4 6E080000 		.4byte	0x86e
 2711 0ab8 9C030000 		.4byte	.LLST30
 2712 0abc 1E       		.uleb128 0x1e
 2713 0abd 12010000 		.4byte	.LASF123
 2714 0ac1 01       		.byte	0x1
 2715 0ac2 7E       		.byte	0x7e
 2716 0ac3 29000000 		.4byte	0x29
 2717 0ac7 BA030000 		.4byte	.LLST31
 2718 0acb 00       		.byte	0x0
 2719 0acc 1C       		.uleb128 0x1c
 2720 0acd 01       		.byte	0x1
 2721 0ace 42040000 		.4byte	.LASF124
 2722 0ad2 01       		.byte	0x1
 2723 0ad3 88       		.byte	0x88
 2724 0ad4 01       		.byte	0x1
 2725 0ad5 00000000 		.4byte	.LFB131
ARM GAS  C:\Users\DNIEL~1\AppData\Local\Temp\ccYkEs6t.s 			page 49


 2726 0ad9 34000000 		.4byte	.LFE131
 2727 0add D8030000 		.4byte	.LLST32
 2728 0ae1 F50A0000 		.4byte	0xaf5
 2729 0ae5 1E       		.uleb128 0x1e
 2730 0ae6 BB000000 		.4byte	.LASF125
 2731 0aea 01       		.byte	0x1
 2732 0aeb 88       		.byte	0x88
 2733 0aec 6E080000 		.4byte	0x86e
 2734 0af0 F8030000 		.4byte	.LLST33
 2735 0af4 00       		.byte	0x0
 2736 0af5 1C       		.uleb128 0x1c
 2737 0af6 01       		.byte	0x1
 2738 0af7 F7030000 		.4byte	.LASF126
 2739 0afb 01       		.byte	0x1
 2740 0afc 8F       		.byte	0x8f
 2741 0afd 01       		.byte	0x1
 2742 0afe 00000000 		.4byte	.LFB132
 2743 0b02 20000000 		.4byte	.LFE132
 2744 0b06 16040000 		.4byte	.LLST34
 2745 0b0a 2A0B0000 		.4byte	0xb2a
 2746 0b0e 1E       		.uleb128 0x1e
 2747 0b0f 51020000 		.4byte	.LASF127
 2748 0b13 01       		.byte	0x1
 2749 0b14 8F       		.byte	0x8f
 2750 0b15 6E080000 		.4byte	0x86e
 2751 0b19 36040000 		.4byte	.LLST35
 2752 0b1d 20       		.uleb128 0x20
 2753 0b1e 776B00   		.ascii	"wk\000"
 2754 0b21 01       		.byte	0x1
 2755 0b22 91       		.byte	0x91
 2756 0b23 54000000 		.4byte	0x54
 2757 0b27 01       		.byte	0x1
 2758 0b28 54       		.byte	0x54
 2759 0b29 00       		.byte	0x0
 2760 0b2a 21       		.uleb128 0x21
 2761 0b2b 51030000 		.4byte	.LASF128
 2762 0b2f 0D       		.byte	0xd
 2763 0b30 9806     		.2byte	0x698
 2764 0b32 B4050000 		.4byte	0x5b4
 2765 0b36 01       		.byte	0x1
 2766 0b37 01       		.byte	0x1
 2767 0b38 22       		.uleb128 0x22
 2768 0b39 53443200 		.ascii	"SD2\000"
 2769 0b3d 0E       		.byte	0xe
 2770 0b3e 1201     		.2byte	0x112
 2771 0b40 4A070000 		.4byte	0x74a
 2772 0b44 01       		.byte	0x1
 2773 0b45 01       		.byte	0x1
 2774 0b46 21       		.uleb128 0x21
 2775 0b47 51030000 		.4byte	.LASF128
 2776 0b4b 0D       		.byte	0xd
 2777 0b4c 9806     		.2byte	0x698
 2778 0b4e B4050000 		.4byte	0x5b4
 2779 0b52 01       		.byte	0x1
 2780 0b53 01       		.byte	0x1
 2781 0b54 22       		.uleb128 0x22
 2782 0b55 53443200 		.ascii	"SD2\000"
ARM GAS  C:\Users\DNIEL~1\AppData\Local\Temp\ccYkEs6t.s 			page 50


 2783 0b59 0E       		.byte	0xe
 2784 0b5a 1201     		.2byte	0x112
 2785 0b5c 4A070000 		.4byte	0x74a
 2786 0b60 01       		.byte	0x1
 2787 0b61 01       		.byte	0x1
 2788 0b62 00       		.byte	0x0
 2789              		.section	.debug_abbrev
 2790 0000 01       		.uleb128 0x1
 2791 0001 11       		.uleb128 0x11
 2792 0002 01       		.byte	0x1
 2793 0003 25       		.uleb128 0x25
 2794 0004 0E       		.uleb128 0xe
 2795 0005 13       		.uleb128 0x13
 2796 0006 0B       		.uleb128 0xb
 2797 0007 03       		.uleb128 0x3
 2798 0008 0E       		.uleb128 0xe
 2799 0009 1B       		.uleb128 0x1b
 2800 000a 0E       		.uleb128 0xe
 2801 000b 11       		.uleb128 0x11
 2802 000c 01       		.uleb128 0x1
 2803 000d 52       		.uleb128 0x52
 2804 000e 01       		.uleb128 0x1
 2805 000f 55       		.uleb128 0x55
 2806 0010 06       		.uleb128 0x6
 2807 0011 10       		.uleb128 0x10
 2808 0012 06       		.uleb128 0x6
 2809 0013 00       		.byte	0x0
 2810 0014 00       		.byte	0x0
 2811 0015 02       		.uleb128 0x2
 2812 0016 24       		.uleb128 0x24
 2813 0017 00       		.byte	0x0
 2814 0018 0B       		.uleb128 0xb
 2815 0019 0B       		.uleb128 0xb
 2816 001a 3E       		.uleb128 0x3e
 2817 001b 0B       		.uleb128 0xb
 2818 001c 03       		.uleb128 0x3
 2819 001d 08       		.uleb128 0x8
 2820 001e 00       		.byte	0x0
 2821 001f 00       		.byte	0x0
 2822 0020 03       		.uleb128 0x3
 2823 0021 16       		.uleb128 0x16
 2824 0022 00       		.byte	0x0
 2825 0023 03       		.uleb128 0x3
 2826 0024 0E       		.uleb128 0xe
 2827 0025 3A       		.uleb128 0x3a
 2828 0026 0B       		.uleb128 0xb
 2829 0027 3B       		.uleb128 0x3b
 2830 0028 0B       		.uleb128 0xb
 2831 0029 49       		.uleb128 0x49
 2832 002a 13       		.uleb128 0x13
 2833 002b 00       		.byte	0x0
 2834 002c 00       		.byte	0x0
 2835 002d 04       		.uleb128 0x4
 2836 002e 24       		.uleb128 0x24
 2837 002f 00       		.byte	0x0
 2838 0030 0B       		.uleb128 0xb
 2839 0031 0B       		.uleb128 0xb
ARM GAS  C:\Users\DNIEL~1\AppData\Local\Temp\ccYkEs6t.s 			page 51


 2840 0032 3E       		.uleb128 0x3e
 2841 0033 0B       		.uleb128 0xb
 2842 0034 03       		.uleb128 0x3
 2843 0035 0E       		.uleb128 0xe
 2844 0036 00       		.byte	0x0
 2845 0037 00       		.byte	0x0
 2846 0038 05       		.uleb128 0x5
 2847 0039 13       		.uleb128 0x13
 2848 003a 01       		.byte	0x1
 2849 003b 03       		.uleb128 0x3
 2850 003c 0E       		.uleb128 0xe
 2851 003d 0B       		.uleb128 0xb
 2852 003e 0B       		.uleb128 0xb
 2853 003f 3A       		.uleb128 0x3a
 2854 0040 0B       		.uleb128 0xb
 2855 0041 3B       		.uleb128 0x3b
 2856 0042 0B       		.uleb128 0xb
 2857 0043 01       		.uleb128 0x1
 2858 0044 13       		.uleb128 0x13
 2859 0045 00       		.byte	0x0
 2860 0046 00       		.byte	0x0
 2861 0047 06       		.uleb128 0x6
 2862 0048 0D       		.uleb128 0xd
 2863 0049 00       		.byte	0x0
 2864 004a 03       		.uleb128 0x3
 2865 004b 0E       		.uleb128 0xe
 2866 004c 3A       		.uleb128 0x3a
 2867 004d 0B       		.uleb128 0xb
 2868 004e 3B       		.uleb128 0x3b
 2869 004f 0B       		.uleb128 0xb
 2870 0050 49       		.uleb128 0x49
 2871 0051 13       		.uleb128 0x13
 2872 0052 38       		.uleb128 0x38
 2873 0053 0A       		.uleb128 0xa
 2874 0054 00       		.byte	0x0
 2875 0055 00       		.byte	0x0
 2876 0056 07       		.uleb128 0x7
 2877 0057 0D       		.uleb128 0xd
 2878 0058 00       		.byte	0x0
 2879 0059 03       		.uleb128 0x3
 2880 005a 08       		.uleb128 0x8
 2881 005b 3A       		.uleb128 0x3a
 2882 005c 0B       		.uleb128 0xb
 2883 005d 3B       		.uleb128 0x3b
 2884 005e 0B       		.uleb128 0xb
 2885 005f 49       		.uleb128 0x49
 2886 0060 13       		.uleb128 0x13
 2887 0061 38       		.uleb128 0x38
 2888 0062 0A       		.uleb128 0xa
 2889 0063 00       		.byte	0x0
 2890 0064 00       		.byte	0x0
 2891 0065 08       		.uleb128 0x8
 2892 0066 13       		.uleb128 0x13
 2893 0067 01       		.byte	0x1
 2894 0068 0B       		.uleb128 0xb
 2895 0069 0B       		.uleb128 0xb
 2896 006a 3A       		.uleb128 0x3a
ARM GAS  C:\Users\DNIEL~1\AppData\Local\Temp\ccYkEs6t.s 			page 52


 2897 006b 0B       		.uleb128 0xb
 2898 006c 3B       		.uleb128 0x3b
 2899 006d 0B       		.uleb128 0xb
 2900 006e 01       		.uleb128 0x1
 2901 006f 13       		.uleb128 0x13
 2902 0070 00       		.byte	0x0
 2903 0071 00       		.byte	0x0
 2904 0072 09       		.uleb128 0x9
 2905 0073 0F       		.uleb128 0xf
 2906 0074 00       		.byte	0x0
 2907 0075 0B       		.uleb128 0xb
 2908 0076 0B       		.uleb128 0xb
 2909 0077 49       		.uleb128 0x49
 2910 0078 13       		.uleb128 0x13
 2911 0079 00       		.byte	0x0
 2912 007a 00       		.byte	0x0
 2913 007b 0A       		.uleb128 0xa
 2914 007c 0F       		.uleb128 0xf
 2915 007d 00       		.byte	0x0
 2916 007e 0B       		.uleb128 0xb
 2917 007f 0B       		.uleb128 0xb
 2918 0080 00       		.byte	0x0
 2919 0081 00       		.byte	0x0
 2920 0082 0B       		.uleb128 0xb
 2921 0083 13       		.uleb128 0x13
 2922 0084 01       		.byte	0x1
 2923 0085 03       		.uleb128 0x3
 2924 0086 0E       		.uleb128 0xe
 2925 0087 0B       		.uleb128 0xb
 2926 0088 0B       		.uleb128 0xb
 2927 0089 3A       		.uleb128 0x3a
 2928 008a 0B       		.uleb128 0xb
 2929 008b 3B       		.uleb128 0x3b
 2930 008c 05       		.uleb128 0x5
 2931 008d 01       		.uleb128 0x1
 2932 008e 13       		.uleb128 0x13
 2933 008f 00       		.byte	0x0
 2934 0090 00       		.byte	0x0
 2935 0091 0C       		.uleb128 0xc
 2936 0092 0D       		.uleb128 0xd
 2937 0093 00       		.byte	0x0
 2938 0094 03       		.uleb128 0x3
 2939 0095 08       		.uleb128 0x8
 2940 0096 3A       		.uleb128 0x3a
 2941 0097 0B       		.uleb128 0xb
 2942 0098 3B       		.uleb128 0x3b
 2943 0099 05       		.uleb128 0x5
 2944 009a 49       		.uleb128 0x49
 2945 009b 13       		.uleb128 0x13
 2946 009c 38       		.uleb128 0x38
 2947 009d 0A       		.uleb128 0xa
 2948 009e 00       		.byte	0x0
 2949 009f 00       		.byte	0x0
 2950 00a0 0D       		.uleb128 0xd
 2951 00a1 35       		.uleb128 0x35
 2952 00a2 00       		.byte	0x0
 2953 00a3 49       		.uleb128 0x49
ARM GAS  C:\Users\DNIEL~1\AppData\Local\Temp\ccYkEs6t.s 			page 53


 2954 00a4 13       		.uleb128 0x13
 2955 00a5 00       		.byte	0x0
 2956 00a6 00       		.byte	0x0
 2957 00a7 0E       		.uleb128 0xe
 2958 00a8 17       		.uleb128 0x17
 2959 00a9 01       		.byte	0x1
 2960 00aa 0B       		.uleb128 0xb
 2961 00ab 0B       		.uleb128 0xb
 2962 00ac 3A       		.uleb128 0x3a
 2963 00ad 0B       		.uleb128 0xb
 2964 00ae 3B       		.uleb128 0x3b
 2965 00af 0B       		.uleb128 0xb
 2966 00b0 01       		.uleb128 0x1
 2967 00b1 13       		.uleb128 0x13
 2968 00b2 00       		.byte	0x0
 2969 00b3 00       		.byte	0x0
 2970 00b4 0F       		.uleb128 0xf
 2971 00b5 0D       		.uleb128 0xd
 2972 00b6 00       		.byte	0x0
 2973 00b7 03       		.uleb128 0x3
 2974 00b8 0E       		.uleb128 0xe
 2975 00b9 3A       		.uleb128 0x3a
 2976 00ba 0B       		.uleb128 0xb
 2977 00bb 3B       		.uleb128 0x3b
 2978 00bc 0B       		.uleb128 0xb
 2979 00bd 49       		.uleb128 0x49
 2980 00be 13       		.uleb128 0x13
 2981 00bf 00       		.byte	0x0
 2982 00c0 00       		.byte	0x0
 2983 00c1 10       		.uleb128 0x10
 2984 00c2 26       		.uleb128 0x26
 2985 00c3 00       		.byte	0x0
 2986 00c4 49       		.uleb128 0x49
 2987 00c5 13       		.uleb128 0x13
 2988 00c6 00       		.byte	0x0
 2989 00c7 00       		.byte	0x0
 2990 00c8 11       		.uleb128 0x11
 2991 00c9 15       		.uleb128 0x15
 2992 00ca 01       		.byte	0x1
 2993 00cb 27       		.uleb128 0x27
 2994 00cc 0C       		.uleb128 0xc
 2995 00cd 49       		.uleb128 0x49
 2996 00ce 13       		.uleb128 0x13
 2997 00cf 01       		.uleb128 0x1
 2998 00d0 13       		.uleb128 0x13
 2999 00d1 00       		.byte	0x0
 3000 00d2 00       		.byte	0x0
 3001 00d3 12       		.uleb128 0x12
 3002 00d4 05       		.uleb128 0x5
 3003 00d5 00       		.byte	0x0
 3004 00d6 49       		.uleb128 0x49
 3005 00d7 13       		.uleb128 0x13
 3006 00d8 00       		.byte	0x0
 3007 00d9 00       		.byte	0x0
 3008 00da 13       		.uleb128 0x13
 3009 00db 15       		.uleb128 0x15
 3010 00dc 01       		.byte	0x1
ARM GAS  C:\Users\DNIEL~1\AppData\Local\Temp\ccYkEs6t.s 			page 54


 3011 00dd 27       		.uleb128 0x27
 3012 00de 0C       		.uleb128 0xc
 3013 00df 01       		.uleb128 0x1
 3014 00e0 13       		.uleb128 0x13
 3015 00e1 00       		.byte	0x0
 3016 00e2 00       		.byte	0x0
 3017 00e3 14       		.uleb128 0x14
 3018 00e4 13       		.uleb128 0x13
 3019 00e5 01       		.byte	0x1
 3020 00e6 0B       		.uleb128 0xb
 3021 00e7 0B       		.uleb128 0xb
 3022 00e8 3A       		.uleb128 0x3a
 3023 00e9 0B       		.uleb128 0xb
 3024 00ea 3B       		.uleb128 0x3b
 3025 00eb 05       		.uleb128 0x5
 3026 00ec 01       		.uleb128 0x1
 3027 00ed 13       		.uleb128 0x13
 3028 00ee 00       		.byte	0x0
 3029 00ef 00       		.byte	0x0
 3030 00f0 15       		.uleb128 0x15
 3031 00f1 0D       		.uleb128 0xd
 3032 00f2 00       		.byte	0x0
 3033 00f3 03       		.uleb128 0x3
 3034 00f4 0E       		.uleb128 0xe
 3035 00f5 3A       		.uleb128 0x3a
 3036 00f6 0B       		.uleb128 0xb
 3037 00f7 3B       		.uleb128 0x3b
 3038 00f8 05       		.uleb128 0x5
 3039 00f9 49       		.uleb128 0x49
 3040 00fa 13       		.uleb128 0x13
 3041 00fb 38       		.uleb128 0x38
 3042 00fc 0A       		.uleb128 0xa
 3043 00fd 00       		.byte	0x0
 3044 00fe 00       		.byte	0x0
 3045 00ff 16       		.uleb128 0x16
 3046 0100 16       		.uleb128 0x16
 3047 0101 00       		.byte	0x0
 3048 0102 03       		.uleb128 0x3
 3049 0103 0E       		.uleb128 0xe
 3050 0104 3A       		.uleb128 0x3a
 3051 0105 0B       		.uleb128 0xb
 3052 0106 3B       		.uleb128 0x3b
 3053 0107 05       		.uleb128 0x5
 3054 0108 49       		.uleb128 0x49
 3055 0109 13       		.uleb128 0x13
 3056 010a 00       		.byte	0x0
 3057 010b 00       		.byte	0x0
 3058 010c 17       		.uleb128 0x17
 3059 010d 04       		.uleb128 0x4
 3060 010e 01       		.byte	0x1
 3061 010f 0B       		.uleb128 0xb
 3062 0110 0B       		.uleb128 0xb
 3063 0111 3A       		.uleb128 0x3a
 3064 0112 0B       		.uleb128 0xb
 3065 0113 3B       		.uleb128 0x3b
 3066 0114 0B       		.uleb128 0xb
 3067 0115 01       		.uleb128 0x1
ARM GAS  C:\Users\DNIEL~1\AppData\Local\Temp\ccYkEs6t.s 			page 55


 3068 0116 13       		.uleb128 0x13
 3069 0117 00       		.byte	0x0
 3070 0118 00       		.byte	0x0
 3071 0119 18       		.uleb128 0x18
 3072 011a 28       		.uleb128 0x28
 3073 011b 00       		.byte	0x0
 3074 011c 03       		.uleb128 0x3
 3075 011d 0E       		.uleb128 0xe
 3076 011e 1C       		.uleb128 0x1c
 3077 011f 0D       		.uleb128 0xd
 3078 0120 00       		.byte	0x0
 3079 0121 00       		.byte	0x0
 3080 0122 19       		.uleb128 0x19
 3081 0123 01       		.uleb128 0x1
 3082 0124 01       		.byte	0x1
 3083 0125 49       		.uleb128 0x49
 3084 0126 13       		.uleb128 0x13
 3085 0127 01       		.uleb128 0x1
 3086 0128 13       		.uleb128 0x13
 3087 0129 00       		.byte	0x0
 3088 012a 00       		.byte	0x0
 3089 012b 1A       		.uleb128 0x1a
 3090 012c 21       		.uleb128 0x21
 3091 012d 00       		.byte	0x0
 3092 012e 49       		.uleb128 0x49
 3093 012f 13       		.uleb128 0x13
 3094 0130 2F       		.uleb128 0x2f
 3095 0131 0B       		.uleb128 0xb
 3096 0132 00       		.byte	0x0
 3097 0133 00       		.byte	0x0
 3098 0134 1B       		.uleb128 0x1b
 3099 0135 2E       		.uleb128 0x2e
 3100 0136 00       		.byte	0x0
 3101 0137 3F       		.uleb128 0x3f
 3102 0138 0C       		.uleb128 0xc
 3103 0139 03       		.uleb128 0x3
 3104 013a 0E       		.uleb128 0xe
 3105 013b 3A       		.uleb128 0x3a
 3106 013c 0B       		.uleb128 0xb
 3107 013d 3B       		.uleb128 0x3b
 3108 013e 0B       		.uleb128 0xb
 3109 013f 27       		.uleb128 0x27
 3110 0140 0C       		.uleb128 0xc
 3111 0141 11       		.uleb128 0x11
 3112 0142 01       		.uleb128 0x1
 3113 0143 12       		.uleb128 0x12
 3114 0144 01       		.uleb128 0x1
 3115 0145 40       		.uleb128 0x40
 3116 0146 06       		.uleb128 0x6
 3117 0147 00       		.byte	0x0
 3118 0148 00       		.byte	0x0
 3119 0149 1C       		.uleb128 0x1c
 3120 014a 2E       		.uleb128 0x2e
 3121 014b 01       		.byte	0x1
 3122 014c 3F       		.uleb128 0x3f
 3123 014d 0C       		.uleb128 0xc
 3124 014e 03       		.uleb128 0x3
ARM GAS  C:\Users\DNIEL~1\AppData\Local\Temp\ccYkEs6t.s 			page 56


 3125 014f 0E       		.uleb128 0xe
 3126 0150 3A       		.uleb128 0x3a
 3127 0151 0B       		.uleb128 0xb
 3128 0152 3B       		.uleb128 0x3b
 3129 0153 0B       		.uleb128 0xb
 3130 0154 27       		.uleb128 0x27
 3131 0155 0C       		.uleb128 0xc
 3132 0156 11       		.uleb128 0x11
 3133 0157 01       		.uleb128 0x1
 3134 0158 12       		.uleb128 0x12
 3135 0159 01       		.uleb128 0x1
 3136 015a 40       		.uleb128 0x40
 3137 015b 06       		.uleb128 0x6
 3138 015c 01       		.uleb128 0x1
 3139 015d 13       		.uleb128 0x13
 3140 015e 00       		.byte	0x0
 3141 015f 00       		.byte	0x0
 3142 0160 1D       		.uleb128 0x1d
 3143 0161 05       		.uleb128 0x5
 3144 0162 00       		.byte	0x0
 3145 0163 03       		.uleb128 0x3
 3146 0164 08       		.uleb128 0x8
 3147 0165 3A       		.uleb128 0x3a
 3148 0166 0B       		.uleb128 0xb
 3149 0167 3B       		.uleb128 0x3b
 3150 0168 0B       		.uleb128 0xb
 3151 0169 49       		.uleb128 0x49
 3152 016a 13       		.uleb128 0x13
 3153 016b 02       		.uleb128 0x2
 3154 016c 06       		.uleb128 0x6
 3155 016d 00       		.byte	0x0
 3156 016e 00       		.byte	0x0
 3157 016f 1E       		.uleb128 0x1e
 3158 0170 05       		.uleb128 0x5
 3159 0171 00       		.byte	0x0
 3160 0172 03       		.uleb128 0x3
 3161 0173 0E       		.uleb128 0xe
 3162 0174 3A       		.uleb128 0x3a
 3163 0175 0B       		.uleb128 0xb
 3164 0176 3B       		.uleb128 0x3b
 3165 0177 0B       		.uleb128 0xb
 3166 0178 49       		.uleb128 0x49
 3167 0179 13       		.uleb128 0x13
 3168 017a 02       		.uleb128 0x2
 3169 017b 06       		.uleb128 0x6
 3170 017c 00       		.byte	0x0
 3171 017d 00       		.byte	0x0
 3172 017e 1F       		.uleb128 0x1f
 3173 017f 05       		.uleb128 0x5
 3174 0180 00       		.byte	0x0
 3175 0181 03       		.uleb128 0x3
 3176 0182 0E       		.uleb128 0xe
 3177 0183 3A       		.uleb128 0x3a
 3178 0184 0B       		.uleb128 0xb
 3179 0185 3B       		.uleb128 0x3b
 3180 0186 0B       		.uleb128 0xb
 3181 0187 49       		.uleb128 0x49
ARM GAS  C:\Users\DNIEL~1\AppData\Local\Temp\ccYkEs6t.s 			page 57


 3182 0188 13       		.uleb128 0x13
 3183 0189 02       		.uleb128 0x2
 3184 018a 0A       		.uleb128 0xa
 3185 018b 00       		.byte	0x0
 3186 018c 00       		.byte	0x0
 3187 018d 20       		.uleb128 0x20
 3188 018e 34       		.uleb128 0x34
 3189 018f 00       		.byte	0x0
 3190 0190 03       		.uleb128 0x3
 3191 0191 08       		.uleb128 0x8
 3192 0192 3A       		.uleb128 0x3a
 3193 0193 0B       		.uleb128 0xb
 3194 0194 3B       		.uleb128 0x3b
 3195 0195 0B       		.uleb128 0xb
 3196 0196 49       		.uleb128 0x49
 3197 0197 13       		.uleb128 0x13
 3198 0198 02       		.uleb128 0x2
 3199 0199 0A       		.uleb128 0xa
 3200 019a 00       		.byte	0x0
 3201 019b 00       		.byte	0x0
 3202 019c 21       		.uleb128 0x21
 3203 019d 34       		.uleb128 0x34
 3204 019e 00       		.byte	0x0
 3205 019f 03       		.uleb128 0x3
 3206 01a0 0E       		.uleb128 0xe
 3207 01a1 3A       		.uleb128 0x3a
 3208 01a2 0B       		.uleb128 0xb
 3209 01a3 3B       		.uleb128 0x3b
 3210 01a4 05       		.uleb128 0x5
 3211 01a5 49       		.uleb128 0x49
 3212 01a6 13       		.uleb128 0x13
 3213 01a7 3F       		.uleb128 0x3f
 3214 01a8 0C       		.uleb128 0xc
 3215 01a9 3C       		.uleb128 0x3c
 3216 01aa 0C       		.uleb128 0xc
 3217 01ab 00       		.byte	0x0
 3218 01ac 00       		.byte	0x0
 3219 01ad 22       		.uleb128 0x22
 3220 01ae 34       		.uleb128 0x34
 3221 01af 00       		.byte	0x0
 3222 01b0 03       		.uleb128 0x3
 3223 01b1 08       		.uleb128 0x8
 3224 01b2 3A       		.uleb128 0x3a
 3225 01b3 0B       		.uleb128 0xb
 3226 01b4 3B       		.uleb128 0x3b
 3227 01b5 05       		.uleb128 0x5
 3228 01b6 49       		.uleb128 0x49
 3229 01b7 13       		.uleb128 0x13
 3230 01b8 3F       		.uleb128 0x3f
 3231 01b9 0C       		.uleb128 0xc
 3232 01ba 3C       		.uleb128 0x3c
 3233 01bb 0C       		.uleb128 0xc
 3234 01bc 00       		.byte	0x0
 3235 01bd 00       		.byte	0x0
 3236 01be 00       		.byte	0x0
 3237              		.section	.debug_pubnames,"",%progbits
 3238 0000 05010000 		.4byte	0x105
ARM GAS  C:\Users\DNIEL~1\AppData\Local\Temp\ccYkEs6t.s 			page 58


 3239 0004 0200     		.2byte	0x2
 3240 0006 00000000 		.4byte	.Ldebug_info0
 3241 000a 630B0000 		.4byte	0xb63
 3242 000e 74080000 		.4byte	0x874
 3243 0012 6766785F 		.ascii	"gfx_Cls\000"
 3243      436C7300 
 3244 001a 89080000 		.4byte	0x889
 3245 001e 66696C65 		.ascii	"file_Mount\000"
 3245      5F4D6F75 
 3245      6E7400
 3246 0029 9E080000 		.4byte	0x89e
 3247 002d 6D656469 		.ascii	"media_Image\000"
 3247      615F496D 
 3247      61676500 
 3248 0039 D2080000 		.4byte	0x8d2
 3249 003d 6D656469 		.ascii	"media_SetSector\000"
 3249      615F5365 
 3249      74536563 
 3249      746F7200 
 3250 004d 0A090000 		.4byte	0x90a
 3251 0051 6D656469 		.ascii	"media_Video\000"
 3251      615F5669 
 3251      64656F00 
 3252 005d 3E090000 		.4byte	0x93e
 3253 0061 6D656469 		.ascii	"media_VideoFrame\000"
 3253      615F5669 
 3253      64656F46 
 3253      72616D65 
 3253      00
 3254 0072 81090000 		.4byte	0x981
 3255 0076 64726177 		.ascii	"draw_line\000"
 3255      5F6C696E 
 3255      6500
 3256 0080 E1090000 		.4byte	0x9e1
 3257 0084 6766785F 		.ascii	"gfx_BGcolour\000"
 3257      4247636F 
 3257      6C6F7572 
 3257      00
 3258 0091 0A0A0000 		.4byte	0xa0a
 3259 0095 6766785F 		.ascii	"gfx_Contrast\000"
 3259      436F6E74 
 3259      72617374 
 3259      00
 3260 00a2 330A0000 		.4byte	0xa33
 3261 00a6 6766785F 		.ascii	"gfx_Transparency\000"
 3261      5472616E 
 3261      73706172 
 3261      656E6379 
 3261      00
 3262 00b7 5C0A0000 		.4byte	0xa5c
 3263 00bb 6766785F 		.ascii	"gfx_TransparentColour\000"
 3263      5472616E 
 3263      73706172 
 3263      656E7443 
 3263      6F6C6F75 
 3264 00d1 850A0000 		.4byte	0xa85
 3265 00d5 66696C65 		.ascii	"file_LoadImageControl\000"
ARM GAS  C:\Users\DNIEL~1\AppData\Local\Temp\ccYkEs6t.s 			page 59


 3265      5F4C6F61 
 3265      64496D61 
 3265      6765436F 
 3265      6E74726F 
 3266 00eb CC0A0000 		.4byte	0xacc
 3267 00ef 70757473 		.ascii	"putstr\000"
 3267      747200
 3268 00f6 F50A0000 		.4byte	0xaf5
 3269 00fa 57726974 		.ascii	"WriteChars\000"
 3269      65436861 
 3269      727300
 3270 0105 00000000 		.4byte	0x0
 3271              		.section	.debug_pubtypes,"",%progbits
 3272 0000 1A020000 		.4byte	0x21a
 3273 0004 0200     		.2byte	0x2
 3274 0006 00000000 		.4byte	.Ldebug_info0
 3275 000a 630B0000 		.4byte	0xb63
 3276 000e 30000000 		.4byte	0x30
 3277 0012 73697A65 		.ascii	"size_t\000"
 3277      5F7400
 3278 0019 49000000 		.4byte	0x49
 3279 001d 75696E74 		.ascii	"uint8_t\000"
 3279      385F7400 
 3280 0025 62000000 		.4byte	0x62
 3281 0029 75696E74 		.ascii	"uint16_t\000"
 3281      31365F74 
 3281      00
 3282 0032 74000000 		.4byte	0x74
 3283 0036 696E7433 		.ascii	"int32_t\000"
 3283      325F7400 
 3284 003e 86000000 		.4byte	0x86
 3285 0042 75696E74 		.ascii	"uint32_t\000"
 3285      33325F74 
 3285      00
 3286 004b AD000000 		.4byte	0xad
 3287 004f 746D6F64 		.ascii	"tmode_t\000"
 3287      655F7400 
 3288 0057 B8000000 		.4byte	0xb8
 3289 005b 74737461 		.ascii	"tstate_t\000"
 3289      74655F74 
 3289      00
 3290 0064 C3000000 		.4byte	0xc3
 3291 0068 74726566 		.ascii	"trefs_t\000"
 3291      735F7400 
 3292 0070 CE000000 		.4byte	0xce
 3293 0074 74736C69 		.ascii	"tslices_t\000"
 3293      6365735F 
 3293      7400
 3294 007e D9000000 		.4byte	0xd9
 3295 0082 74707269 		.ascii	"tprio_t\000"
 3295      6F5F7400 
 3296 008a E4000000 		.4byte	0xe4
 3297 008e 6D73675F 		.ascii	"msg_t\000"
 3297      7400
 3298 0094 EF000000 		.4byte	0xef
 3299 0098 6576656E 		.ascii	"eventmask_t\000"
 3299      746D6173 
ARM GAS  C:\Users\DNIEL~1\AppData\Local\Temp\ccYkEs6t.s 			page 60


 3299      6B5F7400 
 3300 00a4 FA000000 		.4byte	0xfa
 3301 00a8 666C6167 		.ascii	"flagsmask_t\000"
 3301      736D6173 
 3301      6B5F7400 
 3302 00b4 05010000 		.4byte	0x105
 3303 00b8 73797374 		.ascii	"systime_t\000"
 3303      696D655F 
 3303      7400
 3304 00c2 10010000 		.4byte	0x110
 3305 00c6 54687265 		.ascii	"Thread\000"
 3305      616400
 3306 00cd 6B020000 		.4byte	0x26b
 3307 00d1 54687265 		.ascii	"ThreadsQueue\000"
 3307      61647351 
 3307      75657565 
 3307      00
 3308 00de 8D020000 		.4byte	0x28d
 3309 00e2 54687265 		.ascii	"ThreadsList\000"
 3309      6164734C 
 3309      69737400 
 3310 00ee 98020000 		.4byte	0x298
 3311 00f2 72656761 		.ascii	"regarm_t\000"
 3311      726D5F74 
 3311      00
 3312 00fb A5020000 		.4byte	0x2a5
 3313 00ff 696E7463 		.ascii	"intctx\000"
 3313      747800
 3314 0106 33030000 		.4byte	0x333
 3315 010a 636F6E74 		.ascii	"context\000"
 3315      65787400 
 3316 0112 5B030000 		.4byte	0x35b
 3317 0116 4D757465 		.ascii	"Mutex\000"
 3317      7800
 3318 011c 98030000 		.4byte	0x398
 3319 0120 4D757465 		.ascii	"Mutex\000"
 3319      7800
 3320 0126 A3030000 		.4byte	0x3a3
 3321 012a 4576656E 		.ascii	"EventListener\000"
 3321      744C6973 
 3321      74656E65 
 3321      7200
 3322 0138 AE030000 		.4byte	0x3ae
 3323 013c 4576656E 		.ascii	"EventListener\000"
 3323      744C6973 
 3323      74656E65 
 3323      7200
 3324 014a F9030000 		.4byte	0x3f9
 3325 014e 4576656E 		.ascii	"EventSource\000"
 3325      74536F75 
 3325      72636500 
 3326 015a 14040000 		.4byte	0x414
 3327 015e 4576656E 		.ascii	"EventSource\000"
 3327      74536F75 
 3327      72636500 
 3328 016a 1B010000 		.4byte	0x11b
 3329 016e 54687265 		.ascii	"Thread\000"
ARM GAS  C:\Users\DNIEL~1\AppData\Local\Temp\ccYkEs6t.s 			page 61


 3329      616400
 3330 0175 82040000 		.4byte	0x482
 3331 0179 47656E65 		.ascii	"GenericQueue\000"
 3331      72696351 
 3331      75657565 
 3331      00
 3332 0186 0A050000 		.4byte	0x50a
 3333 018a 716E6F74 		.ascii	"qnotify_t\000"
 3333      6966795F 
 3333      7400
 3334 0194 8D040000 		.4byte	0x48d
 3335 0198 47656E65 		.ascii	"GenericQueue\000"
 3335      72696351 
 3335      75657565 
 3335      00
 3336 01a5 33050000 		.4byte	0x533
 3337 01a9 496E7075 		.ascii	"InputQueue\000"
 3337      74517565 
 3337      756500
 3338 01b4 3E050000 		.4byte	0x53e
 3339 01b8 4F757470 		.ascii	"OutputQueue\000"
 3339      75745175 
 3339      65756500 
 3340 01c4 93060000 		.4byte	0x693
 3341 01c8 55534152 		.ascii	"USART_TypeDef\000"
 3341      545F5479 
 3341      70654465 
 3341      6600
 3342 01d6 3F070000 		.4byte	0x73f
 3343 01da 73647374 		.ascii	"sdstate_t\000"
 3343      6174655F 
 3343      7400
 3344 01e4 4A070000 		.4byte	0x74a
 3345 01e8 53657269 		.ascii	"SerialDriver\000"
 3345      616C4472 
 3345      69766572 
 3345      00
 3346 01f5 D0070000 		.4byte	0x7d0
 3347 01f9 53657269 		.ascii	"SerialDriverVMT\000"
 3347      616C4472 
 3347      69766572 
 3347      564D5400 
 3348 0209 55070000 		.4byte	0x755
 3349 020d 53657269 		.ascii	"SerialDriver\000"
 3349      616C4472 
 3349      69766572 
 3349      00
 3350 021a 00000000 		.4byte	0x0
 3351              		.section	.debug_aranges,"",%progbits
 3352 0000 84000000 		.4byte	0x84
 3353 0004 0200     		.2byte	0x2
 3354 0006 00000000 		.4byte	.Ldebug_info0
 3355 000a 04       		.byte	0x4
 3356 000b 00       		.byte	0x0
 3357 000c 0000     		.2byte	0x0
 3358 000e 0000     		.2byte	0x0
 3359 0010 00000000 		.4byte	.LFB119
ARM GAS  C:\Users\DNIEL~1\AppData\Local\Temp\ccYkEs6t.s 			page 62


 3360 0014 24000000 		.4byte	.LFE119-.LFB119
 3361 0018 00000000 		.4byte	.LFB120
 3362 001c 24000000 		.4byte	.LFE120-.LFB120
 3363 0020 00000000 		.4byte	.LFB121
 3364 0024 5C000000 		.4byte	.LFE121-.LFB121
 3365 0028 00000000 		.4byte	.LFB122
 3366 002c 5C000000 		.4byte	.LFE122-.LFB122
 3367 0030 00000000 		.4byte	.LFB123
 3368 0034 5C000000 		.4byte	.LFE123-.LFB123
 3369 0038 00000000 		.4byte	.LFB124
 3370 003c 7C000000 		.4byte	.LFE124-.LFB124
 3371 0040 00000000 		.4byte	.LFB125
 3372 0044 B8000000 		.4byte	.LFE125-.LFB125
 3373 0048 00000000 		.4byte	.LFB126
 3374 004c 40000000 		.4byte	.LFE126-.LFB126
 3375 0050 00000000 		.4byte	.LFB127
 3376 0054 40000000 		.4byte	.LFE127-.LFB127
 3377 0058 00000000 		.4byte	.LFB128
 3378 005c 40000000 		.4byte	.LFE128-.LFB128
 3379 0060 00000000 		.4byte	.LFB129
 3380 0064 40000000 		.4byte	.LFE129-.LFB129
 3381 0068 00000000 		.4byte	.LFB130
 3382 006c 60000000 		.4byte	.LFE130-.LFB130
 3383 0070 00000000 		.4byte	.LFB131
 3384 0074 34000000 		.4byte	.LFE131-.LFB131
 3385 0078 00000000 		.4byte	.LFB132
 3386 007c 20000000 		.4byte	.LFE132-.LFB132
 3387 0080 00000000 		.4byte	0x0
 3388 0084 00000000 		.4byte	0x0
 3389              		.section	.debug_ranges,"",%progbits
 3390              	.Ldebug_ranges0:
 3391 0000 00000000 		.4byte	.LFB119
 3392 0004 24000000 		.4byte	.LFE119
 3393 0008 00000000 		.4byte	.LFB120
 3394 000c 24000000 		.4byte	.LFE120
 3395 0010 00000000 		.4byte	.LFB121
 3396 0014 5C000000 		.4byte	.LFE121
 3397 0018 00000000 		.4byte	.LFB122
 3398 001c 5C000000 		.4byte	.LFE122
 3399 0020 00000000 		.4byte	.LFB123
 3400 0024 5C000000 		.4byte	.LFE123
 3401 0028 00000000 		.4byte	.LFB124
 3402 002c 7C000000 		.4byte	.LFE124
 3403 0030 00000000 		.4byte	.LFB125
 3404 0034 B8000000 		.4byte	.LFE125
 3405 0038 00000000 		.4byte	.LFB126
 3406 003c 40000000 		.4byte	.LFE126
 3407 0040 00000000 		.4byte	.LFB127
 3408 0044 40000000 		.4byte	.LFE127
 3409 0048 00000000 		.4byte	.LFB128
 3410 004c 40000000 		.4byte	.LFE128
 3411 0050 00000000 		.4byte	.LFB129
 3412 0054 40000000 		.4byte	.LFE129
 3413 0058 00000000 		.4byte	.LFB130
 3414 005c 60000000 		.4byte	.LFE130
 3415 0060 00000000 		.4byte	.LFB131
 3416 0064 34000000 		.4byte	.LFE131
ARM GAS  C:\Users\DNIEL~1\AppData\Local\Temp\ccYkEs6t.s 			page 63


 3417 0068 00000000 		.4byte	.LFB132
 3418 006c 20000000 		.4byte	.LFE132
 3419 0070 00000000 		.4byte	0x0
 3420 0074 00000000 		.4byte	0x0
 3421              		.section	.debug_str,"MS",%progbits,1
 3422              	.LASF121:
 3423 0000 4461746E 		.ascii	"Datname\000"
 3423      616D6500 
 3424              	.LASF2:
 3425 0008 73697A65 		.ascii	"size_t\000"
 3425      5F7400
 3426              	.LASF60:
 3427 000f 7264796D 		.ascii	"rdymsg\000"
 3427      736700
 3428              	.LASF76:
 3429 0016 4F757470 		.ascii	"OutputQueue\000"
 3429      75745175 
 3429      65756500 
 3430              	.LASF103:
 3431 0022 6766785F 		.ascii	"gfx_Cls\000"
 3431      436C7300 
 3432              	.LASF59:
 3433 002a 65735F6E 		.ascii	"es_next\000"
 3433      65787400 
 3434              	.LASF44:
 3435 0032 54687265 		.ascii	"ThreadsQueue\000"
 3435      61647351 
 3435      75657565 
 3435      00
 3436              	.LASF61:
 3437 003f 65786974 		.ascii	"exitcode\000"
 3437      636F6465 
 3437      00
 3438              	.LASF119:
 3439 0048 6766785F 		.ascii	"gfx_TransparentColour\000"
 3439      5472616E 
 3439      73706172 
 3439      656E7443 
 3439      6F6C6F75 
 3440              	.LASF27:
 3441 005e 705F7072 		.ascii	"p_prio\000"
 3441      696F00
 3442              	.LASF102:
 3443 0065 72656164 		.ascii	"readt\000"
 3443      7400
 3444              	.LASF66:
 3445 006b 715F7761 		.ascii	"q_waiting\000"
 3445      6974696E 
 3445      6700
 3446              	.LASF12:
 3447 0075 6C6F6E67 		.ascii	"long long int\000"
 3447      206C6F6E 
 3447      6720696E 
 3447      7400
 3448              	.LASF1:
 3449 0083 7369676E 		.ascii	"signed char\000"
 3449      65642063 
ARM GAS  C:\Users\DNIEL~1\AppData\Local\Temp\ccYkEs6t.s 			page 64


 3449      68617200 
 3450              	.LASF83:
 3451 008f 47545052 		.ascii	"GTPR\000"
 3451      00
 3452              	.LASF43:
 3453 0094 705F6D70 		.ascii	"p_mpool\000"
 3453      6F6F6C00 
 3454              	.LASF13:
 3455 009c 6C6F6E67 		.ascii	"long long unsigned int\000"
 3455      206C6F6E 
 3455      6720756E 
 3455      7369676E 
 3455      65642069 
 3456              	.LASF50:
 3457 00b3 6D5F7175 		.ascii	"m_queue\000"
 3457      65756500 
 3458              	.LASF125:
 3459 00bb 496E5374 		.ascii	"InString\000"
 3459      72696E67 
 3459      00
 3460              	.LASF62:
 3461 00c4 77746F62 		.ascii	"wtobjp\000"
 3461      6A7000
 3462              	.LASF18:
 3463 00cb 74736C69 		.ascii	"tslices_t\000"
 3463      6365735F 
 3463      7400
 3464              	.LASF92:
 3465 00d5 73746174 		.ascii	"state\000"
 3465      6500
 3466              	.LASF9:
 3467 00db 6C6F6E67 		.ascii	"long int\000"
 3467      20696E74 
 3467      00
 3468              	.LASF16:
 3469 00e4 74737461 		.ascii	"tstate_t\000"
 3469      74655F74 
 3469      00
 3470              	.LASF68:
 3471 00ed 715F6275 		.ascii	"q_buffer\000"
 3471      66666572 
 3471      00
 3472              	.LASF6:
 3473 00f6 75696E74 		.ascii	"uint16_t\000"
 3473      31365F74 
 3473      00
 3474              	.LASF29:
 3475 00ff 705F6E65 		.ascii	"p_newer\000"
 3475      77657200 
 3476              	.LASF104:
 3477 0107 66696C65 		.ascii	"file_Mount\000"
 3477      5F4D6F75 
 3477      6E7400
 3478              	.LASF123:
 3479 0112 4D6F6465 		.ascii	"Mode\000"
 3479      00
 3480              	.LASF114:
ARM GAS  C:\Users\DNIEL~1\AppData\Local\Temp\ccYkEs6t.s 			page 65


 3481 0117 6766785F 		.ascii	"gfx_BGcolour\000"
 3481      4247636F 
 3481      6C6F7572 
 3481      00
 3482              	.LASF58:
 3483 0124 4576656E 		.ascii	"EventSource\000"
 3483      74536F75 
 3483      72636500 
 3484              	.LASF95:
 3485 0130 75736172 		.ascii	"usart\000"
 3485      7400
 3486              	.LASF0:
 3487 0136 756E7369 		.ascii	"unsigned int\000"
 3487      676E6564 
 3487      20696E74 
 3487      00
 3488              	.LASF118:
 3489 0143 4F6E4F66 		.ascii	"OnOff\000"
 3489      6600
 3490              	.LASF110:
 3491 0149 6D656469 		.ascii	"media_VideoFrame\000"
 3491      615F5669 
 3491      64656F46 
 3491      72616D65 
 3491      00
 3492              	.LASF116:
 3493 015a 436F6E74 		.ascii	"Contrast\000"
 3493      72617374 
 3493      00
 3494              	.LASF93:
 3495 0163 69717565 		.ascii	"iqueue\000"
 3495      756500
 3496              	.LASF38:
 3497 016a 705F6D73 		.ascii	"p_msgqueue\000"
 3497      67717565 
 3497      756500
 3498              	.LASF100:
 3499 0175 67657474 		.ascii	"gett\000"
 3499      00
 3500              	.LASF107:
 3501 017a 4869576F 		.ascii	"HiWord\000"
 3501      726400
 3502              	.LASF122:
 3503 0181 4743494E 		.ascii	"GCIName\000"
 3503      616D6500 
 3504              	.LASF91:
 3505 0189 6576656E 		.ascii	"event\000"
 3505      7400
 3506              	.LASF48:
 3507 018f 636F6E74 		.ascii	"context\000"
 3507      65787400 
 3508              	.LASF7:
 3509 0197 73686F72 		.ascii	"short unsigned int\000"
 3509      7420756E 
 3509      7369676E 
 3509      65642069 
 3509      6E7400
ARM GAS  C:\Users\DNIEL~1\AppData\Local\Temp\ccYkEs6t.s 			page 66


 3510              	.LASF20:
 3511 01aa 6D73675F 		.ascii	"msg_t\000"
 3511      7400
 3512              	.LASF94:
 3513 01b0 6F717565 		.ascii	"oqueue\000"
 3513      756500
 3514              	.LASF54:
 3515 01b7 656C5F6E 		.ascii	"el_next\000"
 3515      65787400 
 3516              	.LASF85:
 3517 01bf 55534152 		.ascii	"USART_TypeDef\000"
 3517      545F5479 
 3517      70654465 
 3517      6600
 3518              	.LASF101:
 3519 01cd 77726974 		.ascii	"writet\000"
 3519      657400
 3520              	.LASF15:
 3521 01d4 746D6F64 		.ascii	"tmode_t\000"
 3521      655F7400 
 3522              	.LASF45:
 3523 01dc 54687265 		.ascii	"ThreadsList\000"
 3523      6164734C 
 3523      69737400 
 3524              	.LASF21:
 3525 01e8 6576656E 		.ascii	"eventmask_t\000"
 3525      746D6173 
 3525      6B5F7400 
 3526              	.LASF75:
 3527 01f4 496E7075 		.ascii	"InputQueue\000"
 3527      74517565 
 3527      756500
 3528              	.LASF49:
 3529 01ff 4D757465 		.ascii	"Mutex\000"
 3529      7800
 3530              	.LASF65:
 3531 0205 47656E65 		.ascii	"GenericQueue\000"
 3531      72696351 
 3531      75657565 
 3531      00
 3532              	.LASF109:
 3533 0212 6D656469 		.ascii	"media_Video\000"
 3533      615F5669 
 3533      64656F00 
 3534              	.LASF97:
 3535 021e 77726974 		.ascii	"write\000"
 3535      6500
 3536              	.LASF99:
 3537 0224 70757474 		.ascii	"putt\000"
 3537      00
 3538              	.LASF115:
 3539 0229 6766785F 		.ascii	"gfx_Contrast\000"
 3539      436F6E74 
 3539      72617374 
 3539      00
 3540              	.LASF26:
 3541 0236 705F7072 		.ascii	"p_prev\000"
ARM GAS  C:\Users\DNIEL~1\AppData\Local\Temp\ccYkEs6t.s 			page 67


 3541      657600
 3542              	.LASF67:
 3543 023d 715F636F 		.ascii	"q_counter\000"
 3543      756E7465 
 3543      7200
 3544              	.LASF112:
 3545 0247 64726177 		.ascii	"draw_line\000"
 3545      5F6C696E 
 3545      6500
 3546              	.LASF127:
 3547 0251 63686172 		.ascii	"charsout\000"
 3547      736F7574 
 3547      00
 3548              	.LASF30:
 3549 025a 705F6F6C 		.ascii	"p_older\000"
 3549      64657200 
 3550              	.LASF111:
 3551 0262 4672616D 		.ascii	"Framenumber\000"
 3551      656E756D 
 3551      62657200 
 3552              	.LASF70:
 3553 026e 715F7772 		.ascii	"q_wrptr\000"
 3553      70747200 
 3554              	.LASF106:
 3555 0276 6D656469 		.ascii	"media_SetSector\000"
 3555      615F5365 
 3555      74536563 
 3555      746F7200 
 3556              	.LASF56:
 3557 0286 656C5F6D 		.ascii	"el_mask\000"
 3557      61736B00 
 3558              	.LASF17:
 3559 028e 74726566 		.ascii	"trefs_t\000"
 3559      735F7400 
 3560              	.LASF77:
 3561 0296 52455345 		.ascii	"RESERVED0\000"
 3561      52564544 
 3561      3000
 3562              	.LASF78:
 3563 02a0 52455345 		.ascii	"RESERVED1\000"
 3563      52564544 
 3563      3100
 3564              	.LASF79:
 3565 02aa 52455345 		.ascii	"RESERVED2\000"
 3565      52564544 
 3565      3200
 3566              	.LASF74:
 3567 02b4 716E6F74 		.ascii	"qnotify_t\000"
 3567      6966795F 
 3567      7400
 3568              	.LASF81:
 3569 02be 52455345 		.ascii	"RESERVED4\000"
 3569      52564544 
 3569      3400
 3570              	.LASF87:
 3571 02c8 53445F53 		.ascii	"SD_STOP\000"
 3571      544F5000 
ARM GAS  C:\Users\DNIEL~1\AppData\Local\Temp\ccYkEs6t.s 			page 68


 3572              	.LASF84:
 3573 02d0 52455345 		.ascii	"RESERVED6\000"
 3573      52564544 
 3573      3600
 3574              	.LASF19:
 3575 02da 74707269 		.ascii	"tprio_t\000"
 3575      6F5F7400 
 3576              	.LASF71:
 3577 02e2 715F7264 		.ascii	"q_rdptr\000"
 3577      70747200 
 3578              	.LASF105:
 3579 02ea 6D656469 		.ascii	"media_Image\000"
 3579      615F496D 
 3579      61676500 
 3580              	.LASF14:
 3581 02f6 5F426F6F 		.ascii	"_Bool\000"
 3581      6C00
 3582              	.LASF8:
 3583 02fc 696E7433 		.ascii	"int32_t\000"
 3583      325F7400 
 3584              	.LASF4:
 3585 0304 756E7369 		.ascii	"unsigned char\000"
 3585      676E6564 
 3585      20636861 
 3585      7200
 3586              	.LASF131:
 3587 0312 433A5C44 		.ascii	"C:\\Dani\\MegaLux\\Repo\\Smarty\\Smarty\\smarty\\fi"
 3587      616E695C 
 3587      4D656761 
 3587      4C75785C 
 3587      5265706F 
 3588 033e 726D7761 		.ascii	"rmware\000"
 3588      726500
 3589              	.LASF55:
 3590 0345 656C5F6C 		.ascii	"el_listener\000"
 3590      69737465 
 3590      6E657200 
 3591              	.LASF128:
 3592 0351 49544D5F 		.ascii	"ITM_RxBuffer\000"
 3592      52784275 
 3592      66666572 
 3592      00
 3593              	.LASF57:
 3594 035e 656C5F66 		.ascii	"el_flags\000"
 3594      6C616773 
 3594      00
 3595              	.LASF41:
 3596 0367 705F6D74 		.ascii	"p_mtxlist\000"
 3596      786C6973 
 3596      7400
 3597              	.LASF5:
 3598 0371 73686F72 		.ascii	"short int\000"
 3598      7420696E 
 3598      7400
 3599              	.LASF32:
 3600 037b 705F7374 		.ascii	"p_state\000"
 3600      61746500 
ARM GAS  C:\Users\DNIEL~1\AppData\Local\Temp\ccYkEs6t.s 			page 69


 3601              	.LASF35:
 3602 0383 705F7072 		.ascii	"p_preempt\000"
 3602      65656D70 
 3602      7400
 3603              	.LASF63:
 3604 038d 65776D61 		.ascii	"ewmask\000"
 3604      736B00
 3605              	.LASF25:
 3606 0394 705F6E65 		.ascii	"p_next\000"
 3606      787400
 3607              	.LASF33:
 3608 039b 705F666C 		.ascii	"p_flags\000"
 3608      61677300 
 3609              	.LASF24:
 3610 03a3 54687265 		.ascii	"Thread\000"
 3610      616400
 3611              	.LASF113:
 3612 03aa 436F6C6F 		.ascii	"Color\000"
 3612      7200
 3613              	.LASF40:
 3614 03b0 705F6570 		.ascii	"p_epending\000"
 3614      656E6469 
 3614      6E6700
 3615              	.LASF86:
 3616 03bb 53445F55 		.ascii	"SD_UNINIT\000"
 3616      4E494E49 
 3616      5400
 3617              	.LASF120:
 3618 03c5 66696C65 		.ascii	"file_LoadImageControl\000"
 3618      5F4C6F61 
 3618      64496D61 
 3618      6765436F 
 3618      6E74726F 
 3619              	.LASF82:
 3620 03db 52455345 		.ascii	"RESERVED5\000"
 3620      52564544 
 3620      3500
 3621              	.LASF10:
 3622 03e5 75696E74 		.ascii	"uint32_t\000"
 3622      33325F74 
 3622      00
 3623              	.LASF46:
 3624 03ee 72656761 		.ascii	"regarm_t\000"
 3624      726D5F74 
 3624      00
 3625              	.LASF126:
 3626 03f7 57726974 		.ascii	"WriteChars\000"
 3626      65436861 
 3626      727300
 3627              	.LASF90:
 3628 0402 53657269 		.ascii	"SerialDriver\000"
 3628      616C4472 
 3628      69766572 
 3628      00
 3629              	.LASF11:
 3630 040f 6C6F6E67 		.ascii	"long unsigned int\000"
 3630      20756E73 
ARM GAS  C:\Users\DNIEL~1\AppData\Local\Temp\ccYkEs6t.s 			page 70


 3630      69676E65 
 3630      6420696E 
 3630      7400
 3631              	.LASF64:
 3632 0421 63686172 		.ascii	"char\000"
 3632      00
 3633              	.LASF52:
 3634 0426 6D5F6E65 		.ascii	"m_next\000"
 3634      787400
 3635              	.LASF23:
 3636 042d 73797374 		.ascii	"systime_t\000"
 3636      696D655F 
 3636      7400
 3637              	.LASF42:
 3638 0437 705F7265 		.ascii	"p_realprio\000"
 3638      616C7072 
 3638      696F00
 3639              	.LASF124:
 3640 0442 70757473 		.ascii	"putstr\000"
 3640      747200
 3641              	.LASF36:
 3642 0449 705F7469 		.ascii	"p_time\000"
 3642      6D6500
 3643              	.LASF80:
 3644 0450 52455345 		.ascii	"RESERVED3\000"
 3644      52564544 
 3644      3300
 3645              	.LASF47:
 3646 045a 696E7463 		.ascii	"intctx\000"
 3646      747800
 3647              	.LASF88:
 3648 0461 53445F52 		.ascii	"SD_READY\000"
 3648      45414459 
 3648      00
 3649              	.LASF22:
 3650 046a 666C6167 		.ascii	"flagsmask_t\000"
 3650      736D6173 
 3650      6B5F7400 
 3651              	.LASF89:
 3652 0476 73647374 		.ascii	"sdstate_t\000"
 3652      6174655F 
 3652      7400
 3653              	.LASF69:
 3654 0480 715F746F 		.ascii	"q_top\000"
 3654      7000
 3655              	.LASF31:
 3656 0486 705F6E61 		.ascii	"p_name\000"
 3656      6D6500
 3657              	.LASF34:
 3658 048d 705F7265 		.ascii	"p_refs\000"
 3658      667300
 3659              	.LASF72:
 3660 0494 715F6E6F 		.ascii	"q_notify\000"
 3660      74696679 
 3660      00
 3661              	.LASF3:
 3662 049d 75696E74 		.ascii	"uint8_t\000"
ARM GAS  C:\Users\DNIEL~1\AppData\Local\Temp\ccYkEs6t.s 			page 71


 3662      385F7400 
 3663              	.LASF130:
 3664 04a5 7372632F 		.ascii	"src/gfx.c\000"
 3664      6766782E 
 3664      6300
 3665              	.LASF53:
 3666 04af 4576656E 		.ascii	"EventListener\000"
 3666      744C6973 
 3666      74656E65 
 3666      7200
 3667              	.LASF98:
 3668 04bd 72656164 		.ascii	"read\000"
 3668      00
 3669              	.LASF129:
 3670 04c2 474E5520 		.ascii	"GNU C 4.5.2\000"
 3670      4320342E 
 3670      352E3200 
 3671              	.LASF108:
 3672 04ce 4C6F576F 		.ascii	"LoWord\000"
 3672      726400
 3673              	.LASF96:
 3674 04d5 53657269 		.ascii	"SerialDriverVMT\000"
 3674      616C4472 
 3674      69766572 
 3674      564D5400 
 3675              	.LASF39:
 3676 04e5 705F6D73 		.ascii	"p_msg\000"
 3676      6700
 3677              	.LASF73:
 3678 04eb 715F6C69 		.ascii	"q_link\000"
 3678      6E6B00
 3679              	.LASF51:
 3680 04f2 6D5F6F77 		.ascii	"m_owner\000"
 3680      6E657200 
 3681              	.LASF28:
 3682 04fa 705F6374 		.ascii	"p_ctx\000"
 3682      7800
 3683              	.LASF37:
 3684 0500 705F7761 		.ascii	"p_waiting\000"
 3684      6974696E 
 3684      6700
 3685              	.LASF117:
 3686 050a 6766785F 		.ascii	"gfx_Transparency\000"
 3686      5472616E 
 3686      73706172 
 3686      656E6379 
 3686      00
 3687              		.ident	"GCC: (Sourcery G++ Lite 2011.03-42) 4.5.2"
ARM GAS  C:\Users\DNIEL~1\AppData\Local\Temp\ccYkEs6t.s 			page 72


DEFINED SYMBOLS
                            *ABS*:00000000 gfx.c
C:\Users\DNIEL~1\AppData\Local\Temp\ccYkEs6t.s:24     .text.gfx_Cls:00000000 $t
C:\Users\DNIEL~1\AppData\Local\Temp\ccYkEs6t.s:30     .text.gfx_Cls:00000000 gfx_Cls
C:\Users\DNIEL~1\AppData\Local\Temp\ccYkEs6t.s:59     .text.gfx_Cls:00000020 $d
C:\Users\DNIEL~1\AppData\Local\Temp\ccYkEs6t.s:64     .text.file_Mount:00000000 $t
C:\Users\DNIEL~1\AppData\Local\Temp\ccYkEs6t.s:70     .text.file_Mount:00000000 file_Mount
C:\Users\DNIEL~1\AppData\Local\Temp\ccYkEs6t.s:98     .text.file_Mount:00000020 $d
C:\Users\DNIEL~1\AppData\Local\Temp\ccYkEs6t.s:103    .text.media_Image:00000000 $t
C:\Users\DNIEL~1\AppData\Local\Temp\ccYkEs6t.s:109    .text.media_Image:00000000 media_Image
C:\Users\DNIEL~1\AppData\Local\Temp\ccYkEs6t.s:166    .text.media_Image:00000058 $d
C:\Users\DNIEL~1\AppData\Local\Temp\ccYkEs6t.s:171    .text.media_SetSector:00000000 $t
C:\Users\DNIEL~1\AppData\Local\Temp\ccYkEs6t.s:177    .text.media_SetSector:00000000 media_SetSector
C:\Users\DNIEL~1\AppData\Local\Temp\ccYkEs6t.s:234    .text.media_SetSector:00000058 $d
C:\Users\DNIEL~1\AppData\Local\Temp\ccYkEs6t.s:239    .text.media_Video:00000000 $t
C:\Users\DNIEL~1\AppData\Local\Temp\ccYkEs6t.s:245    .text.media_Video:00000000 media_Video
C:\Users\DNIEL~1\AppData\Local\Temp\ccYkEs6t.s:302    .text.media_Video:00000058 $d
C:\Users\DNIEL~1\AppData\Local\Temp\ccYkEs6t.s:307    .text.media_VideoFrame:00000000 $t
C:\Users\DNIEL~1\AppData\Local\Temp\ccYkEs6t.s:313    .text.media_VideoFrame:00000000 media_VideoFrame
C:\Users\DNIEL~1\AppData\Local\Temp\ccYkEs6t.s:384    .text.media_VideoFrame:00000078 $d
C:\Users\DNIEL~1\AppData\Local\Temp\ccYkEs6t.s:389    .text.draw_line:00000000 $t
C:\Users\DNIEL~1\AppData\Local\Temp\ccYkEs6t.s:395    .text.draw_line:00000000 draw_line
C:\Users\DNIEL~1\AppData\Local\Temp\ccYkEs6t.s:493    .text.draw_line:000000b4 $d
C:\Users\DNIEL~1\AppData\Local\Temp\ccYkEs6t.s:498    .text.gfx_BGcolour:00000000 $t
C:\Users\DNIEL~1\AppData\Local\Temp\ccYkEs6t.s:504    .text.gfx_BGcolour:00000000 gfx_BGcolour
C:\Users\DNIEL~1\AppData\Local\Temp\ccYkEs6t.s:549    .text.gfx_BGcolour:0000003c $d
C:\Users\DNIEL~1\AppData\Local\Temp\ccYkEs6t.s:554    .text.gfx_Contrast:00000000 $t
C:\Users\DNIEL~1\AppData\Local\Temp\ccYkEs6t.s:560    .text.gfx_Contrast:00000000 gfx_Contrast
C:\Users\DNIEL~1\AppData\Local\Temp\ccYkEs6t.s:605    .text.gfx_Contrast:0000003c $d
C:\Users\DNIEL~1\AppData\Local\Temp\ccYkEs6t.s:610    .text.gfx_Transparency:00000000 $t
C:\Users\DNIEL~1\AppData\Local\Temp\ccYkEs6t.s:616    .text.gfx_Transparency:00000000 gfx_Transparency
C:\Users\DNIEL~1\AppData\Local\Temp\ccYkEs6t.s:661    .text.gfx_Transparency:0000003c $d
C:\Users\DNIEL~1\AppData\Local\Temp\ccYkEs6t.s:666    .text.gfx_TransparentColour:00000000 $t
C:\Users\DNIEL~1\AppData\Local\Temp\ccYkEs6t.s:672    .text.gfx_TransparentColour:00000000 gfx_TransparentColour
C:\Users\DNIEL~1\AppData\Local\Temp\ccYkEs6t.s:717    .text.gfx_TransparentColour:0000003c $d
C:\Users\DNIEL~1\AppData\Local\Temp\ccYkEs6t.s:722    .text.file_LoadImageControl:00000000 $t
C:\Users\DNIEL~1\AppData\Local\Temp\ccYkEs6t.s:728    .text.file_LoadImageControl:00000000 file_LoadImageControl
C:\Users\DNIEL~1\AppData\Local\Temp\ccYkEs6t.s:789    .text.file_LoadImageControl:0000005c $d
C:\Users\DNIEL~1\AppData\Local\Temp\ccYkEs6t.s:794    .text.putstr:00000000 $t
C:\Users\DNIEL~1\AppData\Local\Temp\ccYkEs6t.s:800    .text.putstr:00000000 putstr
C:\Users\DNIEL~1\AppData\Local\Temp\ccYkEs6t.s:840    .text.putstr:00000030 $d
C:\Users\DNIEL~1\AppData\Local\Temp\ccYkEs6t.s:845    .text.WriteChars:00000000 $t
C:\Users\DNIEL~1\AppData\Local\Temp\ccYkEs6t.s:851    .text.WriteChars:00000000 WriteChars
C:\Users\DNIEL~1\AppData\Local\Temp\ccYkEs6t.s:884    .text.WriteChars:0000001c $d
                     .debug_frame:00000010 $d
C:\Users\DNIEL~1\AppData\Local\Temp\ccYkEs6t.s:63     .text.gfx_Cls:00000024 $t
C:\Users\DNIEL~1\AppData\Local\Temp\ccYkEs6t.s:102    .text.file_Mount:00000024 $t
C:\Users\DNIEL~1\AppData\Local\Temp\ccYkEs6t.s:170    .text.media_Image:0000005c $t
C:\Users\DNIEL~1\AppData\Local\Temp\ccYkEs6t.s:238    .text.media_SetSector:0000005c $t
C:\Users\DNIEL~1\AppData\Local\Temp\ccYkEs6t.s:306    .text.media_Video:0000005c $t
C:\Users\DNIEL~1\AppData\Local\Temp\ccYkEs6t.s:388    .text.media_VideoFrame:0000007c $t
C:\Users\DNIEL~1\AppData\Local\Temp\ccYkEs6t.s:497    .text.draw_line:000000b8 $t
C:\Users\DNIEL~1\AppData\Local\Temp\ccYkEs6t.s:844    .text.putstr:00000034 $t

UNDEFINED SYMBOLS
chOQPutTimeout
SD2
ARM GAS  C:\Users\DNIEL~1\AppData\Local\Temp\ccYkEs6t.s 			page 73


