ARM GAS  C:\Users\DNIEL~1\AppData\Local\Temp\ccyPGU43.s 			page 1


   1              		.syntax unified
   2              		.cpu cortex-m4
   3              		.fpu softvfp
   4              		.eabi_attribute 20, 1
   5              		.eabi_attribute 21, 1
   6              		.eabi_attribute 23, 3
   7              		.eabi_attribute 24, 1
   8              		.eabi_attribute 25, 1
   9              		.eabi_attribute 26, 1
  10              		.eabi_attribute 30, 2
  11              		.eabi_attribute 34, 1
  12              		.eabi_attribute 18, 4
  13              		.thumb
  14              		.file	"hal.c"
  15              		.text
  16              	.Ltext0:
  17              		.cfi_sections	.debug_frame
  18              		.section	.text.halInit,"ax",%progbits
  19              		.align	2
  20              		.p2align 4,,15
  21              		.global	halInit
  22              		.thumb
  23              		.thumb_func
  24              		.type	halInit, %function
  25              	halInit:
  26              	.LFB118:
  27              		.file 1 "../../../ChibiOS/os/hal/src/hal.c"
  28              		.loc 1 68 0
  29              		.cfi_startproc
  30              		@ args = 0, pretend = 0, frame = 0
  31              		@ frame_needed = 0, uses_anonymous_args = 0
  32 0000 08B5     		push	{r3, lr}
  33              	.LCFI0:
  34              		.cfi_def_cfa_offset 8
  35              		.cfi_offset 3, -8
  36              		.cfi_offset 14, -4
  37              		.loc 1 70 0
  38 0002 FFF7FEFF 		bl	hal_lld_init
  39              	.LVL0:
  40              		.loc 1 73 0
  41 0006 FFF7FEFF 		bl	tmInit
  42              	.LVL1:
  43              		.loc 1 76 0
  44 000a 40F20000 		movw	r0, #:lower16:pal_default_config
  45 000e C0F20000 		movt	r0, #:upper16:pal_default_config
  46 0012 FFF7FEFF 		bl	_pal_lld_init
  47              	.LVL2:
  48              		.loc 1 79 0
  49 0016 FFF7FEFF 		bl	adcInit
  50              	.LVL3:
  51              		.loc 1 82 0
  52 001a FFF7FEFF 		bl	canInit
  53              	.LVL4:
  54              		.loc 1 91 0
  55 001e FFF7FEFF 		bl	i2cInit
  56              	.LVL5:
  57              		.loc 1 94 0
ARM GAS  C:\Users\DNIEL~1\AppData\Local\Temp\ccyPGU43.s 			page 2


  58 0022 FFF7FEFF 		bl	icuInit
  59              	.LVL6:
  60              		.loc 1 100 0
  61 0026 FFF7FEFF 		bl	pwmInit
  62              	.LVL7:
  63              		.loc 1 103 0
  64 002a FFF7FEFF 		bl	sdInit
  65              	.LVL8:
  66              		.loc 1 106 0
  67 002e FFF7FEFF 		bl	sdcInit
  68              	.LVL9:
  69              		.loc 1 109 0
  70 0032 FFF7FEFF 		bl	spiInit
  71              	.LVL10:
  72              		.loc 1 115 0
  73 0036 FFF7FEFF 		bl	usbInit
  74              	.LVL11:
  75              		.loc 1 121 0
  76 003a FFF7FEFF 		bl	sduInit
  77              	.LVL12:
  78              		.loc 1 124 0
  79 003e FFF7FEFF 		bl	rtcInit
  80              	.LVL13:
  81              		.loc 1 128 0
  82 0042 BDE80840 		pop	{r3, lr}
  83              		.loc 1 127 0
  84 0046 FFF7FEBF 		b	boardInit
  85              	.LVL14:
  86              		.cfi_endproc
  87              	.LFE118:
  88              		.size	halInit, .-halInit
  89 004a 00BFAFF3 		.section	.text.halIsCounterWithin,"ax",%progbits
  89      0080
  90              		.align	2
  91              		.p2align 4,,15
  92              		.global	halIsCounterWithin
  93              		.thumb
  94              		.thumb_func
  95              		.type	halIsCounterWithin, %function
  96              	halIsCounterWithin:
  97              	.LFB119:
  98              		.loc 1 174 0
  99              		.cfi_startproc
 100              		@ args = 0, pretend = 0, frame = 0
 101              		@ frame_needed = 0, uses_anonymous_args = 0
 102              		@ link register save eliminated.
 103              	.LVL15:
 104              		.loc 1 175 0
 105 0000 4FF48053 		mov	r3, #4096
 106 0004 CEF20003 		movt	r3, 57344
 107              		.loc 1 177 0
 108 0008 8142     		cmp	r1, r0
 109              		.loc 1 175 0
 110 000a 5A68     		ldr	r2, [r3, #4]
 111              	.LVL16:
 112              		.loc 1 177 0
 113 000c 06D9     		bls	.L3
ARM GAS  C:\Users\DNIEL~1\AppData\Local\Temp\ccyPGU43.s 			page 3


 114              		.loc 1 177 0 is_stmt 0 discriminator 1
 115 000e 8242     		cmp	r2, r0
 116 0010 08D3     		bcc	.L7
 117              	.L9:
 118              		.loc 1 178 0 is_stmt 1 discriminator 2
 119 0012 8A42     		cmp	r2, r1
 120 0014 2CBF     		ite	cs
 121 0016 0020     		movcs	r0, #0
 122              	.LVL17:
 123 0018 0120     		movcc	r0, #1
 124 001a 7047     		bx	lr
 125              	.LVL18:
 126              	.L3:
 127              		.loc 1 178 0 is_stmt 0
 128 001c 8242     		cmp	r2, r0
 129 001e F8D3     		bcc	.L9
 130 0020 0120     		movs	r0, #1
 131              	.LVL19:
 132              		.loc 1 179 0 is_stmt 1
 133 0022 7047     		bx	lr
 134              	.LVL20:
 135              	.L7:
 136              		.loc 1 177 0
 137 0024 0020     		movs	r0, #0
 138              	.LVL21:
 139 0026 7047     		bx	lr
 140              		.cfi_endproc
 141              	.LFE119:
 142              		.size	halIsCounterWithin, .-halIsCounterWithin
 143 0028 AFF30080 		.section	.text.halPolledDelay,"ax",%progbits
 143      AFF30080 
 144              		.align	2
 145              		.p2align 4,,15
 146              		.global	halPolledDelay
 147              		.thumb
 148              		.thumb_func
 149              		.type	halPolledDelay, %function
 150              	halPolledDelay:
 151              	.LFB120:
 152              		.loc 1 193 0
 153              		.cfi_startproc
 154              		@ args = 0, pretend = 0, frame = 0
 155              		@ frame_needed = 0, uses_anonymous_args = 0
 156              		@ link register save eliminated.
 157              	.LVL22:
 158              		.loc 1 194 0
 159 0000 4FF48053 		mov	r3, #4096
 160 0004 CEF20003 		movt	r3, 57344
 161              	.LBB4:
 162              	.LBB5:
 163              		.loc 1 175 0
 164 0008 1946     		mov	r1, r3
 165              	.LBE5:
 166              	.LBE4:
 167              		.loc 1 194 0
 168 000a 5A68     		ldr	r2, [r3, #4]
 169              	.LVL23:
ARM GAS  C:\Users\DNIEL~1\AppData\Local\Temp\ccyPGU43.s 			page 4


 170              		.loc 1 195 0
 171 000c 8018     		adds	r0, r0, r2
 172              	.LVL24:
 173              	.L21:
 174              	.LBB7:
 175              	.LBB6:
 176              		.loc 1 177 0 discriminator 1
 177 000e 8242     		cmp	r2, r0
 178              		.loc 1 175 0 discriminator 1
 179 0010 4B68     		ldr	r3, [r1, #4]
 180              	.LVL25:
 181              		.loc 1 177 0 discriminator 1
 182 0012 02D2     		bcs	.L12
 183              		.loc 1 177 0 is_stmt 0
 184 0014 9A42     		cmp	r2, r3
 185 0016 02D9     		bls	.L22
 186 0018 7047     		bx	lr
 187              	.L12:
 188              		.loc 1 178 0 is_stmt 1
 189 001a 9A42     		cmp	r2, r3
 190 001c F7D9     		bls	.L21
 191              	.L22:
 192 001e 9842     		cmp	r0, r3
 193 0020 94BF     		ite	ls
 194 0022 0023     		movls	r3, #0
 195              	.LVL26:
 196 0024 0123     		movhi	r3, #1
 197              	.LBE6:
 198              	.LBE7:
 199              		.loc 1 196 0
 200 0026 002B     		cmp	r3, #0
 201 0028 F1D1     		bne	.L21
 202 002a 7047     		bx	lr
 203              		.cfi_endproc
 204              	.LFE120:
 205              		.size	halPolledDelay, .-halPolledDelay
 206 002c AFF30080 		.text
 207              	.Letext0:
 208              		.file 2 "c:\\chibistudio\\tools\\gnu tools arm embedded\\4.7 2014q2\\bin\\../lib/gcc/arm-none-eabi
 209              		.file 3 "../../../ChibiOS/os/ports/GCC/ARMCMx/chtypes.h"
 210              		.file 4 "../../../ChibiOS/os/ports/common/ARMCMx/nvic.h"
 211              		.file 5 "../../../ChibiOS/os/hal/platforms/STM32F4xx/hal_lld.h"
 212              		.file 6 "../../../ChibiOS/os/hal/platforms/STM32/GPIOv2/pal_lld.h"
 213              		.file 7 "../../../ChibiOS/os/ports/common/ARMCMx/CMSIS/include/core_cm4.h"
 214              		.file 8 "../../../ChibiOS/os/hal/include/tm.h"
 215              		.file 9 "../../../ChibiOS/os/hal/include/adc.h"
 216              		.file 10 "../../../ChibiOS/os/hal/include/can.h"
 217              		.file 11 "../../../ChibiOS/os/hal/include/i2c.h"
 218              		.file 12 "../../../ChibiOS/os/hal/include/icu.h"
 219              		.file 13 "../../../ChibiOS/os/hal/include/pwm.h"
 220              		.file 14 "../../../ChibiOS/os/hal/include/serial.h"
 221              		.file 15 "../../../ChibiOS/os/hal/include/sdc.h"
 222              		.file 16 "../../../ChibiOS/os/hal/include/spi.h"
 223              		.file 17 "../../../ChibiOS/os/hal/include/usb.h"
 224              		.file 18 "../../../ChibiOS/os/hal/include/serial_usb.h"
 225              		.file 19 "../../../ChibiOS/os/hal/include/rtc.h"
 226              		.file 20 "os/board/board.h"
ARM GAS  C:\Users\DNIEL~1\AppData\Local\Temp\ccyPGU43.s 			page 5

