ARM GAS  C:\Users\DNIEL~1\AppData\Local\Temp\ccR6XLxN.s 			page 1


   1              		.syntax unified
   2              		.cpu cortex-m4
   3              		.fpu softvfp
   4              		.eabi_attribute 20, 1
   5              		.eabi_attribute 21, 1
   6              		.eabi_attribute 23, 3
   7              		.eabi_attribute 24, 1
   8              		.eabi_attribute 25, 1
   9              		.eabi_attribute 26, 1
  10              		.eabi_attribute 30, 2
  11              		.eabi_attribute 18, 4
  12              		.thumb
  13              		.file	"hal.c"
  14              		.section	.debug_abbrev,"",%progbits
  15              	.Ldebug_abbrev0:
  16              		.section	.debug_info,"",%progbits
  17              	.Ldebug_info0:
  18              		.section	.debug_line,"",%progbits
  19              	.Ldebug_line0:
  20 0000 4F020000 		.text
  20      0200DC01 
  20      00000201 
  20      FB0E0D00 
  20      01010101 
  21              	.Ltext0:
  22              		.cfi_sections	.debug_frame
  23              		.section	.text.halInit,"ax",%progbits
  24              		.align	2
  25              		.p2align 4,,15
  26              		.global	halInit
  27              		.thumb
  28              		.thumb_func
  29              		.type	halInit, %function
  30              	halInit:
  31              	.LFB118:
  32              		.file 1 "../../../ChibiOS/os/hal/src/hal.c"
  33              		.loc 1 61 0
  34              		.cfi_startproc
  35              		@ args = 0, pretend = 0, frame = 0
  36              		@ frame_needed = 0, uses_anonymous_args = 0
  37 0000 10B5     		push	{r4, lr}
  38              	.LCFI0:
  39              		.cfi_def_cfa_offset 8
  40              		.loc 1 63 0
  41              		.cfi_offset 14, -4
  42              		.cfi_offset 4, -8
  43 0002 FFF7FEFF 		bl	hal_lld_init
  44              		.loc 1 66 0
  45 0006 FFF7FEFF 		bl	tmInit
  46              		.loc 1 69 0
  47 000a 0E48     		ldr	r0, .L2
  48 000c FFF7FEFF 		bl	_pal_lld_init
  49              		.loc 1 72 0
  50 0010 FFF7FEFF 		bl	adcInit
  51              		.loc 1 75 0
  52 0014 FFF7FEFF 		bl	canInit
  53              		.loc 1 84 0
ARM GAS  C:\Users\DNIEL~1\AppData\Local\Temp\ccR6XLxN.s 			page 2


  54 0018 FFF7FEFF 		bl	i2cInit
  55              		.loc 1 87 0
  56 001c FFF7FEFF 		bl	icuInit
  57              		.loc 1 93 0
  58 0020 FFF7FEFF 		bl	pwmInit
  59              		.loc 1 96 0
  60 0024 FFF7FEFF 		bl	sdInit
  61              		.loc 1 99 0
  62 0028 FFF7FEFF 		bl	sdcInit
  63              		.loc 1 102 0
  64 002c FFF7FEFF 		bl	spiInit
  65              		.loc 1 108 0
  66 0030 FFF7FEFF 		bl	usbInit
  67              		.loc 1 114 0
  68 0034 FFF7FEFF 		bl	sduInit
  69              		.loc 1 117 0
  70 0038 FFF7FEFF 		bl	rtcInit
  71              		.loc 1 121 0
  72 003c BDE81040 		pop	{r4, lr}
  73              		.loc 1 120 0
  74 0040 FFF7FEBF 		b	boardInit
  75              	.L3:
  76              		.align	2
  77              	.L2:
  78 0044 00000000 		.word	pal_default_config
  79              		.cfi_endproc
  80              	.LFE118:
  81              		.size	halInit, .-halInit
  82 0048 AFF30080 		.section	.text.halIsCounterWithin,"ax",%progbits
  82      AFF30080 
  83              		.align	2
  84              		.p2align 4,,15
  85              		.global	halIsCounterWithin
  86              		.thumb
  87              		.thumb_func
  88              		.type	halIsCounterWithin, %function
  89              	halIsCounterWithin:
  90              	.LFB119:
  91              		.loc 1 167 0
  92              		.cfi_startproc
  93              		@ args = 0, pretend = 0, frame = 0
  94              		@ frame_needed = 0, uses_anonymous_args = 0
  95              		@ link register save eliminated.
  96              	.LVL0:
  97              		.loc 1 168 0
  98 0000 084B     		ldr	r3, .L11
  99              		.loc 1 170 0
 100 0002 8142     		cmp	r1, r0
 101              		.loc 1 168 0
 102 0004 5B68     		ldr	r3, [r3, #4]
 103              	.LVL1:
 104              		.loc 1 170 0
 105 0006 06D9     		bls	.L5
 106              		.loc 1 170 0 is_stmt 0 discriminator 1
 107 0008 8342     		cmp	r3, r0
 108 000a 08D3     		bcc	.L7
 109              	.L9:
ARM GAS  C:\Users\DNIEL~1\AppData\Local\Temp\ccR6XLxN.s 			page 3


 110              		.loc 1 170 0
 111 000c 8B42     		cmp	r3, r1
 112 000e 2CBF     		ite	cs
 113 0010 0020     		movcs	r0, #0
 114              	.LVL2:
 115 0012 0120     		movcc	r0, #1
 116 0014 7047     		bx	lr
 117              	.LVL3:
 118              	.L5:
 119              		.loc 1 170 0 discriminator 2
 120 0016 8342     		cmp	r3, r0
 121 0018 F8D3     		bcc	.L9
 122              		.loc 1 170 0
 123 001a 0120     		movs	r0, #1
 124              	.LVL4:
 125              		.loc 1 172 0 is_stmt 1
 126 001c 7047     		bx	lr
 127              	.LVL5:
 128              	.L7:
 129              		.loc 1 170 0
 130 001e 0020     		movs	r0, #0
 131              	.LVL6:
 132 0020 7047     		bx	lr
 133              	.L12:
 134 0022 00BF     		.align	2
 135              	.L11:
 136 0024 001000E0 		.word	-536866816
 137              		.cfi_endproc
 138              	.LFE119:
 139              		.size	halIsCounterWithin, .-halIsCounterWithin
 140 0028 AFF30080 		.section	.text.halPolledDelay,"ax",%progbits
 140      AFF30080 
 141              		.align	2
 142              		.p2align 4,,15
 143              		.global	halPolledDelay
 144              		.thumb
 145              		.thumb_func
 146              		.type	halPolledDelay, %function
 147              	halPolledDelay:
 148              	.LFB120:
 149              		.loc 1 186 0
 150              		.cfi_startproc
 151              		@ args = 0, pretend = 0, frame = 0
 152              		@ frame_needed = 0, uses_anonymous_args = 0
 153              		@ link register save eliminated.
 154              	.LVL7:
 155              		.loc 1 187 0
 156 0000 084A     		ldr	r2, .L21
 157 0002 5368     		ldr	r3, [r2, #4]
 158              	.LVL8:
 159              		.loc 1 188 0
 160 0004 C018     		adds	r0, r0, r3
 161              	.LVL9:
 162              	.L19:
 163              	.LBB4:
 164              	.LBB5:
 165              		.loc 1 170 0 discriminator 1
ARM GAS  C:\Users\DNIEL~1\AppData\Local\Temp\ccR6XLxN.s 			page 4


 166 0006 8342     		cmp	r3, r0
 167              		.loc 1 168 0 discriminator 1
 168 0008 5168     		ldr	r1, [r2, #4]
 169              	.LVL10:
 170              		.loc 1 170 0 discriminator 1
 171 000a 02D2     		bcs	.L14
 172              		.loc 1 170 0 is_stmt 0
 173 000c 8B42     		cmp	r3, r1
 174 000e 05D9     		bls	.L20
 175 0010 7047     		bx	lr
 176              	.L14:
 177 0012 8B42     		cmp	r3, r1
 178 0014 F7D9     		bls	.L19
 179              		.loc 1 171 0 is_stmt 1
 180 0016 8842     		cmp	r0, r1
 181 0018 F5D8     		bhi	.L19
 182 001a 7047     		bx	lr
 183              	.L20:
 184              		.loc 1 170 0
 185 001c 8842     		cmp	r0, r1
 186 001e F2D8     		bhi	.L19
 187 0020 7047     		bx	lr
 188              	.L22:
 189 0022 00BF     		.align	2
 190              	.L21:
 191 0024 001000E0 		.word	-536866816
 192              	.LBE5:
 193              	.LBE4:
 194              		.cfi_endproc
 195              	.LFE120:
 196              		.size	halPolledDelay, .-halPolledDelay
 197 0028 AFF30080 		.text
 197      AFF30080 
 198              	.Letext0:
 199              		.section	.debug_loc,"",%progbits
 200              	.Ldebug_loc0:
 201              	.LLST0:
 202 0000 00000000 		.4byte	.LFB118
 203 0004 02000000 		.4byte	.LCFI0
 204 0008 0200     		.2byte	0x2
 205 000a 7D       		.byte	0x7d
 206 000b 00       		.sleb128 0
 207 000c 02000000 		.4byte	.LCFI0
 208 0010 48000000 		.4byte	.LFE118
 209 0014 0200     		.2byte	0x2
 210 0016 7D       		.byte	0x7d
 211 0017 08       		.sleb128 8
 212 0018 00000000 		.4byte	0x0
 213 001c 00000000 		.4byte	0x0
 214              	.LLST1:
 215 0020 00000000 		.4byte	.LVL0
 216 0024 12000000 		.4byte	.LVL2
 217 0028 0100     		.2byte	0x1
 218 002a 50       		.byte	0x50
 219 002b 16000000 		.4byte	.LVL3
 220 002f 1C000000 		.4byte	.LVL4
 221 0033 0100     		.2byte	0x1
ARM GAS  C:\Users\DNIEL~1\AppData\Local\Temp\ccR6XLxN.s 			page 5


 222 0035 50       		.byte	0x50
 223 0036 1E000000 		.4byte	.LVL5
 224 003a 20000000 		.4byte	.LVL6
 225 003e 0100     		.2byte	0x1
 226 0040 50       		.byte	0x50
 227 0041 00000000 		.4byte	0x0
 228 0045 00000000 		.4byte	0x0
 229              	.LLST2:
 230 0049 00000000 		.4byte	.LVL7
 231 004d 06000000 		.4byte	.LVL9
 232 0051 0100     		.2byte	0x1
 233 0053 50       		.byte	0x50
 234 0054 00000000 		.4byte	0x0
 235 0058 00000000 		.4byte	0x0
 236              		.file 2 "c:\\program files (x86)\\codesourcery\\sourcery g++ lite\\bin\\../lib/gcc/arm-none-eabi/4
 237              		.file 3 "../../../ChibiOS/os/ports/GCC/ARMCMx/chtypes.h"
 238              		.file 4 "../../../ChibiOS/os/ports/common/ARMCMx/nvic.h"
 239              		.file 5 "../../../ChibiOS/os/hal/platforms/STM32F4xx/hal_lld.h"
 240              		.file 6 "../../../ChibiOS/os/hal/platforms/STM32/GPIOv2/pal_lld.h"
 241              		.file 7 "../../../ChibiOS/os/ports/common/ARMCMx/CMSIS/include/core_cm4.h"
 242              		.section	.debug_info
 243 0000 66030000 		.4byte	0x366
 244 0004 0200     		.2byte	0x2
 245 0006 00000000 		.4byte	.Ldebug_abbrev0
 246 000a 04       		.byte	0x4
 247 000b 01       		.uleb128 0x1
 248 000c 1B000000 		.4byte	.LASF44
 249 0010 01       		.byte	0x1
 250 0011 27000000 		.4byte	.LASF45
 251 0015 CF010000 		.4byte	.LASF46
 252 0019 00000000 		.4byte	0x0
 253 001d 00000000 		.4byte	0x0
 254 0021 00000000 		.4byte	.Ldebug_ranges0+0x0
 255 0025 00000000 		.4byte	.Ldebug_line0
 256 0029 02       		.uleb128 0x2
 257 002a 04       		.byte	0x4
 258 002b 05       		.byte	0x5
 259 002c 696E7400 		.ascii	"int\000"
 260 0030 03       		.uleb128 0x3
 261 0031 04       		.byte	0x4
 262 0032 07       		.byte	0x7
 263 0033 6A000000 		.4byte	.LASF0
 264 0037 03       		.uleb128 0x3
 265 0038 01       		.byte	0x1
 266 0039 06       		.byte	0x6
 267 003a 24020000 		.4byte	.LASF1
 268 003e 03       		.uleb128 0x3
 269 003f 01       		.byte	0x1
 270 0040 08       		.byte	0x8
 271 0041 A3000000 		.4byte	.LASF2
 272 0045 03       		.uleb128 0x3
 273 0046 02       		.byte	0x2
 274 0047 05       		.byte	0x5
 275 0048 A4010000 		.4byte	.LASF3
 276 004c 03       		.uleb128 0x3
 277 004d 02       		.byte	0x2
 278 004e 07       		.byte	0x7
ARM GAS  C:\Users\DNIEL~1\AppData\Local\Temp\ccR6XLxN.s 			page 6


 279 004f 4F000000 		.4byte	.LASF4
 280 0053 04       		.uleb128 0x4
 281 0054 71010000 		.4byte	.LASF6
 282 0058 02       		.byte	0x2
 283 0059 4F       		.byte	0x4f
 284 005a 5E000000 		.4byte	0x5e
 285 005e 03       		.uleb128 0x3
 286 005f 04       		.byte	0x4
 287 0060 05       		.byte	0x5
 288 0061 C6010000 		.4byte	.LASF5
 289 0065 04       		.uleb128 0x4
 290 0066 BD010000 		.4byte	.LASF7
 291 006a 02       		.byte	0x2
 292 006b 50       		.byte	0x50
 293 006c 70000000 		.4byte	0x70
 294 0070 03       		.uleb128 0x3
 295 0071 04       		.byte	0x4
 296 0072 07       		.byte	0x7
 297 0073 CB000000 		.4byte	.LASF8
 298 0077 03       		.uleb128 0x3
 299 0078 08       		.byte	0x8
 300 0079 05       		.byte	0x5
 301 007a 00000000 		.4byte	.LASF9
 302 007e 03       		.uleb128 0x3
 303 007f 08       		.byte	0x8
 304 0080 07       		.byte	0x7
 305 0081 30020000 		.4byte	.LASF10
 306 0085 04       		.uleb128 0x4
 307 0086 7E000000 		.4byte	.LASF11
 308 008a 03       		.byte	0x3
 309 008b 27       		.byte	0x27
 310 008c 53000000 		.4byte	0x53
 311 0090 05       		.uleb128 0x5
 312 0091 70000000 		.4byte	0x70
 313 0095 06       		.uleb128 0x6
 314 0096 20       		.byte	0x20
 315 0097 04       		.byte	0x4
 316 0098 FF       		.byte	0xff
 317 0099 16010000 		.4byte	0x116
 318 009d 07       		.uleb128 0x7
 319 009e 52010000 		.4byte	.LASF12
 320 00a2 04       		.byte	0x4
 321 00a3 0001     		.2byte	0x100
 322 00a5 90000000 		.4byte	0x90
 323 00a9 02       		.byte	0x2
 324 00aa 23       		.byte	0x23
 325 00ab 00       		.uleb128 0x0
 326 00ac 07       		.uleb128 0x7
 327 00ad 22010000 		.4byte	.LASF13
 328 00b1 04       		.byte	0x4
 329 00b2 0101     		.2byte	0x101
 330 00b4 90000000 		.4byte	0x90
 331 00b8 02       		.byte	0x2
 332 00b9 23       		.byte	0x23
 333 00ba 04       		.uleb128 0x4
 334 00bb 07       		.uleb128 0x7
 335 00bc E2000000 		.4byte	.LASF14
ARM GAS  C:\Users\DNIEL~1\AppData\Local\Temp\ccR6XLxN.s 			page 7


 336 00c0 04       		.byte	0x4
 337 00c1 0201     		.2byte	0x102
 338 00c3 90000000 		.4byte	0x90
 339 00c7 02       		.byte	0x2
 340 00c8 23       		.byte	0x23
 341 00c9 08       		.uleb128 0x8
 342 00ca 07       		.uleb128 0x7
 343 00cb 85000000 		.4byte	.LASF15
 344 00cf 04       		.byte	0x4
 345 00d0 0301     		.2byte	0x103
 346 00d2 90000000 		.4byte	0x90
 347 00d6 02       		.byte	0x2
 348 00d7 23       		.byte	0x23
 349 00d8 0C       		.uleb128 0xc
 350 00d9 07       		.uleb128 0x7
 351 00da 8C000000 		.4byte	.LASF16
 352 00de 04       		.byte	0x4
 353 00df 0401     		.2byte	0x104
 354 00e1 90000000 		.4byte	0x90
 355 00e5 02       		.byte	0x2
 356 00e6 23       		.byte	0x23
 357 00e7 10       		.uleb128 0x10
 358 00e8 07       		.uleb128 0x7
 359 00e9 1B010000 		.4byte	.LASF17
 360 00ed 04       		.byte	0x4
 361 00ee 0501     		.2byte	0x105
 362 00f0 90000000 		.4byte	0x90
 363 00f4 02       		.byte	0x2
 364 00f5 23       		.byte	0x23
 365 00f6 14       		.uleb128 0x14
 366 00f7 07       		.uleb128 0x7
 367 00f8 F6000000 		.4byte	.LASF18
 368 00fc 04       		.byte	0x4
 369 00fd 0601     		.2byte	0x106
 370 00ff 90000000 		.4byte	0x90
 371 0103 02       		.byte	0x2
 372 0104 23       		.byte	0x23
 373 0105 18       		.uleb128 0x18
 374 0106 07       		.uleb128 0x7
 375 0107 89010000 		.4byte	.LASF19
 376 010b 04       		.byte	0x4
 377 010c 0701     		.2byte	0x107
 378 010e 90000000 		.4byte	0x90
 379 0112 02       		.byte	0x2
 380 0113 23       		.byte	0x23
 381 0114 1C       		.uleb128 0x1c
 382 0115 00       		.byte	0x0
 383 0116 08       		.uleb128 0x8
 384 0117 B5010000 		.4byte	.LASF20
 385 011b 04       		.byte	0x4
 386 011c 0801     		.2byte	0x108
 387 011e 95000000 		.4byte	0x95
 388 0122 03       		.uleb128 0x3
 389 0123 01       		.byte	0x1
 390 0124 08       		.byte	0x8
 391 0125 4D010000 		.4byte	.LASF21
 392 0129 05       		.uleb128 0x5
ARM GAS  C:\Users\DNIEL~1\AppData\Local\Temp\ccR6XLxN.s 			page 8


 393 012a 53000000 		.4byte	0x53
 394 012e 08       		.uleb128 0x8
 395 012f 42010000 		.4byte	.LASF22
 396 0133 05       		.byte	0x5
 397 0134 EB05     		.2byte	0x5eb
 398 0136 65000000 		.4byte	0x65
 399 013a 06       		.uleb128 0x6
 400 013b 1C       		.byte	0x1c
 401 013c 06       		.byte	0x6
 402 013d A4       		.byte	0xa4
 403 013e A5010000 		.4byte	0x1a5
 404 0142 09       		.uleb128 0x9
 405 0143 1E020000 		.4byte	.LASF23
 406 0147 06       		.byte	0x6
 407 0148 A6       		.byte	0xa6
 408 0149 65000000 		.4byte	0x65
 409 014d 02       		.byte	0x2
 410 014e 23       		.byte	0x23
 411 014f 00       		.uleb128 0x0
 412 0150 09       		.uleb128 0x9
 413 0151 77000000 		.4byte	.LASF24
 414 0155 06       		.byte	0x6
 415 0156 A8       		.byte	0xa8
 416 0157 65000000 		.4byte	0x65
 417 015b 02       		.byte	0x2
 418 015c 23       		.byte	0x23
 419 015d 04       		.uleb128 0x4
 420 015e 09       		.uleb128 0x9
 421 015f 79010000 		.4byte	.LASF25
 422 0163 06       		.byte	0x6
 423 0164 AA       		.byte	0xaa
 424 0165 65000000 		.4byte	0x65
 425 0169 02       		.byte	0x2
 426 016a 23       		.byte	0x23
 427 016b 08       		.uleb128 0x8
 428 016c 09       		.uleb128 0x9
 429 016d 29010000 		.4byte	.LASF26
 430 0171 06       		.byte	0x6
 431 0172 AC       		.byte	0xac
 432 0173 65000000 		.4byte	0x65
 433 0177 02       		.byte	0x2
 434 0178 23       		.byte	0x23
 435 0179 0C       		.uleb128 0xc
 436 017a 0A       		.uleb128 0xa
 437 017b 6F647200 		.ascii	"odr\000"
 438 017f 06       		.byte	0x6
 439 0180 AE       		.byte	0xae
 440 0181 65000000 		.4byte	0x65
 441 0185 02       		.byte	0x2
 442 0186 23       		.byte	0x23
 443 0187 10       		.uleb128 0x10
 444 0188 09       		.uleb128 0x9
 445 0189 3D010000 		.4byte	.LASF27
 446 018d 06       		.byte	0x6
 447 018e B0       		.byte	0xb0
 448 018f 65000000 		.4byte	0x65
 449 0193 02       		.byte	0x2
ARM GAS  C:\Users\DNIEL~1\AppData\Local\Temp\ccR6XLxN.s 			page 9


 450 0194 23       		.byte	0x23
 451 0195 14       		.uleb128 0x14
 452 0196 09       		.uleb128 0x9
 453 0197 DD000000 		.4byte	.LASF28
 454 019b 06       		.byte	0x6
 455 019c B2       		.byte	0xb2
 456 019d 65000000 		.4byte	0x65
 457 01a1 02       		.byte	0x2
 458 01a2 23       		.byte	0x23
 459 01a3 18       		.uleb128 0x18
 460 01a4 00       		.byte	0x0
 461 01a5 04       		.uleb128 0x4
 462 01a6 B1000000 		.4byte	.LASF29
 463 01aa 06       		.byte	0x6
 464 01ab B3       		.byte	0xb3
 465 01ac 3A010000 		.4byte	0x13a
 466 01b0 06       		.uleb128 0x6
 467 01b1 FC       		.byte	0xfc
 468 01b2 06       		.byte	0x6
 469 01b3 BC       		.byte	0xbc
 470 01b4 3B020000 		.4byte	0x23b
 471 01b8 09       		.uleb128 0x9
 472 01b9 C4000000 		.4byte	.LASF30
 473 01bd 06       		.byte	0x6
 474 01be BE       		.byte	0xbe
 475 01bf A5010000 		.4byte	0x1a5
 476 01c3 02       		.byte	0x2
 477 01c4 23       		.byte	0x23
 478 01c5 00       		.uleb128 0x0
 479 01c6 09       		.uleb128 0x9
 480 01c7 36010000 		.4byte	.LASF31
 481 01cb 06       		.byte	0x6
 482 01cc C0       		.byte	0xc0
 483 01cd A5010000 		.4byte	0x1a5
 484 01d1 02       		.byte	0x2
 485 01d2 23       		.byte	0x23
 486 01d3 1C       		.uleb128 0x1c
 487 01d4 09       		.uleb128 0x9
 488 01d5 AE010000 		.4byte	.LASF32
 489 01d9 06       		.byte	0x6
 490 01da C2       		.byte	0xc2
 491 01db A5010000 		.4byte	0x1a5
 492 01df 02       		.byte	0x2
 493 01e0 23       		.byte	0x23
 494 01e1 38       		.uleb128 0x38
 495 01e2 09       		.uleb128 0x9
 496 01e3 14000000 		.4byte	.LASF33
 497 01e7 06       		.byte	0x6
 498 01e8 C4       		.byte	0xc4
 499 01e9 A5010000 		.4byte	0x1a5
 500 01ed 02       		.byte	0x2
 501 01ee 23       		.byte	0x23
 502 01ef 54       		.uleb128 0x54
 503 01f0 09       		.uleb128 0x9
 504 01f1 9C000000 		.4byte	.LASF34
 505 01f5 06       		.byte	0x6
 506 01f6 C7       		.byte	0xc7
ARM GAS  C:\Users\DNIEL~1\AppData\Local\Temp\ccR6XLxN.s 			page 10


 507 01f7 A5010000 		.4byte	0x1a5
 508 01fb 02       		.byte	0x2
 509 01fc 23       		.byte	0x23
 510 01fd 70       		.uleb128 0x70
 511 01fe 09       		.uleb128 0x9
 512 01ff 2F010000 		.4byte	.LASF35
 513 0203 06       		.byte	0x6
 514 0204 CB       		.byte	0xcb
 515 0205 A5010000 		.4byte	0x1a5
 516 0209 03       		.byte	0x3
 517 020a 23       		.byte	0x23
 518 020b 8C01     		.uleb128 0x8c
 519 020d 09       		.uleb128 0x9
 520 020e 8E010000 		.4byte	.LASF36
 521 0212 06       		.byte	0x6
 522 0213 CF       		.byte	0xcf
 523 0214 A5010000 		.4byte	0x1a5
 524 0218 03       		.byte	0x3
 525 0219 23       		.byte	0x23
 526 021a A801     		.uleb128 0xa8
 527 021c 09       		.uleb128 0x9
 528 021d 6A010000 		.4byte	.LASF37
 529 0221 06       		.byte	0x6
 530 0222 D3       		.byte	0xd3
 531 0223 A5010000 		.4byte	0x1a5
 532 0227 03       		.byte	0x3
 533 0228 23       		.byte	0x23
 534 0229 C401     		.uleb128 0xc4
 535 022b 09       		.uleb128 0x9
 536 022c 95000000 		.4byte	.LASF38
 537 0230 06       		.byte	0x6
 538 0231 D7       		.byte	0xd7
 539 0232 A5010000 		.4byte	0x1a5
 540 0236 03       		.byte	0x3
 541 0237 23       		.byte	0x23
 542 0238 E001     		.uleb128 0xe0
 543 023a 00       		.byte	0x0
 544 023b 04       		.uleb128 0x4
 545 023c FE000000 		.4byte	.LASF39
 546 0240 06       		.byte	0x6
 547 0241 D9       		.byte	0xd9
 548 0242 B0010000 		.4byte	0x1b0
 549 0246 0B       		.uleb128 0xb
 550 0247 01       		.byte	0x1
 551 0248 57010000 		.4byte	.LASF47
 552 024c 01       		.byte	0x1
 553 024d A7       		.byte	0xa7
 554 024e 01       		.byte	0x1
 555 024f 85000000 		.4byte	0x85
 556 0253 01       		.byte	0x1
 557 0254 7A020000 		.4byte	0x27a
 558 0258 0C       		.uleb128 0xc
 559 0259 49000000 		.4byte	.LASF40
 560 025d 01       		.byte	0x1
 561 025e A7       		.byte	0xa7
 562 025f 2E010000 		.4byte	0x12e
 563 0263 0D       		.uleb128 0xd
ARM GAS  C:\Users\DNIEL~1\AppData\Local\Temp\ccR6XLxN.s 			page 11


 564 0264 656E6400 		.ascii	"end\000"
 565 0268 01       		.byte	0x1
 566 0269 A7       		.byte	0xa7
 567 026a 2E010000 		.4byte	0x12e
 568 026e 0E       		.uleb128 0xe
 569 026f 6E6F7700 		.ascii	"now\000"
 570 0273 01       		.byte	0x1
 571 0274 A8       		.byte	0xa8
 572 0275 2E010000 		.4byte	0x12e
 573 0279 00       		.byte	0x0
 574 027a 0F       		.uleb128 0xf
 575 027b 01       		.byte	0x1
 576 027c 62000000 		.4byte	.LASF48
 577 0280 01       		.byte	0x1
 578 0281 3D       		.byte	0x3d
 579 0282 01       		.byte	0x1
 580 0283 00000000 		.4byte	.LFB118
 581 0287 48000000 		.4byte	.LFE118
 582 028b 00000000 		.4byte	.LLST0
 583 028f 10       		.uleb128 0x10
 584 0290 46020000 		.4byte	0x246
 585 0294 00000000 		.4byte	.LFB119
 586 0298 28000000 		.4byte	.LFE119
 587 029c 02       		.byte	0x2
 588 029d 7D       		.byte	0x7d
 589 029e 00       		.sleb128 0
 590 029f BB020000 		.4byte	0x2bb
 591 02a3 11       		.uleb128 0x11
 592 02a4 58020000 		.4byte	0x258
 593 02a8 20000000 		.4byte	.LLST1
 594 02ac 12       		.uleb128 0x12
 595 02ad 63020000 		.4byte	0x263
 596 02b1 01       		.byte	0x1
 597 02b2 51       		.byte	0x51
 598 02b3 13       		.uleb128 0x13
 599 02b4 6E020000 		.4byte	0x26e
 600 02b8 01       		.byte	0x1
 601 02b9 53       		.byte	0x53
 602 02ba 00       		.byte	0x0
 603 02bb 14       		.uleb128 0x14
 604 02bc 01       		.byte	0x1
 605 02bd 95010000 		.4byte	.LASF49
 606 02c1 01       		.byte	0x1
 607 02c2 BA       		.byte	0xba
 608 02c3 01       		.byte	0x1
 609 02c4 00000000 		.4byte	.LFB120
 610 02c8 28000000 		.4byte	.LFE120
 611 02cc 02       		.byte	0x2
 612 02cd 7D       		.byte	0x7d
 613 02ce 00       		.sleb128 0
 614 02cf 2C030000 		.4byte	0x32c
 615 02d3 15       		.uleb128 0x15
 616 02d4 0E000000 		.4byte	.LASF50
 617 02d8 01       		.byte	0x1
 618 02d9 BA       		.byte	0xba
 619 02da 2E010000 		.4byte	0x12e
 620 02de 49000000 		.4byte	.LLST2
ARM GAS  C:\Users\DNIEL~1\AppData\Local\Temp\ccR6XLxN.s 			page 12


 621 02e2 16       		.uleb128 0x16
 622 02e3 49000000 		.4byte	.LASF40
 623 02e7 01       		.byte	0x1
 624 02e8 BB       		.byte	0xbb
 625 02e9 2E010000 		.4byte	0x12e
 626 02ed 01       		.byte	0x1
 627 02ee 53       		.byte	0x53
 628 02ef 16       		.uleb128 0x16
 629 02f0 81010000 		.4byte	.LASF41
 630 02f4 01       		.byte	0x1
 631 02f5 BC       		.byte	0xbc
 632 02f6 2E010000 		.4byte	0x12e
 633 02fa 01       		.byte	0x1
 634 02fb 50       		.byte	0x50
 635 02fc 17       		.uleb128 0x17
 636 02fd 46020000 		.4byte	0x246
 637 0301 06000000 		.4byte	.LBB4
 638 0305 28000000 		.4byte	.LBE4
 639 0309 01       		.byte	0x1
 640 030a BD       		.byte	0xbd
 641 030b 12       		.uleb128 0x12
 642 030c 63020000 		.4byte	0x263
 643 0310 01       		.byte	0x1
 644 0311 50       		.byte	0x50
 645 0312 12       		.uleb128 0x12
 646 0313 58020000 		.4byte	0x258
 647 0317 01       		.byte	0x1
 648 0318 53       		.byte	0x53
 649 0319 18       		.uleb128 0x18
 650 031a 06000000 		.4byte	.LBB5
 651 031e 28000000 		.4byte	.LBE5
 652 0322 13       		.uleb128 0x13
 653 0323 6E020000 		.4byte	0x26e
 654 0327 01       		.byte	0x1
 655 0328 51       		.byte	0x51
 656 0329 00       		.byte	0x0
 657 032a 00       		.byte	0x0
 658 032b 00       		.byte	0x0
 659 032c 19       		.uleb128 0x19
 660 032d E9000000 		.4byte	.LASF42
 661 0331 07       		.byte	0x7
 662 0332 9806     		.2byte	0x698
 663 0334 29010000 		.4byte	0x129
 664 0338 01       		.byte	0x1
 665 0339 01       		.byte	0x1
 666 033a 19       		.uleb128 0x19
 667 033b 08010000 		.4byte	.LASF43
 668 033f 06       		.byte	0x6
 669 0340 B501     		.2byte	0x1b5
 670 0342 48030000 		.4byte	0x348
 671 0346 01       		.byte	0x1
 672 0347 01       		.byte	0x1
 673 0348 1A       		.uleb128 0x1a
 674 0349 3B020000 		.4byte	0x23b
 675 034d 19       		.uleb128 0x19
 676 034e E9000000 		.4byte	.LASF42
 677 0352 07       		.byte	0x7
ARM GAS  C:\Users\DNIEL~1\AppData\Local\Temp\ccR6XLxN.s 			page 13


 678 0353 9806     		.2byte	0x698
 679 0355 29010000 		.4byte	0x129
 680 0359 01       		.byte	0x1
 681 035a 01       		.byte	0x1
 682 035b 19       		.uleb128 0x19
 683 035c 08010000 		.4byte	.LASF43
 684 0360 06       		.byte	0x6
 685 0361 B501     		.2byte	0x1b5
 686 0363 48030000 		.4byte	0x348
 687 0367 01       		.byte	0x1
 688 0368 01       		.byte	0x1
 689 0369 00       		.byte	0x0
 690              		.section	.debug_abbrev
 691 0000 01       		.uleb128 0x1
 692 0001 11       		.uleb128 0x11
 693 0002 01       		.byte	0x1
 694 0003 25       		.uleb128 0x25
 695 0004 0E       		.uleb128 0xe
 696 0005 13       		.uleb128 0x13
 697 0006 0B       		.uleb128 0xb
 698 0007 03       		.uleb128 0x3
 699 0008 0E       		.uleb128 0xe
 700 0009 1B       		.uleb128 0x1b
 701 000a 0E       		.uleb128 0xe
 702 000b 11       		.uleb128 0x11
 703 000c 01       		.uleb128 0x1
 704 000d 52       		.uleb128 0x52
 705 000e 01       		.uleb128 0x1
 706 000f 55       		.uleb128 0x55
 707 0010 06       		.uleb128 0x6
 708 0011 10       		.uleb128 0x10
 709 0012 06       		.uleb128 0x6
 710 0013 00       		.byte	0x0
 711 0014 00       		.byte	0x0
 712 0015 02       		.uleb128 0x2
 713 0016 24       		.uleb128 0x24
 714 0017 00       		.byte	0x0
 715 0018 0B       		.uleb128 0xb
 716 0019 0B       		.uleb128 0xb
 717 001a 3E       		.uleb128 0x3e
 718 001b 0B       		.uleb128 0xb
 719 001c 03       		.uleb128 0x3
 720 001d 08       		.uleb128 0x8
 721 001e 00       		.byte	0x0
 722 001f 00       		.byte	0x0
 723 0020 03       		.uleb128 0x3
 724 0021 24       		.uleb128 0x24
 725 0022 00       		.byte	0x0
 726 0023 0B       		.uleb128 0xb
 727 0024 0B       		.uleb128 0xb
 728 0025 3E       		.uleb128 0x3e
 729 0026 0B       		.uleb128 0xb
 730 0027 03       		.uleb128 0x3
 731 0028 0E       		.uleb128 0xe
 732 0029 00       		.byte	0x0
 733 002a 00       		.byte	0x0
 734 002b 04       		.uleb128 0x4
ARM GAS  C:\Users\DNIEL~1\AppData\Local\Temp\ccR6XLxN.s 			page 14


 735 002c 16       		.uleb128 0x16
 736 002d 00       		.byte	0x0
 737 002e 03       		.uleb128 0x3
 738 002f 0E       		.uleb128 0xe
 739 0030 3A       		.uleb128 0x3a
 740 0031 0B       		.uleb128 0xb
 741 0032 3B       		.uleb128 0x3b
 742 0033 0B       		.uleb128 0xb
 743 0034 49       		.uleb128 0x49
 744 0035 13       		.uleb128 0x13
 745 0036 00       		.byte	0x0
 746 0037 00       		.byte	0x0
 747 0038 05       		.uleb128 0x5
 748 0039 35       		.uleb128 0x35
 749 003a 00       		.byte	0x0
 750 003b 49       		.uleb128 0x49
 751 003c 13       		.uleb128 0x13
 752 003d 00       		.byte	0x0
 753 003e 00       		.byte	0x0
 754 003f 06       		.uleb128 0x6
 755 0040 13       		.uleb128 0x13
 756 0041 01       		.byte	0x1
 757 0042 0B       		.uleb128 0xb
 758 0043 0B       		.uleb128 0xb
 759 0044 3A       		.uleb128 0x3a
 760 0045 0B       		.uleb128 0xb
 761 0046 3B       		.uleb128 0x3b
 762 0047 0B       		.uleb128 0xb
 763 0048 01       		.uleb128 0x1
 764 0049 13       		.uleb128 0x13
 765 004a 00       		.byte	0x0
 766 004b 00       		.byte	0x0
 767 004c 07       		.uleb128 0x7
 768 004d 0D       		.uleb128 0xd
 769 004e 00       		.byte	0x0
 770 004f 03       		.uleb128 0x3
 771 0050 0E       		.uleb128 0xe
 772 0051 3A       		.uleb128 0x3a
 773 0052 0B       		.uleb128 0xb
 774 0053 3B       		.uleb128 0x3b
 775 0054 05       		.uleb128 0x5
 776 0055 49       		.uleb128 0x49
 777 0056 13       		.uleb128 0x13
 778 0057 38       		.uleb128 0x38
 779 0058 0A       		.uleb128 0xa
 780 0059 00       		.byte	0x0
 781 005a 00       		.byte	0x0
 782 005b 08       		.uleb128 0x8
 783 005c 16       		.uleb128 0x16
 784 005d 00       		.byte	0x0
 785 005e 03       		.uleb128 0x3
 786 005f 0E       		.uleb128 0xe
 787 0060 3A       		.uleb128 0x3a
 788 0061 0B       		.uleb128 0xb
 789 0062 3B       		.uleb128 0x3b
 790 0063 05       		.uleb128 0x5
 791 0064 49       		.uleb128 0x49
ARM GAS  C:\Users\DNIEL~1\AppData\Local\Temp\ccR6XLxN.s 			page 15


 792 0065 13       		.uleb128 0x13
 793 0066 00       		.byte	0x0
 794 0067 00       		.byte	0x0
 795 0068 09       		.uleb128 0x9
 796 0069 0D       		.uleb128 0xd
 797 006a 00       		.byte	0x0
 798 006b 03       		.uleb128 0x3
 799 006c 0E       		.uleb128 0xe
 800 006d 3A       		.uleb128 0x3a
 801 006e 0B       		.uleb128 0xb
 802 006f 3B       		.uleb128 0x3b
 803 0070 0B       		.uleb128 0xb
 804 0071 49       		.uleb128 0x49
 805 0072 13       		.uleb128 0x13
 806 0073 38       		.uleb128 0x38
 807 0074 0A       		.uleb128 0xa
 808 0075 00       		.byte	0x0
 809 0076 00       		.byte	0x0
 810 0077 0A       		.uleb128 0xa
 811 0078 0D       		.uleb128 0xd
 812 0079 00       		.byte	0x0
 813 007a 03       		.uleb128 0x3
 814 007b 08       		.uleb128 0x8
 815 007c 3A       		.uleb128 0x3a
 816 007d 0B       		.uleb128 0xb
 817 007e 3B       		.uleb128 0x3b
 818 007f 0B       		.uleb128 0xb
 819 0080 49       		.uleb128 0x49
 820 0081 13       		.uleb128 0x13
 821 0082 38       		.uleb128 0x38
 822 0083 0A       		.uleb128 0xa
 823 0084 00       		.byte	0x0
 824 0085 00       		.byte	0x0
 825 0086 0B       		.uleb128 0xb
 826 0087 2E       		.uleb128 0x2e
 827 0088 01       		.byte	0x1
 828 0089 3F       		.uleb128 0x3f
 829 008a 0C       		.uleb128 0xc
 830 008b 03       		.uleb128 0x3
 831 008c 0E       		.uleb128 0xe
 832 008d 3A       		.uleb128 0x3a
 833 008e 0B       		.uleb128 0xb
 834 008f 3B       		.uleb128 0x3b
 835 0090 0B       		.uleb128 0xb
 836 0091 27       		.uleb128 0x27
 837 0092 0C       		.uleb128 0xc
 838 0093 49       		.uleb128 0x49
 839 0094 13       		.uleb128 0x13
 840 0095 20       		.uleb128 0x20
 841 0096 0B       		.uleb128 0xb
 842 0097 01       		.uleb128 0x1
 843 0098 13       		.uleb128 0x13
 844 0099 00       		.byte	0x0
 845 009a 00       		.byte	0x0
 846 009b 0C       		.uleb128 0xc
 847 009c 05       		.uleb128 0x5
 848 009d 00       		.byte	0x0
ARM GAS  C:\Users\DNIEL~1\AppData\Local\Temp\ccR6XLxN.s 			page 16


 849 009e 03       		.uleb128 0x3
 850 009f 0E       		.uleb128 0xe
 851 00a0 3A       		.uleb128 0x3a
 852 00a1 0B       		.uleb128 0xb
 853 00a2 3B       		.uleb128 0x3b
 854 00a3 0B       		.uleb128 0xb
 855 00a4 49       		.uleb128 0x49
 856 00a5 13       		.uleb128 0x13
 857 00a6 00       		.byte	0x0
 858 00a7 00       		.byte	0x0
 859 00a8 0D       		.uleb128 0xd
 860 00a9 05       		.uleb128 0x5
 861 00aa 00       		.byte	0x0
 862 00ab 03       		.uleb128 0x3
 863 00ac 08       		.uleb128 0x8
 864 00ad 3A       		.uleb128 0x3a
 865 00ae 0B       		.uleb128 0xb
 866 00af 3B       		.uleb128 0x3b
 867 00b0 0B       		.uleb128 0xb
 868 00b1 49       		.uleb128 0x49
 869 00b2 13       		.uleb128 0x13
 870 00b3 00       		.byte	0x0
 871 00b4 00       		.byte	0x0
 872 00b5 0E       		.uleb128 0xe
 873 00b6 34       		.uleb128 0x34
 874 00b7 00       		.byte	0x0
 875 00b8 03       		.uleb128 0x3
 876 00b9 08       		.uleb128 0x8
 877 00ba 3A       		.uleb128 0x3a
 878 00bb 0B       		.uleb128 0xb
 879 00bc 3B       		.uleb128 0x3b
 880 00bd 0B       		.uleb128 0xb
 881 00be 49       		.uleb128 0x49
 882 00bf 13       		.uleb128 0x13
 883 00c0 00       		.byte	0x0
 884 00c1 00       		.byte	0x0
 885 00c2 0F       		.uleb128 0xf
 886 00c3 2E       		.uleb128 0x2e
 887 00c4 00       		.byte	0x0
 888 00c5 3F       		.uleb128 0x3f
 889 00c6 0C       		.uleb128 0xc
 890 00c7 03       		.uleb128 0x3
 891 00c8 0E       		.uleb128 0xe
 892 00c9 3A       		.uleb128 0x3a
 893 00ca 0B       		.uleb128 0xb
 894 00cb 3B       		.uleb128 0x3b
 895 00cc 0B       		.uleb128 0xb
 896 00cd 27       		.uleb128 0x27
 897 00ce 0C       		.uleb128 0xc
 898 00cf 11       		.uleb128 0x11
 899 00d0 01       		.uleb128 0x1
 900 00d1 12       		.uleb128 0x12
 901 00d2 01       		.uleb128 0x1
 902 00d3 40       		.uleb128 0x40
 903 00d4 06       		.uleb128 0x6
 904 00d5 00       		.byte	0x0
 905 00d6 00       		.byte	0x0
ARM GAS  C:\Users\DNIEL~1\AppData\Local\Temp\ccR6XLxN.s 			page 17


 906 00d7 10       		.uleb128 0x10
 907 00d8 2E       		.uleb128 0x2e
 908 00d9 01       		.byte	0x1
 909 00da 31       		.uleb128 0x31
 910 00db 13       		.uleb128 0x13
 911 00dc 11       		.uleb128 0x11
 912 00dd 01       		.uleb128 0x1
 913 00de 12       		.uleb128 0x12
 914 00df 01       		.uleb128 0x1
 915 00e0 40       		.uleb128 0x40
 916 00e1 0A       		.uleb128 0xa
 917 00e2 01       		.uleb128 0x1
 918 00e3 13       		.uleb128 0x13
 919 00e4 00       		.byte	0x0
 920 00e5 00       		.byte	0x0
 921 00e6 11       		.uleb128 0x11
 922 00e7 05       		.uleb128 0x5
 923 00e8 00       		.byte	0x0
 924 00e9 31       		.uleb128 0x31
 925 00ea 13       		.uleb128 0x13
 926 00eb 02       		.uleb128 0x2
 927 00ec 06       		.uleb128 0x6
 928 00ed 00       		.byte	0x0
 929 00ee 00       		.byte	0x0
 930 00ef 12       		.uleb128 0x12
 931 00f0 05       		.uleb128 0x5
 932 00f1 00       		.byte	0x0
 933 00f2 31       		.uleb128 0x31
 934 00f3 13       		.uleb128 0x13
 935 00f4 02       		.uleb128 0x2
 936 00f5 0A       		.uleb128 0xa
 937 00f6 00       		.byte	0x0
 938 00f7 00       		.byte	0x0
 939 00f8 13       		.uleb128 0x13
 940 00f9 34       		.uleb128 0x34
 941 00fa 00       		.byte	0x0
 942 00fb 31       		.uleb128 0x31
 943 00fc 13       		.uleb128 0x13
 944 00fd 02       		.uleb128 0x2
 945 00fe 0A       		.uleb128 0xa
 946 00ff 00       		.byte	0x0
 947 0100 00       		.byte	0x0
 948 0101 14       		.uleb128 0x14
 949 0102 2E       		.uleb128 0x2e
 950 0103 01       		.byte	0x1
 951 0104 3F       		.uleb128 0x3f
 952 0105 0C       		.uleb128 0xc
 953 0106 03       		.uleb128 0x3
 954 0107 0E       		.uleb128 0xe
 955 0108 3A       		.uleb128 0x3a
 956 0109 0B       		.uleb128 0xb
 957 010a 3B       		.uleb128 0x3b
 958 010b 0B       		.uleb128 0xb
 959 010c 27       		.uleb128 0x27
 960 010d 0C       		.uleb128 0xc
 961 010e 11       		.uleb128 0x11
 962 010f 01       		.uleb128 0x1
ARM GAS  C:\Users\DNIEL~1\AppData\Local\Temp\ccR6XLxN.s 			page 18


 963 0110 12       		.uleb128 0x12
 964 0111 01       		.uleb128 0x1
 965 0112 40       		.uleb128 0x40
 966 0113 0A       		.uleb128 0xa
 967 0114 01       		.uleb128 0x1
 968 0115 13       		.uleb128 0x13
 969 0116 00       		.byte	0x0
 970 0117 00       		.byte	0x0
 971 0118 15       		.uleb128 0x15
 972 0119 05       		.uleb128 0x5
 973 011a 00       		.byte	0x0
 974 011b 03       		.uleb128 0x3
 975 011c 0E       		.uleb128 0xe
 976 011d 3A       		.uleb128 0x3a
 977 011e 0B       		.uleb128 0xb
 978 011f 3B       		.uleb128 0x3b
 979 0120 0B       		.uleb128 0xb
 980 0121 49       		.uleb128 0x49
 981 0122 13       		.uleb128 0x13
 982 0123 02       		.uleb128 0x2
 983 0124 06       		.uleb128 0x6
 984 0125 00       		.byte	0x0
 985 0126 00       		.byte	0x0
 986 0127 16       		.uleb128 0x16
 987 0128 34       		.uleb128 0x34
 988 0129 00       		.byte	0x0
 989 012a 03       		.uleb128 0x3
 990 012b 0E       		.uleb128 0xe
 991 012c 3A       		.uleb128 0x3a
 992 012d 0B       		.uleb128 0xb
 993 012e 3B       		.uleb128 0x3b
 994 012f 0B       		.uleb128 0xb
 995 0130 49       		.uleb128 0x49
 996 0131 13       		.uleb128 0x13
 997 0132 02       		.uleb128 0x2
 998 0133 0A       		.uleb128 0xa
 999 0134 00       		.byte	0x0
 1000 0135 00       		.byte	0x0
 1001 0136 17       		.uleb128 0x17
 1002 0137 1D       		.uleb128 0x1d
 1003 0138 01       		.byte	0x1
 1004 0139 31       		.uleb128 0x31
 1005 013a 13       		.uleb128 0x13
 1006 013b 11       		.uleb128 0x11
 1007 013c 01       		.uleb128 0x1
 1008 013d 12       		.uleb128 0x12
 1009 013e 01       		.uleb128 0x1
 1010 013f 58       		.uleb128 0x58
 1011 0140 0B       		.uleb128 0xb
 1012 0141 59       		.uleb128 0x59
 1013 0142 0B       		.uleb128 0xb
 1014 0143 00       		.byte	0x0
 1015 0144 00       		.byte	0x0
 1016 0145 18       		.uleb128 0x18
 1017 0146 0B       		.uleb128 0xb
 1018 0147 01       		.byte	0x1
 1019 0148 11       		.uleb128 0x11
ARM GAS  C:\Users\DNIEL~1\AppData\Local\Temp\ccR6XLxN.s 			page 19


 1020 0149 01       		.uleb128 0x1
 1021 014a 12       		.uleb128 0x12
 1022 014b 01       		.uleb128 0x1
 1023 014c 00       		.byte	0x0
 1024 014d 00       		.byte	0x0
 1025 014e 19       		.uleb128 0x19
 1026 014f 34       		.uleb128 0x34
 1027 0150 00       		.byte	0x0
 1028 0151 03       		.uleb128 0x3
 1029 0152 0E       		.uleb128 0xe
 1030 0153 3A       		.uleb128 0x3a
 1031 0154 0B       		.uleb128 0xb
 1032 0155 3B       		.uleb128 0x3b
 1033 0156 05       		.uleb128 0x5
 1034 0157 49       		.uleb128 0x49
 1035 0158 13       		.uleb128 0x13
 1036 0159 3F       		.uleb128 0x3f
 1037 015a 0C       		.uleb128 0xc
 1038 015b 3C       		.uleb128 0x3c
 1039 015c 0C       		.uleb128 0xc
 1040 015d 00       		.byte	0x0
 1041 015e 00       		.byte	0x0
 1042 015f 1A       		.uleb128 0x1a
 1043 0160 26       		.uleb128 0x26
 1044 0161 00       		.byte	0x0
 1045 0162 49       		.uleb128 0x49
 1046 0163 13       		.uleb128 0x13
 1047 0164 00       		.byte	0x0
 1048 0165 00       		.byte	0x0
 1049 0166 00       		.byte	0x0
 1050              		.section	.debug_pubnames,"",%progbits
 1051 0000 44000000 		.4byte	0x44
 1052 0004 0200     		.2byte	0x2
 1053 0006 00000000 		.4byte	.Ldebug_info0
 1054 000a 6A030000 		.4byte	0x36a
 1055 000e 7A020000 		.4byte	0x27a
 1056 0012 68616C49 		.ascii	"halInit\000"
 1056      6E697400 
 1057 001a 8F020000 		.4byte	0x28f
 1058 001e 68616C49 		.ascii	"halIsCounterWithin\000"
 1058      73436F75 
 1058      6E746572 
 1058      57697468 
 1058      696E00
 1059 0031 BB020000 		.4byte	0x2bb
 1060 0035 68616C50 		.ascii	"halPolledDelay\000"
 1060      6F6C6C65 
 1060      6444656C 
 1060      617900
 1061 0044 00000000 		.4byte	0x0
 1062              		.section	.debug_pubtypes,"",%progbits
 1063 0000 72000000 		.4byte	0x72
 1064 0004 0200     		.2byte	0x2
 1065 0006 00000000 		.4byte	.Ldebug_info0
 1066 000a 6A030000 		.4byte	0x36a
 1067 000e 53000000 		.4byte	0x53
 1068 0012 696E7433 		.ascii	"int32_t\000"
ARM GAS  C:\Users\DNIEL~1\AppData\Local\Temp\ccR6XLxN.s 			page 20


 1068      325F7400 
 1069 001a 65000000 		.4byte	0x65
 1070 001e 75696E74 		.ascii	"uint32_t\000"
 1070      33325F74 
 1070      00
 1071 0027 85000000 		.4byte	0x85
 1072 002b 626F6F6C 		.ascii	"bool_t\000"
 1072      5F7400
 1073 0032 16010000 		.4byte	0x116
 1074 0036 434D785F 		.ascii	"CMx_DWT\000"
 1074      44575400 
 1075 003e 2E010000 		.4byte	0x12e
 1076 0042 68616C72 		.ascii	"halrtcnt_t\000"
 1076      74636E74 
 1076      5F7400
 1077 004d A5010000 		.4byte	0x1a5
 1078 0051 73746D33 		.ascii	"stm32_gpio_setup_t\000"
 1078      325F6770 
 1078      696F5F73 
 1078      65747570 
 1078      5F7400
 1079 0064 3B020000 		.4byte	0x23b
 1080 0068 50414C43 		.ascii	"PALConfig\000"
 1080      6F6E6669 
 1080      6700
 1081 0072 00000000 		.4byte	0x0
 1082              		.section	.debug_aranges,"",%progbits
 1083 0000 2C000000 		.4byte	0x2c
 1084 0004 0200     		.2byte	0x2
 1085 0006 00000000 		.4byte	.Ldebug_info0
 1086 000a 04       		.byte	0x4
 1087 000b 00       		.byte	0x0
 1088 000c 0000     		.2byte	0x0
 1089 000e 0000     		.2byte	0x0
 1090 0010 00000000 		.4byte	.LFB118
 1091 0014 48000000 		.4byte	.LFE118-.LFB118
 1092 0018 00000000 		.4byte	.LFB119
 1093 001c 28000000 		.4byte	.LFE119-.LFB119
 1094 0020 00000000 		.4byte	.LFB120
 1095 0024 28000000 		.4byte	.LFE120-.LFB120
 1096 0028 00000000 		.4byte	0x0
 1097 002c 00000000 		.4byte	0x0
 1098              		.section	.debug_ranges,"",%progbits
 1099              	.Ldebug_ranges0:
 1100 0000 00000000 		.4byte	.LFB118
 1101 0004 48000000 		.4byte	.LFE118
 1102 0008 00000000 		.4byte	.LFB119
 1103 000c 28000000 		.4byte	.LFE119
 1104 0010 00000000 		.4byte	.LFB120
 1105 0014 28000000 		.4byte	.LFE120
 1106 0018 00000000 		.4byte	0x0
 1107 001c 00000000 		.4byte	0x0
 1108              		.section	.debug_str,"MS",%progbits,1
 1109              	.LASF9:
 1110 0000 6C6F6E67 		.ascii	"long long int\000"
 1110      206C6F6E 
 1110      6720696E 
ARM GAS  C:\Users\DNIEL~1\AppData\Local\Temp\ccR6XLxN.s 			page 21


 1110      7400
 1111              	.LASF50:
 1112 000e 7469636B 		.ascii	"ticks\000"
 1112      7300
 1113              	.LASF33:
 1114 0014 50444461 		.ascii	"PDData\000"
 1114      746100
 1115              	.LASF44:
 1116 001b 474E5520 		.ascii	"GNU C 4.5.2\000"
 1116      4320342E 
 1116      352E3200 
 1117              	.LASF45:
 1118 0027 2E2E2F2E 		.ascii	"../../../ChibiOS/os/hal/src/hal.c\000"
 1118      2E2F2E2E 
 1118      2F436869 
 1118      62694F53 
 1118      2F6F732F 
 1119              	.LASF40:
 1120 0049 73746172 		.ascii	"start\000"
 1120      7400
 1121              	.LASF4:
 1122 004f 73686F72 		.ascii	"short unsigned int\000"
 1122      7420756E 
 1122      7369676E 
 1122      65642069 
 1122      6E7400
 1123              	.LASF48:
 1124 0062 68616C49 		.ascii	"halInit\000"
 1124      6E697400 
 1125              	.LASF0:
 1126 006a 756E7369 		.ascii	"unsigned int\000"
 1126      676E6564 
 1126      20696E74 
 1126      00
 1127              	.LASF24:
 1128 0077 6F747970 		.ascii	"otyper\000"
 1128      657200
 1129              	.LASF11:
 1130 007e 626F6F6C 		.ascii	"bool_t\000"
 1130      5F7400
 1131              	.LASF15:
 1132 0085 45584343 		.ascii	"EXCCNT\000"
 1132      4E5400
 1133              	.LASF16:
 1134 008c 534C4545 		.ascii	"SLEEPCNT\000"
 1134      50434E54 
 1134      00
 1135              	.LASF38:
 1136 0095 50494461 		.ascii	"PIData\000"
 1136      746100
 1137              	.LASF34:
 1138 009c 50454461 		.ascii	"PEData\000"
 1138      746100
 1139              	.LASF2:
 1140 00a3 756E7369 		.ascii	"unsigned char\000"
 1140      676E6564 
 1140      20636861 
ARM GAS  C:\Users\DNIEL~1\AppData\Local\Temp\ccR6XLxN.s 			page 22


 1140      7200
 1141              	.LASF29:
 1142 00b1 73746D33 		.ascii	"stm32_gpio_setup_t\000"
 1142      325F6770 
 1142      696F5F73 
 1142      65747570 
 1142      5F7400
 1143              	.LASF30:
 1144 00c4 50414461 		.ascii	"PAData\000"
 1144      746100
 1145              	.LASF8:
 1146 00cb 6C6F6E67 		.ascii	"long unsigned int\000"
 1146      20756E73 
 1146      69676E65 
 1146      6420696E 
 1146      7400
 1147              	.LASF28:
 1148 00dd 61667268 		.ascii	"afrh\000"
 1148      00
 1149              	.LASF14:
 1150 00e2 43504943 		.ascii	"CPICNT\000"
 1150      4E5400
 1151              	.LASF42:
 1152 00e9 49544D5F 		.ascii	"ITM_RxBuffer\000"
 1152      52784275 
 1152      66666572 
 1152      00
 1153              	.LASF18:
 1154 00f6 464F4C44 		.ascii	"FOLDCNT\000"
 1154      434E5400 
 1155              	.LASF39:
 1156 00fe 50414C43 		.ascii	"PALConfig\000"
 1156      6F6E6669 
 1156      6700
 1157              	.LASF43:
 1158 0108 70616C5F 		.ascii	"pal_default_config\000"
 1158      64656661 
 1158      756C745F 
 1158      636F6E66 
 1158      696700
 1159              	.LASF17:
 1160 011b 4C535543 		.ascii	"LSUCNT\000"
 1160      4E5400
 1161              	.LASF13:
 1162 0122 43594343 		.ascii	"CYCCNT\000"
 1162      4E5400
 1163              	.LASF26:
 1164 0129 70757064 		.ascii	"pupdr\000"
 1164      7200
 1165              	.LASF35:
 1166 012f 50464461 		.ascii	"PFData\000"
 1166      746100
 1167              	.LASF31:
 1168 0136 50424461 		.ascii	"PBData\000"
 1168      746100
 1169              	.LASF27:
 1170 013d 6166726C 		.ascii	"afrl\000"
ARM GAS  C:\Users\DNIEL~1\AppData\Local\Temp\ccR6XLxN.s 			page 23


 1170      00
 1171              	.LASF22:
 1172 0142 68616C72 		.ascii	"halrtcnt_t\000"
 1172      74636E74 
 1172      5F7400
 1173              	.LASF21:
 1174 014d 63686172 		.ascii	"char\000"
 1174      00
 1175              	.LASF12:
 1176 0152 4354524C 		.ascii	"CTRL\000"
 1176      00
 1177              	.LASF47:
 1178 0157 68616C49 		.ascii	"halIsCounterWithin\000"
 1178      73436F75 
 1178      6E746572 
 1178      57697468 
 1178      696E00
 1179              	.LASF37:
 1180 016a 50484461 		.ascii	"PHData\000"
 1180      746100
 1181              	.LASF6:
 1182 0171 696E7433 		.ascii	"int32_t\000"
 1182      325F7400 
 1183              	.LASF25:
 1184 0179 6F737065 		.ascii	"ospeedr\000"
 1184      65647200 
 1185              	.LASF41:
 1186 0181 74696D65 		.ascii	"timeout\000"
 1186      6F757400 
 1187              	.LASF19:
 1188 0189 50435352 		.ascii	"PCSR\000"
 1188      00
 1189              	.LASF36:
 1190 018e 50474461 		.ascii	"PGData\000"
 1190      746100
 1191              	.LASF49:
 1192 0195 68616C50 		.ascii	"halPolledDelay\000"
 1192      6F6C6C65 
 1192      6444656C 
 1192      617900
 1193              	.LASF3:
 1194 01a4 73686F72 		.ascii	"short int\000"
 1194      7420696E 
 1194      7400
 1195              	.LASF32:
 1196 01ae 50434461 		.ascii	"PCData\000"
 1196      746100
 1197              	.LASF20:
 1198 01b5 434D785F 		.ascii	"CMx_DWT\000"
 1198      44575400 
 1199              	.LASF7:
 1200 01bd 75696E74 		.ascii	"uint32_t\000"
 1200      33325F74 
 1200      00
 1201              	.LASF5:
 1202 01c6 6C6F6E67 		.ascii	"long int\000"
 1202      20696E74 
ARM GAS  C:\Users\DNIEL~1\AppData\Local\Temp\ccR6XLxN.s 			page 24


 1202      00
 1203              	.LASF46:
 1204 01cf 433A5C55 		.ascii	"C:\\Users\\D\341niel\\Dropbox\\Solar Racing\\Szoftv"
 1204      73657273 
 1204      5C44E16E 
 1204      69656C5C 
 1204      44726F70 
 1205 01fa 65725C53 		.ascii	"er\\Smarty\\Smarty_v6\\smarty\\firmware\000"
 1205      6D617274 
 1205      795C536D 
 1205      61727479 
 1205      5F76365C 
 1206              	.LASF23:
 1207 021e 6D6F6465 		.ascii	"moder\000"
 1207      7200
 1208              	.LASF1:
 1209 0224 7369676E 		.ascii	"signed char\000"
 1209      65642063 
 1209      68617200 
 1210              	.LASF10:
 1211 0230 6C6F6E67 		.ascii	"long long unsigned int\000"
 1211      206C6F6E 
 1211      6720756E 
 1211      7369676E 
 1211      65642069 
 1212              		.ident	"GCC: (Sourcery G++ Lite 2011.03-42) 4.5.2"
ARM GAS  C:\Users\DNIEL~1\AppData\Local\Temp\ccR6XLxN.s 			page 25


DEFINED SYMBOLS
                            *ABS*:00000000 hal.c
C:\Users\DNIEL~1\AppData\Local\Temp\ccR6XLxN.s:24     .text.halInit:00000000 $t
C:\Users\DNIEL~1\AppData\Local\Temp\ccR6XLxN.s:30     .text.halInit:00000000 halInit
C:\Users\DNIEL~1\AppData\Local\Temp\ccR6XLxN.s:78     .text.halInit:00000044 $d
C:\Users\DNIEL~1\AppData\Local\Temp\ccR6XLxN.s:83     .text.halIsCounterWithin:00000000 $t
C:\Users\DNIEL~1\AppData\Local\Temp\ccR6XLxN.s:89     .text.halIsCounterWithin:00000000 halIsCounterWithin
C:\Users\DNIEL~1\AppData\Local\Temp\ccR6XLxN.s:136    .text.halIsCounterWithin:00000024 $d
C:\Users\DNIEL~1\AppData\Local\Temp\ccR6XLxN.s:141    .text.halPolledDelay:00000000 $t
C:\Users\DNIEL~1\AppData\Local\Temp\ccR6XLxN.s:147    .text.halPolledDelay:00000000 halPolledDelay
C:\Users\DNIEL~1\AppData\Local\Temp\ccR6XLxN.s:191    .text.halPolledDelay:00000024 $d
                     .debug_frame:00000010 $d
C:\Users\DNIEL~1\AppData\Local\Temp\ccR6XLxN.s:82     .text.halInit:00000048 $t
C:\Users\DNIEL~1\AppData\Local\Temp\ccR6XLxN.s:140    .text.halIsCounterWithin:00000028 $t
C:\Users\DNIEL~1\AppData\Local\Temp\ccR6XLxN.s:197    .text.halPolledDelay:00000028 $t

UNDEFINED SYMBOLS
hal_lld_init
tmInit
_pal_lld_init
adcInit
canInit
i2cInit
icuInit
pwmInit
sdInit
sdcInit
spiInit
usbInit
sduInit
rtcInit
boardInit
pal_default_config
