ARM GAS  C:\Users\DNIEL~1\AppData\Local\Temp\ccwv6SVt.s 			page 1


   1              		.syntax unified
   2              		.cpu cortex-m4
   3              		.fpu softvfp
   4              		.eabi_attribute 20, 1
   5              		.eabi_attribute 21, 1
   6              		.eabi_attribute 23, 3
   7              		.eabi_attribute 24, 1
   8              		.eabi_attribute 25, 1
   9              		.eabi_attribute 26, 1
  10              		.eabi_attribute 30, 2
  11              		.eabi_attribute 18, 4
  12              		.thumb
  13              		.file	"hal.c"
  14              		.section	.debug_abbrev,"",%progbits
  15              	.Ldebug_abbrev0:
  16              		.section	.debug_info,"",%progbits
  17              	.Ldebug_info0:
  18              		.section	.debug_line,"",%progbits
  19              	.Ldebug_line0:
  20 0000 51020000 		.text
  20      0200DC01 
  20      00000201 
  20      FB0E0D00 
  20      01010101 
  21              	.Ltext0:
  22              		.cfi_sections	.debug_frame
  23              		.section	.text.halInit,"ax",%progbits
  24              		.align	2
  25              		.p2align 4,,15
  26              		.global	halInit
  27              		.thumb
  28              		.thumb_func
  29              		.type	halInit, %function
  30              	halInit:
  31              	.LFB118:
  32              		.file 1 "../../../ChibiOS/os/hal/src/hal.c"
  33              		.loc 1 68 0
  34              		.cfi_startproc
  35              		@ args = 0, pretend = 0, frame = 0
  36              		@ frame_needed = 0, uses_anonymous_args = 0
  37 0000 10B5     		push	{r4, lr}
  38              	.LCFI0:
  39              		.cfi_def_cfa_offset 8
  40              		.loc 1 70 0
  41              		.cfi_offset 14, -4
  42              		.cfi_offset 4, -8
  43 0002 FFF7FEFF 		bl	hal_lld_init
  44              		.loc 1 73 0
  45 0006 FFF7FEFF 		bl	tmInit
  46              		.loc 1 76 0
  47 000a 0E48     		ldr	r0, .L2
  48 000c FFF7FEFF 		bl	_pal_lld_init
  49              		.loc 1 79 0
  50 0010 FFF7FEFF 		bl	adcInit
  51              		.loc 1 82 0
  52 0014 FFF7FEFF 		bl	canInit
  53              		.loc 1 91 0
ARM GAS  C:\Users\DNIEL~1\AppData\Local\Temp\ccwv6SVt.s 			page 2


  54 0018 FFF7FEFF 		bl	i2cInit
  55              		.loc 1 94 0
  56 001c FFF7FEFF 		bl	icuInit
  57              		.loc 1 100 0
  58 0020 FFF7FEFF 		bl	pwmInit
  59              		.loc 1 103 0
  60 0024 FFF7FEFF 		bl	sdInit
  61              		.loc 1 106 0
  62 0028 FFF7FEFF 		bl	sdcInit
  63              		.loc 1 109 0
  64 002c FFF7FEFF 		bl	spiInit
  65              		.loc 1 115 0
  66 0030 FFF7FEFF 		bl	usbInit
  67              		.loc 1 121 0
  68 0034 FFF7FEFF 		bl	sduInit
  69              		.loc 1 124 0
  70 0038 FFF7FEFF 		bl	rtcInit
  71              		.loc 1 128 0
  72 003c BDE81040 		pop	{r4, lr}
  73              		.loc 1 127 0
  74 0040 FFF7FEBF 		b	boardInit
  75              	.L3:
  76              		.align	2
  77              	.L2:
  78 0044 00000000 		.word	pal_default_config
  79              		.cfi_endproc
  80              	.LFE118:
  81              		.size	halInit, .-halInit
  82 0048 AFF30080 		.section	.text.halIsCounterWithin,"ax",%progbits
  82      AFF30080 
  83              		.align	2
  84              		.p2align 4,,15
  85              		.global	halIsCounterWithin
  86              		.thumb
  87              		.thumb_func
  88              		.type	halIsCounterWithin, %function
  89              	halIsCounterWithin:
  90              	.LFB119:
  91              		.loc 1 174 0
  92              		.cfi_startproc
  93              		@ args = 0, pretend = 0, frame = 0
  94              		@ frame_needed = 0, uses_anonymous_args = 0
  95              		@ link register save eliminated.
  96              	.LVL0:
  97              		.loc 1 175 0
  98 0000 084B     		ldr	r3, .L13
  99              		.loc 1 177 0
 100 0002 8142     		cmp	r1, r0
 101              		.loc 1 175 0
 102 0004 5B68     		ldr	r3, [r3, #4]
 103              	.LVL1:
 104              		.loc 1 177 0
 105 0006 06D9     		bls	.L5
 106              		.loc 1 177 0 is_stmt 0 discriminator 1
 107 0008 8342     		cmp	r3, r0
 108 000a 08D3     		bcc	.L9
 109              	.L11:
ARM GAS  C:\Users\DNIEL~1\AppData\Local\Temp\ccwv6SVt.s 			page 3


 110              		.loc 1 177 0
 111 000c 8B42     		cmp	r3, r1
 112 000e 2CBF     		ite	cs
 113 0010 0020     		movcs	r0, #0
 114              	.LVL2:
 115 0012 0120     		movcc	r0, #1
 116 0014 7047     		bx	lr
 117              	.LVL3:
 118              	.L5:
 119              		.loc 1 177 0 discriminator 2
 120 0016 8342     		cmp	r3, r0
 121 0018 F8D3     		bcc	.L11
 122              		.loc 1 177 0
 123 001a 0120     		movs	r0, #1
 124              	.LVL4:
 125              		.loc 1 179 0 is_stmt 1
 126 001c 7047     		bx	lr
 127              	.LVL5:
 128              	.L9:
 129              		.loc 1 177 0
 130 001e 0020     		movs	r0, #0
 131              	.LVL6:
 132 0020 7047     		bx	lr
 133              	.L14:
 134 0022 00BF     		.align	2
 135              	.L13:
 136 0024 001000E0 		.word	-536866816
 137              		.cfi_endproc
 138              	.LFE119:
 139              		.size	halIsCounterWithin, .-halIsCounterWithin
 140 0028 AFF30080 		.section	.text.halPolledDelay,"ax",%progbits
 140      AFF30080 
 141              		.align	2
 142              		.p2align 4,,15
 143              		.global	halPolledDelay
 144              		.thumb
 145              		.thumb_func
 146              		.type	halPolledDelay, %function
 147              	halPolledDelay:
 148              	.LFB120:
 149              		.loc 1 193 0
 150              		.cfi_startproc
 151              		@ args = 0, pretend = 0, frame = 0
 152              		@ frame_needed = 0, uses_anonymous_args = 0
 153              		@ link register save eliminated.
 154              	.LVL7:
 155              		.loc 1 194 0
 156 0000 084A     		ldr	r2, .L27
 157 0002 5368     		ldr	r3, [r2, #4]
 158              	.LVL8:
 159              		.loc 1 195 0
 160 0004 C018     		adds	r0, r0, r3
 161              	.LVL9:
 162              	.L25:
 163              	.LBB4:
 164              	.LBB5:
 165              		.loc 1 177 0 discriminator 1
ARM GAS  C:\Users\DNIEL~1\AppData\Local\Temp\ccwv6SVt.s 			page 4


 166 0006 8342     		cmp	r3, r0
 167              		.loc 1 175 0 discriminator 1
 168 0008 5168     		ldr	r1, [r2, #4]
 169              	.LVL10:
 170              		.loc 1 177 0 discriminator 1
 171 000a 02D2     		bcs	.L16
 172              		.loc 1 177 0 is_stmt 0
 173 000c 8B42     		cmp	r3, r1
 174 000e 02D9     		bls	.L26
 175 0010 7047     		bx	lr
 176              	.L16:
 177 0012 8B42     		cmp	r3, r1
 178 0014 F7D9     		bls	.L25
 179              	.L26:
 180 0016 8842     		cmp	r0, r1
 181 0018 94BF     		ite	ls
 182 001a 0021     		movls	r1, #0
 183              	.LVL11:
 184 001c 0121     		movhi	r1, #1
 185              	.LBE5:
 186              	.LBE4:
 187              		.loc 1 196 0 is_stmt 1
 188 001e 0029     		cmp	r1, #0
 189 0020 F1D1     		bne	.L25
 190 0022 7047     		bx	lr
 191              	.L28:
 192              		.align	2
 193              	.L27:
 194 0024 001000E0 		.word	-536866816
 195              		.cfi_endproc
 196              	.LFE120:
 197              		.size	halPolledDelay, .-halPolledDelay
 198 0028 AFF30080 		.text
 198      AFF30080 
 199              	.Letext0:
 200              		.section	.debug_loc,"",%progbits
 201              	.Ldebug_loc0:
 202              	.LLST0:
 203 0000 00000000 		.4byte	.LFB118
 204 0004 02000000 		.4byte	.LCFI0
 205 0008 0200     		.2byte	0x2
 206 000a 7D       		.byte	0x7d
 207 000b 00       		.sleb128 0
 208 000c 02000000 		.4byte	.LCFI0
 209 0010 48000000 		.4byte	.LFE118
 210 0014 0200     		.2byte	0x2
 211 0016 7D       		.byte	0x7d
 212 0017 08       		.sleb128 8
 213 0018 00000000 		.4byte	0x0
 214 001c 00000000 		.4byte	0x0
 215              	.LLST1:
 216 0020 00000000 		.4byte	.LVL0
 217 0024 12000000 		.4byte	.LVL2
 218 0028 0100     		.2byte	0x1
 219 002a 50       		.byte	0x50
 220 002b 16000000 		.4byte	.LVL3
 221 002f 1C000000 		.4byte	.LVL4
ARM GAS  C:\Users\DNIEL~1\AppData\Local\Temp\ccwv6SVt.s 			page 5


 222 0033 0100     		.2byte	0x1
 223 0035 50       		.byte	0x50
 224 0036 1E000000 		.4byte	.LVL5
 225 003a 20000000 		.4byte	.LVL6
 226 003e 0100     		.2byte	0x1
 227 0040 50       		.byte	0x50
 228 0041 00000000 		.4byte	0x0
 229 0045 00000000 		.4byte	0x0
 230              	.LLST2:
 231 0049 00000000 		.4byte	.LVL7
 232 004d 06000000 		.4byte	.LVL9
 233 0051 0100     		.2byte	0x1
 234 0053 50       		.byte	0x50
 235 0054 00000000 		.4byte	0x0
 236 0058 00000000 		.4byte	0x0
 237              	.LLST3:
 238 005c 0A000000 		.4byte	.LVL10
 239 0060 1C000000 		.4byte	.LVL11
 240 0064 0100     		.2byte	0x1
 241 0066 51       		.byte	0x51
 242 0067 00000000 		.4byte	0x0
 243 006b 00000000 		.4byte	0x0
 244              		.file 2 "c:\\program files (x86)\\codesourcery\\sourcery g++ lite\\bin\\../lib/gcc/arm-none-eabi/4
 245              		.file 3 "../../../ChibiOS/os/ports/GCC/ARMCMx/chtypes.h"
 246              		.file 4 "../../../ChibiOS/os/ports/common/ARMCMx/nvic.h"
 247              		.file 5 "../../../ChibiOS/os/hal/platforms/STM32F4xx/hal_lld.h"
 248              		.file 6 "../../../ChibiOS/os/hal/platforms/STM32/GPIOv2/pal_lld.h"
 249              		.file 7 "../../../ChibiOS/os/ports/common/ARMCMx/CMSIS/include/core_cm4.h"
 250              		.section	.debug_info
 251 0000 70030000 		.4byte	0x370
 252 0004 0200     		.2byte	0x2
 253 0006 00000000 		.4byte	.Ldebug_abbrev0
 254 000a 04       		.byte	0x4
 255 000b 01       		.uleb128 0x1
 256 000c 1B000000 		.4byte	.LASF45
 257 0010 01       		.byte	0x1
 258 0011 27000000 		.4byte	.LASF46
 259 0015 81010000 		.4byte	.LASF47
 260 0019 00000000 		.4byte	0x0
 261 001d 00000000 		.4byte	0x0
 262 0021 00000000 		.4byte	.Ldebug_ranges0+0x0
 263 0025 00000000 		.4byte	.Ldebug_line0
 264 0029 02       		.uleb128 0x2
 265 002a 04       		.byte	0x4
 266 002b 05       		.byte	0x5
 267 002c 696E7400 		.ascii	"int\000"
 268 0030 03       		.uleb128 0x3
 269 0031 04       		.byte	0x4
 270 0032 07       		.byte	0x7
 271 0033 6A000000 		.4byte	.LASF0
 272 0037 03       		.uleb128 0x3
 273 0038 01       		.byte	0x1
 274 0039 06       		.byte	0x6
 275 003a 08020000 		.4byte	.LASF1
 276 003e 03       		.uleb128 0x3
 277 003f 01       		.byte	0x1
 278 0040 08       		.byte	0x8
ARM GAS  C:\Users\DNIEL~1\AppData\Local\Temp\ccwv6SVt.s 			page 6


 279 0041 A3000000 		.4byte	.LASF2
 280 0045 03       		.uleb128 0x3
 281 0046 02       		.byte	0x2
 282 0047 05       		.byte	0x5
 283 0048 D7010000 		.4byte	.LASF3
 284 004c 03       		.uleb128 0x3
 285 004d 02       		.byte	0x2
 286 004e 07       		.byte	0x7
 287 004f 4F000000 		.4byte	.LASF4
 288 0053 04       		.uleb128 0x4
 289 0054 71010000 		.4byte	.LASF6
 290 0058 02       		.byte	0x2
 291 0059 4F       		.byte	0x4f
 292 005a 5E000000 		.4byte	0x5e
 293 005e 03       		.uleb128 0x3
 294 005f 04       		.byte	0x4
 295 0060 05       		.byte	0x5
 296 0061 F9010000 		.4byte	.LASF5
 297 0065 04       		.uleb128 0x4
 298 0066 F0010000 		.4byte	.LASF7
 299 006a 02       		.byte	0x2
 300 006b 50       		.byte	0x50
 301 006c 70000000 		.4byte	0x70
 302 0070 03       		.uleb128 0x3
 303 0071 04       		.byte	0x4
 304 0072 07       		.byte	0x7
 305 0073 CB000000 		.4byte	.LASF8
 306 0077 03       		.uleb128 0x3
 307 0078 08       		.byte	0x8
 308 0079 05       		.byte	0x5
 309 007a 00000000 		.4byte	.LASF9
 310 007e 03       		.uleb128 0x3
 311 007f 08       		.byte	0x8
 312 0080 07       		.byte	0x7
 313 0081 1A020000 		.4byte	.LASF10
 314 0085 04       		.uleb128 0x4
 315 0086 7E000000 		.4byte	.LASF11
 316 008a 03       		.byte	0x3
 317 008b 2B       		.byte	0x2b
 318 008c 90000000 		.4byte	0x90
 319 0090 03       		.uleb128 0x3
 320 0091 01       		.byte	0x1
 321 0092 02       		.byte	0x2
 322 0093 14020000 		.4byte	.LASF12
 323 0097 05       		.uleb128 0x5
 324 0098 70000000 		.4byte	0x70
 325 009c 06       		.uleb128 0x6
 326 009d 20       		.byte	0x20
 327 009e 04       		.byte	0x4
 328 009f 0601     		.2byte	0x106
 329 00a1 1E010000 		.4byte	0x11e
 330 00a5 07       		.uleb128 0x7
 331 00a6 52010000 		.4byte	.LASF13
 332 00aa 04       		.byte	0x4
 333 00ab 0701     		.2byte	0x107
 334 00ad 97000000 		.4byte	0x97
 335 00b1 02       		.byte	0x2
ARM GAS  C:\Users\DNIEL~1\AppData\Local\Temp\ccwv6SVt.s 			page 7


 336 00b2 23       		.byte	0x23
 337 00b3 00       		.uleb128 0x0
 338 00b4 07       		.uleb128 0x7
 339 00b5 22010000 		.4byte	.LASF14
 340 00b9 04       		.byte	0x4
 341 00ba 0801     		.2byte	0x108
 342 00bc 97000000 		.4byte	0x97
 343 00c0 02       		.byte	0x2
 344 00c1 23       		.byte	0x23
 345 00c2 04       		.uleb128 0x4
 346 00c3 07       		.uleb128 0x7
 347 00c4 E2000000 		.4byte	.LASF15
 348 00c8 04       		.byte	0x4
 349 00c9 0901     		.2byte	0x109
 350 00cb 97000000 		.4byte	0x97
 351 00cf 02       		.byte	0x2
 352 00d0 23       		.byte	0x23
 353 00d1 08       		.uleb128 0x8
 354 00d2 07       		.uleb128 0x7
 355 00d3 85000000 		.4byte	.LASF16
 356 00d7 04       		.byte	0x4
 357 00d8 0A01     		.2byte	0x10a
 358 00da 97000000 		.4byte	0x97
 359 00de 02       		.byte	0x2
 360 00df 23       		.byte	0x23
 361 00e0 0C       		.uleb128 0xc
 362 00e1 07       		.uleb128 0x7
 363 00e2 8C000000 		.4byte	.LASF17
 364 00e6 04       		.byte	0x4
 365 00e7 0B01     		.2byte	0x10b
 366 00e9 97000000 		.4byte	0x97
 367 00ed 02       		.byte	0x2
 368 00ee 23       		.byte	0x23
 369 00ef 10       		.uleb128 0x10
 370 00f0 07       		.uleb128 0x7
 371 00f1 1B010000 		.4byte	.LASF18
 372 00f5 04       		.byte	0x4
 373 00f6 0C01     		.2byte	0x10c
 374 00f8 97000000 		.4byte	0x97
 375 00fc 02       		.byte	0x2
 376 00fd 23       		.byte	0x23
 377 00fe 14       		.uleb128 0x14
 378 00ff 07       		.uleb128 0x7
 379 0100 F6000000 		.4byte	.LASF19
 380 0104 04       		.byte	0x4
 381 0105 0D01     		.2byte	0x10d
 382 0107 97000000 		.4byte	0x97
 383 010b 02       		.byte	0x2
 384 010c 23       		.byte	0x23
 385 010d 18       		.uleb128 0x18
 386 010e 07       		.uleb128 0x7
 387 010f BC010000 		.4byte	.LASF20
 388 0113 04       		.byte	0x4
 389 0114 0E01     		.2byte	0x10e
 390 0116 97000000 		.4byte	0x97
 391 011a 02       		.byte	0x2
 392 011b 23       		.byte	0x23
ARM GAS  C:\Users\DNIEL~1\AppData\Local\Temp\ccwv6SVt.s 			page 8


 393 011c 1C       		.uleb128 0x1c
 394 011d 00       		.byte	0x0
 395 011e 08       		.uleb128 0x8
 396 011f E8010000 		.4byte	.LASF21
 397 0123 04       		.byte	0x4
 398 0124 0F01     		.2byte	0x10f
 399 0126 9C000000 		.4byte	0x9c
 400 012a 03       		.uleb128 0x3
 401 012b 01       		.byte	0x1
 402 012c 08       		.byte	0x8
 403 012d 4D010000 		.4byte	.LASF22
 404 0131 05       		.uleb128 0x5
 405 0132 53000000 		.4byte	0x53
 406 0136 08       		.uleb128 0x8
 407 0137 42010000 		.4byte	.LASF23
 408 013b 05       		.byte	0x5
 409 013c C006     		.2byte	0x6c0
 410 013e 65000000 		.4byte	0x65
 411 0142 09       		.uleb128 0x9
 412 0143 1C       		.byte	0x1c
 413 0144 06       		.byte	0x6
 414 0145 A3       		.byte	0xa3
 415 0146 AD010000 		.4byte	0x1ad
 416 014a 0A       		.uleb128 0xa
 417 014b 02020000 		.4byte	.LASF24
 418 014f 06       		.byte	0x6
 419 0150 A5       		.byte	0xa5
 420 0151 65000000 		.4byte	0x65
 421 0155 02       		.byte	0x2
 422 0156 23       		.byte	0x23
 423 0157 00       		.uleb128 0x0
 424 0158 0A       		.uleb128 0xa
 425 0159 77000000 		.4byte	.LASF25
 426 015d 06       		.byte	0x6
 427 015e A7       		.byte	0xa7
 428 015f 65000000 		.4byte	0x65
 429 0163 02       		.byte	0x2
 430 0164 23       		.byte	0x23
 431 0165 04       		.uleb128 0x4
 432 0166 0A       		.uleb128 0xa
 433 0167 79010000 		.4byte	.LASF26
 434 016b 06       		.byte	0x6
 435 016c A9       		.byte	0xa9
 436 016d 65000000 		.4byte	0x65
 437 0171 02       		.byte	0x2
 438 0172 23       		.byte	0x23
 439 0173 08       		.uleb128 0x8
 440 0174 0A       		.uleb128 0xa
 441 0175 29010000 		.4byte	.LASF27
 442 0179 06       		.byte	0x6
 443 017a AB       		.byte	0xab
 444 017b 65000000 		.4byte	0x65
 445 017f 02       		.byte	0x2
 446 0180 23       		.byte	0x23
 447 0181 0C       		.uleb128 0xc
 448 0182 0B       		.uleb128 0xb
 449 0183 6F647200 		.ascii	"odr\000"
ARM GAS  C:\Users\DNIEL~1\AppData\Local\Temp\ccwv6SVt.s 			page 9


 450 0187 06       		.byte	0x6
 451 0188 AD       		.byte	0xad
 452 0189 65000000 		.4byte	0x65
 453 018d 02       		.byte	0x2
 454 018e 23       		.byte	0x23
 455 018f 10       		.uleb128 0x10
 456 0190 0A       		.uleb128 0xa
 457 0191 3D010000 		.4byte	.LASF28
 458 0195 06       		.byte	0x6
 459 0196 AF       		.byte	0xaf
 460 0197 65000000 		.4byte	0x65
 461 019b 02       		.byte	0x2
 462 019c 23       		.byte	0x23
 463 019d 14       		.uleb128 0x14
 464 019e 0A       		.uleb128 0xa
 465 019f DD000000 		.4byte	.LASF29
 466 01a3 06       		.byte	0x6
 467 01a4 B1       		.byte	0xb1
 468 01a5 65000000 		.4byte	0x65
 469 01a9 02       		.byte	0x2
 470 01aa 23       		.byte	0x23
 471 01ab 18       		.uleb128 0x18
 472 01ac 00       		.byte	0x0
 473 01ad 04       		.uleb128 0x4
 474 01ae B1000000 		.4byte	.LASF30
 475 01b2 06       		.byte	0x6
 476 01b3 B2       		.byte	0xb2
 477 01b4 42010000 		.4byte	0x142
 478 01b8 09       		.uleb128 0x9
 479 01b9 FC       		.byte	0xfc
 480 01ba 06       		.byte	0x6
 481 01bb BB       		.byte	0xbb
 482 01bc 43020000 		.4byte	0x243
 483 01c0 0A       		.uleb128 0xa
 484 01c1 C4000000 		.4byte	.LASF31
 485 01c5 06       		.byte	0x6
 486 01c6 BE       		.byte	0xbe
 487 01c7 AD010000 		.4byte	0x1ad
 488 01cb 02       		.byte	0x2
 489 01cc 23       		.byte	0x23
 490 01cd 00       		.uleb128 0x0
 491 01ce 0A       		.uleb128 0xa
 492 01cf 36010000 		.4byte	.LASF32
 493 01d3 06       		.byte	0x6
 494 01d4 C2       		.byte	0xc2
 495 01d5 AD010000 		.4byte	0x1ad
 496 01d9 02       		.byte	0x2
 497 01da 23       		.byte	0x23
 498 01db 1C       		.uleb128 0x1c
 499 01dc 0A       		.uleb128 0xa
 500 01dd E1010000 		.4byte	.LASF33
 501 01e1 06       		.byte	0x6
 502 01e2 C6       		.byte	0xc6
 503 01e3 AD010000 		.4byte	0x1ad
 504 01e7 02       		.byte	0x2
 505 01e8 23       		.byte	0x23
 506 01e9 38       		.uleb128 0x38
ARM GAS  C:\Users\DNIEL~1\AppData\Local\Temp\ccwv6SVt.s 			page 10


 507 01ea 0A       		.uleb128 0xa
 508 01eb 14000000 		.4byte	.LASF34
 509 01ef 06       		.byte	0x6
 510 01f0 CA       		.byte	0xca
 511 01f1 AD010000 		.4byte	0x1ad
 512 01f5 02       		.byte	0x2
 513 01f6 23       		.byte	0x23
 514 01f7 54       		.uleb128 0x54
 515 01f8 0A       		.uleb128 0xa
 516 01f9 9C000000 		.4byte	.LASF35
 517 01fd 06       		.byte	0x6
 518 01fe CE       		.byte	0xce
 519 01ff AD010000 		.4byte	0x1ad
 520 0203 02       		.byte	0x2
 521 0204 23       		.byte	0x23
 522 0205 70       		.uleb128 0x70
 523 0206 0A       		.uleb128 0xa
 524 0207 2F010000 		.4byte	.LASF36
 525 020b 06       		.byte	0x6
 526 020c D2       		.byte	0xd2
 527 020d AD010000 		.4byte	0x1ad
 528 0211 03       		.byte	0x3
 529 0212 23       		.byte	0x23
 530 0213 8C01     		.uleb128 0x8c
 531 0215 0A       		.uleb128 0xa
 532 0216 C1010000 		.4byte	.LASF37
 533 021a 06       		.byte	0x6
 534 021b D6       		.byte	0xd6
 535 021c AD010000 		.4byte	0x1ad
 536 0220 03       		.byte	0x3
 537 0221 23       		.byte	0x23
 538 0222 A801     		.uleb128 0xa8
 539 0224 0A       		.uleb128 0xa
 540 0225 6A010000 		.4byte	.LASF38
 541 0229 06       		.byte	0x6
 542 022a DA       		.byte	0xda
 543 022b AD010000 		.4byte	0x1ad
 544 022f 03       		.byte	0x3
 545 0230 23       		.byte	0x23
 546 0231 C401     		.uleb128 0xc4
 547 0233 0A       		.uleb128 0xa
 548 0234 95000000 		.4byte	.LASF39
 549 0238 06       		.byte	0x6
 550 0239 DE       		.byte	0xde
 551 023a AD010000 		.4byte	0x1ad
 552 023e 03       		.byte	0x3
 553 023f 23       		.byte	0x23
 554 0240 E001     		.uleb128 0xe0
 555 0242 00       		.byte	0x0
 556 0243 04       		.uleb128 0x4
 557 0244 FE000000 		.4byte	.LASF40
 558 0248 06       		.byte	0x6
 559 0249 E0       		.byte	0xe0
 560 024a B8010000 		.4byte	0x1b8
 561 024e 0C       		.uleb128 0xc
 562 024f 01       		.byte	0x1
 563 0250 57010000 		.4byte	.LASF48
ARM GAS  C:\Users\DNIEL~1\AppData\Local\Temp\ccwv6SVt.s 			page 11


 564 0254 01       		.byte	0x1
 565 0255 AE       		.byte	0xae
 566 0256 01       		.byte	0x1
 567 0257 85000000 		.4byte	0x85
 568 025b 01       		.byte	0x1
 569 025c 82020000 		.4byte	0x282
 570 0260 0D       		.uleb128 0xd
 571 0261 49000000 		.4byte	.LASF41
 572 0265 01       		.byte	0x1
 573 0266 AE       		.byte	0xae
 574 0267 36010000 		.4byte	0x136
 575 026b 0E       		.uleb128 0xe
 576 026c 656E6400 		.ascii	"end\000"
 577 0270 01       		.byte	0x1
 578 0271 AE       		.byte	0xae
 579 0272 36010000 		.4byte	0x136
 580 0276 0F       		.uleb128 0xf
 581 0277 6E6F7700 		.ascii	"now\000"
 582 027b 01       		.byte	0x1
 583 027c AF       		.byte	0xaf
 584 027d 36010000 		.4byte	0x136
 585 0281 00       		.byte	0x0
 586 0282 10       		.uleb128 0x10
 587 0283 01       		.byte	0x1
 588 0284 62000000 		.4byte	.LASF49
 589 0288 01       		.byte	0x1
 590 0289 44       		.byte	0x44
 591 028a 01       		.byte	0x1
 592 028b 00000000 		.4byte	.LFB118
 593 028f 48000000 		.4byte	.LFE118
 594 0293 00000000 		.4byte	.LLST0
 595 0297 11       		.uleb128 0x11
 596 0298 4E020000 		.4byte	0x24e
 597 029c 00000000 		.4byte	.LFB119
 598 02a0 28000000 		.4byte	.LFE119
 599 02a4 02       		.byte	0x2
 600 02a5 7D       		.byte	0x7d
 601 02a6 00       		.sleb128 0
 602 02a7 C3020000 		.4byte	0x2c3
 603 02ab 12       		.uleb128 0x12
 604 02ac 60020000 		.4byte	0x260
 605 02b0 20000000 		.4byte	.LLST1
 606 02b4 13       		.uleb128 0x13
 607 02b5 6B020000 		.4byte	0x26b
 608 02b9 01       		.byte	0x1
 609 02ba 51       		.byte	0x51
 610 02bb 14       		.uleb128 0x14
 611 02bc 76020000 		.4byte	0x276
 612 02c0 01       		.byte	0x1
 613 02c1 53       		.byte	0x53
 614 02c2 00       		.byte	0x0
 615 02c3 15       		.uleb128 0x15
 616 02c4 01       		.byte	0x1
 617 02c5 C8010000 		.4byte	.LASF50
 618 02c9 01       		.byte	0x1
 619 02ca C1       		.byte	0xc1
 620 02cb 01       		.byte	0x1
ARM GAS  C:\Users\DNIEL~1\AppData\Local\Temp\ccwv6SVt.s 			page 12


 621 02cc 00000000 		.4byte	.LFB120
 622 02d0 28000000 		.4byte	.LFE120
 623 02d4 02       		.byte	0x2
 624 02d5 7D       		.byte	0x7d
 625 02d6 00       		.sleb128 0
 626 02d7 36030000 		.4byte	0x336
 627 02db 16       		.uleb128 0x16
 628 02dc 0E000000 		.4byte	.LASF51
 629 02e0 01       		.byte	0x1
 630 02e1 C1       		.byte	0xc1
 631 02e2 36010000 		.4byte	0x136
 632 02e6 49000000 		.4byte	.LLST2
 633 02ea 17       		.uleb128 0x17
 634 02eb 49000000 		.4byte	.LASF41
 635 02ef 01       		.byte	0x1
 636 02f0 C2       		.byte	0xc2
 637 02f1 36010000 		.4byte	0x136
 638 02f5 01       		.byte	0x1
 639 02f6 53       		.byte	0x53
 640 02f7 17       		.uleb128 0x17
 641 02f8 B4010000 		.4byte	.LASF42
 642 02fc 01       		.byte	0x1
 643 02fd C3       		.byte	0xc3
 644 02fe 36010000 		.4byte	0x136
 645 0302 01       		.byte	0x1
 646 0303 50       		.byte	0x50
 647 0304 18       		.uleb128 0x18
 648 0305 4E020000 		.4byte	0x24e
 649 0309 06000000 		.4byte	.LBB4
 650 030d 1E000000 		.4byte	.LBE4
 651 0311 01       		.byte	0x1
 652 0312 C4       		.byte	0xc4
 653 0313 13       		.uleb128 0x13
 654 0314 6B020000 		.4byte	0x26b
 655 0318 01       		.byte	0x1
 656 0319 50       		.byte	0x50
 657 031a 13       		.uleb128 0x13
 658 031b 60020000 		.4byte	0x260
 659 031f 01       		.byte	0x1
 660 0320 53       		.byte	0x53
 661 0321 19       		.uleb128 0x19
 662 0322 06000000 		.4byte	.LBB5
 663 0326 1E000000 		.4byte	.LBE5
 664 032a 1A       		.uleb128 0x1a
 665 032b 76020000 		.4byte	0x276
 666 032f 5C000000 		.4byte	.LLST3
 667 0333 00       		.byte	0x0
 668 0334 00       		.byte	0x0
 669 0335 00       		.byte	0x0
 670 0336 1B       		.uleb128 0x1b
 671 0337 E9000000 		.4byte	.LASF43
 672 033b 07       		.byte	0x7
 673 033c 9806     		.2byte	0x698
 674 033e 31010000 		.4byte	0x131
 675 0342 01       		.byte	0x1
 676 0343 01       		.byte	0x1
 677 0344 1B       		.uleb128 0x1b
ARM GAS  C:\Users\DNIEL~1\AppData\Local\Temp\ccwv6SVt.s 			page 13


 678 0345 08010000 		.4byte	.LASF44
 679 0349 06       		.byte	0x6
 680 034a BC01     		.2byte	0x1bc
 681 034c 52030000 		.4byte	0x352
 682 0350 01       		.byte	0x1
 683 0351 01       		.byte	0x1
 684 0352 1C       		.uleb128 0x1c
 685 0353 43020000 		.4byte	0x243
 686 0357 1B       		.uleb128 0x1b
 687 0358 E9000000 		.4byte	.LASF43
 688 035c 07       		.byte	0x7
 689 035d 9806     		.2byte	0x698
 690 035f 31010000 		.4byte	0x131
 691 0363 01       		.byte	0x1
 692 0364 01       		.byte	0x1
 693 0365 1B       		.uleb128 0x1b
 694 0366 08010000 		.4byte	.LASF44
 695 036a 06       		.byte	0x6
 696 036b BC01     		.2byte	0x1bc
 697 036d 52030000 		.4byte	0x352
 698 0371 01       		.byte	0x1
 699 0372 01       		.byte	0x1
 700 0373 00       		.byte	0x0
 701              		.section	.debug_abbrev
 702 0000 01       		.uleb128 0x1
 703 0001 11       		.uleb128 0x11
 704 0002 01       		.byte	0x1
 705 0003 25       		.uleb128 0x25
 706 0004 0E       		.uleb128 0xe
 707 0005 13       		.uleb128 0x13
 708 0006 0B       		.uleb128 0xb
 709 0007 03       		.uleb128 0x3
 710 0008 0E       		.uleb128 0xe
 711 0009 1B       		.uleb128 0x1b
 712 000a 0E       		.uleb128 0xe
 713 000b 11       		.uleb128 0x11
 714 000c 01       		.uleb128 0x1
 715 000d 52       		.uleb128 0x52
 716 000e 01       		.uleb128 0x1
 717 000f 55       		.uleb128 0x55
 718 0010 06       		.uleb128 0x6
 719 0011 10       		.uleb128 0x10
 720 0012 06       		.uleb128 0x6
 721 0013 00       		.byte	0x0
 722 0014 00       		.byte	0x0
 723 0015 02       		.uleb128 0x2
 724 0016 24       		.uleb128 0x24
 725 0017 00       		.byte	0x0
 726 0018 0B       		.uleb128 0xb
 727 0019 0B       		.uleb128 0xb
 728 001a 3E       		.uleb128 0x3e
 729 001b 0B       		.uleb128 0xb
 730 001c 03       		.uleb128 0x3
 731 001d 08       		.uleb128 0x8
 732 001e 00       		.byte	0x0
 733 001f 00       		.byte	0x0
 734 0020 03       		.uleb128 0x3
ARM GAS  C:\Users\DNIEL~1\AppData\Local\Temp\ccwv6SVt.s 			page 14


 735 0021 24       		.uleb128 0x24
 736 0022 00       		.byte	0x0
 737 0023 0B       		.uleb128 0xb
 738 0024 0B       		.uleb128 0xb
 739 0025 3E       		.uleb128 0x3e
 740 0026 0B       		.uleb128 0xb
 741 0027 03       		.uleb128 0x3
 742 0028 0E       		.uleb128 0xe
 743 0029 00       		.byte	0x0
 744 002a 00       		.byte	0x0
 745 002b 04       		.uleb128 0x4
 746 002c 16       		.uleb128 0x16
 747 002d 00       		.byte	0x0
 748 002e 03       		.uleb128 0x3
 749 002f 0E       		.uleb128 0xe
 750 0030 3A       		.uleb128 0x3a
 751 0031 0B       		.uleb128 0xb
 752 0032 3B       		.uleb128 0x3b
 753 0033 0B       		.uleb128 0xb
 754 0034 49       		.uleb128 0x49
 755 0035 13       		.uleb128 0x13
 756 0036 00       		.byte	0x0
 757 0037 00       		.byte	0x0
 758 0038 05       		.uleb128 0x5
 759 0039 35       		.uleb128 0x35
 760 003a 00       		.byte	0x0
 761 003b 49       		.uleb128 0x49
 762 003c 13       		.uleb128 0x13
 763 003d 00       		.byte	0x0
 764 003e 00       		.byte	0x0
 765 003f 06       		.uleb128 0x6
 766 0040 13       		.uleb128 0x13
 767 0041 01       		.byte	0x1
 768 0042 0B       		.uleb128 0xb
 769 0043 0B       		.uleb128 0xb
 770 0044 3A       		.uleb128 0x3a
 771 0045 0B       		.uleb128 0xb
 772 0046 3B       		.uleb128 0x3b
 773 0047 05       		.uleb128 0x5
 774 0048 01       		.uleb128 0x1
 775 0049 13       		.uleb128 0x13
 776 004a 00       		.byte	0x0
 777 004b 00       		.byte	0x0
 778 004c 07       		.uleb128 0x7
 779 004d 0D       		.uleb128 0xd
 780 004e 00       		.byte	0x0
 781 004f 03       		.uleb128 0x3
 782 0050 0E       		.uleb128 0xe
 783 0051 3A       		.uleb128 0x3a
 784 0052 0B       		.uleb128 0xb
 785 0053 3B       		.uleb128 0x3b
 786 0054 05       		.uleb128 0x5
 787 0055 49       		.uleb128 0x49
 788 0056 13       		.uleb128 0x13
 789 0057 38       		.uleb128 0x38
 790 0058 0A       		.uleb128 0xa
 791 0059 00       		.byte	0x0
ARM GAS  C:\Users\DNIEL~1\AppData\Local\Temp\ccwv6SVt.s 			page 15


 792 005a 00       		.byte	0x0
 793 005b 08       		.uleb128 0x8
 794 005c 16       		.uleb128 0x16
 795 005d 00       		.byte	0x0
 796 005e 03       		.uleb128 0x3
 797 005f 0E       		.uleb128 0xe
 798 0060 3A       		.uleb128 0x3a
 799 0061 0B       		.uleb128 0xb
 800 0062 3B       		.uleb128 0x3b
 801 0063 05       		.uleb128 0x5
 802 0064 49       		.uleb128 0x49
 803 0065 13       		.uleb128 0x13
 804 0066 00       		.byte	0x0
 805 0067 00       		.byte	0x0
 806 0068 09       		.uleb128 0x9
 807 0069 13       		.uleb128 0x13
 808 006a 01       		.byte	0x1
 809 006b 0B       		.uleb128 0xb
 810 006c 0B       		.uleb128 0xb
 811 006d 3A       		.uleb128 0x3a
 812 006e 0B       		.uleb128 0xb
 813 006f 3B       		.uleb128 0x3b
 814 0070 0B       		.uleb128 0xb
 815 0071 01       		.uleb128 0x1
 816 0072 13       		.uleb128 0x13
 817 0073 00       		.byte	0x0
 818 0074 00       		.byte	0x0
 819 0075 0A       		.uleb128 0xa
 820 0076 0D       		.uleb128 0xd
 821 0077 00       		.byte	0x0
 822 0078 03       		.uleb128 0x3
 823 0079 0E       		.uleb128 0xe
 824 007a 3A       		.uleb128 0x3a
 825 007b 0B       		.uleb128 0xb
 826 007c 3B       		.uleb128 0x3b
 827 007d 0B       		.uleb128 0xb
 828 007e 49       		.uleb128 0x49
 829 007f 13       		.uleb128 0x13
 830 0080 38       		.uleb128 0x38
 831 0081 0A       		.uleb128 0xa
 832 0082 00       		.byte	0x0
 833 0083 00       		.byte	0x0
 834 0084 0B       		.uleb128 0xb
 835 0085 0D       		.uleb128 0xd
 836 0086 00       		.byte	0x0
 837 0087 03       		.uleb128 0x3
 838 0088 08       		.uleb128 0x8
 839 0089 3A       		.uleb128 0x3a
 840 008a 0B       		.uleb128 0xb
 841 008b 3B       		.uleb128 0x3b
 842 008c 0B       		.uleb128 0xb
 843 008d 49       		.uleb128 0x49
 844 008e 13       		.uleb128 0x13
 845 008f 38       		.uleb128 0x38
 846 0090 0A       		.uleb128 0xa
 847 0091 00       		.byte	0x0
 848 0092 00       		.byte	0x0
ARM GAS  C:\Users\DNIEL~1\AppData\Local\Temp\ccwv6SVt.s 			page 16


 849 0093 0C       		.uleb128 0xc
 850 0094 2E       		.uleb128 0x2e
 851 0095 01       		.byte	0x1
 852 0096 3F       		.uleb128 0x3f
 853 0097 0C       		.uleb128 0xc
 854 0098 03       		.uleb128 0x3
 855 0099 0E       		.uleb128 0xe
 856 009a 3A       		.uleb128 0x3a
 857 009b 0B       		.uleb128 0xb
 858 009c 3B       		.uleb128 0x3b
 859 009d 0B       		.uleb128 0xb
 860 009e 27       		.uleb128 0x27
 861 009f 0C       		.uleb128 0xc
 862 00a0 49       		.uleb128 0x49
 863 00a1 13       		.uleb128 0x13
 864 00a2 20       		.uleb128 0x20
 865 00a3 0B       		.uleb128 0xb
 866 00a4 01       		.uleb128 0x1
 867 00a5 13       		.uleb128 0x13
 868 00a6 00       		.byte	0x0
 869 00a7 00       		.byte	0x0
 870 00a8 0D       		.uleb128 0xd
 871 00a9 05       		.uleb128 0x5
 872 00aa 00       		.byte	0x0
 873 00ab 03       		.uleb128 0x3
 874 00ac 0E       		.uleb128 0xe
 875 00ad 3A       		.uleb128 0x3a
 876 00ae 0B       		.uleb128 0xb
 877 00af 3B       		.uleb128 0x3b
 878 00b0 0B       		.uleb128 0xb
 879 00b1 49       		.uleb128 0x49
 880 00b2 13       		.uleb128 0x13
 881 00b3 00       		.byte	0x0
 882 00b4 00       		.byte	0x0
 883 00b5 0E       		.uleb128 0xe
 884 00b6 05       		.uleb128 0x5
 885 00b7 00       		.byte	0x0
 886 00b8 03       		.uleb128 0x3
 887 00b9 08       		.uleb128 0x8
 888 00ba 3A       		.uleb128 0x3a
 889 00bb 0B       		.uleb128 0xb
 890 00bc 3B       		.uleb128 0x3b
 891 00bd 0B       		.uleb128 0xb
 892 00be 49       		.uleb128 0x49
 893 00bf 13       		.uleb128 0x13
 894 00c0 00       		.byte	0x0
 895 00c1 00       		.byte	0x0
 896 00c2 0F       		.uleb128 0xf
 897 00c3 34       		.uleb128 0x34
 898 00c4 00       		.byte	0x0
 899 00c5 03       		.uleb128 0x3
 900 00c6 08       		.uleb128 0x8
 901 00c7 3A       		.uleb128 0x3a
 902 00c8 0B       		.uleb128 0xb
 903 00c9 3B       		.uleb128 0x3b
 904 00ca 0B       		.uleb128 0xb
 905 00cb 49       		.uleb128 0x49
ARM GAS  C:\Users\DNIEL~1\AppData\Local\Temp\ccwv6SVt.s 			page 17


 906 00cc 13       		.uleb128 0x13
 907 00cd 00       		.byte	0x0
 908 00ce 00       		.byte	0x0
 909 00cf 10       		.uleb128 0x10
 910 00d0 2E       		.uleb128 0x2e
 911 00d1 00       		.byte	0x0
 912 00d2 3F       		.uleb128 0x3f
 913 00d3 0C       		.uleb128 0xc
 914 00d4 03       		.uleb128 0x3
 915 00d5 0E       		.uleb128 0xe
 916 00d6 3A       		.uleb128 0x3a
 917 00d7 0B       		.uleb128 0xb
 918 00d8 3B       		.uleb128 0x3b
 919 00d9 0B       		.uleb128 0xb
 920 00da 27       		.uleb128 0x27
 921 00db 0C       		.uleb128 0xc
 922 00dc 11       		.uleb128 0x11
 923 00dd 01       		.uleb128 0x1
 924 00de 12       		.uleb128 0x12
 925 00df 01       		.uleb128 0x1
 926 00e0 40       		.uleb128 0x40
 927 00e1 06       		.uleb128 0x6
 928 00e2 00       		.byte	0x0
 929 00e3 00       		.byte	0x0
 930 00e4 11       		.uleb128 0x11
 931 00e5 2E       		.uleb128 0x2e
 932 00e6 01       		.byte	0x1
 933 00e7 31       		.uleb128 0x31
 934 00e8 13       		.uleb128 0x13
 935 00e9 11       		.uleb128 0x11
 936 00ea 01       		.uleb128 0x1
 937 00eb 12       		.uleb128 0x12
 938 00ec 01       		.uleb128 0x1
 939 00ed 40       		.uleb128 0x40
 940 00ee 0A       		.uleb128 0xa
 941 00ef 01       		.uleb128 0x1
 942 00f0 13       		.uleb128 0x13
 943 00f1 00       		.byte	0x0
 944 00f2 00       		.byte	0x0
 945 00f3 12       		.uleb128 0x12
 946 00f4 05       		.uleb128 0x5
 947 00f5 00       		.byte	0x0
 948 00f6 31       		.uleb128 0x31
 949 00f7 13       		.uleb128 0x13
 950 00f8 02       		.uleb128 0x2
 951 00f9 06       		.uleb128 0x6
 952 00fa 00       		.byte	0x0
 953 00fb 00       		.byte	0x0
 954 00fc 13       		.uleb128 0x13
 955 00fd 05       		.uleb128 0x5
 956 00fe 00       		.byte	0x0
 957 00ff 31       		.uleb128 0x31
 958 0100 13       		.uleb128 0x13
 959 0101 02       		.uleb128 0x2
 960 0102 0A       		.uleb128 0xa
 961 0103 00       		.byte	0x0
 962 0104 00       		.byte	0x0
ARM GAS  C:\Users\DNIEL~1\AppData\Local\Temp\ccwv6SVt.s 			page 18


 963 0105 14       		.uleb128 0x14
 964 0106 34       		.uleb128 0x34
 965 0107 00       		.byte	0x0
 966 0108 31       		.uleb128 0x31
 967 0109 13       		.uleb128 0x13
 968 010a 02       		.uleb128 0x2
 969 010b 0A       		.uleb128 0xa
 970 010c 00       		.byte	0x0
 971 010d 00       		.byte	0x0
 972 010e 15       		.uleb128 0x15
 973 010f 2E       		.uleb128 0x2e
 974 0110 01       		.byte	0x1
 975 0111 3F       		.uleb128 0x3f
 976 0112 0C       		.uleb128 0xc
 977 0113 03       		.uleb128 0x3
 978 0114 0E       		.uleb128 0xe
 979 0115 3A       		.uleb128 0x3a
 980 0116 0B       		.uleb128 0xb
 981 0117 3B       		.uleb128 0x3b
 982 0118 0B       		.uleb128 0xb
 983 0119 27       		.uleb128 0x27
 984 011a 0C       		.uleb128 0xc
 985 011b 11       		.uleb128 0x11
 986 011c 01       		.uleb128 0x1
 987 011d 12       		.uleb128 0x12
 988 011e 01       		.uleb128 0x1
 989 011f 40       		.uleb128 0x40
 990 0120 0A       		.uleb128 0xa
 991 0121 01       		.uleb128 0x1
 992 0122 13       		.uleb128 0x13
 993 0123 00       		.byte	0x0
 994 0124 00       		.byte	0x0
 995 0125 16       		.uleb128 0x16
 996 0126 05       		.uleb128 0x5
 997 0127 00       		.byte	0x0
 998 0128 03       		.uleb128 0x3
 999 0129 0E       		.uleb128 0xe
 1000 012a 3A       		.uleb128 0x3a
 1001 012b 0B       		.uleb128 0xb
 1002 012c 3B       		.uleb128 0x3b
 1003 012d 0B       		.uleb128 0xb
 1004 012e 49       		.uleb128 0x49
 1005 012f 13       		.uleb128 0x13
 1006 0130 02       		.uleb128 0x2
 1007 0131 06       		.uleb128 0x6
 1008 0132 00       		.byte	0x0
 1009 0133 00       		.byte	0x0
 1010 0134 17       		.uleb128 0x17
 1011 0135 34       		.uleb128 0x34
 1012 0136 00       		.byte	0x0
 1013 0137 03       		.uleb128 0x3
 1014 0138 0E       		.uleb128 0xe
 1015 0139 3A       		.uleb128 0x3a
 1016 013a 0B       		.uleb128 0xb
 1017 013b 3B       		.uleb128 0x3b
 1018 013c 0B       		.uleb128 0xb
 1019 013d 49       		.uleb128 0x49
ARM GAS  C:\Users\DNIEL~1\AppData\Local\Temp\ccwv6SVt.s 			page 19


 1020 013e 13       		.uleb128 0x13
 1021 013f 02       		.uleb128 0x2
 1022 0140 0A       		.uleb128 0xa
 1023 0141 00       		.byte	0x0
 1024 0142 00       		.byte	0x0
 1025 0143 18       		.uleb128 0x18
 1026 0144 1D       		.uleb128 0x1d
 1027 0145 01       		.byte	0x1
 1028 0146 31       		.uleb128 0x31
 1029 0147 13       		.uleb128 0x13
 1030 0148 11       		.uleb128 0x11
 1031 0149 01       		.uleb128 0x1
 1032 014a 12       		.uleb128 0x12
 1033 014b 01       		.uleb128 0x1
 1034 014c 58       		.uleb128 0x58
 1035 014d 0B       		.uleb128 0xb
 1036 014e 59       		.uleb128 0x59
 1037 014f 0B       		.uleb128 0xb
 1038 0150 00       		.byte	0x0
 1039 0151 00       		.byte	0x0
 1040 0152 19       		.uleb128 0x19
 1041 0153 0B       		.uleb128 0xb
 1042 0154 01       		.byte	0x1
 1043 0155 11       		.uleb128 0x11
 1044 0156 01       		.uleb128 0x1
 1045 0157 12       		.uleb128 0x12
 1046 0158 01       		.uleb128 0x1
 1047 0159 00       		.byte	0x0
 1048 015a 00       		.byte	0x0
 1049 015b 1A       		.uleb128 0x1a
 1050 015c 34       		.uleb128 0x34
 1051 015d 00       		.byte	0x0
 1052 015e 31       		.uleb128 0x31
 1053 015f 13       		.uleb128 0x13
 1054 0160 02       		.uleb128 0x2
 1055 0161 06       		.uleb128 0x6
 1056 0162 00       		.byte	0x0
 1057 0163 00       		.byte	0x0
 1058 0164 1B       		.uleb128 0x1b
 1059 0165 34       		.uleb128 0x34
 1060 0166 00       		.byte	0x0
 1061 0167 03       		.uleb128 0x3
 1062 0168 0E       		.uleb128 0xe
 1063 0169 3A       		.uleb128 0x3a
 1064 016a 0B       		.uleb128 0xb
 1065 016b 3B       		.uleb128 0x3b
 1066 016c 05       		.uleb128 0x5
 1067 016d 49       		.uleb128 0x49
 1068 016e 13       		.uleb128 0x13
 1069 016f 3F       		.uleb128 0x3f
 1070 0170 0C       		.uleb128 0xc
 1071 0171 3C       		.uleb128 0x3c
 1072 0172 0C       		.uleb128 0xc
 1073 0173 00       		.byte	0x0
 1074 0174 00       		.byte	0x0
 1075 0175 1C       		.uleb128 0x1c
 1076 0176 26       		.uleb128 0x26
ARM GAS  C:\Users\DNIEL~1\AppData\Local\Temp\ccwv6SVt.s 			page 20


 1077 0177 00       		.byte	0x0
 1078 0178 49       		.uleb128 0x49
 1079 0179 13       		.uleb128 0x13
 1080 017a 00       		.byte	0x0
 1081 017b 00       		.byte	0x0
 1082 017c 00       		.byte	0x0
 1083              		.section	.debug_pubnames,"",%progbits
 1084 0000 44000000 		.4byte	0x44
 1085 0004 0200     		.2byte	0x2
 1086 0006 00000000 		.4byte	.Ldebug_info0
 1087 000a 74030000 		.4byte	0x374
 1088 000e 82020000 		.4byte	0x282
 1089 0012 68616C49 		.ascii	"halInit\000"
 1089      6E697400 
 1090 001a 97020000 		.4byte	0x297
 1091 001e 68616C49 		.ascii	"halIsCounterWithin\000"
 1091      73436F75 
 1091      6E746572 
 1091      57697468 
 1091      696E00
 1092 0031 C3020000 		.4byte	0x2c3
 1093 0035 68616C50 		.ascii	"halPolledDelay\000"
 1093      6F6C6C65 
 1093      6444656C 
 1093      617900
 1094 0044 00000000 		.4byte	0x0
 1095              		.section	.debug_pubtypes,"",%progbits
 1096 0000 72000000 		.4byte	0x72
 1097 0004 0200     		.2byte	0x2
 1098 0006 00000000 		.4byte	.Ldebug_info0
 1099 000a 74030000 		.4byte	0x374
 1100 000e 53000000 		.4byte	0x53
 1101 0012 696E7433 		.ascii	"int32_t\000"
 1101      325F7400 
 1102 001a 65000000 		.4byte	0x65
 1103 001e 75696E74 		.ascii	"uint32_t\000"
 1103      33325F74 
 1103      00
 1104 0027 85000000 		.4byte	0x85
 1105 002b 626F6F6C 		.ascii	"bool_t\000"
 1105      5F7400
 1106 0032 1E010000 		.4byte	0x11e
 1107 0036 434D785F 		.ascii	"CMx_DWT\000"
 1107      44575400 
 1108 003e 36010000 		.4byte	0x136
 1109 0042 68616C72 		.ascii	"halrtcnt_t\000"
 1109      74636E74 
 1109      5F7400
 1110 004d AD010000 		.4byte	0x1ad
 1111 0051 73746D33 		.ascii	"stm32_gpio_setup_t\000"
 1111      325F6770 
 1111      696F5F73 
 1111      65747570 
 1111      5F7400
 1112 0064 43020000 		.4byte	0x243
 1113 0068 50414C43 		.ascii	"PALConfig\000"
 1113      6F6E6669 
ARM GAS  C:\Users\DNIEL~1\AppData\Local\Temp\ccwv6SVt.s 			page 21


 1113      6700
 1114 0072 00000000 		.4byte	0x0
 1115              		.section	.debug_aranges,"",%progbits
 1116 0000 2C000000 		.4byte	0x2c
 1117 0004 0200     		.2byte	0x2
 1118 0006 00000000 		.4byte	.Ldebug_info0
 1119 000a 04       		.byte	0x4
 1120 000b 00       		.byte	0x0
 1121 000c 0000     		.2byte	0x0
 1122 000e 0000     		.2byte	0x0
 1123 0010 00000000 		.4byte	.LFB118
 1124 0014 48000000 		.4byte	.LFE118-.LFB118
 1125 0018 00000000 		.4byte	.LFB119
 1126 001c 28000000 		.4byte	.LFE119-.LFB119
 1127 0020 00000000 		.4byte	.LFB120
 1128 0024 28000000 		.4byte	.LFE120-.LFB120
 1129 0028 00000000 		.4byte	0x0
 1130 002c 00000000 		.4byte	0x0
 1131              		.section	.debug_ranges,"",%progbits
 1132              	.Ldebug_ranges0:
 1133 0000 00000000 		.4byte	.LFB118
 1134 0004 48000000 		.4byte	.LFE118
 1135 0008 00000000 		.4byte	.LFB119
 1136 000c 28000000 		.4byte	.LFE119
 1137 0010 00000000 		.4byte	.LFB120
 1138 0014 28000000 		.4byte	.LFE120
 1139 0018 00000000 		.4byte	0x0
 1140 001c 00000000 		.4byte	0x0
 1141              		.section	.debug_str,"MS",%progbits,1
 1142              	.LASF9:
 1143 0000 6C6F6E67 		.ascii	"long long int\000"
 1143      206C6F6E 
 1143      6720696E 
 1143      7400
 1144              	.LASF51:
 1145 000e 7469636B 		.ascii	"ticks\000"
 1145      7300
 1146              	.LASF34:
 1147 0014 50444461 		.ascii	"PDData\000"
 1147      746100
 1148              	.LASF45:
 1149 001b 474E5520 		.ascii	"GNU C 4.5.2\000"
 1149      4320342E 
 1149      352E3200 
 1150              	.LASF46:
 1151 0027 2E2E2F2E 		.ascii	"../../../ChibiOS/os/hal/src/hal.c\000"
 1151      2E2F2E2E 
 1151      2F436869 
 1151      62694F53 
 1151      2F6F732F 
 1152              	.LASF41:
 1153 0049 73746172 		.ascii	"start\000"
 1153      7400
 1154              	.LASF4:
 1155 004f 73686F72 		.ascii	"short unsigned int\000"
 1155      7420756E 
 1155      7369676E 
ARM GAS  C:\Users\DNIEL~1\AppData\Local\Temp\ccwv6SVt.s 			page 22


 1155      65642069 
 1155      6E7400
 1156              	.LASF49:
 1157 0062 68616C49 		.ascii	"halInit\000"
 1157      6E697400 
 1158              	.LASF0:
 1159 006a 756E7369 		.ascii	"unsigned int\000"
 1159      676E6564 
 1159      20696E74 
 1159      00
 1160              	.LASF25:
 1161 0077 6F747970 		.ascii	"otyper\000"
 1161      657200
 1162              	.LASF11:
 1163 007e 626F6F6C 		.ascii	"bool_t\000"
 1163      5F7400
 1164              	.LASF16:
 1165 0085 45584343 		.ascii	"EXCCNT\000"
 1165      4E5400
 1166              	.LASF17:
 1167 008c 534C4545 		.ascii	"SLEEPCNT\000"
 1167      50434E54 
 1167      00
 1168              	.LASF39:
 1169 0095 50494461 		.ascii	"PIData\000"
 1169      746100
 1170              	.LASF35:
 1171 009c 50454461 		.ascii	"PEData\000"
 1171      746100
 1172              	.LASF2:
 1173 00a3 756E7369 		.ascii	"unsigned char\000"
 1173      676E6564 
 1173      20636861 
 1173      7200
 1174              	.LASF30:
 1175 00b1 73746D33 		.ascii	"stm32_gpio_setup_t\000"
 1175      325F6770 
 1175      696F5F73 
 1175      65747570 
 1175      5F7400
 1176              	.LASF31:
 1177 00c4 50414461 		.ascii	"PAData\000"
 1177      746100
 1178              	.LASF8:
 1179 00cb 6C6F6E67 		.ascii	"long unsigned int\000"
 1179      20756E73 
 1179      69676E65 
 1179      6420696E 
 1179      7400
 1180              	.LASF29:
 1181 00dd 61667268 		.ascii	"afrh\000"
 1181      00
 1182              	.LASF15:
 1183 00e2 43504943 		.ascii	"CPICNT\000"
 1183      4E5400
 1184              	.LASF43:
 1185 00e9 49544D5F 		.ascii	"ITM_RxBuffer\000"
ARM GAS  C:\Users\DNIEL~1\AppData\Local\Temp\ccwv6SVt.s 			page 23


 1185      52784275 
 1185      66666572 
 1185      00
 1186              	.LASF19:
 1187 00f6 464F4C44 		.ascii	"FOLDCNT\000"
 1187      434E5400 
 1188              	.LASF40:
 1189 00fe 50414C43 		.ascii	"PALConfig\000"
 1189      6F6E6669 
 1189      6700
 1190              	.LASF44:
 1191 0108 70616C5F 		.ascii	"pal_default_config\000"
 1191      64656661 
 1191      756C745F 
 1191      636F6E66 
 1191      696700
 1192              	.LASF18:
 1193 011b 4C535543 		.ascii	"LSUCNT\000"
 1193      4E5400
 1194              	.LASF14:
 1195 0122 43594343 		.ascii	"CYCCNT\000"
 1195      4E5400
 1196              	.LASF27:
 1197 0129 70757064 		.ascii	"pupdr\000"
 1197      7200
 1198              	.LASF36:
 1199 012f 50464461 		.ascii	"PFData\000"
 1199      746100
 1200              	.LASF32:
 1201 0136 50424461 		.ascii	"PBData\000"
 1201      746100
 1202              	.LASF28:
 1203 013d 6166726C 		.ascii	"afrl\000"
 1203      00
 1204              	.LASF23:
 1205 0142 68616C72 		.ascii	"halrtcnt_t\000"
 1205      74636E74 
 1205      5F7400
 1206              	.LASF22:
 1207 014d 63686172 		.ascii	"char\000"
 1207      00
 1208              	.LASF13:
 1209 0152 4354524C 		.ascii	"CTRL\000"
 1209      00
 1210              	.LASF48:
 1211 0157 68616C49 		.ascii	"halIsCounterWithin\000"
 1211      73436F75 
 1211      6E746572 
 1211      57697468 
 1211      696E00
 1212              	.LASF38:
 1213 016a 50484461 		.ascii	"PHData\000"
 1213      746100
 1214              	.LASF6:
 1215 0171 696E7433 		.ascii	"int32_t\000"
 1215      325F7400 
 1216              	.LASF26:
ARM GAS  C:\Users\DNIEL~1\AppData\Local\Temp\ccwv6SVt.s 			page 24


 1217 0179 6F737065 		.ascii	"ospeedr\000"
 1217      65647200 
 1218              	.LASF47:
 1219 0181 433A5C44 		.ascii	"C:\\Dani\\MegaLux\\Repo\\Smarty\\Smarty\\smarty\\fi"
 1219      616E695C 
 1219      4D656761 
 1219      4C75785C 
 1219      5265706F 
 1220 01ad 726D7761 		.ascii	"rmware\000"
 1220      726500
 1221              	.LASF42:
 1222 01b4 74696D65 		.ascii	"timeout\000"
 1222      6F757400 
 1223              	.LASF20:
 1224 01bc 50435352 		.ascii	"PCSR\000"
 1224      00
 1225              	.LASF37:
 1226 01c1 50474461 		.ascii	"PGData\000"
 1226      746100
 1227              	.LASF50:
 1228 01c8 68616C50 		.ascii	"halPolledDelay\000"
 1228      6F6C6C65 
 1228      6444656C 
 1228      617900
 1229              	.LASF3:
 1230 01d7 73686F72 		.ascii	"short int\000"
 1230      7420696E 
 1230      7400
 1231              	.LASF33:
 1232 01e1 50434461 		.ascii	"PCData\000"
 1232      746100
 1233              	.LASF21:
 1234 01e8 434D785F 		.ascii	"CMx_DWT\000"
 1234      44575400 
 1235              	.LASF7:
 1236 01f0 75696E74 		.ascii	"uint32_t\000"
 1236      33325F74 
 1236      00
 1237              	.LASF5:
 1238 01f9 6C6F6E67 		.ascii	"long int\000"
 1238      20696E74 
 1238      00
 1239              	.LASF24:
 1240 0202 6D6F6465 		.ascii	"moder\000"
 1240      7200
 1241              	.LASF1:
 1242 0208 7369676E 		.ascii	"signed char\000"
 1242      65642063 
 1242      68617200 
 1243              	.LASF12:
 1244 0214 5F426F6F 		.ascii	"_Bool\000"
 1244      6C00
 1245              	.LASF10:
 1246 021a 6C6F6E67 		.ascii	"long long unsigned int\000"
 1246      206C6F6E 
 1246      6720756E 
 1246      7369676E 
ARM GAS  C:\Users\DNIEL~1\AppData\Local\Temp\ccwv6SVt.s 			page 25


 1246      65642069 
 1247              		.ident	"GCC: (Sourcery G++ Lite 2011.03-42) 4.5.2"
ARM GAS  C:\Users\DNIEL~1\AppData\Local\Temp\ccwv6SVt.s 			page 26


DEFINED SYMBOLS
                            *ABS*:00000000 hal.c
C:\Users\DNIEL~1\AppData\Local\Temp\ccwv6SVt.s:24     .text.halInit:00000000 $t
C:\Users\DNIEL~1\AppData\Local\Temp\ccwv6SVt.s:30     .text.halInit:00000000 halInit
C:\Users\DNIEL~1\AppData\Local\Temp\ccwv6SVt.s:78     .text.halInit:00000044 $d
C:\Users\DNIEL~1\AppData\Local\Temp\ccwv6SVt.s:83     .text.halIsCounterWithin:00000000 $t
C:\Users\DNIEL~1\AppData\Local\Temp\ccwv6SVt.s:89     .text.halIsCounterWithin:00000000 halIsCounterWithin
C:\Users\DNIEL~1\AppData\Local\Temp\ccwv6SVt.s:136    .text.halIsCounterWithin:00000024 $d
C:\Users\DNIEL~1\AppData\Local\Temp\ccwv6SVt.s:141    .text.halPolledDelay:00000000 $t
C:\Users\DNIEL~1\AppData\Local\Temp\ccwv6SVt.s:147    .text.halPolledDelay:00000000 halPolledDelay
C:\Users\DNIEL~1\AppData\Local\Temp\ccwv6SVt.s:194    .text.halPolledDelay:00000024 $d
                     .debug_frame:00000010 $d
C:\Users\DNIEL~1\AppData\Local\Temp\ccwv6SVt.s:82     .text.halInit:00000048 $t
C:\Users\DNIEL~1\AppData\Local\Temp\ccwv6SVt.s:140    .text.halIsCounterWithin:00000028 $t
C:\Users\DNIEL~1\AppData\Local\Temp\ccwv6SVt.s:198    .text.halPolledDelay:00000028 $t

UNDEFINED SYMBOLS
hal_lld_init
tmInit
_pal_lld_init
adcInit
canInit
i2cInit
icuInit
pwmInit
sdInit
sdcInit
spiInit
usbInit
sduInit
rtcInit
boardInit
pal_default_config
