ARM GAS  C:\Users\DNIEL~1\AppData\Local\Temp\cc4wkf7C.s 			page 1


   1              		.syntax unified
   2              		.cpu cortex-m4
   3              		.fpu softvfp
   4              		.eabi_attribute 20, 1
   5              		.eabi_attribute 21, 1
   6              		.eabi_attribute 23, 3
   7              		.eabi_attribute 24, 1
   8              		.eabi_attribute 25, 1
   9              		.eabi_attribute 26, 1
  10              		.eabi_attribute 30, 2
  11              		.eabi_attribute 34, 1
  12              		.eabi_attribute 18, 4
  13              		.thumb
  14              		.file	"i2c.c"
  15              		.text
  16              	.Ltext0:
  17              		.cfi_sections	.debug_frame
  18              		.section	.text.i2cInit,"ax",%progbits
  19              		.align	2
  20              		.p2align 4,,15
  21              		.global	i2cInit
  22              		.thumb
  23              		.thumb_func
  24              		.type	i2cInit, %function
  25              	i2cInit:
  26              	.LFB118:
  27              		.file 1 "../../../ChibiOS/os/hal/src/i2c.c"
  28              		.loc 1 71 0
  29              		.cfi_startproc
  30              		@ args = 0, pretend = 0, frame = 0
  31              		@ frame_needed = 0, uses_anonymous_args = 0
  32              		@ link register save eliminated.
  33              		.loc 1 73 0
  34              		.loc 1 72 0
  35 0000 FFF7FEBF 		b	i2c_lld_init
  36              	.LVL0:
  37              		.cfi_endproc
  38              	.LFE118:
  39              		.size	i2cInit, .-i2cInit
  40 0004 AFF30080 		.section	.text.i2cObjectInit,"ax",%progbits
  40      AFF30080 
  40      AFF30080 
  41              		.align	2
  42              		.p2align 4,,15
  43              		.global	i2cObjectInit
  44              		.thumb
  45              		.thumb_func
  46              		.type	i2cObjectInit, %function
  47              	i2cObjectInit:
  48              	.LFB119:
  49              		.loc 1 82 0
  50              		.cfi_startproc
  51              		@ args = 0, pretend = 0, frame = 0
  52              		@ frame_needed = 0, uses_anonymous_args = 0
  53              		@ link register save eliminated.
  54              	.LVL1:
  55              		.loc 1 84 0
ARM GAS  C:\Users\DNIEL~1\AppData\Local\Temp\cc4wkf7C.s 			page 2


  56 0000 0123     		movs	r3, #1
  57              		.loc 1 85 0
  58 0002 0021     		movs	r1, #0
  59              		.loc 1 84 0
  60 0004 0370     		strb	r3, [r0, #0]
  61              		.loc 1 85 0
  62 0006 4160     		str	r1, [r0, #4]
  63              		.loc 1 89 0
  64 0008 0C30     		adds	r0, r0, #12
  65              	.LVL2:
  66              		.loc 1 98 0
  67              		.loc 1 89 0
  68 000a FFF7FEBF 		b	chMtxInit
  69              	.LVL3:
  70              		.cfi_endproc
  71              	.LFE119:
  72              		.size	i2cObjectInit, .-i2cObjectInit
  73 000e 00BF     		.section	.text.i2cStart,"ax",%progbits
  74              		.align	2
  75              		.p2align 4,,15
  76              		.global	i2cStart
  77              		.thumb
  78              		.thumb_func
  79              		.type	i2cStart, %function
  80              	i2cStart:
  81              	.LFB120:
  82              		.loc 1 108 0
  83              		.cfi_startproc
  84              		@ args = 0, pretend = 0, frame = 0
  85              		@ frame_needed = 0, uses_anonymous_args = 0
  86              	.LVL4:
  87 0000 10B5     		push	{r4, lr}
  88              	.LCFI0:
  89              		.cfi_def_cfa_offset 8
  90              		.cfi_offset 4, -8
  91              		.cfi_offset 14, -4
  92              	.LBB2:
  93              		.loc 1 116 0
  94 0002 2023     		movs	r3, #32
  95              	.LVL5:
  96              	.LBE2:
  97              		.loc 1 108 0
  98 0004 0446     		mov	r4, r0
  99              	.LBB3:
 100              		.loc 1 116 0
 101              	@ 116 "../../../ChibiOS/os/hal/src/i2c.c" 1
 102 0006 83F31188 		msr     BASEPRI, r3
 103              	@ 0 "" 2
 104              	.LVL6:
 105              		.thumb
 106              	.LBE3:
 107              		.loc 1 117 0
 108 000a 4160     		str	r1, [r0, #4]
 109              		.loc 1 118 0
 110 000c FFF7FEFF 		bl	i2c_lld_start
 111              	.LVL7:
 112              		.loc 1 119 0
ARM GAS  C:\Users\DNIEL~1\AppData\Local\Temp\cc4wkf7C.s 			page 3


 113 0010 0223     		movs	r3, #2
 114 0012 2370     		strb	r3, [r4, #0]
 115              	.LBB4:
 116              		.loc 1 120 0
 117 0014 0023     		movs	r3, #0
 118              	.LVL8:
 119              	@ 120 "../../../ChibiOS/os/hal/src/i2c.c" 1
 120 0016 83F31188 		msr     BASEPRI, r3
 121              	@ 0 "" 2
 122              	.LVL9:
 123              		.thumb
 124 001a 10BD     		pop	{r4, pc}
 125              	.LBE4:
 126              		.cfi_endproc
 127              	.LFE120:
 128              		.size	i2cStart, .-i2cStart
 129 001c AFF30080 		.section	.text.i2cStop,"ax",%progbits
 130              		.align	2
 131              		.p2align 4,,15
 132              		.global	i2cStop
 133              		.thumb
 134              		.thumb_func
 135              		.type	i2cStop, %function
 136              	i2cStop:
 137              	.LFB121:
 138              		.loc 1 130 0
 139              		.cfi_startproc
 140              		@ args = 0, pretend = 0, frame = 0
 141              		@ frame_needed = 0, uses_anonymous_args = 0
 142              	.LVL10:
 143 0000 10B5     		push	{r4, lr}
 144              	.LCFI1:
 145              		.cfi_def_cfa_offset 8
 146              		.cfi_offset 4, -8
 147              		.cfi_offset 14, -4
 148              	.LBB5:
 149              		.loc 1 138 0
 150 0002 2023     		movs	r3, #32
 151              	.LVL11:
 152              	.LBE5:
 153              		.loc 1 130 0
 154 0004 0446     		mov	r4, r0
 155              	.LBB6:
 156              		.loc 1 138 0
 157              	@ 138 "../../../ChibiOS/os/hal/src/i2c.c" 1
 158 0006 83F31188 		msr     BASEPRI, r3
 159              	@ 0 "" 2
 160              	.LVL12:
 161              		.thumb
 162              	.LBE6:
 163              		.loc 1 139 0
 164 000a FFF7FEFF 		bl	i2c_lld_stop
 165              	.LVL13:
 166              		.loc 1 140 0
 167 000e 0123     		movs	r3, #1
 168 0010 2370     		strb	r3, [r4, #0]
 169              	.LBB7:
ARM GAS  C:\Users\DNIEL~1\AppData\Local\Temp\cc4wkf7C.s 			page 4


 170              		.loc 1 141 0
 171 0012 0023     		movs	r3, #0
 172              	.LVL14:
 173              	@ 141 "../../../ChibiOS/os/hal/src/i2c.c" 1
 174 0014 83F31188 		msr     BASEPRI, r3
 175              	@ 0 "" 2
 176              	.LVL15:
 177              		.thumb
 178 0018 10BD     		pop	{r4, pc}
 179              	.LBE7:
 180              		.cfi_endproc
 181              	.LFE121:
 182              		.size	i2cStop, .-i2cStop
 183 001a 00BFAFF3 		.section	.text.i2cGetErrors,"ax",%progbits
 183      0080
 184              		.align	2
 185              		.p2align 4,,15
 186              		.global	i2cGetErrors
 187              		.thumb
 188              		.thumb_func
 189              		.type	i2cGetErrors, %function
 190              	i2cGetErrors:
 191              	.LFB122:
 192              		.loc 1 152 0
 193              		.cfi_startproc
 194              		@ args = 0, pretend = 0, frame = 0
 195              		@ frame_needed = 0, uses_anonymous_args = 0
 196              		@ link register save eliminated.
 197              	.LVL16:
 198              		.loc 1 157 0
 199 0000 8068     		ldr	r0, [r0, #8]
 200              	.LVL17:
 201 0002 7047     		bx	lr
 202              		.cfi_endproc
 203              	.LFE122:
 204              		.size	i2cGetErrors, .-i2cGetErrors
 205 0004 AFF30080 		.section	.text.i2cMasterTransmitTimeout,"ax",%progbits
 205      AFF30080 
 205      AFF30080 
 206              		.align	2
 207              		.p2align 4,,15
 208              		.global	i2cMasterTransmitTimeout
 209              		.thumb
 210              		.thumb_func
 211              		.type	i2cMasterTransmitTimeout, %function
 212              	i2cMasterTransmitTimeout:
 213              	.LFB123:
 214              		.loc 1 191 0
 215              		.cfi_startproc
 216              		@ args = 12, pretend = 0, frame = 0
 217              		@ frame_needed = 0, uses_anonymous_args = 0
 218              	.LVL18:
 219 0000 70B5     		push	{r4, r5, r6, lr}
 220              	.LCFI2:
 221              		.cfi_def_cfa_offset 16
 222              		.cfi_offset 4, -16
 223              		.cfi_offset 5, -12
ARM GAS  C:\Users\DNIEL~1\AppData\Local\Temp\cc4wkf7C.s 			page 5


 224              		.cfi_offset 6, -8
 225              		.cfi_offset 14, -4
 226 0002 1E46     		mov	r6, r3
 227 0004 84B0     		sub	sp, sp, #16
 228              	.LCFI3:
 229              		.cfi_def_cfa_offset 32
 230              		.loc 1 191 0
 231 0006 0446     		mov	r4, r0
 232              	.LBB8:
 233              		.loc 1 203 0
 234 0008 2023     		movs	r3, #32
 235              	.LVL19:
 236              	@ 203 "../../../ChibiOS/os/hal/src/i2c.c" 1
 237 000a 83F31188 		msr     BASEPRI, r3
 238              	@ 0 "" 2
 239              	.LVL20:
 240              		.thumb
 241              	.LBE8:
 242              		.loc 1 205 0
 243 000e 0325     		movs	r5, #3
 244 0010 0570     		strb	r5, [r0, #0]
 245              		.loc 1 206 0
 246 0012 099D     		ldr	r5, [sp, #36]
 247              		.loc 1 204 0
 248 0014 0023     		movs	r3, #0
 249              	.LVL21:
 250 0016 8360     		str	r3, [r0, #8]
 251              		.loc 1 206 0
 252 0018 089B     		ldr	r3, [sp, #32]
 253 001a 0195     		str	r5, [sp, #4]
 254 001c 0A9D     		ldr	r5, [sp, #40]
 255 001e 0093     		str	r3, [sp, #0]
 256 0020 0295     		str	r5, [sp, #8]
 257 0022 3346     		mov	r3, r6
 258 0024 FFF7FEFF 		bl	i2c_lld_master_transmit_timeout
 259              	.LVL22:
 260              		.loc 1 208 0
 261 0028 431C     		adds	r3, r0, #1
 262 002a 06D0     		beq	.L10
 263              		.loc 1 211 0
 264 002c 0221     		movs	r1, #2
 265 002e 2170     		strb	r1, [r4, #0]
 266              	.L8:
 267              	.LBB9:
 268              		.loc 1 212 0
 269 0030 0023     		movs	r3, #0
 270              	.LVL23:
 271              	@ 212 "../../../ChibiOS/os/hal/src/i2c.c" 1
 272 0032 83F31188 		msr     BASEPRI, r3
 273              	@ 0 "" 2
 274              	.LVL24:
 275              		.thumb
 276              	.LBE9:
 277              		.loc 1 214 0
 278 0036 04B0     		add	sp, sp, #16
 279 0038 70BD     		pop	{r4, r5, r6, pc}
 280              	.LVL25:
ARM GAS  C:\Users\DNIEL~1\AppData\Local\Temp\cc4wkf7C.s 			page 6


 281              	.L10:
 282              		.loc 1 209 0
 283 003a 0522     		movs	r2, #5
 284 003c 2270     		strb	r2, [r4, #0]
 285 003e F7E7     		b	.L8
 286              		.cfi_endproc
 287              	.LFE123:
 288              		.size	i2cMasterTransmitTimeout, .-i2cMasterTransmitTimeout
 289              		.section	.text.i2cMasterReceiveTimeout,"ax",%progbits
 290              		.align	2
 291              		.p2align 4,,15
 292              		.global	i2cMasterReceiveTimeout
 293              		.thumb
 294              		.thumb_func
 295              		.type	i2cMasterReceiveTimeout, %function
 296              	i2cMasterReceiveTimeout:
 297              	.LFB124:
 298              		.loc 1 240 0
 299              		.cfi_startproc
 300              		@ args = 4, pretend = 0, frame = 0
 301              		@ frame_needed = 0, uses_anonymous_args = 0
 302              	.LVL26:
 303 0000 70B5     		push	{r4, r5, r6, lr}
 304              	.LCFI4:
 305              		.cfi_def_cfa_offset 16
 306              		.cfi_offset 4, -16
 307              		.cfi_offset 5, -12
 308              		.cfi_offset 6, -8
 309              		.cfi_offset 14, -4
 310 0002 1E46     		mov	r6, r3
 311 0004 82B0     		sub	sp, sp, #8
 312              	.LCFI5:
 313              		.cfi_def_cfa_offset 24
 314              		.loc 1 240 0
 315 0006 0446     		mov	r4, r0
 316              	.LBB10:
 317              		.loc 1 252 0
 318 0008 2023     		movs	r3, #32
 319              	.LVL27:
 320              	@ 252 "../../../ChibiOS/os/hal/src/i2c.c" 1
 321 000a 83F31188 		msr     BASEPRI, r3
 322              	@ 0 "" 2
 323              	.LVL28:
 324              		.thumb
 325              	.LBE10:
 326              		.loc 1 254 0
 327 000e 0425     		movs	r5, #4
 328 0010 0570     		strb	r5, [r0, #0]
 329              		.loc 1 255 0
 330 0012 069D     		ldr	r5, [sp, #24]
 331              		.loc 1 253 0
 332 0014 0023     		movs	r3, #0
 333              	.LVL29:
 334 0016 8360     		str	r3, [r0, #8]
 335              		.loc 1 255 0
 336 0018 3346     		mov	r3, r6
 337 001a 0095     		str	r5, [sp, #0]
ARM GAS  C:\Users\DNIEL~1\AppData\Local\Temp\cc4wkf7C.s 			page 7


 338 001c FFF7FEFF 		bl	i2c_lld_master_receive_timeout
 339              	.LVL30:
 340              		.loc 1 256 0
 341 0020 431C     		adds	r3, r0, #1
 342 0022 06D0     		beq	.L14
 343              		.loc 1 259 0
 344 0024 0221     		movs	r1, #2
 345 0026 2170     		strb	r1, [r4, #0]
 346              	.L13:
 347              	.LBB11:
 348              		.loc 1 260 0
 349 0028 0023     		movs	r3, #0
 350              	.LVL31:
 351              	@ 260 "../../../ChibiOS/os/hal/src/i2c.c" 1
 352 002a 83F31188 		msr     BASEPRI, r3
 353              	@ 0 "" 2
 354              	.LVL32:
 355              		.thumb
 356              	.LBE11:
 357              		.loc 1 262 0
 358 002e 02B0     		add	sp, sp, #8
 359 0030 70BD     		pop	{r4, r5, r6, pc}
 360              	.LVL33:
 361              	.L14:
 362              		.loc 1 257 0
 363 0032 0522     		movs	r2, #5
 364 0034 2270     		strb	r2, [r4, #0]
 365 0036 F7E7     		b	.L13
 366              		.cfi_endproc
 367              	.LFE124:
 368              		.size	i2cMasterReceiveTimeout, .-i2cMasterReceiveTimeout
 369 0038 AFF30080 		.section	.text.i2cAcquireBus,"ax",%progbits
 369      AFF30080 
 370              		.align	2
 371              		.p2align 4,,15
 372              		.global	i2cAcquireBus
 373              		.thumb
 374              		.thumb_func
 375              		.type	i2cAcquireBus, %function
 376              	i2cAcquireBus:
 377              	.LFB125:
 378              		.loc 1 276 0
 379              		.cfi_startproc
 380              		@ args = 0, pretend = 0, frame = 0
 381              		@ frame_needed = 0, uses_anonymous_args = 0
 382              		@ link register save eliminated.
 383              	.LVL34:
 384              		.loc 1 281 0
 385 0000 0C30     		adds	r0, r0, #12
 386              	.LVL35:
 387              		.loc 1 285 0
 388              		.loc 1 281 0
 389 0002 FFF7FEBF 		b	chMtxLock
 390              	.LVL36:
 391              		.cfi_endproc
 392              	.LFE125:
 393              		.size	i2cAcquireBus, .-i2cAcquireBus
ARM GAS  C:\Users\DNIEL~1\AppData\Local\Temp\cc4wkf7C.s 			page 8


 394 0006 00BFAFF3 		.section	.text.i2cReleaseBus,"ax",%progbits
 394      0080AFF3 
 394      0080
 395              		.align	2
 396              		.p2align 4,,15
 397              		.global	i2cReleaseBus
 398              		.thumb
 399              		.thumb_func
 400              		.type	i2cReleaseBus, %function
 401              	i2cReleaseBus:
 402              	.LFB126:
 403              		.loc 1 296 0
 404              		.cfi_startproc
 405              		@ args = 0, pretend = 0, frame = 0
 406              		@ frame_needed = 0, uses_anonymous_args = 0
 407              		@ link register save eliminated.
 408              	.LVL37:
 409              		.loc 1 305 0
 410              		.loc 1 301 0
 411 0000 FFF7FEBF 		b	chMtxUnlock
 412              	.LVL38:
 413              		.cfi_endproc
 414              	.LFE126:
 415              		.size	i2cReleaseBus, .-i2cReleaseBus
 416 0004 AFF30080 		.text
 416      AFF30080 
 416      AFF30080 
 417              	.Letext0:
 418              		.file 2 "c:\\chibistudio\\tools\\gnu tools arm embedded\\4.7 2014q2\\bin\\../lib/gcc/arm-none-eabi
 419              		.file 3 "c:\\chibistudio\\tools\\gnu tools arm embedded\\4.7 2014q2\\bin\\../lib/gcc/arm-none-eabi
 420              		.file 4 "../../../ChibiOS/os/ports/GCC/ARMCMx/chtypes.h"
 421              		.file 5 "../../../ChibiOS/os/kernel/include/chlists.h"
 422              		.file 6 "../../../ChibiOS/os/kernel/include/chthreads.h"
 423              		.file 7 "../../../ChibiOS/os/ports/GCC/ARMCMx/chcore_v7m.h"
 424              		.file 8 "../../../ChibiOS/os/kernel/include/chmtx.h"
 425              		.file 9 "../../../ChibiOS/os/hal/platforms/STM32F4xx/stm32f4xx.h"
 426              		.file 10 "../../../ChibiOS/os/hal/platforms/STM32F4xx/stm32_dma.h"
 427              		.file 11 "../../../ChibiOS/os/hal/include/i2c.h"
 428              		.file 12 "../../../ChibiOS/os/hal/platforms/STM32/I2Cv1/i2c_lld.h"
 429              		.file 13 "../../../ChibiOS/os/ports/common/ARMCMx/CMSIS/include/core_cm4.h"
 430              		.section	.debug_info,"",%progbits
 431              	.Ldebug_info0:
 432 0000 860C0000 		.4byte	0xc86
 433 0004 0200     		.2byte	0x2
 434 0006 00000000 		.4byte	.Ldebug_abbrev0
 435 000a 04       		.byte	0x4
 436 000b 01       		.uleb128 0x1
 437 000c C6020000 		.4byte	.LASF136
 438 0010 01       		.byte	0x1
 439 0011 5D040000 		.4byte	.LASF137
 440 0015 73050000 		.4byte	.LASF138
 441 0019 30000000 		.4byte	.Ldebug_ranges0+0x30
 442 001d 00000000 		.4byte	0
 443 0021 00000000 		.4byte	0
 444 0025 00000000 		.4byte	.Ldebug_line0
 445 0029 02       		.uleb128 0x2
 446 002a 04       		.byte	0x4
ARM GAS  C:\Users\DNIEL~1\AppData\Local\Temp\cc4wkf7C.s 			page 9


 447 002b 05       		.byte	0x5
 448 002c 696E7400 		.ascii	"int\000"
 449 0030 03       		.uleb128 0x3
 450 0031 34000000 		.4byte	.LASF2
 451 0035 02       		.byte	0x2
 452 0036 D5       		.byte	0xd5
 453 0037 3B000000 		.4byte	0x3b
 454 003b 04       		.uleb128 0x4
 455 003c 04       		.byte	0x4
 456 003d 07       		.byte	0x7
 457 003e E9010000 		.4byte	.LASF0
 458 0042 04       		.uleb128 0x4
 459 0043 01       		.byte	0x1
 460 0044 06       		.byte	0x6
 461 0045 00010000 		.4byte	.LASF1
 462 0049 03       		.uleb128 0x3
 463 004a 9E050000 		.4byte	.LASF3
 464 004e 03       		.byte	0x3
 465 004f 2A       		.byte	0x2a
 466 0050 54000000 		.4byte	0x54
 467 0054 04       		.uleb128 0x4
 468 0055 01       		.byte	0x1
 469 0056 08       		.byte	0x8
 470 0057 F2030000 		.4byte	.LASF4
 471 005b 04       		.uleb128 0x4
 472 005c 02       		.byte	0x2
 473 005d 05       		.byte	0x5
 474 005e 7D020000 		.4byte	.LASF5
 475 0062 03       		.uleb128 0x3
 476 0063 5C020000 		.4byte	.LASF6
 477 0067 03       		.byte	0x3
 478 0068 36       		.byte	0x36
 479 0069 6D000000 		.4byte	0x6d
 480 006d 04       		.uleb128 0x4
 481 006e 02       		.byte	0x2
 482 006f 07       		.byte	0x7
 483 0070 31020000 		.4byte	.LASF7
 484 0074 03       		.uleb128 0x3
 485 0075 EA030000 		.4byte	.LASF8
 486 0079 03       		.byte	0x3
 487 007a 4F       		.byte	0x4f
 488 007b 7F000000 		.4byte	0x7f
 489 007f 04       		.uleb128 0x4
 490 0080 04       		.byte	0x4
 491 0081 05       		.byte	0x5
 492 0082 60010000 		.4byte	.LASF9
 493 0086 03       		.uleb128 0x3
 494 0087 BD040000 		.4byte	.LASF10
 495 008b 03       		.byte	0x3
 496 008c 50       		.byte	0x50
 497 008d 91000000 		.4byte	0x91
 498 0091 04       		.uleb128 0x4
 499 0092 04       		.byte	0x4
 500 0093 07       		.byte	0x7
 501 0094 DE040000 		.4byte	.LASF11
 502 0098 04       		.uleb128 0x4
 503 0099 08       		.byte	0x8
ARM GAS  C:\Users\DNIEL~1\AppData\Local\Temp\cc4wkf7C.s 			page 10


 504 009a 05       		.byte	0x5
 505 009b 80010000 		.4byte	.LASF12
 506 009f 04       		.uleb128 0x4
 507 00a0 08       		.byte	0x8
 508 00a1 07       		.byte	0x7
 509 00a2 77000000 		.4byte	.LASF13
 510 00a6 04       		.uleb128 0x4
 511 00a7 01       		.byte	0x1
 512 00a8 02       		.byte	0x2
 513 00a9 E4030000 		.4byte	.LASF14
 514 00ad 03       		.uleb128 0x3
 515 00ae 54020000 		.4byte	.LASF15
 516 00b2 04       		.byte	0x4
 517 00b3 2C       		.byte	0x2c
 518 00b4 49000000 		.4byte	0x49
 519 00b8 03       		.uleb128 0x3
 520 00b9 69010000 		.4byte	.LASF16
 521 00bd 04       		.byte	0x4
 522 00be 2D       		.byte	0x2d
 523 00bf 49000000 		.4byte	0x49
 524 00c3 03       		.uleb128 0x3
 525 00c4 5E030000 		.4byte	.LASF17
 526 00c8 04       		.byte	0x4
 527 00c9 2E       		.byte	0x2e
 528 00ca 49000000 		.4byte	0x49
 529 00ce 03       		.uleb128 0x3
 530 00cf 46010000 		.4byte	.LASF18
 531 00d3 04       		.byte	0x4
 532 00d4 2F       		.byte	0x2f
 533 00d5 49000000 		.4byte	0x49
 534 00d9 03       		.uleb128 0x3
 535 00da BD030000 		.4byte	.LASF19
 536 00de 04       		.byte	0x4
 537 00df 30       		.byte	0x30
 538 00e0 86000000 		.4byte	0x86
 539 00e4 03       		.uleb128 0x3
 540 00e5 4E020000 		.4byte	.LASF20
 541 00e9 04       		.byte	0x4
 542 00ea 31       		.byte	0x31
 543 00eb 74000000 		.4byte	0x74
 544 00ef 03       		.uleb128 0x3
 545 00f0 71020000 		.4byte	.LASF21
 546 00f4 04       		.byte	0x4
 547 00f5 33       		.byte	0x33
 548 00f6 86000000 		.4byte	0x86
 549 00fa 03       		.uleb128 0x3
 550 00fb 03050000 		.4byte	.LASF22
 551 00ff 04       		.byte	0x4
 552 0100 35       		.byte	0x35
 553 0101 86000000 		.4byte	0x86
 554 0105 03       		.uleb128 0x3
 555 0106 91040000 		.4byte	.LASF23
 556 010a 05       		.byte	0x5
 557 010b 2A       		.byte	0x2a
 558 010c 10010000 		.4byte	0x110
 559 0110 05       		.uleb128 0x5
 560 0111 91040000 		.4byte	.LASF23
ARM GAS  C:\Users\DNIEL~1\AppData\Local\Temp\cc4wkf7C.s 			page 11


 561 0115 48       		.byte	0x48
 562 0116 06       		.byte	0x6
 563 0117 5E       		.byte	0x5e
 564 0118 35020000 		.4byte	0x235
 565 011c 06       		.uleb128 0x6
 566 011d 4E040000 		.4byte	.LASF24
 567 0121 06       		.byte	0x6
 568 0122 5F       		.byte	0x5f
 569 0123 5A020000 		.4byte	0x25a
 570 0127 02       		.byte	0x2
 571 0128 23       		.byte	0x23
 572 0129 00       		.uleb128 0
 573 012a 06       		.uleb128 0x6
 574 012b 98030000 		.4byte	.LASF25
 575 012f 06       		.byte	0x6
 576 0130 61       		.byte	0x61
 577 0131 5A020000 		.4byte	0x25a
 578 0135 02       		.byte	0x2
 579 0136 23       		.byte	0x23
 580 0137 04       		.uleb128 0x4
 581 0138 06       		.uleb128 0x6
 582 0139 D4000000 		.4byte	.LASF26
 583 013d 06       		.byte	0x6
 584 013e 63       		.byte	0x63
 585 013f D9000000 		.4byte	0xd9
 586 0143 02       		.byte	0x2
 587 0144 23       		.byte	0x23
 588 0145 08       		.uleb128 0x8
 589 0146 06       		.uleb128 0x6
 590 0147 12060000 		.4byte	.LASF27
 591 014b 06       		.byte	0x6
 592 014c 64       		.byte	0x64
 593 014d 28030000 		.4byte	0x328
 594 0151 02       		.byte	0x2
 595 0152 23       		.byte	0x23
 596 0153 0C       		.uleb128 0xc
 597 0154 06       		.uleb128 0x6
 598 0155 A4010000 		.4byte	.LASF28
 599 0159 06       		.byte	0x6
 600 015a 66       		.byte	0x66
 601 015b 5A020000 		.4byte	0x25a
 602 015f 02       		.byte	0x2
 603 0160 23       		.byte	0x23
 604 0161 10       		.uleb128 0x10
 605 0162 06       		.uleb128 0x6
 606 0163 0F030000 		.4byte	.LASF29
 607 0167 06       		.byte	0x6
 608 0168 67       		.byte	0x67
 609 0169 5A020000 		.4byte	0x25a
 610 016d 02       		.byte	0x2
 611 016e 23       		.byte	0x23
 612 016f 14       		.uleb128 0x14
 613 0170 06       		.uleb128 0x6
 614 0171 CF050000 		.4byte	.LASF30
 615 0175 06       		.byte	0x6
 616 0176 6E       		.byte	0x6e
 617 0177 D9030000 		.4byte	0x3d9
ARM GAS  C:\Users\DNIEL~1\AppData\Local\Temp\cc4wkf7C.s 			page 12


 618 017b 02       		.byte	0x2
 619 017c 23       		.byte	0x23
 620 017d 18       		.uleb128 0x18
 621 017e 06       		.uleb128 0x6
 622 017f 28040000 		.4byte	.LASF31
 623 0183 06       		.byte	0x6
 624 0184 79       		.byte	0x79
 625 0185 B8000000 		.4byte	0xb8
 626 0189 02       		.byte	0x2
 627 018a 23       		.byte	0x23
 628 018b 1C       		.uleb128 0x1c
 629 018c 06       		.uleb128 0x6
 630 018d 55040000 		.4byte	.LASF32
 631 0191 06       		.byte	0x6
 632 0192 7D       		.byte	0x7d
 633 0193 AD000000 		.4byte	0xad
 634 0197 02       		.byte	0x2
 635 0198 23       		.byte	0x23
 636 0199 1D       		.uleb128 0x1d
 637 019a 06       		.uleb128 0x6
 638 019b 79010000 		.4byte	.LASF33
 639 019f 06       		.byte	0x6
 640 01a0 82       		.byte	0x82
 641 01a1 C3000000 		.4byte	0xc3
 642 01a5 02       		.byte	0x2
 643 01a6 23       		.byte	0x23
 644 01a7 1E       		.uleb128 0x1e
 645 01a8 06       		.uleb128 0x6
 646 01a9 30040000 		.4byte	.LASF34
 647 01ad 06       		.byte	0x6
 648 01ae 88       		.byte	0x88
 649 01af CE000000 		.4byte	0xce
 650 01b3 02       		.byte	0x2
 651 01b4 23       		.byte	0x23
 652 01b5 1F       		.uleb128 0x1f
 653 01b6 06       		.uleb128 0x6
 654 01b7 98010000 		.4byte	.LASF35
 655 01bb 06       		.byte	0x6
 656 01bc 8F       		.byte	0x8f
 657 01bd 57030000 		.4byte	0x357
 658 01c1 02       		.byte	0x2
 659 01c2 23       		.byte	0x23
 660 01c3 20       		.uleb128 0x20
 661 01c4 07       		.uleb128 0x7
 662 01c5 705F7500 		.ascii	"p_u\000"
 663 01c9 06       		.byte	0x6
 664 01ca B4       		.byte	0xb4
 665 01cb A4030000 		.4byte	0x3a4
 666 01cf 02       		.byte	0x2
 667 01d0 23       		.byte	0x23
 668 01d1 24       		.uleb128 0x24
 669 01d2 06       		.uleb128 0x6
 670 01d3 18060000 		.4byte	.LASF36
 671 01d7 06       		.byte	0x6
 672 01d8 B9       		.byte	0xb9
 673 01d9 82020000 		.4byte	0x282
 674 01dd 02       		.byte	0x2
ARM GAS  C:\Users\DNIEL~1\AppData\Local\Temp\cc4wkf7C.s 			page 13


 675 01de 23       		.byte	0x23
 676 01df 28       		.uleb128 0x28
 677 01e0 06       		.uleb128 0x6
 678 01e1 03020000 		.4byte	.LASF37
 679 01e5 06       		.byte	0x6
 680 01e6 BF       		.byte	0xbf
 681 01e7 60020000 		.4byte	0x260
 682 01eb 02       		.byte	0x2
 683 01ec 23       		.byte	0x23
 684 01ed 2C       		.uleb128 0x2c
 685 01ee 06       		.uleb128 0x6
 686 01ef DE050000 		.4byte	.LASF38
 687 01f3 06       		.byte	0x6
 688 01f4 C3       		.byte	0xc3
 689 01f5 E4000000 		.4byte	0xe4
 690 01f9 02       		.byte	0x2
 691 01fa 23       		.byte	0x23
 692 01fb 34       		.uleb128 0x34
 693 01fc 06       		.uleb128 0x6
 694 01fd A3040000 		.4byte	.LASF39
 695 0201 06       		.byte	0x6
 696 0202 C9       		.byte	0xc9
 697 0203 EF000000 		.4byte	0xef
 698 0207 02       		.byte	0x2
 699 0208 23       		.byte	0x23
 700 0209 38       		.uleb128 0x38
 701 020a 06       		.uleb128 0x6
 702 020b 13040000 		.4byte	.LASF40
 703 020f 06       		.byte	0x6
 704 0210 D0       		.byte	0xd0
 705 0211 EB030000 		.4byte	0x3eb
 706 0215 02       		.byte	0x2
 707 0216 23       		.byte	0x23
 708 0217 3C       		.uleb128 0x3c
 709 0218 06       		.uleb128 0x6
 710 0219 0D050000 		.4byte	.LASF41
 711 021d 06       		.byte	0x6
 712 021e D4       		.byte	0xd4
 713 021f D9000000 		.4byte	0xd9
 714 0223 02       		.byte	0x2
 715 0224 23       		.byte	0x23
 716 0225 40       		.uleb128 0x40
 717 0226 06       		.uleb128 0x6
 718 0227 18010000 		.4byte	.LASF42
 719 022b 06       		.byte	0x6
 720 022c DA       		.byte	0xda
 721 022d 98020000 		.4byte	0x298
 722 0231 02       		.byte	0x2
 723 0232 23       		.byte	0x23
 724 0233 44       		.uleb128 0x44
 725 0234 00       		.byte	0
 726 0235 08       		.uleb128 0x8
 727 0236 08       		.byte	0x8
 728 0237 05       		.byte	0x5
 729 0238 61       		.byte	0x61
 730 0239 5A020000 		.4byte	0x25a
 731 023d 06       		.uleb128 0x6
ARM GAS  C:\Users\DNIEL~1\AppData\Local\Temp\cc4wkf7C.s 			page 14


 732 023e 4E040000 		.4byte	.LASF24
 733 0242 05       		.byte	0x5
 734 0243 62       		.byte	0x62
 735 0244 5A020000 		.4byte	0x25a
 736 0248 02       		.byte	0x2
 737 0249 23       		.byte	0x23
 738 024a 00       		.uleb128 0
 739 024b 06       		.uleb128 0x6
 740 024c 98030000 		.4byte	.LASF25
 741 0250 05       		.byte	0x5
 742 0251 64       		.byte	0x64
 743 0252 5A020000 		.4byte	0x25a
 744 0256 02       		.byte	0x2
 745 0257 23       		.byte	0x23
 746 0258 04       		.uleb128 0x4
 747 0259 00       		.byte	0
 748 025a 09       		.uleb128 0x9
 749 025b 04       		.byte	0x4
 750 025c 05010000 		.4byte	0x105
 751 0260 03       		.uleb128 0x3
 752 0261 27030000 		.4byte	.LASF43
 753 0265 05       		.byte	0x5
 754 0266 66       		.byte	0x66
 755 0267 35020000 		.4byte	0x235
 756 026b 08       		.uleb128 0x8
 757 026c 04       		.byte	0x4
 758 026d 05       		.byte	0x5
 759 026e 6B       		.byte	0x6b
 760 026f 82020000 		.4byte	0x282
 761 0273 06       		.uleb128 0x6
 762 0274 4E040000 		.4byte	.LASF24
 763 0278 05       		.byte	0x5
 764 0279 6D       		.byte	0x6d
 765 027a 5A020000 		.4byte	0x25a
 766 027e 02       		.byte	0x2
 767 027f 23       		.byte	0x23
 768 0280 00       		.uleb128 0
 769 0281 00       		.byte	0
 770 0282 03       		.uleb128 0x3
 771 0283 65020000 		.4byte	.LASF44
 772 0287 05       		.byte	0x5
 773 0288 70       		.byte	0x70
 774 0289 6B020000 		.4byte	0x26b
 775 028d 03       		.uleb128 0x3
 776 028e CE010000 		.4byte	.LASF45
 777 0292 07       		.byte	0x7
 778 0293 E5       		.byte	0xe5
 779 0294 98020000 		.4byte	0x298
 780 0298 0A       		.uleb128 0xa
 781 0299 04       		.byte	0x4
 782 029a 0B       		.uleb128 0xb
 783 029b 42050000 		.4byte	.LASF46
 784 029f 24       		.byte	0x24
 785 02a0 07       		.byte	0x7
 786 02a1 0C01     		.2byte	0x10c
 787 02a3 28030000 		.4byte	0x328
 788 02a7 0C       		.uleb128 0xc
ARM GAS  C:\Users\DNIEL~1\AppData\Local\Temp\cc4wkf7C.s 			page 15


 789 02a8 723400   		.ascii	"r4\000"
 790 02ab 07       		.byte	0x7
 791 02ac 1F01     		.2byte	0x11f
 792 02ae 8D020000 		.4byte	0x28d
 793 02b2 02       		.byte	0x2
 794 02b3 23       		.byte	0x23
 795 02b4 00       		.uleb128 0
 796 02b5 0C       		.uleb128 0xc
 797 02b6 723500   		.ascii	"r5\000"
 798 02b9 07       		.byte	0x7
 799 02ba 2001     		.2byte	0x120
 800 02bc 8D020000 		.4byte	0x28d
 801 02c0 02       		.byte	0x2
 802 02c1 23       		.byte	0x23
 803 02c2 04       		.uleb128 0x4
 804 02c3 0C       		.uleb128 0xc
 805 02c4 723600   		.ascii	"r6\000"
 806 02c7 07       		.byte	0x7
 807 02c8 2101     		.2byte	0x121
 808 02ca 8D020000 		.4byte	0x28d
 809 02ce 02       		.byte	0x2
 810 02cf 23       		.byte	0x23
 811 02d0 08       		.uleb128 0x8
 812 02d1 0C       		.uleb128 0xc
 813 02d2 723700   		.ascii	"r7\000"
 814 02d5 07       		.byte	0x7
 815 02d6 2201     		.2byte	0x122
 816 02d8 8D020000 		.4byte	0x28d
 817 02dc 02       		.byte	0x2
 818 02dd 23       		.byte	0x23
 819 02de 0C       		.uleb128 0xc
 820 02df 0C       		.uleb128 0xc
 821 02e0 723800   		.ascii	"r8\000"
 822 02e3 07       		.byte	0x7
 823 02e4 2301     		.2byte	0x123
 824 02e6 8D020000 		.4byte	0x28d
 825 02ea 02       		.byte	0x2
 826 02eb 23       		.byte	0x23
 827 02ec 10       		.uleb128 0x10
 828 02ed 0C       		.uleb128 0xc
 829 02ee 723900   		.ascii	"r9\000"
 830 02f1 07       		.byte	0x7
 831 02f2 2401     		.2byte	0x124
 832 02f4 8D020000 		.4byte	0x28d
 833 02f8 02       		.byte	0x2
 834 02f9 23       		.byte	0x23
 835 02fa 14       		.uleb128 0x14
 836 02fb 0C       		.uleb128 0xc
 837 02fc 72313000 		.ascii	"r10\000"
 838 0300 07       		.byte	0x7
 839 0301 2501     		.2byte	0x125
 840 0303 8D020000 		.4byte	0x28d
 841 0307 02       		.byte	0x2
 842 0308 23       		.byte	0x23
 843 0309 18       		.uleb128 0x18
 844 030a 0C       		.uleb128 0xc
 845 030b 72313100 		.ascii	"r11\000"
ARM GAS  C:\Users\DNIEL~1\AppData\Local\Temp\cc4wkf7C.s 			page 16


 846 030f 07       		.byte	0x7
 847 0310 2601     		.2byte	0x126
 848 0312 8D020000 		.4byte	0x28d
 849 0316 02       		.byte	0x2
 850 0317 23       		.byte	0x23
 851 0318 1C       		.uleb128 0x1c
 852 0319 0C       		.uleb128 0xc
 853 031a 6C7200   		.ascii	"lr\000"
 854 031d 07       		.byte	0x7
 855 031e 2701     		.2byte	0x127
 856 0320 8D020000 		.4byte	0x28d
 857 0324 02       		.byte	0x2
 858 0325 23       		.byte	0x23
 859 0326 20       		.uleb128 0x20
 860 0327 00       		.byte	0
 861 0328 0B       		.uleb128 0xb
 862 0329 3A050000 		.4byte	.LASF47
 863 032d 04       		.byte	0x4
 864 032e 07       		.byte	0x7
 865 032f 3101     		.2byte	0x131
 866 0331 45030000 		.4byte	0x345
 867 0335 0C       		.uleb128 0xc
 868 0336 72313300 		.ascii	"r13\000"
 869 033a 07       		.byte	0x7
 870 033b 3201     		.2byte	0x132
 871 033d 45030000 		.4byte	0x345
 872 0341 02       		.byte	0x2
 873 0342 23       		.byte	0x23
 874 0343 00       		.uleb128 0
 875 0344 00       		.byte	0
 876 0345 09       		.uleb128 0x9
 877 0346 04       		.byte	0x4
 878 0347 9A020000 		.4byte	0x29a
 879 034b 0D       		.uleb128 0xd
 880 034c 86000000 		.4byte	0x86
 881 0350 04       		.uleb128 0x4
 882 0351 04       		.byte	0x4
 883 0352 07       		.byte	0x7
 884 0353 A2020000 		.4byte	.LASF48
 885 0357 0D       		.uleb128 0xd
 886 0358 FA000000 		.4byte	0xfa
 887 035c 05       		.uleb128 0x5
 888 035d AB020000 		.4byte	.LASF49
 889 0361 10       		.byte	0x10
 890 0362 08       		.byte	0x8
 891 0363 2C       		.byte	0x2c
 892 0364 93030000 		.4byte	0x393
 893 0368 06       		.uleb128 0x6
 894 0369 CC000000 		.4byte	.LASF50
 895 036d 08       		.byte	0x8
 896 036e 2D       		.byte	0x2d
 897 036f 60020000 		.4byte	0x260
 898 0373 02       		.byte	0x2
 899 0374 23       		.byte	0x23
 900 0375 00       		.uleb128 0
 901 0376 06       		.uleb128 0x6
 902 0377 0A060000 		.4byte	.LASF51
ARM GAS  C:\Users\DNIEL~1\AppData\Local\Temp\cc4wkf7C.s 			page 17


 903 037b 08       		.byte	0x8
 904 037c 2F       		.byte	0x2f
 905 037d 5A020000 		.4byte	0x25a
 906 0381 02       		.byte	0x2
 907 0382 23       		.byte	0x23
 908 0383 08       		.uleb128 0x8
 909 0384 06       		.uleb128 0x6
 910 0385 FC040000 		.4byte	.LASF52
 911 0389 08       		.byte	0x8
 912 038a 31       		.byte	0x31
 913 038b 93030000 		.4byte	0x393
 914 038f 02       		.byte	0x2
 915 0390 23       		.byte	0x23
 916 0391 0C       		.uleb128 0xc
 917 0392 00       		.byte	0
 918 0393 09       		.uleb128 0x9
 919 0394 04       		.byte	0x4
 920 0395 5C030000 		.4byte	0x35c
 921 0399 03       		.uleb128 0x3
 922 039a AB020000 		.4byte	.LASF49
 923 039e 08       		.byte	0x8
 924 039f 33       		.byte	0x33
 925 03a0 5C030000 		.4byte	0x35c
 926 03a4 0E       		.uleb128 0xe
 927 03a5 04       		.byte	0x4
 928 03a6 06       		.byte	0x6
 929 03a7 96       		.byte	0x96
 930 03a8 D9030000 		.4byte	0x3d9
 931 03ac 0F       		.uleb128 0xf
 932 03ad 3B000000 		.4byte	.LASF53
 933 03b1 06       		.byte	0x6
 934 03b2 9D       		.byte	0x9d
 935 03b3 E4000000 		.4byte	0xe4
 936 03b7 0F       		.uleb128 0xf
 937 03b8 9C000000 		.4byte	.LASF54
 938 03bc 06       		.byte	0x6
 939 03bd A4       		.byte	0xa4
 940 03be E4000000 		.4byte	0xe4
 941 03c2 0F       		.uleb128 0xf
 942 03c3 C8050000 		.4byte	.LASF55
 943 03c7 06       		.byte	0x6
 944 03c8 AB       		.byte	0xab
 945 03c9 98020000 		.4byte	0x298
 946 03cd 0F       		.uleb128 0xf
 947 03ce 47040000 		.4byte	.LASF56
 948 03d2 06       		.byte	0x6
 949 03d3 B2       		.byte	0xb2
 950 03d4 EF000000 		.4byte	0xef
 951 03d8 00       		.byte	0
 952 03d9 09       		.uleb128 0x9
 953 03da 04       		.byte	0x4
 954 03db DF030000 		.4byte	0x3df
 955 03df 10       		.uleb128 0x10
 956 03e0 E4030000 		.4byte	0x3e4
 957 03e4 04       		.uleb128 0x4
 958 03e5 01       		.byte	0x1
 959 03e6 08       		.byte	0x8
ARM GAS  C:\Users\DNIEL~1\AppData\Local\Temp\cc4wkf7C.s 			page 18


 960 03e7 F0040000 		.4byte	.LASF57
 961 03eb 09       		.uleb128 0x9
 962 03ec 04       		.byte	0x4
 963 03ed 99030000 		.4byte	0x399
 964 03f1 09       		.uleb128 0x9
 965 03f2 04       		.byte	0x4
 966 03f3 49000000 		.4byte	0x49
 967 03f7 09       		.uleb128 0x9
 968 03f8 04       		.byte	0x4
 969 03f9 FD030000 		.4byte	0x3fd
 970 03fd 10       		.uleb128 0x10
 971 03fe 49000000 		.4byte	0x49
 972 0402 0D       		.uleb128 0xd
 973 0403 62000000 		.4byte	0x62
 974 0407 0D       		.uleb128 0xd
 975 0408 74000000 		.4byte	0x74
 976 040c 11       		.uleb128 0x11
 977 040d 18       		.byte	0x18
 978 040e 09       		.byte	0x9
 979 040f B102     		.2byte	0x2b1
 980 0411 6F040000 		.4byte	0x46f
 981 0415 0C       		.uleb128 0xc
 982 0416 435200   		.ascii	"CR\000"
 983 0419 09       		.byte	0x9
 984 041a B302     		.2byte	0x2b3
 985 041c 4B030000 		.4byte	0x34b
 986 0420 02       		.byte	0x2
 987 0421 23       		.byte	0x23
 988 0422 00       		.uleb128 0
 989 0423 12       		.uleb128 0x12
 990 0424 18050000 		.4byte	.LASF58
 991 0428 09       		.byte	0x9
 992 0429 B402     		.2byte	0x2b4
 993 042b 4B030000 		.4byte	0x34b
 994 042f 02       		.byte	0x2
 995 0430 23       		.byte	0x23
 996 0431 04       		.uleb128 0x4
 997 0432 0C       		.uleb128 0xc
 998 0433 50415200 		.ascii	"PAR\000"
 999 0437 09       		.byte	0x9
 1000 0438 B502     		.2byte	0x2b5
 1001 043a 4B030000 		.4byte	0x34b
 1002 043e 02       		.byte	0x2
 1003 043f 23       		.byte	0x23
 1004 0440 08       		.uleb128 0x8
 1005 0441 12       		.uleb128 0x12
 1006 0442 2F000000 		.4byte	.LASF59
 1007 0446 09       		.byte	0x9
 1008 0447 B602     		.2byte	0x2b6
 1009 0449 4B030000 		.4byte	0x34b
 1010 044d 02       		.byte	0x2
 1011 044e 23       		.byte	0x23
 1012 044f 0C       		.uleb128 0xc
 1013 0450 12       		.uleb128 0x12
 1014 0451 49050000 		.4byte	.LASF60
 1015 0455 09       		.byte	0x9
 1016 0456 B702     		.2byte	0x2b7
ARM GAS  C:\Users\DNIEL~1\AppData\Local\Temp\cc4wkf7C.s 			page 19


 1017 0458 4B030000 		.4byte	0x34b
 1018 045c 02       		.byte	0x2
 1019 045d 23       		.byte	0x23
 1020 045e 10       		.uleb128 0x10
 1021 045f 0C       		.uleb128 0xc
 1022 0460 46435200 		.ascii	"FCR\000"
 1023 0464 09       		.byte	0x9
 1024 0465 B802     		.2byte	0x2b8
 1025 0467 4B030000 		.4byte	0x34b
 1026 046b 02       		.byte	0x2
 1027 046c 23       		.byte	0x23
 1028 046d 14       		.uleb128 0x14
 1029 046e 00       		.byte	0
 1030 046f 13       		.uleb128 0x13
 1031 0470 27050000 		.4byte	.LASF61
 1032 0474 09       		.byte	0x9
 1033 0475 B902     		.2byte	0x2b9
 1034 0477 0C040000 		.4byte	0x40c
 1035 047b 11       		.uleb128 0x11
 1036 047c 28       		.byte	0x28
 1037 047d 09       		.byte	0x9
 1038 047e F603     		.2byte	0x3f6
 1039 0480 B0050000 		.4byte	0x5b0
 1040 0484 0C       		.uleb128 0xc
 1041 0485 43523100 		.ascii	"CR1\000"
 1042 0489 09       		.byte	0x9
 1043 048a F803     		.2byte	0x3f8
 1044 048c 02040000 		.4byte	0x402
 1045 0490 02       		.byte	0x2
 1046 0491 23       		.byte	0x23
 1047 0492 00       		.uleb128 0
 1048 0493 12       		.uleb128 0x12
 1049 0494 66030000 		.4byte	.LASF62
 1050 0498 09       		.byte	0x9
 1051 0499 F903     		.2byte	0x3f9
 1052 049b 62000000 		.4byte	0x62
 1053 049f 02       		.byte	0x2
 1054 04a0 23       		.byte	0x23
 1055 04a1 02       		.uleb128 0x2
 1056 04a2 0C       		.uleb128 0xc
 1057 04a3 43523200 		.ascii	"CR2\000"
 1058 04a7 09       		.byte	0x9
 1059 04a8 FA03     		.2byte	0x3fa
 1060 04aa 02040000 		.4byte	0x402
 1061 04ae 02       		.byte	0x2
 1062 04af 23       		.byte	0x23
 1063 04b0 04       		.uleb128 0x4
 1064 04b1 12       		.uleb128 0x12
 1065 04b2 70030000 		.4byte	.LASF63
 1066 04b6 09       		.byte	0x9
 1067 04b7 FB03     		.2byte	0x3fb
 1068 04b9 62000000 		.4byte	0x62
 1069 04bd 02       		.byte	0x2
 1070 04be 23       		.byte	0x23
 1071 04bf 06       		.uleb128 0x6
 1072 04c0 12       		.uleb128 0x12
 1073 04c1 A6050000 		.4byte	.LASF64
ARM GAS  C:\Users\DNIEL~1\AppData\Local\Temp\cc4wkf7C.s 			page 20


 1074 04c5 09       		.byte	0x9
 1075 04c6 FC03     		.2byte	0x3fc
 1076 04c8 02040000 		.4byte	0x402
 1077 04cc 02       		.byte	0x2
 1078 04cd 23       		.byte	0x23
 1079 04ce 08       		.uleb128 0x8
 1080 04cf 12       		.uleb128 0x12
 1081 04d0 7A030000 		.4byte	.LASF65
 1082 04d4 09       		.byte	0x9
 1083 04d5 FD03     		.2byte	0x3fd
 1084 04d7 62000000 		.4byte	0x62
 1085 04db 02       		.byte	0x2
 1086 04dc 23       		.byte	0x23
 1087 04dd 0A       		.uleb128 0xa
 1088 04de 12       		.uleb128 0x12
 1089 04df AB050000 		.4byte	.LASF66
 1090 04e3 09       		.byte	0x9
 1091 04e4 FE03     		.2byte	0x3fe
 1092 04e6 02040000 		.4byte	0x402
 1093 04ea 02       		.byte	0x2
 1094 04eb 23       		.byte	0x23
 1095 04ec 0C       		.uleb128 0xc
 1096 04ed 12       		.uleb128 0x12
 1097 04ee 84030000 		.4byte	.LASF67
 1098 04f2 09       		.byte	0x9
 1099 04f3 FF03     		.2byte	0x3ff
 1100 04f5 62000000 		.4byte	0x62
 1101 04f9 02       		.byte	0x2
 1102 04fa 23       		.byte	0x23
 1103 04fb 0E       		.uleb128 0xe
 1104 04fc 0C       		.uleb128 0xc
 1105 04fd 445200   		.ascii	"DR\000"
 1106 0500 09       		.byte	0x9
 1107 0501 0004     		.2byte	0x400
 1108 0503 02040000 		.4byte	0x402
 1109 0507 02       		.byte	0x2
 1110 0508 23       		.byte	0x23
 1111 0509 10       		.uleb128 0x10
 1112 050a 12       		.uleb128 0x12
 1113 050b 8E030000 		.4byte	.LASF68
 1114 050f 09       		.byte	0x9
 1115 0510 0104     		.2byte	0x401
 1116 0512 62000000 		.4byte	0x62
 1117 0516 02       		.byte	0x2
 1118 0517 23       		.byte	0x23
 1119 0518 12       		.uleb128 0x12
 1120 0519 0C       		.uleb128 0xc
 1121 051a 53523100 		.ascii	"SR1\000"
 1122 051e 09       		.byte	0x9
 1123 051f 0204     		.2byte	0x402
 1124 0521 02040000 		.4byte	0x402
 1125 0525 02       		.byte	0x2
 1126 0526 23       		.byte	0x23
 1127 0527 14       		.uleb128 0x14
 1128 0528 12       		.uleb128 0x12
 1129 0529 B3040000 		.4byte	.LASF69
 1130 052d 09       		.byte	0x9
ARM GAS  C:\Users\DNIEL~1\AppData\Local\Temp\cc4wkf7C.s 			page 21


 1131 052e 0304     		.2byte	0x403
 1132 0530 62000000 		.4byte	0x62
 1133 0534 02       		.byte	0x2
 1134 0535 23       		.byte	0x23
 1135 0536 16       		.uleb128 0x16
 1136 0537 0C       		.uleb128 0xc
 1137 0538 53523200 		.ascii	"SR2\000"
 1138 053c 09       		.byte	0x9
 1139 053d 0404     		.2byte	0x404
 1140 053f 02040000 		.4byte	0x402
 1141 0543 02       		.byte	0x2
 1142 0544 23       		.byte	0x23
 1143 0545 18       		.uleb128 0x18
 1144 0546 12       		.uleb128 0x12
 1145 0547 9F030000 		.4byte	.LASF70
 1146 054b 09       		.byte	0x9
 1147 054c 0504     		.2byte	0x405
 1148 054e 62000000 		.4byte	0x62
 1149 0552 02       		.byte	0x2
 1150 0553 23       		.byte	0x23
 1151 0554 1A       		.uleb128 0x1a
 1152 0555 0C       		.uleb128 0xc
 1153 0556 43435200 		.ascii	"CCR\000"
 1154 055a 09       		.byte	0x9
 1155 055b 0604     		.2byte	0x406
 1156 055d 02040000 		.4byte	0x402
 1157 0561 02       		.byte	0x2
 1158 0562 23       		.byte	0x23
 1159 0563 1C       		.uleb128 0x1c
 1160 0564 12       		.uleb128 0x12
 1161 0565 A9030000 		.4byte	.LASF71
 1162 0569 09       		.byte	0x9
 1163 056a 0704     		.2byte	0x407
 1164 056c 62000000 		.4byte	0x62
 1165 0570 02       		.byte	0x2
 1166 0571 23       		.byte	0x23
 1167 0572 1E       		.uleb128 0x1e
 1168 0573 12       		.uleb128 0x12
 1169 0574 6A000000 		.4byte	.LASF72
 1170 0578 09       		.byte	0x9
 1171 0579 0804     		.2byte	0x408
 1172 057b 02040000 		.4byte	0x402
 1173 057f 02       		.byte	0x2
 1174 0580 23       		.byte	0x23
 1175 0581 20       		.uleb128 0x20
 1176 0582 12       		.uleb128 0x12
 1177 0583 B3030000 		.4byte	.LASF73
 1178 0587 09       		.byte	0x9
 1179 0588 0904     		.2byte	0x409
 1180 058a 62000000 		.4byte	0x62
 1181 058e 02       		.byte	0x2
 1182 058f 23       		.byte	0x23
 1183 0590 22       		.uleb128 0x22
 1184 0591 12       		.uleb128 0x12
 1185 0592 9F010000 		.4byte	.LASF74
 1186 0596 09       		.byte	0x9
 1187 0597 0A04     		.2byte	0x40a
ARM GAS  C:\Users\DNIEL~1\AppData\Local\Temp\cc4wkf7C.s 			page 22


 1188 0599 02040000 		.4byte	0x402
 1189 059d 02       		.byte	0x2
 1190 059e 23       		.byte	0x23
 1191 059f 24       		.uleb128 0x24
 1192 05a0 12       		.uleb128 0x12
 1193 05a1 C6040000 		.4byte	.LASF75
 1194 05a5 09       		.byte	0x9
 1195 05a6 0B04     		.2byte	0x40b
 1196 05a8 62000000 		.4byte	0x62
 1197 05ac 02       		.byte	0x2
 1198 05ad 23       		.byte	0x23
 1199 05ae 26       		.uleb128 0x26
 1200 05af 00       		.byte	0
 1201 05b0 13       		.uleb128 0x13
 1202 05b1 E4050000 		.4byte	.LASF76
 1203 05b5 09       		.byte	0x9
 1204 05b6 0C04     		.2byte	0x40c
 1205 05b8 7B040000 		.4byte	0x47b
 1206 05bc 08       		.uleb128 0x8
 1207 05bd 0C       		.byte	0xc
 1208 05be 0A       		.byte	0xa
 1209 05bf DA       		.byte	0xda
 1210 05c0 0B060000 		.4byte	0x60b
 1211 05c4 06       		.uleb128 0x6
 1212 05c5 70000000 		.4byte	.LASF77
 1213 05c9 0A       		.byte	0xa
 1214 05ca DB       		.byte	0xdb
 1215 05cb 0B060000 		.4byte	0x60b
 1216 05cf 02       		.byte	0x2
 1217 05d0 23       		.byte	0x23
 1218 05d1 00       		.uleb128 0
 1219 05d2 06       		.uleb128 0x6
 1220 05d3 AE040000 		.4byte	.LASF78
 1221 05d7 0A       		.byte	0xa
 1222 05d8 DC       		.byte	0xdc
 1223 05d9 11060000 		.4byte	0x611
 1224 05dd 02       		.byte	0x2
 1225 05de 23       		.byte	0x23
 1226 05df 04       		.uleb128 0x4
 1227 05e0 06       		.uleb128 0x6
 1228 05e1 16020000 		.4byte	.LASF79
 1229 05e5 0A       		.byte	0xa
 1230 05e6 DD       		.byte	0xdd
 1231 05e7 49000000 		.4byte	0x49
 1232 05eb 02       		.byte	0x2
 1233 05ec 23       		.byte	0x23
 1234 05ed 08       		.uleb128 0x8
 1235 05ee 06       		.uleb128 0x6
 1236 05ef D7010000 		.4byte	.LASF80
 1237 05f3 0A       		.byte	0xa
 1238 05f4 DF       		.byte	0xdf
 1239 05f5 49000000 		.4byte	0x49
 1240 05f9 02       		.byte	0x2
 1241 05fa 23       		.byte	0x23
 1242 05fb 09       		.uleb128 0x9
 1243 05fc 06       		.uleb128 0x6
 1244 05fd A5000000 		.4byte	.LASF81
ARM GAS  C:\Users\DNIEL~1\AppData\Local\Temp\cc4wkf7C.s 			page 23


 1245 0601 0A       		.byte	0xa
 1246 0602 E0       		.byte	0xe0
 1247 0603 49000000 		.4byte	0x49
 1248 0607 02       		.byte	0x2
 1249 0608 23       		.byte	0x23
 1250 0609 0A       		.uleb128 0xa
 1251 060a 00       		.byte	0
 1252 060b 09       		.uleb128 0x9
 1253 060c 04       		.byte	0x4
 1254 060d 6F040000 		.4byte	0x46f
 1255 0611 09       		.uleb128 0x9
 1256 0612 04       		.byte	0x4
 1257 0613 4B030000 		.4byte	0x34b
 1258 0617 03       		.uleb128 0x3
 1259 0618 00040000 		.4byte	.LASF82
 1260 061c 0A       		.byte	0xa
 1261 061d E1       		.byte	0xe1
 1262 061e BC050000 		.4byte	0x5bc
 1263 0622 09       		.uleb128 0x9
 1264 0623 04       		.byte	0x4
 1265 0624 28060000 		.4byte	0x628
 1266 0628 10       		.uleb128 0x10
 1267 0629 17060000 		.4byte	0x617
 1268 062d 14       		.uleb128 0x14
 1269 062e 01       		.byte	0x1
 1270 062f 0B       		.byte	0xb
 1271 0630 5A       		.byte	0x5a
 1272 0631 5A060000 		.4byte	0x65a
 1273 0635 15       		.uleb128 0x15
 1274 0636 1D040000 		.4byte	.LASF83
 1275 063a 00       		.sleb128 0
 1276 063b 15       		.uleb128 0x15
 1277 063c 42000000 		.4byte	.LASF84
 1278 0640 01       		.sleb128 1
 1279 0641 15       		.uleb128 0x15
 1280 0642 1D050000 		.4byte	.LASF85
 1281 0646 02       		.sleb128 2
 1282 0647 15       		.uleb128 0x15
 1283 0648 C5030000 		.4byte	.LASF86
 1284 064c 03       		.sleb128 3
 1285 064d 15       		.uleb128 0x15
 1286 064e D0040000 		.4byte	.LASF87
 1287 0652 04       		.sleb128 4
 1288 0653 15       		.uleb128 0x15
 1289 0654 98040000 		.4byte	.LASF88
 1290 0658 05       		.sleb128 5
 1291 0659 00       		.byte	0
 1292 065a 03       		.uleb128 0x3
 1293 065b 24000000 		.4byte	.LASF89
 1294 065f 0B       		.byte	0xb
 1295 0660 61       		.byte	0x61
 1296 0661 2D060000 		.4byte	0x62d
 1297 0665 13       		.uleb128 0x13
 1298 0666 50010000 		.4byte	.LASF90
 1299 066a 0C       		.byte	0xc
 1300 066b 3501     		.2byte	0x135
 1301 066d 62000000 		.4byte	0x62
ARM GAS  C:\Users\DNIEL~1\AppData\Local\Temp\cc4wkf7C.s 			page 24


 1302 0671 13       		.uleb128 0x13
 1303 0672 D3030000 		.4byte	.LASF91
 1304 0676 0C       		.byte	0xc
 1305 0677 3A01     		.2byte	0x13a
 1306 0679 86000000 		.4byte	0x86
 1307 067d 16       		.uleb128 0x16
 1308 067e 01       		.byte	0x1
 1309 067f 0C       		.byte	0xc
 1310 0680 3F01     		.2byte	0x13f
 1311 0682 99060000 		.4byte	0x699
 1312 0686 15       		.uleb128 0x15
 1313 0687 3E030000 		.4byte	.LASF92
 1314 068b 01       		.sleb128 1
 1315 068c 15       		.uleb128 0x15
 1316 068d 1D020000 		.4byte	.LASF93
 1317 0691 02       		.sleb128 2
 1318 0692 15       		.uleb128 0x15
 1319 0693 BC010000 		.4byte	.LASF94
 1320 0697 03       		.sleb128 3
 1321 0698 00       		.byte	0
 1322 0699 13       		.uleb128 0x13
 1323 069a F0050000 		.4byte	.LASF95
 1324 069e 0C       		.byte	0xc
 1325 069f 4301     		.2byte	0x143
 1326 06a1 7D060000 		.4byte	0x67d
 1327 06a5 16       		.uleb128 0x16
 1328 06a6 01       		.byte	0x1
 1329 06a7 0C       		.byte	0xc
 1330 06a8 4801     		.2byte	0x148
 1331 06aa C1060000 		.4byte	0x6c1
 1332 06ae 15       		.uleb128 0x15
 1333 06af 00000000 		.4byte	.LASF96
 1334 06b3 01       		.sleb128 1
 1335 06b4 15       		.uleb128 0x15
 1336 06b5 7F040000 		.4byte	.LASF97
 1337 06b9 02       		.sleb128 2
 1338 06ba 15       		.uleb128 0x15
 1339 06bb 49030000 		.4byte	.LASF98
 1340 06bf 03       		.sleb128 3
 1341 06c0 00       		.byte	0
 1342 06c1 13       		.uleb128 0x13
 1343 06c2 15000000 		.4byte	.LASF99
 1344 06c6 0C       		.byte	0xc
 1345 06c7 4C01     		.2byte	0x14c
 1346 06c9 A5060000 		.4byte	0x6a5
 1347 06cd 11       		.uleb128 0x11
 1348 06ce 0C       		.byte	0xc
 1349 06cf 0C       		.byte	0xc
 1350 06d0 5101     		.2byte	0x151
 1351 06d2 04070000 		.4byte	0x704
 1352 06d6 12       		.uleb128 0x12
 1353 06d7 E1010000 		.4byte	.LASF100
 1354 06db 0C       		.byte	0xc
 1355 06dc 5201     		.2byte	0x152
 1356 06de 99060000 		.4byte	0x699
 1357 06e2 02       		.byte	0x2
 1358 06e3 23       		.byte	0x23
ARM GAS  C:\Users\DNIEL~1\AppData\Local\Temp\cc4wkf7C.s 			page 25


 1359 06e4 00       		.uleb128 0
 1360 06e5 12       		.uleb128 0x12
 1361 06e6 0C010000 		.4byte	.LASF101
 1362 06ea 0C       		.byte	0xc
 1363 06eb 5301     		.2byte	0x153
 1364 06ed 86000000 		.4byte	0x86
 1365 06f1 02       		.byte	0x2
 1366 06f2 23       		.byte	0x23
 1367 06f3 04       		.uleb128 0x4
 1368 06f4 12       		.uleb128 0x12
 1369 06f5 B1020000 		.4byte	.LASF102
 1370 06f9 0C       		.byte	0xc
 1371 06fa 5601     		.2byte	0x156
 1372 06fc C1060000 		.4byte	0x6c1
 1373 0700 02       		.byte	0x2
 1374 0701 23       		.byte	0x23
 1375 0702 08       		.uleb128 0x8
 1376 0703 00       		.byte	0
 1377 0704 13       		.uleb128 0x13
 1378 0705 8E010000 		.4byte	.LASF103
 1379 0709 0C       		.byte	0xc
 1380 070a 5801     		.2byte	0x158
 1381 070c CD060000 		.4byte	0x6cd
 1382 0710 13       		.uleb128 0x13
 1383 0711 44020000 		.4byte	.LASF104
 1384 0715 0C       		.byte	0xc
 1385 0716 5D01     		.2byte	0x15d
 1386 0718 1C070000 		.4byte	0x71c
 1387 071c 0B       		.uleb128 0xb
 1388 071d 44020000 		.4byte	.LASF104
 1389 0721 38       		.byte	0x38
 1390 0722 0C       		.byte	0xc
 1391 0723 6201     		.2byte	0x162
 1392 0725 CF070000 		.4byte	0x7cf
 1393 0729 12       		.uleb128 0x12
 1394 072a 5A010000 		.4byte	.LASF105
 1395 072e 0C       		.byte	0xc
 1396 072f 6601     		.2byte	0x166
 1397 0731 5A060000 		.4byte	0x65a
 1398 0735 02       		.byte	0x2
 1399 0736 23       		.byte	0x23
 1400 0737 00       		.uleb128 0
 1401 0738 12       		.uleb128 0x12
 1402 0739 F5040000 		.4byte	.LASF106
 1403 073d 0C       		.byte	0xc
 1404 073e 6A01     		.2byte	0x16a
 1405 0740 CF070000 		.4byte	0x7cf
 1406 0744 02       		.byte	0x2
 1407 0745 23       		.byte	0x23
 1408 0746 04       		.uleb128 0x4
 1409 0747 12       		.uleb128 0x12
 1410 0748 FC010000 		.4byte	.LASF107
 1411 074c 0C       		.byte	0xc
 1412 074d 6E01     		.2byte	0x16e
 1413 074f 71060000 		.4byte	0x671
 1414 0753 02       		.byte	0x2
 1415 0754 23       		.byte	0x23
ARM GAS  C:\Users\DNIEL~1\AppData\Local\Temp\cc4wkf7C.s 			page 26


 1416 0755 08       		.uleb128 0x8
 1417 0756 12       		.uleb128 0x12
 1418 0757 DE030000 		.4byte	.LASF108
 1419 075b 0C       		.byte	0xc
 1420 075c 7401     		.2byte	0x174
 1421 075e 99030000 		.4byte	0x399
 1422 0762 02       		.byte	0x2
 1423 0763 23       		.byte	0x23
 1424 0764 0C       		.uleb128 0xc
 1425 0765 12       		.uleb128 0x12
 1426 0766 72010000 		.4byte	.LASF109
 1427 076a 0C       		.byte	0xc
 1428 076b 8001     		.2byte	0x180
 1429 076d 5A020000 		.4byte	0x25a
 1430 0771 02       		.byte	0x2
 1431 0772 23       		.byte	0x23
 1432 0773 1C       		.uleb128 0x1c
 1433 0774 12       		.uleb128 0x12
 1434 0775 8E000000 		.4byte	.LASF110
 1435 0779 0C       		.byte	0xc
 1436 077a 8401     		.2byte	0x184
 1437 077c 65060000 		.4byte	0x665
 1438 0780 02       		.byte	0x2
 1439 0781 23       		.byte	0x23
 1440 0782 20       		.uleb128 0x20
 1441 0783 12       		.uleb128 0x12
 1442 0784 AC010000 		.4byte	.LASF111
 1443 0788 0C       		.byte	0xc
 1444 0789 8801     		.2byte	0x188
 1445 078b 86000000 		.4byte	0x86
 1446 078f 02       		.byte	0x2
 1447 0790 23       		.byte	0x23
 1448 0791 24       		.uleb128 0x24
 1449 0792 12       		.uleb128 0x12
 1450 0793 34030000 		.4byte	.LASF112
 1451 0797 0C       		.byte	0xc
 1452 0798 8C01     		.2byte	0x18c
 1453 079a 86000000 		.4byte	0x86
 1454 079e 02       		.byte	0x2
 1455 079f 23       		.byte	0x23
 1456 07a0 28       		.uleb128 0x28
 1457 07a1 12       		.uleb128 0x12
 1458 07a2 0F000000 		.4byte	.LASF113
 1459 07a6 0C       		.byte	0xc
 1460 07a7 9001     		.2byte	0x190
 1461 07a9 22060000 		.4byte	0x622
 1462 07ad 02       		.byte	0x2
 1463 07ae 23       		.byte	0x23
 1464 07af 2C       		.uleb128 0x2c
 1465 07b0 12       		.uleb128 0x12
 1466 07b1 B6010000 		.4byte	.LASF114
 1467 07b5 0C       		.byte	0xc
 1468 07b6 9401     		.2byte	0x194
 1469 07b8 22060000 		.4byte	0x622
 1470 07bc 02       		.byte	0x2
 1471 07bd 23       		.byte	0x23
 1472 07be 30       		.uleb128 0x30
ARM GAS  C:\Users\DNIEL~1\AppData\Local\Temp\cc4wkf7C.s 			page 27


 1473 07bf 0C       		.uleb128 0xc
 1474 07c0 69326300 		.ascii	"i2c\000"
 1475 07c4 0C       		.byte	0xc
 1476 07c5 9801     		.2byte	0x198
 1477 07c7 DA070000 		.4byte	0x7da
 1478 07cb 02       		.byte	0x2
 1479 07cc 23       		.byte	0x23
 1480 07cd 34       		.uleb128 0x34
 1481 07ce 00       		.byte	0
 1482 07cf 09       		.uleb128 0x9
 1483 07d0 04       		.byte	0x4
 1484 07d1 D5070000 		.4byte	0x7d5
 1485 07d5 10       		.uleb128 0x10
 1486 07d6 04070000 		.4byte	0x704
 1487 07da 09       		.uleb128 0x9
 1488 07db 04       		.byte	0x4
 1489 07dc B0050000 		.4byte	0x5b0
 1490 07e0 17       		.uleb128 0x17
 1491 07e1 01       		.byte	0x1
 1492 07e2 D6050000 		.4byte	.LASF115
 1493 07e6 01       		.byte	0x1
 1494 07e7 47       		.byte	0x47
 1495 07e8 01       		.byte	0x1
 1496 07e9 00000000 		.4byte	.LFB118
 1497 07ed 04000000 		.4byte	.LFE118
 1498 07f1 02       		.byte	0x2
 1499 07f2 7D       		.byte	0x7d
 1500 07f3 00       		.sleb128 0
 1501 07f4 01       		.byte	0x1
 1502 07f5 04080000 		.4byte	0x804
 1503 07f9 18       		.uleb128 0x18
 1504 07fa 04000000 		.4byte	.LVL0
 1505 07fe 01       		.byte	0x1
 1506 07ff BA0B0000 		.4byte	0xbba
 1507 0803 00       		.byte	0
 1508 0804 17       		.uleb128 0x17
 1509 0805 01       		.byte	0x1
 1510 0806 FC050000 		.4byte	.LASF116
 1511 080a 01       		.byte	0x1
 1512 080b 52       		.byte	0x52
 1513 080c 01       		.byte	0x1
 1514 080d 00000000 		.4byte	.LFB119
 1515 0811 0E000000 		.4byte	.LFE119
 1516 0815 02       		.byte	0x2
 1517 0816 7D       		.byte	0x7d
 1518 0817 00       		.sleb128 0
 1519 0818 01       		.byte	0x1
 1520 0819 41080000 		.4byte	0x841
 1521 081d 19       		.uleb128 0x19
 1522 081e C7000000 		.4byte	.LASF118
 1523 0822 01       		.byte	0x1
 1524 0823 52       		.byte	0x52
 1525 0824 41080000 		.4byte	0x841
 1526 0828 00000000 		.4byte	.LLST0
 1527 082c 1A       		.uleb128 0x1a
 1528 082d 0E000000 		.4byte	.LVL3
 1529 0831 01       		.byte	0x1
ARM GAS  C:\Users\DNIEL~1\AppData\Local\Temp\cc4wkf7C.s 			page 28


 1530 0832 C50B0000 		.4byte	0xbc5
 1531 0836 1B       		.uleb128 0x1b
 1532 0837 01       		.byte	0x1
 1533 0838 50       		.byte	0x50
 1534 0839 05       		.byte	0x5
 1535 083a F3       		.byte	0xf3
 1536 083b 01       		.uleb128 0x1
 1537 083c 50       		.byte	0x50
 1538 083d 23       		.byte	0x23
 1539 083e 0C       		.uleb128 0xc
 1540 083f 00       		.byte	0
 1541 0840 00       		.byte	0
 1542 0841 09       		.uleb128 0x9
 1543 0842 04       		.byte	0x4
 1544 0843 10070000 		.4byte	0x710
 1545 0847 1C       		.uleb128 0x1c
 1546 0848 01       		.byte	0x1
 1547 0849 93000000 		.4byte	.LASF117
 1548 084d 01       		.byte	0x1
 1549 084e 6C       		.byte	0x6c
 1550 084f 01       		.byte	0x1
 1551 0850 00000000 		.4byte	.LFB120
 1552 0854 1C000000 		.4byte	.LFE120
 1553 0858 2E000000 		.4byte	.LLST1
 1554 085c 01       		.byte	0x1
 1555 085d C6080000 		.4byte	0x8c6
 1556 0861 19       		.uleb128 0x19
 1557 0862 C7000000 		.4byte	.LASF118
 1558 0866 01       		.byte	0x1
 1559 0867 6C       		.byte	0x6c
 1560 0868 41080000 		.4byte	0x841
 1561 086c 4E000000 		.4byte	.LLST2
 1562 0870 19       		.uleb128 0x19
 1563 0871 F5040000 		.4byte	.LASF106
 1564 0875 01       		.byte	0x1
 1565 0876 6C       		.byte	0x6c
 1566 0877 CF070000 		.4byte	0x7cf
 1567 087b 6C000000 		.4byte	.LLST3
 1568 087f 1D       		.uleb128 0x1d
 1569 0880 00000000 		.4byte	.Ldebug_ranges0+0
 1570 0884 98080000 		.4byte	0x898
 1571 0888 1E       		.uleb128 0x1e
 1572 0889 746D7000 		.ascii	"tmp\000"
 1573 088d 01       		.byte	0x1
 1574 088e 74       		.byte	0x74
 1575 088f 86000000 		.4byte	0x86
 1576 0893 8D000000 		.4byte	.LLST4
 1577 0897 00       		.byte	0
 1578 0898 1F       		.uleb128 0x1f
 1579 0899 14000000 		.4byte	.LBB4
 1580 089d 1C000000 		.4byte	.LBE4
 1581 08a1 B5080000 		.4byte	0x8b5
 1582 08a5 1E       		.uleb128 0x1e
 1583 08a6 746D7000 		.ascii	"tmp\000"
 1584 08aa 01       		.byte	0x1
 1585 08ab 78       		.byte	0x78
 1586 08ac 86000000 		.4byte	0x86
ARM GAS  C:\Users\DNIEL~1\AppData\Local\Temp\cc4wkf7C.s 			page 29


 1587 08b0 A0000000 		.4byte	.LLST5
 1588 08b4 00       		.byte	0
 1589 08b5 20       		.uleb128 0x20
 1590 08b6 10000000 		.4byte	.LVL7
 1591 08ba D90B0000 		.4byte	0xbd9
 1592 08be 1B       		.uleb128 0x1b
 1593 08bf 01       		.byte	0x1
 1594 08c0 50       		.byte	0x50
 1595 08c1 02       		.byte	0x2
 1596 08c2 74       		.byte	0x74
 1597 08c3 00       		.sleb128 0
 1598 08c4 00       		.byte	0
 1599 08c5 00       		.byte	0
 1600 08c6 1C       		.uleb128 0x1c
 1601 08c7 01       		.byte	0x1
 1602 08c8 1F030000 		.4byte	.LASF119
 1603 08cc 01       		.byte	0x1
 1604 08cd 82       		.byte	0x82
 1605 08ce 01       		.byte	0x1
 1606 08cf 00000000 		.4byte	.LFB121
 1607 08d3 1A000000 		.4byte	.LFE121
 1608 08d7 B3000000 		.4byte	.LLST6
 1609 08db 01       		.byte	0x1
 1610 08dc 36090000 		.4byte	0x936
 1611 08e0 19       		.uleb128 0x19
 1612 08e1 C7000000 		.4byte	.LASF118
 1613 08e5 01       		.byte	0x1
 1614 08e6 82       		.byte	0x82
 1615 08e7 41080000 		.4byte	0x841
 1616 08eb D3000000 		.4byte	.LLST7
 1617 08ef 1D       		.uleb128 0x1d
 1618 08f0 18000000 		.4byte	.Ldebug_ranges0+0x18
 1619 08f4 08090000 		.4byte	0x908
 1620 08f8 1E       		.uleb128 0x1e
 1621 08f9 746D7000 		.ascii	"tmp\000"
 1622 08fd 01       		.byte	0x1
 1623 08fe 8A       		.byte	0x8a
 1624 08ff 86000000 		.4byte	0x86
 1625 0903 F1000000 		.4byte	.LLST8
 1626 0907 00       		.byte	0
 1627 0908 1F       		.uleb128 0x1f
 1628 0909 12000000 		.4byte	.LBB7
 1629 090d 1A000000 		.4byte	.LBE7
 1630 0911 25090000 		.4byte	0x925
 1631 0915 1E       		.uleb128 0x1e
 1632 0916 746D7000 		.ascii	"tmp\000"
 1633 091a 01       		.byte	0x1
 1634 091b 8D       		.byte	0x8d
 1635 091c 86000000 		.4byte	0x86
 1636 0920 04010000 		.4byte	.LLST9
 1637 0924 00       		.byte	0
 1638 0925 20       		.uleb128 0x20
 1639 0926 0E000000 		.4byte	.LVL13
 1640 092a EE0B0000 		.4byte	0xbee
 1641 092e 1B       		.uleb128 0x1b
 1642 092f 01       		.byte	0x1
 1643 0930 50       		.byte	0x50
ARM GAS  C:\Users\DNIEL~1\AppData\Local\Temp\cc4wkf7C.s 			page 30


 1644 0931 02       		.byte	0x2
 1645 0932 74       		.byte	0x74
 1646 0933 00       		.sleb128 0
 1647 0934 00       		.byte	0
 1648 0935 00       		.byte	0
 1649 0936 21       		.uleb128 0x21
 1650 0937 01       		.byte	0x1
 1651 0938 3A040000 		.4byte	.LASF120
 1652 093c 01       		.byte	0x1
 1653 093d 98       		.byte	0x98
 1654 093e 01       		.byte	0x1
 1655 093f 71060000 		.4byte	0x671
 1656 0943 00000000 		.4byte	.LFB122
 1657 0947 04000000 		.4byte	.LFE122
 1658 094b 02       		.byte	0x2
 1659 094c 7D       		.byte	0x7d
 1660 094d 00       		.sleb128 0
 1661 094e 01       		.byte	0x1
 1662 094f 63090000 		.4byte	0x963
 1663 0953 19       		.uleb128 0x19
 1664 0954 C7000000 		.4byte	.LASF118
 1665 0958 01       		.byte	0x1
 1666 0959 98       		.byte	0x98
 1667 095a 41080000 		.4byte	0x841
 1668 095e 17010000 		.4byte	.LLST10
 1669 0962 00       		.byte	0
 1670 0963 22       		.uleb128 0x22
 1671 0964 01       		.byte	0x1
 1672 0965 DB000000 		.4byte	.LASF121
 1673 0969 01       		.byte	0x1
 1674 096a B9       		.byte	0xb9
 1675 096b 01       		.byte	0x1
 1676 096c E4000000 		.4byte	0xe4
 1677 0970 00000000 		.4byte	.LFB123
 1678 0974 40000000 		.4byte	.LFE123
 1679 0978 38010000 		.4byte	.LLST11
 1680 097c 01       		.byte	0x1
 1681 097d 630A0000 		.4byte	0xa63
 1682 0981 19       		.uleb128 0x19
 1683 0982 C7000000 		.4byte	.LASF118
 1684 0986 01       		.byte	0x1
 1685 0987 B9       		.byte	0xb9
 1686 0988 41080000 		.4byte	0x841
 1687 098c 64010000 		.4byte	.LLST12
 1688 0990 19       		.uleb128 0x19
 1689 0991 8E000000 		.4byte	.LASF110
 1690 0995 01       		.byte	0x1
 1691 0996 BA       		.byte	0xba
 1692 0997 65060000 		.4byte	0x665
 1693 099b 82010000 		.4byte	.LLST13
 1694 099f 19       		.uleb128 0x19
 1695 09a0 F6010000 		.4byte	.LASF122
 1696 09a4 01       		.byte	0x1
 1697 09a5 BB       		.byte	0xbb
 1698 09a6 F7030000 		.4byte	0x3f7
 1699 09aa A3010000 		.4byte	.LLST14
 1700 09ae 19       		.uleb128 0x19
ARM GAS  C:\Users\DNIEL~1\AppData\Local\Temp\cc4wkf7C.s 			page 31


 1701 09af 22060000 		.4byte	.LASF123
 1702 09b3 01       		.byte	0x1
 1703 09b4 BC       		.byte	0xbc
 1704 09b5 30000000 		.4byte	0x30
 1705 09b9 C4010000 		.4byte	.LLST15
 1706 09bd 23       		.uleb128 0x23
 1707 09be 20010000 		.4byte	.LASF124
 1708 09c2 01       		.byte	0x1
 1709 09c3 BD       		.byte	0xbd
 1710 09c4 F1030000 		.4byte	0x3f1
 1711 09c8 02       		.byte	0x2
 1712 09c9 91       		.byte	0x91
 1713 09ca 00       		.sleb128 0
 1714 09cb 23       		.uleb128 0x23
 1715 09cc 17030000 		.4byte	.LASF125
 1716 09d0 01       		.byte	0x1
 1717 09d1 BE       		.byte	0xbe
 1718 09d2 30000000 		.4byte	0x30
 1719 09d6 02       		.byte	0x2
 1720 09d7 91       		.byte	0x91
 1721 09d8 04       		.sleb128 4
 1722 09d9 23       		.uleb128 0x23
 1723 09da 0E020000 		.4byte	.LASF126
 1724 09de 01       		.byte	0x1
 1725 09df BF       		.byte	0xbf
 1726 09e0 FA000000 		.4byte	0xfa
 1727 09e4 02       		.byte	0x2
 1728 09e5 91       		.byte	0x91
 1729 09e6 08       		.sleb128 8
 1730 09e7 24       		.uleb128 0x24
 1731 09e8 3B000000 		.4byte	.LASF53
 1732 09ec 01       		.byte	0x1
 1733 09ed C0       		.byte	0xc0
 1734 09ee E4000000 		.4byte	0xe4
 1735 09f2 01       		.byte	0x1
 1736 09f3 50       		.byte	0x50
 1737 09f4 1F       		.uleb128 0x1f
 1738 09f5 08000000 		.4byte	.LBB8
 1739 09f9 0E000000 		.4byte	.LBE8
 1740 09fd 110A0000 		.4byte	0xa11
 1741 0a01 1E       		.uleb128 0x1e
 1742 0a02 746D7000 		.ascii	"tmp\000"
 1743 0a06 01       		.byte	0x1
 1744 0a07 CB       		.byte	0xcb
 1745 0a08 86000000 		.4byte	0x86
 1746 0a0c E2010000 		.4byte	.LLST16
 1747 0a10 00       		.byte	0
 1748 0a11 1F       		.uleb128 0x1f
 1749 0a12 30000000 		.4byte	.LBB9
 1750 0a16 36000000 		.4byte	.LBE9
 1751 0a1a 2E0A0000 		.4byte	0xa2e
 1752 0a1e 1E       		.uleb128 0x1e
 1753 0a1f 746D7000 		.ascii	"tmp\000"
 1754 0a23 01       		.byte	0x1
 1755 0a24 D4       		.byte	0xd4
 1756 0a25 86000000 		.4byte	0x86
 1757 0a29 F5010000 		.4byte	.LLST17
ARM GAS  C:\Users\DNIEL~1\AppData\Local\Temp\cc4wkf7C.s 			page 32


 1758 0a2d 00       		.byte	0
 1759 0a2e 20       		.uleb128 0x20
 1760 0a2f 28000000 		.4byte	.LVL22
 1761 0a33 030C0000 		.4byte	0xc03
 1762 0a37 1B       		.uleb128 0x1b
 1763 0a38 01       		.byte	0x1
 1764 0a39 53       		.byte	0x53
 1765 0a3a 02       		.byte	0x2
 1766 0a3b 76       		.byte	0x76
 1767 0a3c 00       		.sleb128 0
 1768 0a3d 1B       		.uleb128 0x1b
 1769 0a3e 01       		.byte	0x1
 1770 0a3f 52       		.byte	0x52
 1771 0a40 03       		.byte	0x3
 1772 0a41 F3       		.byte	0xf3
 1773 0a42 01       		.uleb128 0x1
 1774 0a43 52       		.byte	0x52
 1775 0a44 1B       		.uleb128 0x1b
 1776 0a45 01       		.byte	0x1
 1777 0a46 50       		.byte	0x50
 1778 0a47 02       		.byte	0x2
 1779 0a48 74       		.byte	0x74
 1780 0a49 00       		.sleb128 0
 1781 0a4a 1B       		.uleb128 0x1b
 1782 0a4b 02       		.byte	0x2
 1783 0a4c 7D       		.byte	0x7d
 1784 0a4d 08       		.sleb128 8
 1785 0a4e 02       		.byte	0x2
 1786 0a4f 75       		.byte	0x75
 1787 0a50 00       		.sleb128 0
 1788 0a51 1B       		.uleb128 0x1b
 1789 0a52 02       		.byte	0x2
 1790 0a53 7D       		.byte	0x7d
 1791 0a54 04       		.sleb128 4
 1792 0a55 03       		.byte	0x3
 1793 0a56 91       		.byte	0x91
 1794 0a57 04       		.sleb128 4
 1795 0a58 06       		.byte	0x6
 1796 0a59 1B       		.uleb128 0x1b
 1797 0a5a 02       		.byte	0x2
 1798 0a5b 7D       		.byte	0x7d
 1799 0a5c 00       		.sleb128 0
 1800 0a5d 03       		.byte	0x3
 1801 0a5e 91       		.byte	0x91
 1802 0a5f 00       		.sleb128 0
 1803 0a60 06       		.byte	0x6
 1804 0a61 00       		.byte	0
 1805 0a62 00       		.byte	0
 1806 0a63 22       		.uleb128 0x22
 1807 0a64 01       		.byte	0x1
 1808 0a65 B0050000 		.4byte	.LASF127
 1809 0a69 01       		.byte	0x1
 1810 0a6a EC       		.byte	0xec
 1811 0a6b 01       		.byte	0x1
 1812 0a6c E4000000 		.4byte	0xe4
 1813 0a70 00000000 		.4byte	.LFB124
 1814 0a74 38000000 		.4byte	.LFE124
ARM GAS  C:\Users\DNIEL~1\AppData\Local\Temp\cc4wkf7C.s 			page 33


 1815 0a78 08020000 		.4byte	.LLST18
 1816 0a7c 01       		.byte	0x1
 1817 0a7d 380B0000 		.4byte	0xb38
 1818 0a81 19       		.uleb128 0x19
 1819 0a82 C7000000 		.4byte	.LASF118
 1820 0a86 01       		.byte	0x1
 1821 0a87 EC       		.byte	0xec
 1822 0a88 41080000 		.4byte	0x841
 1823 0a8c 34020000 		.4byte	.LLST19
 1824 0a90 19       		.uleb128 0x19
 1825 0a91 8E000000 		.4byte	.LASF110
 1826 0a95 01       		.byte	0x1
 1827 0a96 ED       		.byte	0xed
 1828 0a97 65060000 		.4byte	0x665
 1829 0a9b 52020000 		.4byte	.LLST20
 1830 0a9f 19       		.uleb128 0x19
 1831 0aa0 20010000 		.4byte	.LASF124
 1832 0aa4 01       		.byte	0x1
 1833 0aa5 EE       		.byte	0xee
 1834 0aa6 F1030000 		.4byte	0x3f1
 1835 0aaa 73020000 		.4byte	.LLST21
 1836 0aae 19       		.uleb128 0x19
 1837 0aaf 17030000 		.4byte	.LASF125
 1838 0ab3 01       		.byte	0x1
 1839 0ab4 EF       		.byte	0xef
 1840 0ab5 30000000 		.4byte	0x30
 1841 0ab9 94020000 		.4byte	.LLST22
 1842 0abd 23       		.uleb128 0x23
 1843 0abe 0E020000 		.4byte	.LASF126
 1844 0ac2 01       		.byte	0x1
 1845 0ac3 F0       		.byte	0xf0
 1846 0ac4 FA000000 		.4byte	0xfa
 1847 0ac8 02       		.byte	0x2
 1848 0ac9 91       		.byte	0x91
 1849 0aca 00       		.sleb128 0
 1850 0acb 24       		.uleb128 0x24
 1851 0acc 3B000000 		.4byte	.LASF53
 1852 0ad0 01       		.byte	0x1
 1853 0ad1 F2       		.byte	0xf2
 1854 0ad2 E4000000 		.4byte	0xe4
 1855 0ad6 01       		.byte	0x1
 1856 0ad7 50       		.byte	0x50
 1857 0ad8 1F       		.uleb128 0x1f
 1858 0ad9 08000000 		.4byte	.LBB10
 1859 0add 0E000000 		.4byte	.LBE10
 1860 0ae1 F50A0000 		.4byte	0xaf5
 1861 0ae5 1E       		.uleb128 0x1e
 1862 0ae6 746D7000 		.ascii	"tmp\000"
 1863 0aea 01       		.byte	0x1
 1864 0aeb FC       		.byte	0xfc
 1865 0aec 86000000 		.4byte	0x86
 1866 0af0 B2020000 		.4byte	.LLST23
 1867 0af4 00       		.byte	0
 1868 0af5 1F       		.uleb128 0x1f
 1869 0af6 28000000 		.4byte	.LBB11
 1870 0afa 2E000000 		.4byte	.LBE11
 1871 0afe 130B0000 		.4byte	0xb13
ARM GAS  C:\Users\DNIEL~1\AppData\Local\Temp\cc4wkf7C.s 			page 34


 1872 0b02 25       		.uleb128 0x25
 1873 0b03 746D7000 		.ascii	"tmp\000"
 1874 0b07 01       		.byte	0x1
 1875 0b08 0401     		.2byte	0x104
 1876 0b0a 86000000 		.4byte	0x86
 1877 0b0e C5020000 		.4byte	.LLST24
 1878 0b12 00       		.byte	0
 1879 0b13 20       		.uleb128 0x20
 1880 0b14 20000000 		.4byte	.LVL30
 1881 0b18 3A0C0000 		.4byte	0xc3a
 1882 0b1c 1B       		.uleb128 0x1b
 1883 0b1d 01       		.byte	0x1
 1884 0b1e 53       		.byte	0x53
 1885 0b1f 02       		.byte	0x2
 1886 0b20 76       		.byte	0x76
 1887 0b21 00       		.sleb128 0
 1888 0b22 1B       		.uleb128 0x1b
 1889 0b23 01       		.byte	0x1
 1890 0b24 52       		.byte	0x52
 1891 0b25 03       		.byte	0x3
 1892 0b26 F3       		.byte	0xf3
 1893 0b27 01       		.uleb128 0x1
 1894 0b28 52       		.byte	0x52
 1895 0b29 1B       		.uleb128 0x1b
 1896 0b2a 01       		.byte	0x1
 1897 0b2b 50       		.byte	0x50
 1898 0b2c 02       		.byte	0x2
 1899 0b2d 74       		.byte	0x74
 1900 0b2e 00       		.sleb128 0
 1901 0b2f 1B       		.uleb128 0x1b
 1902 0b30 02       		.byte	0x2
 1903 0b31 7D       		.byte	0x7d
 1904 0b32 00       		.sleb128 0
 1905 0b33 02       		.byte	0x2
 1906 0b34 75       		.byte	0x75
 1907 0b35 00       		.sleb128 0
 1908 0b36 00       		.byte	0
 1909 0b37 00       		.byte	0
 1910 0b38 26       		.uleb128 0x26
 1911 0b39 01       		.byte	0x1
 1912 0b3a 65050000 		.4byte	.LASF128
 1913 0b3e 01       		.byte	0x1
 1914 0b3f 1401     		.2byte	0x114
 1915 0b41 01       		.byte	0x1
 1916 0b42 00000000 		.4byte	.LFB125
 1917 0b46 06000000 		.4byte	.LFE125
 1918 0b4a 02       		.byte	0x2
 1919 0b4b 7D       		.byte	0x7d
 1920 0b4c 00       		.sleb128 0
 1921 0b4d 01       		.byte	0x1
 1922 0b4e 770B0000 		.4byte	0xb77
 1923 0b52 27       		.uleb128 0x27
 1924 0b53 C7000000 		.4byte	.LASF118
 1925 0b57 01       		.byte	0x1
 1926 0b58 1401     		.2byte	0x114
 1927 0b5a 41080000 		.4byte	0x841
 1928 0b5e D8020000 		.4byte	.LLST25
ARM GAS  C:\Users\DNIEL~1\AppData\Local\Temp\cc4wkf7C.s 			page 35


 1929 0b62 1A       		.uleb128 0x1a
 1930 0b63 06000000 		.4byte	.LVL36
 1931 0b67 01       		.byte	0x1
 1932 0b68 670C0000 		.4byte	0xc67
 1933 0b6c 1B       		.uleb128 0x1b
 1934 0b6d 01       		.byte	0x1
 1935 0b6e 50       		.byte	0x50
 1936 0b6f 05       		.byte	0x5
 1937 0b70 F3       		.byte	0xf3
 1938 0b71 01       		.uleb128 0x1
 1939 0b72 50       		.byte	0x50
 1940 0b73 23       		.byte	0x23
 1941 0b74 0C       		.uleb128 0xc
 1942 0b75 00       		.byte	0
 1943 0b76 00       		.byte	0
 1944 0b77 26       		.uleb128 0x26
 1945 0b78 01       		.byte	0x1
 1946 0b79 AC000000 		.4byte	.LASF129
 1947 0b7d 01       		.byte	0x1
 1948 0b7e 2801     		.2byte	0x128
 1949 0b80 01       		.byte	0x1
 1950 0b81 00000000 		.4byte	.LFB126
 1951 0b85 04000000 		.4byte	.LFE126
 1952 0b89 02       		.byte	0x2
 1953 0b8a 7D       		.byte	0x7d
 1954 0b8b 00       		.sleb128 0
 1955 0b8c 01       		.byte	0x1
 1956 0b8d AC0B0000 		.4byte	0xbac
 1957 0b91 27       		.uleb128 0x27
 1958 0b92 C7000000 		.4byte	.LASF118
 1959 0b96 01       		.byte	0x1
 1960 0b97 2801     		.2byte	0x128
 1961 0b99 41080000 		.4byte	0x841
 1962 0b9d 06030000 		.4byte	.LLST26
 1963 0ba1 18       		.uleb128 0x18
 1964 0ba2 04000000 		.4byte	.LVL38
 1965 0ba6 01       		.byte	0x1
 1966 0ba7 7B0C0000 		.4byte	0xc7b
 1967 0bab 00       		.byte	0
 1968 0bac 28       		.uleb128 0x28
 1969 0bad BA000000 		.4byte	.LASF139
 1970 0bb1 0D       		.byte	0xd
 1971 0bb2 9806     		.2byte	0x698
 1972 0bb4 07040000 		.4byte	0x407
 1973 0bb8 01       		.byte	0x1
 1974 0bb9 01       		.byte	0x1
 1975 0bba 29       		.uleb128 0x29
 1976 0bbb 01       		.byte	0x1
 1977 0bbc 58050000 		.4byte	.LASF140
 1978 0bc0 0C       		.byte	0xc
 1979 0bc1 BD01     		.2byte	0x1bd
 1980 0bc3 01       		.byte	0x1
 1981 0bc4 01       		.byte	0x1
 1982 0bc5 2A       		.uleb128 0x2a
 1983 0bc6 01       		.byte	0x1
 1984 0bc7 4E050000 		.4byte	.LASF130
 1985 0bcb 08       		.byte	0x8
ARM GAS  C:\Users\DNIEL~1\AppData\Local\Temp\cc4wkf7C.s 			page 36


 1986 0bcc 38       		.byte	0x38
 1987 0bcd 01       		.byte	0x1
 1988 0bce 01       		.byte	0x1
 1989 0bcf D90B0000 		.4byte	0xbd9
 1990 0bd3 2B       		.uleb128 0x2b
 1991 0bd4 EB030000 		.4byte	0x3eb
 1992 0bd8 00       		.byte	0
 1993 0bd9 2C       		.uleb128 0x2c
 1994 0bda 01       		.byte	0x1
 1995 0bdb 94020000 		.4byte	.LASF131
 1996 0bdf 0C       		.byte	0xc
 1997 0be0 BE01     		.2byte	0x1be
 1998 0be2 01       		.byte	0x1
 1999 0be3 01       		.byte	0x1
 2000 0be4 EE0B0000 		.4byte	0xbee
 2001 0be8 2B       		.uleb128 0x2b
 2002 0be9 41080000 		.4byte	0x841
 2003 0bed 00       		.byte	0
 2004 0bee 2C       		.uleb128 0x2c
 2005 0bef 01       		.byte	0x1
 2006 0bf0 87020000 		.4byte	.LASF132
 2007 0bf4 0C       		.byte	0xc
 2008 0bf5 BF01     		.2byte	0x1bf
 2009 0bf7 01       		.byte	0x1
 2010 0bf8 01       		.byte	0x1
 2011 0bf9 030C0000 		.4byte	0xc03
 2012 0bfd 2B       		.uleb128 0x2b
 2013 0bfe 41080000 		.4byte	0x841
 2014 0c02 00       		.byte	0
 2015 0c03 2D       		.uleb128 0x2d
 2016 0c04 01       		.byte	0x1
 2017 0c05 26010000 		.4byte	.LASF133
 2018 0c09 0C       		.byte	0xc
 2019 0c0a C001     		.2byte	0x1c0
 2020 0c0c 01       		.byte	0x1
 2021 0c0d E4000000 		.4byte	0xe4
 2022 0c11 01       		.byte	0x1
 2023 0c12 3A0C0000 		.4byte	0xc3a
 2024 0c16 2B       		.uleb128 0x2b
 2025 0c17 41080000 		.4byte	0x841
 2026 0c1b 2B       		.uleb128 0x2b
 2027 0c1c 65060000 		.4byte	0x665
 2028 0c20 2B       		.uleb128 0x2b
 2029 0c21 F7030000 		.4byte	0x3f7
 2030 0c25 2B       		.uleb128 0x2b
 2031 0c26 30000000 		.4byte	0x30
 2032 0c2a 2B       		.uleb128 0x2b
 2033 0c2b F1030000 		.4byte	0x3f1
 2034 0c2f 2B       		.uleb128 0x2b
 2035 0c30 30000000 		.4byte	0x30
 2036 0c34 2B       		.uleb128 0x2b
 2037 0c35 FA000000 		.4byte	0xfa
 2038 0c39 00       		.byte	0
 2039 0c3a 2D       		.uleb128 0x2d
 2040 0c3b 01       		.byte	0x1
 2041 0c3c 4B000000 		.4byte	.LASF134
 2042 0c40 0C       		.byte	0xc
ARM GAS  C:\Users\DNIEL~1\AppData\Local\Temp\cc4wkf7C.s 			page 37


 2043 0c41 C401     		.2byte	0x1c4
 2044 0c43 01       		.byte	0x1
 2045 0c44 E4000000 		.4byte	0xe4
 2046 0c48 01       		.byte	0x1
 2047 0c49 670C0000 		.4byte	0xc67
 2048 0c4d 2B       		.uleb128 0x2b
 2049 0c4e 41080000 		.4byte	0x841
 2050 0c52 2B       		.uleb128 0x2b
 2051 0c53 65060000 		.4byte	0x665
 2052 0c57 2B       		.uleb128 0x2b
 2053 0c58 F1030000 		.4byte	0x3f1
 2054 0c5c 2B       		.uleb128 0x2b
 2055 0c5d 30000000 		.4byte	0x30
 2056 0c61 2B       		.uleb128 0x2b
 2057 0c62 FA000000 		.4byte	0xfa
 2058 0c66 00       		.byte	0
 2059 0c67 2A       		.uleb128 0x2a
 2060 0c68 01       		.byte	0x1
 2061 0c69 BC020000 		.4byte	.LASF135
 2062 0c6d 08       		.byte	0x8
 2063 0c6e 39       		.byte	0x39
 2064 0c6f 01       		.byte	0x1
 2065 0c70 01       		.byte	0x1
 2066 0c71 7B0C0000 		.4byte	0xc7b
 2067 0c75 2B       		.uleb128 0x2b
 2068 0c76 EB030000 		.4byte	0x3eb
 2069 0c7a 00       		.byte	0
 2070 0c7b 2E       		.uleb128 0x2e
 2071 0c7c 01       		.byte	0x1
 2072 0c7d F4000000 		.4byte	.LASF141
 2073 0c81 08       		.byte	0x8
 2074 0c82 3D       		.byte	0x3d
 2075 0c83 01       		.byte	0x1
 2076 0c84 EB030000 		.4byte	0x3eb
 2077 0c88 01       		.byte	0x1
 2078 0c89 00       		.byte	0
 2079              		.section	.debug_abbrev,"",%progbits
 2080              	.Ldebug_abbrev0:
 2081 0000 01       		.uleb128 0x1
 2082 0001 11       		.uleb128 0x11
 2083 0002 01       		.byte	0x1
 2084 0003 25       		.uleb128 0x25
 2085 0004 0E       		.uleb128 0xe
 2086 0005 13       		.uleb128 0x13
 2087 0006 0B       		.uleb128 0xb
 2088 0007 03       		.uleb128 0x3
 2089 0008 0E       		.uleb128 0xe
 2090 0009 1B       		.uleb128 0x1b
 2091 000a 0E       		.uleb128 0xe
 2092 000b 55       		.uleb128 0x55
 2093 000c 06       		.uleb128 0x6
 2094 000d 11       		.uleb128 0x11
 2095 000e 01       		.uleb128 0x1
 2096 000f 52       		.uleb128 0x52
 2097 0010 01       		.uleb128 0x1
 2098 0011 10       		.uleb128 0x10
 2099 0012 06       		.uleb128 0x6
ARM GAS  C:\Users\DNIEL~1\AppData\Local\Temp\cc4wkf7C.s 			page 38


 2100 0013 00       		.byte	0
 2101 0014 00       		.byte	0
 2102 0015 02       		.uleb128 0x2
 2103 0016 24       		.uleb128 0x24
 2104 0017 00       		.byte	0
 2105 0018 0B       		.uleb128 0xb
 2106 0019 0B       		.uleb128 0xb
 2107 001a 3E       		.uleb128 0x3e
 2108 001b 0B       		.uleb128 0xb
 2109 001c 03       		.uleb128 0x3
 2110 001d 08       		.uleb128 0x8
 2111 001e 00       		.byte	0
 2112 001f 00       		.byte	0
 2113 0020 03       		.uleb128 0x3
 2114 0021 16       		.uleb128 0x16
 2115 0022 00       		.byte	0
 2116 0023 03       		.uleb128 0x3
 2117 0024 0E       		.uleb128 0xe
 2118 0025 3A       		.uleb128 0x3a
 2119 0026 0B       		.uleb128 0xb
 2120 0027 3B       		.uleb128 0x3b
 2121 0028 0B       		.uleb128 0xb
 2122 0029 49       		.uleb128 0x49
 2123 002a 13       		.uleb128 0x13
 2124 002b 00       		.byte	0
 2125 002c 00       		.byte	0
 2126 002d 04       		.uleb128 0x4
 2127 002e 24       		.uleb128 0x24
 2128 002f 00       		.byte	0
 2129 0030 0B       		.uleb128 0xb
 2130 0031 0B       		.uleb128 0xb
 2131 0032 3E       		.uleb128 0x3e
 2132 0033 0B       		.uleb128 0xb
 2133 0034 03       		.uleb128 0x3
 2134 0035 0E       		.uleb128 0xe
 2135 0036 00       		.byte	0
 2136 0037 00       		.byte	0
 2137 0038 05       		.uleb128 0x5
 2138 0039 13       		.uleb128 0x13
 2139 003a 01       		.byte	0x1
 2140 003b 03       		.uleb128 0x3
 2141 003c 0E       		.uleb128 0xe
 2142 003d 0B       		.uleb128 0xb
 2143 003e 0B       		.uleb128 0xb
 2144 003f 3A       		.uleb128 0x3a
 2145 0040 0B       		.uleb128 0xb
 2146 0041 3B       		.uleb128 0x3b
 2147 0042 0B       		.uleb128 0xb
 2148 0043 01       		.uleb128 0x1
 2149 0044 13       		.uleb128 0x13
 2150 0045 00       		.byte	0
 2151 0046 00       		.byte	0
 2152 0047 06       		.uleb128 0x6
 2153 0048 0D       		.uleb128 0xd
 2154 0049 00       		.byte	0
 2155 004a 03       		.uleb128 0x3
 2156 004b 0E       		.uleb128 0xe
ARM GAS  C:\Users\DNIEL~1\AppData\Local\Temp\cc4wkf7C.s 			page 39


 2157 004c 3A       		.uleb128 0x3a
 2158 004d 0B       		.uleb128 0xb
 2159 004e 3B       		.uleb128 0x3b
 2160 004f 0B       		.uleb128 0xb
 2161 0050 49       		.uleb128 0x49
 2162 0051 13       		.uleb128 0x13
 2163 0052 38       		.uleb128 0x38
 2164 0053 0A       		.uleb128 0xa
 2165 0054 00       		.byte	0
 2166 0055 00       		.byte	0
 2167 0056 07       		.uleb128 0x7
 2168 0057 0D       		.uleb128 0xd
 2169 0058 00       		.byte	0
 2170 0059 03       		.uleb128 0x3
 2171 005a 08       		.uleb128 0x8
 2172 005b 3A       		.uleb128 0x3a
 2173 005c 0B       		.uleb128 0xb
 2174 005d 3B       		.uleb128 0x3b
 2175 005e 0B       		.uleb128 0xb
 2176 005f 49       		.uleb128 0x49
 2177 0060 13       		.uleb128 0x13
 2178 0061 38       		.uleb128 0x38
 2179 0062 0A       		.uleb128 0xa
 2180 0063 00       		.byte	0
 2181 0064 00       		.byte	0
 2182 0065 08       		.uleb128 0x8
 2183 0066 13       		.uleb128 0x13
 2184 0067 01       		.byte	0x1
 2185 0068 0B       		.uleb128 0xb
 2186 0069 0B       		.uleb128 0xb
 2187 006a 3A       		.uleb128 0x3a
 2188 006b 0B       		.uleb128 0xb
 2189 006c 3B       		.uleb128 0x3b
 2190 006d 0B       		.uleb128 0xb
 2191 006e 01       		.uleb128 0x1
 2192 006f 13       		.uleb128 0x13
 2193 0070 00       		.byte	0
 2194 0071 00       		.byte	0
 2195 0072 09       		.uleb128 0x9
 2196 0073 0F       		.uleb128 0xf
 2197 0074 00       		.byte	0
 2198 0075 0B       		.uleb128 0xb
 2199 0076 0B       		.uleb128 0xb
 2200 0077 49       		.uleb128 0x49
 2201 0078 13       		.uleb128 0x13
 2202 0079 00       		.byte	0
 2203 007a 00       		.byte	0
 2204 007b 0A       		.uleb128 0xa
 2205 007c 0F       		.uleb128 0xf
 2206 007d 00       		.byte	0
 2207 007e 0B       		.uleb128 0xb
 2208 007f 0B       		.uleb128 0xb
 2209 0080 00       		.byte	0
 2210 0081 00       		.byte	0
 2211 0082 0B       		.uleb128 0xb
 2212 0083 13       		.uleb128 0x13
 2213 0084 01       		.byte	0x1
ARM GAS  C:\Users\DNIEL~1\AppData\Local\Temp\cc4wkf7C.s 			page 40


 2214 0085 03       		.uleb128 0x3
 2215 0086 0E       		.uleb128 0xe
 2216 0087 0B       		.uleb128 0xb
 2217 0088 0B       		.uleb128 0xb
 2218 0089 3A       		.uleb128 0x3a
 2219 008a 0B       		.uleb128 0xb
 2220 008b 3B       		.uleb128 0x3b
 2221 008c 05       		.uleb128 0x5
 2222 008d 01       		.uleb128 0x1
 2223 008e 13       		.uleb128 0x13
 2224 008f 00       		.byte	0
 2225 0090 00       		.byte	0
 2226 0091 0C       		.uleb128 0xc
 2227 0092 0D       		.uleb128 0xd
 2228 0093 00       		.byte	0
 2229 0094 03       		.uleb128 0x3
 2230 0095 08       		.uleb128 0x8
 2231 0096 3A       		.uleb128 0x3a
 2232 0097 0B       		.uleb128 0xb
 2233 0098 3B       		.uleb128 0x3b
 2234 0099 05       		.uleb128 0x5
 2235 009a 49       		.uleb128 0x49
 2236 009b 13       		.uleb128 0x13
 2237 009c 38       		.uleb128 0x38
 2238 009d 0A       		.uleb128 0xa
 2239 009e 00       		.byte	0
 2240 009f 00       		.byte	0
 2241 00a0 0D       		.uleb128 0xd
 2242 00a1 35       		.uleb128 0x35
 2243 00a2 00       		.byte	0
 2244 00a3 49       		.uleb128 0x49
 2245 00a4 13       		.uleb128 0x13
 2246 00a5 00       		.byte	0
 2247 00a6 00       		.byte	0
 2248 00a7 0E       		.uleb128 0xe
 2249 00a8 17       		.uleb128 0x17
 2250 00a9 01       		.byte	0x1
 2251 00aa 0B       		.uleb128 0xb
 2252 00ab 0B       		.uleb128 0xb
 2253 00ac 3A       		.uleb128 0x3a
 2254 00ad 0B       		.uleb128 0xb
 2255 00ae 3B       		.uleb128 0x3b
 2256 00af 0B       		.uleb128 0xb
 2257 00b0 01       		.uleb128 0x1
 2258 00b1 13       		.uleb128 0x13
 2259 00b2 00       		.byte	0
 2260 00b3 00       		.byte	0
 2261 00b4 0F       		.uleb128 0xf
 2262 00b5 0D       		.uleb128 0xd
 2263 00b6 00       		.byte	0
 2264 00b7 03       		.uleb128 0x3
 2265 00b8 0E       		.uleb128 0xe
 2266 00b9 3A       		.uleb128 0x3a
 2267 00ba 0B       		.uleb128 0xb
 2268 00bb 3B       		.uleb128 0x3b
 2269 00bc 0B       		.uleb128 0xb
 2270 00bd 49       		.uleb128 0x49
ARM GAS  C:\Users\DNIEL~1\AppData\Local\Temp\cc4wkf7C.s 			page 41


 2271 00be 13       		.uleb128 0x13
 2272 00bf 00       		.byte	0
 2273 00c0 00       		.byte	0
 2274 00c1 10       		.uleb128 0x10
 2275 00c2 26       		.uleb128 0x26
 2276 00c3 00       		.byte	0
 2277 00c4 49       		.uleb128 0x49
 2278 00c5 13       		.uleb128 0x13
 2279 00c6 00       		.byte	0
 2280 00c7 00       		.byte	0
 2281 00c8 11       		.uleb128 0x11
 2282 00c9 13       		.uleb128 0x13
 2283 00ca 01       		.byte	0x1
 2284 00cb 0B       		.uleb128 0xb
 2285 00cc 0B       		.uleb128 0xb
 2286 00cd 3A       		.uleb128 0x3a
 2287 00ce 0B       		.uleb128 0xb
 2288 00cf 3B       		.uleb128 0x3b
 2289 00d0 05       		.uleb128 0x5
 2290 00d1 01       		.uleb128 0x1
 2291 00d2 13       		.uleb128 0x13
 2292 00d3 00       		.byte	0
 2293 00d4 00       		.byte	0
 2294 00d5 12       		.uleb128 0x12
 2295 00d6 0D       		.uleb128 0xd
 2296 00d7 00       		.byte	0
 2297 00d8 03       		.uleb128 0x3
 2298 00d9 0E       		.uleb128 0xe
 2299 00da 3A       		.uleb128 0x3a
 2300 00db 0B       		.uleb128 0xb
 2301 00dc 3B       		.uleb128 0x3b
 2302 00dd 05       		.uleb128 0x5
 2303 00de 49       		.uleb128 0x49
 2304 00df 13       		.uleb128 0x13
 2305 00e0 38       		.uleb128 0x38
 2306 00e1 0A       		.uleb128 0xa
 2307 00e2 00       		.byte	0
 2308 00e3 00       		.byte	0
 2309 00e4 13       		.uleb128 0x13
 2310 00e5 16       		.uleb128 0x16
 2311 00e6 00       		.byte	0
 2312 00e7 03       		.uleb128 0x3
 2313 00e8 0E       		.uleb128 0xe
 2314 00e9 3A       		.uleb128 0x3a
 2315 00ea 0B       		.uleb128 0xb
 2316 00eb 3B       		.uleb128 0x3b
 2317 00ec 05       		.uleb128 0x5
 2318 00ed 49       		.uleb128 0x49
 2319 00ee 13       		.uleb128 0x13
 2320 00ef 00       		.byte	0
 2321 00f0 00       		.byte	0
 2322 00f1 14       		.uleb128 0x14
 2323 00f2 04       		.uleb128 0x4
 2324 00f3 01       		.byte	0x1
 2325 00f4 0B       		.uleb128 0xb
 2326 00f5 0B       		.uleb128 0xb
 2327 00f6 3A       		.uleb128 0x3a
ARM GAS  C:\Users\DNIEL~1\AppData\Local\Temp\cc4wkf7C.s 			page 42


 2328 00f7 0B       		.uleb128 0xb
 2329 00f8 3B       		.uleb128 0x3b
 2330 00f9 0B       		.uleb128 0xb
 2331 00fa 01       		.uleb128 0x1
 2332 00fb 13       		.uleb128 0x13
 2333 00fc 00       		.byte	0
 2334 00fd 00       		.byte	0
 2335 00fe 15       		.uleb128 0x15
 2336 00ff 28       		.uleb128 0x28
 2337 0100 00       		.byte	0
 2338 0101 03       		.uleb128 0x3
 2339 0102 0E       		.uleb128 0xe
 2340 0103 1C       		.uleb128 0x1c
 2341 0104 0D       		.uleb128 0xd
 2342 0105 00       		.byte	0
 2343 0106 00       		.byte	0
 2344 0107 16       		.uleb128 0x16
 2345 0108 04       		.uleb128 0x4
 2346 0109 01       		.byte	0x1
 2347 010a 0B       		.uleb128 0xb
 2348 010b 0B       		.uleb128 0xb
 2349 010c 3A       		.uleb128 0x3a
 2350 010d 0B       		.uleb128 0xb
 2351 010e 3B       		.uleb128 0x3b
 2352 010f 05       		.uleb128 0x5
 2353 0110 01       		.uleb128 0x1
 2354 0111 13       		.uleb128 0x13
 2355 0112 00       		.byte	0
 2356 0113 00       		.byte	0
 2357 0114 17       		.uleb128 0x17
 2358 0115 2E       		.uleb128 0x2e
 2359 0116 01       		.byte	0x1
 2360 0117 3F       		.uleb128 0x3f
 2361 0118 0C       		.uleb128 0xc
 2362 0119 03       		.uleb128 0x3
 2363 011a 0E       		.uleb128 0xe
 2364 011b 3A       		.uleb128 0x3a
 2365 011c 0B       		.uleb128 0xb
 2366 011d 3B       		.uleb128 0x3b
 2367 011e 0B       		.uleb128 0xb
 2368 011f 27       		.uleb128 0x27
 2369 0120 0C       		.uleb128 0xc
 2370 0121 11       		.uleb128 0x11
 2371 0122 01       		.uleb128 0x1
 2372 0123 12       		.uleb128 0x12
 2373 0124 01       		.uleb128 0x1
 2374 0125 40       		.uleb128 0x40
 2375 0126 0A       		.uleb128 0xa
 2376 0127 9742     		.uleb128 0x2117
 2377 0129 0C       		.uleb128 0xc
 2378 012a 01       		.uleb128 0x1
 2379 012b 13       		.uleb128 0x13
 2380 012c 00       		.byte	0
 2381 012d 00       		.byte	0
 2382 012e 18       		.uleb128 0x18
 2383 012f 898201   		.uleb128 0x4109
 2384 0132 00       		.byte	0
ARM GAS  C:\Users\DNIEL~1\AppData\Local\Temp\cc4wkf7C.s 			page 43


 2385 0133 11       		.uleb128 0x11
 2386 0134 01       		.uleb128 0x1
 2387 0135 9542     		.uleb128 0x2115
 2388 0137 0C       		.uleb128 0xc
 2389 0138 31       		.uleb128 0x31
 2390 0139 13       		.uleb128 0x13
 2391 013a 00       		.byte	0
 2392 013b 00       		.byte	0
 2393 013c 19       		.uleb128 0x19
 2394 013d 05       		.uleb128 0x5
 2395 013e 00       		.byte	0
 2396 013f 03       		.uleb128 0x3
 2397 0140 0E       		.uleb128 0xe
 2398 0141 3A       		.uleb128 0x3a
 2399 0142 0B       		.uleb128 0xb
 2400 0143 3B       		.uleb128 0x3b
 2401 0144 0B       		.uleb128 0xb
 2402 0145 49       		.uleb128 0x49
 2403 0146 13       		.uleb128 0x13
 2404 0147 02       		.uleb128 0x2
 2405 0148 06       		.uleb128 0x6
 2406 0149 00       		.byte	0
 2407 014a 00       		.byte	0
 2408 014b 1A       		.uleb128 0x1a
 2409 014c 898201   		.uleb128 0x4109
 2410 014f 01       		.byte	0x1
 2411 0150 11       		.uleb128 0x11
 2412 0151 01       		.uleb128 0x1
 2413 0152 9542     		.uleb128 0x2115
 2414 0154 0C       		.uleb128 0xc
 2415 0155 31       		.uleb128 0x31
 2416 0156 13       		.uleb128 0x13
 2417 0157 00       		.byte	0
 2418 0158 00       		.byte	0
 2419 0159 1B       		.uleb128 0x1b
 2420 015a 8A8201   		.uleb128 0x410a
 2421 015d 00       		.byte	0
 2422 015e 02       		.uleb128 0x2
 2423 015f 0A       		.uleb128 0xa
 2424 0160 9142     		.uleb128 0x2111
 2425 0162 0A       		.uleb128 0xa
 2426 0163 00       		.byte	0
 2427 0164 00       		.byte	0
 2428 0165 1C       		.uleb128 0x1c
 2429 0166 2E       		.uleb128 0x2e
 2430 0167 01       		.byte	0x1
 2431 0168 3F       		.uleb128 0x3f
 2432 0169 0C       		.uleb128 0xc
 2433 016a 03       		.uleb128 0x3
 2434 016b 0E       		.uleb128 0xe
 2435 016c 3A       		.uleb128 0x3a
 2436 016d 0B       		.uleb128 0xb
 2437 016e 3B       		.uleb128 0x3b
 2438 016f 0B       		.uleb128 0xb
 2439 0170 27       		.uleb128 0x27
 2440 0171 0C       		.uleb128 0xc
 2441 0172 11       		.uleb128 0x11
ARM GAS  C:\Users\DNIEL~1\AppData\Local\Temp\cc4wkf7C.s 			page 44


 2442 0173 01       		.uleb128 0x1
 2443 0174 12       		.uleb128 0x12
 2444 0175 01       		.uleb128 0x1
 2445 0176 40       		.uleb128 0x40
 2446 0177 06       		.uleb128 0x6
 2447 0178 9742     		.uleb128 0x2117
 2448 017a 0C       		.uleb128 0xc
 2449 017b 01       		.uleb128 0x1
 2450 017c 13       		.uleb128 0x13
 2451 017d 00       		.byte	0
 2452 017e 00       		.byte	0
 2453 017f 1D       		.uleb128 0x1d
 2454 0180 0B       		.uleb128 0xb
 2455 0181 01       		.byte	0x1
 2456 0182 55       		.uleb128 0x55
 2457 0183 06       		.uleb128 0x6
 2458 0184 01       		.uleb128 0x1
 2459 0185 13       		.uleb128 0x13
 2460 0186 00       		.byte	0
 2461 0187 00       		.byte	0
 2462 0188 1E       		.uleb128 0x1e
 2463 0189 34       		.uleb128 0x34
 2464 018a 00       		.byte	0
 2465 018b 03       		.uleb128 0x3
 2466 018c 08       		.uleb128 0x8
 2467 018d 3A       		.uleb128 0x3a
 2468 018e 0B       		.uleb128 0xb
 2469 018f 3B       		.uleb128 0x3b
 2470 0190 0B       		.uleb128 0xb
 2471 0191 49       		.uleb128 0x49
 2472 0192 13       		.uleb128 0x13
 2473 0193 02       		.uleb128 0x2
 2474 0194 06       		.uleb128 0x6
 2475 0195 00       		.byte	0
 2476 0196 00       		.byte	0
 2477 0197 1F       		.uleb128 0x1f
 2478 0198 0B       		.uleb128 0xb
 2479 0199 01       		.byte	0x1
 2480 019a 11       		.uleb128 0x11
 2481 019b 01       		.uleb128 0x1
 2482 019c 12       		.uleb128 0x12
 2483 019d 01       		.uleb128 0x1
 2484 019e 01       		.uleb128 0x1
 2485 019f 13       		.uleb128 0x13
 2486 01a0 00       		.byte	0
 2487 01a1 00       		.byte	0
 2488 01a2 20       		.uleb128 0x20
 2489 01a3 898201   		.uleb128 0x4109
 2490 01a6 01       		.byte	0x1
 2491 01a7 11       		.uleb128 0x11
 2492 01a8 01       		.uleb128 0x1
 2493 01a9 31       		.uleb128 0x31
 2494 01aa 13       		.uleb128 0x13
 2495 01ab 00       		.byte	0
 2496 01ac 00       		.byte	0
 2497 01ad 21       		.uleb128 0x21
 2498 01ae 2E       		.uleb128 0x2e
ARM GAS  C:\Users\DNIEL~1\AppData\Local\Temp\cc4wkf7C.s 			page 45


 2499 01af 01       		.byte	0x1
 2500 01b0 3F       		.uleb128 0x3f
 2501 01b1 0C       		.uleb128 0xc
 2502 01b2 03       		.uleb128 0x3
 2503 01b3 0E       		.uleb128 0xe
 2504 01b4 3A       		.uleb128 0x3a
 2505 01b5 0B       		.uleb128 0xb
 2506 01b6 3B       		.uleb128 0x3b
 2507 01b7 0B       		.uleb128 0xb
 2508 01b8 27       		.uleb128 0x27
 2509 01b9 0C       		.uleb128 0xc
 2510 01ba 49       		.uleb128 0x49
 2511 01bb 13       		.uleb128 0x13
 2512 01bc 11       		.uleb128 0x11
 2513 01bd 01       		.uleb128 0x1
 2514 01be 12       		.uleb128 0x12
 2515 01bf 01       		.uleb128 0x1
 2516 01c0 40       		.uleb128 0x40
 2517 01c1 0A       		.uleb128 0xa
 2518 01c2 9742     		.uleb128 0x2117
 2519 01c4 0C       		.uleb128 0xc
 2520 01c5 01       		.uleb128 0x1
 2521 01c6 13       		.uleb128 0x13
 2522 01c7 00       		.byte	0
 2523 01c8 00       		.byte	0
 2524 01c9 22       		.uleb128 0x22
 2525 01ca 2E       		.uleb128 0x2e
 2526 01cb 01       		.byte	0x1
 2527 01cc 3F       		.uleb128 0x3f
 2528 01cd 0C       		.uleb128 0xc
 2529 01ce 03       		.uleb128 0x3
 2530 01cf 0E       		.uleb128 0xe
 2531 01d0 3A       		.uleb128 0x3a
 2532 01d1 0B       		.uleb128 0xb
 2533 01d2 3B       		.uleb128 0x3b
 2534 01d3 0B       		.uleb128 0xb
 2535 01d4 27       		.uleb128 0x27
 2536 01d5 0C       		.uleb128 0xc
 2537 01d6 49       		.uleb128 0x49
 2538 01d7 13       		.uleb128 0x13
 2539 01d8 11       		.uleb128 0x11
 2540 01d9 01       		.uleb128 0x1
 2541 01da 12       		.uleb128 0x12
 2542 01db 01       		.uleb128 0x1
 2543 01dc 40       		.uleb128 0x40
 2544 01dd 06       		.uleb128 0x6
 2545 01de 9742     		.uleb128 0x2117
 2546 01e0 0C       		.uleb128 0xc
 2547 01e1 01       		.uleb128 0x1
 2548 01e2 13       		.uleb128 0x13
 2549 01e3 00       		.byte	0
 2550 01e4 00       		.byte	0
 2551 01e5 23       		.uleb128 0x23
 2552 01e6 05       		.uleb128 0x5
 2553 01e7 00       		.byte	0
 2554 01e8 03       		.uleb128 0x3
 2555 01e9 0E       		.uleb128 0xe
ARM GAS  C:\Users\DNIEL~1\AppData\Local\Temp\cc4wkf7C.s 			page 46


 2556 01ea 3A       		.uleb128 0x3a
 2557 01eb 0B       		.uleb128 0xb
 2558 01ec 3B       		.uleb128 0x3b
 2559 01ed 0B       		.uleb128 0xb
 2560 01ee 49       		.uleb128 0x49
 2561 01ef 13       		.uleb128 0x13
 2562 01f0 02       		.uleb128 0x2
 2563 01f1 0A       		.uleb128 0xa
 2564 01f2 00       		.byte	0
 2565 01f3 00       		.byte	0
 2566 01f4 24       		.uleb128 0x24
 2567 01f5 34       		.uleb128 0x34
 2568 01f6 00       		.byte	0
 2569 01f7 03       		.uleb128 0x3
 2570 01f8 0E       		.uleb128 0xe
 2571 01f9 3A       		.uleb128 0x3a
 2572 01fa 0B       		.uleb128 0xb
 2573 01fb 3B       		.uleb128 0x3b
 2574 01fc 0B       		.uleb128 0xb
 2575 01fd 49       		.uleb128 0x49
 2576 01fe 13       		.uleb128 0x13
 2577 01ff 02       		.uleb128 0x2
 2578 0200 0A       		.uleb128 0xa
 2579 0201 00       		.byte	0
 2580 0202 00       		.byte	0
 2581 0203 25       		.uleb128 0x25
 2582 0204 34       		.uleb128 0x34
 2583 0205 00       		.byte	0
 2584 0206 03       		.uleb128 0x3
 2585 0207 08       		.uleb128 0x8
 2586 0208 3A       		.uleb128 0x3a
 2587 0209 0B       		.uleb128 0xb
 2588 020a 3B       		.uleb128 0x3b
 2589 020b 05       		.uleb128 0x5
 2590 020c 49       		.uleb128 0x49
 2591 020d 13       		.uleb128 0x13
 2592 020e 02       		.uleb128 0x2
 2593 020f 06       		.uleb128 0x6
 2594 0210 00       		.byte	0
 2595 0211 00       		.byte	0
 2596 0212 26       		.uleb128 0x26
 2597 0213 2E       		.uleb128 0x2e
 2598 0214 01       		.byte	0x1
 2599 0215 3F       		.uleb128 0x3f
 2600 0216 0C       		.uleb128 0xc
 2601 0217 03       		.uleb128 0x3
 2602 0218 0E       		.uleb128 0xe
 2603 0219 3A       		.uleb128 0x3a
 2604 021a 0B       		.uleb128 0xb
 2605 021b 3B       		.uleb128 0x3b
 2606 021c 05       		.uleb128 0x5
 2607 021d 27       		.uleb128 0x27
 2608 021e 0C       		.uleb128 0xc
 2609 021f 11       		.uleb128 0x11
 2610 0220 01       		.uleb128 0x1
 2611 0221 12       		.uleb128 0x12
 2612 0222 01       		.uleb128 0x1
ARM GAS  C:\Users\DNIEL~1\AppData\Local\Temp\cc4wkf7C.s 			page 47


 2613 0223 40       		.uleb128 0x40
 2614 0224 0A       		.uleb128 0xa
 2615 0225 9742     		.uleb128 0x2117
 2616 0227 0C       		.uleb128 0xc
 2617 0228 01       		.uleb128 0x1
 2618 0229 13       		.uleb128 0x13
 2619 022a 00       		.byte	0
 2620 022b 00       		.byte	0
 2621 022c 27       		.uleb128 0x27
 2622 022d 05       		.uleb128 0x5
 2623 022e 00       		.byte	0
 2624 022f 03       		.uleb128 0x3
 2625 0230 0E       		.uleb128 0xe
 2626 0231 3A       		.uleb128 0x3a
 2627 0232 0B       		.uleb128 0xb
 2628 0233 3B       		.uleb128 0x3b
 2629 0234 05       		.uleb128 0x5
 2630 0235 49       		.uleb128 0x49
 2631 0236 13       		.uleb128 0x13
 2632 0237 02       		.uleb128 0x2
 2633 0238 06       		.uleb128 0x6
 2634 0239 00       		.byte	0
 2635 023a 00       		.byte	0
 2636 023b 28       		.uleb128 0x28
 2637 023c 34       		.uleb128 0x34
 2638 023d 00       		.byte	0
 2639 023e 03       		.uleb128 0x3
 2640 023f 0E       		.uleb128 0xe
 2641 0240 3A       		.uleb128 0x3a
 2642 0241 0B       		.uleb128 0xb
 2643 0242 3B       		.uleb128 0x3b
 2644 0243 05       		.uleb128 0x5
 2645 0244 49       		.uleb128 0x49
 2646 0245 13       		.uleb128 0x13
 2647 0246 3F       		.uleb128 0x3f
 2648 0247 0C       		.uleb128 0xc
 2649 0248 3C       		.uleb128 0x3c
 2650 0249 0C       		.uleb128 0xc
 2651 024a 00       		.byte	0
 2652 024b 00       		.byte	0
 2653 024c 29       		.uleb128 0x29
 2654 024d 2E       		.uleb128 0x2e
 2655 024e 00       		.byte	0
 2656 024f 3F       		.uleb128 0x3f
 2657 0250 0C       		.uleb128 0xc
 2658 0251 03       		.uleb128 0x3
 2659 0252 0E       		.uleb128 0xe
 2660 0253 3A       		.uleb128 0x3a
 2661 0254 0B       		.uleb128 0xb
 2662 0255 3B       		.uleb128 0x3b
 2663 0256 05       		.uleb128 0x5
 2664 0257 27       		.uleb128 0x27
 2665 0258 0C       		.uleb128 0xc
 2666 0259 3C       		.uleb128 0x3c
 2667 025a 0C       		.uleb128 0xc
 2668 025b 00       		.byte	0
 2669 025c 00       		.byte	0
ARM GAS  C:\Users\DNIEL~1\AppData\Local\Temp\cc4wkf7C.s 			page 48


 2670 025d 2A       		.uleb128 0x2a
 2671 025e 2E       		.uleb128 0x2e
 2672 025f 01       		.byte	0x1
 2673 0260 3F       		.uleb128 0x3f
 2674 0261 0C       		.uleb128 0xc
 2675 0262 03       		.uleb128 0x3
 2676 0263 0E       		.uleb128 0xe
 2677 0264 3A       		.uleb128 0x3a
 2678 0265 0B       		.uleb128 0xb
 2679 0266 3B       		.uleb128 0x3b
 2680 0267 0B       		.uleb128 0xb
 2681 0268 27       		.uleb128 0x27
 2682 0269 0C       		.uleb128 0xc
 2683 026a 3C       		.uleb128 0x3c
 2684 026b 0C       		.uleb128 0xc
 2685 026c 01       		.uleb128 0x1
 2686 026d 13       		.uleb128 0x13
 2687 026e 00       		.byte	0
 2688 026f 00       		.byte	0
 2689 0270 2B       		.uleb128 0x2b
 2690 0271 05       		.uleb128 0x5
 2691 0272 00       		.byte	0
 2692 0273 49       		.uleb128 0x49
 2693 0274 13       		.uleb128 0x13
 2694 0275 00       		.byte	0
 2695 0276 00       		.byte	0
 2696 0277 2C       		.uleb128 0x2c
 2697 0278 2E       		.uleb128 0x2e
 2698 0279 01       		.byte	0x1
 2699 027a 3F       		.uleb128 0x3f
 2700 027b 0C       		.uleb128 0xc
 2701 027c 03       		.uleb128 0x3
 2702 027d 0E       		.uleb128 0xe
 2703 027e 3A       		.uleb128 0x3a
 2704 027f 0B       		.uleb128 0xb
 2705 0280 3B       		.uleb128 0x3b
 2706 0281 05       		.uleb128 0x5
 2707 0282 27       		.uleb128 0x27
 2708 0283 0C       		.uleb128 0xc
 2709 0284 3C       		.uleb128 0x3c
 2710 0285 0C       		.uleb128 0xc
 2711 0286 01       		.uleb128 0x1
 2712 0287 13       		.uleb128 0x13
 2713 0288 00       		.byte	0
 2714 0289 00       		.byte	0
 2715 028a 2D       		.uleb128 0x2d
 2716 028b 2E       		.uleb128 0x2e
 2717 028c 01       		.byte	0x1
 2718 028d 3F       		.uleb128 0x3f
 2719 028e 0C       		.uleb128 0xc
 2720 028f 03       		.uleb128 0x3
 2721 0290 0E       		.uleb128 0xe
 2722 0291 3A       		.uleb128 0x3a
 2723 0292 0B       		.uleb128 0xb
 2724 0293 3B       		.uleb128 0x3b
 2725 0294 05       		.uleb128 0x5
 2726 0295 27       		.uleb128 0x27
ARM GAS  C:\Users\DNIEL~1\AppData\Local\Temp\cc4wkf7C.s 			page 49


 2727 0296 0C       		.uleb128 0xc
 2728 0297 49       		.uleb128 0x49
 2729 0298 13       		.uleb128 0x13
 2730 0299 3C       		.uleb128 0x3c
 2731 029a 0C       		.uleb128 0xc
 2732 029b 01       		.uleb128 0x1
 2733 029c 13       		.uleb128 0x13
 2734 029d 00       		.byte	0
 2735 029e 00       		.byte	0
 2736 029f 2E       		.uleb128 0x2e
 2737 02a0 2E       		.uleb128 0x2e
 2738 02a1 00       		.byte	0
 2739 02a2 3F       		.uleb128 0x3f
 2740 02a3 0C       		.uleb128 0xc
 2741 02a4 03       		.uleb128 0x3
 2742 02a5 0E       		.uleb128 0xe
 2743 02a6 3A       		.uleb128 0x3a
 2744 02a7 0B       		.uleb128 0xb
 2745 02a8 3B       		.uleb128 0x3b
 2746 02a9 0B       		.uleb128 0xb
 2747 02aa 27       		.uleb128 0x27
 2748 02ab 0C       		.uleb128 0xc
 2749 02ac 49       		.uleb128 0x49
 2750 02ad 13       		.uleb128 0x13
 2751 02ae 3C       		.uleb128 0x3c
 2752 02af 0C       		.uleb128 0xc
 2753 02b0 00       		.byte	0
 2754 02b1 00       		.byte	0
 2755 02b2 00       		.byte	0
 2756              		.section	.debug_loc,"",%progbits
 2757              	.Ldebug_loc0:
 2758              	.LLST0:
 2759 0000 00000000 		.4byte	.LVL1
 2760 0004 0A000000 		.4byte	.LVL2
 2761 0008 0100     		.2byte	0x1
 2762 000a 50       		.byte	0x50
 2763 000b 0A000000 		.4byte	.LVL2
 2764 000f 0D000000 		.4byte	.LVL3-1
 2765 0013 0300     		.2byte	0x3
 2766 0015 70       		.byte	0x70
 2767 0016 74       		.sleb128 -12
 2768 0017 9F       		.byte	0x9f
 2769 0018 0D000000 		.4byte	.LVL3-1
 2770 001c 0E000000 		.4byte	.LFE119
 2771 0020 0400     		.2byte	0x4
 2772 0022 F3       		.byte	0xf3
 2773 0023 01       		.uleb128 0x1
 2774 0024 50       		.byte	0x50
 2775 0025 9F       		.byte	0x9f
 2776 0026 00000000 		.4byte	0
 2777 002a 00000000 		.4byte	0
 2778              	.LLST1:
 2779 002e 00000000 		.4byte	.LFB120
 2780 0032 02000000 		.4byte	.LCFI0
 2781 0036 0200     		.2byte	0x2
 2782 0038 7D       		.byte	0x7d
 2783 0039 00       		.sleb128 0
ARM GAS  C:\Users\DNIEL~1\AppData\Local\Temp\cc4wkf7C.s 			page 50


 2784 003a 02000000 		.4byte	.LCFI0
 2785 003e 1C000000 		.4byte	.LFE120
 2786 0042 0200     		.2byte	0x2
 2787 0044 7D       		.byte	0x7d
 2788 0045 08       		.sleb128 8
 2789 0046 00000000 		.4byte	0
 2790 004a 00000000 		.4byte	0
 2791              	.LLST2:
 2792 004e 00000000 		.4byte	.LVL4
 2793 0052 0F000000 		.4byte	.LVL7-1
 2794 0056 0100     		.2byte	0x1
 2795 0058 50       		.byte	0x50
 2796 0059 0F000000 		.4byte	.LVL7-1
 2797 005d 1C000000 		.4byte	.LFE120
 2798 0061 0100     		.2byte	0x1
 2799 0063 54       		.byte	0x54
 2800 0064 00000000 		.4byte	0
 2801 0068 00000000 		.4byte	0
 2802              	.LLST3:
 2803 006c 00000000 		.4byte	.LVL4
 2804 0070 0F000000 		.4byte	.LVL7-1
 2805 0074 0100     		.2byte	0x1
 2806 0076 51       		.byte	0x51
 2807 0077 0F000000 		.4byte	.LVL7-1
 2808 007b 1C000000 		.4byte	.LFE120
 2809 007f 0400     		.2byte	0x4
 2810 0081 F3       		.byte	0xf3
 2811 0082 01       		.uleb128 0x1
 2812 0083 51       		.byte	0x51
 2813 0084 9F       		.byte	0x9f
 2814 0085 00000000 		.4byte	0
 2815 0089 00000000 		.4byte	0
 2816              	.LLST4:
 2817 008d 0A000000 		.4byte	.LVL6
 2818 0091 0F000000 		.4byte	.LVL7-1
 2819 0095 0100     		.2byte	0x1
 2820 0097 53       		.byte	0x53
 2821 0098 00000000 		.4byte	0
 2822 009c 00000000 		.4byte	0
 2823              	.LLST5:
 2824 00a0 1A000000 		.4byte	.LVL9
 2825 00a4 1C000000 		.4byte	.LFE120
 2826 00a8 0100     		.2byte	0x1
 2827 00aa 53       		.byte	0x53
 2828 00ab 00000000 		.4byte	0
 2829 00af 00000000 		.4byte	0
 2830              	.LLST6:
 2831 00b3 00000000 		.4byte	.LFB121
 2832 00b7 02000000 		.4byte	.LCFI1
 2833 00bb 0200     		.2byte	0x2
 2834 00bd 7D       		.byte	0x7d
 2835 00be 00       		.sleb128 0
 2836 00bf 02000000 		.4byte	.LCFI1
 2837 00c3 1A000000 		.4byte	.LFE121
 2838 00c7 0200     		.2byte	0x2
 2839 00c9 7D       		.byte	0x7d
 2840 00ca 08       		.sleb128 8
ARM GAS  C:\Users\DNIEL~1\AppData\Local\Temp\cc4wkf7C.s 			page 51


 2841 00cb 00000000 		.4byte	0
 2842 00cf 00000000 		.4byte	0
 2843              	.LLST7:
 2844 00d3 00000000 		.4byte	.LVL10
 2845 00d7 0D000000 		.4byte	.LVL13-1
 2846 00db 0100     		.2byte	0x1
 2847 00dd 50       		.byte	0x50
 2848 00de 0D000000 		.4byte	.LVL13-1
 2849 00e2 1A000000 		.4byte	.LFE121
 2850 00e6 0100     		.2byte	0x1
 2851 00e8 54       		.byte	0x54
 2852 00e9 00000000 		.4byte	0
 2853 00ed 00000000 		.4byte	0
 2854              	.LLST8:
 2855 00f1 0A000000 		.4byte	.LVL12
 2856 00f5 0D000000 		.4byte	.LVL13-1
 2857 00f9 0100     		.2byte	0x1
 2858 00fb 53       		.byte	0x53
 2859 00fc 00000000 		.4byte	0
 2860 0100 00000000 		.4byte	0
 2861              	.LLST9:
 2862 0104 18000000 		.4byte	.LVL15
 2863 0108 1A000000 		.4byte	.LFE121
 2864 010c 0100     		.2byte	0x1
 2865 010e 53       		.byte	0x53
 2866 010f 00000000 		.4byte	0
 2867 0113 00000000 		.4byte	0
 2868              	.LLST10:
 2869 0117 00000000 		.4byte	.LVL16
 2870 011b 02000000 		.4byte	.LVL17
 2871 011f 0100     		.2byte	0x1
 2872 0121 50       		.byte	0x50
 2873 0122 02000000 		.4byte	.LVL17
 2874 0126 04000000 		.4byte	.LFE122
 2875 012a 0400     		.2byte	0x4
 2876 012c F3       		.byte	0xf3
 2877 012d 01       		.uleb128 0x1
 2878 012e 50       		.byte	0x50
 2879 012f 9F       		.byte	0x9f
 2880 0130 00000000 		.4byte	0
 2881 0134 00000000 		.4byte	0
 2882              	.LLST11:
 2883 0138 00000000 		.4byte	.LFB123
 2884 013c 02000000 		.4byte	.LCFI2
 2885 0140 0200     		.2byte	0x2
 2886 0142 7D       		.byte	0x7d
 2887 0143 00       		.sleb128 0
 2888 0144 02000000 		.4byte	.LCFI2
 2889 0148 06000000 		.4byte	.LCFI3
 2890 014c 0200     		.2byte	0x2
 2891 014e 7D       		.byte	0x7d
 2892 014f 10       		.sleb128 16
 2893 0150 06000000 		.4byte	.LCFI3
 2894 0154 40000000 		.4byte	.LFE123
 2895 0158 0200     		.2byte	0x2
 2896 015a 7D       		.byte	0x7d
 2897 015b 20       		.sleb128 32
ARM GAS  C:\Users\DNIEL~1\AppData\Local\Temp\cc4wkf7C.s 			page 52


 2898 015c 00000000 		.4byte	0
 2899 0160 00000000 		.4byte	0
 2900              	.LLST12:
 2901 0164 00000000 		.4byte	.LVL18
 2902 0168 27000000 		.4byte	.LVL22-1
 2903 016c 0100     		.2byte	0x1
 2904 016e 50       		.byte	0x50
 2905 016f 27000000 		.4byte	.LVL22-1
 2906 0173 40000000 		.4byte	.LFE123
 2907 0177 0100     		.2byte	0x1
 2908 0179 54       		.byte	0x54
 2909 017a 00000000 		.4byte	0
 2910 017e 00000000 		.4byte	0
 2911              	.LLST13:
 2912 0182 00000000 		.4byte	.LVL18
 2913 0186 27000000 		.4byte	.LVL22-1
 2914 018a 0100     		.2byte	0x1
 2915 018c 51       		.byte	0x51
 2916 018d 27000000 		.4byte	.LVL22-1
 2917 0191 40000000 		.4byte	.LFE123
 2918 0195 0400     		.2byte	0x4
 2919 0197 F3       		.byte	0xf3
 2920 0198 01       		.uleb128 0x1
 2921 0199 51       		.byte	0x51
 2922 019a 9F       		.byte	0x9f
 2923 019b 00000000 		.4byte	0
 2924 019f 00000000 		.4byte	0
 2925              	.LLST14:
 2926 01a3 00000000 		.4byte	.LVL18
 2927 01a7 27000000 		.4byte	.LVL22-1
 2928 01ab 0100     		.2byte	0x1
 2929 01ad 52       		.byte	0x52
 2930 01ae 27000000 		.4byte	.LVL22-1
 2931 01b2 40000000 		.4byte	.LFE123
 2932 01b6 0400     		.2byte	0x4
 2933 01b8 F3       		.byte	0xf3
 2934 01b9 01       		.uleb128 0x1
 2935 01ba 52       		.byte	0x52
 2936 01bb 9F       		.byte	0x9f
 2937 01bc 00000000 		.4byte	0
 2938 01c0 00000000 		.4byte	0
 2939              	.LLST15:
 2940 01c4 00000000 		.4byte	.LVL18
 2941 01c8 0A000000 		.4byte	.LVL19
 2942 01cc 0100     		.2byte	0x1
 2943 01ce 53       		.byte	0x53
 2944 01cf 0A000000 		.4byte	.LVL19
 2945 01d3 40000000 		.4byte	.LFE123
 2946 01d7 0100     		.2byte	0x1
 2947 01d9 56       		.byte	0x56
 2948 01da 00000000 		.4byte	0
 2949 01de 00000000 		.4byte	0
 2950              	.LLST16:
 2951 01e2 0E000000 		.4byte	.LVL20
 2952 01e6 16000000 		.4byte	.LVL21
 2953 01ea 0100     		.2byte	0x1
 2954 01ec 53       		.byte	0x53
ARM GAS  C:\Users\DNIEL~1\AppData\Local\Temp\cc4wkf7C.s 			page 53


 2955 01ed 00000000 		.4byte	0
 2956 01f1 00000000 		.4byte	0
 2957              	.LLST17:
 2958 01f5 36000000 		.4byte	.LVL24
 2959 01f9 3A000000 		.4byte	.LVL25
 2960 01fd 0100     		.2byte	0x1
 2961 01ff 53       		.byte	0x53
 2962 0200 00000000 		.4byte	0
 2963 0204 00000000 		.4byte	0
 2964              	.LLST18:
 2965 0208 00000000 		.4byte	.LFB124
 2966 020c 02000000 		.4byte	.LCFI4
 2967 0210 0200     		.2byte	0x2
 2968 0212 7D       		.byte	0x7d
 2969 0213 00       		.sleb128 0
 2970 0214 02000000 		.4byte	.LCFI4
 2971 0218 06000000 		.4byte	.LCFI5
 2972 021c 0200     		.2byte	0x2
 2973 021e 7D       		.byte	0x7d
 2974 021f 10       		.sleb128 16
 2975 0220 06000000 		.4byte	.LCFI5
 2976 0224 38000000 		.4byte	.LFE124
 2977 0228 0200     		.2byte	0x2
 2978 022a 7D       		.byte	0x7d
 2979 022b 18       		.sleb128 24
 2980 022c 00000000 		.4byte	0
 2981 0230 00000000 		.4byte	0
 2982              	.LLST19:
 2983 0234 00000000 		.4byte	.LVL26
 2984 0238 1F000000 		.4byte	.LVL30-1
 2985 023c 0100     		.2byte	0x1
 2986 023e 50       		.byte	0x50
 2987 023f 1F000000 		.4byte	.LVL30-1
 2988 0243 38000000 		.4byte	.LFE124
 2989 0247 0100     		.2byte	0x1
 2990 0249 54       		.byte	0x54
 2991 024a 00000000 		.4byte	0
 2992 024e 00000000 		.4byte	0
 2993              	.LLST20:
 2994 0252 00000000 		.4byte	.LVL26
 2995 0256 1F000000 		.4byte	.LVL30-1
 2996 025a 0100     		.2byte	0x1
 2997 025c 51       		.byte	0x51
 2998 025d 1F000000 		.4byte	.LVL30-1
 2999 0261 38000000 		.4byte	.LFE124
 3000 0265 0400     		.2byte	0x4
 3001 0267 F3       		.byte	0xf3
 3002 0268 01       		.uleb128 0x1
 3003 0269 51       		.byte	0x51
 3004 026a 9F       		.byte	0x9f
 3005 026b 00000000 		.4byte	0
 3006 026f 00000000 		.4byte	0
 3007              	.LLST21:
 3008 0273 00000000 		.4byte	.LVL26
 3009 0277 1F000000 		.4byte	.LVL30-1
 3010 027b 0100     		.2byte	0x1
 3011 027d 52       		.byte	0x52
ARM GAS  C:\Users\DNIEL~1\AppData\Local\Temp\cc4wkf7C.s 			page 54


 3012 027e 1F000000 		.4byte	.LVL30-1
 3013 0282 38000000 		.4byte	.LFE124
 3014 0286 0400     		.2byte	0x4
 3015 0288 F3       		.byte	0xf3
 3016 0289 01       		.uleb128 0x1
 3017 028a 52       		.byte	0x52
 3018 028b 9F       		.byte	0x9f
 3019 028c 00000000 		.4byte	0
 3020 0290 00000000 		.4byte	0
 3021              	.LLST22:
 3022 0294 00000000 		.4byte	.LVL26
 3023 0298 0A000000 		.4byte	.LVL27
 3024 029c 0100     		.2byte	0x1
 3025 029e 53       		.byte	0x53
 3026 029f 0A000000 		.4byte	.LVL27
 3027 02a3 38000000 		.4byte	.LFE124
 3028 02a7 0100     		.2byte	0x1
 3029 02a9 56       		.byte	0x56
 3030 02aa 00000000 		.4byte	0
 3031 02ae 00000000 		.4byte	0
 3032              	.LLST23:
 3033 02b2 0E000000 		.4byte	.LVL28
 3034 02b6 16000000 		.4byte	.LVL29
 3035 02ba 0100     		.2byte	0x1
 3036 02bc 53       		.byte	0x53
 3037 02bd 00000000 		.4byte	0
 3038 02c1 00000000 		.4byte	0
 3039              	.LLST24:
 3040 02c5 2E000000 		.4byte	.LVL32
 3041 02c9 32000000 		.4byte	.LVL33
 3042 02cd 0100     		.2byte	0x1
 3043 02cf 53       		.byte	0x53
 3044 02d0 00000000 		.4byte	0
 3045 02d4 00000000 		.4byte	0
 3046              	.LLST25:
 3047 02d8 00000000 		.4byte	.LVL34
 3048 02dc 02000000 		.4byte	.LVL35
 3049 02e0 0100     		.2byte	0x1
 3050 02e2 50       		.byte	0x50
 3051 02e3 02000000 		.4byte	.LVL35
 3052 02e7 05000000 		.4byte	.LVL36-1
 3053 02eb 0300     		.2byte	0x3
 3054 02ed 70       		.byte	0x70
 3055 02ee 74       		.sleb128 -12
 3056 02ef 9F       		.byte	0x9f
 3057 02f0 05000000 		.4byte	.LVL36-1
 3058 02f4 06000000 		.4byte	.LFE125
 3059 02f8 0400     		.2byte	0x4
 3060 02fa F3       		.byte	0xf3
 3061 02fb 01       		.uleb128 0x1
 3062 02fc 50       		.byte	0x50
 3063 02fd 9F       		.byte	0x9f
 3064 02fe 00000000 		.4byte	0
 3065 0302 00000000 		.4byte	0
 3066              	.LLST26:
 3067 0306 00000000 		.4byte	.LVL37
 3068 030a 03000000 		.4byte	.LVL38-1
ARM GAS  C:\Users\DNIEL~1\AppData\Local\Temp\cc4wkf7C.s 			page 55


 3069 030e 0100     		.2byte	0x1
 3070 0310 50       		.byte	0x50
 3071 0311 03000000 		.4byte	.LVL38-1
 3072 0315 04000000 		.4byte	.LFE126
 3073 0319 0400     		.2byte	0x4
 3074 031b F3       		.byte	0xf3
 3075 031c 01       		.uleb128 0x1
 3076 031d 50       		.byte	0x50
 3077 031e 9F       		.byte	0x9f
 3078 031f 00000000 		.4byte	0
 3079 0323 00000000 		.4byte	0
 3080              		.section	.debug_aranges,"",%progbits
 3081 0000 5C000000 		.4byte	0x5c
 3082 0004 0200     		.2byte	0x2
 3083 0006 00000000 		.4byte	.Ldebug_info0
 3084 000a 04       		.byte	0x4
 3085 000b 00       		.byte	0
 3086 000c 0000     		.2byte	0
 3087 000e 0000     		.2byte	0
 3088 0010 00000000 		.4byte	.LFB118
 3089 0014 04000000 		.4byte	.LFE118-.LFB118
 3090 0018 00000000 		.4byte	.LFB119
 3091 001c 0E000000 		.4byte	.LFE119-.LFB119
 3092 0020 00000000 		.4byte	.LFB120
 3093 0024 1C000000 		.4byte	.LFE120-.LFB120
 3094 0028 00000000 		.4byte	.LFB121
 3095 002c 1A000000 		.4byte	.LFE121-.LFB121
 3096 0030 00000000 		.4byte	.LFB122
 3097 0034 04000000 		.4byte	.LFE122-.LFB122
 3098 0038 00000000 		.4byte	.LFB123
 3099 003c 40000000 		.4byte	.LFE123-.LFB123
 3100 0040 00000000 		.4byte	.LFB124
 3101 0044 38000000 		.4byte	.LFE124-.LFB124
 3102 0048 00000000 		.4byte	.LFB125
 3103 004c 06000000 		.4byte	.LFE125-.LFB125
 3104 0050 00000000 		.4byte	.LFB126
 3105 0054 04000000 		.4byte	.LFE126-.LFB126
 3106 0058 00000000 		.4byte	0
 3107 005c 00000000 		.4byte	0
 3108              		.section	.debug_ranges,"",%progbits
 3109              	.Ldebug_ranges0:
 3110 0000 02000000 		.4byte	.LBB2
 3111 0004 04000000 		.4byte	.LBE2
 3112 0008 06000000 		.4byte	.LBB3
 3113 000c 0A000000 		.4byte	.LBE3
 3114 0010 00000000 		.4byte	0
 3115 0014 00000000 		.4byte	0
 3116 0018 02000000 		.4byte	.LBB5
 3117 001c 04000000 		.4byte	.LBE5
 3118 0020 06000000 		.4byte	.LBB6
 3119 0024 0A000000 		.4byte	.LBE6
 3120 0028 00000000 		.4byte	0
 3121 002c 00000000 		.4byte	0
 3122 0030 00000000 		.4byte	.LFB118
 3123 0034 04000000 		.4byte	.LFE118
 3124 0038 00000000 		.4byte	.LFB119
 3125 003c 0E000000 		.4byte	.LFE119
ARM GAS  C:\Users\DNIEL~1\AppData\Local\Temp\cc4wkf7C.s 			page 56


 3126 0040 00000000 		.4byte	.LFB120
 3127 0044 1C000000 		.4byte	.LFE120
 3128 0048 00000000 		.4byte	.LFB121
 3129 004c 1A000000 		.4byte	.LFE121
 3130 0050 00000000 		.4byte	.LFB122
 3131 0054 04000000 		.4byte	.LFE122
 3132 0058 00000000 		.4byte	.LFB123
 3133 005c 40000000 		.4byte	.LFE123
 3134 0060 00000000 		.4byte	.LFB124
 3135 0064 38000000 		.4byte	.LFE124
 3136 0068 00000000 		.4byte	.LFB125
 3137 006c 06000000 		.4byte	.LFE125
 3138 0070 00000000 		.4byte	.LFB126
 3139 0074 04000000 		.4byte	.LFE126
 3140 0078 00000000 		.4byte	0
 3141 007c 00000000 		.4byte	0
 3142              		.section	.debug_line,"",%progbits
 3143              	.Ldebug_line0:
 3144 0000 82030000 		.section	.debug_str,"MS",%progbits,1
 3144      0200AC02 
 3144      00000201 
 3144      FB0E0D00 
 3144      01010101 
 3145              	.LASF96:
 3146 0000 5354445F 		.ascii	"STD_DUTY_CYCLE\000"
 3146      44555459 
 3146      5F435943 
 3146      4C4500
 3147              	.LASF113:
 3148 000f 646D6172 		.ascii	"dmarx\000"
 3148      7800
 3149              	.LASF99:
 3150 0015 69326364 		.ascii	"i2cdutycycle_t\000"
 3150      75747963 
 3150      79636C65 
 3150      5F7400
 3151              	.LASF89:
 3152 0024 69326373 		.ascii	"i2cstate_t\000"
 3152      74617465 
 3152      5F7400
 3153              	.LASF59:
 3154 002f 4D304152 		.ascii	"M0AR\000"
 3154      00
 3155              	.LASF2:
 3156 0034 73697A65 		.ascii	"size_t\000"
 3156      5F7400
 3157              	.LASF53:
 3158 003b 7264796D 		.ascii	"rdymsg\000"
 3158      736700
 3159              	.LASF84:
 3160 0042 4932435F 		.ascii	"I2C_STOP\000"
 3160      53544F50 
 3160      00
 3161              	.LASF134:
 3162 004b 6932635F 		.ascii	"i2c_lld_master_receive_timeout\000"
 3162      6C6C645F 
 3162      6D617374 
ARM GAS  C:\Users\DNIEL~1\AppData\Local\Temp\cc4wkf7C.s 			page 57


 3162      65725F72 
 3162      65636569 
 3163              	.LASF72:
 3164 006a 54524953 		.ascii	"TRISE\000"
 3164      4500
 3165              	.LASF77:
 3166 0070 73747265 		.ascii	"stream\000"
 3166      616D00
 3167              	.LASF13:
 3168 0077 6C6F6E67 		.ascii	"long long unsigned int\000"
 3168      206C6F6E 
 3168      6720756E 
 3168      7369676E 
 3168      65642069 
 3169              	.LASF110:
 3170 008e 61646472 		.ascii	"addr\000"
 3170      00
 3171              	.LASF117:
 3172 0093 69326353 		.ascii	"i2cStart\000"
 3172      74617274 
 3172      00
 3173              	.LASF54:
 3174 009c 65786974 		.ascii	"exitcode\000"
 3174      636F6465 
 3174      00
 3175              	.LASF81:
 3176 00a5 76656374 		.ascii	"vector\000"
 3176      6F7200
 3177              	.LASF129:
 3178 00ac 69326352 		.ascii	"i2cReleaseBus\000"
 3178      656C6561 
 3178      73654275 
 3178      7300
 3179              	.LASF139:
 3180 00ba 49544D5F 		.ascii	"ITM_RxBuffer\000"
 3180      52784275 
 3180      66666572 
 3180      00
 3181              	.LASF118:
 3182 00c7 69326370 		.ascii	"i2cp\000"
 3182      00
 3183              	.LASF50:
 3184 00cc 6D5F7175 		.ascii	"m_queue\000"
 3184      65756500 
 3185              	.LASF26:
 3186 00d4 705F7072 		.ascii	"p_prio\000"
 3186      696F00
 3187              	.LASF121:
 3188 00db 6932634D 		.ascii	"i2cMasterTransmitTimeout\000"
 3188      61737465 
 3188      72547261 
 3188      6E736D69 
 3188      7454696D 
 3189              	.LASF141:
 3190 00f4 63684D74 		.ascii	"chMtxUnlock\000"
 3190      78556E6C 
 3190      6F636B00 
ARM GAS  C:\Users\DNIEL~1\AppData\Local\Temp\cc4wkf7C.s 			page 58


 3191              	.LASF1:
 3192 0100 7369676E 		.ascii	"signed char\000"
 3192      65642063 
 3192      68617200 
 3193              	.LASF101:
 3194 010c 636C6F63 		.ascii	"clock_speed\000"
 3194      6B5F7370 
 3194      65656400 
 3195              	.LASF42:
 3196 0118 705F6D70 		.ascii	"p_mpool\000"
 3196      6F6F6C00 
 3197              	.LASF124:
 3198 0120 72786275 		.ascii	"rxbuf\000"
 3198      6600
 3199              	.LASF133:
 3200 0126 6932635F 		.ascii	"i2c_lld_master_transmit_timeout\000"
 3200      6C6C645F 
 3200      6D617374 
 3200      65725F74 
 3200      72616E73 
 3201              	.LASF18:
 3202 0146 74736C69 		.ascii	"tslices_t\000"
 3202      6365735F 
 3202      7400
 3203              	.LASF90:
 3204 0150 69326361 		.ascii	"i2caddr_t\000"
 3204      6464725F 
 3204      7400
 3205              	.LASF105:
 3206 015a 73746174 		.ascii	"state\000"
 3206      6500
 3207              	.LASF9:
 3208 0160 6C6F6E67 		.ascii	"long int\000"
 3208      20696E74 
 3208      00
 3209              	.LASF16:
 3210 0169 74737461 		.ascii	"tstate_t\000"
 3210      74655F74 
 3210      00
 3211              	.LASF109:
 3212 0172 74687265 		.ascii	"thread\000"
 3212      616400
 3213              	.LASF33:
 3214 0179 705F7265 		.ascii	"p_refs\000"
 3214      667300
 3215              	.LASF12:
 3216 0180 6C6F6E67 		.ascii	"long long int\000"
 3216      206C6F6E 
 3216      6720696E 
 3216      7400
 3217              	.LASF103:
 3218 018e 49324343 		.ascii	"I2CConfig\000"
 3218      6F6E6669 
 3218      6700
 3219              	.LASF35:
 3220 0198 705F7469 		.ascii	"p_time\000"
 3220      6D6500
ARM GAS  C:\Users\DNIEL~1\AppData\Local\Temp\cc4wkf7C.s 			page 59


 3221              	.LASF74:
 3222 019f 464C5452 		.ascii	"FLTR\000"
 3222      00
 3223              	.LASF28:
 3224 01a4 705F6E65 		.ascii	"p_newer\000"
 3224      77657200 
 3225              	.LASF111:
 3226 01ac 7278646D 		.ascii	"rxdmamode\000"
 3226      616D6F64 
 3226      6500
 3227              	.LASF114:
 3228 01b6 646D6174 		.ascii	"dmatx\000"
 3228      7800
 3229              	.LASF94:
 3230 01bc 4F504D4F 		.ascii	"OPMODE_SMBUS_HOST\000"
 3230      44455F53 
 3230      4D425553 
 3230      5F484F53 
 3230      5400
 3231              	.LASF45:
 3232 01ce 72656761 		.ascii	"regarm_t\000"
 3232      726D5F74 
 3232      00
 3233              	.LASF80:
 3234 01d7 73656C66 		.ascii	"selfindex\000"
 3234      696E6465 
 3234      7800
 3235              	.LASF100:
 3236 01e1 6F705F6D 		.ascii	"op_mode\000"
 3236      6F646500 
 3237              	.LASF0:
 3238 01e9 756E7369 		.ascii	"unsigned int\000"
 3238      676E6564 
 3238      20696E74 
 3238      00
 3239              	.LASF122:
 3240 01f6 74786275 		.ascii	"txbuf\000"
 3240      6600
 3241              	.LASF107:
 3242 01fc 6572726F 		.ascii	"errors\000"
 3242      727300
 3243              	.LASF37:
 3244 0203 705F6D73 		.ascii	"p_msgqueue\000"
 3244      67717565 
 3244      756500
 3245              	.LASF126:
 3246 020e 74696D65 		.ascii	"timeout\000"
 3246      6F757400 
 3247              	.LASF79:
 3248 0216 69736869 		.ascii	"ishift\000"
 3248      667400
 3249              	.LASF93:
 3250 021d 4F504D4F 		.ascii	"OPMODE_SMBUS_DEVICE\000"
 3250      44455F53 
 3250      4D425553 
 3250      5F444556 
 3250      49434500 
ARM GAS  C:\Users\DNIEL~1\AppData\Local\Temp\cc4wkf7C.s 			page 60


 3251              	.LASF7:
 3252 0231 73686F72 		.ascii	"short unsigned int\000"
 3252      7420756E 
 3252      7369676E 
 3252      65642069 
 3252      6E7400
 3253              	.LASF104:
 3254 0244 49324344 		.ascii	"I2CDriver\000"
 3254      72697665 
 3254      7200
 3255              	.LASF20:
 3256 024e 6D73675F 		.ascii	"msg_t\000"
 3256      7400
 3257              	.LASF15:
 3258 0254 746D6F64 		.ascii	"tmode_t\000"
 3258      655F7400 
 3259              	.LASF6:
 3260 025c 75696E74 		.ascii	"uint16_t\000"
 3260      31365F74 
 3260      00
 3261              	.LASF44:
 3262 0265 54687265 		.ascii	"ThreadsList\000"
 3262      6164734C 
 3262      69737400 
 3263              	.LASF21:
 3264 0271 6576656E 		.ascii	"eventmask_t\000"
 3264      746D6173 
 3264      6B5F7400 
 3265              	.LASF5:
 3266 027d 73686F72 		.ascii	"short int\000"
 3266      7420696E 
 3266      7400
 3267              	.LASF132:
 3268 0287 6932635F 		.ascii	"i2c_lld_stop\000"
 3268      6C6C645F 
 3268      73746F70 
 3268      00
 3269              	.LASF131:
 3270 0294 6932635F 		.ascii	"i2c_lld_start\000"
 3270      6C6C645F 
 3270      73746172 
 3270      7400
 3271              	.LASF48:
 3272 02a2 73697A65 		.ascii	"sizetype\000"
 3272      74797065 
 3272      00
 3273              	.LASF49:
 3274 02ab 4D757465 		.ascii	"Mutex\000"
 3274      7800
 3275              	.LASF102:
 3276 02b1 64757479 		.ascii	"duty_cycle\000"
 3276      5F637963 
 3276      6C6500
 3277              	.LASF135:
 3278 02bc 63684D74 		.ascii	"chMtxLock\000"
 3278      784C6F63 
 3278      6B00
ARM GAS  C:\Users\DNIEL~1\AppData\Local\Temp\cc4wkf7C.s 			page 61


 3279              	.LASF136:
 3280 02c6 474E5520 		.ascii	"GNU C 4.7.4 20140401 (release) [ARM/embedded-4_7-br"
 3280      4320342E 
 3280      372E3420 
 3280      32303134 
 3280      30343031 
 3281 02f9 616E6368 		.ascii	"anch revision 209195]\000"
 3281      20726576 
 3281      6973696F 
 3281      6E203230 
 3281      39313935 
 3282              	.LASF29:
 3283 030f 705F6F6C 		.ascii	"p_older\000"
 3283      64657200 
 3284              	.LASF125:
 3285 0317 72786279 		.ascii	"rxbytes\000"
 3285      74657300 
 3286              	.LASF119:
 3287 031f 69326353 		.ascii	"i2cStop\000"
 3287      746F7000 
 3288              	.LASF43:
 3289 0327 54687265 		.ascii	"ThreadsQueue\000"
 3289      61647351 
 3289      75657565 
 3289      00
 3290              	.LASF112:
 3291 0334 7478646D 		.ascii	"txdmamode\000"
 3291      616D6F64 
 3291      6500
 3292              	.LASF92:
 3293 033e 4F504D4F 		.ascii	"OPMODE_I2C\000"
 3293      44455F49 
 3293      324300
 3294              	.LASF98:
 3295 0349 46415354 		.ascii	"FAST_DUTY_CYCLE_16_9\000"
 3295      5F445554 
 3295      595F4359 
 3295      434C455F 
 3295      31365F39 
 3296              	.LASF17:
 3297 035e 74726566 		.ascii	"trefs_t\000"
 3297      735F7400 
 3298              	.LASF62:
 3299 0366 52455345 		.ascii	"RESERVED0\000"
 3299      52564544 
 3299      3000
 3300              	.LASF63:
 3301 0370 52455345 		.ascii	"RESERVED1\000"
 3301      52564544 
 3301      3100
 3302              	.LASF65:
 3303 037a 52455345 		.ascii	"RESERVED2\000"
 3303      52564544 
 3303      3200
 3304              	.LASF67:
 3305 0384 52455345 		.ascii	"RESERVED3\000"
 3305      52564544 
ARM GAS  C:\Users\DNIEL~1\AppData\Local\Temp\cc4wkf7C.s 			page 62


 3305      3300
 3306              	.LASF68:
 3307 038e 52455345 		.ascii	"RESERVED4\000"
 3307      52564544 
 3307      3400
 3308              	.LASF25:
 3309 0398 705F7072 		.ascii	"p_prev\000"
 3309      657600
 3310              	.LASF70:
 3311 039f 52455345 		.ascii	"RESERVED6\000"
 3311      52564544 
 3311      3600
 3312              	.LASF71:
 3313 03a9 52455345 		.ascii	"RESERVED7\000"
 3313      52564544 
 3313      3700
 3314              	.LASF73:
 3315 03b3 52455345 		.ascii	"RESERVED8\000"
 3315      52564544 
 3315      3800
 3316              	.LASF19:
 3317 03bd 74707269 		.ascii	"tprio_t\000"
 3317      6F5F7400 
 3318              	.LASF86:
 3319 03c5 4932435F 		.ascii	"I2C_ACTIVE_TX\000"
 3319      41435449 
 3319      56455F54 
 3319      5800
 3320              	.LASF91:
 3321 03d3 69326366 		.ascii	"i2cflags_t\000"
 3321      6C616773 
 3321      5F7400
 3322              	.LASF108:
 3323 03de 6D757465 		.ascii	"mutex\000"
 3323      7800
 3324              	.LASF14:
 3325 03e4 5F426F6F 		.ascii	"_Bool\000"
 3325      6C00
 3326              	.LASF8:
 3327 03ea 696E7433 		.ascii	"int32_t\000"
 3327      325F7400 
 3328              	.LASF4:
 3329 03f2 756E7369 		.ascii	"unsigned char\000"
 3329      676E6564 
 3329      20636861 
 3329      7200
 3330              	.LASF82:
 3331 0400 73746D33 		.ascii	"stm32_dma_stream_t\000"
 3331      325F646D 
 3331      615F7374 
 3331      7265616D 
 3331      5F7400
 3332              	.LASF40:
 3333 0413 705F6D74 		.ascii	"p_mtxlist\000"
 3333      786C6973 
 3333      7400
 3334              	.LASF83:
ARM GAS  C:\Users\DNIEL~1\AppData\Local\Temp\cc4wkf7C.s 			page 63


 3335 041d 4932435F 		.ascii	"I2C_UNINIT\000"
 3335      554E494E 
 3335      495400
 3336              	.LASF31:
 3337 0428 705F7374 		.ascii	"p_state\000"
 3337      61746500 
 3338              	.LASF34:
 3339 0430 705F7072 		.ascii	"p_preempt\000"
 3339      65656D70 
 3339      7400
 3340              	.LASF120:
 3341 043a 69326347 		.ascii	"i2cGetErrors\000"
 3341      65744572 
 3341      726F7273 
 3341      00
 3342              	.LASF56:
 3343 0447 65776D61 		.ascii	"ewmask\000"
 3343      736B00
 3344              	.LASF24:
 3345 044e 705F6E65 		.ascii	"p_next\000"
 3345      787400
 3346              	.LASF32:
 3347 0455 705F666C 		.ascii	"p_flags\000"
 3347      61677300 
 3348              	.LASF137:
 3349 045d 2E2E2F2E 		.ascii	"../../../ChibiOS/os/hal/src/i2c.c\000"
 3349      2E2F2E2E 
 3349      2F436869 
 3349      62694F53 
 3349      2F6F732F 
 3350              	.LASF97:
 3351 047f 46415354 		.ascii	"FAST_DUTY_CYCLE_2\000"
 3351      5F445554 
 3351      595F4359 
 3351      434C455F 
 3351      3200
 3352              	.LASF23:
 3353 0491 54687265 		.ascii	"Thread\000"
 3353      616400
 3354              	.LASF88:
 3355 0498 4932435F 		.ascii	"I2C_LOCKED\000"
 3355      4C4F434B 
 3355      454400
 3356              	.LASF39:
 3357 04a3 705F6570 		.ascii	"p_epending\000"
 3357      656E6469 
 3357      6E6700
 3358              	.LASF78:
 3359 04ae 69666372 		.ascii	"ifcr\000"
 3359      00
 3360              	.LASF69:
 3361 04b3 52455345 		.ascii	"RESERVED5\000"
 3361      52564544 
 3361      3500
 3362              	.LASF10:
 3363 04bd 75696E74 		.ascii	"uint32_t\000"
 3363      33325F74 
ARM GAS  C:\Users\DNIEL~1\AppData\Local\Temp\cc4wkf7C.s 			page 64


 3363      00
 3364              	.LASF75:
 3365 04c6 52455345 		.ascii	"RESERVED9\000"
 3365      52564544 
 3365      3900
 3366              	.LASF87:
 3367 04d0 4932435F 		.ascii	"I2C_ACTIVE_RX\000"
 3367      41435449 
 3367      56455F52 
 3367      5800
 3368              	.LASF11:
 3369 04de 6C6F6E67 		.ascii	"long unsigned int\000"
 3369      20756E73 
 3369      69676E65 
 3369      6420696E 
 3369      7400
 3370              	.LASF57:
 3371 04f0 63686172 		.ascii	"char\000"
 3371      00
 3372              	.LASF106:
 3373 04f5 636F6E66 		.ascii	"config\000"
 3373      696700
 3374              	.LASF52:
 3375 04fc 6D5F6E65 		.ascii	"m_next\000"
 3375      787400
 3376              	.LASF22:
 3377 0503 73797374 		.ascii	"systime_t\000"
 3377      696D655F 
 3377      7400
 3378              	.LASF41:
 3379 050d 705F7265 		.ascii	"p_realprio\000"
 3379      616C7072 
 3379      696F00
 3380              	.LASF58:
 3381 0518 4E445452 		.ascii	"NDTR\000"
 3381      00
 3382              	.LASF85:
 3383 051d 4932435F 		.ascii	"I2C_READY\000"
 3383      52454144 
 3383      5900
 3384              	.LASF61:
 3385 0527 444D415F 		.ascii	"DMA_Stream_TypeDef\000"
 3385      53747265 
 3385      616D5F54 
 3385      79706544 
 3385      656600
 3386              	.LASF47:
 3387 053a 636F6E74 		.ascii	"context\000"
 3387      65787400 
 3388              	.LASF46:
 3389 0542 696E7463 		.ascii	"intctx\000"
 3389      747800
 3390              	.LASF60:
 3391 0549 4D314152 		.ascii	"M1AR\000"
 3391      00
 3392              	.LASF130:
 3393 054e 63684D74 		.ascii	"chMtxInit\000"
ARM GAS  C:\Users\DNIEL~1\AppData\Local\Temp\cc4wkf7C.s 			page 65


 3393      78496E69 
 3393      7400
 3394              	.LASF140:
 3395 0558 6932635F 		.ascii	"i2c_lld_init\000"
 3395      6C6C645F 
 3395      696E6974 
 3395      00
 3396              	.LASF128:
 3397 0565 69326341 		.ascii	"i2cAcquireBus\000"
 3397      63717569 
 3397      72654275 
 3397      7300
 3398              	.LASF138:
 3399 0573 433A5C55 		.ascii	"C:\\Users\\D\341niel\\git\\Smarty\\smarty\\firmware"
 3399      73657273 
 3399      5C44E16E 
 3399      69656C5C 
 3399      6769745C 
 3400 059d 00       		.ascii	"\000"
 3401              	.LASF3:
 3402 059e 75696E74 		.ascii	"uint8_t\000"
 3402      385F7400 
 3403              	.LASF64:
 3404 05a6 4F415231 		.ascii	"OAR1\000"
 3404      00
 3405              	.LASF66:
 3406 05ab 4F415232 		.ascii	"OAR2\000"
 3406      00
 3407              	.LASF127:
 3408 05b0 6932634D 		.ascii	"i2cMasterReceiveTimeout\000"
 3408      61737465 
 3408      72526563 
 3408      65697665 
 3408      54696D65 
 3409              	.LASF55:
 3410 05c8 77746F62 		.ascii	"wtobjp\000"
 3410      6A7000
 3411              	.LASF30:
 3412 05cf 705F6E61 		.ascii	"p_name\000"
 3412      6D6500
 3413              	.LASF115:
 3414 05d6 69326349 		.ascii	"i2cInit\000"
 3414      6E697400 
 3415              	.LASF38:
 3416 05de 705F6D73 		.ascii	"p_msg\000"
 3416      6700
 3417              	.LASF76:
 3418 05e4 4932435F 		.ascii	"I2C_TypeDef\000"
 3418      54797065 
 3418      44656600 
 3419              	.LASF95:
 3420 05f0 6932636F 		.ascii	"i2copmode_t\000"
 3420      706D6F64 
 3420      655F7400 
 3421              	.LASF116:
 3422 05fc 6932634F 		.ascii	"i2cObjectInit\000"
 3422      626A6563 
ARM GAS  C:\Users\DNIEL~1\AppData\Local\Temp\cc4wkf7C.s 			page 66


 3422      74496E69 
 3422      7400
 3423              	.LASF51:
 3424 060a 6D5F6F77 		.ascii	"m_owner\000"
 3424      6E657200 
 3425              	.LASF27:
 3426 0612 705F6374 		.ascii	"p_ctx\000"
 3426      7800
 3427              	.LASF36:
 3428 0618 705F7761 		.ascii	"p_waiting\000"
 3428      6974696E 
 3428      6700
 3429              	.LASF123:
 3430 0622 74786279 		.ascii	"txbytes\000"
 3430      74657300 
 3431              		.ident	"GCC: (GNU Tools for ARM Embedded Processors) 4.7.4 20140401 (release) [ARM/embedded-4_7-br
ARM GAS  C:\Users\DNIEL~1\AppData\Local\Temp\cc4wkf7C.s 			page 67


DEFINED SYMBOLS
                            *ABS*:00000000 i2c.c
C:\Users\DNIEL~1\AppData\Local\Temp\cc4wkf7C.s:19     .text.i2cInit:00000000 $t
C:\Users\DNIEL~1\AppData\Local\Temp\cc4wkf7C.s:25     .text.i2cInit:00000000 i2cInit
C:\Users\DNIEL~1\AppData\Local\Temp\cc4wkf7C.s:41     .text.i2cObjectInit:00000000 $t
C:\Users\DNIEL~1\AppData\Local\Temp\cc4wkf7C.s:47     .text.i2cObjectInit:00000000 i2cObjectInit
C:\Users\DNIEL~1\AppData\Local\Temp\cc4wkf7C.s:74     .text.i2cStart:00000000 $t
C:\Users\DNIEL~1\AppData\Local\Temp\cc4wkf7C.s:80     .text.i2cStart:00000000 i2cStart
C:\Users\DNIEL~1\AppData\Local\Temp\cc4wkf7C.s:130    .text.i2cStop:00000000 $t
C:\Users\DNIEL~1\AppData\Local\Temp\cc4wkf7C.s:136    .text.i2cStop:00000000 i2cStop
C:\Users\DNIEL~1\AppData\Local\Temp\cc4wkf7C.s:184    .text.i2cGetErrors:00000000 $t
C:\Users\DNIEL~1\AppData\Local\Temp\cc4wkf7C.s:190    .text.i2cGetErrors:00000000 i2cGetErrors
C:\Users\DNIEL~1\AppData\Local\Temp\cc4wkf7C.s:206    .text.i2cMasterTransmitTimeout:00000000 $t
C:\Users\DNIEL~1\AppData\Local\Temp\cc4wkf7C.s:212    .text.i2cMasterTransmitTimeout:00000000 i2cMasterTransmitTimeout
C:\Users\DNIEL~1\AppData\Local\Temp\cc4wkf7C.s:290    .text.i2cMasterReceiveTimeout:00000000 $t
C:\Users\DNIEL~1\AppData\Local\Temp\cc4wkf7C.s:296    .text.i2cMasterReceiveTimeout:00000000 i2cMasterReceiveTimeout
C:\Users\DNIEL~1\AppData\Local\Temp\cc4wkf7C.s:370    .text.i2cAcquireBus:00000000 $t
C:\Users\DNIEL~1\AppData\Local\Temp\cc4wkf7C.s:376    .text.i2cAcquireBus:00000000 i2cAcquireBus
C:\Users\DNIEL~1\AppData\Local\Temp\cc4wkf7C.s:395    .text.i2cReleaseBus:00000000 $t
C:\Users\DNIEL~1\AppData\Local\Temp\cc4wkf7C.s:401    .text.i2cReleaseBus:00000000 i2cReleaseBus
                     .debug_frame:00000010 $d

UNDEFINED SYMBOLS
i2c_lld_init
chMtxInit
i2c_lld_start
i2c_lld_stop
i2c_lld_master_transmit_timeout
i2c_lld_master_receive_timeout
chMtxLock
chMtxUnlock
