ARM GAS  C:\Users\DNIEL~1\AppData\Local\Temp\cc4wkf7C.s 			page 1


   1              		.syntax unified
   2              		.cpu cortex-m4
   3              		.fpu softvfp
   4              		.eabi_attribute 20, 1
   5              		.eabi_attribute 21, 1
   6              		.eabi_attribute 23, 3
   7              		.eabi_attribute 24, 1
   8              		.eabi_attribute 25, 1
   9              		.eabi_attribute 26, 1
  10              		.eabi_attribute 30, 2
  11              		.eabi_attribute 34, 1
  12              		.eabi_attribute 18, 4
  13              		.thumb
  14              		.file	"i2c.c"
  15              		.text
  16              	.Ltext0:
  17              		.cfi_sections	.debug_frame
  18              		.section	.text.i2cInit,"ax",%progbits
  19              		.align	2
  20              		.p2align 4,,15
  21              		.global	i2cInit
  22              		.thumb
  23              		.thumb_func
  24              		.type	i2cInit, %function
  25              	i2cInit:
  26              	.LFB118:
  27              		.file 1 "../../../ChibiOS/os/hal/src/i2c.c"
  28              		.loc 1 71 0
  29              		.cfi_startproc
  30              		@ args = 0, pretend = 0, frame = 0
  31              		@ frame_needed = 0, uses_anonymous_args = 0
  32              		@ link register save eliminated.
  33              		.loc 1 73 0
  34              		.loc 1 72 0
  35 0000 FFF7FEBF 		b	i2c_lld_init
  36              	.LVL0:
  37              		.cfi_endproc
  38              	.LFE118:
  39              		.size	i2cInit, .-i2cInit
  40 0004 AFF30080 		.section	.text.i2cObjectInit,"ax",%progbits
  40      AFF30080 
  40      AFF30080 
  41              		.align	2
  42              		.p2align 4,,15
  43              		.global	i2cObjectInit
  44              		.thumb
  45              		.thumb_func
  46              		.type	i2cObjectInit, %function
  47              	i2cObjectInit:
  48              	.LFB119:
  49              		.loc 1 82 0
  50              		.cfi_startproc
  51              		@ args = 0, pretend = 0, frame = 0
  52              		@ frame_needed = 0, uses_anonymous_args = 0
  53              		@ link register save eliminated.
  54              	.LVL1:
  55              		.loc 1 84 0
ARM GAS  C:\Users\DNIEL~1\AppData\Local\Temp\cc4wkf7C.s 			page 2


  56 0000 0123     		movs	r3, #1
  57              		.loc 1 85 0
  58 0002 0021     		movs	r1, #0
  59              		.loc 1 84 0
  60 0004 0370     		strb	r3, [r0, #0]
  61              		.loc 1 85 0
  62 0006 4160     		str	r1, [r0, #4]
  63              		.loc 1 89 0
  64 0008 0C30     		adds	r0, r0, #12
  65              	.LVL2:
  66              		.loc 1 98 0
  67              		.loc 1 89 0
  68 000a FFF7FEBF 		b	chMtxInit
  69              	.LVL3:
  70              		.cfi_endproc
  71              	.LFE119:
  72              		.size	i2cObjectInit, .-i2cObjectInit
  73 000e 00BF     		.section	.text.i2cStart,"ax",%progbits
  74              		.align	2
  75              		.p2align 4,,15
  76              		.global	i2cStart
  77              		.thumb
  78              		.thumb_func
  79              		.type	i2cStart, %function
  80              	i2cStart:
  81              	.LFB120:
  82              		.loc 1 108 0
  83              		.cfi_startproc
  84              		@ args = 0, pretend = 0, frame = 0
  85              		@ frame_needed = 0, uses_anonymous_args = 0
  86              	.LVL4:
  87 0000 10B5     		push	{r4, lr}
  88              	.LCFI0:
  89              		.cfi_def_cfa_offset 8
  90              		.cfi_offset 4, -8
  91              		.cfi_offset 14, -4
  92              	.LBB2:
  93              		.loc 1 116 0
  94 0002 2023     		movs	r3, #32
  95              	.LVL5:
  96              	.LBE2:
  97              		.loc 1 108 0
  98 0004 0446     		mov	r4, r0
  99              	.LBB3:
 100              		.loc 1 116 0
 101              	@ 116 "../../../ChibiOS/os/hal/src/i2c.c" 1
 102 0006 83F31188 		msr     BASEPRI, r3
 103              	@ 0 "" 2
 104              	.LVL6:
 105              		.thumb
 106              	.LBE3:
 107              		.loc 1 117 0
 108 000a 4160     		str	r1, [r0, #4]
 109              		.loc 1 118 0
 110 000c FFF7FEFF 		bl	i2c_lld_start
 111              	.LVL7:
 112              		.loc 1 119 0
ARM GAS  C:\Users\DNIEL~1\AppData\Local\Temp\cc4wkf7C.s 			page 3


 113 0010 0223     		movs	r3, #2
 114 0012 2370     		strb	r3, [r4, #0]
 115              	.LBB4:
 116              		.loc 1 120 0
 117 0014 0023     		movs	r3, #0
 118              	.LVL8:
 119              	@ 120 "../../../ChibiOS/os/hal/src/i2c.c" 1
 120 0016 83F31188 		msr     BASEPRI, r3
 121              	@ 0 "" 2
 122              	.LVL9:
 123              		.thumb
 124 001a 10BD     		pop	{r4, pc}
 125              	.LBE4:
 126              		.cfi_endproc
 127              	.LFE120:
 128              		.size	i2cStart, .-i2cStart
 129 001c AFF30080 		.section	.text.i2cStop,"ax",%progbits
 130              		.align	2
 131              		.p2align 4,,15
 132              		.global	i2cStop
 133              		.thumb
 134              		.thumb_func
 135              		.type	i2cStop, %function
 136              	i2cStop:
 137              	.LFB121:
 138              		.loc 1 130 0
 139              		.cfi_startproc
 140              		@ args = 0, pretend = 0, frame = 0
 141              		@ frame_needed = 0, uses_anonymous_args = 0
 142              	.LVL10:
 143 0000 10B5     		push	{r4, lr}
 144              	.LCFI1:
 145              		.cfi_def_cfa_offset 8
 146              		.cfi_offset 4, -8
 147              		.cfi_offset 14, -4
 148              	.LBB5:
 149              		.loc 1 138 0
 150 0002 2023     		movs	r3, #32
 151              	.LVL11:
 152              	.LBE5:
 153              		.loc 1 130 0
 154 0004 0446     		mov	r4, r0
 155              	.LBB6:
 156              		.loc 1 138 0
 157              	@ 138 "../../../ChibiOS/os/hal/src/i2c.c" 1
 158 0006 83F31188 		msr     BASEPRI, r3
 159              	@ 0 "" 2
 160              	.LVL12:
 161              		.thumb
 162              	.LBE6:
 163              		.loc 1 139 0
 164 000a FFF7FEFF 		bl	i2c_lld_stop
 165              	.LVL13:
 166              		.loc 1 140 0
 167 000e 0123     		movs	r3, #1
 168 0010 2370     		strb	r3, [r4, #0]
 169              	.LBB7:
ARM GAS  C:\Users\DNIEL~1\AppData\Local\Temp\cc4wkf7C.s 			page 4


 170              		.loc 1 141 0
 171 0012 0023     		movs	r3, #0
 172              	.LVL14:
 173              	@ 141 "../../../ChibiOS/os/hal/src/i2c.c" 1
 174 0014 83F31188 		msr     BASEPRI, r3
 175              	@ 0 "" 2
 176              	.LVL15:
 177              		.thumb
 178 0018 10BD     		pop	{r4, pc}
 179              	.LBE7:
 180              		.cfi_endproc
 181              	.LFE121:
 182              		.size	i2cStop, .-i2cStop
 183 001a 00BFAFF3 		.section	.text.i2cGetErrors,"ax",%progbits
 183      0080
 184              		.align	2
 185              		.p2align 4,,15
 186              		.global	i2cGetErrors
 187              		.thumb
 188              		.thumb_func
 189              		.type	i2cGetErrors, %function
 190              	i2cGetErrors:
 191              	.LFB122:
 192              		.loc 1 152 0
 193              		.cfi_startproc
 194              		@ args = 0, pretend = 0, frame = 0
 195              		@ frame_needed = 0, uses_anonymous_args = 0
 196              		@ link register save eliminated.
 197              	.LVL16:
 198              		.loc 1 157 0
 199 0000 8068     		ldr	r0, [r0, #8]
 200              	.LVL17:
 201 0002 7047     		bx	lr
 202              		.cfi_endproc
 203              	.LFE122:
 204              		.size	i2cGetErrors, .-i2cGetErrors
 205 0004 AFF30080 		.section	.text.i2cMasterTransmitTimeout,"ax",%progbits
 205      AFF30080 
 205      AFF30080 
 206              		.align	2
 207              		.p2align 4,,15
 208              		.global	i2cMasterTransmitTimeout
 209              		.thumb
 210              		.thumb_func
 211              		.type	i2cMasterTransmitTimeout, %function
 212              	i2cMasterTransmitTimeout:
 213              	.LFB123:
 214              		.loc 1 191 0
 215              		.cfi_startproc
 216              		@ args = 12, pretend = 0, frame = 0
 217              		@ frame_needed = 0, uses_anonymous_args = 0
 218              	.LVL18:
 219 0000 70B5     		push	{r4, r5, r6, lr}
 220              	.LCFI2:
 221              		.cfi_def_cfa_offset 16
 222              		.cfi_offset 4, -16
 223              		.cfi_offset 5, -12
ARM GAS  C:\Users\DNIEL~1\AppData\Local\Temp\cc4wkf7C.s 			page 5


 224              		.cfi_offset 6, -8
 225              		.cfi_offset 14, -4
 226 0002 1E46     		mov	r6, r3
 227 0004 84B0     		sub	sp, sp, #16
 228              	.LCFI3:
 229              		.cfi_def_cfa_offset 32
 230              		.loc 1 191 0
 231 0006 0446     		mov	r4, r0
 232              	.LBB8:
 233              		.loc 1 203 0
 234 0008 2023     		movs	r3, #32
 235              	.LVL19:
 236              	@ 203 "../../../ChibiOS/os/hal/src/i2c.c" 1
 237 000a 83F31188 		msr     BASEPRI, r3
 238              	@ 0 "" 2
 239              	.LVL20:
 240              		.thumb
 241              	.LBE8:
 242              		.loc 1 205 0
 243 000e 0325     		movs	r5, #3
 244 0010 0570     		strb	r5, [r0, #0]
 245              		.loc 1 206 0
 246 0012 099D     		ldr	r5, [sp, #36]
 247              		.loc 1 204 0
 248 0014 0023     		movs	r3, #0
 249              	.LVL21:
 250 0016 8360     		str	r3, [r0, #8]
 251              		.loc 1 206 0
 252 0018 089B     		ldr	r3, [sp, #32]
 253 001a 0195     		str	r5, [sp, #4]
 254 001c 0A9D     		ldr	r5, [sp, #40]
 255 001e 0093     		str	r3, [sp, #0]
 256 0020 0295     		str	r5, [sp, #8]
 257 0022 3346     		mov	r3, r6
 258 0024 FFF7FEFF 		bl	i2c_lld_master_transmit_timeout
 259              	.LVL22:
 260              		.loc 1 208 0
 261 0028 431C     		adds	r3, r0, #1
 262 002a 06D0     		beq	.L10
 263              		.loc 1 211 0
 264 002c 0221     		movs	r1, #2
 265 002e 2170     		strb	r1, [r4, #0]
 266              	.L8:
 267              	.LBB9:
 268              		.loc 1 212 0
 269 0030 0023     		movs	r3, #0
 270              	.LVL23:
 271              	@ 212 "../../../ChibiOS/os/hal/src/i2c.c" 1
 272 0032 83F31188 		msr     BASEPRI, r3
 273              	@ 0 "" 2
 274              	.LVL24:
 275              		.thumb
 276              	.LBE9:
 277              		.loc 1 214 0
 278 0036 04B0     		add	sp, sp, #16
 279 0038 70BD     		pop	{r4, r5, r6, pc}
 280              	.LVL25:
ARM GAS  C:\Users\DNIEL~1\AppData\Local\Temp\cc4wkf7C.s 			page 6


 281              	.L10:
 282              		.loc 1 209 0
 283 003a 0522     		movs	r2, #5
 284 003c 2270     		strb	r2, [r4, #0]
 285 003e F7E7     		b	.L8
 286              		.cfi_endproc
 287              	.LFE123:
 288              		.size	i2cMasterTransmitTimeout, .-i2cMasterTransmitTimeout
 289              		.section	.text.i2cMasterReceiveTimeout,"ax",%progbits
 290              		.align	2
 291              		.p2align 4,,15
 292              		.global	i2cMasterReceiveTimeout
 293              		.thumb
 294              		.thumb_func
 295              		.type	i2cMasterReceiveTimeout, %function
 296              	i2cMasterReceiveTimeout:
 297              	.LFB124:
 298              		.loc 1 240 0
 299              		.cfi_startproc
 300              		@ args = 4, pretend = 0, frame = 0
 301              		@ frame_needed = 0, uses_anonymous_args = 0
 302              	.LVL26:
 303 0000 70B5     		push	{r4, r5, r6, lr}
 304              	.LCFI4:
 305              		.cfi_def_cfa_offset 16
 306              		.cfi_offset 4, -16
 307              		.cfi_offset 5, -12
 308              		.cfi_offset 6, -8
 309              		.cfi_offset 14, -4
 310 0002 1E46     		mov	r6, r3
 311 0004 82B0     		sub	sp, sp, #8
 312              	.LCFI5:
 313              		.cfi_def_cfa_offset 24
 314              		.loc 1 240 0
 315 0006 0446     		mov	r4, r0
 316              	.LBB10:
 317              		.loc 1 252 0
 318 0008 2023     		movs	r3, #32
 319              	.LVL27:
 320              	@ 252 "../../../ChibiOS/os/hal/src/i2c.c" 1
 321 000a 83F31188 		msr     BASEPRI, r3
 322              	@ 0 "" 2
 323              	.LVL28:
 324              		.thumb
 325              	.LBE10:
 326              		.loc 1 254 0
 327 000e 0425     		movs	r5, #4
 328 0010 0570     		strb	r5, [r0, #0]
 329              		.loc 1 255 0
 330 0012 069D     		ldr	r5, [sp, #24]
 331              		.loc 1 253 0
 332 0014 0023     		movs	r3, #0
 333              	.LVL29:
 334 0016 8360     		str	r3, [r0, #8]
 335              		.loc 1 255 0
 336 0018 3346     		mov	r3, r6
 337 001a 0095     		str	r5, [sp, #0]
ARM GAS  C:\Users\DNIEL~1\AppData\Local\Temp\cc4wkf7C.s 			page 7


 338 001c FFF7FEFF 		bl	i2c_lld_master_receive_timeout
 339              	.LVL30:
 340              		.loc 1 256 0
 341 0020 431C     		adds	r3, r0, #1
 342 0022 06D0     		beq	.L14
 343              		.loc 1 259 0
 344 0024 0221     		movs	r1, #2
 345 0026 2170     		strb	r1, [r4, #0]
 346              	.L13:
 347              	.LBB11:
 348              		.loc 1 260 0
 349 0028 0023     		movs	r3, #0
 350              	.LVL31:
 351              	@ 260 "../../../ChibiOS/os/hal/src/i2c.c" 1
 352 002a 83F31188 		msr     BASEPRI, r3
 353              	@ 0 "" 2
 354              	.LVL32:
 355              		.thumb
 356              	.LBE11:
 357              		.loc 1 262 0
 358 002e 02B0     		add	sp, sp, #8
 359 0030 70BD     		pop	{r4, r5, r6, pc}
 360              	.LVL33:
 361              	.L14:
 362              		.loc 1 257 0
 363 0032 0522     		movs	r2, #5
 364 0034 2270     		strb	r2, [r4, #0]
 365 0036 F7E7     		b	.L13
 366              		.cfi_endproc
 367              	.LFE124:
 368              		.size	i2cMasterReceiveTimeout, .-i2cMasterReceiveTimeout
 369 0038 AFF30080 		.section	.text.i2cAcquireBus,"ax",%progbits
 369      AFF30080 
 370              		.align	2
 371              		.p2align 4,,15
 372              		.global	i2cAcquireBus
 373              		.thumb
 374              		.thumb_func
 375              		.type	i2cAcquireBus, %function
 376              	i2cAcquireBus:
 377              	.LFB125:
 378              		.loc 1 276 0
 379              		.cfi_startproc
 380              		@ args = 0, pretend = 0, frame = 0
 381              		@ frame_needed = 0, uses_anonymous_args = 0
 382              		@ link register save eliminated.
 383              	.LVL34:
 384              		.loc 1 281 0
 385 0000 0C30     		adds	r0, r0, #12
 386              	.LVL35:
 387              		.loc 1 285 0
 388              		.loc 1 281 0
 389 0002 FFF7FEBF 		b	chMtxLock
 390              	.LVL36:
 391              		.cfi_endproc
 392              	.LFE125:
 393              		.size	i2cAcquireBus, .-i2cAcquireBus
ARM GAS  C:\Users\DNIEL~1\AppData\Local\Temp\cc4wkf7C.s 			page 8


 394 0006 00BFAFF3 		.section	.text.i2cReleaseBus,"ax",%progbits
 394      0080AFF3 
 394      0080
 395              		.align	2
 396              		.p2align 4,,15
 397              		.global	i2cReleaseBus
 398              		.thumb
 399              		.thumb_func
 400              		.type	i2cReleaseBus, %function
 401              	i2cReleaseBus:
 402              	.LFB126:
 403              		.loc 1 296 0
 404              		.cfi_startproc
 405              		@ args = 0, pretend = 0, frame = 0
 406              		@ frame_needed = 0, uses_anonymous_args = 0
 407              		@ link register save eliminated.
 408              	.LVL37:
 409              		.loc 1 305 0
 410              		.loc 1 301 0
 411 0000 FFF7FEBF 		b	chMtxUnlock
 412              	.LVL38:
 413              		.cfi_endproc
 414              	.LFE126:
 415              		.size	i2cReleaseBus, .-i2cReleaseBus
 416 0004 AFF30080 		.text
 416      AFF30080 
 416      AFF30080 
 417              	.Letext0:
 418              		.file 2 "c:\\chibistudio\\tools\\gnu tools arm embedded\\4.7 2014q2\\bin\\../lib/gcc/arm-none-eabi
 419              		.file 3 "c:\\chibistudio\\tools\\gnu tools arm embedded\\4.7 2014q2\\bin\\../lib/gcc/arm-none-eabi
 420              		.file 4 "../../../ChibiOS/os/ports/GCC/ARMCMx/chtypes.h"
 421              		.file 5 "../../../ChibiOS/os/kernel/include/chlists.h"
 422              		.file 6 "../../../ChibiOS/os/kernel/include/chthreads.h"
 423              		.file 7 "../../../ChibiOS/os/ports/GCC/ARMCMx/chcore_v7m.h"
 424              		.file 8 "../../../ChibiOS/os/kernel/include/chmtx.h"
 425              		.file 9 "../../../ChibiOS/os/hal/platforms/STM32F4xx/stm32f4xx.h"
 426              		.file 10 "../../../ChibiOS/os/hal/platforms/STM32F4xx/stm32_dma.h"
 427              		.file 11 "../../../ChibiOS/os/hal/include/i2c.h"
 428              		.file 12 "../../../ChibiOS/os/hal/platforms/STM32/I2Cv1/i2c_lld.h"
 429              		.file 13 "../../../ChibiOS/os/ports/common/ARMCMx/CMSIS/include/core_cm4.h"