ARM GAS  C:\Users\DNIEL~1\AppData\Local\Temp\cc1Z7K1B.s 			page 1


   1              		.syntax unified
   2              		.cpu cortex-m4
   3              		.fpu softvfp
   4              		.eabi_attribute 20, 1
   5              		.eabi_attribute 21, 1
   6              		.eabi_attribute 23, 3
   7              		.eabi_attribute 24, 1
   8              		.eabi_attribute 25, 1
   9              		.eabi_attribute 26, 1
  10              		.eabi_attribute 30, 2
  11              		.eabi_attribute 34, 1
  12              		.eabi_attribute 18, 4
  13              		.thumb
  14              		.file	"i2c.c"
  15              		.text
  16              	.Ltext0:
  17              		.cfi_sections	.debug_frame
  18              		.section	.text.i2cInit,"ax",%progbits
  19              		.align	2
  20              		.p2align 4,,15
  21              		.global	i2cInit
  22              		.thumb
  23              		.thumb_func
  24              		.type	i2cInit, %function
  25              	i2cInit:
  26              	.LFB118:
  27              		.file 1 "../../../ChibiOS/os/hal/src/i2c.c"
  28              		.loc 1 64 0
  29              		.cfi_startproc
  30              		@ args = 0, pretend = 0, frame = 0
  31              		@ frame_needed = 0, uses_anonymous_args = 0
  32              		@ link register save eliminated.
  33              		.loc 1 66 0
  34              		.loc 1 65 0
  35 0000 FFF7FEBF 		b	i2c_lld_init
  36              	.LVL0:
  37              		.cfi_endproc
  38              	.LFE118:
  39              		.size	i2cInit, .-i2cInit
  40 0004 AFF30080 		.section	.text.i2cObjectInit,"ax",%progbits
  40      AFF30080 
  40      AFF30080 
  41              		.align	2
  42              		.p2align 4,,15
  43              		.global	i2cObjectInit
  44              		.thumb
  45              		.thumb_func
  46              		.type	i2cObjectInit, %function
  47              	i2cObjectInit:
  48              	.LFB119:
  49              		.loc 1 75 0
  50              		.cfi_startproc
  51              		@ args = 0, pretend = 0, frame = 0
  52              		@ frame_needed = 0, uses_anonymous_args = 0
  53              		@ link register save eliminated.
  54              	.LVL1:
  55              		.loc 1 77 0
ARM GAS  C:\Users\DNIEL~1\AppData\Local\Temp\cc1Z7K1B.s 			page 2


  56 0000 0123     		movs	r3, #1
  57              		.loc 1 78 0
  58 0002 0021     		movs	r1, #0
  59              		.loc 1 77 0
  60 0004 0370     		strb	r3, [r0, #0]
  61              		.loc 1 78 0
  62 0006 4160     		str	r1, [r0, #4]
  63              		.loc 1 82 0
  64 0008 0C30     		adds	r0, r0, #12
  65              	.LVL2:
  66              		.loc 1 91 0
  67              		.loc 1 82 0
  68 000a FFF7FEBF 		b	chMtxInit
  69              	.LVL3:
  70              		.cfi_endproc
  71              	.LFE119:
  72              		.size	i2cObjectInit, .-i2cObjectInit
  73 000e 00BF     		.section	.text.i2cStart,"ax",%progbits
  74              		.align	2
  75              		.p2align 4,,15
  76              		.global	i2cStart
  77              		.thumb
  78              		.thumb_func
  79              		.type	i2cStart, %function
  80              	i2cStart:
  81              	.LFB120:
  82              		.loc 1 101 0
  83              		.cfi_startproc
  84              		@ args = 0, pretend = 0, frame = 0
  85              		@ frame_needed = 0, uses_anonymous_args = 0
  86              	.LVL4:
  87 0000 10B5     		push	{r4, lr}
  88              	.LCFI0:
  89              		.cfi_def_cfa_offset 8
  90              		.cfi_offset 4, -8
  91              		.cfi_offset 14, -4
  92              	.LBB2:
  93              		.loc 1 109 0
  94 0002 2023     		movs	r3, #32
  95              	.LVL5:
  96              	.LBE2:
  97              		.loc 1 101 0
  98 0004 0446     		mov	r4, r0
  99              	.LBB3:
 100              		.loc 1 109 0
 101              	@ 109 "../../../ChibiOS/os/hal/src/i2c.c" 1
 102 0006 83F31188 		msr     BASEPRI, r3
 103              	@ 0 "" 2
 104              	.LVL6:
 105              		.thumb
 106              	.LBE3:
 107              		.loc 1 110 0
 108 000a 4160     		str	r1, [r0, #4]
 109              		.loc 1 111 0
 110 000c FFF7FEFF 		bl	i2c_lld_start
 111              	.LVL7:
 112              		.loc 1 112 0
ARM GAS  C:\Users\DNIEL~1\AppData\Local\Temp\cc1Z7K1B.s 			page 3


 113 0010 0223     		movs	r3, #2
 114 0012 2370     		strb	r3, [r4, #0]
 115              	.LBB4:
 116              		.loc 1 113 0
 117 0014 0023     		movs	r3, #0
 118              	.LVL8:
 119              	@ 113 "../../../ChibiOS/os/hal/src/i2c.c" 1
 120 0016 83F31188 		msr     BASEPRI, r3
 121              	@ 0 "" 2
 122              	.LVL9:
 123              		.thumb
 124 001a 10BD     		pop	{r4, pc}
 125              	.LBE4:
 126              		.cfi_endproc
 127              	.LFE120:
 128              		.size	i2cStart, .-i2cStart
 129 001c AFF30080 		.section	.text.i2cStop,"ax",%progbits
 130              		.align	2
 131              		.p2align 4,,15
 132              		.global	i2cStop
 133              		.thumb
 134              		.thumb_func
 135              		.type	i2cStop, %function
 136              	i2cStop:
 137              	.LFB121:
 138              		.loc 1 123 0
 139              		.cfi_startproc
 140              		@ args = 0, pretend = 0, frame = 0
 141              		@ frame_needed = 0, uses_anonymous_args = 0
 142              	.LVL10:
 143 0000 10B5     		push	{r4, lr}
 144              	.LCFI1:
 145              		.cfi_def_cfa_offset 8
 146              		.cfi_offset 4, -8
 147              		.cfi_offset 14, -4
 148              	.LBB5:
 149              		.loc 1 131 0
 150 0002 2023     		movs	r3, #32
 151              	.LVL11:
 152              	.LBE5:
 153              		.loc 1 123 0
 154 0004 0446     		mov	r4, r0
 155              	.LBB6:
 156              		.loc 1 131 0
 157              	@ 131 "../../../ChibiOS/os/hal/src/i2c.c" 1
 158 0006 83F31188 		msr     BASEPRI, r3
 159              	@ 0 "" 2
 160              	.LVL12:
 161              		.thumb
 162              	.LBE6:
 163              		.loc 1 132 0
 164 000a FFF7FEFF 		bl	i2c_lld_stop
 165              	.LVL13:
 166              		.loc 1 133 0
 167 000e 0123     		movs	r3, #1
 168 0010 2370     		strb	r3, [r4, #0]
 169              	.LBB7:
ARM GAS  C:\Users\DNIEL~1\AppData\Local\Temp\cc1Z7K1B.s 			page 4


 170              		.loc 1 134 0
 171 0012 0023     		movs	r3, #0
 172              	.LVL14:
 173              	@ 134 "../../../ChibiOS/os/hal/src/i2c.c" 1
 174 0014 83F31188 		msr     BASEPRI, r3
 175              	@ 0 "" 2
 176              	.LVL15:
 177              		.thumb
 178 0018 10BD     		pop	{r4, pc}
 179              	.LBE7:
 180              		.cfi_endproc
 181              	.LFE121:
 182              		.size	i2cStop, .-i2cStop
 183 001a 00BFAFF3 		.section	.text.i2cGetErrors,"ax",%progbits
 183      0080
 184              		.align	2
 185              		.p2align 4,,15
 186              		.global	i2cGetErrors
 187              		.thumb
 188              		.thumb_func
 189              		.type	i2cGetErrors, %function
 190              	i2cGetErrors:
 191              	.LFB122:
 192              		.loc 1 145 0
 193              		.cfi_startproc
 194              		@ args = 0, pretend = 0, frame = 0
 195              		@ frame_needed = 0, uses_anonymous_args = 0
 196              		@ link register save eliminated.
 197              	.LVL16:
 198              		.loc 1 150 0
 199 0000 8068     		ldr	r0, [r0, #8]
 200              	.LVL17:
 201 0002 7047     		bx	lr
 202              		.cfi_endproc
 203              	.LFE122:
 204              		.size	i2cGetErrors, .-i2cGetErrors
 205 0004 AFF30080 		.section	.text.i2cMasterTransmitTimeout,"ax",%progbits
 205      AFF30080 
 205      AFF30080 
 206              		.align	2
 207              		.p2align 4,,15
 208              		.global	i2cMasterTransmitTimeout
 209              		.thumb
 210              		.thumb_func
 211              		.type	i2cMasterTransmitTimeout, %function
 212              	i2cMasterTransmitTimeout:
 213              	.LFB123:
 214              		.loc 1 184 0
 215              		.cfi_startproc
 216              		@ args = 12, pretend = 0, frame = 0
 217              		@ frame_needed = 0, uses_anonymous_args = 0
 218              	.LVL18:
 219 0000 70B5     		push	{r4, r5, r6, lr}
 220              	.LCFI2:
 221              		.cfi_def_cfa_offset 16
 222              		.cfi_offset 4, -16
 223              		.cfi_offset 5, -12
ARM GAS  C:\Users\DNIEL~1\AppData\Local\Temp\cc1Z7K1B.s 			page 5


 224              		.cfi_offset 6, -8
 225              		.cfi_offset 14, -4
 226 0002 1E46     		mov	r6, r3
 227 0004 84B0     		sub	sp, sp, #16
 228              	.LCFI3:
 229              		.cfi_def_cfa_offset 32
 230              		.loc 1 184 0
 231 0006 0446     		mov	r4, r0
 232              	.LBB8:
 233              		.loc 1 196 0
 234 0008 2023     		movs	r3, #32
 235              	.LVL19:
 236              	@ 196 "../../../ChibiOS/os/hal/src/i2c.c" 1
 237 000a 83F31188 		msr     BASEPRI, r3
 238              	@ 0 "" 2
 239              	.LVL20:
 240              		.thumb
 241              	.LBE8:
 242              		.loc 1 198 0
 243 000e 0325     		movs	r5, #3
 244 0010 0570     		strb	r5, [r0, #0]
 245              		.loc 1 199 0
 246 0012 099D     		ldr	r5, [sp, #36]
 247              		.loc 1 197 0
 248 0014 0023     		movs	r3, #0
 249              	.LVL21:
 250 0016 8360     		str	r3, [r0, #8]
 251              		.loc 1 199 0
 252 0018 089B     		ldr	r3, [sp, #32]
 253 001a 0195     		str	r5, [sp, #4]
 254 001c 0A9D     		ldr	r5, [sp, #40]
 255 001e 0093     		str	r3, [sp, #0]
 256 0020 0295     		str	r5, [sp, #8]
 257 0022 3346     		mov	r3, r6
 258 0024 FFF7FEFF 		bl	i2c_lld_master_transmit_timeout
 259              	.LVL22:
 260              		.loc 1 201 0
 261 0028 431C     		adds	r3, r0, #1
 262 002a 06D0     		beq	.L10
 263              		.loc 1 204 0
 264 002c 0221     		movs	r1, #2
 265 002e 2170     		strb	r1, [r4, #0]
 266              	.L8:
 267              	.LBB9:
 268              		.loc 1 205 0
 269 0030 0023     		movs	r3, #0
 270              	.LVL23:
 271              	@ 205 "../../../ChibiOS/os/hal/src/i2c.c" 1
 272 0032 83F31188 		msr     BASEPRI, r3
 273              	@ 0 "" 2
 274              	.LVL24:
 275              		.thumb
 276              	.LBE9:
 277              		.loc 1 207 0
 278 0036 04B0     		add	sp, sp, #16
 279 0038 70BD     		pop	{r4, r5, r6, pc}
 280              	.LVL25:
ARM GAS  C:\Users\DNIEL~1\AppData\Local\Temp\cc1Z7K1B.s 			page 6


 281              	.L10:
 282              		.loc 1 202 0
 283 003a 0522     		movs	r2, #5
 284 003c 2270     		strb	r2, [r4, #0]
 285 003e F7E7     		b	.L8
 286              		.cfi_endproc
 287              	.LFE123:
 288              		.size	i2cMasterTransmitTimeout, .-i2cMasterTransmitTimeout
 289              		.section	.text.i2cMasterReceiveTimeout,"ax",%progbits
 290              		.align	2
 291              		.p2align 4,,15
 292              		.global	i2cMasterReceiveTimeout
 293              		.thumb
 294              		.thumb_func
 295              		.type	i2cMasterReceiveTimeout, %function
 296              	i2cMasterReceiveTimeout:
 297              	.LFB124:
 298              		.loc 1 233 0
 299              		.cfi_startproc
 300              		@ args = 4, pretend = 0, frame = 0
 301              		@ frame_needed = 0, uses_anonymous_args = 0
 302              	.LVL26:
 303 0000 70B5     		push	{r4, r5, r6, lr}
 304              	.LCFI4:
 305              		.cfi_def_cfa_offset 16
 306              		.cfi_offset 4, -16
 307              		.cfi_offset 5, -12
 308              		.cfi_offset 6, -8
 309              		.cfi_offset 14, -4
 310 0002 1E46     		mov	r6, r3
 311 0004 82B0     		sub	sp, sp, #8
 312              	.LCFI5:
 313              		.cfi_def_cfa_offset 24
 314              		.loc 1 233 0
 315 0006 0446     		mov	r4, r0
 316              	.LBB10:
 317              		.loc 1 245 0
 318 0008 2023     		movs	r3, #32
 319              	.LVL27:
 320              	@ 245 "../../../ChibiOS/os/hal/src/i2c.c" 1
 321 000a 83F31188 		msr     BASEPRI, r3
 322              	@ 0 "" 2
 323              	.LVL28:
 324              		.thumb
 325              	.LBE10:
 326              		.loc 1 247 0
 327 000e 0425     		movs	r5, #4
 328 0010 0570     		strb	r5, [r0, #0]
 329              		.loc 1 248 0
 330 0012 069D     		ldr	r5, [sp, #24]
 331              		.loc 1 246 0
 332 0014 0023     		movs	r3, #0
 333              	.LVL29:
 334 0016 8360     		str	r3, [r0, #8]
 335              		.loc 1 248 0
 336 0018 3346     		mov	r3, r6
 337 001a 0095     		str	r5, [sp, #0]
ARM GAS  C:\Users\DNIEL~1\AppData\Local\Temp\cc1Z7K1B.s 			page 7


 338 001c FFF7FEFF 		bl	i2c_lld_master_receive_timeout
 339              	.LVL30:
 340              		.loc 1 249 0
 341 0020 431C     		adds	r3, r0, #1
 342 0022 06D0     		beq	.L14
 343              		.loc 1 252 0
 344 0024 0221     		movs	r1, #2
 345 0026 2170     		strb	r1, [r4, #0]
 346              	.L13:
 347              	.LBB11:
 348              		.loc 1 253 0
 349 0028 0023     		movs	r3, #0
 350              	.LVL31:
 351              	@ 253 "../../../ChibiOS/os/hal/src/i2c.c" 1
 352 002a 83F31188 		msr     BASEPRI, r3
 353              	@ 0 "" 2
 354              	.LVL32:
 355              		.thumb
 356              	.LBE11:
 357              		.loc 1 255 0
 358 002e 02B0     		add	sp, sp, #8
 359 0030 70BD     		pop	{r4, r5, r6, pc}
 360              	.LVL33:
 361              	.L14:
 362              		.loc 1 250 0
 363 0032 0522     		movs	r2, #5
 364 0034 2270     		strb	r2, [r4, #0]
 365 0036 F7E7     		b	.L13
 366              		.cfi_endproc
 367              	.LFE124:
 368              		.size	i2cMasterReceiveTimeout, .-i2cMasterReceiveTimeout
 369 0038 AFF30080 		.section	.text.i2cAcquireBus,"ax",%progbits
 369      AFF30080 
 370              		.align	2
 371              		.p2align 4,,15
 372              		.global	i2cAcquireBus
 373              		.thumb
 374              		.thumb_func
 375              		.type	i2cAcquireBus, %function
 376              	i2cAcquireBus:
 377              	.LFB125:
 378              		.loc 1 269 0
 379              		.cfi_startproc
 380              		@ args = 0, pretend = 0, frame = 0
 381              		@ frame_needed = 0, uses_anonymous_args = 0
 382              		@ link register save eliminated.
 383              	.LVL34:
 384              		.loc 1 274 0
 385 0000 0C30     		adds	r0, r0, #12
 386              	.LVL35:
 387              		.loc 1 278 0
 388              		.loc 1 274 0
 389 0002 FFF7FEBF 		b	chMtxLock
 390              	.LVL36:
 391              		.cfi_endproc
 392              	.LFE125:
 393              		.size	i2cAcquireBus, .-i2cAcquireBus
ARM GAS  C:\Users\DNIEL~1\AppData\Local\Temp\cc1Z7K1B.s 			page 8


 394 0006 00BFAFF3 		.section	.text.i2cReleaseBus,"ax",%progbits
 394      0080AFF3 
 394      0080
 395              		.align	2
 396              		.p2align 4,,15
 397              		.global	i2cReleaseBus
 398              		.thumb
 399              		.thumb_func
 400              		.type	i2cReleaseBus, %function
 401              	i2cReleaseBus:
 402              	.LFB126:
 403              		.loc 1 289 0
 404              		.cfi_startproc
 405              		@ args = 0, pretend = 0, frame = 0
 406              		@ frame_needed = 0, uses_anonymous_args = 0
 407              		@ link register save eliminated.
 408              	.LVL37:
 409              		.loc 1 298 0
 410              		.loc 1 294 0
 411 0000 FFF7FEBF 		b	chMtxUnlock
 412              	.LVL38:
 413              		.cfi_endproc
 414              	.LFE126:
 415              		.size	i2cReleaseBus, .-i2cReleaseBus
 416 0004 AFF30080 		.text
 416      AFF30080 
 416      AFF30080 
 417              	.Letext0:
 418              		.file 2 "c:\\chibistudio\\tools\\gnu tools arm embedded\\4.7 2014q2\\bin\\../lib/gcc/arm-none-eabi
 419              		.file 3 "c:\\chibistudio\\tools\\gnu tools arm embedded\\4.7 2014q2\\bin\\../lib/gcc/arm-none-eabi
 420              		.file 4 "../../../ChibiOS/os/ports/GCC/ARMCMx/chtypes.h"
 421              		.file 5 "../../../ChibiOS/os/kernel/include/chlists.h"
 422              		.file 6 "../../../ChibiOS/os/kernel/include/chthreads.h"
 423              		.file 7 "../../../ChibiOS/os/ports/GCC/ARMCMx/chcore_v7m.h"
 424              		.file 8 "../../../ChibiOS/os/kernel/include/chmtx.h"
 425              		.file 9 "../../../ChibiOS/os/hal/platforms/STM32F4xx/stm32f4xx.h"
 426              		.file 10 "../../../ChibiOS/os/hal/platforms/STM32F4xx/stm32_dma.h"
 427              		.file 11 "../../../ChibiOS/os/hal/include/i2c.h"
 428              		.file 12 "../../../ChibiOS/os/hal/platforms/STM32/I2Cv1/i2c_lld.h"
 429              		.file 13 "../../../ChibiOS/os/ports/common/ARMCMx/CMSIS/include/core_cm4.h"
 430              		.section	.debug_info,"",%progbits
 431              	.Ldebug_info0:
 432 0000 510C0000 		.4byte	0xc51
 433 0004 0200     		.2byte	0x2
 434 0006 00000000 		.4byte	.Ldebug_abbrev0
 435 000a 04       		.byte	0x4
 436 000b 01       		.uleb128 0x1
 437 000c B7020000 		.4byte	.LASF132
 438 0010 01       		.byte	0x1
 439 0011 3E040000 		.4byte	.LASF133
 440 0015 4A050000 		.4byte	.LASF134
 441 0019 30000000 		.4byte	.Ldebug_ranges0+0x30
 442 001d 00000000 		.4byte	0
 443 0021 00000000 		.4byte	0
 444 0025 00000000 		.4byte	.Ldebug_line0
 445 0029 02       		.uleb128 0x2
 446 002a 04       		.byte	0x4
ARM GAS  C:\Users\DNIEL~1\AppData\Local\Temp\cc1Z7K1B.s 			page 9


 447 002b 05       		.byte	0x5
 448 002c 696E7400 		.ascii	"int\000"
 449 0030 03       		.uleb128 0x3
 450 0031 34000000 		.4byte	.LASF2
 451 0035 02       		.byte	0x2
 452 0036 D5       		.byte	0xd5
 453 0037 3B000000 		.4byte	0x3b
 454 003b 04       		.uleb128 0x4
 455 003c 04       		.byte	0x4
 456 003d 07       		.byte	0x7
 457 003e DA010000 		.4byte	.LASF0
 458 0042 04       		.uleb128 0x4
 459 0043 01       		.byte	0x1
 460 0044 06       		.byte	0x6
 461 0045 00010000 		.4byte	.LASF1
 462 0049 03       		.uleb128 0x3
 463 004a 75050000 		.4byte	.LASF3
 464 004e 03       		.byte	0x3
 465 004f 2A       		.byte	0x2a
 466 0050 54000000 		.4byte	0x54
 467 0054 04       		.uleb128 0x4
 468 0055 01       		.byte	0x1
 469 0056 08       		.byte	0x8
 470 0057 D3030000 		.4byte	.LASF4
 471 005b 04       		.uleb128 0x4
 472 005c 02       		.byte	0x2
 473 005d 05       		.byte	0x5
 474 005e 6E020000 		.4byte	.LASF5
 475 0062 03       		.uleb128 0x3
 476 0063 4D020000 		.4byte	.LASF6
 477 0067 03       		.byte	0x3
 478 0068 36       		.byte	0x36
 479 0069 6D000000 		.4byte	0x6d
 480 006d 04       		.uleb128 0x4
 481 006e 02       		.byte	0x2
 482 006f 07       		.byte	0x7
 483 0070 22020000 		.4byte	.LASF7
 484 0074 03       		.uleb128 0x3
 485 0075 CB030000 		.4byte	.LASF8
 486 0079 03       		.byte	0x3
 487 007a 4F       		.byte	0x4f
 488 007b 7F000000 		.4byte	0x7f
 489 007f 04       		.uleb128 0x4
 490 0080 04       		.byte	0x4
 491 0081 05       		.byte	0x5
 492 0082 60010000 		.4byte	.LASF9
 493 0086 03       		.uleb128 0x3
 494 0087 9E040000 		.4byte	.LASF10
 495 008b 03       		.byte	0x3
 496 008c 50       		.byte	0x50
 497 008d 91000000 		.4byte	0x91
 498 0091 04       		.uleb128 0x4
 499 0092 04       		.byte	0x4
 500 0093 07       		.byte	0x7
 501 0094 B5040000 		.4byte	.LASF11
 502 0098 04       		.uleb128 0x4
 503 0099 08       		.byte	0x8
ARM GAS  C:\Users\DNIEL~1\AppData\Local\Temp\cc1Z7K1B.s 			page 10


 504 009a 05       		.byte	0x5
 505 009b 80010000 		.4byte	.LASF12
 506 009f 04       		.uleb128 0x4
 507 00a0 08       		.byte	0x8
 508 00a1 07       		.byte	0x7
 509 00a2 77000000 		.4byte	.LASF13
 510 00a6 03       		.uleb128 0x3
 511 00a7 45020000 		.4byte	.LASF14
 512 00ab 04       		.byte	0x4
 513 00ac 28       		.byte	0x28
 514 00ad 49000000 		.4byte	0x49
 515 00b1 03       		.uleb128 0x3
 516 00b2 69010000 		.4byte	.LASF15
 517 00b6 04       		.byte	0x4
 518 00b7 29       		.byte	0x29
 519 00b8 49000000 		.4byte	0x49
 520 00bc 03       		.uleb128 0x3
 521 00bd 45030000 		.4byte	.LASF16
 522 00c1 04       		.byte	0x4
 523 00c2 2A       		.byte	0x2a
 524 00c3 49000000 		.4byte	0x49
 525 00c7 03       		.uleb128 0x3
 526 00c8 46010000 		.4byte	.LASF17
 527 00cc 04       		.byte	0x4
 528 00cd 2B       		.byte	0x2b
 529 00ce 49000000 		.4byte	0x49
 530 00d2 03       		.uleb128 0x3
 531 00d3 A4030000 		.4byte	.LASF18
 532 00d7 04       		.byte	0x4
 533 00d8 2C       		.byte	0x2c
 534 00d9 86000000 		.4byte	0x86
 535 00dd 03       		.uleb128 0x3
 536 00de 3F020000 		.4byte	.LASF19
 537 00e2 04       		.byte	0x4
 538 00e3 2D       		.byte	0x2d
 539 00e4 74000000 		.4byte	0x74
 540 00e8 03       		.uleb128 0x3
 541 00e9 62020000 		.4byte	.LASF20
 542 00ed 04       		.byte	0x4
 543 00ee 2F       		.byte	0x2f
 544 00ef 86000000 		.4byte	0x86
 545 00f3 03       		.uleb128 0x3
 546 00f4 DA040000 		.4byte	.LASF21
 547 00f8 04       		.byte	0x4
 548 00f9 31       		.byte	0x31
 549 00fa 86000000 		.4byte	0x86
 550 00fe 03       		.uleb128 0x3
 551 00ff 72040000 		.4byte	.LASF22
 552 0103 05       		.byte	0x5
 553 0104 23       		.byte	0x23
 554 0105 09010000 		.4byte	0x109
 555 0109 05       		.uleb128 0x5
 556 010a 72040000 		.4byte	.LASF22
 557 010e 48       		.byte	0x48
 558 010f 06       		.byte	0x6
 559 0110 57       		.byte	0x57
 560 0111 2E020000 		.4byte	0x22e
ARM GAS  C:\Users\DNIEL~1\AppData\Local\Temp\cc1Z7K1B.s 			page 11


 561 0115 06       		.uleb128 0x6
 562 0116 2F040000 		.4byte	.LASF23
 563 011a 06       		.byte	0x6
 564 011b 58       		.byte	0x58
 565 011c 53020000 		.4byte	0x253
 566 0120 02       		.byte	0x2
 567 0121 23       		.byte	0x23
 568 0122 00       		.uleb128 0
 569 0123 06       		.uleb128 0x6
 570 0124 7F030000 		.4byte	.LASF24
 571 0128 06       		.byte	0x6
 572 0129 5A       		.byte	0x5a
 573 012a 53020000 		.4byte	0x253
 574 012e 02       		.byte	0x2
 575 012f 23       		.byte	0x23
 576 0130 04       		.uleb128 0x4
 577 0131 06       		.uleb128 0x6
 578 0132 D4000000 		.4byte	.LASF25
 579 0136 06       		.byte	0x6
 580 0137 5C       		.byte	0x5c
 581 0138 D2000000 		.4byte	0xd2
 582 013c 02       		.byte	0x2
 583 013d 23       		.byte	0x23
 584 013e 08       		.uleb128 0x8
 585 013f 06       		.uleb128 0x6
 586 0140 F1050000 		.4byte	.LASF26
 587 0144 06       		.byte	0x6
 588 0145 5D       		.byte	0x5d
 589 0146 21030000 		.4byte	0x321
 590 014a 02       		.byte	0x2
 591 014b 23       		.byte	0x23
 592 014c 0C       		.uleb128 0xc
 593 014d 06       		.uleb128 0x6
 594 014e 9F010000 		.4byte	.LASF27
 595 0152 06       		.byte	0x6
 596 0153 5F       		.byte	0x5f
 597 0154 53020000 		.4byte	0x253
 598 0158 02       		.byte	0x2
 599 0159 23       		.byte	0x23
 600 015a 10       		.uleb128 0x10
 601 015b 06       		.uleb128 0x6
 602 015c 00030000 		.4byte	.LASF28
 603 0160 06       		.byte	0x6
 604 0161 60       		.byte	0x60
 605 0162 53020000 		.4byte	0x253
 606 0166 02       		.byte	0x2
 607 0167 23       		.byte	0x23
 608 0168 14       		.uleb128 0x14
 609 0169 06       		.uleb128 0x6
 610 016a AE050000 		.4byte	.LASF29
 611 016e 06       		.byte	0x6
 612 016f 67       		.byte	0x67
 613 0170 D2030000 		.4byte	0x3d2
 614 0174 02       		.byte	0x2
 615 0175 23       		.byte	0x23
 616 0176 18       		.uleb128 0x18
 617 0177 06       		.uleb128 0x6
ARM GAS  C:\Users\DNIEL~1\AppData\Local\Temp\cc1Z7K1B.s 			page 12


 618 0178 09040000 		.4byte	.LASF30
 619 017c 06       		.byte	0x6
 620 017d 72       		.byte	0x72
 621 017e B1000000 		.4byte	0xb1
 622 0182 02       		.byte	0x2
 623 0183 23       		.byte	0x23
 624 0184 1C       		.uleb128 0x1c
 625 0185 06       		.uleb128 0x6
 626 0186 36040000 		.4byte	.LASF31
 627 018a 06       		.byte	0x6
 628 018b 76       		.byte	0x76
 629 018c A6000000 		.4byte	0xa6
 630 0190 02       		.byte	0x2
 631 0191 23       		.byte	0x23
 632 0192 1D       		.uleb128 0x1d
 633 0193 06       		.uleb128 0x6
 634 0194 79010000 		.4byte	.LASF32
 635 0198 06       		.byte	0x6
 636 0199 7B       		.byte	0x7b
 637 019a BC000000 		.4byte	0xbc
 638 019e 02       		.byte	0x2
 639 019f 23       		.byte	0x23
 640 01a0 1E       		.uleb128 0x1e
 641 01a1 06       		.uleb128 0x6
 642 01a2 11040000 		.4byte	.LASF33
 643 01a6 06       		.byte	0x6
 644 01a7 81       		.byte	0x81
 645 01a8 C7000000 		.4byte	0xc7
 646 01ac 02       		.byte	0x2
 647 01ad 23       		.byte	0x23
 648 01ae 1F       		.uleb128 0x1f
 649 01af 06       		.uleb128 0x6
 650 01b0 98010000 		.4byte	.LASF34
 651 01b4 06       		.byte	0x6
 652 01b5 88       		.byte	0x88
 653 01b6 50030000 		.4byte	0x350
 654 01ba 02       		.byte	0x2
 655 01bb 23       		.byte	0x23
 656 01bc 20       		.uleb128 0x20
 657 01bd 07       		.uleb128 0x7
 658 01be 705F7500 		.ascii	"p_u\000"
 659 01c2 06       		.byte	0x6
 660 01c3 AD       		.byte	0xad
 661 01c4 9D030000 		.4byte	0x39d
 662 01c8 02       		.byte	0x2
 663 01c9 23       		.byte	0x23
 664 01ca 24       		.uleb128 0x24
 665 01cb 06       		.uleb128 0x6
 666 01cc F7050000 		.4byte	.LASF35
 667 01d0 06       		.byte	0x6
 668 01d1 B2       		.byte	0xb2
 669 01d2 7B020000 		.4byte	0x27b
 670 01d6 02       		.byte	0x2
 671 01d7 23       		.byte	0x23
 672 01d8 28       		.uleb128 0x28
 673 01d9 06       		.uleb128 0x6
 674 01da F4010000 		.4byte	.LASF36
ARM GAS  C:\Users\DNIEL~1\AppData\Local\Temp\cc1Z7K1B.s 			page 13


 675 01de 06       		.byte	0x6
 676 01df B8       		.byte	0xb8
 677 01e0 59020000 		.4byte	0x259
 678 01e4 02       		.byte	0x2
 679 01e5 23       		.byte	0x23
 680 01e6 2C       		.uleb128 0x2c
 681 01e7 06       		.uleb128 0x6
 682 01e8 BD050000 		.4byte	.LASF37
 683 01ec 06       		.byte	0x6
 684 01ed BC       		.byte	0xbc
 685 01ee DD000000 		.4byte	0xdd
 686 01f2 02       		.byte	0x2
 687 01f3 23       		.byte	0x23
 688 01f4 34       		.uleb128 0x34
 689 01f5 06       		.uleb128 0x6
 690 01f6 84040000 		.4byte	.LASF38
 691 01fa 06       		.byte	0x6
 692 01fb C2       		.byte	0xc2
 693 01fc E8000000 		.4byte	0xe8
 694 0200 02       		.byte	0x2
 695 0201 23       		.byte	0x23
 696 0202 38       		.uleb128 0x38
 697 0203 06       		.uleb128 0x6
 698 0204 F4030000 		.4byte	.LASF39
 699 0208 06       		.byte	0x6
 700 0209 C9       		.byte	0xc9
 701 020a E4030000 		.4byte	0x3e4
 702 020e 02       		.byte	0x2
 703 020f 23       		.byte	0x23
 704 0210 3C       		.uleb128 0x3c
 705 0211 06       		.uleb128 0x6
 706 0212 E4040000 		.4byte	.LASF40
 707 0216 06       		.byte	0x6
 708 0217 CD       		.byte	0xcd
 709 0218 D2000000 		.4byte	0xd2
 710 021c 02       		.byte	0x2
 711 021d 23       		.byte	0x23
 712 021e 40       		.uleb128 0x40
 713 021f 06       		.uleb128 0x6
 714 0220 18010000 		.4byte	.LASF41
 715 0224 06       		.byte	0x6
 716 0225 D3       		.byte	0xd3
 717 0226 91020000 		.4byte	0x291
 718 022a 02       		.byte	0x2
 719 022b 23       		.byte	0x23
 720 022c 44       		.uleb128 0x44
 721 022d 00       		.byte	0
 722 022e 08       		.uleb128 0x8
 723 022f 08       		.byte	0x8
 724 0230 05       		.byte	0x5
 725 0231 5A       		.byte	0x5a
 726 0232 53020000 		.4byte	0x253
 727 0236 06       		.uleb128 0x6
 728 0237 2F040000 		.4byte	.LASF23
 729 023b 05       		.byte	0x5
 730 023c 5B       		.byte	0x5b
 731 023d 53020000 		.4byte	0x253
ARM GAS  C:\Users\DNIEL~1\AppData\Local\Temp\cc1Z7K1B.s 			page 14


 732 0241 02       		.byte	0x2
 733 0242 23       		.byte	0x23
 734 0243 00       		.uleb128 0
 735 0244 06       		.uleb128 0x6
 736 0245 7F030000 		.4byte	.LASF24
 737 0249 05       		.byte	0x5
 738 024a 5D       		.byte	0x5d
 739 024b 53020000 		.4byte	0x253
 740 024f 02       		.byte	0x2
 741 0250 23       		.byte	0x23
 742 0251 04       		.uleb128 0x4
 743 0252 00       		.byte	0
 744 0253 09       		.uleb128 0x9
 745 0254 04       		.byte	0x4
 746 0255 FE000000 		.4byte	0xfe
 747 0259 03       		.uleb128 0x3
 748 025a 18030000 		.4byte	.LASF42
 749 025e 05       		.byte	0x5
 750 025f 5F       		.byte	0x5f
 751 0260 2E020000 		.4byte	0x22e
 752 0264 08       		.uleb128 0x8
 753 0265 04       		.byte	0x4
 754 0266 05       		.byte	0x5
 755 0267 64       		.byte	0x64
 756 0268 7B020000 		.4byte	0x27b
 757 026c 06       		.uleb128 0x6
 758 026d 2F040000 		.4byte	.LASF23
 759 0271 05       		.byte	0x5
 760 0272 66       		.byte	0x66
 761 0273 53020000 		.4byte	0x253
 762 0277 02       		.byte	0x2
 763 0278 23       		.byte	0x23
 764 0279 00       		.uleb128 0
 765 027a 00       		.byte	0
 766 027b 03       		.uleb128 0x3
 767 027c 56020000 		.4byte	.LASF43
 768 0280 05       		.byte	0x5
 769 0281 69       		.byte	0x69
 770 0282 64020000 		.4byte	0x264
 771 0286 03       		.uleb128 0x3
 772 0287 BF010000 		.4byte	.LASF44
 773 028b 07       		.byte	0x7
 774 028c DE       		.byte	0xde
 775 028d 91020000 		.4byte	0x291
 776 0291 0A       		.uleb128 0xa
 777 0292 04       		.byte	0x4
 778 0293 0B       		.uleb128 0xb
 779 0294 19050000 		.4byte	.LASF45
 780 0298 24       		.byte	0x24
 781 0299 07       		.byte	0x7
 782 029a 0501     		.2byte	0x105
 783 029c 21030000 		.4byte	0x321
 784 02a0 0C       		.uleb128 0xc
 785 02a1 723400   		.ascii	"r4\000"
 786 02a4 07       		.byte	0x7
 787 02a5 1801     		.2byte	0x118
 788 02a7 86020000 		.4byte	0x286
ARM GAS  C:\Users\DNIEL~1\AppData\Local\Temp\cc1Z7K1B.s 			page 15


 789 02ab 02       		.byte	0x2
 790 02ac 23       		.byte	0x23
 791 02ad 00       		.uleb128 0
 792 02ae 0C       		.uleb128 0xc
 793 02af 723500   		.ascii	"r5\000"
 794 02b2 07       		.byte	0x7
 795 02b3 1901     		.2byte	0x119
 796 02b5 86020000 		.4byte	0x286
 797 02b9 02       		.byte	0x2
 798 02ba 23       		.byte	0x23
 799 02bb 04       		.uleb128 0x4
 800 02bc 0C       		.uleb128 0xc
 801 02bd 723600   		.ascii	"r6\000"
 802 02c0 07       		.byte	0x7
 803 02c1 1A01     		.2byte	0x11a
 804 02c3 86020000 		.4byte	0x286
 805 02c7 02       		.byte	0x2
 806 02c8 23       		.byte	0x23
 807 02c9 08       		.uleb128 0x8
 808 02ca 0C       		.uleb128 0xc
 809 02cb 723700   		.ascii	"r7\000"
 810 02ce 07       		.byte	0x7
 811 02cf 1B01     		.2byte	0x11b
 812 02d1 86020000 		.4byte	0x286
 813 02d5 02       		.byte	0x2
 814 02d6 23       		.byte	0x23
 815 02d7 0C       		.uleb128 0xc
 816 02d8 0C       		.uleb128 0xc
 817 02d9 723800   		.ascii	"r8\000"
 818 02dc 07       		.byte	0x7
 819 02dd 1C01     		.2byte	0x11c
 820 02df 86020000 		.4byte	0x286
 821 02e3 02       		.byte	0x2
 822 02e4 23       		.byte	0x23
 823 02e5 10       		.uleb128 0x10
 824 02e6 0C       		.uleb128 0xc
 825 02e7 723900   		.ascii	"r9\000"
 826 02ea 07       		.byte	0x7
 827 02eb 1D01     		.2byte	0x11d
 828 02ed 86020000 		.4byte	0x286
 829 02f1 02       		.byte	0x2
 830 02f2 23       		.byte	0x23
 831 02f3 14       		.uleb128 0x14
 832 02f4 0C       		.uleb128 0xc
 833 02f5 72313000 		.ascii	"r10\000"
 834 02f9 07       		.byte	0x7
 835 02fa 1E01     		.2byte	0x11e
 836 02fc 86020000 		.4byte	0x286
 837 0300 02       		.byte	0x2
 838 0301 23       		.byte	0x23
 839 0302 18       		.uleb128 0x18
 840 0303 0C       		.uleb128 0xc
 841 0304 72313100 		.ascii	"r11\000"
 842 0308 07       		.byte	0x7
 843 0309 1F01     		.2byte	0x11f
 844 030b 86020000 		.4byte	0x286
 845 030f 02       		.byte	0x2
ARM GAS  C:\Users\DNIEL~1\AppData\Local\Temp\cc1Z7K1B.s 			page 16


 846 0310 23       		.byte	0x23
 847 0311 1C       		.uleb128 0x1c
 848 0312 0C       		.uleb128 0xc
 849 0313 6C7200   		.ascii	"lr\000"
 850 0316 07       		.byte	0x7
 851 0317 2001     		.2byte	0x120
 852 0319 86020000 		.4byte	0x286
 853 031d 02       		.byte	0x2
 854 031e 23       		.byte	0x23
 855 031f 20       		.uleb128 0x20
 856 0320 00       		.byte	0
 857 0321 0B       		.uleb128 0xb
 858 0322 11050000 		.4byte	.LASF46
 859 0326 04       		.byte	0x4
 860 0327 07       		.byte	0x7
 861 0328 2A01     		.2byte	0x12a
 862 032a 3E030000 		.4byte	0x33e
 863 032e 0C       		.uleb128 0xc
 864 032f 72313300 		.ascii	"r13\000"
 865 0333 07       		.byte	0x7
 866 0334 2B01     		.2byte	0x12b
 867 0336 3E030000 		.4byte	0x33e
 868 033a 02       		.byte	0x2
 869 033b 23       		.byte	0x23
 870 033c 00       		.uleb128 0
 871 033d 00       		.byte	0
 872 033e 09       		.uleb128 0x9
 873 033f 04       		.byte	0x4
 874 0340 93020000 		.4byte	0x293
 875 0344 0D       		.uleb128 0xd
 876 0345 86000000 		.4byte	0x86
 877 0349 04       		.uleb128 0x4
 878 034a 04       		.byte	0x4
 879 034b 07       		.byte	0x7
 880 034c 93020000 		.4byte	.LASF47
 881 0350 0D       		.uleb128 0xd
 882 0351 F3000000 		.4byte	0xf3
 883 0355 05       		.uleb128 0x5
 884 0356 9C020000 		.4byte	.LASF48
 885 035a 10       		.byte	0x10
 886 035b 08       		.byte	0x8
 887 035c 25       		.byte	0x25
 888 035d 8C030000 		.4byte	0x38c
 889 0361 06       		.uleb128 0x6
 890 0362 CC000000 		.4byte	.LASF49
 891 0366 08       		.byte	0x8
 892 0367 26       		.byte	0x26
 893 0368 59020000 		.4byte	0x259
 894 036c 02       		.byte	0x2
 895 036d 23       		.byte	0x23
 896 036e 00       		.uleb128 0
 897 036f 06       		.uleb128 0x6
 898 0370 E9050000 		.4byte	.LASF50
 899 0374 08       		.byte	0x8
 900 0375 28       		.byte	0x28
 901 0376 53020000 		.4byte	0x253
 902 037a 02       		.byte	0x2
ARM GAS  C:\Users\DNIEL~1\AppData\Local\Temp\cc1Z7K1B.s 			page 17


 903 037b 23       		.byte	0x23
 904 037c 08       		.uleb128 0x8
 905 037d 06       		.uleb128 0x6
 906 037e D3040000 		.4byte	.LASF51
 907 0382 08       		.byte	0x8
 908 0383 2A       		.byte	0x2a
 909 0384 8C030000 		.4byte	0x38c
 910 0388 02       		.byte	0x2
 911 0389 23       		.byte	0x23
 912 038a 0C       		.uleb128 0xc
 913 038b 00       		.byte	0
 914 038c 09       		.uleb128 0x9
 915 038d 04       		.byte	0x4
 916 038e 55030000 		.4byte	0x355
 917 0392 03       		.uleb128 0x3
 918 0393 9C020000 		.4byte	.LASF48
 919 0397 08       		.byte	0x8
 920 0398 2C       		.byte	0x2c
 921 0399 55030000 		.4byte	0x355
 922 039d 0E       		.uleb128 0xe
 923 039e 04       		.byte	0x4
 924 039f 06       		.byte	0x6
 925 03a0 8F       		.byte	0x8f
 926 03a1 D2030000 		.4byte	0x3d2
 927 03a5 0F       		.uleb128 0xf
 928 03a6 3B000000 		.4byte	.LASF52
 929 03aa 06       		.byte	0x6
 930 03ab 96       		.byte	0x96
 931 03ac DD000000 		.4byte	0xdd
 932 03b0 0F       		.uleb128 0xf
 933 03b1 9C000000 		.4byte	.LASF53
 934 03b5 06       		.byte	0x6
 935 03b6 9D       		.byte	0x9d
 936 03b7 DD000000 		.4byte	0xdd
 937 03bb 0F       		.uleb128 0xf
 938 03bc A7050000 		.4byte	.LASF54
 939 03c0 06       		.byte	0x6
 940 03c1 A4       		.byte	0xa4
 941 03c2 91020000 		.4byte	0x291
 942 03c6 0F       		.uleb128 0xf
 943 03c7 28040000 		.4byte	.LASF55
 944 03cb 06       		.byte	0x6
 945 03cc AB       		.byte	0xab
 946 03cd E8000000 		.4byte	0xe8
 947 03d1 00       		.byte	0
 948 03d2 09       		.uleb128 0x9
 949 03d3 04       		.byte	0x4
 950 03d4 D8030000 		.4byte	0x3d8
 951 03d8 10       		.uleb128 0x10
 952 03d9 DD030000 		.4byte	0x3dd
 953 03dd 04       		.uleb128 0x4
 954 03de 01       		.byte	0x1
 955 03df 08       		.byte	0x8
 956 03e0 C7040000 		.4byte	.LASF56
 957 03e4 09       		.uleb128 0x9
 958 03e5 04       		.byte	0x4
 959 03e6 92030000 		.4byte	0x392
ARM GAS  C:\Users\DNIEL~1\AppData\Local\Temp\cc1Z7K1B.s 			page 18


 960 03ea 09       		.uleb128 0x9
 961 03eb 04       		.byte	0x4
 962 03ec 49000000 		.4byte	0x49
 963 03f0 09       		.uleb128 0x9
 964 03f1 04       		.byte	0x4
 965 03f2 F6030000 		.4byte	0x3f6
 966 03f6 10       		.uleb128 0x10
 967 03f7 49000000 		.4byte	0x49
 968 03fb 0D       		.uleb128 0xd
 969 03fc 62000000 		.4byte	0x62
 970 0400 0D       		.uleb128 0xd
 971 0401 74000000 		.4byte	0x74
 972 0405 11       		.uleb128 0x11
 973 0406 18       		.byte	0x18
 974 0407 09       		.byte	0x9
 975 0408 D301     		.2byte	0x1d3
 976 040a 68040000 		.4byte	0x468
 977 040e 0C       		.uleb128 0xc
 978 040f 435200   		.ascii	"CR\000"
 979 0412 09       		.byte	0x9
 980 0413 D501     		.2byte	0x1d5
 981 0415 44030000 		.4byte	0x344
 982 0419 02       		.byte	0x2
 983 041a 23       		.byte	0x23
 984 041b 00       		.uleb128 0
 985 041c 12       		.uleb128 0x12
 986 041d EF040000 		.4byte	.LASF57
 987 0421 09       		.byte	0x9
 988 0422 D601     		.2byte	0x1d6
 989 0424 44030000 		.4byte	0x344
 990 0428 02       		.byte	0x2
 991 0429 23       		.byte	0x23
 992 042a 04       		.uleb128 0x4
 993 042b 0C       		.uleb128 0xc
 994 042c 50415200 		.ascii	"PAR\000"
 995 0430 09       		.byte	0x9
 996 0431 D701     		.2byte	0x1d7
 997 0433 44030000 		.4byte	0x344
 998 0437 02       		.byte	0x2
 999 0438 23       		.byte	0x23
 1000 0439 08       		.uleb128 0x8
 1001 043a 12       		.uleb128 0x12
 1002 043b 2F000000 		.4byte	.LASF58
 1003 043f 09       		.byte	0x9
 1004 0440 D801     		.2byte	0x1d8
 1005 0442 44030000 		.4byte	0x344
 1006 0446 02       		.byte	0x2
 1007 0447 23       		.byte	0x23
 1008 0448 0C       		.uleb128 0xc
 1009 0449 12       		.uleb128 0x12
 1010 044a 20050000 		.4byte	.LASF59
 1011 044e 09       		.byte	0x9
 1012 044f D901     		.2byte	0x1d9
 1013 0451 44030000 		.4byte	0x344
 1014 0455 02       		.byte	0x2
 1015 0456 23       		.byte	0x23
 1016 0457 10       		.uleb128 0x10
ARM GAS  C:\Users\DNIEL~1\AppData\Local\Temp\cc1Z7K1B.s 			page 19


 1017 0458 0C       		.uleb128 0xc
 1018 0459 46435200 		.ascii	"FCR\000"
 1019 045d 09       		.byte	0x9
 1020 045e DA01     		.2byte	0x1da
 1021 0460 44030000 		.4byte	0x344
 1022 0464 02       		.byte	0x2
 1023 0465 23       		.byte	0x23
 1024 0466 14       		.uleb128 0x14
 1025 0467 00       		.byte	0
 1026 0468 13       		.uleb128 0x13
 1027 0469 FE040000 		.4byte	.LASF60
 1028 046d 09       		.byte	0x9
 1029 046e DB01     		.2byte	0x1db
 1030 0470 05040000 		.4byte	0x405
 1031 0474 11       		.uleb128 0x11
 1032 0475 24       		.byte	0x24
 1033 0476 09       		.byte	0x9
 1034 0477 AB02     		.2byte	0x2ab
 1035 0479 8B050000 		.4byte	0x58b
 1036 047d 0C       		.uleb128 0xc
 1037 047e 43523100 		.ascii	"CR1\000"
 1038 0482 09       		.byte	0x9
 1039 0483 AD02     		.2byte	0x2ad
 1040 0485 FB030000 		.4byte	0x3fb
 1041 0489 02       		.byte	0x2
 1042 048a 23       		.byte	0x23
 1043 048b 00       		.uleb128 0
 1044 048c 12       		.uleb128 0x12
 1045 048d 4D030000 		.4byte	.LASF61
 1046 0491 09       		.byte	0x9
 1047 0492 AE02     		.2byte	0x2ae
 1048 0494 62000000 		.4byte	0x62
 1049 0498 02       		.byte	0x2
 1050 0499 23       		.byte	0x23
 1051 049a 02       		.uleb128 0x2
 1052 049b 0C       		.uleb128 0xc
 1053 049c 43523200 		.ascii	"CR2\000"
 1054 04a0 09       		.byte	0x9
 1055 04a1 AF02     		.2byte	0x2af
 1056 04a3 FB030000 		.4byte	0x3fb
 1057 04a7 02       		.byte	0x2
 1058 04a8 23       		.byte	0x23
 1059 04a9 04       		.uleb128 0x4
 1060 04aa 12       		.uleb128 0x12
 1061 04ab 57030000 		.4byte	.LASF62
 1062 04af 09       		.byte	0x9
 1063 04b0 B002     		.2byte	0x2b0
 1064 04b2 62000000 		.4byte	0x62
 1065 04b6 02       		.byte	0x2
 1066 04b7 23       		.byte	0x23
 1067 04b8 06       		.uleb128 0x6
 1068 04b9 12       		.uleb128 0x12
 1069 04ba 7D050000 		.4byte	.LASF63
 1070 04be 09       		.byte	0x9
 1071 04bf B102     		.2byte	0x2b1
 1072 04c1 FB030000 		.4byte	0x3fb
 1073 04c5 02       		.byte	0x2
ARM GAS  C:\Users\DNIEL~1\AppData\Local\Temp\cc1Z7K1B.s 			page 20


 1074 04c6 23       		.byte	0x23
 1075 04c7 08       		.uleb128 0x8
 1076 04c8 12       		.uleb128 0x12
 1077 04c9 61030000 		.4byte	.LASF64
 1078 04cd 09       		.byte	0x9
 1079 04ce B202     		.2byte	0x2b2
 1080 04d0 62000000 		.4byte	0x62
 1081 04d4 02       		.byte	0x2
 1082 04d5 23       		.byte	0x23
 1083 04d6 0A       		.uleb128 0xa
 1084 04d7 12       		.uleb128 0x12
 1085 04d8 82050000 		.4byte	.LASF65
 1086 04dc 09       		.byte	0x9
 1087 04dd B302     		.2byte	0x2b3
 1088 04df FB030000 		.4byte	0x3fb
 1089 04e3 02       		.byte	0x2
 1090 04e4 23       		.byte	0x23
 1091 04e5 0C       		.uleb128 0xc
 1092 04e6 12       		.uleb128 0x12
 1093 04e7 6B030000 		.4byte	.LASF66
 1094 04eb 09       		.byte	0x9
 1095 04ec B402     		.2byte	0x2b4
 1096 04ee 62000000 		.4byte	0x62
 1097 04f2 02       		.byte	0x2
 1098 04f3 23       		.byte	0x23
 1099 04f4 0E       		.uleb128 0xe
 1100 04f5 0C       		.uleb128 0xc
 1101 04f6 445200   		.ascii	"DR\000"
 1102 04f9 09       		.byte	0x9
 1103 04fa B502     		.2byte	0x2b5
 1104 04fc FB030000 		.4byte	0x3fb
 1105 0500 02       		.byte	0x2
 1106 0501 23       		.byte	0x23
 1107 0502 10       		.uleb128 0x10
 1108 0503 12       		.uleb128 0x12
 1109 0504 75030000 		.4byte	.LASF67
 1110 0508 09       		.byte	0x9
 1111 0509 B602     		.2byte	0x2b6
 1112 050b 62000000 		.4byte	0x62
 1113 050f 02       		.byte	0x2
 1114 0510 23       		.byte	0x23
 1115 0511 12       		.uleb128 0x12
 1116 0512 0C       		.uleb128 0xc
 1117 0513 53523100 		.ascii	"SR1\000"
 1118 0517 09       		.byte	0x9
 1119 0518 B702     		.2byte	0x2b7
 1120 051a FB030000 		.4byte	0x3fb
 1121 051e 02       		.byte	0x2
 1122 051f 23       		.byte	0x23
 1123 0520 14       		.uleb128 0x14
 1124 0521 12       		.uleb128 0x12
 1125 0522 94040000 		.4byte	.LASF68
 1126 0526 09       		.byte	0x9
 1127 0527 B802     		.2byte	0x2b8
 1128 0529 62000000 		.4byte	0x62
 1129 052d 02       		.byte	0x2
 1130 052e 23       		.byte	0x23
ARM GAS  C:\Users\DNIEL~1\AppData\Local\Temp\cc1Z7K1B.s 			page 21


 1131 052f 16       		.uleb128 0x16
 1132 0530 0C       		.uleb128 0xc
 1133 0531 53523200 		.ascii	"SR2\000"
 1134 0535 09       		.byte	0x9
 1135 0536 B902     		.2byte	0x2b9
 1136 0538 FB030000 		.4byte	0x3fb
 1137 053c 02       		.byte	0x2
 1138 053d 23       		.byte	0x23
 1139 053e 18       		.uleb128 0x18
 1140 053f 12       		.uleb128 0x12
 1141 0540 86030000 		.4byte	.LASF69
 1142 0544 09       		.byte	0x9
 1143 0545 BA02     		.2byte	0x2ba
 1144 0547 62000000 		.4byte	0x62
 1145 054b 02       		.byte	0x2
 1146 054c 23       		.byte	0x23
 1147 054d 1A       		.uleb128 0x1a
 1148 054e 0C       		.uleb128 0xc
 1149 054f 43435200 		.ascii	"CCR\000"
 1150 0553 09       		.byte	0x9
 1151 0554 BB02     		.2byte	0x2bb
 1152 0556 FB030000 		.4byte	0x3fb
 1153 055a 02       		.byte	0x2
 1154 055b 23       		.byte	0x23
 1155 055c 1C       		.uleb128 0x1c
 1156 055d 12       		.uleb128 0x12
 1157 055e 90030000 		.4byte	.LASF70
 1158 0562 09       		.byte	0x9
 1159 0563 BC02     		.2byte	0x2bc
 1160 0565 62000000 		.4byte	0x62
 1161 0569 02       		.byte	0x2
 1162 056a 23       		.byte	0x23
 1163 056b 1E       		.uleb128 0x1e
 1164 056c 12       		.uleb128 0x12
 1165 056d 6A000000 		.4byte	.LASF71
 1166 0571 09       		.byte	0x9
 1167 0572 BD02     		.2byte	0x2bd
 1168 0574 FB030000 		.4byte	0x3fb
 1169 0578 02       		.byte	0x2
 1170 0579 23       		.byte	0x23
 1171 057a 20       		.uleb128 0x20
 1172 057b 12       		.uleb128 0x12
 1173 057c 9A030000 		.4byte	.LASF72
 1174 0580 09       		.byte	0x9
 1175 0581 BE02     		.2byte	0x2be
 1176 0583 62000000 		.4byte	0x62
 1177 0587 02       		.byte	0x2
 1178 0588 23       		.byte	0x23
 1179 0589 22       		.uleb128 0x22
 1180 058a 00       		.byte	0
 1181 058b 13       		.uleb128 0x13
 1182 058c C3050000 		.4byte	.LASF73
 1183 0590 09       		.byte	0x9
 1184 0591 BF02     		.2byte	0x2bf
 1185 0593 74040000 		.4byte	0x474
 1186 0597 08       		.uleb128 0x8
 1187 0598 0C       		.byte	0xc
ARM GAS  C:\Users\DNIEL~1\AppData\Local\Temp\cc1Z7K1B.s 			page 22


 1188 0599 0A       		.byte	0xa
 1189 059a DE       		.byte	0xde
 1190 059b E6050000 		.4byte	0x5e6
 1191 059f 06       		.uleb128 0x6
 1192 05a0 70000000 		.4byte	.LASF74
 1193 05a4 0A       		.byte	0xa
 1194 05a5 DF       		.byte	0xdf
 1195 05a6 E6050000 		.4byte	0x5e6
 1196 05aa 02       		.byte	0x2
 1197 05ab 23       		.byte	0x23
 1198 05ac 00       		.uleb128 0
 1199 05ad 06       		.uleb128 0x6
 1200 05ae 8F040000 		.4byte	.LASF75
 1201 05b2 0A       		.byte	0xa
 1202 05b3 E0       		.byte	0xe0
 1203 05b4 EC050000 		.4byte	0x5ec
 1204 05b8 02       		.byte	0x2
 1205 05b9 23       		.byte	0x23
 1206 05ba 04       		.uleb128 0x4
 1207 05bb 06       		.uleb128 0x6
 1208 05bc 07020000 		.4byte	.LASF76
 1209 05c0 0A       		.byte	0xa
 1210 05c1 E1       		.byte	0xe1
 1211 05c2 49000000 		.4byte	0x49
 1212 05c6 02       		.byte	0x2
 1213 05c7 23       		.byte	0x23
 1214 05c8 08       		.uleb128 0x8
 1215 05c9 06       		.uleb128 0x6
 1216 05ca C8010000 		.4byte	.LASF77
 1217 05ce 0A       		.byte	0xa
 1218 05cf E3       		.byte	0xe3
 1219 05d0 49000000 		.4byte	0x49
 1220 05d4 02       		.byte	0x2
 1221 05d5 23       		.byte	0x23
 1222 05d6 09       		.uleb128 0x9
 1223 05d7 06       		.uleb128 0x6
 1224 05d8 A5000000 		.4byte	.LASF78
 1225 05dc 0A       		.byte	0xa
 1226 05dd E4       		.byte	0xe4
 1227 05de 49000000 		.4byte	0x49
 1228 05e2 02       		.byte	0x2
 1229 05e3 23       		.byte	0x23
 1230 05e4 0A       		.uleb128 0xa
 1231 05e5 00       		.byte	0
 1232 05e6 09       		.uleb128 0x9
 1233 05e7 04       		.byte	0x4
 1234 05e8 68040000 		.4byte	0x468
 1235 05ec 09       		.uleb128 0x9
 1236 05ed 04       		.byte	0x4
 1237 05ee 44030000 		.4byte	0x344
 1238 05f2 03       		.uleb128 0x3
 1239 05f3 E1030000 		.4byte	.LASF79
 1240 05f7 0A       		.byte	0xa
 1241 05f8 E5       		.byte	0xe5
 1242 05f9 97050000 		.4byte	0x597
 1243 05fd 09       		.uleb128 0x9
 1244 05fe 04       		.byte	0x4
ARM GAS  C:\Users\DNIEL~1\AppData\Local\Temp\cc1Z7K1B.s 			page 23


 1245 05ff 03060000 		.4byte	0x603
 1246 0603 10       		.uleb128 0x10
 1247 0604 F2050000 		.4byte	0x5f2
 1248 0608 14       		.uleb128 0x14
 1249 0609 01       		.byte	0x1
 1250 060a 0B       		.byte	0xb
 1251 060b 54       		.byte	0x54
 1252 060c 35060000 		.4byte	0x635
 1253 0610 15       		.uleb128 0x15
 1254 0611 FE030000 		.4byte	.LASF80
 1255 0615 00       		.sleb128 0
 1256 0616 15       		.uleb128 0x15
 1257 0617 42000000 		.4byte	.LASF81
 1258 061b 01       		.sleb128 1
 1259 061c 15       		.uleb128 0x15
 1260 061d F4040000 		.4byte	.LASF82
 1261 0621 02       		.sleb128 2
 1262 0622 15       		.uleb128 0x15
 1263 0623 AC030000 		.4byte	.LASF83
 1264 0627 03       		.sleb128 3
 1265 0628 15       		.uleb128 0x15
 1266 0629 A7040000 		.4byte	.LASF84
 1267 062d 04       		.sleb128 4
 1268 062e 15       		.uleb128 0x15
 1269 062f 79040000 		.4byte	.LASF85
 1270 0633 05       		.sleb128 5
 1271 0634 00       		.byte	0
 1272 0635 03       		.uleb128 0x3
 1273 0636 24000000 		.4byte	.LASF86
 1274 063a 0B       		.byte	0xb
 1275 063b 5B       		.byte	0x5b
 1276 063c 08060000 		.4byte	0x608
 1277 0640 13       		.uleb128 0x13
 1278 0641 50010000 		.4byte	.LASF87
 1279 0645 0C       		.byte	0xc
 1280 0646 3901     		.2byte	0x139
 1281 0648 62000000 		.4byte	0x62
 1282 064c 13       		.uleb128 0x13
 1283 064d BA030000 		.4byte	.LASF88
 1284 0651 0C       		.byte	0xc
 1285 0652 3E01     		.2byte	0x13e
 1286 0654 86000000 		.4byte	0x86
 1287 0658 16       		.uleb128 0x16
 1288 0659 01       		.byte	0x1
 1289 065a 0C       		.byte	0xc
 1290 065b 4301     		.2byte	0x143
 1291 065d 74060000 		.4byte	0x674
 1292 0661 15       		.uleb128 0x15
 1293 0662 25030000 		.4byte	.LASF89
 1294 0666 01       		.sleb128 1
 1295 0667 15       		.uleb128 0x15
 1296 0668 0E020000 		.4byte	.LASF90
 1297 066c 02       		.sleb128 2
 1298 066d 15       		.uleb128 0x15
 1299 066e AD010000 		.4byte	.LASF91
 1300 0672 03       		.sleb128 3
 1301 0673 00       		.byte	0
ARM GAS  C:\Users\DNIEL~1\AppData\Local\Temp\cc1Z7K1B.s 			page 24


 1302 0674 13       		.uleb128 0x13
 1303 0675 CF050000 		.4byte	.LASF92
 1304 0679 0C       		.byte	0xc
 1305 067a 4701     		.2byte	0x147
 1306 067c 58060000 		.4byte	0x658
 1307 0680 16       		.uleb128 0x16
 1308 0681 01       		.byte	0x1
 1309 0682 0C       		.byte	0xc
 1310 0683 4C01     		.2byte	0x14c
 1311 0685 9C060000 		.4byte	0x69c
 1312 0689 15       		.uleb128 0x15
 1313 068a 00000000 		.4byte	.LASF93
 1314 068e 01       		.sleb128 1
 1315 068f 15       		.uleb128 0x15
 1316 0690 60040000 		.4byte	.LASF94
 1317 0694 02       		.sleb128 2
 1318 0695 15       		.uleb128 0x15
 1319 0696 30030000 		.4byte	.LASF95
 1320 069a 03       		.sleb128 3
 1321 069b 00       		.byte	0
 1322 069c 13       		.uleb128 0x13
 1323 069d 15000000 		.4byte	.LASF96
 1324 06a1 0C       		.byte	0xc
 1325 06a2 5001     		.2byte	0x150
 1326 06a4 80060000 		.4byte	0x680
 1327 06a8 11       		.uleb128 0x11
 1328 06a9 0C       		.byte	0xc
 1329 06aa 0C       		.byte	0xc
 1330 06ab 5501     		.2byte	0x155
 1331 06ad DF060000 		.4byte	0x6df
 1332 06b1 12       		.uleb128 0x12
 1333 06b2 D2010000 		.4byte	.LASF97
 1334 06b6 0C       		.byte	0xc
 1335 06b7 5601     		.2byte	0x156
 1336 06b9 74060000 		.4byte	0x674
 1337 06bd 02       		.byte	0x2
 1338 06be 23       		.byte	0x23
 1339 06bf 00       		.uleb128 0
 1340 06c0 12       		.uleb128 0x12
 1341 06c1 0C010000 		.4byte	.LASF98
 1342 06c5 0C       		.byte	0xc
 1343 06c6 5701     		.2byte	0x157
 1344 06c8 86000000 		.4byte	0x86
 1345 06cc 02       		.byte	0x2
 1346 06cd 23       		.byte	0x23
 1347 06ce 04       		.uleb128 0x4
 1348 06cf 12       		.uleb128 0x12
 1349 06d0 A2020000 		.4byte	.LASF99
 1350 06d4 0C       		.byte	0xc
 1351 06d5 5A01     		.2byte	0x15a
 1352 06d7 9C060000 		.4byte	0x69c
 1353 06db 02       		.byte	0x2
 1354 06dc 23       		.byte	0x23
 1355 06dd 08       		.uleb128 0x8
 1356 06de 00       		.byte	0
 1357 06df 13       		.uleb128 0x13
 1358 06e0 8E010000 		.4byte	.LASF100
ARM GAS  C:\Users\DNIEL~1\AppData\Local\Temp\cc1Z7K1B.s 			page 25


 1359 06e4 0C       		.byte	0xc
 1360 06e5 5C01     		.2byte	0x15c
 1361 06e7 A8060000 		.4byte	0x6a8
 1362 06eb 13       		.uleb128 0x13
 1363 06ec 35020000 		.4byte	.LASF101
 1364 06f0 0C       		.byte	0xc
 1365 06f1 6101     		.2byte	0x161
 1366 06f3 F7060000 		.4byte	0x6f7
 1367 06f7 0B       		.uleb128 0xb
 1368 06f8 35020000 		.4byte	.LASF101
 1369 06fc 34       		.byte	0x34
 1370 06fd 0C       		.byte	0xc
 1371 06fe 6601     		.2byte	0x166
 1372 0700 9B070000 		.4byte	0x79b
 1373 0704 12       		.uleb128 0x12
 1374 0705 5A010000 		.4byte	.LASF102
 1375 0709 0C       		.byte	0xc
 1376 070a 6A01     		.2byte	0x16a
 1377 070c 35060000 		.4byte	0x635
 1378 0710 02       		.byte	0x2
 1379 0711 23       		.byte	0x23
 1380 0712 00       		.uleb128 0
 1381 0713 12       		.uleb128 0x12
 1382 0714 CC040000 		.4byte	.LASF103
 1383 0718 0C       		.byte	0xc
 1384 0719 6E01     		.2byte	0x16e
 1385 071b 9B070000 		.4byte	0x79b
 1386 071f 02       		.byte	0x2
 1387 0720 23       		.byte	0x23
 1388 0721 04       		.uleb128 0x4
 1389 0722 12       		.uleb128 0x12
 1390 0723 ED010000 		.4byte	.LASF104
 1391 0727 0C       		.byte	0xc
 1392 0728 7201     		.2byte	0x172
 1393 072a 4C060000 		.4byte	0x64c
 1394 072e 02       		.byte	0x2
 1395 072f 23       		.byte	0x23
 1396 0730 08       		.uleb128 0x8
 1397 0731 12       		.uleb128 0x12
 1398 0732 C5030000 		.4byte	.LASF105
 1399 0736 0C       		.byte	0xc
 1400 0737 7801     		.2byte	0x178
 1401 0739 92030000 		.4byte	0x392
 1402 073d 02       		.byte	0x2
 1403 073e 23       		.byte	0x23
 1404 073f 0C       		.uleb128 0xc
 1405 0740 12       		.uleb128 0x12
 1406 0741 72010000 		.4byte	.LASF106
 1407 0745 0C       		.byte	0xc
 1408 0746 8401     		.2byte	0x184
 1409 0748 53020000 		.4byte	0x253
 1410 074c 02       		.byte	0x2
 1411 074d 23       		.byte	0x23
 1412 074e 1C       		.uleb128 0x1c
 1413 074f 12       		.uleb128 0x12
 1414 0750 8E000000 		.4byte	.LASF107
 1415 0754 0C       		.byte	0xc
ARM GAS  C:\Users\DNIEL~1\AppData\Local\Temp\cc1Z7K1B.s 			page 26


 1416 0755 8801     		.2byte	0x188
 1417 0757 40060000 		.4byte	0x640
 1418 075b 02       		.byte	0x2
 1419 075c 23       		.byte	0x23
 1420 075d 20       		.uleb128 0x20
 1421 075e 12       		.uleb128 0x12
 1422 075f 9F050000 		.4byte	.LASF108
 1423 0763 0C       		.byte	0xc
 1424 0764 8C01     		.2byte	0x18c
 1425 0766 86000000 		.4byte	0x86
 1426 076a 02       		.byte	0x2
 1427 076b 23       		.byte	0x23
 1428 076c 24       		.uleb128 0x24
 1429 076d 12       		.uleb128 0x12
 1430 076e 0F000000 		.4byte	.LASF109
 1431 0772 0C       		.byte	0xc
 1432 0773 9001     		.2byte	0x190
 1433 0775 FD050000 		.4byte	0x5fd
 1434 0779 02       		.byte	0x2
 1435 077a 23       		.byte	0x23
 1436 077b 28       		.uleb128 0x28
 1437 077c 12       		.uleb128 0x12
 1438 077d A7010000 		.4byte	.LASF110
 1439 0781 0C       		.byte	0xc
 1440 0782 9401     		.2byte	0x194
 1441 0784 FD050000 		.4byte	0x5fd
 1442 0788 02       		.byte	0x2
 1443 0789 23       		.byte	0x23
 1444 078a 2C       		.uleb128 0x2c
 1445 078b 0C       		.uleb128 0xc
 1446 078c 69326300 		.ascii	"i2c\000"
 1447 0790 0C       		.byte	0xc
 1448 0791 9801     		.2byte	0x198
 1449 0793 A6070000 		.4byte	0x7a6
 1450 0797 02       		.byte	0x2
 1451 0798 23       		.byte	0x23
 1452 0799 30       		.uleb128 0x30
 1453 079a 00       		.byte	0
 1454 079b 09       		.uleb128 0x9
 1455 079c 04       		.byte	0x4
 1456 079d A1070000 		.4byte	0x7a1
 1457 07a1 10       		.uleb128 0x10
 1458 07a2 DF060000 		.4byte	0x6df
 1459 07a6 09       		.uleb128 0x9
 1460 07a7 04       		.byte	0x4
 1461 07a8 8B050000 		.4byte	0x58b
 1462 07ac 17       		.uleb128 0x17
 1463 07ad 01       		.byte	0x1
 1464 07ae B5050000 		.4byte	.LASF111
 1465 07b2 01       		.byte	0x1
 1466 07b3 40       		.byte	0x40
 1467 07b4 01       		.byte	0x1
 1468 07b5 00000000 		.4byte	.LFB118
 1469 07b9 04000000 		.4byte	.LFE118
 1470 07bd 02       		.byte	0x2
 1471 07be 7D       		.byte	0x7d
 1472 07bf 00       		.sleb128 0
ARM GAS  C:\Users\DNIEL~1\AppData\Local\Temp\cc1Z7K1B.s 			page 27


 1473 07c0 01       		.byte	0x1
 1474 07c1 D0070000 		.4byte	0x7d0
 1475 07c5 18       		.uleb128 0x18
 1476 07c6 04000000 		.4byte	.LVL0
 1477 07ca 01       		.byte	0x1
 1478 07cb 850B0000 		.4byte	0xb85
 1479 07cf 00       		.byte	0
 1480 07d0 17       		.uleb128 0x17
 1481 07d1 01       		.byte	0x1
 1482 07d2 DB050000 		.4byte	.LASF112
 1483 07d6 01       		.byte	0x1
 1484 07d7 4B       		.byte	0x4b
 1485 07d8 01       		.byte	0x1
 1486 07d9 00000000 		.4byte	.LFB119
 1487 07dd 0E000000 		.4byte	.LFE119
 1488 07e1 02       		.byte	0x2
 1489 07e2 7D       		.byte	0x7d
 1490 07e3 00       		.sleb128 0
 1491 07e4 01       		.byte	0x1
 1492 07e5 0D080000 		.4byte	0x80d
 1493 07e9 19       		.uleb128 0x19
 1494 07ea C7000000 		.4byte	.LASF114
 1495 07ee 01       		.byte	0x1
 1496 07ef 4B       		.byte	0x4b
 1497 07f0 0D080000 		.4byte	0x80d
 1498 07f4 00000000 		.4byte	.LLST0
 1499 07f8 1A       		.uleb128 0x1a
 1500 07f9 0E000000 		.4byte	.LVL3
 1501 07fd 01       		.byte	0x1
 1502 07fe 900B0000 		.4byte	0xb90
 1503 0802 1B       		.uleb128 0x1b
 1504 0803 01       		.byte	0x1
 1505 0804 50       		.byte	0x50
 1506 0805 05       		.byte	0x5
 1507 0806 F3       		.byte	0xf3
 1508 0807 01       		.uleb128 0x1
 1509 0808 50       		.byte	0x50
 1510 0809 23       		.byte	0x23
 1511 080a 0C       		.uleb128 0xc
 1512 080b 00       		.byte	0
 1513 080c 00       		.byte	0
 1514 080d 09       		.uleb128 0x9
 1515 080e 04       		.byte	0x4
 1516 080f EB060000 		.4byte	0x6eb
 1517 0813 1C       		.uleb128 0x1c
 1518 0814 01       		.byte	0x1
 1519 0815 93000000 		.4byte	.LASF113
 1520 0819 01       		.byte	0x1
 1521 081a 65       		.byte	0x65
 1522 081b 01       		.byte	0x1
 1523 081c 00000000 		.4byte	.LFB120
 1524 0820 1C000000 		.4byte	.LFE120
 1525 0824 2E000000 		.4byte	.LLST1
 1526 0828 01       		.byte	0x1
 1527 0829 92080000 		.4byte	0x892
 1528 082d 19       		.uleb128 0x19
 1529 082e C7000000 		.4byte	.LASF114
ARM GAS  C:\Users\DNIEL~1\AppData\Local\Temp\cc1Z7K1B.s 			page 28


 1530 0832 01       		.byte	0x1
 1531 0833 65       		.byte	0x65
 1532 0834 0D080000 		.4byte	0x80d
 1533 0838 4E000000 		.4byte	.LLST2
 1534 083c 19       		.uleb128 0x19
 1535 083d CC040000 		.4byte	.LASF103
 1536 0841 01       		.byte	0x1
 1537 0842 65       		.byte	0x65
 1538 0843 9B070000 		.4byte	0x79b
 1539 0847 6C000000 		.4byte	.LLST3
 1540 084b 1D       		.uleb128 0x1d
 1541 084c 00000000 		.4byte	.Ldebug_ranges0+0
 1542 0850 64080000 		.4byte	0x864
 1543 0854 1E       		.uleb128 0x1e
 1544 0855 746D7000 		.ascii	"tmp\000"
 1545 0859 01       		.byte	0x1
 1546 085a 6D       		.byte	0x6d
 1547 085b 86000000 		.4byte	0x86
 1548 085f 8D000000 		.4byte	.LLST4
 1549 0863 00       		.byte	0
 1550 0864 1F       		.uleb128 0x1f
 1551 0865 14000000 		.4byte	.LBB4
 1552 0869 1C000000 		.4byte	.LBE4
 1553 086d 81080000 		.4byte	0x881
 1554 0871 1E       		.uleb128 0x1e
 1555 0872 746D7000 		.ascii	"tmp\000"
 1556 0876 01       		.byte	0x1
 1557 0877 71       		.byte	0x71
 1558 0878 86000000 		.4byte	0x86
 1559 087c A0000000 		.4byte	.LLST5
 1560 0880 00       		.byte	0
 1561 0881 20       		.uleb128 0x20
 1562 0882 10000000 		.4byte	.LVL7
 1563 0886 A40B0000 		.4byte	0xba4
 1564 088a 1B       		.uleb128 0x1b
 1565 088b 01       		.byte	0x1
 1566 088c 50       		.byte	0x50
 1567 088d 02       		.byte	0x2
 1568 088e 74       		.byte	0x74
 1569 088f 00       		.sleb128 0
 1570 0890 00       		.byte	0
 1571 0891 00       		.byte	0
 1572 0892 1C       		.uleb128 0x1c
 1573 0893 01       		.byte	0x1
 1574 0894 10030000 		.4byte	.LASF115
 1575 0898 01       		.byte	0x1
 1576 0899 7B       		.byte	0x7b
 1577 089a 01       		.byte	0x1
 1578 089b 00000000 		.4byte	.LFB121
 1579 089f 1A000000 		.4byte	.LFE121
 1580 08a3 B3000000 		.4byte	.LLST6
 1581 08a7 01       		.byte	0x1
 1582 08a8 02090000 		.4byte	0x902
 1583 08ac 19       		.uleb128 0x19
 1584 08ad C7000000 		.4byte	.LASF114
 1585 08b1 01       		.byte	0x1
 1586 08b2 7B       		.byte	0x7b
ARM GAS  C:\Users\DNIEL~1\AppData\Local\Temp\cc1Z7K1B.s 			page 29


 1587 08b3 0D080000 		.4byte	0x80d
 1588 08b7 D3000000 		.4byte	.LLST7
 1589 08bb 1D       		.uleb128 0x1d
 1590 08bc 18000000 		.4byte	.Ldebug_ranges0+0x18
 1591 08c0 D4080000 		.4byte	0x8d4
 1592 08c4 1E       		.uleb128 0x1e
 1593 08c5 746D7000 		.ascii	"tmp\000"
 1594 08c9 01       		.byte	0x1
 1595 08ca 83       		.byte	0x83
 1596 08cb 86000000 		.4byte	0x86
 1597 08cf F1000000 		.4byte	.LLST8
 1598 08d3 00       		.byte	0
 1599 08d4 1F       		.uleb128 0x1f
 1600 08d5 12000000 		.4byte	.LBB7
 1601 08d9 1A000000 		.4byte	.LBE7
 1602 08dd F1080000 		.4byte	0x8f1
 1603 08e1 1E       		.uleb128 0x1e
 1604 08e2 746D7000 		.ascii	"tmp\000"
 1605 08e6 01       		.byte	0x1
 1606 08e7 86       		.byte	0x86
 1607 08e8 86000000 		.4byte	0x86
 1608 08ec 04010000 		.4byte	.LLST9
 1609 08f0 00       		.byte	0
 1610 08f1 20       		.uleb128 0x20
 1611 08f2 0E000000 		.4byte	.LVL13
 1612 08f6 B90B0000 		.4byte	0xbb9
 1613 08fa 1B       		.uleb128 0x1b
 1614 08fb 01       		.byte	0x1
 1615 08fc 50       		.byte	0x50
 1616 08fd 02       		.byte	0x2
 1617 08fe 74       		.byte	0x74
 1618 08ff 00       		.sleb128 0
 1619 0900 00       		.byte	0
 1620 0901 00       		.byte	0
 1621 0902 21       		.uleb128 0x21
 1622 0903 01       		.byte	0x1
 1623 0904 1B040000 		.4byte	.LASF116
 1624 0908 01       		.byte	0x1
 1625 0909 91       		.byte	0x91
 1626 090a 01       		.byte	0x1
 1627 090b 4C060000 		.4byte	0x64c
 1628 090f 00000000 		.4byte	.LFB122
 1629 0913 04000000 		.4byte	.LFE122
 1630 0917 02       		.byte	0x2
 1631 0918 7D       		.byte	0x7d
 1632 0919 00       		.sleb128 0
 1633 091a 01       		.byte	0x1
 1634 091b 2F090000 		.4byte	0x92f
 1635 091f 19       		.uleb128 0x19
 1636 0920 C7000000 		.4byte	.LASF114
 1637 0924 01       		.byte	0x1
 1638 0925 91       		.byte	0x91
 1639 0926 0D080000 		.4byte	0x80d
 1640 092a 17010000 		.4byte	.LLST10
 1641 092e 00       		.byte	0
 1642 092f 22       		.uleb128 0x22
 1643 0930 01       		.byte	0x1
ARM GAS  C:\Users\DNIEL~1\AppData\Local\Temp\cc1Z7K1B.s 			page 30


 1644 0931 DB000000 		.4byte	.LASF117
 1645 0935 01       		.byte	0x1
 1646 0936 B2       		.byte	0xb2
 1647 0937 01       		.byte	0x1
 1648 0938 DD000000 		.4byte	0xdd
 1649 093c 00000000 		.4byte	.LFB123
 1650 0940 40000000 		.4byte	.LFE123
 1651 0944 38010000 		.4byte	.LLST11
 1652 0948 01       		.byte	0x1
 1653 0949 2F0A0000 		.4byte	0xa2f
 1654 094d 19       		.uleb128 0x19
 1655 094e C7000000 		.4byte	.LASF114
 1656 0952 01       		.byte	0x1
 1657 0953 B2       		.byte	0xb2
 1658 0954 0D080000 		.4byte	0x80d
 1659 0958 64010000 		.4byte	.LLST12
 1660 095c 19       		.uleb128 0x19
 1661 095d 8E000000 		.4byte	.LASF107
 1662 0961 01       		.byte	0x1
 1663 0962 B3       		.byte	0xb3
 1664 0963 40060000 		.4byte	0x640
 1665 0967 82010000 		.4byte	.LLST13
 1666 096b 19       		.uleb128 0x19
 1667 096c E7010000 		.4byte	.LASF118
 1668 0970 01       		.byte	0x1
 1669 0971 B4       		.byte	0xb4
 1670 0972 F0030000 		.4byte	0x3f0
 1671 0976 A3010000 		.4byte	.LLST14
 1672 097a 19       		.uleb128 0x19
 1673 097b 01060000 		.4byte	.LASF119
 1674 097f 01       		.byte	0x1
 1675 0980 B5       		.byte	0xb5
 1676 0981 30000000 		.4byte	0x30
 1677 0985 C4010000 		.4byte	.LLST15
 1678 0989 23       		.uleb128 0x23
 1679 098a 20010000 		.4byte	.LASF120
 1680 098e 01       		.byte	0x1
 1681 098f B6       		.byte	0xb6
 1682 0990 EA030000 		.4byte	0x3ea
 1683 0994 02       		.byte	0x2
 1684 0995 91       		.byte	0x91
 1685 0996 00       		.sleb128 0
 1686 0997 23       		.uleb128 0x23
 1687 0998 08030000 		.4byte	.LASF121
 1688 099c 01       		.byte	0x1
 1689 099d B7       		.byte	0xb7
 1690 099e 30000000 		.4byte	0x30
 1691 09a2 02       		.byte	0x2
 1692 09a3 91       		.byte	0x91
 1693 09a4 04       		.sleb128 4
 1694 09a5 23       		.uleb128 0x23
 1695 09a6 FF010000 		.4byte	.LASF122
 1696 09aa 01       		.byte	0x1
 1697 09ab B8       		.byte	0xb8
 1698 09ac F3000000 		.4byte	0xf3
 1699 09b0 02       		.byte	0x2
 1700 09b1 91       		.byte	0x91
ARM GAS  C:\Users\DNIEL~1\AppData\Local\Temp\cc1Z7K1B.s 			page 31


 1701 09b2 08       		.sleb128 8
 1702 09b3 24       		.uleb128 0x24
 1703 09b4 3B000000 		.4byte	.LASF52
 1704 09b8 01       		.byte	0x1
 1705 09b9 B9       		.byte	0xb9
 1706 09ba DD000000 		.4byte	0xdd
 1707 09be 01       		.byte	0x1
 1708 09bf 50       		.byte	0x50
 1709 09c0 1F       		.uleb128 0x1f
 1710 09c1 08000000 		.4byte	.LBB8
 1711 09c5 0E000000 		.4byte	.LBE8
 1712 09c9 DD090000 		.4byte	0x9dd
 1713 09cd 1E       		.uleb128 0x1e
 1714 09ce 746D7000 		.ascii	"tmp\000"
 1715 09d2 01       		.byte	0x1
 1716 09d3 C4       		.byte	0xc4
 1717 09d4 86000000 		.4byte	0x86
 1718 09d8 E2010000 		.4byte	.LLST16
 1719 09dc 00       		.byte	0
 1720 09dd 1F       		.uleb128 0x1f
 1721 09de 30000000 		.4byte	.LBB9
 1722 09e2 36000000 		.4byte	.LBE9
 1723 09e6 FA090000 		.4byte	0x9fa
 1724 09ea 1E       		.uleb128 0x1e
 1725 09eb 746D7000 		.ascii	"tmp\000"
 1726 09ef 01       		.byte	0x1
 1727 09f0 CD       		.byte	0xcd
 1728 09f1 86000000 		.4byte	0x86
 1729 09f5 F5010000 		.4byte	.LLST17
 1730 09f9 00       		.byte	0
 1731 09fa 20       		.uleb128 0x20
 1732 09fb 28000000 		.4byte	.LVL22
 1733 09ff CE0B0000 		.4byte	0xbce
 1734 0a03 1B       		.uleb128 0x1b
 1735 0a04 01       		.byte	0x1
 1736 0a05 53       		.byte	0x53
 1737 0a06 02       		.byte	0x2
 1738 0a07 76       		.byte	0x76
 1739 0a08 00       		.sleb128 0
 1740 0a09 1B       		.uleb128 0x1b
 1741 0a0a 01       		.byte	0x1
 1742 0a0b 52       		.byte	0x52
 1743 0a0c 03       		.byte	0x3
 1744 0a0d F3       		.byte	0xf3
 1745 0a0e 01       		.uleb128 0x1
 1746 0a0f 52       		.byte	0x52
 1747 0a10 1B       		.uleb128 0x1b
 1748 0a11 01       		.byte	0x1
 1749 0a12 50       		.byte	0x50
 1750 0a13 02       		.byte	0x2
 1751 0a14 74       		.byte	0x74
 1752 0a15 00       		.sleb128 0
 1753 0a16 1B       		.uleb128 0x1b
 1754 0a17 02       		.byte	0x2
 1755 0a18 7D       		.byte	0x7d
 1756 0a19 08       		.sleb128 8
 1757 0a1a 02       		.byte	0x2
ARM GAS  C:\Users\DNIEL~1\AppData\Local\Temp\cc1Z7K1B.s 			page 32


 1758 0a1b 75       		.byte	0x75
 1759 0a1c 00       		.sleb128 0
 1760 0a1d 1B       		.uleb128 0x1b
 1761 0a1e 02       		.byte	0x2
 1762 0a1f 7D       		.byte	0x7d
 1763 0a20 04       		.sleb128 4
 1764 0a21 03       		.byte	0x3
 1765 0a22 91       		.byte	0x91
 1766 0a23 04       		.sleb128 4
 1767 0a24 06       		.byte	0x6
 1768 0a25 1B       		.uleb128 0x1b
 1769 0a26 02       		.byte	0x2
 1770 0a27 7D       		.byte	0x7d
 1771 0a28 00       		.sleb128 0
 1772 0a29 03       		.byte	0x3
 1773 0a2a 91       		.byte	0x91
 1774 0a2b 00       		.sleb128 0
 1775 0a2c 06       		.byte	0x6
 1776 0a2d 00       		.byte	0
 1777 0a2e 00       		.byte	0
 1778 0a2f 22       		.uleb128 0x22
 1779 0a30 01       		.byte	0x1
 1780 0a31 87050000 		.4byte	.LASF123
 1781 0a35 01       		.byte	0x1
 1782 0a36 E5       		.byte	0xe5
 1783 0a37 01       		.byte	0x1
 1784 0a38 DD000000 		.4byte	0xdd
 1785 0a3c 00000000 		.4byte	.LFB124
 1786 0a40 38000000 		.4byte	.LFE124
 1787 0a44 08020000 		.4byte	.LLST18
 1788 0a48 01       		.byte	0x1
 1789 0a49 030B0000 		.4byte	0xb03
 1790 0a4d 19       		.uleb128 0x19
 1791 0a4e C7000000 		.4byte	.LASF114
 1792 0a52 01       		.byte	0x1
 1793 0a53 E5       		.byte	0xe5
 1794 0a54 0D080000 		.4byte	0x80d
 1795 0a58 34020000 		.4byte	.LLST19
 1796 0a5c 19       		.uleb128 0x19
 1797 0a5d 8E000000 		.4byte	.LASF107
 1798 0a61 01       		.byte	0x1
 1799 0a62 E6       		.byte	0xe6
 1800 0a63 40060000 		.4byte	0x640
 1801 0a67 52020000 		.4byte	.LLST20
 1802 0a6b 19       		.uleb128 0x19
 1803 0a6c 20010000 		.4byte	.LASF120
 1804 0a70 01       		.byte	0x1
 1805 0a71 E7       		.byte	0xe7
 1806 0a72 EA030000 		.4byte	0x3ea
 1807 0a76 73020000 		.4byte	.LLST21
 1808 0a7a 19       		.uleb128 0x19
 1809 0a7b 08030000 		.4byte	.LASF121
 1810 0a7f 01       		.byte	0x1
 1811 0a80 E8       		.byte	0xe8
 1812 0a81 30000000 		.4byte	0x30
 1813 0a85 94020000 		.4byte	.LLST22
 1814 0a89 23       		.uleb128 0x23
ARM GAS  C:\Users\DNIEL~1\AppData\Local\Temp\cc1Z7K1B.s 			page 33


 1815 0a8a FF010000 		.4byte	.LASF122
 1816 0a8e 01       		.byte	0x1
 1817 0a8f E9       		.byte	0xe9
 1818 0a90 F3000000 		.4byte	0xf3
 1819 0a94 02       		.byte	0x2
 1820 0a95 91       		.byte	0x91
 1821 0a96 00       		.sleb128 0
 1822 0a97 24       		.uleb128 0x24
 1823 0a98 3B000000 		.4byte	.LASF52
 1824 0a9c 01       		.byte	0x1
 1825 0a9d EB       		.byte	0xeb
 1826 0a9e DD000000 		.4byte	0xdd
 1827 0aa2 01       		.byte	0x1
 1828 0aa3 50       		.byte	0x50
 1829 0aa4 1F       		.uleb128 0x1f
 1830 0aa5 08000000 		.4byte	.LBB10
 1831 0aa9 0E000000 		.4byte	.LBE10
 1832 0aad C10A0000 		.4byte	0xac1
 1833 0ab1 1E       		.uleb128 0x1e
 1834 0ab2 746D7000 		.ascii	"tmp\000"
 1835 0ab6 01       		.byte	0x1
 1836 0ab7 F5       		.byte	0xf5
 1837 0ab8 86000000 		.4byte	0x86
 1838 0abc B2020000 		.4byte	.LLST23
 1839 0ac0 00       		.byte	0
 1840 0ac1 1F       		.uleb128 0x1f
 1841 0ac2 28000000 		.4byte	.LBB11
 1842 0ac6 2E000000 		.4byte	.LBE11
 1843 0aca DE0A0000 		.4byte	0xade
 1844 0ace 1E       		.uleb128 0x1e
 1845 0acf 746D7000 		.ascii	"tmp\000"
 1846 0ad3 01       		.byte	0x1
 1847 0ad4 FD       		.byte	0xfd
 1848 0ad5 86000000 		.4byte	0x86
 1849 0ad9 C5020000 		.4byte	.LLST24
 1850 0add 00       		.byte	0
 1851 0ade 20       		.uleb128 0x20
 1852 0adf 20000000 		.4byte	.LVL30
 1853 0ae3 050C0000 		.4byte	0xc05
 1854 0ae7 1B       		.uleb128 0x1b
 1855 0ae8 01       		.byte	0x1
 1856 0ae9 53       		.byte	0x53
 1857 0aea 02       		.byte	0x2
 1858 0aeb 76       		.byte	0x76
 1859 0aec 00       		.sleb128 0
 1860 0aed 1B       		.uleb128 0x1b
 1861 0aee 01       		.byte	0x1
 1862 0aef 52       		.byte	0x52
 1863 0af0 03       		.byte	0x3
 1864 0af1 F3       		.byte	0xf3
 1865 0af2 01       		.uleb128 0x1
 1866 0af3 52       		.byte	0x52
 1867 0af4 1B       		.uleb128 0x1b
 1868 0af5 01       		.byte	0x1
 1869 0af6 50       		.byte	0x50
 1870 0af7 02       		.byte	0x2
 1871 0af8 74       		.byte	0x74
ARM GAS  C:\Users\DNIEL~1\AppData\Local\Temp\cc1Z7K1B.s 			page 34


 1872 0af9 00       		.sleb128 0
 1873 0afa 1B       		.uleb128 0x1b
 1874 0afb 02       		.byte	0x2
 1875 0afc 7D       		.byte	0x7d
 1876 0afd 00       		.sleb128 0
 1877 0afe 02       		.byte	0x2
 1878 0aff 75       		.byte	0x75
 1879 0b00 00       		.sleb128 0
 1880 0b01 00       		.byte	0
 1881 0b02 00       		.byte	0
 1882 0b03 25       		.uleb128 0x25
 1883 0b04 01       		.byte	0x1
 1884 0b05 3C050000 		.4byte	.LASF124
 1885 0b09 01       		.byte	0x1
 1886 0b0a 0D01     		.2byte	0x10d
 1887 0b0c 01       		.byte	0x1
 1888 0b0d 00000000 		.4byte	.LFB125
 1889 0b11 06000000 		.4byte	.LFE125
 1890 0b15 02       		.byte	0x2
 1891 0b16 7D       		.byte	0x7d
 1892 0b17 00       		.sleb128 0
 1893 0b18 01       		.byte	0x1
 1894 0b19 420B0000 		.4byte	0xb42
 1895 0b1d 26       		.uleb128 0x26
 1896 0b1e C7000000 		.4byte	.LASF114
 1897 0b22 01       		.byte	0x1
 1898 0b23 0D01     		.2byte	0x10d
 1899 0b25 0D080000 		.4byte	0x80d
 1900 0b29 D8020000 		.4byte	.LLST25
 1901 0b2d 1A       		.uleb128 0x1a
 1902 0b2e 06000000 		.4byte	.LVL36
 1903 0b32 01       		.byte	0x1
 1904 0b33 320C0000 		.4byte	0xc32
 1905 0b37 1B       		.uleb128 0x1b
 1906 0b38 01       		.byte	0x1
 1907 0b39 50       		.byte	0x50
 1908 0b3a 05       		.byte	0x5
 1909 0b3b F3       		.byte	0xf3
 1910 0b3c 01       		.uleb128 0x1
 1911 0b3d 50       		.byte	0x50
 1912 0b3e 23       		.byte	0x23
 1913 0b3f 0C       		.uleb128 0xc
 1914 0b40 00       		.byte	0
 1915 0b41 00       		.byte	0
 1916 0b42 25       		.uleb128 0x25
 1917 0b43 01       		.byte	0x1
 1918 0b44 AC000000 		.4byte	.LASF125
 1919 0b48 01       		.byte	0x1
 1920 0b49 2101     		.2byte	0x121
 1921 0b4b 01       		.byte	0x1
 1922 0b4c 00000000 		.4byte	.LFB126
 1923 0b50 04000000 		.4byte	.LFE126
 1924 0b54 02       		.byte	0x2
 1925 0b55 7D       		.byte	0x7d
 1926 0b56 00       		.sleb128 0
 1927 0b57 01       		.byte	0x1
 1928 0b58 770B0000 		.4byte	0xb77
ARM GAS  C:\Users\DNIEL~1\AppData\Local\Temp\cc1Z7K1B.s 			page 35


 1929 0b5c 26       		.uleb128 0x26
 1930 0b5d C7000000 		.4byte	.LASF114
 1931 0b61 01       		.byte	0x1
 1932 0b62 2101     		.2byte	0x121
 1933 0b64 0D080000 		.4byte	0x80d
 1934 0b68 06030000 		.4byte	.LLST26
 1935 0b6c 18       		.uleb128 0x18
 1936 0b6d 04000000 		.4byte	.LVL38
 1937 0b71 01       		.byte	0x1
 1938 0b72 460C0000 		.4byte	0xc46
 1939 0b76 00       		.byte	0
 1940 0b77 27       		.uleb128 0x27
 1941 0b78 BA000000 		.4byte	.LASF135
 1942 0b7c 0D       		.byte	0xd
 1943 0b7d 9806     		.2byte	0x698
 1944 0b7f 00040000 		.4byte	0x400
 1945 0b83 01       		.byte	0x1
 1946 0b84 01       		.byte	0x1
 1947 0b85 28       		.uleb128 0x28
 1948 0b86 01       		.byte	0x1
 1949 0b87 2F050000 		.4byte	.LASF136
 1950 0b8b 0C       		.byte	0xc
 1951 0b8c BD01     		.2byte	0x1bd
 1952 0b8e 01       		.byte	0x1
 1953 0b8f 01       		.byte	0x1
 1954 0b90 29       		.uleb128 0x29
 1955 0b91 01       		.byte	0x1
 1956 0b92 25050000 		.4byte	.LASF126
 1957 0b96 08       		.byte	0x8
 1958 0b97 31       		.byte	0x31
 1959 0b98 01       		.byte	0x1
 1960 0b99 01       		.byte	0x1
 1961 0b9a A40B0000 		.4byte	0xba4
 1962 0b9e 2A       		.uleb128 0x2a
 1963 0b9f E4030000 		.4byte	0x3e4
 1964 0ba3 00       		.byte	0
 1965 0ba4 2B       		.uleb128 0x2b
 1966 0ba5 01       		.byte	0x1
 1967 0ba6 85020000 		.4byte	.LASF127
 1968 0baa 0C       		.byte	0xc
 1969 0bab BE01     		.2byte	0x1be
 1970 0bad 01       		.byte	0x1
 1971 0bae 01       		.byte	0x1
 1972 0baf B90B0000 		.4byte	0xbb9
 1973 0bb3 2A       		.uleb128 0x2a
 1974 0bb4 0D080000 		.4byte	0x80d
 1975 0bb8 00       		.byte	0
 1976 0bb9 2B       		.uleb128 0x2b
 1977 0bba 01       		.byte	0x1
 1978 0bbb 78020000 		.4byte	.LASF128
 1979 0bbf 0C       		.byte	0xc
 1980 0bc0 BF01     		.2byte	0x1bf
 1981 0bc2 01       		.byte	0x1
 1982 0bc3 01       		.byte	0x1
 1983 0bc4 CE0B0000 		.4byte	0xbce
 1984 0bc8 2A       		.uleb128 0x2a
 1985 0bc9 0D080000 		.4byte	0x80d
ARM GAS  C:\Users\DNIEL~1\AppData\Local\Temp\cc1Z7K1B.s 			page 36


 1986 0bcd 00       		.byte	0
 1987 0bce 2C       		.uleb128 0x2c
 1988 0bcf 01       		.byte	0x1
 1989 0bd0 26010000 		.4byte	.LASF129
 1990 0bd4 0C       		.byte	0xc
 1991 0bd5 C001     		.2byte	0x1c0
 1992 0bd7 01       		.byte	0x1
 1993 0bd8 DD000000 		.4byte	0xdd
 1994 0bdc 01       		.byte	0x1
 1995 0bdd 050C0000 		.4byte	0xc05
 1996 0be1 2A       		.uleb128 0x2a
 1997 0be2 0D080000 		.4byte	0x80d
 1998 0be6 2A       		.uleb128 0x2a
 1999 0be7 40060000 		.4byte	0x640
 2000 0beb 2A       		.uleb128 0x2a
 2001 0bec F0030000 		.4byte	0x3f0
 2002 0bf0 2A       		.uleb128 0x2a
 2003 0bf1 30000000 		.4byte	0x30
 2004 0bf5 2A       		.uleb128 0x2a
 2005 0bf6 EA030000 		.4byte	0x3ea
 2006 0bfa 2A       		.uleb128 0x2a
 2007 0bfb 30000000 		.4byte	0x30
 2008 0bff 2A       		.uleb128 0x2a
 2009 0c00 F3000000 		.4byte	0xf3
 2010 0c04 00       		.byte	0
 2011 0c05 2C       		.uleb128 0x2c
 2012 0c06 01       		.byte	0x1
 2013 0c07 4B000000 		.4byte	.LASF130
 2014 0c0b 0C       		.byte	0xc
 2015 0c0c C401     		.2byte	0x1c4
 2016 0c0e 01       		.byte	0x1
 2017 0c0f DD000000 		.4byte	0xdd
 2018 0c13 01       		.byte	0x1
 2019 0c14 320C0000 		.4byte	0xc32
 2020 0c18 2A       		.uleb128 0x2a
 2021 0c19 0D080000 		.4byte	0x80d
 2022 0c1d 2A       		.uleb128 0x2a
 2023 0c1e 40060000 		.4byte	0x640
 2024 0c22 2A       		.uleb128 0x2a
 2025 0c23 EA030000 		.4byte	0x3ea
 2026 0c27 2A       		.uleb128 0x2a
 2027 0c28 30000000 		.4byte	0x30
 2028 0c2c 2A       		.uleb128 0x2a
 2029 0c2d F3000000 		.4byte	0xf3
 2030 0c31 00       		.byte	0
 2031 0c32 29       		.uleb128 0x29
 2032 0c33 01       		.byte	0x1
 2033 0c34 AD020000 		.4byte	.LASF131
 2034 0c38 08       		.byte	0x8
 2035 0c39 32       		.byte	0x32
 2036 0c3a 01       		.byte	0x1
 2037 0c3b 01       		.byte	0x1
 2038 0c3c 460C0000 		.4byte	0xc46
 2039 0c40 2A       		.uleb128 0x2a
 2040 0c41 E4030000 		.4byte	0x3e4
 2041 0c45 00       		.byte	0
 2042 0c46 2D       		.uleb128 0x2d
ARM GAS  C:\Users\DNIEL~1\AppData\Local\Temp\cc1Z7K1B.s 			page 37


 2043 0c47 01       		.byte	0x1
 2044 0c48 F4000000 		.4byte	.LASF137
 2045 0c4c 08       		.byte	0x8
 2046 0c4d 36       		.byte	0x36
 2047 0c4e 01       		.byte	0x1
 2048 0c4f E4030000 		.4byte	0x3e4
 2049 0c53 01       		.byte	0x1
 2050 0c54 00       		.byte	0
 2051              		.section	.debug_abbrev,"",%progbits
 2052              	.Ldebug_abbrev0:
 2053 0000 01       		.uleb128 0x1
 2054 0001 11       		.uleb128 0x11
 2055 0002 01       		.byte	0x1
 2056 0003 25       		.uleb128 0x25
 2057 0004 0E       		.uleb128 0xe
 2058 0005 13       		.uleb128 0x13
 2059 0006 0B       		.uleb128 0xb
 2060 0007 03       		.uleb128 0x3
 2061 0008 0E       		.uleb128 0xe
 2062 0009 1B       		.uleb128 0x1b
 2063 000a 0E       		.uleb128 0xe
 2064 000b 55       		.uleb128 0x55
 2065 000c 06       		.uleb128 0x6
 2066 000d 11       		.uleb128 0x11
 2067 000e 01       		.uleb128 0x1
 2068 000f 52       		.uleb128 0x52
 2069 0010 01       		.uleb128 0x1
 2070 0011 10       		.uleb128 0x10
 2071 0012 06       		.uleb128 0x6
 2072 0013 00       		.byte	0
 2073 0014 00       		.byte	0
 2074 0015 02       		.uleb128 0x2
 2075 0016 24       		.uleb128 0x24
 2076 0017 00       		.byte	0
 2077 0018 0B       		.uleb128 0xb
 2078 0019 0B       		.uleb128 0xb
 2079 001a 3E       		.uleb128 0x3e
 2080 001b 0B       		.uleb128 0xb
 2081 001c 03       		.uleb128 0x3
 2082 001d 08       		.uleb128 0x8
 2083 001e 00       		.byte	0
 2084 001f 00       		.byte	0
 2085 0020 03       		.uleb128 0x3
 2086 0021 16       		.uleb128 0x16
 2087 0022 00       		.byte	0
 2088 0023 03       		.uleb128 0x3
 2089 0024 0E       		.uleb128 0xe
 2090 0025 3A       		.uleb128 0x3a
 2091 0026 0B       		.uleb128 0xb
 2092 0027 3B       		.uleb128 0x3b
 2093 0028 0B       		.uleb128 0xb
 2094 0029 49       		.uleb128 0x49
 2095 002a 13       		.uleb128 0x13
 2096 002b 00       		.byte	0
 2097 002c 00       		.byte	0
 2098 002d 04       		.uleb128 0x4
 2099 002e 24       		.uleb128 0x24
ARM GAS  C:\Users\DNIEL~1\AppData\Local\Temp\cc1Z7K1B.s 			page 38


 2100 002f 00       		.byte	0
 2101 0030 0B       		.uleb128 0xb
 2102 0031 0B       		.uleb128 0xb
 2103 0032 3E       		.uleb128 0x3e
 2104 0033 0B       		.uleb128 0xb
 2105 0034 03       		.uleb128 0x3
 2106 0035 0E       		.uleb128 0xe
 2107 0036 00       		.byte	0
 2108 0037 00       		.byte	0
 2109 0038 05       		.uleb128 0x5
 2110 0039 13       		.uleb128 0x13
 2111 003a 01       		.byte	0x1
 2112 003b 03       		.uleb128 0x3
 2113 003c 0E       		.uleb128 0xe
 2114 003d 0B       		.uleb128 0xb
 2115 003e 0B       		.uleb128 0xb
 2116 003f 3A       		.uleb128 0x3a
 2117 0040 0B       		.uleb128 0xb
 2118 0041 3B       		.uleb128 0x3b
 2119 0042 0B       		.uleb128 0xb
 2120 0043 01       		.uleb128 0x1
 2121 0044 13       		.uleb128 0x13
 2122 0045 00       		.byte	0
 2123 0046 00       		.byte	0
 2124 0047 06       		.uleb128 0x6
 2125 0048 0D       		.uleb128 0xd
 2126 0049 00       		.byte	0
 2127 004a 03       		.uleb128 0x3
 2128 004b 0E       		.uleb128 0xe
 2129 004c 3A       		.uleb128 0x3a
 2130 004d 0B       		.uleb128 0xb
 2131 004e 3B       		.uleb128 0x3b
 2132 004f 0B       		.uleb128 0xb
 2133 0050 49       		.uleb128 0x49
 2134 0051 13       		.uleb128 0x13
 2135 0052 38       		.uleb128 0x38
 2136 0053 0A       		.uleb128 0xa
 2137 0054 00       		.byte	0
 2138 0055 00       		.byte	0
 2139 0056 07       		.uleb128 0x7
 2140 0057 0D       		.uleb128 0xd
 2141 0058 00       		.byte	0
 2142 0059 03       		.uleb128 0x3
 2143 005a 08       		.uleb128 0x8
 2144 005b 3A       		.uleb128 0x3a
 2145 005c 0B       		.uleb128 0xb
 2146 005d 3B       		.uleb128 0x3b
 2147 005e 0B       		.uleb128 0xb
 2148 005f 49       		.uleb128 0x49
 2149 0060 13       		.uleb128 0x13
 2150 0061 38       		.uleb128 0x38
 2151 0062 0A       		.uleb128 0xa
 2152 0063 00       		.byte	0
 2153 0064 00       		.byte	0
 2154 0065 08       		.uleb128 0x8
 2155 0066 13       		.uleb128 0x13
 2156 0067 01       		.byte	0x1
ARM GAS  C:\Users\DNIEL~1\AppData\Local\Temp\cc1Z7K1B.s 			page 39


 2157 0068 0B       		.uleb128 0xb
 2158 0069 0B       		.uleb128 0xb
 2159 006a 3A       		.uleb128 0x3a
 2160 006b 0B       		.uleb128 0xb
 2161 006c 3B       		.uleb128 0x3b
 2162 006d 0B       		.uleb128 0xb
 2163 006e 01       		.uleb128 0x1
 2164 006f 13       		.uleb128 0x13
 2165 0070 00       		.byte	0
 2166 0071 00       		.byte	0
 2167 0072 09       		.uleb128 0x9
 2168 0073 0F       		.uleb128 0xf
 2169 0074 00       		.byte	0
 2170 0075 0B       		.uleb128 0xb
 2171 0076 0B       		.uleb128 0xb
 2172 0077 49       		.uleb128 0x49
 2173 0078 13       		.uleb128 0x13
 2174 0079 00       		.byte	0
 2175 007a 00       		.byte	0
 2176 007b 0A       		.uleb128 0xa
 2177 007c 0F       		.uleb128 0xf
 2178 007d 00       		.byte	0
 2179 007e 0B       		.uleb128 0xb
 2180 007f 0B       		.uleb128 0xb
 2181 0080 00       		.byte	0
 2182 0081 00       		.byte	0
 2183 0082 0B       		.uleb128 0xb
 2184 0083 13       		.uleb128 0x13
 2185 0084 01       		.byte	0x1
 2186 0085 03       		.uleb128 0x3
 2187 0086 0E       		.uleb128 0xe
 2188 0087 0B       		.uleb128 0xb
 2189 0088 0B       		.uleb128 0xb
 2190 0089 3A       		.uleb128 0x3a
 2191 008a 0B       		.uleb128 0xb
 2192 008b 3B       		.uleb128 0x3b
 2193 008c 05       		.uleb128 0x5
 2194 008d 01       		.uleb128 0x1
 2195 008e 13       		.uleb128 0x13
 2196 008f 00       		.byte	0
 2197 0090 00       		.byte	0
 2198 0091 0C       		.uleb128 0xc
 2199 0092 0D       		.uleb128 0xd
 2200 0093 00       		.byte	0
 2201 0094 03       		.uleb128 0x3
 2202 0095 08       		.uleb128 0x8
 2203 0096 3A       		.uleb128 0x3a
 2204 0097 0B       		.uleb128 0xb
 2205 0098 3B       		.uleb128 0x3b
 2206 0099 05       		.uleb128 0x5
 2207 009a 49       		.uleb128 0x49
 2208 009b 13       		.uleb128 0x13
 2209 009c 38       		.uleb128 0x38
 2210 009d 0A       		.uleb128 0xa
 2211 009e 00       		.byte	0
 2212 009f 00       		.byte	0
 2213 00a0 0D       		.uleb128 0xd
ARM GAS  C:\Users\DNIEL~1\AppData\Local\Temp\cc1Z7K1B.s 			page 40


 2214 00a1 35       		.uleb128 0x35
 2215 00a2 00       		.byte	0
 2216 00a3 49       		.uleb128 0x49
 2217 00a4 13       		.uleb128 0x13
 2218 00a5 00       		.byte	0
 2219 00a6 00       		.byte	0
 2220 00a7 0E       		.uleb128 0xe
 2221 00a8 17       		.uleb128 0x17
 2222 00a9 01       		.byte	0x1
 2223 00aa 0B       		.uleb128 0xb
 2224 00ab 0B       		.uleb128 0xb
 2225 00ac 3A       		.uleb128 0x3a
 2226 00ad 0B       		.uleb128 0xb
 2227 00ae 3B       		.uleb128 0x3b
 2228 00af 0B       		.uleb128 0xb
 2229 00b0 01       		.uleb128 0x1
 2230 00b1 13       		.uleb128 0x13
 2231 00b2 00       		.byte	0
 2232 00b3 00       		.byte	0
 2233 00b4 0F       		.uleb128 0xf
 2234 00b5 0D       		.uleb128 0xd
 2235 00b6 00       		.byte	0
 2236 00b7 03       		.uleb128 0x3
 2237 00b8 0E       		.uleb128 0xe
 2238 00b9 3A       		.uleb128 0x3a
 2239 00ba 0B       		.uleb128 0xb
 2240 00bb 3B       		.uleb128 0x3b
 2241 00bc 0B       		.uleb128 0xb
 2242 00bd 49       		.uleb128 0x49
 2243 00be 13       		.uleb128 0x13
 2244 00bf 00       		.byte	0
 2245 00c0 00       		.byte	0
 2246 00c1 10       		.uleb128 0x10
 2247 00c2 26       		.uleb128 0x26
 2248 00c3 00       		.byte	0
 2249 00c4 49       		.uleb128 0x49
 2250 00c5 13       		.uleb128 0x13
 2251 00c6 00       		.byte	0
 2252 00c7 00       		.byte	0
 2253 00c8 11       		.uleb128 0x11
 2254 00c9 13       		.uleb128 0x13
 2255 00ca 01       		.byte	0x1
 2256 00cb 0B       		.uleb128 0xb
 2257 00cc 0B       		.uleb128 0xb
 2258 00cd 3A       		.uleb128 0x3a
 2259 00ce 0B       		.uleb128 0xb
 2260 00cf 3B       		.uleb128 0x3b
 2261 00d0 05       		.uleb128 0x5
 2262 00d1 01       		.uleb128 0x1
 2263 00d2 13       		.uleb128 0x13
 2264 00d3 00       		.byte	0
 2265 00d4 00       		.byte	0
 2266 00d5 12       		.uleb128 0x12
 2267 00d6 0D       		.uleb128 0xd
 2268 00d7 00       		.byte	0
 2269 00d8 03       		.uleb128 0x3
 2270 00d9 0E       		.uleb128 0xe
ARM GAS  C:\Users\DNIEL~1\AppData\Local\Temp\cc1Z7K1B.s 			page 41


 2271 00da 3A       		.uleb128 0x3a
 2272 00db 0B       		.uleb128 0xb
 2273 00dc 3B       		.uleb128 0x3b
 2274 00dd 05       		.uleb128 0x5
 2275 00de 49       		.uleb128 0x49
 2276 00df 13       		.uleb128 0x13
 2277 00e0 38       		.uleb128 0x38
 2278 00e1 0A       		.uleb128 0xa
 2279 00e2 00       		.byte	0
 2280 00e3 00       		.byte	0
 2281 00e4 13       		.uleb128 0x13
 2282 00e5 16       		.uleb128 0x16
 2283 00e6 00       		.byte	0
 2284 00e7 03       		.uleb128 0x3
 2285 00e8 0E       		.uleb128 0xe
 2286 00e9 3A       		.uleb128 0x3a
 2287 00ea 0B       		.uleb128 0xb
 2288 00eb 3B       		.uleb128 0x3b
 2289 00ec 05       		.uleb128 0x5
 2290 00ed 49       		.uleb128 0x49
 2291 00ee 13       		.uleb128 0x13
 2292 00ef 00       		.byte	0
 2293 00f0 00       		.byte	0
 2294 00f1 14       		.uleb128 0x14
 2295 00f2 04       		.uleb128 0x4
 2296 00f3 01       		.byte	0x1
 2297 00f4 0B       		.uleb128 0xb
 2298 00f5 0B       		.uleb128 0xb
 2299 00f6 3A       		.uleb128 0x3a
 2300 00f7 0B       		.uleb128 0xb
 2301 00f8 3B       		.uleb128 0x3b
 2302 00f9 0B       		.uleb128 0xb
 2303 00fa 01       		.uleb128 0x1
 2304 00fb 13       		.uleb128 0x13
 2305 00fc 00       		.byte	0
 2306 00fd 00       		.byte	0
 2307 00fe 15       		.uleb128 0x15
 2308 00ff 28       		.uleb128 0x28
 2309 0100 00       		.byte	0
 2310 0101 03       		.uleb128 0x3
 2311 0102 0E       		.uleb128 0xe
 2312 0103 1C       		.uleb128 0x1c
 2313 0104 0D       		.uleb128 0xd
 2314 0105 00       		.byte	0
 2315 0106 00       		.byte	0
 2316 0107 16       		.uleb128 0x16
 2317 0108 04       		.uleb128 0x4
 2318 0109 01       		.byte	0x1
 2319 010a 0B       		.uleb128 0xb
 2320 010b 0B       		.uleb128 0xb
 2321 010c 3A       		.uleb128 0x3a
 2322 010d 0B       		.uleb128 0xb
 2323 010e 3B       		.uleb128 0x3b
 2324 010f 05       		.uleb128 0x5
 2325 0110 01       		.uleb128 0x1
 2326 0111 13       		.uleb128 0x13
 2327 0112 00       		.byte	0
ARM GAS  C:\Users\DNIEL~1\AppData\Local\Temp\cc1Z7K1B.s 			page 42


 2328 0113 00       		.byte	0
 2329 0114 17       		.uleb128 0x17
 2330 0115 2E       		.uleb128 0x2e
 2331 0116 01       		.byte	0x1
 2332 0117 3F       		.uleb128 0x3f
 2333 0118 0C       		.uleb128 0xc
 2334 0119 03       		.uleb128 0x3
 2335 011a 0E       		.uleb128 0xe
 2336 011b 3A       		.uleb128 0x3a
 2337 011c 0B       		.uleb128 0xb
 2338 011d 3B       		.uleb128 0x3b
 2339 011e 0B       		.uleb128 0xb
 2340 011f 27       		.uleb128 0x27
 2341 0120 0C       		.uleb128 0xc
 2342 0121 11       		.uleb128 0x11
 2343 0122 01       		.uleb128 0x1
 2344 0123 12       		.uleb128 0x12
 2345 0124 01       		.uleb128 0x1
 2346 0125 40       		.uleb128 0x40
 2347 0126 0A       		.uleb128 0xa
 2348 0127 9742     		.uleb128 0x2117
 2349 0129 0C       		.uleb128 0xc
 2350 012a 01       		.uleb128 0x1
 2351 012b 13       		.uleb128 0x13
 2352 012c 00       		.byte	0
 2353 012d 00       		.byte	0
 2354 012e 18       		.uleb128 0x18
 2355 012f 898201   		.uleb128 0x4109
 2356 0132 00       		.byte	0
 2357 0133 11       		.uleb128 0x11
 2358 0134 01       		.uleb128 0x1
 2359 0135 9542     		.uleb128 0x2115
 2360 0137 0C       		.uleb128 0xc
 2361 0138 31       		.uleb128 0x31
 2362 0139 13       		.uleb128 0x13
 2363 013a 00       		.byte	0
 2364 013b 00       		.byte	0
 2365 013c 19       		.uleb128 0x19
 2366 013d 05       		.uleb128 0x5
 2367 013e 00       		.byte	0
 2368 013f 03       		.uleb128 0x3
 2369 0140 0E       		.uleb128 0xe
 2370 0141 3A       		.uleb128 0x3a
 2371 0142 0B       		.uleb128 0xb
 2372 0143 3B       		.uleb128 0x3b
 2373 0144 0B       		.uleb128 0xb
 2374 0145 49       		.uleb128 0x49
 2375 0146 13       		.uleb128 0x13
 2376 0147 02       		.uleb128 0x2
 2377 0148 06       		.uleb128 0x6
 2378 0149 00       		.byte	0
 2379 014a 00       		.byte	0
 2380 014b 1A       		.uleb128 0x1a
 2381 014c 898201   		.uleb128 0x4109
 2382 014f 01       		.byte	0x1
 2383 0150 11       		.uleb128 0x11
 2384 0151 01       		.uleb128 0x1
ARM GAS  C:\Users\DNIEL~1\AppData\Local\Temp\cc1Z7K1B.s 			page 43


 2385 0152 9542     		.uleb128 0x2115
 2386 0154 0C       		.uleb128 0xc
 2387 0155 31       		.uleb128 0x31
 2388 0156 13       		.uleb128 0x13
 2389 0157 00       		.byte	0
 2390 0158 00       		.byte	0
 2391 0159 1B       		.uleb128 0x1b
 2392 015a 8A8201   		.uleb128 0x410a
 2393 015d 00       		.byte	0
 2394 015e 02       		.uleb128 0x2
 2395 015f 0A       		.uleb128 0xa
 2396 0160 9142     		.uleb128 0x2111
 2397 0162 0A       		.uleb128 0xa
 2398 0163 00       		.byte	0
 2399 0164 00       		.byte	0
 2400 0165 1C       		.uleb128 0x1c
 2401 0166 2E       		.uleb128 0x2e
 2402 0167 01       		.byte	0x1
 2403 0168 3F       		.uleb128 0x3f
 2404 0169 0C       		.uleb128 0xc
 2405 016a 03       		.uleb128 0x3
 2406 016b 0E       		.uleb128 0xe
 2407 016c 3A       		.uleb128 0x3a
 2408 016d 0B       		.uleb128 0xb
 2409 016e 3B       		.uleb128 0x3b
 2410 016f 0B       		.uleb128 0xb
 2411 0170 27       		.uleb128 0x27
 2412 0171 0C       		.uleb128 0xc
 2413 0172 11       		.uleb128 0x11
 2414 0173 01       		.uleb128 0x1
 2415 0174 12       		.uleb128 0x12
 2416 0175 01       		.uleb128 0x1
 2417 0176 40       		.uleb128 0x40
 2418 0177 06       		.uleb128 0x6
 2419 0178 9742     		.uleb128 0x2117
 2420 017a 0C       		.uleb128 0xc
 2421 017b 01       		.uleb128 0x1
 2422 017c 13       		.uleb128 0x13
 2423 017d 00       		.byte	0
 2424 017e 00       		.byte	0
 2425 017f 1D       		.uleb128 0x1d
 2426 0180 0B       		.uleb128 0xb
 2427 0181 01       		.byte	0x1
 2428 0182 55       		.uleb128 0x55
 2429 0183 06       		.uleb128 0x6
 2430 0184 01       		.uleb128 0x1
 2431 0185 13       		.uleb128 0x13
 2432 0186 00       		.byte	0
 2433 0187 00       		.byte	0
 2434 0188 1E       		.uleb128 0x1e
 2435 0189 34       		.uleb128 0x34
 2436 018a 00       		.byte	0
 2437 018b 03       		.uleb128 0x3
 2438 018c 08       		.uleb128 0x8
 2439 018d 3A       		.uleb128 0x3a
 2440 018e 0B       		.uleb128 0xb
 2441 018f 3B       		.uleb128 0x3b
ARM GAS  C:\Users\DNIEL~1\AppData\Local\Temp\cc1Z7K1B.s 			page 44


 2442 0190 0B       		.uleb128 0xb
 2443 0191 49       		.uleb128 0x49
 2444 0192 13       		.uleb128 0x13
 2445 0193 02       		.uleb128 0x2
 2446 0194 06       		.uleb128 0x6
 2447 0195 00       		.byte	0
 2448 0196 00       		.byte	0
 2449 0197 1F       		.uleb128 0x1f
 2450 0198 0B       		.uleb128 0xb
 2451 0199 01       		.byte	0x1
 2452 019a 11       		.uleb128 0x11
 2453 019b 01       		.uleb128 0x1
 2454 019c 12       		.uleb128 0x12
 2455 019d 01       		.uleb128 0x1
 2456 019e 01       		.uleb128 0x1
 2457 019f 13       		.uleb128 0x13
 2458 01a0 00       		.byte	0
 2459 01a1 00       		.byte	0
 2460 01a2 20       		.uleb128 0x20
 2461 01a3 898201   		.uleb128 0x4109
 2462 01a6 01       		.byte	0x1
 2463 01a7 11       		.uleb128 0x11
 2464 01a8 01       		.uleb128 0x1
 2465 01a9 31       		.uleb128 0x31
 2466 01aa 13       		.uleb128 0x13
 2467 01ab 00       		.byte	0
 2468 01ac 00       		.byte	0
 2469 01ad 21       		.uleb128 0x21
 2470 01ae 2E       		.uleb128 0x2e
 2471 01af 01       		.byte	0x1
 2472 01b0 3F       		.uleb128 0x3f
 2473 01b1 0C       		.uleb128 0xc
 2474 01b2 03       		.uleb128 0x3
 2475 01b3 0E       		.uleb128 0xe
 2476 01b4 3A       		.uleb128 0x3a
 2477 01b5 0B       		.uleb128 0xb
 2478 01b6 3B       		.uleb128 0x3b
 2479 01b7 0B       		.uleb128 0xb
 2480 01b8 27       		.uleb128 0x27
 2481 01b9 0C       		.uleb128 0xc
 2482 01ba 49       		.uleb128 0x49
 2483 01bb 13       		.uleb128 0x13
 2484 01bc 11       		.uleb128 0x11
 2485 01bd 01       		.uleb128 0x1
 2486 01be 12       		.uleb128 0x12
 2487 01bf 01       		.uleb128 0x1
 2488 01c0 40       		.uleb128 0x40
 2489 01c1 0A       		.uleb128 0xa
 2490 01c2 9742     		.uleb128 0x2117
 2491 01c4 0C       		.uleb128 0xc
 2492 01c5 01       		.uleb128 0x1
 2493 01c6 13       		.uleb128 0x13
 2494 01c7 00       		.byte	0
 2495 01c8 00       		.byte	0
 2496 01c9 22       		.uleb128 0x22
 2497 01ca 2E       		.uleb128 0x2e
 2498 01cb 01       		.byte	0x1
ARM GAS  C:\Users\DNIEL~1\AppData\Local\Temp\cc1Z7K1B.s 			page 45


 2499 01cc 3F       		.uleb128 0x3f
 2500 01cd 0C       		.uleb128 0xc
 2501 01ce 03       		.uleb128 0x3
 2502 01cf 0E       		.uleb128 0xe
 2503 01d0 3A       		.uleb128 0x3a
 2504 01d1 0B       		.uleb128 0xb
 2505 01d2 3B       		.uleb128 0x3b
 2506 01d3 0B       		.uleb128 0xb
 2507 01d4 27       		.uleb128 0x27
 2508 01d5 0C       		.uleb128 0xc
 2509 01d6 49       		.uleb128 0x49
 2510 01d7 13       		.uleb128 0x13
 2511 01d8 11       		.uleb128 0x11
 2512 01d9 01       		.uleb128 0x1
 2513 01da 12       		.uleb128 0x12
 2514 01db 01       		.uleb128 0x1
 2515 01dc 40       		.uleb128 0x40
 2516 01dd 06       		.uleb128 0x6
 2517 01de 9742     		.uleb128 0x2117
 2518 01e0 0C       		.uleb128 0xc
 2519 01e1 01       		.uleb128 0x1
 2520 01e2 13       		.uleb128 0x13
 2521 01e3 00       		.byte	0
 2522 01e4 00       		.byte	0
 2523 01e5 23       		.uleb128 0x23
 2524 01e6 05       		.uleb128 0x5
 2525 01e7 00       		.byte	0
 2526 01e8 03       		.uleb128 0x3
 2527 01e9 0E       		.uleb128 0xe
 2528 01ea 3A       		.uleb128 0x3a
 2529 01eb 0B       		.uleb128 0xb
 2530 01ec 3B       		.uleb128 0x3b
 2531 01ed 0B       		.uleb128 0xb
 2532 01ee 49       		.uleb128 0x49
 2533 01ef 13       		.uleb128 0x13
 2534 01f0 02       		.uleb128 0x2
 2535 01f1 0A       		.uleb128 0xa
 2536 01f2 00       		.byte	0
 2537 01f3 00       		.byte	0
 2538 01f4 24       		.uleb128 0x24
 2539 01f5 34       		.uleb128 0x34
 2540 01f6 00       		.byte	0
 2541 01f7 03       		.uleb128 0x3
 2542 01f8 0E       		.uleb128 0xe
 2543 01f9 3A       		.uleb128 0x3a
 2544 01fa 0B       		.uleb128 0xb
 2545 01fb 3B       		.uleb128 0x3b
 2546 01fc 0B       		.uleb128 0xb
 2547 01fd 49       		.uleb128 0x49
 2548 01fe 13       		.uleb128 0x13
 2549 01ff 02       		.uleb128 0x2
 2550 0200 0A       		.uleb128 0xa
 2551 0201 00       		.byte	0
 2552 0202 00       		.byte	0
 2553 0203 25       		.uleb128 0x25
 2554 0204 2E       		.uleb128 0x2e
 2555 0205 01       		.byte	0x1
ARM GAS  C:\Users\DNIEL~1\AppData\Local\Temp\cc1Z7K1B.s 			page 46


 2556 0206 3F       		.uleb128 0x3f
 2557 0207 0C       		.uleb128 0xc
 2558 0208 03       		.uleb128 0x3
 2559 0209 0E       		.uleb128 0xe
 2560 020a 3A       		.uleb128 0x3a
 2561 020b 0B       		.uleb128 0xb
 2562 020c 3B       		.uleb128 0x3b
 2563 020d 05       		.uleb128 0x5
 2564 020e 27       		.uleb128 0x27
 2565 020f 0C       		.uleb128 0xc
 2566 0210 11       		.uleb128 0x11
 2567 0211 01       		.uleb128 0x1
 2568 0212 12       		.uleb128 0x12
 2569 0213 01       		.uleb128 0x1
 2570 0214 40       		.uleb128 0x40
 2571 0215 0A       		.uleb128 0xa
 2572 0216 9742     		.uleb128 0x2117
 2573 0218 0C       		.uleb128 0xc
 2574 0219 01       		.uleb128 0x1
 2575 021a 13       		.uleb128 0x13
 2576 021b 00       		.byte	0
 2577 021c 00       		.byte	0
 2578 021d 26       		.uleb128 0x26
 2579 021e 05       		.uleb128 0x5
 2580 021f 00       		.byte	0
 2581 0220 03       		.uleb128 0x3
 2582 0221 0E       		.uleb128 0xe
 2583 0222 3A       		.uleb128 0x3a
 2584 0223 0B       		.uleb128 0xb
 2585 0224 3B       		.uleb128 0x3b
 2586 0225 05       		.uleb128 0x5
 2587 0226 49       		.uleb128 0x49
 2588 0227 13       		.uleb128 0x13
 2589 0228 02       		.uleb128 0x2
 2590 0229 06       		.uleb128 0x6
 2591 022a 00       		.byte	0
 2592 022b 00       		.byte	0
 2593 022c 27       		.uleb128 0x27
 2594 022d 34       		.uleb128 0x34
 2595 022e 00       		.byte	0
 2596 022f 03       		.uleb128 0x3
 2597 0230 0E       		.uleb128 0xe
 2598 0231 3A       		.uleb128 0x3a
 2599 0232 0B       		.uleb128 0xb
 2600 0233 3B       		.uleb128 0x3b
 2601 0234 05       		.uleb128 0x5
 2602 0235 49       		.uleb128 0x49
 2603 0236 13       		.uleb128 0x13
 2604 0237 3F       		.uleb128 0x3f
 2605 0238 0C       		.uleb128 0xc
 2606 0239 3C       		.uleb128 0x3c
 2607 023a 0C       		.uleb128 0xc
 2608 023b 00       		.byte	0
 2609 023c 00       		.byte	0
 2610 023d 28       		.uleb128 0x28
 2611 023e 2E       		.uleb128 0x2e
 2612 023f 00       		.byte	0
ARM GAS  C:\Users\DNIEL~1\AppData\Local\Temp\cc1Z7K1B.s 			page 47


 2613 0240 3F       		.uleb128 0x3f
 2614 0241 0C       		.uleb128 0xc
 2615 0242 03       		.uleb128 0x3
 2616 0243 0E       		.uleb128 0xe
 2617 0244 3A       		.uleb128 0x3a
 2618 0245 0B       		.uleb128 0xb
 2619 0246 3B       		.uleb128 0x3b
 2620 0247 05       		.uleb128 0x5
 2621 0248 27       		.uleb128 0x27
 2622 0249 0C       		.uleb128 0xc
 2623 024a 3C       		.uleb128 0x3c
 2624 024b 0C       		.uleb128 0xc
 2625 024c 00       		.byte	0
 2626 024d 00       		.byte	0
 2627 024e 29       		.uleb128 0x29
 2628 024f 2E       		.uleb128 0x2e
 2629 0250 01       		.byte	0x1
 2630 0251 3F       		.uleb128 0x3f
 2631 0252 0C       		.uleb128 0xc
 2632 0253 03       		.uleb128 0x3
 2633 0254 0E       		.uleb128 0xe
 2634 0255 3A       		.uleb128 0x3a
 2635 0256 0B       		.uleb128 0xb
 2636 0257 3B       		.uleb128 0x3b
 2637 0258 0B       		.uleb128 0xb
 2638 0259 27       		.uleb128 0x27
 2639 025a 0C       		.uleb128 0xc
 2640 025b 3C       		.uleb128 0x3c
 2641 025c 0C       		.uleb128 0xc
 2642 025d 01       		.uleb128 0x1
 2643 025e 13       		.uleb128 0x13
 2644 025f 00       		.byte	0
 2645 0260 00       		.byte	0
 2646 0261 2A       		.uleb128 0x2a
 2647 0262 05       		.uleb128 0x5
 2648 0263 00       		.byte	0
 2649 0264 49       		.uleb128 0x49
 2650 0265 13       		.uleb128 0x13
 2651 0266 00       		.byte	0
 2652 0267 00       		.byte	0
 2653 0268 2B       		.uleb128 0x2b
 2654 0269 2E       		.uleb128 0x2e
 2655 026a 01       		.byte	0x1
 2656 026b 3F       		.uleb128 0x3f
 2657 026c 0C       		.uleb128 0xc
 2658 026d 03       		.uleb128 0x3
 2659 026e 0E       		.uleb128 0xe
 2660 026f 3A       		.uleb128 0x3a
 2661 0270 0B       		.uleb128 0xb
 2662 0271 3B       		.uleb128 0x3b
 2663 0272 05       		.uleb128 0x5
 2664 0273 27       		.uleb128 0x27
 2665 0274 0C       		.uleb128 0xc
 2666 0275 3C       		.uleb128 0x3c
 2667 0276 0C       		.uleb128 0xc
 2668 0277 01       		.uleb128 0x1
 2669 0278 13       		.uleb128 0x13
ARM GAS  C:\Users\DNIEL~1\AppData\Local\Temp\cc1Z7K1B.s 			page 48


 2670 0279 00       		.byte	0
 2671 027a 00       		.byte	0
 2672 027b 2C       		.uleb128 0x2c
 2673 027c 2E       		.uleb128 0x2e
 2674 027d 01       		.byte	0x1
 2675 027e 3F       		.uleb128 0x3f
 2676 027f 0C       		.uleb128 0xc
 2677 0280 03       		.uleb128 0x3
 2678 0281 0E       		.uleb128 0xe
 2679 0282 3A       		.uleb128 0x3a
 2680 0283 0B       		.uleb128 0xb
 2681 0284 3B       		.uleb128 0x3b
 2682 0285 05       		.uleb128 0x5
 2683 0286 27       		.uleb128 0x27
 2684 0287 0C       		.uleb128 0xc
 2685 0288 49       		.uleb128 0x49
 2686 0289 13       		.uleb128 0x13
 2687 028a 3C       		.uleb128 0x3c
 2688 028b 0C       		.uleb128 0xc
 2689 028c 01       		.uleb128 0x1
 2690 028d 13       		.uleb128 0x13
 2691 028e 00       		.byte	0
 2692 028f 00       		.byte	0
 2693 0290 2D       		.uleb128 0x2d
 2694 0291 2E       		.uleb128 0x2e
 2695 0292 00       		.byte	0
 2696 0293 3F       		.uleb128 0x3f
 2697 0294 0C       		.uleb128 0xc
 2698 0295 03       		.uleb128 0x3
 2699 0296 0E       		.uleb128 0xe
 2700 0297 3A       		.uleb128 0x3a
 2701 0298 0B       		.uleb128 0xb
 2702 0299 3B       		.uleb128 0x3b
 2703 029a 0B       		.uleb128 0xb
 2704 029b 27       		.uleb128 0x27
 2705 029c 0C       		.uleb128 0xc
 2706 029d 49       		.uleb128 0x49
 2707 029e 13       		.uleb128 0x13
 2708 029f 3C       		.uleb128 0x3c
 2709 02a0 0C       		.uleb128 0xc
 2710 02a1 00       		.byte	0
 2711 02a2 00       		.byte	0
 2712 02a3 00       		.byte	0
 2713              		.section	.debug_loc,"",%progbits
 2714              	.Ldebug_loc0:
 2715              	.LLST0:
 2716 0000 00000000 		.4byte	.LVL1
 2717 0004 0A000000 		.4byte	.LVL2
 2718 0008 0100     		.2byte	0x1
 2719 000a 50       		.byte	0x50
 2720 000b 0A000000 		.4byte	.LVL2
 2721 000f 0D000000 		.4byte	.LVL3-1
 2722 0013 0300     		.2byte	0x3
 2723 0015 70       		.byte	0x70
 2724 0016 74       		.sleb128 -12
 2725 0017 9F       		.byte	0x9f
 2726 0018 0D000000 		.4byte	.LVL3-1
ARM GAS  C:\Users\DNIEL~1\AppData\Local\Temp\cc1Z7K1B.s 			page 49


 2727 001c 0E000000 		.4byte	.LFE119
 2728 0020 0400     		.2byte	0x4
 2729 0022 F3       		.byte	0xf3
 2730 0023 01       		.uleb128 0x1
 2731 0024 50       		.byte	0x50
 2732 0025 9F       		.byte	0x9f
 2733 0026 00000000 		.4byte	0
 2734 002a 00000000 		.4byte	0
 2735              	.LLST1:
 2736 002e 00000000 		.4byte	.LFB120
 2737 0032 02000000 		.4byte	.LCFI0
 2738 0036 0200     		.2byte	0x2
 2739 0038 7D       		.byte	0x7d
 2740 0039 00       		.sleb128 0
 2741 003a 02000000 		.4byte	.LCFI0
 2742 003e 1C000000 		.4byte	.LFE120
 2743 0042 0200     		.2byte	0x2
 2744 0044 7D       		.byte	0x7d
 2745 0045 08       		.sleb128 8
 2746 0046 00000000 		.4byte	0
 2747 004a 00000000 		.4byte	0
 2748              	.LLST2:
 2749 004e 00000000 		.4byte	.LVL4
 2750 0052 0F000000 		.4byte	.LVL7-1
 2751 0056 0100     		.2byte	0x1
 2752 0058 50       		.byte	0x50
 2753 0059 0F000000 		.4byte	.LVL7-1
 2754 005d 1C000000 		.4byte	.LFE120
 2755 0061 0100     		.2byte	0x1
 2756 0063 54       		.byte	0x54
 2757 0064 00000000 		.4byte	0
 2758 0068 00000000 		.4byte	0
 2759              	.LLST3:
 2760 006c 00000000 		.4byte	.LVL4
 2761 0070 0F000000 		.4byte	.LVL7-1
 2762 0074 0100     		.2byte	0x1
 2763 0076 51       		.byte	0x51
 2764 0077 0F000000 		.4byte	.LVL7-1
 2765 007b 1C000000 		.4byte	.LFE120
 2766 007f 0400     		.2byte	0x4
 2767 0081 F3       		.byte	0xf3
 2768 0082 01       		.uleb128 0x1
 2769 0083 51       		.byte	0x51
 2770 0084 9F       		.byte	0x9f
 2771 0085 00000000 		.4byte	0
 2772 0089 00000000 		.4byte	0
 2773              	.LLST4:
 2774 008d 0A000000 		.4byte	.LVL6
 2775 0091 0F000000 		.4byte	.LVL7-1
 2776 0095 0100     		.2byte	0x1
 2777 0097 53       		.byte	0x53
 2778 0098 00000000 		.4byte	0
 2779 009c 00000000 		.4byte	0
 2780              	.LLST5:
 2781 00a0 1A000000 		.4byte	.LVL9
 2782 00a4 1C000000 		.4byte	.LFE120
 2783 00a8 0100     		.2byte	0x1
ARM GAS  C:\Users\DNIEL~1\AppData\Local\Temp\cc1Z7K1B.s 			page 50


 2784 00aa 53       		.byte	0x53
 2785 00ab 00000000 		.4byte	0
 2786 00af 00000000 		.4byte	0
 2787              	.LLST6:
 2788 00b3 00000000 		.4byte	.LFB121
 2789 00b7 02000000 		.4byte	.LCFI1
 2790 00bb 0200     		.2byte	0x2
 2791 00bd 7D       		.byte	0x7d
 2792 00be 00       		.sleb128 0
 2793 00bf 02000000 		.4byte	.LCFI1
 2794 00c3 1A000000 		.4byte	.LFE121
 2795 00c7 0200     		.2byte	0x2
 2796 00c9 7D       		.byte	0x7d
 2797 00ca 08       		.sleb128 8
 2798 00cb 00000000 		.4byte	0
 2799 00cf 00000000 		.4byte	0
 2800              	.LLST7:
 2801 00d3 00000000 		.4byte	.LVL10
 2802 00d7 0D000000 		.4byte	.LVL13-1
 2803 00db 0100     		.2byte	0x1
 2804 00dd 50       		.byte	0x50
 2805 00de 0D000000 		.4byte	.LVL13-1
 2806 00e2 1A000000 		.4byte	.LFE121
 2807 00e6 0100     		.2byte	0x1
 2808 00e8 54       		.byte	0x54
 2809 00e9 00000000 		.4byte	0
 2810 00ed 00000000 		.4byte	0
 2811              	.LLST8:
 2812 00f1 0A000000 		.4byte	.LVL12
 2813 00f5 0D000000 		.4byte	.LVL13-1
 2814 00f9 0100     		.2byte	0x1
 2815 00fb 53       		.byte	0x53
 2816 00fc 00000000 		.4byte	0
 2817 0100 00000000 		.4byte	0
 2818              	.LLST9:
 2819 0104 18000000 		.4byte	.LVL15
 2820 0108 1A000000 		.4byte	.LFE121
 2821 010c 0100     		.2byte	0x1
 2822 010e 53       		.byte	0x53
 2823 010f 00000000 		.4byte	0
 2824 0113 00000000 		.4byte	0
 2825              	.LLST10:
 2826 0117 00000000 		.4byte	.LVL16
 2827 011b 02000000 		.4byte	.LVL17
 2828 011f 0100     		.2byte	0x1
 2829 0121 50       		.byte	0x50
 2830 0122 02000000 		.4byte	.LVL17
 2831 0126 04000000 		.4byte	.LFE122
 2832 012a 0400     		.2byte	0x4
 2833 012c F3       		.byte	0xf3
 2834 012d 01       		.uleb128 0x1
 2835 012e 50       		.byte	0x50
 2836 012f 9F       		.byte	0x9f
 2837 0130 00000000 		.4byte	0
 2838 0134 00000000 		.4byte	0
 2839              	.LLST11:
 2840 0138 00000000 		.4byte	.LFB123
ARM GAS  C:\Users\DNIEL~1\AppData\Local\Temp\cc1Z7K1B.s 			page 51


 2841 013c 02000000 		.4byte	.LCFI2
 2842 0140 0200     		.2byte	0x2
 2843 0142 7D       		.byte	0x7d
 2844 0143 00       		.sleb128 0
 2845 0144 02000000 		.4byte	.LCFI2
 2846 0148 06000000 		.4byte	.LCFI3
 2847 014c 0200     		.2byte	0x2
 2848 014e 7D       		.byte	0x7d
 2849 014f 10       		.sleb128 16
 2850 0150 06000000 		.4byte	.LCFI3
 2851 0154 40000000 		.4byte	.LFE123
 2852 0158 0200     		.2byte	0x2
 2853 015a 7D       		.byte	0x7d
 2854 015b 20       		.sleb128 32
 2855 015c 00000000 		.4byte	0
 2856 0160 00000000 		.4byte	0
 2857              	.LLST12:
 2858 0164 00000000 		.4byte	.LVL18
 2859 0168 27000000 		.4byte	.LVL22-1
 2860 016c 0100     		.2byte	0x1
 2861 016e 50       		.byte	0x50
 2862 016f 27000000 		.4byte	.LVL22-1
 2863 0173 40000000 		.4byte	.LFE123
 2864 0177 0100     		.2byte	0x1
 2865 0179 54       		.byte	0x54
 2866 017a 00000000 		.4byte	0
 2867 017e 00000000 		.4byte	0
 2868              	.LLST13:
 2869 0182 00000000 		.4byte	.LVL18
 2870 0186 27000000 		.4byte	.LVL22-1
 2871 018a 0100     		.2byte	0x1
 2872 018c 51       		.byte	0x51
 2873 018d 27000000 		.4byte	.LVL22-1
 2874 0191 40000000 		.4byte	.LFE123
 2875 0195 0400     		.2byte	0x4
 2876 0197 F3       		.byte	0xf3
 2877 0198 01       		.uleb128 0x1
 2878 0199 51       		.byte	0x51
 2879 019a 9F       		.byte	0x9f
 2880 019b 00000000 		.4byte	0
 2881 019f 00000000 		.4byte	0
 2882              	.LLST14:
 2883 01a3 00000000 		.4byte	.LVL18
 2884 01a7 27000000 		.4byte	.LVL22-1
 2885 01ab 0100     		.2byte	0x1
 2886 01ad 52       		.byte	0x52
 2887 01ae 27000000 		.4byte	.LVL22-1
 2888 01b2 40000000 		.4byte	.LFE123
 2889 01b6 0400     		.2byte	0x4
 2890 01b8 F3       		.byte	0xf3
 2891 01b9 01       		.uleb128 0x1
 2892 01ba 52       		.byte	0x52
 2893 01bb 9F       		.byte	0x9f
 2894 01bc 00000000 		.4byte	0
 2895 01c0 00000000 		.4byte	0
 2896              	.LLST15:
 2897 01c4 00000000 		.4byte	.LVL18
ARM GAS  C:\Users\DNIEL~1\AppData\Local\Temp\cc1Z7K1B.s 			page 52


 2898 01c8 0A000000 		.4byte	.LVL19
 2899 01cc 0100     		.2byte	0x1
 2900 01ce 53       		.byte	0x53
 2901 01cf 0A000000 		.4byte	.LVL19
 2902 01d3 40000000 		.4byte	.LFE123
 2903 01d7 0100     		.2byte	0x1
 2904 01d9 56       		.byte	0x56
 2905 01da 00000000 		.4byte	0
 2906 01de 00000000 		.4byte	0
 2907              	.LLST16:
 2908 01e2 0E000000 		.4byte	.LVL20
 2909 01e6 16000000 		.4byte	.LVL21
 2910 01ea 0100     		.2byte	0x1
 2911 01ec 53       		.byte	0x53
 2912 01ed 00000000 		.4byte	0
 2913 01f1 00000000 		.4byte	0
 2914              	.LLST17:
 2915 01f5 36000000 		.4byte	.LVL24
 2916 01f9 3A000000 		.4byte	.LVL25
 2917 01fd 0100     		.2byte	0x1
 2918 01ff 53       		.byte	0x53
 2919 0200 00000000 		.4byte	0
 2920 0204 00000000 		.4byte	0
 2921              	.LLST18:
 2922 0208 00000000 		.4byte	.LFB124
 2923 020c 02000000 		.4byte	.LCFI4
 2924 0210 0200     		.2byte	0x2
 2925 0212 7D       		.byte	0x7d
 2926 0213 00       		.sleb128 0
 2927 0214 02000000 		.4byte	.LCFI4
 2928 0218 06000000 		.4byte	.LCFI5
 2929 021c 0200     		.2byte	0x2
 2930 021e 7D       		.byte	0x7d
 2931 021f 10       		.sleb128 16
 2932 0220 06000000 		.4byte	.LCFI5
 2933 0224 38000000 		.4byte	.LFE124
 2934 0228 0200     		.2byte	0x2
 2935 022a 7D       		.byte	0x7d
 2936 022b 18       		.sleb128 24
 2937 022c 00000000 		.4byte	0
 2938 0230 00000000 		.4byte	0
 2939              	.LLST19:
 2940 0234 00000000 		.4byte	.LVL26
 2941 0238 1F000000 		.4byte	.LVL30-1
 2942 023c 0100     		.2byte	0x1
 2943 023e 50       		.byte	0x50
 2944 023f 1F000000 		.4byte	.LVL30-1
 2945 0243 38000000 		.4byte	.LFE124
 2946 0247 0100     		.2byte	0x1
 2947 0249 54       		.byte	0x54
 2948 024a 00000000 		.4byte	0
 2949 024e 00000000 		.4byte	0
 2950              	.LLST20:
 2951 0252 00000000 		.4byte	.LVL26
 2952 0256 1F000000 		.4byte	.LVL30-1
 2953 025a 0100     		.2byte	0x1
 2954 025c 51       		.byte	0x51
ARM GAS  C:\Users\DNIEL~1\AppData\Local\Temp\cc1Z7K1B.s 			page 53


 2955 025d 1F000000 		.4byte	.LVL30-1
 2956 0261 38000000 		.4byte	.LFE124
 2957 0265 0400     		.2byte	0x4
 2958 0267 F3       		.byte	0xf3
 2959 0268 01       		.uleb128 0x1
 2960 0269 51       		.byte	0x51
 2961 026a 9F       		.byte	0x9f
 2962 026b 00000000 		.4byte	0
 2963 026f 00000000 		.4byte	0
 2964              	.LLST21:
 2965 0273 00000000 		.4byte	.LVL26
 2966 0277 1F000000 		.4byte	.LVL30-1
 2967 027b 0100     		.2byte	0x1
 2968 027d 52       		.byte	0x52
 2969 027e 1F000000 		.4byte	.LVL30-1
 2970 0282 38000000 		.4byte	.LFE124
 2971 0286 0400     		.2byte	0x4
 2972 0288 F3       		.byte	0xf3
 2973 0289 01       		.uleb128 0x1
 2974 028a 52       		.byte	0x52
 2975 028b 9F       		.byte	0x9f
 2976 028c 00000000 		.4byte	0
 2977 0290 00000000 		.4byte	0
 2978              	.LLST22:
 2979 0294 00000000 		.4byte	.LVL26
 2980 0298 0A000000 		.4byte	.LVL27
 2981 029c 0100     		.2byte	0x1
 2982 029e 53       		.byte	0x53
 2983 029f 0A000000 		.4byte	.LVL27
 2984 02a3 38000000 		.4byte	.LFE124
 2985 02a7 0100     		.2byte	0x1
 2986 02a9 56       		.byte	0x56
 2987 02aa 00000000 		.4byte	0
 2988 02ae 00000000 		.4byte	0
 2989              	.LLST23:
 2990 02b2 0E000000 		.4byte	.LVL28
 2991 02b6 16000000 		.4byte	.LVL29
 2992 02ba 0100     		.2byte	0x1
 2993 02bc 53       		.byte	0x53
 2994 02bd 00000000 		.4byte	0
 2995 02c1 00000000 		.4byte	0
 2996              	.LLST24:
 2997 02c5 2E000000 		.4byte	.LVL32
 2998 02c9 32000000 		.4byte	.LVL33
 2999 02cd 0100     		.2byte	0x1
 3000 02cf 53       		.byte	0x53
 3001 02d0 00000000 		.4byte	0
 3002 02d4 00000000 		.4byte	0
 3003              	.LLST25:
 3004 02d8 00000000 		.4byte	.LVL34
 3005 02dc 02000000 		.4byte	.LVL35
 3006 02e0 0100     		.2byte	0x1
 3007 02e2 50       		.byte	0x50
 3008 02e3 02000000 		.4byte	.LVL35
 3009 02e7 05000000 		.4byte	.LVL36-1
 3010 02eb 0300     		.2byte	0x3
 3011 02ed 70       		.byte	0x70
ARM GAS  C:\Users\DNIEL~1\AppData\Local\Temp\cc1Z7K1B.s 			page 54


 3012 02ee 74       		.sleb128 -12
 3013 02ef 9F       		.byte	0x9f
 3014 02f0 05000000 		.4byte	.LVL36-1
 3015 02f4 06000000 		.4byte	.LFE125
 3016 02f8 0400     		.2byte	0x4
 3017 02fa F3       		.byte	0xf3
 3018 02fb 01       		.uleb128 0x1
 3019 02fc 50       		.byte	0x50
 3020 02fd 9F       		.byte	0x9f
 3021 02fe 00000000 		.4byte	0
 3022 0302 00000000 		.4byte	0
 3023              	.LLST26:
 3024 0306 00000000 		.4byte	.LVL37
 3025 030a 03000000 		.4byte	.LVL38-1
 3026 030e 0100     		.2byte	0x1
 3027 0310 50       		.byte	0x50
 3028 0311 03000000 		.4byte	.LVL38-1
 3029 0315 04000000 		.4byte	.LFE126
 3030 0319 0400     		.2byte	0x4
 3031 031b F3       		.byte	0xf3
 3032 031c 01       		.uleb128 0x1
 3033 031d 50       		.byte	0x50
 3034 031e 9F       		.byte	0x9f
 3035 031f 00000000 		.4byte	0
 3036 0323 00000000 		.4byte	0
 3037              		.section	.debug_aranges,"",%progbits
 3038 0000 5C000000 		.4byte	0x5c
 3039 0004 0200     		.2byte	0x2
 3040 0006 00000000 		.4byte	.Ldebug_info0
 3041 000a 04       		.byte	0x4
 3042 000b 00       		.byte	0
 3043 000c 0000     		.2byte	0
 3044 000e 0000     		.2byte	0
 3045 0010 00000000 		.4byte	.LFB118
 3046 0014 04000000 		.4byte	.LFE118-.LFB118
 3047 0018 00000000 		.4byte	.LFB119
 3048 001c 0E000000 		.4byte	.LFE119-.LFB119
 3049 0020 00000000 		.4byte	.LFB120
 3050 0024 1C000000 		.4byte	.LFE120-.LFB120
 3051 0028 00000000 		.4byte	.LFB121
 3052 002c 1A000000 		.4byte	.LFE121-.LFB121
 3053 0030 00000000 		.4byte	.LFB122
 3054 0034 04000000 		.4byte	.LFE122-.LFB122
 3055 0038 00000000 		.4byte	.LFB123
 3056 003c 40000000 		.4byte	.LFE123-.LFB123
 3057 0040 00000000 		.4byte	.LFB124
 3058 0044 38000000 		.4byte	.LFE124-.LFB124
 3059 0048 00000000 		.4byte	.LFB125
 3060 004c 06000000 		.4byte	.LFE125-.LFB125
 3061 0050 00000000 		.4byte	.LFB126
 3062 0054 04000000 		.4byte	.LFE126-.LFB126
 3063 0058 00000000 		.4byte	0
 3064 005c 00000000 		.4byte	0
 3065              		.section	.debug_ranges,"",%progbits
 3066              	.Ldebug_ranges0:
 3067 0000 02000000 		.4byte	.LBB2
 3068 0004 04000000 		.4byte	.LBE2
ARM GAS  C:\Users\DNIEL~1\AppData\Local\Temp\cc1Z7K1B.s 			page 55


 3069 0008 06000000 		.4byte	.LBB3
 3070 000c 0A000000 		.4byte	.LBE3
 3071 0010 00000000 		.4byte	0
 3072 0014 00000000 		.4byte	0
 3073 0018 02000000 		.4byte	.LBB5
 3074 001c 04000000 		.4byte	.LBE5
 3075 0020 06000000 		.4byte	.LBB6
 3076 0024 0A000000 		.4byte	.LBE6
 3077 0028 00000000 		.4byte	0
 3078 002c 00000000 		.4byte	0
 3079 0030 00000000 		.4byte	.LFB118
 3080 0034 04000000 		.4byte	.LFE118
 3081 0038 00000000 		.4byte	.LFB119
 3082 003c 0E000000 		.4byte	.LFE119
 3083 0040 00000000 		.4byte	.LFB120
 3084 0044 1C000000 		.4byte	.LFE120
 3085 0048 00000000 		.4byte	.LFB121
 3086 004c 1A000000 		.4byte	.LFE121
 3087 0050 00000000 		.4byte	.LFB122
 3088 0054 04000000 		.4byte	.LFE122
 3089 0058 00000000 		.4byte	.LFB123
 3090 005c 40000000 		.4byte	.LFE123
 3091 0060 00000000 		.4byte	.LFB124
 3092 0064 38000000 		.4byte	.LFE124
 3093 0068 00000000 		.4byte	.LFB125
 3094 006c 06000000 		.4byte	.LFE125
 3095 0070 00000000 		.4byte	.LFB126
 3096 0074 04000000 		.4byte	.LFE126
 3097 0078 00000000 		.4byte	0
 3098 007c 00000000 		.4byte	0
 3099              		.section	.debug_line,"",%progbits
 3100              	.Ldebug_line0:
 3101 0000 81030000 		.section	.debug_str,"MS",%progbits,1
 3101      0200AC02 
 3101      00000201 
 3101      FB0E0D00 
 3101      01010101 
 3102              	.LASF93:
 3103 0000 5354445F 		.ascii	"STD_DUTY_CYCLE\000"
 3103      44555459 
 3103      5F435943 
 3103      4C4500
 3104              	.LASF109:
 3105 000f 646D6172 		.ascii	"dmarx\000"
 3105      7800
 3106              	.LASF96:
 3107 0015 69326364 		.ascii	"i2cdutycycle_t\000"
 3107      75747963 
 3107      79636C65 
 3107      5F7400
 3108              	.LASF86:
 3109 0024 69326373 		.ascii	"i2cstate_t\000"
 3109      74617465 
 3109      5F7400
 3110              	.LASF58:
 3111 002f 4D304152 		.ascii	"M0AR\000"
 3111      00
ARM GAS  C:\Users\DNIEL~1\AppData\Local\Temp\cc1Z7K1B.s 			page 56


 3112              	.LASF2:
 3113 0034 73697A65 		.ascii	"size_t\000"
 3113      5F7400
 3114              	.LASF52:
 3115 003b 7264796D 		.ascii	"rdymsg\000"
 3115      736700
 3116              	.LASF81:
 3117 0042 4932435F 		.ascii	"I2C_STOP\000"
 3117      53544F50 
 3117      00
 3118              	.LASF130:
 3119 004b 6932635F 		.ascii	"i2c_lld_master_receive_timeout\000"
 3119      6C6C645F 
 3119      6D617374 
 3119      65725F72 
 3119      65636569 
 3120              	.LASF71:
 3121 006a 54524953 		.ascii	"TRISE\000"
 3121      4500
 3122              	.LASF74:
 3123 0070 73747265 		.ascii	"stream\000"
 3123      616D00
 3124              	.LASF13:
 3125 0077 6C6F6E67 		.ascii	"long long unsigned int\000"
 3125      206C6F6E 
 3125      6720756E 
 3125      7369676E 
 3125      65642069 
 3126              	.LASF107:
 3127 008e 61646472 		.ascii	"addr\000"
 3127      00
 3128              	.LASF113:
 3129 0093 69326353 		.ascii	"i2cStart\000"
 3129      74617274 
 3129      00
 3130              	.LASF53:
 3131 009c 65786974 		.ascii	"exitcode\000"
 3131      636F6465 
 3131      00
 3132              	.LASF78:
 3133 00a5 76656374 		.ascii	"vector\000"
 3133      6F7200
 3134              	.LASF125:
 3135 00ac 69326352 		.ascii	"i2cReleaseBus\000"
 3135      656C6561 
 3135      73654275 
 3135      7300
 3136              	.LASF135:
 3137 00ba 49544D5F 		.ascii	"ITM_RxBuffer\000"
 3137      52784275 
 3137      66666572 
 3137      00
 3138              	.LASF114:
 3139 00c7 69326370 		.ascii	"i2cp\000"
 3139      00
 3140              	.LASF49:
 3141 00cc 6D5F7175 		.ascii	"m_queue\000"
ARM GAS  C:\Users\DNIEL~1\AppData\Local\Temp\cc1Z7K1B.s 			page 57


 3141      65756500 
 3142              	.LASF25:
 3143 00d4 705F7072 		.ascii	"p_prio\000"
 3143      696F00
 3144              	.LASF117:
 3145 00db 6932634D 		.ascii	"i2cMasterTransmitTimeout\000"
 3145      61737465 
 3145      72547261 
 3145      6E736D69 
 3145      7454696D 
 3146              	.LASF137:
 3147 00f4 63684D74 		.ascii	"chMtxUnlock\000"
 3147      78556E6C 
 3147      6F636B00 
 3148              	.LASF1:
 3149 0100 7369676E 		.ascii	"signed char\000"
 3149      65642063 
 3149      68617200 
 3150              	.LASF98:
 3151 010c 636C6F63 		.ascii	"clock_speed\000"
 3151      6B5F7370 
 3151      65656400 
 3152              	.LASF41:
 3153 0118 705F6D70 		.ascii	"p_mpool\000"
 3153      6F6F6C00 
 3154              	.LASF120:
 3155 0120 72786275 		.ascii	"rxbuf\000"
 3155      6600
 3156              	.LASF129:
 3157 0126 6932635F 		.ascii	"i2c_lld_master_transmit_timeout\000"
 3157      6C6C645F 
 3157      6D617374 
 3157      65725F74 
 3157      72616E73 
 3158              	.LASF17:
 3159 0146 74736C69 		.ascii	"tslices_t\000"
 3159      6365735F 
 3159      7400
 3160              	.LASF87:
 3161 0150 69326361 		.ascii	"i2caddr_t\000"
 3161      6464725F 
 3161      7400
 3162              	.LASF102:
 3163 015a 73746174 		.ascii	"state\000"
 3163      6500
 3164              	.LASF9:
 3165 0160 6C6F6E67 		.ascii	"long int\000"
 3165      20696E74 
 3165      00
 3166              	.LASF15:
 3167 0169 74737461 		.ascii	"tstate_t\000"
 3167      74655F74 
 3167      00
 3168              	.LASF106:
 3169 0172 74687265 		.ascii	"thread\000"
 3169      616400
 3170              	.LASF32:
ARM GAS  C:\Users\DNIEL~1\AppData\Local\Temp\cc1Z7K1B.s 			page 58


 3171 0179 705F7265 		.ascii	"p_refs\000"
 3171      667300
 3172              	.LASF12:
 3173 0180 6C6F6E67 		.ascii	"long long int\000"
 3173      206C6F6E 
 3173      6720696E 
 3173      7400
 3174              	.LASF100:
 3175 018e 49324343 		.ascii	"I2CConfig\000"
 3175      6F6E6669 
 3175      6700
 3176              	.LASF34:
 3177 0198 705F7469 		.ascii	"p_time\000"
 3177      6D6500
 3178              	.LASF27:
 3179 019f 705F6E65 		.ascii	"p_newer\000"
 3179      77657200 
 3180              	.LASF110:
 3181 01a7 646D6174 		.ascii	"dmatx\000"
 3181      7800
 3182              	.LASF91:
 3183 01ad 4F504D4F 		.ascii	"OPMODE_SMBUS_HOST\000"
 3183      44455F53 
 3183      4D425553 
 3183      5F484F53 
 3183      5400
 3184              	.LASF44:
 3185 01bf 72656761 		.ascii	"regarm_t\000"
 3185      726D5F74 
 3185      00
 3186              	.LASF77:
 3187 01c8 73656C66 		.ascii	"selfindex\000"
 3187      696E6465 
 3187      7800
 3188              	.LASF97:
 3189 01d2 6F705F6D 		.ascii	"op_mode\000"
 3189      6F646500 
 3190              	.LASF0:
 3191 01da 756E7369 		.ascii	"unsigned int\000"
 3191      676E6564 
 3191      20696E74 
 3191      00
 3192              	.LASF118:
 3193 01e7 74786275 		.ascii	"txbuf\000"
 3193      6600
 3194              	.LASF104:
 3195 01ed 6572726F 		.ascii	"errors\000"
 3195      727300
 3196              	.LASF36:
 3197 01f4 705F6D73 		.ascii	"p_msgqueue\000"
 3197      67717565 
 3197      756500
 3198              	.LASF122:
 3199 01ff 74696D65 		.ascii	"timeout\000"
 3199      6F757400 
 3200              	.LASF76:
 3201 0207 69736869 		.ascii	"ishift\000"
ARM GAS  C:\Users\DNIEL~1\AppData\Local\Temp\cc1Z7K1B.s 			page 59


 3201      667400
 3202              	.LASF90:
 3203 020e 4F504D4F 		.ascii	"OPMODE_SMBUS_DEVICE\000"
 3203      44455F53 
 3203      4D425553 
 3203      5F444556 
 3203      49434500 
 3204              	.LASF7:
 3205 0222 73686F72 		.ascii	"short unsigned int\000"
 3205      7420756E 
 3205      7369676E 
 3205      65642069 
 3205      6E7400
 3206              	.LASF101:
 3207 0235 49324344 		.ascii	"I2CDriver\000"
 3207      72697665 
 3207      7200
 3208              	.LASF19:
 3209 023f 6D73675F 		.ascii	"msg_t\000"
 3209      7400
 3210              	.LASF14:
 3211 0245 746D6F64 		.ascii	"tmode_t\000"
 3211      655F7400 
 3212              	.LASF6:
 3213 024d 75696E74 		.ascii	"uint16_t\000"
 3213      31365F74 
 3213      00
 3214              	.LASF43:
 3215 0256 54687265 		.ascii	"ThreadsList\000"
 3215      6164734C 
 3215      69737400 
 3216              	.LASF20:
 3217 0262 6576656E 		.ascii	"eventmask_t\000"
 3217      746D6173 
 3217      6B5F7400 
 3218              	.LASF5:
 3219 026e 73686F72 		.ascii	"short int\000"
 3219      7420696E 
 3219      7400
 3220              	.LASF128:
 3221 0278 6932635F 		.ascii	"i2c_lld_stop\000"
 3221      6C6C645F 
 3221      73746F70 
 3221      00
 3222              	.LASF127:
 3223 0285 6932635F 		.ascii	"i2c_lld_start\000"
 3223      6C6C645F 
 3223      73746172 
 3223      7400
 3224              	.LASF47:
 3225 0293 73697A65 		.ascii	"sizetype\000"
 3225      74797065 
 3225      00
 3226              	.LASF48:
 3227 029c 4D757465 		.ascii	"Mutex\000"
 3227      7800
 3228              	.LASF99:
ARM GAS  C:\Users\DNIEL~1\AppData\Local\Temp\cc1Z7K1B.s 			page 60


 3229 02a2 64757479 		.ascii	"duty_cycle\000"
 3229      5F637963 
 3229      6C6500
 3230              	.LASF131:
 3231 02ad 63684D74 		.ascii	"chMtxLock\000"
 3231      784C6F63 
 3231      6B00
 3232              	.LASF132:
 3233 02b7 474E5520 		.ascii	"GNU C 4.7.4 20140401 (release) [ARM/embedded-4_7-br"
 3233      4320342E 
 3233      372E3420 
 3233      32303134 
 3233      30343031 
 3234 02ea 616E6368 		.ascii	"anch revision 209195]\000"
 3234      20726576 
 3234      6973696F 
 3234      6E203230 
 3234      39313935 
 3235              	.LASF28:
 3236 0300 705F6F6C 		.ascii	"p_older\000"
 3236      64657200 
 3237              	.LASF121:
 3238 0308 72786279 		.ascii	"rxbytes\000"
 3238      74657300 
 3239              	.LASF115:
 3240 0310 69326353 		.ascii	"i2cStop\000"
 3240      746F7000 
 3241              	.LASF42:
 3242 0318 54687265 		.ascii	"ThreadsQueue\000"
 3242      61647351 
 3242      75657565 
 3242      00
 3243              	.LASF89:
 3244 0325 4F504D4F 		.ascii	"OPMODE_I2C\000"
 3244      44455F49 
 3244      324300
 3245              	.LASF95:
 3246 0330 46415354 		.ascii	"FAST_DUTY_CYCLE_16_9\000"
 3246      5F445554 
 3246      595F4359 
 3246      434C455F 
 3246      31365F39 
 3247              	.LASF16:
 3248 0345 74726566 		.ascii	"trefs_t\000"
 3248      735F7400 
 3249              	.LASF61:
 3250 034d 52455345 		.ascii	"RESERVED0\000"
 3250      52564544 
 3250      3000
 3251              	.LASF62:
 3252 0357 52455345 		.ascii	"RESERVED1\000"
 3252      52564544 
 3252      3100
 3253              	.LASF64:
 3254 0361 52455345 		.ascii	"RESERVED2\000"
 3254      52564544 
 3254      3200
ARM GAS  C:\Users\DNIEL~1\AppData\Local\Temp\cc1Z7K1B.s 			page 61


 3255              	.LASF66:
 3256 036b 52455345 		.ascii	"RESERVED3\000"
 3256      52564544 
 3256      3300
 3257              	.LASF67:
 3258 0375 52455345 		.ascii	"RESERVED4\000"
 3258      52564544 
 3258      3400
 3259              	.LASF24:
 3260 037f 705F7072 		.ascii	"p_prev\000"
 3260      657600
 3261              	.LASF69:
 3262 0386 52455345 		.ascii	"RESERVED6\000"
 3262      52564544 
 3262      3600
 3263              	.LASF70:
 3264 0390 52455345 		.ascii	"RESERVED7\000"
 3264      52564544 
 3264      3700
 3265              	.LASF72:
 3266 039a 52455345 		.ascii	"RESERVED8\000"
 3266      52564544 
 3266      3800
 3267              	.LASF18:
 3268 03a4 74707269 		.ascii	"tprio_t\000"
 3268      6F5F7400 
 3269              	.LASF83:
 3270 03ac 4932435F 		.ascii	"I2C_ACTIVE_TX\000"
 3270      41435449 
 3270      56455F54 
 3270      5800
 3271              	.LASF88:
 3272 03ba 69326366 		.ascii	"i2cflags_t\000"
 3272      6C616773 
 3272      5F7400
 3273              	.LASF105:
 3274 03c5 6D757465 		.ascii	"mutex\000"
 3274      7800
 3275              	.LASF8:
 3276 03cb 696E7433 		.ascii	"int32_t\000"
 3276      325F7400 
 3277              	.LASF4:
 3278 03d3 756E7369 		.ascii	"unsigned char\000"
 3278      676E6564 
 3278      20636861 
 3278      7200
 3279              	.LASF79:
 3280 03e1 73746D33 		.ascii	"stm32_dma_stream_t\000"
 3280      325F646D 
 3280      615F7374 
 3280      7265616D 
 3280      5F7400
 3281              	.LASF39:
 3282 03f4 705F6D74 		.ascii	"p_mtxlist\000"
 3282      786C6973 
 3282      7400
 3283              	.LASF80:
ARM GAS  C:\Users\DNIEL~1\AppData\Local\Temp\cc1Z7K1B.s 			page 62


 3284 03fe 4932435F 		.ascii	"I2C_UNINIT\000"
 3284      554E494E 
 3284      495400
 3285              	.LASF30:
 3286 0409 705F7374 		.ascii	"p_state\000"
 3286      61746500 
 3287              	.LASF33:
 3288 0411 705F7072 		.ascii	"p_preempt\000"
 3288      65656D70 
 3288      7400
 3289              	.LASF116:
 3290 041b 69326347 		.ascii	"i2cGetErrors\000"
 3290      65744572 
 3290      726F7273 
 3290      00
 3291              	.LASF55:
 3292 0428 65776D61 		.ascii	"ewmask\000"
 3292      736B00
 3293              	.LASF23:
 3294 042f 705F6E65 		.ascii	"p_next\000"
 3294      787400
 3295              	.LASF31:
 3296 0436 705F666C 		.ascii	"p_flags\000"
 3296      61677300 
 3297              	.LASF133:
 3298 043e 2E2E2F2E 		.ascii	"../../../ChibiOS/os/hal/src/i2c.c\000"
 3298      2E2F2E2E 
 3298      2F436869 
 3298      62694F53 
 3298      2F6F732F 
 3299              	.LASF94:
 3300 0460 46415354 		.ascii	"FAST_DUTY_CYCLE_2\000"
 3300      5F445554 
 3300      595F4359 
 3300      434C455F 
 3300      3200
 3301              	.LASF22:
 3302 0472 54687265 		.ascii	"Thread\000"
 3302      616400
 3303              	.LASF85:
 3304 0479 4932435F 		.ascii	"I2C_LOCKED\000"
 3304      4C4F434B 
 3304      454400
 3305              	.LASF38:
 3306 0484 705F6570 		.ascii	"p_epending\000"
 3306      656E6469 
 3306      6E6700
 3307              	.LASF75:
 3308 048f 69666372 		.ascii	"ifcr\000"
 3308      00
 3309              	.LASF68:
 3310 0494 52455345 		.ascii	"RESERVED5\000"
 3310      52564544 
 3310      3500
 3311              	.LASF10:
 3312 049e 75696E74 		.ascii	"uint32_t\000"
 3312      33325F74 
ARM GAS  C:\Users\DNIEL~1\AppData\Local\Temp\cc1Z7K1B.s 			page 63


 3312      00
 3313              	.LASF84:
 3314 04a7 4932435F 		.ascii	"I2C_ACTIVE_RX\000"
 3314      41435449 
 3314      56455F52 
 3314      5800
 3315              	.LASF11:
 3316 04b5 6C6F6E67 		.ascii	"long unsigned int\000"
 3316      20756E73 
 3316      69676E65 
 3316      6420696E 
 3316      7400
 3317              	.LASF56:
 3318 04c7 63686172 		.ascii	"char\000"
 3318      00
 3319              	.LASF103:
 3320 04cc 636F6E66 		.ascii	"config\000"
 3320      696700
 3321              	.LASF51:
 3322 04d3 6D5F6E65 		.ascii	"m_next\000"
 3322      787400
 3323              	.LASF21:
 3324 04da 73797374 		.ascii	"systime_t\000"
 3324      696D655F 
 3324      7400
 3325              	.LASF40:
 3326 04e4 705F7265 		.ascii	"p_realprio\000"
 3326      616C7072 
 3326      696F00
 3327              	.LASF57:
 3328 04ef 4E445452 		.ascii	"NDTR\000"
 3328      00
 3329              	.LASF82:
 3330 04f4 4932435F 		.ascii	"I2C_READY\000"
 3330      52454144 
 3330      5900
 3331              	.LASF60:
 3332 04fe 444D415F 		.ascii	"DMA_Stream_TypeDef\000"
 3332      53747265 
 3332      616D5F54 
 3332      79706544 
 3332      656600
 3333              	.LASF46:
 3334 0511 636F6E74 		.ascii	"context\000"
 3334      65787400 
 3335              	.LASF45:
 3336 0519 696E7463 		.ascii	"intctx\000"
 3336      747800
 3337              	.LASF59:
 3338 0520 4D314152 		.ascii	"M1AR\000"
 3338      00
 3339              	.LASF126:
 3340 0525 63684D74 		.ascii	"chMtxInit\000"
 3340      78496E69 
 3340      7400
 3341              	.LASF136:
 3342 052f 6932635F 		.ascii	"i2c_lld_init\000"
ARM GAS  C:\Users\DNIEL~1\AppData\Local\Temp\cc1Z7K1B.s 			page 64


 3342      6C6C645F 
 3342      696E6974 
 3342      00
 3343              	.LASF124:
 3344 053c 69326341 		.ascii	"i2cAcquireBus\000"
 3344      63717569 
 3344      72654275 
 3344      7300
 3345              	.LASF134:
 3346 054a 433A5C55 		.ascii	"C:\\Users\\D\341niel\\git\\Smarty\\smarty\\firmware"
 3346      73657273 
 3346      5C44E16E 
 3346      69656C5C 
 3346      6769745C 
 3347 0574 00       		.ascii	"\000"
 3348              	.LASF3:
 3349 0575 75696E74 		.ascii	"uint8_t\000"
 3349      385F7400 
 3350              	.LASF63:
 3351 057d 4F415231 		.ascii	"OAR1\000"
 3351      00
 3352              	.LASF65:
 3353 0582 4F415232 		.ascii	"OAR2\000"
 3353      00
 3354              	.LASF123:
 3355 0587 6932634D 		.ascii	"i2cMasterReceiveTimeout\000"
 3355      61737465 
 3355      72526563 
 3355      65697665 
 3355      54696D65 
 3356              	.LASF108:
 3357 059f 646D616D 		.ascii	"dmamode\000"
 3357      6F646500 
 3358              	.LASF54:
 3359 05a7 77746F62 		.ascii	"wtobjp\000"
 3359      6A7000
 3360              	.LASF29:
 3361 05ae 705F6E61 		.ascii	"p_name\000"
 3361      6D6500
 3362              	.LASF111:
 3363 05b5 69326349 		.ascii	"i2cInit\000"
 3363      6E697400 
 3364              	.LASF37:
 3365 05bd 705F6D73 		.ascii	"p_msg\000"
 3365      6700
 3366              	.LASF73:
 3367 05c3 4932435F 		.ascii	"I2C_TypeDef\000"
 3367      54797065 
 3367      44656600 
 3368              	.LASF92:
 3369 05cf 6932636F 		.ascii	"i2copmode_t\000"
 3369      706D6F64 
 3369      655F7400 
 3370              	.LASF112:
 3371 05db 6932634F 		.ascii	"i2cObjectInit\000"
 3371      626A6563 
 3371      74496E69 
ARM GAS  C:\Users\DNIEL~1\AppData\Local\Temp\cc1Z7K1B.s 			page 65


 3371      7400
 3372              	.LASF50:
 3373 05e9 6D5F6F77 		.ascii	"m_owner\000"
 3373      6E657200 
 3374              	.LASF26:
 3375 05f1 705F6374 		.ascii	"p_ctx\000"
 3375      7800
 3376              	.LASF35:
 3377 05f7 705F7761 		.ascii	"p_waiting\000"
 3377      6974696E 
 3377      6700
 3378              	.LASF119:
 3379 0601 74786279 		.ascii	"txbytes\000"
 3379      74657300 
 3380              		.ident	"GCC: (GNU Tools for ARM Embedded Processors) 4.7.4 20140401 (release) [ARM/embedded-4_7-br
ARM GAS  C:\Users\DNIEL~1\AppData\Local\Temp\cc1Z7K1B.s 			page 66


DEFINED SYMBOLS
                            *ABS*:00000000 i2c.c
C:\Users\DNIEL~1\AppData\Local\Temp\cc1Z7K1B.s:19     .text.i2cInit:00000000 $t
C:\Users\DNIEL~1\AppData\Local\Temp\cc1Z7K1B.s:25     .text.i2cInit:00000000 i2cInit
C:\Users\DNIEL~1\AppData\Local\Temp\cc1Z7K1B.s:41     .text.i2cObjectInit:00000000 $t
C:\Users\DNIEL~1\AppData\Local\Temp\cc1Z7K1B.s:47     .text.i2cObjectInit:00000000 i2cObjectInit
C:\Users\DNIEL~1\AppData\Local\Temp\cc1Z7K1B.s:74     .text.i2cStart:00000000 $t
C:\Users\DNIEL~1\AppData\Local\Temp\cc1Z7K1B.s:80     .text.i2cStart:00000000 i2cStart
C:\Users\DNIEL~1\AppData\Local\Temp\cc1Z7K1B.s:130    .text.i2cStop:00000000 $t
C:\Users\DNIEL~1\AppData\Local\Temp\cc1Z7K1B.s:136    .text.i2cStop:00000000 i2cStop
C:\Users\DNIEL~1\AppData\Local\Temp\cc1Z7K1B.s:184    .text.i2cGetErrors:00000000 $t
C:\Users\DNIEL~1\AppData\Local\Temp\cc1Z7K1B.s:190    .text.i2cGetErrors:00000000 i2cGetErrors
C:\Users\DNIEL~1\AppData\Local\Temp\cc1Z7K1B.s:206    .text.i2cMasterTransmitTimeout:00000000 $t
C:\Users\DNIEL~1\AppData\Local\Temp\cc1Z7K1B.s:212    .text.i2cMasterTransmitTimeout:00000000 i2cMasterTransmitTimeout
C:\Users\DNIEL~1\AppData\Local\Temp\cc1Z7K1B.s:290    .text.i2cMasterReceiveTimeout:00000000 $t
C:\Users\DNIEL~1\AppData\Local\Temp\cc1Z7K1B.s:296    .text.i2cMasterReceiveTimeout:00000000 i2cMasterReceiveTimeout
C:\Users\DNIEL~1\AppData\Local\Temp\cc1Z7K1B.s:370    .text.i2cAcquireBus:00000000 $t
C:\Users\DNIEL~1\AppData\Local\Temp\cc1Z7K1B.s:376    .text.i2cAcquireBus:00000000 i2cAcquireBus
C:\Users\DNIEL~1\AppData\Local\Temp\cc1Z7K1B.s:395    .text.i2cReleaseBus:00000000 $t
C:\Users\DNIEL~1\AppData\Local\Temp\cc1Z7K1B.s:401    .text.i2cReleaseBus:00000000 i2cReleaseBus
                     .debug_frame:00000010 $d

UNDEFINED SYMBOLS
i2c_lld_init
chMtxInit
i2c_lld_start
i2c_lld_stop
i2c_lld_master_transmit_timeout
i2c_lld_master_receive_timeout
chMtxLock
chMtxUnlock
