ARM GAS  C:\Users\DNIEL~1\AppData\Local\Temp\ccoq8iC7.s 			page 1


   1              		.syntax unified
   2              		.cpu cortex-m4
   3              		.fpu softvfp
   4              		.eabi_attribute 20, 1
   5              		.eabi_attribute 21, 1
   6              		.eabi_attribute 23, 3
   7              		.eabi_attribute 24, 1
   8              		.eabi_attribute 25, 1
   9              		.eabi_attribute 26, 1
  10              		.eabi_attribute 30, 2
  11              		.eabi_attribute 18, 4
  12              		.thumb
  13              		.file	"i2c_lld.c"
  20 0000 CE050000 		.text
  20      0200A802 
  20      00000201 
  20      FB0E0D00 
  20      01010101 
  21              	.Ltext0:
  22              		.cfi_sections	.debug_frame
  23              		.section	.text.i2c_lld_abort_operation,"ax",%progbits
  24              		.align	2
  25              		.p2align 4,,15
  26              		.thumb
  27              		.thumb_func
  28              		.type	i2c_lld_abort_operation, %function
  29              	i2c_lld_abort_operation:
  30              	.LFB118:
  31              		.file 1 "../../../ChibiOS/os/hal/platforms/STM32/I2Cv1/i2c_lld.c"
  32              		.loc 1 135 0
  33              		.cfi_startproc
  34              		@ args = 0, pretend = 0, frame = 0
  35              		@ frame_needed = 0, uses_anonymous_args = 0
  36              		@ link register save eliminated.
  37              	.LVL0:
  38 0000 30B4     		push	{r4, r5}
  39              	.LCFI0:
  40              		.cfi_def_cfa_offset 8
  41              		.loc 1 136 0
  42 0002 036B     		ldr	r3, [r0, #48]
  43              	.LVL1:
  44              		.loc 1 145 0
  45 0004 C46A     		ldr	r4, [r0, #44]
  46              		.cfi_offset 5, -4
  47              		.cfi_offset 4, -8
  48              		.loc 1 139 0
  49 0006 48F20002 		movw	r2, 32768	@ movhi
  50 000a 1A80     		strh	r2, [r3, #0]	@ movhi
  51              		.loc 1 140 0
  52 000c 0025     		movs	r5, #0
  53              		.loc 1 145 0
ARM GAS  C:\Users\DNIEL~1\AppData\Local\Temp\ccoq8iC7.s 			page 2


  54 000e 2268     		ldr	r2, [r4, #0]
  55              		.loc 1 140 0
  56 0010 1D80     		strh	r5, [r3, #0]	@ movhi
  57              		.loc 1 141 0
  58 0012 9D80     		strh	r5, [r3, #4]	@ movhi
  59              		.loc 1 142 0
  60 0014 9D82     		strh	r5, [r3, #20]	@ movhi
  61              		.loc 1 145 0
  62 0016 1168     		ldr	r1, [r2, #0]
  63 0018 21F00103 		bic	r3, r1, #1
  64 001c 1360     		str	r3, [r2, #0]
  65              	.L2:
  66              		.loc 1 145 0 is_stmt 0 discriminator 1
  67 001e 1168     		ldr	r1, [r2, #0]
  68 0020 11F0010F 		tst	r1, #1
  69 0024 FBD1     		bne	.L2
  70              		.loc 1 146 0 is_stmt 1 discriminator 2
  71 0026 816A     		ldr	r1, [r0, #40]
  72              		.loc 1 145 0 discriminator 2
  73 0028 257A     		ldrb	r5, [r4, #8]	@ zero_extendqisi2
  74 002a 6368     		ldr	r3, [r4, #4]
  75              		.loc 1 146 0 discriminator 2
  76 002c 0A68     		ldr	r2, [r1, #0]
  77              		.loc 1 145 0 discriminator 2
  78 002e 3D20     		movs	r0, #61
  79              	.LVL2:
  80 0030 A840     		lsls	r0, r0, r5
  81 0032 1860     		str	r0, [r3, #0]
  82              		.loc 1 146 0 discriminator 2
  83 0034 1368     		ldr	r3, [r2, #0]
  84 0036 23F00100 		bic	r0, r3, #1
  85 003a 1060     		str	r0, [r2, #0]
  86              	.L3:
  87              		.loc 1 146 0 is_stmt 0 discriminator 1
  88 003c 1368     		ldr	r3, [r2, #0]
  89 003e 13F0010F 		tst	r3, #1
  90 0042 FBD1     		bne	.L3
  91              		.loc 1 146 0 discriminator 2
  92 0044 0B7A     		ldrb	r3, [r1, #8]	@ zero_extendqisi2
  93 0046 4868     		ldr	r0, [r1, #4]
  94 0048 3D21     		movs	r1, #61
  95 004a 11FA03F2 		lsls	r2, r1, r3
  96 004e 0260     		str	r2, [r0, #0]
  97              		.loc 1 147 0 is_stmt 1 discriminator 2
  98 0050 30BC     		pop	{r4, r5}
  99 0052 7047     		bx	lr
 100              		.cfi_endproc
 101              	.LFE118:
 102              		.size	i2c_lld_abort_operation, .-i2c_lld_abort_operation
 103 0054 AFF30080 		.section	.text.i2c_lld_safety_timeout,"ax",%progbits
 103      AFF30080 
 103      AFF30080 
 104              		.align	2
 105              		.p2align 4,,15
 106              		.thumb
 107              		.thumb_func
 108              		.type	i2c_lld_safety_timeout, %function
ARM GAS  C:\Users\DNIEL~1\AppData\Local\Temp\ccoq8iC7.s 			page 3


 109              	i2c_lld_safety_timeout:
 110              	.LFB119:
 111              		.loc 1 156 0
 112              		.cfi_startproc
 113              		@ args = 0, pretend = 0, frame = 0
 114              		@ frame_needed = 0, uses_anonymous_args = 0
 115              	.LVL3:
 116 0000 38B5     		push	{r3, r4, r5, lr}
 117              	.LCFI1:
 118              		.cfi_def_cfa_offset 16
 119              		.loc 1 156 0
 120 0002 0446     		mov	r4, r0
 121              		.cfi_offset 14, -4
 122              		.cfi_offset 5, -8
 123              		.cfi_offset 4, -12
 124              		.cfi_offset 3, -16
 125              	.LVL4:
 126              	.LBB23:
 127              		.loc 1 159 0
 128 0004 2023     		movs	r3, #32
 129              	.LVL5:
 130              	@ 159 "../../../ChibiOS/os/hal/platforms/STM32/I2Cv1/i2c_lld.c" 1
 131 0006 83F31188 		msr     BASEPRI, r3
 132              	@ 0 "" 2
 133              	.LVL6:
 134              		.thumb
 135              	.LBE23:
 136              		.loc 1 160 0
 137 000a C569     		ldr	r5, [r0, #28]
 138 000c 4DB1     		cbz	r5, .L8
 139              	.LVL7:
 140              	.LBB24:
 141              		.loc 1 162 0
 142 000e FFF7FEFF 		bl	i2c_lld_abort_operation
 143              	.LVL8:
 144              		.loc 1 163 0
 145 0012 0020     		movs	r0, #0
 146              		.loc 1 164 0
 147 0014 4FF0FF33 		mov	r3, #-1
 148              		.loc 1 163 0
 149 0018 E061     		str	r0, [r4, #28]
 150              		.loc 1 165 0
 151 001a 2846     		mov	r0, r5
 152              		.loc 1 164 0
 153 001c 6B62     		str	r3, [r5, #36]
 154              		.loc 1 165 0
 155 001e FFF7FEFF 		bl	chSchReadyI
 156              	.LVL9:
 157              	.L8:
 158              	.LBE24:
 159              	.LBB25:
 160              		.loc 1 167 0
 161 0022 0023     		movs	r3, #0
 162              	.LVL10:
 163              	@ 167 "../../../ChibiOS/os/hal/platforms/STM32/I2Cv1/i2c_lld.c" 1
 164 0024 83F31188 		msr     BASEPRI, r3
 165              	@ 0 "" 2
ARM GAS  C:\Users\DNIEL~1\AppData\Local\Temp\ccoq8iC7.s 			page 4


 166              	.LVL11:
 167              		.thumb
 168              	.LBE25:
 169              		.loc 1 168 0
 170 0028 38BD     		pop	{r3, r4, r5, pc}
 171              		.cfi_endproc
 172              	.LFE119:
 173              		.size	i2c_lld_safety_timeout, .-i2c_lld_safety_timeout
 174 002a 00BFAFF3 		.section	.text.i2c_lld_serve_tx_end_irq,"ax",%progbits
 174      0080
 175              		.align	2
 176              		.p2align 4,,15
 177              		.thumb
 178              		.thumb_func
 179              		.type	i2c_lld_serve_tx_end_irq, %function
 180              	i2c_lld_serve_tx_end_irq:
 181              	.LFB124:
 182              		.loc 1 364 0
 183              		.cfi_startproc
 184              		@ args = 0, pretend = 0, frame = 0
 185              		@ frame_needed = 0, uses_anonymous_args = 0
 186              	.LVL12:
 187              		.loc 1 369 0
 188 0000 11F00C0F 		tst	r1, #12
 189              		.loc 1 364 0
 190 0004 38B5     		push	{r3, r4, r5, lr}
 191              	.LCFI2:
 192              		.cfi_def_cfa_offset 16
 193              		.loc 1 364 0
 194 0006 0546     		mov	r5, r0
 195              		.cfi_offset 14, -4
 196              		.cfi_offset 5, -8
 197              		.cfi_offset 4, -12
 198              		.cfi_offset 3, -16
 199              		.loc 1 365 0
 200 0008 046B     		ldr	r4, [r0, #48]
 201              	.LVL13:
 202              		.loc 1 369 0
 203 000a 17D1     		bne	.L13
 204              	.LVL14:
 205              	.L10:
 206              		.loc 1 376 0
 207 000c E96A     		ldr	r1, [r5, #44]
 208 000e 0A68     		ldr	r2, [r1, #0]
 209 0010 1068     		ldr	r0, [r2, #0]
 210 0012 20F00103 		bic	r3, r0, #1
 211 0016 1360     		str	r3, [r2, #0]
 212              	.L11:
 213              		.loc 1 376 0 is_stmt 0 discriminator 1
 214 0018 1368     		ldr	r3, [r2, #0]
 215 001a 13F0010F 		tst	r3, #1
 216 001e FBD1     		bne	.L11
 217              		.loc 1 376 0 discriminator 2
 218 0020 0A7A     		ldrb	r2, [r1, #8]	@ zero_extendqisi2
 219 0022 4B68     		ldr	r3, [r1, #4]
 220 0024 3D21     		movs	r1, #61
 221 0026 11FA02F0 		lsls	r0, r1, r2
ARM GAS  C:\Users\DNIEL~1\AppData\Local\Temp\ccoq8iC7.s 			page 5


 222 002a 1860     		str	r0, [r3, #0]
 223              		.loc 1 380 0 is_stmt 1 discriminator 2
 224 002c B4F804C0 		ldrh	ip, [r4, #4]
 225 0030 1FFA8CF2 		uxth	r2, ip
 226 0034 42F40071 		orr	r1, r2, #512
 227 0038 A180     		strh	r1, [r4, #4]	@ movhi
 228              		.loc 1 381 0 discriminator 2
 229 003a 38BD     		pop	{r3, r4, r5, pc}
 230              	.LVL15:
 231              	.L13:
 232              		.loc 1 370 0
 233 003c FFF7FEFF 		bl	port_halt
 234              	.LVL16:
 235 0040 E4E7     		b	.L10
 236              		.cfi_endproc
 237              	.LFE124:
 238              		.size	i2c_lld_serve_tx_end_irq, .-i2c_lld_serve_tx_end_irq
 239 0042 00BFAFF3 		.section	.text.i2c_lld_serve_rx_end_irq,"ax",%progbits
 239      0080AFF3 
 239      0080AFF3 
 239      0080
 240              		.align	2
 241              		.p2align 4,,15
 242              		.thumb
 243              		.thumb_func
 244              		.type	i2c_lld_serve_rx_end_irq, %function
 245              	i2c_lld_serve_rx_end_irq:
 246              	.LFB123:
 247              		.loc 1 337 0
 248              		.cfi_startproc
 249              		@ args = 0, pretend = 0, frame = 0
 250              		@ frame_needed = 0, uses_anonymous_args = 0
 251              	.LVL17:
 252              		.loc 1 342 0
 253 0000 11F00C0F 		tst	r1, #12
 254              		.loc 1 337 0
 255 0004 38B5     		push	{r3, r4, r5, lr}
 256              	.LCFI3:
 257              		.cfi_def_cfa_offset 16
 258              		.loc 1 337 0
 259 0006 0446     		mov	r4, r0
 260              		.cfi_offset 14, -4
 261              		.cfi_offset 5, -8
 262              		.cfi_offset 4, -12
 263              		.cfi_offset 3, -16
 264              		.loc 1 338 0
 265 0008 056B     		ldr	r5, [r0, #48]
 266              	.LVL18:
 267              		.loc 1 342 0
 268 000a 32D1     		bne	.L19
 269              	.LVL19:
 270              	.L15:
 271              		.loc 1 349 0
 272 000c A16A     		ldr	r1, [r4, #40]
 273 000e 0B68     		ldr	r3, [r1, #0]
 274 0010 1868     		ldr	r0, [r3, #0]
 275 0012 20F00102 		bic	r2, r0, #1
ARM GAS  C:\Users\DNIEL~1\AppData\Local\Temp\ccoq8iC7.s 			page 6


 276 0016 1A60     		str	r2, [r3, #0]
 277              	.L16:
 278              		.loc 1 349 0 is_stmt 0 discriminator 1
 279 0018 1A68     		ldr	r2, [r3, #0]
 280 001a 12F00102 		ands	r2, r2, #1
 281 001e FBD1     		bne	.L16
 282              		.loc 1 349 0 discriminator 2
 283 0020 087A     		ldrb	r0, [r1, #8]	@ zero_extendqisi2
 284 0022 4B68     		ldr	r3, [r1, #4]
 285 0024 3D21     		movs	r1, #61
 286 0026 11FA00F0 		lsls	r0, r1, r0
 287 002a 1860     		str	r0, [r3, #0]
 288              		.loc 1 351 0 is_stmt 1 discriminator 2
 289 002c B5F804C0 		ldrh	ip, [r5, #4]
 290 0030 2CF48051 		bic	r1, ip, #4096
 291 0034 0B04     		lsls	r3, r1, #16
 292 0036 180C     		lsrs	r0, r3, #16
 293 0038 A880     		strh	r0, [r5, #4]	@ movhi
 294              		.loc 1 352 0 discriminator 2
 295 003a B5F800C0 		ldrh	ip, [r5, #0]
 296 003e 2CF48061 		bic	r1, ip, #1024
 297 0042 0B04     		lsls	r3, r1, #16
 298 0044 180C     		lsrs	r0, r3, #16
 299 0046 2880     		strh	r0, [r5, #0]	@ movhi
 300              		.loc 1 353 0 discriminator 2
 301 0048 B5F800C0 		ldrh	ip, [r5, #0]
 302 004c 1FFA8CF1 		uxth	r1, ip
 303 0050 41F40073 		orr	r3, r1, #512
 304 0054 2B80     		strh	r3, [r5, #0]	@ movhi
 305              	.LBB26:
 306              		.loc 1 354 0 discriminator 2
 307 0056 2023     		movs	r3, #32
 308              	.LVL20:
 309              	@ 354 "../../../ChibiOS/os/hal/platforms/STM32/I2Cv1/i2c_lld.c" 1
 310 0058 83F31188 		msr     BASEPRI, r3
 311              	@ 0 "" 2
 312              	.LVL21:
 313              		.thumb
 314              	.LBE26:
 315 005c E369     		ldr	r3, [r4, #28]
 316              	.LVL22:
 317 005e 23B1     		cbz	r3, .L17
 318              	.LVL23:
 319              	.LBB27:
 320              		.loc 1 354 0 is_stmt 0 discriminator 1
 321 0060 E261     		str	r2, [r4, #28]
 322 0062 1846     		mov	r0, r3
 323 0064 5A62     		str	r2, [r3, #36]
 324 0066 FFF7FEFF 		bl	chSchReadyI
 325              	.LVL24:
 326              	.L17:
 327              	.LBE27:
 328              	.LBB28:
 329              		.loc 1 354 0 discriminator 2
 330 006a 0023     		movs	r3, #0
 331              	.LVL25:
 332              	@ 354 "../../../ChibiOS/os/hal/platforms/STM32/I2Cv1/i2c_lld.c" 1
ARM GAS  C:\Users\DNIEL~1\AppData\Local\Temp\ccoq8iC7.s 			page 7


 333 006c 83F31188 		msr     BASEPRI, r3
 334              	@ 0 "" 2
 335              	.LVL26:
 336              		.thumb
 337              	.LBE28:
 338              		.loc 1 355 0 is_stmt 1 discriminator 2
 339 0070 38BD     		pop	{r3, r4, r5, pc}
 340              	.LVL27:
 341              	.L19:
 342              		.loc 1 343 0
 343 0072 FFF7FEFF 		bl	port_halt
 344              	.LVL28:
 345 0076 C9E7     		b	.L15
 346              		.cfi_endproc
 347              	.LFE123:
 348              		.size	i2c_lld_serve_rx_end_irq, .-i2c_lld_serve_rx_end_irq
 349 0078 AFF30080 		.section	.text.VectorBC,"ax",%progbits
 349      AFF30080 
 350              		.align	2
 351              		.p2align 4,,15
 352              		.global	VectorBC
 353              		.thumb
 354              		.thumb_func
 355              		.type	VectorBC, %function
 356              	VectorBC:
 357              	.LFB126:
 358              		.loc 1 450 0
 359              		.cfi_startproc
 360              		@ args = 0, pretend = 0, frame = 0
 361              		@ frame_needed = 0, uses_anonymous_args = 0
 362              	.LVL29:
 363              	.LBB34:
 364              	.LBB36:
 365              		.loc 1 287 0
 366 0000 3B4A     		ldr	r2, .L31
 367              		.loc 1 294 0
 368 0002 3C49     		ldr	r1, .L31+4
 369              	.LBE36:
 370              	.LBE34:
 371              		.loc 1 450 0
 372 0004 70B5     		push	{r4, r5, r6, lr}
 373              	.LCFI4:
 374              		.cfi_def_cfa_offset 16
 375              	.LBB41:
 376              	.LBB35:
 377              		.loc 1 287 0
 378 0006 146B     		ldr	r4, [r2, #48]
 379              		.cfi_offset 14, -4
 380              		.cfi_offset 6, -8
 381              		.cfi_offset 5, -12
 382              		.cfi_offset 4, -16
 383              	.LVL30:
 384              		.loc 1 288 0
 385 0008 208B     		ldrh	r0, [r4, #24]
 386              	.LVL31:
 387              		.loc 1 289 0
 388 000a A58A     		ldrh	r5, [r4, #20]
ARM GAS  C:\Users\DNIEL~1\AppData\Local\Temp\ccoq8iC7.s 			page 8


 389 000c ADB2     		uxth	r5, r5
 390              	.LVL32:
 391              		.loc 1 294 0
 392 000e 45EA0043 		orr	r3, r5, r0, lsl #16
 393 0012 23F07F43 		bic	r3, r3, #-16777216
 394 0016 8B42     		cmp	r3, r1
 395 0018 40D0     		beq	.L23
 396 001a 0CD8     		bhi	.L26
 397 001c 0139     		subs	r1, r1, #1
 398 001e 8B42     		cmp	r3, r1
 399 0020 01D1     		bne	.L21
 400              		.loc 1 296 0
 401 0022 138C     		ldrh	r3, [r2, #32]
 402 0024 2382     		strh	r3, [r4, #16]	@ movhi
 403              	.LVL33:
 404              	.L21:
 405              		.loc 1 325 0
 406 0026 15F00A0F 		tst	r5, #10
 407              		.loc 1 326 0
 408 002a 18BF     		it	ne
 409 002c 238B     		ldrhne	r3, [r4, #24]
 410              	.LVL34:
 411              	.L28:
 412              	.LBE35:
 413              	.LBE41:
 414              		.loc 1 457 0
 415 002e BDE87040 		pop	{r4, r5, r6, lr}
 416              		.loc 1 456 0
 417 0032 FFF7FEBF 		b	_port_irq_epilogue
 418              	.LVL35:
 419              	.L26:
 420              	.LBB42:
 421              	.LBB40:
 422              		.loc 1 294 0
 423 0036 3049     		ldr	r1, .L31+8
 424 0038 8B42     		cmp	r3, r1
 425 003a 21D0     		beq	.L24
 426 003c 881C     		adds	r0, r1, #2
 427              	.LVL36:
 428 003e 8342     		cmp	r3, r0
 429 0040 F1D1     		bne	.L21
 430              		.loc 1 311 0
 431 0042 936A     		ldr	r3, [r2, #40]
 432 0044 1868     		ldr	r0, [r3, #0]
 433 0046 4168     		ldr	r1, [r0, #4]
 434 0048 0029     		cmp	r1, #0
 435 004a 44D1     		bne	.L30
 436              		.loc 1 317 0
 437 004c B4F804C0 		ldrh	ip, [r4, #4]
 438 0050 2CF40070 		bic	r0, ip, #512
 439 0054 0304     		lsls	r3, r0, #16
 440 0056 180C     		lsrs	r0, r3, #16
 441 0058 A080     		strh	r0, [r4, #4]	@ movhi
 442              		.loc 1 318 0
 443 005a 2388     		ldrh	r3, [r4, #0]
 444 005c 1FFA83FC 		uxth	ip, r3
 445 0060 4CF40070 		orr	r0, ip, #512
ARM GAS  C:\Users\DNIEL~1\AppData\Local\Temp\ccoq8iC7.s 			page 9


 446 0064 2080     		strh	r0, [r4, #0]	@ movhi
 447              	.LBB37:
 448              		.loc 1 319 0
 449 0066 2023     		movs	r3, #32
 450              	.LVL37:
 451              	@ 319 "../../../ChibiOS/os/hal/platforms/STM32/I2Cv1/i2c_lld.c" 1
 452 0068 83F31188 		msr     BASEPRI, r3
 453              	@ 0 "" 2
 454              	.LVL38:
 455              		.thumb
 456              	.LBE37:
 457 006c D069     		ldr	r0, [r2, #28]
 458 006e 18B1     		cbz	r0, .L29
 459              	.LVL39:
 460              	.LBB38:
 461 0070 4162     		str	r1, [r0, #36]
 462 0072 D161     		str	r1, [r2, #28]
 463 0074 FFF7FEFF 		bl	chSchReadyI
 464              	.LVL40:
 465              	.L29:
 466              	.LBE38:
 467              	.LBB39:
 468 0078 0023     		movs	r3, #0
 469              	.LVL41:
 470              	@ 319 "../../../ChibiOS/os/hal/platforms/STM32/I2Cv1/i2c_lld.c" 1
 471 007a 83F31188 		msr     BASEPRI, r3
 472              	@ 0 "" 2
 473              	.LVL42:
 474              		.thumb
 475 007e D2E7     		b	.L21
 476              	.LVL43:
 477              	.L24:
 478              	.LBE39:
 479              		.loc 1 306 0
 480 0080 B4F804C0 		ldrh	ip, [r4, #4]
 481              		.loc 1 307 0
 482 0084 D26A     		ldr	r2, [r2, #44]
 483              		.loc 1 306 0
 484 0086 2CF40071 		bic	r1, ip, #512
 485 008a 0B04     		lsls	r3, r1, #16
 486 008c 180C     		lsrs	r0, r3, #16
 487              	.LVL44:
 488              		.loc 1 307 0
 489 008e 1168     		ldr	r1, [r2, #0]
 490              		.loc 1 306 0
 491 0090 A080     		strh	r0, [r4, #4]	@ movhi
 492              		.loc 1 307 0
 493 0092 0B68     		ldr	r3, [r1, #0]
 494 0094 43F00103 		orr	r3, r3, #1
 495 0098 0B60     		str	r3, [r1, #0]
 496 009a C4E7     		b	.L21
 497              	.LVL45:
 498              	.L23:
 499              		.loc 1 299 0
 500 009c B4F804C0 		ldrh	ip, [r4, #4]
 501              		.loc 1 300 0
 502 00a0 926A     		ldr	r2, [r2, #40]
ARM GAS  C:\Users\DNIEL~1\AppData\Local\Temp\ccoq8iC7.s 			page 10


 503              		.loc 1 299 0
 504 00a2 2CF40073 		bic	r3, ip, #512
 505 00a6 1804     		lsls	r0, r3, #16
 506              	.LVL46:
 507              		.loc 1 300 0
 508 00a8 1268     		ldr	r2, [r2, #0]
 509              		.loc 1 299 0
 510 00aa 010C     		lsrs	r1, r0, #16
 511 00ac A180     		strh	r1, [r4, #4]	@ movhi
 512              		.loc 1 300 0
 513 00ae 1368     		ldr	r3, [r2, #0]
 514 00b0 43F00100 		orr	r0, r3, #1
 515 00b4 1060     		str	r0, [r2, #0]
 516              		.loc 1 301 0
 517 00b6 A188     		ldrh	r1, [r4, #4]
 518 00b8 8BB2     		uxth	r3, r1
 519 00ba 43F4805C 		orr	ip, r3, #4096
 520 00be A4F804C0 		strh	ip, [r4, #4]	@ movhi
 521              		.loc 1 302 0
 522 00c2 5368     		ldr	r3, [r2, #4]
 523 00c4 012B     		cmp	r3, #1
 524 00c6 AED8     		bhi	.L21
 525              		.loc 1 303 0
 526 00c8 2288     		ldrh	r2, [r4, #0]
 527 00ca 22F48060 		bic	r0, r2, #1024
 528 00ce 0104     		lsls	r1, r0, #16
 529 00d0 0B0C     		lsrs	r3, r1, #16
 530 00d2 2380     		strh	r3, [r4, #0]	@ movhi
 531 00d4 A7E7     		b	.L21
 532              	.L30:
 533              		.loc 1 314 0
 534 00d6 2388     		ldrh	r3, [r4, #0]
 535              		.loc 1 313 0
 536 00d8 B2F820C0 		ldrh	ip, [r2, #32]
 537              		.loc 1 314 0
 538 00dc 98B2     		uxth	r0, r3
 539              		.loc 1 313 0
 540 00de 4CF00101 		orr	r1, ip, #1
 541              		.loc 1 314 0
 542 00e2 40F4A06C 		orr	ip, r0, #1280
 543              		.loc 1 313 0
 544 00e6 1184     		strh	r1, [r2, #32]	@ movhi
 545              		.loc 1 314 0
 546 00e8 A4F800C0 		strh	ip, [r4, #0]	@ movhi
 547 00ec 9FE7     		b	.L28
 548              	.L32:
 549 00ee 00BF     		.align	2
 550              	.L31:
 551 00f0 00000000 		.word	.LANCHOR0
 552 00f4 02000300 		.word	196610
 553 00f8 82000700 		.word	458882
 554              	.LBE40:
 555              	.LBE42:
 556              		.cfi_endproc
 557              	.LFE126:
 558              		.size	VectorBC, .-VectorBC
 559 00fc AFF30080 		.section	.text.VectorC0,"ax",%progbits
ARM GAS  C:\Users\DNIEL~1\AppData\Local\Temp\ccoq8iC7.s 			page 11


 560              		.align	2
 561              		.p2align 4,,15
 562              		.global	VectorC0
 563              		.thumb
 564              		.thumb_func
 565              		.type	VectorC0, %function
 566              	VectorC0:
 567              	.LFB127:
 568              		.loc 1 462 0
 569              		.cfi_startproc
 570              		@ args = 0, pretend = 0, frame = 0
 571              		@ frame_needed = 0, uses_anonymous_args = 0
 572              	.LVL47:
 573              	.LBB50:
 574              	.LBB52:
 575              		.loc 1 391 0
 576 0000 5249     		ldr	r1, .L50
 577              	.LBE52:
 578              	.LBE50:
 579              		.loc 1 462 0
 580 0002 70B5     		push	{r4, r5, r6, lr}
 581              	.LCFI5:
 582              		.cfi_def_cfa_offset 16
 583              	.LBB59:
 584              	.LBB51:
 585              		.loc 1 391 0
 586 0004 0A6B     		ldr	r2, [r1, #48]
 587              	.LVL48:
 588              	.LBB54:
 589              		.loc 1 395 0
 590 0006 2023     		movs	r3, #32
 591              	.LVL49:
 592              	@ 395 "../../../ChibiOS/os/hal/platforms/STM32/I2Cv1/i2c_lld.c" 1
 593 0008 83F31188 		msr     BASEPRI, r3
 594              	@ 0 "" 2
 595              	.LVL50:
 596              		.thumb
 597              	.LBE54:
 598              		.loc 1 396 0
 599 000c CD6A     		ldr	r5, [r1, #44]
 600              		.cfi_offset 14, -4
 601              		.cfi_offset 6, -8
 602              		.cfi_offset 5, -12
 603              		.cfi_offset 4, -16
 604 000e 2868     		ldr	r0, [r5, #0]
 605 0010 0468     		ldr	r4, [r0, #0]
 606 0012 24F00103 		bic	r3, r4, #1
 607              	.LVL51:
 608 0016 0360     		str	r3, [r0, #0]
 609              	.L34:
 610 0018 0668     		ldr	r6, [r0, #0]
 611 001a 16F0010F 		tst	r6, #1
 612 001e FBD1     		bne	.L34
 613 0020 2E7A     		ldrb	r6, [r5, #8]	@ zero_extendqisi2
 614              		.loc 1 397 0
 615 0022 8C6A     		ldr	r4, [r1, #40]
 616              		.loc 1 396 0
ARM GAS  C:\Users\DNIEL~1\AppData\Local\Temp\ccoq8iC7.s 			page 12


 617 0024 6B68     		ldr	r3, [r5, #4]
 618              		.loc 1 397 0
 619 0026 2068     		ldr	r0, [r4, #0]
 620              		.loc 1 396 0
 621 0028 3D25     		movs	r5, #61
 622 002a B540     		lsls	r5, r5, r6
 623 002c 1D60     		str	r5, [r3, #0]
 624              		.loc 1 397 0
 625 002e 0368     		ldr	r3, [r0, #0]
 626 0030 23F00105 		bic	r5, r3, #1
 627 0034 0560     		str	r5, [r0, #0]
 628              	.L35:
 629 0036 0368     		ldr	r3, [r0, #0]
 630 0038 13F00103 		ands	r3, r3, #1
 631 003c FBD1     		bne	.L35
 632 003e 257A     		ldrb	r5, [r4, #8]	@ zero_extendqisi2
 633 0040 6068     		ldr	r0, [r4, #4]
 634 0042 3D24     		movs	r4, #61
 635 0044 AC40     		lsls	r4, r4, r5
 636 0046 0460     		str	r4, [r0, #0]
 637              	.LBB53:
 638              		.loc 1 398 0
 639              	@ 398 "../../../ChibiOS/os/hal/platforms/STM32/I2Cv1/i2c_lld.c" 1
 640 0048 83F31188 		msr     BASEPRI, r3
 641              	@ 0 "" 2
 642              	.LVL52:
 643              		.thumb
 644              	.LBE53:
 645              		.loc 1 402 0
 646 004c 908A     		ldrh	r0, [r2, #20]
 647 004e 10F48073 		ands	r3, r0, #256
 648              	.LVL53:
 649 0052 07D0     		beq	.L36
 650              		.loc 1 403 0
 651 0054 B2F814C0 		ldrh	ip, [r2, #20]
 652 0058 2CF48073 		bic	r3, ip, #256
 653 005c 1804     		lsls	r0, r3, #16
 654 005e 030C     		lsrs	r3, r0, #16
 655 0060 9382     		strh	r3, [r2, #20]	@ movhi
 656              	.LVL54:
 657              		.loc 1 404 0
 658 0062 0123     		movs	r3, #1
 659              	.LVL55:
 660              	.L36:
 661              		.loc 1 406 0
 662 0064 908A     		ldrh	r0, [r2, #20]
 663 0066 10F4007F 		tst	r0, #512
 664 006a 08D0     		beq	.L37
 665              		.loc 1 407 0
 666 006c B2F814C0 		ldrh	ip, [r2, #20]
 667 0070 2CF40070 		bic	r0, ip, #512
 668 0074 0004     		lsls	r0, r0, #16
 669 0076 000C     		lsrs	r0, r0, #16
 670 0078 9082     		strh	r0, [r2, #20]	@ movhi
 671              		.loc 1 408 0
 672 007a 43F00203 		orr	r3, r3, #2
 673              	.LVL56:
ARM GAS  C:\Users\DNIEL~1\AppData\Local\Temp\ccoq8iC7.s 			page 13


 674              	.L37:
 675              		.loc 1 410 0
 676 007e 908A     		ldrh	r0, [r2, #20]
 677 0080 10F4806F 		tst	r0, #1024
 678 0084 17D0     		beq	.L38
 679              		.loc 1 411 0
 680 0086 B2F814C0 		ldrh	ip, [r2, #20]
 681 008a 2CF48060 		bic	r0, ip, #1024
 682 008e 0004     		lsls	r0, r0, #16
 683 0090 000C     		lsrs	r0, r0, #16
 684 0092 9082     		strh	r0, [r2, #20]	@ movhi
 685              		.loc 1 412 0
 686 0094 B2F804C0 		ldrh	ip, [r2, #4]
 687 0098 2CF40070 		bic	r0, ip, #512
 688 009c 0004     		lsls	r0, r0, #16
 689 009e 000C     		lsrs	r0, r0, #16
 690 00a0 9080     		strh	r0, [r2, #4]	@ movhi
 691              		.loc 1 413 0
 692 00a2 B2F800C0 		ldrh	ip, [r2, #0]
 693 00a6 1FFA8CF0 		uxth	r0, ip
 694 00aa 40F4007C 		orr	ip, r0, #512
 695 00ae A2F800C0 		strh	ip, [r2, #0]	@ movhi
 696              		.loc 1 414 0
 697 00b2 43F00403 		orr	r3, r3, #4
 698              	.LVL57:
 699              	.L38:
 700              		.loc 1 416 0
 701 00b6 908A     		ldrh	r0, [r2, #20]
 702 00b8 10F4006F 		tst	r0, #2048
 703 00bc 08D0     		beq	.L39
 704              		.loc 1 417 0
 705 00be B2F814C0 		ldrh	ip, [r2, #20]
 706 00c2 2CF40060 		bic	r0, ip, #2048
 707 00c6 0004     		lsls	r0, r0, #16
 708 00c8 000C     		lsrs	r0, r0, #16
 709 00ca 9082     		strh	r0, [r2, #20]	@ movhi
 710              		.loc 1 418 0
 711 00cc 43F00803 		orr	r3, r3, #8
 712              	.LVL58:
 713              	.L39:
 714              		.loc 1 420 0
 715 00d0 908A     		ldrh	r0, [r2, #20]
 716 00d2 10F4805F 		tst	r0, #4096
 717 00d6 08D0     		beq	.L40
 718              		.loc 1 421 0
 719 00d8 B2F814C0 		ldrh	ip, [r2, #20]
 720 00dc 2CF48050 		bic	r0, ip, #4096
 721 00e0 0004     		lsls	r0, r0, #16
 722 00e2 000C     		lsrs	r0, r0, #16
 723 00e4 9082     		strh	r0, [r2, #20]	@ movhi
 724              		.loc 1 422 0
 725 00e6 43F01003 		orr	r3, r3, #16
 726              	.LVL59:
 727              	.L40:
 728              		.loc 1 424 0
 729 00ea 908A     		ldrh	r0, [r2, #20]
 730 00ec 10F4804F 		tst	r0, #16384
ARM GAS  C:\Users\DNIEL~1\AppData\Local\Temp\ccoq8iC7.s 			page 14


 731 00f0 08D0     		beq	.L41
 732              		.loc 1 425 0
 733 00f2 B2F814C0 		ldrh	ip, [r2, #20]
 734 00f6 2CF48040 		bic	r0, ip, #16384
 735 00fa 0004     		lsls	r0, r0, #16
 736 00fc 000C     		lsrs	r0, r0, #16
 737 00fe 9082     		strh	r0, [r2, #20]	@ movhi
 738              		.loc 1 426 0
 739 0100 43F02003 		orr	r3, r3, #32
 740              	.LVL60:
 741              	.L41:
 742              		.loc 1 428 0
 743 0104 B2F814C0 		ldrh	ip, [r2, #20]
 744 0108 0FFA8CF0 		sxth	r0, ip
 745 010c 0028     		cmp	r0, #0
 746 010e 04DB     		blt	.L49
 747              		.loc 1 434 0
 748 0110 4BB9     		cbnz	r3, .L43
 749              	.LVL61:
 750              	.L44:
 751              	.LBE51:
 752              	.LBE59:
 753              		.loc 1 469 0
 754 0112 BDE87040 		pop	{r4, r5, r6, lr}
 755              		.loc 1 468 0
 756 0116 FFF7FEBF 		b	_port_irq_epilogue
 757              	.LVL62:
 758              	.L49:
 759              	.LBB60:
 760              	.LBB58:
 761              		.loc 1 429 0
 762 011a 908A     		ldrh	r0, [r2, #20]
 763 011c 4004     		lsls	r0, r0, #17
 764 011e 400C     		lsrs	r0, r0, #17
 765 0120 9082     		strh	r0, [r2, #20]	@ movhi
 766              		.loc 1 430 0
 767 0122 43F04003 		orr	r3, r3, #64
 768              	.LVL63:
 769              	.L43:
 770              		.loc 1 435 0
 771 0126 8B60     		str	r3, [r1, #8]
 772              	.LBB55:
 773              		.loc 1 436 0
 774 0128 2023     		movs	r3, #32
 775              	.LVL64:
 776              	@ 436 "../../../ChibiOS/os/hal/platforms/STM32/I2Cv1/i2c_lld.c" 1
 777 012a 83F31188 		msr     BASEPRI, r3
 778              	@ 0 "" 2
 779              	.LVL65:
 780              		.thumb
 781              	.LBE55:
 782 012e C869     		ldr	r0, [r1, #28]
 783 0130 38B1     		cbz	r0, .L45
 784              	.LVL66:
 785              	.LBB56:
 786 0132 0649     		ldr	r1, .L50
 787 0134 6FF00103 		mvn	r3, #1
ARM GAS  C:\Users\DNIEL~1\AppData\Local\Temp\ccoq8iC7.s 			page 15


 788              	.LVL67:
 789 0138 0022     		movs	r2, #0
 790              	.LVL68:
 791 013a 4362     		str	r3, [r0, #36]
 792 013c CA61     		str	r2, [r1, #28]
 793 013e FFF7FEFF 		bl	chSchReadyI
 794              	.LVL69:
 795              	.L45:
 796              	.LBE56:
 797              	.LBB57:
 798 0142 0023     		movs	r3, #0
 799              	.LVL70:
 800              	@ 436 "../../../ChibiOS/os/hal/platforms/STM32/I2Cv1/i2c_lld.c" 1
 801 0144 83F31188 		msr     BASEPRI, r3
 802              	@ 0 "" 2
 803              	.LVL71:
 804              		.thumb
 805 0148 E3E7     		b	.L44
 806              	.L51:
 807 014a 00BF     		.align	2
 808              	.L50:
 809 014c 00000000 		.word	.LANCHOR0
 810              	.LBE57:
 811              	.LBE58:
 812              	.LBE60:
 813              		.cfi_endproc
 814              	.LFE127:
 815              		.size	VectorC0, .-VectorC0
 816              		.section	.text.i2c_lld_init,"ax",%progbits
 817              		.align	2
 818              		.p2align 4,,15
 819              		.global	i2c_lld_init
 820              		.thumb
 821              		.thumb_func
 822              		.type	i2c_lld_init, %function
 823              	i2c_lld_init:
 824              	.LFB128:
 825              		.loc 1 541 0
 826              		.cfi_startproc
 827              		@ args = 0, pretend = 0, frame = 0
 828              		@ frame_needed = 0, uses_anonymous_args = 0
 829 0000 10B5     		push	{r4, lr}
 830              	.LCFI6:
 831              		.cfi_def_cfa_offset 8
 832              		.loc 1 544 0
 833 0002 064C     		ldr	r4, .L53
 834              		.cfi_offset 14, -4
 835              		.cfi_offset 4, -8
 836 0004 2046     		mov	r0, r4
 837 0006 FFF7FEFF 		bl	i2cObjectInit
 838              		.loc 1 547 0
 839 000a 054B     		ldr	r3, .L53+4
 840              		.loc 1 546 0
 841 000c 054A     		ldr	r2, .L53+8
 842              		.loc 1 547 0
 843 000e A362     		str	r3, [r4, #40]
 844              		.loc 1 545 0
ARM GAS  C:\Users\DNIEL~1\AppData\Local\Temp\ccoq8iC7.s 			page 16


 845 0010 0020     		movs	r0, #0
 846              		.loc 1 548 0
 847 0012 4833     		adds	r3, r3, #72
 848              		.loc 1 545 0
 849 0014 E061     		str	r0, [r4, #28]
 850              		.loc 1 546 0
 851 0016 2263     		str	r2, [r4, #48]
 852              		.loc 1 548 0
 853 0018 E362     		str	r3, [r4, #44]
 854              		.loc 1 566 0
 855 001a 10BD     		pop	{r4, pc}
 856              	.L54:
 857              		.align	2
 858              	.L53:
 859 001c 00000000 		.word	.LANCHOR0
 860 0020 00000000 		.word	_stm32_dma_streams
 861 0024 00540040 		.word	1073763328
 862              		.cfi_endproc
 863              	.LFE128:
 864              		.size	i2c_lld_init, .-i2c_lld_init
 865 0028 AFF30080 		.section	.text.i2c_lld_start,"ax",%progbits
 865      AFF30080 
 866              		.align	2
 867              		.p2align 4,,15
 868              		.global	i2c_lld_start
 869              		.thumb
 870              		.thumb_func
 871              		.type	i2c_lld_start, %function
 872              	i2c_lld_start:
 873              	.LFB129:
 874              		.loc 1 575 0
 875              		.cfi_startproc
 876              		@ args = 0, pretend = 0, frame = 0
 877              		@ frame_needed = 0, uses_anonymous_args = 0
 878              	.LVL72:
 879 0000 F8B5     		push	{r3, r4, r5, r6, r7, lr}
 880              	.LCFI7:
 881              		.cfi_def_cfa_offset 24
 882              		.loc 1 583 0
 883 0002 0378     		ldrb	r3, [r0, #0]	@ zero_extendqisi2
 884              		.cfi_offset 14, -4
 885              		.cfi_offset 7, -8
 886              		.cfi_offset 6, -12
 887              		.cfi_offset 5, -16
 888              		.cfi_offset 4, -20
 889              		.cfi_offset 3, -24
 890              		.loc 1 576 0
 891 0004 046B     		ldr	r4, [r0, #48]
 892              	.LVL73:
 893              		.loc 1 578 0
 894 0006 40F21642 		movw	r2, #1046
 895              		.loc 1 583 0
 896 000a 012B     		cmp	r3, #1
 897              		.loc 1 575 0
 898 000c 0546     		mov	r5, r0
 899              		.loc 1 578 0
 900 000e 4262     		str	r2, [r0, #36]
ARM GAS  C:\Users\DNIEL~1\AppData\Local\Temp\ccoq8iC7.s 			page 17


 901              		.loc 1 583 0
 902 0010 72D0     		beq	.L69
 903              	.L66:
 904              		.loc 1 576 0
 905 0012 2346     		mov	r3, r4
 906              		.loc 1 586 0
 907 0014 40F25647 		movw	r7, #1110
 908 0018 1646     		mov	r6, r2
 909              	.LVL74:
 910              	.L56:
 911              		.loc 1 666 0
 912 001a A96A     		ldr	r1, [r5, #40]
 913              		.loc 1 665 0
 914 001c EA6A     		ldr	r2, [r5, #44]
 915              		.loc 1 666 0
 916 001e 0868     		ldr	r0, [r1, #0]
 917              		.loc 1 665 0
 918 0020 1268     		ldr	r2, [r2, #0]
 919              		.loc 1 669 0
 920 0022 04F11001 		add	r1, r4, #16
 921              		.loc 1 665 0
 922 0026 1760     		str	r7, [r2, #0]
 923              		.loc 1 666 0
 924 0028 0660     		str	r6, [r0, #0]
 925              		.loc 1 669 0
 926 002a 8160     		str	r1, [r0, #8]
 927              		.loc 1 670 0
 928 002c 9160     		str	r1, [r2, #8]
 929              		.loc 1 674 0
 930 002e 0020     		movs	r0, #0
 931              		.loc 1 673 0
 932 0030 48F20002 		movw	r2, 32768	@ movhi
 933              		.loc 1 675 0
 934 0034 4FF41061 		mov	r1, #2304	@ movhi
 935              		.loc 1 673 0
 936 0038 2280     		strh	r2, [r4, #0]	@ movhi
 937              		.loc 1 674 0
 938 003a 2080     		strh	r0, [r4, #0]	@ movhi
 939              		.loc 1 675 0
 940 003c A180     		strh	r1, [r4, #4]	@ movhi
 941              	.LBB61:
 942              	.LBB64:
 943              		.loc 1 187 0
 944 003e B3F804C0 		ldrh	ip, [r3, #4]
 945              	.LBE64:
 946              	.LBE61:
 947              		.loc 1 890 0
 948 0042 6968     		ldr	r1, [r5, #4]
 949              	.LVL75:
 950              	.LBB68:
 951              	.LBB65:
 952              		.loc 1 187 0
 953 0044 2CF03F02 		bic	r2, ip, #63
 954 0048 1204     		lsls	r2, r2, #16
 955 004a 120C     		lsrs	r2, r2, #16
 956              		.loc 1 180 0
 957 004c 4868     		ldr	r0, [r1, #4]
ARM GAS  C:\Users\DNIEL~1\AppData\Local\Temp\ccoq8iC7.s 			page 18


 958              	.LVL76:
 959              		.loc 1 181 0
 960 004e 0D7A     		ldrb	r5, [r1, #8]	@ zero_extendqisi2
 961              	.LVL77:
 962              		.loc 1 187 0
 963 0050 9A80     		strh	r2, [r3, #4]	@ movhi
 964              		.loc 1 188 0
 965 0052 B3F804C0 		ldrh	ip, [r3, #4]
 966 0056 1FFA8CF2 		uxth	r2, ip
 967 005a 42F02A0C 		orr	ip, r2, #42
 968              		.loc 1 194 0
 969 005e 4E4A     		ldr	r2, .L74
 970              		.loc 1 188 0
 971 0060 A3F804C0 		strh	ip, [r3, #4]	@ movhi
 972              	.LVL78:
 973              		.loc 1 194 0
 974 0064 9042     		cmp	r0, r2
 975 0066 1ADC     		bgt	.L57
 976              	.LVL79:
 977              		.loc 1 204 0
 978 0068 4C4A     		ldr	r2, .L74+4
 979 006a 4000     		lsls	r0, r0, #1
 980 006c 92FBF0F2 		sdiv	r2, r2, r0
 981              		.loc 1 209 0
 982 0070 1005     		lsls	r0, r2, #20
 983              		.loc 1 212 0
 984 0072 2B22     		movs	r2, #43
 985              		.loc 1 209 0
 986 0074 000D     		lsrs	r0, r0, #20
 987              	.LVL80:
 988              		.loc 1 212 0
 989 0076 1A84     		strh	r2, [r3, #32]	@ movhi
 990              	.LVL81:
 991              	.L58:
 992              		.loc 1 248 0
 993 0078 9883     		strh	r0, [r3, #28]	@ movhi
 994              	.LVL82:
 995              	.LBE65:
 996              	.LBE68:
 997              	.LBB69:
 998              	.LBB72:
 999              		.loc 1 264 0
 1000 007a 0978     		ldrb	r1, [r1, #0]	@ zero_extendqisi2
 1001              	.LVL83:
 1002              		.loc 1 263 0
 1003 007c B3F800C0 		ldrh	ip, [r3, #0]
 1004              		.loc 1 264 0
 1005 0080 0229     		cmp	r1, #2
 1006              		.loc 1 263 0
 1007 0082 1FFA8CF2 		uxth	r2, ip
 1008              	.LVL84:
 1009              		.loc 1 264 0
 1010 0086 1DD0     		beq	.L63
 1011              	.LVL85:
 1012              	.L73:
 1013 0088 0329     		cmp	r1, #3
 1014 008a 61D0     		beq	.L64
ARM GAS  C:\Users\DNIEL~1\AppData\Local\Temp\ccoq8iC7.s 			page 19


 1015 008c 0129     		cmp	r1, #1
 1016 008e 28D0     		beq	.L70
 1017              	.LVL86:
 1018              		.loc 1 276 0
 1019 0090 1A80     		strh	r2, [r3, #0]	@ movhi
 1020              	.LBE72:
 1021              	.LBE69:
 1022              		.loc 1 682 0
 1023 0092 2088     		ldrh	r0, [r4, #0]
 1024 0094 81B2     		uxth	r1, r0
 1025 0096 41F00103 		orr	r3, r1, #1
 1026              	.LVL87:
 1027 009a 2380     		strh	r3, [r4, #0]	@ movhi
 1028              		.loc 1 683 0
 1029 009c F8BD     		pop	{r3, r4, r5, r6, r7, pc}
 1030              	.LVL88:
 1031              	.L57:
 1032              	.LBB75:
 1033              	.LBB63:
 1034              		.loc 1 214 0
 1035 009e 404A     		ldr	r2, .L74+8
 1036 00a0 9042     		cmp	r0, r2
 1037 00a2 1CDC     		bgt	.L67
 1038              		.loc 1 220 0
 1039 00a4 022D     		cmp	r5, #2
 1040 00a6 5CD0     		beq	.L71
 1041              		.loc 1 227 0
 1042 00a8 032D     		cmp	r5, #3
 1043 00aa 69D0     		beq	.L72
 1044 00ac 48F6FF70 		movw	r0, #36863
 1045              	.LVL89:
 1046              	.L60:
 1047              		.loc 1 242 0
 1048 00b0 0D22     		movs	r2, #13
 1049 00b2 1A84     		strh	r2, [r3, #32]	@ movhi
 1050              	.LBE63:
 1051              	.LBE75:
 1052              	.LBB76:
 1053              	.LBB71:
 1054              		.loc 1 264 0
 1055 00b4 0978     		ldrb	r1, [r1, #0]	@ zero_extendqisi2
 1056              	.LVL90:
 1057              	.LBE71:
 1058              	.LBE76:
 1059              	.LBB77:
 1060              	.LBB66:
 1061              		.loc 1 248 0
 1062 00b6 9883     		strh	r0, [r3, #28]	@ movhi
 1063              	.LVL91:
 1064              	.LBE66:
 1065              	.LBE77:
 1066              	.LBB78:
 1067              	.LBB73:
 1068              		.loc 1 263 0
 1069 00b8 B3F800C0 		ldrh	ip, [r3, #0]
 1070              		.loc 1 264 0
 1071 00bc 0229     		cmp	r1, #2
ARM GAS  C:\Users\DNIEL~1\AppData\Local\Temp\ccoq8iC7.s 			page 20


 1072              		.loc 1 263 0
 1073 00be 1FFA8CF2 		uxth	r2, ip
 1074              	.LVL92:
 1075              		.loc 1 264 0
 1076 00c2 E1D1     		bne	.L73
 1077              	.LVL93:
 1078              	.L63:
 1079              		.loc 1 269 0
 1080 00c4 42F0020C 		orr	ip, r2, #2
 1081              	.LVL94:
 1082              		.loc 1 270 0
 1083 00c8 4FF6F772 		movw	r2, #65527
 1084 00cc 0CEA0202 		and	r2, ip, r2
 1085              	.LVL95:
 1086              		.loc 1 276 0
 1087 00d0 1A80     		strh	r2, [r3, #0]	@ movhi
 1088              	.LBE73:
 1089              	.LBE78:
 1090              		.loc 1 682 0
 1091 00d2 2088     		ldrh	r0, [r4, #0]
 1092 00d4 81B2     		uxth	r1, r0
 1093 00d6 41F00103 		orr	r3, r1, #1
 1094              	.LVL96:
 1095 00da 2380     		strh	r3, [r4, #0]	@ movhi
 1096              		.loc 1 683 0
 1097 00dc F8BD     		pop	{r3, r4, r5, r6, r7, pc}
 1098              	.LVL97:
 1099              	.L67:
 1100              	.LBB79:
 1101              	.LBB62:
 1102              		.loc 1 191 0
 1103 00de 0020     		movs	r0, #0
 1104              	.LVL98:
 1105 00e0 CAE7     		b	.L58
 1106              	.LVL99:
 1107              	.L70:
 1108              	.LBE62:
 1109              	.LBE79:
 1110              	.LBB80:
 1111              	.LBB70:
 1112              		.loc 1 266 0
 1113 00e2 22F00A00 		bic	r0, r2, #10
 1114 00e6 0104     		lsls	r1, r0, #16
 1115 00e8 0A0C     		lsrs	r2, r1, #16
 1116              	.LVL100:
 1117              		.loc 1 276 0
 1118 00ea 1A80     		strh	r2, [r3, #0]	@ movhi
 1119              	.LBE70:
 1120              	.LBE80:
 1121              		.loc 1 682 0
 1122 00ec 2088     		ldrh	r0, [r4, #0]
 1123 00ee 81B2     		uxth	r1, r0
 1124 00f0 41F00103 		orr	r3, r1, #1
 1125              	.LVL101:
 1126 00f4 2380     		strh	r3, [r4, #0]	@ movhi
 1127              		.loc 1 683 0
 1128 00f6 F8BD     		pop	{r3, r4, r5, r6, r7, pc}
ARM GAS  C:\Users\DNIEL~1\AppData\Local\Temp\ccoq8iC7.s 			page 21


 1129              	.LVL102:
 1130              	.L69:
 1131              		.loc 1 586 0
 1132 00f8 2A49     		ldr	r1, .L74+12
 1133 00fa 8842     		cmp	r0, r1
 1134 00fc 89D1     		bne	.L66
 1135              	.LBB81:
 1136              		.loc 1 589 0
 1137 00fe 2A4E     		ldr	r6, .L74+16
 1138              		.loc 1 590 0
 1139 0100 806A     		ldr	r0, [r0, #40]
 1140              	.LVL103:
 1141              		.loc 1 589 0
 1142 0102 336A     		ldr	r3, [r6, #32]
 1143              		.loc 1 590 0
 1144 0104 294A     		ldr	r2, .L74+20
 1145              		.loc 1 589 0
 1146 0106 43F40017 		orr	r7, r3, #2097152
 1147 010a 3762     		str	r7, [r6, #32]
 1148 010c 0027     		movs	r7, #0
 1149 010e 3762     		str	r7, [r6, #32]
 1150              		.loc 1 590 0
 1151 0110 0521     		movs	r1, #5
 1152 0112 2B46     		mov	r3, r5
 1153 0114 FFF7FEFF 		bl	dmaStreamAllocate
 1154              		.loc 1 595 0
 1155 0118 2B46     		mov	r3, r5
 1156 011a 254A     		ldr	r2, .L74+24
 1157 011c E86A     		ldr	r0, [r5, #44]
 1158 011e 0521     		movs	r1, #5
 1159 0120 FFF7FEFF 		bl	dmaStreamAllocate
 1160              		.loc 1 600 0
 1161 0124 376C     		ldr	r7, [r6, #64]
 1162 0126 47F40012 		orr	r2, r7, #2097152
 1163 012a 3264     		str	r2, [r6, #64]
 1164              		.loc 1 601 0
 1165 012c 1F20     		movs	r0, #31
 1166 012e 5021     		movs	r1, #80
 1167 0130 FFF7FEFF 		bl	nvicEnableVector
 1168              		.loc 1 603 0
 1169 0134 2020     		movs	r0, #32
 1170 0136 5021     		movs	r1, #80
 1171 0138 FFF7FEFF 		bl	nvicEnableVector
 1172              		.loc 1 606 0
 1173 013c 686A     		ldr	r0, [r5, #36]
 1174 013e 2B6B     		ldr	r3, [r5, #48]
 1175 0140 40F00076 		orr	r6, r0, #33554432
 1176 0144 46F44036 		orr	r6, r6, #196608
 1177 0148 6E62     		str	r6, [r5, #36]
 1178 014a 46F04007 		orr	r7, r6, #64
 1179 014e 64E7     		b	.L56
 1180              	.LVL104:
 1181              	.L64:
 1182              	.LBE81:
 1183              	.LBB82:
 1184              	.LBB74:
 1185              		.loc 1 273 0
ARM GAS  C:\Users\DNIEL~1\AppData\Local\Temp\ccoq8iC7.s 			page 22


 1186 0150 42F00A02 		orr	r2, r2, #10
 1187              	.LVL105:
 1188              		.loc 1 276 0
 1189 0154 1A80     		strh	r2, [r3, #0]	@ movhi
 1190              	.LBE74:
 1191              	.LBE82:
 1192              		.loc 1 682 0
 1193 0156 2088     		ldrh	r0, [r4, #0]
 1194 0158 81B2     		uxth	r1, r0
 1195 015a 41F00103 		orr	r3, r1, #1
 1196              	.LVL106:
 1197 015e 2380     		strh	r3, [r4, #0]	@ movhi
 1198              		.loc 1 683 0
 1199 0160 F8BD     		pop	{r3, r4, r5, r6, r7, pc}
 1200              	.LVL107:
 1201              	.L71:
 1202              	.LBB83:
 1203              	.LBB67:
 1204              		.loc 1 225 0
 1205 0162 02F11E72 		add	r2, r2, #41418752
 1206 0166 00EB400C 		add	ip, r0, r0, lsl #1
 1207 016a 02F53030 		add	r0, r2, #180224
 1208              	.LVL108:
 1209 016e 00F58062 		add	r2, r0, #1024
 1210 0172 92FBFCF0 		sdiv	r0, r2, ip
 1211              		.loc 1 220 0
 1212 0176 0205     		lsls	r2, r0, #20
 1213 0178 100D     		lsrs	r0, r2, #20
 1214 017a 40F40040 		orr	r0, r0, #32768
 1215 017e 97E7     		b	.L60
 1216              	.LVL109:
 1217              	.L72:
 1218              		.loc 1 232 0
 1219 0180 00EB8000 		add	r0, r0, r0, lsl #2
 1220 0184 054A     		ldr	r2, .L74+4
 1221 0186 00EB800C 		add	ip, r0, r0, lsl #2
 1222 018a 92FBFCF0 		sdiv	r0, r2, ip
 1223              		.loc 1 227 0
 1224 018e 0205     		lsls	r2, r0, #20
 1225 0190 100D     		lsrs	r0, r2, #20
 1226 0192 40F44040 		orr	r0, r0, #49152
 1227 0196 8BE7     		b	.L60
 1228              	.L75:
 1229              		.align	2
 1230              	.L74:
 1231 0198 A0860100 		.word	100000
 1232 019c 80DE8002 		.word	42000000
 1233 01a0 801A0600 		.word	400000
 1234 01a4 00000000 		.word	.LANCHOR0
 1235 01a8 00380240 		.word	1073887232
 1236 01ac 00000000 		.word	i2c_lld_serve_rx_end_irq
 1237 01b0 00000000 		.word	i2c_lld_serve_tx_end_irq
 1238              	.LBE67:
 1239              	.LBE83:
 1240              		.cfi_endproc
 1241              	.LFE129:
 1242              		.size	i2c_lld_start, .-i2c_lld_start
ARM GAS  C:\Users\DNIEL~1\AppData\Local\Temp\ccoq8iC7.s 			page 23


 1243 01b4 AFF30080 		.section	.text.i2c_lld_stop,"ax",%progbits
 1243      AFF30080 
 1243      AFF30080 
 1244              		.align	2
 1245              		.p2align 4,,15
 1246              		.global	i2c_lld_stop
 1247              		.thumb
 1248              		.thumb_func
 1249              		.type	i2c_lld_stop, %function
 1250              	i2c_lld_stop:
 1251              	.LFB130:
 1252              		.loc 1 692 0
 1253              		.cfi_startproc
 1254              		@ args = 0, pretend = 0, frame = 0
 1255              		@ frame_needed = 0, uses_anonymous_args = 0
 1256              	.LVL110:
 1257              		.loc 1 695 0
 1258 0000 0378     		ldrb	r3, [r0, #0]	@ zero_extendqisi2
 1259 0002 012B     		cmp	r3, #1
 1260              		.loc 1 692 0
 1261 0004 10B5     		push	{r4, lr}
 1262              	.LCFI8:
 1263              		.cfi_def_cfa_offset 8
 1264              		.loc 1 692 0
 1265 0006 0446     		mov	r4, r0
 1266              		.cfi_offset 14, -4
 1267              		.cfi_offset 4, -8
 1268              		.loc 1 695 0
 1269 0008 0AD0     		beq	.L76
 1270              		.loc 1 698 0
 1271 000a FFF7FEFF 		bl	i2c_lld_abort_operation
 1272              	.LVL111:
 1273              		.loc 1 699 0
 1274 000e E06A     		ldr	r0, [r4, #44]
 1275 0010 FFF7FEFF 		bl	dmaStreamRelease
 1276              		.loc 1 700 0
 1277 0014 A06A     		ldr	r0, [r4, #40]
 1278 0016 FFF7FEFF 		bl	dmaStreamRelease
 1279              		.loc 1 703 0
 1280 001a 0848     		ldr	r0, .L79
 1281 001c 8442     		cmp	r4, r0
 1282 001e 00D0     		beq	.L78
 1283              	.L76:
 1284 0020 10BD     		pop	{r4, pc}
 1285              	.L78:
 1286              		.loc 1 704 0
 1287 0022 1F20     		movs	r0, #31
 1288 0024 FFF7FEFF 		bl	nvicDisableVector
 1289              		.loc 1 705 0
 1290 0028 2020     		movs	r0, #32
 1291 002a FFF7FEFF 		bl	nvicDisableVector
 1292              		.loc 1 706 0
 1293 002e 0449     		ldr	r1, .L79+4
 1294 0030 0B6C     		ldr	r3, [r1, #64]
 1295 0032 23F40012 		bic	r2, r3, #2097152
 1296 0036 0A64     		str	r2, [r1, #64]
 1297 0038 F2E7     		b	.L76
ARM GAS  C:\Users\DNIEL~1\AppData\Local\Temp\ccoq8iC7.s 			page 24


 1298              	.L80:
 1299 003a 00BF     		.align	2
 1300              	.L79:
 1301 003c 00000000 		.word	.LANCHOR0
 1302 0040 00380240 		.word	1073887232
 1303              		.cfi_endproc
 1304              	.LFE130:
 1305              		.size	i2c_lld_stop, .-i2c_lld_stop
 1306 0044 AFF30080 		.section	.text.i2c_lld_master_receive_timeout,"ax",%progbits
 1306      AFF30080 
 1306      AFF30080 
 1307              		.align	2
 1308              		.p2align 4,,15
 1309              		.global	i2c_lld_master_receive_timeout
 1310              		.thumb
 1311              		.thumb_func
 1312              		.type	i2c_lld_master_receive_timeout, %function
 1313              	i2c_lld_master_receive_timeout:
 1314              	.LFB131:
 1315              		.loc 1 753 0
 1316              		.cfi_startproc
 1317              		@ args = 4, pretend = 0, frame = 24
 1318              		@ frame_needed = 0, uses_anonymous_args = 0
 1319              	.LVL112:
 1320 0000 2DE9F043 		push	{r4, r5, r6, r7, r8, r9, lr}
 1321              	.LCFI9:
 1322              		.cfi_def_cfa_offset 28
 1323 0004 87B0     		sub	sp, sp, #28
 1324              	.LCFI10:
 1325              		.cfi_def_cfa_offset 56
 1326              		.loc 1 753 0
 1327 0006 0646     		mov	r6, r0
 1328              		.cfi_offset 14, -4
 1329              		.cfi_offset 9, -8
 1330              		.cfi_offset 8, -12
 1331              		.cfi_offset 7, -16
 1332              		.cfi_offset 6, -20
 1333              		.cfi_offset 5, -24
 1334              		.cfi_offset 4, -28
 1335 0008 0E9D     		ldr	r5, [sp, #56]
 1336              		.loc 1 754 0
 1337 000a 046B     		ldr	r4, [r0, #48]
 1338              	.LVL113:
 1339              		.loc 1 762 0
 1340 000c B5F1FF3F 		cmp	r5, #-1
 1341              		.loc 1 753 0
 1342 0010 0F46     		mov	r7, r1
 1343 0012 9046     		mov	r8, r2
 1344 0014 9946     		mov	r9, r3
 1345              		.loc 1 762 0
 1346 0016 05D0     		beq	.L82
 1347              	.LVL114:
 1348              		.loc 1 763 0
 1349 0018 01A8     		add	r0, sp, #4
 1350              	.LVL115:
 1351 001a 2946     		mov	r1, r5
 1352              	.LVL116:
ARM GAS  C:\Users\DNIEL~1\AppData\Local\Temp\ccoq8iC7.s 			page 25


 1353 001c 314A     		ldr	r2, .L96
 1354              	.LVL117:
 1355 001e 3346     		mov	r3, r6
 1356              	.LVL118:
 1357 0020 FFF7FEFF 		bl	chVTSetI
 1358              	.LVL119:
 1359              	.L82:
 1360              	.LBB84:
 1361              		.loc 1 766 0
 1362 0024 0023     		movs	r3, #0
 1363              	.LVL120:
 1364              	@ 766 "../../../ChibiOS/os/hal/platforms/STM32/I2Cv1/i2c_lld.c" 1
 1365 0026 83F31188 		msr     BASEPRI, r3
 1366              	@ 0 "" 2
 1367              	.LVL121:
 1368              		.thumb
 1369              	.LBE84:
 1370              		.loc 1 773 0
 1371 002a B06A     		ldr	r0, [r6, #40]
 1372              		.loc 1 769 0
 1373 002c 7F00     		lsls	r7, r7, #1
 1374              		.loc 1 773 0
 1375 002e 0268     		ldr	r2, [r0, #0]
 1376              		.loc 1 770 0
 1377 0030 B360     		str	r3, [r6, #8]
 1378              	.LVL122:
 1379              		.loc 1 769 0
 1380 0032 47F00107 		orr	r7, r7, #1
 1381 0036 3784     		strh	r7, [r6, #32]	@ movhi
 1382              		.loc 1 773 0
 1383 0038 C2F80C80 		str	r8, [r2, #12]
 1384              		.loc 1 774 0
 1385 003c C2F80490 		str	r9, [r2, #4]
 1386              		.loc 1 778 0
 1387 0040 02E0     		b	.L83
 1388              	.LVL123:
 1389              	.L84:
 1390              	.LBB85:
 1391              		.loc 1 782 0
 1392 0042 0023     		movs	r3, #0
 1393              	.LVL124:
 1394              	@ 782 "../../../ChibiOS/os/hal/platforms/STM32/I2Cv1/i2c_lld.c" 1
 1395 0044 83F31188 		msr     BASEPRI, r3
 1396              	@ 0 "" 2
 1397              	.LVL125:
 1398              		.thumb
 1399              	.L83:
 1400              	.LBE85:
 1401              		.loc 1 778 0 discriminator 1
 1402 0048 218B     		ldrh	r1, [r4, #24]
 1403 004a 11F0020F 		tst	r1, #2
 1404 004e 04D1     		bne	.L86
 1405              		.loc 1 778 0 is_stmt 0 discriminator 2
 1406 0050 B4F800C0 		ldrh	ip, [r4, #0]
 1407 0054 1CF4007F 		tst	ip, #512
 1408 0058 0BD0     		beq	.L94
 1409              	.L86:
ARM GAS  C:\Users\DNIEL~1\AppData\Local\Temp\ccoq8iC7.s 			page 26


 1410              	.LBB86:
 1411              		.loc 1 779 0 is_stmt 1
 1412 005a 2023     		movs	r3, #32
 1413              	.LVL126:
 1414              	@ 779 "../../../ChibiOS/os/hal/platforms/STM32/I2Cv1/i2c_lld.c" 1
 1415 005c 83F31188 		msr     BASEPRI, r3
 1416              	@ 0 "" 2
 1417              	.LVL127:
 1418              		.thumb
 1419              	.LBE86:
 1420              		.loc 1 780 0
 1421 0060 B5F1FF3F 		cmp	r5, #-1
 1422 0064 EDD0     		beq	.L84
 1423              		.loc 1 780 0 is_stmt 0 discriminator 1
 1424 0066 049B     		ldr	r3, [sp, #16]
 1425              	.LVL128:
 1426 0068 002B     		cmp	r3, #0
 1427 006a EAD1     		bne	.L84
 1428              	.LVL129:
 1429              	.L92:
 1430              		.loc 1 791 0 is_stmt 1
 1431 006c 4FF0FF30 		mov	r0, #-1
 1432 0070 19E0     		b	.L85
 1433              	.LVL130:
 1434              	.L94:
 1435              	.LBB87:
 1436              		.loc 1 786 0
 1437 0072 2023     		movs	r3, #32
 1438              	.LVL131:
 1439              	@ 786 "../../../ChibiOS/os/hal/platforms/STM32/I2Cv1/i2c_lld.c" 1
 1440 0074 83F31188 		msr     BASEPRI, r3
 1441              	@ 0 "" 2
 1442              	.LVL132:
 1443              		.thumb
 1444              	.LBE87:
 1445              		.loc 1 790 0
 1446 0078 B5F1FF3F 		cmp	r5, #-1
 1447 007c 16D1     		bne	.L95
 1448              		.loc 1 794 0
 1449 007e A388     		ldrh	r3, [r4, #4]
 1450              	.LVL133:
 1451              		.loc 1 798 0
 1452 0080 194D     		ldr	r5, .L96+4
 1453              		.loc 1 794 0
 1454 0082 9AB2     		uxth	r2, r3
 1455 0084 42F4007C 		orr	ip, r2, #512
 1456 0088 A4F804C0 		strh	ip, [r4, #4]	@ movhi
 1457              		.loc 1 795 0
 1458 008c 2188     		ldrh	r1, [r4, #0]
 1459              		.loc 1 798 0
 1460 008e AB69     		ldr	r3, [r5, #24]
 1461              		.loc 1 795 0
 1462 0090 88B2     		uxth	r0, r1
 1463 0092 40F4A06E 		orr	lr, r0, #1280
 1464 0096 A4F800E0 		strh	lr, [r4, #0]	@ movhi
 1465              		.loc 1 799 0
 1466 009a 0220     		movs	r0, #2
ARM GAS  C:\Users\DNIEL~1\AppData\Local\Temp\ccoq8iC7.s 			page 27


 1467              		.loc 1 798 0
 1468 009c F361     		str	r3, [r6, #28]
 1469              		.loc 1 799 0
 1470 009e FFF7FEFF 		bl	chSchGoSleepS
 1471              	.L89:
 1472              		.loc 1 803 0
 1473 00a2 A869     		ldr	r0, [r5, #24]
 1474 00a4 406A     		ldr	r0, [r0, #36]
 1475              	.LVL134:
 1476              	.L85:
 1477              		.loc 1 804 0
 1478 00a6 07B0     		add	sp, sp, #28
 1479 00a8 BDE8F083 		pop	{r4, r5, r6, r7, r8, r9, pc}
 1480              	.L95:
 1481              		.loc 1 790 0 discriminator 1
 1482 00ac 049A     		ldr	r2, [sp, #16]
 1483 00ae 002A     		cmp	r2, #0
 1484 00b0 DCD0     		beq	.L92
 1485              		.loc 1 794 0
 1486 00b2 A388     		ldrh	r3, [r4, #4]
 1487              	.LVL135:
 1488              		.loc 1 798 0
 1489 00b4 0C4D     		ldr	r5, .L96+4
 1490              		.loc 1 794 0
 1491 00b6 99B2     		uxth	r1, r3
 1492 00b8 41F40070 		orr	r0, r1, #512
 1493 00bc A080     		strh	r0, [r4, #4]	@ movhi
 1494              		.loc 1 795 0
 1495 00be 2288     		ldrh	r2, [r4, #0]
 1496              		.loc 1 798 0
 1497 00c0 AB69     		ldr	r3, [r5, #24]
 1498              		.loc 1 795 0
 1499 00c2 1FFA82FC 		uxth	ip, r2
 1500 00c6 4CF4A06E 		orr	lr, ip, #1280
 1501 00ca A4F800E0 		strh	lr, [r4, #0]	@ movhi
 1502              		.loc 1 799 0
 1503 00ce 0220     		movs	r0, #2
 1504              		.loc 1 798 0
 1505 00d0 F361     		str	r3, [r6, #28]
 1506              		.loc 1 799 0
 1507 00d2 FFF7FEFF 		bl	chSchGoSleepS
 1508              		.loc 1 800 0
 1509 00d6 0499     		ldr	r1, [sp, #16]
 1510 00d8 0029     		cmp	r1, #0
 1511 00da E2D0     		beq	.L89
 1512              		.loc 1 801 0
 1513 00dc 01A8     		add	r0, sp, #4
 1514 00de FFF7FEFF 		bl	chVTResetI
 1515 00e2 DEE7     		b	.L89
 1516              	.L97:
 1517              		.align	2
 1518              	.L96:
 1519 00e4 00000000 		.word	i2c_lld_safety_timeout
 1520 00e8 00000000 		.word	rlist
 1521              		.cfi_endproc
 1522              	.LFE131:
 1523              		.size	i2c_lld_master_receive_timeout, .-i2c_lld_master_receive_timeout
ARM GAS  C:\Users\DNIEL~1\AppData\Local\Temp\ccoq8iC7.s 			page 28


 1524              		.section	.text.i2c_lld_master_transmit_timeout,"ax",%progbits
 1525              		.align	2
 1526              		.p2align 4,,15
 1527              		.global	i2c_lld_master_transmit_timeout
 1528              		.thumb
 1529              		.thumb_func
 1530              		.type	i2c_lld_master_transmit_timeout, %function
 1531              	i2c_lld_master_transmit_timeout:
 1532              	.LFB132:
 1533              		.loc 1 834 0
 1534              		.cfi_startproc
 1535              		@ args = 12, pretend = 0, frame = 24
 1536              		@ frame_needed = 0, uses_anonymous_args = 0
 1537              	.LVL136:
 1538 0000 2DE9F043 		push	{r4, r5, r6, r7, r8, r9, lr}
 1539              	.LCFI11:
 1540              		.cfi_def_cfa_offset 28
 1541 0004 87B0     		sub	sp, sp, #28
 1542              	.LCFI12:
 1543              		.cfi_def_cfa_offset 56
 1544              		.loc 1 834 0
 1545 0006 0646     		mov	r6, r0
 1546              		.cfi_offset 14, -4
 1547              		.cfi_offset 9, -8
 1548              		.cfi_offset 8, -12
 1549              		.cfi_offset 7, -16
 1550              		.cfi_offset 6, -20
 1551              		.cfi_offset 5, -24
 1552              		.cfi_offset 4, -28
 1553 0008 109D     		ldr	r5, [sp, #64]
 1554              		.loc 1 835 0
 1555 000a 046B     		ldr	r4, [r0, #48]
 1556              	.LVL137:
 1557              		.loc 1 844 0
 1558 000c B5F1FF3F 		cmp	r5, #-1
 1559              		.loc 1 834 0
 1560 0010 0F46     		mov	r7, r1
 1561 0012 9046     		mov	r8, r2
 1562 0014 9946     		mov	r9, r3
 1563              		.loc 1 844 0
 1564 0016 05D0     		beq	.L99
 1565              		.loc 1 845 0
 1566 0018 01A8     		add	r0, sp, #4
 1567              	.LVL138:
 1568 001a 2946     		mov	r1, r5
 1569              	.LVL139:
 1570 001c 344A     		ldr	r2, .L113
 1571              	.LVL140:
 1572 001e 3346     		mov	r3, r6
 1573              	.LVL141:
 1574 0020 FFF7FEFF 		bl	chVTSetI
 1575              	.LVL142:
 1576              	.L99:
 1577              	.LBB88:
 1578              		.loc 1 848 0
 1579 0024 0023     		movs	r3, #0
 1580              	.LVL143:
ARM GAS  C:\Users\DNIEL~1\AppData\Local\Temp\ccoq8iC7.s 			page 29


 1581              	@ 848 "../../../ChibiOS/os/hal/platforms/STM32/I2Cv1/i2c_lld.c" 1
 1582 0026 83F31188 		msr     BASEPRI, r3
 1583              	@ 0 "" 2
 1584              	.LVL144:
 1585              		.thumb
 1586              	.LBE88:
 1587              		.loc 1 855 0
 1588 002a F06A     		ldr	r0, [r6, #44]
 1589              		.loc 1 859 0
 1590 002c B26A     		ldr	r2, [r6, #40]
 1591              		.loc 1 855 0
 1592 002e 0168     		ldr	r1, [r0, #0]
 1593              		.loc 1 859 0
 1594 0030 1268     		ldr	r2, [r2, #0]
 1595 0032 0E98     		ldr	r0, [sp, #56]
 1596              		.loc 1 852 0
 1597 0034 B360     		str	r3, [r6, #8]
 1598              	.LVL145:
 1599              		.loc 1 860 0
 1600 0036 0F9B     		ldr	r3, [sp, #60]
 1601              		.loc 1 851 0
 1602 0038 7F00     		lsls	r7, r7, #1
 1603 003a 3784     		strh	r7, [r6, #32]	@ movhi
 1604              		.loc 1 855 0
 1605 003c C1F80C80 		str	r8, [r1, #12]
 1606              		.loc 1 856 0
 1607 0040 C1F80490 		str	r9, [r1, #4]
 1608              		.loc 1 859 0
 1609 0044 D060     		str	r0, [r2, #12]
 1610              		.loc 1 860 0
 1611 0046 5360     		str	r3, [r2, #4]
 1612              		.loc 1 864 0
 1613 0048 02E0     		b	.L100
 1614              	.LVL146:
 1615              	.L101:
 1616              	.LBB89:
 1617              		.loc 1 868 0
 1618 004a 0023     		movs	r3, #0
 1619              	.LVL147:
 1620              	@ 868 "../../../ChibiOS/os/hal/platforms/STM32/I2Cv1/i2c_lld.c" 1
 1621 004c 83F31188 		msr     BASEPRI, r3
 1622              	@ 0 "" 2
 1623              	.LVL148:
 1624              		.thumb
 1625              	.L100:
 1626              	.LBE89:
 1627              		.loc 1 864 0 discriminator 1
 1628 0050 B4F818C0 		ldrh	ip, [r4, #24]
 1629 0054 1CF0020F 		tst	ip, #2
 1630 0058 03D1     		bne	.L103
 1631              		.loc 1 864 0 is_stmt 0 discriminator 2
 1632 005a 2188     		ldrh	r1, [r4, #0]
 1633 005c 11F4007F 		tst	r1, #512
 1634 0060 0BD0     		beq	.L111
 1635              	.L103:
 1636              	.LBB90:
 1637              		.loc 1 865 0 is_stmt 1
ARM GAS  C:\Users\DNIEL~1\AppData\Local\Temp\ccoq8iC7.s 			page 30


 1638 0062 2023     		movs	r3, #32
 1639              	.LVL149:
 1640              	@ 865 "../../../ChibiOS/os/hal/platforms/STM32/I2Cv1/i2c_lld.c" 1
 1641 0064 83F31188 		msr     BASEPRI, r3
 1642              	@ 0 "" 2
 1643              	.LVL150:
 1644              		.thumb
 1645              	.LBE90:
 1646              		.loc 1 866 0
 1647 0068 B5F1FF3F 		cmp	r5, #-1
 1648 006c EDD0     		beq	.L101
 1649              		.loc 1 866 0 is_stmt 0 discriminator 1
 1650 006e 049B     		ldr	r3, [sp, #16]
 1651              	.LVL151:
 1652 0070 002B     		cmp	r3, #0
 1653 0072 EAD1     		bne	.L101
 1654              	.LVL152:
 1655              	.L109:
 1656              		.loc 1 877 0 is_stmt 1
 1657 0074 4FF0FF30 		mov	r0, #-1
 1658 0078 1AE0     		b	.L102
 1659              	.LVL153:
 1660              	.L111:
 1661              	.LBB91:
 1662              		.loc 1 872 0
 1663 007a 2023     		movs	r3, #32
 1664              	.LVL154:
 1665              	@ 872 "../../../ChibiOS/os/hal/platforms/STM32/I2Cv1/i2c_lld.c" 1
 1666 007c 83F31188 		msr     BASEPRI, r3
 1667              	@ 0 "" 2
 1668              	.LVL155:
 1669              		.thumb
 1670              	.LBE91:
 1671              		.loc 1 876 0
 1672 0080 B5F1FF3F 		cmp	r5, #-1
 1673 0084 17D1     		bne	.L112
 1674              		.loc 1 880 0
 1675 0086 A388     		ldrh	r3, [r4, #4]
 1676              	.LVL156:
 1677              		.loc 1 884 0
 1678 0088 1A4D     		ldr	r5, .L113+4
 1679              		.loc 1 880 0
 1680 008a 9AB2     		uxth	r2, r3
 1681 008c 42F40071 		orr	r1, r2, #512
 1682 0090 A180     		strh	r1, [r4, #4]	@ movhi
 1683              		.loc 1 881 0
 1684 0092 B4F800C0 		ldrh	ip, [r4, #0]
 1685              		.loc 1 884 0
 1686 0096 AB69     		ldr	r3, [r5, #24]
 1687              		.loc 1 881 0
 1688 0098 1FFA8CF0 		uxth	r0, ip
 1689 009c 40F4807E 		orr	lr, r0, #256
 1690 00a0 A4F800E0 		strh	lr, [r4, #0]	@ movhi
 1691              		.loc 1 885 0
 1692 00a4 0220     		movs	r0, #2
 1693              		.loc 1 884 0
 1694 00a6 F361     		str	r3, [r6, #28]
ARM GAS  C:\Users\DNIEL~1\AppData\Local\Temp\ccoq8iC7.s 			page 31


 1695              		.loc 1 885 0
 1696 00a8 FFF7FEFF 		bl	chSchGoSleepS
 1697              	.L106:
 1698              		.loc 1 889 0
 1699 00ac A869     		ldr	r0, [r5, #24]
 1700 00ae 406A     		ldr	r0, [r0, #36]
 1701              	.LVL157:
 1702              	.L102:
 1703              		.loc 1 890 0
 1704 00b0 07B0     		add	sp, sp, #28
 1705 00b2 BDE8F083 		pop	{r4, r5, r6, r7, r8, r9, pc}
 1706              	.L112:
 1707              		.loc 1 876 0 discriminator 1
 1708 00b6 049A     		ldr	r2, [sp, #16]
 1709 00b8 002A     		cmp	r2, #0
 1710 00ba DBD0     		beq	.L109
 1711              		.loc 1 880 0
 1712 00bc A388     		ldrh	r3, [r4, #4]
 1713              	.LVL158:
 1714              		.loc 1 884 0
 1715 00be 0D4D     		ldr	r5, .L113+4
 1716              		.loc 1 880 0
 1717 00c0 99B2     		uxth	r1, r3
 1718 00c2 41F40070 		orr	r0, r1, #512
 1719 00c6 A080     		strh	r0, [r4, #4]	@ movhi
 1720              		.loc 1 881 0
 1721 00c8 2288     		ldrh	r2, [r4, #0]
 1722              		.loc 1 884 0
 1723 00ca AB69     		ldr	r3, [r5, #24]
 1724              		.loc 1 881 0
 1725 00cc 1FFA82FC 		uxth	ip, r2
 1726 00d0 4CF4807E 		orr	lr, ip, #256
 1727 00d4 A4F800E0 		strh	lr, [r4, #0]	@ movhi
 1728              		.loc 1 885 0
 1729 00d8 0220     		movs	r0, #2
 1730              		.loc 1 884 0
 1731 00da F361     		str	r3, [r6, #28]
 1732              		.loc 1 885 0
 1733 00dc FFF7FEFF 		bl	chSchGoSleepS
 1734              		.loc 1 886 0
 1735 00e0 0499     		ldr	r1, [sp, #16]
 1736 00e2 0029     		cmp	r1, #0
 1737 00e4 E2D0     		beq	.L106
 1738              		.loc 1 887 0
 1739 00e6 01A8     		add	r0, sp, #4
 1740 00e8 FFF7FEFF 		bl	chVTResetI
 1741 00ec DEE7     		b	.L106
 1742              	.L114:
 1743 00ee 00BF     		.align	2
 1744              	.L113:
 1745 00f0 00000000 		.word	i2c_lld_safety_timeout
 1746 00f4 00000000 		.word	rlist
 1747              		.cfi_endproc
 1748              	.LFE132:
 1749              		.size	i2c_lld_master_transmit_timeout, .-i2c_lld_master_transmit_timeout
 1750              		.global	I2CD1
 1751 00f8 AFF30080 		.section	.bss.I2CD1,"aw",%nobits
ARM GAS  C:\Users\DNIEL~1\AppData\Local\Temp\ccoq8iC7.s 			page 32


 1751      AFF30080 
 1752              		.align	2
 1753              		.set	.LANCHOR0,. + 0
 1754              		.type	I2CD1, %object
 1755              		.size	I2CD1, 52
 1756              	I2CD1:
 1757 0000 00000000 		.space	52
 1757      00000000 
 1757      00000000 
 1757      00000000 
 1757      00000000 
 1758              		.text
 1759              	.Letext0: