ARM GAS  C:\Users\DNIEL~1\AppData\Local\Temp\cc5BPyWQ.s 			page 1


   1              		.syntax unified
   2              		.cpu cortex-m4
   3              		.fpu softvfp
   4              		.eabi_attribute 20, 1
   5              		.eabi_attribute 21, 1
   6              		.eabi_attribute 23, 3
   7              		.eabi_attribute 24, 1
   8              		.eabi_attribute 25, 1
   9              		.eabi_attribute 26, 1
  10              		.eabi_attribute 30, 2
  11              		.eabi_attribute 34, 1
  12              		.eabi_attribute 18, 4
  13              		.thumb
  14              		.file	"icu.c"
  15              		.text
  16              	.Ltext0:
  17              		.cfi_sections	.debug_frame
  18              		.section	.text.icuInit,"ax",%progbits
  19              		.align	2
  20              		.p2align 4,,15
  21              		.global	icuInit
  22              		.thumb
  23              		.thumb_func
  24              		.type	icuInit, %function
  25              	icuInit:
  26              	.LFB118:
  27              		.file 1 "../../../ChibiOS/os/hal/src/icu.c"
  28              		.loc 1 61 0
  29              		.cfi_startproc
  30              		@ args = 0, pretend = 0, frame = 0
  31              		@ frame_needed = 0, uses_anonymous_args = 0
  32              		@ link register save eliminated.
  33              		.loc 1 64 0
  34              		.loc 1 63 0
  35 0000 FFF7FEBF 		b	icu_lld_init
  36              	.LVL0:
  37              		.cfi_endproc
  38              	.LFE118:
  39              		.size	icuInit, .-icuInit
  40 0004 AFF30080 		.section	.text.icuObjectInit,"ax",%progbits
  40      AFF30080 
  40      AFF30080 
  41              		.align	2
  42              		.p2align 4,,15
  43              		.global	icuObjectInit
  44              		.thumb
  45              		.thumb_func
  46              		.type	icuObjectInit, %function
  47              	icuObjectInit:
  48              	.LFB119:
  49              		.loc 1 73 0
  50              		.cfi_startproc
  51              		@ args = 0, pretend = 0, frame = 0
  52              		@ frame_needed = 0, uses_anonymous_args = 0
  53              		@ link register save eliminated.
  54              	.LVL1:
  55              		.loc 1 75 0
ARM GAS  C:\Users\DNIEL~1\AppData\Local\Temp\cc5BPyWQ.s 			page 2


  56 0000 0123     		movs	r3, #1
  57              		.loc 1 76 0
  58 0002 0021     		movs	r1, #0
  59              		.loc 1 75 0
  60 0004 0370     		strb	r3, [r0, #0]
  61              		.loc 1 76 0
  62 0006 4160     		str	r1, [r0, #4]
  63 0008 7047     		bx	lr
  64              		.cfi_endproc
  65              	.LFE119:
  66              		.size	icuObjectInit, .-icuObjectInit
  67 000a 00BFAFF3 		.section	.text.icuStart,"ax",%progbits
  67      0080
  68              		.align	2
  69              		.p2align 4,,15
  70              		.global	icuStart
  71              		.thumb
  72              		.thumb_func
  73              		.type	icuStart, %function
  74              	icuStart:
  75              	.LFB120:
  76              		.loc 1 87 0
  77              		.cfi_startproc
  78              		@ args = 0, pretend = 0, frame = 0
  79              		@ frame_needed = 0, uses_anonymous_args = 0
  80              	.LVL2:
  81 0000 10B5     		push	{r4, lr}
  82              	.LCFI0:
  83              		.cfi_def_cfa_offset 8
  84              		.cfi_offset 4, -8
  85              		.cfi_offset 14, -4
  86              	.LBB2:
  87              		.loc 1 91 0
  88 0002 2023     		movs	r3, #32
  89              	.LVL3:
  90              	.LBE2:
  91              		.loc 1 87 0
  92 0004 0446     		mov	r4, r0
  93              	.LBB3:
  94              		.loc 1 91 0
  95              	@ 91 "../../../ChibiOS/os/hal/src/icu.c" 1
  96 0006 83F31188 		msr     BASEPRI, r3
  97              	@ 0 "" 2
  98              	.LVL4:
  99              		.thumb
 100              	.LBE3:
 101              		.loc 1 94 0
 102 000a 4160     		str	r1, [r0, #4]
 103              		.loc 1 95 0
 104 000c FFF7FEFF 		bl	icu_lld_start
 105              	.LVL5:
 106              		.loc 1 96 0
 107 0010 0223     		movs	r3, #2
 108 0012 2370     		strb	r3, [r4, #0]
 109              	.LBB4:
 110              		.loc 1 97 0
 111 0014 0023     		movs	r3, #0
ARM GAS  C:\Users\DNIEL~1\AppData\Local\Temp\cc5BPyWQ.s 			page 3


 112              	.LVL6:
 113              	@ 97 "../../../ChibiOS/os/hal/src/icu.c" 1
 114 0016 83F31188 		msr     BASEPRI, r3
 115              	@ 0 "" 2
 116              	.LVL7:
 117              		.thumb
 118 001a 10BD     		pop	{r4, pc}
 119              	.LBE4:
 120              		.cfi_endproc
 121              	.LFE120:
 122              		.size	icuStart, .-icuStart
 123 001c AFF30080 		.section	.text.icuStop,"ax",%progbits
 124              		.align	2
 125              		.p2align 4,,15
 126              		.global	icuStop
 127              		.thumb
 128              		.thumb_func
 129              		.type	icuStop, %function
 130              	icuStop:
 131              	.LFB121:
 132              		.loc 1 107 0
 133              		.cfi_startproc
 134              		@ args = 0, pretend = 0, frame = 0
 135              		@ frame_needed = 0, uses_anonymous_args = 0
 136              	.LVL8:
 137 0000 10B5     		push	{r4, lr}
 138              	.LCFI1:
 139              		.cfi_def_cfa_offset 8
 140              		.cfi_offset 4, -8
 141              		.cfi_offset 14, -4
 142              	.LBB5:
 143              		.loc 1 111 0
 144 0002 2023     		movs	r3, #32
 145              	.LVL9:
 146              	.LBE5:
 147              		.loc 1 107 0
 148 0004 0446     		mov	r4, r0
 149              	.LBB6:
 150              		.loc 1 111 0
 151              	@ 111 "../../../ChibiOS/os/hal/src/icu.c" 1
 152 0006 83F31188 		msr     BASEPRI, r3
 153              	@ 0 "" 2
 154              	.LVL10:
 155              		.thumb
 156              	.LBE6:
 157              		.loc 1 114 0
 158 000a FFF7FEFF 		bl	icu_lld_stop
 159              	.LVL11:
 160              		.loc 1 115 0
 161 000e 0123     		movs	r3, #1
 162 0010 2370     		strb	r3, [r4, #0]
 163              	.LBB7:
 164              		.loc 1 116 0
 165 0012 0023     		movs	r3, #0
 166              	.LVL12:
 167              	@ 116 "../../../ChibiOS/os/hal/src/icu.c" 1
 168 0014 83F31188 		msr     BASEPRI, r3
ARM GAS  C:\Users\DNIEL~1\AppData\Local\Temp\cc5BPyWQ.s 			page 4


 169              	@ 0 "" 2
 170              	.LVL13:
 171              		.thumb
 172 0018 10BD     		pop	{r4, pc}
 173              	.LBE7:
 174              		.cfi_endproc
 175              	.LFE121:
 176              		.size	icuStop, .-icuStop
 177 001a 00BFAFF3 		.section	.text.icuEnable,"ax",%progbits
 177      0080
 178              		.align	2
 179              		.p2align 4,,15
 180              		.global	icuEnable
 181              		.thumb
 182              		.thumb_func
 183              		.type	icuEnable, %function
 184              	icuEnable:
 185              	.LFB122:
 186              		.loc 1 126 0
 187              		.cfi_startproc
 188              		@ args = 0, pretend = 0, frame = 0
 189              		@ frame_needed = 0, uses_anonymous_args = 0
 190              	.LVL14:
 191 0000 10B5     		push	{r4, lr}
 192              	.LCFI2:
 193              		.cfi_def_cfa_offset 8
 194              		.cfi_offset 4, -8
 195              		.cfi_offset 14, -4
 196              	.LBB8:
 197              		.loc 1 130 0
 198 0002 2023     		movs	r3, #32
 199              	.LVL15:
 200              	.LBE8:
 201              		.loc 1 126 0
 202 0004 0446     		mov	r4, r0
 203              	.LBB9:
 204              		.loc 1 130 0
 205              	@ 130 "../../../ChibiOS/os/hal/src/icu.c" 1
 206 0006 83F31188 		msr     BASEPRI, r3
 207              	@ 0 "" 2
 208              	.LVL16:
 209              		.thumb
 210              	.LBE9:
 211              		.loc 1 132 0
 212 000a FFF7FEFF 		bl	icu_lld_enable
 213              	.LVL17:
 214              		.loc 1 133 0
 215 000e 0323     		movs	r3, #3
 216 0010 2370     		strb	r3, [r4, #0]
 217              	.LBB10:
 218              		.loc 1 134 0
 219 0012 0023     		movs	r3, #0
 220              	.LVL18:
 221              	@ 134 "../../../ChibiOS/os/hal/src/icu.c" 1
 222 0014 83F31188 		msr     BASEPRI, r3
 223              	@ 0 "" 2
 224              	.LVL19:
ARM GAS  C:\Users\DNIEL~1\AppData\Local\Temp\cc5BPyWQ.s 			page 5


 225              		.thumb
 226 0018 10BD     		pop	{r4, pc}
 227              	.LBE10:
 228              		.cfi_endproc
 229              	.LFE122:
 230              		.size	icuEnable, .-icuEnable
 231 001a 00BFAFF3 		.section	.text.icuDisable,"ax",%progbits
 231      0080
 232              		.align	2
 233              		.p2align 4,,15
 234              		.global	icuDisable
 235              		.thumb
 236              		.thumb_func
 237              		.type	icuDisable, %function
 238              	icuDisable:
 239              	.LFB123:
 240              		.loc 1 144 0
 241              		.cfi_startproc
 242              		@ args = 0, pretend = 0, frame = 0
 243              		@ frame_needed = 0, uses_anonymous_args = 0
 244              	.LVL20:
 245 0000 10B5     		push	{r4, lr}
 246              	.LCFI3:
 247              		.cfi_def_cfa_offset 8
 248              		.cfi_offset 4, -8
 249              		.cfi_offset 14, -4
 250              	.LBB11:
 251              		.loc 1 148 0
 252 0002 2023     		movs	r3, #32
 253              	.LVL21:
 254              	.LBE11:
 255              		.loc 1 144 0
 256 0004 0446     		mov	r4, r0
 257              	.LBB12:
 258              		.loc 1 148 0
 259              	@ 148 "../../../ChibiOS/os/hal/src/icu.c" 1
 260 0006 83F31188 		msr     BASEPRI, r3
 261              	@ 0 "" 2
 262              	.LVL22:
 263              		.thumb
 264              	.LBE12:
 265              		.loc 1 152 0
 266 000a FFF7FEFF 		bl	icu_lld_disable
 267              	.LVL23:
 268              		.loc 1 153 0
 269 000e 0223     		movs	r3, #2
 270 0010 2370     		strb	r3, [r4, #0]
 271              	.LBB13:
 272              		.loc 1 154 0
 273 0012 0023     		movs	r3, #0
 274              	.LVL24:
 275              	@ 154 "../../../ChibiOS/os/hal/src/icu.c" 1
 276 0014 83F31188 		msr     BASEPRI, r3
 277              	@ 0 "" 2
 278              	.LVL25:
 279              		.thumb
 280 0018 10BD     		pop	{r4, pc}
ARM GAS  C:\Users\DNIEL~1\AppData\Local\Temp\cc5BPyWQ.s 			page 6


 281              	.LBE13:
 282              		.cfi_endproc
 283              	.LFE123:
 284              		.size	icuDisable, .-icuDisable
 285 001a 00BFAFF3 		.text
 285      0080
 286              	.Letext0:
 287              		.file 2 "c:\\chibistudio\\tools\\gnu tools arm embedded\\4.7 2014q2\\bin\\../lib/gcc/arm-none-eabi
 288              		.file 3 "../../../ChibiOS/os/hal/platforms/STM32/stm32.h"
 289              		.file 4 "../../../ChibiOS/os/hal/include/icu.h"
 290              		.file 5 "../../../ChibiOS/os/hal/platforms/STM32/icu_lld.h"
 291              		.file 6 "../../../ChibiOS/os/ports/common/ARMCMx/CMSIS/include/core_cm4.h"
 292              		.section	.debug_info,"",%progbits
 293              	.Ldebug_info0:
 294 0000 BE060000 		.4byte	0x6be
 295 0004 0200     		.2byte	0x2
 296 0006 00000000 		.4byte	.Ldebug_abbrev0
 297 000a 04       		.byte	0x4
 298 000b 01       		.uleb128 0x1
 299 000c 92000000 		.4byte	.LASF75
 300 0010 01       		.byte	0x1
 301 0011 70030000 		.4byte	.LASF76
 302 0015 1A000000 		.4byte	.LASF77
 303 0019 60000000 		.4byte	.Ldebug_ranges0+0x60
 304 001d 00000000 		.4byte	0
 305 0021 00000000 		.4byte	0
 306 0025 00000000 		.4byte	.Ldebug_line0
 307 0029 02       		.uleb128 0x2
 308 002a 04       		.byte	0x4
 309 002b 05       		.byte	0x5
 310 002c 696E7400 		.ascii	"int\000"
 311 0030 03       		.uleb128 0x3
 312 0031 04       		.byte	0x4
 313 0032 07       		.byte	0x7
 314 0033 30020000 		.4byte	.LASF0
 315 0037 03       		.uleb128 0x3
 316 0038 01       		.byte	0x1
 317 0039 06       		.byte	0x6
 318 003a 0E020000 		.4byte	.LASF1
 319 003e 03       		.uleb128 0x3
 320 003f 01       		.byte	0x1
 321 0040 08       		.byte	0x8
 322 0041 E3010000 		.4byte	.LASF2
 323 0045 03       		.uleb128 0x3
 324 0046 02       		.byte	0x2
 325 0047 05       		.byte	0x5
 326 0048 7A000000 		.4byte	.LASF3
 327 004c 04       		.uleb128 0x4
 328 004d 3D020000 		.4byte	.LASF5
 329 0051 02       		.byte	0x2
 330 0052 36       		.byte	0x36
 331 0053 57000000 		.4byte	0x57
 332 0057 03       		.uleb128 0x3
 333 0058 02       		.byte	0x2
 334 0059 07       		.byte	0x7
 335 005a 70020000 		.4byte	.LASF4
 336 005e 04       		.uleb128 0x4
ARM GAS  C:\Users\DNIEL~1\AppData\Local\Temp\cc5BPyWQ.s 			page 7


 337 005f B1020000 		.4byte	.LASF6
 338 0063 02       		.byte	0x2
 339 0064 4F       		.byte	0x4f
 340 0065 69000000 		.4byte	0x69
 341 0069 03       		.uleb128 0x3
 342 006a 04       		.byte	0x4
 343 006b 05       		.byte	0x5
 344 006c C0010000 		.4byte	.LASF7
 345 0070 04       		.uleb128 0x4
 346 0071 27020000 		.4byte	.LASF8
 347 0075 02       		.byte	0x2
 348 0076 50       		.byte	0x50
 349 0077 7B000000 		.4byte	0x7b
 350 007b 03       		.uleb128 0x3
 351 007c 04       		.byte	0x4
 352 007d 07       		.byte	0x7
 353 007e 0A030000 		.4byte	.LASF9
 354 0082 03       		.uleb128 0x3
 355 0083 08       		.byte	0x8
 356 0084 05       		.byte	0x5
 357 0085 8B010000 		.4byte	.LASF10
 358 0089 03       		.uleb128 0x3
 359 008a 08       		.byte	0x8
 360 008b 07       		.byte	0x7
 361 008c 99010000 		.4byte	.LASF11
 362 0090 05       		.uleb128 0x5
 363 0091 70000000 		.4byte	0x70
 364 0095 03       		.uleb128 0x3
 365 0096 04       		.byte	0x4
 366 0097 07       		.byte	0x7
 367 0098 89000000 		.4byte	.LASF12
 368 009c 03       		.uleb128 0x3
 369 009d 01       		.byte	0x1
 370 009e 08       		.byte	0x8
 371 009f 83020000 		.4byte	.LASF13
 372 00a3 06       		.uleb128 0x6
 373 00a4 70000000 		.4byte	0x70
 374 00a8 B3000000 		.4byte	0xb3
 375 00ac 07       		.uleb128 0x7
 376 00ad 95000000 		.4byte	0x95
 377 00b1 03       		.byte	0x3
 378 00b2 00       		.byte	0
 379 00b3 05       		.uleb128 0x5
 380 00b4 4C000000 		.4byte	0x4c
 381 00b8 05       		.uleb128 0x5
 382 00b9 5E000000 		.4byte	0x5e
 383 00bd 08       		.uleb128 0x8
 384 00be 54       		.byte	0x54
 385 00bf 03       		.byte	0x3
 386 00c0 60       		.byte	0x60
 387 00c1 92020000 		.4byte	0x292
 388 00c5 09       		.uleb128 0x9
 389 00c6 43523100 		.ascii	"CR1\000"
 390 00ca 03       		.byte	0x3
 391 00cb 61       		.byte	0x61
 392 00cc B3000000 		.4byte	0xb3
 393 00d0 02       		.byte	0x2
ARM GAS  C:\Users\DNIEL~1\AppData\Local\Temp\cc5BPyWQ.s 			page 8


 394 00d1 23       		.byte	0x23
 395 00d2 00       		.uleb128 0
 396 00d3 0A       		.uleb128 0xa
 397 00d4 06010000 		.4byte	.LASF14
 398 00d8 03       		.byte	0x3
 399 00d9 62       		.byte	0x62
 400 00da 4C000000 		.4byte	0x4c
 401 00de 02       		.byte	0x2
 402 00df 23       		.byte	0x23
 403 00e0 02       		.uleb128 0x2
 404 00e1 09       		.uleb128 0x9
 405 00e2 43523200 		.ascii	"CR2\000"
 406 00e6 03       		.byte	0x3
 407 00e7 63       		.byte	0x63
 408 00e8 B3000000 		.4byte	0xb3
 409 00ec 02       		.byte	0x2
 410 00ed 23       		.byte	0x23
 411 00ee 04       		.uleb128 0x4
 412 00ef 0A       		.uleb128 0xa
 413 00f0 0E010000 		.4byte	.LASF15
 414 00f4 03       		.byte	0x3
 415 00f5 64       		.byte	0x64
 416 00f6 4C000000 		.4byte	0x4c
 417 00fa 02       		.byte	0x2
 418 00fb 23       		.byte	0x23
 419 00fc 06       		.uleb128 0x6
 420 00fd 0A       		.uleb128 0xa
 421 00fe DE010000 		.4byte	.LASF16
 422 0102 03       		.byte	0x3
 423 0103 65       		.byte	0x65
 424 0104 B3000000 		.4byte	0xb3
 425 0108 02       		.byte	0x2
 426 0109 23       		.byte	0x23
 427 010a 08       		.uleb128 0x8
 428 010b 0A       		.uleb128 0xa
 429 010c 92030000 		.4byte	.LASF17
 430 0110 03       		.byte	0x3
 431 0111 66       		.byte	0x66
 432 0112 4C000000 		.4byte	0x4c
 433 0116 02       		.byte	0x2
 434 0117 23       		.byte	0x23
 435 0118 0A       		.uleb128 0xa
 436 0119 0A       		.uleb128 0xa
 437 011a 46020000 		.4byte	.LASF18
 438 011e 03       		.byte	0x3
 439 011f 67       		.byte	0x67
 440 0120 B3000000 		.4byte	0xb3
 441 0124 02       		.byte	0x2
 442 0125 23       		.byte	0x23
 443 0126 0C       		.uleb128 0xc
 444 0127 0A       		.uleb128 0xa
 445 0128 1F010000 		.4byte	.LASF19
 446 012c 03       		.byte	0x3
 447 012d 68       		.byte	0x68
 448 012e 4C000000 		.4byte	0x4c
 449 0132 02       		.byte	0x2
 450 0133 23       		.byte	0x23
ARM GAS  C:\Users\DNIEL~1\AppData\Local\Temp\cc5BPyWQ.s 			page 9


 451 0134 0E       		.uleb128 0xe
 452 0135 09       		.uleb128 0x9
 453 0136 535200   		.ascii	"SR\000"
 454 0139 03       		.byte	0x3
 455 013a 69       		.byte	0x69
 456 013b B3000000 		.4byte	0xb3
 457 013f 02       		.byte	0x2
 458 0140 23       		.byte	0x23
 459 0141 10       		.uleb128 0x10
 460 0142 0A       		.uleb128 0xa
 461 0143 27010000 		.4byte	.LASF20
 462 0147 03       		.byte	0x3
 463 0148 6A       		.byte	0x6a
 464 0149 4C000000 		.4byte	0x4c
 465 014d 02       		.byte	0x2
 466 014e 23       		.byte	0x23
 467 014f 12       		.uleb128 0x12
 468 0150 09       		.uleb128 0x9
 469 0151 45475200 		.ascii	"EGR\000"
 470 0155 03       		.byte	0x3
 471 0156 6B       		.byte	0x6b
 472 0157 B3000000 		.4byte	0xb3
 473 015b 02       		.byte	0x2
 474 015c 23       		.byte	0x23
 475 015d 14       		.uleb128 0x14
 476 015e 0A       		.uleb128 0xa
 477 015f 2F010000 		.4byte	.LASF21
 478 0163 03       		.byte	0x3
 479 0164 6C       		.byte	0x6c
 480 0165 4C000000 		.4byte	0x4c
 481 0169 02       		.byte	0x2
 482 016a 23       		.byte	0x23
 483 016b 16       		.uleb128 0x16
 484 016c 0A       		.uleb128 0xa
 485 016d CF010000 		.4byte	.LASF22
 486 0171 03       		.byte	0x3
 487 0172 6D       		.byte	0x6d
 488 0173 B3000000 		.4byte	0xb3
 489 0177 02       		.byte	0x2
 490 0178 23       		.byte	0x23
 491 0179 18       		.uleb128 0x18
 492 017a 0A       		.uleb128 0xa
 493 017b 37010000 		.4byte	.LASF23
 494 017f 03       		.byte	0x3
 495 0180 6E       		.byte	0x6e
 496 0181 4C000000 		.4byte	0x4c
 497 0185 02       		.byte	0x2
 498 0186 23       		.byte	0x23
 499 0187 1A       		.uleb128 0x1a
 500 0188 0A       		.uleb128 0xa
 501 0189 74000000 		.4byte	.LASF24
 502 018d 03       		.byte	0x3
 503 018e 6F       		.byte	0x6f
 504 018f B3000000 		.4byte	0xb3
 505 0193 02       		.byte	0x2
 506 0194 23       		.byte	0x23
 507 0195 1C       		.uleb128 0x1c
ARM GAS  C:\Users\DNIEL~1\AppData\Local\Temp\cc5BPyWQ.s 			page 10


 508 0196 0A       		.uleb128 0xa
 509 0197 3F010000 		.4byte	.LASF25
 510 019b 03       		.byte	0x3
 511 019c 70       		.byte	0x70
 512 019d 4C000000 		.4byte	0x4c
 513 01a1 02       		.byte	0x2
 514 01a2 23       		.byte	0x23
 515 01a3 1E       		.uleb128 0x1e
 516 01a4 0A       		.uleb128 0xa
 517 01a5 15000000 		.4byte	.LASF26
 518 01a9 03       		.byte	0x3
 519 01aa 71       		.byte	0x71
 520 01ab B3000000 		.4byte	0xb3
 521 01af 02       		.byte	0x2
 522 01b0 23       		.byte	0x23
 523 01b1 20       		.uleb128 0x20
 524 01b2 0A       		.uleb128 0xa
 525 01b3 02030000 		.4byte	.LASF27
 526 01b7 03       		.byte	0x3
 527 01b8 72       		.byte	0x72
 528 01b9 4C000000 		.4byte	0x4c
 529 01bd 02       		.byte	0x2
 530 01be 23       		.byte	0x23
 531 01bf 22       		.uleb128 0x22
 532 01c0 09       		.uleb128 0x9
 533 01c1 434E5400 		.ascii	"CNT\000"
 534 01c5 03       		.byte	0x3
 535 01c6 73       		.byte	0x73
 536 01c7 90000000 		.4byte	0x90
 537 01cb 02       		.byte	0x2
 538 01cc 23       		.byte	0x23
 539 01cd 24       		.uleb128 0x24
 540 01ce 09       		.uleb128 0x9
 541 01cf 50534300 		.ascii	"PSC\000"
 542 01d3 03       		.byte	0x3
 543 01d4 74       		.byte	0x74
 544 01d5 B3000000 		.4byte	0xb3
 545 01d9 02       		.byte	0x2
 546 01da 23       		.byte	0x23
 547 01db 28       		.uleb128 0x28
 548 01dc 0A       		.uleb128 0xa
 549 01dd A5030000 		.4byte	.LASF28
 550 01e1 03       		.byte	0x3
 551 01e2 75       		.byte	0x75
 552 01e3 4C000000 		.4byte	0x4c
 553 01e7 02       		.byte	0x2
 554 01e8 23       		.byte	0x23
 555 01e9 2A       		.uleb128 0x2a
 556 01ea 09       		.uleb128 0x9
 557 01eb 41525200 		.ascii	"ARR\000"
 558 01ef 03       		.byte	0x3
 559 01f0 76       		.byte	0x76
 560 01f1 90000000 		.4byte	0x90
 561 01f5 02       		.byte	0x2
 562 01f6 23       		.byte	0x23
 563 01f7 2C       		.uleb128 0x2c
 564 01f8 09       		.uleb128 0x9
ARM GAS  C:\Users\DNIEL~1\AppData\Local\Temp\cc5BPyWQ.s 			page 11


 565 01f9 52435200 		.ascii	"RCR\000"
 566 01fd 03       		.byte	0x3
 567 01fe 77       		.byte	0x77
 568 01ff B3000000 		.4byte	0xb3
 569 0203 02       		.byte	0x2
 570 0204 23       		.byte	0x23
 571 0205 30       		.uleb128 0x30
 572 0206 0A       		.uleb128 0xa
 573 0207 22030000 		.4byte	.LASF29
 574 020b 03       		.byte	0x3
 575 020c 78       		.byte	0x78
 576 020d 4C000000 		.4byte	0x4c
 577 0211 02       		.byte	0x2
 578 0212 23       		.byte	0x23
 579 0213 32       		.uleb128 0x32
 580 0214 09       		.uleb128 0x9
 581 0215 43435200 		.ascii	"CCR\000"
 582 0219 03       		.byte	0x3
 583 021a 79       		.byte	0x79
 584 021b 92020000 		.4byte	0x292
 585 021f 02       		.byte	0x2
 586 0220 23       		.byte	0x23
 587 0221 34       		.uleb128 0x34
 588 0222 0A       		.uleb128 0xa
 589 0223 AC020000 		.4byte	.LASF30
 590 0227 03       		.byte	0x3
 591 0228 7A       		.byte	0x7a
 592 0229 B3000000 		.4byte	0xb3
 593 022d 02       		.byte	0x2
 594 022e 23       		.byte	0x23
 595 022f 44       		.uleb128 0x44
 596 0230 0A       		.uleb128 0xa
 597 0231 16010000 		.4byte	.LASF31
 598 0235 03       		.byte	0x3
 599 0236 7B       		.byte	0x7b
 600 0237 4C000000 		.4byte	0x4c
 601 023b 02       		.byte	0x2
 602 023c 23       		.byte	0x23
 603 023d 46       		.uleb128 0x46
 604 023e 09       		.uleb128 0x9
 605 023f 44435200 		.ascii	"DCR\000"
 606 0243 03       		.byte	0x3
 607 0244 7C       		.byte	0x7c
 608 0245 B3000000 		.4byte	0xb3
 609 0249 02       		.byte	0x2
 610 024a 23       		.byte	0x23
 611 024b 48       		.uleb128 0x48
 612 024c 0A       		.uleb128 0xa
 613 024d 55020000 		.4byte	.LASF32
 614 0251 03       		.byte	0x3
 615 0252 7D       		.byte	0x7d
 616 0253 4C000000 		.4byte	0x4c
 617 0257 02       		.byte	0x2
 618 0258 23       		.byte	0x23
 619 0259 4A       		.uleb128 0x4a
 620 025a 0A       		.uleb128 0xa
 621 025b 69000000 		.4byte	.LASF33
ARM GAS  C:\Users\DNIEL~1\AppData\Local\Temp\cc5BPyWQ.s 			page 12


 622 025f 03       		.byte	0x3
 623 0260 7E       		.byte	0x7e
 624 0261 B3000000 		.4byte	0xb3
 625 0265 02       		.byte	0x2
 626 0266 23       		.byte	0x23
 627 0267 4C       		.uleb128 0x4c
 628 0268 0A       		.uleb128 0xa
 629 0269 5E020000 		.4byte	.LASF34
 630 026d 03       		.byte	0x3
 631 026e 7F       		.byte	0x7f
 632 026f 4C000000 		.4byte	0x4c
 633 0273 02       		.byte	0x2
 634 0274 23       		.byte	0x23
 635 0275 4E       		.uleb128 0x4e
 636 0276 09       		.uleb128 0x9
 637 0277 4F5200   		.ascii	"OR\000"
 638 027a 03       		.byte	0x3
 639 027b 80       		.byte	0x80
 640 027c B3000000 		.4byte	0xb3
 641 0280 02       		.byte	0x2
 642 0281 23       		.byte	0x23
 643 0282 50       		.uleb128 0x50
 644 0283 0A       		.uleb128 0xa
 645 0284 67020000 		.4byte	.LASF35
 646 0288 03       		.byte	0x3
 647 0289 81       		.byte	0x81
 648 028a 4C000000 		.4byte	0x4c
 649 028e 02       		.byte	0x2
 650 028f 23       		.byte	0x23
 651 0290 52       		.uleb128 0x52
 652 0291 00       		.byte	0
 653 0292 05       		.uleb128 0x5
 654 0293 A3000000 		.4byte	0xa3
 655 0297 04       		.uleb128 0x4
 656 0298 96020000 		.4byte	.LASF36
 657 029c 03       		.byte	0x3
 658 029d 82       		.byte	0x82
 659 029e BD000000 		.4byte	0xbd
 660 02a2 0B       		.uleb128 0xb
 661 02a3 04       		.byte	0x4
 662 02a4 90000000 		.4byte	0x90
 663 02a8 0C       		.uleb128 0xc
 664 02a9 01       		.byte	0x1
 665 02aa 04       		.byte	0x4
 666 02ab 35       		.byte	0x35
 667 02ac D5020000 		.4byte	0x2d5
 668 02b0 0D       		.uleb128 0xd
 669 02b1 E1020000 		.4byte	.LASF37
 670 02b5 00       		.sleb128 0
 671 02b6 0D       		.uleb128 0xd
 672 02b7 45000000 		.4byte	.LASF38
 673 02bb 01       		.sleb128 1
 674 02bc 0D       		.uleb128 0xd
 675 02bd 4B030000 		.4byte	.LASF39
 676 02c1 02       		.sleb128 2
 677 02c2 0D       		.uleb128 0xd
 678 02c3 63010000 		.4byte	.LASF40
ARM GAS  C:\Users\DNIEL~1\AppData\Local\Temp\cc5BPyWQ.s 			page 13


 679 02c7 03       		.sleb128 3
 680 02c8 0D       		.uleb128 0xd
 681 02c9 80010000 		.4byte	.LASF41
 682 02cd 04       		.sleb128 4
 683 02ce 0D       		.uleb128 0xd
 684 02cf D5010000 		.4byte	.LASF42
 685 02d3 05       		.sleb128 5
 686 02d4 00       		.byte	0
 687 02d5 04       		.uleb128 0x4
 688 02d6 9A030000 		.4byte	.LASF43
 689 02da 04       		.byte	0x4
 690 02db 3C       		.byte	0x3c
 691 02dc A8020000 		.4byte	0x2a8
 692 02e0 04       		.uleb128 0x4
 693 02e1 37030000 		.4byte	.LASF44
 694 02e5 04       		.byte	0x4
 695 02e6 41       		.byte	0x41
 696 02e7 EB020000 		.4byte	0x2eb
 697 02eb 0E       		.uleb128 0xe
 698 02ec 37030000 		.4byte	.LASF44
 699 02f0 18       		.byte	0x18
 700 02f1 05       		.byte	0x5
 701 02f2 1301     		.2byte	0x113
 702 02f4 53030000 		.4byte	0x353
 703 02f8 0F       		.uleb128 0xf
 704 02f9 6E000000 		.4byte	.LASF45
 705 02fd 05       		.byte	0x5
 706 02fe 1701     		.2byte	0x117
 707 0300 D5020000 		.4byte	0x2d5
 708 0304 02       		.byte	0x2
 709 0305 23       		.byte	0x23
 710 0306 00       		.uleb128 0
 711 0307 0F       		.uleb128 0xf
 712 0308 FF000000 		.4byte	.LASF46
 713 030c 05       		.byte	0x5
 714 030d 1B01     		.2byte	0x11b
 715 030f 2D040000 		.4byte	0x42d
 716 0313 02       		.byte	0x2
 717 0314 23       		.byte	0x23
 718 0315 04       		.uleb128 0x4
 719 0316 0F       		.uleb128 0xf
 720 0317 1C030000 		.4byte	.LASF47
 721 031b 05       		.byte	0x5
 722 031c 2301     		.2byte	0x123
 723 031e 70000000 		.4byte	0x70
 724 0322 02       		.byte	0x2
 725 0323 23       		.byte	0x23
 726 0324 08       		.uleb128 0x8
 727 0325 10       		.uleb128 0x10
 728 0326 74696D00 		.ascii	"tim\000"
 729 032a 05       		.byte	0x5
 730 032b 2701     		.2byte	0x127
 731 032d 38040000 		.4byte	0x438
 732 0331 02       		.byte	0x2
 733 0332 23       		.byte	0x23
 734 0333 0C       		.uleb128 0xc
 735 0334 0F       		.uleb128 0xf
ARM GAS  C:\Users\DNIEL~1\AppData\Local\Temp\cc5BPyWQ.s 			page 14


 736 0335 BA010000 		.4byte	.LASF48
 737 0339 05       		.byte	0x5
 738 033a 2B01     		.2byte	0x12b
 739 033c A2020000 		.4byte	0x2a2
 740 0340 02       		.byte	0x2
 741 0341 23       		.byte	0x23
 742 0342 10       		.uleb128 0x10
 743 0343 0F       		.uleb128 0xf
 744 0344 C9010000 		.4byte	.LASF49
 745 0348 05       		.byte	0x5
 746 0349 2F01     		.2byte	0x12f
 747 034b A2020000 		.4byte	0x2a2
 748 034f 02       		.byte	0x2
 749 0350 23       		.byte	0x23
 750 0351 14       		.uleb128 0x14
 751 0352 00       		.byte	0
 752 0353 04       		.uleb128 0x4
 753 0354 88020000 		.4byte	.LASF50
 754 0358 04       		.byte	0x4
 755 0359 48       		.byte	0x48
 756 035a 5E030000 		.4byte	0x35e
 757 035e 0B       		.uleb128 0xb
 758 035f 04       		.byte	0x4
 759 0360 64030000 		.4byte	0x364
 760 0364 11       		.uleb128 0x11
 761 0365 01       		.byte	0x1
 762 0366 70030000 		.4byte	0x370
 763 036a 12       		.uleb128 0x12
 764 036b 70030000 		.4byte	0x370
 765 036f 00       		.byte	0
 766 0370 0B       		.uleb128 0xb
 767 0371 04       		.byte	0x4
 768 0372 E0020000 		.4byte	0x2e0
 769 0376 0C       		.uleb128 0xc
 770 0377 01       		.byte	0x1
 771 0378 05       		.byte	0x5
 772 0379 D6       		.byte	0xd6
 773 037a 8B030000 		.4byte	0x38b
 774 037e 0D       		.uleb128 0xd
 775 037f EC020000 		.4byte	.LASF51
 776 0383 00       		.sleb128 0
 777 0384 0D       		.uleb128 0xd
 778 0385 B9020000 		.4byte	.LASF52
 779 0389 01       		.sleb128 1
 780 038a 00       		.byte	0
 781 038b 04       		.uleb128 0x4
 782 038c B0010000 		.4byte	.LASF53
 783 0390 05       		.byte	0x5
 784 0391 D9       		.byte	0xd9
 785 0392 76030000 		.4byte	0x376
 786 0396 04       		.uleb128 0x4
 787 0397 4B020000 		.4byte	.LASF54
 788 039b 05       		.byte	0x5
 789 039c DE       		.byte	0xde
 790 039d 70000000 		.4byte	0x70
 791 03a1 0C       		.uleb128 0xc
 792 03a2 01       		.byte	0x1
ARM GAS  C:\Users\DNIEL~1\AppData\Local\Temp\cc5BPyWQ.s 			page 15


 793 03a3 05       		.byte	0x5
 794 03a4 E3       		.byte	0xe3
 795 03a5 B6030000 		.4byte	0x3b6
 796 03a9 0D       		.uleb128 0xd
 797 03aa 47010000 		.4byte	.LASF55
 798 03ae 00       		.sleb128 0
 799 03af 0D       		.uleb128 0xd
 800 03b0 55010000 		.4byte	.LASF56
 801 03b4 01       		.sleb128 1
 802 03b5 00       		.byte	0
 803 03b6 04       		.uleb128 0x4
 804 03b7 4E000000 		.4byte	.LASF57
 805 03bb 05       		.byte	0x5
 806 03bc E6       		.byte	0xe6
 807 03bd A1030000 		.4byte	0x3a1
 808 03c1 08       		.uleb128 0x8
 809 03c2 18       		.byte	0x18
 810 03c3 05       		.byte	0x5
 811 03c4 F1       		.byte	0xf1
 812 03c5 21040000 		.4byte	0x421
 813 03c9 0A       		.uleb128 0xa
 814 03ca EA000000 		.4byte	.LASF58
 815 03ce 05       		.byte	0x5
 816 03cf F5       		.byte	0xf5
 817 03d0 8B030000 		.4byte	0x38b
 818 03d4 02       		.byte	0x2
 819 03d5 23       		.byte	0x23
 820 03d6 00       		.uleb128 0
 821 03d7 0A       		.uleb128 0xa
 822 03d8 41030000 		.4byte	.LASF59
 823 03dc 05       		.byte	0x5
 824 03dd FB       		.byte	0xfb
 825 03de 96030000 		.4byte	0x396
 826 03e2 02       		.byte	0x2
 827 03e3 23       		.byte	0x23
 828 03e4 04       		.uleb128 0x4
 829 03e5 0A       		.uleb128 0xa
 830 03e6 77010000 		.4byte	.LASF60
 831 03ea 05       		.byte	0x5
 832 03eb FF       		.byte	0xff
 833 03ec 53030000 		.4byte	0x353
 834 03f0 02       		.byte	0x2
 835 03f1 23       		.byte	0x23
 836 03f2 08       		.uleb128 0x8
 837 03f3 0F       		.uleb128 0xf
 838 03f4 A2020000 		.4byte	.LASF61
 839 03f8 05       		.byte	0x5
 840 03f9 0301     		.2byte	0x103
 841 03fb 53030000 		.4byte	0x353
 842 03ff 02       		.byte	0x2
 843 0400 23       		.byte	0x23
 844 0401 0C       		.uleb128 0xc
 845 0402 0F       		.uleb128 0xf
 846 0403 2B030000 		.4byte	.LASF62
 847 0407 05       		.byte	0x5
 848 0408 0701     		.2byte	0x107
 849 040a 53030000 		.4byte	0x353
ARM GAS  C:\Users\DNIEL~1\AppData\Local\Temp\cc5BPyWQ.s 			page 16


 850 040e 02       		.byte	0x2
 851 040f 23       		.byte	0x23
 852 0410 10       		.uleb128 0x10
 853 0411 0F       		.uleb128 0xf
 854 0412 CE020000 		.4byte	.LASF63
 855 0416 05       		.byte	0x5
 856 0417 0D01     		.2byte	0x10d
 857 0419 B6030000 		.4byte	0x3b6
 858 041d 02       		.byte	0x2
 859 041e 23       		.byte	0x23
 860 041f 14       		.uleb128 0x14
 861 0420 00       		.byte	0
 862 0421 13       		.uleb128 0x13
 863 0422 F1010000 		.4byte	.LASF64
 864 0426 05       		.byte	0x5
 865 0427 0E01     		.2byte	0x10e
 866 0429 C1030000 		.4byte	0x3c1
 867 042d 0B       		.uleb128 0xb
 868 042e 04       		.byte	0x4
 869 042f 33040000 		.4byte	0x433
 870 0433 14       		.uleb128 0x14
 871 0434 21040000 		.4byte	0x421
 872 0438 0B       		.uleb128 0xb
 873 0439 04       		.byte	0x4
 874 043a 97020000 		.4byte	0x297
 875 043e 15       		.uleb128 0x15
 876 043f 01       		.byte	0x1
 877 0440 6F010000 		.4byte	.LASF65
 878 0444 01       		.byte	0x1
 879 0445 3D       		.byte	0x3d
 880 0446 01       		.byte	0x1
 881 0447 00000000 		.4byte	.LFB118
 882 044b 04000000 		.4byte	.LFE118
 883 044f 02       		.byte	0x2
 884 0450 7D       		.byte	0x7d
 885 0451 00       		.sleb128 0
 886 0452 01       		.byte	0x1
 887 0453 62040000 		.4byte	0x462
 888 0457 16       		.uleb128 0x16
 889 0458 04000000 		.4byte	.LVL0
 890 045c 01       		.byte	0x1
 891 045d 66060000 		.4byte	0x666
 892 0461 00       		.byte	0
 893 0462 15       		.uleb128 0x15
 894 0463 01       		.byte	0x1
 895 0464 55030000 		.4byte	.LASF66
 896 0468 01       		.byte	0x1
 897 0469 49       		.byte	0x49
 898 046a 01       		.byte	0x1
 899 046b 00000000 		.4byte	.LFB119
 900 046f 0A000000 		.4byte	.LFE119
 901 0473 02       		.byte	0x2
 902 0474 7D       		.byte	0x7d
 903 0475 00       		.sleb128 0
 904 0476 01       		.byte	0x1
 905 0477 89040000 		.4byte	0x489
 906 047b 17       		.uleb128 0x17
ARM GAS  C:\Users\DNIEL~1\AppData\Local\Temp\cc5BPyWQ.s 			page 17


 907 047c 84000000 		.4byte	.LASF68
 908 0480 01       		.byte	0x1
 909 0481 49       		.byte	0x49
 910 0482 70030000 		.4byte	0x370
 911 0486 01       		.byte	0x1
 912 0487 50       		.byte	0x50
 913 0488 00       		.byte	0
 914 0489 18       		.uleb128 0x18
 915 048a 01       		.byte	0x1
 916 048b FB010000 		.4byte	.LASF67
 917 048f 01       		.byte	0x1
 918 0490 57       		.byte	0x57
 919 0491 01       		.byte	0x1
 920 0492 00000000 		.4byte	.LFB120
 921 0496 1C000000 		.4byte	.LFE120
 922 049a 00000000 		.4byte	.LLST0
 923 049e 01       		.byte	0x1
 924 049f 08050000 		.4byte	0x508
 925 04a3 19       		.uleb128 0x19
 926 04a4 84000000 		.4byte	.LASF68
 927 04a8 01       		.byte	0x1
 928 04a9 57       		.byte	0x57
 929 04aa 70030000 		.4byte	0x370
 930 04ae 20000000 		.4byte	.LLST1
 931 04b2 19       		.uleb128 0x19
 932 04b3 FF000000 		.4byte	.LASF46
 933 04b7 01       		.byte	0x1
 934 04b8 57       		.byte	0x57
 935 04b9 2D040000 		.4byte	0x42d
 936 04bd 3E000000 		.4byte	.LLST2
 937 04c1 1A       		.uleb128 0x1a
 938 04c2 00000000 		.4byte	.Ldebug_ranges0+0
 939 04c6 DA040000 		.4byte	0x4da
 940 04ca 1B       		.uleb128 0x1b
 941 04cb 746D7000 		.ascii	"tmp\000"
 942 04cf 01       		.byte	0x1
 943 04d0 5B       		.byte	0x5b
 944 04d1 70000000 		.4byte	0x70
 945 04d5 5F000000 		.4byte	.LLST3
 946 04d9 00       		.byte	0
 947 04da 1C       		.uleb128 0x1c
 948 04db 14000000 		.4byte	.LBB4
 949 04df 1C000000 		.4byte	.LBE4
 950 04e3 F7040000 		.4byte	0x4f7
 951 04e7 1B       		.uleb128 0x1b
 952 04e8 746D7000 		.ascii	"tmp\000"
 953 04ec 01       		.byte	0x1
 954 04ed 61       		.byte	0x61
 955 04ee 70000000 		.4byte	0x70
 956 04f2 72000000 		.4byte	.LLST4
 957 04f6 00       		.byte	0
 958 04f7 1D       		.uleb128 0x1d
 959 04f8 10000000 		.4byte	.LVL5
 960 04fc 71060000 		.4byte	0x671
 961 0500 1E       		.uleb128 0x1e
 962 0501 01       		.byte	0x1
 963 0502 50       		.byte	0x50
ARM GAS  C:\Users\DNIEL~1\AppData\Local\Temp\cc5BPyWQ.s 			page 18


 964 0503 02       		.byte	0x2
 965 0504 74       		.byte	0x74
 966 0505 00       		.sleb128 0
 967 0506 00       		.byte	0
 968 0507 00       		.byte	0
 969 0508 18       		.uleb128 0x18
 970 0509 01       		.byte	0x1
 971 050a 00000000 		.4byte	.LASF69
 972 050e 01       		.byte	0x1
 973 050f 6B       		.byte	0x6b
 974 0510 01       		.byte	0x1
 975 0511 00000000 		.4byte	.LFB121
 976 0515 1A000000 		.4byte	.LFE121
 977 0519 85000000 		.4byte	.LLST5
 978 051d 01       		.byte	0x1
 979 051e 78050000 		.4byte	0x578
 980 0522 19       		.uleb128 0x19
 981 0523 84000000 		.4byte	.LASF68
 982 0527 01       		.byte	0x1
 983 0528 6B       		.byte	0x6b
 984 0529 70030000 		.4byte	0x370
 985 052d A5000000 		.4byte	.LLST6
 986 0531 1A       		.uleb128 0x1a
 987 0532 18000000 		.4byte	.Ldebug_ranges0+0x18
 988 0536 4A050000 		.4byte	0x54a
 989 053a 1B       		.uleb128 0x1b
 990 053b 746D7000 		.ascii	"tmp\000"
 991 053f 01       		.byte	0x1
 992 0540 6F       		.byte	0x6f
 993 0541 70000000 		.4byte	0x70
 994 0545 C3000000 		.4byte	.LLST7
 995 0549 00       		.byte	0
 996 054a 1C       		.uleb128 0x1c
 997 054b 12000000 		.4byte	.LBB7
 998 054f 1A000000 		.4byte	.LBE7
 999 0553 67050000 		.4byte	0x567
 1000 0557 1B       		.uleb128 0x1b
 1001 0558 746D7000 		.ascii	"tmp\000"
 1002 055c 01       		.byte	0x1
 1003 055d 74       		.byte	0x74
 1004 055e 70000000 		.4byte	0x70
 1005 0562 D6000000 		.4byte	.LLST8
 1006 0566 00       		.byte	0
 1007 0567 1D       		.uleb128 0x1d
 1008 0568 0E000000 		.4byte	.LVL11
 1009 056c 86060000 		.4byte	0x686
 1010 0570 1E       		.uleb128 0x1e
 1011 0571 01       		.byte	0x1
 1012 0572 50       		.byte	0x50
 1013 0573 02       		.byte	0x2
 1014 0574 74       		.byte	0x74
 1015 0575 00       		.sleb128 0
 1016 0576 00       		.byte	0
 1017 0577 00       		.byte	0
 1018 0578 18       		.uleb128 0x18
 1019 0579 01       		.byte	0x1
 1020 057a 04020000 		.4byte	.LASF70
ARM GAS  C:\Users\DNIEL~1\AppData\Local\Temp\cc5BPyWQ.s 			page 19


 1021 057e 01       		.byte	0x1
 1022 057f 7E       		.byte	0x7e
 1023 0580 01       		.byte	0x1
 1024 0581 00000000 		.4byte	.LFB122
 1025 0585 1A000000 		.4byte	.LFE122
 1026 0589 E9000000 		.4byte	.LLST9
 1027 058d 01       		.byte	0x1
 1028 058e E8050000 		.4byte	0x5e8
 1029 0592 19       		.uleb128 0x19
 1030 0593 84000000 		.4byte	.LASF68
 1031 0597 01       		.byte	0x1
 1032 0598 7E       		.byte	0x7e
 1033 0599 70030000 		.4byte	0x370
 1034 059d 09010000 		.4byte	.LLST10
 1035 05a1 1A       		.uleb128 0x1a
 1036 05a2 30000000 		.4byte	.Ldebug_ranges0+0x30
 1037 05a6 BA050000 		.4byte	0x5ba
 1038 05aa 1B       		.uleb128 0x1b
 1039 05ab 746D7000 		.ascii	"tmp\000"
 1040 05af 01       		.byte	0x1
 1041 05b0 82       		.byte	0x82
 1042 05b1 70000000 		.4byte	0x70
 1043 05b5 27010000 		.4byte	.LLST11
 1044 05b9 00       		.byte	0
 1045 05ba 1C       		.uleb128 0x1c
 1046 05bb 12000000 		.4byte	.LBB10
 1047 05bf 1A000000 		.4byte	.LBE10
 1048 05c3 D7050000 		.4byte	0x5d7
 1049 05c7 1B       		.uleb128 0x1b
 1050 05c8 746D7000 		.ascii	"tmp\000"
 1051 05cc 01       		.byte	0x1
 1052 05cd 86       		.byte	0x86
 1053 05ce 70000000 		.4byte	0x70
 1054 05d2 3A010000 		.4byte	.LLST12
 1055 05d6 00       		.byte	0
 1056 05d7 1D       		.uleb128 0x1d
 1057 05d8 0E000000 		.4byte	.LVL17
 1058 05dc 9B060000 		.4byte	0x69b
 1059 05e0 1E       		.uleb128 0x1e
 1060 05e1 01       		.byte	0x1
 1061 05e2 50       		.byte	0x50
 1062 05e3 02       		.byte	0x2
 1063 05e4 74       		.byte	0x74
 1064 05e5 00       		.sleb128 0
 1065 05e6 00       		.byte	0
 1066 05e7 00       		.byte	0
 1067 05e8 18       		.uleb128 0x18
 1068 05e9 01       		.byte	0x1
 1069 05ea D6020000 		.4byte	.LASF71
 1070 05ee 01       		.byte	0x1
 1071 05ef 90       		.byte	0x90
 1072 05f0 01       		.byte	0x1
 1073 05f1 00000000 		.4byte	.LFB123
 1074 05f5 1A000000 		.4byte	.LFE123
 1075 05f9 4D010000 		.4byte	.LLST13
 1076 05fd 01       		.byte	0x1
 1077 05fe 58060000 		.4byte	0x658
ARM GAS  C:\Users\DNIEL~1\AppData\Local\Temp\cc5BPyWQ.s 			page 20


 1078 0602 19       		.uleb128 0x19
 1079 0603 84000000 		.4byte	.LASF68
 1080 0607 01       		.byte	0x1
 1081 0608 90       		.byte	0x90
 1082 0609 70030000 		.4byte	0x370
 1083 060d 6D010000 		.4byte	.LLST14
 1084 0611 1A       		.uleb128 0x1a
 1085 0612 48000000 		.4byte	.Ldebug_ranges0+0x48
 1086 0616 2A060000 		.4byte	0x62a
 1087 061a 1B       		.uleb128 0x1b
 1088 061b 746D7000 		.ascii	"tmp\000"
 1089 061f 01       		.byte	0x1
 1090 0620 94       		.byte	0x94
 1091 0621 70000000 		.4byte	0x70
 1092 0625 8B010000 		.4byte	.LLST15
 1093 0629 00       		.byte	0
 1094 062a 1C       		.uleb128 0x1c
 1095 062b 12000000 		.4byte	.LBB13
 1096 062f 1A000000 		.4byte	.LBE13
 1097 0633 47060000 		.4byte	0x647
 1098 0637 1B       		.uleb128 0x1b
 1099 0638 746D7000 		.ascii	"tmp\000"
 1100 063c 01       		.byte	0x1
 1101 063d 9A       		.byte	0x9a
 1102 063e 70000000 		.4byte	0x70
 1103 0642 9E010000 		.4byte	.LLST16
 1104 0646 00       		.byte	0
 1105 0647 1D       		.uleb128 0x1d
 1106 0648 0E000000 		.4byte	.LVL23
 1107 064c B0060000 		.4byte	0x6b0
 1108 0650 1E       		.uleb128 0x1e
 1109 0651 01       		.byte	0x1
 1110 0652 50       		.byte	0x50
 1111 0653 02       		.byte	0x2
 1112 0654 74       		.byte	0x74
 1113 0655 00       		.sleb128 0
 1114 0656 00       		.byte	0
 1115 0657 00       		.byte	0
 1116 0658 1F       		.uleb128 0x1f
 1117 0659 63030000 		.4byte	.LASF78
 1118 065d 06       		.byte	0x6
 1119 065e 9806     		.2byte	0x698
 1120 0660 B8000000 		.4byte	0xb8
 1121 0664 01       		.byte	0x1
 1122 0665 01       		.byte	0x1
 1123 0666 20       		.uleb128 0x20
 1124 0667 01       		.byte	0x1
 1125 0668 1A020000 		.4byte	.LASF79
 1126 066c 05       		.byte	0x5
 1127 066d 6D01     		.2byte	0x16d
 1128 066f 01       		.byte	0x1
 1129 0670 01       		.byte	0x1
 1130 0671 21       		.uleb128 0x21
 1131 0672 01       		.byte	0x1
 1132 0673 5B000000 		.4byte	.LASF72
 1133 0677 05       		.byte	0x5
 1134 0678 6E01     		.2byte	0x16e
ARM GAS  C:\Users\DNIEL~1\AppData\Local\Temp\cc5BPyWQ.s 			page 21


 1135 067a 01       		.byte	0x1
 1136 067b 01       		.byte	0x1
 1137 067c 86060000 		.4byte	0x686
 1138 0680 12       		.uleb128 0x12
 1139 0681 70030000 		.4byte	0x370
 1140 0685 00       		.byte	0
 1141 0686 21       		.uleb128 0x21
 1142 0687 01       		.byte	0x1
 1143 0688 08000000 		.4byte	.LASF73
 1144 068c 05       		.byte	0x5
 1145 068d 6F01     		.2byte	0x16f
 1146 068f 01       		.byte	0x1
 1147 0690 01       		.byte	0x1
 1148 0691 9B060000 		.4byte	0x69b
 1149 0695 12       		.uleb128 0x12
 1150 0696 70030000 		.4byte	0x370
 1151 069a 00       		.byte	0
 1152 069b 21       		.uleb128 0x21
 1153 069c 01       		.byte	0x1
 1154 069d DB000000 		.4byte	.LASF74
 1155 06a1 05       		.byte	0x5
 1156 06a2 7001     		.2byte	0x170
 1157 06a4 01       		.byte	0x1
 1158 06a5 01       		.byte	0x1
 1159 06a6 B0060000 		.4byte	0x6b0
 1160 06aa 12       		.uleb128 0x12
 1161 06ab 70030000 		.4byte	0x370
 1162 06af 00       		.byte	0
 1163 06b0 22       		.uleb128 0x22
 1164 06b1 01       		.byte	0x1
 1165 06b2 EF000000 		.4byte	.LASF80
 1166 06b6 05       		.byte	0x5
 1167 06b7 7101     		.2byte	0x171
 1168 06b9 01       		.byte	0x1
 1169 06ba 01       		.byte	0x1
 1170 06bb 12       		.uleb128 0x12
 1171 06bc 70030000 		.4byte	0x370
 1172 06c0 00       		.byte	0
 1173 06c1 00       		.byte	0
 1174              		.section	.debug_abbrev,"",%progbits
 1175              	.Ldebug_abbrev0:
 1176 0000 01       		.uleb128 0x1
 1177 0001 11       		.uleb128 0x11
 1178 0002 01       		.byte	0x1
 1179 0003 25       		.uleb128 0x25
 1180 0004 0E       		.uleb128 0xe
 1181 0005 13       		.uleb128 0x13
 1182 0006 0B       		.uleb128 0xb
 1183 0007 03       		.uleb128 0x3
 1184 0008 0E       		.uleb128 0xe
 1185 0009 1B       		.uleb128 0x1b
 1186 000a 0E       		.uleb128 0xe
 1187 000b 55       		.uleb128 0x55
 1188 000c 06       		.uleb128 0x6
 1189 000d 11       		.uleb128 0x11
 1190 000e 01       		.uleb128 0x1
 1191 000f 52       		.uleb128 0x52
ARM GAS  C:\Users\DNIEL~1\AppData\Local\Temp\cc5BPyWQ.s 			page 22


 1192 0010 01       		.uleb128 0x1
 1193 0011 10       		.uleb128 0x10
 1194 0012 06       		.uleb128 0x6
 1195 0013 00       		.byte	0
 1196 0014 00       		.byte	0
 1197 0015 02       		.uleb128 0x2
 1198 0016 24       		.uleb128 0x24
 1199 0017 00       		.byte	0
 1200 0018 0B       		.uleb128 0xb
 1201 0019 0B       		.uleb128 0xb
 1202 001a 3E       		.uleb128 0x3e
 1203 001b 0B       		.uleb128 0xb
 1204 001c 03       		.uleb128 0x3
 1205 001d 08       		.uleb128 0x8
 1206 001e 00       		.byte	0
 1207 001f 00       		.byte	0
 1208 0020 03       		.uleb128 0x3
 1209 0021 24       		.uleb128 0x24
 1210 0022 00       		.byte	0
 1211 0023 0B       		.uleb128 0xb
 1212 0024 0B       		.uleb128 0xb
 1213 0025 3E       		.uleb128 0x3e
 1214 0026 0B       		.uleb128 0xb
 1215 0027 03       		.uleb128 0x3
 1216 0028 0E       		.uleb128 0xe
 1217 0029 00       		.byte	0
 1218 002a 00       		.byte	0
 1219 002b 04       		.uleb128 0x4
 1220 002c 16       		.uleb128 0x16
 1221 002d 00       		.byte	0
 1222 002e 03       		.uleb128 0x3
 1223 002f 0E       		.uleb128 0xe
 1224 0030 3A       		.uleb128 0x3a
 1225 0031 0B       		.uleb128 0xb
 1226 0032 3B       		.uleb128 0x3b
 1227 0033 0B       		.uleb128 0xb
 1228 0034 49       		.uleb128 0x49
 1229 0035 13       		.uleb128 0x13
 1230 0036 00       		.byte	0
 1231 0037 00       		.byte	0
 1232 0038 05       		.uleb128 0x5
 1233 0039 35       		.uleb128 0x35
 1234 003a 00       		.byte	0
 1235 003b 49       		.uleb128 0x49
 1236 003c 13       		.uleb128 0x13
 1237 003d 00       		.byte	0
 1238 003e 00       		.byte	0
 1239 003f 06       		.uleb128 0x6
 1240 0040 01       		.uleb128 0x1
 1241 0041 01       		.byte	0x1
 1242 0042 49       		.uleb128 0x49
 1243 0043 13       		.uleb128 0x13
 1244 0044 01       		.uleb128 0x1
 1245 0045 13       		.uleb128 0x13
 1246 0046 00       		.byte	0
 1247 0047 00       		.byte	0
 1248 0048 07       		.uleb128 0x7
ARM GAS  C:\Users\DNIEL~1\AppData\Local\Temp\cc5BPyWQ.s 			page 23


 1249 0049 21       		.uleb128 0x21
 1250 004a 00       		.byte	0
 1251 004b 49       		.uleb128 0x49
 1252 004c 13       		.uleb128 0x13
 1253 004d 2F       		.uleb128 0x2f
 1254 004e 0B       		.uleb128 0xb
 1255 004f 00       		.byte	0
 1256 0050 00       		.byte	0
 1257 0051 08       		.uleb128 0x8
 1258 0052 13       		.uleb128 0x13
 1259 0053 01       		.byte	0x1
 1260 0054 0B       		.uleb128 0xb
 1261 0055 0B       		.uleb128 0xb
 1262 0056 3A       		.uleb128 0x3a
 1263 0057 0B       		.uleb128 0xb
 1264 0058 3B       		.uleb128 0x3b
 1265 0059 0B       		.uleb128 0xb
 1266 005a 01       		.uleb128 0x1
 1267 005b 13       		.uleb128 0x13
 1268 005c 00       		.byte	0
 1269 005d 00       		.byte	0
 1270 005e 09       		.uleb128 0x9
 1271 005f 0D       		.uleb128 0xd
 1272 0060 00       		.byte	0
 1273 0061 03       		.uleb128 0x3
 1274 0062 08       		.uleb128 0x8
 1275 0063 3A       		.uleb128 0x3a
 1276 0064 0B       		.uleb128 0xb
 1277 0065 3B       		.uleb128 0x3b
 1278 0066 0B       		.uleb128 0xb
 1279 0067 49       		.uleb128 0x49
 1280 0068 13       		.uleb128 0x13
 1281 0069 38       		.uleb128 0x38
 1282 006a 0A       		.uleb128 0xa
 1283 006b 00       		.byte	0
 1284 006c 00       		.byte	0
 1285 006d 0A       		.uleb128 0xa
 1286 006e 0D       		.uleb128 0xd
 1287 006f 00       		.byte	0
 1288 0070 03       		.uleb128 0x3
 1289 0071 0E       		.uleb128 0xe
 1290 0072 3A       		.uleb128 0x3a
 1291 0073 0B       		.uleb128 0xb
 1292 0074 3B       		.uleb128 0x3b
 1293 0075 0B       		.uleb128 0xb
 1294 0076 49       		.uleb128 0x49
 1295 0077 13       		.uleb128 0x13
 1296 0078 38       		.uleb128 0x38
 1297 0079 0A       		.uleb128 0xa
 1298 007a 00       		.byte	0
 1299 007b 00       		.byte	0
 1300 007c 0B       		.uleb128 0xb
 1301 007d 0F       		.uleb128 0xf
 1302 007e 00       		.byte	0
 1303 007f 0B       		.uleb128 0xb
 1304 0080 0B       		.uleb128 0xb
 1305 0081 49       		.uleb128 0x49
ARM GAS  C:\Users\DNIEL~1\AppData\Local\Temp\cc5BPyWQ.s 			page 24


 1306 0082 13       		.uleb128 0x13
 1307 0083 00       		.byte	0
 1308 0084 00       		.byte	0
 1309 0085 0C       		.uleb128 0xc
 1310 0086 04       		.uleb128 0x4
 1311 0087 01       		.byte	0x1
 1312 0088 0B       		.uleb128 0xb
 1313 0089 0B       		.uleb128 0xb
 1314 008a 3A       		.uleb128 0x3a
 1315 008b 0B       		.uleb128 0xb
 1316 008c 3B       		.uleb128 0x3b
 1317 008d 0B       		.uleb128 0xb
 1318 008e 01       		.uleb128 0x1
 1319 008f 13       		.uleb128 0x13
 1320 0090 00       		.byte	0
 1321 0091 00       		.byte	0
 1322 0092 0D       		.uleb128 0xd
 1323 0093 28       		.uleb128 0x28
 1324 0094 00       		.byte	0
 1325 0095 03       		.uleb128 0x3
 1326 0096 0E       		.uleb128 0xe
 1327 0097 1C       		.uleb128 0x1c
 1328 0098 0D       		.uleb128 0xd
 1329 0099 00       		.byte	0
 1330 009a 00       		.byte	0
 1331 009b 0E       		.uleb128 0xe
 1332 009c 13       		.uleb128 0x13
 1333 009d 01       		.byte	0x1
 1334 009e 03       		.uleb128 0x3
 1335 009f 0E       		.uleb128 0xe
 1336 00a0 0B       		.uleb128 0xb
 1337 00a1 0B       		.uleb128 0xb
 1338 00a2 3A       		.uleb128 0x3a
 1339 00a3 0B       		.uleb128 0xb
 1340 00a4 3B       		.uleb128 0x3b
 1341 00a5 05       		.uleb128 0x5
 1342 00a6 01       		.uleb128 0x1
 1343 00a7 13       		.uleb128 0x13
 1344 00a8 00       		.byte	0
 1345 00a9 00       		.byte	0
 1346 00aa 0F       		.uleb128 0xf
 1347 00ab 0D       		.uleb128 0xd
 1348 00ac 00       		.byte	0
 1349 00ad 03       		.uleb128 0x3
 1350 00ae 0E       		.uleb128 0xe
 1351 00af 3A       		.uleb128 0x3a
 1352 00b0 0B       		.uleb128 0xb
 1353 00b1 3B       		.uleb128 0x3b
 1354 00b2 05       		.uleb128 0x5
 1355 00b3 49       		.uleb128 0x49
 1356 00b4 13       		.uleb128 0x13
 1357 00b5 38       		.uleb128 0x38
 1358 00b6 0A       		.uleb128 0xa
 1359 00b7 00       		.byte	0
 1360 00b8 00       		.byte	0
 1361 00b9 10       		.uleb128 0x10
 1362 00ba 0D       		.uleb128 0xd
ARM GAS  C:\Users\DNIEL~1\AppData\Local\Temp\cc5BPyWQ.s 			page 25


 1363 00bb 00       		.byte	0
 1364 00bc 03       		.uleb128 0x3
 1365 00bd 08       		.uleb128 0x8
 1366 00be 3A       		.uleb128 0x3a
 1367 00bf 0B       		.uleb128 0xb
 1368 00c0 3B       		.uleb128 0x3b
 1369 00c1 05       		.uleb128 0x5
 1370 00c2 49       		.uleb128 0x49
 1371 00c3 13       		.uleb128 0x13
 1372 00c4 38       		.uleb128 0x38
 1373 00c5 0A       		.uleb128 0xa
 1374 00c6 00       		.byte	0
 1375 00c7 00       		.byte	0
 1376 00c8 11       		.uleb128 0x11
 1377 00c9 15       		.uleb128 0x15
 1378 00ca 01       		.byte	0x1
 1379 00cb 27       		.uleb128 0x27
 1380 00cc 0C       		.uleb128 0xc
 1381 00cd 01       		.uleb128 0x1
 1382 00ce 13       		.uleb128 0x13
 1383 00cf 00       		.byte	0
 1384 00d0 00       		.byte	0
 1385 00d1 12       		.uleb128 0x12
 1386 00d2 05       		.uleb128 0x5
 1387 00d3 00       		.byte	0
 1388 00d4 49       		.uleb128 0x49
 1389 00d5 13       		.uleb128 0x13
 1390 00d6 00       		.byte	0
 1391 00d7 00       		.byte	0
 1392 00d8 13       		.uleb128 0x13
 1393 00d9 16       		.uleb128 0x16
 1394 00da 00       		.byte	0
 1395 00db 03       		.uleb128 0x3
 1396 00dc 0E       		.uleb128 0xe
 1397 00dd 3A       		.uleb128 0x3a
 1398 00de 0B       		.uleb128 0xb
 1399 00df 3B       		.uleb128 0x3b
 1400 00e0 05       		.uleb128 0x5
 1401 00e1 49       		.uleb128 0x49
 1402 00e2 13       		.uleb128 0x13
 1403 00e3 00       		.byte	0
 1404 00e4 00       		.byte	0
 1405 00e5 14       		.uleb128 0x14
 1406 00e6 26       		.uleb128 0x26
 1407 00e7 00       		.byte	0
 1408 00e8 49       		.uleb128 0x49
 1409 00e9 13       		.uleb128 0x13
 1410 00ea 00       		.byte	0
 1411 00eb 00       		.byte	0
 1412 00ec 15       		.uleb128 0x15
 1413 00ed 2E       		.uleb128 0x2e
 1414 00ee 01       		.byte	0x1
 1415 00ef 3F       		.uleb128 0x3f
 1416 00f0 0C       		.uleb128 0xc
 1417 00f1 03       		.uleb128 0x3
 1418 00f2 0E       		.uleb128 0xe
 1419 00f3 3A       		.uleb128 0x3a
ARM GAS  C:\Users\DNIEL~1\AppData\Local\Temp\cc5BPyWQ.s 			page 26


 1420 00f4 0B       		.uleb128 0xb
 1421 00f5 3B       		.uleb128 0x3b
 1422 00f6 0B       		.uleb128 0xb
 1423 00f7 27       		.uleb128 0x27
 1424 00f8 0C       		.uleb128 0xc
 1425 00f9 11       		.uleb128 0x11
 1426 00fa 01       		.uleb128 0x1
 1427 00fb 12       		.uleb128 0x12
 1428 00fc 01       		.uleb128 0x1
 1429 00fd 40       		.uleb128 0x40
 1430 00fe 0A       		.uleb128 0xa
 1431 00ff 9742     		.uleb128 0x2117
 1432 0101 0C       		.uleb128 0xc
 1433 0102 01       		.uleb128 0x1
 1434 0103 13       		.uleb128 0x13
 1435 0104 00       		.byte	0
 1436 0105 00       		.byte	0
 1437 0106 16       		.uleb128 0x16
 1438 0107 898201   		.uleb128 0x4109
 1439 010a 00       		.byte	0
 1440 010b 11       		.uleb128 0x11
 1441 010c 01       		.uleb128 0x1
 1442 010d 9542     		.uleb128 0x2115
 1443 010f 0C       		.uleb128 0xc
 1444 0110 31       		.uleb128 0x31
 1445 0111 13       		.uleb128 0x13
 1446 0112 00       		.byte	0
 1447 0113 00       		.byte	0
 1448 0114 17       		.uleb128 0x17
 1449 0115 05       		.uleb128 0x5
 1450 0116 00       		.byte	0
 1451 0117 03       		.uleb128 0x3
 1452 0118 0E       		.uleb128 0xe
 1453 0119 3A       		.uleb128 0x3a
 1454 011a 0B       		.uleb128 0xb
 1455 011b 3B       		.uleb128 0x3b
 1456 011c 0B       		.uleb128 0xb
 1457 011d 49       		.uleb128 0x49
 1458 011e 13       		.uleb128 0x13
 1459 011f 02       		.uleb128 0x2
 1460 0120 0A       		.uleb128 0xa
 1461 0121 00       		.byte	0
 1462 0122 00       		.byte	0
 1463 0123 18       		.uleb128 0x18
 1464 0124 2E       		.uleb128 0x2e
 1465 0125 01       		.byte	0x1
 1466 0126 3F       		.uleb128 0x3f
 1467 0127 0C       		.uleb128 0xc
 1468 0128 03       		.uleb128 0x3
 1469 0129 0E       		.uleb128 0xe
 1470 012a 3A       		.uleb128 0x3a
 1471 012b 0B       		.uleb128 0xb
 1472 012c 3B       		.uleb128 0x3b
 1473 012d 0B       		.uleb128 0xb
 1474 012e 27       		.uleb128 0x27
 1475 012f 0C       		.uleb128 0xc
 1476 0130 11       		.uleb128 0x11
ARM GAS  C:\Users\DNIEL~1\AppData\Local\Temp\cc5BPyWQ.s 			page 27


 1477 0131 01       		.uleb128 0x1
 1478 0132 12       		.uleb128 0x12
 1479 0133 01       		.uleb128 0x1
 1480 0134 40       		.uleb128 0x40
 1481 0135 06       		.uleb128 0x6
 1482 0136 9742     		.uleb128 0x2117
 1483 0138 0C       		.uleb128 0xc
 1484 0139 01       		.uleb128 0x1
 1485 013a 13       		.uleb128 0x13
 1486 013b 00       		.byte	0
 1487 013c 00       		.byte	0
 1488 013d 19       		.uleb128 0x19
 1489 013e 05       		.uleb128 0x5
 1490 013f 00       		.byte	0
 1491 0140 03       		.uleb128 0x3
 1492 0141 0E       		.uleb128 0xe
 1493 0142 3A       		.uleb128 0x3a
 1494 0143 0B       		.uleb128 0xb
 1495 0144 3B       		.uleb128 0x3b
 1496 0145 0B       		.uleb128 0xb
 1497 0146 49       		.uleb128 0x49
 1498 0147 13       		.uleb128 0x13
 1499 0148 02       		.uleb128 0x2
 1500 0149 06       		.uleb128 0x6
 1501 014a 00       		.byte	0
 1502 014b 00       		.byte	0
 1503 014c 1A       		.uleb128 0x1a
 1504 014d 0B       		.uleb128 0xb
 1505 014e 01       		.byte	0x1
 1506 014f 55       		.uleb128 0x55
 1507 0150 06       		.uleb128 0x6
 1508 0151 01       		.uleb128 0x1
 1509 0152 13       		.uleb128 0x13
 1510 0153 00       		.byte	0
 1511 0154 00       		.byte	0
 1512 0155 1B       		.uleb128 0x1b
 1513 0156 34       		.uleb128 0x34
 1514 0157 00       		.byte	0
 1515 0158 03       		.uleb128 0x3
 1516 0159 08       		.uleb128 0x8
 1517 015a 3A       		.uleb128 0x3a
 1518 015b 0B       		.uleb128 0xb
 1519 015c 3B       		.uleb128 0x3b
 1520 015d 0B       		.uleb128 0xb
 1521 015e 49       		.uleb128 0x49
 1522 015f 13       		.uleb128 0x13
 1523 0160 02       		.uleb128 0x2
 1524 0161 06       		.uleb128 0x6
 1525 0162 00       		.byte	0
 1526 0163 00       		.byte	0
 1527 0164 1C       		.uleb128 0x1c
 1528 0165 0B       		.uleb128 0xb
 1529 0166 01       		.byte	0x1
 1530 0167 11       		.uleb128 0x11
 1531 0168 01       		.uleb128 0x1
 1532 0169 12       		.uleb128 0x12
 1533 016a 01       		.uleb128 0x1
ARM GAS  C:\Users\DNIEL~1\AppData\Local\Temp\cc5BPyWQ.s 			page 28


 1534 016b 01       		.uleb128 0x1
 1535 016c 13       		.uleb128 0x13
 1536 016d 00       		.byte	0
 1537 016e 00       		.byte	0
 1538 016f 1D       		.uleb128 0x1d
 1539 0170 898201   		.uleb128 0x4109
 1540 0173 01       		.byte	0x1
 1541 0174 11       		.uleb128 0x11
 1542 0175 01       		.uleb128 0x1
 1543 0176 31       		.uleb128 0x31
 1544 0177 13       		.uleb128 0x13
 1545 0178 00       		.byte	0
 1546 0179 00       		.byte	0
 1547 017a 1E       		.uleb128 0x1e
 1548 017b 8A8201   		.uleb128 0x410a
 1549 017e 00       		.byte	0
 1550 017f 02       		.uleb128 0x2
 1551 0180 0A       		.uleb128 0xa
 1552 0181 9142     		.uleb128 0x2111
 1553 0183 0A       		.uleb128 0xa
 1554 0184 00       		.byte	0
 1555 0185 00       		.byte	0
 1556 0186 1F       		.uleb128 0x1f
 1557 0187 34       		.uleb128 0x34
 1558 0188 00       		.byte	0
 1559 0189 03       		.uleb128 0x3
 1560 018a 0E       		.uleb128 0xe
 1561 018b 3A       		.uleb128 0x3a
 1562 018c 0B       		.uleb128 0xb
 1563 018d 3B       		.uleb128 0x3b
 1564 018e 05       		.uleb128 0x5
 1565 018f 49       		.uleb128 0x49
 1566 0190 13       		.uleb128 0x13
 1567 0191 3F       		.uleb128 0x3f
 1568 0192 0C       		.uleb128 0xc
 1569 0193 3C       		.uleb128 0x3c
 1570 0194 0C       		.uleb128 0xc
 1571 0195 00       		.byte	0
 1572 0196 00       		.byte	0
 1573 0197 20       		.uleb128 0x20
 1574 0198 2E       		.uleb128 0x2e
 1575 0199 00       		.byte	0
 1576 019a 3F       		.uleb128 0x3f
 1577 019b 0C       		.uleb128 0xc
 1578 019c 03       		.uleb128 0x3
 1579 019d 0E       		.uleb128 0xe
 1580 019e 3A       		.uleb128 0x3a
 1581 019f 0B       		.uleb128 0xb
 1582 01a0 3B       		.uleb128 0x3b
 1583 01a1 05       		.uleb128 0x5
 1584 01a2 27       		.uleb128 0x27
 1585 01a3 0C       		.uleb128 0xc
 1586 01a4 3C       		.uleb128 0x3c
 1587 01a5 0C       		.uleb128 0xc
 1588 01a6 00       		.byte	0
 1589 01a7 00       		.byte	0
 1590 01a8 21       		.uleb128 0x21
ARM GAS  C:\Users\DNIEL~1\AppData\Local\Temp\cc5BPyWQ.s 			page 29


 1591 01a9 2E       		.uleb128 0x2e
 1592 01aa 01       		.byte	0x1
 1593 01ab 3F       		.uleb128 0x3f
 1594 01ac 0C       		.uleb128 0xc
 1595 01ad 03       		.uleb128 0x3
 1596 01ae 0E       		.uleb128 0xe
 1597 01af 3A       		.uleb128 0x3a
 1598 01b0 0B       		.uleb128 0xb
 1599 01b1 3B       		.uleb128 0x3b
 1600 01b2 05       		.uleb128 0x5
 1601 01b3 27       		.uleb128 0x27
 1602 01b4 0C       		.uleb128 0xc
 1603 01b5 3C       		.uleb128 0x3c
 1604 01b6 0C       		.uleb128 0xc
 1605 01b7 01       		.uleb128 0x1
 1606 01b8 13       		.uleb128 0x13
 1607 01b9 00       		.byte	0
 1608 01ba 00       		.byte	0
 1609 01bb 22       		.uleb128 0x22
 1610 01bc 2E       		.uleb128 0x2e
 1611 01bd 01       		.byte	0x1
 1612 01be 3F       		.uleb128 0x3f
 1613 01bf 0C       		.uleb128 0xc
 1614 01c0 03       		.uleb128 0x3
 1615 01c1 0E       		.uleb128 0xe
 1616 01c2 3A       		.uleb128 0x3a
 1617 01c3 0B       		.uleb128 0xb
 1618 01c4 3B       		.uleb128 0x3b
 1619 01c5 05       		.uleb128 0x5
 1620 01c6 27       		.uleb128 0x27
 1621 01c7 0C       		.uleb128 0xc
 1622 01c8 3C       		.uleb128 0x3c
 1623 01c9 0C       		.uleb128 0xc
 1624 01ca 00       		.byte	0
 1625 01cb 00       		.byte	0
 1626 01cc 00       		.byte	0
 1627              		.section	.debug_loc,"",%progbits
 1628              	.Ldebug_loc0:
 1629              	.LLST0:
 1630 0000 00000000 		.4byte	.LFB120
 1631 0004 02000000 		.4byte	.LCFI0
 1632 0008 0200     		.2byte	0x2
 1633 000a 7D       		.byte	0x7d
 1634 000b 00       		.sleb128 0
 1635 000c 02000000 		.4byte	.LCFI0
 1636 0010 1C000000 		.4byte	.LFE120
 1637 0014 0200     		.2byte	0x2
 1638 0016 7D       		.byte	0x7d
 1639 0017 08       		.sleb128 8
 1640 0018 00000000 		.4byte	0
 1641 001c 00000000 		.4byte	0
 1642              	.LLST1:
 1643 0020 00000000 		.4byte	.LVL2
 1644 0024 0F000000 		.4byte	.LVL5-1
 1645 0028 0100     		.2byte	0x1
 1646 002a 50       		.byte	0x50
 1647 002b 0F000000 		.4byte	.LVL5-1
ARM GAS  C:\Users\DNIEL~1\AppData\Local\Temp\cc5BPyWQ.s 			page 30


 1648 002f 1C000000 		.4byte	.LFE120
 1649 0033 0100     		.2byte	0x1
 1650 0035 54       		.byte	0x54
 1651 0036 00000000 		.4byte	0
 1652 003a 00000000 		.4byte	0
 1653              	.LLST2:
 1654 003e 00000000 		.4byte	.LVL2
 1655 0042 0F000000 		.4byte	.LVL5-1
 1656 0046 0100     		.2byte	0x1
 1657 0048 51       		.byte	0x51
 1658 0049 0F000000 		.4byte	.LVL5-1
 1659 004d 1C000000 		.4byte	.LFE120
 1660 0051 0400     		.2byte	0x4
 1661 0053 F3       		.byte	0xf3
 1662 0054 01       		.uleb128 0x1
 1663 0055 51       		.byte	0x51
 1664 0056 9F       		.byte	0x9f
 1665 0057 00000000 		.4byte	0
 1666 005b 00000000 		.4byte	0
 1667              	.LLST3:
 1668 005f 0A000000 		.4byte	.LVL4
 1669 0063 0F000000 		.4byte	.LVL5-1
 1670 0067 0100     		.2byte	0x1
 1671 0069 53       		.byte	0x53
 1672 006a 00000000 		.4byte	0
 1673 006e 00000000 		.4byte	0
 1674              	.LLST4:
 1675 0072 1A000000 		.4byte	.LVL7
 1676 0076 1C000000 		.4byte	.LFE120
 1677 007a 0100     		.2byte	0x1
 1678 007c 53       		.byte	0x53
 1679 007d 00000000 		.4byte	0
 1680 0081 00000000 		.4byte	0
 1681              	.LLST5:
 1682 0085 00000000 		.4byte	.LFB121
 1683 0089 02000000 		.4byte	.LCFI1
 1684 008d 0200     		.2byte	0x2
 1685 008f 7D       		.byte	0x7d
 1686 0090 00       		.sleb128 0
 1687 0091 02000000 		.4byte	.LCFI1
 1688 0095 1A000000 		.4byte	.LFE121
 1689 0099 0200     		.2byte	0x2
 1690 009b 7D       		.byte	0x7d
 1691 009c 08       		.sleb128 8
 1692 009d 00000000 		.4byte	0
 1693 00a1 00000000 		.4byte	0
 1694              	.LLST6:
 1695 00a5 00000000 		.4byte	.LVL8
 1696 00a9 0D000000 		.4byte	.LVL11-1
 1697 00ad 0100     		.2byte	0x1
 1698 00af 50       		.byte	0x50
 1699 00b0 0D000000 		.4byte	.LVL11-1
 1700 00b4 1A000000 		.4byte	.LFE121
 1701 00b8 0100     		.2byte	0x1
 1702 00ba 54       		.byte	0x54
 1703 00bb 00000000 		.4byte	0
 1704 00bf 00000000 		.4byte	0
ARM GAS  C:\Users\DNIEL~1\AppData\Local\Temp\cc5BPyWQ.s 			page 31


 1705              	.LLST7:
 1706 00c3 0A000000 		.4byte	.LVL10
 1707 00c7 0D000000 		.4byte	.LVL11-1
 1708 00cb 0100     		.2byte	0x1
 1709 00cd 53       		.byte	0x53
 1710 00ce 00000000 		.4byte	0
 1711 00d2 00000000 		.4byte	0
 1712              	.LLST8:
 1713 00d6 18000000 		.4byte	.LVL13
 1714 00da 1A000000 		.4byte	.LFE121
 1715 00de 0100     		.2byte	0x1
 1716 00e0 53       		.byte	0x53
 1717 00e1 00000000 		.4byte	0
 1718 00e5 00000000 		.4byte	0
 1719              	.LLST9:
 1720 00e9 00000000 		.4byte	.LFB122
 1721 00ed 02000000 		.4byte	.LCFI2
 1722 00f1 0200     		.2byte	0x2
 1723 00f3 7D       		.byte	0x7d
 1724 00f4 00       		.sleb128 0
 1725 00f5 02000000 		.4byte	.LCFI2
 1726 00f9 1A000000 		.4byte	.LFE122
 1727 00fd 0200     		.2byte	0x2
 1728 00ff 7D       		.byte	0x7d
 1729 0100 08       		.sleb128 8
 1730 0101 00000000 		.4byte	0
 1731 0105 00000000 		.4byte	0
 1732              	.LLST10:
 1733 0109 00000000 		.4byte	.LVL14
 1734 010d 0D000000 		.4byte	.LVL17-1
 1735 0111 0100     		.2byte	0x1
 1736 0113 50       		.byte	0x50
 1737 0114 0D000000 		.4byte	.LVL17-1
 1738 0118 1A000000 		.4byte	.LFE122
 1739 011c 0100     		.2byte	0x1
 1740 011e 54       		.byte	0x54
 1741 011f 00000000 		.4byte	0
 1742 0123 00000000 		.4byte	0
 1743              	.LLST11:
 1744 0127 0A000000 		.4byte	.LVL16
 1745 012b 0D000000 		.4byte	.LVL17-1
 1746 012f 0100     		.2byte	0x1
 1747 0131 53       		.byte	0x53
 1748 0132 00000000 		.4byte	0
 1749 0136 00000000 		.4byte	0
 1750              	.LLST12:
 1751 013a 18000000 		.4byte	.LVL19
 1752 013e 1A000000 		.4byte	.LFE122
 1753 0142 0100     		.2byte	0x1
 1754 0144 53       		.byte	0x53
 1755 0145 00000000 		.4byte	0
 1756 0149 00000000 		.4byte	0
 1757              	.LLST13:
 1758 014d 00000000 		.4byte	.LFB123
 1759 0151 02000000 		.4byte	.LCFI3
 1760 0155 0200     		.2byte	0x2
 1761 0157 7D       		.byte	0x7d
ARM GAS  C:\Users\DNIEL~1\AppData\Local\Temp\cc5BPyWQ.s 			page 32


 1762 0158 00       		.sleb128 0
 1763 0159 02000000 		.4byte	.LCFI3
 1764 015d 1A000000 		.4byte	.LFE123
 1765 0161 0200     		.2byte	0x2
 1766 0163 7D       		.byte	0x7d
 1767 0164 08       		.sleb128 8
 1768 0165 00000000 		.4byte	0
 1769 0169 00000000 		.4byte	0
 1770              	.LLST14:
 1771 016d 00000000 		.4byte	.LVL20
 1772 0171 0D000000 		.4byte	.LVL23-1
 1773 0175 0100     		.2byte	0x1
 1774 0177 50       		.byte	0x50
 1775 0178 0D000000 		.4byte	.LVL23-1
 1776 017c 1A000000 		.4byte	.LFE123
 1777 0180 0100     		.2byte	0x1
 1778 0182 54       		.byte	0x54
 1779 0183 00000000 		.4byte	0
 1780 0187 00000000 		.4byte	0
 1781              	.LLST15:
 1782 018b 0A000000 		.4byte	.LVL22
 1783 018f 0D000000 		.4byte	.LVL23-1
 1784 0193 0100     		.2byte	0x1
 1785 0195 53       		.byte	0x53
 1786 0196 00000000 		.4byte	0
 1787 019a 00000000 		.4byte	0
 1788              	.LLST16:
 1789 019e 18000000 		.4byte	.LVL25
 1790 01a2 1A000000 		.4byte	.LFE123
 1791 01a6 0100     		.2byte	0x1
 1792 01a8 53       		.byte	0x53
 1793 01a9 00000000 		.4byte	0
 1794 01ad 00000000 		.4byte	0
 1795              		.section	.debug_aranges,"",%progbits
 1796 0000 44000000 		.4byte	0x44
 1797 0004 0200     		.2byte	0x2
 1798 0006 00000000 		.4byte	.Ldebug_info0
 1799 000a 04       		.byte	0x4
 1800 000b 00       		.byte	0
 1801 000c 0000     		.2byte	0
 1802 000e 0000     		.2byte	0
 1803 0010 00000000 		.4byte	.LFB118
 1804 0014 04000000 		.4byte	.LFE118-.LFB118
 1805 0018 00000000 		.4byte	.LFB119
 1806 001c 0A000000 		.4byte	.LFE119-.LFB119
 1807 0020 00000000 		.4byte	.LFB120
 1808 0024 1C000000 		.4byte	.LFE120-.LFB120
 1809 0028 00000000 		.4byte	.LFB121
 1810 002c 1A000000 		.4byte	.LFE121-.LFB121
 1811 0030 00000000 		.4byte	.LFB122
 1812 0034 1A000000 		.4byte	.LFE122-.LFB122
 1813 0038 00000000 		.4byte	.LFB123
 1814 003c 1A000000 		.4byte	.LFE123-.LFB123
 1815 0040 00000000 		.4byte	0
 1816 0044 00000000 		.4byte	0
 1817              		.section	.debug_ranges,"",%progbits
 1818              	.Ldebug_ranges0:
ARM GAS  C:\Users\DNIEL~1\AppData\Local\Temp\cc5BPyWQ.s 			page 33


 1819 0000 02000000 		.4byte	.LBB2
 1820 0004 04000000 		.4byte	.LBE2
 1821 0008 06000000 		.4byte	.LBB3
 1822 000c 0A000000 		.4byte	.LBE3
 1823 0010 00000000 		.4byte	0
 1824 0014 00000000 		.4byte	0
 1825 0018 02000000 		.4byte	.LBB5
 1826 001c 04000000 		.4byte	.LBE5
 1827 0020 06000000 		.4byte	.LBB6
 1828 0024 0A000000 		.4byte	.LBE6
 1829 0028 00000000 		.4byte	0
 1830 002c 00000000 		.4byte	0
 1831 0030 02000000 		.4byte	.LBB8
 1832 0034 04000000 		.4byte	.LBE8
 1833 0038 06000000 		.4byte	.LBB9
 1834 003c 0A000000 		.4byte	.LBE9
 1835 0040 00000000 		.4byte	0
 1836 0044 00000000 		.4byte	0
 1837 0048 02000000 		.4byte	.LBB11
 1838 004c 04000000 		.4byte	.LBE11
 1839 0050 06000000 		.4byte	.LBB12
 1840 0054 0A000000 		.4byte	.LBE12
 1841 0058 00000000 		.4byte	0
 1842 005c 00000000 		.4byte	0
 1843 0060 00000000 		.4byte	.LFB118
 1844 0064 04000000 		.4byte	.LFE118
 1845 0068 00000000 		.4byte	.LFB119
 1846 006c 0A000000 		.4byte	.LFE119
 1847 0070 00000000 		.4byte	.LFB120
 1848 0074 1C000000 		.4byte	.LFE120
 1849 0078 00000000 		.4byte	.LFB121
 1850 007c 1A000000 		.4byte	.LFE121
 1851 0080 00000000 		.4byte	.LFB122
 1852 0084 1A000000 		.4byte	.LFE122
 1853 0088 00000000 		.4byte	.LFB123
 1854 008c 1A000000 		.4byte	.LFE123
 1855 0090 00000000 		.4byte	0
 1856 0094 00000000 		.4byte	0
 1857              		.section	.debug_line,"",%progbits
 1858              	.Ldebug_line0:
 1859 0000 F1010000 		.section	.debug_str,"MS",%progbits,1
 1859      02006D01 
 1859      00000201 
 1859      FB0E0D00 
 1859      01010101 
 1860              	.LASF69:
 1861 0000 69637553 		.ascii	"icuStop\000"
 1861      746F7000 
 1862              	.LASF73:
 1863 0008 6963755F 		.ascii	"icu_lld_stop\000"
 1863      6C6C645F 
 1863      73746F70 
 1863      00
 1864              	.LASF26:
 1865 0015 43434552 		.ascii	"CCER\000"
 1865      00
 1866              	.LASF77:
ARM GAS  C:\Users\DNIEL~1\AppData\Local\Temp\cc5BPyWQ.s 			page 34


 1867 001a 433A5C55 		.ascii	"C:\\Users\\D\341niel\\git\\Smarty\\smarty\\firmware"
 1867      73657273 
 1867      5C44E16E 
 1867      69656C5C 
 1867      6769745C 
 1868 0044 00       		.ascii	"\000"
 1869              	.LASF38:
 1870 0045 4943555F 		.ascii	"ICU_STOP\000"
 1870      53544F50 
 1870      00
 1871              	.LASF57:
 1872 004e 69637563 		.ascii	"icuchannel_t\000"
 1872      68616E6E 
 1872      656C5F74 
 1872      00
 1873              	.LASF72:
 1874 005b 6963755F 		.ascii	"icu_lld_start\000"
 1874      6C6C645F 
 1874      73746172 
 1874      7400
 1875              	.LASF33:
 1876 0069 444D4152 		.ascii	"DMAR\000"
 1876      00
 1877              	.LASF45:
 1878 006e 73746174 		.ascii	"state\000"
 1878      6500
 1879              	.LASF24:
 1880 0074 43434D52 		.ascii	"CCMR2\000"
 1880      3200
 1881              	.LASF3:
 1882 007a 73686F72 		.ascii	"short int\000"
 1882      7420696E 
 1882      7400
 1883              	.LASF68:
 1884 0084 69637570 		.ascii	"icup\000"
 1884      00
 1885              	.LASF12:
 1886 0089 73697A65 		.ascii	"sizetype\000"
 1886      74797065 
 1886      00
 1887              	.LASF75:
 1888 0092 474E5520 		.ascii	"GNU C 4.7.4 20140401 (release) [ARM/embedded-4_7-br"
 1888      4320342E 
 1888      372E3420 
 1888      32303134 
 1888      30343031 
 1889 00c5 616E6368 		.ascii	"anch revision 209195]\000"
 1889      20726576 
 1889      6973696F 
 1889      6E203230 
 1889      39313935 
 1890              	.LASF74:
 1891 00db 6963755F 		.ascii	"icu_lld_enable\000"
 1891      6C6C645F 
 1891      656E6162 
 1891      6C6500
 1892              	.LASF58:
ARM GAS  C:\Users\DNIEL~1\AppData\Local\Temp\cc5BPyWQ.s 			page 35


 1893 00ea 6D6F6465 		.ascii	"mode\000"
 1893      00
 1894              	.LASF80:
 1895 00ef 6963755F 		.ascii	"icu_lld_disable\000"
 1895      6C6C645F 
 1895      64697361 
 1895      626C6500 
 1896              	.LASF46:
 1897 00ff 636F6E66 		.ascii	"config\000"
 1897      696700
 1898              	.LASF14:
 1899 0106 5F726573 		.ascii	"_resvd0\000"
 1899      76643000 
 1900              	.LASF15:
 1901 010e 5F726573 		.ascii	"_resvd1\000"
 1901      76643100 
 1902              	.LASF31:
 1903 0116 5F726573 		.ascii	"_resvd11\000"
 1903      76643131 
 1903      00
 1904              	.LASF19:
 1905 011f 5F726573 		.ascii	"_resvd3\000"
 1905      76643300 
 1906              	.LASF20:
 1907 0127 5F726573 		.ascii	"_resvd4\000"
 1907      76643400 
 1908              	.LASF21:
 1909 012f 5F726573 		.ascii	"_resvd5\000"
 1909      76643500 
 1910              	.LASF23:
 1911 0137 5F726573 		.ascii	"_resvd6\000"
 1911      76643600 
 1912              	.LASF25:
 1913 013f 5F726573 		.ascii	"_resvd7\000"
 1913      76643700 
 1914              	.LASF55:
 1915 0147 4943555F 		.ascii	"ICU_CHANNEL_1\000"
 1915      4348414E 
 1915      4E454C5F 
 1915      3100
 1916              	.LASF56:
 1917 0155 4943555F 		.ascii	"ICU_CHANNEL_2\000"
 1917      4348414E 
 1917      4E454C5F 
 1917      3200
 1918              	.LASF40:
 1919 0163 4943555F 		.ascii	"ICU_WAITING\000"
 1919      57414954 
 1919      494E4700 
 1920              	.LASF65:
 1921 016f 69637549 		.ascii	"icuInit\000"
 1921      6E697400 
 1922              	.LASF60:
 1923 0177 77696474 		.ascii	"width_cb\000"
 1923      685F6362 
 1923      00
 1924              	.LASF41:
ARM GAS  C:\Users\DNIEL~1\AppData\Local\Temp\cc5BPyWQ.s 			page 36


 1925 0180 4943555F 		.ascii	"ICU_ACTIVE\000"
 1925      41435449 
 1925      564500
 1926              	.LASF10:
 1927 018b 6C6F6E67 		.ascii	"long long int\000"
 1927      206C6F6E 
 1927      6720696E 
 1927      7400
 1928              	.LASF11:
 1929 0199 6C6F6E67 		.ascii	"long long unsigned int\000"
 1929      206C6F6E 
 1929      6720756E 
 1929      7369676E 
 1929      65642069 
 1930              	.LASF53:
 1931 01b0 6963756D 		.ascii	"icumode_t\000"
 1931      6F64655F 
 1931      7400
 1932              	.LASF48:
 1933 01ba 77636372 		.ascii	"wccrp\000"
 1933      7000
 1934              	.LASF7:
 1935 01c0 6C6F6E67 		.ascii	"long int\000"
 1935      20696E74 
 1935      00
 1936              	.LASF49:
 1937 01c9 70636372 		.ascii	"pccrp\000"
 1937      7000
 1938              	.LASF22:
 1939 01cf 43434D52 		.ascii	"CCMR1\000"
 1939      3100
 1940              	.LASF42:
 1941 01d5 4943555F 		.ascii	"ICU_IDLE\000"
 1941      49444C45 
 1941      00
 1942              	.LASF16:
 1943 01de 534D4352 		.ascii	"SMCR\000"
 1943      00
 1944              	.LASF2:
 1945 01e3 756E7369 		.ascii	"unsigned char\000"
 1945      676E6564 
 1945      20636861 
 1945      7200
 1946              	.LASF64:
 1947 01f1 49435543 		.ascii	"ICUConfig\000"
 1947      6F6E6669 
 1947      6700
 1948              	.LASF67:
 1949 01fb 69637553 		.ascii	"icuStart\000"
 1949      74617274 
 1949      00
 1950              	.LASF70:
 1951 0204 69637545 		.ascii	"icuEnable\000"
 1951      6E61626C 
 1951      6500
 1952              	.LASF1:
 1953 020e 7369676E 		.ascii	"signed char\000"
ARM GAS  C:\Users\DNIEL~1\AppData\Local\Temp\cc5BPyWQ.s 			page 37


 1953      65642063 
 1953      68617200 
 1954              	.LASF79:
 1955 021a 6963755F 		.ascii	"icu_lld_init\000"
 1955      6C6C645F 
 1955      696E6974 
 1955      00
 1956              	.LASF8:
 1957 0227 75696E74 		.ascii	"uint32_t\000"
 1957      33325F74 
 1957      00
 1958              	.LASF0:
 1959 0230 756E7369 		.ascii	"unsigned int\000"
 1959      676E6564 
 1959      20696E74 
 1959      00
 1960              	.LASF5:
 1961 023d 75696E74 		.ascii	"uint16_t\000"
 1961      31365F74 
 1961      00
 1962              	.LASF18:
 1963 0246 44494552 		.ascii	"DIER\000"
 1963      00
 1964              	.LASF54:
 1965 024b 69637566 		.ascii	"icufreq_t\000"
 1965      7265715F 
 1965      7400
 1966              	.LASF32:
 1967 0255 5F726573 		.ascii	"_resvd12\000"
 1967      76643132 
 1967      00
 1968              	.LASF34:
 1969 025e 5F726573 		.ascii	"_resvd13\000"
 1969      76643133 
 1969      00
 1970              	.LASF35:
 1971 0267 5F726573 		.ascii	"_resvd14\000"
 1971      76643134 
 1971      00
 1972              	.LASF4:
 1973 0270 73686F72 		.ascii	"short unsigned int\000"
 1973      7420756E 
 1973      7369676E 
 1973      65642069 
 1973      6E7400
 1974              	.LASF13:
 1975 0283 63686172 		.ascii	"char\000"
 1975      00
 1976              	.LASF50:
 1977 0288 69637563 		.ascii	"icucallback_t\000"
 1977      616C6C62 
 1977      61636B5F 
 1977      7400
 1978              	.LASF36:
 1979 0296 73746D33 		.ascii	"stm32_tim_t\000"
 1979      325F7469 
 1979      6D5F7400 
ARM GAS  C:\Users\DNIEL~1\AppData\Local\Temp\cc5BPyWQ.s 			page 38


 1980              	.LASF61:
 1981 02a2 70657269 		.ascii	"period_cb\000"
 1981      6F645F63 
 1981      6200
 1982              	.LASF30:
 1983 02ac 42445452 		.ascii	"BDTR\000"
 1983      00
 1984              	.LASF6:
 1985 02b1 696E7433 		.ascii	"int32_t\000"
 1985      325F7400 
 1986              	.LASF52:
 1987 02b9 4943555F 		.ascii	"ICU_INPUT_ACTIVE_LOW\000"
 1987      494E5055 
 1987      545F4143 
 1987      54495645 
 1987      5F4C4F57 
 1988              	.LASF63:
 1989 02ce 6368616E 		.ascii	"channel\000"
 1989      6E656C00 
 1990              	.LASF71:
 1991 02d6 69637544 		.ascii	"icuDisable\000"
 1991      69736162 
 1991      6C6500
 1992              	.LASF37:
 1993 02e1 4943555F 		.ascii	"ICU_UNINIT\000"
 1993      554E494E 
 1993      495400
 1994              	.LASF51:
 1995 02ec 4943555F 		.ascii	"ICU_INPUT_ACTIVE_HIGH\000"
 1995      494E5055 
 1995      545F4143 
 1995      54495645 
 1995      5F484947 
 1996              	.LASF27:
 1997 0302 5F726573 		.ascii	"_resvd8\000"
 1997      76643800 
 1998              	.LASF9:
 1999 030a 6C6F6E67 		.ascii	"long unsigned int\000"
 1999      20756E73 
 1999      69676E65 
 1999      6420696E 
 1999      7400
 2000              	.LASF47:
 2001 031c 636C6F63 		.ascii	"clock\000"
 2001      6B00
 2002              	.LASF29:
 2003 0322 5F726573 		.ascii	"_resvd10\000"
 2003      76643130 
 2003      00
 2004              	.LASF62:
 2005 032b 6F766572 		.ascii	"overflow_cb\000"
 2005      666C6F77 
 2005      5F636200 
 2006              	.LASF44:
 2007 0337 49435544 		.ascii	"ICUDriver\000"
 2007      72697665 
 2007      7200
ARM GAS  C:\Users\DNIEL~1\AppData\Local\Temp\cc5BPyWQ.s 			page 39


 2008              	.LASF59:
 2009 0341 66726571 		.ascii	"frequency\000"
 2009      75656E63 
 2009      7900
 2010              	.LASF39:
 2011 034b 4943555F 		.ascii	"ICU_READY\000"
 2011      52454144 
 2011      5900
 2012              	.LASF66:
 2013 0355 6963754F 		.ascii	"icuObjectInit\000"
 2013      626A6563 
 2013      74496E69 
 2013      7400
 2014              	.LASF78:
 2015 0363 49544D5F 		.ascii	"ITM_RxBuffer\000"
 2015      52784275 
 2015      66666572 
 2015      00
 2016              	.LASF76:
 2017 0370 2E2E2F2E 		.ascii	"../../../ChibiOS/os/hal/src/icu.c\000"
 2017      2E2F2E2E 
 2017      2F436869 
 2017      62694F53 
 2017      2F6F732F 
 2018              	.LASF17:
 2019 0392 5F726573 		.ascii	"_resvd2\000"
 2019      76643200 
 2020              	.LASF43:
 2021 039a 69637573 		.ascii	"icustate_t\000"
 2021      74617465 
 2021      5F7400
 2022              	.LASF28:
 2023 03a5 5F726573 		.ascii	"_resvd9\000"
 2023      76643900 
 2024              		.ident	"GCC: (GNU Tools for ARM Embedded Processors) 4.7.4 20140401 (release) [ARM/embedded-4_7-br
ARM GAS  C:\Users\DNIEL~1\AppData\Local\Temp\cc5BPyWQ.s 			page 40


DEFINED SYMBOLS
                            *ABS*:00000000 icu.c
C:\Users\DNIEL~1\AppData\Local\Temp\cc5BPyWQ.s:19     .text.icuInit:00000000 $t
C:\Users\DNIEL~1\AppData\Local\Temp\cc5BPyWQ.s:25     .text.icuInit:00000000 icuInit
C:\Users\DNIEL~1\AppData\Local\Temp\cc5BPyWQ.s:41     .text.icuObjectInit:00000000 $t
C:\Users\DNIEL~1\AppData\Local\Temp\cc5BPyWQ.s:47     .text.icuObjectInit:00000000 icuObjectInit
C:\Users\DNIEL~1\AppData\Local\Temp\cc5BPyWQ.s:68     .text.icuStart:00000000 $t
C:\Users\DNIEL~1\AppData\Local\Temp\cc5BPyWQ.s:74     .text.icuStart:00000000 icuStart
C:\Users\DNIEL~1\AppData\Local\Temp\cc5BPyWQ.s:124    .text.icuStop:00000000 $t
C:\Users\DNIEL~1\AppData\Local\Temp\cc5BPyWQ.s:130    .text.icuStop:00000000 icuStop
C:\Users\DNIEL~1\AppData\Local\Temp\cc5BPyWQ.s:178    .text.icuEnable:00000000 $t
C:\Users\DNIEL~1\AppData\Local\Temp\cc5BPyWQ.s:184    .text.icuEnable:00000000 icuEnable
C:\Users\DNIEL~1\AppData\Local\Temp\cc5BPyWQ.s:232    .text.icuDisable:00000000 $t
C:\Users\DNIEL~1\AppData\Local\Temp\cc5BPyWQ.s:238    .text.icuDisable:00000000 icuDisable
                     .debug_frame:00000010 $d

UNDEFINED SYMBOLS
icu_lld_init
icu_lld_start
icu_lld_stop
icu_lld_enable
icu_lld_disable
