ARM GAS  C:\Users\DNIEL~1\AppData\Local\Temp\ccIZFHCV.s 			page 1


   1              		.syntax unified
   2              		.cpu cortex-m4
   3              		.fpu softvfp
   4              		.eabi_attribute 20, 1
   5              		.eabi_attribute 21, 1
   6              		.eabi_attribute 23, 3
   7              		.eabi_attribute 24, 1
   8              		.eabi_attribute 25, 1
   9              		.eabi_attribute 26, 1
  10              		.eabi_attribute 30, 2
  11              		.eabi_attribute 34, 1
  12              		.eabi_attribute 18, 4
  13              		.thumb
  14              		.file	"icu.c"
  15              		.text
  16              	.Ltext0:
  17              		.cfi_sections	.debug_frame
  18              		.section	.text.icuInit,"ax",%progbits
  19              		.align	2
  20              		.p2align 4,,15
  21              		.global	icuInit
  22              		.thumb
  23              		.thumb_func
  24              		.type	icuInit, %function
  25              	icuInit:
  26              	.LFB118:
  27              		.file 1 "../../../ChibiOS/os/hal/src/icu.c"
  28              		.loc 1 68 0
  29              		.cfi_startproc
  30              		@ args = 0, pretend = 0, frame = 0
  31              		@ frame_needed = 0, uses_anonymous_args = 0
  32              		@ link register save eliminated.
  33              		.loc 1 71 0
  34              		.loc 1 70 0
  35 0000 FFF7FEBF 		b	icu_lld_init
  36              	.LVL0:
  37              		.cfi_endproc
  38              	.LFE118:
  39              		.size	icuInit, .-icuInit
  40 0004 AFF30080 		.section	.text.icuObjectInit,"ax",%progbits
  40      AFF30080 
  40      AFF30080 
  41              		.align	2
  42              		.p2align 4,,15
  43              		.global	icuObjectInit
  44              		.thumb
  45              		.thumb_func
  46              		.type	icuObjectInit, %function
  47              	icuObjectInit:
  48              	.LFB119:
  49              		.loc 1 80 0
  50              		.cfi_startproc
  51              		@ args = 0, pretend = 0, frame = 0
  52              		@ frame_needed = 0, uses_anonymous_args = 0
  53              		@ link register save eliminated.
  54              	.LVL1:
  55              		.loc 1 82 0
ARM GAS  C:\Users\DNIEL~1\AppData\Local\Temp\ccIZFHCV.s 			page 2


  56 0000 0123     		movs	r3, #1
  57              		.loc 1 83 0
  58 0002 0021     		movs	r1, #0
  59              		.loc 1 82 0
  60 0004 0370     		strb	r3, [r0, #0]
  61              		.loc 1 83 0
  62 0006 4160     		str	r1, [r0, #4]
  63 0008 7047     		bx	lr
  64              		.cfi_endproc
  65              	.LFE119:
  66              		.size	icuObjectInit, .-icuObjectInit
  67 000a 00BFAFF3 		.section	.text.icuStart,"ax",%progbits
  67      0080
  68              		.align	2
  69              		.p2align 4,,15
  70              		.global	icuStart
  71              		.thumb
  72              		.thumb_func
  73              		.type	icuStart, %function
  74              	icuStart:
  75              	.LFB120:
  76              		.loc 1 94 0
  77              		.cfi_startproc
  78              		@ args = 0, pretend = 0, frame = 0
  79              		@ frame_needed = 0, uses_anonymous_args = 0
  80              	.LVL2:
  81 0000 10B5     		push	{r4, lr}
  82              	.LCFI0:
  83              		.cfi_def_cfa_offset 8
  84              		.cfi_offset 4, -8
  85              		.cfi_offset 14, -4
  86              	.LBB2:
  87              		.loc 1 98 0
  88 0002 2023     		movs	r3, #32
  89              	.LVL3:
  90              	.LBE2:
  91              		.loc 1 94 0
  92 0004 0446     		mov	r4, r0
  93              	.LBB3:
  94              		.loc 1 98 0
  95              	@ 98 "../../../ChibiOS/os/hal/src/icu.c" 1
  96 0006 83F31188 		msr     BASEPRI, r3
  97              	@ 0 "" 2
  98              	.LVL4:
  99              		.thumb
 100              	.LBE3:
 101              		.loc 1 101 0
 102 000a 4160     		str	r1, [r0, #4]
 103              		.loc 1 102 0
 104 000c FFF7FEFF 		bl	icu_lld_start
 105              	.LVL5:
 106              		.loc 1 103 0
 107 0010 0223     		movs	r3, #2
 108 0012 2370     		strb	r3, [r4, #0]
 109              	.LBB4:
 110              		.loc 1 104 0
 111 0014 0023     		movs	r3, #0
ARM GAS  C:\Users\DNIEL~1\AppData\Local\Temp\ccIZFHCV.s 			page 3


 112              	.LVL6:
 113              	@ 104 "../../../ChibiOS/os/hal/src/icu.c" 1
 114 0016 83F31188 		msr     BASEPRI, r3
 115              	@ 0 "" 2
 116              	.LVL7:
 117              		.thumb
 118 001a 10BD     		pop	{r4, pc}
 119              	.LBE4:
 120              		.cfi_endproc
 121              	.LFE120:
 122              		.size	icuStart, .-icuStart
 123 001c AFF30080 		.section	.text.icuStop,"ax",%progbits
 124              		.align	2
 125              		.p2align 4,,15
 126              		.global	icuStop
 127              		.thumb
 128              		.thumb_func
 129              		.type	icuStop, %function
 130              	icuStop:
 131              	.LFB121:
 132              		.loc 1 114 0
 133              		.cfi_startproc
 134              		@ args = 0, pretend = 0, frame = 0
 135              		@ frame_needed = 0, uses_anonymous_args = 0
 136              	.LVL8:
 137 0000 10B5     		push	{r4, lr}
 138              	.LCFI1:
 139              		.cfi_def_cfa_offset 8
 140              		.cfi_offset 4, -8
 141              		.cfi_offset 14, -4
 142              	.LBB5:
 143              		.loc 1 118 0
 144 0002 2023     		movs	r3, #32
 145              	.LVL9:
 146              	.LBE5:
 147              		.loc 1 114 0
 148 0004 0446     		mov	r4, r0
 149              	.LBB6:
 150              		.loc 1 118 0
 151              	@ 118 "../../../ChibiOS/os/hal/src/icu.c" 1
 152 0006 83F31188 		msr     BASEPRI, r3
 153              	@ 0 "" 2
 154              	.LVL10:
 155              		.thumb
 156              	.LBE6:
 157              		.loc 1 121 0
 158 000a FFF7FEFF 		bl	icu_lld_stop
 159              	.LVL11:
 160              		.loc 1 122 0
 161 000e 0123     		movs	r3, #1
 162 0010 2370     		strb	r3, [r4, #0]
 163              	.LBB7:
 164              		.loc 1 123 0
 165 0012 0023     		movs	r3, #0
 166              	.LVL12:
 167              	@ 123 "../../../ChibiOS/os/hal/src/icu.c" 1
 168 0014 83F31188 		msr     BASEPRI, r3
ARM GAS  C:\Users\DNIEL~1\AppData\Local\Temp\ccIZFHCV.s 			page 4


 169              	@ 0 "" 2
 170              	.LVL13:
 171              		.thumb
 172 0018 10BD     		pop	{r4, pc}
 173              	.LBE7:
 174              		.cfi_endproc
 175              	.LFE121:
 176              		.size	icuStop, .-icuStop
 177 001a 00BFAFF3 		.section	.text.icuEnable,"ax",%progbits
 177      0080
 178              		.align	2
 179              		.p2align 4,,15
 180              		.global	icuEnable
 181              		.thumb
 182              		.thumb_func
 183              		.type	icuEnable, %function
 184              	icuEnable:
 185              	.LFB122:
 186              		.loc 1 133 0
 187              		.cfi_startproc
 188              		@ args = 0, pretend = 0, frame = 0
 189              		@ frame_needed = 0, uses_anonymous_args = 0
 190              	.LVL14:
 191 0000 10B5     		push	{r4, lr}
 192              	.LCFI2:
 193              		.cfi_def_cfa_offset 8
 194              		.cfi_offset 4, -8
 195              		.cfi_offset 14, -4
 196              	.LBB8:
 197              		.loc 1 137 0
 198 0002 2023     		movs	r3, #32
 199              	.LVL15:
 200              	.LBE8:
 201              		.loc 1 133 0
 202 0004 0446     		mov	r4, r0
 203              	.LBB9:
 204              		.loc 1 137 0
 205              	@ 137 "../../../ChibiOS/os/hal/src/icu.c" 1
 206 0006 83F31188 		msr     BASEPRI, r3
 207              	@ 0 "" 2
 208              	.LVL16:
 209              		.thumb
 210              	.LBE9:
 211              		.loc 1 139 0
 212 000a FFF7FEFF 		bl	icu_lld_enable
 213              	.LVL17:
 214              		.loc 1 140 0
 215 000e 0323     		movs	r3, #3
 216 0010 2370     		strb	r3, [r4, #0]
 217              	.LBB10:
 218              		.loc 1 141 0
 219 0012 0023     		movs	r3, #0
 220              	.LVL18:
 221              	@ 141 "../../../ChibiOS/os/hal/src/icu.c" 1
 222 0014 83F31188 		msr     BASEPRI, r3
 223              	@ 0 "" 2
 224              	.LVL19:
ARM GAS  C:\Users\DNIEL~1\AppData\Local\Temp\ccIZFHCV.s 			page 5


 225              		.thumb
 226 0018 10BD     		pop	{r4, pc}
 227              	.LBE10:
 228              		.cfi_endproc
 229              	.LFE122:
 230              		.size	icuEnable, .-icuEnable
 231 001a 00BFAFF3 		.section	.text.icuDisable,"ax",%progbits
 231      0080
 232              		.align	2
 233              		.p2align 4,,15
 234              		.global	icuDisable
 235              		.thumb
 236              		.thumb_func
 237              		.type	icuDisable, %function
 238              	icuDisable:
 239              	.LFB123:
 240              		.loc 1 151 0
 241              		.cfi_startproc
 242              		@ args = 0, pretend = 0, frame = 0
 243              		@ frame_needed = 0, uses_anonymous_args = 0
 244              	.LVL20:
 245 0000 10B5     		push	{r4, lr}
 246              	.LCFI3:
 247              		.cfi_def_cfa_offset 8
 248              		.cfi_offset 4, -8
 249              		.cfi_offset 14, -4
 250              	.LBB11:
 251              		.loc 1 155 0
 252 0002 2023     		movs	r3, #32
 253              	.LVL21:
 254              	.LBE11:
 255              		.loc 1 151 0
 256 0004 0446     		mov	r4, r0
 257              	.LBB12:
 258              		.loc 1 155 0
 259              	@ 155 "../../../ChibiOS/os/hal/src/icu.c" 1
 260 0006 83F31188 		msr     BASEPRI, r3
 261              	@ 0 "" 2
 262              	.LVL22:
 263              		.thumb
 264              	.LBE12:
 265              		.loc 1 159 0
 266 000a FFF7FEFF 		bl	icu_lld_disable
 267              	.LVL23:
 268              		.loc 1 160 0
 269 000e 0223     		movs	r3, #2
 270 0010 2370     		strb	r3, [r4, #0]
 271              	.LBB13:
 272              		.loc 1 161 0
 273 0012 0023     		movs	r3, #0
 274              	.LVL24:
 275              	@ 161 "../../../ChibiOS/os/hal/src/icu.c" 1
 276 0014 83F31188 		msr     BASEPRI, r3
 277              	@ 0 "" 2
 278              	.LVL25:
 279              		.thumb
 280 0018 10BD     		pop	{r4, pc}
ARM GAS  C:\Users\DNIEL~1\AppData\Local\Temp\ccIZFHCV.s 			page 6


 281              	.LBE13:
 282              		.cfi_endproc
 283              	.LFE123:
 284              		.size	icuDisable, .-icuDisable
 285 001a 00BFAFF3 		.text
 285      0080
 286              	.Letext0:
 287              		.file 2 "c:\\chibistudio\\tools\\gnu tools arm embedded\\4.7 2014q2\\bin\\../lib/gcc/arm-none-eabi
 288              		.file 3 "../../../ChibiOS/os/hal/include/icu.h"
 289              		.file 4 "../../../ChibiOS/os/hal/platforms/STM32/TIMv1/icu_lld.h"
 290              		.file 5 "../../../ChibiOS/os/hal/platforms/STM32/TIMv1/stm32_tim.h"
 291              		.file 6 "../../../ChibiOS/os/ports/common/ARMCMx/CMSIS/include/core_cm4.h"
 292              		.section	.debug_info,"",%progbits
 293              	.Ldebug_info0:
 294 0000 37060000 		.4byte	0x637
 295 0004 0200     		.2byte	0x2
 296 0006 00000000 		.4byte	.Ldebug_abbrev0
 297 000a 04       		.byte	0x4
 298 000b 01       		.uleb128 0x1
 299 000c 98000000 		.4byte	.LASF64
 300 0010 01       		.byte	0x1
 301 0011 09030000 		.4byte	.LASF65
 302 0015 1A000000 		.4byte	.LASF66
 303 0019 60000000 		.4byte	.Ldebug_ranges0+0x60
 304 001d 00000000 		.4byte	0
 305 0021 00000000 		.4byte	0
 306 0025 00000000 		.4byte	.Ldebug_line0
 307 0029 02       		.uleb128 0x2
 308 002a 04       		.byte	0x4
 309 002b 05       		.byte	0x5
 310 002c 696E7400 		.ascii	"int\000"
 311 0030 03       		.uleb128 0x3
 312 0031 04       		.byte	0x4
 313 0032 07       		.byte	0x7
 314 0033 F3010000 		.4byte	.LASF0
 315 0037 03       		.uleb128 0x3
 316 0038 01       		.byte	0x1
 317 0039 06       		.byte	0x6
 318 003a D1010000 		.4byte	.LASF1
 319 003e 03       		.uleb128 0x3
 320 003f 01       		.byte	0x1
 321 0040 08       		.byte	0x8
 322 0041 A6010000 		.4byte	.LASF2
 323 0045 03       		.uleb128 0x3
 324 0046 02       		.byte	0x2
 325 0047 05       		.byte	0x5
 326 0048 80000000 		.4byte	.LASF3
 327 004c 03       		.uleb128 0x3
 328 004d 02       		.byte	0x2
 329 004e 07       		.byte	0x7
 330 004f 15020000 		.4byte	.LASF4
 331 0053 04       		.uleb128 0x4
 332 0054 56020000 		.4byte	.LASF6
 333 0058 02       		.byte	0x2
 334 0059 4F       		.byte	0x4f
 335 005a 5E000000 		.4byte	0x5e
 336 005e 03       		.uleb128 0x3
ARM GAS  C:\Users\DNIEL~1\AppData\Local\Temp\ccIZFHCV.s 			page 7


 337 005f 04       		.byte	0x4
 338 0060 05       		.byte	0x5
 339 0061 79010000 		.4byte	.LASF5
 340 0065 04       		.uleb128 0x4
 341 0066 EA010000 		.4byte	.LASF7
 342 006a 02       		.byte	0x2
 343 006b 50       		.byte	0x50
 344 006c 70000000 		.4byte	0x70
 345 0070 03       		.uleb128 0x3
 346 0071 04       		.byte	0x4
 347 0072 07       		.byte	0x7
 348 0073 A7020000 		.4byte	.LASF8
 349 0077 03       		.uleb128 0x3
 350 0078 08       		.byte	0x8
 351 0079 05       		.byte	0x5
 352 007a 44010000 		.4byte	.LASF9
 353 007e 03       		.uleb128 0x3
 354 007f 08       		.byte	0x8
 355 0080 07       		.byte	0x7
 356 0081 52010000 		.4byte	.LASF10
 357 0085 03       		.uleb128 0x3
 358 0086 01       		.byte	0x1
 359 0087 02       		.byte	0x2
 360 0088 0F020000 		.4byte	.LASF11
 361 008c 05       		.uleb128 0x5
 362 008d 65000000 		.4byte	0x65
 363 0091 03       		.uleb128 0x3
 364 0092 04       		.byte	0x4
 365 0093 07       		.byte	0x7
 366 0094 8F000000 		.4byte	.LASF12
 367 0098 03       		.uleb128 0x3
 368 0099 01       		.byte	0x1
 369 009a 08       		.byte	0x8
 370 009b 28020000 		.4byte	.LASF13
 371 009f 06       		.uleb128 0x6
 372 00a0 65000000 		.4byte	0x65
 373 00a4 AF000000 		.4byte	0xaf
 374 00a8 07       		.uleb128 0x7
 375 00a9 91000000 		.4byte	0x91
 376 00ad 03       		.byte	0x3
 377 00ae 00       		.byte	0
 378 00af 05       		.uleb128 0x5
 379 00b0 53000000 		.4byte	0x53
 380 00b4 08       		.uleb128 0x8
 381 00b5 04       		.byte	0x4
 382 00b6 8C000000 		.4byte	0x8c
 383 00ba 09       		.uleb128 0x9
 384 00bb 01       		.byte	0x1
 385 00bc 03       		.byte	0x3
 386 00bd 3C       		.byte	0x3c
 387 00be E7000000 		.4byte	0xe7
 388 00c2 0A       		.uleb128 0xa
 389 00c3 86020000 		.4byte	.LASF14
 390 00c7 00       		.sleb128 0
 391 00c8 0A       		.uleb128 0xa
 392 00c9 45000000 		.4byte	.LASF15
 393 00cd 01       		.sleb128 1
ARM GAS  C:\Users\DNIEL~1\AppData\Local\Temp\ccIZFHCV.s 			page 8


 394 00ce 0A       		.uleb128 0xa
 395 00cf E4020000 		.4byte	.LASF16
 396 00d3 02       		.sleb128 2
 397 00d4 0A       		.uleb128 0xa
 398 00d5 36030000 		.4byte	.LASF17
 399 00d9 03       		.sleb128 3
 400 00da 0A       		.uleb128 0xa
 401 00db 39010000 		.4byte	.LASF18
 402 00df 04       		.sleb128 4
 403 00e0 0A       		.uleb128 0xa
 404 00e1 98010000 		.4byte	.LASF19
 405 00e5 05       		.sleb128 5
 406 00e6 00       		.byte	0
 407 00e7 04       		.uleb128 0x4
 408 00e8 2B030000 		.4byte	.LASF20
 409 00ec 03       		.byte	0x3
 410 00ed 43       		.byte	0x43
 411 00ee BA000000 		.4byte	0xba
 412 00f2 04       		.uleb128 0x4
 413 00f3 D0020000 		.4byte	.LASF21
 414 00f7 03       		.byte	0x3
 415 00f8 48       		.byte	0x48
 416 00f9 FD000000 		.4byte	0xfd
 417 00fd 0B       		.uleb128 0xb
 418 00fe D0020000 		.4byte	.LASF21
 419 0102 18       		.byte	0x18
 420 0103 04       		.byte	0x4
 421 0104 3101     		.2byte	0x131
 422 0106 65010000 		.4byte	0x165
 423 010a 0C       		.uleb128 0xc
 424 010b 6E000000 		.4byte	.LASF22
 425 010f 04       		.byte	0x4
 426 0110 3501     		.2byte	0x135
 427 0112 E7000000 		.4byte	0xe7
 428 0116 02       		.byte	0x2
 429 0117 23       		.byte	0x23
 430 0118 00       		.uleb128 0
 431 0119 0C       		.uleb128 0xc
 432 011a 05010000 		.4byte	.LASF23
 433 011e 04       		.byte	0x4
 434 011f 3901     		.2byte	0x139
 435 0121 A6030000 		.4byte	0x3a6
 436 0125 02       		.byte	0x2
 437 0126 23       		.byte	0x23
 438 0127 04       		.uleb128 0x4
 439 0128 0C       		.uleb128 0xc
 440 0129 B9020000 		.4byte	.LASF24
 441 012d 04       		.byte	0x4
 442 012e 4101     		.2byte	0x141
 443 0130 65000000 		.4byte	0x65
 444 0134 02       		.byte	0x2
 445 0135 23       		.byte	0x23
 446 0136 08       		.uleb128 0x8
 447 0137 0D       		.uleb128 0xd
 448 0138 74696D00 		.ascii	"tim\000"
 449 013c 04       		.byte	0x4
 450 013d 4501     		.2byte	0x145
ARM GAS  C:\Users\DNIEL~1\AppData\Local\Temp\ccIZFHCV.s 			page 9


 451 013f B1030000 		.4byte	0x3b1
 452 0143 02       		.byte	0x2
 453 0144 23       		.byte	0x23
 454 0145 0C       		.uleb128 0xc
 455 0146 0C       		.uleb128 0xc
 456 0147 73010000 		.4byte	.LASF25
 457 014b 04       		.byte	0x4
 458 014c 4901     		.2byte	0x149
 459 014e B4000000 		.4byte	0xb4
 460 0152 02       		.byte	0x2
 461 0153 23       		.byte	0x23
 462 0154 10       		.uleb128 0x10
 463 0155 0C       		.uleb128 0xc
 464 0156 8C010000 		.4byte	.LASF26
 465 015a 04       		.byte	0x4
 466 015b 4D01     		.2byte	0x14d
 467 015d B4000000 		.4byte	0xb4
 468 0161 02       		.byte	0x2
 469 0162 23       		.byte	0x23
 470 0163 14       		.uleb128 0x14
 471 0164 00       		.byte	0
 472 0165 04       		.uleb128 0x4
 473 0166 2D020000 		.4byte	.LASF27
 474 016a 03       		.byte	0x3
 475 016b 4F       		.byte	0x4f
 476 016c 70010000 		.4byte	0x170
 477 0170 08       		.uleb128 0x8
 478 0171 04       		.byte	0x4
 479 0172 76010000 		.4byte	0x176
 480 0176 0E       		.uleb128 0xe
 481 0177 01       		.byte	0x1
 482 0178 82010000 		.4byte	0x182
 483 017c 0F       		.uleb128 0xf
 484 017d 82010000 		.4byte	0x182
 485 0181 00       		.byte	0
 486 0182 08       		.uleb128 0x8
 487 0183 04       		.byte	0x4
 488 0184 F2000000 		.4byte	0xf2
 489 0188 10       		.uleb128 0x10
 490 0189 60       		.byte	0x60
 491 018a 05       		.byte	0x5
 492 018b 9E01     		.2byte	0x19e
 493 018d CB020000 		.4byte	0x2cb
 494 0191 0D       		.uleb128 0xd
 495 0192 43523100 		.ascii	"CR1\000"
 496 0196 05       		.byte	0x5
 497 0197 9F01     		.2byte	0x19f
 498 0199 8C000000 		.4byte	0x8c
 499 019d 02       		.byte	0x2
 500 019e 23       		.byte	0x23
 501 019f 00       		.uleb128 0
 502 01a0 0D       		.uleb128 0xd
 503 01a1 43523200 		.ascii	"CR2\000"
 504 01a5 05       		.byte	0x5
 505 01a6 A001     		.2byte	0x1a0
 506 01a8 8C000000 		.4byte	0x8c
 507 01ac 02       		.byte	0x2
ARM GAS  C:\Users\DNIEL~1\AppData\Local\Temp\ccIZFHCV.s 			page 10


 508 01ad 23       		.byte	0x23
 509 01ae 04       		.uleb128 0x4
 510 01af 0C       		.uleb128 0xc
 511 01b0 A1010000 		.4byte	.LASF28
 512 01b4 05       		.byte	0x5
 513 01b5 A101     		.2byte	0x1a1
 514 01b7 8C000000 		.4byte	0x8c
 515 01bb 02       		.byte	0x2
 516 01bc 23       		.byte	0x23
 517 01bd 08       		.uleb128 0x8
 518 01be 0C       		.uleb128 0xc
 519 01bf 00020000 		.4byte	.LASF29
 520 01c3 05       		.byte	0x5
 521 01c4 A201     		.2byte	0x1a2
 522 01c6 8C000000 		.4byte	0x8c
 523 01ca 02       		.byte	0x2
 524 01cb 23       		.byte	0x23
 525 01cc 0C       		.uleb128 0xc
 526 01cd 0D       		.uleb128 0xd
 527 01ce 535200   		.ascii	"SR\000"
 528 01d1 05       		.byte	0x5
 529 01d2 A301     		.2byte	0x1a3
 530 01d4 8C000000 		.4byte	0x8c
 531 01d8 02       		.byte	0x2
 532 01d9 23       		.byte	0x23
 533 01da 10       		.uleb128 0x10
 534 01db 0D       		.uleb128 0xd
 535 01dc 45475200 		.ascii	"EGR\000"
 536 01e0 05       		.byte	0x5
 537 01e1 A401     		.2byte	0x1a4
 538 01e3 8C000000 		.4byte	0x8c
 539 01e7 02       		.byte	0x2
 540 01e8 23       		.byte	0x23
 541 01e9 14       		.uleb128 0x14
 542 01ea 0C       		.uleb128 0xc
 543 01eb 92010000 		.4byte	.LASF30
 544 01ef 05       		.byte	0x5
 545 01f0 A501     		.2byte	0x1a5
 546 01f2 8C000000 		.4byte	0x8c
 547 01f6 02       		.byte	0x2
 548 01f7 23       		.byte	0x23
 549 01f8 18       		.uleb128 0x18
 550 01f9 0C       		.uleb128 0xc
 551 01fa 74000000 		.4byte	.LASF31
 552 01fe 05       		.byte	0x5
 553 01ff A601     		.2byte	0x1a6
 554 0201 8C000000 		.4byte	0x8c
 555 0205 02       		.byte	0x2
 556 0206 23       		.byte	0x23
 557 0207 1C       		.uleb128 0x1c
 558 0208 0C       		.uleb128 0xc
 559 0209 15000000 		.4byte	.LASF32
 560 020d 05       		.byte	0x5
 561 020e A701     		.2byte	0x1a7
 562 0210 8C000000 		.4byte	0x8c
 563 0214 02       		.byte	0x2
 564 0215 23       		.byte	0x23
ARM GAS  C:\Users\DNIEL~1\AppData\Local\Temp\ccIZFHCV.s 			page 11


 565 0216 20       		.uleb128 0x20
 566 0217 0D       		.uleb128 0xd
 567 0218 434E5400 		.ascii	"CNT\000"
 568 021c 05       		.byte	0x5
 569 021d A801     		.2byte	0x1a8
 570 021f 8C000000 		.4byte	0x8c
 571 0223 02       		.byte	0x2
 572 0224 23       		.byte	0x23
 573 0225 24       		.uleb128 0x24
 574 0226 0D       		.uleb128 0xd
 575 0227 50534300 		.ascii	"PSC\000"
 576 022b 05       		.byte	0x5
 577 022c A901     		.2byte	0x1a9
 578 022e 8C000000 		.4byte	0x8c
 579 0232 02       		.byte	0x2
 580 0233 23       		.byte	0x23
 581 0234 28       		.uleb128 0x28
 582 0235 0D       		.uleb128 0xd
 583 0236 41525200 		.ascii	"ARR\000"
 584 023a 05       		.byte	0x5
 585 023b AA01     		.2byte	0x1aa
 586 023d 8C000000 		.4byte	0x8c
 587 0241 02       		.byte	0x2
 588 0242 23       		.byte	0x23
 589 0243 2C       		.uleb128 0x2c
 590 0244 0D       		.uleb128 0xd
 591 0245 52435200 		.ascii	"RCR\000"
 592 0249 05       		.byte	0x5
 593 024a AB01     		.2byte	0x1ab
 594 024c 8C000000 		.4byte	0x8c
 595 0250 02       		.byte	0x2
 596 0251 23       		.byte	0x23
 597 0252 30       		.uleb128 0x30
 598 0253 0D       		.uleb128 0xd
 599 0254 43435200 		.ascii	"CCR\000"
 600 0258 05       		.byte	0x5
 601 0259 AC01     		.2byte	0x1ac
 602 025b CB020000 		.4byte	0x2cb
 603 025f 02       		.byte	0x2
 604 0260 23       		.byte	0x23
 605 0261 34       		.uleb128 0x34
 606 0262 0C       		.uleb128 0xc
 607 0263 51020000 		.4byte	.LASF33
 608 0267 05       		.byte	0x5
 609 0268 AD01     		.2byte	0x1ad
 610 026a 8C000000 		.4byte	0x8c
 611 026e 02       		.byte	0x2
 612 026f 23       		.byte	0x23
 613 0270 44       		.uleb128 0x44
 614 0271 0D       		.uleb128 0xd
 615 0272 44435200 		.ascii	"DCR\000"
 616 0276 05       		.byte	0x5
 617 0277 AE01     		.2byte	0x1ae
 618 0279 8C000000 		.4byte	0x8c
 619 027d 02       		.byte	0x2
 620 027e 23       		.byte	0x23
 621 027f 48       		.uleb128 0x48
ARM GAS  C:\Users\DNIEL~1\AppData\Local\Temp\ccIZFHCV.s 			page 12


 622 0280 0C       		.uleb128 0xc
 623 0281 69000000 		.4byte	.LASF34
 624 0285 05       		.byte	0x5
 625 0286 AF01     		.2byte	0x1af
 626 0288 8C000000 		.4byte	0x8c
 627 028c 02       		.byte	0x2
 628 028d 23       		.byte	0x23
 629 028e 4C       		.uleb128 0x4c
 630 028f 0D       		.uleb128 0xd
 631 0290 4F5200   		.ascii	"OR\000"
 632 0293 05       		.byte	0x5
 633 0294 B001     		.2byte	0x1b0
 634 0296 8C000000 		.4byte	0x8c
 635 029a 02       		.byte	0x2
 636 029b 23       		.byte	0x23
 637 029c 50       		.uleb128 0x50
 638 029d 0C       		.uleb128 0xc
 639 029e 7A000000 		.4byte	.LASF35
 640 02a2 05       		.byte	0x5
 641 02a3 B101     		.2byte	0x1b1
 642 02a5 8C000000 		.4byte	0x8c
 643 02a9 02       		.byte	0x2
 644 02aa 23       		.byte	0x23
 645 02ab 54       		.uleb128 0x54
 646 02ac 0C       		.uleb128 0xc
 647 02ad 82010000 		.4byte	.LASF36
 648 02b1 05       		.byte	0x5
 649 02b2 B201     		.2byte	0x1b2
 650 02b4 8C000000 		.4byte	0x8c
 651 02b8 02       		.byte	0x2
 652 02b9 23       		.byte	0x23
 653 02ba 58       		.uleb128 0x58
 654 02bb 0C       		.uleb128 0xc
 655 02bc 87010000 		.4byte	.LASF37
 656 02c0 05       		.byte	0x5
 657 02c1 B301     		.2byte	0x1b3
 658 02c3 8C000000 		.4byte	0x8c
 659 02c7 02       		.byte	0x2
 660 02c8 23       		.byte	0x23
 661 02c9 5C       		.uleb128 0x5c
 662 02ca 00       		.byte	0
 663 02cb 05       		.uleb128 0x5
 664 02cc 9F000000 		.4byte	0x9f
 665 02d0 11       		.uleb128 0x11
 666 02d1 3B020000 		.4byte	.LASF38
 667 02d5 05       		.byte	0x5
 668 02d6 B401     		.2byte	0x1b4
 669 02d8 88010000 		.4byte	0x188
 670 02dc 09       		.uleb128 0x9
 671 02dd 01       		.byte	0x1
 672 02de 04       		.byte	0x4
 673 02df EE       		.byte	0xee
 674 02e0 F1020000 		.4byte	0x2f1
 675 02e4 0A       		.uleb128 0xa
 676 02e5 91020000 		.4byte	.LASF39
 677 02e9 00       		.sleb128 0
 678 02ea 0A       		.uleb128 0xa
ARM GAS  C:\Users\DNIEL~1\AppData\Local\Temp\ccIZFHCV.s 			page 13


 679 02eb 5E020000 		.4byte	.LASF40
 680 02ef 01       		.sleb128 1
 681 02f0 00       		.byte	0
 682 02f1 04       		.uleb128 0x4
 683 02f2 69010000 		.4byte	.LASF41
 684 02f6 04       		.byte	0x4
 685 02f7 F1       		.byte	0xf1
 686 02f8 DC020000 		.4byte	0x2dc
 687 02fc 04       		.uleb128 0x4
 688 02fd 05020000 		.4byte	.LASF42
 689 0301 04       		.byte	0x4
 690 0302 F6       		.byte	0xf6
 691 0303 65000000 		.4byte	0x65
 692 0307 09       		.uleb128 0x9
 693 0308 01       		.byte	0x1
 694 0309 04       		.byte	0x4
 695 030a FB       		.byte	0xfb
 696 030b 1C030000 		.4byte	0x31c
 697 030f 0A       		.uleb128 0xa
 698 0310 0C010000 		.4byte	.LASF43
 699 0314 00       		.sleb128 0
 700 0315 0A       		.uleb128 0xa
 701 0316 1A010000 		.4byte	.LASF44
 702 031a 01       		.sleb128 1
 703 031b 00       		.byte	0
 704 031c 04       		.uleb128 0x4
 705 031d 4E000000 		.4byte	.LASF45
 706 0321 04       		.byte	0x4
 707 0322 FE       		.byte	0xfe
 708 0323 07030000 		.4byte	0x307
 709 0327 10       		.uleb128 0x10
 710 0328 1C       		.byte	0x1c
 711 0329 04       		.byte	0x4
 712 032a 0901     		.2byte	0x109
 713 032c 9A030000 		.4byte	0x39a
 714 0330 0C       		.uleb128 0xc
 715 0331 F0000000 		.4byte	.LASF46
 716 0335 04       		.byte	0x4
 717 0336 0D01     		.2byte	0x10d
 718 0338 F1020000 		.4byte	0x2f1
 719 033c 02       		.byte	0x2
 720 033d 23       		.byte	0x23
 721 033e 00       		.uleb128 0
 722 033f 0C       		.uleb128 0xc
 723 0340 DA020000 		.4byte	.LASF47
 724 0344 04       		.byte	0x4
 725 0345 1301     		.2byte	0x113
 726 0347 FC020000 		.4byte	0x2fc
 727 034b 02       		.byte	0x2
 728 034c 23       		.byte	0x23
 729 034d 04       		.uleb128 0x4
 730 034e 0C       		.uleb128 0xc
 731 034f 30010000 		.4byte	.LASF48
 732 0353 04       		.byte	0x4
 733 0354 1701     		.2byte	0x117
 734 0356 65010000 		.4byte	0x165
 735 035a 02       		.byte	0x2
ARM GAS  C:\Users\DNIEL~1\AppData\Local\Temp\ccIZFHCV.s 			page 14


 736 035b 23       		.byte	0x23
 737 035c 08       		.uleb128 0x8
 738 035d 0C       		.uleb128 0xc
 739 035e 47020000 		.4byte	.LASF49
 740 0362 04       		.byte	0x4
 741 0363 1B01     		.2byte	0x11b
 742 0365 65010000 		.4byte	0x165
 743 0369 02       		.byte	0x2
 744 036a 23       		.byte	0x23
 745 036b 0C       		.uleb128 0xc
 746 036c 0C       		.uleb128 0xc
 747 036d BF020000 		.4byte	.LASF50
 748 0371 04       		.byte	0x4
 749 0372 1F01     		.2byte	0x11f
 750 0374 65010000 		.4byte	0x165
 751 0378 02       		.byte	0x2
 752 0379 23       		.byte	0x23
 753 037a 10       		.uleb128 0x10
 754 037b 0C       		.uleb128 0xc
 755 037c 73020000 		.4byte	.LASF51
 756 0380 04       		.byte	0x4
 757 0381 2501     		.2byte	0x125
 758 0383 1C030000 		.4byte	0x31c
 759 0387 02       		.byte	0x2
 760 0388 23       		.byte	0x23
 761 0389 14       		.uleb128 0x14
 762 038a 0C       		.uleb128 0xc
 763 038b CB020000 		.4byte	.LASF52
 764 038f 04       		.byte	0x4
 765 0390 2B01     		.2byte	0x12b
 766 0392 65000000 		.4byte	0x65
 767 0396 02       		.byte	0x2
 768 0397 23       		.byte	0x23
 769 0398 18       		.uleb128 0x18
 770 0399 00       		.byte	0
 771 039a 11       		.uleb128 0x11
 772 039b B4010000 		.4byte	.LASF53
 773 039f 04       		.byte	0x4
 774 03a0 2C01     		.2byte	0x12c
 775 03a2 27030000 		.4byte	0x327
 776 03a6 08       		.uleb128 0x8
 777 03a7 04       		.byte	0x4
 778 03a8 AC030000 		.4byte	0x3ac
 779 03ac 12       		.uleb128 0x12
 780 03ad 9A030000 		.4byte	0x39a
 781 03b1 08       		.uleb128 0x8
 782 03b2 04       		.byte	0x4
 783 03b3 D0020000 		.4byte	0x2d0
 784 03b7 13       		.uleb128 0x13
 785 03b8 01       		.byte	0x1
 786 03b9 28010000 		.4byte	.LASF54
 787 03bd 01       		.byte	0x1
 788 03be 44       		.byte	0x44
 789 03bf 01       		.byte	0x1
 790 03c0 00000000 		.4byte	.LFB118
 791 03c4 04000000 		.4byte	.LFE118
 792 03c8 02       		.byte	0x2
ARM GAS  C:\Users\DNIEL~1\AppData\Local\Temp\ccIZFHCV.s 			page 15


 793 03c9 7D       		.byte	0x7d
 794 03ca 00       		.sleb128 0
 795 03cb 01       		.byte	0x1
 796 03cc DB030000 		.4byte	0x3db
 797 03d0 14       		.uleb128 0x14
 798 03d1 04000000 		.4byte	.LVL0
 799 03d5 01       		.byte	0x1
 800 03d6 DF050000 		.4byte	0x5df
 801 03da 00       		.byte	0
 802 03db 13       		.uleb128 0x13
 803 03dc 01       		.byte	0x1
 804 03dd EE020000 		.4byte	.LASF55
 805 03e1 01       		.byte	0x1
 806 03e2 50       		.byte	0x50
 807 03e3 01       		.byte	0x1
 808 03e4 00000000 		.4byte	.LFB119
 809 03e8 0A000000 		.4byte	.LFE119
 810 03ec 02       		.byte	0x2
 811 03ed 7D       		.byte	0x7d
 812 03ee 00       		.sleb128 0
 813 03ef 01       		.byte	0x1
 814 03f0 02040000 		.4byte	0x402
 815 03f4 15       		.uleb128 0x15
 816 03f5 8A000000 		.4byte	.LASF57
 817 03f9 01       		.byte	0x1
 818 03fa 50       		.byte	0x50
 819 03fb 82010000 		.4byte	0x182
 820 03ff 01       		.byte	0x1
 821 0400 50       		.byte	0x50
 822 0401 00       		.byte	0
 823 0402 16       		.uleb128 0x16
 824 0403 01       		.byte	0x1
 825 0404 BE010000 		.4byte	.LASF56
 826 0408 01       		.byte	0x1
 827 0409 5E       		.byte	0x5e
 828 040a 01       		.byte	0x1
 829 040b 00000000 		.4byte	.LFB120
 830 040f 1C000000 		.4byte	.LFE120
 831 0413 00000000 		.4byte	.LLST0
 832 0417 01       		.byte	0x1
 833 0418 81040000 		.4byte	0x481
 834 041c 17       		.uleb128 0x17
 835 041d 8A000000 		.4byte	.LASF57
 836 0421 01       		.byte	0x1
 837 0422 5E       		.byte	0x5e
 838 0423 82010000 		.4byte	0x182
 839 0427 20000000 		.4byte	.LLST1
 840 042b 17       		.uleb128 0x17
 841 042c 05010000 		.4byte	.LASF23
 842 0430 01       		.byte	0x1
 843 0431 5E       		.byte	0x5e
 844 0432 A6030000 		.4byte	0x3a6
 845 0436 3E000000 		.4byte	.LLST2
 846 043a 18       		.uleb128 0x18
 847 043b 00000000 		.4byte	.Ldebug_ranges0+0
 848 043f 53040000 		.4byte	0x453
 849 0443 19       		.uleb128 0x19
ARM GAS  C:\Users\DNIEL~1\AppData\Local\Temp\ccIZFHCV.s 			page 16


 850 0444 746D7000 		.ascii	"tmp\000"
 851 0448 01       		.byte	0x1
 852 0449 62       		.byte	0x62
 853 044a 65000000 		.4byte	0x65
 854 044e 5F000000 		.4byte	.LLST3
 855 0452 00       		.byte	0
 856 0453 1A       		.uleb128 0x1a
 857 0454 14000000 		.4byte	.LBB4
 858 0458 1C000000 		.4byte	.LBE4
 859 045c 70040000 		.4byte	0x470
 860 0460 19       		.uleb128 0x19
 861 0461 746D7000 		.ascii	"tmp\000"
 862 0465 01       		.byte	0x1
 863 0466 68       		.byte	0x68
 864 0467 65000000 		.4byte	0x65
 865 046b 72000000 		.4byte	.LLST4
 866 046f 00       		.byte	0
 867 0470 1B       		.uleb128 0x1b
 868 0471 10000000 		.4byte	.LVL5
 869 0475 EA050000 		.4byte	0x5ea
 870 0479 1C       		.uleb128 0x1c
 871 047a 01       		.byte	0x1
 872 047b 50       		.byte	0x50
 873 047c 02       		.byte	0x2
 874 047d 74       		.byte	0x74
 875 047e 00       		.sleb128 0
 876 047f 00       		.byte	0
 877 0480 00       		.byte	0
 878 0481 16       		.uleb128 0x16
 879 0482 01       		.byte	0x1
 880 0483 00000000 		.4byte	.LASF58
 881 0487 01       		.byte	0x1
 882 0488 72       		.byte	0x72
 883 0489 01       		.byte	0x1
 884 048a 00000000 		.4byte	.LFB121
 885 048e 1A000000 		.4byte	.LFE121
 886 0492 85000000 		.4byte	.LLST5
 887 0496 01       		.byte	0x1
 888 0497 F1040000 		.4byte	0x4f1
 889 049b 17       		.uleb128 0x17
 890 049c 8A000000 		.4byte	.LASF57
 891 04a0 01       		.byte	0x1
 892 04a1 72       		.byte	0x72
 893 04a2 82010000 		.4byte	0x182
 894 04a6 A5000000 		.4byte	.LLST6
 895 04aa 18       		.uleb128 0x18
 896 04ab 18000000 		.4byte	.Ldebug_ranges0+0x18
 897 04af C3040000 		.4byte	0x4c3
 898 04b3 19       		.uleb128 0x19
 899 04b4 746D7000 		.ascii	"tmp\000"
 900 04b8 01       		.byte	0x1
 901 04b9 76       		.byte	0x76
 902 04ba 65000000 		.4byte	0x65
 903 04be C3000000 		.4byte	.LLST7
 904 04c2 00       		.byte	0
 905 04c3 1A       		.uleb128 0x1a
 906 04c4 12000000 		.4byte	.LBB7
ARM GAS  C:\Users\DNIEL~1\AppData\Local\Temp\ccIZFHCV.s 			page 17


 907 04c8 1A000000 		.4byte	.LBE7
 908 04cc E0040000 		.4byte	0x4e0
 909 04d0 19       		.uleb128 0x19
 910 04d1 746D7000 		.ascii	"tmp\000"
 911 04d5 01       		.byte	0x1
 912 04d6 7B       		.byte	0x7b
 913 04d7 65000000 		.4byte	0x65
 914 04db D6000000 		.4byte	.LLST8
 915 04df 00       		.byte	0
 916 04e0 1B       		.uleb128 0x1b
 917 04e1 0E000000 		.4byte	.LVL11
 918 04e5 FF050000 		.4byte	0x5ff
 919 04e9 1C       		.uleb128 0x1c
 920 04ea 01       		.byte	0x1
 921 04eb 50       		.byte	0x50
 922 04ec 02       		.byte	0x2
 923 04ed 74       		.byte	0x74
 924 04ee 00       		.sleb128 0
 925 04ef 00       		.byte	0
 926 04f0 00       		.byte	0
 927 04f1 16       		.uleb128 0x16
 928 04f2 01       		.byte	0x1
 929 04f3 C7010000 		.4byte	.LASF59
 930 04f7 01       		.byte	0x1
 931 04f8 85       		.byte	0x85
 932 04f9 01       		.byte	0x1
 933 04fa 00000000 		.4byte	.LFB122
 934 04fe 1A000000 		.4byte	.LFE122
 935 0502 E9000000 		.4byte	.LLST9
 936 0506 01       		.byte	0x1
 937 0507 61050000 		.4byte	0x561
 938 050b 17       		.uleb128 0x17
 939 050c 8A000000 		.4byte	.LASF57
 940 0510 01       		.byte	0x1
 941 0511 85       		.byte	0x85
 942 0512 82010000 		.4byte	0x182
 943 0516 09010000 		.4byte	.LLST10
 944 051a 18       		.uleb128 0x18
 945 051b 30000000 		.4byte	.Ldebug_ranges0+0x30
 946 051f 33050000 		.4byte	0x533
 947 0523 19       		.uleb128 0x19
 948 0524 746D7000 		.ascii	"tmp\000"
 949 0528 01       		.byte	0x1
 950 0529 89       		.byte	0x89
 951 052a 65000000 		.4byte	0x65
 952 052e 27010000 		.4byte	.LLST11
 953 0532 00       		.byte	0
 954 0533 1A       		.uleb128 0x1a
 955 0534 12000000 		.4byte	.LBB10
 956 0538 1A000000 		.4byte	.LBE10
 957 053c 50050000 		.4byte	0x550
 958 0540 19       		.uleb128 0x19
 959 0541 746D7000 		.ascii	"tmp\000"
 960 0545 01       		.byte	0x1
 961 0546 8D       		.byte	0x8d
 962 0547 65000000 		.4byte	0x65
 963 054b 3A010000 		.4byte	.LLST12
ARM GAS  C:\Users\DNIEL~1\AppData\Local\Temp\ccIZFHCV.s 			page 18


 964 054f 00       		.byte	0
 965 0550 1B       		.uleb128 0x1b
 966 0551 0E000000 		.4byte	.LVL17
 967 0555 14060000 		.4byte	0x614
 968 0559 1C       		.uleb128 0x1c
 969 055a 01       		.byte	0x1
 970 055b 50       		.byte	0x50
 971 055c 02       		.byte	0x2
 972 055d 74       		.byte	0x74
 973 055e 00       		.sleb128 0
 974 055f 00       		.byte	0
 975 0560 00       		.byte	0
 976 0561 16       		.uleb128 0x16
 977 0562 01       		.byte	0x1
 978 0563 7B020000 		.4byte	.LASF60
 979 0567 01       		.byte	0x1
 980 0568 97       		.byte	0x97
 981 0569 01       		.byte	0x1
 982 056a 00000000 		.4byte	.LFB123
 983 056e 1A000000 		.4byte	.LFE123
 984 0572 4D010000 		.4byte	.LLST13
 985 0576 01       		.byte	0x1
 986 0577 D1050000 		.4byte	0x5d1
 987 057b 17       		.uleb128 0x17
 988 057c 8A000000 		.4byte	.LASF57
 989 0580 01       		.byte	0x1
 990 0581 97       		.byte	0x97
 991 0582 82010000 		.4byte	0x182
 992 0586 6D010000 		.4byte	.LLST14
 993 058a 18       		.uleb128 0x18
 994 058b 48000000 		.4byte	.Ldebug_ranges0+0x48
 995 058f A3050000 		.4byte	0x5a3
 996 0593 19       		.uleb128 0x19
 997 0594 746D7000 		.ascii	"tmp\000"
 998 0598 01       		.byte	0x1
 999 0599 9B       		.byte	0x9b
 1000 059a 65000000 		.4byte	0x65
 1001 059e 8B010000 		.4byte	.LLST15
 1002 05a2 00       		.byte	0
 1003 05a3 1A       		.uleb128 0x1a
 1004 05a4 12000000 		.4byte	.LBB13
 1005 05a8 1A000000 		.4byte	.LBE13
 1006 05ac C0050000 		.4byte	0x5c0
 1007 05b0 19       		.uleb128 0x19
 1008 05b1 746D7000 		.ascii	"tmp\000"
 1009 05b5 01       		.byte	0x1
 1010 05b6 A1       		.byte	0xa1
 1011 05b7 65000000 		.4byte	0x65
 1012 05bb 9E010000 		.4byte	.LLST16
 1013 05bf 00       		.byte	0
 1014 05c0 1B       		.uleb128 0x1b
 1015 05c1 0E000000 		.4byte	.LVL23
 1016 05c5 29060000 		.4byte	0x629
 1017 05c9 1C       		.uleb128 0x1c
 1018 05ca 01       		.byte	0x1
 1019 05cb 50       		.byte	0x50
 1020 05cc 02       		.byte	0x2
ARM GAS  C:\Users\DNIEL~1\AppData\Local\Temp\ccIZFHCV.s 			page 19


 1021 05cd 74       		.byte	0x74
 1022 05ce 00       		.sleb128 0
 1023 05cf 00       		.byte	0
 1024 05d0 00       		.byte	0
 1025 05d1 1D       		.uleb128 0x1d
 1026 05d2 FC020000 		.4byte	.LASF67
 1027 05d6 06       		.byte	0x6
 1028 05d7 9806     		.2byte	0x698
 1029 05d9 AF000000 		.4byte	0xaf
 1030 05dd 01       		.byte	0x1
 1031 05de 01       		.byte	0x1
 1032 05df 1E       		.uleb128 0x1e
 1033 05e0 01       		.byte	0x1
 1034 05e1 DD010000 		.4byte	.LASF68
 1035 05e5 04       		.byte	0x4
 1036 05e6 8F01     		.2byte	0x18f
 1037 05e8 01       		.byte	0x1
 1038 05e9 01       		.byte	0x1
 1039 05ea 1F       		.uleb128 0x1f
 1040 05eb 01       		.byte	0x1
 1041 05ec 5B000000 		.4byte	.LASF61
 1042 05f0 04       		.byte	0x4
 1043 05f1 9001     		.2byte	0x190
 1044 05f3 01       		.byte	0x1
 1045 05f4 01       		.byte	0x1
 1046 05f5 FF050000 		.4byte	0x5ff
 1047 05f9 0F       		.uleb128 0xf
 1048 05fa 82010000 		.4byte	0x182
 1049 05fe 00       		.byte	0
 1050 05ff 1F       		.uleb128 0x1f
 1051 0600 01       		.byte	0x1
 1052 0601 08000000 		.4byte	.LASF62
 1053 0605 04       		.byte	0x4
 1054 0606 9101     		.2byte	0x191
 1055 0608 01       		.byte	0x1
 1056 0609 01       		.byte	0x1
 1057 060a 14060000 		.4byte	0x614
 1058 060e 0F       		.uleb128 0xf
 1059 060f 82010000 		.4byte	0x182
 1060 0613 00       		.byte	0
 1061 0614 1F       		.uleb128 0x1f
 1062 0615 01       		.byte	0x1
 1063 0616 E1000000 		.4byte	.LASF63
 1064 061a 04       		.byte	0x4
 1065 061b 9201     		.2byte	0x192
 1066 061d 01       		.byte	0x1
 1067 061e 01       		.byte	0x1
 1068 061f 29060000 		.4byte	0x629
 1069 0623 0F       		.uleb128 0xf
 1070 0624 82010000 		.4byte	0x182
 1071 0628 00       		.byte	0
 1072 0629 20       		.uleb128 0x20
 1073 062a 01       		.byte	0x1
 1074 062b F5000000 		.4byte	.LASF69
 1075 062f 04       		.byte	0x4
 1076 0630 9301     		.2byte	0x193
 1077 0632 01       		.byte	0x1
ARM GAS  C:\Users\DNIEL~1\AppData\Local\Temp\ccIZFHCV.s 			page 20


 1078 0633 01       		.byte	0x1
 1079 0634 0F       		.uleb128 0xf
 1080 0635 82010000 		.4byte	0x182
 1081 0639 00       		.byte	0
 1082 063a 00       		.byte	0
 1083              		.section	.debug_abbrev,"",%progbits
 1084              	.Ldebug_abbrev0:
 1085 0000 01       		.uleb128 0x1
 1086 0001 11       		.uleb128 0x11
 1087 0002 01       		.byte	0x1
 1088 0003 25       		.uleb128 0x25
 1089 0004 0E       		.uleb128 0xe
 1090 0005 13       		.uleb128 0x13
 1091 0006 0B       		.uleb128 0xb
 1092 0007 03       		.uleb128 0x3
 1093 0008 0E       		.uleb128 0xe
 1094 0009 1B       		.uleb128 0x1b
 1095 000a 0E       		.uleb128 0xe
 1096 000b 55       		.uleb128 0x55
 1097 000c 06       		.uleb128 0x6
 1098 000d 11       		.uleb128 0x11
 1099 000e 01       		.uleb128 0x1
 1100 000f 52       		.uleb128 0x52
 1101 0010 01       		.uleb128 0x1
 1102 0011 10       		.uleb128 0x10
 1103 0012 06       		.uleb128 0x6
 1104 0013 00       		.byte	0
 1105 0014 00       		.byte	0
 1106 0015 02       		.uleb128 0x2
 1107 0016 24       		.uleb128 0x24
 1108 0017 00       		.byte	0
 1109 0018 0B       		.uleb128 0xb
 1110 0019 0B       		.uleb128 0xb
 1111 001a 3E       		.uleb128 0x3e
 1112 001b 0B       		.uleb128 0xb
 1113 001c 03       		.uleb128 0x3
 1114 001d 08       		.uleb128 0x8
 1115 001e 00       		.byte	0
 1116 001f 00       		.byte	0
 1117 0020 03       		.uleb128 0x3
 1118 0021 24       		.uleb128 0x24
 1119 0022 00       		.byte	0
 1120 0023 0B       		.uleb128 0xb
 1121 0024 0B       		.uleb128 0xb
 1122 0025 3E       		.uleb128 0x3e
 1123 0026 0B       		.uleb128 0xb
 1124 0027 03       		.uleb128 0x3
 1125 0028 0E       		.uleb128 0xe
 1126 0029 00       		.byte	0
 1127 002a 00       		.byte	0
 1128 002b 04       		.uleb128 0x4
 1129 002c 16       		.uleb128 0x16
 1130 002d 00       		.byte	0
 1131 002e 03       		.uleb128 0x3
 1132 002f 0E       		.uleb128 0xe
 1133 0030 3A       		.uleb128 0x3a
 1134 0031 0B       		.uleb128 0xb
ARM GAS  C:\Users\DNIEL~1\AppData\Local\Temp\ccIZFHCV.s 			page 21


 1135 0032 3B       		.uleb128 0x3b
 1136 0033 0B       		.uleb128 0xb
 1137 0034 49       		.uleb128 0x49
 1138 0035 13       		.uleb128 0x13
 1139 0036 00       		.byte	0
 1140 0037 00       		.byte	0
 1141 0038 05       		.uleb128 0x5
 1142 0039 35       		.uleb128 0x35
 1143 003a 00       		.byte	0
 1144 003b 49       		.uleb128 0x49
 1145 003c 13       		.uleb128 0x13
 1146 003d 00       		.byte	0
 1147 003e 00       		.byte	0
 1148 003f 06       		.uleb128 0x6
 1149 0040 01       		.uleb128 0x1
 1150 0041 01       		.byte	0x1
 1151 0042 49       		.uleb128 0x49
 1152 0043 13       		.uleb128 0x13
 1153 0044 01       		.uleb128 0x1
 1154 0045 13       		.uleb128 0x13
 1155 0046 00       		.byte	0
 1156 0047 00       		.byte	0
 1157 0048 07       		.uleb128 0x7
 1158 0049 21       		.uleb128 0x21
 1159 004a 00       		.byte	0
 1160 004b 49       		.uleb128 0x49
 1161 004c 13       		.uleb128 0x13
 1162 004d 2F       		.uleb128 0x2f
 1163 004e 0B       		.uleb128 0xb
 1164 004f 00       		.byte	0
 1165 0050 00       		.byte	0
 1166 0051 08       		.uleb128 0x8
 1167 0052 0F       		.uleb128 0xf
 1168 0053 00       		.byte	0
 1169 0054 0B       		.uleb128 0xb
 1170 0055 0B       		.uleb128 0xb
 1171 0056 49       		.uleb128 0x49
 1172 0057 13       		.uleb128 0x13
 1173 0058 00       		.byte	0
 1174 0059 00       		.byte	0
 1175 005a 09       		.uleb128 0x9
 1176 005b 04       		.uleb128 0x4
 1177 005c 01       		.byte	0x1
 1178 005d 0B       		.uleb128 0xb
 1179 005e 0B       		.uleb128 0xb
 1180 005f 3A       		.uleb128 0x3a
 1181 0060 0B       		.uleb128 0xb
 1182 0061 3B       		.uleb128 0x3b
 1183 0062 0B       		.uleb128 0xb
 1184 0063 01       		.uleb128 0x1
 1185 0064 13       		.uleb128 0x13
 1186 0065 00       		.byte	0
 1187 0066 00       		.byte	0
 1188 0067 0A       		.uleb128 0xa
 1189 0068 28       		.uleb128 0x28
 1190 0069 00       		.byte	0
 1191 006a 03       		.uleb128 0x3
ARM GAS  C:\Users\DNIEL~1\AppData\Local\Temp\ccIZFHCV.s 			page 22


 1192 006b 0E       		.uleb128 0xe
 1193 006c 1C       		.uleb128 0x1c
 1194 006d 0D       		.uleb128 0xd
 1195 006e 00       		.byte	0
 1196 006f 00       		.byte	0
 1197 0070 0B       		.uleb128 0xb
 1198 0071 13       		.uleb128 0x13
 1199 0072 01       		.byte	0x1
 1200 0073 03       		.uleb128 0x3
 1201 0074 0E       		.uleb128 0xe
 1202 0075 0B       		.uleb128 0xb
 1203 0076 0B       		.uleb128 0xb
 1204 0077 3A       		.uleb128 0x3a
 1205 0078 0B       		.uleb128 0xb
 1206 0079 3B       		.uleb128 0x3b
 1207 007a 05       		.uleb128 0x5
 1208 007b 01       		.uleb128 0x1
 1209 007c 13       		.uleb128 0x13
 1210 007d 00       		.byte	0
 1211 007e 00       		.byte	0
 1212 007f 0C       		.uleb128 0xc
 1213 0080 0D       		.uleb128 0xd
 1214 0081 00       		.byte	0
 1215 0082 03       		.uleb128 0x3
 1216 0083 0E       		.uleb128 0xe
 1217 0084 3A       		.uleb128 0x3a
 1218 0085 0B       		.uleb128 0xb
 1219 0086 3B       		.uleb128 0x3b
 1220 0087 05       		.uleb128 0x5
 1221 0088 49       		.uleb128 0x49
 1222 0089 13       		.uleb128 0x13
 1223 008a 38       		.uleb128 0x38
 1224 008b 0A       		.uleb128 0xa
 1225 008c 00       		.byte	0
 1226 008d 00       		.byte	0
 1227 008e 0D       		.uleb128 0xd
 1228 008f 0D       		.uleb128 0xd
 1229 0090 00       		.byte	0
 1230 0091 03       		.uleb128 0x3
 1231 0092 08       		.uleb128 0x8
 1232 0093 3A       		.uleb128 0x3a
 1233 0094 0B       		.uleb128 0xb
 1234 0095 3B       		.uleb128 0x3b
 1235 0096 05       		.uleb128 0x5
 1236 0097 49       		.uleb128 0x49
 1237 0098 13       		.uleb128 0x13
 1238 0099 38       		.uleb128 0x38
 1239 009a 0A       		.uleb128 0xa
 1240 009b 00       		.byte	0
 1241 009c 00       		.byte	0
 1242 009d 0E       		.uleb128 0xe
 1243 009e 15       		.uleb128 0x15
 1244 009f 01       		.byte	0x1
 1245 00a0 27       		.uleb128 0x27
 1246 00a1 0C       		.uleb128 0xc
 1247 00a2 01       		.uleb128 0x1
 1248 00a3 13       		.uleb128 0x13
ARM GAS  C:\Users\DNIEL~1\AppData\Local\Temp\ccIZFHCV.s 			page 23


 1249 00a4 00       		.byte	0
 1250 00a5 00       		.byte	0
 1251 00a6 0F       		.uleb128 0xf
 1252 00a7 05       		.uleb128 0x5
 1253 00a8 00       		.byte	0
 1254 00a9 49       		.uleb128 0x49
 1255 00aa 13       		.uleb128 0x13
 1256 00ab 00       		.byte	0
 1257 00ac 00       		.byte	0
 1258 00ad 10       		.uleb128 0x10
 1259 00ae 13       		.uleb128 0x13
 1260 00af 01       		.byte	0x1
 1261 00b0 0B       		.uleb128 0xb
 1262 00b1 0B       		.uleb128 0xb
 1263 00b2 3A       		.uleb128 0x3a
 1264 00b3 0B       		.uleb128 0xb
 1265 00b4 3B       		.uleb128 0x3b
 1266 00b5 05       		.uleb128 0x5
 1267 00b6 01       		.uleb128 0x1
 1268 00b7 13       		.uleb128 0x13
 1269 00b8 00       		.byte	0
 1270 00b9 00       		.byte	0
 1271 00ba 11       		.uleb128 0x11
 1272 00bb 16       		.uleb128 0x16
 1273 00bc 00       		.byte	0
 1274 00bd 03       		.uleb128 0x3
 1275 00be 0E       		.uleb128 0xe
 1276 00bf 3A       		.uleb128 0x3a
 1277 00c0 0B       		.uleb128 0xb
 1278 00c1 3B       		.uleb128 0x3b
 1279 00c2 05       		.uleb128 0x5
 1280 00c3 49       		.uleb128 0x49
 1281 00c4 13       		.uleb128 0x13
 1282 00c5 00       		.byte	0
 1283 00c6 00       		.byte	0
 1284 00c7 12       		.uleb128 0x12
 1285 00c8 26       		.uleb128 0x26
 1286 00c9 00       		.byte	0
 1287 00ca 49       		.uleb128 0x49
 1288 00cb 13       		.uleb128 0x13
 1289 00cc 00       		.byte	0
 1290 00cd 00       		.byte	0
 1291 00ce 13       		.uleb128 0x13
 1292 00cf 2E       		.uleb128 0x2e
 1293 00d0 01       		.byte	0x1
 1294 00d1 3F       		.uleb128 0x3f
 1295 00d2 0C       		.uleb128 0xc
 1296 00d3 03       		.uleb128 0x3
 1297 00d4 0E       		.uleb128 0xe
 1298 00d5 3A       		.uleb128 0x3a
 1299 00d6 0B       		.uleb128 0xb
 1300 00d7 3B       		.uleb128 0x3b
 1301 00d8 0B       		.uleb128 0xb
 1302 00d9 27       		.uleb128 0x27
 1303 00da 0C       		.uleb128 0xc
 1304 00db 11       		.uleb128 0x11
 1305 00dc 01       		.uleb128 0x1
ARM GAS  C:\Users\DNIEL~1\AppData\Local\Temp\ccIZFHCV.s 			page 24


 1306 00dd 12       		.uleb128 0x12
 1307 00de 01       		.uleb128 0x1
 1308 00df 40       		.uleb128 0x40
 1309 00e0 0A       		.uleb128 0xa
 1310 00e1 9742     		.uleb128 0x2117
 1311 00e3 0C       		.uleb128 0xc
 1312 00e4 01       		.uleb128 0x1
 1313 00e5 13       		.uleb128 0x13
 1314 00e6 00       		.byte	0
 1315 00e7 00       		.byte	0
 1316 00e8 14       		.uleb128 0x14
 1317 00e9 898201   		.uleb128 0x4109
 1318 00ec 00       		.byte	0
 1319 00ed 11       		.uleb128 0x11
 1320 00ee 01       		.uleb128 0x1
 1321 00ef 9542     		.uleb128 0x2115
 1322 00f1 0C       		.uleb128 0xc
 1323 00f2 31       		.uleb128 0x31
 1324 00f3 13       		.uleb128 0x13
 1325 00f4 00       		.byte	0
 1326 00f5 00       		.byte	0
 1327 00f6 15       		.uleb128 0x15
 1328 00f7 05       		.uleb128 0x5
 1329 00f8 00       		.byte	0
 1330 00f9 03       		.uleb128 0x3
 1331 00fa 0E       		.uleb128 0xe
 1332 00fb 3A       		.uleb128 0x3a
 1333 00fc 0B       		.uleb128 0xb
 1334 00fd 3B       		.uleb128 0x3b
 1335 00fe 0B       		.uleb128 0xb
 1336 00ff 49       		.uleb128 0x49
 1337 0100 13       		.uleb128 0x13
 1338 0101 02       		.uleb128 0x2
 1339 0102 0A       		.uleb128 0xa
 1340 0103 00       		.byte	0
 1341 0104 00       		.byte	0
 1342 0105 16       		.uleb128 0x16
 1343 0106 2E       		.uleb128 0x2e
 1344 0107 01       		.byte	0x1
 1345 0108 3F       		.uleb128 0x3f
 1346 0109 0C       		.uleb128 0xc
 1347 010a 03       		.uleb128 0x3
 1348 010b 0E       		.uleb128 0xe
 1349 010c 3A       		.uleb128 0x3a
 1350 010d 0B       		.uleb128 0xb
 1351 010e 3B       		.uleb128 0x3b
 1352 010f 0B       		.uleb128 0xb
 1353 0110 27       		.uleb128 0x27
 1354 0111 0C       		.uleb128 0xc
 1355 0112 11       		.uleb128 0x11
 1356 0113 01       		.uleb128 0x1
 1357 0114 12       		.uleb128 0x12
 1358 0115 01       		.uleb128 0x1
 1359 0116 40       		.uleb128 0x40
 1360 0117 06       		.uleb128 0x6
 1361 0118 9742     		.uleb128 0x2117
 1362 011a 0C       		.uleb128 0xc
ARM GAS  C:\Users\DNIEL~1\AppData\Local\Temp\ccIZFHCV.s 			page 25


 1363 011b 01       		.uleb128 0x1
 1364 011c 13       		.uleb128 0x13
 1365 011d 00       		.byte	0
 1366 011e 00       		.byte	0
 1367 011f 17       		.uleb128 0x17
 1368 0120 05       		.uleb128 0x5
 1369 0121 00       		.byte	0
 1370 0122 03       		.uleb128 0x3
 1371 0123 0E       		.uleb128 0xe
 1372 0124 3A       		.uleb128 0x3a
 1373 0125 0B       		.uleb128 0xb
 1374 0126 3B       		.uleb128 0x3b
 1375 0127 0B       		.uleb128 0xb
 1376 0128 49       		.uleb128 0x49
 1377 0129 13       		.uleb128 0x13
 1378 012a 02       		.uleb128 0x2
 1379 012b 06       		.uleb128 0x6
 1380 012c 00       		.byte	0
 1381 012d 00       		.byte	0
 1382 012e 18       		.uleb128 0x18
 1383 012f 0B       		.uleb128 0xb
 1384 0130 01       		.byte	0x1
 1385 0131 55       		.uleb128 0x55
 1386 0132 06       		.uleb128 0x6
 1387 0133 01       		.uleb128 0x1
 1388 0134 13       		.uleb128 0x13
 1389 0135 00       		.byte	0
 1390 0136 00       		.byte	0
 1391 0137 19       		.uleb128 0x19
 1392 0138 34       		.uleb128 0x34
 1393 0139 00       		.byte	0
 1394 013a 03       		.uleb128 0x3
 1395 013b 08       		.uleb128 0x8
 1396 013c 3A       		.uleb128 0x3a
 1397 013d 0B       		.uleb128 0xb
 1398 013e 3B       		.uleb128 0x3b
 1399 013f 0B       		.uleb128 0xb
 1400 0140 49       		.uleb128 0x49
 1401 0141 13       		.uleb128 0x13
 1402 0142 02       		.uleb128 0x2
 1403 0143 06       		.uleb128 0x6
 1404 0144 00       		.byte	0
 1405 0145 00       		.byte	0
 1406 0146 1A       		.uleb128 0x1a
 1407 0147 0B       		.uleb128 0xb
 1408 0148 01       		.byte	0x1
 1409 0149 11       		.uleb128 0x11
 1410 014a 01       		.uleb128 0x1
 1411 014b 12       		.uleb128 0x12
 1412 014c 01       		.uleb128 0x1
 1413 014d 01       		.uleb128 0x1
 1414 014e 13       		.uleb128 0x13
 1415 014f 00       		.byte	0
 1416 0150 00       		.byte	0
 1417 0151 1B       		.uleb128 0x1b
 1418 0152 898201   		.uleb128 0x4109
 1419 0155 01       		.byte	0x1
ARM GAS  C:\Users\DNIEL~1\AppData\Local\Temp\ccIZFHCV.s 			page 26


 1420 0156 11       		.uleb128 0x11
 1421 0157 01       		.uleb128 0x1
 1422 0158 31       		.uleb128 0x31
 1423 0159 13       		.uleb128 0x13
 1424 015a 00       		.byte	0
 1425 015b 00       		.byte	0
 1426 015c 1C       		.uleb128 0x1c
 1427 015d 8A8201   		.uleb128 0x410a
 1428 0160 00       		.byte	0
 1429 0161 02       		.uleb128 0x2
 1430 0162 0A       		.uleb128 0xa
 1431 0163 9142     		.uleb128 0x2111
 1432 0165 0A       		.uleb128 0xa
 1433 0166 00       		.byte	0
 1434 0167 00       		.byte	0
 1435 0168 1D       		.uleb128 0x1d
 1436 0169 34       		.uleb128 0x34
 1437 016a 00       		.byte	0
 1438 016b 03       		.uleb128 0x3
 1439 016c 0E       		.uleb128 0xe
 1440 016d 3A       		.uleb128 0x3a
 1441 016e 0B       		.uleb128 0xb
 1442 016f 3B       		.uleb128 0x3b
 1443 0170 05       		.uleb128 0x5
 1444 0171 49       		.uleb128 0x49
 1445 0172 13       		.uleb128 0x13
 1446 0173 3F       		.uleb128 0x3f
 1447 0174 0C       		.uleb128 0xc
 1448 0175 3C       		.uleb128 0x3c
 1449 0176 0C       		.uleb128 0xc
 1450 0177 00       		.byte	0
 1451 0178 00       		.byte	0
 1452 0179 1E       		.uleb128 0x1e
 1453 017a 2E       		.uleb128 0x2e
 1454 017b 00       		.byte	0
 1455 017c 3F       		.uleb128 0x3f
 1456 017d 0C       		.uleb128 0xc
 1457 017e 03       		.uleb128 0x3
 1458 017f 0E       		.uleb128 0xe
 1459 0180 3A       		.uleb128 0x3a
 1460 0181 0B       		.uleb128 0xb
 1461 0182 3B       		.uleb128 0x3b
 1462 0183 05       		.uleb128 0x5
 1463 0184 27       		.uleb128 0x27
 1464 0185 0C       		.uleb128 0xc
 1465 0186 3C       		.uleb128 0x3c
 1466 0187 0C       		.uleb128 0xc
 1467 0188 00       		.byte	0
 1468 0189 00       		.byte	0
 1469 018a 1F       		.uleb128 0x1f
 1470 018b 2E       		.uleb128 0x2e
 1471 018c 01       		.byte	0x1
 1472 018d 3F       		.uleb128 0x3f
 1473 018e 0C       		.uleb128 0xc
 1474 018f 03       		.uleb128 0x3
 1475 0190 0E       		.uleb128 0xe
 1476 0191 3A       		.uleb128 0x3a
ARM GAS  C:\Users\DNIEL~1\AppData\Local\Temp\ccIZFHCV.s 			page 27


 1477 0192 0B       		.uleb128 0xb
 1478 0193 3B       		.uleb128 0x3b
 1479 0194 05       		.uleb128 0x5
 1480 0195 27       		.uleb128 0x27
 1481 0196 0C       		.uleb128 0xc
 1482 0197 3C       		.uleb128 0x3c
 1483 0198 0C       		.uleb128 0xc
 1484 0199 01       		.uleb128 0x1
 1485 019a 13       		.uleb128 0x13
 1486 019b 00       		.byte	0
 1487 019c 00       		.byte	0
 1488 019d 20       		.uleb128 0x20
 1489 019e 2E       		.uleb128 0x2e
 1490 019f 01       		.byte	0x1
 1491 01a0 3F       		.uleb128 0x3f
 1492 01a1 0C       		.uleb128 0xc
 1493 01a2 03       		.uleb128 0x3
 1494 01a3 0E       		.uleb128 0xe
 1495 01a4 3A       		.uleb128 0x3a
 1496 01a5 0B       		.uleb128 0xb
 1497 01a6 3B       		.uleb128 0x3b
 1498 01a7 05       		.uleb128 0x5
 1499 01a8 27       		.uleb128 0x27
 1500 01a9 0C       		.uleb128 0xc
 1501 01aa 3C       		.uleb128 0x3c
 1502 01ab 0C       		.uleb128 0xc
 1503 01ac 00       		.byte	0
 1504 01ad 00       		.byte	0
 1505 01ae 00       		.byte	0
 1506              		.section	.debug_loc,"",%progbits
 1507              	.Ldebug_loc0:
 1508              	.LLST0:
 1509 0000 00000000 		.4byte	.LFB120
 1510 0004 02000000 		.4byte	.LCFI0
 1511 0008 0200     		.2byte	0x2
 1512 000a 7D       		.byte	0x7d
 1513 000b 00       		.sleb128 0
 1514 000c 02000000 		.4byte	.LCFI0
 1515 0010 1C000000 		.4byte	.LFE120
 1516 0014 0200     		.2byte	0x2
 1517 0016 7D       		.byte	0x7d
 1518 0017 08       		.sleb128 8
 1519 0018 00000000 		.4byte	0
 1520 001c 00000000 		.4byte	0
 1521              	.LLST1:
 1522 0020 00000000 		.4byte	.LVL2
 1523 0024 0F000000 		.4byte	.LVL5-1
 1524 0028 0100     		.2byte	0x1
 1525 002a 50       		.byte	0x50
 1526 002b 0F000000 		.4byte	.LVL5-1
 1527 002f 1C000000 		.4byte	.LFE120
 1528 0033 0100     		.2byte	0x1
 1529 0035 54       		.byte	0x54
 1530 0036 00000000 		.4byte	0
 1531 003a 00000000 		.4byte	0
 1532              	.LLST2:
 1533 003e 00000000 		.4byte	.LVL2
ARM GAS  C:\Users\DNIEL~1\AppData\Local\Temp\ccIZFHCV.s 			page 28


 1534 0042 0F000000 		.4byte	.LVL5-1
 1535 0046 0100     		.2byte	0x1
 1536 0048 51       		.byte	0x51
 1537 0049 0F000000 		.4byte	.LVL5-1
 1538 004d 1C000000 		.4byte	.LFE120
 1539 0051 0400     		.2byte	0x4
 1540 0053 F3       		.byte	0xf3
 1541 0054 01       		.uleb128 0x1
 1542 0055 51       		.byte	0x51
 1543 0056 9F       		.byte	0x9f
 1544 0057 00000000 		.4byte	0
 1545 005b 00000000 		.4byte	0
 1546              	.LLST3:
 1547 005f 0A000000 		.4byte	.LVL4
 1548 0063 0F000000 		.4byte	.LVL5-1
 1549 0067 0100     		.2byte	0x1
 1550 0069 53       		.byte	0x53
 1551 006a 00000000 		.4byte	0
 1552 006e 00000000 		.4byte	0
 1553              	.LLST4:
 1554 0072 1A000000 		.4byte	.LVL7
 1555 0076 1C000000 		.4byte	.LFE120
 1556 007a 0100     		.2byte	0x1
 1557 007c 53       		.byte	0x53
 1558 007d 00000000 		.4byte	0
 1559 0081 00000000 		.4byte	0
 1560              	.LLST5:
 1561 0085 00000000 		.4byte	.LFB121
 1562 0089 02000000 		.4byte	.LCFI1
 1563 008d 0200     		.2byte	0x2
 1564 008f 7D       		.byte	0x7d
 1565 0090 00       		.sleb128 0
 1566 0091 02000000 		.4byte	.LCFI1
 1567 0095 1A000000 		.4byte	.LFE121
 1568 0099 0200     		.2byte	0x2
 1569 009b 7D       		.byte	0x7d
 1570 009c 08       		.sleb128 8
 1571 009d 00000000 		.4byte	0
 1572 00a1 00000000 		.4byte	0
 1573              	.LLST6:
 1574 00a5 00000000 		.4byte	.LVL8
 1575 00a9 0D000000 		.4byte	.LVL11-1
 1576 00ad 0100     		.2byte	0x1
 1577 00af 50       		.byte	0x50
 1578 00b0 0D000000 		.4byte	.LVL11-1
 1579 00b4 1A000000 		.4byte	.LFE121
 1580 00b8 0100     		.2byte	0x1
 1581 00ba 54       		.byte	0x54
 1582 00bb 00000000 		.4byte	0
 1583 00bf 00000000 		.4byte	0
 1584              	.LLST7:
 1585 00c3 0A000000 		.4byte	.LVL10
 1586 00c7 0D000000 		.4byte	.LVL11-1
 1587 00cb 0100     		.2byte	0x1
 1588 00cd 53       		.byte	0x53
 1589 00ce 00000000 		.4byte	0
 1590 00d2 00000000 		.4byte	0
ARM GAS  C:\Users\DNIEL~1\AppData\Local\Temp\ccIZFHCV.s 			page 29


 1591              	.LLST8:
 1592 00d6 18000000 		.4byte	.LVL13
 1593 00da 1A000000 		.4byte	.LFE121
 1594 00de 0100     		.2byte	0x1
 1595 00e0 53       		.byte	0x53
 1596 00e1 00000000 		.4byte	0
 1597 00e5 00000000 		.4byte	0
 1598              	.LLST9:
 1599 00e9 00000000 		.4byte	.LFB122
 1600 00ed 02000000 		.4byte	.LCFI2
 1601 00f1 0200     		.2byte	0x2
 1602 00f3 7D       		.byte	0x7d
 1603 00f4 00       		.sleb128 0
 1604 00f5 02000000 		.4byte	.LCFI2
 1605 00f9 1A000000 		.4byte	.LFE122
 1606 00fd 0200     		.2byte	0x2
 1607 00ff 7D       		.byte	0x7d
 1608 0100 08       		.sleb128 8
 1609 0101 00000000 		.4byte	0
 1610 0105 00000000 		.4byte	0
 1611              	.LLST10:
 1612 0109 00000000 		.4byte	.LVL14
 1613 010d 0D000000 		.4byte	.LVL17-1
 1614 0111 0100     		.2byte	0x1
 1615 0113 50       		.byte	0x50
 1616 0114 0D000000 		.4byte	.LVL17-1
 1617 0118 1A000000 		.4byte	.LFE122
 1618 011c 0100     		.2byte	0x1
 1619 011e 54       		.byte	0x54
 1620 011f 00000000 		.4byte	0
 1621 0123 00000000 		.4byte	0
 1622              	.LLST11:
 1623 0127 0A000000 		.4byte	.LVL16
 1624 012b 0D000000 		.4byte	.LVL17-1
 1625 012f 0100     		.2byte	0x1
 1626 0131 53       		.byte	0x53
 1627 0132 00000000 		.4byte	0
 1628 0136 00000000 		.4byte	0
 1629              	.LLST12:
 1630 013a 18000000 		.4byte	.LVL19
 1631 013e 1A000000 		.4byte	.LFE122
 1632 0142 0100     		.2byte	0x1
 1633 0144 53       		.byte	0x53
 1634 0145 00000000 		.4byte	0
 1635 0149 00000000 		.4byte	0
 1636              	.LLST13:
 1637 014d 00000000 		.4byte	.LFB123
 1638 0151 02000000 		.4byte	.LCFI3
 1639 0155 0200     		.2byte	0x2
 1640 0157 7D       		.byte	0x7d
 1641 0158 00       		.sleb128 0
 1642 0159 02000000 		.4byte	.LCFI3
 1643 015d 1A000000 		.4byte	.LFE123
 1644 0161 0200     		.2byte	0x2
 1645 0163 7D       		.byte	0x7d
 1646 0164 08       		.sleb128 8
 1647 0165 00000000 		.4byte	0
ARM GAS  C:\Users\DNIEL~1\AppData\Local\Temp\ccIZFHCV.s 			page 30


 1648 0169 00000000 		.4byte	0
 1649              	.LLST14:
 1650 016d 00000000 		.4byte	.LVL20
 1651 0171 0D000000 		.4byte	.LVL23-1
 1652 0175 0100     		.2byte	0x1
 1653 0177 50       		.byte	0x50
 1654 0178 0D000000 		.4byte	.LVL23-1
 1655 017c 1A000000 		.4byte	.LFE123
 1656 0180 0100     		.2byte	0x1
 1657 0182 54       		.byte	0x54
 1658 0183 00000000 		.4byte	0
 1659 0187 00000000 		.4byte	0
 1660              	.LLST15:
 1661 018b 0A000000 		.4byte	.LVL22
 1662 018f 0D000000 		.4byte	.LVL23-1
 1663 0193 0100     		.2byte	0x1
 1664 0195 53       		.byte	0x53
 1665 0196 00000000 		.4byte	0
 1666 019a 00000000 		.4byte	0
 1667              	.LLST16:
 1668 019e 18000000 		.4byte	.LVL25
 1669 01a2 1A000000 		.4byte	.LFE123
 1670 01a6 0100     		.2byte	0x1
 1671 01a8 53       		.byte	0x53
 1672 01a9 00000000 		.4byte	0
 1673 01ad 00000000 		.4byte	0
 1674              		.section	.debug_aranges,"",%progbits
 1675 0000 44000000 		.4byte	0x44
 1676 0004 0200     		.2byte	0x2
 1677 0006 00000000 		.4byte	.Ldebug_info0
 1678 000a 04       		.byte	0x4
 1679 000b 00       		.byte	0
 1680 000c 0000     		.2byte	0
 1681 000e 0000     		.2byte	0
 1682 0010 00000000 		.4byte	.LFB118
 1683 0014 04000000 		.4byte	.LFE118-.LFB118
 1684 0018 00000000 		.4byte	.LFB119
 1685 001c 0A000000 		.4byte	.LFE119-.LFB119
 1686 0020 00000000 		.4byte	.LFB120
 1687 0024 1C000000 		.4byte	.LFE120-.LFB120
 1688 0028 00000000 		.4byte	.LFB121
 1689 002c 1A000000 		.4byte	.LFE121-.LFB121
 1690 0030 00000000 		.4byte	.LFB122
 1691 0034 1A000000 		.4byte	.LFE122-.LFB122
 1692 0038 00000000 		.4byte	.LFB123
 1693 003c 1A000000 		.4byte	.LFE123-.LFB123
 1694 0040 00000000 		.4byte	0
 1695 0044 00000000 		.4byte	0
 1696              		.section	.debug_ranges,"",%progbits
 1697              	.Ldebug_ranges0:
 1698 0000 02000000 		.4byte	.LBB2
 1699 0004 04000000 		.4byte	.LBE2
 1700 0008 06000000 		.4byte	.LBB3
 1701 000c 0A000000 		.4byte	.LBE3
 1702 0010 00000000 		.4byte	0
 1703 0014 00000000 		.4byte	0
 1704 0018 02000000 		.4byte	.LBB5
ARM GAS  C:\Users\DNIEL~1\AppData\Local\Temp\ccIZFHCV.s 			page 31


 1705 001c 04000000 		.4byte	.LBE5
 1706 0020 06000000 		.4byte	.LBB6
 1707 0024 0A000000 		.4byte	.LBE6
 1708 0028 00000000 		.4byte	0
 1709 002c 00000000 		.4byte	0
 1710 0030 02000000 		.4byte	.LBB8
 1711 0034 04000000 		.4byte	.LBE8
 1712 0038 06000000 		.4byte	.LBB9
 1713 003c 0A000000 		.4byte	.LBE9
 1714 0040 00000000 		.4byte	0
 1715 0044 00000000 		.4byte	0
 1716 0048 02000000 		.4byte	.LBB11
 1717 004c 04000000 		.4byte	.LBE11
 1718 0050 06000000 		.4byte	.LBB12
 1719 0054 0A000000 		.4byte	.LBE12
 1720 0058 00000000 		.4byte	0
 1721 005c 00000000 		.4byte	0
 1722 0060 00000000 		.4byte	.LFB118
 1723 0064 04000000 		.4byte	.LFE118
 1724 0068 00000000 		.4byte	.LFB119
 1725 006c 0A000000 		.4byte	.LFE119
 1726 0070 00000000 		.4byte	.LFB120
 1727 0074 1C000000 		.4byte	.LFE120
 1728 0078 00000000 		.4byte	.LFB121
 1729 007c 1A000000 		.4byte	.LFE121
 1730 0080 00000000 		.4byte	.LFB122
 1731 0084 1A000000 		.4byte	.LFE122
 1732 0088 00000000 		.4byte	.LFB123
 1733 008c 1A000000 		.4byte	.LFE123
 1734 0090 00000000 		.4byte	0
 1735 0094 00000000 		.4byte	0
 1736              		.section	.debug_line,"",%progbits
 1737              	.Ldebug_line0:
 1738 0000 FC010000 		.section	.debug_str,"MS",%progbits,1
 1738      02007701 
 1738      00000201 
 1738      FB0E0D00 
 1738      01010101 
 1739              	.LASF58:
 1740 0000 69637553 		.ascii	"icuStop\000"
 1740      746F7000 
 1741              	.LASF62:
 1742 0008 6963755F 		.ascii	"icu_lld_stop\000"
 1742      6C6C645F 
 1742      73746F70 
 1742      00
 1743              	.LASF32:
 1744 0015 43434552 		.ascii	"CCER\000"
 1744      00
 1745              	.LASF66:
 1746 001a 433A5C55 		.ascii	"C:\\Users\\D\341niel\\git\\Smarty\\smarty\\firmware"
 1746      73657273 
 1746      5C44E16E 
 1746      69656C5C 
 1746      6769745C 
 1747 0044 00       		.ascii	"\000"
 1748              	.LASF15:
ARM GAS  C:\Users\DNIEL~1\AppData\Local\Temp\ccIZFHCV.s 			page 32


 1749 0045 4943555F 		.ascii	"ICU_STOP\000"
 1749      53544F50 
 1749      00
 1750              	.LASF45:
 1751 004e 69637563 		.ascii	"icuchannel_t\000"
 1751      68616E6E 
 1751      656C5F74 
 1751      00
 1752              	.LASF61:
 1753 005b 6963755F 		.ascii	"icu_lld_start\000"
 1753      6C6C645F 
 1753      73746172 
 1753      7400
 1754              	.LASF34:
 1755 0069 444D4152 		.ascii	"DMAR\000"
 1755      00
 1756              	.LASF22:
 1757 006e 73746174 		.ascii	"state\000"
 1757      6500
 1758              	.LASF31:
 1759 0074 43434D52 		.ascii	"CCMR2\000"
 1759      3200
 1760              	.LASF35:
 1761 007a 43434D52 		.ascii	"CCMR3\000"
 1761      3300
 1762              	.LASF3:
 1763 0080 73686F72 		.ascii	"short int\000"
 1763      7420696E 
 1763      7400
 1764              	.LASF57:
 1765 008a 69637570 		.ascii	"icup\000"
 1765      00
 1766              	.LASF12:
 1767 008f 73697A65 		.ascii	"sizetype\000"
 1767      74797065 
 1767      00
 1768              	.LASF64:
 1769 0098 474E5520 		.ascii	"GNU C 4.7.4 20140401 (release) [ARM/embedded-4_7-br"
 1769      4320342E 
 1769      372E3420 
 1769      32303134 
 1769      30343031 
 1770 00cb 616E6368 		.ascii	"anch revision 209195]\000"
 1770      20726576 
 1770      6973696F 
 1770      6E203230 
 1770      39313935 
 1771              	.LASF63:
 1772 00e1 6963755F 		.ascii	"icu_lld_enable\000"
 1772      6C6C645F 
 1772      656E6162 
 1772      6C6500
 1773              	.LASF46:
 1774 00f0 6D6F6465 		.ascii	"mode\000"
 1774      00
 1775              	.LASF69:
 1776 00f5 6963755F 		.ascii	"icu_lld_disable\000"
ARM GAS  C:\Users\DNIEL~1\AppData\Local\Temp\ccIZFHCV.s 			page 33


 1776      6C6C645F 
 1776      64697361 
 1776      626C6500 
 1777              	.LASF23:
 1778 0105 636F6E66 		.ascii	"config\000"
 1778      696700
 1779              	.LASF43:
 1780 010c 4943555F 		.ascii	"ICU_CHANNEL_1\000"
 1780      4348414E 
 1780      4E454C5F 
 1780      3100
 1781              	.LASF44:
 1782 011a 4943555F 		.ascii	"ICU_CHANNEL_2\000"
 1782      4348414E 
 1782      4E454C5F 
 1782      3200
 1783              	.LASF54:
 1784 0128 69637549 		.ascii	"icuInit\000"
 1784      6E697400 
 1785              	.LASF48:
 1786 0130 77696474 		.ascii	"width_cb\000"
 1786      685F6362 
 1786      00
 1787              	.LASF18:
 1788 0139 4943555F 		.ascii	"ICU_ACTIVE\000"
 1788      41435449 
 1788      564500
 1789              	.LASF9:
 1790 0144 6C6F6E67 		.ascii	"long long int\000"
 1790      206C6F6E 
 1790      6720696E 
 1790      7400
 1791              	.LASF10:
 1792 0152 6C6F6E67 		.ascii	"long long unsigned int\000"
 1792      206C6F6E 
 1792      6720756E 
 1792      7369676E 
 1792      65642069 
 1793              	.LASF41:
 1794 0169 6963756D 		.ascii	"icumode_t\000"
 1794      6F64655F 
 1794      7400
 1795              	.LASF25:
 1796 0173 77636372 		.ascii	"wccrp\000"
 1796      7000
 1797              	.LASF5:
 1798 0179 6C6F6E67 		.ascii	"long int\000"
 1798      20696E74 
 1798      00
 1799              	.LASF36:
 1800 0182 43435235 		.ascii	"CCR5\000"
 1800      00
 1801              	.LASF37:
 1802 0187 43435236 		.ascii	"CCR6\000"
 1802      00
 1803              	.LASF26:
 1804 018c 70636372 		.ascii	"pccrp\000"
ARM GAS  C:\Users\DNIEL~1\AppData\Local\Temp\ccIZFHCV.s 			page 34


 1804      7000
 1805              	.LASF30:
 1806 0192 43434D52 		.ascii	"CCMR1\000"
 1806      3100
 1807              	.LASF19:
 1808 0198 4943555F 		.ascii	"ICU_IDLE\000"
 1808      49444C45 
 1808      00
 1809              	.LASF28:
 1810 01a1 534D4352 		.ascii	"SMCR\000"
 1810      00
 1811              	.LASF2:
 1812 01a6 756E7369 		.ascii	"unsigned char\000"
 1812      676E6564 
 1812      20636861 
 1812      7200
 1813              	.LASF53:
 1814 01b4 49435543 		.ascii	"ICUConfig\000"
 1814      6F6E6669 
 1814      6700
 1815              	.LASF56:
 1816 01be 69637553 		.ascii	"icuStart\000"
 1816      74617274 
 1816      00
 1817              	.LASF59:
 1818 01c7 69637545 		.ascii	"icuEnable\000"
 1818      6E61626C 
 1818      6500
 1819              	.LASF1:
 1820 01d1 7369676E 		.ascii	"signed char\000"
 1820      65642063 
 1820      68617200 
 1821              	.LASF68:
 1822 01dd 6963755F 		.ascii	"icu_lld_init\000"
 1822      6C6C645F 
 1822      696E6974 
 1822      00
 1823              	.LASF7:
 1824 01ea 75696E74 		.ascii	"uint32_t\000"
 1824      33325F74 
 1824      00
 1825              	.LASF0:
 1826 01f3 756E7369 		.ascii	"unsigned int\000"
 1826      676E6564 
 1826      20696E74 
 1826      00
 1827              	.LASF29:
 1828 0200 44494552 		.ascii	"DIER\000"
 1828      00
 1829              	.LASF42:
 1830 0205 69637566 		.ascii	"icufreq_t\000"
 1830      7265715F 
 1830      7400
 1831              	.LASF11:
 1832 020f 5F426F6F 		.ascii	"_Bool\000"
 1832      6C00
 1833              	.LASF4:
ARM GAS  C:\Users\DNIEL~1\AppData\Local\Temp\ccIZFHCV.s 			page 35


 1834 0215 73686F72 		.ascii	"short unsigned int\000"
 1834      7420756E 
 1834      7369676E 
 1834      65642069 
 1834      6E7400
 1835              	.LASF13:
 1836 0228 63686172 		.ascii	"char\000"
 1836      00
 1837              	.LASF27:
 1838 022d 69637563 		.ascii	"icucallback_t\000"
 1838      616C6C62 
 1838      61636B5F 
 1838      7400
 1839              	.LASF38:
 1840 023b 73746D33 		.ascii	"stm32_tim_t\000"
 1840      325F7469 
 1840      6D5F7400 
 1841              	.LASF49:
 1842 0247 70657269 		.ascii	"period_cb\000"
 1842      6F645F63 
 1842      6200
 1843              	.LASF33:
 1844 0251 42445452 		.ascii	"BDTR\000"
 1844      00
 1845              	.LASF6:
 1846 0256 696E7433 		.ascii	"int32_t\000"
 1846      325F7400 
 1847              	.LASF40:
 1848 025e 4943555F 		.ascii	"ICU_INPUT_ACTIVE_LOW\000"
 1848      494E5055 
 1848      545F4143 
 1848      54495645 
 1848      5F4C4F57 
 1849              	.LASF51:
 1850 0273 6368616E 		.ascii	"channel\000"
 1850      6E656C00 
 1851              	.LASF60:
 1852 027b 69637544 		.ascii	"icuDisable\000"
 1852      69736162 
 1852      6C6500
 1853              	.LASF14:
 1854 0286 4943555F 		.ascii	"ICU_UNINIT\000"
 1854      554E494E 
 1854      495400
 1855              	.LASF39:
 1856 0291 4943555F 		.ascii	"ICU_INPUT_ACTIVE_HIGH\000"
 1856      494E5055 
 1856      545F4143 
 1856      54495645 
 1856      5F484947 
 1857              	.LASF8:
 1858 02a7 6C6F6E67 		.ascii	"long unsigned int\000"
 1858      20756E73 
 1858      69676E65 
 1858      6420696E 
 1858      7400
 1859              	.LASF24:
ARM GAS  C:\Users\DNIEL~1\AppData\Local\Temp\ccIZFHCV.s 			page 36


 1860 02b9 636C6F63 		.ascii	"clock\000"
 1860      6B00
 1861              	.LASF50:
 1862 02bf 6F766572 		.ascii	"overflow_cb\000"
 1862      666C6F77 
 1862      5F636200 
 1863              	.LASF52:
 1864 02cb 64696572 		.ascii	"dier\000"
 1864      00
 1865              	.LASF21:
 1866 02d0 49435544 		.ascii	"ICUDriver\000"
 1866      72697665 
 1866      7200
 1867              	.LASF47:
 1868 02da 66726571 		.ascii	"frequency\000"
 1868      75656E63 
 1868      7900
 1869              	.LASF16:
 1870 02e4 4943555F 		.ascii	"ICU_READY\000"
 1870      52454144 
 1870      5900
 1871              	.LASF55:
 1872 02ee 6963754F 		.ascii	"icuObjectInit\000"
 1872      626A6563 
 1872      74496E69 
 1872      7400
 1873              	.LASF67:
 1874 02fc 49544D5F 		.ascii	"ITM_RxBuffer\000"
 1874      52784275 
 1874      66666572 
 1874      00
 1875              	.LASF65:
 1876 0309 2E2E2F2E 		.ascii	"../../../ChibiOS/os/hal/src/icu.c\000"
 1876      2E2F2E2E 
 1876      2F436869 
 1876      62694F53 
 1876      2F6F732F 
 1877              	.LASF20:
 1878 032b 69637573 		.ascii	"icustate_t\000"
 1878      74617465 
 1878      5F7400
 1879              	.LASF17:
 1880 0336 4943555F 		.ascii	"ICU_WAITING\000"
 1880      57414954 
 1880      494E4700 
 1881              		.ident	"GCC: (GNU Tools for ARM Embedded Processors) 4.7.4 20140401 (release) [ARM/embedded-4_7-br
ARM GAS  C:\Users\DNIEL~1\AppData\Local\Temp\ccIZFHCV.s 			page 37


DEFINED SYMBOLS
                            *ABS*:00000000 icu.c
C:\Users\DNIEL~1\AppData\Local\Temp\ccIZFHCV.s:19     .text.icuInit:00000000 $t
C:\Users\DNIEL~1\AppData\Local\Temp\ccIZFHCV.s:25     .text.icuInit:00000000 icuInit
C:\Users\DNIEL~1\AppData\Local\Temp\ccIZFHCV.s:41     .text.icuObjectInit:00000000 $t
C:\Users\DNIEL~1\AppData\Local\Temp\ccIZFHCV.s:47     .text.icuObjectInit:00000000 icuObjectInit
C:\Users\DNIEL~1\AppData\Local\Temp\ccIZFHCV.s:68     .text.icuStart:00000000 $t
C:\Users\DNIEL~1\AppData\Local\Temp\ccIZFHCV.s:74     .text.icuStart:00000000 icuStart
C:\Users\DNIEL~1\AppData\Local\Temp\ccIZFHCV.s:124    .text.icuStop:00000000 $t
C:\Users\DNIEL~1\AppData\Local\Temp\ccIZFHCV.s:130    .text.icuStop:00000000 icuStop
C:\Users\DNIEL~1\AppData\Local\Temp\ccIZFHCV.s:178    .text.icuEnable:00000000 $t
C:\Users\DNIEL~1\AppData\Local\Temp\ccIZFHCV.s:184    .text.icuEnable:00000000 icuEnable
C:\Users\DNIEL~1\AppData\Local\Temp\ccIZFHCV.s:232    .text.icuDisable:00000000 $t
C:\Users\DNIEL~1\AppData\Local\Temp\ccIZFHCV.s:238    .text.icuDisable:00000000 icuDisable
                     .debug_frame:00000010 $d

UNDEFINED SYMBOLS
icu_lld_init
icu_lld_start
icu_lld_stop
icu_lld_enable
icu_lld_disable
