ARM GAS  C:\Users\DNIEL~1\AppData\Local\Temp\ccv8Wdky.s 			page 1


   1              		.syntax unified
   2              		.cpu cortex-m4
   3              		.fpu softvfp
   4              		.eabi_attribute 20, 1
   5              		.eabi_attribute 21, 1
   6              		.eabi_attribute 23, 3
   7              		.eabi_attribute 24, 1
   8              		.eabi_attribute 25, 1
   9              		.eabi_attribute 26, 1
  10              		.eabi_attribute 30, 2
  11              		.eabi_attribute 18, 4
  12              		.thumb
  13              		.file	"icu.c"
  20 0000 F5010000 		.text
  20      02006C01 
  20      00000201 
  20      FB0E0D00 
  20      01010101 
  21              	.Ltext0:
  22              		.cfi_sections	.debug_frame
  23              		.section	.text.icuInit,"ax",%progbits
  24              		.align	2
  25              		.p2align 4,,15
  26              		.global	icuInit
  27              		.thumb
  28              		.thumb_func
  29              		.type	icuInit, %function
  30              	icuInit:
  31              	.LFB118:
  32              		.file 1 "../../../ChibiOS/os/hal/src/icu.c"
  33              		.loc 1 61 0
  34              		.cfi_startproc
  35              		@ args = 0, pretend = 0, frame = 0
  36              		@ frame_needed = 0, uses_anonymous_args = 0
  37              		@ link register save eliminated.
  38              		.loc 1 64 0
  39              		.loc 1 63 0
  40 0000 FFF7FEBF 		b	icu_lld_init
  41              		.cfi_endproc
  42              	.LFE118:
  43              		.size	icuInit, .-icuInit
  44 0004 AFF30080 		.section	.text.icuObjectInit,"ax",%progbits
  44      AFF30080 
  44      AFF30080 
  45              		.align	2
  46              		.p2align 4,,15
  47              		.global	icuObjectInit
  48              		.thumb
  49              		.thumb_func
  50              		.type	icuObjectInit, %function
  51              	icuObjectInit:
ARM GAS  C:\Users\DNIEL~1\AppData\Local\Temp\ccv8Wdky.s 			page 2


  52              	.LFB119:
  53              		.loc 1 73 0
  54              		.cfi_startproc
  55              		@ args = 0, pretend = 0, frame = 0
  56              		@ frame_needed = 0, uses_anonymous_args = 0
  57              		@ link register save eliminated.
  58              	.LVL0:
  59              		.loc 1 75 0
  60 0000 0121     		movs	r1, #1
  61              		.loc 1 76 0
  62 0002 0023     		movs	r3, #0
  63              		.loc 1 75 0
  64 0004 0170     		strb	r1, [r0, #0]
  65              		.loc 1 76 0
  66 0006 4360     		str	r3, [r0, #4]
  67              		.loc 1 77 0
  68 0008 7047     		bx	lr
  69              		.cfi_endproc
  70              	.LFE119:
  71              		.size	icuObjectInit, .-icuObjectInit
  72 000a 00BFAFF3 		.section	.text.icuStart,"ax",%progbits
  72      0080
  73              		.align	2
  74              		.p2align 4,,15
  75              		.global	icuStart
  76              		.thumb
  77              		.thumb_func
  78              		.type	icuStart, %function
  79              	icuStart:
  80              	.LFB120:
  81              		.loc 1 87 0
  82              		.cfi_startproc
  83              		@ args = 0, pretend = 0, frame = 0
  84              		@ frame_needed = 0, uses_anonymous_args = 0
  85              	.LVL1:
  86 0000 10B5     		push	{r4, lr}
  87              	.LCFI0:
  88              		.cfi_def_cfa_offset 8
  89              	.LBB2:
  90              		.loc 1 91 0
  91 0002 2023     		movs	r3, #32
  92              	.LVL2:
  93              	.LBE2:
  94              		.loc 1 87 0
  95 0004 0446     		mov	r4, r0
  96              		.cfi_offset 14, -4
  97              		.cfi_offset 4, -8
  98              	.LBB3:
  99              		.loc 1 91 0
 100              	@ 91 "../../../ChibiOS/os/hal/src/icu.c" 1
 101 0006 83F31188 		msr     BASEPRI, r3
 102              	@ 0 "" 2
 103              	.LVL3:
 104              		.thumb
 105              	.LBE3:
 106              		.loc 1 94 0
 107 000a 4160     		str	r1, [r0, #4]
ARM GAS  C:\Users\DNIEL~1\AppData\Local\Temp\ccv8Wdky.s 			page 3


 108              		.loc 1 95 0
 109 000c FFF7FEFF 		bl	icu_lld_start
 110              	.LVL4:
 111              		.loc 1 96 0
 112 0010 0223     		movs	r3, #2
 113 0012 2370     		strb	r3, [r4, #0]
 114              	.LBB4:
 115              		.loc 1 97 0
 116 0014 0023     		movs	r3, #0
 117              	.LVL5:
 118              	@ 97 "../../../ChibiOS/os/hal/src/icu.c" 1
 119 0016 83F31188 		msr     BASEPRI, r3
 120              	@ 0 "" 2
 121              	.LVL6:
 122              		.thumb
 123              	.LBE4:
 124              		.loc 1 98 0
 125 001a 10BD     		pop	{r4, pc}
 126              		.cfi_endproc
 127              	.LFE120:
 128              		.size	icuStart, .-icuStart
 129 001c AFF30080 		.section	.text.icuStop,"ax",%progbits
 130              		.align	2
 131              		.p2align 4,,15
 132              		.global	icuStop
 133              		.thumb
 134              		.thumb_func
 135              		.type	icuStop, %function
 136              	icuStop:
 137              	.LFB121:
 138              		.loc 1 107 0
 139              		.cfi_startproc
 140              		@ args = 0, pretend = 0, frame = 0
 141              		@ frame_needed = 0, uses_anonymous_args = 0
 142              	.LVL7:
 143 0000 10B5     		push	{r4, lr}
 144              	.LCFI1:
 145              		.cfi_def_cfa_offset 8
 146              	.LBB5:
 147              		.loc 1 111 0
 148 0002 2023     		movs	r3, #32
 149              	.LVL8:
 150              	.LBE5:
 151              		.loc 1 107 0
 152 0004 0446     		mov	r4, r0
 153              		.cfi_offset 14, -4
 154              		.cfi_offset 4, -8
 155              	.LBB6:
 156              		.loc 1 111 0
 157              	@ 111 "../../../ChibiOS/os/hal/src/icu.c" 1
 158 0006 83F31188 		msr     BASEPRI, r3
 159              	@ 0 "" 2
 160              	.LVL9:
 161              		.thumb
 162              	.LBE6:
 163              		.loc 1 114 0
 164 000a FFF7FEFF 		bl	icu_lld_stop
ARM GAS  C:\Users\DNIEL~1\AppData\Local\Temp\ccv8Wdky.s 			page 4


 165              	.LVL10:
 166              		.loc 1 115 0
 167 000e 0123     		movs	r3, #1
 168 0010 2370     		strb	r3, [r4, #0]
 169              	.LBB7:
 170              		.loc 1 116 0
 171 0012 0023     		movs	r3, #0
 172              	.LVL11:
 173              	@ 116 "../../../ChibiOS/os/hal/src/icu.c" 1
 174 0014 83F31188 		msr     BASEPRI, r3
 175              	@ 0 "" 2
 176              	.LVL12:
 177              		.thumb
 178              	.LBE7:
 179              		.loc 1 117 0
 180 0018 10BD     		pop	{r4, pc}
 181              		.cfi_endproc
 182              	.LFE121:
 183              		.size	icuStop, .-icuStop
 184 001a 00BFAFF3 		.section	.text.icuEnable,"ax",%progbits
 184      0080
 185              		.align	2
 186              		.p2align 4,,15
 187              		.global	icuEnable
 188              		.thumb
 189              		.thumb_func
 190              		.type	icuEnable, %function
 191              	icuEnable:
 192              	.LFB122:
 193              		.loc 1 126 0
 194              		.cfi_startproc
 195              		@ args = 0, pretend = 0, frame = 0
 196              		@ frame_needed = 0, uses_anonymous_args = 0
 197              	.LVL13:
 198 0000 10B5     		push	{r4, lr}
 199              	.LCFI2:
 200              		.cfi_def_cfa_offset 8
 201              	.LBB8:
 202              		.loc 1 130 0
 203 0002 2023     		movs	r3, #32
 204              	.LVL14:
 205              	.LBE8:
 206              		.loc 1 126 0
 207 0004 0446     		mov	r4, r0
 208              		.cfi_offset 14, -4
 209              		.cfi_offset 4, -8
 210              	.LBB9:
 211              		.loc 1 130 0
 212              	@ 130 "../../../ChibiOS/os/hal/src/icu.c" 1
 213 0006 83F31188 		msr     BASEPRI, r3
 214              	@ 0 "" 2
 215              	.LVL15:
 216              		.thumb
 217              	.LBE9:
 218              		.loc 1 132 0
 219 000a FFF7FEFF 		bl	icu_lld_enable
 220              	.LVL16:
ARM GAS  C:\Users\DNIEL~1\AppData\Local\Temp\ccv8Wdky.s 			page 5


 221              		.loc 1 133 0
 222 000e 0323     		movs	r3, #3
 223 0010 2370     		strb	r3, [r4, #0]
 224              	.LBB10:
 225              		.loc 1 134 0
 226 0012 0023     		movs	r3, #0
 227              	.LVL17:
 228              	@ 134 "../../../ChibiOS/os/hal/src/icu.c" 1
 229 0014 83F31188 		msr     BASEPRI, r3
 230              	@ 0 "" 2
 231              	.LVL18:
 232              		.thumb
 233              	.LBE10:
 234              		.loc 1 135 0
 235 0018 10BD     		pop	{r4, pc}
 236              		.cfi_endproc
 237              	.LFE122:
 238              		.size	icuEnable, .-icuEnable
 239 001a 00BFAFF3 		.section	.text.icuDisable,"ax",%progbits
 239      0080
 240              		.align	2
 241              		.p2align 4,,15
 242              		.global	icuDisable
 243              		.thumb
 244              		.thumb_func
 245              		.type	icuDisable, %function
 246              	icuDisable:
 247              	.LFB123:
 248              		.loc 1 144 0
 249              		.cfi_startproc
 250              		@ args = 0, pretend = 0, frame = 0
 251              		@ frame_needed = 0, uses_anonymous_args = 0
 252              	.LVL19:
 253 0000 10B5     		push	{r4, lr}
 254              	.LCFI3:
 255              		.cfi_def_cfa_offset 8
 256              	.LBB11:
 257              		.loc 1 148 0
 258 0002 2023     		movs	r3, #32
 259              	.LVL20:
 260              	.LBE11:
 261              		.loc 1 144 0
 262 0004 0446     		mov	r4, r0
 263              		.cfi_offset 14, -4
 264              		.cfi_offset 4, -8
 265              	.LBB12:
 266              		.loc 1 148 0
 267              	@ 148 "../../../ChibiOS/os/hal/src/icu.c" 1
 268 0006 83F31188 		msr     BASEPRI, r3
 269              	@ 0 "" 2
 270              	.LVL21:
 271              		.thumb
 272              	.LBE12:
 273              		.loc 1 152 0
 274 000a FFF7FEFF 		bl	icu_lld_disable
 275              	.LVL22:
 276              		.loc 1 153 0
ARM GAS  C:\Users\DNIEL~1\AppData\Local\Temp\ccv8Wdky.s 			page 6


 277 000e 0223     		movs	r3, #2
 278 0010 2370     		strb	r3, [r4, #0]
 279              	.LBB13:
 280              		.loc 1 154 0
 281 0012 0023     		movs	r3, #0
 282              	.LVL23:
 283              	@ 154 "../../../ChibiOS/os/hal/src/icu.c" 1
 284 0014 83F31188 		msr     BASEPRI, r3
 285              	@ 0 "" 2
 286              	.LVL24:
 287              		.thumb
 288              	.LBE13:
 289              		.loc 1 155 0
 290 0018 10BD     		pop	{r4, pc}
 291              		.cfi_endproc
 292              	.LFE123:
 293              		.size	icuDisable, .-icuDisable
 294 001a 00BFAFF3 		.text
 294      0080
 295              	.Letext0: