ARM GAS  C:\Users\DNIEL~1\AppData\Local\Temp\ccA10Ztq.s 			page 1


   1              		.syntax unified
   2              		.cpu cortex-m4
   3              		.fpu softvfp
   4              		.eabi_attribute 20, 1
   5              		.eabi_attribute 21, 1
   6              		.eabi_attribute 23, 3
   7              		.eabi_attribute 24, 1
   8              		.eabi_attribute 25, 1
   9              		.eabi_attribute 26, 1
  10              		.eabi_attribute 30, 2
  11              		.eabi_attribute 34, 1
  12              		.eabi_attribute 18, 4
  13              		.thumb
  14              		.file	"icu_lld.c"
  15              		.text
  16              	.Ltext0:
  17              		.cfi_sections	.debug_frame
  18              		.section	.text.icu_lld_serve_interrupt.constprop.0,"ax",%progbits
  19              		.align	2
  20              		.p2align 4,,15
  21              		.thumb
  22              		.thumb_func
  23              		.type	icu_lld_serve_interrupt.constprop.0, %function
  24              	icu_lld_serve_interrupt.constprop.0:
  25              	.LFB126:
  26              		.file 1 "../../../ChibiOS/os/hal/platforms/STM32/TIMv1/icu_lld.c"
  27              		.loc 1 111 0
  28              		.cfi_startproc
  29              		@ args = 0, pretend = 0, frame = 0
  30              		@ frame_needed = 0, uses_anonymous_args = 0
  31              	.LVL0:
  32 0000 38B5     		push	{r3, r4, r5, lr}
  33              	.LCFI0:
  34              		.cfi_def_cfa_offset 16
  35              		.cfi_offset 3, -16
  36              		.cfi_offset 4, -12
  37              		.cfi_offset 5, -8
  38              		.cfi_offset 14, -4
  39              		.loc 1 114 0
  40 0002 224C     		ldr	r4, .L34
  41 0004 E368     		ldr	r3, [r4, #12]
  42              		.loc 1 117 0
  43 0006 6268     		ldr	r2, [r4, #4]
  44              		.loc 1 114 0
  45 0008 1869     		ldr	r0, [r3, #16]
  46              	.LVL1:
  47              		.loc 1 115 0
  48 000a DD68     		ldr	r5, [r3, #12]
  49              		.loc 1 117 0
  50 000c 117D     		ldrb	r1, [r2, #20]	@ zero_extendqisi2
  51              		.loc 1 115 0
  52 000e 0540     		ands	r5, r5, r0
  53 0010 ADB2     		uxth	r5, r5
  54              	.LVL2:
  55              		.loc 1 116 0
  56 0012 E8B2     		uxtb	r0, r5
  57 0014 C043     		mvns	r0, r0
ARM GAS  C:\Users\DNIEL~1\AppData\Local\Temp\ccA10Ztq.s 			page 2


  58 0016 1861     		str	r0, [r3, #16]
  59              		.loc 1 118 0
  60 0018 05F00203 		and	r3, r5, #2
  61 001c 98B2     		uxth	r0, r3
  62              		.loc 1 117 0
  63 001e 99B9     		cbnz	r1, .L2
  64              		.loc 1 118 0
  65 0020 38B1     		cbz	r0, .L4
  66              	.LBB4:
  67              		.loc 1 119 0
  68 0022 2078     		ldrb	r0, [r4, #0]	@ zero_extendqisi2
  69              	.LVL3:
  70 0024 0421     		movs	r1, #4
  71 0026 0328     		cmp	r0, #3
  72 0028 2170     		strb	r1, [r4, #0]
  73 002a 02D0     		beq	.L4
  74 002c D268     		ldr	r2, [r2, #12]
  75 002e 2046     		mov	r0, r4
  76 0030 9047     		blx	r2
  77              	.LVL4:
  78              	.L4:
  79              	.LBE4:
  80              		.loc 1 120 0
  81 0032 05F00403 		and	r3, r5, #4
  82 0036 98B2     		uxth	r0, r3
  83 0038 F0B9     		cbnz	r0, .L33
  84              	.L7:
  85              		.loc 1 128 0
  86 003a EB07     		lsls	r3, r5, #31
  87 003c 03D5     		bpl	.L1
  88              		.loc 1 129 0
  89 003e 6368     		ldr	r3, [r4, #4]
  90 0040 1248     		ldr	r0, .L34
  91 0042 1A69     		ldr	r2, [r3, #16]
  92 0044 9047     		blx	r2
  93              	.LVL5:
  94              	.L1:
  95 0046 38BD     		pop	{r3, r4, r5, pc}
  96              	.L2:
  97              		.loc 1 123 0
  98 0048 38B1     		cbz	r0, .L9
  99              		.loc 1 124 0
 100 004a 2178     		ldrb	r1, [r4, #0]	@ zero_extendqisi2
 101 004c 0329     		cmp	r1, #3
 102 004e 04D0     		beq	.L9
 103 0050 0523     		movs	r3, #5
 104 0052 2370     		strb	r3, [r4, #0]
 105 0054 9268     		ldr	r2, [r2, #8]
 106 0056 2046     		mov	r0, r4
 107 0058 9047     		blx	r2
 108              	.LVL6:
 109              	.L9:
 110              		.loc 1 125 0
 111 005a 05F00400 		and	r0, r5, #4
 112 005e 81B2     		uxth	r1, r0
 113 0060 0029     		cmp	r1, #0
 114 0062 EAD0     		beq	.L7
ARM GAS  C:\Users\DNIEL~1\AppData\Local\Temp\ccA10Ztq.s 			page 3


 115              	.LBB5:
 116              		.loc 1 126 0
 117 0064 2378     		ldrb	r3, [r4, #0]	@ zero_extendqisi2
 118              	.LVL7:
 119 0066 0948     		ldr	r0, .L34
 120 0068 0422     		movs	r2, #4
 121 006a 032B     		cmp	r3, #3
 122 006c 2270     		strb	r2, [r4, #0]
 123 006e E4D0     		beq	.L7
 124 0070 4168     		ldr	r1, [r0, #4]
 125 0072 CB68     		ldr	r3, [r1, #12]
 126 0074 9847     		blx	r3
 127              	.LVL8:
 128 0076 E0E7     		b	.L7
 129              	.L33:
 130              	.LBE5:
 131              		.loc 1 121 0
 132 0078 2178     		ldrb	r1, [r4, #0]	@ zero_extendqisi2
 133 007a 0448     		ldr	r0, .L34
 134 007c 0329     		cmp	r1, #3
 135 007e DCD0     		beq	.L7
 136 0080 4368     		ldr	r3, [r0, #4]
 137 0082 0522     		movs	r2, #5
 138 0084 0270     		strb	r2, [r0, #0]
 139 0086 9968     		ldr	r1, [r3, #8]
 140 0088 8847     		blx	r1
 141              	.LVL9:
 142 008a D6E7     		b	.L7
 143              	.L35:
 144              		.align	2
 145              	.L34:
 146 008c 00000000 		.word	.LANCHOR0
 147              		.cfi_endproc
 148              	.LFE126:
 149              		.size	icu_lld_serve_interrupt.constprop.0, .-icu_lld_serve_interrupt.constprop.0
 150              		.section	.text.VectorA4,"ax",%progbits
 151              		.align	2
 152              		.p2align 4,,15
 153              		.global	VectorA4
 154              		.thumb
 155              		.thumb_func
 156              		.type	VectorA4, %function
 157              	VectorA4:
 158              	.LFB119:
 159              		.loc 1 148 0
 160              		.cfi_startproc
 161              		@ args = 0, pretend = 0, frame = 0
 162              		@ frame_needed = 0, uses_anonymous_args = 0
 163 0000 08B5     		push	{r3, lr}
 164              	.LCFI1:
 165              		.cfi_def_cfa_offset 8
 166              		.cfi_offset 3, -8
 167              		.cfi_offset 14, -4
 168              		.loc 1 152 0
 169 0002 FFF7FEFF 		bl	icu_lld_serve_interrupt.constprop.0
 170              	.LVL10:
 171              		.loc 1 155 0
ARM GAS  C:\Users\DNIEL~1\AppData\Local\Temp\ccA10Ztq.s 			page 4


 172 0006 BDE80840 		pop	{r3, lr}
 173              		.loc 1 154 0
 174 000a FFF7FEBF 		b	_port_irq_epilogue
 175              	.LVL11:
 176              		.cfi_endproc
 177              	.LFE119:
 178              		.size	VectorA4, .-VectorA4
 179 000e 00BF     		.section	.text.VectorAC,"ax",%progbits
 180              		.align	2
 181              		.p2align 4,,15
 182              		.global	VectorAC
 183              		.thumb
 184              		.thumb_func
 185              		.type	VectorAC, %function
 186              	VectorAC:
 187              	.LFB120:
 188              		.loc 1 168 0
 189              		.cfi_startproc
 190              		@ args = 0, pretend = 0, frame = 0
 191              		@ frame_needed = 0, uses_anonymous_args = 0
 192 0000 08B5     		push	{r3, lr}
 193              	.LCFI2:
 194              		.cfi_def_cfa_offset 8
 195              		.cfi_offset 3, -8
 196              		.cfi_offset 14, -4
 197              		.loc 1 172 0
 198 0002 FFF7FEFF 		bl	icu_lld_serve_interrupt.constprop.0
 199              	.LVL12:
 200              		.loc 1 175 0
 201 0006 BDE80840 		pop	{r3, lr}
 202              		.loc 1 174 0
 203 000a FFF7FEBF 		b	_port_irq_epilogue
 204              	.LVL13:
 205              		.cfi_endproc
 206              	.LFE120:
 207              		.size	VectorAC, .-VectorAC
 208 000e 00BF     		.section	.text.icu_lld_init,"ax",%progbits
 209              		.align	2
 210              		.p2align 4,,15
 211              		.global	icu_lld_init
 212              		.thumb
 213              		.thumb_func
 214              		.type	icu_lld_init, %function
 215              	icu_lld_init:
 216              	.LFB121:
 217              		.loc 1 339 0
 218              		.cfi_startproc
 219              		@ args = 0, pretend = 0, frame = 0
 220              		@ frame_needed = 0, uses_anonymous_args = 0
 221 0000 10B5     		push	{r4, lr}
 222              	.LCFI3:
 223              		.cfi_def_cfa_offset 8
 224              		.cfi_offset 4, -8
 225              		.cfi_offset 14, -4
 226              		.loc 1 343 0
 227 0002 40F20004 		movw	r4, #:lower16:.LANCHOR0
 228 0006 C0F20004 		movt	r4, #:upper16:.LANCHOR0
ARM GAS  C:\Users\DNIEL~1\AppData\Local\Temp\ccA10Ztq.s 			page 5


 229 000a 2046     		mov	r0, r4
 230 000c FFF7FEFF 		bl	icuObjectInit
 231              	.LVL14:
 232              		.loc 1 344 0
 233 0010 0023     		movs	r3, #0
 234 0012 C4F20103 		movt	r3, 16385
 235 0016 E360     		str	r3, [r4, #12]
 236 0018 10BD     		pop	{r4, pc}
 237              		.cfi_endproc
 238              	.LFE121:
 239              		.size	icu_lld_init, .-icu_lld_init
 240 001a 00BFAFF3 		.section	.text.icu_lld_start,"ax",%progbits
 240      0080
 241              		.align	2
 242              		.p2align 4,,15
 243              		.global	icu_lld_start
 244              		.thumb
 245              		.thumb_func
 246              		.type	icu_lld_start, %function
 247              	icu_lld_start:
 248              	.LFB122:
 249              		.loc 1 391 0
 250              		.cfi_startproc
 251              		@ args = 0, pretend = 0, frame = 0
 252              		@ frame_needed = 0, uses_anonymous_args = 0
 253              	.LVL15:
 254              		.loc 1 398 0
 255 0000 0378     		ldrb	r3, [r0, #0]	@ zero_extendqisi2
 256 0002 012B     		cmp	r3, #1
 257              		.loc 1 391 0
 258 0004 70B5     		push	{r4, r5, r6, lr}
 259              	.LCFI4:
 260              		.cfi_def_cfa_offset 16
 261              		.cfi_offset 4, -16
 262              		.cfi_offset 5, -12
 263              		.cfi_offset 6, -8
 264              		.cfi_offset 14, -4
 265              		.loc 1 391 0
 266 0006 0446     		mov	r4, r0
 267              		.loc 1 398 0
 268 0008 3BD0     		beq	.L50
 269              		.loc 1 478 0
 270 000a C368     		ldr	r3, [r0, #12]
 271 000c 0022     		movs	r2, #0
 272 000e 1A60     		str	r2, [r3, #0]
 273              		.loc 1 479 0
 274 0010 5A63     		str	r2, [r3, #52]
 275              		.loc 1 480 0
 276 0012 9A63     		str	r2, [r3, #56]
 277              		.loc 1 481 0
 278 0014 5A62     		str	r2, [r3, #36]
 279              	.LVL16:
 280              	.L42:
 281              		.loc 1 486 0
 282 0016 6268     		ldr	r2, [r4, #4]
 283              		.loc 1 488 0
 284 0018 A568     		ldr	r5, [r4, #8]
ARM GAS  C:\Users\DNIEL~1\AppData\Local\Temp\ccA10Ztq.s 			page 6


 285 001a 5068     		ldr	r0, [r2, #4]
 286              		.loc 1 486 0
 287 001c 9169     		ldr	r1, [r2, #24]
 288              		.loc 1 495 0
 289 001e 167D     		ldrb	r6, [r2, #20]	@ zero_extendqisi2
 290              		.loc 1 508 0
 291 0020 1278     		ldrb	r2, [r2, #0]	@ zero_extendqisi2
 292              		.loc 1 488 0
 293 0022 B5FBF0F5 		udiv	r5, r5, r0
 294 0026 681E     		subs	r0, r5, #1
 295              		.loc 1 486 0
 296 0028 21F0FF01 		bic	r1, r1, #255
 297              		.loc 1 485 0
 298 002c 0025     		movs	r5, #0
 299 002e 1D61     		str	r5, [r3, #16]
 300              		.loc 1 492 0
 301 0030 80B2     		uxth	r0, r0
 302              		.loc 1 486 0
 303 0032 D960     		str	r1, [r3, #12]
 304              		.loc 1 493 0
 305 0034 4FF6FF71 		movw	r1, #65535
 306              		.loc 1 492 0
 307 0038 9862     		str	r0, [r3, #40]
 308              		.loc 1 493 0
 309 003a D962     		str	r1, [r3, #44]
 310              		.loc 1 495 0
 311 003c 6EB9     		cbnz	r6, .L43
 312              		.loc 1 499 0
 313 003e 40F20120 		movw	r0, #513
 314              		.loc 1 503 0
 315 0042 5421     		movs	r1, #84
 316              		.loc 1 499 0
 317 0044 9861     		str	r0, [r3, #24]
 318              		.loc 1 503 0
 319 0046 9960     		str	r1, [r3, #8]
 320              		.loc 1 508 0
 321 0048 C2B1     		cbz	r2, .L51
 322              		.loc 1 512 0
 323 004a 1322     		movs	r2, #19
 324 004c 1A62     		str	r2, [r3, #32]
 325              	.L45:
 326              		.loc 1 517 0
 327 004e 03F13801 		add	r1, r3, #56
 328              		.loc 1 518 0
 329 0052 3433     		adds	r3, r3, #52
 330              		.loc 1 517 0
 331 0054 2161     		str	r1, [r4, #16]
 332              		.loc 1 518 0
 333 0056 6361     		str	r3, [r4, #20]
 334 0058 70BD     		pop	{r4, r5, r6, pc}
 335              	.L43:
 336              		.loc 1 523 0
 337 005a 4FF48170 		mov	r0, #258
 338              		.loc 1 527 0
 339 005e 6421     		movs	r1, #100
 340              		.loc 1 523 0
 341 0060 9861     		str	r0, [r3, #24]
ARM GAS  C:\Users\DNIEL~1\AppData\Local\Temp\ccA10Ztq.s 			page 7


 342              		.loc 1 527 0
 343 0062 9960     		str	r1, [r3, #8]
 344              		.loc 1 532 0
 345 0064 3AB1     		cbz	r2, .L52
 346              		.loc 1 536 0
 347 0066 3122     		movs	r2, #49
 348 0068 1A62     		str	r2, [r3, #32]
 349              	.L48:
 350              		.loc 1 541 0
 351 006a 03F13401 		add	r1, r3, #52
 352              		.loc 1 542 0
 353 006e 3833     		adds	r3, r3, #56
 354              		.loc 1 541 0
 355 0070 2161     		str	r1, [r4, #16]
 356              		.loc 1 542 0
 357 0072 6361     		str	r3, [r4, #20]
 358 0074 70BD     		pop	{r4, r5, r6, pc}
 359              	.L52:
 360              		.loc 1 533 0
 361 0076 1320     		movs	r0, #19
 362 0078 1862     		str	r0, [r3, #32]
 363 007a F6E7     		b	.L48
 364              	.L51:
 365              		.loc 1 509 0
 366 007c 3120     		movs	r0, #49
 367 007e 1862     		str	r0, [r3, #32]
 368 0080 E5E7     		b	.L45
 369              	.LVL17:
 370              	.L50:
 371              		.loc 1 401 0
 372 0082 1048     		ldr	r0, .L53
 373              	.LVL18:
 374 0084 8442     		cmp	r4, r0
 375 0086 01D0     		beq	.L41
 376              	.L49:
 377 0088 E368     		ldr	r3, [r4, #12]
 378 008a C4E7     		b	.L42
 379              	.L41:
 380              		.loc 1 402 0
 381 008c 4FF46055 		mov	r5, #14336
 382 0090 C4F20205 		movt	r5, 16386
 383              		.loc 1 404 0
 384 0094 1920     		movs	r0, #25
 385              		.loc 1 402 0
 386 0096 696C     		ldr	r1, [r5, #68]
 387 0098 41F00106 		orr	r6, r1, #1
 388 009c 6E64     		str	r6, [r5, #68]
 389              		.loc 1 403 0
 390 009e 6B6A     		ldr	r3, [r5, #36]
 391 00a0 0026     		movs	r6, #0
 392 00a2 43F00102 		orr	r2, r3, #1
 393 00a6 6A62     		str	r2, [r5, #36]
 394              		.loc 1 404 0
 395 00a8 7021     		movs	r1, #112
 396              		.loc 1 403 0
 397 00aa 6E62     		str	r6, [r5, #36]
 398              		.loc 1 404 0
ARM GAS  C:\Users\DNIEL~1\AppData\Local\Temp\ccA10Ztq.s 			page 8


 399 00ac FFF7FEFF 		bl	nvicEnableVector
 400              	.LVL19:
 401              		.loc 1 406 0
 402 00b0 1B20     		movs	r0, #27
 403 00b2 7021     		movs	r1, #112
 404 00b4 FFF7FEFF 		bl	nvicEnableVector
 405              	.LVL20:
 406              		.loc 1 411 0
 407 00b8 4FF4F440 		mov	r0, #31232
 408 00bc C0F60320 		movt	r0, 2563
 409 00c0 A060     		str	r0, [r4, #8]
 410 00c2 E1E7     		b	.L49
 411              	.L54:
 412              		.align	2
 413              	.L53:
 414 00c4 00000000 		.word	.LANCHOR0
 415              		.cfi_endproc
 416              	.LFE122:
 417              		.size	icu_lld_start, .-icu_lld_start
 418 00c8 AFF30080 		.section	.text.icu_lld_stop,"ax",%progbits
 418      AFF30080 
 419              		.align	2
 420              		.p2align 4,,15
 421              		.global	icu_lld_stop
 422              		.thumb
 423              		.thumb_func
 424              		.type	icu_lld_stop, %function
 425              	icu_lld_stop:
 426              	.LFB123:
 427              		.loc 1 553 0
 428              		.cfi_startproc
 429              		@ args = 0, pretend = 0, frame = 0
 430              		@ frame_needed = 0, uses_anonymous_args = 0
 431              	.LVL21:
 432 0000 08B5     		push	{r3, lr}
 433              	.LCFI5:
 434              		.cfi_def_cfa_offset 8
 435              		.cfi_offset 3, -8
 436              		.cfi_offset 14, -4
 437              		.loc 1 555 0
 438 0002 0378     		ldrb	r3, [r0, #0]	@ zero_extendqisi2
 439 0004 022B     		cmp	r3, #2
 440 0006 00D0     		beq	.L59
 441              	.LVL22:
 442              	.L55:
 443 0008 08BD     		pop	{r3, pc}
 444              	.LVL23:
 445              	.L59:
 446              		.loc 1 562 0
 447 000a 0B4B     		ldr	r3, .L60
 448              		.loc 1 557 0
 449 000c C168     		ldr	r1, [r0, #12]
 450 000e 0022     		movs	r2, #0
 451              		.loc 1 562 0
 452 0010 9842     		cmp	r0, r3
 453              		.loc 1 557 0
 454 0012 0A60     		str	r2, [r1, #0]
ARM GAS  C:\Users\DNIEL~1\AppData\Local\Temp\ccA10Ztq.s 			page 9


 455              		.loc 1 558 0
 456 0014 CA60     		str	r2, [r1, #12]
 457              		.loc 1 559 0
 458 0016 0A61     		str	r2, [r1, #16]
 459              		.loc 1 562 0
 460 0018 F6D1     		bne	.L55
 461              		.loc 1 563 0
 462 001a 1920     		movs	r0, #25
 463              	.LVL24:
 464 001c FFF7FEFF 		bl	nvicDisableVector
 465              	.LVL25:
 466              		.loc 1 564 0
 467 0020 1B20     		movs	r0, #27
 468 0022 FFF7FEFF 		bl	nvicDisableVector
 469              	.LVL26:
 470              		.loc 1 565 0
 471 0026 4FF46050 		mov	r0, #14336
 472 002a C4F20200 		movt	r0, 16386
 473 002e 416C     		ldr	r1, [r0, #68]
 474 0030 21F00102 		bic	r2, r1, #1
 475 0034 4264     		str	r2, [r0, #68]
 476 0036 E7E7     		b	.L55
 477              	.L61:
 478              		.align	2
 479              	.L60:
 480 0038 00000000 		.word	.LANCHOR0
 481              		.cfi_endproc
 482              	.LFE123:
 483              		.size	icu_lld_stop, .-icu_lld_stop
 484 003c AFF30080 		.section	.text.icu_lld_enable,"ax",%progbits
 485              		.align	2
 486              		.p2align 4,,15
 487              		.global	icu_lld_enable
 488              		.thumb
 489              		.thumb_func
 490              		.type	icu_lld_enable, %function
 491              	icu_lld_enable:
 492              	.LFB124:
 493              		.loc 1 615 0
 494              		.cfi_startproc
 495              		@ args = 0, pretend = 0, frame = 0
 496              		@ frame_needed = 0, uses_anonymous_args = 0
 497              		@ link register save eliminated.
 498              	.LVL27:
 499              		.loc 1 617 0
 500 0000 C368     		ldr	r3, [r0, #12]
 501              		.loc 1 619 0
 502 0002 4268     		ldr	r2, [r0, #4]
 503              		.loc 1 617 0
 504 0004 5869     		ldr	r0, [r3, #20]
 505              	.LVL28:
 506              		.loc 1 619 0
 507 0006 117D     		ldrb	r1, [r2, #20]	@ zero_extendqisi2
 508              		.loc 1 617 0
 509 0008 40F00100 		orr	r0, r0, #1
 510 000c 5861     		str	r0, [r3, #20]
 511              		.loc 1 618 0
ARM GAS  C:\Users\DNIEL~1\AppData\Local\Temp\ccA10Ztq.s 			page 10


 512 000e 0020     		movs	r0, #0
 513 0010 1861     		str	r0, [r3, #16]
 514              		.loc 1 619 0
 515 0012 A1B9     		cbnz	r1, .L63
 516              		.loc 1 620 0
 517 0014 D168     		ldr	r1, [r2, #12]
 518 0016 19B1     		cbz	r1, .L64
 519              		.loc 1 621 0
 520 0018 D868     		ldr	r0, [r3, #12]
 521 001a 40F00201 		orr	r1, r0, #2
 522 001e D960     		str	r1, [r3, #12]
 523              	.L64:
 524              		.loc 1 622 0
 525 0020 9068     		ldr	r0, [r2, #8]
 526 0022 18B1     		cbz	r0, .L66
 527              	.L82:
 528              		.loc 1 628 0
 529 0024 D968     		ldr	r1, [r3, #12]
 530 0026 41F00400 		orr	r0, r1, #4
 531 002a D860     		str	r0, [r3, #12]
 532              	.L66:
 533              		.loc 1 630 0
 534 002c 1269     		ldr	r2, [r2, #16]
 535 002e 1AB1     		cbz	r2, .L69
 536              		.loc 1 631 0
 537 0030 D968     		ldr	r1, [r3, #12]
 538 0032 41F00100 		orr	r0, r1, #1
 539 0036 D860     		str	r0, [r3, #12]
 540              	.L69:
 541              		.loc 1 632 0
 542 0038 0522     		movs	r2, #5
 543 003a 1A60     		str	r2, [r3, #0]
 544 003c 7047     		bx	lr
 545              	.L63:
 546              		.loc 1 625 0
 547 003e 9168     		ldr	r1, [r2, #8]
 548 0040 19B1     		cbz	r1, .L67
 549              		.loc 1 626 0
 550 0042 D868     		ldr	r0, [r3, #12]
 551 0044 40F00201 		orr	r1, r0, #2
 552 0048 D960     		str	r1, [r3, #12]
 553              	.L67:
 554              		.loc 1 627 0
 555 004a D068     		ldr	r0, [r2, #12]
 556 004c 0028     		cmp	r0, #0
 557 004e E9D1     		bne	.L82
 558 0050 ECE7     		b	.L66
 559              		.cfi_endproc
 560              	.LFE124:
 561              		.size	icu_lld_enable, .-icu_lld_enable
 562 0052 00BFAFF3 		.section	.text.icu_lld_disable,"ax",%progbits
 562      0080AFF3 
 562      0080AFF3 
 562      0080
 563              		.align	2
 564              		.p2align 4,,15
 565              		.global	icu_lld_disable
ARM GAS  C:\Users\DNIEL~1\AppData\Local\Temp\ccA10Ztq.s 			page 11


 566              		.thumb
 567              		.thumb_func
 568              		.type	icu_lld_disable, %function
 569              	icu_lld_disable:
 570              	.LFB125:
 571              		.loc 1 642 0
 572              		.cfi_startproc
 573              		@ args = 0, pretend = 0, frame = 0
 574              		@ frame_needed = 0, uses_anonymous_args = 0
 575              		@ link register save eliminated.
 576              	.LVL29:
 577              		.loc 1 644 0
 578 0000 C368     		ldr	r3, [r0, #12]
 579 0002 0022     		movs	r2, #0
 580 0004 1A60     		str	r2, [r3, #0]
 581              		.loc 1 645 0
 582 0006 1A61     		str	r2, [r3, #16]
 583              		.loc 1 648 0
 584 0008 D868     		ldr	r0, [r3, #12]
 585              	.LVL30:
 586 000a 20F0FF01 		bic	r1, r0, #255
 587 000e D960     		str	r1, [r3, #12]
 588 0010 7047     		bx	lr
 589              		.cfi_endproc
 590              	.LFE125:
 591              		.size	icu_lld_disable, .-icu_lld_disable
 592              		.global	ICUD1
 593 0012 00BFAFF3 		.section	.bss.ICUD1,"aw",%nobits
 593      0080AFF3 
 593      0080AFF3 
 593      0080
 594              		.align	2
 595              		.set	.LANCHOR0,. + 0
 596              		.type	ICUD1, %object
 597              		.size	ICUD1, 24
 598              	ICUD1:
 599 0000 00000000 		.space	24
 599      00000000 
 599      00000000 
 599      00000000 
 599      00000000 
 600              		.text
 601              	.Letext0:
 602              		.file 2 "c:\\chibistudio\\tools\\gnu tools arm embedded\\4.7 2014q2\\bin\\../lib/gcc/arm-none-eabi
 603              		.file 3 "../../../ChibiOS/os/hal/platforms/STM32F4xx/stm32f4xx.h"
 604              		.file 4 "../../../ChibiOS/os/hal/include/icu.h"
 605              		.file 5 "../../../ChibiOS/os/hal/platforms/STM32/TIMv1/icu_lld.h"
 606              		.file 6 "../../../ChibiOS/os/hal/platforms/STM32/TIMv1/stm32_tim.h"
 607              		.file 7 "../../../ChibiOS/os/ports/common/ARMCMx/CMSIS/include/core_cm4.h"
 608              		.file 8 "../../../ChibiOS/os/ports/common/ARMCMx/nvic.h"
 609              		.file 9 "../../../ChibiOS/os/ports/GCC/ARMCMx/chcore_v7m.h"
 610              		.section	.debug_info,"",%progbits
 611              	.Ldebug_info0:
 612 0000 A3080000 		.4byte	0x8a3
 613 0004 0200     		.2byte	0x2
 614 0006 00000000 		.4byte	.Ldebug_abbrev0
 615 000a 04       		.byte	0x4
ARM GAS  C:\Users\DNIEL~1\AppData\Local\Temp\ccA10Ztq.s 			page 12


 616 000b 01       		.uleb128 0x1
 617 000c C6020000 		.4byte	.LASF98
 618 0010 01       		.byte	0x1
 619 0011 8F010000 		.4byte	.LASF99
 620 0015 28000000 		.4byte	.LASF100
 621 0019 00000000 		.4byte	.Ldebug_ranges0+0
 622 001d 00000000 		.4byte	0
 623 0021 00000000 		.4byte	0
 624 0025 00000000 		.4byte	.Ldebug_line0
 625 0029 02       		.uleb128 0x2
 626 002a 04       		.byte	0x4
 627 002b 05       		.byte	0x5
 628 002c 696E7400 		.ascii	"int\000"
 629 0030 03       		.uleb128 0x3
 630 0031 04       		.byte	0x4
 631 0032 07       		.byte	0x7
 632 0033 A7020000 		.4byte	.LASF0
 633 0037 03       		.uleb128 0x3
 634 0038 01       		.byte	0x1
 635 0039 06       		.byte	0x6
 636 003a 8E020000 		.4byte	.LASF1
 637 003e 03       		.uleb128 0x3
 638 003f 01       		.byte	0x1
 639 0040 08       		.byte	0x8
 640 0041 48020000 		.4byte	.LASF2
 641 0045 03       		.uleb128 0x3
 642 0046 02       		.byte	0x2
 643 0047 05       		.byte	0x5
 644 0048 90000000 		.4byte	.LASF3
 645 004c 04       		.uleb128 0x4
 646 004d BD020000 		.4byte	.LASF5
 647 0051 02       		.byte	0x2
 648 0052 36       		.byte	0x36
 649 0053 57000000 		.4byte	0x57
 650 0057 03       		.uleb128 0x3
 651 0058 02       		.byte	0x2
 652 0059 07       		.byte	0x7
 653 005a 24030000 		.4byte	.LASF4
 654 005e 04       		.uleb128 0x4
 655 005f 6F030000 		.4byte	.LASF6
 656 0063 02       		.byte	0x2
 657 0064 4F       		.byte	0x4f
 658 0065 69000000 		.4byte	0x69
 659 0069 03       		.uleb128 0x3
 660 006a 04       		.byte	0x4
 661 006b 05       		.byte	0x5
 662 006c CD010000 		.4byte	.LASF7
 663 0070 04       		.uleb128 0x4
 664 0071 3B010000 		.4byte	.LASF8
 665 0075 02       		.byte	0x2
 666 0076 50       		.byte	0x50
 667 0077 7B000000 		.4byte	0x7b
 668 007b 03       		.uleb128 0x3
 669 007c 04       		.byte	0x4
 670 007d 07       		.byte	0x7
 671 007e F2010000 		.4byte	.LASF9
 672 0082 03       		.uleb128 0x3
ARM GAS  C:\Users\DNIEL~1\AppData\Local\Temp\ccA10Ztq.s 			page 13


 673 0083 08       		.byte	0x8
 674 0084 05       		.byte	0x5
 675 0085 60010000 		.4byte	.LASF10
 676 0089 03       		.uleb128 0x3
 677 008a 08       		.byte	0x8
 678 008b 07       		.byte	0x7
 679 008c 6E010000 		.4byte	.LASF11
 680 0090 03       		.uleb128 0x3
 681 0091 01       		.byte	0x1
 682 0092 02       		.byte	0x2
 683 0093 1E030000 		.4byte	.LASF12
 684 0097 05       		.uleb128 0x5
 685 0098 70000000 		.4byte	0x70
 686 009c 03       		.uleb128 0x3
 687 009d 04       		.byte	0x4
 688 009e 07       		.byte	0x7
 689 009f 9F000000 		.4byte	.LASF13
 690 00a3 03       		.uleb128 0x3
 691 00a4 01       		.byte	0x1
 692 00a5 08       		.byte	0x8
 693 00a6 41030000 		.4byte	.LASF14
 694 00aa 06       		.uleb128 0x6
 695 00ab 70000000 		.4byte	0x70
 696 00af BA000000 		.4byte	0xba
 697 00b3 07       		.uleb128 0x7
 698 00b4 9C000000 		.4byte	0x9c
 699 00b8 01       		.byte	0x1
 700 00b9 00       		.byte	0
 701 00ba 06       		.uleb128 0x6
 702 00bb 70000000 		.4byte	0x70
 703 00bf CA000000 		.4byte	0xca
 704 00c3 07       		.uleb128 0x7
 705 00c4 9C000000 		.4byte	0x9c
 706 00c8 03       		.byte	0x3
 707 00c9 00       		.byte	0
 708 00ca 05       		.uleb128 0x5
 709 00cb 5E000000 		.4byte	0x5e
 710 00cf 08       		.uleb128 0x8
 711 00d0 90       		.byte	0x90
 712 00d1 03       		.byte	0x3
 713 00d2 5804     		.2byte	0x458
 714 00d4 BC020000 		.4byte	0x2bc
 715 00d8 09       		.uleb128 0x9
 716 00d9 435200   		.ascii	"CR\000"
 717 00dc 03       		.byte	0x3
 718 00dd 5A04     		.2byte	0x45a
 719 00df 97000000 		.4byte	0x97
 720 00e3 02       		.byte	0x2
 721 00e4 23       		.byte	0x23
 722 00e5 00       		.uleb128 0
 723 00e6 0A       		.uleb128 0xa
 724 00e7 83040000 		.4byte	.LASF15
 725 00eb 03       		.byte	0x3
 726 00ec 5B04     		.2byte	0x45b
 727 00ee 97000000 		.4byte	0x97
 728 00f2 02       		.byte	0x2
 729 00f3 23       		.byte	0x23
ARM GAS  C:\Users\DNIEL~1\AppData\Local\Temp\ccA10Ztq.s 			page 14


 730 00f4 04       		.uleb128 0x4
 731 00f5 0A       		.uleb128 0xa
 732 00f6 FF000000 		.4byte	.LASF16
 733 00fa 03       		.byte	0x3
 734 00fb 5C04     		.2byte	0x45c
 735 00fd 97000000 		.4byte	0x97
 736 0101 02       		.byte	0x2
 737 0102 23       		.byte	0x23
 738 0103 08       		.uleb128 0x8
 739 0104 09       		.uleb128 0x9
 740 0105 43495200 		.ascii	"CIR\000"
 741 0109 03       		.byte	0x3
 742 010a 5D04     		.2byte	0x45d
 743 010c 97000000 		.4byte	0x97
 744 0110 02       		.byte	0x2
 745 0111 23       		.byte	0x23
 746 0112 0C       		.uleb128 0xc
 747 0113 0A       		.uleb128 0xa
 748 0114 3E040000 		.4byte	.LASF17
 749 0118 03       		.byte	0x3
 750 0119 5E04     		.2byte	0x45e
 751 011b 97000000 		.4byte	0x97
 752 011f 02       		.byte	0x2
 753 0120 23       		.byte	0x23
 754 0121 10       		.uleb128 0x10
 755 0122 0A       		.uleb128 0xa
 756 0123 B4020000 		.4byte	.LASF18
 757 0127 03       		.byte	0x3
 758 0128 5F04     		.2byte	0x45f
 759 012a 97000000 		.4byte	0x97
 760 012e 02       		.byte	0x2
 761 012f 23       		.byte	0x23
 762 0130 14       		.uleb128 0x14
 763 0131 0A       		.uleb128 0xa
 764 0132 5F040000 		.4byte	.LASF19
 765 0136 03       		.byte	0x3
 766 0137 6004     		.2byte	0x460
 767 0139 97000000 		.4byte	0x97
 768 013d 02       		.byte	0x2
 769 013e 23       		.byte	0x23
 770 013f 18       		.uleb128 0x18
 771 0140 0A       		.uleb128 0xa
 772 0141 AF030000 		.4byte	.LASF20
 773 0145 03       		.byte	0x3
 774 0146 6104     		.2byte	0x461
 775 0148 70000000 		.4byte	0x70
 776 014c 02       		.byte	0x2
 777 014d 23       		.byte	0x23
 778 014e 1C       		.uleb128 0x1c
 779 014f 0A       		.uleb128 0xa
 780 0150 D0000000 		.4byte	.LASF21
 781 0154 03       		.byte	0x3
 782 0155 6204     		.2byte	0x462
 783 0157 97000000 		.4byte	0x97
 784 015b 02       		.byte	0x2
 785 015c 23       		.byte	0x23
 786 015d 20       		.uleb128 0x20
ARM GAS  C:\Users\DNIEL~1\AppData\Local\Temp\ccA10Ztq.s 			page 15


 787 015e 0A       		.uleb128 0xa
 788 015f 0A020000 		.4byte	.LASF22
 789 0163 03       		.byte	0x3
 790 0164 6304     		.2byte	0x463
 791 0166 97000000 		.4byte	0x97
 792 016a 02       		.byte	0x2
 793 016b 23       		.byte	0x23
 794 016c 24       		.uleb128 0x24
 795 016d 0A       		.uleb128 0xa
 796 016e 04010000 		.4byte	.LASF23
 797 0172 03       		.byte	0x3
 798 0173 6404     		.2byte	0x464
 799 0175 AA000000 		.4byte	0xaa
 800 0179 02       		.byte	0x2
 801 017a 23       		.byte	0x23
 802 017b 28       		.uleb128 0x28
 803 017c 0A       		.uleb128 0xa
 804 017d 07040000 		.4byte	.LASF24
 805 0181 03       		.byte	0x3
 806 0182 6504     		.2byte	0x465
 807 0184 97000000 		.4byte	0x97
 808 0188 02       		.byte	0x2
 809 0189 23       		.byte	0x23
 810 018a 30       		.uleb128 0x30
 811 018b 0A       		.uleb128 0xa
 812 018c 77000000 		.4byte	.LASF25
 813 0190 03       		.byte	0x3
 814 0191 6604     		.2byte	0x466
 815 0193 97000000 		.4byte	0x97
 816 0197 02       		.byte	0x2
 817 0198 23       		.byte	0x23
 818 0199 34       		.uleb128 0x34
 819 019a 0A       		.uleb128 0xa
 820 019b 1F020000 		.4byte	.LASF26
 821 019f 03       		.byte	0x3
 822 01a0 6704     		.2byte	0x467
 823 01a2 97000000 		.4byte	0x97
 824 01a6 02       		.byte	0x2
 825 01a7 23       		.byte	0x23
 826 01a8 38       		.uleb128 0x38
 827 01a9 0A       		.uleb128 0xa
 828 01aa CF030000 		.4byte	.LASF27
 829 01ae 03       		.byte	0x3
 830 01af 6804     		.2byte	0x468
 831 01b1 70000000 		.4byte	0x70
 832 01b5 02       		.byte	0x2
 833 01b6 23       		.byte	0x23
 834 01b7 3C       		.uleb128 0x3c
 835 01b8 0A       		.uleb128 0xa
 836 01b9 17010000 		.4byte	.LASF28
 837 01bd 03       		.byte	0x3
 838 01be 6904     		.2byte	0x469
 839 01c0 97000000 		.4byte	0x97
 840 01c4 02       		.byte	0x2
 841 01c5 23       		.byte	0x23
 842 01c6 40       		.uleb128 0x40
 843 01c7 0A       		.uleb128 0xa
ARM GAS  C:\Users\DNIEL~1\AppData\Local\Temp\ccA10Ztq.s 			page 16


 844 01c8 66020000 		.4byte	.LASF29
 845 01cc 03       		.byte	0x3
 846 01cd 6A04     		.2byte	0x46a
 847 01cf 97000000 		.4byte	0x97
 848 01d3 02       		.byte	0x2
 849 01d4 23       		.byte	0x23
 850 01d5 44       		.uleb128 0x44
 851 01d6 0A       		.uleb128 0xa
 852 01d7 D9030000 		.4byte	.LASF30
 853 01db 03       		.byte	0x3
 854 01dc 6B04     		.2byte	0x46b
 855 01de AA000000 		.4byte	0xaa
 856 01e2 02       		.byte	0x2
 857 01e3 23       		.byte	0x23
 858 01e4 48       		.uleb128 0x48
 859 01e5 0A       		.uleb128 0xa
 860 01e6 00000000 		.4byte	.LASF31
 861 01ea 03       		.byte	0x3
 862 01eb 6C04     		.2byte	0x46c
 863 01ed 97000000 		.4byte	0x97
 864 01f1 02       		.byte	0x2
 865 01f2 23       		.byte	0x23
 866 01f3 50       		.uleb128 0x50
 867 01f4 0A       		.uleb128 0xa
 868 01f5 A5030000 		.4byte	.LASF32
 869 01f9 03       		.byte	0x3
 870 01fa 6D04     		.2byte	0x46d
 871 01fc 97000000 		.4byte	0x97
 872 0200 02       		.byte	0x2
 873 0201 23       		.byte	0x23
 874 0202 54       		.uleb128 0x54
 875 0203 0A       		.uleb128 0xa
 876 0204 EE000000 		.4byte	.LASF33
 877 0208 03       		.byte	0x3
 878 0209 6E04     		.2byte	0x46e
 879 020b 97000000 		.4byte	0x97
 880 020f 02       		.byte	0x2
 881 0210 23       		.byte	0x23
 882 0211 58       		.uleb128 0x58
 883 0212 0A       		.uleb128 0xa
 884 0213 E3030000 		.4byte	.LASF34
 885 0217 03       		.byte	0x3
 886 0218 6F04     		.2byte	0x46f
 887 021a 70000000 		.4byte	0x70
 888 021e 02       		.byte	0x2
 889 021f 23       		.byte	0x23
 890 0220 5C       		.uleb128 0x5c
 891 0221 0A       		.uleb128 0xa
 892 0222 37030000 		.4byte	.LASF35
 893 0226 03       		.byte	0x3
 894 0227 7004     		.2byte	0x470
 895 0229 97000000 		.4byte	0x97
 896 022d 02       		.byte	0x2
 897 022e 23       		.byte	0x23
 898 022f 60       		.uleb128 0x60
 899 0230 0A       		.uleb128 0xa
 900 0231 96040000 		.4byte	.LASF36
ARM GAS  C:\Users\DNIEL~1\AppData\Local\Temp\ccA10Ztq.s 			page 17


 901 0235 03       		.byte	0x3
 902 0236 7104     		.2byte	0x471
 903 0238 97000000 		.4byte	0x97
 904 023c 02       		.byte	0x2
 905 023d 23       		.byte	0x23
 906 023e 64       		.uleb128 0x64
 907 023f 0A       		.uleb128 0xa
 908 0240 ED030000 		.4byte	.LASF37
 909 0244 03       		.byte	0x3
 910 0245 7204     		.2byte	0x472
 911 0247 AA000000 		.4byte	0xaa
 912 024b 02       		.byte	0x2
 913 024c 23       		.byte	0x23
 914 024d 68       		.uleb128 0x68
 915 024e 0A       		.uleb128 0xa
 916 024f A8000000 		.4byte	.LASF38
 917 0253 03       		.byte	0x3
 918 0254 7304     		.2byte	0x473
 919 0256 97000000 		.4byte	0x97
 920 025a 02       		.byte	0x2
 921 025b 23       		.byte	0x23
 922 025c 70       		.uleb128 0x70
 923 025d 09       		.uleb128 0x9
 924 025e 43535200 		.ascii	"CSR\000"
 925 0262 03       		.byte	0x3
 926 0263 7404     		.2byte	0x474
 927 0265 97000000 		.4byte	0x97
 928 0269 02       		.byte	0x2
 929 026a 23       		.byte	0x23
 930 026b 74       		.uleb128 0x74
 931 026c 0A       		.uleb128 0xa
 932 026d F7030000 		.4byte	.LASF39
 933 0271 03       		.byte	0x3
 934 0272 7504     		.2byte	0x475
 935 0274 AA000000 		.4byte	0xaa
 936 0278 02       		.byte	0x2
 937 0279 23       		.byte	0x23
 938 027a 78       		.uleb128 0x78
 939 027b 0A       		.uleb128 0xa
 940 027c 8C030000 		.4byte	.LASF40
 941 0280 03       		.byte	0x3
 942 0281 7604     		.2byte	0x476
 943 0283 97000000 		.4byte	0x97
 944 0287 03       		.byte	0x3
 945 0288 23       		.byte	0x23
 946 0289 8001     		.uleb128 0x80
 947 028b 0A       		.uleb128 0xa
 948 028c BC000000 		.4byte	.LASF41
 949 0290 03       		.byte	0x3
 950 0291 7704     		.2byte	0x477
 951 0293 97000000 		.4byte	0x97
 952 0297 03       		.byte	0x3
 953 0298 23       		.byte	0x23
 954 0299 8401     		.uleb128 0x84
 955 029b 0A       		.uleb128 0xa
 956 029c 8B040000 		.4byte	.LASF42
 957 02a0 03       		.byte	0x3
ARM GAS  C:\Users\DNIEL~1\AppData\Local\Temp\ccA10Ztq.s 			page 18


 958 02a1 7804     		.2byte	0x478
 959 02a3 97000000 		.4byte	0x97
 960 02a7 03       		.byte	0x3
 961 02a8 23       		.byte	0x23
 962 02a9 8801     		.uleb128 0x88
 963 02ab 0A       		.uleb128 0xa
 964 02ac 44010000 		.4byte	.LASF43
 965 02b0 03       		.byte	0x3
 966 02b1 7904     		.2byte	0x479
 967 02b3 97000000 		.4byte	0x97
 968 02b7 03       		.byte	0x3
 969 02b8 23       		.byte	0x23
 970 02b9 8C01     		.uleb128 0x8c
 971 02bb 00       		.byte	0
 972 02bc 0B       		.uleb128 0xb
 973 02bd 1C000000 		.4byte	.LASF44
 974 02c1 03       		.byte	0x3
 975 02c2 7B04     		.2byte	0x47b
 976 02c4 CF000000 		.4byte	0xcf
 977 02c8 0C       		.uleb128 0xc
 978 02c9 04       		.byte	0x4
 979 02ca 97000000 		.4byte	0x97
 980 02ce 0D       		.uleb128 0xd
 981 02cf 01       		.byte	0x1
 982 02d0 04       		.byte	0x4
 983 02d1 3C       		.byte	0x3c
 984 02d2 FB020000 		.4byte	0x2fb
 985 02d6 0E       		.uleb128 0xe
 986 02d7 9A030000 		.4byte	.LASF45
 987 02db 00       		.sleb128 0
 988 02dc 0E       		.uleb128 0xe
 989 02dd 53000000 		.4byte	.LASF46
 990 02e1 01       		.sleb128 1
 991 02e2 0E       		.uleb128 0xe
 992 02e3 34040000 		.4byte	.LASF47
 993 02e7 02       		.sleb128 2
 994 02e8 0E       		.uleb128 0xe
 995 02e9 AB040000 		.4byte	.LASF48
 996 02ed 03       		.sleb128 3
 997 02ee 0E       		.uleb128 0xe
 998 02ef 55010000 		.4byte	.LASF49
 999 02f3 04       		.sleb128 4
 1000 02f4 0E       		.uleb128 0xe
 1001 02f5 27020000 		.4byte	.LASF50
 1002 02f9 05       		.sleb128 5
 1003 02fa 00       		.byte	0
 1004 02fb 04       		.uleb128 0x4
 1005 02fc A0040000 		.4byte	.LASF51
 1006 0300 04       		.byte	0x4
 1007 0301 43       		.byte	0x43
 1008 0302 CE020000 		.4byte	0x2ce
 1009 0306 04       		.uleb128 0x4
 1010 0307 20040000 		.4byte	.LASF52
 1011 030b 04       		.byte	0x4
 1012 030c 48       		.byte	0x48
 1013 030d 11030000 		.4byte	0x311
 1014 0311 0F       		.uleb128 0xf
ARM GAS  C:\Users\DNIEL~1\AppData\Local\Temp\ccA10Ztq.s 			page 19


 1015 0312 20040000 		.4byte	.LASF52
 1016 0316 18       		.byte	0x18
 1017 0317 05       		.byte	0x5
 1018 0318 3101     		.2byte	0x131
 1019 031a 79030000 		.4byte	0x379
 1020 031e 0A       		.uleb128 0xa
 1021 031f 84000000 		.4byte	.LASF53
 1022 0323 05       		.byte	0x5
 1023 0324 3501     		.2byte	0x135
 1024 0326 FB020000 		.4byte	0x2fb
 1025 032a 02       		.byte	0x2
 1026 032b 23       		.byte	0x23
 1027 032c 00       		.uleb128 0
 1028 032d 0A       		.uleb128 0xa
 1029 032e F8000000 		.4byte	.LASF54
 1030 0332 05       		.byte	0x5
 1031 0333 3901     		.2byte	0x139
 1032 0335 BA050000 		.4byte	0x5ba
 1033 0339 02       		.byte	0x2
 1034 033a 23       		.byte	0x23
 1035 033b 04       		.uleb128 0x4
 1036 033c 0A       		.uleb128 0xa
 1037 033d 01040000 		.4byte	.LASF55
 1038 0341 05       		.byte	0x5
 1039 0342 4101     		.2byte	0x141
 1040 0344 70000000 		.4byte	0x70
 1041 0348 02       		.byte	0x2
 1042 0349 23       		.byte	0x23
 1043 034a 08       		.uleb128 0x8
 1044 034b 09       		.uleb128 0x9
 1045 034c 74696D00 		.ascii	"tim\000"
 1046 0350 05       		.byte	0x5
 1047 0351 4501     		.2byte	0x145
 1048 0353 C5050000 		.4byte	0x5c5
 1049 0357 02       		.byte	0x2
 1050 0358 23       		.byte	0x23
 1051 0359 0C       		.uleb128 0xc
 1052 035a 0A       		.uleb128 0xa
 1053 035b C7010000 		.4byte	.LASF56
 1054 035f 05       		.byte	0x5
 1055 0360 4901     		.2byte	0x149
 1056 0362 C8020000 		.4byte	0x2c8
 1057 0366 02       		.byte	0x2
 1058 0367 23       		.byte	0x23
 1059 0368 10       		.uleb128 0x10
 1060 0369 0A       		.uleb128 0xa
 1061 036a 04020000 		.4byte	.LASF57
 1062 036e 05       		.byte	0x5
 1063 036f 4D01     		.2byte	0x14d
 1064 0371 C8020000 		.4byte	0x2c8
 1065 0375 02       		.byte	0x2
 1066 0376 23       		.byte	0x23
 1067 0377 14       		.uleb128 0x14
 1068 0378 00       		.byte	0
 1069 0379 04       		.uleb128 0x4
 1070 037a 46030000 		.4byte	.LASF58
 1071 037e 04       		.byte	0x4
ARM GAS  C:\Users\DNIEL~1\AppData\Local\Temp\ccA10Ztq.s 			page 20


 1072 037f 4F       		.byte	0x4f
 1073 0380 84030000 		.4byte	0x384
 1074 0384 0C       		.uleb128 0xc
 1075 0385 04       		.byte	0x4
 1076 0386 8A030000 		.4byte	0x38a
 1077 038a 10       		.uleb128 0x10
 1078 038b 01       		.byte	0x1
 1079 038c 96030000 		.4byte	0x396
 1080 0390 11       		.uleb128 0x11
 1081 0391 96030000 		.4byte	0x396
 1082 0395 00       		.byte	0
 1083 0396 0C       		.uleb128 0xc
 1084 0397 04       		.byte	0x4
 1085 0398 06030000 		.4byte	0x306
 1086 039c 08       		.uleb128 0x8
 1087 039d 60       		.byte	0x60
 1088 039e 06       		.byte	0x6
 1089 039f 9E01     		.2byte	0x19e
 1090 03a1 DF040000 		.4byte	0x4df
 1091 03a5 09       		.uleb128 0x9
 1092 03a6 43523100 		.ascii	"CR1\000"
 1093 03aa 06       		.byte	0x6
 1094 03ab 9F01     		.2byte	0x19f
 1095 03ad 97000000 		.4byte	0x97
 1096 03b1 02       		.byte	0x2
 1097 03b2 23       		.byte	0x23
 1098 03b3 00       		.uleb128 0
 1099 03b4 09       		.uleb128 0x9
 1100 03b5 43523200 		.ascii	"CR2\000"
 1101 03b9 06       		.byte	0x6
 1102 03ba A001     		.2byte	0x1a0
 1103 03bc 97000000 		.4byte	0x97
 1104 03c0 02       		.byte	0x2
 1105 03c1 23       		.byte	0x23
 1106 03c2 04       		.uleb128 0x4
 1107 03c3 0A       		.uleb128 0xa
 1108 03c4 30020000 		.4byte	.LASF59
 1109 03c8 06       		.byte	0x6
 1110 03c9 A101     		.2byte	0x1a1
 1111 03cb 97000000 		.4byte	0x97
 1112 03cf 02       		.byte	0x2
 1113 03d0 23       		.byte	0x23
 1114 03d1 08       		.uleb128 0x8
 1115 03d2 0A       		.uleb128 0xa
 1116 03d3 0F030000 		.4byte	.LASF60
 1117 03d7 06       		.byte	0x6
 1118 03d8 A201     		.2byte	0x1a2
 1119 03da 97000000 		.4byte	0x97
 1120 03de 02       		.byte	0x2
 1121 03df 23       		.byte	0x23
 1122 03e0 0C       		.uleb128 0xc
 1123 03e1 09       		.uleb128 0x9
 1124 03e2 535200   		.ascii	"SR\000"
 1125 03e5 06       		.byte	0x6
 1126 03e6 A301     		.2byte	0x1a3
 1127 03e8 97000000 		.4byte	0x97
 1128 03ec 02       		.byte	0x2
ARM GAS  C:\Users\DNIEL~1\AppData\Local\Temp\ccA10Ztq.s 			page 21


 1129 03ed 23       		.byte	0x23
 1130 03ee 10       		.uleb128 0x10
 1131 03ef 09       		.uleb128 0x9
 1132 03f0 45475200 		.ascii	"EGR\000"
 1133 03f4 06       		.byte	0x6
 1134 03f5 A401     		.2byte	0x1a4
 1135 03f7 97000000 		.4byte	0x97
 1136 03fb 02       		.byte	0x2
 1137 03fc 23       		.byte	0x23
 1138 03fd 14       		.uleb128 0x14
 1139 03fe 0A       		.uleb128 0xa
 1140 03ff 13020000 		.4byte	.LASF61
 1141 0403 06       		.byte	0x6
 1142 0404 A501     		.2byte	0x1a5
 1143 0406 97000000 		.4byte	0x97
 1144 040a 02       		.byte	0x2
 1145 040b 23       		.byte	0x23
 1146 040c 18       		.uleb128 0x18
 1147 040d 0A       		.uleb128 0xa
 1148 040e 8A000000 		.4byte	.LASF62
 1149 0412 06       		.byte	0x6
 1150 0413 A601     		.2byte	0x1a6
 1151 0415 97000000 		.4byte	0x97
 1152 0419 02       		.byte	0x2
 1153 041a 23       		.byte	0x23
 1154 041b 1C       		.uleb128 0x1c
 1155 041c 0A       		.uleb128 0xa
 1156 041d 17000000 		.4byte	.LASF63
 1157 0421 06       		.byte	0x6
 1158 0422 A701     		.2byte	0x1a7
 1159 0424 97000000 		.4byte	0x97
 1160 0428 02       		.byte	0x2
 1161 0429 23       		.byte	0x23
 1162 042a 20       		.uleb128 0x20
 1163 042b 09       		.uleb128 0x9
 1164 042c 434E5400 		.ascii	"CNT\000"
 1165 0430 06       		.byte	0x6
 1166 0431 A801     		.2byte	0x1a8
 1167 0433 97000000 		.4byte	0x97
 1168 0437 02       		.byte	0x2
 1169 0438 23       		.byte	0x23
 1170 0439 24       		.uleb128 0x24
 1171 043a 09       		.uleb128 0x9
 1172 043b 50534300 		.ascii	"PSC\000"
 1173 043f 06       		.byte	0x6
 1174 0440 A901     		.2byte	0x1a9
 1175 0442 97000000 		.4byte	0x97
 1176 0446 02       		.byte	0x2
 1177 0447 23       		.byte	0x23
 1178 0448 28       		.uleb128 0x28
 1179 0449 09       		.uleb128 0x9
 1180 044a 41525200 		.ascii	"ARR\000"
 1181 044e 06       		.byte	0x6
 1182 044f AA01     		.2byte	0x1aa
 1183 0451 97000000 		.4byte	0x97
 1184 0455 02       		.byte	0x2
 1185 0456 23       		.byte	0x23
ARM GAS  C:\Users\DNIEL~1\AppData\Local\Temp\ccA10Ztq.s 			page 22


 1186 0457 2C       		.uleb128 0x2c
 1187 0458 09       		.uleb128 0x9
 1188 0459 52435200 		.ascii	"RCR\000"
 1189 045d 06       		.byte	0x6
 1190 045e AB01     		.2byte	0x1ab
 1191 0460 97000000 		.4byte	0x97
 1192 0464 02       		.byte	0x2
 1193 0465 23       		.byte	0x23
 1194 0466 30       		.uleb128 0x30
 1195 0467 09       		.uleb128 0x9
 1196 0468 43435200 		.ascii	"CCR\000"
 1197 046c 06       		.byte	0x6
 1198 046d AC01     		.2byte	0x1ac
 1199 046f DF040000 		.4byte	0x4df
 1200 0473 02       		.byte	0x2
 1201 0474 23       		.byte	0x23
 1202 0475 34       		.uleb128 0x34
 1203 0476 0A       		.uleb128 0xa
 1204 0477 6A030000 		.4byte	.LASF64
 1205 047b 06       		.byte	0x6
 1206 047c AD01     		.2byte	0x1ad
 1207 047e 97000000 		.4byte	0x97
 1208 0482 02       		.byte	0x2
 1209 0483 23       		.byte	0x23
 1210 0484 44       		.uleb128 0x44
 1211 0485 09       		.uleb128 0x9
 1212 0486 44435200 		.ascii	"DCR\000"
 1213 048a 06       		.byte	0x6
 1214 048b AE01     		.2byte	0x1ae
 1215 048d 97000000 		.4byte	0x97
 1216 0491 02       		.byte	0x2
 1217 0492 23       		.byte	0x23
 1218 0493 48       		.uleb128 0x48
 1219 0494 0A       		.uleb128 0xa
 1220 0495 7F000000 		.4byte	.LASF65
 1221 0499 06       		.byte	0x6
 1222 049a AF01     		.2byte	0x1af
 1223 049c 97000000 		.4byte	0x97
 1224 04a0 02       		.byte	0x2
 1225 04a1 23       		.byte	0x23
 1226 04a2 4C       		.uleb128 0x4c
 1227 04a3 09       		.uleb128 0x9
 1228 04a4 4F5200   		.ascii	"OR\000"
 1229 04a7 06       		.byte	0x6
 1230 04a8 B001     		.2byte	0x1b0
 1231 04aa 97000000 		.4byte	0x97
 1232 04ae 02       		.byte	0x2
 1233 04af 23       		.byte	0x23
 1234 04b0 50       		.uleb128 0x50
 1235 04b1 0A       		.uleb128 0xa
 1236 04b2 19020000 		.4byte	.LASF66
 1237 04b6 06       		.byte	0x6
 1238 04b7 B101     		.2byte	0x1b1
 1239 04b9 97000000 		.4byte	0x97
 1240 04bd 02       		.byte	0x2
 1241 04be 23       		.byte	0x23
 1242 04bf 54       		.uleb128 0x54
ARM GAS  C:\Users\DNIEL~1\AppData\Local\Temp\ccA10Ztq.s 			page 23


 1243 04c0 0A       		.uleb128 0xa
 1244 04c1 E8010000 		.4byte	.LASF67
 1245 04c5 06       		.byte	0x6
 1246 04c6 B201     		.2byte	0x1b2
 1247 04c8 97000000 		.4byte	0x97
 1248 04cc 02       		.byte	0x2
 1249 04cd 23       		.byte	0x23
 1250 04ce 58       		.uleb128 0x58
 1251 04cf 0A       		.uleb128 0xa
 1252 04d0 ED010000 		.4byte	.LASF68
 1253 04d4 06       		.byte	0x6
 1254 04d5 B301     		.2byte	0x1b3
 1255 04d7 97000000 		.4byte	0x97
 1256 04db 02       		.byte	0x2
 1257 04dc 23       		.byte	0x23
 1258 04dd 5C       		.uleb128 0x5c
 1259 04de 00       		.byte	0
 1260 04df 05       		.uleb128 0x5
 1261 04e0 BA000000 		.4byte	0xba
 1262 04e4 0B       		.uleb128 0xb
 1263 04e5 54030000 		.4byte	.LASF69
 1264 04e9 06       		.byte	0x6
 1265 04ea B401     		.2byte	0x1b4
 1266 04ec 9C030000 		.4byte	0x39c
 1267 04f0 0D       		.uleb128 0xd
 1268 04f1 01       		.byte	0x1
 1269 04f2 05       		.byte	0x5
 1270 04f3 EE       		.byte	0xee
 1271 04f4 05050000 		.4byte	0x505
 1272 04f8 0E       		.uleb128 0xe
 1273 04f9 B9030000 		.4byte	.LASF70
 1274 04fd 00       		.sleb128 0
 1275 04fe 0E       		.uleb128 0xe
 1276 04ff 77030000 		.4byte	.LASF71
 1277 0503 01       		.sleb128 1
 1278 0504 00       		.byte	0
 1279 0505 04       		.uleb128 0x4
 1280 0506 85010000 		.4byte	.LASF72
 1281 050a 05       		.byte	0x5
 1282 050b F1       		.byte	0xf1
 1283 050c F0040000 		.4byte	0x4f0
 1284 0510 04       		.uleb128 0x4
 1285 0511 14030000 		.4byte	.LASF73
 1286 0515 05       		.byte	0x5
 1287 0516 F6       		.byte	0xf6
 1288 0517 70000000 		.4byte	0x70
 1289 051b 0D       		.uleb128 0xd
 1290 051c 01       		.byte	0x1
 1291 051d 05       		.byte	0x5
 1292 051e FB       		.byte	0xfb
 1293 051f 30050000 		.4byte	0x530
 1294 0523 0E       		.uleb128 0xe
 1295 0524 1F010000 		.4byte	.LASF74
 1296 0528 00       		.sleb128 0
 1297 0529 0E       		.uleb128 0xe
 1298 052a 2D010000 		.4byte	.LASF75
 1299 052e 01       		.sleb128 1
ARM GAS  C:\Users\DNIEL~1\AppData\Local\Temp\ccA10Ztq.s 			page 24


 1300 052f 00       		.byte	0
 1301 0530 04       		.uleb128 0x4
 1302 0531 5C000000 		.4byte	.LASF76
 1303 0535 05       		.byte	0x5
 1304 0536 FE       		.byte	0xfe
 1305 0537 1B050000 		.4byte	0x51b
 1306 053b 08       		.uleb128 0x8
 1307 053c 1C       		.byte	0x1c
 1308 053d 05       		.byte	0x5
 1309 053e 0901     		.2byte	0x109
 1310 0540 AE050000 		.4byte	0x5ae
 1311 0544 0A       		.uleb128 0xa
 1312 0545 D9000000 		.4byte	.LASF77
 1313 0549 05       		.byte	0x5
 1314 054a 0D01     		.2byte	0x10d
 1315 054c 05050000 		.4byte	0x505
 1316 0550 02       		.byte	0x2
 1317 0551 23       		.byte	0x23
 1318 0552 00       		.uleb128 0
 1319 0553 0A       		.uleb128 0xa
 1320 0554 2A040000 		.4byte	.LASF78
 1321 0558 05       		.byte	0x5
 1322 0559 1301     		.2byte	0x113
 1323 055b 10050000 		.4byte	0x510
 1324 055f 02       		.byte	0x2
 1325 0560 23       		.byte	0x23
 1326 0561 04       		.uleb128 0x4
 1327 0562 0A       		.uleb128 0xa
 1328 0563 4C010000 		.4byte	.LASF79
 1329 0567 05       		.byte	0x5
 1330 0568 1701     		.2byte	0x117
 1331 056a 79030000 		.4byte	0x379
 1332 056e 02       		.byte	0x2
 1333 056f 23       		.byte	0x23
 1334 0570 08       		.uleb128 0x8
 1335 0571 0A       		.uleb128 0xa
 1336 0572 60030000 		.4byte	.LASF80
 1337 0576 05       		.byte	0x5
 1338 0577 1B01     		.2byte	0x11b
 1339 0579 79030000 		.4byte	0x379
 1340 057d 02       		.byte	0x2
 1341 057e 23       		.byte	0x23
 1342 057f 0C       		.uleb128 0xc
 1343 0580 0A       		.uleb128 0xa
 1344 0581 0F040000 		.4byte	.LASF81
 1345 0585 05       		.byte	0x5
 1346 0586 1F01     		.2byte	0x11f
 1347 0588 79030000 		.4byte	0x379
 1348 058c 02       		.byte	0x2
 1349 058d 23       		.byte	0x23
 1350 058e 10       		.uleb128 0x10
 1351 058f 0A       		.uleb128 0xa
 1352 0590 92030000 		.4byte	.LASF82
 1353 0594 05       		.byte	0x5
 1354 0595 2501     		.2byte	0x125
 1355 0597 30050000 		.4byte	0x530
 1356 059b 02       		.byte	0x2
ARM GAS  C:\Users\DNIEL~1\AppData\Local\Temp\ccA10Ztq.s 			page 25


 1357 059c 23       		.byte	0x23
 1358 059d 14       		.uleb128 0x14
 1359 059e 0A       		.uleb128 0xa
 1360 059f 1B040000 		.4byte	.LASF83
 1361 05a3 05       		.byte	0x5
 1362 05a4 2B01     		.2byte	0x12b
 1363 05a6 70000000 		.4byte	0x70
 1364 05aa 02       		.byte	0x2
 1365 05ab 23       		.byte	0x23
 1366 05ac 18       		.uleb128 0x18
 1367 05ad 00       		.byte	0
 1368 05ae 0B       		.uleb128 0xb
 1369 05af 56020000 		.4byte	.LASF84
 1370 05b3 05       		.byte	0x5
 1371 05b4 2C01     		.2byte	0x12c
 1372 05b6 3B050000 		.4byte	0x53b
 1373 05ba 0C       		.uleb128 0xc
 1374 05bb 04       		.byte	0x4
 1375 05bc C0050000 		.4byte	0x5c0
 1376 05c0 12       		.uleb128 0x12
 1377 05c1 AE050000 		.4byte	0x5ae
 1378 05c5 0C       		.uleb128 0xc
 1379 05c6 04       		.byte	0x4
 1380 05c7 E4040000 		.4byte	0x4e4
 1381 05cb 13       		.uleb128 0x13
 1382 05cc 47040000 		.4byte	.LASF101
 1383 05d0 01       		.byte	0x1
 1384 05d1 6F       		.byte	0x6f
 1385 05d2 01       		.byte	0x1
 1386 05d3 01       		.byte	0x1
 1387 05d4 0C060000 		.4byte	0x60c
 1388 05d8 14       		.uleb128 0x14
 1389 05d9 9A000000 		.4byte	.LASF91
 1390 05dd 01       		.byte	0x1
 1391 05de 6F       		.byte	0x6f
 1392 05df 96030000 		.4byte	0x396
 1393 05e3 15       		.uleb128 0x15
 1394 05e4 737200   		.ascii	"sr\000"
 1395 05e7 01       		.byte	0x1
 1396 05e8 70       		.byte	0x70
 1397 05e9 4C000000 		.4byte	0x4c
 1398 05ed 16       		.uleb128 0x16
 1399 05ee FE050000 		.4byte	0x5fe
 1400 05f2 17       		.uleb128 0x17
 1401 05f3 7F020000 		.4byte	.LASF85
 1402 05f7 01       		.byte	0x1
 1403 05f8 77       		.byte	0x77
 1404 05f9 FB020000 		.4byte	0x2fb
 1405 05fd 00       		.byte	0
 1406 05fe 18       		.uleb128 0x18
 1407 05ff 17       		.uleb128 0x17
 1408 0600 7F020000 		.4byte	.LASF85
 1409 0604 01       		.byte	0x1
 1410 0605 7E       		.byte	0x7e
 1411 0606 FB020000 		.4byte	0x2fb
 1412 060a 00       		.byte	0
 1413 060b 00       		.byte	0
ARM GAS  C:\Users\DNIEL~1\AppData\Local\Temp\ccA10Ztq.s 			page 26


 1414 060c 19       		.uleb128 0x19
 1415 060d CB050000 		.4byte	0x5cb
 1416 0611 00000000 		.4byte	.LFB126
 1417 0615 90000000 		.4byte	.LFE126
 1418 0619 00000000 		.4byte	.LLST0
 1419 061d 01       		.byte	0x1
 1420 061e AA060000 		.4byte	0x6aa
 1421 0622 1A       		.uleb128 0x1a
 1422 0623 E3050000 		.4byte	0x5e3
 1423 0627 20000000 		.4byte	.LLST1
 1424 062b 1B       		.uleb128 0x1b
 1425 062c D8050000 		.4byte	0x5d8
 1426 0630 06       		.byte	0x6
 1427 0631 03       		.byte	0x3
 1428 0632 00000000 		.4byte	ICUD1
 1429 0636 9F       		.byte	0x9f
 1430 0637 1C       		.uleb128 0x1c
 1431 0638 22000000 		.4byte	.LBB4
 1432 063c 32000000 		.4byte	.LBE4
 1433 0640 5A060000 		.4byte	0x65a
 1434 0644 1A       		.uleb128 0x1a
 1435 0645 F2050000 		.4byte	0x5f2
 1436 0649 43000000 		.4byte	.LLST2
 1437 064d 1D       		.uleb128 0x1d
 1438 064e 32000000 		.4byte	.LVL4
 1439 0652 1E       		.uleb128 0x1e
 1440 0653 01       		.byte	0x1
 1441 0654 50       		.byte	0x50
 1442 0655 02       		.byte	0x2
 1443 0656 74       		.byte	0x74
 1444 0657 00       		.sleb128 0
 1445 0658 00       		.byte	0
 1446 0659 00       		.byte	0
 1447 065a 1C       		.uleb128 0x1c
 1448 065b 64000000 		.4byte	.LBB5
 1449 065f 78000000 		.4byte	.LBE5
 1450 0663 7D060000 		.4byte	0x67d
 1451 0667 1A       		.uleb128 0x1a
 1452 0668 FF050000 		.4byte	0x5ff
 1453 066c 5A000000 		.4byte	.LLST3
 1454 0670 1D       		.uleb128 0x1d
 1455 0671 76000000 		.4byte	.LVL8
 1456 0675 1E       		.uleb128 0x1e
 1457 0676 01       		.byte	0x1
 1458 0677 50       		.byte	0x50
 1459 0678 02       		.byte	0x2
 1460 0679 74       		.byte	0x74
 1461 067a 00       		.sleb128 0
 1462 067b 00       		.byte	0
 1463 067c 00       		.byte	0
 1464 067d 1F       		.uleb128 0x1f
 1465 067e 46000000 		.4byte	.LVL5
 1466 0682 8D060000 		.4byte	0x68d
 1467 0686 1E       		.uleb128 0x1e
 1468 0687 01       		.byte	0x1
 1469 0688 50       		.byte	0x50
 1470 0689 02       		.byte	0x2
ARM GAS  C:\Users\DNIEL~1\AppData\Local\Temp\ccA10Ztq.s 			page 27


 1471 068a 74       		.byte	0x74
 1472 068b 00       		.sleb128 0
 1473 068c 00       		.byte	0
 1474 068d 1F       		.uleb128 0x1f
 1475 068e 5A000000 		.4byte	.LVL6
 1476 0692 9D060000 		.4byte	0x69d
 1477 0696 1E       		.uleb128 0x1e
 1478 0697 01       		.byte	0x1
 1479 0698 50       		.byte	0x50
 1480 0699 02       		.byte	0x2
 1481 069a 74       		.byte	0x74
 1482 069b 00       		.sleb128 0
 1483 069c 00       		.byte	0
 1484 069d 1D       		.uleb128 0x1d
 1485 069e 8A000000 		.4byte	.LVL9
 1486 06a2 1E       		.uleb128 0x1e
 1487 06a3 01       		.byte	0x1
 1488 06a4 50       		.byte	0x50
 1489 06a5 02       		.byte	0x2
 1490 06a6 74       		.byte	0x74
 1491 06a7 00       		.sleb128 0
 1492 06a8 00       		.byte	0
 1493 06a9 00       		.byte	0
 1494 06aa 20       		.uleb128 0x20
 1495 06ab 01       		.byte	0x1
 1496 06ac C7000000 		.4byte	.LASF86
 1497 06b0 01       		.byte	0x1
 1498 06b1 94       		.byte	0x94
 1499 06b2 01       		.byte	0x1
 1500 06b3 00000000 		.4byte	.LFB119
 1501 06b7 0E000000 		.4byte	.LFE119
 1502 06bb 71000000 		.4byte	.LLST4
 1503 06bf 01       		.byte	0x1
 1504 06c0 D8060000 		.4byte	0x6d8
 1505 06c4 21       		.uleb128 0x21
 1506 06c5 06000000 		.4byte	.LVL10
 1507 06c9 0C060000 		.4byte	0x60c
 1508 06cd 22       		.uleb128 0x22
 1509 06ce 0E000000 		.4byte	.LVL11
 1510 06d2 01       		.byte	0x1
 1511 06d3 5C080000 		.4byte	0x85c
 1512 06d7 00       		.byte	0
 1513 06d8 20       		.uleb128 0x20
 1514 06d9 01       		.byte	0x1
 1515 06da 0E010000 		.4byte	.LASF87
 1516 06de 01       		.byte	0x1
 1517 06df A8       		.byte	0xa8
 1518 06e0 01       		.byte	0x1
 1519 06e1 00000000 		.4byte	.LFB120
 1520 06e5 0E000000 		.4byte	.LFE120
 1521 06e9 91000000 		.4byte	.LLST5
 1522 06ed 01       		.byte	0x1
 1523 06ee 06070000 		.4byte	0x706
 1524 06f2 21       		.uleb128 0x21
 1525 06f3 06000000 		.4byte	.LVL12
 1526 06f7 0C060000 		.4byte	0x60c
 1527 06fb 22       		.uleb128 0x22
ARM GAS  C:\Users\DNIEL~1\AppData\Local\Temp\ccA10Ztq.s 			page 28


 1528 06fc 0E000000 		.4byte	.LVL13
 1529 0700 01       		.byte	0x1
 1530 0701 5C080000 		.4byte	0x85c
 1531 0705 00       		.byte	0
 1532 0706 23       		.uleb128 0x23
 1533 0707 01       		.byte	0x1
 1534 0708 9A020000 		.4byte	.LASF88
 1535 070c 01       		.byte	0x1
 1536 070d 5301     		.2byte	0x153
 1537 070f 01       		.byte	0x1
 1538 0710 00000000 		.4byte	.LFB121
 1539 0714 1A000000 		.4byte	.LFE121
 1540 0718 B1000000 		.4byte	.LLST6
 1541 071c 01       		.byte	0x1
 1542 071d 32070000 		.4byte	0x732
 1543 0721 24       		.uleb128 0x24
 1544 0722 10000000 		.4byte	.LVL14
 1545 0726 67080000 		.4byte	0x867
 1546 072a 1E       		.uleb128 0x1e
 1547 072b 01       		.byte	0x1
 1548 072c 50       		.byte	0x50
 1549 072d 02       		.byte	0x2
 1550 072e 74       		.byte	0x74
 1551 072f 00       		.sleb128 0
 1552 0730 00       		.byte	0
 1553 0731 00       		.byte	0
 1554 0732 23       		.uleb128 0x23
 1555 0733 01       		.byte	0x1
 1556 0734 69000000 		.4byte	.LASF89
 1557 0738 01       		.byte	0x1
 1558 0739 8701     		.2byte	0x187
 1559 073b 01       		.byte	0x1
 1560 073c 00000000 		.4byte	.LFB122
 1561 0740 C8000000 		.4byte	.LFE122
 1562 0744 D1000000 		.4byte	.LLST7
 1563 0748 01       		.byte	0x1
 1564 0749 98070000 		.4byte	0x798
 1565 074d 25       		.uleb128 0x25
 1566 074e 9A000000 		.4byte	.LASF91
 1567 0752 01       		.byte	0x1
 1568 0753 8701     		.2byte	0x187
 1569 0755 96030000 		.4byte	0x396
 1570 0759 F1000000 		.4byte	.LLST8
 1571 075d 26       		.uleb128 0x26
 1572 075e 70736300 		.ascii	"psc\000"
 1573 0762 01       		.byte	0x1
 1574 0763 8801     		.2byte	0x188
 1575 0765 70000000 		.4byte	0x70
 1576 0769 27       		.uleb128 0x27
 1577 076a B0000000 		.4byte	.LVL19
 1578 076e 7B080000 		.4byte	0x87b
 1579 0772 82070000 		.4byte	0x782
 1580 0776 1E       		.uleb128 0x1e
 1581 0777 01       		.byte	0x1
 1582 0778 51       		.byte	0x51
 1583 0779 02       		.byte	0x2
 1584 077a 08       		.byte	0x8
ARM GAS  C:\Users\DNIEL~1\AppData\Local\Temp\ccA10Ztq.s 			page 29


 1585 077b 70       		.byte	0x70
 1586 077c 1E       		.uleb128 0x1e
 1587 077d 01       		.byte	0x1
 1588 077e 50       		.byte	0x50
 1589 077f 01       		.byte	0x1
 1590 0780 49       		.byte	0x49
 1591 0781 00       		.byte	0
 1592 0782 24       		.uleb128 0x24
 1593 0783 B8000000 		.4byte	.LVL20
 1594 0787 7B080000 		.4byte	0x87b
 1595 078b 1E       		.uleb128 0x1e
 1596 078c 01       		.byte	0x1
 1597 078d 51       		.byte	0x51
 1598 078e 02       		.byte	0x2
 1599 078f 08       		.byte	0x8
 1600 0790 70       		.byte	0x70
 1601 0791 1E       		.uleb128 0x1e
 1602 0792 01       		.byte	0x1
 1603 0793 50       		.byte	0x50
 1604 0794 01       		.byte	0x1
 1605 0795 4B       		.byte	0x4b
 1606 0796 00       		.byte	0
 1607 0797 00       		.byte	0
 1608 0798 23       		.uleb128 0x23
 1609 0799 01       		.byte	0x1
 1610 079a 0A000000 		.4byte	.LASF90
 1611 079e 01       		.byte	0x1
 1612 079f 2902     		.2byte	0x229
 1613 07a1 01       		.byte	0x1
 1614 07a2 00000000 		.4byte	.LFB123
 1615 07a6 3C000000 		.4byte	.LFE123
 1616 07aa 25010000 		.4byte	.LLST9
 1617 07ae 01       		.byte	0x1
 1618 07af E6070000 		.4byte	0x7e6
 1619 07b3 25       		.uleb128 0x25
 1620 07b4 9A000000 		.4byte	.LASF91
 1621 07b8 01       		.byte	0x1
 1622 07b9 2902     		.2byte	0x229
 1623 07bb 96030000 		.4byte	0x396
 1624 07bf 45010000 		.4byte	.LLST10
 1625 07c3 27       		.uleb128 0x27
 1626 07c4 20000000 		.4byte	.LVL25
 1627 07c8 95080000 		.4byte	0x895
 1628 07cc D6070000 		.4byte	0x7d6
 1629 07d0 1E       		.uleb128 0x1e
 1630 07d1 01       		.byte	0x1
 1631 07d2 50       		.byte	0x50
 1632 07d3 01       		.byte	0x1
 1633 07d4 49       		.byte	0x49
 1634 07d5 00       		.byte	0
 1635 07d6 24       		.uleb128 0x24
 1636 07d7 26000000 		.4byte	.LVL26
 1637 07db 95080000 		.4byte	0x895
 1638 07df 1E       		.uleb128 0x1e
 1639 07e0 01       		.byte	0x1
 1640 07e1 50       		.byte	0x50
 1641 07e2 01       		.byte	0x1
ARM GAS  C:\Users\DNIEL~1\AppData\Local\Temp\ccA10Ztq.s 			page 30


 1642 07e3 4B       		.byte	0x4b
 1643 07e4 00       		.byte	0
 1644 07e5 00       		.byte	0
 1645 07e6 28       		.uleb128 0x28
 1646 07e7 01       		.byte	0x1
 1647 07e8 AD000000 		.4byte	.LASF92
 1648 07ec 01       		.byte	0x1
 1649 07ed 6702     		.2byte	0x267
 1650 07ef 01       		.byte	0x1
 1651 07f0 00000000 		.4byte	.LFB124
 1652 07f4 52000000 		.4byte	.LFE124
 1653 07f8 02       		.byte	0x2
 1654 07f9 7D       		.byte	0x7d
 1655 07fa 00       		.sleb128 0
 1656 07fb 01       		.byte	0x1
 1657 07fc 11080000 		.4byte	0x811
 1658 0800 25       		.uleb128 0x25
 1659 0801 9A000000 		.4byte	.LASF91
 1660 0805 01       		.byte	0x1
 1661 0806 6702     		.2byte	0x267
 1662 0808 96030000 		.4byte	0x396
 1663 080c 7F010000 		.4byte	.LLST11
 1664 0810 00       		.byte	0
 1665 0811 28       		.uleb128 0x28
 1666 0812 01       		.byte	0x1
 1667 0813 DE000000 		.4byte	.LASF93
 1668 0817 01       		.byte	0x1
 1669 0818 8202     		.2byte	0x282
 1670 081a 01       		.byte	0x1
 1671 081b 00000000 		.4byte	.LFB125
 1672 081f 12000000 		.4byte	.LFE125
 1673 0823 02       		.byte	0x2
 1674 0824 7D       		.byte	0x7d
 1675 0825 00       		.sleb128 0
 1676 0826 01       		.byte	0x1
 1677 0827 3C080000 		.4byte	0x83c
 1678 082b 25       		.uleb128 0x25
 1679 082c 9A000000 		.4byte	.LASF91
 1680 0830 01       		.byte	0x1
 1681 0831 8202     		.2byte	0x282
 1682 0833 96030000 		.4byte	0x396
 1683 0837 A0010000 		.4byte	.LLST12
 1684 083b 00       		.byte	0
 1685 083c 29       		.uleb128 0x29
 1686 083d 76040000 		.4byte	.LASF94
 1687 0841 07       		.byte	0x7
 1688 0842 9806     		.2byte	0x698
 1689 0844 CA000000 		.4byte	0xca
 1690 0848 01       		.byte	0x1
 1691 0849 01       		.byte	0x1
 1692 084a 2A       		.uleb128 0x2a
 1693 084b 60020000 		.4byte	.LASF95
 1694 084f 01       		.byte	0x1
 1695 0850 2F       		.byte	0x2f
 1696 0851 06030000 		.4byte	0x306
 1697 0855 01       		.byte	0x1
 1698 0856 05       		.byte	0x5
ARM GAS  C:\Users\DNIEL~1\AppData\Local\Temp\ccA10Ztq.s 			page 31


 1699 0857 03       		.byte	0x3
 1700 0858 00000000 		.4byte	ICUD1
 1701 085c 2B       		.uleb128 0x2b
 1702 085d 01       		.byte	0x1
 1703 085e 35020000 		.4byte	.LASF102
 1704 0862 09       		.byte	0x9
 1705 0863 0302     		.2byte	0x203
 1706 0865 01       		.byte	0x1
 1707 0866 01       		.byte	0x1
 1708 0867 2C       		.uleb128 0x2c
 1709 0868 01       		.byte	0x1
 1710 0869 68040000 		.4byte	.LASF96
 1711 086d 04       		.byte	0x4
 1712 086e BE       		.byte	0xbe
 1713 086f 01       		.byte	0x1
 1714 0870 01       		.byte	0x1
 1715 0871 7B080000 		.4byte	0x87b
 1716 0875 11       		.uleb128 0x11
 1717 0876 96030000 		.4byte	0x396
 1718 087a 00       		.byte	0
 1719 087b 2D       		.uleb128 0x2d
 1720 087c 01       		.byte	0x1
 1721 087d 6E020000 		.4byte	.LASF97
 1722 0881 08       		.byte	0x8
 1723 0882 2301     		.2byte	0x123
 1724 0884 01       		.byte	0x1
 1725 0885 01       		.byte	0x1
 1726 0886 95080000 		.4byte	0x895
 1727 088a 11       		.uleb128 0x11
 1728 088b 70000000 		.4byte	0x70
 1729 088f 11       		.uleb128 0x11
 1730 0890 70000000 		.4byte	0x70
 1731 0894 00       		.byte	0
 1732 0895 2E       		.uleb128 0x2e
 1733 0896 01       		.byte	0x1
 1734 0897 D6010000 		.4byte	.LASF103
 1735 089b 08       		.byte	0x8
 1736 089c 2401     		.2byte	0x124
 1737 089e 01       		.byte	0x1
 1738 089f 01       		.byte	0x1
 1739 08a0 11       		.uleb128 0x11
 1740 08a1 70000000 		.4byte	0x70
 1741 08a5 00       		.byte	0
 1742 08a6 00       		.byte	0
 1743              		.section	.debug_abbrev,"",%progbits
 1744              	.Ldebug_abbrev0:
 1745 0000 01       		.uleb128 0x1
 1746 0001 11       		.uleb128 0x11
 1747 0002 01       		.byte	0x1
 1748 0003 25       		.uleb128 0x25
 1749 0004 0E       		.uleb128 0xe
 1750 0005 13       		.uleb128 0x13
 1751 0006 0B       		.uleb128 0xb
 1752 0007 03       		.uleb128 0x3
 1753 0008 0E       		.uleb128 0xe
 1754 0009 1B       		.uleb128 0x1b
 1755 000a 0E       		.uleb128 0xe
ARM GAS  C:\Users\DNIEL~1\AppData\Local\Temp\ccA10Ztq.s 			page 32


 1756 000b 55       		.uleb128 0x55
 1757 000c 06       		.uleb128 0x6
 1758 000d 11       		.uleb128 0x11
 1759 000e 01       		.uleb128 0x1
 1760 000f 52       		.uleb128 0x52
 1761 0010 01       		.uleb128 0x1
 1762 0011 10       		.uleb128 0x10
 1763 0012 06       		.uleb128 0x6
 1764 0013 00       		.byte	0
 1765 0014 00       		.byte	0
 1766 0015 02       		.uleb128 0x2
 1767 0016 24       		.uleb128 0x24
 1768 0017 00       		.byte	0
 1769 0018 0B       		.uleb128 0xb
 1770 0019 0B       		.uleb128 0xb
 1771 001a 3E       		.uleb128 0x3e
 1772 001b 0B       		.uleb128 0xb
 1773 001c 03       		.uleb128 0x3
 1774 001d 08       		.uleb128 0x8
 1775 001e 00       		.byte	0
 1776 001f 00       		.byte	0
 1777 0020 03       		.uleb128 0x3
 1778 0021 24       		.uleb128 0x24
 1779 0022 00       		.byte	0
 1780 0023 0B       		.uleb128 0xb
 1781 0024 0B       		.uleb128 0xb
 1782 0025 3E       		.uleb128 0x3e
 1783 0026 0B       		.uleb128 0xb
 1784 0027 03       		.uleb128 0x3
 1785 0028 0E       		.uleb128 0xe
 1786 0029 00       		.byte	0
 1787 002a 00       		.byte	0
 1788 002b 04       		.uleb128 0x4
 1789 002c 16       		.uleb128 0x16
 1790 002d 00       		.byte	0
 1791 002e 03       		.uleb128 0x3
 1792 002f 0E       		.uleb128 0xe
 1793 0030 3A       		.uleb128 0x3a
 1794 0031 0B       		.uleb128 0xb
 1795 0032 3B       		.uleb128 0x3b
 1796 0033 0B       		.uleb128 0xb
 1797 0034 49       		.uleb128 0x49
 1798 0035 13       		.uleb128 0x13
 1799 0036 00       		.byte	0
 1800 0037 00       		.byte	0
 1801 0038 05       		.uleb128 0x5
 1802 0039 35       		.uleb128 0x35
 1803 003a 00       		.byte	0
 1804 003b 49       		.uleb128 0x49
 1805 003c 13       		.uleb128 0x13
 1806 003d 00       		.byte	0
 1807 003e 00       		.byte	0
 1808 003f 06       		.uleb128 0x6
 1809 0040 01       		.uleb128 0x1
 1810 0041 01       		.byte	0x1
 1811 0042 49       		.uleb128 0x49
 1812 0043 13       		.uleb128 0x13
ARM GAS  C:\Users\DNIEL~1\AppData\Local\Temp\ccA10Ztq.s 			page 33


 1813 0044 01       		.uleb128 0x1
 1814 0045 13       		.uleb128 0x13
 1815 0046 00       		.byte	0
 1816 0047 00       		.byte	0
 1817 0048 07       		.uleb128 0x7
 1818 0049 21       		.uleb128 0x21
 1819 004a 00       		.byte	0
 1820 004b 49       		.uleb128 0x49
 1821 004c 13       		.uleb128 0x13
 1822 004d 2F       		.uleb128 0x2f
 1823 004e 0B       		.uleb128 0xb
 1824 004f 00       		.byte	0
 1825 0050 00       		.byte	0
 1826 0051 08       		.uleb128 0x8
 1827 0052 13       		.uleb128 0x13
 1828 0053 01       		.byte	0x1
 1829 0054 0B       		.uleb128 0xb
 1830 0055 0B       		.uleb128 0xb
 1831 0056 3A       		.uleb128 0x3a
 1832 0057 0B       		.uleb128 0xb
 1833 0058 3B       		.uleb128 0x3b
 1834 0059 05       		.uleb128 0x5
 1835 005a 01       		.uleb128 0x1
 1836 005b 13       		.uleb128 0x13
 1837 005c 00       		.byte	0
 1838 005d 00       		.byte	0
 1839 005e 09       		.uleb128 0x9
 1840 005f 0D       		.uleb128 0xd
 1841 0060 00       		.byte	0
 1842 0061 03       		.uleb128 0x3
 1843 0062 08       		.uleb128 0x8
 1844 0063 3A       		.uleb128 0x3a
 1845 0064 0B       		.uleb128 0xb
 1846 0065 3B       		.uleb128 0x3b
 1847 0066 05       		.uleb128 0x5
 1848 0067 49       		.uleb128 0x49
 1849 0068 13       		.uleb128 0x13
 1850 0069 38       		.uleb128 0x38
 1851 006a 0A       		.uleb128 0xa
 1852 006b 00       		.byte	0
 1853 006c 00       		.byte	0
 1854 006d 0A       		.uleb128 0xa
 1855 006e 0D       		.uleb128 0xd
 1856 006f 00       		.byte	0
 1857 0070 03       		.uleb128 0x3
 1858 0071 0E       		.uleb128 0xe
 1859 0072 3A       		.uleb128 0x3a
 1860 0073 0B       		.uleb128 0xb
 1861 0074 3B       		.uleb128 0x3b
 1862 0075 05       		.uleb128 0x5
 1863 0076 49       		.uleb128 0x49
 1864 0077 13       		.uleb128 0x13
 1865 0078 38       		.uleb128 0x38
 1866 0079 0A       		.uleb128 0xa
 1867 007a 00       		.byte	0
 1868 007b 00       		.byte	0
 1869 007c 0B       		.uleb128 0xb
ARM GAS  C:\Users\DNIEL~1\AppData\Local\Temp\ccA10Ztq.s 			page 34


 1870 007d 16       		.uleb128 0x16
 1871 007e 00       		.byte	0
 1872 007f 03       		.uleb128 0x3
 1873 0080 0E       		.uleb128 0xe
 1874 0081 3A       		.uleb128 0x3a
 1875 0082 0B       		.uleb128 0xb
 1876 0083 3B       		.uleb128 0x3b
 1877 0084 05       		.uleb128 0x5
 1878 0085 49       		.uleb128 0x49
 1879 0086 13       		.uleb128 0x13
 1880 0087 00       		.byte	0
 1881 0088 00       		.byte	0
 1882 0089 0C       		.uleb128 0xc
 1883 008a 0F       		.uleb128 0xf
 1884 008b 00       		.byte	0
 1885 008c 0B       		.uleb128 0xb
 1886 008d 0B       		.uleb128 0xb
 1887 008e 49       		.uleb128 0x49
 1888 008f 13       		.uleb128 0x13
 1889 0090 00       		.byte	0
 1890 0091 00       		.byte	0
 1891 0092 0D       		.uleb128 0xd
 1892 0093 04       		.uleb128 0x4
 1893 0094 01       		.byte	0x1
 1894 0095 0B       		.uleb128 0xb
 1895 0096 0B       		.uleb128 0xb
 1896 0097 3A       		.uleb128 0x3a
 1897 0098 0B       		.uleb128 0xb
 1898 0099 3B       		.uleb128 0x3b
 1899 009a 0B       		.uleb128 0xb
 1900 009b 01       		.uleb128 0x1
 1901 009c 13       		.uleb128 0x13
 1902 009d 00       		.byte	0
 1903 009e 00       		.byte	0
 1904 009f 0E       		.uleb128 0xe
 1905 00a0 28       		.uleb128 0x28
 1906 00a1 00       		.byte	0
 1907 00a2 03       		.uleb128 0x3
 1908 00a3 0E       		.uleb128 0xe
 1909 00a4 1C       		.uleb128 0x1c
 1910 00a5 0D       		.uleb128 0xd
 1911 00a6 00       		.byte	0
 1912 00a7 00       		.byte	0
 1913 00a8 0F       		.uleb128 0xf
 1914 00a9 13       		.uleb128 0x13
 1915 00aa 01       		.byte	0x1
 1916 00ab 03       		.uleb128 0x3
 1917 00ac 0E       		.uleb128 0xe
 1918 00ad 0B       		.uleb128 0xb
 1919 00ae 0B       		.uleb128 0xb
 1920 00af 3A       		.uleb128 0x3a
 1921 00b0 0B       		.uleb128 0xb
 1922 00b1 3B       		.uleb128 0x3b
 1923 00b2 05       		.uleb128 0x5
 1924 00b3 01       		.uleb128 0x1
 1925 00b4 13       		.uleb128 0x13
 1926 00b5 00       		.byte	0
ARM GAS  C:\Users\DNIEL~1\AppData\Local\Temp\ccA10Ztq.s 			page 35


 1927 00b6 00       		.byte	0
 1928 00b7 10       		.uleb128 0x10
 1929 00b8 15       		.uleb128 0x15
 1930 00b9 01       		.byte	0x1
 1931 00ba 27       		.uleb128 0x27
 1932 00bb 0C       		.uleb128 0xc
 1933 00bc 01       		.uleb128 0x1
 1934 00bd 13       		.uleb128 0x13
 1935 00be 00       		.byte	0
 1936 00bf 00       		.byte	0
 1937 00c0 11       		.uleb128 0x11
 1938 00c1 05       		.uleb128 0x5
 1939 00c2 00       		.byte	0
 1940 00c3 49       		.uleb128 0x49
 1941 00c4 13       		.uleb128 0x13
 1942 00c5 00       		.byte	0
 1943 00c6 00       		.byte	0
 1944 00c7 12       		.uleb128 0x12
 1945 00c8 26       		.uleb128 0x26
 1946 00c9 00       		.byte	0
 1947 00ca 49       		.uleb128 0x49
 1948 00cb 13       		.uleb128 0x13
 1949 00cc 00       		.byte	0
 1950 00cd 00       		.byte	0
 1951 00ce 13       		.uleb128 0x13
 1952 00cf 2E       		.uleb128 0x2e
 1953 00d0 01       		.byte	0x1
 1954 00d1 03       		.uleb128 0x3
 1955 00d2 0E       		.uleb128 0xe
 1956 00d3 3A       		.uleb128 0x3a
 1957 00d4 0B       		.uleb128 0xb
 1958 00d5 3B       		.uleb128 0x3b
 1959 00d6 0B       		.uleb128 0xb
 1960 00d7 27       		.uleb128 0x27
 1961 00d8 0C       		.uleb128 0xc
 1962 00d9 20       		.uleb128 0x20
 1963 00da 0B       		.uleb128 0xb
 1964 00db 01       		.uleb128 0x1
 1965 00dc 13       		.uleb128 0x13
 1966 00dd 00       		.byte	0
 1967 00de 00       		.byte	0
 1968 00df 14       		.uleb128 0x14
 1969 00e0 05       		.uleb128 0x5
 1970 00e1 00       		.byte	0
 1971 00e2 03       		.uleb128 0x3
 1972 00e3 0E       		.uleb128 0xe
 1973 00e4 3A       		.uleb128 0x3a
 1974 00e5 0B       		.uleb128 0xb
 1975 00e6 3B       		.uleb128 0x3b
 1976 00e7 0B       		.uleb128 0xb
 1977 00e8 49       		.uleb128 0x49
 1978 00e9 13       		.uleb128 0x13
 1979 00ea 00       		.byte	0
 1980 00eb 00       		.byte	0
 1981 00ec 15       		.uleb128 0x15
 1982 00ed 34       		.uleb128 0x34
 1983 00ee 00       		.byte	0
ARM GAS  C:\Users\DNIEL~1\AppData\Local\Temp\ccA10Ztq.s 			page 36


 1984 00ef 03       		.uleb128 0x3
 1985 00f0 08       		.uleb128 0x8
 1986 00f1 3A       		.uleb128 0x3a
 1987 00f2 0B       		.uleb128 0xb
 1988 00f3 3B       		.uleb128 0x3b
 1989 00f4 0B       		.uleb128 0xb
 1990 00f5 49       		.uleb128 0x49
 1991 00f6 13       		.uleb128 0x13
 1992 00f7 00       		.byte	0
 1993 00f8 00       		.byte	0
 1994 00f9 16       		.uleb128 0x16
 1995 00fa 0B       		.uleb128 0xb
 1996 00fb 01       		.byte	0x1
 1997 00fc 01       		.uleb128 0x1
 1998 00fd 13       		.uleb128 0x13
 1999 00fe 00       		.byte	0
 2000 00ff 00       		.byte	0
 2001 0100 17       		.uleb128 0x17
 2002 0101 34       		.uleb128 0x34
 2003 0102 00       		.byte	0
 2004 0103 03       		.uleb128 0x3
 2005 0104 0E       		.uleb128 0xe
 2006 0105 3A       		.uleb128 0x3a
 2007 0106 0B       		.uleb128 0xb
 2008 0107 3B       		.uleb128 0x3b
 2009 0108 0B       		.uleb128 0xb
 2010 0109 49       		.uleb128 0x49
 2011 010a 13       		.uleb128 0x13
 2012 010b 00       		.byte	0
 2013 010c 00       		.byte	0
 2014 010d 18       		.uleb128 0x18
 2015 010e 0B       		.uleb128 0xb
 2016 010f 01       		.byte	0x1
 2017 0110 00       		.byte	0
 2018 0111 00       		.byte	0
 2019 0112 19       		.uleb128 0x19
 2020 0113 2E       		.uleb128 0x2e
 2021 0114 01       		.byte	0x1
 2022 0115 31       		.uleb128 0x31
 2023 0116 13       		.uleb128 0x13
 2024 0117 11       		.uleb128 0x11
 2025 0118 01       		.uleb128 0x1
 2026 0119 12       		.uleb128 0x12
 2027 011a 01       		.uleb128 0x1
 2028 011b 40       		.uleb128 0x40
 2029 011c 06       		.uleb128 0x6
 2030 011d 9742     		.uleb128 0x2117
 2031 011f 0C       		.uleb128 0xc
 2032 0120 01       		.uleb128 0x1
 2033 0121 13       		.uleb128 0x13
 2034 0122 00       		.byte	0
 2035 0123 00       		.byte	0
 2036 0124 1A       		.uleb128 0x1a
 2037 0125 34       		.uleb128 0x34
 2038 0126 00       		.byte	0
 2039 0127 31       		.uleb128 0x31
 2040 0128 13       		.uleb128 0x13
ARM GAS  C:\Users\DNIEL~1\AppData\Local\Temp\ccA10Ztq.s 			page 37


 2041 0129 02       		.uleb128 0x2
 2042 012a 06       		.uleb128 0x6
 2043 012b 00       		.byte	0
 2044 012c 00       		.byte	0
 2045 012d 1B       		.uleb128 0x1b
 2046 012e 05       		.uleb128 0x5
 2047 012f 00       		.byte	0
 2048 0130 31       		.uleb128 0x31
 2049 0131 13       		.uleb128 0x13
 2050 0132 02       		.uleb128 0x2
 2051 0133 0A       		.uleb128 0xa
 2052 0134 00       		.byte	0
 2053 0135 00       		.byte	0
 2054 0136 1C       		.uleb128 0x1c
 2055 0137 0B       		.uleb128 0xb
 2056 0138 01       		.byte	0x1
 2057 0139 11       		.uleb128 0x11
 2058 013a 01       		.uleb128 0x1
 2059 013b 12       		.uleb128 0x12
 2060 013c 01       		.uleb128 0x1
 2061 013d 01       		.uleb128 0x1
 2062 013e 13       		.uleb128 0x13
 2063 013f 00       		.byte	0
 2064 0140 00       		.byte	0
 2065 0141 1D       		.uleb128 0x1d
 2066 0142 898201   		.uleb128 0x4109
 2067 0145 01       		.byte	0x1
 2068 0146 11       		.uleb128 0x11
 2069 0147 01       		.uleb128 0x1
 2070 0148 00       		.byte	0
 2071 0149 00       		.byte	0
 2072 014a 1E       		.uleb128 0x1e
 2073 014b 8A8201   		.uleb128 0x410a
 2074 014e 00       		.byte	0
 2075 014f 02       		.uleb128 0x2
 2076 0150 0A       		.uleb128 0xa
 2077 0151 9142     		.uleb128 0x2111
 2078 0153 0A       		.uleb128 0xa
 2079 0154 00       		.byte	0
 2080 0155 00       		.byte	0
 2081 0156 1F       		.uleb128 0x1f
 2082 0157 898201   		.uleb128 0x4109
 2083 015a 01       		.byte	0x1
 2084 015b 11       		.uleb128 0x11
 2085 015c 01       		.uleb128 0x1
 2086 015d 01       		.uleb128 0x1
 2087 015e 13       		.uleb128 0x13
 2088 015f 00       		.byte	0
 2089 0160 00       		.byte	0
 2090 0161 20       		.uleb128 0x20
 2091 0162 2E       		.uleb128 0x2e
 2092 0163 01       		.byte	0x1
 2093 0164 3F       		.uleb128 0x3f
 2094 0165 0C       		.uleb128 0xc
 2095 0166 03       		.uleb128 0x3
 2096 0167 0E       		.uleb128 0xe
 2097 0168 3A       		.uleb128 0x3a
ARM GAS  C:\Users\DNIEL~1\AppData\Local\Temp\ccA10Ztq.s 			page 38


 2098 0169 0B       		.uleb128 0xb
 2099 016a 3B       		.uleb128 0x3b
 2100 016b 0B       		.uleb128 0xb
 2101 016c 27       		.uleb128 0x27
 2102 016d 0C       		.uleb128 0xc
 2103 016e 11       		.uleb128 0x11
 2104 016f 01       		.uleb128 0x1
 2105 0170 12       		.uleb128 0x12
 2106 0171 01       		.uleb128 0x1
 2107 0172 40       		.uleb128 0x40
 2108 0173 06       		.uleb128 0x6
 2109 0174 9742     		.uleb128 0x2117
 2110 0176 0C       		.uleb128 0xc
 2111 0177 01       		.uleb128 0x1
 2112 0178 13       		.uleb128 0x13
 2113 0179 00       		.byte	0
 2114 017a 00       		.byte	0
 2115 017b 21       		.uleb128 0x21
 2116 017c 898201   		.uleb128 0x4109
 2117 017f 00       		.byte	0
 2118 0180 11       		.uleb128 0x11
 2119 0181 01       		.uleb128 0x1
 2120 0182 31       		.uleb128 0x31
 2121 0183 13       		.uleb128 0x13
 2122 0184 00       		.byte	0
 2123 0185 00       		.byte	0
 2124 0186 22       		.uleb128 0x22
 2125 0187 898201   		.uleb128 0x4109
 2126 018a 00       		.byte	0
 2127 018b 11       		.uleb128 0x11
 2128 018c 01       		.uleb128 0x1
 2129 018d 9542     		.uleb128 0x2115
 2130 018f 0C       		.uleb128 0xc
 2131 0190 31       		.uleb128 0x31
 2132 0191 13       		.uleb128 0x13
 2133 0192 00       		.byte	0
 2134 0193 00       		.byte	0
 2135 0194 23       		.uleb128 0x23
 2136 0195 2E       		.uleb128 0x2e
 2137 0196 01       		.byte	0x1
 2138 0197 3F       		.uleb128 0x3f
 2139 0198 0C       		.uleb128 0xc
 2140 0199 03       		.uleb128 0x3
 2141 019a 0E       		.uleb128 0xe
 2142 019b 3A       		.uleb128 0x3a
 2143 019c 0B       		.uleb128 0xb
 2144 019d 3B       		.uleb128 0x3b
 2145 019e 05       		.uleb128 0x5
 2146 019f 27       		.uleb128 0x27
 2147 01a0 0C       		.uleb128 0xc
 2148 01a1 11       		.uleb128 0x11
 2149 01a2 01       		.uleb128 0x1
 2150 01a3 12       		.uleb128 0x12
 2151 01a4 01       		.uleb128 0x1
 2152 01a5 40       		.uleb128 0x40
 2153 01a6 06       		.uleb128 0x6
 2154 01a7 9742     		.uleb128 0x2117
ARM GAS  C:\Users\DNIEL~1\AppData\Local\Temp\ccA10Ztq.s 			page 39


 2155 01a9 0C       		.uleb128 0xc
 2156 01aa 01       		.uleb128 0x1
 2157 01ab 13       		.uleb128 0x13
 2158 01ac 00       		.byte	0
 2159 01ad 00       		.byte	0
 2160 01ae 24       		.uleb128 0x24
 2161 01af 898201   		.uleb128 0x4109
 2162 01b2 01       		.byte	0x1
 2163 01b3 11       		.uleb128 0x11
 2164 01b4 01       		.uleb128 0x1
 2165 01b5 31       		.uleb128 0x31
 2166 01b6 13       		.uleb128 0x13
 2167 01b7 00       		.byte	0
 2168 01b8 00       		.byte	0
 2169 01b9 25       		.uleb128 0x25
 2170 01ba 05       		.uleb128 0x5
 2171 01bb 00       		.byte	0
 2172 01bc 03       		.uleb128 0x3
 2173 01bd 0E       		.uleb128 0xe
 2174 01be 3A       		.uleb128 0x3a
 2175 01bf 0B       		.uleb128 0xb
 2176 01c0 3B       		.uleb128 0x3b
 2177 01c1 05       		.uleb128 0x5
 2178 01c2 49       		.uleb128 0x49
 2179 01c3 13       		.uleb128 0x13
 2180 01c4 02       		.uleb128 0x2
 2181 01c5 06       		.uleb128 0x6
 2182 01c6 00       		.byte	0
 2183 01c7 00       		.byte	0
 2184 01c8 26       		.uleb128 0x26
 2185 01c9 34       		.uleb128 0x34
 2186 01ca 00       		.byte	0
 2187 01cb 03       		.uleb128 0x3
 2188 01cc 08       		.uleb128 0x8
 2189 01cd 3A       		.uleb128 0x3a
 2190 01ce 0B       		.uleb128 0xb
 2191 01cf 3B       		.uleb128 0x3b
 2192 01d0 05       		.uleb128 0x5
 2193 01d1 49       		.uleb128 0x49
 2194 01d2 13       		.uleb128 0x13
 2195 01d3 00       		.byte	0
 2196 01d4 00       		.byte	0
 2197 01d5 27       		.uleb128 0x27
 2198 01d6 898201   		.uleb128 0x4109
 2199 01d9 01       		.byte	0x1
 2200 01da 11       		.uleb128 0x11
 2201 01db 01       		.uleb128 0x1
 2202 01dc 31       		.uleb128 0x31
 2203 01dd 13       		.uleb128 0x13
 2204 01de 01       		.uleb128 0x1
 2205 01df 13       		.uleb128 0x13
 2206 01e0 00       		.byte	0
 2207 01e1 00       		.byte	0
 2208 01e2 28       		.uleb128 0x28
 2209 01e3 2E       		.uleb128 0x2e
 2210 01e4 01       		.byte	0x1
 2211 01e5 3F       		.uleb128 0x3f
ARM GAS  C:\Users\DNIEL~1\AppData\Local\Temp\ccA10Ztq.s 			page 40


 2212 01e6 0C       		.uleb128 0xc
 2213 01e7 03       		.uleb128 0x3
 2214 01e8 0E       		.uleb128 0xe
 2215 01e9 3A       		.uleb128 0x3a
 2216 01ea 0B       		.uleb128 0xb
 2217 01eb 3B       		.uleb128 0x3b
 2218 01ec 05       		.uleb128 0x5
 2219 01ed 27       		.uleb128 0x27
 2220 01ee 0C       		.uleb128 0xc
 2221 01ef 11       		.uleb128 0x11
 2222 01f0 01       		.uleb128 0x1
 2223 01f1 12       		.uleb128 0x12
 2224 01f2 01       		.uleb128 0x1
 2225 01f3 40       		.uleb128 0x40
 2226 01f4 0A       		.uleb128 0xa
 2227 01f5 9742     		.uleb128 0x2117
 2228 01f7 0C       		.uleb128 0xc
 2229 01f8 01       		.uleb128 0x1
 2230 01f9 13       		.uleb128 0x13
 2231 01fa 00       		.byte	0
 2232 01fb 00       		.byte	0
 2233 01fc 29       		.uleb128 0x29
 2234 01fd 34       		.uleb128 0x34
 2235 01fe 00       		.byte	0
 2236 01ff 03       		.uleb128 0x3
 2237 0200 0E       		.uleb128 0xe
 2238 0201 3A       		.uleb128 0x3a
 2239 0202 0B       		.uleb128 0xb
 2240 0203 3B       		.uleb128 0x3b
 2241 0204 05       		.uleb128 0x5
 2242 0205 49       		.uleb128 0x49
 2243 0206 13       		.uleb128 0x13
 2244 0207 3F       		.uleb128 0x3f
 2245 0208 0C       		.uleb128 0xc
 2246 0209 3C       		.uleb128 0x3c
 2247 020a 0C       		.uleb128 0xc
 2248 020b 00       		.byte	0
 2249 020c 00       		.byte	0
 2250 020d 2A       		.uleb128 0x2a
 2251 020e 34       		.uleb128 0x34
 2252 020f 00       		.byte	0
 2253 0210 03       		.uleb128 0x3
 2254 0211 0E       		.uleb128 0xe
 2255 0212 3A       		.uleb128 0x3a
 2256 0213 0B       		.uleb128 0xb
 2257 0214 3B       		.uleb128 0x3b
 2258 0215 0B       		.uleb128 0xb
 2259 0216 49       		.uleb128 0x49
 2260 0217 13       		.uleb128 0x13
 2261 0218 3F       		.uleb128 0x3f
 2262 0219 0C       		.uleb128 0xc
 2263 021a 02       		.uleb128 0x2
 2264 021b 0A       		.uleb128 0xa
 2265 021c 00       		.byte	0
 2266 021d 00       		.byte	0
 2267 021e 2B       		.uleb128 0x2b
 2268 021f 2E       		.uleb128 0x2e
ARM GAS  C:\Users\DNIEL~1\AppData\Local\Temp\ccA10Ztq.s 			page 41


 2269 0220 00       		.byte	0
 2270 0221 3F       		.uleb128 0x3f
 2271 0222 0C       		.uleb128 0xc
 2272 0223 03       		.uleb128 0x3
 2273 0224 0E       		.uleb128 0xe
 2274 0225 3A       		.uleb128 0x3a
 2275 0226 0B       		.uleb128 0xb
 2276 0227 3B       		.uleb128 0x3b
 2277 0228 05       		.uleb128 0x5
 2278 0229 27       		.uleb128 0x27
 2279 022a 0C       		.uleb128 0xc
 2280 022b 3C       		.uleb128 0x3c
 2281 022c 0C       		.uleb128 0xc
 2282 022d 00       		.byte	0
 2283 022e 00       		.byte	0
 2284 022f 2C       		.uleb128 0x2c
 2285 0230 2E       		.uleb128 0x2e
 2286 0231 01       		.byte	0x1
 2287 0232 3F       		.uleb128 0x3f
 2288 0233 0C       		.uleb128 0xc
 2289 0234 03       		.uleb128 0x3
 2290 0235 0E       		.uleb128 0xe
 2291 0236 3A       		.uleb128 0x3a
 2292 0237 0B       		.uleb128 0xb
 2293 0238 3B       		.uleb128 0x3b
 2294 0239 0B       		.uleb128 0xb
 2295 023a 27       		.uleb128 0x27
 2296 023b 0C       		.uleb128 0xc
 2297 023c 3C       		.uleb128 0x3c
 2298 023d 0C       		.uleb128 0xc
 2299 023e 01       		.uleb128 0x1
 2300 023f 13       		.uleb128 0x13
 2301 0240 00       		.byte	0
 2302 0241 00       		.byte	0
 2303 0242 2D       		.uleb128 0x2d
 2304 0243 2E       		.uleb128 0x2e
 2305 0244 01       		.byte	0x1
 2306 0245 3F       		.uleb128 0x3f
 2307 0246 0C       		.uleb128 0xc
 2308 0247 03       		.uleb128 0x3
 2309 0248 0E       		.uleb128 0xe
 2310 0249 3A       		.uleb128 0x3a
 2311 024a 0B       		.uleb128 0xb
 2312 024b 3B       		.uleb128 0x3b
 2313 024c 05       		.uleb128 0x5
 2314 024d 27       		.uleb128 0x27
 2315 024e 0C       		.uleb128 0xc
 2316 024f 3C       		.uleb128 0x3c
 2317 0250 0C       		.uleb128 0xc
 2318 0251 01       		.uleb128 0x1
 2319 0252 13       		.uleb128 0x13
 2320 0253 00       		.byte	0
 2321 0254 00       		.byte	0
 2322 0255 2E       		.uleb128 0x2e
 2323 0256 2E       		.uleb128 0x2e
 2324 0257 01       		.byte	0x1
 2325 0258 3F       		.uleb128 0x3f
ARM GAS  C:\Users\DNIEL~1\AppData\Local\Temp\ccA10Ztq.s 			page 42


 2326 0259 0C       		.uleb128 0xc
 2327 025a 03       		.uleb128 0x3
 2328 025b 0E       		.uleb128 0xe
 2329 025c 3A       		.uleb128 0x3a
 2330 025d 0B       		.uleb128 0xb
 2331 025e 3B       		.uleb128 0x3b
 2332 025f 05       		.uleb128 0x5
 2333 0260 27       		.uleb128 0x27
 2334 0261 0C       		.uleb128 0xc
 2335 0262 3C       		.uleb128 0x3c
 2336 0263 0C       		.uleb128 0xc
 2337 0264 00       		.byte	0
 2338 0265 00       		.byte	0
 2339 0266 00       		.byte	0
 2340              		.section	.debug_loc,"",%progbits
 2341              	.Ldebug_loc0:
 2342              	.LLST0:
 2343 0000 00000000 		.4byte	.LFB126
 2344 0004 02000000 		.4byte	.LCFI0
 2345 0008 0200     		.2byte	0x2
 2346 000a 7D       		.byte	0x7d
 2347 000b 00       		.sleb128 0
 2348 000c 02000000 		.4byte	.LCFI0
 2349 0010 90000000 		.4byte	.LFE126
 2350 0014 0200     		.2byte	0x2
 2351 0016 7D       		.byte	0x7d
 2352 0017 10       		.sleb128 16
 2353 0018 00000000 		.4byte	0
 2354 001c 00000000 		.4byte	0
 2355              	.LLST1:
 2356 0020 0A000000 		.4byte	.LVL1
 2357 0024 12000000 		.4byte	.LVL2
 2358 0028 0100     		.2byte	0x1
 2359 002a 50       		.byte	0x50
 2360 002b 12000000 		.4byte	.LVL2
 2361 002f 90000000 		.4byte	.LFE126
 2362 0033 0600     		.2byte	0x6
 2363 0035 75       		.byte	0x75
 2364 0036 00       		.sleb128 0
 2365 0037 08       		.byte	0x8
 2366 0038 FF       		.byte	0xff
 2367 0039 1A       		.byte	0x1a
 2368 003a 9F       		.byte	0x9f
 2369 003b 00000000 		.4byte	0
 2370 003f 00000000 		.4byte	0
 2371              	.LLST2:
 2372 0043 24000000 		.4byte	.LVL3
 2373 0047 31000000 		.4byte	.LVL4-1
 2374 004b 0500     		.2byte	0x5
 2375 004d 03       		.byte	0x3
 2376 004e 00000000 		.4byte	ICUD1
 2377 0052 00000000 		.4byte	0
 2378 0056 00000000 		.4byte	0
 2379              	.LLST3:
 2380 005a 66000000 		.4byte	.LVL7
 2381 005e 75000000 		.4byte	.LVL8-1
 2382 0062 0500     		.2byte	0x5
ARM GAS  C:\Users\DNIEL~1\AppData\Local\Temp\ccA10Ztq.s 			page 43


 2383 0064 03       		.byte	0x3
 2384 0065 00000000 		.4byte	ICUD1
 2385 0069 00000000 		.4byte	0
 2386 006d 00000000 		.4byte	0
 2387              	.LLST4:
 2388 0071 00000000 		.4byte	.LFB119
 2389 0075 02000000 		.4byte	.LCFI1
 2390 0079 0200     		.2byte	0x2
 2391 007b 7D       		.byte	0x7d
 2392 007c 00       		.sleb128 0
 2393 007d 02000000 		.4byte	.LCFI1
 2394 0081 0E000000 		.4byte	.LFE119
 2395 0085 0200     		.2byte	0x2
 2396 0087 7D       		.byte	0x7d
 2397 0088 08       		.sleb128 8
 2398 0089 00000000 		.4byte	0
 2399 008d 00000000 		.4byte	0
 2400              	.LLST5:
 2401 0091 00000000 		.4byte	.LFB120
 2402 0095 02000000 		.4byte	.LCFI2
 2403 0099 0200     		.2byte	0x2
 2404 009b 7D       		.byte	0x7d
 2405 009c 00       		.sleb128 0
 2406 009d 02000000 		.4byte	.LCFI2
 2407 00a1 0E000000 		.4byte	.LFE120
 2408 00a5 0200     		.2byte	0x2
 2409 00a7 7D       		.byte	0x7d
 2410 00a8 08       		.sleb128 8
 2411 00a9 00000000 		.4byte	0
 2412 00ad 00000000 		.4byte	0
 2413              	.LLST6:
 2414 00b1 00000000 		.4byte	.LFB121
 2415 00b5 02000000 		.4byte	.LCFI3
 2416 00b9 0200     		.2byte	0x2
 2417 00bb 7D       		.byte	0x7d
 2418 00bc 00       		.sleb128 0
 2419 00bd 02000000 		.4byte	.LCFI3
 2420 00c1 1A000000 		.4byte	.LFE121
 2421 00c5 0200     		.2byte	0x2
 2422 00c7 7D       		.byte	0x7d
 2423 00c8 08       		.sleb128 8
 2424 00c9 00000000 		.4byte	0
 2425 00cd 00000000 		.4byte	0
 2426              	.LLST7:
 2427 00d1 00000000 		.4byte	.LFB122
 2428 00d5 06000000 		.4byte	.LCFI4
 2429 00d9 0200     		.2byte	0x2
 2430 00db 7D       		.byte	0x7d
 2431 00dc 00       		.sleb128 0
 2432 00dd 06000000 		.4byte	.LCFI4
 2433 00e1 C8000000 		.4byte	.LFE122
 2434 00e5 0200     		.2byte	0x2
 2435 00e7 7D       		.byte	0x7d
 2436 00e8 10       		.sleb128 16
 2437 00e9 00000000 		.4byte	0
 2438 00ed 00000000 		.4byte	0
 2439              	.LLST8:
ARM GAS  C:\Users\DNIEL~1\AppData\Local\Temp\ccA10Ztq.s 			page 44


 2440 00f1 00000000 		.4byte	.LVL15
 2441 00f5 16000000 		.4byte	.LVL16
 2442 00f9 0100     		.2byte	0x1
 2443 00fb 50       		.byte	0x50
 2444 00fc 16000000 		.4byte	.LVL16
 2445 0100 82000000 		.4byte	.LVL17
 2446 0104 0100     		.2byte	0x1
 2447 0106 54       		.byte	0x54
 2448 0107 82000000 		.4byte	.LVL17
 2449 010b 84000000 		.4byte	.LVL18
 2450 010f 0100     		.2byte	0x1
 2451 0111 50       		.byte	0x50
 2452 0112 84000000 		.4byte	.LVL18
 2453 0116 C8000000 		.4byte	.LFE122
 2454 011a 0100     		.2byte	0x1
 2455 011c 54       		.byte	0x54
 2456 011d 00000000 		.4byte	0
 2457 0121 00000000 		.4byte	0
 2458              	.LLST9:
 2459 0125 00000000 		.4byte	.LFB123
 2460 0129 02000000 		.4byte	.LCFI5
 2461 012d 0200     		.2byte	0x2
 2462 012f 7D       		.byte	0x7d
 2463 0130 00       		.sleb128 0
 2464 0131 02000000 		.4byte	.LCFI5
 2465 0135 3C000000 		.4byte	.LFE123
 2466 0139 0200     		.2byte	0x2
 2467 013b 7D       		.byte	0x7d
 2468 013c 08       		.sleb128 8
 2469 013d 00000000 		.4byte	0
 2470 0141 00000000 		.4byte	0
 2471              	.LLST10:
 2472 0145 00000000 		.4byte	.LVL21
 2473 0149 08000000 		.4byte	.LVL22
 2474 014d 0100     		.2byte	0x1
 2475 014f 50       		.byte	0x50
 2476 0150 08000000 		.4byte	.LVL22
 2477 0154 0A000000 		.4byte	.LVL23
 2478 0158 0400     		.2byte	0x4
 2479 015a F3       		.byte	0xf3
 2480 015b 01       		.uleb128 0x1
 2481 015c 50       		.byte	0x50
 2482 015d 9F       		.byte	0x9f
 2483 015e 0A000000 		.4byte	.LVL23
 2484 0162 1C000000 		.4byte	.LVL24
 2485 0166 0100     		.2byte	0x1
 2486 0168 50       		.byte	0x50
 2487 0169 1C000000 		.4byte	.LVL24
 2488 016d 3C000000 		.4byte	.LFE123
 2489 0171 0400     		.2byte	0x4
 2490 0173 F3       		.byte	0xf3
 2491 0174 01       		.uleb128 0x1
 2492 0175 50       		.byte	0x50
 2493 0176 9F       		.byte	0x9f
 2494 0177 00000000 		.4byte	0
 2495 017b 00000000 		.4byte	0
 2496              	.LLST11:
ARM GAS  C:\Users\DNIEL~1\AppData\Local\Temp\ccA10Ztq.s 			page 45


 2497 017f 00000000 		.4byte	.LVL27
 2498 0183 06000000 		.4byte	.LVL28
 2499 0187 0100     		.2byte	0x1
 2500 0189 50       		.byte	0x50
 2501 018a 06000000 		.4byte	.LVL28
 2502 018e 52000000 		.4byte	.LFE124
 2503 0192 0400     		.2byte	0x4
 2504 0194 F3       		.byte	0xf3
 2505 0195 01       		.uleb128 0x1
 2506 0196 50       		.byte	0x50
 2507 0197 9F       		.byte	0x9f
 2508 0198 00000000 		.4byte	0
 2509 019c 00000000 		.4byte	0
 2510              	.LLST12:
 2511 01a0 00000000 		.4byte	.LVL29
 2512 01a4 0A000000 		.4byte	.LVL30
 2513 01a8 0100     		.2byte	0x1
 2514 01aa 50       		.byte	0x50
 2515 01ab 0A000000 		.4byte	.LVL30
 2516 01af 12000000 		.4byte	.LFE125
 2517 01b3 0400     		.2byte	0x4
 2518 01b5 F3       		.byte	0xf3
 2519 01b6 01       		.uleb128 0x1
 2520 01b7 50       		.byte	0x50
 2521 01b8 9F       		.byte	0x9f
 2522 01b9 00000000 		.4byte	0
 2523 01bd 00000000 		.4byte	0
 2524              		.section	.debug_aranges,"",%progbits
 2525 0000 54000000 		.4byte	0x54
 2526 0004 0200     		.2byte	0x2
 2527 0006 00000000 		.4byte	.Ldebug_info0
 2528 000a 04       		.byte	0x4
 2529 000b 00       		.byte	0
 2530 000c 0000     		.2byte	0
 2531 000e 0000     		.2byte	0
 2532 0010 00000000 		.4byte	.LFB126
 2533 0014 90000000 		.4byte	.LFE126-.LFB126
 2534 0018 00000000 		.4byte	.LFB119
 2535 001c 0E000000 		.4byte	.LFE119-.LFB119
 2536 0020 00000000 		.4byte	.LFB120
 2537 0024 0E000000 		.4byte	.LFE120-.LFB120
 2538 0028 00000000 		.4byte	.LFB121
 2539 002c 1A000000 		.4byte	.LFE121-.LFB121
 2540 0030 00000000 		.4byte	.LFB122
 2541 0034 C8000000 		.4byte	.LFE122-.LFB122
 2542 0038 00000000 		.4byte	.LFB123
 2543 003c 3C000000 		.4byte	.LFE123-.LFB123
 2544 0040 00000000 		.4byte	.LFB124
 2545 0044 52000000 		.4byte	.LFE124-.LFB124
 2546 0048 00000000 		.4byte	.LFB125
 2547 004c 12000000 		.4byte	.LFE125-.LFB125
 2548 0050 00000000 		.4byte	0
 2549 0054 00000000 		.4byte	0
 2550              		.section	.debug_ranges,"",%progbits
 2551              	.Ldebug_ranges0:
 2552 0000 00000000 		.4byte	.LFB126
 2553 0004 90000000 		.4byte	.LFE126
ARM GAS  C:\Users\DNIEL~1\AppData\Local\Temp\ccA10Ztq.s 			page 46


 2554 0008 00000000 		.4byte	.LFB119
 2555 000c 0E000000 		.4byte	.LFE119
 2556 0010 00000000 		.4byte	.LFB120
 2557 0014 0E000000 		.4byte	.LFE120
 2558 0018 00000000 		.4byte	.LFB121
 2559 001c 1A000000 		.4byte	.LFE121
 2560 0020 00000000 		.4byte	.LFB122
 2561 0024 C8000000 		.4byte	.LFE122
 2562 0028 00000000 		.4byte	.LFB123
 2563 002c 3C000000 		.4byte	.LFE123
 2564 0030 00000000 		.4byte	.LFB124
 2565 0034 52000000 		.4byte	.LFE124
 2566 0038 00000000 		.4byte	.LFB125
 2567 003c 12000000 		.4byte	.LFE125
 2568 0040 00000000 		.4byte	0
 2569 0044 00000000 		.4byte	0
 2570              		.section	.debug_line,"",%progbits
 2571              	.Ldebug_line0:
 2572 0000 0F030000 		.section	.debug_str,"MS",%progbits,1
 2572      02000102 
 2572      00000201 
 2572      FB0E0D00 
 2572      01010101 
 2573              	.LASF31:
 2574 0000 41484231 		.ascii	"AHB1LPENR\000"
 2574      4C50454E 
 2574      5200
 2575              	.LASF90:
 2576 000a 6963755F 		.ascii	"icu_lld_stop\000"
 2576      6C6C645F 
 2576      73746F70 
 2576      00
 2577              	.LASF63:
 2578 0017 43434552 		.ascii	"CCER\000"
 2578      00
 2579              	.LASF44:
 2580 001c 5243435F 		.ascii	"RCC_TypeDef\000"
 2580      54797065 
 2580      44656600 
 2581              	.LASF100:
 2582 0028 433A5C55 		.ascii	"C:\\Users\\D\341niel\\git\\Smarty\\smarty\\firmware"
 2582      73657273 
 2582      5C44E16E 
 2582      69656C5C 
 2582      6769745C 
 2583 0052 00       		.ascii	"\000"
 2584              	.LASF46:
 2585 0053 4943555F 		.ascii	"ICU_STOP\000"
 2585      53544F50 
 2585      00
 2586              	.LASF76:
 2587 005c 69637563 		.ascii	"icuchannel_t\000"
 2587      68616E6E 
 2587      656C5F74 
 2587      00
 2588              	.LASF89:
 2589 0069 6963755F 		.ascii	"icu_lld_start\000"
ARM GAS  C:\Users\DNIEL~1\AppData\Local\Temp\ccA10Ztq.s 			page 47


 2589      6C6C645F 
 2589      73746172 
 2589      7400
 2590              	.LASF25:
 2591 0077 41484232 		.ascii	"AHB2ENR\000"
 2591      454E5200 
 2592              	.LASF65:
 2593 007f 444D4152 		.ascii	"DMAR\000"
 2593      00
 2594              	.LASF53:
 2595 0084 73746174 		.ascii	"state\000"
 2595      6500
 2596              	.LASF62:
 2597 008a 43434D52 		.ascii	"CCMR2\000"
 2597      3200
 2598              	.LASF3:
 2599 0090 73686F72 		.ascii	"short int\000"
 2599      7420696E 
 2599      7400
 2600              	.LASF91:
 2601 009a 69637570 		.ascii	"icup\000"
 2601      00
 2602              	.LASF13:
 2603 009f 73697A65 		.ascii	"sizetype\000"
 2603      74797065 
 2603      00
 2604              	.LASF38:
 2605 00a8 42444352 		.ascii	"BDCR\000"
 2605      00
 2606              	.LASF92:
 2607 00ad 6963755F 		.ascii	"icu_lld_enable\000"
 2607      6C6C645F 
 2607      656E6162 
 2607      6C6500
 2608              	.LASF41:
 2609 00bc 504C4C49 		.ascii	"PLLI2SCFGR\000"
 2609      32534346 
 2609      475200
 2610              	.LASF86:
 2611 00c7 56656374 		.ascii	"VectorA4\000"
 2611      6F724134 
 2611      00
 2612              	.LASF21:
 2613 00d0 41504231 		.ascii	"APB1RSTR\000"
 2613      52535452 
 2613      00
 2614              	.LASF77:
 2615 00d9 6D6F6465 		.ascii	"mode\000"
 2615      00
 2616              	.LASF93:
 2617 00de 6963755F 		.ascii	"icu_lld_disable\000"
 2617      6C6C645F 
 2617      64697361 
 2617      626C6500 
 2618              	.LASF33:
 2619 00ee 41484233 		.ascii	"AHB3LPENR\000"
 2619      4C50454E 
ARM GAS  C:\Users\DNIEL~1\AppData\Local\Temp\ccA10Ztq.s 			page 48


 2619      5200
 2620              	.LASF54:
 2621 00f8 636F6E66 		.ascii	"config\000"
 2621      696700
 2622              	.LASF16:
 2623 00ff 43464752 		.ascii	"CFGR\000"
 2623      00
 2624              	.LASF23:
 2625 0104 52455345 		.ascii	"RESERVED1\000"
 2625      52564544 
 2625      3100
 2626              	.LASF87:
 2627 010e 56656374 		.ascii	"VectorAC\000"
 2627      6F724143 
 2627      00
 2628              	.LASF28:
 2629 0117 41504231 		.ascii	"APB1ENR\000"
 2629      454E5200 
 2630              	.LASF74:
 2631 011f 4943555F 		.ascii	"ICU_CHANNEL_1\000"
 2631      4348414E 
 2631      4E454C5F 
 2631      3100
 2632              	.LASF75:
 2633 012d 4943555F 		.ascii	"ICU_CHANNEL_2\000"
 2633      4348414E 
 2633      4E454C5F 
 2633      3200
 2634              	.LASF8:
 2635 013b 75696E74 		.ascii	"uint32_t\000"
 2635      33325F74 
 2635      00
 2636              	.LASF43:
 2637 0144 44434B43 		.ascii	"DCKCFGR\000"
 2637      46475200 
 2638              	.LASF79:
 2639 014c 77696474 		.ascii	"width_cb\000"
 2639      685F6362 
 2639      00
 2640              	.LASF49:
 2641 0155 4943555F 		.ascii	"ICU_ACTIVE\000"
 2641      41435449 
 2641      564500
 2642              	.LASF10:
 2643 0160 6C6F6E67 		.ascii	"long long int\000"
 2643      206C6F6E 
 2643      6720696E 
 2643      7400
 2644              	.LASF11:
 2645 016e 6C6F6E67 		.ascii	"long long unsigned int\000"
 2645      206C6F6E 
 2645      6720756E 
 2645      7369676E 
 2645      65642069 
 2646              	.LASF72:
 2647 0185 6963756D 		.ascii	"icumode_t\000"
 2647      6F64655F 
ARM GAS  C:\Users\DNIEL~1\AppData\Local\Temp\ccA10Ztq.s 			page 49


 2647      7400
 2648              	.LASF99:
 2649 018f 2E2E2F2E 		.ascii	"../../../ChibiOS/os/hal/platforms/STM32/TIMv1/icu_l"
 2649      2E2F2E2E 
 2649      2F436869 
 2649      62694F53 
 2649      2F6F732F 
 2650 01c2 6C642E63 		.ascii	"ld.c\000"
 2650      00
 2651              	.LASF56:
 2652 01c7 77636372 		.ascii	"wccrp\000"
 2652      7000
 2653              	.LASF7:
 2654 01cd 6C6F6E67 		.ascii	"long int\000"
 2654      20696E74 
 2654      00
 2655              	.LASF103:
 2656 01d6 6E766963 		.ascii	"nvicDisableVector\000"
 2656      44697361 
 2656      626C6556 
 2656      6563746F 
 2656      7200
 2657              	.LASF67:
 2658 01e8 43435235 		.ascii	"CCR5\000"
 2658      00
 2659              	.LASF68:
 2660 01ed 43435236 		.ascii	"CCR6\000"
 2660      00
 2661              	.LASF9:
 2662 01f2 6C6F6E67 		.ascii	"long unsigned int\000"
 2662      20756E73 
 2662      69676E65 
 2662      6420696E 
 2662      7400
 2663              	.LASF57:
 2664 0204 70636372 		.ascii	"pccrp\000"
 2664      7000
 2665              	.LASF22:
 2666 020a 41504232 		.ascii	"APB2RSTR\000"
 2666      52535452 
 2666      00
 2667              	.LASF61:
 2668 0213 43434D52 		.ascii	"CCMR1\000"
 2668      3100
 2669              	.LASF66:
 2670 0219 43434D52 		.ascii	"CCMR3\000"
 2670      3300
 2671              	.LASF26:
 2672 021f 41484233 		.ascii	"AHB3ENR\000"
 2672      454E5200 
 2673              	.LASF50:
 2674 0227 4943555F 		.ascii	"ICU_IDLE\000"
 2674      49444C45 
 2674      00
 2675              	.LASF59:
 2676 0230 534D4352 		.ascii	"SMCR\000"
 2676      00
ARM GAS  C:\Users\DNIEL~1\AppData\Local\Temp\ccA10Ztq.s 			page 50


 2677              	.LASF102:
 2678 0235 5F706F72 		.ascii	"_port_irq_epilogue\000"
 2678      745F6972 
 2678      715F6570 
 2678      696C6F67 
 2678      756500
 2679              	.LASF2:
 2680 0248 756E7369 		.ascii	"unsigned char\000"
 2680      676E6564 
 2680      20636861 
 2680      7200
 2681              	.LASF84:
 2682 0256 49435543 		.ascii	"ICUConfig\000"
 2682      6F6E6669 
 2682      6700
 2683              	.LASF95:
 2684 0260 49435544 		.ascii	"ICUD1\000"
 2684      3100
 2685              	.LASF29:
 2686 0266 41504232 		.ascii	"APB2ENR\000"
 2686      454E5200 
 2687              	.LASF97:
 2688 026e 6E766963 		.ascii	"nvicEnableVector\000"
 2688      456E6162 
 2688      6C655665 
 2688      63746F72 
 2688      00
 2689              	.LASF85:
 2690 027f 70726576 		.ascii	"previous_state\000"
 2690      696F7573 
 2690      5F737461 
 2690      746500
 2691              	.LASF1:
 2692 028e 7369676E 		.ascii	"signed char\000"
 2692      65642063 
 2692      68617200 
 2693              	.LASF88:
 2694 029a 6963755F 		.ascii	"icu_lld_init\000"
 2694      6C6C645F 
 2694      696E6974 
 2694      00
 2695              	.LASF0:
 2696 02a7 756E7369 		.ascii	"unsigned int\000"
 2696      676E6564 
 2696      20696E74 
 2696      00
 2697              	.LASF18:
 2698 02b4 41484232 		.ascii	"AHB2RSTR\000"
 2698      52535452 
 2698      00
 2699              	.LASF5:
 2700 02bd 75696E74 		.ascii	"uint16_t\000"
 2700      31365F74 
 2700      00
 2701              	.LASF98:
 2702 02c6 474E5520 		.ascii	"GNU C 4.7.4 20140401 (release) [ARM/embedded-4_7-br"
 2702      4320342E 
ARM GAS  C:\Users\DNIEL~1\AppData\Local\Temp\ccA10Ztq.s 			page 51


 2702      372E3420 
 2702      32303134 
 2702      30343031 
 2703 02f9 616E6368 		.ascii	"anch revision 209195]\000"
 2703      20726576 
 2703      6973696F 
 2703      6E203230 
 2703      39313935 
 2704              	.LASF60:
 2705 030f 44494552 		.ascii	"DIER\000"
 2705      00
 2706              	.LASF73:
 2707 0314 69637566 		.ascii	"icufreq_t\000"
 2707      7265715F 
 2707      7400
 2708              	.LASF12:
 2709 031e 5F426F6F 		.ascii	"_Bool\000"
 2709      6C00
 2710              	.LASF4:
 2711 0324 73686F72 		.ascii	"short unsigned int\000"
 2711      7420756E 
 2711      7369676E 
 2711      65642069 
 2711      6E7400
 2712              	.LASF35:
 2713 0337 41504231 		.ascii	"APB1LPENR\000"
 2713      4C50454E 
 2713      5200
 2714              	.LASF14:
 2715 0341 63686172 		.ascii	"char\000"
 2715      00
 2716              	.LASF58:
 2717 0346 69637563 		.ascii	"icucallback_t\000"
 2717      616C6C62 
 2717      61636B5F 
 2717      7400
 2718              	.LASF69:
 2719 0354 73746D33 		.ascii	"stm32_tim_t\000"
 2719      325F7469 
 2719      6D5F7400 
 2720              	.LASF80:
 2721 0360 70657269 		.ascii	"period_cb\000"
 2721      6F645F63 
 2721      6200
 2722              	.LASF64:
 2723 036a 42445452 		.ascii	"BDTR\000"
 2723      00
 2724              	.LASF6:
 2725 036f 696E7433 		.ascii	"int32_t\000"
 2725      325F7400 
 2726              	.LASF71:
 2727 0377 4943555F 		.ascii	"ICU_INPUT_ACTIVE_LOW\000"
 2727      494E5055 
 2727      545F4143 
 2727      54495645 
 2727      5F4C4F57 
 2728              	.LASF40:
ARM GAS  C:\Users\DNIEL~1\AppData\Local\Temp\ccA10Ztq.s 			page 52


 2729 038c 53534347 		.ascii	"SSCGR\000"
 2729      5200
 2730              	.LASF82:
 2731 0392 6368616E 		.ascii	"channel\000"
 2731      6E656C00 
 2732              	.LASF45:
 2733 039a 4943555F 		.ascii	"ICU_UNINIT\000"
 2733      554E494E 
 2733      495400
 2734              	.LASF32:
 2735 03a5 41484232 		.ascii	"AHB2LPENR\000"
 2735      4C50454E 
 2735      5200
 2736              	.LASF20:
 2737 03af 52455345 		.ascii	"RESERVED0\000"
 2737      52564544 
 2737      3000
 2738              	.LASF70:
 2739 03b9 4943555F 		.ascii	"ICU_INPUT_ACTIVE_HIGH\000"
 2739      494E5055 
 2739      545F4143 
 2739      54495645 
 2739      5F484947 
 2740              	.LASF27:
 2741 03cf 52455345 		.ascii	"RESERVED2\000"
 2741      52564544 
 2741      3200
 2742              	.LASF30:
 2743 03d9 52455345 		.ascii	"RESERVED3\000"
 2743      52564544 
 2743      3300
 2744              	.LASF34:
 2745 03e3 52455345 		.ascii	"RESERVED4\000"
 2745      52564544 
 2745      3400
 2746              	.LASF37:
 2747 03ed 52455345 		.ascii	"RESERVED5\000"
 2747      52564544 
 2747      3500
 2748              	.LASF39:
 2749 03f7 52455345 		.ascii	"RESERVED6\000"
 2749      52564544 
 2749      3600
 2750              	.LASF55:
 2751 0401 636C6F63 		.ascii	"clock\000"
 2751      6B00
 2752              	.LASF24:
 2753 0407 41484231 		.ascii	"AHB1ENR\000"
 2753      454E5200 
 2754              	.LASF81:
 2755 040f 6F766572 		.ascii	"overflow_cb\000"
 2755      666C6F77 
 2755      5F636200 
 2756              	.LASF83:
 2757 041b 64696572 		.ascii	"dier\000"
 2757      00
 2758              	.LASF52:
ARM GAS  C:\Users\DNIEL~1\AppData\Local\Temp\ccA10Ztq.s 			page 53


 2759 0420 49435544 		.ascii	"ICUDriver\000"
 2759      72697665 
 2759      7200
 2760              	.LASF78:
 2761 042a 66726571 		.ascii	"frequency\000"
 2761      75656E63 
 2761      7900
 2762              	.LASF47:
 2763 0434 4943555F 		.ascii	"ICU_READY\000"
 2763      52454144 
 2763      5900
 2764              	.LASF17:
 2765 043e 41484231 		.ascii	"AHB1RSTR\000"
 2765      52535452 
 2765      00
 2766              	.LASF101:
 2767 0447 6963755F 		.ascii	"icu_lld_serve_interrupt\000"
 2767      6C6C645F 
 2767      73657276 
 2767      655F696E 
 2767      74657272 
 2768              	.LASF19:
 2769 045f 41484233 		.ascii	"AHB3RSTR\000"
 2769      52535452 
 2769      00
 2770              	.LASF96:
 2771 0468 6963754F 		.ascii	"icuObjectInit\000"
 2771      626A6563 
 2771      74496E69 
 2771      7400
 2772              	.LASF94:
 2773 0476 49544D5F 		.ascii	"ITM_RxBuffer\000"
 2773      52784275 
 2773      66666572 
 2773      00
 2774              	.LASF15:
 2775 0483 504C4C43 		.ascii	"PLLCFGR\000"
 2775      46475200 
 2776              	.LASF42:
 2777 048b 504C4C53 		.ascii	"PLLSAICFGR\000"
 2777      41494346 
 2777      475200
 2778              	.LASF36:
 2779 0496 41504232 		.ascii	"APB2LPENR\000"
 2779      4C50454E 
 2779      5200
 2780              	.LASF51:
 2781 04a0 69637573 		.ascii	"icustate_t\000"
 2781      74617465 
 2781      5F7400
 2782              	.LASF48:
 2783 04ab 4943555F 		.ascii	"ICU_WAITING\000"
 2783      57414954 
 2783      494E4700 
 2784              		.ident	"GCC: (GNU Tools for ARM Embedded Processors) 4.7.4 20140401 (release) [ARM/embedded-4_7-br
ARM GAS  C:\Users\DNIEL~1\AppData\Local\Temp\ccA10Ztq.s 			page 54


DEFINED SYMBOLS
                            *ABS*:00000000 icu_lld.c
C:\Users\DNIEL~1\AppData\Local\Temp\ccA10Ztq.s:19     .text.icu_lld_serve_interrupt.constprop.0:00000000 $t
C:\Users\DNIEL~1\AppData\Local\Temp\ccA10Ztq.s:24     .text.icu_lld_serve_interrupt.constprop.0:00000000 icu_lld_serve_interrupt.constprop.0
C:\Users\DNIEL~1\AppData\Local\Temp\ccA10Ztq.s:146    .text.icu_lld_serve_interrupt.constprop.0:0000008c $d
C:\Users\DNIEL~1\AppData\Local\Temp\ccA10Ztq.s:151    .text.VectorA4:00000000 $t
C:\Users\DNIEL~1\AppData\Local\Temp\ccA10Ztq.s:157    .text.VectorA4:00000000 VectorA4
C:\Users\DNIEL~1\AppData\Local\Temp\ccA10Ztq.s:180    .text.VectorAC:00000000 $t
C:\Users\DNIEL~1\AppData\Local\Temp\ccA10Ztq.s:186    .text.VectorAC:00000000 VectorAC
C:\Users\DNIEL~1\AppData\Local\Temp\ccA10Ztq.s:209    .text.icu_lld_init:00000000 $t
C:\Users\DNIEL~1\AppData\Local\Temp\ccA10Ztq.s:215    .text.icu_lld_init:00000000 icu_lld_init
C:\Users\DNIEL~1\AppData\Local\Temp\ccA10Ztq.s:595    .bss.ICUD1:00000000 .LANCHOR0
C:\Users\DNIEL~1\AppData\Local\Temp\ccA10Ztq.s:241    .text.icu_lld_start:00000000 $t
C:\Users\DNIEL~1\AppData\Local\Temp\ccA10Ztq.s:247    .text.icu_lld_start:00000000 icu_lld_start
C:\Users\DNIEL~1\AppData\Local\Temp\ccA10Ztq.s:414    .text.icu_lld_start:000000c4 $d
C:\Users\DNIEL~1\AppData\Local\Temp\ccA10Ztq.s:419    .text.icu_lld_stop:00000000 $t
C:\Users\DNIEL~1\AppData\Local\Temp\ccA10Ztq.s:425    .text.icu_lld_stop:00000000 icu_lld_stop
C:\Users\DNIEL~1\AppData\Local\Temp\ccA10Ztq.s:480    .text.icu_lld_stop:00000038 $d
C:\Users\DNIEL~1\AppData\Local\Temp\ccA10Ztq.s:485    .text.icu_lld_enable:00000000 $t
C:\Users\DNIEL~1\AppData\Local\Temp\ccA10Ztq.s:491    .text.icu_lld_enable:00000000 icu_lld_enable
C:\Users\DNIEL~1\AppData\Local\Temp\ccA10Ztq.s:563    .text.icu_lld_disable:00000000 $t
C:\Users\DNIEL~1\AppData\Local\Temp\ccA10Ztq.s:569    .text.icu_lld_disable:00000000 icu_lld_disable
C:\Users\DNIEL~1\AppData\Local\Temp\ccA10Ztq.s:598    .bss.ICUD1:00000000 ICUD1
C:\Users\DNIEL~1\AppData\Local\Temp\ccA10Ztq.s:594    .bss.ICUD1:00000000 $d
                     .debug_frame:00000010 $d
C:\Users\DNIEL~1\AppData\Local\Temp\ccA10Ztq.s:418    .text.icu_lld_start:000000c8 $t
C:\Users\DNIEL~1\AppData\Local\Temp\ccA10Ztq.s:484    .text.icu_lld_stop:0000003c $t

UNDEFINED SYMBOLS
_port_irq_epilogue
icuObjectInit
nvicEnableVector
nvicDisableVector
