ARM GAS  C:\Users\DNIEL~1\AppData\Local\Temp\ccnLX0pg.s 			page 1


   1              		.syntax unified
   2              		.cpu cortex-m4
   3              		.fpu softvfp
   4              		.eabi_attribute 20, 1
   5              		.eabi_attribute 21, 1
   6              		.eabi_attribute 23, 3
   7              		.eabi_attribute 24, 1
   8              		.eabi_attribute 25, 1
   9              		.eabi_attribute 26, 1
  10              		.eabi_attribute 30, 2
  11              		.eabi_attribute 34, 1
  12              		.eabi_attribute 18, 4
  13              		.thumb
  14              		.file	"icu_lld.c"
  15              		.text
  16              	.Ltext0:
  17              		.cfi_sections	.debug_frame
  18              		.section	.text.icu_lld_serve_interrupt.constprop.0,"ax",%progbits
  19              		.align	2
  20              		.p2align 4,,15
  21              		.thumb
  22              		.thumb_func
  23              		.type	icu_lld_serve_interrupt.constprop.0, %function
  24              	icu_lld_serve_interrupt.constprop.0:
  25              	.LFB126:
  26              		.file 1 "../../../ChibiOS/os/hal/platforms/STM32/icu_lld.c"
  27              		.loc 1 103 0
  28              		.cfi_startproc
  29              		@ args = 0, pretend = 0, frame = 0
  30              		@ frame_needed = 0, uses_anonymous_args = 0
  31              	.LVL0:
  32 0000 38B5     		push	{r3, r4, r5, lr}
  33              	.LCFI0:
  34              		.cfi_def_cfa_offset 16
  35              		.cfi_offset 3, -16
  36              		.cfi_offset 4, -12
  37              		.cfi_offset 5, -8
  38              		.cfi_offset 14, -4
  39              		.loc 1 106 0
  40 0002 224C     		ldr	r4, .L30
  41 0004 E368     		ldr	r3, [r4, #12]
  42              		.loc 1 108 0
  43 0006 6268     		ldr	r2, [r4, #4]
  44              		.loc 1 106 0
  45 0008 188A     		ldrh	r0, [r3, #16]
  46 000a 9D89     		ldrh	r5, [r3, #12]
  47              		.loc 1 108 0
  48 000c 117D     		ldrb	r1, [r2, #20]	@ zero_extendqisi2
  49              		.loc 1 106 0
  50 000e ADB2     		uxth	r5, r5
  51 0010 0540     		ands	r5, r5, r0
  52              	.LVL1:
  53              		.loc 1 107 0
  54 0012 E843     		mvns	r0, r5
  55 0014 80B2     		uxth	r0, r0
  56 0016 1882     		strh	r0, [r3, #16]	@ movhi
  57              		.loc 1 109 0
ARM GAS  C:\Users\DNIEL~1\AppData\Local\Temp\ccnLX0pg.s 			page 2


  58 0018 05F00203 		and	r3, r5, #2
  59 001c 98B2     		uxth	r0, r3
  60              		.loc 1 108 0
  61 001e 99B9     		cbnz	r1, .L2
  62              		.loc 1 109 0
  63 0020 38B1     		cbz	r0, .L4
  64              	.LBB4:
  65              		.loc 1 110 0
  66 0022 2078     		ldrb	r0, [r4, #0]	@ zero_extendqisi2
  67              	.LVL2:
  68 0024 0423     		movs	r3, #4
  69 0026 0328     		cmp	r0, #3
  70 0028 2370     		strb	r3, [r4, #0]
  71 002a 02D0     		beq	.L4
  72 002c D268     		ldr	r2, [r2, #12]
  73 002e 2046     		mov	r0, r4
  74 0030 9047     		blx	r2
  75              	.LVL3:
  76              	.L4:
  77              	.LBE4:
  78              		.loc 1 111 0
  79 0032 05F00401 		and	r1, r5, #4
  80 0036 88B2     		uxth	r0, r1
  81 0038 08BB     		cbnz	r0, .L27
  82              	.L7:
  83              		.loc 1 119 0
  84 003a EB07     		lsls	r3, r5, #31
  85 003c 03D5     		bpl	.L1
  86              		.loc 1 120 0
  87 003e 6368     		ldr	r3, [r4, #4]
  88 0040 1248     		ldr	r0, .L30
  89 0042 1969     		ldr	r1, [r3, #16]
  90 0044 8847     		blx	r1
  91              	.LVL4:
  92              	.L1:
  93 0046 38BD     		pop	{r3, r4, r5, pc}
  94              	.L2:
  95              		.loc 1 114 0
  96 0048 70B9     		cbnz	r0, .L28
  97              		.loc 1 116 0
  98 004a 05F00403 		and	r3, r5, #4
  99 004e 98B2     		uxth	r0, r3
 100 0050 0028     		cmp	r0, #0
 101 0052 F2D0     		beq	.L7
 102              	.L29:
 103              	.LBB5:
 104              		.loc 1 117 0
 105 0054 2178     		ldrb	r1, [r4, #0]	@ zero_extendqisi2
 106              	.LVL5:
 107 0056 0D48     		ldr	r0, .L30
 108 0058 0422     		movs	r2, #4
 109 005a 0329     		cmp	r1, #3
 110 005c 2270     		strb	r2, [r4, #0]
 111 005e ECD0     		beq	.L7
 112 0060 4368     		ldr	r3, [r0, #4]
 113 0062 D968     		ldr	r1, [r3, #12]
 114 0064 8847     		blx	r1
ARM GAS  C:\Users\DNIEL~1\AppData\Local\Temp\ccnLX0pg.s 			page 3


 115              	.LVL6:
 116 0066 E8E7     		b	.L7
 117              	.L28:
 118              	.LBE5:
 119              		.loc 1 115 0
 120 0068 0521     		movs	r1, #5
 121 006a 2046     		mov	r0, r4
 122 006c 2170     		strb	r1, [r4, #0]
 123 006e 9268     		ldr	r2, [r2, #8]
 124 0070 9047     		blx	r2
 125              	.LVL7:
 126              		.loc 1 116 0
 127 0072 05F00403 		and	r3, r5, #4
 128 0076 98B2     		uxth	r0, r3
 129 0078 0028     		cmp	r0, #0
 130 007a DED0     		beq	.L7
 131 007c EAE7     		b	.L29
 132              	.L27:
 133              		.loc 1 112 0
 134 007e 6368     		ldr	r3, [r4, #4]
 135 0080 0248     		ldr	r0, .L30
 136 0082 9968     		ldr	r1, [r3, #8]
 137 0084 0522     		movs	r2, #5
 138 0086 2270     		strb	r2, [r4, #0]
 139 0088 8847     		blx	r1
 140              	.LVL8:
 141 008a D6E7     		b	.L7
 142              	.L31:
 143              		.align	2
 144              	.L30:
 145 008c 00000000 		.word	.LANCHOR0
 146              		.cfi_endproc
 147              	.LFE126:
 148              		.size	icu_lld_serve_interrupt.constprop.0, .-icu_lld_serve_interrupt.constprop.0
 149              		.section	.text.VectorA4,"ax",%progbits
 150              		.align	2
 151              		.p2align 4,,15
 152              		.global	VectorA4
 153              		.thumb
 154              		.thumb_func
 155              		.type	VectorA4, %function
 156              	VectorA4:
 157              	.LFB119:
 158              		.loc 1 139 0
 159              		.cfi_startproc
 160              		@ args = 0, pretend = 0, frame = 0
 161              		@ frame_needed = 0, uses_anonymous_args = 0
 162 0000 08B5     		push	{r3, lr}
 163              	.LCFI1:
 164              		.cfi_def_cfa_offset 8
 165              		.cfi_offset 3, -8
 166              		.cfi_offset 14, -4
 167              		.loc 1 143 0
 168 0002 FFF7FEFF 		bl	icu_lld_serve_interrupt.constprop.0
 169              	.LVL9:
 170              		.loc 1 146 0
 171 0006 BDE80840 		pop	{r3, lr}
ARM GAS  C:\Users\DNIEL~1\AppData\Local\Temp\ccnLX0pg.s 			page 4


 172              		.loc 1 145 0
 173 000a FFF7FEBF 		b	_port_irq_epilogue
 174              	.LVL10:
 175              		.cfi_endproc
 176              	.LFE119:
 177              		.size	VectorA4, .-VectorA4
 178 000e 00BF     		.section	.text.VectorAC,"ax",%progbits
 179              		.align	2
 180              		.p2align 4,,15
 181              		.global	VectorAC
 182              		.thumb
 183              		.thumb_func
 184              		.type	VectorAC, %function
 185              	VectorAC:
 186              	.LFB120:
 187              		.loc 1 159 0
 188              		.cfi_startproc
 189              		@ args = 0, pretend = 0, frame = 0
 190              		@ frame_needed = 0, uses_anonymous_args = 0
 191 0000 08B5     		push	{r3, lr}
 192              	.LCFI2:
 193              		.cfi_def_cfa_offset 8
 194              		.cfi_offset 3, -8
 195              		.cfi_offset 14, -4
 196              		.loc 1 163 0
 197 0002 FFF7FEFF 		bl	icu_lld_serve_interrupt.constprop.0
 198              	.LVL11:
 199              		.loc 1 166 0
 200 0006 BDE80840 		pop	{r3, lr}
 201              		.loc 1 165 0
 202 000a FFF7FEBF 		b	_port_irq_epilogue
 203              	.LVL12:
 204              		.cfi_endproc
 205              	.LFE120:
 206              		.size	VectorAC, .-VectorAC
 207 000e 00BF     		.section	.text.icu_lld_init,"ax",%progbits
 208              		.align	2
 209              		.p2align 4,,15
 210              		.global	icu_lld_init
 211              		.thumb
 212              		.thumb_func
 213              		.type	icu_lld_init, %function
 214              	icu_lld_init:
 215              	.LFB121:
 216              		.loc 1 308 0
 217              		.cfi_startproc
 218              		@ args = 0, pretend = 0, frame = 0
 219              		@ frame_needed = 0, uses_anonymous_args = 0
 220 0000 10B5     		push	{r4, lr}
 221              	.LCFI3:
 222              		.cfi_def_cfa_offset 8
 223              		.cfi_offset 4, -8
 224              		.cfi_offset 14, -4
 225              		.loc 1 312 0
 226 0002 40F20004 		movw	r4, #:lower16:.LANCHOR0
 227 0006 C0F20004 		movt	r4, #:upper16:.LANCHOR0
 228 000a 2046     		mov	r0, r4
ARM GAS  C:\Users\DNIEL~1\AppData\Local\Temp\ccnLX0pg.s 			page 5


 229 000c FFF7FEFF 		bl	icuObjectInit
 230              	.LVL13:
 231              		.loc 1 313 0
 232 0010 0023     		movs	r3, #0
 233 0012 C4F20103 		movt	r3, 16385
 234 0016 E360     		str	r3, [r4, #12]
 235 0018 10BD     		pop	{r4, pc}
 236              		.cfi_endproc
 237              	.LFE121:
 238              		.size	icu_lld_init, .-icu_lld_init
 239 001a 00BFAFF3 		.section	.text.icu_lld_start,"ax",%progbits
 239      0080
 240              		.align	2
 241              		.p2align 4,,15
 242              		.global	icu_lld_start
 243              		.thumb
 244              		.thumb_func
 245              		.type	icu_lld_start, %function
 246              	icu_lld_start:
 247              	.LFB122:
 248              		.loc 1 354 0
 249              		.cfi_startproc
 250              		@ args = 0, pretend = 0, frame = 0
 251              		@ frame_needed = 0, uses_anonymous_args = 0
 252              	.LVL14:
 253 0000 38B5     		push	{r3, r4, r5, lr}
 254              	.LCFI4:
 255              		.cfi_def_cfa_offset 16
 256              		.cfi_offset 3, -16
 257              		.cfi_offset 4, -12
 258              		.cfi_offset 5, -8
 259              		.cfi_offset 14, -4
 260              		.loc 1 361 0
 261 0002 0378     		ldrb	r3, [r0, #0]	@ zero_extendqisi2
 262 0004 012B     		cmp	r3, #1
 263              		.loc 1 354 0
 264 0006 0446     		mov	r4, r0
 265              		.loc 1 361 0
 266 0008 37D0     		beq	.L46
 267              		.loc 1 425 0
 268 000a C368     		ldr	r3, [r0, #12]
 269 000c 0022     		movs	r2, #0
 270 000e 1A80     		strh	r2, [r3, #0]	@ movhi
 271              		.loc 1 426 0
 272 0010 9A81     		strh	r2, [r3, #12]	@ movhi
 273              		.loc 1 427 0
 274 0012 1A82     		strh	r2, [r3, #16]	@ movhi
 275              		.loc 1 428 0
 276 0014 5A63     		str	r2, [r3, #52]
 277              		.loc 1 429 0
 278 0016 9A63     		str	r2, [r3, #56]
 279              		.loc 1 430 0
 280 0018 5A62     		str	r2, [r3, #36]
 281              	.LVL15:
 282              	.L38:
 283              		.loc 1 434 0
 284 001a 6268     		ldr	r2, [r4, #4]
ARM GAS  C:\Users\DNIEL~1\AppData\Local\Temp\ccnLX0pg.s 			page 6


 285              	.LVL16:
 286 001c A068     		ldr	r0, [r4, #8]
 287 001e 5168     		ldr	r1, [r2, #4]
 288              		.loc 1 441 0
 289 0020 157D     		ldrb	r5, [r2, #20]	@ zero_extendqisi2
 290              		.loc 1 454 0
 291 0022 1278     		ldrb	r2, [r2, #0]	@ zero_extendqisi2
 292              	.LVL17:
 293              		.loc 1 434 0
 294 0024 B0FBF1F0 		udiv	r0, r0, r1
 295 0028 411E     		subs	r1, r0, #1
 296              	.LVL18:
 297              		.loc 1 438 0
 298 002a 88B2     		uxth	r0, r1
 299              		.loc 1 439 0
 300 002c 4FF6FF71 		movw	r1, #65535
 301              	.LVL19:
 302              		.loc 1 438 0
 303 0030 1885     		strh	r0, [r3, #40]	@ movhi
 304              		.loc 1 439 0
 305 0032 D962     		str	r1, [r3, #44]
 306              		.loc 1 441 0
 307 0034 6DB9     		cbnz	r5, .L39
 308              		.loc 1 445 0
 309 0036 40F20120 		movw	r0, #513
 310              		.loc 1 449 0
 311 003a 5421     		movs	r1, #84
 312              		.loc 1 445 0
 313 003c 1883     		strh	r0, [r3, #24]	@ movhi
 314              		.loc 1 449 0
 315 003e 1981     		strh	r1, [r3, #8]	@ movhi
 316              		.loc 1 454 0
 317 0040 C2B1     		cbz	r2, .L47
 318              		.loc 1 458 0
 319 0042 1322     		movs	r2, #19
 320 0044 1A84     		strh	r2, [r3, #32]	@ movhi
 321              	.L41:
 322              		.loc 1 462 0
 323 0046 03F13801 		add	r1, r3, #56
 324              		.loc 1 463 0
 325 004a 3433     		adds	r3, r3, #52
 326              		.loc 1 462 0
 327 004c 2161     		str	r1, [r4, #16]
 328              		.loc 1 463 0
 329 004e 6361     		str	r3, [r4, #20]
 330 0050 38BD     		pop	{r3, r4, r5, pc}
 331              	.L39:
 332              		.loc 1 468 0
 333 0052 4FF48170 		mov	r0, #258
 334              		.loc 1 472 0
 335 0056 6421     		movs	r1, #100
 336              		.loc 1 468 0
 337 0058 1883     		strh	r0, [r3, #24]	@ movhi
 338              		.loc 1 472 0
 339 005a 1981     		strh	r1, [r3, #8]	@ movhi
 340              		.loc 1 477 0
 341 005c 3AB1     		cbz	r2, .L48
ARM GAS  C:\Users\DNIEL~1\AppData\Local\Temp\ccnLX0pg.s 			page 7


 342              		.loc 1 481 0
 343 005e 3122     		movs	r2, #49
 344 0060 1A84     		strh	r2, [r3, #32]	@ movhi
 345              	.L44:
 346              		.loc 1 485 0
 347 0062 03F13401 		add	r1, r3, #52
 348              		.loc 1 486 0
 349 0066 3833     		adds	r3, r3, #56
 350              		.loc 1 485 0
 351 0068 2161     		str	r1, [r4, #16]
 352              		.loc 1 486 0
 353 006a 6361     		str	r3, [r4, #20]
 354 006c 38BD     		pop	{r3, r4, r5, pc}
 355              	.L48:
 356              		.loc 1 478 0
 357 006e 1320     		movs	r0, #19
 358 0070 1884     		strh	r0, [r3, #32]	@ movhi
 359 0072 F6E7     		b	.L44
 360              	.L47:
 361              		.loc 1 455 0
 362 0074 3120     		movs	r0, #49
 363 0076 1884     		strh	r0, [r3, #32]	@ movhi
 364 0078 E5E7     		b	.L41
 365              	.LVL20:
 366              	.L46:
 367              		.loc 1 364 0
 368 007a 1048     		ldr	r0, .L49
 369              	.LVL21:
 370 007c 8442     		cmp	r4, r0
 371 007e 01D0     		beq	.L37
 372              	.L45:
 373 0080 E368     		ldr	r3, [r4, #12]
 374 0082 CAE7     		b	.L38
 375              	.L37:
 376              		.loc 1 365 0
 377 0084 4FF46055 		mov	r5, #14336
 378 0088 C4F20205 		movt	r5, 16386
 379 008c 696C     		ldr	r1, [r5, #68]
 380 008e 41F00103 		orr	r3, r1, #1
 381 0092 6B64     		str	r3, [r5, #68]
 382              		.loc 1 366 0
 383 0094 6A6A     		ldr	r2, [r5, #36]
 384 0096 0023     		movs	r3, #0
 385 0098 42F00100 		orr	r0, r2, #1
 386 009c 6862     		str	r0, [r5, #36]
 387              		.loc 1 367 0
 388 009e 7021     		movs	r1, #112
 389              		.loc 1 366 0
 390 00a0 6B62     		str	r3, [r5, #36]
 391              		.loc 1 367 0
 392 00a2 1920     		movs	r0, #25
 393              		.loc 1 371 0
 394 00a4 4FF4F445 		mov	r5, #31232
 395              		.loc 1 367 0
 396 00a8 FFF7FEFF 		bl	nvicEnableVector
 397              	.LVL22:
 398              		.loc 1 371 0
ARM GAS  C:\Users\DNIEL~1\AppData\Local\Temp\ccnLX0pg.s 			page 8


 399 00ac C0F60325 		movt	r5, 2563
 400              		.loc 1 369 0
 401 00b0 1B20     		movs	r0, #27
 402 00b2 7021     		movs	r1, #112
 403 00b4 FFF7FEFF 		bl	nvicEnableVector
 404              	.LVL23:
 405              		.loc 1 371 0
 406 00b8 A560     		str	r5, [r4, #8]
 407 00ba E1E7     		b	.L45
 408              	.L50:
 409              		.align	2
 410              	.L49:
 411 00bc 00000000 		.word	.LANCHOR0
 412              		.cfi_endproc
 413              	.LFE122:
 414              		.size	icu_lld_start, .-icu_lld_start
 415              		.section	.text.icu_lld_stop,"ax",%progbits
 416              		.align	2
 417              		.p2align 4,,15
 418              		.global	icu_lld_stop
 419              		.thumb
 420              		.thumb_func
 421              		.type	icu_lld_stop, %function
 422              	icu_lld_stop:
 423              	.LFB123:
 424              		.loc 1 497 0
 425              		.cfi_startproc
 426              		@ args = 0, pretend = 0, frame = 0
 427              		@ frame_needed = 0, uses_anonymous_args = 0
 428              	.LVL24:
 429 0000 08B5     		push	{r3, lr}
 430              	.LCFI5:
 431              		.cfi_def_cfa_offset 8
 432              		.cfi_offset 3, -8
 433              		.cfi_offset 14, -4
 434              		.loc 1 499 0
 435 0002 0378     		ldrb	r3, [r0, #0]	@ zero_extendqisi2
 436 0004 022B     		cmp	r3, #2
 437 0006 00D0     		beq	.L55
 438              	.LVL25:
 439              	.L51:
 440 0008 08BD     		pop	{r3, pc}
 441              	.LVL26:
 442              	.L55:
 443              		.loc 1 506 0
 444 000a 0B4B     		ldr	r3, .L56
 445              		.loc 1 501 0
 446 000c C168     		ldr	r1, [r0, #12]
 447 000e 0022     		movs	r2, #0
 448              		.loc 1 506 0
 449 0010 9842     		cmp	r0, r3
 450              		.loc 1 501 0
 451 0012 0A80     		strh	r2, [r1, #0]	@ movhi
 452              		.loc 1 502 0
 453 0014 8A81     		strh	r2, [r1, #12]	@ movhi
 454              		.loc 1 503 0
 455 0016 0A82     		strh	r2, [r1, #16]	@ movhi
ARM GAS  C:\Users\DNIEL~1\AppData\Local\Temp\ccnLX0pg.s 			page 9


 456              		.loc 1 506 0
 457 0018 F6D1     		bne	.L51
 458              		.loc 1 507 0
 459 001a 1920     		movs	r0, #25
 460              	.LVL27:
 461 001c FFF7FEFF 		bl	nvicDisableVector
 462              	.LVL28:
 463              		.loc 1 508 0
 464 0020 1B20     		movs	r0, #27
 465 0022 FFF7FEFF 		bl	nvicDisableVector
 466              	.LVL29:
 467              		.loc 1 509 0
 468 0026 4FF46050 		mov	r0, #14336
 469 002a C4F20200 		movt	r0, 16386
 470 002e 416C     		ldr	r1, [r0, #68]
 471 0030 21F00102 		bic	r2, r1, #1
 472 0034 4264     		str	r2, [r0, #68]
 473 0036 E7E7     		b	.L51
 474              	.L57:
 475              		.align	2
 476              	.L56:
 477 0038 00000000 		.word	.LANCHOR0
 478              		.cfi_endproc
 479              	.LFE123:
 480              		.size	icu_lld_stop, .-icu_lld_stop
 481 003c AFF30080 		.section	.text.icu_lld_enable,"ax",%progbits
 482              		.align	2
 483              		.p2align 4,,15
 484              		.global	icu_lld_enable
 485              		.thumb
 486              		.thumb_func
 487              		.type	icu_lld_enable, %function
 488              	icu_lld_enable:
 489              	.LFB124:
 490              		.loc 1 553 0
 491              		.cfi_startproc
 492              		@ args = 0, pretend = 0, frame = 0
 493              		@ frame_needed = 0, uses_anonymous_args = 0
 494              		@ link register save eliminated.
 495              	.LVL30:
 496              		.loc 1 556 0
 497 0000 4268     		ldr	r2, [r0, #4]
 498              		.loc 1 555 0
 499 0002 C368     		ldr	r3, [r0, #12]
 500              		.loc 1 556 0
 501 0004 117D     		ldrb	r1, [r2, #20]	@ zero_extendqisi2
 502              		.loc 1 555 0
 503 0006 0020     		movs	r0, #0
 504              	.LVL31:
 505 0008 1882     		strh	r0, [r3, #16]	@ movhi
 506              		.loc 1 556 0
 507 000a B9B9     		cbnz	r1, .L59
 508              		.loc 1 557 0
 509 000c D068     		ldr	r0, [r2, #12]
 510 000e 20B1     		cbz	r0, .L60
 511              		.loc 1 558 0
 512 0010 9989     		ldrh	r1, [r3, #12]
ARM GAS  C:\Users\DNIEL~1\AppData\Local\Temp\ccnLX0pg.s 			page 10


 513 0012 88B2     		uxth	r0, r1
 514 0014 40F00201 		orr	r1, r0, #2
 515 0018 9981     		strh	r1, [r3, #12]	@ movhi
 516              	.L60:
 517              		.loc 1 559 0
 518 001a 9068     		ldr	r0, [r2, #8]
 519 001c 20B1     		cbz	r0, .L62
 520              	.L78:
 521              		.loc 1 565 0
 522 001e 9989     		ldrh	r1, [r3, #12]
 523 0020 88B2     		uxth	r0, r1
 524 0022 40F00401 		orr	r1, r0, #4
 525 0026 9981     		strh	r1, [r3, #12]	@ movhi
 526              	.L62:
 527              		.loc 1 567 0
 528 0028 1269     		ldr	r2, [r2, #16]
 529 002a 22B1     		cbz	r2, .L65
 530              		.loc 1 568 0
 531 002c 9889     		ldrh	r0, [r3, #12]
 532 002e 81B2     		uxth	r1, r0
 533 0030 41F00102 		orr	r2, r1, #1
 534 0034 9A81     		strh	r2, [r3, #12]	@ movhi
 535              	.L65:
 536              		.loc 1 569 0
 537 0036 0520     		movs	r0, #5
 538 0038 1880     		strh	r0, [r3, #0]	@ movhi
 539 003a 7047     		bx	lr
 540              	.L59:
 541              		.loc 1 562 0
 542 003c 9168     		ldr	r1, [r2, #8]
 543 003e 21B1     		cbz	r1, .L63
 544              		.loc 1 563 0
 545 0040 9889     		ldrh	r0, [r3, #12]
 546 0042 81B2     		uxth	r1, r0
 547 0044 41F00200 		orr	r0, r1, #2
 548 0048 9881     		strh	r0, [r3, #12]	@ movhi
 549              	.L63:
 550              		.loc 1 564 0
 551 004a D168     		ldr	r1, [r2, #12]
 552 004c 0029     		cmp	r1, #0
 553 004e E6D1     		bne	.L78
 554 0050 EAE7     		b	.L62
 555              		.cfi_endproc
 556              	.LFE124:
 557              		.size	icu_lld_enable, .-icu_lld_enable
 558 0052 00BFAFF3 		.section	.text.icu_lld_disable,"ax",%progbits
 558      0080AFF3 
 558      0080AFF3 
 558      0080
 559              		.align	2
 560              		.p2align 4,,15
 561              		.global	icu_lld_disable
 562              		.thumb
 563              		.thumb_func
 564              		.type	icu_lld_disable, %function
 565              	icu_lld_disable:
 566              	.LFB125:
ARM GAS  C:\Users\DNIEL~1\AppData\Local\Temp\ccnLX0pg.s 			page 11


 567              		.loc 1 579 0
 568              		.cfi_startproc
 569              		@ args = 0, pretend = 0, frame = 0
 570              		@ frame_needed = 0, uses_anonymous_args = 0
 571              		@ link register save eliminated.
 572              	.LVL32:
 573              		.loc 1 581 0
 574 0000 C368     		ldr	r3, [r0, #12]
 575 0002 0022     		movs	r2, #0
 576 0004 1A80     		strh	r2, [r3, #0]	@ movhi
 577              		.loc 1 582 0
 578 0006 1A82     		strh	r2, [r3, #16]	@ movhi
 579              		.loc 1 583 0
 580 0008 9A81     		strh	r2, [r3, #12]	@ movhi
 581 000a 7047     		bx	lr
 582              		.cfi_endproc
 583              	.LFE125:
 584              		.size	icu_lld_disable, .-icu_lld_disable
 585              		.global	ICUD1
 586 000c AFF30080 		.section	.bss.ICUD1,"aw",%nobits
 587              		.align	2
 588              		.set	.LANCHOR0,. + 0
 589              		.type	ICUD1, %object
 590              		.size	ICUD1, 24
 591              	ICUD1:
 592 0000 00000000 		.space	24
 592      00000000 
 592      00000000 
 592      00000000 
 592      00000000 
 593              		.text
 594              	.Letext0:
 595              		.file 2 "c:\\chibistudio\\tools\\gnu tools arm embedded\\4.7 2014q2\\bin\\../lib/gcc/arm-none-eabi
 596              		.file 3 "../../../ChibiOS/os/hal/platforms/STM32F4xx/stm32f4xx.h"
 597              		.file 4 "../../../ChibiOS/os/hal/platforms/STM32/stm32.h"
 598              		.file 5 "../../../ChibiOS/os/hal/include/icu.h"
 599              		.file 6 "../../../ChibiOS/os/hal/platforms/STM32/icu_lld.h"
 600              		.file 7 "../../../ChibiOS/os/ports/common/ARMCMx/CMSIS/include/core_cm4.h"
 601              		.file 8 "../../../ChibiOS/os/ports/common/ARMCMx/nvic.h"
 602              		.file 9 "../../../ChibiOS/os/ports/GCC/ARMCMx/chcore_v7m.h"