ARM GAS  C:\Users\DNIEL~1\AppData\Local\Temp\cciPCRXZ.s 			page 1


   1              		.syntax unified
   2              		.cpu cortex-m4
   3              		.fpu softvfp
   4              		.eabi_attribute 20, 1
   5              		.eabi_attribute 21, 1
   6              		.eabi_attribute 23, 3
   7              		.eabi_attribute 24, 1
   8              		.eabi_attribute 25, 1
   9              		.eabi_attribute 26, 1
  10              		.eabi_attribute 30, 2
  11              		.eabi_attribute 18, 4
  12              		.thumb
  13              		.file	"icu_lld.c"
  14              		.section	.debug_abbrev,"",%progbits
  15              	.Ldebug_abbrev0:
  16              		.section	.debug_info,"",%progbits
  17              	.Ldebug_info0:
  18              		.section	.debug_line,"",%progbits
  19              	.Ldebug_line0:
  20 0000 B7020000 		.text
  20      02009901 
  20      00000201 
  20      FB0E0D00 
  20      01010101 
  21              	.Ltext0:
  22              		.cfi_sections	.debug_frame
  23              		.section	.text.icu_lld_serve_interrupt.clone.0,"ax",%progbits
  24              		.align	2
  25              		.p2align 4,,15
  26              		.thumb
  27              		.thumb_func
  28              		.type	icu_lld_serve_interrupt.clone.0, %function
  29              	icu_lld_serve_interrupt.clone.0:
  30              	.LFB126:
  31              		.file 1 "../../../ChibiOS/os/hal/platforms/STM32/TIMv1/icu_lld.c"
  32              		.loc 1 111 0
  33              		.cfi_startproc
  34              		@ args = 0, pretend = 0, frame = 0
  35              		@ frame_needed = 0, uses_anonymous_args = 0
  36              	.LVL0:
  37 0000 38B5     		push	{r3, r4, r5, lr}
  38              	.LCFI0:
  39              		.cfi_def_cfa_offset 16
  40              		.loc 1 114 0
  41 0002 234C     		ldr	r4, .L9
  42              		.cfi_offset 14, -4
  43              		.cfi_offset 5, -8
  44              		.cfi_offset 4, -12
  45              		.cfi_offset 3, -16
  46 0004 E368     		ldr	r3, [r4, #12]
  47              		.loc 1 117 0
  48 0006 6268     		ldr	r2, [r4, #4]
  49              		.loc 1 114 0
  50 0008 1D69     		ldr	r5, [r3, #16]
  51              	.LVL1:
  52              		.loc 1 115 0
  53 000a D868     		ldr	r0, [r3, #12]
ARM GAS  C:\Users\DNIEL~1\AppData\Local\Temp\cciPCRXZ.s 			page 2


  54              		.loc 1 117 0
  55 000c 117D     		ldrb	r1, [r2, #20]	@ zero_extendqisi2
  56              		.loc 1 115 0
  57 000e 0540     		ands	r5, r5, r0
  58              	.LVL2:
  59 0010 EDB2     		uxtb	r5, r5
  60              		.loc 1 116 0
  61 0012 E843     		mvns	r0, r5
  62 0014 1861     		str	r0, [r3, #16]
  63              		.loc 1 117 0
  64 0016 B9B9     		cbnz	r1, .L2
  65              		.loc 1 118 0
  66 0018 15F0020F 		tst	r5, #2
  67 001c 09D0     		beq	.L3
  68              	.LBB6:
  69              		.loc 1 119 0
  70 001e 94F800C0 		ldrb	ip, [r4, #0]	@ zero_extendqisi2
  71              	.LVL3:
  72 0022 0421     		movs	r1, #4
  73 0024 BCF1030F 		cmp	ip, #3
  74 0028 2170     		strb	r1, [r4, #0]
  75 002a 02D0     		beq	.L3
  76 002c D268     		ldr	r2, [r2, #12]
  77 002e 2046     		mov	r0, r4
  78 0030 9047     		blx	r2
  79              	.LVL4:
  80              	.L3:
  81              	.LBE6:
  82              		.loc 1 120 0
  83 0032 15F0040F 		tst	r5, #4
  84 0036 21D1     		bne	.L8
  85              	.L4:
  86              		.loc 1 128 0
  87 0038 15F0010F 		tst	r5, #1
  88 003c 03D0     		beq	.L1
  89              		.loc 1 129 0
  90 003e 6168     		ldr	r1, [r4, #4]
  91 0040 1348     		ldr	r0, .L9
  92 0042 0A69     		ldr	r2, [r1, #16]
  93 0044 9047     		blx	r2
  94              	.L1:
  95 0046 38BD     		pop	{r3, r4, r5, pc}
  96              	.L2:
  97              		.loc 1 123 0
  98 0048 15F0020F 		tst	r5, #2
  99 004c 07D0     		beq	.L5
 100              		.loc 1 124 0
 101 004e 2078     		ldrb	r0, [r4, #0]	@ zero_extendqisi2
 102 0050 0328     		cmp	r0, #3
 103 0052 04D0     		beq	.L5
 104 0054 0523     		movs	r3, #5
 105 0056 2370     		strb	r3, [r4, #0]
 106 0058 9168     		ldr	r1, [r2, #8]
 107 005a 2046     		mov	r0, r4
 108 005c 8847     		blx	r1
 109              	.L5:
 110              		.loc 1 125 0
ARM GAS  C:\Users\DNIEL~1\AppData\Local\Temp\cciPCRXZ.s 			page 3


 111 005e 15F0040F 		tst	r5, #4
 112 0062 E9D0     		beq	.L4
 113              	.LBB7:
 114              		.loc 1 126 0
 115 0064 94F800C0 		ldrb	ip, [r4, #0]	@ zero_extendqisi2
 116              	.LVL5:
 117 0068 0948     		ldr	r0, .L9
 118 006a 0422     		movs	r2, #4
 119 006c BCF1030F 		cmp	ip, #3
 120 0070 2270     		strb	r2, [r4, #0]
 121 0072 E1D0     		beq	.L4
 122 0074 4368     		ldr	r3, [r0, #4]
 123 0076 D968     		ldr	r1, [r3, #12]
 124 0078 8847     		blx	r1
 125              	.LVL6:
 126 007a DDE7     		b	.L4
 127              	.L8:
 128              	.LBE7:
 129              		.loc 1 121 0
 130 007c 2378     		ldrb	r3, [r4, #0]	@ zero_extendqisi2
 131 007e 0448     		ldr	r0, .L9
 132 0080 032B     		cmp	r3, #3
 133 0082 D9D0     		beq	.L4
 134 0084 4368     		ldr	r3, [r0, #4]
 135 0086 0522     		movs	r2, #5
 136 0088 0270     		strb	r2, [r0, #0]
 137 008a 9968     		ldr	r1, [r3, #8]
 138 008c 8847     		blx	r1
 139 008e D3E7     		b	.L4
 140              	.L10:
 141              		.align	2
 142              	.L9:
 143 0090 00000000 		.word	.LANCHOR0
 144              		.cfi_endproc
 145              	.LFE126:
 146              		.size	icu_lld_serve_interrupt.clone.0, .-icu_lld_serve_interrupt.clone.0
 147 0094 AFF30080 		.section	.text.VectorA4,"ax",%progbits
 147      AFF30080 
 147      AFF30080 
 148              		.align	2
 149              		.p2align 4,,15
 150              		.global	VectorA4
 151              		.thumb
 152              		.thumb_func
 153              		.type	VectorA4, %function
 154              	VectorA4:
 155              	.LFB119:
 156              		.loc 1 148 0
 157              		.cfi_startproc
 158              		@ args = 0, pretend = 0, frame = 0
 159              		@ frame_needed = 0, uses_anonymous_args = 0
 160 0000 10B5     		push	{r4, lr}
 161              	.LCFI1:
 162              		.cfi_def_cfa_offset 8
 163              		.loc 1 152 0
 164              		.cfi_offset 14, -4
 165              		.cfi_offset 4, -8
ARM GAS  C:\Users\DNIEL~1\AppData\Local\Temp\cciPCRXZ.s 			page 4


 166 0002 FFF7FEFF 		bl	icu_lld_serve_interrupt.clone.0
 167              		.loc 1 155 0
 168 0006 BDE81040 		pop	{r4, lr}
 169              		.loc 1 154 0
 170 000a FFF7FEBF 		b	_port_irq_epilogue
 171              		.cfi_endproc
 172              	.LFE119:
 173              		.size	VectorA4, .-VectorA4
 174 000e 00BF     		.section	.text.VectorAC,"ax",%progbits
 175              		.align	2
 176              		.p2align 4,,15
 177              		.global	VectorAC
 178              		.thumb
 179              		.thumb_func
 180              		.type	VectorAC, %function
 181              	VectorAC:
 182              	.LFB120:
 183              		.loc 1 168 0
 184              		.cfi_startproc
 185              		@ args = 0, pretend = 0, frame = 0
 186              		@ frame_needed = 0, uses_anonymous_args = 0
 187 0000 10B5     		push	{r4, lr}
 188              	.LCFI2:
 189              		.cfi_def_cfa_offset 8
 190              		.loc 1 172 0
 191              		.cfi_offset 14, -4
 192              		.cfi_offset 4, -8
 193 0002 FFF7FEFF 		bl	icu_lld_serve_interrupt.clone.0
 194              		.loc 1 175 0
 195 0006 BDE81040 		pop	{r4, lr}
 196              		.loc 1 174 0
 197 000a FFF7FEBF 		b	_port_irq_epilogue
 198              		.cfi_endproc
 199              	.LFE120:
 200              		.size	VectorAC, .-VectorAC
 201 000e 00BF     		.section	.text.icu_lld_init,"ax",%progbits
 202              		.align	2
 203              		.p2align 4,,15
 204              		.global	icu_lld_init
 205              		.thumb
 206              		.thumb_func
 207              		.type	icu_lld_init, %function
 208              	icu_lld_init:
 209              	.LFB121:
 210              		.loc 1 339 0
 211              		.cfi_startproc
 212              		@ args = 0, pretend = 0, frame = 0
 213              		@ frame_needed = 0, uses_anonymous_args = 0
 214 0000 10B5     		push	{r4, lr}
 215              	.LCFI3:
 216              		.cfi_def_cfa_offset 8
 217              		.loc 1 343 0
 218 0002 034C     		ldr	r4, .L14
 219              		.cfi_offset 14, -4
 220              		.cfi_offset 4, -8
 221 0004 2046     		mov	r0, r4
 222 0006 FFF7FEFF 		bl	icuObjectInit
ARM GAS  C:\Users\DNIEL~1\AppData\Local\Temp\cciPCRXZ.s 			page 5


 223              		.loc 1 344 0
 224 000a 024B     		ldr	r3, .L14+4
 225 000c E360     		str	r3, [r4, #12]
 226              		.loc 1 382 0
 227 000e 10BD     		pop	{r4, pc}
 228              	.L15:
 229              		.align	2
 230              	.L14:
 231 0010 00000000 		.word	.LANCHOR0
 232 0014 00000140 		.word	1073807360
 233              		.cfi_endproc
 234              	.LFE121:
 235              		.size	icu_lld_init, .-icu_lld_init
 236 0018 AFF30080 		.section	.text.icu_lld_start,"ax",%progbits
 236      AFF30080 
 237              		.align	2
 238              		.p2align 4,,15
 239              		.global	icu_lld_start
 240              		.thumb
 241              		.thumb_func
 242              		.type	icu_lld_start, %function
 243              	icu_lld_start:
 244              	.LFB122:
 245              		.loc 1 391 0
 246              		.cfi_startproc
 247              		@ args = 0, pretend = 0, frame = 0
 248              		@ frame_needed = 0, uses_anonymous_args = 0
 249              	.LVL7:
 250              		.loc 1 398 0
 251 0000 0378     		ldrb	r3, [r0, #0]	@ zero_extendqisi2
 252 0002 012B     		cmp	r3, #1
 253              		.loc 1 391 0
 254 0004 70B5     		push	{r4, r5, r6, lr}
 255              	.LCFI4:
 256              		.cfi_def_cfa_offset 16
 257              		.loc 1 391 0
 258 0006 0446     		mov	r4, r0
 259              		.cfi_offset 14, -4
 260              		.cfi_offset 6, -8
 261              		.cfi_offset 5, -12
 262              		.cfi_offset 4, -16
 263              		.loc 1 398 0
 264 0008 46D0     		beq	.L26
 265              		.loc 1 478 0
 266 000a C368     		ldr	r3, [r0, #12]
 267 000c 0025     		movs	r5, #0
 268 000e 1D60     		str	r5, [r3, #0]
 269              		.loc 1 479 0
 270 0010 5D63     		str	r5, [r3, #52]
 271              		.loc 1 480 0
 272 0012 9D63     		str	r5, [r3, #56]
 273              		.loc 1 481 0
 274 0014 5D62     		str	r5, [r3, #36]
 275              	.LVL8:
 276              	.L19:
 277              		.loc 1 486 0
 278 0016 6268     		ldr	r2, [r4, #4]
ARM GAS  C:\Users\DNIEL~1\AppData\Local\Temp\cciPCRXZ.s 			page 6


 279              		.loc 1 488 0
 280 0018 A668     		ldr	r6, [r4, #8]
 281 001a 5068     		ldr	r0, [r2, #4]
 282              		.loc 1 486 0
 283 001c 9569     		ldr	r5, [r2, #24]
 284              		.loc 1 495 0
 285 001e 117D     		ldrb	r1, [r2, #20]	@ zero_extendqisi2
 286              		.loc 1 488 0
 287 0020 B6FBF0F0 		udiv	r0, r6, r0
 288 0024 461E     		subs	r6, r0, #1
 289              		.loc 1 492 0
 290 0026 B0B2     		uxth	r0, r6
 291              		.loc 1 486 0
 292 0028 25F0FF05 		bic	r5, r5, #255
 293              		.loc 1 485 0
 294 002c 0026     		movs	r6, #0
 295 002e 1E61     		str	r6, [r3, #16]
 296              		.loc 1 486 0
 297 0030 DD60     		str	r5, [r3, #12]
 298              		.loc 1 492 0
 299 0032 9862     		str	r0, [r3, #40]
 300              		.loc 1 493 0
 301 0034 4FF6FF70 		movw	r0, #65535
 302 0038 D862     		str	r0, [r3, #44]
 303              		.loc 1 495 0
 304 003a 71B9     		cbnz	r1, .L20
 305              		.loc 1 508 0
 306 003c 1278     		ldrb	r2, [r2, #0]	@ zero_extendqisi2
 307              		.loc 1 499 0
 308 003e 40F20120 		movw	r0, #513
 309              		.loc 1 503 0
 310 0042 5421     		movs	r1, #84
 311              		.loc 1 499 0
 312 0044 9861     		str	r0, [r3, #24]
 313              		.loc 1 503 0
 314 0046 9960     		str	r1, [r3, #8]
 315              		.loc 1 508 0
 316 0048 F2B1     		cbz	r2, .L27
 317              		.loc 1 512 0
 318 004a 1321     		movs	r1, #19
 319 004c 1962     		str	r1, [r3, #32]
 320              		.loc 1 517 0
 321 004e 03F13800 		add	r0, r3, #56
 322              		.loc 1 518 0
 323 0052 3433     		adds	r3, r3, #52
 324              		.loc 1 517 0
 325 0054 2061     		str	r0, [r4, #16]
 326              		.loc 1 518 0
 327 0056 6361     		str	r3, [r4, #20]
 328 0058 70BD     		pop	{r4, r5, r6, pc}
 329              	.L20:
 330              		.loc 1 532 0
 331 005a 1278     		ldrb	r2, [r2, #0]	@ zero_extendqisi2
 332              		.loc 1 523 0
 333 005c 4FF48170 		mov	r0, #258
 334              		.loc 1 527 0
 335 0060 6421     		movs	r1, #100
ARM GAS  C:\Users\DNIEL~1\AppData\Local\Temp\cciPCRXZ.s 			page 7


 336              		.loc 1 523 0
 337 0062 9861     		str	r0, [r3, #24]
 338              		.loc 1 527 0
 339 0064 9960     		str	r1, [r3, #8]
 340              		.loc 1 532 0
 341 0066 3AB1     		cbz	r2, .L28
 342              		.loc 1 536 0
 343 0068 3121     		movs	r1, #49
 344 006a 1962     		str	r1, [r3, #32]
 345              		.loc 1 541 0
 346 006c 03F13400 		add	r0, r3, #52
 347              		.loc 1 542 0
 348 0070 3833     		adds	r3, r3, #56
 349              		.loc 1 541 0
 350 0072 2061     		str	r0, [r4, #16]
 351              		.loc 1 542 0
 352 0074 6361     		str	r3, [r4, #20]
 353 0076 70BD     		pop	{r4, r5, r6, pc}
 354              	.L28:
 355              		.loc 1 533 0
 356 0078 1322     		movs	r2, #19
 357 007a 1A62     		str	r2, [r3, #32]
 358              		.loc 1 541 0
 359 007c 03F13400 		add	r0, r3, #52
 360              		.loc 1 542 0
 361 0080 3833     		adds	r3, r3, #56
 362              		.loc 1 541 0
 363 0082 2061     		str	r0, [r4, #16]
 364              		.loc 1 542 0
 365 0084 6361     		str	r3, [r4, #20]
 366 0086 70BD     		pop	{r4, r5, r6, pc}
 367              	.L27:
 368              		.loc 1 509 0
 369 0088 3122     		movs	r2, #49
 370 008a 1A62     		str	r2, [r3, #32]
 371              		.loc 1 517 0
 372 008c 03F13800 		add	r0, r3, #56
 373              		.loc 1 518 0
 374 0090 3433     		adds	r3, r3, #52
 375              		.loc 1 517 0
 376 0092 2061     		str	r0, [r4, #16]
 377              		.loc 1 518 0
 378 0094 6361     		str	r3, [r4, #20]
 379 0096 70BD     		pop	{r4, r5, r6, pc}
 380              	.LVL9:
 381              	.L26:
 382              		.loc 1 401 0
 383 0098 0D49     		ldr	r1, .L29
 384 009a 8842     		cmp	r0, r1
 385 009c 01D0     		beq	.L18
 386 009e C368     		ldr	r3, [r0, #12]
 387 00a0 B9E7     		b	.L19
 388              	.L18:
 389              		.loc 1 402 0
 390 00a2 0C4E     		ldr	r6, .L29+4
 391 00a4 726C     		ldr	r2, [r6, #68]
 392 00a6 42F00100 		orr	r0, r2, #1
ARM GAS  C:\Users\DNIEL~1\AppData\Local\Temp\cciPCRXZ.s 			page 8


 393 00aa 7064     		str	r0, [r6, #68]
 394              		.loc 1 403 0
 395 00ac 716A     		ldr	r1, [r6, #36]
 396 00ae 0025     		movs	r5, #0
 397 00b0 41F00103 		orr	r3, r1, #1
 398 00b4 7362     		str	r3, [r6, #36]
 399              		.loc 1 404 0
 400 00b6 1920     		movs	r0, #25
 401 00b8 7021     		movs	r1, #112
 402              		.loc 1 403 0
 403 00ba 7562     		str	r5, [r6, #36]
 404              		.loc 1 404 0
 405 00bc FFF7FEFF 		bl	nvicEnableVector
 406              		.loc 1 406 0
 407 00c0 1B20     		movs	r0, #27
 408 00c2 7021     		movs	r1, #112
 409 00c4 FFF7FEFF 		bl	nvicEnableVector
 410              		.loc 1 411 0
 411 00c8 034A     		ldr	r2, .L29+8
 412 00ca E368     		ldr	r3, [r4, #12]
 413 00cc A260     		str	r2, [r4, #8]
 414 00ce A2E7     		b	.L19
 415              	.L30:
 416              		.align	2
 417              	.L29:
 418 00d0 00000000 		.word	.LANCHOR0
 419 00d4 00380240 		.word	1073887232
 420 00d8 007A030A 		.word	168000000
 421              		.cfi_endproc
 422              	.LFE122:
 423              		.size	icu_lld_start, .-icu_lld_start
 424 00dc AFF30080 		.section	.text.icu_lld_stop,"ax",%progbits
 425              		.align	2
 426              		.p2align 4,,15
 427              		.global	icu_lld_stop
 428              		.thumb
 429              		.thumb_func
 430              		.type	icu_lld_stop, %function
 431              	icu_lld_stop:
 432              	.LFB123:
 433              		.loc 1 553 0
 434              		.cfi_startproc
 435              		@ args = 0, pretend = 0, frame = 0
 436              		@ frame_needed = 0, uses_anonymous_args = 0
 437              	.LVL10:
 438 0000 08B5     		push	{r3, lr}
 439              	.LCFI5:
 440              		.cfi_def_cfa_offset 8
 441              		.loc 1 555 0
 442 0002 0378     		ldrb	r3, [r0, #0]	@ zero_extendqisi2
 443              		.cfi_offset 14, -4
 444              		.cfi_offset 3, -8
 445 0004 022B     		cmp	r3, #2
 446 0006 00D0     		beq	.L33
 447              	.LVL11:
 448              	.L31:
 449 0008 08BD     		pop	{r3, pc}
ARM GAS  C:\Users\DNIEL~1\AppData\Local\Temp\cciPCRXZ.s 			page 9


 450              	.LVL12:
 451              	.L33:
 452              		.loc 1 562 0
 453 000a 0A49     		ldr	r1, .L34
 454              		.loc 1 557 0
 455 000c C368     		ldr	r3, [r0, #12]
 456 000e 0022     		movs	r2, #0
 457              		.loc 1 562 0
 458 0010 8842     		cmp	r0, r1
 459              		.loc 1 557 0
 460 0012 1A60     		str	r2, [r3, #0]
 461              		.loc 1 558 0
 462 0014 DA60     		str	r2, [r3, #12]
 463              		.loc 1 559 0
 464 0016 1A61     		str	r2, [r3, #16]
 465              		.loc 1 562 0
 466 0018 F6D1     		bne	.L31
 467              		.loc 1 563 0
 468 001a 1920     		movs	r0, #25
 469              	.LVL13:
 470 001c FFF7FEFF 		bl	nvicDisableVector
 471              		.loc 1 564 0
 472 0020 1B20     		movs	r0, #27
 473 0022 FFF7FEFF 		bl	nvicDisableVector
 474              		.loc 1 565 0
 475 0026 0449     		ldr	r1, .L34+4
 476 0028 4A6C     		ldr	r2, [r1, #68]
 477 002a 22F00100 		bic	r0, r2, #1
 478 002e 4864     		str	r0, [r1, #68]
 479 0030 EAE7     		b	.L31
 480              	.L35:
 481 0032 00BF     		.align	2
 482              	.L34:
 483 0034 00000000 		.word	.LANCHOR0
 484 0038 00380240 		.word	1073887232
 485              		.cfi_endproc
 486              	.LFE123:
 487              		.size	icu_lld_stop, .-icu_lld_stop
 488 003c AFF30080 		.section	.text.icu_lld_enable,"ax",%progbits
 489              		.align	2
 490              		.p2align 4,,15
 491              		.global	icu_lld_enable
 492              		.thumb
 493              		.thumb_func
 494              		.type	icu_lld_enable, %function
 495              	icu_lld_enable:
 496              	.LFB124:
 497              		.loc 1 615 0
 498              		.cfi_startproc
 499              		@ args = 0, pretend = 0, frame = 0
 500              		@ frame_needed = 0, uses_anonymous_args = 0
 501              		@ link register save eliminated.
 502              	.LVL14:
 503              		.loc 1 617 0
 504 0000 C368     		ldr	r3, [r0, #12]
 505              		.loc 1 619 0
 506 0002 4268     		ldr	r2, [r0, #4]
ARM GAS  C:\Users\DNIEL~1\AppData\Local\Temp\cciPCRXZ.s 			page 10


 507              		.loc 1 617 0
 508 0004 5869     		ldr	r0, [r3, #20]
 509              	.LVL15:
 510              		.loc 1 619 0
 511 0006 117D     		ldrb	r1, [r2, #20]	@ zero_extendqisi2
 512              		.loc 1 617 0
 513 0008 40F00100 		orr	r0, r0, #1
 514 000c 5861     		str	r0, [r3, #20]
 515              		.loc 1 618 0
 516 000e 0020     		movs	r0, #0
 517 0010 1861     		str	r0, [r3, #16]
 518              		.loc 1 619 0
 519 0012 A1B9     		cbnz	r1, .L37
 520              		.loc 1 620 0
 521 0014 D168     		ldr	r1, [r2, #12]
 522 0016 19B1     		cbz	r1, .L38
 523              		.loc 1 621 0
 524 0018 D968     		ldr	r1, [r3, #12]
 525 001a 41F00200 		orr	r0, r1, #2
 526 001e D860     		str	r0, [r3, #12]
 527              	.L38:
 528              		.loc 1 622 0
 529 0020 9068     		ldr	r0, [r2, #8]
 530 0022 18B1     		cbz	r0, .L39
 531              	.L42:
 532              		.loc 1 628 0
 533 0024 D868     		ldr	r0, [r3, #12]
 534 0026 40F00401 		orr	r1, r0, #4
 535 002a D960     		str	r1, [r3, #12]
 536              	.L39:
 537              		.loc 1 630 0
 538 002c 1269     		ldr	r2, [r2, #16]
 539 002e 1AB1     		cbz	r2, .L41
 540              		.loc 1 631 0
 541 0030 D868     		ldr	r0, [r3, #12]
 542 0032 40F00101 		orr	r1, r0, #1
 543 0036 D960     		str	r1, [r3, #12]
 544              	.L41:
 545              		.loc 1 632 0
 546 0038 0522     		movs	r2, #5
 547 003a 1A60     		str	r2, [r3, #0]
 548              		.loc 1 633 0
 549 003c 7047     		bx	lr
 550              	.L37:
 551              		.loc 1 625 0
 552 003e 9168     		ldr	r1, [r2, #8]
 553 0040 19B1     		cbz	r1, .L40
 554              		.loc 1 626 0
 555 0042 D968     		ldr	r1, [r3, #12]
 556 0044 41F00200 		orr	r0, r1, #2
 557 0048 D860     		str	r0, [r3, #12]
 558              	.L40:
 559              		.loc 1 627 0
 560 004a D068     		ldr	r0, [r2, #12]
 561 004c 0028     		cmp	r0, #0
 562 004e E9D1     		bne	.L42
 563 0050 ECE7     		b	.L39
ARM GAS  C:\Users\DNIEL~1\AppData\Local\Temp\cciPCRXZ.s 			page 11


 564              		.cfi_endproc
 565              	.LFE124:
 566              		.size	icu_lld_enable, .-icu_lld_enable
 567 0052 00BFAFF3 		.section	.text.icu_lld_disable,"ax",%progbits
 567      0080AFF3 
 567      0080AFF3 
 567      0080
 568              		.align	2
 569              		.p2align 4,,15
 570              		.global	icu_lld_disable
 571              		.thumb
 572              		.thumb_func
 573              		.type	icu_lld_disable, %function
 574              	icu_lld_disable:
 575              	.LFB125:
 576              		.loc 1 642 0
 577              		.cfi_startproc
 578              		@ args = 0, pretend = 0, frame = 0
 579              		@ frame_needed = 0, uses_anonymous_args = 0
 580              		@ link register save eliminated.
 581              	.LVL16:
 582              		.loc 1 644 0
 583 0000 C368     		ldr	r3, [r0, #12]
 584 0002 0021     		movs	r1, #0
 585 0004 1960     		str	r1, [r3, #0]
 586              		.loc 1 645 0
 587 0006 1961     		str	r1, [r3, #16]
 588              		.loc 1 648 0
 589 0008 D868     		ldr	r0, [r3, #12]
 590              	.LVL17:
 591 000a 20F0FF02 		bic	r2, r0, #255
 592 000e DA60     		str	r2, [r3, #12]
 593              		.loc 1 649 0
 594 0010 7047     		bx	lr
 595              		.cfi_endproc
 596              	.LFE125:
 597              		.size	icu_lld_disable, .-icu_lld_disable
 598              		.global	ICUD1
 599 0012 00BFAFF3 		.section	.bss.ICUD1,"aw",%nobits
 599      0080AFF3 
 599      0080AFF3 
 599      0080
 600              		.align	2
 601              		.set	.LANCHOR0,. + 0
 602              		.type	ICUD1, %object
 603              		.size	ICUD1, 24
 604              	ICUD1:
 605 0000 00000000 		.space	24
 605      00000000 
 605      00000000 
 605      00000000 
 605      00000000 
 606              		.text
 607              	.Letext0:
 608              		.section	.debug_loc,"",%progbits
 609              	.Ldebug_loc0:
 610              	.LLST0:
ARM GAS  C:\Users\DNIEL~1\AppData\Local\Temp\cciPCRXZ.s 			page 12


 611 0000 00000000 		.4byte	.LFB126
 612 0004 02000000 		.4byte	.LCFI0
 613 0008 0200     		.2byte	0x2
 614 000a 7D       		.byte	0x7d
 615 000b 00       		.sleb128 0
 616 000c 02000000 		.4byte	.LCFI0
 617 0010 94000000 		.4byte	.LFE126
 618 0014 0200     		.2byte	0x2
 619 0016 7D       		.byte	0x7d
 620 0017 10       		.sleb128 16
 621 0018 00000000 		.4byte	0x0
 622 001c 00000000 		.4byte	0x0
 623              	.LLST1:
 624 0020 0A000000 		.4byte	.LVL1
 625 0024 10000000 		.4byte	.LVL2
 626 0028 0100     		.2byte	0x1
 627 002a 55       		.byte	0x55
 628 002b 00000000 		.4byte	0x0
 629 002f 00000000 		.4byte	0x0
 630              	.LLST2:
 631 0033 22000000 		.4byte	.LVL3
 632 0037 31000000 		.4byte	.LVL4-1
 633 003b 0100     		.2byte	0x1
 634 003d 5C       		.byte	0x5c
 635 003e 00000000 		.4byte	0x0
 636 0042 00000000 		.4byte	0x0
 637              	.LLST3:
 638 0046 68000000 		.4byte	.LVL5
 639 004a 79000000 		.4byte	.LVL6-1
 640 004e 0100     		.2byte	0x1
 641 0050 5C       		.byte	0x5c
 642 0051 00000000 		.4byte	0x0
 643 0055 00000000 		.4byte	0x0
 644              	.LLST4:
 645 0059 00000000 		.4byte	.LFB119
 646 005d 02000000 		.4byte	.LCFI1
 647 0061 0200     		.2byte	0x2
 648 0063 7D       		.byte	0x7d
 649 0064 00       		.sleb128 0
 650 0065 02000000 		.4byte	.LCFI1
 651 0069 0E000000 		.4byte	.LFE119
 652 006d 0200     		.2byte	0x2
 653 006f 7D       		.byte	0x7d
 654 0070 08       		.sleb128 8
 655 0071 00000000 		.4byte	0x0
 656 0075 00000000 		.4byte	0x0
 657              	.LLST5:
 658 0079 00000000 		.4byte	.LFB120
 659 007d 02000000 		.4byte	.LCFI2
 660 0081 0200     		.2byte	0x2
 661 0083 7D       		.byte	0x7d
 662 0084 00       		.sleb128 0
 663 0085 02000000 		.4byte	.LCFI2
 664 0089 0E000000 		.4byte	.LFE120
 665 008d 0200     		.2byte	0x2
 666 008f 7D       		.byte	0x7d
 667 0090 08       		.sleb128 8
ARM GAS  C:\Users\DNIEL~1\AppData\Local\Temp\cciPCRXZ.s 			page 13


 668 0091 00000000 		.4byte	0x0
 669 0095 00000000 		.4byte	0x0
 670              	.LLST6:
 671 0099 00000000 		.4byte	.LFB121
 672 009d 02000000 		.4byte	.LCFI3
 673 00a1 0200     		.2byte	0x2
 674 00a3 7D       		.byte	0x7d
 675 00a4 00       		.sleb128 0
 676 00a5 02000000 		.4byte	.LCFI3
 677 00a9 18000000 		.4byte	.LFE121
 678 00ad 0200     		.2byte	0x2
 679 00af 7D       		.byte	0x7d
 680 00b0 08       		.sleb128 8
 681 00b1 00000000 		.4byte	0x0
 682 00b5 00000000 		.4byte	0x0
 683              	.LLST7:
 684 00b9 00000000 		.4byte	.LFB122
 685 00bd 06000000 		.4byte	.LCFI4
 686 00c1 0200     		.2byte	0x2
 687 00c3 7D       		.byte	0x7d
 688 00c4 00       		.sleb128 0
 689 00c5 06000000 		.4byte	.LCFI4
 690 00c9 DC000000 		.4byte	.LFE122
 691 00cd 0200     		.2byte	0x2
 692 00cf 7D       		.byte	0x7d
 693 00d0 10       		.sleb128 16
 694 00d1 00000000 		.4byte	0x0
 695 00d5 00000000 		.4byte	0x0
 696              	.LLST8:
 697 00d9 00000000 		.4byte	.LVL7
 698 00dd 16000000 		.4byte	.LVL8
 699 00e1 0100     		.2byte	0x1
 700 00e3 50       		.byte	0x50
 701 00e4 16000000 		.4byte	.LVL8
 702 00e8 DC000000 		.4byte	.LFE122
 703 00ec 0100     		.2byte	0x1
 704 00ee 54       		.byte	0x54
 705 00ef 00000000 		.4byte	0x0
 706 00f3 00000000 		.4byte	0x0
 707              	.LLST9:
 708 00f7 00000000 		.4byte	.LFB123
 709 00fb 02000000 		.4byte	.LCFI5
 710 00ff 0200     		.2byte	0x2
 711 0101 7D       		.byte	0x7d
 712 0102 00       		.sleb128 0
 713 0103 02000000 		.4byte	.LCFI5
 714 0107 3C000000 		.4byte	.LFE123
 715 010b 0200     		.2byte	0x2
 716 010d 7D       		.byte	0x7d
 717 010e 08       		.sleb128 8
 718 010f 00000000 		.4byte	0x0
 719 0113 00000000 		.4byte	0x0
 720              	.LLST10:
 721 0117 00000000 		.4byte	.LVL10
 722 011b 08000000 		.4byte	.LVL11
 723 011f 0100     		.2byte	0x1
 724 0121 50       		.byte	0x50
ARM GAS  C:\Users\DNIEL~1\AppData\Local\Temp\cciPCRXZ.s 			page 14


 725 0122 0A000000 		.4byte	.LVL12
 726 0126 1C000000 		.4byte	.LVL13
 727 012a 0100     		.2byte	0x1
 728 012c 50       		.byte	0x50
 729 012d 00000000 		.4byte	0x0
 730 0131 00000000 		.4byte	0x0
 731              	.LLST11:
 732 0135 00000000 		.4byte	.LVL14
 733 0139 06000000 		.4byte	.LVL15
 734 013d 0100     		.2byte	0x1
 735 013f 50       		.byte	0x50
 736 0140 00000000 		.4byte	0x0
 737 0144 00000000 		.4byte	0x0
 738              	.LLST12:
 739 0148 00000000 		.4byte	.LVL16
 740 014c 0A000000 		.4byte	.LVL17
 741 0150 0100     		.2byte	0x1
 742 0152 50       		.byte	0x50
 743 0153 00000000 		.4byte	0x0
 744 0157 00000000 		.4byte	0x0
 745              		.file 2 "c:\\program files (x86)\\codesourcery\\sourcery g++ lite\\bin\\../lib/gcc/arm-none-eabi/4
 746              		.file 3 "../../../ChibiOS/os/hal/platforms/STM32F4xx/stm32f4xx.h"
 747              		.file 4 "../../../ChibiOS/os/hal/include/icu.h"
 748              		.file 5 "../../../ChibiOS/os/hal/platforms/STM32/TIMv1/icu_lld.h"
 749              		.file 6 "../../../ChibiOS/os/hal/platforms/STM32/TIMv1/stm32_tim.h"
 750              		.file 7 "../../../ChibiOS/os/ports/common/ARMCMx/CMSIS/include/core_cm4.h"
 751              		.section	.debug_info
 752 0000 89070000 		.4byte	0x789
 753 0004 0200     		.2byte	0x2
 754 0006 00000000 		.4byte	.Ldebug_abbrev0
 755 000a 04       		.byte	0x4
 756 000b 01       		.uleb128 0x1
 757 000c 87030000 		.4byte	.LASF95
 758 0010 01       		.byte	0x1
 759 0011 5B010000 		.4byte	.LASF96
 760 0015 5C020000 		.4byte	.LASF97
 761 0019 00000000 		.4byte	0x0
 762 001d 00000000 		.4byte	0x0
 763 0021 00000000 		.4byte	.Ldebug_ranges0+0x0
 764 0025 00000000 		.4byte	.Ldebug_line0
 765 0029 02       		.uleb128 0x2
 766 002a 04       		.byte	0x4
 767 002b 05       		.byte	0x5
 768 002c 696E7400 		.ascii	"int\000"
 769 0030 03       		.uleb128 0x3
 770 0031 04       		.byte	0x4
 771 0032 07       		.byte	0x7
 772 0033 2B020000 		.4byte	.LASF0
 773 0037 03       		.uleb128 0x3
 774 0038 01       		.byte	0x1
 775 0039 06       		.byte	0x6
 776 003a 12020000 		.4byte	.LASF1
 777 003e 03       		.uleb128 0x3
 778 003f 01       		.byte	0x1
 779 0040 08       		.byte	0x8
 780 0041 DD010000 		.4byte	.LASF2
 781 0045 03       		.uleb128 0x3
ARM GAS  C:\Users\DNIEL~1\AppData\Local\Temp\cciPCRXZ.s 			page 15


 782 0046 02       		.byte	0x2
 783 0047 05       		.byte	0x5
 784 0048 65000000 		.4byte	.LASF3
 785 004c 04       		.uleb128 0x4
 786 004d 41020000 		.4byte	.LASF5
 787 0051 02       		.byte	0x2
 788 0052 36       		.byte	0x36
 789 0053 57000000 		.4byte	0x57
 790 0057 03       		.uleb128 0x3
 791 0058 02       		.byte	0x2
 792 0059 07       		.byte	0x7
 793 005a A4020000 		.4byte	.LASF4
 794 005e 04       		.uleb128 0x4
 795 005f EF020000 		.4byte	.LASF6
 796 0063 02       		.byte	0x2
 797 0064 4F       		.byte	0x4f
 798 0065 69000000 		.4byte	0x69
 799 0069 03       		.uleb128 0x3
 800 006a 04       		.byte	0x4
 801 006b 05       		.byte	0x5
 802 006c 99010000 		.4byte	.LASF7
 803 0070 04       		.uleb128 0x4
 804 0071 07010000 		.4byte	.LASF8
 805 0075 02       		.byte	0x2
 806 0076 50       		.byte	0x50
 807 0077 7B000000 		.4byte	0x7b
 808 007b 03       		.uleb128 0x3
 809 007c 04       		.byte	0x4
 810 007d 07       		.byte	0x7
 811 007e 4A020000 		.4byte	.LASF9
 812 0082 03       		.uleb128 0x3
 813 0083 08       		.byte	0x8
 814 0084 05       		.byte	0x5
 815 0085 2C010000 		.4byte	.LASF10
 816 0089 03       		.uleb128 0x3
 817 008a 08       		.byte	0x8
 818 008b 07       		.byte	0x7
 819 008c 3A010000 		.4byte	.LASF11
 820 0090 03       		.uleb128 0x3
 821 0091 01       		.byte	0x1
 822 0092 02       		.byte	0x2
 823 0093 9E020000 		.4byte	.LASF12
 824 0097 05       		.uleb128 0x5
 825 0098 70000000 		.4byte	0x70
 826 009c 03       		.uleb128 0x3
 827 009d 01       		.byte	0x1
 828 009e 08       		.byte	0x8
 829 009f C1020000 		.4byte	.LASF13
 830 00a3 06       		.uleb128 0x6
 831 00a4 70000000 		.4byte	0x70
 832 00a8 B3000000 		.4byte	0xb3
 833 00ac 07       		.uleb128 0x7
 834 00ad 30000000 		.4byte	0x30
 835 00b1 01       		.byte	0x1
 836 00b2 00       		.byte	0x0
 837 00b3 06       		.uleb128 0x6
 838 00b4 70000000 		.4byte	0x70
ARM GAS  C:\Users\DNIEL~1\AppData\Local\Temp\cciPCRXZ.s 			page 16


 839 00b8 C3000000 		.4byte	0xc3
 840 00bc 07       		.uleb128 0x7
 841 00bd 30000000 		.4byte	0x30
 842 00c1 03       		.byte	0x3
 843 00c2 00       		.byte	0x0
 844 00c3 05       		.uleb128 0x5
 845 00c4 5E000000 		.4byte	0x5e
 846 00c8 08       		.uleb128 0x8
 847 00c9 90       		.byte	0x90
 848 00ca 03       		.byte	0x3
 849 00cb 5804     		.2byte	0x458
 850 00cd B5020000 		.4byte	0x2b5
 851 00d1 09       		.uleb128 0x9
 852 00d2 435200   		.ascii	"CR\000"
 853 00d5 03       		.byte	0x3
 854 00d6 5A04     		.2byte	0x45a
 855 00d8 97000000 		.4byte	0x97
 856 00dc 02       		.byte	0x2
 857 00dd 23       		.byte	0x23
 858 00de 00       		.uleb128 0x0
 859 00df 0A       		.uleb128 0xa
 860 00e0 01040000 		.4byte	.LASF14
 861 00e4 03       		.byte	0x3
 862 00e5 5B04     		.2byte	0x45b
 863 00e7 97000000 		.4byte	0x97
 864 00eb 02       		.byte	0x2
 865 00ec 23       		.byte	0x23
 866 00ed 04       		.uleb128 0x4
 867 00ee 0A       		.uleb128 0xa
 868 00ef CB000000 		.4byte	.LASF15
 869 00f3 03       		.byte	0x3
 870 00f4 5C04     		.2byte	0x45c
 871 00f6 97000000 		.4byte	0x97
 872 00fa 02       		.byte	0x2
 873 00fb 23       		.byte	0x23
 874 00fc 08       		.uleb128 0x8
 875 00fd 09       		.uleb128 0x9
 876 00fe 43495200 		.ascii	"CIR\000"
 877 0102 03       		.byte	0x3
 878 0103 5D04     		.2byte	0x45d
 879 0105 97000000 		.4byte	0x97
 880 0109 02       		.byte	0x2
 881 010a 23       		.byte	0x23
 882 010b 0C       		.uleb128 0xc
 883 010c 0A       		.uleb128 0xa
 884 010d C2030000 		.4byte	.LASF16
 885 0111 03       		.byte	0x3
 886 0112 5E04     		.2byte	0x45e
 887 0114 97000000 		.4byte	0x97
 888 0118 02       		.byte	0x2
 889 0119 23       		.byte	0x23
 890 011a 10       		.uleb128 0x10
 891 011b 0A       		.uleb128 0xa
 892 011c 38020000 		.4byte	.LASF17
 893 0120 03       		.byte	0x3
 894 0121 5F04     		.2byte	0x45f
 895 0123 97000000 		.4byte	0x97
ARM GAS  C:\Users\DNIEL~1\AppData\Local\Temp\cciPCRXZ.s 			page 17


 896 0127 02       		.byte	0x2
 897 0128 23       		.byte	0x23
 898 0129 14       		.uleb128 0x14
 899 012a 0A       		.uleb128 0xa
 900 012b EB030000 		.4byte	.LASF18
 901 012f 03       		.byte	0x3
 902 0130 6004     		.2byte	0x460
 903 0132 97000000 		.4byte	0x97
 904 0136 02       		.byte	0x2
 905 0137 23       		.byte	0x23
 906 0138 18       		.uleb128 0x18
 907 0139 0A       		.uleb128 0xa
 908 013a 2F030000 		.4byte	.LASF19
 909 013e 03       		.byte	0x3
 910 013f 6104     		.2byte	0x461
 911 0141 70000000 		.4byte	0x70
 912 0145 02       		.byte	0x2
 913 0146 23       		.byte	0x23
 914 0147 1C       		.uleb128 0x1c
 915 0148 0A       		.uleb128 0xa
 916 0149 9C000000 		.4byte	.LASF20
 917 014d 03       		.byte	0x3
 918 014e 6204     		.2byte	0x462
 919 0150 97000000 		.4byte	0x97
 920 0154 02       		.byte	0x2
 921 0155 23       		.byte	0x23
 922 0156 20       		.uleb128 0x20
 923 0157 0A       		.uleb128 0xa
 924 0158 B2010000 		.4byte	.LASF21
 925 015c 03       		.byte	0x3
 926 015d 6304     		.2byte	0x463
 927 015f 97000000 		.4byte	0x97
 928 0163 02       		.byte	0x2
 929 0164 23       		.byte	0x23
 930 0165 24       		.uleb128 0x24
 931 0166 0A       		.uleb128 0xa
 932 0167 D0000000 		.4byte	.LASF22
 933 016b 03       		.byte	0x3
 934 016c 6404     		.2byte	0x464
 935 016e A3000000 		.4byte	0xa3
 936 0172 02       		.byte	0x2
 937 0173 23       		.byte	0x23
 938 0174 28       		.uleb128 0x28
 939 0175 0A       		.uleb128 0xa
 940 0176 CB030000 		.4byte	.LASF23
 941 017a 03       		.byte	0x3
 942 017b 6504     		.2byte	0x465
 943 017d 97000000 		.4byte	0x97
 944 0181 02       		.byte	0x2
 945 0182 23       		.byte	0x23
 946 0183 30       		.uleb128 0x30
 947 0184 0A       		.uleb128 0xa
 948 0185 4C000000 		.4byte	.LASF24
 949 0189 03       		.byte	0x3
 950 018a 6604     		.2byte	0x466
 951 018c 97000000 		.4byte	0x97
 952 0190 02       		.byte	0x2
ARM GAS  C:\Users\DNIEL~1\AppData\Local\Temp\cciPCRXZ.s 			page 18


 953 0191 23       		.byte	0x23
 954 0192 34       		.uleb128 0x34
 955 0193 0A       		.uleb128 0xa
 956 0194 C7010000 		.4byte	.LASF25
 957 0198 03       		.byte	0x3
 958 0199 6704     		.2byte	0x467
 959 019b 97000000 		.4byte	0x97
 960 019f 02       		.byte	0x2
 961 01a0 23       		.byte	0x23
 962 01a1 38       		.uleb128 0x38
 963 01a2 0A       		.uleb128 0xa
 964 01a3 4F030000 		.4byte	.LASF26
 965 01a7 03       		.byte	0x3
 966 01a8 6804     		.2byte	0x468
 967 01aa 70000000 		.4byte	0x70
 968 01ae 02       		.byte	0x2
 969 01af 23       		.byte	0x23
 970 01b0 3C       		.uleb128 0x3c
 971 01b1 0A       		.uleb128 0xa
 972 01b2 E3000000 		.4byte	.LASF27
 973 01b6 03       		.byte	0x3
 974 01b7 6904     		.2byte	0x469
 975 01b9 97000000 		.4byte	0x97
 976 01bd 02       		.byte	0x2
 977 01be 23       		.byte	0x23
 978 01bf 40       		.uleb128 0x40
 979 01c0 0A       		.uleb128 0xa
 980 01c1 FB010000 		.4byte	.LASF28
 981 01c5 03       		.byte	0x3
 982 01c6 6A04     		.2byte	0x46a
 983 01c8 97000000 		.4byte	0x97
 984 01cc 02       		.byte	0x2
 985 01cd 23       		.byte	0x23
 986 01ce 44       		.uleb128 0x44
 987 01cf 0A       		.uleb128 0xa
 988 01d0 59030000 		.4byte	.LASF29
 989 01d4 03       		.byte	0x3
 990 01d5 6B04     		.2byte	0x46b
 991 01d7 A3000000 		.4byte	0xa3
 992 01db 02       		.byte	0x2
 993 01dc 23       		.byte	0x23
 994 01dd 48       		.uleb128 0x48
 995 01de 0A       		.uleb128 0xa
 996 01df 00000000 		.4byte	.LASF30
 997 01e3 03       		.byte	0x3
 998 01e4 6C04     		.2byte	0x46c
 999 01e6 97000000 		.4byte	0x97
 1000 01ea 02       		.byte	0x2
 1001 01eb 23       		.byte	0x23
 1002 01ec 50       		.uleb128 0x50
 1003 01ed 0A       		.uleb128 0xa
 1004 01ee 25030000 		.4byte	.LASF31
 1005 01f2 03       		.byte	0x3
 1006 01f3 6D04     		.2byte	0x46d
 1007 01f5 97000000 		.4byte	0x97
 1008 01f9 02       		.byte	0x2
 1009 01fa 23       		.byte	0x23
ARM GAS  C:\Users\DNIEL~1\AppData\Local\Temp\cciPCRXZ.s 			page 19


 1010 01fb 54       		.uleb128 0x54
 1011 01fc 0A       		.uleb128 0xa
 1012 01fd BA000000 		.4byte	.LASF32
 1013 0201 03       		.byte	0x3
 1014 0202 6E04     		.2byte	0x46e
 1015 0204 97000000 		.4byte	0x97
 1016 0208 02       		.byte	0x2
 1017 0209 23       		.byte	0x23
 1018 020a 58       		.uleb128 0x58
 1019 020b 0A       		.uleb128 0xa
 1020 020c 63030000 		.4byte	.LASF33
 1021 0210 03       		.byte	0x3
 1022 0211 6F04     		.2byte	0x46f
 1023 0213 70000000 		.4byte	0x70
 1024 0217 02       		.byte	0x2
 1025 0218 23       		.byte	0x23
 1026 0219 5C       		.uleb128 0x5c
 1027 021a 0A       		.uleb128 0xa
 1028 021b B7020000 		.4byte	.LASF34
 1029 021f 03       		.byte	0x3
 1030 0220 7004     		.2byte	0x470
 1031 0222 97000000 		.4byte	0x97
 1032 0226 02       		.byte	0x2
 1033 0227 23       		.byte	0x23
 1034 0228 60       		.uleb128 0x60
 1035 0229 0A       		.uleb128 0xa
 1036 022a 14040000 		.4byte	.LASF35
 1037 022e 03       		.byte	0x3
 1038 022f 7104     		.2byte	0x471
 1039 0231 97000000 		.4byte	0x97
 1040 0235 02       		.byte	0x2
 1041 0236 23       		.byte	0x23
 1042 0237 64       		.uleb128 0x64
 1043 0238 0A       		.uleb128 0xa
 1044 0239 6D030000 		.4byte	.LASF36
 1045 023d 03       		.byte	0x3
 1046 023e 7204     		.2byte	0x472
 1047 0240 A3000000 		.4byte	0xa3
 1048 0244 02       		.byte	0x2
 1049 0245 23       		.byte	0x23
 1050 0246 68       		.uleb128 0x68
 1051 0247 0A       		.uleb128 0xa
 1052 0248 74000000 		.4byte	.LASF37
 1053 024c 03       		.byte	0x3
 1054 024d 7304     		.2byte	0x473
 1055 024f 97000000 		.4byte	0x97
 1056 0253 02       		.byte	0x2
 1057 0254 23       		.byte	0x23
 1058 0255 70       		.uleb128 0x70
 1059 0256 09       		.uleb128 0x9
 1060 0257 43535200 		.ascii	"CSR\000"
 1061 025b 03       		.byte	0x3
 1062 025c 7404     		.2byte	0x474
 1063 025e 97000000 		.4byte	0x97
 1064 0262 02       		.byte	0x2
 1065 0263 23       		.byte	0x23
 1066 0264 74       		.uleb128 0x74
ARM GAS  C:\Users\DNIEL~1\AppData\Local\Temp\cciPCRXZ.s 			page 20


 1067 0265 0A       		.uleb128 0xa
 1068 0266 77030000 		.4byte	.LASF38
 1069 026a 03       		.byte	0x3
 1070 026b 7504     		.2byte	0x475
 1071 026d A3000000 		.4byte	0xa3
 1072 0271 02       		.byte	0x2
 1073 0272 23       		.byte	0x23
 1074 0273 78       		.uleb128 0x78
 1075 0274 0A       		.uleb128 0xa
 1076 0275 0C030000 		.4byte	.LASF39
 1077 0279 03       		.byte	0x3
 1078 027a 7604     		.2byte	0x476
 1079 027c 97000000 		.4byte	0x97
 1080 0280 03       		.byte	0x3
 1081 0281 23       		.byte	0x23
 1082 0282 8001     		.uleb128 0x80
 1083 0284 0A       		.uleb128 0xa
 1084 0285 88000000 		.4byte	.LASF40
 1085 0289 03       		.byte	0x3
 1086 028a 7704     		.2byte	0x477
 1087 028c 97000000 		.4byte	0x97
 1088 0290 03       		.byte	0x3
 1089 0291 23       		.byte	0x23
 1090 0292 8401     		.uleb128 0x84
 1091 0294 0A       		.uleb128 0xa
 1092 0295 09040000 		.4byte	.LASF41
 1093 0299 03       		.byte	0x3
 1094 029a 7804     		.2byte	0x478
 1095 029c 97000000 		.4byte	0x97
 1096 02a0 03       		.byte	0x3
 1097 02a1 23       		.byte	0x23
 1098 02a2 8801     		.uleb128 0x88
 1099 02a4 0A       		.uleb128 0xa
 1100 02a5 10010000 		.4byte	.LASF42
 1101 02a9 03       		.byte	0x3
 1102 02aa 7904     		.2byte	0x479
 1103 02ac 97000000 		.4byte	0x97
 1104 02b0 03       		.byte	0x3
 1105 02b1 23       		.byte	0x23
 1106 02b2 8C01     		.uleb128 0x8c
 1107 02b4 00       		.byte	0x0
 1108 02b5 0B       		.uleb128 0xb
 1109 02b6 1C000000 		.4byte	.LASF43
 1110 02ba 03       		.byte	0x3
 1111 02bb 7B04     		.2byte	0x47b
 1112 02bd C8000000 		.4byte	0xc8
 1113 02c1 0C       		.uleb128 0xc
 1114 02c2 04       		.byte	0x4
 1115 02c3 97000000 		.4byte	0x97
 1116 02c7 0D       		.uleb128 0xd
 1117 02c8 01       		.byte	0x1
 1118 02c9 04       		.byte	0x4
 1119 02ca 3C       		.byte	0x3c
 1120 02cb F4020000 		.4byte	0x2f4
 1121 02cf 0E       		.uleb128 0xe
 1122 02d0 1A030000 		.4byte	.LASF44
 1123 02d4 00       		.sleb128 0
ARM GAS  C:\Users\DNIEL~1\AppData\Local\Temp\cciPCRXZ.s 			page 21


 1124 02d5 0E       		.uleb128 0xe
 1125 02d6 28000000 		.4byte	.LASF45
 1126 02da 01       		.sleb128 1
 1127 02db 0E       		.uleb128 0xe
 1128 02dc B8030000 		.4byte	.LASF46
 1129 02e0 02       		.sleb128 2
 1130 02e1 0E       		.uleb128 0xe
 1131 02e2 29040000 		.4byte	.LASF47
 1132 02e6 03       		.sleb128 3
 1133 02e7 0E       		.uleb128 0xe
 1134 02e8 21010000 		.4byte	.LASF48
 1135 02ec 04       		.sleb128 4
 1136 02ed 0E       		.uleb128 0xe
 1137 02ee CF010000 		.4byte	.LASF49
 1138 02f2 05       		.sleb128 5
 1139 02f3 00       		.byte	0x0
 1140 02f4 04       		.uleb128 0x4
 1141 02f5 1E040000 		.4byte	.LASF50
 1142 02f9 04       		.byte	0x4
 1143 02fa 43       		.byte	0x43
 1144 02fb C7020000 		.4byte	0x2c7
 1145 02ff 04       		.uleb128 0x4
 1146 0300 A4030000 		.4byte	.LASF51
 1147 0304 04       		.byte	0x4
 1148 0305 48       		.byte	0x48
 1149 0306 0A030000 		.4byte	0x30a
 1150 030a 0F       		.uleb128 0xf
 1151 030b A4030000 		.4byte	.LASF51
 1152 030f 18       		.byte	0x18
 1153 0310 05       		.byte	0x5
 1154 0311 3101     		.2byte	0x131
 1155 0313 72030000 		.4byte	0x372
 1156 0317 0A       		.uleb128 0xa
 1157 0318 59000000 		.4byte	.LASF52
 1158 031c 05       		.byte	0x5
 1159 031d 3501     		.2byte	0x135
 1160 031f F4020000 		.4byte	0x2f4
 1161 0323 02       		.byte	0x2
 1162 0324 23       		.byte	0x23
 1163 0325 00       		.uleb128 0x0
 1164 0326 0A       		.uleb128 0xa
 1165 0327 C4000000 		.4byte	.LASF53
 1166 032b 05       		.byte	0x5
 1167 032c 3901     		.2byte	0x139
 1168 032e B3050000 		.4byte	0x5b3
 1169 0332 02       		.byte	0x2
 1170 0333 23       		.byte	0x23
 1171 0334 04       		.uleb128 0x4
 1172 0335 0A       		.uleb128 0xa
 1173 0336 81030000 		.4byte	.LASF54
 1174 033a 05       		.byte	0x5
 1175 033b 4101     		.2byte	0x141
 1176 033d 70000000 		.4byte	0x70
 1177 0341 02       		.byte	0x2
 1178 0342 23       		.byte	0x23
 1179 0343 08       		.uleb128 0x8
 1180 0344 09       		.uleb128 0x9
ARM GAS  C:\Users\DNIEL~1\AppData\Local\Temp\cciPCRXZ.s 			page 22


 1181 0345 74696D00 		.ascii	"tim\000"
 1182 0349 05       		.byte	0x5
 1183 034a 4501     		.2byte	0x145
 1184 034c BE050000 		.4byte	0x5be
 1185 0350 02       		.byte	0x2
 1186 0351 23       		.byte	0x23
 1187 0352 0C       		.uleb128 0xc
 1188 0353 0A       		.uleb128 0xa
 1189 0354 93010000 		.4byte	.LASF55
 1190 0358 05       		.byte	0x5
 1191 0359 4901     		.2byte	0x149
 1192 035b C1020000 		.4byte	0x2c1
 1193 035f 02       		.byte	0x2
 1194 0360 23       		.byte	0x23
 1195 0361 10       		.uleb128 0x10
 1196 0362 0A       		.uleb128 0xa
 1197 0363 AC010000 		.4byte	.LASF56
 1198 0367 05       		.byte	0x5
 1199 0368 4D01     		.2byte	0x14d
 1200 036a C1020000 		.4byte	0x2c1
 1201 036e 02       		.byte	0x2
 1202 036f 23       		.byte	0x23
 1203 0370 14       		.uleb128 0x14
 1204 0371 00       		.byte	0x0
 1205 0372 04       		.uleb128 0x4
 1206 0373 C6020000 		.4byte	.LASF57
 1207 0377 04       		.byte	0x4
 1208 0378 4F       		.byte	0x4f
 1209 0379 7D030000 		.4byte	0x37d
 1210 037d 0C       		.uleb128 0xc
 1211 037e 04       		.byte	0x4
 1212 037f 83030000 		.4byte	0x383
 1213 0383 10       		.uleb128 0x10
 1214 0384 01       		.byte	0x1
 1215 0385 8F030000 		.4byte	0x38f
 1216 0389 11       		.uleb128 0x11
 1217 038a 8F030000 		.4byte	0x38f
 1218 038e 00       		.byte	0x0
 1219 038f 0C       		.uleb128 0xc
 1220 0390 04       		.byte	0x4
 1221 0391 FF020000 		.4byte	0x2ff
 1222 0395 08       		.uleb128 0x8
 1223 0396 60       		.byte	0x60
 1224 0397 06       		.byte	0x6
 1225 0398 9E01     		.2byte	0x19e
 1226 039a D8040000 		.4byte	0x4d8
 1227 039e 09       		.uleb128 0x9
 1228 039f 43523100 		.ascii	"CR1\000"
 1229 03a3 06       		.byte	0x6
 1230 03a4 9F01     		.2byte	0x19f
 1231 03a6 97000000 		.4byte	0x97
 1232 03aa 02       		.byte	0x2
 1233 03ab 23       		.byte	0x23
 1234 03ac 00       		.uleb128 0x0
 1235 03ad 09       		.uleb128 0x9
 1236 03ae 43523200 		.ascii	"CR2\000"
 1237 03b2 06       		.byte	0x6
ARM GAS  C:\Users\DNIEL~1\AppData\Local\Temp\cciPCRXZ.s 			page 23


 1238 03b3 A001     		.2byte	0x1a0
 1239 03b5 97000000 		.4byte	0x97
 1240 03b9 02       		.byte	0x2
 1241 03ba 23       		.byte	0x23
 1242 03bb 04       		.uleb128 0x4
 1243 03bc 0A       		.uleb128 0xa
 1244 03bd D8010000 		.4byte	.LASF58
 1245 03c1 06       		.byte	0x6
 1246 03c2 A101     		.2byte	0x1a1
 1247 03c4 97000000 		.4byte	0x97
 1248 03c8 02       		.byte	0x2
 1249 03c9 23       		.byte	0x23
 1250 03ca 08       		.uleb128 0x8
 1251 03cb 0A       		.uleb128 0xa
 1252 03cc 8F020000 		.4byte	.LASF59
 1253 03d0 06       		.byte	0x6
 1254 03d1 A201     		.2byte	0x1a2
 1255 03d3 97000000 		.4byte	0x97
 1256 03d7 02       		.byte	0x2
 1257 03d8 23       		.byte	0x23
 1258 03d9 0C       		.uleb128 0xc
 1259 03da 09       		.uleb128 0x9
 1260 03db 535200   		.ascii	"SR\000"
 1261 03de 06       		.byte	0x6
 1262 03df A301     		.2byte	0x1a3
 1263 03e1 97000000 		.4byte	0x97
 1264 03e5 02       		.byte	0x2
 1265 03e6 23       		.byte	0x23
 1266 03e7 10       		.uleb128 0x10
 1267 03e8 09       		.uleb128 0x9
 1268 03e9 45475200 		.ascii	"EGR\000"
 1269 03ed 06       		.byte	0x6
 1270 03ee A401     		.2byte	0x1a4
 1271 03f0 97000000 		.4byte	0x97
 1272 03f4 02       		.byte	0x2
 1273 03f5 23       		.byte	0x23
 1274 03f6 14       		.uleb128 0x14
 1275 03f7 0A       		.uleb128 0xa
 1276 03f8 BB010000 		.4byte	.LASF60
 1277 03fc 06       		.byte	0x6
 1278 03fd A501     		.2byte	0x1a5
 1279 03ff 97000000 		.4byte	0x97
 1280 0403 02       		.byte	0x2
 1281 0404 23       		.byte	0x23
 1282 0405 18       		.uleb128 0x18
 1283 0406 0A       		.uleb128 0xa
 1284 0407 5F000000 		.4byte	.LASF61
 1285 040b 06       		.byte	0x6
 1286 040c A601     		.2byte	0x1a6
 1287 040e 97000000 		.4byte	0x97
 1288 0412 02       		.byte	0x2
 1289 0413 23       		.byte	0x23
 1290 0414 1C       		.uleb128 0x1c
 1291 0415 0A       		.uleb128 0xa
 1292 0416 17000000 		.4byte	.LASF62
 1293 041a 06       		.byte	0x6
 1294 041b A701     		.2byte	0x1a7
ARM GAS  C:\Users\DNIEL~1\AppData\Local\Temp\cciPCRXZ.s 			page 24


 1295 041d 97000000 		.4byte	0x97
 1296 0421 02       		.byte	0x2
 1297 0422 23       		.byte	0x23
 1298 0423 20       		.uleb128 0x20
 1299 0424 09       		.uleb128 0x9
 1300 0425 434E5400 		.ascii	"CNT\000"
 1301 0429 06       		.byte	0x6
 1302 042a A801     		.2byte	0x1a8
 1303 042c 97000000 		.4byte	0x97
 1304 0430 02       		.byte	0x2
 1305 0431 23       		.byte	0x23
 1306 0432 24       		.uleb128 0x24
 1307 0433 09       		.uleb128 0x9
 1308 0434 50534300 		.ascii	"PSC\000"
 1309 0438 06       		.byte	0x6
 1310 0439 A901     		.2byte	0x1a9
 1311 043b 97000000 		.4byte	0x97
 1312 043f 02       		.byte	0x2
 1313 0440 23       		.byte	0x23
 1314 0441 28       		.uleb128 0x28
 1315 0442 09       		.uleb128 0x9
 1316 0443 41525200 		.ascii	"ARR\000"
 1317 0447 06       		.byte	0x6
 1318 0448 AA01     		.2byte	0x1aa
 1319 044a 97000000 		.4byte	0x97
 1320 044e 02       		.byte	0x2
 1321 044f 23       		.byte	0x23
 1322 0450 2C       		.uleb128 0x2c
 1323 0451 09       		.uleb128 0x9
 1324 0452 52435200 		.ascii	"RCR\000"
 1325 0456 06       		.byte	0x6
 1326 0457 AB01     		.2byte	0x1ab
 1327 0459 97000000 		.4byte	0x97
 1328 045d 02       		.byte	0x2
 1329 045e 23       		.byte	0x23
 1330 045f 30       		.uleb128 0x30
 1331 0460 09       		.uleb128 0x9
 1332 0461 43435200 		.ascii	"CCR\000"
 1333 0465 06       		.byte	0x6
 1334 0466 AC01     		.2byte	0x1ac
 1335 0468 D8040000 		.4byte	0x4d8
 1336 046c 02       		.byte	0x2
 1337 046d 23       		.byte	0x23
 1338 046e 34       		.uleb128 0x34
 1339 046f 0A       		.uleb128 0xa
 1340 0470 EA020000 		.4byte	.LASF63
 1341 0474 06       		.byte	0x6
 1342 0475 AD01     		.2byte	0x1ad
 1343 0477 97000000 		.4byte	0x97
 1344 047b 02       		.byte	0x2
 1345 047c 23       		.byte	0x23
 1346 047d 44       		.uleb128 0x44
 1347 047e 09       		.uleb128 0x9
 1348 047f 44435200 		.ascii	"DCR\000"
 1349 0483 06       		.byte	0x6
 1350 0484 AE01     		.2byte	0x1ae
 1351 0486 97000000 		.4byte	0x97
ARM GAS  C:\Users\DNIEL~1\AppData\Local\Temp\cciPCRXZ.s 			page 25


 1352 048a 02       		.byte	0x2
 1353 048b 23       		.byte	0x23
 1354 048c 48       		.uleb128 0x48
 1355 048d 0A       		.uleb128 0xa
 1356 048e 54000000 		.4byte	.LASF64
 1357 0492 06       		.byte	0x6
 1358 0493 AF01     		.2byte	0x1af
 1359 0495 97000000 		.4byte	0x97
 1360 0499 02       		.byte	0x2
 1361 049a 23       		.byte	0x23
 1362 049b 4C       		.uleb128 0x4c
 1363 049c 09       		.uleb128 0x9
 1364 049d 4F5200   		.ascii	"OR\000"
 1365 04a0 06       		.byte	0x6
 1366 04a1 B001     		.2byte	0x1b0
 1367 04a3 97000000 		.4byte	0x97
 1368 04a7 02       		.byte	0x2
 1369 04a8 23       		.byte	0x23
 1370 04a9 50       		.uleb128 0x50
 1371 04aa 0A       		.uleb128 0xa
 1372 04ab C1010000 		.4byte	.LASF65
 1373 04af 06       		.byte	0x6
 1374 04b0 B101     		.2byte	0x1b1
 1375 04b2 97000000 		.4byte	0x97
 1376 04b6 02       		.byte	0x2
 1377 04b7 23       		.byte	0x23
 1378 04b8 54       		.uleb128 0x54
 1379 04b9 0A       		.uleb128 0xa
 1380 04ba A2010000 		.4byte	.LASF66
 1381 04be 06       		.byte	0x6
 1382 04bf B201     		.2byte	0x1b2
 1383 04c1 97000000 		.4byte	0x97
 1384 04c5 02       		.byte	0x2
 1385 04c6 23       		.byte	0x23
 1386 04c7 58       		.uleb128 0x58
 1387 04c8 0A       		.uleb128 0xa
 1388 04c9 A7010000 		.4byte	.LASF67
 1389 04cd 06       		.byte	0x6
 1390 04ce B301     		.2byte	0x1b3
 1391 04d0 97000000 		.4byte	0x97
 1392 04d4 02       		.byte	0x2
 1393 04d5 23       		.byte	0x23
 1394 04d6 5C       		.uleb128 0x5c
 1395 04d7 00       		.byte	0x0
 1396 04d8 05       		.uleb128 0x5
 1397 04d9 B3000000 		.4byte	0xb3
 1398 04dd 0B       		.uleb128 0xb
 1399 04de D4020000 		.4byte	.LASF68
 1400 04e2 06       		.byte	0x6
 1401 04e3 B401     		.2byte	0x1b4
 1402 04e5 95030000 		.4byte	0x395
 1403 04e9 0D       		.uleb128 0xd
 1404 04ea 01       		.byte	0x1
 1405 04eb 05       		.byte	0x5
 1406 04ec EE       		.byte	0xee
 1407 04ed FE040000 		.4byte	0x4fe
 1408 04f1 0E       		.uleb128 0xe
ARM GAS  C:\Users\DNIEL~1\AppData\Local\Temp\cciPCRXZ.s 			page 26


 1409 04f2 39030000 		.4byte	.LASF69
 1410 04f6 00       		.sleb128 0
 1411 04f7 0E       		.uleb128 0xe
 1412 04f8 F7020000 		.4byte	.LASF70
 1413 04fc 01       		.sleb128 1
 1414 04fd 00       		.byte	0x0
 1415 04fe 04       		.uleb128 0x4
 1416 04ff 51010000 		.4byte	.LASF71
 1417 0503 05       		.byte	0x5
 1418 0504 F1       		.byte	0xf1
 1419 0505 E9040000 		.4byte	0x4e9
 1420 0509 04       		.uleb128 0x4
 1421 050a 94020000 		.4byte	.LASF72
 1422 050e 05       		.byte	0x5
 1423 050f F6       		.byte	0xf6
 1424 0510 70000000 		.4byte	0x70
 1425 0514 0D       		.uleb128 0xd
 1426 0515 01       		.byte	0x1
 1427 0516 05       		.byte	0x5
 1428 0517 FB       		.byte	0xfb
 1429 0518 29050000 		.4byte	0x529
 1430 051c 0E       		.uleb128 0xe
 1431 051d EB000000 		.4byte	.LASF73
 1432 0521 00       		.sleb128 0
 1433 0522 0E       		.uleb128 0xe
 1434 0523 F9000000 		.4byte	.LASF74
 1435 0527 01       		.sleb128 1
 1436 0528 00       		.byte	0x0
 1437 0529 04       		.uleb128 0x4
 1438 052a 31000000 		.4byte	.LASF75
 1439 052e 05       		.byte	0x5
 1440 052f FE       		.byte	0xfe
 1441 0530 14050000 		.4byte	0x514
 1442 0534 08       		.uleb128 0x8
 1443 0535 1C       		.byte	0x1c
 1444 0536 05       		.byte	0x5
 1445 0537 0901     		.2byte	0x109
 1446 0539 A7050000 		.4byte	0x5a7
 1447 053d 0A       		.uleb128 0xa
 1448 053e A5000000 		.4byte	.LASF76
 1449 0542 05       		.byte	0x5
 1450 0543 0D01     		.2byte	0x10d
 1451 0545 FE040000 		.4byte	0x4fe
 1452 0549 02       		.byte	0x2
 1453 054a 23       		.byte	0x23
 1454 054b 00       		.uleb128 0x0
 1455 054c 0A       		.uleb128 0xa
 1456 054d AE030000 		.4byte	.LASF77
 1457 0551 05       		.byte	0x5
 1458 0552 1301     		.2byte	0x113
 1459 0554 09050000 		.4byte	0x509
 1460 0558 02       		.byte	0x2
 1461 0559 23       		.byte	0x23
 1462 055a 04       		.uleb128 0x4
 1463 055b 0A       		.uleb128 0xa
 1464 055c 18010000 		.4byte	.LASF78
 1465 0560 05       		.byte	0x5
ARM GAS  C:\Users\DNIEL~1\AppData\Local\Temp\cciPCRXZ.s 			page 27


 1466 0561 1701     		.2byte	0x117
 1467 0563 72030000 		.4byte	0x372
 1468 0567 02       		.byte	0x2
 1469 0568 23       		.byte	0x23
 1470 0569 08       		.uleb128 0x8
 1471 056a 0A       		.uleb128 0xa
 1472 056b E0020000 		.4byte	.LASF79
 1473 056f 05       		.byte	0x5
 1474 0570 1B01     		.2byte	0x11b
 1475 0572 72030000 		.4byte	0x372
 1476 0576 02       		.byte	0x2
 1477 0577 23       		.byte	0x23
 1478 0578 0C       		.uleb128 0xc
 1479 0579 0A       		.uleb128 0xa
 1480 057a 93030000 		.4byte	.LASF80
 1481 057e 05       		.byte	0x5
 1482 057f 1F01     		.2byte	0x11f
 1483 0581 72030000 		.4byte	0x372
 1484 0585 02       		.byte	0x2
 1485 0586 23       		.byte	0x23
 1486 0587 10       		.uleb128 0x10
 1487 0588 0A       		.uleb128 0xa
 1488 0589 12030000 		.4byte	.LASF81
 1489 058d 05       		.byte	0x5
 1490 058e 2501     		.2byte	0x125
 1491 0590 29050000 		.4byte	0x529
 1492 0594 02       		.byte	0x2
 1493 0595 23       		.byte	0x23
 1494 0596 14       		.uleb128 0x14
 1495 0597 0A       		.uleb128 0xa
 1496 0598 9F030000 		.4byte	.LASF82
 1497 059c 05       		.byte	0x5
 1498 059d 2B01     		.2byte	0x12b
 1499 059f 70000000 		.4byte	0x70
 1500 05a3 02       		.byte	0x2
 1501 05a4 23       		.byte	0x23
 1502 05a5 18       		.uleb128 0x18
 1503 05a6 00       		.byte	0x0
 1504 05a7 0B       		.uleb128 0xb
 1505 05a8 EB010000 		.4byte	.LASF83
 1506 05ac 05       		.byte	0x5
 1507 05ad 2C01     		.2byte	0x12c
 1508 05af 34050000 		.4byte	0x534
 1509 05b3 0C       		.uleb128 0xc
 1510 05b4 04       		.byte	0x4
 1511 05b5 B9050000 		.4byte	0x5b9
 1512 05b9 12       		.uleb128 0x12
 1513 05ba A7050000 		.4byte	0x5a7
 1514 05be 0C       		.uleb128 0xc
 1515 05bf 04       		.byte	0x4
 1516 05c0 DD040000 		.4byte	0x4dd
 1517 05c4 13       		.uleb128 0x13
 1518 05c5 D3030000 		.4byte	.LASF98
 1519 05c9 01       		.byte	0x1
 1520 05ca 6F       		.byte	0x6f
 1521 05cb 01       		.byte	0x1
 1522 05cc 01       		.byte	0x1
ARM GAS  C:\Users\DNIEL~1\AppData\Local\Temp\cciPCRXZ.s 			page 28


 1523 05cd 05060000 		.4byte	0x605
 1524 05d1 14       		.uleb128 0x14
 1525 05d2 6F000000 		.4byte	.LASF90
 1526 05d6 01       		.byte	0x1
 1527 05d7 6F       		.byte	0x6f
 1528 05d8 8F030000 		.4byte	0x38f
 1529 05dc 15       		.uleb128 0x15
 1530 05dd 737200   		.ascii	"sr\000"
 1531 05e0 01       		.byte	0x1
 1532 05e1 70       		.byte	0x70
 1533 05e2 4C000000 		.4byte	0x4c
 1534 05e6 16       		.uleb128 0x16
 1535 05e7 F7050000 		.4byte	0x5f7
 1536 05eb 17       		.uleb128 0x17
 1537 05ec 03020000 		.4byte	.LASF84
 1538 05f0 01       		.byte	0x1
 1539 05f1 77       		.byte	0x77
 1540 05f2 F4020000 		.4byte	0x2f4
 1541 05f6 00       		.byte	0x0
 1542 05f7 18       		.uleb128 0x18
 1543 05f8 17       		.uleb128 0x17
 1544 05f9 03020000 		.4byte	.LASF84
 1545 05fd 01       		.byte	0x1
 1546 05fe 7E       		.byte	0x7e
 1547 05ff F4020000 		.4byte	0x2f4
 1548 0603 00       		.byte	0x0
 1549 0604 00       		.byte	0x0
 1550 0605 19       		.uleb128 0x19
 1551 0606 C4050000 		.4byte	0x5c4
 1552 060a 00000000 		.4byte	.LFB126
 1553 060e 94000000 		.4byte	.LFE126
 1554 0612 00000000 		.4byte	.LLST0
 1555 0616 5A060000 		.4byte	0x65a
 1556 061a 1A       		.uleb128 0x1a
 1557 061b DC050000 		.4byte	0x5dc
 1558 061f 20000000 		.4byte	.LLST1
 1559 0623 1B       		.uleb128 0x1b
 1560 0624 D1050000 		.4byte	0x5d1
 1561 0628 06       		.byte	0x6
 1562 0629 03       		.byte	0x3
 1563 062a 00000000 		.4byte	ICUD1
 1564 062e 9F       		.byte	0x9f
 1565 062f 1C       		.uleb128 0x1c
 1566 0630 1E000000 		.4byte	.LBB6
 1567 0634 32000000 		.4byte	.LBE6
 1568 0638 46060000 		.4byte	0x646
 1569 063c 1A       		.uleb128 0x1a
 1570 063d EB050000 		.4byte	0x5eb
 1571 0641 33000000 		.4byte	.LLST2
 1572 0645 00       		.byte	0x0
 1573 0646 1D       		.uleb128 0x1d
 1574 0647 64000000 		.4byte	.LBB7
 1575 064b 7C000000 		.4byte	.LBE7
 1576 064f 1A       		.uleb128 0x1a
 1577 0650 F8050000 		.4byte	0x5f8
 1578 0654 46000000 		.4byte	.LLST3
 1579 0658 00       		.byte	0x0
ARM GAS  C:\Users\DNIEL~1\AppData\Local\Temp\cciPCRXZ.s 			page 29


 1580 0659 00       		.byte	0x0
 1581 065a 1E       		.uleb128 0x1e
 1582 065b 01       		.byte	0x1
 1583 065c 93000000 		.4byte	.LASF85
 1584 0660 01       		.byte	0x1
 1585 0661 94       		.byte	0x94
 1586 0662 01       		.byte	0x1
 1587 0663 00000000 		.4byte	.LFB119
 1588 0667 0E000000 		.4byte	.LFE119
 1589 066b 59000000 		.4byte	.LLST4
 1590 066f 1E       		.uleb128 0x1e
 1591 0670 01       		.byte	0x1
 1592 0671 DA000000 		.4byte	.LASF86
 1593 0675 01       		.byte	0x1
 1594 0676 A8       		.byte	0xa8
 1595 0677 01       		.byte	0x1
 1596 0678 00000000 		.4byte	.LFB120
 1597 067c 0E000000 		.4byte	.LFE120
 1598 0680 79000000 		.4byte	.LLST5
 1599 0684 1F       		.uleb128 0x1f
 1600 0685 01       		.byte	0x1
 1601 0686 1E020000 		.4byte	.LASF87
 1602 068a 01       		.byte	0x1
 1603 068b 5301     		.2byte	0x153
 1604 068d 01       		.byte	0x1
 1605 068e 00000000 		.4byte	.LFB121
 1606 0692 18000000 		.4byte	.LFE121
 1607 0696 99000000 		.4byte	.LLST6
 1608 069a 20       		.uleb128 0x20
 1609 069b 01       		.byte	0x1
 1610 069c 3E000000 		.4byte	.LASF88
 1611 06a0 01       		.byte	0x1
 1612 06a1 8701     		.2byte	0x187
 1613 06a3 01       		.byte	0x1
 1614 06a4 00000000 		.4byte	.LFB122
 1615 06a8 DC000000 		.4byte	.LFE122
 1616 06ac B9000000 		.4byte	.LLST7
 1617 06b0 D1060000 		.4byte	0x6d1
 1618 06b4 21       		.uleb128 0x21
 1619 06b5 6F000000 		.4byte	.LASF90
 1620 06b9 01       		.byte	0x1
 1621 06ba 8701     		.2byte	0x187
 1622 06bc 8F030000 		.4byte	0x38f
 1623 06c0 D9000000 		.4byte	.LLST8
 1624 06c4 22       		.uleb128 0x22
 1625 06c5 70736300 		.ascii	"psc\000"
 1626 06c9 01       		.byte	0x1
 1627 06ca 8801     		.2byte	0x188
 1628 06cc 70000000 		.4byte	0x70
 1629 06d0 00       		.byte	0x0
 1630 06d1 20       		.uleb128 0x20
 1631 06d2 01       		.byte	0x1
 1632 06d3 0A000000 		.4byte	.LASF89
 1633 06d7 01       		.byte	0x1
 1634 06d8 2902     		.2byte	0x229
 1635 06da 01       		.byte	0x1
 1636 06db 00000000 		.4byte	.LFB123
ARM GAS  C:\Users\DNIEL~1\AppData\Local\Temp\cciPCRXZ.s 			page 30


 1637 06df 3C000000 		.4byte	.LFE123
 1638 06e3 F7000000 		.4byte	.LLST9
 1639 06e7 FC060000 		.4byte	0x6fc
 1640 06eb 21       		.uleb128 0x21
 1641 06ec 6F000000 		.4byte	.LASF90
 1642 06f0 01       		.byte	0x1
 1643 06f1 2902     		.2byte	0x229
 1644 06f3 8F030000 		.4byte	0x38f
 1645 06f7 17010000 		.4byte	.LLST10
 1646 06fb 00       		.byte	0x0
 1647 06fc 23       		.uleb128 0x23
 1648 06fd 01       		.byte	0x1
 1649 06fe 79000000 		.4byte	.LASF91
 1650 0702 01       		.byte	0x1
 1651 0703 6702     		.2byte	0x267
 1652 0705 01       		.byte	0x1
 1653 0706 00000000 		.4byte	.LFB124
 1654 070a 52000000 		.4byte	.LFE124
 1655 070e 02       		.byte	0x2
 1656 070f 7D       		.byte	0x7d
 1657 0710 00       		.sleb128 0
 1658 0711 26070000 		.4byte	0x726
 1659 0715 21       		.uleb128 0x21
 1660 0716 6F000000 		.4byte	.LASF90
 1661 071a 01       		.byte	0x1
 1662 071b 6702     		.2byte	0x267
 1663 071d 8F030000 		.4byte	0x38f
 1664 0721 35010000 		.4byte	.LLST11
 1665 0725 00       		.byte	0x0
 1666 0726 23       		.uleb128 0x23
 1667 0727 01       		.byte	0x1
 1668 0728 AA000000 		.4byte	.LASF92
 1669 072c 01       		.byte	0x1
 1670 072d 8202     		.2byte	0x282
 1671 072f 01       		.byte	0x1
 1672 0730 00000000 		.4byte	.LFB125
 1673 0734 12000000 		.4byte	.LFE125
 1674 0738 02       		.byte	0x2
 1675 0739 7D       		.byte	0x7d
 1676 073a 00       		.sleb128 0
 1677 073b 50070000 		.4byte	0x750
 1678 073f 21       		.uleb128 0x21
 1679 0740 6F000000 		.4byte	.LASF90
 1680 0744 01       		.byte	0x1
 1681 0745 8202     		.2byte	0x282
 1682 0747 8F030000 		.4byte	0x38f
 1683 074b 48010000 		.4byte	.LLST12
 1684 074f 00       		.byte	0x0
 1685 0750 24       		.uleb128 0x24
 1686 0751 F4030000 		.4byte	.LASF93
 1687 0755 07       		.byte	0x7
 1688 0756 9806     		.2byte	0x698
 1689 0758 C3000000 		.4byte	0xc3
 1690 075c 01       		.byte	0x1
 1691 075d 01       		.byte	0x1
 1692 075e 24       		.uleb128 0x24
 1693 075f F5010000 		.4byte	.LASF94
ARM GAS  C:\Users\DNIEL~1\AppData\Local\Temp\cciPCRXZ.s 			page 31


 1694 0763 05       		.byte	0x5
 1695 0764 7101     		.2byte	0x171
 1696 0766 FF020000 		.4byte	0x2ff
 1697 076a 01       		.byte	0x1
 1698 076b 01       		.byte	0x1
 1699 076c 24       		.uleb128 0x24
 1700 076d F4030000 		.4byte	.LASF93
 1701 0771 07       		.byte	0x7
 1702 0772 9806     		.2byte	0x698
 1703 0774 C3000000 		.4byte	0xc3
 1704 0778 01       		.byte	0x1
 1705 0779 01       		.byte	0x1
 1706 077a 25       		.uleb128 0x25
 1707 077b F5010000 		.4byte	.LASF94
 1708 077f 01       		.byte	0x1
 1709 0780 2F       		.byte	0x2f
 1710 0781 FF020000 		.4byte	0x2ff
 1711 0785 01       		.byte	0x1
 1712 0786 05       		.byte	0x5
 1713 0787 03       		.byte	0x3
 1714 0788 00000000 		.4byte	ICUD1
 1715 078c 00       		.byte	0x0
 1716              		.section	.debug_abbrev
 1717 0000 01       		.uleb128 0x1
 1718 0001 11       		.uleb128 0x11
 1719 0002 01       		.byte	0x1
 1720 0003 25       		.uleb128 0x25
 1721 0004 0E       		.uleb128 0xe
 1722 0005 13       		.uleb128 0x13
 1723 0006 0B       		.uleb128 0xb
 1724 0007 03       		.uleb128 0x3
 1725 0008 0E       		.uleb128 0xe
 1726 0009 1B       		.uleb128 0x1b
 1727 000a 0E       		.uleb128 0xe
 1728 000b 11       		.uleb128 0x11
 1729 000c 01       		.uleb128 0x1
 1730 000d 52       		.uleb128 0x52
 1731 000e 01       		.uleb128 0x1
 1732 000f 55       		.uleb128 0x55
 1733 0010 06       		.uleb128 0x6
 1734 0011 10       		.uleb128 0x10
 1735 0012 06       		.uleb128 0x6
 1736 0013 00       		.byte	0x0
 1737 0014 00       		.byte	0x0
 1738 0015 02       		.uleb128 0x2
 1739 0016 24       		.uleb128 0x24
 1740 0017 00       		.byte	0x0
 1741 0018 0B       		.uleb128 0xb
 1742 0019 0B       		.uleb128 0xb
 1743 001a 3E       		.uleb128 0x3e
 1744 001b 0B       		.uleb128 0xb
 1745 001c 03       		.uleb128 0x3
 1746 001d 08       		.uleb128 0x8
 1747 001e 00       		.byte	0x0
 1748 001f 00       		.byte	0x0
 1749 0020 03       		.uleb128 0x3
 1750 0021 24       		.uleb128 0x24
ARM GAS  C:\Users\DNIEL~1\AppData\Local\Temp\cciPCRXZ.s 			page 32


 1751 0022 00       		.byte	0x0
 1752 0023 0B       		.uleb128 0xb
 1753 0024 0B       		.uleb128 0xb
 1754 0025 3E       		.uleb128 0x3e
 1755 0026 0B       		.uleb128 0xb
 1756 0027 03       		.uleb128 0x3
 1757 0028 0E       		.uleb128 0xe
 1758 0029 00       		.byte	0x0
 1759 002a 00       		.byte	0x0
 1760 002b 04       		.uleb128 0x4
 1761 002c 16       		.uleb128 0x16
 1762 002d 00       		.byte	0x0
 1763 002e 03       		.uleb128 0x3
 1764 002f 0E       		.uleb128 0xe
 1765 0030 3A       		.uleb128 0x3a
 1766 0031 0B       		.uleb128 0xb
 1767 0032 3B       		.uleb128 0x3b
 1768 0033 0B       		.uleb128 0xb
 1769 0034 49       		.uleb128 0x49
 1770 0035 13       		.uleb128 0x13
 1771 0036 00       		.byte	0x0
 1772 0037 00       		.byte	0x0
 1773 0038 05       		.uleb128 0x5
 1774 0039 35       		.uleb128 0x35
 1775 003a 00       		.byte	0x0
 1776 003b 49       		.uleb128 0x49
 1777 003c 13       		.uleb128 0x13
 1778 003d 00       		.byte	0x0
 1779 003e 00       		.byte	0x0
 1780 003f 06       		.uleb128 0x6
 1781 0040 01       		.uleb128 0x1
 1782 0041 01       		.byte	0x1
 1783 0042 49       		.uleb128 0x49
 1784 0043 13       		.uleb128 0x13
 1785 0044 01       		.uleb128 0x1
 1786 0045 13       		.uleb128 0x13
 1787 0046 00       		.byte	0x0
 1788 0047 00       		.byte	0x0
 1789 0048 07       		.uleb128 0x7
 1790 0049 21       		.uleb128 0x21
 1791 004a 00       		.byte	0x0
 1792 004b 49       		.uleb128 0x49
 1793 004c 13       		.uleb128 0x13
 1794 004d 2F       		.uleb128 0x2f
 1795 004e 0B       		.uleb128 0xb
 1796 004f 00       		.byte	0x0
 1797 0050 00       		.byte	0x0
 1798 0051 08       		.uleb128 0x8
 1799 0052 13       		.uleb128 0x13
 1800 0053 01       		.byte	0x1
 1801 0054 0B       		.uleb128 0xb
 1802 0055 0B       		.uleb128 0xb
 1803 0056 3A       		.uleb128 0x3a
 1804 0057 0B       		.uleb128 0xb
 1805 0058 3B       		.uleb128 0x3b
 1806 0059 05       		.uleb128 0x5
 1807 005a 01       		.uleb128 0x1
ARM GAS  C:\Users\DNIEL~1\AppData\Local\Temp\cciPCRXZ.s 			page 33


 1808 005b 13       		.uleb128 0x13
 1809 005c 00       		.byte	0x0
 1810 005d 00       		.byte	0x0
 1811 005e 09       		.uleb128 0x9
 1812 005f 0D       		.uleb128 0xd
 1813 0060 00       		.byte	0x0
 1814 0061 03       		.uleb128 0x3
 1815 0062 08       		.uleb128 0x8
 1816 0063 3A       		.uleb128 0x3a
 1817 0064 0B       		.uleb128 0xb
 1818 0065 3B       		.uleb128 0x3b
 1819 0066 05       		.uleb128 0x5
 1820 0067 49       		.uleb128 0x49
 1821 0068 13       		.uleb128 0x13
 1822 0069 38       		.uleb128 0x38
 1823 006a 0A       		.uleb128 0xa
 1824 006b 00       		.byte	0x0
 1825 006c 00       		.byte	0x0
 1826 006d 0A       		.uleb128 0xa
 1827 006e 0D       		.uleb128 0xd
 1828 006f 00       		.byte	0x0
 1829 0070 03       		.uleb128 0x3
 1830 0071 0E       		.uleb128 0xe
 1831 0072 3A       		.uleb128 0x3a
 1832 0073 0B       		.uleb128 0xb
 1833 0074 3B       		.uleb128 0x3b
 1834 0075 05       		.uleb128 0x5
 1835 0076 49       		.uleb128 0x49
 1836 0077 13       		.uleb128 0x13
 1837 0078 38       		.uleb128 0x38
 1838 0079 0A       		.uleb128 0xa
 1839 007a 00       		.byte	0x0
 1840 007b 00       		.byte	0x0
 1841 007c 0B       		.uleb128 0xb
 1842 007d 16       		.uleb128 0x16
 1843 007e 00       		.byte	0x0
 1844 007f 03       		.uleb128 0x3
 1845 0080 0E       		.uleb128 0xe
 1846 0081 3A       		.uleb128 0x3a
 1847 0082 0B       		.uleb128 0xb
 1848 0083 3B       		.uleb128 0x3b
 1849 0084 05       		.uleb128 0x5
 1850 0085 49       		.uleb128 0x49
 1851 0086 13       		.uleb128 0x13
 1852 0087 00       		.byte	0x0
 1853 0088 00       		.byte	0x0
 1854 0089 0C       		.uleb128 0xc
 1855 008a 0F       		.uleb128 0xf
 1856 008b 00       		.byte	0x0
 1857 008c 0B       		.uleb128 0xb
 1858 008d 0B       		.uleb128 0xb
 1859 008e 49       		.uleb128 0x49
 1860 008f 13       		.uleb128 0x13
 1861 0090 00       		.byte	0x0
 1862 0091 00       		.byte	0x0
 1863 0092 0D       		.uleb128 0xd
 1864 0093 04       		.uleb128 0x4
ARM GAS  C:\Users\DNIEL~1\AppData\Local\Temp\cciPCRXZ.s 			page 34


 1865 0094 01       		.byte	0x1
 1866 0095 0B       		.uleb128 0xb
 1867 0096 0B       		.uleb128 0xb
 1868 0097 3A       		.uleb128 0x3a
 1869 0098 0B       		.uleb128 0xb
 1870 0099 3B       		.uleb128 0x3b
 1871 009a 0B       		.uleb128 0xb
 1872 009b 01       		.uleb128 0x1
 1873 009c 13       		.uleb128 0x13
 1874 009d 00       		.byte	0x0
 1875 009e 00       		.byte	0x0
 1876 009f 0E       		.uleb128 0xe
 1877 00a0 28       		.uleb128 0x28
 1878 00a1 00       		.byte	0x0
 1879 00a2 03       		.uleb128 0x3
 1880 00a3 0E       		.uleb128 0xe
 1881 00a4 1C       		.uleb128 0x1c
 1882 00a5 0D       		.uleb128 0xd
 1883 00a6 00       		.byte	0x0
 1884 00a7 00       		.byte	0x0
 1885 00a8 0F       		.uleb128 0xf
 1886 00a9 13       		.uleb128 0x13
 1887 00aa 01       		.byte	0x1
 1888 00ab 03       		.uleb128 0x3
 1889 00ac 0E       		.uleb128 0xe
 1890 00ad 0B       		.uleb128 0xb
 1891 00ae 0B       		.uleb128 0xb
 1892 00af 3A       		.uleb128 0x3a
 1893 00b0 0B       		.uleb128 0xb
 1894 00b1 3B       		.uleb128 0x3b
 1895 00b2 05       		.uleb128 0x5
 1896 00b3 01       		.uleb128 0x1
 1897 00b4 13       		.uleb128 0x13
 1898 00b5 00       		.byte	0x0
 1899 00b6 00       		.byte	0x0
 1900 00b7 10       		.uleb128 0x10
 1901 00b8 15       		.uleb128 0x15
 1902 00b9 01       		.byte	0x1
 1903 00ba 27       		.uleb128 0x27
 1904 00bb 0C       		.uleb128 0xc
 1905 00bc 01       		.uleb128 0x1
 1906 00bd 13       		.uleb128 0x13
 1907 00be 00       		.byte	0x0
 1908 00bf 00       		.byte	0x0
 1909 00c0 11       		.uleb128 0x11
 1910 00c1 05       		.uleb128 0x5
 1911 00c2 00       		.byte	0x0
 1912 00c3 49       		.uleb128 0x49
 1913 00c4 13       		.uleb128 0x13
 1914 00c5 00       		.byte	0x0
 1915 00c6 00       		.byte	0x0
 1916 00c7 12       		.uleb128 0x12
 1917 00c8 26       		.uleb128 0x26
 1918 00c9 00       		.byte	0x0
 1919 00ca 49       		.uleb128 0x49
 1920 00cb 13       		.uleb128 0x13
 1921 00cc 00       		.byte	0x0
ARM GAS  C:\Users\DNIEL~1\AppData\Local\Temp\cciPCRXZ.s 			page 35


 1922 00cd 00       		.byte	0x0
 1923 00ce 13       		.uleb128 0x13
 1924 00cf 2E       		.uleb128 0x2e
 1925 00d0 01       		.byte	0x1
 1926 00d1 03       		.uleb128 0x3
 1927 00d2 0E       		.uleb128 0xe
 1928 00d3 3A       		.uleb128 0x3a
 1929 00d4 0B       		.uleb128 0xb
 1930 00d5 3B       		.uleb128 0x3b
 1931 00d6 0B       		.uleb128 0xb
 1932 00d7 27       		.uleb128 0x27
 1933 00d8 0C       		.uleb128 0xc
 1934 00d9 20       		.uleb128 0x20
 1935 00da 0B       		.uleb128 0xb
 1936 00db 01       		.uleb128 0x1
 1937 00dc 13       		.uleb128 0x13
 1938 00dd 00       		.byte	0x0
 1939 00de 00       		.byte	0x0
 1940 00df 14       		.uleb128 0x14
 1941 00e0 05       		.uleb128 0x5
 1942 00e1 00       		.byte	0x0
 1943 00e2 03       		.uleb128 0x3
 1944 00e3 0E       		.uleb128 0xe
 1945 00e4 3A       		.uleb128 0x3a
 1946 00e5 0B       		.uleb128 0xb
 1947 00e6 3B       		.uleb128 0x3b
 1948 00e7 0B       		.uleb128 0xb
 1949 00e8 49       		.uleb128 0x49
 1950 00e9 13       		.uleb128 0x13
 1951 00ea 00       		.byte	0x0
 1952 00eb 00       		.byte	0x0
 1953 00ec 15       		.uleb128 0x15
 1954 00ed 34       		.uleb128 0x34
 1955 00ee 00       		.byte	0x0
 1956 00ef 03       		.uleb128 0x3
 1957 00f0 08       		.uleb128 0x8
 1958 00f1 3A       		.uleb128 0x3a
 1959 00f2 0B       		.uleb128 0xb
 1960 00f3 3B       		.uleb128 0x3b
 1961 00f4 0B       		.uleb128 0xb
 1962 00f5 49       		.uleb128 0x49
 1963 00f6 13       		.uleb128 0x13
 1964 00f7 00       		.byte	0x0
 1965 00f8 00       		.byte	0x0
 1966 00f9 16       		.uleb128 0x16
 1967 00fa 0B       		.uleb128 0xb
 1968 00fb 01       		.byte	0x1
 1969 00fc 01       		.uleb128 0x1
 1970 00fd 13       		.uleb128 0x13
 1971 00fe 00       		.byte	0x0
 1972 00ff 00       		.byte	0x0
 1973 0100 17       		.uleb128 0x17
 1974 0101 34       		.uleb128 0x34
 1975 0102 00       		.byte	0x0
 1976 0103 03       		.uleb128 0x3
 1977 0104 0E       		.uleb128 0xe
 1978 0105 3A       		.uleb128 0x3a
ARM GAS  C:\Users\DNIEL~1\AppData\Local\Temp\cciPCRXZ.s 			page 36


 1979 0106 0B       		.uleb128 0xb
 1980 0107 3B       		.uleb128 0x3b
 1981 0108 0B       		.uleb128 0xb
 1982 0109 49       		.uleb128 0x49
 1983 010a 13       		.uleb128 0x13
 1984 010b 00       		.byte	0x0
 1985 010c 00       		.byte	0x0
 1986 010d 18       		.uleb128 0x18
 1987 010e 0B       		.uleb128 0xb
 1988 010f 01       		.byte	0x1
 1989 0110 00       		.byte	0x0
 1990 0111 00       		.byte	0x0
 1991 0112 19       		.uleb128 0x19
 1992 0113 2E       		.uleb128 0x2e
 1993 0114 01       		.byte	0x1
 1994 0115 31       		.uleb128 0x31
 1995 0116 13       		.uleb128 0x13
 1996 0117 11       		.uleb128 0x11
 1997 0118 01       		.uleb128 0x1
 1998 0119 12       		.uleb128 0x12
 1999 011a 01       		.uleb128 0x1
 2000 011b 40       		.uleb128 0x40
 2001 011c 06       		.uleb128 0x6
 2002 011d 01       		.uleb128 0x1
 2003 011e 13       		.uleb128 0x13
 2004 011f 00       		.byte	0x0
 2005 0120 00       		.byte	0x0
 2006 0121 1A       		.uleb128 0x1a
 2007 0122 34       		.uleb128 0x34
 2008 0123 00       		.byte	0x0
 2009 0124 31       		.uleb128 0x31
 2010 0125 13       		.uleb128 0x13
 2011 0126 02       		.uleb128 0x2
 2012 0127 06       		.uleb128 0x6
 2013 0128 00       		.byte	0x0
 2014 0129 00       		.byte	0x0
 2015 012a 1B       		.uleb128 0x1b
 2016 012b 05       		.uleb128 0x5
 2017 012c 00       		.byte	0x0
 2018 012d 31       		.uleb128 0x31
 2019 012e 13       		.uleb128 0x13
 2020 012f 02       		.uleb128 0x2
 2021 0130 0A       		.uleb128 0xa
 2022 0131 00       		.byte	0x0
 2023 0132 00       		.byte	0x0
 2024 0133 1C       		.uleb128 0x1c
 2025 0134 0B       		.uleb128 0xb
 2026 0135 01       		.byte	0x1
 2027 0136 11       		.uleb128 0x11
 2028 0137 01       		.uleb128 0x1
 2029 0138 12       		.uleb128 0x12
 2030 0139 01       		.uleb128 0x1
 2031 013a 01       		.uleb128 0x1
 2032 013b 13       		.uleb128 0x13
 2033 013c 00       		.byte	0x0
 2034 013d 00       		.byte	0x0
 2035 013e 1D       		.uleb128 0x1d
ARM GAS  C:\Users\DNIEL~1\AppData\Local\Temp\cciPCRXZ.s 			page 37


 2036 013f 0B       		.uleb128 0xb
 2037 0140 01       		.byte	0x1
 2038 0141 11       		.uleb128 0x11
 2039 0142 01       		.uleb128 0x1
 2040 0143 12       		.uleb128 0x12
 2041 0144 01       		.uleb128 0x1
 2042 0145 00       		.byte	0x0
 2043 0146 00       		.byte	0x0
 2044 0147 1E       		.uleb128 0x1e
 2045 0148 2E       		.uleb128 0x2e
 2046 0149 00       		.byte	0x0
 2047 014a 3F       		.uleb128 0x3f
 2048 014b 0C       		.uleb128 0xc
 2049 014c 03       		.uleb128 0x3
 2050 014d 0E       		.uleb128 0xe
 2051 014e 3A       		.uleb128 0x3a
 2052 014f 0B       		.uleb128 0xb
 2053 0150 3B       		.uleb128 0x3b
 2054 0151 0B       		.uleb128 0xb
 2055 0152 27       		.uleb128 0x27
 2056 0153 0C       		.uleb128 0xc
 2057 0154 11       		.uleb128 0x11
 2058 0155 01       		.uleb128 0x1
 2059 0156 12       		.uleb128 0x12
 2060 0157 01       		.uleb128 0x1
 2061 0158 40       		.uleb128 0x40
 2062 0159 06       		.uleb128 0x6
 2063 015a 00       		.byte	0x0
 2064 015b 00       		.byte	0x0
 2065 015c 1F       		.uleb128 0x1f
 2066 015d 2E       		.uleb128 0x2e
 2067 015e 00       		.byte	0x0
 2068 015f 3F       		.uleb128 0x3f
 2069 0160 0C       		.uleb128 0xc
 2070 0161 03       		.uleb128 0x3
 2071 0162 0E       		.uleb128 0xe
 2072 0163 3A       		.uleb128 0x3a
 2073 0164 0B       		.uleb128 0xb
 2074 0165 3B       		.uleb128 0x3b
 2075 0166 05       		.uleb128 0x5
 2076 0167 27       		.uleb128 0x27
 2077 0168 0C       		.uleb128 0xc
 2078 0169 11       		.uleb128 0x11
 2079 016a 01       		.uleb128 0x1
 2080 016b 12       		.uleb128 0x12
 2081 016c 01       		.uleb128 0x1
 2082 016d 40       		.uleb128 0x40
 2083 016e 06       		.uleb128 0x6
 2084 016f 00       		.byte	0x0
 2085 0170 00       		.byte	0x0
 2086 0171 20       		.uleb128 0x20
 2087 0172 2E       		.uleb128 0x2e
 2088 0173 01       		.byte	0x1
 2089 0174 3F       		.uleb128 0x3f
 2090 0175 0C       		.uleb128 0xc
 2091 0176 03       		.uleb128 0x3
 2092 0177 0E       		.uleb128 0xe
ARM GAS  C:\Users\DNIEL~1\AppData\Local\Temp\cciPCRXZ.s 			page 38


 2093 0178 3A       		.uleb128 0x3a
 2094 0179 0B       		.uleb128 0xb
 2095 017a 3B       		.uleb128 0x3b
 2096 017b 05       		.uleb128 0x5
 2097 017c 27       		.uleb128 0x27
 2098 017d 0C       		.uleb128 0xc
 2099 017e 11       		.uleb128 0x11
 2100 017f 01       		.uleb128 0x1
 2101 0180 12       		.uleb128 0x12
 2102 0181 01       		.uleb128 0x1
 2103 0182 40       		.uleb128 0x40
 2104 0183 06       		.uleb128 0x6
 2105 0184 01       		.uleb128 0x1
 2106 0185 13       		.uleb128 0x13
 2107 0186 00       		.byte	0x0
 2108 0187 00       		.byte	0x0
 2109 0188 21       		.uleb128 0x21
 2110 0189 05       		.uleb128 0x5
 2111 018a 00       		.byte	0x0
 2112 018b 03       		.uleb128 0x3
 2113 018c 0E       		.uleb128 0xe
 2114 018d 3A       		.uleb128 0x3a
 2115 018e 0B       		.uleb128 0xb
 2116 018f 3B       		.uleb128 0x3b
 2117 0190 05       		.uleb128 0x5
 2118 0191 49       		.uleb128 0x49
 2119 0192 13       		.uleb128 0x13
 2120 0193 02       		.uleb128 0x2
 2121 0194 06       		.uleb128 0x6
 2122 0195 00       		.byte	0x0
 2123 0196 00       		.byte	0x0
 2124 0197 22       		.uleb128 0x22
 2125 0198 34       		.uleb128 0x34
 2126 0199 00       		.byte	0x0
 2127 019a 03       		.uleb128 0x3
 2128 019b 08       		.uleb128 0x8
 2129 019c 3A       		.uleb128 0x3a
 2130 019d 0B       		.uleb128 0xb
 2131 019e 3B       		.uleb128 0x3b
 2132 019f 05       		.uleb128 0x5
 2133 01a0 49       		.uleb128 0x49
 2134 01a1 13       		.uleb128 0x13
 2135 01a2 00       		.byte	0x0
 2136 01a3 00       		.byte	0x0
 2137 01a4 23       		.uleb128 0x23
 2138 01a5 2E       		.uleb128 0x2e
 2139 01a6 01       		.byte	0x1
 2140 01a7 3F       		.uleb128 0x3f
 2141 01a8 0C       		.uleb128 0xc
 2142 01a9 03       		.uleb128 0x3
 2143 01aa 0E       		.uleb128 0xe
 2144 01ab 3A       		.uleb128 0x3a
 2145 01ac 0B       		.uleb128 0xb
 2146 01ad 3B       		.uleb128 0x3b
 2147 01ae 05       		.uleb128 0x5
 2148 01af 27       		.uleb128 0x27
 2149 01b0 0C       		.uleb128 0xc
ARM GAS  C:\Users\DNIEL~1\AppData\Local\Temp\cciPCRXZ.s 			page 39


 2150 01b1 11       		.uleb128 0x11
 2151 01b2 01       		.uleb128 0x1
 2152 01b3 12       		.uleb128 0x12
 2153 01b4 01       		.uleb128 0x1
 2154 01b5 40       		.uleb128 0x40
 2155 01b6 0A       		.uleb128 0xa
 2156 01b7 01       		.uleb128 0x1
 2157 01b8 13       		.uleb128 0x13
 2158 01b9 00       		.byte	0x0
 2159 01ba 00       		.byte	0x0
 2160 01bb 24       		.uleb128 0x24
 2161 01bc 34       		.uleb128 0x34
 2162 01bd 00       		.byte	0x0
 2163 01be 03       		.uleb128 0x3
 2164 01bf 0E       		.uleb128 0xe
 2165 01c0 3A       		.uleb128 0x3a
 2166 01c1 0B       		.uleb128 0xb
 2167 01c2 3B       		.uleb128 0x3b
 2168 01c3 05       		.uleb128 0x5
 2169 01c4 49       		.uleb128 0x49
 2170 01c5 13       		.uleb128 0x13
 2171 01c6 3F       		.uleb128 0x3f
 2172 01c7 0C       		.uleb128 0xc
 2173 01c8 3C       		.uleb128 0x3c
 2174 01c9 0C       		.uleb128 0xc
 2175 01ca 00       		.byte	0x0
 2176 01cb 00       		.byte	0x0
 2177 01cc 25       		.uleb128 0x25
 2178 01cd 34       		.uleb128 0x34
 2179 01ce 00       		.byte	0x0
 2180 01cf 03       		.uleb128 0x3
 2181 01d0 0E       		.uleb128 0xe
 2182 01d1 3A       		.uleb128 0x3a
 2183 01d2 0B       		.uleb128 0xb
 2184 01d3 3B       		.uleb128 0x3b
 2185 01d4 0B       		.uleb128 0xb
 2186 01d5 49       		.uleb128 0x49
 2187 01d6 13       		.uleb128 0x13
 2188 01d7 3F       		.uleb128 0x3f
 2189 01d8 0C       		.uleb128 0xc
 2190 01d9 02       		.uleb128 0x2
 2191 01da 0A       		.uleb128 0xa
 2192 01db 00       		.byte	0x0
 2193 01dc 00       		.byte	0x0
 2194 01dd 00       		.byte	0x0
 2195              		.section	.debug_pubnames,"",%progbits
 2196 0000 8D000000 		.4byte	0x8d
 2197 0004 0200     		.2byte	0x2
 2198 0006 00000000 		.4byte	.Ldebug_info0
 2199 000a 8D070000 		.4byte	0x78d
 2200 000e 5A060000 		.4byte	0x65a
 2201 0012 56656374 		.ascii	"VectorA4\000"
 2201      6F724134 
 2201      00
 2202 001b 6F060000 		.4byte	0x66f
 2203 001f 56656374 		.ascii	"VectorAC\000"
 2203      6F724143 
ARM GAS  C:\Users\DNIEL~1\AppData\Local\Temp\cciPCRXZ.s 			page 40


 2203      00
 2204 0028 84060000 		.4byte	0x684
 2205 002c 6963755F 		.ascii	"icu_lld_init\000"
 2205      6C6C645F 
 2205      696E6974 
 2205      00
 2206 0039 9A060000 		.4byte	0x69a
 2207 003d 6963755F 		.ascii	"icu_lld_start\000"
 2207      6C6C645F 
 2207      73746172 
 2207      7400
 2208 004b D1060000 		.4byte	0x6d1
 2209 004f 6963755F 		.ascii	"icu_lld_stop\000"
 2209      6C6C645F 
 2209      73746F70 
 2209      00
 2210 005c FC060000 		.4byte	0x6fc
 2211 0060 6963755F 		.ascii	"icu_lld_enable\000"
 2211      6C6C645F 
 2211      656E6162 
 2211      6C6500
 2212 006f 26070000 		.4byte	0x726
 2213 0073 6963755F 		.ascii	"icu_lld_disable\000"
 2213      6C6C645F 
 2213      64697361 
 2213      626C6500 
 2214 0083 7A070000 		.4byte	0x77a
 2215 0087 49435544 		.ascii	"ICUD1\000"
 2215      3100
 2216 008d 00000000 		.4byte	0x0
 2217              		.section	.debug_pubtypes,"",%progbits
 2218 0000 CC000000 		.4byte	0xcc
 2219 0004 0200     		.2byte	0x2
 2220 0006 00000000 		.4byte	.Ldebug_info0
 2221 000a 8D070000 		.4byte	0x78d
 2222 000e 4C000000 		.4byte	0x4c
 2223 0012 75696E74 		.ascii	"uint16_t\000"
 2223      31365F74 
 2223      00
 2224 001b 5E000000 		.4byte	0x5e
 2225 001f 696E7433 		.ascii	"int32_t\000"
 2225      325F7400 
 2226 0027 70000000 		.4byte	0x70
 2227 002b 75696E74 		.ascii	"uint32_t\000"
 2227      33325F74 
 2227      00
 2228 0034 B5020000 		.4byte	0x2b5
 2229 0038 5243435F 		.ascii	"RCC_TypeDef\000"
 2229      54797065 
 2229      44656600 
 2230 0044 F4020000 		.4byte	0x2f4
 2231 0048 69637573 		.ascii	"icustate_t\000"
 2231      74617465 
 2231      5F7400
 2232 0053 FF020000 		.4byte	0x2ff
 2233 0057 49435544 		.ascii	"ICUDriver\000"
 2233      72697665 
ARM GAS  C:\Users\DNIEL~1\AppData\Local\Temp\cciPCRXZ.s 			page 41


 2233      7200
 2234 0061 72030000 		.4byte	0x372
 2235 0065 69637563 		.ascii	"icucallback_t\000"
 2235      616C6C62 
 2235      61636B5F 
 2235      7400
 2236 0073 DD040000 		.4byte	0x4dd
 2237 0077 73746D33 		.ascii	"stm32_tim_t\000"
 2237      325F7469 
 2237      6D5F7400 
 2238 0083 FE040000 		.4byte	0x4fe
 2239 0087 6963756D 		.ascii	"icumode_t\000"
 2239      6F64655F 
 2239      7400
 2240 0091 09050000 		.4byte	0x509
 2241 0095 69637566 		.ascii	"icufreq_t\000"
 2241      7265715F 
 2241      7400
 2242 009f 29050000 		.4byte	0x529
 2243 00a3 69637563 		.ascii	"icuchannel_t\000"
 2243      68616E6E 
 2243      656C5F74 
 2243      00
 2244 00b0 A7050000 		.4byte	0x5a7
 2245 00b4 49435543 		.ascii	"ICUConfig\000"
 2245      6F6E6669 
 2245      6700
 2246 00be 0A030000 		.4byte	0x30a
 2247 00c2 49435544 		.ascii	"ICUDriver\000"
 2247      72697665 
 2247      7200
 2248 00cc 00000000 		.4byte	0x0
 2249              		.section	.debug_aranges,"",%progbits
 2250 0000 54000000 		.4byte	0x54
 2251 0004 0200     		.2byte	0x2
 2252 0006 00000000 		.4byte	.Ldebug_info0
 2253 000a 04       		.byte	0x4
 2254 000b 00       		.byte	0x0
 2255 000c 0000     		.2byte	0x0
 2256 000e 0000     		.2byte	0x0
 2257 0010 00000000 		.4byte	.LFB126
 2258 0014 94000000 		.4byte	.LFE126-.LFB126
 2259 0018 00000000 		.4byte	.LFB119
 2260 001c 0E000000 		.4byte	.LFE119-.LFB119
 2261 0020 00000000 		.4byte	.LFB120
 2262 0024 0E000000 		.4byte	.LFE120-.LFB120
 2263 0028 00000000 		.4byte	.LFB121
 2264 002c 18000000 		.4byte	.LFE121-.LFB121
 2265 0030 00000000 		.4byte	.LFB122
 2266 0034 DC000000 		.4byte	.LFE122-.LFB122
 2267 0038 00000000 		.4byte	.LFB123
 2268 003c 3C000000 		.4byte	.LFE123-.LFB123
 2269 0040 00000000 		.4byte	.LFB124
 2270 0044 52000000 		.4byte	.LFE124-.LFB124
 2271 0048 00000000 		.4byte	.LFB125
 2272 004c 12000000 		.4byte	.LFE125-.LFB125
 2273 0050 00000000 		.4byte	0x0
ARM GAS  C:\Users\DNIEL~1\AppData\Local\Temp\cciPCRXZ.s 			page 42


 2274 0054 00000000 		.4byte	0x0
 2275              		.section	.debug_ranges,"",%progbits
 2276              	.Ldebug_ranges0:
 2277 0000 00000000 		.4byte	.LFB126
 2278 0004 94000000 		.4byte	.LFE126
 2279 0008 00000000 		.4byte	.LFB119
 2280 000c 0E000000 		.4byte	.LFE119
 2281 0010 00000000 		.4byte	.LFB120
 2282 0014 0E000000 		.4byte	.LFE120
 2283 0018 00000000 		.4byte	.LFB121
 2284 001c 18000000 		.4byte	.LFE121
 2285 0020 00000000 		.4byte	.LFB122
 2286 0024 DC000000 		.4byte	.LFE122
 2287 0028 00000000 		.4byte	.LFB123
 2288 002c 3C000000 		.4byte	.LFE123
 2289 0030 00000000 		.4byte	.LFB124
 2290 0034 52000000 		.4byte	.LFE124
 2291 0038 00000000 		.4byte	.LFB125
 2292 003c 12000000 		.4byte	.LFE125
 2293 0040 00000000 		.4byte	0x0
 2294 0044 00000000 		.4byte	0x0
 2295              		.section	.debug_str,"MS",%progbits,1
 2296              	.LASF30:
 2297 0000 41484231 		.ascii	"AHB1LPENR\000"
 2297      4C50454E 
 2297      5200
 2298              	.LASF89:
 2299 000a 6963755F 		.ascii	"icu_lld_stop\000"
 2299      6C6C645F 
 2299      73746F70 
 2299      00
 2300              	.LASF62:
 2301 0017 43434552 		.ascii	"CCER\000"
 2301      00
 2302              	.LASF43:
 2303 001c 5243435F 		.ascii	"RCC_TypeDef\000"
 2303      54797065 
 2303      44656600 
 2304              	.LASF45:
 2305 0028 4943555F 		.ascii	"ICU_STOP\000"
 2305      53544F50 
 2305      00
 2306              	.LASF75:
 2307 0031 69637563 		.ascii	"icuchannel_t\000"
 2307      68616E6E 
 2307      656C5F74 
 2307      00
 2308              	.LASF88:
 2309 003e 6963755F 		.ascii	"icu_lld_start\000"
 2309      6C6C645F 
 2309      73746172 
 2309      7400
 2310              	.LASF24:
 2311 004c 41484232 		.ascii	"AHB2ENR\000"
 2311      454E5200 
 2312              	.LASF64:
 2313 0054 444D4152 		.ascii	"DMAR\000"
ARM GAS  C:\Users\DNIEL~1\AppData\Local\Temp\cciPCRXZ.s 			page 43


 2313      00
 2314              	.LASF52:
 2315 0059 73746174 		.ascii	"state\000"
 2315      6500
 2316              	.LASF61:
 2317 005f 43434D52 		.ascii	"CCMR2\000"
 2317      3200
 2318              	.LASF3:
 2319 0065 73686F72 		.ascii	"short int\000"
 2319      7420696E 
 2319      7400
 2320              	.LASF90:
 2321 006f 69637570 		.ascii	"icup\000"
 2321      00
 2322              	.LASF37:
 2323 0074 42444352 		.ascii	"BDCR\000"
 2323      00
 2324              	.LASF91:
 2325 0079 6963755F 		.ascii	"icu_lld_enable\000"
 2325      6C6C645F 
 2325      656E6162 
 2325      6C6500
 2326              	.LASF40:
 2327 0088 504C4C49 		.ascii	"PLLI2SCFGR\000"
 2327      32534346 
 2327      475200
 2328              	.LASF85:
 2329 0093 56656374 		.ascii	"VectorA4\000"
 2329      6F724134 
 2329      00
 2330              	.LASF20:
 2331 009c 41504231 		.ascii	"APB1RSTR\000"
 2331      52535452 
 2331      00
 2332              	.LASF76:
 2333 00a5 6D6F6465 		.ascii	"mode\000"
 2333      00
 2334              	.LASF92:
 2335 00aa 6963755F 		.ascii	"icu_lld_disable\000"
 2335      6C6C645F 
 2335      64697361 
 2335      626C6500 
 2336              	.LASF32:
 2337 00ba 41484233 		.ascii	"AHB3LPENR\000"
 2337      4C50454E 
 2337      5200
 2338              	.LASF53:
 2339 00c4 636F6E66 		.ascii	"config\000"
 2339      696700
 2340              	.LASF15:
 2341 00cb 43464752 		.ascii	"CFGR\000"
 2341      00
 2342              	.LASF22:
 2343 00d0 52455345 		.ascii	"RESERVED1\000"
 2343      52564544 
 2343      3100
 2344              	.LASF86:
ARM GAS  C:\Users\DNIEL~1\AppData\Local\Temp\cciPCRXZ.s 			page 44


 2345 00da 56656374 		.ascii	"VectorAC\000"
 2345      6F724143 
 2345      00
 2346              	.LASF27:
 2347 00e3 41504231 		.ascii	"APB1ENR\000"
 2347      454E5200 
 2348              	.LASF73:
 2349 00eb 4943555F 		.ascii	"ICU_CHANNEL_1\000"
 2349      4348414E 
 2349      4E454C5F 
 2349      3100
 2350              	.LASF74:
 2351 00f9 4943555F 		.ascii	"ICU_CHANNEL_2\000"
 2351      4348414E 
 2351      4E454C5F 
 2351      3200
 2352              	.LASF8:
 2353 0107 75696E74 		.ascii	"uint32_t\000"
 2353      33325F74 
 2353      00
 2354              	.LASF42:
 2355 0110 44434B43 		.ascii	"DCKCFGR\000"
 2355      46475200 
 2356              	.LASF78:
 2357 0118 77696474 		.ascii	"width_cb\000"
 2357      685F6362 
 2357      00
 2358              	.LASF48:
 2359 0121 4943555F 		.ascii	"ICU_ACTIVE\000"
 2359      41435449 
 2359      564500
 2360              	.LASF10:
 2361 012c 6C6F6E67 		.ascii	"long long int\000"
 2361      206C6F6E 
 2361      6720696E 
 2361      7400
 2362              	.LASF11:
 2363 013a 6C6F6E67 		.ascii	"long long unsigned int\000"
 2363      206C6F6E 
 2363      6720756E 
 2363      7369676E 
 2363      65642069 
 2364              	.LASF71:
 2365 0151 6963756D 		.ascii	"icumode_t\000"
 2365      6F64655F 
 2365      7400
 2366              	.LASF96:
 2367 015b 2E2E2F2E 		.ascii	"../../../ChibiOS/os/hal/platforms/STM32/TIMv1/icu_l"
 2367      2E2F2E2E 
 2367      2F436869 
 2367      62694F53 
 2367      2F6F732F 
 2368 018e 6C642E63 		.ascii	"ld.c\000"
 2368      00
 2369              	.LASF55:
 2370 0193 77636372 		.ascii	"wccrp\000"
 2370      7000
ARM GAS  C:\Users\DNIEL~1\AppData\Local\Temp\cciPCRXZ.s 			page 45


 2371              	.LASF7:
 2372 0199 6C6F6E67 		.ascii	"long int\000"
 2372      20696E74 
 2372      00
 2373              	.LASF66:
 2374 01a2 43435235 		.ascii	"CCR5\000"
 2374      00
 2375              	.LASF67:
 2376 01a7 43435236 		.ascii	"CCR6\000"
 2376      00
 2377              	.LASF56:
 2378 01ac 70636372 		.ascii	"pccrp\000"
 2378      7000
 2379              	.LASF21:
 2380 01b2 41504232 		.ascii	"APB2RSTR\000"
 2380      52535452 
 2380      00
 2381              	.LASF60:
 2382 01bb 43434D52 		.ascii	"CCMR1\000"
 2382      3100
 2383              	.LASF65:
 2384 01c1 43434D52 		.ascii	"CCMR3\000"
 2384      3300
 2385              	.LASF25:
 2386 01c7 41484233 		.ascii	"AHB3ENR\000"
 2386      454E5200 
 2387              	.LASF49:
 2388 01cf 4943555F 		.ascii	"ICU_IDLE\000"
 2388      49444C45 
 2388      00
 2389              	.LASF58:
 2390 01d8 534D4352 		.ascii	"SMCR\000"
 2390      00
 2391              	.LASF2:
 2392 01dd 756E7369 		.ascii	"unsigned char\000"
 2392      676E6564 
 2392      20636861 
 2392      7200
 2393              	.LASF83:
 2394 01eb 49435543 		.ascii	"ICUConfig\000"
 2394      6F6E6669 
 2394      6700
 2395              	.LASF94:
 2396 01f5 49435544 		.ascii	"ICUD1\000"
 2396      3100
 2397              	.LASF28:
 2398 01fb 41504232 		.ascii	"APB2ENR\000"
 2398      454E5200 
 2399              	.LASF84:
 2400 0203 70726576 		.ascii	"previous_state\000"
 2400      696F7573 
 2400      5F737461 
 2400      746500
 2401              	.LASF1:
 2402 0212 7369676E 		.ascii	"signed char\000"
 2402      65642063 
 2402      68617200 
ARM GAS  C:\Users\DNIEL~1\AppData\Local\Temp\cciPCRXZ.s 			page 46


 2403              	.LASF87:
 2404 021e 6963755F 		.ascii	"icu_lld_init\000"
 2404      6C6C645F 
 2404      696E6974 
 2404      00
 2405              	.LASF0:
 2406 022b 756E7369 		.ascii	"unsigned int\000"
 2406      676E6564 
 2406      20696E74 
 2406      00
 2407              	.LASF17:
 2408 0238 41484232 		.ascii	"AHB2RSTR\000"
 2408      52535452 
 2408      00
 2409              	.LASF5:
 2410 0241 75696E74 		.ascii	"uint16_t\000"
 2410      31365F74 
 2410      00
 2411              	.LASF9:
 2412 024a 6C6F6E67 		.ascii	"long unsigned int\000"
 2412      20756E73 
 2412      69676E65 
 2412      6420696E 
 2412      7400
 2413              	.LASF97:
 2414 025c 433A5C44 		.ascii	"C:\\Dani\\MegaLux\\Repo\\Smarty\\Smarty\\smarty\\fi"
 2414      616E695C 
 2414      4D656761 
 2414      4C75785C 
 2414      5265706F 
 2415 0288 726D7761 		.ascii	"rmware\000"
 2415      726500
 2416              	.LASF59:
 2417 028f 44494552 		.ascii	"DIER\000"
 2417      00
 2418              	.LASF72:
 2419 0294 69637566 		.ascii	"icufreq_t\000"
 2419      7265715F 
 2419      7400
 2420              	.LASF12:
 2421 029e 5F426F6F 		.ascii	"_Bool\000"
 2421      6C00
 2422              	.LASF4:
 2423 02a4 73686F72 		.ascii	"short unsigned int\000"
 2423      7420756E 
 2423      7369676E 
 2423      65642069 
 2423      6E7400
 2424              	.LASF34:
 2425 02b7 41504231 		.ascii	"APB1LPENR\000"
 2425      4C50454E 
 2425      5200
 2426              	.LASF13:
 2427 02c1 63686172 		.ascii	"char\000"
 2427      00
 2428              	.LASF57:
 2429 02c6 69637563 		.ascii	"icucallback_t\000"
ARM GAS  C:\Users\DNIEL~1\AppData\Local\Temp\cciPCRXZ.s 			page 47


 2429      616C6C62 
 2429      61636B5F 
 2429      7400
 2430              	.LASF68:
 2431 02d4 73746D33 		.ascii	"stm32_tim_t\000"
 2431      325F7469 
 2431      6D5F7400 
 2432              	.LASF79:
 2433 02e0 70657269 		.ascii	"period_cb\000"
 2433      6F645F63 
 2433      6200
 2434              	.LASF63:
 2435 02ea 42445452 		.ascii	"BDTR\000"
 2435      00
 2436              	.LASF6:
 2437 02ef 696E7433 		.ascii	"int32_t\000"
 2437      325F7400 
 2438              	.LASF70:
 2439 02f7 4943555F 		.ascii	"ICU_INPUT_ACTIVE_LOW\000"
 2439      494E5055 
 2439      545F4143 
 2439      54495645 
 2439      5F4C4F57 
 2440              	.LASF39:
 2441 030c 53534347 		.ascii	"SSCGR\000"
 2441      5200
 2442              	.LASF81:
 2443 0312 6368616E 		.ascii	"channel\000"
 2443      6E656C00 
 2444              	.LASF44:
 2445 031a 4943555F 		.ascii	"ICU_UNINIT\000"
 2445      554E494E 
 2445      495400
 2446              	.LASF31:
 2447 0325 41484232 		.ascii	"AHB2LPENR\000"
 2447      4C50454E 
 2447      5200
 2448              	.LASF19:
 2449 032f 52455345 		.ascii	"RESERVED0\000"
 2449      52564544 
 2449      3000
 2450              	.LASF69:
 2451 0339 4943555F 		.ascii	"ICU_INPUT_ACTIVE_HIGH\000"
 2451      494E5055 
 2451      545F4143 
 2451      54495645 
 2451      5F484947 
 2452              	.LASF26:
 2453 034f 52455345 		.ascii	"RESERVED2\000"
 2453      52564544 
 2453      3200
 2454              	.LASF29:
 2455 0359 52455345 		.ascii	"RESERVED3\000"
 2455      52564544 
 2455      3300
 2456              	.LASF33:
 2457 0363 52455345 		.ascii	"RESERVED4\000"
ARM GAS  C:\Users\DNIEL~1\AppData\Local\Temp\cciPCRXZ.s 			page 48


 2457      52564544 
 2457      3400
 2458              	.LASF36:
 2459 036d 52455345 		.ascii	"RESERVED5\000"
 2459      52564544 
 2459      3500
 2460              	.LASF38:
 2461 0377 52455345 		.ascii	"RESERVED6\000"
 2461      52564544 
 2461      3600
 2462              	.LASF54:
 2463 0381 636C6F63 		.ascii	"clock\000"
 2463      6B00
 2464              	.LASF95:
 2465 0387 474E5520 		.ascii	"GNU C 4.5.2\000"
 2465      4320342E 
 2465      352E3200 
 2466              	.LASF80:
 2467 0393 6F766572 		.ascii	"overflow_cb\000"
 2467      666C6F77 
 2467      5F636200 
 2468              	.LASF82:
 2469 039f 64696572 		.ascii	"dier\000"
 2469      00
 2470              	.LASF51:
 2471 03a4 49435544 		.ascii	"ICUDriver\000"
 2471      72697665 
 2471      7200
 2472              	.LASF77:
 2473 03ae 66726571 		.ascii	"frequency\000"
 2473      75656E63 
 2473      7900
 2474              	.LASF46:
 2475 03b8 4943555F 		.ascii	"ICU_READY\000"
 2475      52454144 
 2475      5900
 2476              	.LASF16:
 2477 03c2 41484231 		.ascii	"AHB1RSTR\000"
 2477      52535452 
 2477      00
 2478              	.LASF23:
 2479 03cb 41484231 		.ascii	"AHB1ENR\000"
 2479      454E5200 
 2480              	.LASF98:
 2481 03d3 6963755F 		.ascii	"icu_lld_serve_interrupt\000"
 2481      6C6C645F 
 2481      73657276 
 2481      655F696E 
 2481      74657272 
 2482              	.LASF18:
 2483 03eb 41484233 		.ascii	"AHB3RSTR\000"
 2483      52535452 
 2483      00
 2484              	.LASF93:
 2485 03f4 49544D5F 		.ascii	"ITM_RxBuffer\000"
 2485      52784275 
 2485      66666572 
ARM GAS  C:\Users\DNIEL~1\AppData\Local\Temp\cciPCRXZ.s 			page 49


 2485      00
 2486              	.LASF14:
 2487 0401 504C4C43 		.ascii	"PLLCFGR\000"
 2487      46475200 
 2488              	.LASF41:
 2489 0409 504C4C53 		.ascii	"PLLSAICFGR\000"
 2489      41494346 
 2489      475200
 2490              	.LASF35:
 2491 0414 41504232 		.ascii	"APB2LPENR\000"
 2491      4C50454E 
 2491      5200
 2492              	.LASF50:
 2493 041e 69637573 		.ascii	"icustate_t\000"
 2493      74617465 
 2493      5F7400
 2494              	.LASF47:
 2495 0429 4943555F 		.ascii	"ICU_WAITING\000"
 2495      57414954 
 2495      494E4700 
 2496              		.ident	"GCC: (Sourcery G++ Lite 2011.03-42) 4.5.2"
ARM GAS  C:\Users\DNIEL~1\AppData\Local\Temp\cciPCRXZ.s 			page 50


DEFINED SYMBOLS
                            *ABS*:00000000 icu_lld.c
C:\Users\DNIEL~1\AppData\Local\Temp\cciPCRXZ.s:24     .text.icu_lld_serve_interrupt.clone.0:00000000 $t
C:\Users\DNIEL~1\AppData\Local\Temp\cciPCRXZ.s:29     .text.icu_lld_serve_interrupt.clone.0:00000000 icu_lld_serve_interrupt.clone.0
C:\Users\DNIEL~1\AppData\Local\Temp\cciPCRXZ.s:143    .text.icu_lld_serve_interrupt.clone.0:00000090 $d
C:\Users\DNIEL~1\AppData\Local\Temp\cciPCRXZ.s:148    .text.VectorA4:00000000 $t
C:\Users\DNIEL~1\AppData\Local\Temp\cciPCRXZ.s:154    .text.VectorA4:00000000 VectorA4
C:\Users\DNIEL~1\AppData\Local\Temp\cciPCRXZ.s:175    .text.VectorAC:00000000 $t
C:\Users\DNIEL~1\AppData\Local\Temp\cciPCRXZ.s:181    .text.VectorAC:00000000 VectorAC
C:\Users\DNIEL~1\AppData\Local\Temp\cciPCRXZ.s:202    .text.icu_lld_init:00000000 $t
C:\Users\DNIEL~1\AppData\Local\Temp\cciPCRXZ.s:208    .text.icu_lld_init:00000000 icu_lld_init
C:\Users\DNIEL~1\AppData\Local\Temp\cciPCRXZ.s:231    .text.icu_lld_init:00000010 $d
C:\Users\DNIEL~1\AppData\Local\Temp\cciPCRXZ.s:237    .text.icu_lld_start:00000000 $t
C:\Users\DNIEL~1\AppData\Local\Temp\cciPCRXZ.s:243    .text.icu_lld_start:00000000 icu_lld_start
C:\Users\DNIEL~1\AppData\Local\Temp\cciPCRXZ.s:418    .text.icu_lld_start:000000d0 $d
C:\Users\DNIEL~1\AppData\Local\Temp\cciPCRXZ.s:425    .text.icu_lld_stop:00000000 $t
C:\Users\DNIEL~1\AppData\Local\Temp\cciPCRXZ.s:431    .text.icu_lld_stop:00000000 icu_lld_stop
C:\Users\DNIEL~1\AppData\Local\Temp\cciPCRXZ.s:483    .text.icu_lld_stop:00000034 $d
C:\Users\DNIEL~1\AppData\Local\Temp\cciPCRXZ.s:489    .text.icu_lld_enable:00000000 $t
C:\Users\DNIEL~1\AppData\Local\Temp\cciPCRXZ.s:495    .text.icu_lld_enable:00000000 icu_lld_enable
C:\Users\DNIEL~1\AppData\Local\Temp\cciPCRXZ.s:568    .text.icu_lld_disable:00000000 $t
C:\Users\DNIEL~1\AppData\Local\Temp\cciPCRXZ.s:574    .text.icu_lld_disable:00000000 icu_lld_disable
C:\Users\DNIEL~1\AppData\Local\Temp\cciPCRXZ.s:604    .bss.ICUD1:00000000 ICUD1
C:\Users\DNIEL~1\AppData\Local\Temp\cciPCRXZ.s:600    .bss.ICUD1:00000000 $d
                     .debug_frame:00000010 $d
C:\Users\DNIEL~1\AppData\Local\Temp\cciPCRXZ.s:147    .text.icu_lld_serve_interrupt.clone.0:00000094 $t
C:\Users\DNIEL~1\AppData\Local\Temp\cciPCRXZ.s:236    .text.icu_lld_init:00000018 $t
C:\Users\DNIEL~1\AppData\Local\Temp\cciPCRXZ.s:424    .text.icu_lld_start:000000dc $t
C:\Users\DNIEL~1\AppData\Local\Temp\cciPCRXZ.s:488    .text.icu_lld_stop:0000003c $t

UNDEFINED SYMBOLS
_port_irq_epilogue
icuObjectInit
nvicEnableVector
nvicDisableVector
