ARM GAS  C:\Users\DNIEL~1\AppData\Local\Temp\ccnLX0pg.s 			page 1


   1              		.syntax unified
   2              		.cpu cortex-m4
   3              		.fpu softvfp
   4              		.eabi_attribute 20, 1
   5              		.eabi_attribute 21, 1
   6              		.eabi_attribute 23, 3
   7              		.eabi_attribute 24, 1
   8              		.eabi_attribute 25, 1
   9              		.eabi_attribute 26, 1
  10              		.eabi_attribute 30, 2
  11              		.eabi_attribute 34, 1
  12              		.eabi_attribute 18, 4
  13              		.thumb
  14              		.file	"icu_lld.c"
  15              		.text
  16              	.Ltext0:
  17              		.cfi_sections	.debug_frame
  18              		.section	.text.icu_lld_serve_interrupt.constprop.0,"ax",%progbits
  19              		.align	2
  20              		.p2align 4,,15
  21              		.thumb
  22              		.thumb_func
  23              		.type	icu_lld_serve_interrupt.constprop.0, %function
  24              	icu_lld_serve_interrupt.constprop.0:
  25              	.LFB126:
  26              		.file 1 "../../../ChibiOS/os/hal/platforms/STM32/icu_lld.c"
  27              		.loc 1 103 0
  28              		.cfi_startproc
  29              		@ args = 0, pretend = 0, frame = 0
  30              		@ frame_needed = 0, uses_anonymous_args = 0
  31              	.LVL0:
  32 0000 38B5     		push	{r3, r4, r5, lr}
  33              	.LCFI0:
  34              		.cfi_def_cfa_offset 16
  35              		.cfi_offset 3, -16
  36              		.cfi_offset 4, -12
  37              		.cfi_offset 5, -8
  38              		.cfi_offset 14, -4
  39              		.loc 1 106 0
  40 0002 224C     		ldr	r4, .L30
  41 0004 E368     		ldr	r3, [r4, #12]
  42              		.loc 1 108 0
  43 0006 6268     		ldr	r2, [r4, #4]
  44              		.loc 1 106 0
  45 0008 188A     		ldrh	r0, [r3, #16]
  46 000a 9D89     		ldrh	r5, [r3, #12]
  47              		.loc 1 108 0
  48 000c 117D     		ldrb	r1, [r2, #20]	@ zero_extendqisi2
  49              		.loc 1 106 0
  50 000e ADB2     		uxth	r5, r5
  51 0010 0540     		ands	r5, r5, r0
  52              	.LVL1:
  53              		.loc 1 107 0
  54 0012 E843     		mvns	r0, r5
  55 0014 80B2     		uxth	r0, r0
  56 0016 1882     		strh	r0, [r3, #16]	@ movhi
  57              		.loc 1 109 0
ARM GAS  C:\Users\DNIEL~1\AppData\Local\Temp\ccnLX0pg.s 			page 2


  58 0018 05F00203 		and	r3, r5, #2
  59 001c 98B2     		uxth	r0, r3
  60              		.loc 1 108 0
  61 001e 99B9     		cbnz	r1, .L2
  62              		.loc 1 109 0
  63 0020 38B1     		cbz	r0, .L4
  64              	.LBB4:
  65              		.loc 1 110 0
  66 0022 2078     		ldrb	r0, [r4, #0]	@ zero_extendqisi2
  67              	.LVL2:
  68 0024 0423     		movs	r3, #4
  69 0026 0328     		cmp	r0, #3
  70 0028 2370     		strb	r3, [r4, #0]
  71 002a 02D0     		beq	.L4
  72 002c D268     		ldr	r2, [r2, #12]
  73 002e 2046     		mov	r0, r4
  74 0030 9047     		blx	r2
  75              	.LVL3:
  76              	.L4:
  77              	.LBE4:
  78              		.loc 1 111 0
  79 0032 05F00401 		and	r1, r5, #4
  80 0036 88B2     		uxth	r0, r1
  81 0038 08BB     		cbnz	r0, .L27
  82              	.L7:
  83              		.loc 1 119 0
  84 003a EB07     		lsls	r3, r5, #31
  85 003c 03D5     		bpl	.L1
  86              		.loc 1 120 0
  87 003e 6368     		ldr	r3, [r4, #4]
  88 0040 1248     		ldr	r0, .L30
  89 0042 1969     		ldr	r1, [r3, #16]
  90 0044 8847     		blx	r1
  91              	.LVL4:
  92              	.L1:
  93 0046 38BD     		pop	{r3, r4, r5, pc}
  94              	.L2:
  95              		.loc 1 114 0
  96 0048 70B9     		cbnz	r0, .L28
  97              		.loc 1 116 0
  98 004a 05F00403 		and	r3, r5, #4
  99 004e 98B2     		uxth	r0, r3
 100 0050 0028     		cmp	r0, #0
 101 0052 F2D0     		beq	.L7
 102              	.L29:
 103              	.LBB5:
 104              		.loc 1 117 0
 105 0054 2178     		ldrb	r1, [r4, #0]	@ zero_extendqisi2
 106              	.LVL5:
 107 0056 0D48     		ldr	r0, .L30
 108 0058 0422     		movs	r2, #4
 109 005a 0329     		cmp	r1, #3
 110 005c 2270     		strb	r2, [r4, #0]
 111 005e ECD0     		beq	.L7
 112 0060 4368     		ldr	r3, [r0, #4]
 113 0062 D968     		ldr	r1, [r3, #12]
 114 0064 8847     		blx	r1
ARM GAS  C:\Users\DNIEL~1\AppData\Local\Temp\ccnLX0pg.s 			page 3


 115              	.LVL6:
 116 0066 E8E7     		b	.L7
 117              	.L28:
 118              	.LBE5:
 119              		.loc 1 115 0
 120 0068 0521     		movs	r1, #5
 121 006a 2046     		mov	r0, r4
 122 006c 2170     		strb	r1, [r4, #0]
 123 006e 9268     		ldr	r2, [r2, #8]
 124 0070 9047     		blx	r2
 125              	.LVL7:
 126              		.loc 1 116 0
 127 0072 05F00403 		and	r3, r5, #4
 128 0076 98B2     		uxth	r0, r3
 129 0078 0028     		cmp	r0, #0
 130 007a DED0     		beq	.L7
 131 007c EAE7     		b	.L29
 132              	.L27:
 133              		.loc 1 112 0
 134 007e 6368     		ldr	r3, [r4, #4]
 135 0080 0248     		ldr	r0, .L30
 136 0082 9968     		ldr	r1, [r3, #8]
 137 0084 0522     		movs	r2, #5
 138 0086 2270     		strb	r2, [r4, #0]
 139 0088 8847     		blx	r1
 140              	.LVL8:
 141 008a D6E7     		b	.L7
 142              	.L31:
 143              		.align	2
 144              	.L30:
 145 008c 00000000 		.word	.LANCHOR0
 146              		.cfi_endproc
 147              	.LFE126:
 148              		.size	icu_lld_serve_interrupt.constprop.0, .-icu_lld_serve_interrupt.constprop.0
 149              		.section	.text.VectorA4,"ax",%progbits
 150              		.align	2
 151              		.p2align 4,,15
 152              		.global	VectorA4
 153              		.thumb
 154              		.thumb_func
 155              		.type	VectorA4, %function
 156              	VectorA4:
 157              	.LFB119:
 158              		.loc 1 139 0
 159              		.cfi_startproc
 160              		@ args = 0, pretend = 0, frame = 0
 161              		@ frame_needed = 0, uses_anonymous_args = 0
 162 0000 08B5     		push	{r3, lr}
 163              	.LCFI1:
 164              		.cfi_def_cfa_offset 8
 165              		.cfi_offset 3, -8
 166              		.cfi_offset 14, -4
 167              		.loc 1 143 0
 168 0002 FFF7FEFF 		bl	icu_lld_serve_interrupt.constprop.0
 169              	.LVL9:
 170              		.loc 1 146 0
 171 0006 BDE80840 		pop	{r3, lr}
ARM GAS  C:\Users\DNIEL~1\AppData\Local\Temp\ccnLX0pg.s 			page 4


 172              		.loc 1 145 0
 173 000a FFF7FEBF 		b	_port_irq_epilogue
 174              	.LVL10:
 175              		.cfi_endproc
 176              	.LFE119:
 177              		.size	VectorA4, .-VectorA4
 178 000e 00BF     		.section	.text.VectorAC,"ax",%progbits
 179              		.align	2
 180              		.p2align 4,,15
 181              		.global	VectorAC
 182              		.thumb
 183              		.thumb_func
 184              		.type	VectorAC, %function
 185              	VectorAC:
 186              	.LFB120:
 187              		.loc 1 159 0
 188              		.cfi_startproc
 189              		@ args = 0, pretend = 0, frame = 0
 190              		@ frame_needed = 0, uses_anonymous_args = 0
 191 0000 08B5     		push	{r3, lr}
 192              	.LCFI2:
 193              		.cfi_def_cfa_offset 8
 194              		.cfi_offset 3, -8
 195              		.cfi_offset 14, -4
 196              		.loc 1 163 0
 197 0002 FFF7FEFF 		bl	icu_lld_serve_interrupt.constprop.0
 198              	.LVL11:
 199              		.loc 1 166 0
 200 0006 BDE80840 		pop	{r3, lr}
 201              		.loc 1 165 0
 202 000a FFF7FEBF 		b	_port_irq_epilogue
 203              	.LVL12:
 204              		.cfi_endproc
 205              	.LFE120:
 206              		.size	VectorAC, .-VectorAC
 207 000e 00BF     		.section	.text.icu_lld_init,"ax",%progbits
 208              		.align	2
 209              		.p2align 4,,15
 210              		.global	icu_lld_init
 211              		.thumb
 212              		.thumb_func
 213              		.type	icu_lld_init, %function
 214              	icu_lld_init:
 215              	.LFB121:
 216              		.loc 1 308 0
 217              		.cfi_startproc
 218              		@ args = 0, pretend = 0, frame = 0
 219              		@ frame_needed = 0, uses_anonymous_args = 0
 220 0000 10B5     		push	{r4, lr}
 221              	.LCFI3:
 222              		.cfi_def_cfa_offset 8
 223              		.cfi_offset 4, -8
 224              		.cfi_offset 14, -4
 225              		.loc 1 312 0
 226 0002 40F20004 		movw	r4, #:lower16:.LANCHOR0
 227 0006 C0F20004 		movt	r4, #:upper16:.LANCHOR0
 228 000a 2046     		mov	r0, r4
ARM GAS  C:\Users\DNIEL~1\AppData\Local\Temp\ccnLX0pg.s 			page 5


 229 000c FFF7FEFF 		bl	icuObjectInit
 230              	.LVL13:
 231              		.loc 1 313 0
 232 0010 0023     		movs	r3, #0
 233 0012 C4F20103 		movt	r3, 16385
 234 0016 E360     		str	r3, [r4, #12]
 235 0018 10BD     		pop	{r4, pc}
 236              		.cfi_endproc
 237              	.LFE121:
 238              		.size	icu_lld_init, .-icu_lld_init
 239 001a 00BFAFF3 		.section	.text.icu_lld_start,"ax",%progbits
 239      0080
 240              		.align	2
 241              		.p2align 4,,15
 242              		.global	icu_lld_start
 243              		.thumb
 244              		.thumb_func
 245              		.type	icu_lld_start, %function
 246              	icu_lld_start:
 247              	.LFB122:
 248              		.loc 1 354 0
 249              		.cfi_startproc
 250              		@ args = 0, pretend = 0, frame = 0
 251              		@ frame_needed = 0, uses_anonymous_args = 0
 252              	.LVL14:
 253 0000 38B5     		push	{r3, r4, r5, lr}
 254              	.LCFI4:
 255              		.cfi_def_cfa_offset 16
 256              		.cfi_offset 3, -16
 257              		.cfi_offset 4, -12
 258              		.cfi_offset 5, -8
 259              		.cfi_offset 14, -4
 260              		.loc 1 361 0
 261 0002 0378     		ldrb	r3, [r0, #0]	@ zero_extendqisi2
 262 0004 012B     		cmp	r3, #1
 263              		.loc 1 354 0
 264 0006 0446     		mov	r4, r0
 265              		.loc 1 361 0
 266 0008 37D0     		beq	.L46
 267              		.loc 1 425 0
 268 000a C368     		ldr	r3, [r0, #12]
 269 000c 0022     		movs	r2, #0
 270 000e 1A80     		strh	r2, [r3, #0]	@ movhi
 271              		.loc 1 426 0
 272 0010 9A81     		strh	r2, [r3, #12]	@ movhi
 273              		.loc 1 427 0
 274 0012 1A82     		strh	r2, [r3, #16]	@ movhi
 275              		.loc 1 428 0
 276 0014 5A63     		str	r2, [r3, #52]
 277              		.loc 1 429 0
 278 0016 9A63     		str	r2, [r3, #56]
 279              		.loc 1 430 0
 280 0018 5A62     		str	r2, [r3, #36]
 281              	.LVL15:
 282              	.L38:
 283              		.loc 1 434 0
 284 001a 6268     		ldr	r2, [r4, #4]
ARM GAS  C:\Users\DNIEL~1\AppData\Local\Temp\ccnLX0pg.s 			page 6


 285              	.LVL16:
 286 001c A068     		ldr	r0, [r4, #8]
 287 001e 5168     		ldr	r1, [r2, #4]
 288              		.loc 1 441 0
 289 0020 157D     		ldrb	r5, [r2, #20]	@ zero_extendqisi2
 290              		.loc 1 454 0
 291 0022 1278     		ldrb	r2, [r2, #0]	@ zero_extendqisi2
 292              	.LVL17:
 293              		.loc 1 434 0
 294 0024 B0FBF1F0 		udiv	r0, r0, r1
 295 0028 411E     		subs	r1, r0, #1
 296              	.LVL18:
 297              		.loc 1 438 0
 298 002a 88B2     		uxth	r0, r1
 299              		.loc 1 439 0
 300 002c 4FF6FF71 		movw	r1, #65535
 301              	.LVL19:
 302              		.loc 1 438 0
 303 0030 1885     		strh	r0, [r3, #40]	@ movhi
 304              		.loc 1 439 0
 305 0032 D962     		str	r1, [r3, #44]
 306              		.loc 1 441 0
 307 0034 6DB9     		cbnz	r5, .L39
 308              		.loc 1 445 0
 309 0036 40F20120 		movw	r0, #513
 310              		.loc 1 449 0
 311 003a 5421     		movs	r1, #84
 312              		.loc 1 445 0
 313 003c 1883     		strh	r0, [r3, #24]	@ movhi
 314              		.loc 1 449 0
 315 003e 1981     		strh	r1, [r3, #8]	@ movhi
 316              		.loc 1 454 0
 317 0040 C2B1     		cbz	r2, .L47
 318              		.loc 1 458 0
 319 0042 1322     		movs	r2, #19
 320 0044 1A84     		strh	r2, [r3, #32]	@ movhi
 321              	.L41:
 322              		.loc 1 462 0
 323 0046 03F13801 		add	r1, r3, #56
 324              		.loc 1 463 0
 325 004a 3433     		adds	r3, r3, #52
 326              		.loc 1 462 0
 327 004c 2161     		str	r1, [r4, #16]
 328              		.loc 1 463 0
 329 004e 6361     		str	r3, [r4, #20]
 330 0050 38BD     		pop	{r3, r4, r5, pc}
 331              	.L39:
 332              		.loc 1 468 0
 333 0052 4FF48170 		mov	r0, #258
 334              		.loc 1 472 0
 335 0056 6421     		movs	r1, #100
 336              		.loc 1 468 0
 337 0058 1883     		strh	r0, [r3, #24]	@ movhi
 338              		.loc 1 472 0
 339 005a 1981     		strh	r1, [r3, #8]	@ movhi
 340              		.loc 1 477 0
 341 005c 3AB1     		cbz	r2, .L48
ARM GAS  C:\Users\DNIEL~1\AppData\Local\Temp\ccnLX0pg.s 			page 7


 342              		.loc 1 481 0
 343 005e 3122     		movs	r2, #49
 344 0060 1A84     		strh	r2, [r3, #32]	@ movhi
 345              	.L44:
 346              		.loc 1 485 0
 347 0062 03F13401 		add	r1, r3, #52
 348              		.loc 1 486 0
 349 0066 3833     		adds	r3, r3, #56
 350              		.loc 1 485 0
 351 0068 2161     		str	r1, [r4, #16]
 352              		.loc 1 486 0
 353 006a 6361     		str	r3, [r4, #20]
 354 006c 38BD     		pop	{r3, r4, r5, pc}
 355              	.L48:
 356              		.loc 1 478 0
 357 006e 1320     		movs	r0, #19
 358 0070 1884     		strh	r0, [r3, #32]	@ movhi
 359 0072 F6E7     		b	.L44
 360              	.L47:
 361              		.loc 1 455 0
 362 0074 3120     		movs	r0, #49
 363 0076 1884     		strh	r0, [r3, #32]	@ movhi
 364 0078 E5E7     		b	.L41
 365              	.LVL20:
 366              	.L46:
 367              		.loc 1 364 0
 368 007a 1048     		ldr	r0, .L49
 369              	.LVL21:
 370 007c 8442     		cmp	r4, r0
 371 007e 01D0     		beq	.L37
 372              	.L45:
 373 0080 E368     		ldr	r3, [r4, #12]
 374 0082 CAE7     		b	.L38
 375              	.L37:
 376              		.loc 1 365 0
 377 0084 4FF46055 		mov	r5, #14336
 378 0088 C4F20205 		movt	r5, 16386
 379 008c 696C     		ldr	r1, [r5, #68]
 380 008e 41F00103 		orr	r3, r1, #1
 381 0092 6B64     		str	r3, [r5, #68]
 382              		.loc 1 366 0
 383 0094 6A6A     		ldr	r2, [r5, #36]
 384 0096 0023     		movs	r3, #0
 385 0098 42F00100 		orr	r0, r2, #1
 386 009c 6862     		str	r0, [r5, #36]
 387              		.loc 1 367 0
 388 009e 7021     		movs	r1, #112
 389              		.loc 1 366 0
 390 00a0 6B62     		str	r3, [r5, #36]
 391              		.loc 1 367 0
 392 00a2 1920     		movs	r0, #25
 393              		.loc 1 371 0
 394 00a4 4FF4F445 		mov	r5, #31232
 395              		.loc 1 367 0
 396 00a8 FFF7FEFF 		bl	nvicEnableVector
 397              	.LVL22:
 398              		.loc 1 371 0
ARM GAS  C:\Users\DNIEL~1\AppData\Local\Temp\ccnLX0pg.s 			page 8


 399 00ac C0F60325 		movt	r5, 2563
 400              		.loc 1 369 0
 401 00b0 1B20     		movs	r0, #27
 402 00b2 7021     		movs	r1, #112
 403 00b4 FFF7FEFF 		bl	nvicEnableVector
 404              	.LVL23:
 405              		.loc 1 371 0
 406 00b8 A560     		str	r5, [r4, #8]
 407 00ba E1E7     		b	.L45
 408              	.L50:
 409              		.align	2
 410              	.L49:
 411 00bc 00000000 		.word	.LANCHOR0
 412              		.cfi_endproc
 413              	.LFE122:
 414              		.size	icu_lld_start, .-icu_lld_start
 415              		.section	.text.icu_lld_stop,"ax",%progbits
 416              		.align	2
 417              		.p2align 4,,15
 418              		.global	icu_lld_stop
 419              		.thumb
 420              		.thumb_func
 421              		.type	icu_lld_stop, %function
 422              	icu_lld_stop:
 423              	.LFB123:
 424              		.loc 1 497 0
 425              		.cfi_startproc
 426              		@ args = 0, pretend = 0, frame = 0
 427              		@ frame_needed = 0, uses_anonymous_args = 0
 428              	.LVL24:
 429 0000 08B5     		push	{r3, lr}
 430              	.LCFI5:
 431              		.cfi_def_cfa_offset 8
 432              		.cfi_offset 3, -8
 433              		.cfi_offset 14, -4
 434              		.loc 1 499 0
 435 0002 0378     		ldrb	r3, [r0, #0]	@ zero_extendqisi2
 436 0004 022B     		cmp	r3, #2
 437 0006 00D0     		beq	.L55
 438              	.LVL25:
 439              	.L51:
 440 0008 08BD     		pop	{r3, pc}
 441              	.LVL26:
 442              	.L55:
 443              		.loc 1 506 0
 444 000a 0B4B     		ldr	r3, .L56
 445              		.loc 1 501 0
 446 000c C168     		ldr	r1, [r0, #12]
 447 000e 0022     		movs	r2, #0
 448              		.loc 1 506 0
 449 0010 9842     		cmp	r0, r3
 450              		.loc 1 501 0
 451 0012 0A80     		strh	r2, [r1, #0]	@ movhi
 452              		.loc 1 502 0
 453 0014 8A81     		strh	r2, [r1, #12]	@ movhi
 454              		.loc 1 503 0
 455 0016 0A82     		strh	r2, [r1, #16]	@ movhi
ARM GAS  C:\Users\DNIEL~1\AppData\Local\Temp\ccnLX0pg.s 			page 9


 456              		.loc 1 506 0
 457 0018 F6D1     		bne	.L51
 458              		.loc 1 507 0
 459 001a 1920     		movs	r0, #25
 460              	.LVL27:
 461 001c FFF7FEFF 		bl	nvicDisableVector
 462              	.LVL28:
 463              		.loc 1 508 0
 464 0020 1B20     		movs	r0, #27
 465 0022 FFF7FEFF 		bl	nvicDisableVector
 466              	.LVL29:
 467              		.loc 1 509 0
 468 0026 4FF46050 		mov	r0, #14336
 469 002a C4F20200 		movt	r0, 16386
 470 002e 416C     		ldr	r1, [r0, #68]
 471 0030 21F00102 		bic	r2, r1, #1
 472 0034 4264     		str	r2, [r0, #68]
 473 0036 E7E7     		b	.L51
 474              	.L57:
 475              		.align	2
 476              	.L56:
 477 0038 00000000 		.word	.LANCHOR0
 478              		.cfi_endproc
 479              	.LFE123:
 480              		.size	icu_lld_stop, .-icu_lld_stop
 481 003c AFF30080 		.section	.text.icu_lld_enable,"ax",%progbits
 482              		.align	2
 483              		.p2align 4,,15
 484              		.global	icu_lld_enable
 485              		.thumb
 486              		.thumb_func
 487              		.type	icu_lld_enable, %function
 488              	icu_lld_enable:
 489              	.LFB124:
 490              		.loc 1 553 0
 491              		.cfi_startproc
 492              		@ args = 0, pretend = 0, frame = 0
 493              		@ frame_needed = 0, uses_anonymous_args = 0
 494              		@ link register save eliminated.
 495              	.LVL30:
 496              		.loc 1 556 0
 497 0000 4268     		ldr	r2, [r0, #4]
 498              		.loc 1 555 0
 499 0002 C368     		ldr	r3, [r0, #12]
 500              		.loc 1 556 0
 501 0004 117D     		ldrb	r1, [r2, #20]	@ zero_extendqisi2
 502              		.loc 1 555 0
 503 0006 0020     		movs	r0, #0
 504              	.LVL31:
 505 0008 1882     		strh	r0, [r3, #16]	@ movhi
 506              		.loc 1 556 0
 507 000a B9B9     		cbnz	r1, .L59
 508              		.loc 1 557 0
 509 000c D068     		ldr	r0, [r2, #12]
 510 000e 20B1     		cbz	r0, .L60
 511              		.loc 1 558 0
 512 0010 9989     		ldrh	r1, [r3, #12]
ARM GAS  C:\Users\DNIEL~1\AppData\Local\Temp\ccnLX0pg.s 			page 10


 513 0012 88B2     		uxth	r0, r1
 514 0014 40F00201 		orr	r1, r0, #2
 515 0018 9981     		strh	r1, [r3, #12]	@ movhi
 516              	.L60:
 517              		.loc 1 559 0
 518 001a 9068     		ldr	r0, [r2, #8]
 519 001c 20B1     		cbz	r0, .L62
 520              	.L78:
 521              		.loc 1 565 0
 522 001e 9989     		ldrh	r1, [r3, #12]
 523 0020 88B2     		uxth	r0, r1
 524 0022 40F00401 		orr	r1, r0, #4
 525 0026 9981     		strh	r1, [r3, #12]	@ movhi
 526              	.L62:
 527              		.loc 1 567 0
 528 0028 1269     		ldr	r2, [r2, #16]
 529 002a 22B1     		cbz	r2, .L65
 530              		.loc 1 568 0
 531 002c 9889     		ldrh	r0, [r3, #12]
 532 002e 81B2     		uxth	r1, r0
 533 0030 41F00102 		orr	r2, r1, #1
 534 0034 9A81     		strh	r2, [r3, #12]	@ movhi
 535              	.L65:
 536              		.loc 1 569 0
 537 0036 0520     		movs	r0, #5
 538 0038 1880     		strh	r0, [r3, #0]	@ movhi
 539 003a 7047     		bx	lr
 540              	.L59:
 541              		.loc 1 562 0
 542 003c 9168     		ldr	r1, [r2, #8]
 543 003e 21B1     		cbz	r1, .L63
 544              		.loc 1 563 0
 545 0040 9889     		ldrh	r0, [r3, #12]
 546 0042 81B2     		uxth	r1, r0
 547 0044 41F00200 		orr	r0, r1, #2
 548 0048 9881     		strh	r0, [r3, #12]	@ movhi
 549              	.L63:
 550              		.loc 1 564 0
 551 004a D168     		ldr	r1, [r2, #12]
 552 004c 0029     		cmp	r1, #0
 553 004e E6D1     		bne	.L78
 554 0050 EAE7     		b	.L62
 555              		.cfi_endproc
 556              	.LFE124:
 557              		.size	icu_lld_enable, .-icu_lld_enable
 558 0052 00BFAFF3 		.section	.text.icu_lld_disable,"ax",%progbits
 558      0080AFF3 
 558      0080AFF3 
 558      0080
 559              		.align	2
 560              		.p2align 4,,15
 561              		.global	icu_lld_disable
 562              		.thumb
 563              		.thumb_func
 564              		.type	icu_lld_disable, %function
 565              	icu_lld_disable:
 566              	.LFB125:
ARM GAS  C:\Users\DNIEL~1\AppData\Local\Temp\ccnLX0pg.s 			page 11


 567              		.loc 1 579 0
 568              		.cfi_startproc
 569              		@ args = 0, pretend = 0, frame = 0
 570              		@ frame_needed = 0, uses_anonymous_args = 0
 571              		@ link register save eliminated.
 572              	.LVL32:
 573              		.loc 1 581 0
 574 0000 C368     		ldr	r3, [r0, #12]
 575 0002 0022     		movs	r2, #0
 576 0004 1A80     		strh	r2, [r3, #0]	@ movhi
 577              		.loc 1 582 0
 578 0006 1A82     		strh	r2, [r3, #16]	@ movhi
 579              		.loc 1 583 0
 580 0008 9A81     		strh	r2, [r3, #12]	@ movhi
 581 000a 7047     		bx	lr
 582              		.cfi_endproc
 583              	.LFE125:
 584              		.size	icu_lld_disable, .-icu_lld_disable
 585              		.global	ICUD1
 586 000c AFF30080 		.section	.bss.ICUD1,"aw",%nobits
 587              		.align	2
 588              		.set	.LANCHOR0,. + 0
 589              		.type	ICUD1, %object
 590              		.size	ICUD1, 24
 591              	ICUD1:
 592 0000 00000000 		.space	24
 592      00000000 
 592      00000000 
 592      00000000 
 592      00000000 
 593              		.text
 594              	.Letext0:
 595              		.file 2 "c:\\chibistudio\\tools\\gnu tools arm embedded\\4.7 2014q2\\bin\\../lib/gcc/arm-none-eabi
 596              		.file 3 "../../../ChibiOS/os/hal/platforms/STM32F4xx/stm32f4xx.h"
 597              		.file 4 "../../../ChibiOS/os/hal/platforms/STM32/stm32.h"
 598              		.file 5 "../../../ChibiOS/os/hal/include/icu.h"
 599              		.file 6 "../../../ChibiOS/os/hal/platforms/STM32/icu_lld.h"
 600              		.file 7 "../../../ChibiOS/os/ports/common/ARMCMx/CMSIS/include/core_cm4.h"
 601              		.file 8 "../../../ChibiOS/os/ports/common/ARMCMx/nvic.h"
 602              		.file 9 "../../../ChibiOS/os/ports/GCC/ARMCMx/chcore_v7m.h"
 603              		.section	.debug_info,"",%progbits
 604              	.Ldebug_info0:
 605 0000 3A0B0000 		.4byte	0xb3a
 606 0004 0200     		.2byte	0x2
 607 0006 00000000 		.4byte	.Ldebug_abbrev0
 608 000a 04       		.byte	0x4
 609 000b 01       		.uleb128 0x1
 610 000c 48050000 		.4byte	.LASF196
 611 0010 01       		.byte	0x1
 612 0011 97040000 		.4byte	.LASF197
 613 0015 DE080000 		.4byte	.LASF198
 614 0019 00000000 		.4byte	.Ldebug_ranges0+0
 615 001d 00000000 		.4byte	0
 616 0021 00000000 		.4byte	0
 617 0025 00000000 		.4byte	.Ldebug_line0
 618 0029 02       		.uleb128 0x2
 619 002a 04       		.byte	0x4
ARM GAS  C:\Users\DNIEL~1\AppData\Local\Temp\ccnLX0pg.s 			page 12


 620 002b 07       		.byte	0x7
 621 002c EC020000 		.4byte	.LASF0
 622 0030 03       		.uleb128 0x3
 623 0031 04       		.byte	0x4
 624 0032 05       		.byte	0x5
 625 0033 696E7400 		.ascii	"int\000"
 626 0037 02       		.uleb128 0x2
 627 0038 01       		.byte	0x1
 628 0039 06       		.byte	0x6
 629 003a 95010000 		.4byte	.LASF1
 630 003e 02       		.uleb128 0x2
 631 003f 01       		.byte	0x1
 632 0040 08       		.byte	0x8
 633 0041 92060000 		.4byte	.LASF2
 634 0045 02       		.uleb128 0x2
 635 0046 02       		.byte	0x2
 636 0047 05       		.byte	0x5
 637 0048 DD060000 		.4byte	.LASF3
 638 004c 04       		.uleb128 0x4
 639 004d 43020000 		.4byte	.LASF5
 640 0051 02       		.byte	0x2
 641 0052 36       		.byte	0x36
 642 0053 57000000 		.4byte	0x57
 643 0057 02       		.uleb128 0x2
 644 0058 02       		.byte	0x2
 645 0059 07       		.byte	0x7
 646 005a 29070000 		.4byte	.LASF4
 647 005e 04       		.uleb128 0x4
 648 005f 8A060000 		.4byte	.LASF6
 649 0063 02       		.byte	0x2
 650 0064 4F       		.byte	0x4f
 651 0065 69000000 		.4byte	0x69
 652 0069 02       		.uleb128 0x2
 653 006a 04       		.byte	0x4
 654 006b 05       		.byte	0x5
 655 006c EC010000 		.4byte	.LASF7
 656 0070 04       		.uleb128 0x4
 657 0071 4C020000 		.4byte	.LASF8
 658 0075 02       		.byte	0x2
 659 0076 50       		.byte	0x50
 660 0077 7B000000 		.4byte	0x7b
 661 007b 02       		.uleb128 0x2
 662 007c 04       		.byte	0x4
 663 007d 07       		.byte	0x7
 664 007e 46030000 		.4byte	.LASF9
 665 0082 02       		.uleb128 0x2
 666 0083 08       		.byte	0x8
 667 0084 05       		.byte	0x5
 668 0085 87010000 		.4byte	.LASF10
 669 0089 02       		.uleb128 0x2
 670 008a 08       		.byte	0x8
 671 008b 07       		.byte	0x7
 672 008c FE000000 		.4byte	.LASF11
 673 0090 05       		.uleb128 0x5
 674 0091 70000000 		.4byte	0x70
 675 0095 02       		.uleb128 0x2
 676 0096 04       		.byte	0x4
ARM GAS  C:\Users\DNIEL~1\AppData\Local\Temp\ccnLX0pg.s 			page 13


 677 0097 07       		.byte	0x7
 678 0098 CE040000 		.4byte	.LASF12
 679 009c 02       		.uleb128 0x2
 680 009d 01       		.byte	0x1
 681 009e 08       		.byte	0x8
 682 009f F0070000 		.4byte	.LASF13
 683 00a3 06       		.uleb128 0x6
 684 00a4 C9040000 		.4byte	.LASF199
 685 00a8 01       		.byte	0x1
 686 00a9 03       		.byte	0x3
 687 00aa 8C       		.byte	0x8c
 688 00ab DE020000 		.4byte	0x2de
 689 00af 07       		.uleb128 0x7
 690 00b0 3F080000 		.4byte	.LASF14
 691 00b4 72       		.sleb128 -14
 692 00b5 07       		.uleb128 0x7
 693 00b6 23030000 		.4byte	.LASF15
 694 00ba 74       		.sleb128 -12
 695 00bb 07       		.uleb128 0x7
 696 00bc BB020000 		.4byte	.LASF16
 697 00c0 75       		.sleb128 -11
 698 00c1 07       		.uleb128 0x7
 699 00c2 9D070000 		.4byte	.LASF17
 700 00c6 76       		.sleb128 -10
 701 00c7 07       		.uleb128 0x7
 702 00c8 C5030000 		.4byte	.LASF18
 703 00cc 7B       		.sleb128 -5
 704 00cd 07       		.uleb128 0x7
 705 00ce 78060000 		.4byte	.LASF19
 706 00d2 7C       		.sleb128 -4
 707 00d3 07       		.uleb128 0x7
 708 00d4 C9020000 		.4byte	.LASF20
 709 00d8 7E       		.sleb128 -2
 710 00d9 07       		.uleb128 0x7
 711 00da 65040000 		.4byte	.LASF21
 712 00de 7F       		.sleb128 -1
 713 00df 07       		.uleb128 0x7
 714 00e0 49010000 		.4byte	.LASF22
 715 00e4 00       		.sleb128 0
 716 00e5 07       		.uleb128 0x7
 717 00e6 3B000000 		.4byte	.LASF23
 718 00ea 01       		.sleb128 1
 719 00eb 07       		.uleb128 0x7
 720 00ec 68080000 		.4byte	.LASF24
 721 00f0 02       		.sleb128 2
 722 00f1 07       		.uleb128 0x7
 723 00f2 3B010000 		.4byte	.LASF25
 724 00f6 03       		.sleb128 3
 725 00f7 07       		.uleb128 0x7
 726 00f8 6C070000 		.4byte	.LASF26
 727 00fc 04       		.sleb128 4
 728 00fd 07       		.uleb128 0x7
 729 00fe C1090000 		.4byte	.LASF27
 730 0102 05       		.sleb128 5
 731 0103 07       		.uleb128 0x7
 732 0104 C7080000 		.4byte	.LASF28
 733 0108 06       		.sleb128 6
ARM GAS  C:\Users\DNIEL~1\AppData\Local\Temp\ccnLX0pg.s 			page 14


 734 0109 07       		.uleb128 0x7
 735 010a E5090000 		.4byte	.LASF29
 736 010e 07       		.sleb128 7
 737 010f 07       		.uleb128 0x7
 738 0110 3C070000 		.4byte	.LASF30
 739 0114 08       		.sleb128 8
 740 0115 07       		.uleb128 0x7
 741 0116 0E090000 		.4byte	.LASF31
 742 011a 09       		.sleb128 9
 743 011b 07       		.uleb128 0x7
 744 011c E7060000 		.4byte	.LASF32
 745 0120 0A       		.sleb128 10
 746 0121 07       		.uleb128 0x7
 747 0122 F0090000 		.4byte	.LASF33
 748 0126 0B       		.sleb128 11
 749 0127 07       		.uleb128 0x7
 750 0128 1A080000 		.4byte	.LASF34
 751 012c 0C       		.sleb128 12
 752 012d 07       		.uleb128 0x7
 753 012e 9B050000 		.4byte	.LASF35
 754 0132 0D       		.sleb128 13
 755 0133 07       		.uleb128 0x7
 756 0134 F9020000 		.4byte	.LASF36
 757 0138 0E       		.sleb128 14
 758 0139 07       		.uleb128 0x7
 759 013a 05050000 		.4byte	.LASF37
 760 013e 0F       		.sleb128 15
 761 013f 07       		.uleb128 0x7
 762 0140 11020000 		.4byte	.LASF38
 763 0144 10       		.sleb128 16
 764 0145 07       		.uleb128 0x7
 765 0146 11030000 		.4byte	.LASF39
 766 014a 11       		.sleb128 17
 767 014b 07       		.uleb128 0x7
 768 014c 84090000 		.4byte	.LASF40
 769 0150 12       		.sleb128 18
 770 0151 07       		.uleb128 0x7
 771 0152 EE030000 		.4byte	.LASF41
 772 0156 13       		.sleb128 19
 773 0157 07       		.uleb128 0x7
 774 0158 2D000000 		.4byte	.LASF42
 775 015c 14       		.sleb128 20
 776 015d 07       		.uleb128 0x7
 777 015e E7000000 		.4byte	.LASF43
 778 0162 15       		.sleb128 21
 779 0163 07       		.uleb128 0x7
 780 0164 A5090000 		.4byte	.LASF44
 781 0168 16       		.sleb128 22
 782 0169 07       		.uleb128 0x7
 783 016a 23020000 		.4byte	.LASF45
 784 016e 17       		.sleb128 23
 785 016f 07       		.uleb128 0x7
 786 0170 A0060000 		.4byte	.LASF46
 787 0174 18       		.sleb128 24
 788 0175 07       		.uleb128 0x7
 789 0176 E0040000 		.4byte	.LASF47
 790 017a 19       		.sleb128 25
ARM GAS  C:\Users\DNIEL~1\AppData\Local\Temp\ccnLX0pg.s 			page 15


 791 017b 07       		.uleb128 0x7
 792 017c 07070000 		.4byte	.LASF48
 793 0180 1A       		.sleb128 26
 794 0181 07       		.uleb128 0x7
 795 0182 72040000 		.4byte	.LASF49
 796 0186 1B       		.sleb128 27
 797 0187 07       		.uleb128 0x7
 798 0188 BD080000 		.4byte	.LASF50
 799 018c 1C       		.sleb128 28
 800 018d 07       		.uleb128 0x7
 801 018e DB090000 		.4byte	.LASF51
 802 0192 1D       		.sleb128 29
 803 0193 07       		.uleb128 0x7
 804 0194 31010000 		.4byte	.LASF52
 805 0198 1E       		.sleb128 30
 806 0199 07       		.uleb128 0x7
 807 019a 7C000000 		.4byte	.LASF53
 808 019e 1F       		.sleb128 31
 809 019f 07       		.uleb128 0x7
 810 01a0 77090000 		.4byte	.LASF54
 811 01a4 20       		.sleb128 32
 812 01a5 07       		.uleb128 0x7
 813 01a6 9E080000 		.4byte	.LASF55
 814 01aa 21       		.sleb128 33
 815 01ab 07       		.uleb128 0x7
 816 01ac 24010000 		.4byte	.LASF56
 817 01b0 22       		.sleb128 34
 818 01b1 07       		.uleb128 0x7
 819 01b2 13040000 		.4byte	.LASF57
 820 01b6 23       		.sleb128 35
 821 01b7 07       		.uleb128 0x7
 822 01b8 91050000 		.4byte	.LASF58
 823 01bc 24       		.sleb128 36
 824 01bd 07       		.uleb128 0x7
 825 01be D2080000 		.4byte	.LASF59
 826 01c2 25       		.sleb128 37
 827 01c3 07       		.uleb128 0x7
 828 01c4 91070000 		.4byte	.LASF60
 829 01c8 26       		.sleb128 38
 830 01c9 07       		.uleb128 0x7
 831 01ca AB080000 		.4byte	.LASF61
 832 01ce 27       		.sleb128 39
 833 01cf 07       		.uleb128 0x7
 834 01d0 04040000 		.4byte	.LASF62
 835 01d4 28       		.sleb128 40
 836 01d5 07       		.uleb128 0x7
 837 01d6 15010000 		.4byte	.LASF63
 838 01da 29       		.sleb128 41
 839 01db 07       		.uleb128 0x7
 840 01dc 76020000 		.4byte	.LASF64
 841 01e0 2A       		.sleb128 42
 842 01e1 07       		.uleb128 0x7
 843 01e2 45040000 		.4byte	.LASF65
 844 01e6 2B       		.sleb128 43
 845 01e7 07       		.uleb128 0x7
 846 01e8 99020000 		.4byte	.LASF66
 847 01ec 2C       		.sleb128 44
ARM GAS  C:\Users\DNIEL~1\AppData\Local\Temp\ccnLX0pg.s 			page 16


 848 01ed 07       		.uleb128 0x7
 849 01ee 7F040000 		.4byte	.LASF67
 850 01f2 2D       		.sleb128 45
 851 01f3 07       		.uleb128 0x7
 852 01f4 52000000 		.4byte	.LASF68
 853 01f8 2E       		.sleb128 46
 854 01f9 07       		.uleb128 0x7
 855 01fa DE070000 		.4byte	.LASF69
 856 01fe 2F       		.sleb128 47
 857 01ff 07       		.uleb128 0x7
 858 0200 6E060000 		.4byte	.LASF70
 859 0204 30       		.sleb128 48
 860 0205 07       		.uleb128 0x7
 861 0206 A3030000 		.4byte	.LASF71
 862 020a 31       		.sleb128 49
 863 020b 07       		.uleb128 0x7
 864 020c 3E050000 		.4byte	.LASF72
 865 0210 32       		.sleb128 50
 866 0211 07       		.uleb128 0x7
 867 0212 4D060000 		.4byte	.LASF73
 868 0216 33       		.sleb128 51
 869 0217 07       		.uleb128 0x7
 870 0218 6B020000 		.4byte	.LASF74
 871 021c 34       		.sleb128 52
 872 021d 07       		.uleb128 0x7
 873 021e FC060000 		.4byte	.LASF75
 874 0222 35       		.sleb128 53
 875 0223 07       		.uleb128 0x7
 876 0224 55020000 		.4byte	.LASF76
 877 0228 36       		.sleb128 54
 878 0229 07       		.uleb128 0x7
 879 022a 10080000 		.4byte	.LASF77
 880 022e 37       		.sleb128 55
 881 022f 07       		.uleb128 0x7
 882 0230 8C080000 		.4byte	.LASF78
 883 0234 38       		.sleb128 56
 884 0235 07       		.uleb128 0x7
 885 0236 8D090000 		.4byte	.LASF79
 886 023a 39       		.sleb128 57
 887 023b 07       		.uleb128 0x7
 888 023c 17050000 		.4byte	.LASF80
 889 0240 3A       		.sleb128 58
 890 0241 07       		.uleb128 0x7
 891 0242 F3040000 		.4byte	.LASF81
 892 0246 3B       		.sleb128 59
 893 0247 07       		.uleb128 0x7
 894 0248 5C060000 		.4byte	.LASF82
 895 024c 3C       		.sleb128 60
 896 024d 07       		.uleb128 0x7
 897 024e D7040000 		.4byte	.LASF83
 898 0252 3D       		.sleb128 61
 899 0253 07       		.uleb128 0x7
 900 0254 35020000 		.4byte	.LASF84
 901 0258 3E       		.sleb128 62
 902 0259 07       		.uleb128 0x7
 903 025a AD050000 		.4byte	.LASF85
 904 025e 3F       		.sleb128 63
ARM GAS  C:\Users\DNIEL~1\AppData\Local\Temp\ccnLX0pg.s 			page 17


 905 025f 07       		.uleb128 0x7
 906 0260 44000000 		.4byte	.LASF86
 907 0264 C000     		.sleb128 64
 908 0266 07       		.uleb128 0x7
 909 0267 A1010000 		.4byte	.LASF87
 910 026b C100     		.sleb128 65
 911 026d 07       		.uleb128 0x7
 912 026e B3090000 		.4byte	.LASF88
 913 0272 C200     		.sleb128 66
 914 0274 07       		.uleb128 0x7
 915 0275 77070000 		.4byte	.LASF89
 916 0279 C300     		.sleb128 67
 917 027b 07       		.uleb128 0x7
 918 027c 87020000 		.4byte	.LASF90
 919 0280 C400     		.sleb128 68
 920 0282 07       		.uleb128 0x7
 921 0283 C2010000 		.4byte	.LASF91
 922 0287 C500     		.sleb128 69
 923 0289 07       		.uleb128 0x7
 924 028a D5020000 		.4byte	.LASF92
 925 028e C600     		.sleb128 70
 926 0290 07       		.uleb128 0x7
 927 0291 29050000 		.4byte	.LASF93
 928 0295 C700     		.sleb128 71
 929 0297 07       		.uleb128 0x7
 930 0298 39030000 		.4byte	.LASF94
 931 029c C800     		.sleb128 72
 932 029e 07       		.uleb128 0x7
 933 029f 5F000000 		.4byte	.LASF95
 934 02a3 C900     		.sleb128 73
 935 02a5 07       		.uleb128 0x7
 936 02a6 8F030000 		.4byte	.LASF96
 937 02aa CA00     		.sleb128 74
 938 02ac 07       		.uleb128 0x7
 939 02ad 2C080000 		.4byte	.LASF97
 940 02b1 CB00     		.sleb128 75
 941 02b3 07       		.uleb128 0x7
 942 02b4 CA090000 		.4byte	.LASF98
 943 02b8 CC00     		.sleb128 76
 944 02ba 07       		.uleb128 0x7
 945 02bb EB050000 		.4byte	.LASF99
 946 02bf CD00     		.sleb128 77
 947 02c1 07       		.uleb128 0x7
 948 02c2 35090000 		.4byte	.LASF100
 949 02c6 CE00     		.sleb128 78
 950 02c8 07       		.uleb128 0x7
 951 02c9 FA070000 		.4byte	.LASF101
 952 02cd CF00     		.sleb128 79
 953 02cf 07       		.uleb128 0x7
 954 02d0 CF060000 		.4byte	.LASF102
 955 02d4 D000     		.sleb128 80
 956 02d6 07       		.uleb128 0x7
 957 02d7 55090000 		.4byte	.LASF103
 958 02db D100     		.sleb128 81
 959 02dd 00       		.byte	0
 960 02de 08       		.uleb128 0x8
 961 02df 70000000 		.4byte	0x70
ARM GAS  C:\Users\DNIEL~1\AppData\Local\Temp\ccnLX0pg.s 			page 18


 962 02e3 EE020000 		.4byte	0x2ee
 963 02e7 09       		.uleb128 0x9
 964 02e8 95000000 		.4byte	0x95
 965 02ec 01       		.byte	0x1
 966 02ed 00       		.byte	0
 967 02ee 08       		.uleb128 0x8
 968 02ef 70000000 		.4byte	0x70
 969 02f3 FE020000 		.4byte	0x2fe
 970 02f7 09       		.uleb128 0x9
 971 02f8 95000000 		.4byte	0x95
 972 02fc 03       		.byte	0x3
 973 02fd 00       		.byte	0
 974 02fe 05       		.uleb128 0x5
 975 02ff 4C000000 		.4byte	0x4c
 976 0303 05       		.uleb128 0x5
 977 0304 5E000000 		.4byte	0x5e
 978 0308 0A       		.uleb128 0xa
 979 0309 88       		.byte	0x88
 980 030a 03       		.byte	0x3
 981 030b DB02     		.2byte	0x2db
 982 030d D5040000 		.4byte	0x4d5
 983 0311 0B       		.uleb128 0xb
 984 0312 435200   		.ascii	"CR\000"
 985 0315 03       		.byte	0x3
 986 0316 DD02     		.2byte	0x2dd
 987 0318 90000000 		.4byte	0x90
 988 031c 02       		.byte	0x2
 989 031d 23       		.byte	0x23
 990 031e 00       		.uleb128 0
 991 031f 0C       		.uleb128 0xc
 992 0320 63020000 		.4byte	.LASF104
 993 0324 03       		.byte	0x3
 994 0325 DE02     		.2byte	0x2de
 995 0327 90000000 		.4byte	0x90
 996 032b 02       		.byte	0x2
 997 032c 23       		.byte	0x23
 998 032d 04       		.uleb128 0x4
 999 032e 0C       		.uleb128 0xc
 1000 032f 5E090000 		.4byte	.LASF105
 1001 0333 03       		.byte	0x3
 1002 0334 DF02     		.2byte	0x2df
 1003 0336 90000000 		.4byte	0x90
 1004 033a 02       		.byte	0x2
 1005 033b 23       		.byte	0x23
 1006 033c 08       		.uleb128 0x8
 1007 033d 0B       		.uleb128 0xb
 1008 033e 43495200 		.ascii	"CIR\000"
 1009 0342 03       		.byte	0x3
 1010 0343 E002     		.2byte	0x2e0
 1011 0345 90000000 		.4byte	0x90
 1012 0349 02       		.byte	0x2
 1013 034a 23       		.byte	0x23
 1014 034b 0C       		.uleb128 0xc
 1015 034c 0C       		.uleb128 0xc
 1016 034d AF010000 		.4byte	.LASF106
 1017 0351 03       		.byte	0x3
 1018 0352 E102     		.2byte	0x2e1
ARM GAS  C:\Users\DNIEL~1\AppData\Local\Temp\ccnLX0pg.s 			page 19


 1019 0354 90000000 		.4byte	0x90
 1020 0358 02       		.byte	0x2
 1021 0359 23       		.byte	0x23
 1022 035a 10       		.uleb128 0x10
 1023 035b 0C       		.uleb128 0xc
 1024 035c B2020000 		.4byte	.LASF107
 1025 0360 03       		.byte	0x3
 1026 0361 E202     		.2byte	0x2e2
 1027 0363 90000000 		.4byte	0x90
 1028 0367 02       		.byte	0x2
 1029 0368 23       		.byte	0x23
 1030 0369 14       		.uleb128 0x14
 1031 036a 0C       		.uleb128 0xc
 1032 036b FB030000 		.4byte	.LASF108
 1033 036f 03       		.byte	0x3
 1034 0370 E302     		.2byte	0x2e3
 1035 0372 90000000 		.4byte	0x90
 1036 0376 02       		.byte	0x2
 1037 0377 23       		.byte	0x23
 1038 0378 18       		.uleb128 0x18
 1039 0379 0C       		.uleb128 0xc
 1040 037a 07060000 		.4byte	.LASF109
 1041 037e 03       		.byte	0x3
 1042 037f E402     		.2byte	0x2e4
 1043 0381 70000000 		.4byte	0x70
 1044 0385 02       		.byte	0x2
 1045 0386 23       		.byte	0x23
 1046 0387 1C       		.uleb128 0x1c
 1047 0388 0C       		.uleb128 0xc
 1048 0389 E2050000 		.4byte	.LASF110
 1049 038d 03       		.byte	0x3
 1050 038e E502     		.2byte	0x2e5
 1051 0390 90000000 		.4byte	0x90
 1052 0394 02       		.byte	0x2
 1053 0395 23       		.byte	0x23
 1054 0396 20       		.uleb128 0x20
 1055 0397 0C       		.uleb128 0xc
 1056 0398 FE010000 		.4byte	.LASF111
 1057 039c 03       		.byte	0x3
 1058 039d E602     		.2byte	0x2e6
 1059 039f 90000000 		.4byte	0x90
 1060 03a3 02       		.byte	0x2
 1061 03a4 23       		.byte	0x23
 1062 03a5 24       		.uleb128 0x24
 1063 03a6 0C       		.uleb128 0xc
 1064 03a7 11060000 		.4byte	.LASF112
 1065 03ab 03       		.byte	0x3
 1066 03ac E702     		.2byte	0x2e7
 1067 03ae DE020000 		.4byte	0x2de
 1068 03b2 02       		.byte	0x2
 1069 03b3 23       		.byte	0x23
 1070 03b4 28       		.uleb128 0x28
 1071 03b5 0C       		.uleb128 0xc
 1072 03b6 3F090000 		.4byte	.LASF113
 1073 03ba 03       		.byte	0x3
 1074 03bb E802     		.2byte	0x2e8
 1075 03bd 90000000 		.4byte	0x90
ARM GAS  C:\Users\DNIEL~1\AppData\Local\Temp\ccnLX0pg.s 			page 20


 1076 03c1 02       		.byte	0x2
 1077 03c2 23       		.byte	0x23
 1078 03c3 30       		.uleb128 0x30
 1079 03c4 0C       		.uleb128 0xc
 1080 03c5 27040000 		.4byte	.LASF114
 1081 03c9 03       		.byte	0x3
 1082 03ca E902     		.2byte	0x2e9
 1083 03cc 90000000 		.4byte	0x90
 1084 03d0 02       		.byte	0x2
 1085 03d1 23       		.byte	0x23
 1086 03d2 34       		.uleb128 0x34
 1087 03d3 0C       		.uleb128 0xc
 1088 03d4 64070000 		.4byte	.LASF115
 1089 03d8 03       		.byte	0x3
 1090 03d9 EA02     		.2byte	0x2ea
 1091 03db 90000000 		.4byte	0x90
 1092 03df 02       		.byte	0x2
 1093 03e0 23       		.byte	0x23
 1094 03e1 38       		.uleb128 0x38
 1095 03e2 0C       		.uleb128 0xc
 1096 03e3 1B060000 		.4byte	.LASF116
 1097 03e7 03       		.byte	0x3
 1098 03e8 EB02     		.2byte	0x2eb
 1099 03ea 70000000 		.4byte	0x70
 1100 03ee 02       		.byte	0x2
 1101 03ef 23       		.byte	0x23
 1102 03f0 3C       		.uleb128 0x3c
 1103 03f1 0C       		.uleb128 0xc
 1104 03f2 53080000 		.4byte	.LASF117
 1105 03f6 03       		.byte	0x3
 1106 03f7 EC02     		.2byte	0x2ec
 1107 03f9 90000000 		.4byte	0x90
 1108 03fd 02       		.byte	0x2
 1109 03fe 23       		.byte	0x23
 1110 03ff 40       		.uleb128 0x40
 1111 0400 0C       		.uleb128 0xc
 1112 0401 47070000 		.4byte	.LASF118
 1113 0405 03       		.byte	0x3
 1114 0406 ED02     		.2byte	0x2ed
 1115 0408 90000000 		.4byte	0x90
 1116 040c 02       		.byte	0x2
 1117 040d 23       		.byte	0x23
 1118 040e 44       		.uleb128 0x44
 1119 040f 0C       		.uleb128 0xc
 1120 0410 25060000 		.4byte	.LASF119
 1121 0414 03       		.byte	0x3
 1122 0415 EE02     		.2byte	0x2ee
 1123 0417 DE020000 		.4byte	0x2de
 1124 041b 02       		.byte	0x2
 1125 041c 23       		.byte	0x23
 1126 041d 48       		.uleb128 0x48
 1127 041e 0C       		.uleb128 0xc
 1128 041f 5D010000 		.4byte	.LASF120
 1129 0423 03       		.byte	0x3
 1130 0424 EF02     		.2byte	0x2ef
 1131 0426 90000000 		.4byte	0x90
 1132 042a 02       		.byte	0x2
ARM GAS  C:\Users\DNIEL~1\AppData\Local\Temp\ccnLX0pg.s 			page 21


 1133 042b 23       		.byte	0x23
 1134 042c 50       		.uleb128 0x50
 1135 042d 0C       		.uleb128 0xc
 1136 042e BA050000 		.4byte	.LASF121
 1137 0432 03       		.byte	0x3
 1138 0433 F002     		.2byte	0x2f0
 1139 0435 90000000 		.4byte	0x90
 1140 0439 02       		.byte	0x2
 1141 043a 23       		.byte	0x23
 1142 043b 54       		.uleb128 0x54
 1143 043c 0C       		.uleb128 0xc
 1144 043d F2060000 		.4byte	.LASF122
 1145 0441 03       		.byte	0x3
 1146 0442 F102     		.2byte	0x2f1
 1147 0444 90000000 		.4byte	0x90
 1148 0448 02       		.byte	0x2
 1149 0449 23       		.byte	0x23
 1150 044a 58       		.uleb128 0x58
 1151 044b 0C       		.uleb128 0xc
 1152 044c 2F060000 		.4byte	.LASF123
 1153 0450 03       		.byte	0x3
 1154 0451 F202     		.2byte	0x2f2
 1155 0453 70000000 		.4byte	0x70
 1156 0457 02       		.byte	0x2
 1157 0458 23       		.byte	0x23
 1158 0459 5C       		.uleb128 0x5c
 1159 045a 0C       		.uleb128 0xc
 1160 045b 07020000 		.4byte	.LASF124
 1161 045f 03       		.byte	0x3
 1162 0460 F302     		.2byte	0x2f3
 1163 0462 90000000 		.4byte	0x90
 1164 0466 02       		.byte	0x2
 1165 0467 23       		.byte	0x23
 1166 0468 60       		.uleb128 0x60
 1167 0469 0C       		.uleb128 0xc
 1168 046a 3B040000 		.4byte	.LASF125
 1169 046e 03       		.byte	0x3
 1170 046f F402     		.2byte	0x2f4
 1171 0471 90000000 		.4byte	0x90
 1172 0475 02       		.byte	0x2
 1173 0476 23       		.byte	0x23
 1174 0477 64       		.uleb128 0x64
 1175 0478 0C       		.uleb128 0xc
 1176 0479 39060000 		.4byte	.LASF126
 1177 047d 03       		.byte	0x3
 1178 047e F502     		.2byte	0x2f5
 1179 0480 DE020000 		.4byte	0x2de
 1180 0484 02       		.byte	0x2
 1181 0485 23       		.byte	0x23
 1182 0486 68       		.uleb128 0x68
 1183 0487 0C       		.uleb128 0xc
 1184 0488 09090000 		.4byte	.LASF127
 1185 048c 03       		.byte	0x3
 1186 048d F602     		.2byte	0x2f6
 1187 048f 90000000 		.4byte	0x90
 1188 0493 02       		.byte	0x2
 1189 0494 23       		.byte	0x23
ARM GAS  C:\Users\DNIEL~1\AppData\Local\Temp\ccnLX0pg.s 			page 22


 1190 0495 70       		.uleb128 0x70
 1191 0496 0B       		.uleb128 0xb
 1192 0497 43535200 		.ascii	"CSR\000"
 1193 049b 03       		.byte	0x3
 1194 049c F702     		.2byte	0x2f7
 1195 049e 90000000 		.4byte	0x90
 1196 04a2 02       		.byte	0x2
 1197 04a3 23       		.byte	0x23
 1198 04a4 74       		.uleb128 0x74
 1199 04a5 0C       		.uleb128 0xc
 1200 04a6 43060000 		.4byte	.LASF128
 1201 04aa 03       		.byte	0x3
 1202 04ab F802     		.2byte	0x2f8
 1203 04ad DE020000 		.4byte	0x2de
 1204 04b1 02       		.byte	0x2
 1205 04b2 23       		.byte	0x23
 1206 04b3 78       		.uleb128 0x78
 1207 04b4 0C       		.uleb128 0xc
 1208 04b5 B7080000 		.4byte	.LASF129
 1209 04b9 03       		.byte	0x3
 1210 04ba F902     		.2byte	0x2f9
 1211 04bc 90000000 		.4byte	0x90
 1212 04c0 03       		.byte	0x3
 1213 04c1 23       		.byte	0x23
 1214 04c2 8001     		.uleb128 0x80
 1215 04c4 0C       		.uleb128 0xc
 1216 04c5 E3030000 		.4byte	.LASF130
 1217 04c9 03       		.byte	0x3
 1218 04ca FA02     		.2byte	0x2fa
 1219 04cc 90000000 		.4byte	0x90
 1220 04d0 03       		.byte	0x3
 1221 04d1 23       		.byte	0x23
 1222 04d2 8401     		.uleb128 0x84
 1223 04d4 00       		.byte	0
 1224 04d5 0D       		.uleb128 0xd
 1225 04d6 66030000 		.4byte	.LASF131
 1226 04da 03       		.byte	0x3
 1227 04db FB02     		.2byte	0x2fb
 1228 04dd 08030000 		.4byte	0x308
 1229 04e1 0E       		.uleb128 0xe
 1230 04e2 54       		.byte	0x54
 1231 04e3 04       		.byte	0x4
 1232 04e4 60       		.byte	0x60
 1233 04e5 B6060000 		.4byte	0x6b6
 1234 04e9 0F       		.uleb128 0xf
 1235 04ea 43523100 		.ascii	"CR1\000"
 1236 04ee 04       		.byte	0x4
 1237 04ef 61       		.byte	0x61
 1238 04f0 FE020000 		.4byte	0x2fe
 1239 04f4 02       		.byte	0x2
 1240 04f5 23       		.byte	0x23
 1241 04f6 00       		.uleb128 0
 1242 04f7 10       		.uleb128 0x10
 1243 04f8 6C000000 		.4byte	.LASF132
 1244 04fc 04       		.byte	0x4
 1245 04fd 62       		.byte	0x62
 1246 04fe 4C000000 		.4byte	0x4c
ARM GAS  C:\Users\DNIEL~1\AppData\Local\Temp\ccnLX0pg.s 			page 23


 1247 0502 02       		.byte	0x2
 1248 0503 23       		.byte	0x23
 1249 0504 02       		.uleb128 0x2
 1250 0505 0F       		.uleb128 0xf
 1251 0506 43523200 		.ascii	"CR2\000"
 1252 050a 04       		.byte	0x4
 1253 050b 63       		.byte	0x63
 1254 050c FE020000 		.4byte	0x2fe
 1255 0510 02       		.byte	0x2
 1256 0511 23       		.byte	0x23
 1257 0512 04       		.uleb128 0x4
 1258 0513 10       		.uleb128 0x10
 1259 0514 74000000 		.4byte	.LASF133
 1260 0518 04       		.byte	0x4
 1261 0519 64       		.byte	0x64
 1262 051a 4C000000 		.4byte	0x4c
 1263 051e 02       		.byte	0x2
 1264 051f 23       		.byte	0x23
 1265 0520 06       		.uleb128 0x6
 1266 0521 10       		.uleb128 0x10
 1267 0522 D1030000 		.4byte	.LASF134
 1268 0526 04       		.byte	0x4
 1269 0527 65       		.byte	0x65
 1270 0528 FE020000 		.4byte	0x2fe
 1271 052c 02       		.byte	0x2
 1272 052d 23       		.byte	0x23
 1273 052e 08       		.uleb128 0x8
 1274 052f 10       		.uleb128 0x10
 1275 0530 CE070000 		.4byte	.LASF135
 1276 0534 04       		.byte	0x4
 1277 0535 66       		.byte	0x66
 1278 0536 4C000000 		.4byte	0x4c
 1279 053a 02       		.byte	0x2
 1280 053b 23       		.byte	0x23
 1281 053c 0A       		.uleb128 0xa
 1282 053d 10       		.uleb128 0x10
 1283 053e 47090000 		.4byte	.LASF136
 1284 0542 04       		.byte	0x4
 1285 0543 67       		.byte	0x67
 1286 0544 FE020000 		.4byte	0x2fe
 1287 0548 02       		.byte	0x2
 1288 0549 23       		.byte	0x23
 1289 054a 0C       		.uleb128 0xc
 1290 054b 10       		.uleb128 0x10
 1291 054c D6070000 		.4byte	.LASF137
 1292 0550 04       		.byte	0x4
 1293 0551 68       		.byte	0x68
 1294 0552 4C000000 		.4byte	0x4c
 1295 0556 02       		.byte	0x2
 1296 0557 23       		.byte	0x23
 1297 0558 0E       		.uleb128 0xe
 1298 0559 0F       		.uleb128 0xf
 1299 055a 535200   		.ascii	"SR\000"
 1300 055d 04       		.byte	0x4
 1301 055e 69       		.byte	0x69
 1302 055f FE020000 		.4byte	0x2fe
 1303 0563 02       		.byte	0x2
ARM GAS  C:\Users\DNIEL~1\AppData\Local\Temp\ccnLX0pg.s 			page 24


 1304 0564 23       		.byte	0x23
 1305 0565 10       		.uleb128 0x10
 1306 0566 10       		.uleb128 0x10
 1307 0567 92000000 		.4byte	.LASF138
 1308 056b 04       		.byte	0x4
 1309 056c 6A       		.byte	0x6a
 1310 056d 4C000000 		.4byte	0x4c
 1311 0571 02       		.byte	0x2
 1312 0572 23       		.byte	0x23
 1313 0573 12       		.uleb128 0x12
 1314 0574 0F       		.uleb128 0xf
 1315 0575 45475200 		.ascii	"EGR\000"
 1316 0579 04       		.byte	0x4
 1317 057a 6B       		.byte	0x6b
 1318 057b FE020000 		.4byte	0x2fe
 1319 057f 02       		.byte	0x2
 1320 0580 23       		.byte	0x23
 1321 0581 14       		.uleb128 0x14
 1322 0582 10       		.uleb128 0x10
 1323 0583 9A000000 		.4byte	.LASF139
 1324 0587 04       		.byte	0x4
 1325 0588 6C       		.byte	0x6c
 1326 0589 4C000000 		.4byte	0x4c
 1327 058d 02       		.byte	0x2
 1328 058e 23       		.byte	0x23
 1329 058f 16       		.uleb128 0x16
 1330 0590 10       		.uleb128 0x10
 1331 0591 7B010000 		.4byte	.LASF140
 1332 0595 04       		.byte	0x4
 1333 0596 6D       		.byte	0x6d
 1334 0597 FE020000 		.4byte	0x2fe
 1335 059b 02       		.byte	0x2
 1336 059c 23       		.byte	0x23
 1337 059d 18       		.uleb128 0x18
 1338 059e 10       		.uleb128 0x10
 1339 059f A2000000 		.4byte	.LASF141
 1340 05a3 04       		.byte	0x4
 1341 05a4 6E       		.byte	0x6e
 1342 05a5 4C000000 		.4byte	0x4c
 1343 05a9 02       		.byte	0x2
 1344 05aa 23       		.byte	0x23
 1345 05ab 1A       		.uleb128 0x1a
 1346 05ac 10       		.uleb128 0x10
 1347 05ad 81010000 		.4byte	.LASF142
 1348 05b1 04       		.byte	0x4
 1349 05b2 6F       		.byte	0x6f
 1350 05b3 FE020000 		.4byte	0x2fe
 1351 05b7 02       		.byte	0x2
 1352 05b8 23       		.byte	0x23
 1353 05b9 1C       		.uleb128 0x1c
 1354 05ba 10       		.uleb128 0x10
 1355 05bb AA000000 		.4byte	.LASF143
 1356 05bf 04       		.byte	0x4
 1357 05c0 70       		.byte	0x70
 1358 05c1 4C000000 		.4byte	0x4c
 1359 05c5 02       		.byte	0x2
 1360 05c6 23       		.byte	0x23
ARM GAS  C:\Users\DNIEL~1\AppData\Local\Temp\ccnLX0pg.s 			page 25


 1361 05c7 1E       		.uleb128 0x1e
 1362 05c8 10       		.uleb128 0x10
 1363 05c9 30020000 		.4byte	.LASF144
 1364 05cd 04       		.byte	0x4
 1365 05ce 71       		.byte	0x71
 1366 05cf FE020000 		.4byte	0x2fe
 1367 05d3 02       		.byte	0x2
 1368 05d4 23       		.byte	0x23
 1369 05d5 20       		.uleb128 0x20
 1370 05d6 10       		.uleb128 0x10
 1371 05d7 B2000000 		.4byte	.LASF145
 1372 05db 04       		.byte	0x4
 1373 05dc 72       		.byte	0x72
 1374 05dd 4C000000 		.4byte	0x4c
 1375 05e1 02       		.byte	0x2
 1376 05e2 23       		.byte	0x23
 1377 05e3 22       		.uleb128 0x22
 1378 05e4 0F       		.uleb128 0xf
 1379 05e5 434E5400 		.ascii	"CNT\000"
 1380 05e9 04       		.byte	0x4
 1381 05ea 73       		.byte	0x73
 1382 05eb 90000000 		.4byte	0x90
 1383 05ef 02       		.byte	0x2
 1384 05f0 23       		.byte	0x23
 1385 05f1 24       		.uleb128 0x24
 1386 05f2 0F       		.uleb128 0xf
 1387 05f3 50534300 		.ascii	"PSC\000"
 1388 05f7 04       		.byte	0x4
 1389 05f8 74       		.byte	0x74
 1390 05f9 FE020000 		.4byte	0x2fe
 1391 05fd 02       		.byte	0x2
 1392 05fe 23       		.byte	0x23
 1393 05ff 28       		.uleb128 0x28
 1394 0600 10       		.uleb128 0x10
 1395 0601 BA000000 		.4byte	.LASF146
 1396 0605 04       		.byte	0x4
 1397 0606 75       		.byte	0x75
 1398 0607 4C000000 		.4byte	0x4c
 1399 060b 02       		.byte	0x2
 1400 060c 23       		.byte	0x23
 1401 060d 2A       		.uleb128 0x2a
 1402 060e 0F       		.uleb128 0xf
 1403 060f 41525200 		.ascii	"ARR\000"
 1404 0613 04       		.byte	0x4
 1405 0614 76       		.byte	0x76
 1406 0615 90000000 		.4byte	0x90
 1407 0619 02       		.byte	0x2
 1408 061a 23       		.byte	0x23
 1409 061b 2C       		.uleb128 0x2c
 1410 061c 0F       		.uleb128 0xf
 1411 061d 52435200 		.ascii	"RCR\000"
 1412 0621 04       		.byte	0x4
 1413 0622 77       		.byte	0x77
 1414 0623 FE020000 		.4byte	0x2fe
 1415 0627 02       		.byte	0x2
 1416 0628 23       		.byte	0x23
 1417 0629 30       		.uleb128 0x30
ARM GAS  C:\Users\DNIEL~1\AppData\Local\Temp\ccnLX0pg.s 			page 26


 1418 062a 10       		.uleb128 0x10
 1419 062b D4010000 		.4byte	.LASF147
 1420 062f 04       		.byte	0x4
 1421 0630 78       		.byte	0x78
 1422 0631 4C000000 		.4byte	0x4c
 1423 0635 02       		.byte	0x2
 1424 0636 23       		.byte	0x23
 1425 0637 32       		.uleb128 0x32
 1426 0638 0F       		.uleb128 0xf
 1427 0639 43435200 		.ascii	"CCR\000"
 1428 063d 04       		.byte	0x4
 1429 063e 79       		.byte	0x79
 1430 063f B6060000 		.4byte	0x6b6
 1431 0643 02       		.byte	0x2
 1432 0644 23       		.byte	0x23
 1433 0645 34       		.uleb128 0x34
 1434 0646 10       		.uleb128 0x10
 1435 0647 E7020000 		.4byte	.LASF148
 1436 064b 04       		.byte	0x4
 1437 064c 7A       		.byte	0x7a
 1438 064d FE020000 		.4byte	0x2fe
 1439 0651 02       		.byte	0x2
 1440 0652 23       		.byte	0x23
 1441 0653 44       		.uleb128 0x44
 1442 0654 10       		.uleb128 0x10
 1443 0655 D3000000 		.4byte	.LASF149
 1444 0659 04       		.byte	0x4
 1445 065a 7B       		.byte	0x7b
 1446 065b 4C000000 		.4byte	0x4c
 1447 065f 02       		.byte	0x2
 1448 0660 23       		.byte	0x23
 1449 0661 46       		.uleb128 0x46
 1450 0662 0F       		.uleb128 0xf
 1451 0663 44435200 		.ascii	"DCR\000"
 1452 0667 04       		.byte	0x4
 1453 0668 7C       		.byte	0x7c
 1454 0669 FE020000 		.4byte	0x2fe
 1455 066d 02       		.byte	0x2
 1456 066e 23       		.byte	0x23
 1457 066f 48       		.uleb128 0x48
 1458 0670 10       		.uleb128 0x10
 1459 0671 E3010000 		.4byte	.LASF150
 1460 0675 04       		.byte	0x4
 1461 0676 7D       		.byte	0x7d
 1462 0677 4C000000 		.4byte	0x4c
 1463 067b 02       		.byte	0x2
 1464 067c 23       		.byte	0x23
 1465 067d 4A       		.uleb128 0x4a
 1466 067e 10       		.uleb128 0x10
 1467 067f 0B080000 		.4byte	.LASF151
 1468 0683 04       		.byte	0x4
 1469 0684 7E       		.byte	0x7e
 1470 0685 FE020000 		.4byte	0x2fe
 1471 0689 02       		.byte	0x2
 1472 068a 23       		.byte	0x23
 1473 068b 4C       		.uleb128 0x4c
 1474 068c 10       		.uleb128 0x10
ARM GAS  C:\Users\DNIEL~1\AppData\Local\Temp\ccnLX0pg.s 			page 27


 1475 068d F5000000 		.4byte	.LASF152
 1476 0691 04       		.byte	0x4
 1477 0692 7F       		.byte	0x7f
 1478 0693 4C000000 		.4byte	0x4c
 1479 0697 02       		.byte	0x2
 1480 0698 23       		.byte	0x23
 1481 0699 4E       		.uleb128 0x4e
 1482 069a 0F       		.uleb128 0xf
 1483 069b 4F5200   		.ascii	"OR\000"
 1484 069e 04       		.byte	0x4
 1485 069f 80       		.byte	0x80
 1486 06a0 FE020000 		.4byte	0x2fe
 1487 06a4 02       		.byte	0x2
 1488 06a5 23       		.byte	0x23
 1489 06a6 50       		.uleb128 0x50
 1490 06a7 10       		.uleb128 0x10
 1491 06a8 F5010000 		.4byte	.LASF153
 1492 06ac 04       		.byte	0x4
 1493 06ad 81       		.byte	0x81
 1494 06ae 4C000000 		.4byte	0x4c
 1495 06b2 02       		.byte	0x2
 1496 06b3 23       		.byte	0x23
 1497 06b4 52       		.uleb128 0x52
 1498 06b5 00       		.byte	0
 1499 06b6 05       		.uleb128 0x5
 1500 06b7 EE020000 		.4byte	0x2ee
 1501 06bb 04       		.uleb128 0x4
 1502 06bc 2F040000 		.4byte	.LASF154
 1503 06c0 04       		.byte	0x4
 1504 06c1 82       		.byte	0x82
 1505 06c2 E1040000 		.4byte	0x4e1
 1506 06c6 11       		.uleb128 0x11
 1507 06c7 04       		.byte	0x4
 1508 06c8 90000000 		.4byte	0x90
 1509 06cc 12       		.uleb128 0x12
 1510 06cd 01       		.byte	0x1
 1511 06ce 05       		.byte	0x5
 1512 06cf 35       		.byte	0x35
 1513 06d0 F9060000 		.4byte	0x6f9
 1514 06d4 07       		.uleb128 0x7
 1515 06d5 22000000 		.4byte	.LASF155
 1516 06d9 00       		.sleb128 0
 1517 06da 07       		.uleb128 0x7
 1518 06db C4050000 		.4byte	.LASF156
 1519 06df 01       		.sleb128 1
 1520 06e0 07       		.uleb128 0x7
 1521 06e1 82080000 		.4byte	.LASF157
 1522 06e5 02       		.sleb128 2
 1523 06e6 07       		.uleb128 0x7
 1524 06e7 59040000 		.4byte	.LASF158
 1525 06eb 03       		.sleb128 3
 1526 06ec 07       		.uleb128 0x7
 1527 06ed 70010000 		.4byte	.LASF159
 1528 06f1 04       		.sleb128 4
 1529 06f2 07       		.uleb128 0x7
 1530 06f3 67010000 		.4byte	.LASF160
 1531 06f7 05       		.sleb128 5
ARM GAS  C:\Users\DNIEL~1\AppData\Local\Temp\ccnLX0pg.s 			page 28


 1532 06f8 00       		.byte	0
 1533 06f9 04       		.uleb128 0x4
 1534 06fa DC000000 		.4byte	.LASF161
 1535 06fe 05       		.byte	0x5
 1536 06ff 3C       		.byte	0x3c
 1537 0700 CC060000 		.4byte	0x6cc
 1538 0704 04       		.uleb128 0x4
 1539 0705 1D040000 		.4byte	.LASF162
 1540 0709 05       		.byte	0x5
 1541 070a 41       		.byte	0x41
 1542 070b 0F070000 		.4byte	0x70f
 1543 070f 13       		.uleb128 0x13
 1544 0710 1D040000 		.4byte	.LASF162
 1545 0714 18       		.byte	0x18
 1546 0715 06       		.byte	0x6
 1547 0716 1301     		.2byte	0x113
 1548 0718 77070000 		.4byte	0x777
 1549 071c 0C       		.uleb128 0xc
 1550 071d DD010000 		.4byte	.LASF163
 1551 0721 06       		.byte	0x6
 1552 0722 1701     		.2byte	0x117
 1553 0724 F9060000 		.4byte	0x6f9
 1554 0728 02       		.byte	0x2
 1555 0729 23       		.byte	0x23
 1556 072a 00       		.uleb128 0
 1557 072b 0C       		.uleb128 0xc
 1558 072c 04080000 		.4byte	.LASF164
 1559 0730 06       		.byte	0x6
 1560 0731 1B01     		.2byte	0x11b
 1561 0733 51080000 		.4byte	0x851
 1562 0737 02       		.byte	0x2
 1563 0738 23       		.byte	0x23
 1564 0739 04       		.uleb128 0x4
 1565 073a 0C       		.uleb128 0xc
 1566 073b 71090000 		.4byte	.LASF165
 1567 073f 06       		.byte	0x6
 1568 0740 2301     		.2byte	0x123
 1569 0742 70000000 		.4byte	0x70
 1570 0746 02       		.byte	0x2
 1571 0747 23       		.byte	0x23
 1572 0748 08       		.uleb128 0x8
 1573 0749 0B       		.uleb128 0xb
 1574 074a 74696D00 		.ascii	"tim\000"
 1575 074e 06       		.byte	0x6
 1576 074f 2701     		.2byte	0x127
 1577 0751 5C080000 		.4byte	0x85c
 1578 0755 02       		.byte	0x2
 1579 0756 23       		.byte	0x23
 1580 0757 0C       		.uleb128 0xc
 1581 0758 0C       		.uleb128 0xc
 1582 0759 9F090000 		.4byte	.LASF166
 1583 075d 06       		.byte	0x6
 1584 075e 2B01     		.2byte	0x12b
 1585 0760 C6060000 		.4byte	0x6c6
 1586 0764 02       		.byte	0x2
 1587 0765 23       		.byte	0x23
 1588 0766 10       		.uleb128 0x10
ARM GAS  C:\Users\DNIEL~1\AppData\Local\Temp\ccnLX0pg.s 			page 29


 1589 0767 0C       		.uleb128 0xc
 1590 0768 AC020000 		.4byte	.LASF167
 1591 076c 06       		.byte	0x6
 1592 076d 2F01     		.2byte	0x12f
 1593 076f C6060000 		.4byte	0x6c6
 1594 0773 02       		.byte	0x2
 1595 0774 23       		.byte	0x23
 1596 0775 14       		.uleb128 0x14
 1597 0776 00       		.byte	0
 1598 0777 04       		.uleb128 0x4
 1599 0778 58030000 		.4byte	.LASF168
 1600 077c 05       		.byte	0x5
 1601 077d 48       		.byte	0x48
 1602 077e 82070000 		.4byte	0x782
 1603 0782 11       		.uleb128 0x11
 1604 0783 04       		.byte	0x4
 1605 0784 88070000 		.4byte	0x788
 1606 0788 14       		.uleb128 0x14
 1607 0789 01       		.byte	0x1
 1608 078a 94070000 		.4byte	0x794
 1609 078e 15       		.uleb128 0x15
 1610 078f 94070000 		.4byte	0x794
 1611 0793 00       		.byte	0
 1612 0794 11       		.uleb128 0x11
 1613 0795 04       		.byte	0x4
 1614 0796 04070000 		.4byte	0x704
 1615 079a 12       		.uleb128 0x12
 1616 079b 01       		.byte	0x1
 1617 079c 06       		.byte	0x6
 1618 079d D6       		.byte	0xd6
 1619 079e AF070000 		.4byte	0x7af
 1620 07a2 07       		.uleb128 0x7
 1621 07a3 00000000 		.4byte	.LASF169
 1622 07a7 00       		.sleb128 0
 1623 07a8 07       		.uleb128 0x7
 1624 07a9 CD050000 		.4byte	.LASF170
 1625 07ad 01       		.sleb128 1
 1626 07ae 00       		.byte	0
 1627 07af 04       		.uleb128 0x4
 1628 07b0 1F070000 		.4byte	.LASF171
 1629 07b4 06       		.byte	0x6
 1630 07b5 D9       		.byte	0xd9
 1631 07b6 9A070000 		.4byte	0x79a
 1632 07ba 04       		.uleb128 0x4
 1633 07bb 78080000 		.4byte	.LASF172
 1634 07bf 06       		.byte	0x6
 1635 07c0 DE       		.byte	0xde
 1636 07c1 70000000 		.4byte	0x70
 1637 07c5 12       		.uleb128 0x12
 1638 07c6 01       		.byte	0x1
 1639 07c7 06       		.byte	0x6
 1640 07c8 E3       		.byte	0xe3
 1641 07c9 DA070000 		.4byte	0x7da
 1642 07cd 07       		.uleb128 0x7
 1643 07ce 19090000 		.4byte	.LASF173
 1644 07d2 00       		.sleb128 0
 1645 07d3 07       		.uleb128 0x7
ARM GAS  C:\Users\DNIEL~1\AppData\Local\Temp\ccnLX0pg.s 			page 30


 1646 07d4 27090000 		.4byte	.LASF174
 1647 07d8 01       		.sleb128 1
 1648 07d9 00       		.byte	0
 1649 07da 04       		.uleb128 0x4
 1650 07db 4F070000 		.4byte	.LASF175
 1651 07df 06       		.byte	0x6
 1652 07e0 E6       		.byte	0xe6
 1653 07e1 C5070000 		.4byte	0x7c5
 1654 07e5 0E       		.uleb128 0xe
 1655 07e6 18       		.byte	0x18
 1656 07e7 06       		.byte	0x6
 1657 07e8 F1       		.byte	0xf1
 1658 07e9 45080000 		.4byte	0x845
 1659 07ed 10       		.uleb128 0x10
 1660 07ee F5070000 		.4byte	.LASF176
 1661 07f2 06       		.byte	0x6
 1662 07f3 F5       		.byte	0xf5
 1663 07f4 AF070000 		.4byte	0x7af
 1664 07f8 02       		.byte	0x2
 1665 07f9 23       		.byte	0x23
 1666 07fa 00       		.uleb128 0
 1667 07fb 10       		.uleb128 0x10
 1668 07fc 53010000 		.4byte	.LASF177
 1669 0800 06       		.byte	0x6
 1670 0801 FB       		.byte	0xfb
 1671 0802 BA070000 		.4byte	0x7ba
 1672 0806 02       		.byte	0x2
 1673 0807 23       		.byte	0x23
 1674 0808 04       		.uleb128 0x4
 1675 0809 10       		.uleb128 0x10
 1676 080a 35050000 		.4byte	.LASF178
 1677 080e 06       		.byte	0x6
 1678 080f FF       		.byte	0xff
 1679 0810 77070000 		.4byte	0x777
 1680 0814 02       		.byte	0x2
 1681 0815 23       		.byte	0x23
 1682 0816 08       		.uleb128 0x8
 1683 0817 0C       		.uleb128 0xc
 1684 0818 85030000 		.4byte	.LASF179
 1685 081c 06       		.byte	0x6
 1686 081d 0301     		.2byte	0x103
 1687 081f 77070000 		.4byte	0x777
 1688 0823 02       		.byte	0x2
 1689 0824 23       		.byte	0x23
 1690 0825 0C       		.uleb128 0xc
 1691 0826 0C       		.uleb128 0xc
 1692 0827 16000000 		.4byte	.LASF180
 1693 082b 06       		.byte	0x6
 1694 082c 0701     		.2byte	0x107
 1695 082e 77070000 		.4byte	0x777
 1696 0832 02       		.byte	0x2
 1697 0833 23       		.byte	0x23
 1698 0834 10       		.uleb128 0x10
 1699 0835 0C       		.uleb128 0xc
 1700 0836 5C070000 		.4byte	.LASF181
 1701 083a 06       		.byte	0x6
 1702 083b 0D01     		.2byte	0x10d
ARM GAS  C:\Users\DNIEL~1\AppData\Local\Temp\ccnLX0pg.s 			page 31


 1703 083d DA070000 		.4byte	0x7da
 1704 0841 02       		.byte	0x2
 1705 0842 23       		.byte	0x23
 1706 0843 14       		.uleb128 0x14
 1707 0844 00       		.byte	0
 1708 0845 0D       		.uleb128 0xd
 1709 0846 B8010000 		.4byte	.LASF182
 1710 084a 06       		.byte	0x6
 1711 084b 0E01     		.2byte	0x10e
 1712 084d E5070000 		.4byte	0x7e5
 1713 0851 11       		.uleb128 0x11
 1714 0852 04       		.byte	0x4
 1715 0853 57080000 		.4byte	0x857
 1716 0857 16       		.uleb128 0x16
 1717 0858 45080000 		.4byte	0x845
 1718 085c 11       		.uleb128 0x11
 1719 085d 04       		.byte	0x4
 1720 085e BB060000 		.4byte	0x6bb
 1721 0862 17       		.uleb128 0x17
 1722 0863 AD030000 		.4byte	.LASF200
 1723 0867 01       		.byte	0x1
 1724 0868 67       		.byte	0x67
 1725 0869 01       		.byte	0x1
 1726 086a 01       		.byte	0x1
 1727 086b A3080000 		.4byte	0x8a3
 1728 086f 18       		.uleb128 0x18
 1729 0870 57060000 		.4byte	.LASF189
 1730 0874 01       		.byte	0x1
 1731 0875 67       		.byte	0x67
 1732 0876 94070000 		.4byte	0x794
 1733 087a 19       		.uleb128 0x19
 1734 087b 737200   		.ascii	"sr\000"
 1735 087e 01       		.byte	0x1
 1736 087f 68       		.byte	0x68
 1737 0880 4C000000 		.4byte	0x4c
 1738 0884 1A       		.uleb128 0x1a
 1739 0885 95080000 		.4byte	0x895
 1740 0889 1B       		.uleb128 0x1b
 1741 088a AD070000 		.4byte	.LASF183
 1742 088e 01       		.byte	0x1
 1743 088f 6E       		.byte	0x6e
 1744 0890 F9060000 		.4byte	0x6f9
 1745 0894 00       		.byte	0
 1746 0895 1C       		.uleb128 0x1c
 1747 0896 1B       		.uleb128 0x1b
 1748 0897 AD070000 		.4byte	.LASF183
 1749 089b 01       		.byte	0x1
 1750 089c 75       		.byte	0x75
 1751 089d F9060000 		.4byte	0x6f9
 1752 08a1 00       		.byte	0
 1753 08a2 00       		.byte	0
 1754 08a3 1D       		.uleb128 0x1d
 1755 08a4 62080000 		.4byte	0x862
 1756 08a8 00000000 		.4byte	.LFB126
 1757 08ac 90000000 		.4byte	.LFE126
 1758 08b0 00000000 		.4byte	.LLST0
 1759 08b4 01       		.byte	0x1
ARM GAS  C:\Users\DNIEL~1\AppData\Local\Temp\ccnLX0pg.s 			page 32


 1760 08b5 3F090000 		.4byte	0x93f
 1761 08b9 1E       		.uleb128 0x1e
 1762 08ba 7A080000 		.4byte	0x87a
 1763 08be 01       		.byte	0x1
 1764 08bf 55       		.byte	0x55
 1765 08c0 1F       		.uleb128 0x1f
 1766 08c1 6F080000 		.4byte	0x86f
 1767 08c5 06       		.byte	0x6
 1768 08c6 03       		.byte	0x3
 1769 08c7 00000000 		.4byte	ICUD1
 1770 08cb 9F       		.byte	0x9f
 1771 08cc 20       		.uleb128 0x20
 1772 08cd 22000000 		.4byte	.LBB4
 1773 08d1 32000000 		.4byte	.LBE4
 1774 08d5 EF080000 		.4byte	0x8ef
 1775 08d9 21       		.uleb128 0x21
 1776 08da 89080000 		.4byte	0x889
 1777 08de 20000000 		.4byte	.LLST1
 1778 08e2 22       		.uleb128 0x22
 1779 08e3 32000000 		.4byte	.LVL3
 1780 08e7 23       		.uleb128 0x23
 1781 08e8 01       		.byte	0x1
 1782 08e9 50       		.byte	0x50
 1783 08ea 02       		.byte	0x2
 1784 08eb 74       		.byte	0x74
 1785 08ec 00       		.sleb128 0
 1786 08ed 00       		.byte	0
 1787 08ee 00       		.byte	0
 1788 08ef 20       		.uleb128 0x20
 1789 08f0 54000000 		.4byte	.LBB5
 1790 08f4 68000000 		.4byte	.LBE5
 1791 08f8 12090000 		.4byte	0x912
 1792 08fc 21       		.uleb128 0x21
 1793 08fd 96080000 		.4byte	0x896
 1794 0901 37000000 		.4byte	.LLST2
 1795 0905 22       		.uleb128 0x22
 1796 0906 66000000 		.4byte	.LVL6
 1797 090a 23       		.uleb128 0x23
 1798 090b 01       		.byte	0x1
 1799 090c 50       		.byte	0x50
 1800 090d 02       		.byte	0x2
 1801 090e 74       		.byte	0x74
 1802 090f 00       		.sleb128 0
 1803 0910 00       		.byte	0
 1804 0911 00       		.byte	0
 1805 0912 24       		.uleb128 0x24
 1806 0913 46000000 		.4byte	.LVL4
 1807 0917 22090000 		.4byte	0x922
 1808 091b 23       		.uleb128 0x23
 1809 091c 01       		.byte	0x1
 1810 091d 50       		.byte	0x50
 1811 091e 02       		.byte	0x2
 1812 091f 74       		.byte	0x74
 1813 0920 00       		.sleb128 0
 1814 0921 00       		.byte	0
 1815 0922 24       		.uleb128 0x24
 1816 0923 72000000 		.4byte	.LVL7
ARM GAS  C:\Users\DNIEL~1\AppData\Local\Temp\ccnLX0pg.s 			page 33


 1817 0927 32090000 		.4byte	0x932
 1818 092b 23       		.uleb128 0x23
 1819 092c 01       		.byte	0x1
 1820 092d 50       		.byte	0x50
 1821 092e 02       		.byte	0x2
 1822 092f 74       		.byte	0x74
 1823 0930 00       		.sleb128 0
 1824 0931 00       		.byte	0
 1825 0932 22       		.uleb128 0x22
 1826 0933 8A000000 		.4byte	.LVL8
 1827 0937 23       		.uleb128 0x23
 1828 0938 01       		.byte	0x1
 1829 0939 50       		.byte	0x50
 1830 093a 02       		.byte	0x2
 1831 093b 74       		.byte	0x74
 1832 093c 00       		.sleb128 0
 1833 093d 00       		.byte	0
 1834 093e 00       		.byte	0
 1835 093f 25       		.uleb128 0x25
 1836 0940 01       		.byte	0x1
 1837 0941 4C090000 		.4byte	.LASF184
 1838 0945 01       		.byte	0x1
 1839 0946 8B       		.byte	0x8b
 1840 0947 01       		.byte	0x1
 1841 0948 00000000 		.4byte	.LFB119
 1842 094c 0E000000 		.4byte	.LFE119
 1843 0950 4E000000 		.4byte	.LLST3
 1844 0954 01       		.byte	0x1
 1845 0955 6D090000 		.4byte	0x96d
 1846 0959 26       		.uleb128 0x26
 1847 095a 06000000 		.4byte	.LVL9
 1848 095e A3080000 		.4byte	0x8a3
 1849 0962 27       		.uleb128 0x27
 1850 0963 0E000000 		.4byte	.LVL10
 1851 0967 01       		.byte	0x1
 1852 0968 F30A0000 		.4byte	0xaf3
 1853 096c 00       		.byte	0
 1854 096d 25       		.uleb128 0x25
 1855 096e 01       		.byte	0x1
 1856 096f 89000000 		.4byte	.LASF185
 1857 0973 01       		.byte	0x1
 1858 0974 9F       		.byte	0x9f
 1859 0975 01       		.byte	0x1
 1860 0976 00000000 		.4byte	.LFB120
 1861 097a 0E000000 		.4byte	.LFE120
 1862 097e 6E000000 		.4byte	.LLST4
 1863 0982 01       		.byte	0x1
 1864 0983 9B090000 		.4byte	0x99b
 1865 0987 26       		.uleb128 0x26
 1866 0988 06000000 		.4byte	.LVL11
 1867 098c A3080000 		.4byte	0x8a3
 1868 0990 27       		.uleb128 0x27
 1869 0991 0E000000 		.4byte	.LVL12
 1870 0995 01       		.byte	0x1
 1871 0996 F30A0000 		.4byte	0xaf3
 1872 099a 00       		.byte	0
 1873 099b 28       		.uleb128 0x28
ARM GAS  C:\Users\DNIEL~1\AppData\Local\Temp\ccnLX0pg.s 			page 34


 1874 099c 01       		.byte	0x1
 1875 099d D6030000 		.4byte	.LASF186
 1876 09a1 01       		.byte	0x1
 1877 09a2 3401     		.2byte	0x134
 1878 09a4 01       		.byte	0x1
 1879 09a5 00000000 		.4byte	.LFB121
 1880 09a9 1A000000 		.4byte	.LFE121
 1881 09ad 8E000000 		.4byte	.LLST5
 1882 09b1 01       		.byte	0x1
 1883 09b2 C7090000 		.4byte	0x9c7
 1884 09b6 29       		.uleb128 0x29
 1885 09b7 10000000 		.4byte	.LVL13
 1886 09bb FE0A0000 		.4byte	0xafe
 1887 09bf 23       		.uleb128 0x23
 1888 09c0 01       		.byte	0x1
 1889 09c1 50       		.byte	0x50
 1890 09c2 02       		.byte	0x2
 1891 09c3 74       		.byte	0x74
 1892 09c4 00       		.sleb128 0
 1893 09c5 00       		.byte	0
 1894 09c6 00       		.byte	0
 1895 09c7 28       		.uleb128 0x28
 1896 09c8 01       		.byte	0x1
 1897 09c9 63090000 		.4byte	.LASF187
 1898 09cd 01       		.byte	0x1
 1899 09ce 6201     		.2byte	0x162
 1900 09d0 01       		.byte	0x1
 1901 09d1 00000000 		.4byte	.LFB122
 1902 09d5 C0000000 		.4byte	.LFE122
 1903 09d9 AE000000 		.4byte	.LLST6
 1904 09dd 01       		.byte	0x1
 1905 09de 310A0000 		.4byte	0xa31
 1906 09e2 2A       		.uleb128 0x2a
 1907 09e3 57060000 		.4byte	.LASF189
 1908 09e7 01       		.byte	0x1
 1909 09e8 6201     		.2byte	0x162
 1910 09ea 94070000 		.4byte	0x794
 1911 09ee CE000000 		.4byte	.LLST7
 1912 09f2 2B       		.uleb128 0x2b
 1913 09f3 70736300 		.ascii	"psc\000"
 1914 09f7 01       		.byte	0x1
 1915 09f8 6301     		.2byte	0x163
 1916 09fa 70000000 		.4byte	0x70
 1917 09fe 02010000 		.4byte	.LLST8
 1918 0a02 2C       		.uleb128 0x2c
 1919 0a03 AC000000 		.4byte	.LVL22
 1920 0a07 120B0000 		.4byte	0xb12
 1921 0a0b 1B0A0000 		.4byte	0xa1b
 1922 0a0f 23       		.uleb128 0x23
 1923 0a10 01       		.byte	0x1
 1924 0a11 51       		.byte	0x51
 1925 0a12 02       		.byte	0x2
 1926 0a13 08       		.byte	0x8
 1927 0a14 70       		.byte	0x70
 1928 0a15 23       		.uleb128 0x23
 1929 0a16 01       		.byte	0x1
 1930 0a17 50       		.byte	0x50
ARM GAS  C:\Users\DNIEL~1\AppData\Local\Temp\ccnLX0pg.s 			page 35


 1931 0a18 01       		.byte	0x1
 1932 0a19 49       		.byte	0x49
 1933 0a1a 00       		.byte	0
 1934 0a1b 29       		.uleb128 0x29
 1935 0a1c B8000000 		.4byte	.LVL23
 1936 0a20 120B0000 		.4byte	0xb12
 1937 0a24 23       		.uleb128 0x23
 1938 0a25 01       		.byte	0x1
 1939 0a26 51       		.byte	0x51
 1940 0a27 02       		.byte	0x2
 1941 0a28 08       		.byte	0x8
 1942 0a29 70       		.byte	0x70
 1943 0a2a 23       		.uleb128 0x23
 1944 0a2b 01       		.byte	0x1
 1945 0a2c 50       		.byte	0x50
 1946 0a2d 01       		.byte	0x1
 1947 0a2e 4B       		.byte	0x4b
 1948 0a2f 00       		.byte	0
 1949 0a30 00       		.byte	0
 1950 0a31 28       		.uleb128 0x28
 1951 0a32 01       		.byte	0x1
 1952 0a33 5B080000 		.4byte	.LASF188
 1953 0a37 01       		.byte	0x1
 1954 0a38 F101     		.2byte	0x1f1
 1955 0a3a 01       		.byte	0x1
 1956 0a3b 00000000 		.4byte	.LFB123
 1957 0a3f 3C000000 		.4byte	.LFE123
 1958 0a43 65010000 		.4byte	.LLST9
 1959 0a47 01       		.byte	0x1
 1960 0a48 7F0A0000 		.4byte	0xa7f
 1961 0a4c 2A       		.uleb128 0x2a
 1962 0a4d 57060000 		.4byte	.LASF189
 1963 0a51 01       		.byte	0x1
 1964 0a52 F101     		.2byte	0x1f1
 1965 0a54 94070000 		.4byte	0x794
 1966 0a58 85010000 		.4byte	.LLST10
 1967 0a5c 2C       		.uleb128 0x2c
 1968 0a5d 20000000 		.4byte	.LVL28
 1969 0a61 2C0B0000 		.4byte	0xb2c
 1970 0a65 6F0A0000 		.4byte	0xa6f
 1971 0a69 23       		.uleb128 0x23
 1972 0a6a 01       		.byte	0x1
 1973 0a6b 50       		.byte	0x50
 1974 0a6c 01       		.byte	0x1
 1975 0a6d 49       		.byte	0x49
 1976 0a6e 00       		.byte	0
 1977 0a6f 29       		.uleb128 0x29
 1978 0a70 26000000 		.4byte	.LVL29
 1979 0a74 2C0B0000 		.4byte	0xb2c
 1980 0a78 23       		.uleb128 0x23
 1981 0a79 01       		.byte	0x1
 1982 0a7a 50       		.byte	0x50
 1983 0a7b 01       		.byte	0x1
 1984 0a7c 4B       		.byte	0x4b
 1985 0a7d 00       		.byte	0
 1986 0a7e 00       		.byte	0
 1987 0a7f 2D       		.uleb128 0x2d
ARM GAS  C:\Users\DNIEL~1\AppData\Local\Temp\ccnLX0pg.s 			page 36


 1988 0a80 01       		.byte	0x1
 1989 0a81 C0060000 		.4byte	.LASF190
 1990 0a85 01       		.byte	0x1
 1991 0a86 2902     		.2byte	0x229
 1992 0a88 01       		.byte	0x1
 1993 0a89 00000000 		.4byte	.LFB124
 1994 0a8d 52000000 		.4byte	.LFE124
 1995 0a91 02       		.byte	0x2
 1996 0a92 7D       		.byte	0x7d
 1997 0a93 00       		.sleb128 0
 1998 0a94 01       		.byte	0x1
 1999 0a95 AA0A0000 		.4byte	0xaaa
 2000 0a99 2A       		.uleb128 0x2a
 2001 0a9a 57060000 		.4byte	.LASF189
 2002 0a9e 01       		.byte	0x1
 2003 0a9f 2902     		.2byte	0x229
 2004 0aa1 94070000 		.4byte	0x794
 2005 0aa5 BF010000 		.4byte	.LLST11
 2006 0aa9 00       		.byte	0
 2007 0aaa 2D       		.uleb128 0x2d
 2008 0aab 01       		.byte	0x1
 2009 0aac F7050000 		.4byte	.LASF191
 2010 0ab0 01       		.byte	0x1
 2011 0ab1 4302     		.2byte	0x243
 2012 0ab3 01       		.byte	0x1
 2013 0ab4 00000000 		.4byte	.LFB125
 2014 0ab8 0C000000 		.4byte	.LFE125
 2015 0abc 02       		.byte	0x2
 2016 0abd 7D       		.byte	0x7d
 2017 0abe 00       		.sleb128 0
 2018 0abf 01       		.byte	0x1
 2019 0ac0 D30A0000 		.4byte	0xad3
 2020 0ac4 2E       		.uleb128 0x2e
 2021 0ac5 57060000 		.4byte	.LASF189
 2022 0ac9 01       		.byte	0x1
 2023 0aca 4302     		.2byte	0x243
 2024 0acc 94070000 		.4byte	0x794
 2025 0ad0 01       		.byte	0x1
 2026 0ad1 50       		.byte	0x50
 2027 0ad2 00       		.byte	0
 2028 0ad3 2F       		.uleb128 0x2f
 2029 0ad4 B3060000 		.4byte	.LASF192
 2030 0ad8 07       		.byte	0x7
 2031 0ad9 9806     		.2byte	0x698
 2032 0adb 03030000 		.4byte	0x303
 2033 0adf 01       		.byte	0x1
 2034 0ae0 01       		.byte	0x1
 2035 0ae1 30       		.uleb128 0x30
 2036 0ae2 0B030000 		.4byte	.LASF193
 2037 0ae6 01       		.byte	0x1
 2038 0ae7 2F       		.byte	0x2f
 2039 0ae8 04070000 		.4byte	0x704
 2040 0aec 01       		.byte	0x1
 2041 0aed 05       		.byte	0x5
 2042 0aee 03       		.byte	0x3
 2043 0aef 00000000 		.4byte	ICUD1
 2044 0af3 31       		.uleb128 0x31
ARM GAS  C:\Users\DNIEL~1\AppData\Local\Temp\ccnLX0pg.s 			page 37


 2045 0af4 01       		.byte	0x1
 2046 0af5 72030000 		.4byte	.LASF201
 2047 0af9 09       		.byte	0x9
 2048 0afa FC01     		.2byte	0x1fc
 2049 0afc 01       		.byte	0x1
 2050 0afd 01       		.byte	0x1
 2051 0afe 32       		.uleb128 0x32
 2052 0aff 01       		.byte	0x1
 2053 0b00 83070000 		.4byte	.LASF194
 2054 0b04 05       		.byte	0x5
 2055 0b05 B5       		.byte	0xb5
 2056 0b06 01       		.byte	0x1
 2057 0b07 01       		.byte	0x1
 2058 0b08 120B0000 		.4byte	0xb12
 2059 0b0c 15       		.uleb128 0x15
 2060 0b0d 94070000 		.4byte	0x794
 2061 0b11 00       		.byte	0
 2062 0b12 33       		.uleb128 0x33
 2063 0b13 01       		.byte	0x1
 2064 0b14 C2000000 		.4byte	.LASF195
 2065 0b18 08       		.byte	0x8
 2066 0b19 1C01     		.2byte	0x11c
 2067 0b1b 01       		.byte	0x1
 2068 0b1c 01       		.byte	0x1
 2069 0b1d 2C0B0000 		.4byte	0xb2c
 2070 0b21 15       		.uleb128 0x15
 2071 0b22 70000000 		.4byte	0x70
 2072 0b26 15       		.uleb128 0x15
 2073 0b27 70000000 		.4byte	0x70
 2074 0b2b 00       		.byte	0
 2075 0b2c 34       		.uleb128 0x34
 2076 0b2d 01       		.byte	0x1
 2077 0b2e BC070000 		.4byte	.LASF202
 2078 0b32 08       		.byte	0x8
 2079 0b33 1D01     		.2byte	0x11d
 2080 0b35 01       		.byte	0x1
 2081 0b36 01       		.byte	0x1
 2082 0b37 15       		.uleb128 0x15
 2083 0b38 70000000 		.4byte	0x70
 2084 0b3c 00       		.byte	0
 2085 0b3d 00       		.byte	0
 2086              		.section	.debug_abbrev,"",%progbits
 2087              	.Ldebug_abbrev0:
 2088 0000 01       		.uleb128 0x1
 2089 0001 11       		.uleb128 0x11
 2090 0002 01       		.byte	0x1
 2091 0003 25       		.uleb128 0x25
 2092 0004 0E       		.uleb128 0xe
 2093 0005 13       		.uleb128 0x13
 2094 0006 0B       		.uleb128 0xb
 2095 0007 03       		.uleb128 0x3
 2096 0008 0E       		.uleb128 0xe
 2097 0009 1B       		.uleb128 0x1b
 2098 000a 0E       		.uleb128 0xe
 2099 000b 55       		.uleb128 0x55
 2100 000c 06       		.uleb128 0x6
 2101 000d 11       		.uleb128 0x11
ARM GAS  C:\Users\DNIEL~1\AppData\Local\Temp\ccnLX0pg.s 			page 38


 2102 000e 01       		.uleb128 0x1
 2103 000f 52       		.uleb128 0x52
 2104 0010 01       		.uleb128 0x1
 2105 0011 10       		.uleb128 0x10
 2106 0012 06       		.uleb128 0x6
 2107 0013 00       		.byte	0
 2108 0014 00       		.byte	0
 2109 0015 02       		.uleb128 0x2
 2110 0016 24       		.uleb128 0x24
 2111 0017 00       		.byte	0
 2112 0018 0B       		.uleb128 0xb
 2113 0019 0B       		.uleb128 0xb
 2114 001a 3E       		.uleb128 0x3e
 2115 001b 0B       		.uleb128 0xb
 2116 001c 03       		.uleb128 0x3
 2117 001d 0E       		.uleb128 0xe
 2118 001e 00       		.byte	0
 2119 001f 00       		.byte	0
 2120 0020 03       		.uleb128 0x3
 2121 0021 24       		.uleb128 0x24
 2122 0022 00       		.byte	0
 2123 0023 0B       		.uleb128 0xb
 2124 0024 0B       		.uleb128 0xb
 2125 0025 3E       		.uleb128 0x3e
 2126 0026 0B       		.uleb128 0xb
 2127 0027 03       		.uleb128 0x3
 2128 0028 08       		.uleb128 0x8
 2129 0029 00       		.byte	0
 2130 002a 00       		.byte	0
 2131 002b 04       		.uleb128 0x4
 2132 002c 16       		.uleb128 0x16
 2133 002d 00       		.byte	0
 2134 002e 03       		.uleb128 0x3
 2135 002f 0E       		.uleb128 0xe
 2136 0030 3A       		.uleb128 0x3a
 2137 0031 0B       		.uleb128 0xb
 2138 0032 3B       		.uleb128 0x3b
 2139 0033 0B       		.uleb128 0xb
 2140 0034 49       		.uleb128 0x49
 2141 0035 13       		.uleb128 0x13
 2142 0036 00       		.byte	0
 2143 0037 00       		.byte	0
 2144 0038 05       		.uleb128 0x5
 2145 0039 35       		.uleb128 0x35
 2146 003a 00       		.byte	0
 2147 003b 49       		.uleb128 0x49
 2148 003c 13       		.uleb128 0x13
 2149 003d 00       		.byte	0
 2150 003e 00       		.byte	0
 2151 003f 06       		.uleb128 0x6
 2152 0040 04       		.uleb128 0x4
 2153 0041 01       		.byte	0x1
 2154 0042 03       		.uleb128 0x3
 2155 0043 0E       		.uleb128 0xe
 2156 0044 0B       		.uleb128 0xb
 2157 0045 0B       		.uleb128 0xb
 2158 0046 3A       		.uleb128 0x3a
ARM GAS  C:\Users\DNIEL~1\AppData\Local\Temp\ccnLX0pg.s 			page 39


 2159 0047 0B       		.uleb128 0xb
 2160 0048 3B       		.uleb128 0x3b
 2161 0049 0B       		.uleb128 0xb
 2162 004a 01       		.uleb128 0x1
 2163 004b 13       		.uleb128 0x13
 2164 004c 00       		.byte	0
 2165 004d 00       		.byte	0
 2166 004e 07       		.uleb128 0x7
 2167 004f 28       		.uleb128 0x28
 2168 0050 00       		.byte	0
 2169 0051 03       		.uleb128 0x3
 2170 0052 0E       		.uleb128 0xe
 2171 0053 1C       		.uleb128 0x1c
 2172 0054 0D       		.uleb128 0xd
 2173 0055 00       		.byte	0
 2174 0056 00       		.byte	0
 2175 0057 08       		.uleb128 0x8
 2176 0058 01       		.uleb128 0x1
 2177 0059 01       		.byte	0x1
 2178 005a 49       		.uleb128 0x49
 2179 005b 13       		.uleb128 0x13
 2180 005c 01       		.uleb128 0x1
 2181 005d 13       		.uleb128 0x13
 2182 005e 00       		.byte	0
 2183 005f 00       		.byte	0
 2184 0060 09       		.uleb128 0x9
 2185 0061 21       		.uleb128 0x21
 2186 0062 00       		.byte	0
 2187 0063 49       		.uleb128 0x49
 2188 0064 13       		.uleb128 0x13
 2189 0065 2F       		.uleb128 0x2f
 2190 0066 0B       		.uleb128 0xb
 2191 0067 00       		.byte	0
 2192 0068 00       		.byte	0
 2193 0069 0A       		.uleb128 0xa
 2194 006a 13       		.uleb128 0x13
 2195 006b 01       		.byte	0x1
 2196 006c 0B       		.uleb128 0xb
 2197 006d 0B       		.uleb128 0xb
 2198 006e 3A       		.uleb128 0x3a
 2199 006f 0B       		.uleb128 0xb
 2200 0070 3B       		.uleb128 0x3b
 2201 0071 05       		.uleb128 0x5
 2202 0072 01       		.uleb128 0x1
 2203 0073 13       		.uleb128 0x13
 2204 0074 00       		.byte	0
 2205 0075 00       		.byte	0
 2206 0076 0B       		.uleb128 0xb
 2207 0077 0D       		.uleb128 0xd
 2208 0078 00       		.byte	0
 2209 0079 03       		.uleb128 0x3
 2210 007a 08       		.uleb128 0x8
 2211 007b 3A       		.uleb128 0x3a
 2212 007c 0B       		.uleb128 0xb
 2213 007d 3B       		.uleb128 0x3b
 2214 007e 05       		.uleb128 0x5
 2215 007f 49       		.uleb128 0x49
ARM GAS  C:\Users\DNIEL~1\AppData\Local\Temp\ccnLX0pg.s 			page 40


 2216 0080 13       		.uleb128 0x13
 2217 0081 38       		.uleb128 0x38
 2218 0082 0A       		.uleb128 0xa
 2219 0083 00       		.byte	0
 2220 0084 00       		.byte	0
 2221 0085 0C       		.uleb128 0xc
 2222 0086 0D       		.uleb128 0xd
 2223 0087 00       		.byte	0
 2224 0088 03       		.uleb128 0x3
 2225 0089 0E       		.uleb128 0xe
 2226 008a 3A       		.uleb128 0x3a
 2227 008b 0B       		.uleb128 0xb
 2228 008c 3B       		.uleb128 0x3b
 2229 008d 05       		.uleb128 0x5
 2230 008e 49       		.uleb128 0x49
 2231 008f 13       		.uleb128 0x13
 2232 0090 38       		.uleb128 0x38
 2233 0091 0A       		.uleb128 0xa
 2234 0092 00       		.byte	0
 2235 0093 00       		.byte	0
 2236 0094 0D       		.uleb128 0xd
 2237 0095 16       		.uleb128 0x16
 2238 0096 00       		.byte	0
 2239 0097 03       		.uleb128 0x3
 2240 0098 0E       		.uleb128 0xe
 2241 0099 3A       		.uleb128 0x3a
 2242 009a 0B       		.uleb128 0xb
 2243 009b 3B       		.uleb128 0x3b
 2244 009c 05       		.uleb128 0x5
 2245 009d 49       		.uleb128 0x49
 2246 009e 13       		.uleb128 0x13
 2247 009f 00       		.byte	0
 2248 00a0 00       		.byte	0
 2249 00a1 0E       		.uleb128 0xe
 2250 00a2 13       		.uleb128 0x13
 2251 00a3 01       		.byte	0x1
 2252 00a4 0B       		.uleb128 0xb
 2253 00a5 0B       		.uleb128 0xb
 2254 00a6 3A       		.uleb128 0x3a
 2255 00a7 0B       		.uleb128 0xb
 2256 00a8 3B       		.uleb128 0x3b
 2257 00a9 0B       		.uleb128 0xb
 2258 00aa 01       		.uleb128 0x1
 2259 00ab 13       		.uleb128 0x13
 2260 00ac 00       		.byte	0
 2261 00ad 00       		.byte	0
 2262 00ae 0F       		.uleb128 0xf
 2263 00af 0D       		.uleb128 0xd
 2264 00b0 00       		.byte	0
 2265 00b1 03       		.uleb128 0x3
 2266 00b2 08       		.uleb128 0x8
 2267 00b3 3A       		.uleb128 0x3a
 2268 00b4 0B       		.uleb128 0xb
 2269 00b5 3B       		.uleb128 0x3b
 2270 00b6 0B       		.uleb128 0xb
 2271 00b7 49       		.uleb128 0x49
 2272 00b8 13       		.uleb128 0x13
ARM GAS  C:\Users\DNIEL~1\AppData\Local\Temp\ccnLX0pg.s 			page 41


 2273 00b9 38       		.uleb128 0x38
 2274 00ba 0A       		.uleb128 0xa
 2275 00bb 00       		.byte	0
 2276 00bc 00       		.byte	0
 2277 00bd 10       		.uleb128 0x10
 2278 00be 0D       		.uleb128 0xd
 2279 00bf 00       		.byte	0
 2280 00c0 03       		.uleb128 0x3
 2281 00c1 0E       		.uleb128 0xe
 2282 00c2 3A       		.uleb128 0x3a
 2283 00c3 0B       		.uleb128 0xb
 2284 00c4 3B       		.uleb128 0x3b
 2285 00c5 0B       		.uleb128 0xb
 2286 00c6 49       		.uleb128 0x49
 2287 00c7 13       		.uleb128 0x13
 2288 00c8 38       		.uleb128 0x38
 2289 00c9 0A       		.uleb128 0xa
 2290 00ca 00       		.byte	0
 2291 00cb 00       		.byte	0
 2292 00cc 11       		.uleb128 0x11
 2293 00cd 0F       		.uleb128 0xf
 2294 00ce 00       		.byte	0
 2295 00cf 0B       		.uleb128 0xb
 2296 00d0 0B       		.uleb128 0xb
 2297 00d1 49       		.uleb128 0x49
 2298 00d2 13       		.uleb128 0x13
 2299 00d3 00       		.byte	0
 2300 00d4 00       		.byte	0
 2301 00d5 12       		.uleb128 0x12
 2302 00d6 04       		.uleb128 0x4
 2303 00d7 01       		.byte	0x1
 2304 00d8 0B       		.uleb128 0xb
 2305 00d9 0B       		.uleb128 0xb
 2306 00da 3A       		.uleb128 0x3a
 2307 00db 0B       		.uleb128 0xb
 2308 00dc 3B       		.uleb128 0x3b
 2309 00dd 0B       		.uleb128 0xb
 2310 00de 01       		.uleb128 0x1
 2311 00df 13       		.uleb128 0x13
 2312 00e0 00       		.byte	0
 2313 00e1 00       		.byte	0
 2314 00e2 13       		.uleb128 0x13
 2315 00e3 13       		.uleb128 0x13
 2316 00e4 01       		.byte	0x1
 2317 00e5 03       		.uleb128 0x3
 2318 00e6 0E       		.uleb128 0xe
 2319 00e7 0B       		.uleb128 0xb
 2320 00e8 0B       		.uleb128 0xb
 2321 00e9 3A       		.uleb128 0x3a
 2322 00ea 0B       		.uleb128 0xb
 2323 00eb 3B       		.uleb128 0x3b
 2324 00ec 05       		.uleb128 0x5
 2325 00ed 01       		.uleb128 0x1
 2326 00ee 13       		.uleb128 0x13
 2327 00ef 00       		.byte	0
 2328 00f0 00       		.byte	0
 2329 00f1 14       		.uleb128 0x14
ARM GAS  C:\Users\DNIEL~1\AppData\Local\Temp\ccnLX0pg.s 			page 42


 2330 00f2 15       		.uleb128 0x15
 2331 00f3 01       		.byte	0x1
 2332 00f4 27       		.uleb128 0x27
 2333 00f5 0C       		.uleb128 0xc
 2334 00f6 01       		.uleb128 0x1
 2335 00f7 13       		.uleb128 0x13
 2336 00f8 00       		.byte	0
 2337 00f9 00       		.byte	0
 2338 00fa 15       		.uleb128 0x15
 2339 00fb 05       		.uleb128 0x5
 2340 00fc 00       		.byte	0
 2341 00fd 49       		.uleb128 0x49
 2342 00fe 13       		.uleb128 0x13
 2343 00ff 00       		.byte	0
 2344 0100 00       		.byte	0
 2345 0101 16       		.uleb128 0x16
 2346 0102 26       		.uleb128 0x26
 2347 0103 00       		.byte	0
 2348 0104 49       		.uleb128 0x49
 2349 0105 13       		.uleb128 0x13
 2350 0106 00       		.byte	0
 2351 0107 00       		.byte	0
 2352 0108 17       		.uleb128 0x17
 2353 0109 2E       		.uleb128 0x2e
 2354 010a 01       		.byte	0x1
 2355 010b 03       		.uleb128 0x3
 2356 010c 0E       		.uleb128 0xe
 2357 010d 3A       		.uleb128 0x3a
 2358 010e 0B       		.uleb128 0xb
 2359 010f 3B       		.uleb128 0x3b
 2360 0110 0B       		.uleb128 0xb
 2361 0111 27       		.uleb128 0x27
 2362 0112 0C       		.uleb128 0xc
 2363 0113 20       		.uleb128 0x20
 2364 0114 0B       		.uleb128 0xb
 2365 0115 01       		.uleb128 0x1
 2366 0116 13       		.uleb128 0x13
 2367 0117 00       		.byte	0
 2368 0118 00       		.byte	0
 2369 0119 18       		.uleb128 0x18
 2370 011a 05       		.uleb128 0x5
 2371 011b 00       		.byte	0
 2372 011c 03       		.uleb128 0x3
 2373 011d 0E       		.uleb128 0xe
 2374 011e 3A       		.uleb128 0x3a
 2375 011f 0B       		.uleb128 0xb
 2376 0120 3B       		.uleb128 0x3b
 2377 0121 0B       		.uleb128 0xb
 2378 0122 49       		.uleb128 0x49
 2379 0123 13       		.uleb128 0x13
 2380 0124 00       		.byte	0
 2381 0125 00       		.byte	0
 2382 0126 19       		.uleb128 0x19
 2383 0127 34       		.uleb128 0x34
 2384 0128 00       		.byte	0
 2385 0129 03       		.uleb128 0x3
 2386 012a 08       		.uleb128 0x8
ARM GAS  C:\Users\DNIEL~1\AppData\Local\Temp\ccnLX0pg.s 			page 43


 2387 012b 3A       		.uleb128 0x3a
 2388 012c 0B       		.uleb128 0xb
 2389 012d 3B       		.uleb128 0x3b
 2390 012e 0B       		.uleb128 0xb
 2391 012f 49       		.uleb128 0x49
 2392 0130 13       		.uleb128 0x13
 2393 0131 00       		.byte	0
 2394 0132 00       		.byte	0
 2395 0133 1A       		.uleb128 0x1a
 2396 0134 0B       		.uleb128 0xb
 2397 0135 01       		.byte	0x1
 2398 0136 01       		.uleb128 0x1
 2399 0137 13       		.uleb128 0x13
 2400 0138 00       		.byte	0
 2401 0139 00       		.byte	0
 2402 013a 1B       		.uleb128 0x1b
 2403 013b 34       		.uleb128 0x34
 2404 013c 00       		.byte	0
 2405 013d 03       		.uleb128 0x3
 2406 013e 0E       		.uleb128 0xe
 2407 013f 3A       		.uleb128 0x3a
 2408 0140 0B       		.uleb128 0xb
 2409 0141 3B       		.uleb128 0x3b
 2410 0142 0B       		.uleb128 0xb
 2411 0143 49       		.uleb128 0x49
 2412 0144 13       		.uleb128 0x13
 2413 0145 00       		.byte	0
 2414 0146 00       		.byte	0
 2415 0147 1C       		.uleb128 0x1c
 2416 0148 0B       		.uleb128 0xb
 2417 0149 01       		.byte	0x1
 2418 014a 00       		.byte	0
 2419 014b 00       		.byte	0
 2420 014c 1D       		.uleb128 0x1d
 2421 014d 2E       		.uleb128 0x2e
 2422 014e 01       		.byte	0x1
 2423 014f 31       		.uleb128 0x31
 2424 0150 13       		.uleb128 0x13
 2425 0151 11       		.uleb128 0x11
 2426 0152 01       		.uleb128 0x1
 2427 0153 12       		.uleb128 0x12
 2428 0154 01       		.uleb128 0x1
 2429 0155 40       		.uleb128 0x40
 2430 0156 06       		.uleb128 0x6
 2431 0157 9742     		.uleb128 0x2117
 2432 0159 0C       		.uleb128 0xc
 2433 015a 01       		.uleb128 0x1
 2434 015b 13       		.uleb128 0x13
 2435 015c 00       		.byte	0
 2436 015d 00       		.byte	0
 2437 015e 1E       		.uleb128 0x1e
 2438 015f 34       		.uleb128 0x34
 2439 0160 00       		.byte	0
 2440 0161 31       		.uleb128 0x31
 2441 0162 13       		.uleb128 0x13
 2442 0163 02       		.uleb128 0x2
 2443 0164 0A       		.uleb128 0xa
ARM GAS  C:\Users\DNIEL~1\AppData\Local\Temp\ccnLX0pg.s 			page 44


 2444 0165 00       		.byte	0
 2445 0166 00       		.byte	0
 2446 0167 1F       		.uleb128 0x1f
 2447 0168 05       		.uleb128 0x5
 2448 0169 00       		.byte	0
 2449 016a 31       		.uleb128 0x31
 2450 016b 13       		.uleb128 0x13
 2451 016c 02       		.uleb128 0x2
 2452 016d 0A       		.uleb128 0xa
 2453 016e 00       		.byte	0
 2454 016f 00       		.byte	0
 2455 0170 20       		.uleb128 0x20
 2456 0171 0B       		.uleb128 0xb
 2457 0172 01       		.byte	0x1
 2458 0173 11       		.uleb128 0x11
 2459 0174 01       		.uleb128 0x1
 2460 0175 12       		.uleb128 0x12
 2461 0176 01       		.uleb128 0x1
 2462 0177 01       		.uleb128 0x1
 2463 0178 13       		.uleb128 0x13
 2464 0179 00       		.byte	0
 2465 017a 00       		.byte	0
 2466 017b 21       		.uleb128 0x21
 2467 017c 34       		.uleb128 0x34
 2468 017d 00       		.byte	0
 2469 017e 31       		.uleb128 0x31
 2470 017f 13       		.uleb128 0x13
 2471 0180 02       		.uleb128 0x2
 2472 0181 06       		.uleb128 0x6
 2473 0182 00       		.byte	0
 2474 0183 00       		.byte	0
 2475 0184 22       		.uleb128 0x22
 2476 0185 898201   		.uleb128 0x4109
 2477 0188 01       		.byte	0x1
 2478 0189 11       		.uleb128 0x11
 2479 018a 01       		.uleb128 0x1
 2480 018b 00       		.byte	0
 2481 018c 00       		.byte	0
 2482 018d 23       		.uleb128 0x23
 2483 018e 8A8201   		.uleb128 0x410a
 2484 0191 00       		.byte	0
 2485 0192 02       		.uleb128 0x2
 2486 0193 0A       		.uleb128 0xa
 2487 0194 9142     		.uleb128 0x2111
 2488 0196 0A       		.uleb128 0xa
 2489 0197 00       		.byte	0
 2490 0198 00       		.byte	0
 2491 0199 24       		.uleb128 0x24
 2492 019a 898201   		.uleb128 0x4109
 2493 019d 01       		.byte	0x1
 2494 019e 11       		.uleb128 0x11
 2495 019f 01       		.uleb128 0x1
 2496 01a0 01       		.uleb128 0x1
 2497 01a1 13       		.uleb128 0x13
 2498 01a2 00       		.byte	0
 2499 01a3 00       		.byte	0
 2500 01a4 25       		.uleb128 0x25
ARM GAS  C:\Users\DNIEL~1\AppData\Local\Temp\ccnLX0pg.s 			page 45


 2501 01a5 2E       		.uleb128 0x2e
 2502 01a6 01       		.byte	0x1
 2503 01a7 3F       		.uleb128 0x3f
 2504 01a8 0C       		.uleb128 0xc
 2505 01a9 03       		.uleb128 0x3
 2506 01aa 0E       		.uleb128 0xe
 2507 01ab 3A       		.uleb128 0x3a
 2508 01ac 0B       		.uleb128 0xb
 2509 01ad 3B       		.uleb128 0x3b
 2510 01ae 0B       		.uleb128 0xb
 2511 01af 27       		.uleb128 0x27
 2512 01b0 0C       		.uleb128 0xc
 2513 01b1 11       		.uleb128 0x11
 2514 01b2 01       		.uleb128 0x1
 2515 01b3 12       		.uleb128 0x12
 2516 01b4 01       		.uleb128 0x1
 2517 01b5 40       		.uleb128 0x40
 2518 01b6 06       		.uleb128 0x6
 2519 01b7 9742     		.uleb128 0x2117
 2520 01b9 0C       		.uleb128 0xc
 2521 01ba 01       		.uleb128 0x1
 2522 01bb 13       		.uleb128 0x13
 2523 01bc 00       		.byte	0
 2524 01bd 00       		.byte	0
 2525 01be 26       		.uleb128 0x26
 2526 01bf 898201   		.uleb128 0x4109
 2527 01c2 00       		.byte	0
 2528 01c3 11       		.uleb128 0x11
 2529 01c4 01       		.uleb128 0x1
 2530 01c5 31       		.uleb128 0x31
 2531 01c6 13       		.uleb128 0x13
 2532 01c7 00       		.byte	0
 2533 01c8 00       		.byte	0
 2534 01c9 27       		.uleb128 0x27
 2535 01ca 898201   		.uleb128 0x4109
 2536 01cd 00       		.byte	0
 2537 01ce 11       		.uleb128 0x11
 2538 01cf 01       		.uleb128 0x1
 2539 01d0 9542     		.uleb128 0x2115
 2540 01d2 0C       		.uleb128 0xc
 2541 01d3 31       		.uleb128 0x31
 2542 01d4 13       		.uleb128 0x13
 2543 01d5 00       		.byte	0
 2544 01d6 00       		.byte	0
 2545 01d7 28       		.uleb128 0x28
 2546 01d8 2E       		.uleb128 0x2e
 2547 01d9 01       		.byte	0x1
 2548 01da 3F       		.uleb128 0x3f
 2549 01db 0C       		.uleb128 0xc
 2550 01dc 03       		.uleb128 0x3
 2551 01dd 0E       		.uleb128 0xe
 2552 01de 3A       		.uleb128 0x3a
 2553 01df 0B       		.uleb128 0xb
 2554 01e0 3B       		.uleb128 0x3b
 2555 01e1 05       		.uleb128 0x5
 2556 01e2 27       		.uleb128 0x27
 2557 01e3 0C       		.uleb128 0xc
ARM GAS  C:\Users\DNIEL~1\AppData\Local\Temp\ccnLX0pg.s 			page 46


 2558 01e4 11       		.uleb128 0x11
 2559 01e5 01       		.uleb128 0x1
 2560 01e6 12       		.uleb128 0x12
 2561 01e7 01       		.uleb128 0x1
 2562 01e8 40       		.uleb128 0x40
 2563 01e9 06       		.uleb128 0x6
 2564 01ea 9742     		.uleb128 0x2117
 2565 01ec 0C       		.uleb128 0xc
 2566 01ed 01       		.uleb128 0x1
 2567 01ee 13       		.uleb128 0x13
 2568 01ef 00       		.byte	0
 2569 01f0 00       		.byte	0
 2570 01f1 29       		.uleb128 0x29
 2571 01f2 898201   		.uleb128 0x4109
 2572 01f5 01       		.byte	0x1
 2573 01f6 11       		.uleb128 0x11
 2574 01f7 01       		.uleb128 0x1
 2575 01f8 31       		.uleb128 0x31
 2576 01f9 13       		.uleb128 0x13
 2577 01fa 00       		.byte	0
 2578 01fb 00       		.byte	0
 2579 01fc 2A       		.uleb128 0x2a
 2580 01fd 05       		.uleb128 0x5
 2581 01fe 00       		.byte	0
 2582 01ff 03       		.uleb128 0x3
 2583 0200 0E       		.uleb128 0xe
 2584 0201 3A       		.uleb128 0x3a
 2585 0202 0B       		.uleb128 0xb
 2586 0203 3B       		.uleb128 0x3b
 2587 0204 05       		.uleb128 0x5
 2588 0205 49       		.uleb128 0x49
 2589 0206 13       		.uleb128 0x13
 2590 0207 02       		.uleb128 0x2
 2591 0208 06       		.uleb128 0x6
 2592 0209 00       		.byte	0
 2593 020a 00       		.byte	0
 2594 020b 2B       		.uleb128 0x2b
 2595 020c 34       		.uleb128 0x34
 2596 020d 00       		.byte	0
 2597 020e 03       		.uleb128 0x3
 2598 020f 08       		.uleb128 0x8
 2599 0210 3A       		.uleb128 0x3a
 2600 0211 0B       		.uleb128 0xb
 2601 0212 3B       		.uleb128 0x3b
 2602 0213 05       		.uleb128 0x5
 2603 0214 49       		.uleb128 0x49
 2604 0215 13       		.uleb128 0x13
 2605 0216 02       		.uleb128 0x2
 2606 0217 06       		.uleb128 0x6
 2607 0218 00       		.byte	0
 2608 0219 00       		.byte	0
 2609 021a 2C       		.uleb128 0x2c
 2610 021b 898201   		.uleb128 0x4109
 2611 021e 01       		.byte	0x1
 2612 021f 11       		.uleb128 0x11
 2613 0220 01       		.uleb128 0x1
 2614 0221 31       		.uleb128 0x31
ARM GAS  C:\Users\DNIEL~1\AppData\Local\Temp\ccnLX0pg.s 			page 47


 2615 0222 13       		.uleb128 0x13
 2616 0223 01       		.uleb128 0x1
 2617 0224 13       		.uleb128 0x13
 2618 0225 00       		.byte	0
 2619 0226 00       		.byte	0
 2620 0227 2D       		.uleb128 0x2d
 2621 0228 2E       		.uleb128 0x2e
 2622 0229 01       		.byte	0x1
 2623 022a 3F       		.uleb128 0x3f
 2624 022b 0C       		.uleb128 0xc
 2625 022c 03       		.uleb128 0x3
 2626 022d 0E       		.uleb128 0xe
 2627 022e 3A       		.uleb128 0x3a
 2628 022f 0B       		.uleb128 0xb
 2629 0230 3B       		.uleb128 0x3b
 2630 0231 05       		.uleb128 0x5
 2631 0232 27       		.uleb128 0x27
 2632 0233 0C       		.uleb128 0xc
 2633 0234 11       		.uleb128 0x11
 2634 0235 01       		.uleb128 0x1
 2635 0236 12       		.uleb128 0x12
 2636 0237 01       		.uleb128 0x1
 2637 0238 40       		.uleb128 0x40
 2638 0239 0A       		.uleb128 0xa
 2639 023a 9742     		.uleb128 0x2117
 2640 023c 0C       		.uleb128 0xc
 2641 023d 01       		.uleb128 0x1
 2642 023e 13       		.uleb128 0x13
 2643 023f 00       		.byte	0
 2644 0240 00       		.byte	0
 2645 0241 2E       		.uleb128 0x2e
 2646 0242 05       		.uleb128 0x5
 2647 0243 00       		.byte	0
 2648 0244 03       		.uleb128 0x3
 2649 0245 0E       		.uleb128 0xe
 2650 0246 3A       		.uleb128 0x3a
 2651 0247 0B       		.uleb128 0xb
 2652 0248 3B       		.uleb128 0x3b
 2653 0249 05       		.uleb128 0x5
 2654 024a 49       		.uleb128 0x49
 2655 024b 13       		.uleb128 0x13
 2656 024c 02       		.uleb128 0x2
 2657 024d 0A       		.uleb128 0xa
 2658 024e 00       		.byte	0
 2659 024f 00       		.byte	0
 2660 0250 2F       		.uleb128 0x2f
 2661 0251 34       		.uleb128 0x34
 2662 0252 00       		.byte	0
 2663 0253 03       		.uleb128 0x3
 2664 0254 0E       		.uleb128 0xe
 2665 0255 3A       		.uleb128 0x3a
 2666 0256 0B       		.uleb128 0xb
 2667 0257 3B       		.uleb128 0x3b
 2668 0258 05       		.uleb128 0x5
 2669 0259 49       		.uleb128 0x49
 2670 025a 13       		.uleb128 0x13
 2671 025b 3F       		.uleb128 0x3f
ARM GAS  C:\Users\DNIEL~1\AppData\Local\Temp\ccnLX0pg.s 			page 48


 2672 025c 0C       		.uleb128 0xc
 2673 025d 3C       		.uleb128 0x3c
 2674 025e 0C       		.uleb128 0xc
 2675 025f 00       		.byte	0
 2676 0260 00       		.byte	0
 2677 0261 30       		.uleb128 0x30
 2678 0262 34       		.uleb128 0x34
 2679 0263 00       		.byte	0
 2680 0264 03       		.uleb128 0x3
 2681 0265 0E       		.uleb128 0xe
 2682 0266 3A       		.uleb128 0x3a
 2683 0267 0B       		.uleb128 0xb
 2684 0268 3B       		.uleb128 0x3b
 2685 0269 0B       		.uleb128 0xb
 2686 026a 49       		.uleb128 0x49
 2687 026b 13       		.uleb128 0x13
 2688 026c 3F       		.uleb128 0x3f
 2689 026d 0C       		.uleb128 0xc
 2690 026e 02       		.uleb128 0x2
 2691 026f 0A       		.uleb128 0xa
 2692 0270 00       		.byte	0
 2693 0271 00       		.byte	0
 2694 0272 31       		.uleb128 0x31
 2695 0273 2E       		.uleb128 0x2e
 2696 0274 00       		.byte	0
 2697 0275 3F       		.uleb128 0x3f
 2698 0276 0C       		.uleb128 0xc
 2699 0277 03       		.uleb128 0x3
 2700 0278 0E       		.uleb128 0xe
 2701 0279 3A       		.uleb128 0x3a
 2702 027a 0B       		.uleb128 0xb
 2703 027b 3B       		.uleb128 0x3b
 2704 027c 05       		.uleb128 0x5
 2705 027d 27       		.uleb128 0x27
 2706 027e 0C       		.uleb128 0xc
 2707 027f 3C       		.uleb128 0x3c
 2708 0280 0C       		.uleb128 0xc
 2709 0281 00       		.byte	0
 2710 0282 00       		.byte	0
 2711 0283 32       		.uleb128 0x32
 2712 0284 2E       		.uleb128 0x2e
 2713 0285 01       		.byte	0x1
 2714 0286 3F       		.uleb128 0x3f
 2715 0287 0C       		.uleb128 0xc
 2716 0288 03       		.uleb128 0x3
 2717 0289 0E       		.uleb128 0xe
 2718 028a 3A       		.uleb128 0x3a
 2719 028b 0B       		.uleb128 0xb
 2720 028c 3B       		.uleb128 0x3b
 2721 028d 0B       		.uleb128 0xb
 2722 028e 27       		.uleb128 0x27
 2723 028f 0C       		.uleb128 0xc
 2724 0290 3C       		.uleb128 0x3c
 2725 0291 0C       		.uleb128 0xc
 2726 0292 01       		.uleb128 0x1
 2727 0293 13       		.uleb128 0x13
 2728 0294 00       		.byte	0
ARM GAS  C:\Users\DNIEL~1\AppData\Local\Temp\ccnLX0pg.s 			page 49


 2729 0295 00       		.byte	0
 2730 0296 33       		.uleb128 0x33
 2731 0297 2E       		.uleb128 0x2e
 2732 0298 01       		.byte	0x1
 2733 0299 3F       		.uleb128 0x3f
 2734 029a 0C       		.uleb128 0xc
 2735 029b 03       		.uleb128 0x3
 2736 029c 0E       		.uleb128 0xe
 2737 029d 3A       		.uleb128 0x3a
 2738 029e 0B       		.uleb128 0xb
 2739 029f 3B       		.uleb128 0x3b
 2740 02a0 05       		.uleb128 0x5
 2741 02a1 27       		.uleb128 0x27
 2742 02a2 0C       		.uleb128 0xc
 2743 02a3 3C       		.uleb128 0x3c
 2744 02a4 0C       		.uleb128 0xc
 2745 02a5 01       		.uleb128 0x1
 2746 02a6 13       		.uleb128 0x13
 2747 02a7 00       		.byte	0
 2748 02a8 00       		.byte	0
 2749 02a9 34       		.uleb128 0x34
 2750 02aa 2E       		.uleb128 0x2e
 2751 02ab 01       		.byte	0x1
 2752 02ac 3F       		.uleb128 0x3f
 2753 02ad 0C       		.uleb128 0xc
 2754 02ae 03       		.uleb128 0x3
 2755 02af 0E       		.uleb128 0xe
 2756 02b0 3A       		.uleb128 0x3a
 2757 02b1 0B       		.uleb128 0xb
 2758 02b2 3B       		.uleb128 0x3b
 2759 02b3 05       		.uleb128 0x5
 2760 02b4 27       		.uleb128 0x27
 2761 02b5 0C       		.uleb128 0xc
 2762 02b6 3C       		.uleb128 0x3c
 2763 02b7 0C       		.uleb128 0xc
 2764 02b8 00       		.byte	0
 2765 02b9 00       		.byte	0
 2766 02ba 00       		.byte	0
 2767              		.section	.debug_loc,"",%progbits
 2768              	.Ldebug_loc0:
 2769              	.LLST0:
 2770 0000 00000000 		.4byte	.LFB126
 2771 0004 02000000 		.4byte	.LCFI0
 2772 0008 0200     		.2byte	0x2
 2773 000a 7D       		.byte	0x7d
 2774 000b 00       		.sleb128 0
 2775 000c 02000000 		.4byte	.LCFI0
 2776 0010 90000000 		.4byte	.LFE126
 2777 0014 0200     		.2byte	0x2
 2778 0016 7D       		.byte	0x7d
 2779 0017 10       		.sleb128 16
 2780 0018 00000000 		.4byte	0
 2781 001c 00000000 		.4byte	0
 2782              	.LLST1:
 2783 0020 24000000 		.4byte	.LVL2
 2784 0024 31000000 		.4byte	.LVL3-1
 2785 0028 0500     		.2byte	0x5
ARM GAS  C:\Users\DNIEL~1\AppData\Local\Temp\ccnLX0pg.s 			page 50


 2786 002a 03       		.byte	0x3
 2787 002b 00000000 		.4byte	ICUD1
 2788 002f 00000000 		.4byte	0
 2789 0033 00000000 		.4byte	0
 2790              	.LLST2:
 2791 0037 56000000 		.4byte	.LVL5
 2792 003b 65000000 		.4byte	.LVL6-1
 2793 003f 0500     		.2byte	0x5
 2794 0041 03       		.byte	0x3
 2795 0042 00000000 		.4byte	ICUD1
 2796 0046 00000000 		.4byte	0
 2797 004a 00000000 		.4byte	0
 2798              	.LLST3:
 2799 004e 00000000 		.4byte	.LFB119
 2800 0052 02000000 		.4byte	.LCFI1
 2801 0056 0200     		.2byte	0x2
 2802 0058 7D       		.byte	0x7d
 2803 0059 00       		.sleb128 0
 2804 005a 02000000 		.4byte	.LCFI1
 2805 005e 0E000000 		.4byte	.LFE119
 2806 0062 0200     		.2byte	0x2
 2807 0064 7D       		.byte	0x7d
 2808 0065 08       		.sleb128 8
 2809 0066 00000000 		.4byte	0
 2810 006a 00000000 		.4byte	0
 2811              	.LLST4:
 2812 006e 00000000 		.4byte	.LFB120
 2813 0072 02000000 		.4byte	.LCFI2
 2814 0076 0200     		.2byte	0x2
 2815 0078 7D       		.byte	0x7d
 2816 0079 00       		.sleb128 0
 2817 007a 02000000 		.4byte	.LCFI2
 2818 007e 0E000000 		.4byte	.LFE120
 2819 0082 0200     		.2byte	0x2
 2820 0084 7D       		.byte	0x7d
 2821 0085 08       		.sleb128 8
 2822 0086 00000000 		.4byte	0
 2823 008a 00000000 		.4byte	0
 2824              	.LLST5:
 2825 008e 00000000 		.4byte	.LFB121
 2826 0092 02000000 		.4byte	.LCFI3
 2827 0096 0200     		.2byte	0x2
 2828 0098 7D       		.byte	0x7d
 2829 0099 00       		.sleb128 0
 2830 009a 02000000 		.4byte	.LCFI3
 2831 009e 1A000000 		.4byte	.LFE121
 2832 00a2 0200     		.2byte	0x2
 2833 00a4 7D       		.byte	0x7d
 2834 00a5 08       		.sleb128 8
 2835 00a6 00000000 		.4byte	0
 2836 00aa 00000000 		.4byte	0
 2837              	.LLST6:
 2838 00ae 00000000 		.4byte	.LFB122
 2839 00b2 02000000 		.4byte	.LCFI4
 2840 00b6 0200     		.2byte	0x2
 2841 00b8 7D       		.byte	0x7d
 2842 00b9 00       		.sleb128 0
ARM GAS  C:\Users\DNIEL~1\AppData\Local\Temp\ccnLX0pg.s 			page 51


 2843 00ba 02000000 		.4byte	.LCFI4
 2844 00be C0000000 		.4byte	.LFE122
 2845 00c2 0200     		.2byte	0x2
 2846 00c4 7D       		.byte	0x7d
 2847 00c5 10       		.sleb128 16
 2848 00c6 00000000 		.4byte	0
 2849 00ca 00000000 		.4byte	0
 2850              	.LLST7:
 2851 00ce 00000000 		.4byte	.LVL14
 2852 00d2 1A000000 		.4byte	.LVL15
 2853 00d6 0100     		.2byte	0x1
 2854 00d8 50       		.byte	0x50
 2855 00d9 1A000000 		.4byte	.LVL15
 2856 00dd 7A000000 		.4byte	.LVL20
 2857 00e1 0100     		.2byte	0x1
 2858 00e3 54       		.byte	0x54
 2859 00e4 7A000000 		.4byte	.LVL20
 2860 00e8 7C000000 		.4byte	.LVL21
 2861 00ec 0100     		.2byte	0x1
 2862 00ee 50       		.byte	0x50
 2863 00ef 7C000000 		.4byte	.LVL21
 2864 00f3 C0000000 		.4byte	.LFE122
 2865 00f7 0100     		.2byte	0x1
 2866 00f9 54       		.byte	0x54
 2867 00fa 00000000 		.4byte	0
 2868 00fe 00000000 		.4byte	0
 2869              	.LLST8:
 2870 0102 1C000000 		.4byte	.LVL16
 2871 0106 24000000 		.4byte	.LVL17
 2872 010a 1000     		.2byte	0x10
 2873 010c 74       		.byte	0x74
 2874 010d 08       		.sleb128 8
 2875 010e 06       		.byte	0x6
 2876 010f F7       		.byte	0xf7
 2877 0110 29       		.uleb128 0x29
 2878 0111 72       		.byte	0x72
 2879 0112 04       		.sleb128 4
 2880 0113 06       		.byte	0x6
 2881 0114 F7       		.byte	0xf7
 2882 0115 29       		.uleb128 0x29
 2883 0116 1B       		.byte	0x1b
 2884 0117 F7       		.byte	0xf7
 2885 0118 00       		.uleb128 0
 2886 0119 31       		.byte	0x31
 2887 011a 1C       		.byte	0x1c
 2888 011b 9F       		.byte	0x9f
 2889 011c 24000000 		.4byte	.LVL17
 2890 0120 2A000000 		.4byte	.LVL18
 2891 0124 0F00     		.2byte	0xf
 2892 0126 74       		.byte	0x74
 2893 0127 08       		.sleb128 8
 2894 0128 06       		.byte	0x6
 2895 0129 F7       		.byte	0xf7
 2896 012a 29       		.uleb128 0x29
 2897 012b 71       		.byte	0x71
 2898 012c 00       		.sleb128 0
 2899 012d F7       		.byte	0xf7
ARM GAS  C:\Users\DNIEL~1\AppData\Local\Temp\ccnLX0pg.s 			page 52


 2900 012e 29       		.uleb128 0x29
 2901 012f 1B       		.byte	0x1b
 2902 0130 F7       		.byte	0xf7
 2903 0131 00       		.uleb128 0
 2904 0132 31       		.byte	0x31
 2905 0133 1C       		.byte	0x1c
 2906 0134 9F       		.byte	0x9f
 2907 0135 2A000000 		.4byte	.LVL18
 2908 0139 30000000 		.4byte	.LVL19
 2909 013d 0100     		.2byte	0x1
 2910 013f 51       		.byte	0x51
 2911 0140 30000000 		.4byte	.LVL19
 2912 0144 7A000000 		.4byte	.LVL20
 2913 0148 1300     		.2byte	0x13
 2914 014a 74       		.byte	0x74
 2915 014b 08       		.sleb128 8
 2916 014c 06       		.byte	0x6
 2917 014d F7       		.byte	0xf7
 2918 014e 29       		.uleb128 0x29
 2919 014f 74       		.byte	0x74
 2920 0150 04       		.sleb128 4
 2921 0151 06       		.byte	0x6
 2922 0152 23       		.byte	0x23
 2923 0153 04       		.uleb128 0x4
 2924 0154 06       		.byte	0x6
 2925 0155 F7       		.byte	0xf7
 2926 0156 29       		.uleb128 0x29
 2927 0157 1B       		.byte	0x1b
 2928 0158 F7       		.byte	0xf7
 2929 0159 00       		.uleb128 0
 2930 015a 31       		.byte	0x31
 2931 015b 1C       		.byte	0x1c
 2932 015c 9F       		.byte	0x9f
 2933 015d 00000000 		.4byte	0
 2934 0161 00000000 		.4byte	0
 2935              	.LLST9:
 2936 0165 00000000 		.4byte	.LFB123
 2937 0169 02000000 		.4byte	.LCFI5
 2938 016d 0200     		.2byte	0x2
 2939 016f 7D       		.byte	0x7d
 2940 0170 00       		.sleb128 0
 2941 0171 02000000 		.4byte	.LCFI5
 2942 0175 3C000000 		.4byte	.LFE123
 2943 0179 0200     		.2byte	0x2
 2944 017b 7D       		.byte	0x7d
 2945 017c 08       		.sleb128 8
 2946 017d 00000000 		.4byte	0
 2947 0181 00000000 		.4byte	0
 2948              	.LLST10:
 2949 0185 00000000 		.4byte	.LVL24
 2950 0189 08000000 		.4byte	.LVL25
 2951 018d 0100     		.2byte	0x1
 2952 018f 50       		.byte	0x50
 2953 0190 08000000 		.4byte	.LVL25
 2954 0194 0A000000 		.4byte	.LVL26
 2955 0198 0400     		.2byte	0x4
 2956 019a F3       		.byte	0xf3
ARM GAS  C:\Users\DNIEL~1\AppData\Local\Temp\ccnLX0pg.s 			page 53


 2957 019b 01       		.uleb128 0x1
 2958 019c 50       		.byte	0x50
 2959 019d 9F       		.byte	0x9f
 2960 019e 0A000000 		.4byte	.LVL26
 2961 01a2 1C000000 		.4byte	.LVL27
 2962 01a6 0100     		.2byte	0x1
 2963 01a8 50       		.byte	0x50
 2964 01a9 1C000000 		.4byte	.LVL27
 2965 01ad 3C000000 		.4byte	.LFE123
 2966 01b1 0400     		.2byte	0x4
 2967 01b3 F3       		.byte	0xf3
 2968 01b4 01       		.uleb128 0x1
 2969 01b5 50       		.byte	0x50
 2970 01b6 9F       		.byte	0x9f
 2971 01b7 00000000 		.4byte	0
 2972 01bb 00000000 		.4byte	0
 2973              	.LLST11:
 2974 01bf 00000000 		.4byte	.LVL30
 2975 01c3 08000000 		.4byte	.LVL31
 2976 01c7 0100     		.2byte	0x1
 2977 01c9 50       		.byte	0x50
 2978 01ca 08000000 		.4byte	.LVL31
 2979 01ce 52000000 		.4byte	.LFE124
 2980 01d2 0400     		.2byte	0x4
 2981 01d4 F3       		.byte	0xf3
 2982 01d5 01       		.uleb128 0x1
 2983 01d6 50       		.byte	0x50
 2984 01d7 9F       		.byte	0x9f
 2985 01d8 00000000 		.4byte	0
 2986 01dc 00000000 		.4byte	0
 2987              		.section	.debug_aranges,"",%progbits
 2988 0000 54000000 		.4byte	0x54
 2989 0004 0200     		.2byte	0x2
 2990 0006 00000000 		.4byte	.Ldebug_info0
 2991 000a 04       		.byte	0x4
 2992 000b 00       		.byte	0
 2993 000c 0000     		.2byte	0
 2994 000e 0000     		.2byte	0
 2995 0010 00000000 		.4byte	.LFB126
 2996 0014 90000000 		.4byte	.LFE126-.LFB126
 2997 0018 00000000 		.4byte	.LFB119
 2998 001c 0E000000 		.4byte	.LFE119-.LFB119
 2999 0020 00000000 		.4byte	.LFB120
 3000 0024 0E000000 		.4byte	.LFE120-.LFB120
 3001 0028 00000000 		.4byte	.LFB121
 3002 002c 1A000000 		.4byte	.LFE121-.LFB121
 3003 0030 00000000 		.4byte	.LFB122
 3004 0034 C0000000 		.4byte	.LFE122-.LFB122
 3005 0038 00000000 		.4byte	.LFB123
 3006 003c 3C000000 		.4byte	.LFE123-.LFB123
 3007 0040 00000000 		.4byte	.LFB124
 3008 0044 52000000 		.4byte	.LFE124-.LFB124
 3009 0048 00000000 		.4byte	.LFB125
 3010 004c 0C000000 		.4byte	.LFE125-.LFB125
 3011 0050 00000000 		.4byte	0
 3012 0054 00000000 		.4byte	0
 3013              		.section	.debug_ranges,"",%progbits
ARM GAS  C:\Users\DNIEL~1\AppData\Local\Temp\ccnLX0pg.s 			page 54


 3014              	.Ldebug_ranges0:
 3015 0000 00000000 		.4byte	.LFB126
 3016 0004 90000000 		.4byte	.LFE126
 3017 0008 00000000 		.4byte	.LFB119
 3018 000c 0E000000 		.4byte	.LFE119
 3019 0010 00000000 		.4byte	.LFB120
 3020 0014 0E000000 		.4byte	.LFE120
 3021 0018 00000000 		.4byte	.LFB121
 3022 001c 1A000000 		.4byte	.LFE121
 3023 0020 00000000 		.4byte	.LFB122
 3024 0024 C0000000 		.4byte	.LFE122
 3025 0028 00000000 		.4byte	.LFB123
 3026 002c 3C000000 		.4byte	.LFE123
 3027 0030 00000000 		.4byte	.LFB124
 3028 0034 52000000 		.4byte	.LFE124
 3029 0038 00000000 		.4byte	.LFB125
 3030 003c 0C000000 		.4byte	.LFE125
 3031 0040 00000000 		.4byte	0
 3032 0044 00000000 		.4byte	0
 3033              		.section	.debug_line,"",%progbits
 3034              	.Ldebug_line0:
 3035 0000 FC020000 		.section	.debug_str,"MS",%progbits,1
 3035      0200F701 
 3035      00000201 
 3035      FB0E0D00 
 3035      01010101 
 3036              	.LASF169:
 3037 0000 4943555F 		.ascii	"ICU_INPUT_ACTIVE_HIGH\000"
 3037      494E5055 
 3037      545F4143 
 3037      54495645 
 3037      5F484947 
 3038              	.LASF180:
 3039 0016 6F766572 		.ascii	"overflow_cb\000"
 3039      666C6F77 
 3039      5F636200 
 3040              	.LASF155:
 3041 0022 4943555F 		.ascii	"ICU_UNINIT\000"
 3041      554E494E 
 3041      495400
 3042              	.LASF42:
 3043 002d 43414E31 		.ascii	"CAN1_RX0_IRQn\000"
 3043      5F525830 
 3043      5F495251 
 3043      6E00
 3044              	.LASF23:
 3045 003b 5056445F 		.ascii	"PVD_IRQn\000"
 3045      4952516E 
 3045      00
 3046              	.LASF86:
 3047 0044 43414E32 		.ascii	"CAN2_RX0_IRQn\000"
 3047      5F525830 
 3047      5F495251 
 3047      6E00
 3048              	.LASF68:
 3049 0052 54494D38 		.ascii	"TIM8_CC_IRQn\000"
 3049      5F43435F 
ARM GAS  C:\Users\DNIEL~1\AppData\Local\Temp\ccnLX0pg.s 			page 55


 3049      4952516E 
 3049      00
 3050              	.LASF95:
 3051 005f 49324333 		.ascii	"I2C3_ER_IRQn\000"
 3051      5F45525F 
 3051      4952516E 
 3051      00
 3052              	.LASF132:
 3053 006c 5F726573 		.ascii	"_resvd0\000"
 3053      76643000 
 3054              	.LASF133:
 3055 0074 5F726573 		.ascii	"_resvd1\000"
 3055      76643100 
 3056              	.LASF53:
 3057 007c 49324331 		.ascii	"I2C1_EV_IRQn\000"
 3057      5F45565F 
 3057      4952516E 
 3057      00
 3058              	.LASF185:
 3059 0089 56656374 		.ascii	"VectorAC\000"
 3059      6F724143 
 3059      00
 3060              	.LASF138:
 3061 0092 5F726573 		.ascii	"_resvd4\000"
 3061      76643400 
 3062              	.LASF139:
 3063 009a 5F726573 		.ascii	"_resvd5\000"
 3063      76643500 
 3064              	.LASF141:
 3065 00a2 5F726573 		.ascii	"_resvd6\000"
 3065      76643600 
 3066              	.LASF143:
 3067 00aa 5F726573 		.ascii	"_resvd7\000"
 3067      76643700 
 3068              	.LASF145:
 3069 00b2 5F726573 		.ascii	"_resvd8\000"
 3069      76643800 
 3070              	.LASF146:
 3071 00ba 5F726573 		.ascii	"_resvd9\000"
 3071      76643900 
 3072              	.LASF195:
 3073 00c2 6E766963 		.ascii	"nvicEnableVector\000"
 3073      456E6162 
 3073      6C655665 
 3073      63746F72 
 3073      00
 3074              	.LASF149:
 3075 00d3 5F726573 		.ascii	"_resvd11\000"
 3075      76643131 
 3075      00
 3076              	.LASF161:
 3077 00dc 69637573 		.ascii	"icustate_t\000"
 3077      74617465 
 3077      5F7400
 3078              	.LASF43:
 3079 00e7 43414E31 		.ascii	"CAN1_RX1_IRQn\000"
 3079      5F525831 
ARM GAS  C:\Users\DNIEL~1\AppData\Local\Temp\ccnLX0pg.s 			page 56


 3079      5F495251 
 3079      6E00
 3080              	.LASF152:
 3081 00f5 5F726573 		.ascii	"_resvd13\000"
 3081      76643133 
 3081      00
 3082              	.LASF11:
 3083 00fe 6C6F6E67 		.ascii	"long long unsigned int\000"
 3083      206C6F6E 
 3083      6720756E 
 3083      7369676E 
 3083      65642069 
 3084              	.LASF63:
 3085 0115 5254435F 		.ascii	"RTC_Alarm_IRQn\000"
 3085      416C6172 
 3085      6D5F4952 
 3085      516E00
 3086              	.LASF56:
 3087 0124 49324332 		.ascii	"I2C2_ER_IRQn\000"
 3087      5F45525F 
 3087      4952516E 
 3087      00
 3088              	.LASF52:
 3089 0131 54494D34 		.ascii	"TIM4_IRQn\000"
 3089      5F495251 
 3089      6E00
 3090              	.LASF25:
 3091 013b 5254435F 		.ascii	"RTC_WKUP_IRQn\000"
 3091      574B5550 
 3091      5F495251 
 3091      6E00
 3092              	.LASF22:
 3093 0149 57574447 		.ascii	"WWDG_IRQn\000"
 3093      5F495251 
 3093      6E00
 3094              	.LASF177:
 3095 0153 66726571 		.ascii	"frequency\000"
 3095      75656E63 
 3095      7900
 3096              	.LASF120:
 3097 015d 41484231 		.ascii	"AHB1LPENR\000"
 3097      4C50454E 
 3097      5200
 3098              	.LASF160:
 3099 0167 4943555F 		.ascii	"ICU_IDLE\000"
 3099      49444C45 
 3099      00
 3100              	.LASF159:
 3101 0170 4943555F 		.ascii	"ICU_ACTIVE\000"
 3101      41435449 
 3101      564500
 3102              	.LASF140:
 3103 017b 43434D52 		.ascii	"CCMR1\000"
 3103      3100
 3104              	.LASF142:
 3105 0181 43434D52 		.ascii	"CCMR2\000"
 3105      3200
ARM GAS  C:\Users\DNIEL~1\AppData\Local\Temp\ccnLX0pg.s 			page 57


 3106              	.LASF10:
 3107 0187 6C6F6E67 		.ascii	"long long int\000"
 3107      206C6F6E 
 3107      6720696E 
 3107      7400
 3108              	.LASF1:
 3109 0195 7369676E 		.ascii	"signed char\000"
 3109      65642063 
 3109      68617200 
 3110              	.LASF87:
 3111 01a1 43414E32 		.ascii	"CAN2_RX1_IRQn\000"
 3111      5F525831 
 3111      5F495251 
 3111      6E00
 3112              	.LASF106:
 3113 01af 41484231 		.ascii	"AHB1RSTR\000"
 3113      52535452 
 3113      00
 3114              	.LASF182:
 3115 01b8 49435543 		.ascii	"ICUConfig\000"
 3115      6F6E6669 
 3115      6700
 3116              	.LASF91:
 3117 01c2 444D4132 		.ascii	"DMA2_Stream6_IRQn\000"
 3117      5F537472 
 3117      65616D36 
 3117      5F495251 
 3117      6E00
 3118              	.LASF147:
 3119 01d4 5F726573 		.ascii	"_resvd10\000"
 3119      76643130 
 3119      00
 3120              	.LASF163:
 3121 01dd 73746174 		.ascii	"state\000"
 3121      6500
 3122              	.LASF150:
 3123 01e3 5F726573 		.ascii	"_resvd12\000"
 3123      76643132 
 3123      00
 3124              	.LASF7:
 3125 01ec 6C6F6E67 		.ascii	"long int\000"
 3125      20696E74 
 3125      00
 3126              	.LASF153:
 3127 01f5 5F726573 		.ascii	"_resvd14\000"
 3127      76643134 
 3127      00
 3128              	.LASF111:
 3129 01fe 41504232 		.ascii	"APB2RSTR\000"
 3129      52535452 
 3129      00
 3130              	.LASF124:
 3131 0207 41504231 		.ascii	"APB1LPENR\000"
 3131      4C50454E 
 3131      5200
 3132              	.LASF38:
 3133 0211 444D4131 		.ascii	"DMA1_Stream5_IRQn\000"
ARM GAS  C:\Users\DNIEL~1\AppData\Local\Temp\ccnLX0pg.s 			page 58


 3133      5F537472 
 3133      65616D35 
 3133      5F495251 
 3133      6E00
 3134              	.LASF45:
 3135 0223 45585449 		.ascii	"EXTI9_5_IRQn\000"
 3135      395F355F 
 3135      4952516E 
 3135      00
 3136              	.LASF144:
 3137 0230 43434552 		.ascii	"CCER\000"
 3137      00
 3138              	.LASF84:
 3139 0235 4554485F 		.ascii	"ETH_WKUP_IRQn\000"
 3139      574B5550 
 3139      5F495251 
 3139      6E00
 3140              	.LASF5:
 3141 0243 75696E74 		.ascii	"uint16_t\000"
 3141      31365F74 
 3141      00
 3142              	.LASF8:
 3143 024c 75696E74 		.ascii	"uint32_t\000"
 3143      33325F74 
 3143      00
 3144              	.LASF76:
 3145 0255 54494D36 		.ascii	"TIM6_DAC_IRQn\000"
 3145      5F444143 
 3145      5F495251 
 3145      6E00
 3146              	.LASF104:
 3147 0263 504C4C43 		.ascii	"PLLCFGR\000"
 3147      46475200 
 3148              	.LASF74:
 3149 026b 55415254 		.ascii	"UART4_IRQn\000"
 3149      345F4952 
 3149      516E00
 3150              	.LASF64:
 3151 0276 4F54475F 		.ascii	"OTG_FS_WKUP_IRQn\000"
 3151      46535F57 
 3151      4B55505F 
 3151      4952516E 
 3151      00
 3152              	.LASF90:
 3153 0287 444D4132 		.ascii	"DMA2_Stream5_IRQn\000"
 3153      5F537472 
 3153      65616D35 
 3153      5F495251 
 3153      6E00
 3154              	.LASF66:
 3155 0299 54494D38 		.ascii	"TIM8_UP_TIM13_IRQn\000"
 3155      5F55505F 
 3155      54494D31 
 3155      335F4952 
 3155      516E00
 3156              	.LASF167:
 3157 02ac 70636372 		.ascii	"pccrp\000"
ARM GAS  C:\Users\DNIEL~1\AppData\Local\Temp\ccnLX0pg.s 			page 59


 3157      7000
 3158              	.LASF107:
 3159 02b2 41484232 		.ascii	"AHB2RSTR\000"
 3159      52535452 
 3159      00
 3160              	.LASF16:
 3161 02bb 42757346 		.ascii	"BusFault_IRQn\000"
 3161      61756C74 
 3161      5F495251 
 3161      6E00
 3162              	.LASF20:
 3163 02c9 50656E64 		.ascii	"PendSV_IRQn\000"
 3163      53565F49 
 3163      52516E00 
 3164              	.LASF92:
 3165 02d5 444D4132 		.ascii	"DMA2_Stream7_IRQn\000"
 3165      5F537472 
 3165      65616D37 
 3165      5F495251 
 3165      6E00
 3166              	.LASF148:
 3167 02e7 42445452 		.ascii	"BDTR\000"
 3167      00
 3168              	.LASF0:
 3169 02ec 756E7369 		.ascii	"unsigned int\000"
 3169      676E6564 
 3169      20696E74 
 3169      00
 3170              	.LASF36:
 3171 02f9 444D4131 		.ascii	"DMA1_Stream3_IRQn\000"
 3171      5F537472 
 3171      65616D33 
 3171      5F495251 
 3171      6E00
 3172              	.LASF193:
 3173 030b 49435544 		.ascii	"ICUD1\000"
 3173      3100
 3174              	.LASF39:
 3175 0311 444D4131 		.ascii	"DMA1_Stream6_IRQn\000"
 3175      5F537472 
 3175      65616D36 
 3175      5F495251 
 3175      6E00
 3176              	.LASF15:
 3177 0323 4D656D6F 		.ascii	"MemoryManagement_IRQn\000"
 3177      72794D61 
 3177      6E616765 
 3177      6D656E74 
 3177      5F495251 
 3178              	.LASF94:
 3179 0339 49324333 		.ascii	"I2C3_EV_IRQn\000"
 3179      5F45565F 
 3179      4952516E 
 3179      00
 3180              	.LASF9:
 3181 0346 6C6F6E67 		.ascii	"long unsigned int\000"
 3181      20756E73 
ARM GAS  C:\Users\DNIEL~1\AppData\Local\Temp\ccnLX0pg.s 			page 60


 3181      69676E65 
 3181      6420696E 
 3181      7400
 3182              	.LASF168:
 3183 0358 69637563 		.ascii	"icucallback_t\000"
 3183      616C6C62 
 3183      61636B5F 
 3183      7400
 3184              	.LASF131:
 3185 0366 5243435F 		.ascii	"RCC_TypeDef\000"
 3185      54797065 
 3185      44656600 
 3186              	.LASF201:
 3187 0372 5F706F72 		.ascii	"_port_irq_epilogue\000"
 3187      745F6972 
 3187      715F6570 
 3187      696C6F67 
 3187      756500
 3188              	.LASF179:
 3189 0385 70657269 		.ascii	"period_cb\000"
 3189      6F645F63 
 3189      6200
 3190              	.LASF96:
 3191 038f 4F54475F 		.ascii	"OTG_HS_EP1_OUT_IRQn\000"
 3191      48535F45 
 3191      50315F4F 
 3191      55545F49 
 3191      52516E00 
 3192              	.LASF71:
 3193 03a3 5344494F 		.ascii	"SDIO_IRQn\000"
 3193      5F495251 
 3193      6E00
 3194              	.LASF200:
 3195 03ad 6963755F 		.ascii	"icu_lld_serve_interrupt\000"
 3195      6C6C645F 
 3195      73657276 
 3195      655F696E 
 3195      74657272 
 3196              	.LASF18:
 3197 03c5 53564361 		.ascii	"SVCall_IRQn\000"
 3197      6C6C5F49 
 3197      52516E00 
 3198              	.LASF134:
 3199 03d1 534D4352 		.ascii	"SMCR\000"
 3199      00
 3200              	.LASF186:
 3201 03d6 6963755F 		.ascii	"icu_lld_init\000"
 3201      6C6C645F 
 3201      696E6974 
 3201      00
 3202              	.LASF130:
 3203 03e3 504C4C49 		.ascii	"PLLI2SCFGR\000"
 3203      32534346 
 3203      475200
 3204              	.LASF41:
 3205 03ee 43414E31 		.ascii	"CAN1_TX_IRQn\000"
 3205      5F54585F 
ARM GAS  C:\Users\DNIEL~1\AppData\Local\Temp\ccnLX0pg.s 			page 61


 3205      4952516E 
 3205      00
 3206              	.LASF108:
 3207 03fb 41484233 		.ascii	"AHB3RSTR\000"
 3207      52535452 
 3207      00
 3208              	.LASF62:
 3209 0404 45585449 		.ascii	"EXTI15_10_IRQn\000"
 3209      31355F31 
 3209      305F4952 
 3209      516E00
 3210              	.LASF57:
 3211 0413 53504931 		.ascii	"SPI1_IRQn\000"
 3211      5F495251 
 3211      6E00
 3212              	.LASF162:
 3213 041d 49435544 		.ascii	"ICUDriver\000"
 3213      72697665 
 3213      7200
 3214              	.LASF114:
 3215 0427 41484232 		.ascii	"AHB2ENR\000"
 3215      454E5200 
 3216              	.LASF154:
 3217 042f 73746D33 		.ascii	"stm32_tim_t\000"
 3217      325F7469 
 3217      6D5F7400 
 3218              	.LASF125:
 3219 043b 41504232 		.ascii	"APB2LPENR\000"
 3219      4C50454E 
 3219      5200
 3220              	.LASF65:
 3221 0445 54494D38 		.ascii	"TIM8_BRK_TIM12_IRQn\000"
 3221      5F42524B 
 3221      5F54494D 
 3221      31325F49 
 3221      52516E00 
 3222              	.LASF158:
 3223 0459 4943555F 		.ascii	"ICU_WAITING\000"
 3223      57414954 
 3223      494E4700 
 3224              	.LASF21:
 3225 0465 53797354 		.ascii	"SysTick_IRQn\000"
 3225      69636B5F 
 3225      4952516E 
 3225      00
 3226              	.LASF49:
 3227 0472 54494D31 		.ascii	"TIM1_CC_IRQn\000"
 3227      5F43435F 
 3227      4952516E 
 3227      00
 3228              	.LASF67:
 3229 047f 54494D38 		.ascii	"TIM8_TRG_COM_TIM14_IRQn\000"
 3229      5F545247 
 3229      5F434F4D 
 3229      5F54494D 
 3229      31345F49 
 3230              	.LASF197:
ARM GAS  C:\Users\DNIEL~1\AppData\Local\Temp\ccnLX0pg.s 			page 62


 3231 0497 2E2E2F2E 		.ascii	"../../../ChibiOS/os/hal/platforms/STM32/icu_lld.c\000"
 3231      2E2F2E2E 
 3231      2F436869 
 3231      62694F53 
 3231      2F6F732F 
 3232              	.LASF199:
 3233 04c9 4952516E 		.ascii	"IRQn\000"
 3233      00
 3234              	.LASF12:
 3235 04ce 73697A65 		.ascii	"sizetype\000"
 3235      74797065 
 3235      00
 3236              	.LASF83:
 3237 04d7 4554485F 		.ascii	"ETH_IRQn\000"
 3237      4952516E 
 3237      00
 3238              	.LASF47:
 3239 04e0 54494D31 		.ascii	"TIM1_UP_TIM10_IRQn\000"
 3239      5F55505F 
 3239      54494D31 
 3239      305F4952 
 3239      516E00
 3240              	.LASF81:
 3241 04f3 444D4132 		.ascii	"DMA2_Stream3_IRQn\000"
 3241      5F537472 
 3241      65616D33 
 3241      5F495251 
 3241      6E00
 3242              	.LASF37:
 3243 0505 444D4131 		.ascii	"DMA1_Stream4_IRQn\000"
 3243      5F537472 
 3243      65616D34 
 3243      5F495251 
 3243      6E00
 3244              	.LASF80:
 3245 0517 444D4132 		.ascii	"DMA2_Stream2_IRQn\000"
 3245      5F537472 
 3245      65616D32 
 3245      5F495251 
 3245      6E00
 3246              	.LASF93:
 3247 0529 55534152 		.ascii	"USART6_IRQn\000"
 3247      54365F49 
 3247      52516E00 
 3248              	.LASF178:
 3249 0535 77696474 		.ascii	"width_cb\000"
 3249      685F6362 
 3249      00
 3250              	.LASF72:
 3251 053e 54494D35 		.ascii	"TIM5_IRQn\000"
 3251      5F495251 
 3251      6E00
 3252              	.LASF196:
 3253 0548 474E5520 		.ascii	"GNU C 4.7.4 20140401 (release) [ARM/embedded-4_7-br"
 3253      4320342E 
 3253      372E3420 
 3253      32303134 
ARM GAS  C:\Users\DNIEL~1\AppData\Local\Temp\ccnLX0pg.s 			page 63


 3253      30343031 
 3254 057b 616E6368 		.ascii	"anch revision 209195]\000"
 3254      20726576 
 3254      6973696F 
 3254      6E203230 
 3254      39313935 
 3255              	.LASF58:
 3256 0591 53504932 		.ascii	"SPI2_IRQn\000"
 3256      5F495251 
 3256      6E00
 3257              	.LASF35:
 3258 059b 444D4131 		.ascii	"DMA1_Stream2_IRQn\000"
 3258      5F537472 
 3258      65616D32 
 3258      5F495251 
 3258      6E00
 3259              	.LASF85:
 3260 05ad 43414E32 		.ascii	"CAN2_TX_IRQn\000"
 3260      5F54585F 
 3260      4952516E 
 3260      00
 3261              	.LASF121:
 3262 05ba 41484232 		.ascii	"AHB2LPENR\000"
 3262      4C50454E 
 3262      5200
 3263              	.LASF156:
 3264 05c4 4943555F 		.ascii	"ICU_STOP\000"
 3264      53544F50 
 3264      00
 3265              	.LASF170:
 3266 05cd 4943555F 		.ascii	"ICU_INPUT_ACTIVE_LOW\000"
 3266      494E5055 
 3266      545F4143 
 3266      54495645 
 3266      5F4C4F57 
 3267              	.LASF110:
 3268 05e2 41504231 		.ascii	"APB1RSTR\000"
 3268      52535452 
 3268      00
 3269              	.LASF99:
 3270 05eb 4F54475F 		.ascii	"OTG_HS_IRQn\000"
 3270      48535F49 
 3270      52516E00 
 3271              	.LASF191:
 3272 05f7 6963755F 		.ascii	"icu_lld_disable\000"
 3272      6C6C645F 
 3272      64697361 
 3272      626C6500 
 3273              	.LASF109:
 3274 0607 52455345 		.ascii	"RESERVED0\000"
 3274      52564544 
 3274      3000
 3275              	.LASF112:
 3276 0611 52455345 		.ascii	"RESERVED1\000"
 3276      52564544 
 3276      3100
 3277              	.LASF116:
ARM GAS  C:\Users\DNIEL~1\AppData\Local\Temp\ccnLX0pg.s 			page 64


 3278 061b 52455345 		.ascii	"RESERVED2\000"
 3278      52564544 
 3278      3200
 3279              	.LASF119:
 3280 0625 52455345 		.ascii	"RESERVED3\000"
 3280      52564544 
 3280      3300
 3281              	.LASF123:
 3282 062f 52455345 		.ascii	"RESERVED4\000"
 3282      52564544 
 3282      3400
 3283              	.LASF126:
 3284 0639 52455345 		.ascii	"RESERVED5\000"
 3284      52564544 
 3284      3500
 3285              	.LASF128:
 3286 0643 52455345 		.ascii	"RESERVED6\000"
 3286      52564544 
 3286      3600
 3287              	.LASF73:
 3288 064d 53504933 		.ascii	"SPI3_IRQn\000"
 3288      5F495251 
 3288      6E00
 3289              	.LASF189:
 3290 0657 69637570 		.ascii	"icup\000"
 3290      00
 3291              	.LASF82:
 3292 065c 444D4132 		.ascii	"DMA2_Stream4_IRQn\000"
 3292      5F537472 
 3292      65616D34 
 3292      5F495251 
 3292      6E00
 3293              	.LASF70:
 3294 066e 46534D43 		.ascii	"FSMC_IRQn\000"
 3294      5F495251 
 3294      6E00
 3295              	.LASF19:
 3296 0678 44656275 		.ascii	"DebugMonitor_IRQn\000"
 3296      674D6F6E 
 3296      69746F72 
 3296      5F495251 
 3296      6E00
 3297              	.LASF6:
 3298 068a 696E7433 		.ascii	"int32_t\000"
 3298      325F7400 
 3299              	.LASF2:
 3300 0692 756E7369 		.ascii	"unsigned char\000"
 3300      676E6564 
 3300      20636861 
 3300      7200
 3301              	.LASF46:
 3302 06a0 54494D31 		.ascii	"TIM1_BRK_TIM9_IRQn\000"
 3302      5F42524B 
 3302      5F54494D 
 3302      395F4952 
 3302      516E00
 3303              	.LASF192:
ARM GAS  C:\Users\DNIEL~1\AppData\Local\Temp\ccnLX0pg.s 			page 65


 3304 06b3 49544D5F 		.ascii	"ITM_RxBuffer\000"
 3304      52784275 
 3304      66666572 
 3304      00
 3305              	.LASF190:
 3306 06c0 6963755F 		.ascii	"icu_lld_enable\000"
 3306      6C6C645F 
 3306      656E6162 
 3306      6C6500
 3307              	.LASF102:
 3308 06cf 48415348 		.ascii	"HASH_RNG_IRQn\000"
 3308      5F524E47 
 3308      5F495251 
 3308      6E00
 3309              	.LASF3:
 3310 06dd 73686F72 		.ascii	"short int\000"
 3310      7420696E 
 3310      7400
 3311              	.LASF32:
 3312 06e7 45585449 		.ascii	"EXTI4_IRQn\000"
 3312      345F4952 
 3312      516E00
 3313              	.LASF122:
 3314 06f2 41484233 		.ascii	"AHB3LPENR\000"
 3314      4C50454E 
 3314      5200
 3315              	.LASF75:
 3316 06fc 55415254 		.ascii	"UART5_IRQn\000"
 3316      355F4952 
 3316      516E00
 3317              	.LASF48:
 3318 0707 54494D31 		.ascii	"TIM1_TRG_COM_TIM11_IRQn\000"
 3318      5F545247 
 3318      5F434F4D 
 3318      5F54494D 
 3318      31315F49 
 3319              	.LASF171:
 3320 071f 6963756D 		.ascii	"icumode_t\000"
 3320      6F64655F 
 3320      7400
 3321              	.LASF4:
 3322 0729 73686F72 		.ascii	"short unsigned int\000"
 3322      7420756E 
 3322      7369676E 
 3322      65642069 
 3322      6E7400
 3323              	.LASF30:
 3324 073c 45585449 		.ascii	"EXTI2_IRQn\000"
 3324      325F4952 
 3324      516E00
 3325              	.LASF118:
 3326 0747 41504232 		.ascii	"APB2ENR\000"
 3326      454E5200 
 3327              	.LASF175:
 3328 074f 69637563 		.ascii	"icuchannel_t\000"
 3328      68616E6E 
 3328      656C5F74 
ARM GAS  C:\Users\DNIEL~1\AppData\Local\Temp\ccnLX0pg.s 			page 66


 3328      00
 3329              	.LASF181:
 3330 075c 6368616E 		.ascii	"channel\000"
 3330      6E656C00 
 3331              	.LASF115:
 3332 0764 41484233 		.ascii	"AHB3ENR\000"
 3332      454E5200 
 3333              	.LASF26:
 3334 076c 464C4153 		.ascii	"FLASH_IRQn\000"
 3334      485F4952 
 3334      516E00
 3335              	.LASF89:
 3336 0777 4F54475F 		.ascii	"OTG_FS_IRQn\000"
 3336      46535F49 
 3336      52516E00 
 3337              	.LASF194:
 3338 0783 6963754F 		.ascii	"icuObjectInit\000"
 3338      626A6563 
 3338      74496E69 
 3338      7400
 3339              	.LASF60:
 3340 0791 55534152 		.ascii	"USART2_IRQn\000"
 3340      54325F49 
 3340      52516E00 
 3341              	.LASF17:
 3342 079d 55736167 		.ascii	"UsageFault_IRQn\000"
 3342      65466175 
 3342      6C745F49 
 3342      52516E00 
 3343              	.LASF183:
 3344 07ad 70726576 		.ascii	"previous_state\000"
 3344      696F7573 
 3344      5F737461 
 3344      746500
 3345              	.LASF202:
 3346 07bc 6E766963 		.ascii	"nvicDisableVector\000"
 3346      44697361 
 3346      626C6556 
 3346      6563746F 
 3346      7200
 3347              	.LASF135:
 3348 07ce 5F726573 		.ascii	"_resvd2\000"
 3348      76643200 
 3349              	.LASF137:
 3350 07d6 5F726573 		.ascii	"_resvd3\000"
 3350      76643300 
 3351              	.LASF69:
 3352 07de 444D4131 		.ascii	"DMA1_Stream7_IRQn\000"
 3352      5F537472 
 3352      65616D37 
 3352      5F495251 
 3352      6E00
 3353              	.LASF13:
 3354 07f0 63686172 		.ascii	"char\000"
 3354      00
 3355              	.LASF176:
 3356 07f5 6D6F6465 		.ascii	"mode\000"
ARM GAS  C:\Users\DNIEL~1\AppData\Local\Temp\ccnLX0pg.s 			page 67


 3356      00
 3357              	.LASF101:
 3358 07fa 43525950 		.ascii	"CRYP_IRQn\000"
 3358      5F495251 
 3358      6E00
 3359              	.LASF164:
 3360 0804 636F6E66 		.ascii	"config\000"
 3360      696700
 3361              	.LASF151:
 3362 080b 444D4152 		.ascii	"DMAR\000"
 3362      00
 3363              	.LASF77:
 3364 0810 54494D37 		.ascii	"TIM7_IRQn\000"
 3364      5F495251 
 3364      6E00
 3365              	.LASF34:
 3366 081a 444D4131 		.ascii	"DMA1_Stream1_IRQn\000"
 3366      5F537472 
 3366      65616D31 
 3366      5F495251 
 3366      6E00
 3367              	.LASF97:
 3368 082c 4F54475F 		.ascii	"OTG_HS_EP1_IN_IRQn\000"
 3368      48535F45 
 3368      50315F49 
 3368      4E5F4952 
 3368      516E00
 3369              	.LASF14:
 3370 083f 4E6F6E4D 		.ascii	"NonMaskableInt_IRQn\000"
 3370      61736B61 
 3370      626C6549 
 3370      6E745F49 
 3370      52516E00 
 3371              	.LASF117:
 3372 0853 41504231 		.ascii	"APB1ENR\000"
 3372      454E5200 
 3373              	.LASF188:
 3374 085b 6963755F 		.ascii	"icu_lld_stop\000"
 3374      6C6C645F 
 3374      73746F70 
 3374      00
 3375              	.LASF24:
 3376 0868 54414D50 		.ascii	"TAMP_STAMP_IRQn\000"
 3376      5F535441 
 3376      4D505F49 
 3376      52516E00 
 3377              	.LASF172:
 3378 0878 69637566 		.ascii	"icufreq_t\000"
 3378      7265715F 
 3378      7400
 3379              	.LASF157:
 3380 0882 4943555F 		.ascii	"ICU_READY\000"
 3380      52454144 
 3380      5900
 3381              	.LASF78:
 3382 088c 444D4132 		.ascii	"DMA2_Stream0_IRQn\000"
 3382      5F537472 
ARM GAS  C:\Users\DNIEL~1\AppData\Local\Temp\ccnLX0pg.s 			page 68


 3382      65616D30 
 3382      5F495251 
 3382      6E00
 3383              	.LASF55:
 3384 089e 49324332 		.ascii	"I2C2_EV_IRQn\000"
 3384      5F45565F 
 3384      4952516E 
 3384      00
 3385              	.LASF61:
 3386 08ab 55534152 		.ascii	"USART3_IRQn\000"
 3386      54335F49 
 3386      52516E00 
 3387              	.LASF129:
 3388 08b7 53534347 		.ascii	"SSCGR\000"
 3388      5200
 3389              	.LASF50:
 3390 08bd 54494D32 		.ascii	"TIM2_IRQn\000"
 3390      5F495251 
 3390      6E00
 3391              	.LASF28:
 3392 08c7 45585449 		.ascii	"EXTI0_IRQn\000"
 3392      305F4952 
 3392      516E00
 3393              	.LASF59:
 3394 08d2 55534152 		.ascii	"USART1_IRQn\000"
 3394      54315F49 
 3394      52516E00 
 3395              	.LASF198:
 3396 08de 433A5C55 		.ascii	"C:\\Users\\D\341niel\\git\\Smarty\\smarty\\firmware"
 3396      73657273 
 3396      5C44E16E 
 3396      69656C5C 
 3396      6769745C 
 3397 0908 00       		.ascii	"\000"
 3398              	.LASF127:
 3399 0909 42444352 		.ascii	"BDCR\000"
 3399      00
 3400              	.LASF31:
 3401 090e 45585449 		.ascii	"EXTI3_IRQn\000"
 3401      335F4952 
 3401      516E00
 3402              	.LASF173:
 3403 0919 4943555F 		.ascii	"ICU_CHANNEL_1\000"
 3403      4348414E 
 3403      4E454C5F 
 3403      3100
 3404              	.LASF174:
 3405 0927 4943555F 		.ascii	"ICU_CHANNEL_2\000"
 3405      4348414E 
 3405      4E454C5F 
 3405      3200
 3406              	.LASF100:
 3407 0935 44434D49 		.ascii	"DCMI_IRQn\000"
 3407      5F495251 
 3407      6E00
 3408              	.LASF113:
 3409 093f 41484231 		.ascii	"AHB1ENR\000"
ARM GAS  C:\Users\DNIEL~1\AppData\Local\Temp\ccnLX0pg.s 			page 69


 3409      454E5200 
 3410              	.LASF136:
 3411 0947 44494552 		.ascii	"DIER\000"
 3411      00
 3412              	.LASF184:
 3413 094c 56656374 		.ascii	"VectorA4\000"
 3413      6F724134 
 3413      00
 3414              	.LASF103:
 3415 0955 4650555F 		.ascii	"FPU_IRQn\000"
 3415      4952516E 
 3415      00
 3416              	.LASF105:
 3417 095e 43464752 		.ascii	"CFGR\000"
 3417      00
 3418              	.LASF187:
 3419 0963 6963755F 		.ascii	"icu_lld_start\000"
 3419      6C6C645F 
 3419      73746172 
 3419      7400
 3420              	.LASF165:
 3421 0971 636C6F63 		.ascii	"clock\000"
 3421      6B00
 3422              	.LASF54:
 3423 0977 49324331 		.ascii	"I2C1_ER_IRQn\000"
 3423      5F45525F 
 3423      4952516E 
 3423      00
 3424              	.LASF40:
 3425 0984 4144435F 		.ascii	"ADC_IRQn\000"
 3425      4952516E 
 3425      00
 3426              	.LASF79:
 3427 098d 444D4132 		.ascii	"DMA2_Stream1_IRQn\000"
 3427      5F537472 
 3427      65616D31 
 3427      5F495251 
 3427      6E00
 3428              	.LASF166:
 3429 099f 77636372 		.ascii	"wccrp\000"
 3429      7000
 3430              	.LASF44:
 3431 09a5 43414E31 		.ascii	"CAN1_SCE_IRQn\000"
 3431      5F534345 
 3431      5F495251 
 3431      6E00
 3432              	.LASF88:
 3433 09b3 43414E32 		.ascii	"CAN2_SCE_IRQn\000"
 3433      5F534345 
 3433      5F495251 
 3433      6E00
 3434              	.LASF27:
 3435 09c1 5243435F 		.ascii	"RCC_IRQn\000"
 3435      4952516E 
 3435      00
 3436              	.LASF98:
 3437 09ca 4F54475F 		.ascii	"OTG_HS_WKUP_IRQn\000"
ARM GAS  C:\Users\DNIEL~1\AppData\Local\Temp\ccnLX0pg.s 			page 70


 3437      48535F57 
 3437      4B55505F 
 3437      4952516E 
 3437      00
 3438              	.LASF51:
 3439 09db 54494D33 		.ascii	"TIM3_IRQn\000"
 3439      5F495251 
 3439      6E00
 3440              	.LASF29:
 3441 09e5 45585449 		.ascii	"EXTI1_IRQn\000"
 3441      315F4952 
 3441      516E00
 3442              	.LASF33:
 3443 09f0 444D4131 		.ascii	"DMA1_Stream0_IRQn\000"
 3443      5F537472 
 3443      65616D30 
 3443      5F495251 
 3443      6E00
 3444              		.ident	"GCC: (GNU Tools for ARM Embedded Processors) 4.7.4 20140401 (release) [ARM/embedded-4_7-br
ARM GAS  C:\Users\DNIEL~1\AppData\Local\Temp\ccnLX0pg.s 			page 71


DEFINED SYMBOLS
                            *ABS*:00000000 icu_lld.c
C:\Users\DNIEL~1\AppData\Local\Temp\ccnLX0pg.s:19     .text.icu_lld_serve_interrupt.constprop.0:00000000 $t
C:\Users\DNIEL~1\AppData\Local\Temp\ccnLX0pg.s:24     .text.icu_lld_serve_interrupt.constprop.0:00000000 icu_lld_serve_interrupt.constprop.0
C:\Users\DNIEL~1\AppData\Local\Temp\ccnLX0pg.s:145    .text.icu_lld_serve_interrupt.constprop.0:0000008c $d
C:\Users\DNIEL~1\AppData\Local\Temp\ccnLX0pg.s:150    .text.VectorA4:00000000 $t
C:\Users\DNIEL~1\AppData\Local\Temp\ccnLX0pg.s:156    .text.VectorA4:00000000 VectorA4
C:\Users\DNIEL~1\AppData\Local\Temp\ccnLX0pg.s:179    .text.VectorAC:00000000 $t
C:\Users\DNIEL~1\AppData\Local\Temp\ccnLX0pg.s:185    .text.VectorAC:00000000 VectorAC
C:\Users\DNIEL~1\AppData\Local\Temp\ccnLX0pg.s:208    .text.icu_lld_init:00000000 $t
C:\Users\DNIEL~1\AppData\Local\Temp\ccnLX0pg.s:214    .text.icu_lld_init:00000000 icu_lld_init
C:\Users\DNIEL~1\AppData\Local\Temp\ccnLX0pg.s:588    .bss.ICUD1:00000000 .LANCHOR0
C:\Users\DNIEL~1\AppData\Local\Temp\ccnLX0pg.s:240    .text.icu_lld_start:00000000 $t
C:\Users\DNIEL~1\AppData\Local\Temp\ccnLX0pg.s:246    .text.icu_lld_start:00000000 icu_lld_start
C:\Users\DNIEL~1\AppData\Local\Temp\ccnLX0pg.s:411    .text.icu_lld_start:000000bc $d
C:\Users\DNIEL~1\AppData\Local\Temp\ccnLX0pg.s:416    .text.icu_lld_stop:00000000 $t
C:\Users\DNIEL~1\AppData\Local\Temp\ccnLX0pg.s:422    .text.icu_lld_stop:00000000 icu_lld_stop
C:\Users\DNIEL~1\AppData\Local\Temp\ccnLX0pg.s:477    .text.icu_lld_stop:00000038 $d
C:\Users\DNIEL~1\AppData\Local\Temp\ccnLX0pg.s:482    .text.icu_lld_enable:00000000 $t
C:\Users\DNIEL~1\AppData\Local\Temp\ccnLX0pg.s:488    .text.icu_lld_enable:00000000 icu_lld_enable
C:\Users\DNIEL~1\AppData\Local\Temp\ccnLX0pg.s:559    .text.icu_lld_disable:00000000 $t
C:\Users\DNIEL~1\AppData\Local\Temp\ccnLX0pg.s:565    .text.icu_lld_disable:00000000 icu_lld_disable
C:\Users\DNIEL~1\AppData\Local\Temp\ccnLX0pg.s:591    .bss.ICUD1:00000000 ICUD1
C:\Users\DNIEL~1\AppData\Local\Temp\ccnLX0pg.s:587    .bss.ICUD1:00000000 $d
                     .debug_frame:00000010 $d
C:\Users\DNIEL~1\AppData\Local\Temp\ccnLX0pg.s:481    .text.icu_lld_stop:0000003c $t

UNDEFINED SYMBOLS
_port_irq_epilogue
icuObjectInit
nvicEnableVector
nvicDisableVector
