ARM GAS  C:\Users\DNIEL~1\AppData\Local\Temp\ccnor429.s 			page 1


   1              		.syntax unified
   2              		.cpu cortex-m4
   3              		.fpu softvfp
   4              		.eabi_attribute 20, 1
   5              		.eabi_attribute 21, 1
   6              		.eabi_attribute 23, 3
   7              		.eabi_attribute 24, 1
   8              		.eabi_attribute 25, 1
   9              		.eabi_attribute 26, 1
  10              		.eabi_attribute 30, 2
  11              		.eabi_attribute 34, 1
  12              		.eabi_attribute 18, 4
  13              		.thumb
  14              		.file	"light.c"
  15              		.text
  16              	.Ltext0:
  17              		.cfi_sections	.debug_frame
  18              		.section	.text.chprintf,"ax",%progbits
  19              		.align	2
  20              		.p2align 4,,15
  21              		.thumb
  22              		.thumb_func
  23              		.type	chprintf, %function
  24              	chprintf:
  25              	.LFB118:
  26              		.file 1 "../../../ChibiOS/os/various/chprintf.h"
  27              		.loc 1 69 0
  28              		.cfi_startproc
  29              		@ args = 4, pretend = 12, frame = 8
  30              		@ frame_needed = 0, uses_anonymous_args = 1
  31              	.LVL0:
  32 0000 0EB4     		push	{r1, r2, r3}
  33              	.LCFI0:
  34              		.cfi_def_cfa_offset 12
  35              		.cfi_offset 1, -12
  36              		.cfi_offset 2, -8
  37              		.cfi_offset 3, -4
  38 0002 00B5     		push	{lr}
  39              	.LCFI1:
  40              		.cfi_def_cfa_offset 16
  41              		.cfi_offset 14, -16
  42 0004 82B0     		sub	sp, sp, #8
  43              	.LCFI2:
  44              		.cfi_def_cfa_offset 24
  45              		.loc 1 69 0
  46 0006 03AB     		add	r3, sp, #12
  47 0008 53F8041B 		ldr	r1, [r3], #4
  48              		.loc 1 73 0
  49 000c 1A46     		mov	r2, r3
  50              		.loc 1 72 0
  51 000e 0193     		str	r3, [sp, #4]
  52              		.loc 1 73 0
  53 0010 FFF7FEFF 		bl	chvprintf
  54              	.LVL1:
  55              		.loc 1 75 0
  56 0014 02B0     		add	sp, sp, #8
  57 0016 5DF804EB 		pop	{lr}
ARM GAS  C:\Users\DNIEL~1\AppData\Local\Temp\ccnor429.s 			page 2


  58 001a 03B0     		add	sp, sp, #12
  59 001c 7047     		bx	lr
  60              		.cfi_endproc
  61              	.LFE118:
  62              		.size	chprintf, .-chprintf
  63 001e 00BF     		.section	.text.lightInit,"ax",%progbits
  64              		.align	2
  65              		.p2align 4,,15
  66              		.global	lightInit
  67              		.thumb
  68              		.thumb_func
  69              		.type	lightInit, %function
  70              	lightInit:
  71              	.LFB120:
  72              		.file 2 "src/light.c"
  73              		.loc 2 58 0
  74              		.cfi_startproc
  75              		@ args = 0, pretend = 0, frame = 0
  76              		@ frame_needed = 0, uses_anonymous_args = 0
  77              		@ link register save eliminated.
  78              		.loc 2 59 0
  79 0000 40F20000 		movw	r0, #:lower16:PWMD4
  80 0004 40F20001 		movw	r1, #:lower16:.LANCHOR0
  81 0008 C0F20000 		movt	r0, #:upper16:PWMD4
  82 000c C0F20001 		movt	r1, #:upper16:.LANCHOR0
  83              		.loc 2 65 0
  84              		.loc 2 59 0
  85 0010 FFF7FEBF 		b	pwmStart
  86              	.LVL2:
  87              		.cfi_endproc
  88              	.LFE120:
  89              		.size	lightInit, .-lightInit
  90 0014 AFF30080 		.section	.text.lightCalc,"ax",%progbits
  90      AFF30080 
  90      AFF30080 
  91              		.align	2
  92              		.p2align 4,,15
  93              		.global	lightCalc
  94              		.thumb
  95              		.thumb_func
  96              		.type	lightCalc, %function
  97              	lightCalc:
  98              	.LFB121:
  99              		.loc 2 67 0
 100              		.cfi_startproc
 101              		@ args = 0, pretend = 0, frame = 0
 102              		@ frame_needed = 0, uses_anonymous_args = 0
 103 0000 38B5     		push	{r3, r4, r5, lr}
 104              	.LCFI3:
 105              		.cfi_def_cfa_offset 16
 106              		.cfi_offset 3, -16
 107              		.cfi_offset 4, -12
 108              		.cfi_offset 5, -8
 109              		.cfi_offset 14, -4
 110              		.loc 2 69 0
 111 0002 40F20003 		movw	r3, #:lower16:vtlist
 112 0006 C0F20003 		movt	r3, #:upper16:vtlist
ARM GAS  C:\Users\DNIEL~1\AppData\Local\Temp\ccnor429.s 			page 3


 113 000a 48F21962 		movw	r2, #34329
 114 000e DD68     		ldr	r5, [r3, #12]
 115              		.loc 2 72 0
 116 0010 40F20004 		movw	r4, #:lower16:PWMD4
 117 0014 C0F20004 		movt	r4, #:upper16:PWMD4
 118              		.loc 2 69 0
 119 0018 E808     		lsrs	r0, r5, #3
 120 001a C1F66102 		movt	r2, 6241
 121 001e 40F20003 		movw	r3, #:lower16:.LANCHOR1
 122 0022 A2FB0012 		umull	r1, r2, r2, r0
 123 0026 C0F20003 		movt	r3, #:upper16:.LANCHOR1
 124 002a 5508     		lsrs	r5, r2, #1
 125              		.loc 2 72 0
 126 002c 2046     		mov	r0, r4
 127 002e 0021     		movs	r1, #0
 128 0030 2289     		ldrh	r2, [r4, #8]
 129              		.loc 2 69 0
 130 0032 1D60     		str	r5, [r3, #0]
 131              		.loc 2 72 0
 132 0034 FFF7FEFF 		bl	pwmEnableChannel
 133              	.LVL3:
 134              		.loc 2 78 0
 135 0038 2389     		ldrh	r3, [r4, #8]
 136 003a 2046     		mov	r0, r4
 137 003c 0221     		movs	r1, #2
 138 003e 5A08     		lsrs	r2, r3, #1
 139 0040 FFF7FEFF 		bl	pwmEnableChannel
 140              	.LVL4:
 141              		.loc 2 81 0
 142 0044 2189     		ldrh	r1, [r4, #8]
 143 0046 46F26760 		movw	r0, #26215
 144 004a C6F26660 		movt	r0, 26214
 145 004e 80FB0112 		smull	r1, r2, r0, r1
 146 0052 9208     		lsrs	r2, r2, #2
 147 0054 2046     		mov	r0, r4
 148 0056 0321     		movs	r1, #3
 149              		.loc 2 82 0
 150 0058 BDE83840 		pop	{r3, r4, r5, lr}
 151              		.loc 2 81 0
 152 005c FFF7FEBF 		b	pwmEnableChannel
 153              	.LVL5:
 154              		.cfi_endproc
 155              	.LFE121:
 156              		.size	lightCalc, .-lightCalc
 157              		.section	.text.cmd_lightvalues,"ax",%progbits
 158              		.align	2
 159              		.p2align 4,,15
 160              		.global	cmd_lightvalues
 161              		.thumb
 162              		.thumb_func
 163              		.type	cmd_lightvalues, %function
 164              	cmd_lightvalues:
 165              	.LFB122:
 166              		.loc 2 84 0
 167              		.cfi_startproc
 168              		@ args = 0, pretend = 0, frame = 0
 169              		@ frame_needed = 0, uses_anonymous_args = 0
ARM GAS  C:\Users\DNIEL~1\AppData\Local\Temp\ccnor429.s 			page 4


 170              	.LVL6:
 171 0000 38B5     		push	{r3, r4, r5, lr}
 172              	.LCFI4:
 173              		.cfi_def_cfa_offset 16
 174              		.cfi_offset 3, -16
 175              		.cfi_offset 4, -12
 176              		.cfi_offset 5, -8
 177              		.cfi_offset 14, -4
 178              		.loc 2 88 0
 179 0002 1249     		ldr	r1, .L8
 180              	.LVL7:
 181              		.loc 2 94 0
 182 0004 124D     		ldr	r5, .L8+4
 183              		.loc 2 84 0
 184 0006 0446     		mov	r4, r0
 185              		.loc 2 88 0
 186 0008 FFF7FEFF 		bl	chprintf
 187              	.LVL8:
 188              		.loc 2 89 0
 189 000c 2046     		mov	r0, r4
 190 000e 1149     		ldr	r1, .L8+8
 191 0010 FFF7FEFF 		bl	chprintf
 192              	.LVL9:
 193              		.loc 2 90 0
 194 0014 0EE0     		b	.L5
 195              	.LVL10:
 196              	.L6:
 197              		.loc 2 91 0
 198 0016 FFF7FEFF 		bl	chprintf
 199              	.LVL11:
 200              		.loc 2 93 0
 201 001a 2046     		mov	r0, r4
 202 001c 0E49     		ldr	r1, .L8+12
 203 001e FFF7FEFF 		bl	chprintf
 204              	.LVL12:
 205              		.loc 2 94 0
 206 0022 2046     		mov	r0, r4
 207 0024 0D49     		ldr	r1, .L8+16
 208 0026 2A68     		ldr	r2, [r5, #0]
 209 0028 FFF7FEFF 		bl	chprintf
 210              	.LVL13:
 211              		.loc 2 95 0
 212 002c 4FF47A70 		mov	r0, #1000
 213 0030 FFF7FEFF 		bl	chThdSleep
 214              	.LVL14:
 215              	.L5:
 216              		.loc 2 90 0 discriminator 1
 217 0034 2368     		ldr	r3, [r4, #0]
 218 0036 0021     		movs	r1, #0
 219 0038 5A69     		ldr	r2, [r3, #20]
 220 003a 2046     		mov	r0, r4
 221 003c 9047     		blx	r2
 222              	.LVL15:
 223              		.loc 2 91 0 discriminator 1
 224 003e 0022     		movs	r2, #0
 225              		.loc 2 90 0 discriminator 1
 226 0040 0130     		adds	r0, r0, #1
ARM GAS  C:\Users\DNIEL~1\AppData\Local\Temp\ccnor429.s 			page 5


 227              		.loc 2 91 0 discriminator 1
 228 0042 1346     		mov	r3, r2
 229 0044 0649     		ldr	r1, .L8+20
 230 0046 2046     		mov	r0, r4
 231              		.loc 2 90 0 discriminator 1
 232 0048 E5D0     		beq	.L6
 233              	.LVL16:
 234              		.loc 2 97 0
 235 004a 38BD     		pop	{r3, r4, r5, pc}
 236              	.L9:
 237              		.align	2
 238              	.L8:
 239 004c 00000000 		.word	.LC0
 240 0050 00000000 		.word	.LANCHOR1
 241 0054 04000000 		.word	.LC1
 242 0058 18000000 		.word	.LC3
 243 005c 2C000000 		.word	.LC4
 244 0060 0C000000 		.word	.LC2
 245              		.cfi_endproc
 246              	.LFE122:
 247              		.size	cmd_lightvalues, .-cmd_lightvalues
 248 0064 AFF30080 		.section	.bss.ido,"aw",%nobits
 248      AFF30080 
 248      AFF30080 
 249              		.align	2
 250              		.set	.LANCHOR1,. + 0
 251              		.type	ido, %object
 252              		.size	ido, 4
 253              	ido:
 254 0000 00000000 		.space	4
 255              		.section	.data.pwmcfg,"aw",%progbits
 256              		.align	2
 257              		.set	.LANCHOR0,. + 0
 258              		.type	pwmcfg, %object
 259              		.size	pwmcfg, 52
 260              	pwmcfg:
 261 0000 40420F00 		.word	1000000
 262 0004 E803     		.short	1000
 263 0006 0000     		.space	2
 264 0008 00000000 		.word	0
 265 000c 01000000 		.word	1
 266 0010 00000000 		.word	0
 267 0014 01000000 		.word	1
 268 0018 00000000 		.word	0
 269 001c 01000000 		.word	1
 270 0020 00000000 		.word	0
 271 0024 01000000 		.word	1
 272 0028 00000000 		.word	0
 273 002c 00000000 		.word	0
 274 0030 00000000 		.word	0
 275              		.section	.rodata.str1.4,"aMS",%progbits,1
 276              		.align	2
 277              	.LC0:
 278 0000 1B6300   		.ascii	"\033c\000"
 279 0003 00       		.space	1
 280              	.LC1:
 281 0004 1B5B324A 		.ascii	"\033[2J\000"
ARM GAS  C:\Users\DNIEL~1\AppData\Local\Temp\ccnor429.s 			page 6


 281      00
 282 0009 000000   		.space	3
 283              	.LC2:
 284 000c 1B5B2564 		.ascii	"\033[%d;%dH\000"
 284      3B256448 
 284      00
 285 0015 000000   		.space	3
 286              	.LC3:
 287 0018 2D2D2D2D 		.ascii	"---- PWM START ----\000"
 287      2050574D 
 287      20535441 
 287      5254202D 
 287      2D2D2D00 
 288              	.LC4:
 289 002c 69646F20 		.ascii	"ido : %x \015\012\000"
 289      3A202578 
 289      200D0A00 
 290              		.text
 291              	.Letext0:
 292              		.file 3 "c:\\chibistudio\\tools\\gnu tools arm embedded\\4.7 2014q2\\bin\\../lib/gcc/arm-none-eabi
 293              		.file 4 "c:\\chibistudio\\tools\\gnu tools arm embedded\\4.7 2014q2\\bin\\../lib/gcc/arm-none-eabi
 294              		.file 5 "../../../ChibiOS/os/ports/GCC/ARMCMx/chtypes.h"
 295              		.file 6 "../../../ChibiOS/os/kernel/include/chlists.h"
 296              		.file 7 "../../../ChibiOS/os/kernel/include/chthreads.h"
 297              		.file 8 "../../../ChibiOS/os/ports/GCC/ARMCMx/chcore_v7m.h"
 298              		.file 9 "../../../ChibiOS/os/kernel/include/chvt.h"
 299              		.file 10 "../../../ChibiOS/os/kernel/include/chschd.h"
 300              		.file 11 "../../../ChibiOS/os/kernel/include/chsem.h"
 301              		.file 12 "../../../ChibiOS/os/kernel/include/chmtx.h"
 302              		.file 13 "../../../ChibiOS/os/kernel/include/chevents.h"
 303              		.file 14 "../../../ChibiOS/os/kernel/include/chstreams.h"
 304              		.file 15 "../../../ChibiOS/os/hal/platforms/STM32F4xx/stm32f4xx.h"
 305              		.file 16 "../../../ChibiOS/os/hal/include/io_channel.h"
 306              		.file 17 "../../../ChibiOS/os/hal/include/can.h"
 307              		.file 18 "../../../ChibiOS/os/hal/platforms/STM32/can_lld.h"
 308              		.file 19 "../../../ChibiOS/os/hal/platforms/STM32/TIMv1/stm32_tim.h"
 309              		.file 20 "../../../ChibiOS/os/hal/include/pwm.h"
 310              		.file 21 "../../../ChibiOS/os/hal/platforms/STM32/TIMv1/pwm_lld.h"
 311              		.file 22 "c:\\chibistudio\\tools\\gnu tools arm embedded\\4.7 2014q2\\bin\\../lib/gcc/arm-none-eab
 312              		.file 23 "<built-in>"
 313              		.file 24 "../../../ChibiOS/os/ports/common/ARMCMx/CMSIS/include/core_cm4.h"
 314              		.section	.debug_info,"",%progbits
 315              	.Ldebug_info0:
 316 0000 19130000 		.4byte	0x1319
 317 0004 0200     		.2byte	0x2
 318 0006 00000000 		.4byte	.Ldebug_abbrev0
 319 000a 04       		.byte	0x4
 320 000b 01       		.uleb128 0x1
 321 000c 97030000 		.4byte	.LASF196
 322 0010 01       		.byte	0x1
 323 0011 A2010000 		.4byte	.LASF197
 324 0015 B6060000 		.4byte	.LASF198
 325 0019 00000000 		.4byte	.Ldebug_ranges0+0
 326 001d 00000000 		.4byte	0
 327 0021 00000000 		.4byte	0
 328 0025 00000000 		.4byte	.Ldebug_line0
 329 0029 02       		.uleb128 0x2
ARM GAS  C:\Users\DNIEL~1\AppData\Local\Temp\ccnor429.s 			page 7


 330 002a 04       		.byte	0x4
 331 002b 05       		.byte	0x5
 332 002c 696E7400 		.ascii	"int\000"
 333 0030 03       		.uleb128 0x3
 334 0031 12000000 		.4byte	.LASF2
 335 0035 03       		.byte	0x3
 336 0036 D5       		.byte	0xd5
 337 0037 3B000000 		.4byte	0x3b
 338 003b 04       		.uleb128 0x4
 339 003c 04       		.byte	0x4
 340 003d 07       		.byte	0x7
 341 003e 5B020000 		.4byte	.LASF0
 342 0042 04       		.uleb128 0x4
 343 0043 01       		.byte	0x1
 344 0044 06       		.byte	0x6
 345 0045 FE000000 		.4byte	.LASF1
 346 0049 03       		.uleb128 0x3
 347 004a FF060000 		.4byte	.LASF3
 348 004e 04       		.byte	0x4
 349 004f 2A       		.byte	0x2a
 350 0050 54000000 		.4byte	0x54
 351 0054 04       		.uleb128 0x4
 352 0055 01       		.byte	0x1
 353 0056 08       		.byte	0x8
 354 0057 B0040000 		.4byte	.LASF4
 355 005b 04       		.uleb128 0x4
 356 005c 02       		.byte	0x2
 357 005d 05       		.byte	0x5
 358 005e F2040000 		.4byte	.LASF5
 359 0062 03       		.uleb128 0x3
 360 0063 C1010000 		.4byte	.LASF6
 361 0067 04       		.byte	0x4
 362 0068 36       		.byte	0x36
 363 0069 6D000000 		.4byte	0x6d
 364 006d 04       		.uleb128 0x4
 365 006e 02       		.byte	0x2
 366 006f 07       		.byte	0x7
 367 0070 BB020000 		.4byte	.LASF7
 368 0074 03       		.uleb128 0x3
 369 0075 A8040000 		.4byte	.LASF8
 370 0079 04       		.byte	0x4
 371 007a 4F       		.byte	0x4f
 372 007b 7F000000 		.4byte	0x7f
 373 007f 04       		.uleb128 0x4
 374 0080 04       		.byte	0x4
 375 0081 05       		.byte	0x5
 376 0082 66000000 		.4byte	.LASF9
 377 0086 03       		.uleb128 0x3
 378 0087 7C050000 		.4byte	.LASF10
 379 008b 04       		.byte	0x4
 380 008c 50       		.byte	0x50
 381 008d 91000000 		.4byte	0x91
 382 0091 04       		.uleb128 0x4
 383 0092 04       		.byte	0x4
 384 0093 07       		.byte	0x7
 385 0094 23010000 		.4byte	.LASF11
 386 0098 04       		.uleb128 0x4
ARM GAS  C:\Users\DNIEL~1\AppData\Local\Temp\ccnor429.s 			page 8


 387 0099 08       		.byte	0x8
 388 009a 05       		.byte	0x5
 389 009b B3010000 		.4byte	.LASF12
 390 009f 03       		.uleb128 0x3
 391 00a0 20000000 		.4byte	.LASF13
 392 00a4 04       		.byte	0x4
 393 00a5 78       		.byte	0x78
 394 00a6 AA000000 		.4byte	0xaa
 395 00aa 04       		.uleb128 0x4
 396 00ab 08       		.byte	0x8
 397 00ac 07       		.byte	0x7
 398 00ad 3D010000 		.4byte	.LASF14
 399 00b1 04       		.uleb128 0x4
 400 00b2 01       		.byte	0x1
 401 00b3 02       		.byte	0x2
 402 00b4 A2040000 		.4byte	.LASF15
 403 00b8 03       		.uleb128 0x3
 404 00b9 0D030000 		.4byte	.LASF16
 405 00bd 05       		.byte	0x5
 406 00be 2C       		.byte	0x2c
 407 00bf 49000000 		.4byte	0x49
 408 00c3 03       		.uleb128 0x3
 409 00c4 83010000 		.4byte	.LASF17
 410 00c8 05       		.byte	0x5
 411 00c9 2D       		.byte	0x2d
 412 00ca 49000000 		.4byte	0x49
 413 00ce 03       		.uleb128 0x3
 414 00cf 5A040000 		.4byte	.LASF18
 415 00d3 05       		.byte	0x5
 416 00d4 2E       		.byte	0x2e
 417 00d5 49000000 		.4byte	0x49
 418 00d9 03       		.uleb128 0x3
 419 00da 61010000 		.4byte	.LASF19
 420 00de 05       		.byte	0x5
 421 00df 2F       		.byte	0x2f
 422 00e0 49000000 		.4byte	0x49
 423 00e4 03       		.uleb128 0x3
 424 00e5 8F040000 		.4byte	.LASF20
 425 00e9 05       		.byte	0x5
 426 00ea 30       		.byte	0x30
 427 00eb 86000000 		.4byte	0x86
 428 00ef 03       		.uleb128 0x3
 429 00f0 F8020000 		.4byte	.LASF21
 430 00f4 05       		.byte	0x5
 431 00f5 31       		.byte	0x31
 432 00f6 74000000 		.4byte	0x74
 433 00fa 03       		.uleb128 0x3
 434 00fb 31030000 		.4byte	.LASF22
 435 00ff 05       		.byte	0x5
 436 0100 33       		.byte	0x33
 437 0101 86000000 		.4byte	0x86
 438 0105 03       		.uleb128 0x3
 439 0106 78060000 		.4byte	.LASF23
 440 010a 05       		.byte	0x5
 441 010b 34       		.byte	0x34
 442 010c 86000000 		.4byte	0x86
 443 0110 03       		.uleb128 0x3
ARM GAS  C:\Users\DNIEL~1\AppData\Local\Temp\ccnor429.s 			page 9


 444 0111 ED050000 		.4byte	.LASF24
 445 0115 05       		.byte	0x5
 446 0116 35       		.byte	0x35
 447 0117 86000000 		.4byte	0x86
 448 011b 03       		.uleb128 0x3
 449 011c 55020000 		.4byte	.LASF25
 450 0120 05       		.byte	0x5
 451 0121 36       		.byte	0x36
 452 0122 74000000 		.4byte	0x74
 453 0126 03       		.uleb128 0x3
 454 0127 55050000 		.4byte	.LASF26
 455 012b 06       		.byte	0x6
 456 012c 2A       		.byte	0x2a
 457 012d 31010000 		.4byte	0x131
 458 0131 05       		.uleb128 0x5
 459 0132 55050000 		.4byte	.LASF26
 460 0136 48       		.byte	0x48
 461 0137 07       		.byte	0x7
 462 0138 5E       		.byte	0x5e
 463 0139 56020000 		.4byte	0x256
 464 013d 06       		.uleb128 0x6
 465 013e 24050000 		.4byte	.LASF27
 466 0142 07       		.byte	0x7
 467 0143 5F       		.byte	0x5f
 468 0144 7B020000 		.4byte	0x27b
 469 0148 02       		.byte	0x2
 470 0149 23       		.byte	0x23
 471 014a 00       		.uleb128 0
 472 014b 06       		.uleb128 0x6
 473 014c 60030000 		.4byte	.LASF28
 474 0150 07       		.byte	0x7
 475 0151 61       		.byte	0x61
 476 0152 7B020000 		.4byte	0x27b
 477 0156 02       		.byte	0x2
 478 0157 23       		.byte	0x23
 479 0158 04       		.uleb128 0x4
 480 0159 06       		.uleb128 0x6
 481 015a CC000000 		.4byte	.LASF29
 482 015e 07       		.byte	0x7
 483 015f 63       		.byte	0x63
 484 0160 E4000000 		.4byte	0xe4
 485 0164 02       		.byte	0x2
 486 0165 23       		.byte	0x23
 487 0166 08       		.uleb128 0x8
 488 0167 06       		.uleb128 0x6
 489 0168 8A070000 		.4byte	.LASF30
 490 016c 07       		.byte	0x7
 491 016d 64       		.byte	0x64
 492 016e 54030000 		.4byte	0x354
 493 0172 02       		.byte	0x2
 494 0173 23       		.byte	0x23
 495 0174 0C       		.uleb128 0xc
 496 0175 06       		.uleb128 0x6
 497 0176 E6010000 		.4byte	.LASF31
 498 017a 07       		.byte	0x7
 499 017b 66       		.byte	0x66
 500 017c 7B020000 		.4byte	0x27b
ARM GAS  C:\Users\DNIEL~1\AppData\Local\Temp\ccnor429.s 			page 10


 501 0180 02       		.byte	0x2
 502 0181 23       		.byte	0x23
 503 0182 10       		.uleb128 0x10
 504 0183 06       		.uleb128 0x6
 505 0184 0E050000 		.4byte	.LASF32
 506 0188 07       		.byte	0x7
 507 0189 67       		.byte	0x67
 508 018a 7B020000 		.4byte	0x27b
 509 018e 02       		.byte	0x2
 510 018f 23       		.byte	0x23
 511 0190 14       		.uleb128 0x14
 512 0191 06       		.uleb128 0x6
 513 0192 9B060000 		.4byte	.LASF33
 514 0196 07       		.byte	0x7
 515 0197 6E       		.byte	0x6e
 516 0198 EA050000 		.4byte	0x5ea
 517 019c 02       		.byte	0x2
 518 019d 23       		.byte	0x23
 519 019e 18       		.uleb128 0x18
 520 019f 06       		.uleb128 0x6
 521 01a0 FC040000 		.4byte	.LASF34
 522 01a4 07       		.byte	0x7
 523 01a5 79       		.byte	0x79
 524 01a6 C3000000 		.4byte	0xc3
 525 01aa 02       		.byte	0x2
 526 01ab 23       		.byte	0x23
 527 01ac 1C       		.uleb128 0x1c
 528 01ad 06       		.uleb128 0x6
 529 01ae 43050000 		.4byte	.LASF35
 530 01b2 07       		.byte	0x7
 531 01b3 7D       		.byte	0x7d
 532 01b4 B8000000 		.4byte	0xb8
 533 01b8 02       		.byte	0x2
 534 01b9 23       		.byte	0x23
 535 01ba 1D       		.uleb128 0x1d
 536 01bb 06       		.uleb128 0x6
 537 01bc FA030000 		.4byte	.LASF36
 538 01c0 07       		.byte	0x7
 539 01c1 82       		.byte	0x82
 540 01c2 CE000000 		.4byte	0xce
 541 01c6 02       		.byte	0x2
 542 01c7 23       		.byte	0x23
 543 01c8 1E       		.uleb128 0x1e
 544 01c9 06       		.uleb128 0x6
 545 01ca 04050000 		.4byte	.LASF37
 546 01ce 07       		.byte	0x7
 547 01cf 88       		.byte	0x88
 548 01d0 D9000000 		.4byte	0xd9
 549 01d4 02       		.byte	0x2
 550 01d5 23       		.byte	0x23
 551 01d6 1F       		.uleb128 0x1f
 552 01d7 06       		.uleb128 0x6
 553 01d8 26060000 		.4byte	.LASF38
 554 01dc 07       		.byte	0x7
 555 01dd 8F       		.byte	0x8f
 556 01de 45040000 		.4byte	0x445
 557 01e2 02       		.byte	0x2
ARM GAS  C:\Users\DNIEL~1\AppData\Local\Temp\ccnor429.s 			page 11


 558 01e3 23       		.byte	0x23
 559 01e4 20       		.uleb128 0x20
 560 01e5 07       		.uleb128 0x7
 561 01e6 705F7500 		.ascii	"p_u\000"
 562 01ea 07       		.byte	0x7
 563 01eb B4       		.byte	0xb4
 564 01ec B5050000 		.4byte	0x5b5
 565 01f0 02       		.byte	0x2
 566 01f1 23       		.byte	0x23
 567 01f2 24       		.uleb128 0x24
 568 01f3 06       		.uleb128 0x6
 569 01f4 90070000 		.4byte	.LASF39
 570 01f8 07       		.byte	0x7
 571 01f9 B9       		.byte	0xb9
 572 01fa A3020000 		.4byte	0x2a3
 573 01fe 02       		.byte	0x2
 574 01ff 23       		.byte	0x23
 575 0200 28       		.uleb128 0x28
 576 0201 06       		.uleb128 0x6
 577 0202 55060000 		.4byte	.LASF40
 578 0206 07       		.byte	0x7
 579 0207 BF       		.byte	0xbf
 580 0208 81020000 		.4byte	0x281
 581 020c 02       		.byte	0x2
 582 020d 23       		.byte	0x23
 583 020e 2C       		.uleb128 0x2c
 584 020f 06       		.uleb128 0x6
 585 0210 65070000 		.4byte	.LASF41
 586 0214 07       		.byte	0x7
 587 0215 C3       		.byte	0xc3
 588 0216 EF000000 		.4byte	0xef
 589 021a 02       		.byte	0x2
 590 021b 23       		.byte	0x23
 591 021c 34       		.uleb128 0x34
 592 021d 06       		.uleb128 0x6
 593 021e 66050000 		.4byte	.LASF42
 594 0222 07       		.byte	0x7
 595 0223 C9       		.byte	0xc9
 596 0224 FA000000 		.4byte	0xfa
 597 0228 02       		.byte	0x2
 598 0229 23       		.byte	0x23
 599 022a 38       		.uleb128 0x38
 600 022b 06       		.uleb128 0x6
 601 022c E8040000 		.4byte	.LASF43
 602 0230 07       		.byte	0x7
 603 0231 D0       		.byte	0xd0
 604 0232 FC050000 		.4byte	0x5fc
 605 0236 02       		.byte	0x2
 606 0237 23       		.byte	0x23
 607 0238 3C       		.uleb128 0x3c
 608 0239 06       		.uleb128 0x6
 609 023a F7050000 		.4byte	.LASF44
 610 023e 07       		.byte	0x7
 611 023f D4       		.byte	0xd4
 612 0240 E4000000 		.4byte	0xe4
 613 0244 02       		.byte	0x2
 614 0245 23       		.byte	0x23
ARM GAS  C:\Users\DNIEL~1\AppData\Local\Temp\ccnor429.s 			page 12


 615 0246 40       		.uleb128 0x40
 616 0247 06       		.uleb128 0x6
 617 0248 35010000 		.4byte	.LASF45
 618 024c 07       		.byte	0x7
 619 024d DA       		.byte	0xda
 620 024e B9020000 		.4byte	0x2b9
 621 0252 02       		.byte	0x2
 622 0253 23       		.byte	0x23
 623 0254 44       		.uleb128 0x44
 624 0255 00       		.byte	0
 625 0256 08       		.uleb128 0x8
 626 0257 08       		.byte	0x8
 627 0258 06       		.byte	0x6
 628 0259 61       		.byte	0x61
 629 025a 7B020000 		.4byte	0x27b
 630 025e 06       		.uleb128 0x6
 631 025f 24050000 		.4byte	.LASF27
 632 0263 06       		.byte	0x6
 633 0264 62       		.byte	0x62
 634 0265 7B020000 		.4byte	0x27b
 635 0269 02       		.byte	0x2
 636 026a 23       		.byte	0x23
 637 026b 00       		.uleb128 0
 638 026c 06       		.uleb128 0x6
 639 026d 60030000 		.4byte	.LASF28
 640 0271 06       		.byte	0x6
 641 0272 64       		.byte	0x64
 642 0273 7B020000 		.4byte	0x27b
 643 0277 02       		.byte	0x2
 644 0278 23       		.byte	0x23
 645 0279 04       		.uleb128 0x4
 646 027a 00       		.byte	0
 647 027b 09       		.uleb128 0x9
 648 027c 04       		.byte	0x4
 649 027d 26010000 		.4byte	0x126
 650 0281 03       		.uleb128 0x3
 651 0282 84000000 		.4byte	.LASF46
 652 0286 06       		.byte	0x6
 653 0287 66       		.byte	0x66
 654 0288 56020000 		.4byte	0x256
 655 028c 08       		.uleb128 0x8
 656 028d 04       		.byte	0x4
 657 028e 06       		.byte	0x6
 658 028f 6B       		.byte	0x6b
 659 0290 A3020000 		.4byte	0x2a3
 660 0294 06       		.uleb128 0x6
 661 0295 24050000 		.4byte	.LASF27
 662 0299 06       		.byte	0x6
 663 029a 6D       		.byte	0x6d
 664 029b 7B020000 		.4byte	0x27b
 665 029f 02       		.byte	0x2
 666 02a0 23       		.byte	0x23
 667 02a1 00       		.uleb128 0
 668 02a2 00       		.byte	0
 669 02a3 03       		.uleb128 0x3
 670 02a4 15030000 		.4byte	.LASF47
 671 02a8 06       		.byte	0x6
ARM GAS  C:\Users\DNIEL~1\AppData\Local\Temp\ccnor429.s 			page 13


 672 02a9 70       		.byte	0x70
 673 02aa 8C020000 		.4byte	0x28c
 674 02ae 03       		.uleb128 0x3
 675 02af 1B020000 		.4byte	.LASF48
 676 02b3 08       		.byte	0x8
 677 02b4 E5       		.byte	0xe5
 678 02b5 B9020000 		.4byte	0x2b9
 679 02b9 0A       		.uleb128 0xa
 680 02ba 04       		.byte	0x4
 681 02bb 03       		.uleb128 0x3
 682 02bc 42030000 		.4byte	.LASF49
 683 02c0 08       		.byte	0x8
 684 02c1 EB       		.byte	0xeb
 685 02c2 9F000000 		.4byte	0x9f
 686 02c6 0B       		.uleb128 0xb
 687 02c7 4E060000 		.4byte	.LASF50
 688 02cb 24       		.byte	0x24
 689 02cc 08       		.byte	0x8
 690 02cd 0C01     		.2byte	0x10c
 691 02cf 54030000 		.4byte	0x354
 692 02d3 0C       		.uleb128 0xc
 693 02d4 723400   		.ascii	"r4\000"
 694 02d7 08       		.byte	0x8
 695 02d8 1F01     		.2byte	0x11f
 696 02da AE020000 		.4byte	0x2ae
 697 02de 02       		.byte	0x2
 698 02df 23       		.byte	0x23
 699 02e0 00       		.uleb128 0
 700 02e1 0C       		.uleb128 0xc
 701 02e2 723500   		.ascii	"r5\000"
 702 02e5 08       		.byte	0x8
 703 02e6 2001     		.2byte	0x120
 704 02e8 AE020000 		.4byte	0x2ae
 705 02ec 02       		.byte	0x2
 706 02ed 23       		.byte	0x23
 707 02ee 04       		.uleb128 0x4
 708 02ef 0C       		.uleb128 0xc
 709 02f0 723600   		.ascii	"r6\000"
 710 02f3 08       		.byte	0x8
 711 02f4 2101     		.2byte	0x121
 712 02f6 AE020000 		.4byte	0x2ae
 713 02fa 02       		.byte	0x2
 714 02fb 23       		.byte	0x23
 715 02fc 08       		.uleb128 0x8
 716 02fd 0C       		.uleb128 0xc
 717 02fe 723700   		.ascii	"r7\000"
 718 0301 08       		.byte	0x8
 719 0302 2201     		.2byte	0x122
 720 0304 AE020000 		.4byte	0x2ae
 721 0308 02       		.byte	0x2
 722 0309 23       		.byte	0x23
 723 030a 0C       		.uleb128 0xc
 724 030b 0C       		.uleb128 0xc
 725 030c 723800   		.ascii	"r8\000"
 726 030f 08       		.byte	0x8
 727 0310 2301     		.2byte	0x123
 728 0312 AE020000 		.4byte	0x2ae
ARM GAS  C:\Users\DNIEL~1\AppData\Local\Temp\ccnor429.s 			page 14


 729 0316 02       		.byte	0x2
 730 0317 23       		.byte	0x23
 731 0318 10       		.uleb128 0x10
 732 0319 0C       		.uleb128 0xc
 733 031a 723900   		.ascii	"r9\000"
 734 031d 08       		.byte	0x8
 735 031e 2401     		.2byte	0x124
 736 0320 AE020000 		.4byte	0x2ae
 737 0324 02       		.byte	0x2
 738 0325 23       		.byte	0x23
 739 0326 14       		.uleb128 0x14
 740 0327 0C       		.uleb128 0xc
 741 0328 72313000 		.ascii	"r10\000"
 742 032c 08       		.byte	0x8
 743 032d 2501     		.2byte	0x125
 744 032f AE020000 		.4byte	0x2ae
 745 0333 02       		.byte	0x2
 746 0334 23       		.byte	0x23
 747 0335 18       		.uleb128 0x18
 748 0336 0C       		.uleb128 0xc
 749 0337 72313100 		.ascii	"r11\000"
 750 033b 08       		.byte	0x8
 751 033c 2601     		.2byte	0x126
 752 033e AE020000 		.4byte	0x2ae
 753 0342 02       		.byte	0x2
 754 0343 23       		.byte	0x23
 755 0344 1C       		.uleb128 0x1c
 756 0345 0C       		.uleb128 0xc
 757 0346 6C7200   		.ascii	"lr\000"
 758 0349 08       		.byte	0x8
 759 034a 2701     		.2byte	0x127
 760 034c AE020000 		.4byte	0x2ae
 761 0350 02       		.byte	0x2
 762 0351 23       		.byte	0x23
 763 0352 20       		.uleb128 0x20
 764 0353 00       		.byte	0
 765 0354 0B       		.uleb128 0xb
 766 0355 B3020000 		.4byte	.LASF51
 767 0359 04       		.byte	0x4
 768 035a 08       		.byte	0x8
 769 035b 3101     		.2byte	0x131
 770 035d 71030000 		.4byte	0x371
 771 0361 0C       		.uleb128 0xc
 772 0362 72313300 		.ascii	"r13\000"
 773 0366 08       		.byte	0x8
 774 0367 3201     		.2byte	0x132
 775 0369 71030000 		.4byte	0x371
 776 036d 02       		.byte	0x2
 777 036e 23       		.byte	0x23
 778 036f 00       		.uleb128 0
 779 0370 00       		.byte	0
 780 0371 09       		.uleb128 0x9
 781 0372 04       		.byte	0x4
 782 0373 C6020000 		.4byte	0x2c6
 783 0377 0D       		.uleb128 0xd
 784 0378 86000000 		.4byte	0x86
 785 037c 04       		.uleb128 0x4
ARM GAS  C:\Users\DNIEL~1\AppData\Local\Temp\ccnor429.s 			page 15


 786 037d 04       		.byte	0x4
 787 037e 07       		.byte	0x7
 788 037f 67030000 		.4byte	.LASF52
 789 0383 03       		.uleb128 0x3
 790 0384 02060000 		.4byte	.LASF53
 791 0388 09       		.byte	0x9
 792 0389 58       		.byte	0x58
 793 038a 8E030000 		.4byte	0x38e
 794 038e 09       		.uleb128 0x9
 795 038f 04       		.byte	0x4
 796 0390 94030000 		.4byte	0x394
 797 0394 0E       		.uleb128 0xe
 798 0395 01       		.byte	0x1
 799 0396 A0030000 		.4byte	0x3a0
 800 039a 0F       		.uleb128 0xf
 801 039b B9020000 		.4byte	0x2b9
 802 039f 00       		.byte	0
 803 03a0 03       		.uleb128 0x3
 804 03a1 6B010000 		.4byte	.LASF54
 805 03a5 09       		.byte	0x9
 806 03a6 5D       		.byte	0x5d
 807 03a7 AB030000 		.4byte	0x3ab
 808 03ab 05       		.uleb128 0x5
 809 03ac 6B010000 		.4byte	.LASF54
 810 03b0 14       		.byte	0x14
 811 03b1 09       		.byte	0x9
 812 03b2 64       		.byte	0x64
 813 03b3 FE030000 		.4byte	0x3fe
 814 03b7 06       		.uleb128 0x6
 815 03b8 6E020000 		.4byte	.LASF55
 816 03bc 09       		.byte	0x9
 817 03bd 65       		.byte	0x65
 818 03be FE030000 		.4byte	0x3fe
 819 03c2 02       		.byte	0x2
 820 03c3 23       		.byte	0x23
 821 03c4 00       		.uleb128 0
 822 03c5 06       		.uleb128 0x6
 823 03c6 24020000 		.4byte	.LASF56
 824 03ca 09       		.byte	0x9
 825 03cb 67       		.byte	0x67
 826 03cc FE030000 		.4byte	0x3fe
 827 03d0 02       		.byte	0x2
 828 03d1 23       		.byte	0x23
 829 03d2 04       		.uleb128 0x4
 830 03d3 06       		.uleb128 0x6
 831 03d4 58030000 		.4byte	.LASF57
 832 03d8 09       		.byte	0x9
 833 03d9 69       		.byte	0x69
 834 03da 10010000 		.4byte	0x110
 835 03de 02       		.byte	0x2
 836 03df 23       		.byte	0x23
 837 03e0 08       		.uleb128 0x8
 838 03e1 06       		.uleb128 0x6
 839 03e2 70030000 		.4byte	.LASF58
 840 03e6 09       		.byte	0x9
 841 03e7 6A       		.byte	0x6a
 842 03e8 83030000 		.4byte	0x383
ARM GAS  C:\Users\DNIEL~1\AppData\Local\Temp\ccnor429.s 			page 16


 843 03ec 02       		.byte	0x2
 844 03ed 23       		.byte	0x23
 845 03ee 0C       		.uleb128 0xc
 846 03ef 06       		.uleb128 0x6
 847 03f0 67060000 		.4byte	.LASF59
 848 03f4 09       		.byte	0x9
 849 03f5 6C       		.byte	0x6c
 850 03f6 B9020000 		.4byte	0x2b9
 851 03fa 02       		.byte	0x2
 852 03fb 23       		.byte	0x23
 853 03fc 10       		.uleb128 0x10
 854 03fd 00       		.byte	0
 855 03fe 09       		.uleb128 0x9
 856 03ff 04       		.byte	0x4
 857 0400 A0030000 		.4byte	0x3a0
 858 0404 08       		.uleb128 0x8
 859 0405 10       		.byte	0x10
 860 0406 09       		.byte	0x9
 861 0407 76       		.byte	0x76
 862 0408 45040000 		.4byte	0x445
 863 040c 06       		.uleb128 0x6
 864 040d 6E020000 		.4byte	.LASF55
 865 0411 09       		.byte	0x9
 866 0412 77       		.byte	0x77
 867 0413 FE030000 		.4byte	0x3fe
 868 0417 02       		.byte	0x2
 869 0418 23       		.byte	0x23
 870 0419 00       		.uleb128 0
 871 041a 06       		.uleb128 0x6
 872 041b 24020000 		.4byte	.LASF56
 873 041f 09       		.byte	0x9
 874 0420 79       		.byte	0x79
 875 0421 FE030000 		.4byte	0x3fe
 876 0425 02       		.byte	0x2
 877 0426 23       		.byte	0x23
 878 0427 04       		.uleb128 0x4
 879 0428 06       		.uleb128 0x6
 880 0429 58030000 		.4byte	.LASF57
 881 042d 09       		.byte	0x9
 882 042e 7B       		.byte	0x7b
 883 042f 10010000 		.4byte	0x110
 884 0433 02       		.byte	0x2
 885 0434 23       		.byte	0x23
 886 0435 08       		.uleb128 0x8
 887 0436 06       		.uleb128 0x6
 888 0437 8D050000 		.4byte	.LASF60
 889 043b 09       		.byte	0x9
 890 043c 7C       		.byte	0x7c
 891 043d 45040000 		.4byte	0x445
 892 0441 02       		.byte	0x2
 893 0442 23       		.byte	0x23
 894 0443 0C       		.uleb128 0xc
 895 0444 00       		.byte	0
 896 0445 0D       		.uleb128 0xd
 897 0446 10010000 		.4byte	0x110
 898 044a 03       		.uleb128 0x3
 899 044b E0030000 		.4byte	.LASF61
ARM GAS  C:\Users\DNIEL~1\AppData\Local\Temp\ccnor429.s 			page 17


 900 044f 09       		.byte	0x9
 901 0450 7D       		.byte	0x7d
 902 0451 04040000 		.4byte	0x404
 903 0455 08       		.uleb128 0x8
 904 0456 1C       		.byte	0x1c
 905 0457 0A       		.byte	0xa
 906 0458 5E       		.byte	0x5e
 907 0459 B2040000 		.4byte	0x4b2
 908 045d 06       		.uleb128 0x6
 909 045e 85050000 		.4byte	.LASF62
 910 0462 0A       		.byte	0xa
 911 0463 5F       		.byte	0x5f
 912 0464 81020000 		.4byte	0x281
 913 0468 02       		.byte	0x2
 914 0469 23       		.byte	0x23
 915 046a 00       		.uleb128 0
 916 046b 06       		.uleb128 0x6
 917 046c 16050000 		.4byte	.LASF63
 918 0470 0A       		.byte	0xa
 919 0471 60       		.byte	0x60
 920 0472 E4000000 		.4byte	0xe4
 921 0476 02       		.byte	0x2
 922 0477 23       		.byte	0x23
 923 0478 08       		.uleb128 0x8
 924 0479 06       		.uleb128 0x6
 925 047a 2D060000 		.4byte	.LASF64
 926 047e 0A       		.byte	0xa
 927 047f 62       		.byte	0x62
 928 0480 54030000 		.4byte	0x354
 929 0484 02       		.byte	0x2
 930 0485 23       		.byte	0x23
 931 0486 0C       		.uleb128 0xc
 932 0487 06       		.uleb128 0x6
 933 0488 13020000 		.4byte	.LASF65
 934 048c 0A       		.byte	0xa
 935 048d 65       		.byte	0x65
 936 048e 7B020000 		.4byte	0x27b
 937 0492 02       		.byte	0x2
 938 0493 23       		.byte	0x23
 939 0494 10       		.uleb128 0x10
 940 0495 06       		.uleb128 0x6
 941 0496 0B040000 		.4byte	.LASF66
 942 049a 0A       		.byte	0xa
 943 049b 66       		.byte	0x66
 944 049c 7B020000 		.4byte	0x27b
 945 04a0 02       		.byte	0x2
 946 04a1 23       		.byte	0x23
 947 04a2 14       		.uleb128 0x14
 948 04a3 06       		.uleb128 0x6
 949 04a4 01040000 		.4byte	.LASF67
 950 04a8 0A       		.byte	0xa
 951 04a9 69       		.byte	0x69
 952 04aa 7B020000 		.4byte	0x27b
 953 04ae 02       		.byte	0x2
 954 04af 23       		.byte	0x23
 955 04b0 18       		.uleb128 0x18
 956 04b1 00       		.byte	0
ARM GAS  C:\Users\DNIEL~1\AppData\Local\Temp\ccnor429.s 			page 18


 957 04b2 03       		.uleb128 0x3
 958 04b3 AC060000 		.4byte	.LASF68
 959 04b7 0A       		.byte	0xa
 960 04b8 6B       		.byte	0x6b
 961 04b9 55040000 		.4byte	0x455
 962 04bd 05       		.uleb128 0x5
 963 04be 6E060000 		.4byte	.LASF69
 964 04c2 0C       		.byte	0xc
 965 04c3 0B       		.byte	0xb
 966 04c4 2C       		.byte	0x2c
 967 04c5 E6040000 		.4byte	0x4e6
 968 04c9 06       		.uleb128 0x6
 969 04ca EE010000 		.4byte	.LASF70
 970 04ce 0B       		.byte	0xb
 971 04cf 2D       		.byte	0x2d
 972 04d0 81020000 		.4byte	0x281
 973 04d4 02       		.byte	0x2
 974 04d5 23       		.byte	0x23
 975 04d6 00       		.uleb128 0
 976 04d7 06       		.uleb128 0x6
 977 04d8 A7020000 		.4byte	.LASF71
 978 04dc 0B       		.byte	0xb
 979 04dd 2F       		.byte	0x2f
 980 04de 1B010000 		.4byte	0x11b
 981 04e2 02       		.byte	0x2
 982 04e3 23       		.byte	0x23
 983 04e4 08       		.uleb128 0x8
 984 04e5 00       		.byte	0
 985 04e6 03       		.uleb128 0x3
 986 04e7 6E060000 		.4byte	.LASF69
 987 04eb 0B       		.byte	0xb
 988 04ec 30       		.byte	0x30
 989 04ed BD040000 		.4byte	0x4bd
 990 04f1 05       		.uleb128 0x5
 991 04f2 AD020000 		.4byte	.LASF72
 992 04f6 10       		.byte	0x10
 993 04f7 0C       		.byte	0xc
 994 04f8 2C       		.byte	0x2c
 995 04f9 28050000 		.4byte	0x528
 996 04fd 06       		.uleb128 0x6
 997 04fe BE040000 		.4byte	.LASF73
 998 0502 0C       		.byte	0xc
 999 0503 2D       		.byte	0x2d
 1000 0504 81020000 		.4byte	0x281
 1001 0508 02       		.byte	0x2
 1002 0509 23       		.byte	0x23
 1003 050a 00       		.uleb128 0
 1004 050b 06       		.uleb128 0x6
 1005 050c 7B070000 		.4byte	.LASF74
 1006 0510 0C       		.byte	0xc
 1007 0511 2F       		.byte	0x2f
 1008 0512 7B020000 		.4byte	0x27b
 1009 0516 02       		.byte	0x2
 1010 0517 23       		.byte	0x23
 1011 0518 08       		.uleb128 0x8
 1012 0519 06       		.uleb128 0x6
 1013 051a E6050000 		.4byte	.LASF75
ARM GAS  C:\Users\DNIEL~1\AppData\Local\Temp\ccnor429.s 			page 19


 1014 051e 0C       		.byte	0xc
 1015 051f 31       		.byte	0x31
 1016 0520 28050000 		.4byte	0x528
 1017 0524 02       		.byte	0x2
 1018 0525 23       		.byte	0x23
 1019 0526 0C       		.uleb128 0xc
 1020 0527 00       		.byte	0
 1021 0528 09       		.uleb128 0x9
 1022 0529 04       		.byte	0x4
 1023 052a F1040000 		.4byte	0x4f1
 1024 052e 03       		.uleb128 0x3
 1025 052f AD020000 		.4byte	.LASF72
 1026 0533 0C       		.byte	0xc
 1027 0534 33       		.byte	0x33
 1028 0535 F1040000 		.4byte	0x4f1
 1029 0539 03       		.uleb128 0x3
 1030 053a 31070000 		.4byte	.LASF76
 1031 053e 0D       		.byte	0xd
 1032 053f 2C       		.byte	0x2c
 1033 0540 44050000 		.4byte	0x544
 1034 0544 05       		.uleb128 0x5
 1035 0545 31070000 		.4byte	.LASF76
 1036 0549 10       		.byte	0x10
 1037 054a 0D       		.byte	0xd
 1038 054b 31       		.byte	0x31
 1039 054c 89050000 		.4byte	0x589
 1040 0550 06       		.uleb128 0x6
 1041 0551 FE020000 		.4byte	.LASF77
 1042 0555 0D       		.byte	0xd
 1043 0556 32       		.byte	0x32
 1044 0557 89050000 		.4byte	0x589
 1045 055b 02       		.byte	0x2
 1046 055c 23       		.byte	0x23
 1047 055d 00       		.uleb128 0
 1048 055e 06       		.uleb128 0x6
 1049 055f D3040000 		.4byte	.LASF78
 1050 0563 0D       		.byte	0xd
 1051 0564 35       		.byte	0x35
 1052 0565 7B020000 		.4byte	0x27b
 1053 0569 02       		.byte	0x2
 1054 056a 23       		.byte	0x23
 1055 056b 04       		.uleb128 0x4
 1056 056c 06       		.uleb128 0x6
 1057 056d 13040000 		.4byte	.LASF79
 1058 0571 0D       		.byte	0xd
 1059 0572 37       		.byte	0x37
 1060 0573 FA000000 		.4byte	0xfa
 1061 0577 02       		.byte	0x2
 1062 0578 23       		.byte	0x23
 1063 0579 08       		.uleb128 0x8
 1064 057a 06       		.uleb128 0x6
 1065 057b DF040000 		.4byte	.LASF80
 1066 057f 0D       		.byte	0xd
 1067 0580 3A       		.byte	0x3a
 1068 0581 05010000 		.4byte	0x105
 1069 0585 02       		.byte	0x2
 1070 0586 23       		.byte	0x23
ARM GAS  C:\Users\DNIEL~1\AppData\Local\Temp\ccnor429.s 			page 20


 1071 0587 0C       		.uleb128 0xc
 1072 0588 00       		.byte	0
 1073 0589 09       		.uleb128 0x9
 1074 058a 04       		.byte	0x4
 1075 058b 39050000 		.4byte	0x539
 1076 058f 05       		.uleb128 0x5
 1077 0590 34020000 		.4byte	.LASF81
 1078 0594 04       		.byte	0x4
 1079 0595 0D       		.byte	0xd
 1080 0596 41       		.byte	0x41
 1081 0597 AA050000 		.4byte	0x5aa
 1082 059b 06       		.uleb128 0x6
 1083 059c 76000000 		.4byte	.LASF82
 1084 05a0 0D       		.byte	0xd
 1085 05a1 42       		.byte	0x42
 1086 05a2 89050000 		.4byte	0x589
 1087 05a6 02       		.byte	0x2
 1088 05a7 23       		.byte	0x23
 1089 05a8 00       		.uleb128 0
 1090 05a9 00       		.byte	0
 1091 05aa 03       		.uleb128 0x3
 1092 05ab 34020000 		.4byte	.LASF81
 1093 05af 0D       		.byte	0xd
 1094 05b0 45       		.byte	0x45
 1095 05b1 8F050000 		.4byte	0x58f
 1096 05b5 10       		.uleb128 0x10
 1097 05b6 04       		.byte	0x4
 1098 05b7 07       		.byte	0x7
 1099 05b8 96       		.byte	0x96
 1100 05b9 EA050000 		.4byte	0x5ea
 1101 05bd 11       		.uleb128 0x11
 1102 05be 19000000 		.4byte	.LASF83
 1103 05c2 07       		.byte	0x7
 1104 05c3 9D       		.byte	0x9d
 1105 05c4 EF000000 		.4byte	0xef
 1106 05c8 11       		.uleb128 0x11
 1107 05c9 A0000000 		.4byte	.LASF84
 1108 05cd 07       		.byte	0x7
 1109 05ce A4       		.byte	0xa4
 1110 05cf EF000000 		.4byte	0xef
 1111 05d3 11       		.uleb128 0x11
 1112 05d4 5A010000 		.4byte	.LASF85
 1113 05d8 07       		.byte	0x7
 1114 05d9 AB       		.byte	0xab
 1115 05da B9020000 		.4byte	0x2b9
 1116 05de 11       		.uleb128 0x11
 1117 05df 1D050000 		.4byte	.LASF86
 1118 05e3 07       		.byte	0x7
 1119 05e4 B2       		.byte	0xb2
 1120 05e5 FA000000 		.4byte	0xfa
 1121 05e9 00       		.byte	0
 1122 05ea 09       		.uleb128 0x9
 1123 05eb 04       		.byte	0x4
 1124 05ec F0050000 		.4byte	0x5f0
 1125 05f0 12       		.uleb128 0x12
 1126 05f1 F5050000 		.4byte	0x5f5
 1127 05f5 04       		.uleb128 0x4
ARM GAS  C:\Users\DNIEL~1\AppData\Local\Temp\ccnor429.s 			page 21


 1128 05f6 01       		.byte	0x1
 1129 05f7 08       		.byte	0x8
 1130 05f8 B7050000 		.4byte	.LASF87
 1131 05fc 09       		.uleb128 0x9
 1132 05fd 04       		.byte	0x4
 1133 05fe 2E050000 		.4byte	0x52e
 1134 0602 09       		.uleb128 0x9
 1135 0603 04       		.byte	0x4
 1136 0604 08060000 		.4byte	0x608
 1137 0608 13       		.uleb128 0x13
 1138 0609 01       		.byte	0x1
 1139 060a EF000000 		.4byte	0xef
 1140 060e 18060000 		.4byte	0x618
 1141 0612 0F       		.uleb128 0xf
 1142 0613 B9020000 		.4byte	0x2b9
 1143 0617 00       		.byte	0
 1144 0618 09       		.uleb128 0x9
 1145 0619 04       		.byte	0x4
 1146 061a 49000000 		.4byte	0x49
 1147 061e 05       		.uleb128 0x5
 1148 061f 2B050000 		.4byte	.LASF88
 1149 0623 10       		.byte	0x10
 1150 0624 0E       		.byte	0xe
 1151 0625 48       		.byte	0x48
 1152 0626 63060000 		.4byte	0x663
 1153 062a 06       		.uleb128 0x6
 1154 062b 4D030000 		.4byte	.LASF89
 1155 062f 0E       		.byte	0xe
 1156 0630 49       		.byte	0x49
 1157 0631 88060000 		.4byte	0x688
 1158 0635 02       		.byte	0x2
 1159 0636 23       		.byte	0x23
 1160 0637 00       		.uleb128 0
 1161 0638 06       		.uleb128 0x6
 1162 0639 3F070000 		.4byte	.LASF90
 1163 063d 0E       		.byte	0xe
 1164 063e 49       		.byte	0x49
 1165 063f A8060000 		.4byte	0x6a8
 1166 0643 02       		.byte	0x2
 1167 0644 23       		.byte	0x23
 1168 0645 04       		.uleb128 0x4
 1169 0646 07       		.uleb128 0x7
 1170 0647 70757400 		.ascii	"put\000"
 1171 064b 0E       		.byte	0xe
 1172 064c 49       		.byte	0x49
 1173 064d C3060000 		.4byte	0x6c3
 1174 0651 02       		.byte	0x2
 1175 0652 23       		.byte	0x23
 1176 0653 08       		.uleb128 0x8
 1177 0654 07       		.uleb128 0x7
 1178 0655 67657400 		.ascii	"get\000"
 1179 0659 0E       		.byte	0xe
 1180 065a 49       		.byte	0x49
 1181 065b 02060000 		.4byte	0x602
 1182 065f 02       		.byte	0x2
 1183 0660 23       		.byte	0x23
 1184 0661 0C       		.uleb128 0xc
ARM GAS  C:\Users\DNIEL~1\AppData\Local\Temp\ccnor429.s 			page 22


 1185 0662 00       		.byte	0
 1186 0663 13       		.uleb128 0x13
 1187 0664 01       		.byte	0x1
 1188 0665 30000000 		.4byte	0x30
 1189 0669 7D060000 		.4byte	0x67d
 1190 066d 0F       		.uleb128 0xf
 1191 066e B9020000 		.4byte	0x2b9
 1192 0672 0F       		.uleb128 0xf
 1193 0673 7D060000 		.4byte	0x67d
 1194 0677 0F       		.uleb128 0xf
 1195 0678 30000000 		.4byte	0x30
 1196 067c 00       		.byte	0
 1197 067d 09       		.uleb128 0x9
 1198 067e 04       		.byte	0x4
 1199 067f 83060000 		.4byte	0x683
 1200 0683 12       		.uleb128 0x12
 1201 0684 49000000 		.4byte	0x49
 1202 0688 09       		.uleb128 0x9
 1203 0689 04       		.byte	0x4
 1204 068a 63060000 		.4byte	0x663
 1205 068e 13       		.uleb128 0x13
 1206 068f 01       		.byte	0x1
 1207 0690 30000000 		.4byte	0x30
 1208 0694 A8060000 		.4byte	0x6a8
 1209 0698 0F       		.uleb128 0xf
 1210 0699 B9020000 		.4byte	0x2b9
 1211 069d 0F       		.uleb128 0xf
 1212 069e 18060000 		.4byte	0x618
 1213 06a2 0F       		.uleb128 0xf
 1214 06a3 30000000 		.4byte	0x30
 1215 06a7 00       		.byte	0
 1216 06a8 09       		.uleb128 0x9
 1217 06a9 04       		.byte	0x4
 1218 06aa 8E060000 		.4byte	0x68e
 1219 06ae 13       		.uleb128 0x13
 1220 06af 01       		.byte	0x1
 1221 06b0 EF000000 		.4byte	0xef
 1222 06b4 C3060000 		.4byte	0x6c3
 1223 06b8 0F       		.uleb128 0xf
 1224 06b9 B9020000 		.4byte	0x2b9
 1225 06bd 0F       		.uleb128 0xf
 1226 06be 49000000 		.4byte	0x49
 1227 06c2 00       		.byte	0
 1228 06c3 09       		.uleb128 0x9
 1229 06c4 04       		.byte	0x4
 1230 06c5 AE060000 		.4byte	0x6ae
 1231 06c9 08       		.uleb128 0x8
 1232 06ca 04       		.byte	0x4
 1233 06cb 0E       		.byte	0xe
 1234 06cc 51       		.byte	0x51
 1235 06cd E0060000 		.4byte	0x6e0
 1236 06d1 07       		.uleb128 0x7
 1237 06d2 766D7400 		.ascii	"vmt\000"
 1238 06d6 0E       		.byte	0xe
 1239 06d7 53       		.byte	0x53
 1240 06d8 E0060000 		.4byte	0x6e0
 1241 06dc 02       		.byte	0x2
ARM GAS  C:\Users\DNIEL~1\AppData\Local\Temp\ccnor429.s 			page 23


 1242 06dd 23       		.byte	0x23
 1243 06de 00       		.uleb128 0
 1244 06df 00       		.byte	0
 1245 06e0 09       		.uleb128 0x9
 1246 06e1 04       		.byte	0x4
 1247 06e2 E6060000 		.4byte	0x6e6
 1248 06e6 12       		.uleb128 0x12
 1249 06e7 1E060000 		.4byte	0x61e
 1250 06eb 03       		.uleb128 0x3
 1251 06ec 40020000 		.4byte	.LASF91
 1252 06f0 0E       		.byte	0xe
 1253 06f1 55       		.byte	0x55
 1254 06f2 C9060000 		.4byte	0x6c9
 1255 06f6 14       		.uleb128 0x14
 1256 06f7 86000000 		.4byte	0x86
 1257 06fb 06070000 		.4byte	0x706
 1258 06ff 15       		.uleb128 0x15
 1259 0700 7C030000 		.4byte	0x37c
 1260 0704 07       		.byte	0x7
 1261 0705 00       		.byte	0
 1262 0706 14       		.uleb128 0x14
 1263 0707 86000000 		.4byte	0x86
 1264 070b 16070000 		.4byte	0x716
 1265 070f 15       		.uleb128 0x15
 1266 0710 7C030000 		.4byte	0x37c
 1267 0714 01       		.byte	0x1
 1268 0715 00       		.byte	0
 1269 0716 14       		.uleb128 0x14
 1270 0717 86000000 		.4byte	0x86
 1271 071b 26070000 		.4byte	0x726
 1272 071f 15       		.uleb128 0x15
 1273 0720 7C030000 		.4byte	0x37c
 1274 0724 03       		.byte	0x3
 1275 0725 00       		.byte	0
 1276 0726 0D       		.uleb128 0xd
 1277 0727 74000000 		.4byte	0x74
 1278 072b 16       		.uleb128 0x16
 1279 072c 10       		.byte	0x10
 1280 072d 0F       		.byte	0xf
 1281 072e 2F02     		.2byte	0x22f
 1282 0730 71070000 		.4byte	0x771
 1283 0734 0C       		.uleb128 0xc
 1284 0735 54495200 		.ascii	"TIR\000"
 1285 0739 0F       		.byte	0xf
 1286 073a 3102     		.2byte	0x231
 1287 073c 77030000 		.4byte	0x377
 1288 0740 02       		.byte	0x2
 1289 0741 23       		.byte	0x23
 1290 0742 00       		.uleb128 0
 1291 0743 17       		.uleb128 0x17
 1292 0744 F9000000 		.4byte	.LASF92
 1293 0748 0F       		.byte	0xf
 1294 0749 3202     		.2byte	0x232
 1295 074b 77030000 		.4byte	0x377
 1296 074f 02       		.byte	0x2
 1297 0750 23       		.byte	0x23
 1298 0751 04       		.uleb128 0x4
ARM GAS  C:\Users\DNIEL~1\AppData\Local\Temp\ccnor429.s 			page 24


 1299 0752 17       		.uleb128 0x17
 1300 0753 7E010000 		.4byte	.LASF93
 1301 0757 0F       		.byte	0xf
 1302 0758 3302     		.2byte	0x233
 1303 075a 77030000 		.4byte	0x377
 1304 075e 02       		.byte	0x2
 1305 075f 23       		.byte	0x23
 1306 0760 08       		.uleb128 0x8
 1307 0761 17       		.uleb128 0x17
 1308 0762 F5030000 		.4byte	.LASF94
 1309 0766 0F       		.byte	0xf
 1310 0767 3402     		.2byte	0x234
 1311 0769 77030000 		.4byte	0x377
 1312 076d 02       		.byte	0x2
 1313 076e 23       		.byte	0x23
 1314 076f 0C       		.uleb128 0xc
 1315 0770 00       		.byte	0
 1316 0771 18       		.uleb128 0x18
 1317 0772 8C010000 		.4byte	.LASF95
 1318 0776 0F       		.byte	0xf
 1319 0777 3502     		.2byte	0x235
 1320 0779 2B070000 		.4byte	0x72b
 1321 077d 16       		.uleb128 0x16
 1322 077e 10       		.byte	0x10
 1323 077f 0F       		.byte	0xf
 1324 0780 3B02     		.2byte	0x23b
 1325 0782 C3070000 		.4byte	0x7c3
 1326 0786 0C       		.uleb128 0xc
 1327 0787 52495200 		.ascii	"RIR\000"
 1328 078b 0F       		.byte	0xf
 1329 078c 3D02     		.2byte	0x23d
 1330 078e 77030000 		.4byte	0x377
 1331 0792 02       		.byte	0x2
 1332 0793 23       		.byte	0x23
 1333 0794 00       		.uleb128 0
 1334 0795 17       		.uleb128 0x17
 1335 0796 81020000 		.4byte	.LASF96
 1336 079a 0F       		.byte	0xf
 1337 079b 3E02     		.2byte	0x23e
 1338 079d 77030000 		.4byte	0x377
 1339 07a1 02       		.byte	0x2
 1340 07a2 23       		.byte	0x23
 1341 07a3 04       		.uleb128 0x4
 1342 07a4 17       		.uleb128 0x17
 1343 07a5 5A070000 		.4byte	.LASF97
 1344 07a9 0F       		.byte	0xf
 1345 07aa 3F02     		.2byte	0x23f
 1346 07ac 77030000 		.4byte	0x377
 1347 07b0 02       		.byte	0x2
 1348 07b1 23       		.byte	0x23
 1349 07b2 08       		.uleb128 0x8
 1350 07b3 17       		.uleb128 0x17
 1351 07b4 E1050000 		.4byte	.LASF98
 1352 07b8 0F       		.byte	0xf
 1353 07b9 4002     		.2byte	0x240
 1354 07bb 77030000 		.4byte	0x377
 1355 07bf 02       		.byte	0x2
ARM GAS  C:\Users\DNIEL~1\AppData\Local\Temp\ccnor429.s 			page 25


 1356 07c0 23       		.byte	0x23
 1357 07c1 0C       		.uleb128 0xc
 1358 07c2 00       		.byte	0
 1359 07c3 18       		.uleb128 0x18
 1360 07c4 E1060000 		.4byte	.LASF99
 1361 07c8 0F       		.byte	0xf
 1362 07c9 4102     		.2byte	0x241
 1363 07cb 7D070000 		.4byte	0x77d
 1364 07cf 16       		.uleb128 0x16
 1365 07d0 08       		.byte	0x8
 1366 07d1 0F       		.byte	0xf
 1367 07d2 4702     		.2byte	0x247
 1368 07d4 F7070000 		.4byte	0x7f7
 1369 07d8 0C       		.uleb128 0xc
 1370 07d9 46523100 		.ascii	"FR1\000"
 1371 07dd 0F       		.byte	0xf
 1372 07de 4902     		.2byte	0x249
 1373 07e0 77030000 		.4byte	0x377
 1374 07e4 02       		.byte	0x2
 1375 07e5 23       		.byte	0x23
 1376 07e6 00       		.uleb128 0
 1377 07e7 0C       		.uleb128 0xc
 1378 07e8 46523200 		.ascii	"FR2\000"
 1379 07ec 0F       		.byte	0xf
 1380 07ed 4A02     		.2byte	0x24a
 1381 07ef 77030000 		.4byte	0x377
 1382 07f3 02       		.byte	0x2
 1383 07f4 23       		.byte	0x23
 1384 07f5 04       		.uleb128 0x4
 1385 07f6 00       		.byte	0
 1386 07f7 18       		.uleb128 0x18
 1387 07f8 DD020000 		.4byte	.LASF100
 1388 07fc 0F       		.byte	0xf
 1389 07fd 4B02     		.2byte	0x24b
 1390 07ff CF070000 		.4byte	0x7cf
 1391 0803 19       		.uleb128 0x19
 1392 0804 2003     		.2byte	0x320
 1393 0806 0F       		.byte	0xf
 1394 0807 5102     		.2byte	0x251
 1395 0809 65090000 		.4byte	0x965
 1396 080d 0C       		.uleb128 0xc
 1397 080e 4D435200 		.ascii	"MCR\000"
 1398 0812 0F       		.byte	0xf
 1399 0813 5302     		.2byte	0x253
 1400 0815 77030000 		.4byte	0x377
 1401 0819 02       		.byte	0x2
 1402 081a 23       		.byte	0x23
 1403 081b 00       		.uleb128 0
 1404 081c 0C       		.uleb128 0xc
 1405 081d 4D535200 		.ascii	"MSR\000"
 1406 0821 0F       		.byte	0xf
 1407 0822 5402     		.2byte	0x254
 1408 0824 77030000 		.4byte	0x377
 1409 0828 02       		.byte	0x2
 1410 0829 23       		.byte	0x23
 1411 082a 04       		.uleb128 0x4
 1412 082b 0C       		.uleb128 0xc
ARM GAS  C:\Users\DNIEL~1\AppData\Local\Temp\ccnor429.s 			page 26


 1413 082c 54535200 		.ascii	"TSR\000"
 1414 0830 0F       		.byte	0xf
 1415 0831 5502     		.2byte	0x255
 1416 0833 77030000 		.4byte	0x377
 1417 0837 02       		.byte	0x2
 1418 0838 23       		.byte	0x23
 1419 0839 08       		.uleb128 0x8
 1420 083a 17       		.uleb128 0x17
 1421 083b 47040000 		.4byte	.LASF101
 1422 083f 0F       		.byte	0xf
 1423 0840 5602     		.2byte	0x256
 1424 0842 77030000 		.4byte	0x377
 1425 0846 02       		.byte	0x2
 1426 0847 23       		.byte	0x23
 1427 0848 0C       		.uleb128 0xc
 1428 0849 17       		.uleb128 0x17
 1429 084a D8020000 		.4byte	.LASF102
 1430 084e 0F       		.byte	0xf
 1431 084f 5702     		.2byte	0x257
 1432 0851 77030000 		.4byte	0x377
 1433 0855 02       		.byte	0x2
 1434 0856 23       		.byte	0x23
 1435 0857 10       		.uleb128 0x10
 1436 0858 0C       		.uleb128 0xc
 1437 0859 49455200 		.ascii	"IER\000"
 1438 085d 0F       		.byte	0xf
 1439 085e 5802     		.2byte	0x258
 1440 0860 77030000 		.4byte	0x377
 1441 0864 02       		.byte	0x2
 1442 0865 23       		.byte	0x23
 1443 0866 14       		.uleb128 0x14
 1444 0867 0C       		.uleb128 0xc
 1445 0868 45535200 		.ascii	"ESR\000"
 1446 086c 0F       		.byte	0xf
 1447 086d 5902     		.2byte	0x259
 1448 086f 77030000 		.4byte	0x377
 1449 0873 02       		.byte	0x2
 1450 0874 23       		.byte	0x23
 1451 0875 18       		.uleb128 0x18
 1452 0876 0C       		.uleb128 0xc
 1453 0877 42545200 		.ascii	"BTR\000"
 1454 087b 0F       		.byte	0xf
 1455 087c 5A02     		.2byte	0x25a
 1456 087e 77030000 		.4byte	0x377
 1457 0882 02       		.byte	0x2
 1458 0883 23       		.byte	0x23
 1459 0884 1C       		.uleb128 0x1c
 1460 0885 17       		.uleb128 0x17
 1461 0886 62040000 		.4byte	.LASF103
 1462 088a 0F       		.byte	0xf
 1463 088b 5B02     		.2byte	0x25b
 1464 088d 65090000 		.4byte	0x965
 1465 0891 02       		.byte	0x2
 1466 0892 23       		.byte	0x23
 1467 0893 20       		.uleb128 0x20
 1468 0894 17       		.uleb128 0x17
 1469 0895 71050000 		.4byte	.LASF104
ARM GAS  C:\Users\DNIEL~1\AppData\Local\Temp\ccnor429.s 			page 27


 1470 0899 0F       		.byte	0xf
 1471 089a 5C02     		.2byte	0x25c
 1472 089c 75090000 		.4byte	0x975
 1473 08a0 03       		.byte	0x3
 1474 08a1 23       		.byte	0x23
 1475 08a2 8003     		.uleb128 0x180
 1476 08a4 17       		.uleb128 0x17
 1477 08a5 14060000 		.4byte	.LASF105
 1478 08a9 0F       		.byte	0xf
 1479 08aa 5D02     		.2byte	0x25d
 1480 08ac 85090000 		.4byte	0x985
 1481 08b0 03       		.byte	0x3
 1482 08b1 23       		.byte	0x23
 1483 08b2 B003     		.uleb128 0x1b0
 1484 08b4 17       		.uleb128 0x17
 1485 08b5 6C040000 		.4byte	.LASF106
 1486 08b9 0F       		.byte	0xf
 1487 08ba 5E02     		.2byte	0x25e
 1488 08bc 95090000 		.4byte	0x995
 1489 08c0 03       		.byte	0x3
 1490 08c1 23       		.byte	0x23
 1491 08c2 D003     		.uleb128 0x1d0
 1492 08c4 0C       		.uleb128 0xc
 1493 08c5 464D5200 		.ascii	"FMR\000"
 1494 08c9 0F       		.byte	0xf
 1495 08ca 5F02     		.2byte	0x25f
 1496 08cc 77030000 		.4byte	0x377
 1497 08d0 03       		.byte	0x3
 1498 08d1 23       		.byte	0x23
 1499 08d2 8004     		.uleb128 0x200
 1500 08d4 17       		.uleb128 0x17
 1501 08d5 3D030000 		.4byte	.LASF107
 1502 08d9 0F       		.byte	0xf
 1503 08da 6002     		.2byte	0x260
 1504 08dc 77030000 		.4byte	0x377
 1505 08e0 03       		.byte	0x3
 1506 08e1 23       		.byte	0x23
 1507 08e2 8404     		.uleb128 0x204
 1508 08e4 17       		.uleb128 0x17
 1509 08e5 5C050000 		.4byte	.LASF108
 1510 08e9 0F       		.byte	0xf
 1511 08ea 6102     		.2byte	0x261
 1512 08ec 86000000 		.4byte	0x86
 1513 08f0 03       		.byte	0x3
 1514 08f1 23       		.byte	0x23
 1515 08f2 8804     		.uleb128 0x208
 1516 08f4 17       		.uleb128 0x17
 1517 08f5 8B060000 		.4byte	.LASF109
 1518 08f9 0F       		.byte	0xf
 1519 08fa 6202     		.2byte	0x262
 1520 08fc 77030000 		.4byte	0x377
 1521 0900 03       		.byte	0x3
 1522 0901 23       		.byte	0x23
 1523 0902 8C04     		.uleb128 0x20c
 1524 0904 17       		.uleb128 0x17
 1525 0905 76040000 		.4byte	.LASF110
 1526 0909 0F       		.byte	0xf
ARM GAS  C:\Users\DNIEL~1\AppData\Local\Temp\ccnor429.s 			page 28


 1527 090a 6302     		.2byte	0x263
 1528 090c 86000000 		.4byte	0x86
 1529 0910 03       		.byte	0x3
 1530 0911 23       		.byte	0x23
 1531 0912 9004     		.uleb128 0x210
 1532 0914 17       		.uleb128 0x17
 1533 0915 3B040000 		.4byte	.LASF111
 1534 0919 0F       		.byte	0xf
 1535 091a 6402     		.2byte	0x264
 1536 091c 77030000 		.4byte	0x377
 1537 0920 03       		.byte	0x3
 1538 0921 23       		.byte	0x23
 1539 0922 9404     		.uleb128 0x214
 1540 0924 17       		.uleb128 0x17
 1541 0925 80040000 		.4byte	.LASF112
 1542 0929 0F       		.byte	0xf
 1543 092a 6502     		.2byte	0x265
 1544 092c 86000000 		.4byte	0x86
 1545 0930 03       		.byte	0x3
 1546 0931 23       		.byte	0x23
 1547 0932 9804     		.uleb128 0x218
 1548 0934 17       		.uleb128 0x17
 1549 0935 8A040000 		.4byte	.LASF113
 1550 0939 0F       		.byte	0xf
 1551 093a 6602     		.2byte	0x266
 1552 093c 77030000 		.4byte	0x377
 1553 0940 03       		.byte	0x3
 1554 0941 23       		.byte	0x23
 1555 0942 9C04     		.uleb128 0x21c
 1556 0944 17       		.uleb128 0x17
 1557 0945 44060000 		.4byte	.LASF114
 1558 0949 0F       		.byte	0xf
 1559 094a 6702     		.2byte	0x267
 1560 094c F6060000 		.4byte	0x6f6
 1561 0950 03       		.byte	0x3
 1562 0951 23       		.byte	0x23
 1563 0952 A004     		.uleb128 0x220
 1564 0954 17       		.uleb128 0x17
 1565 0955 21030000 		.4byte	.LASF115
 1566 0959 0F       		.byte	0xf
 1567 095a 6802     		.2byte	0x268
 1568 095c A5090000 		.4byte	0x9a5
 1569 0960 03       		.byte	0x3
 1570 0961 23       		.byte	0x23
 1571 0962 C004     		.uleb128 0x240
 1572 0964 00       		.byte	0
 1573 0965 14       		.uleb128 0x14
 1574 0966 86000000 		.4byte	0x86
 1575 096a 75090000 		.4byte	0x975
 1576 096e 15       		.uleb128 0x15
 1577 096f 7C030000 		.4byte	0x37c
 1578 0973 57       		.byte	0x57
 1579 0974 00       		.byte	0
 1580 0975 14       		.uleb128 0x14
 1581 0976 71070000 		.4byte	0x771
 1582 097a 85090000 		.4byte	0x985
 1583 097e 15       		.uleb128 0x15
ARM GAS  C:\Users\DNIEL~1\AppData\Local\Temp\ccnor429.s 			page 29


 1584 097f 7C030000 		.4byte	0x37c
 1585 0983 02       		.byte	0x2
 1586 0984 00       		.byte	0
 1587 0985 14       		.uleb128 0x14
 1588 0986 C3070000 		.4byte	0x7c3
 1589 098a 95090000 		.4byte	0x995
 1590 098e 15       		.uleb128 0x15
 1591 098f 7C030000 		.4byte	0x37c
 1592 0993 01       		.byte	0x1
 1593 0994 00       		.byte	0
 1594 0995 14       		.uleb128 0x14
 1595 0996 86000000 		.4byte	0x86
 1596 099a A5090000 		.4byte	0x9a5
 1597 099e 15       		.uleb128 0x15
 1598 099f 7C030000 		.4byte	0x37c
 1599 09a3 0B       		.byte	0xb
 1600 09a4 00       		.byte	0
 1601 09a5 14       		.uleb128 0x14
 1602 09a6 F7070000 		.4byte	0x7f7
 1603 09aa B5090000 		.4byte	0x9b5
 1604 09ae 15       		.uleb128 0x15
 1605 09af 7C030000 		.4byte	0x37c
 1606 09b3 1B       		.byte	0x1b
 1607 09b4 00       		.byte	0
 1608 09b5 18       		.uleb128 0x18
 1609 09b6 4A000000 		.4byte	.LASF116
 1610 09ba 0F       		.byte	0xf
 1611 09bb 6902     		.2byte	0x269
 1612 09bd 03080000 		.4byte	0x803
 1613 09c1 05       		.uleb128 0x5
 1614 09c2 91000000 		.4byte	.LASF117
 1615 09c6 20       		.byte	0x20
 1616 09c7 10       		.byte	0x10
 1617 09c8 4E       		.byte	0x4e
 1618 09c9 3E0A0000 		.4byte	0xa3e
 1619 09cd 06       		.uleb128 0x6
 1620 09ce 4D030000 		.4byte	.LASF89
 1621 09d2 10       		.byte	0x10
 1622 09d3 4F       		.byte	0x4f
 1623 09d4 88060000 		.4byte	0x688
 1624 09d8 02       		.byte	0x2
 1625 09d9 23       		.byte	0x23
 1626 09da 00       		.uleb128 0
 1627 09db 06       		.uleb128 0x6
 1628 09dc 3F070000 		.4byte	.LASF90
 1629 09e0 10       		.byte	0x10
 1630 09e1 4F       		.byte	0x4f
 1631 09e2 A8060000 		.4byte	0x6a8
 1632 09e6 02       		.byte	0x2
 1633 09e7 23       		.byte	0x23
 1634 09e8 04       		.uleb128 0x4
 1635 09e9 07       		.uleb128 0x7
 1636 09ea 70757400 		.ascii	"put\000"
 1637 09ee 10       		.byte	0x10
 1638 09ef 4F       		.byte	0x4f
 1639 09f0 C3060000 		.4byte	0x6c3
 1640 09f4 02       		.byte	0x2
ARM GAS  C:\Users\DNIEL~1\AppData\Local\Temp\ccnor429.s 			page 30


 1641 09f5 23       		.byte	0x23
 1642 09f6 08       		.uleb128 0x8
 1643 09f7 07       		.uleb128 0x7
 1644 09f8 67657400 		.ascii	"get\000"
 1645 09fc 10       		.byte	0x10
 1646 09fd 4F       		.byte	0x4f
 1647 09fe 02060000 		.4byte	0x602
 1648 0a02 02       		.byte	0x2
 1649 0a03 23       		.byte	0x23
 1650 0a04 0C       		.uleb128 0xc
 1651 0a05 06       		.uleb128 0x6
 1652 0a06 53030000 		.4byte	.LASF118
 1653 0a0a 10       		.byte	0x10
 1654 0a0b 4F       		.byte	0x4f
 1655 0a0c 580A0000 		.4byte	0xa58
 1656 0a10 02       		.byte	0x2
 1657 0a11 23       		.byte	0x23
 1658 0a12 10       		.uleb128 0x10
 1659 0a13 06       		.uleb128 0x6
 1660 0a14 92020000 		.4byte	.LASF119
 1661 0a18 10       		.byte	0x10
 1662 0a19 4F       		.byte	0x4f
 1663 0a1a 730A0000 		.4byte	0xa73
 1664 0a1e 02       		.byte	0x2
 1665 0a1f 23       		.byte	0x23
 1666 0a20 14       		.uleb128 0x14
 1667 0a21 06       		.uleb128 0x6
 1668 0a22 06030000 		.4byte	.LASF120
 1669 0a26 10       		.byte	0x10
 1670 0a27 4F       		.byte	0x4f
 1671 0a28 980A0000 		.4byte	0xa98
 1672 0a2c 02       		.byte	0x2
 1673 0a2d 23       		.byte	0x23
 1674 0a2e 18       		.uleb128 0x18
 1675 0a2f 06       		.uleb128 0x6
 1676 0a30 DD000000 		.4byte	.LASF121
 1677 0a34 10       		.byte	0x10
 1678 0a35 4F       		.byte	0x4f
 1679 0a36 BD0A0000 		.4byte	0xabd
 1680 0a3a 02       		.byte	0x2
 1681 0a3b 23       		.byte	0x23
 1682 0a3c 1C       		.uleb128 0x1c
 1683 0a3d 00       		.byte	0
 1684 0a3e 13       		.uleb128 0x13
 1685 0a3f 01       		.byte	0x1
 1686 0a40 EF000000 		.4byte	0xef
 1687 0a44 580A0000 		.4byte	0xa58
 1688 0a48 0F       		.uleb128 0xf
 1689 0a49 B9020000 		.4byte	0x2b9
 1690 0a4d 0F       		.uleb128 0xf
 1691 0a4e 49000000 		.4byte	0x49
 1692 0a52 0F       		.uleb128 0xf
 1693 0a53 10010000 		.4byte	0x110
 1694 0a57 00       		.byte	0
 1695 0a58 09       		.uleb128 0x9
 1696 0a59 04       		.byte	0x4
 1697 0a5a 3E0A0000 		.4byte	0xa3e
ARM GAS  C:\Users\DNIEL~1\AppData\Local\Temp\ccnor429.s 			page 31


 1698 0a5e 13       		.uleb128 0x13
 1699 0a5f 01       		.byte	0x1
 1700 0a60 EF000000 		.4byte	0xef
 1701 0a64 730A0000 		.4byte	0xa73
 1702 0a68 0F       		.uleb128 0xf
 1703 0a69 B9020000 		.4byte	0x2b9
 1704 0a6d 0F       		.uleb128 0xf
 1705 0a6e 10010000 		.4byte	0x110
 1706 0a72 00       		.byte	0
 1707 0a73 09       		.uleb128 0x9
 1708 0a74 04       		.byte	0x4
 1709 0a75 5E0A0000 		.4byte	0xa5e
 1710 0a79 13       		.uleb128 0x13
 1711 0a7a 01       		.byte	0x1
 1712 0a7b 30000000 		.4byte	0x30
 1713 0a7f 980A0000 		.4byte	0xa98
 1714 0a83 0F       		.uleb128 0xf
 1715 0a84 B9020000 		.4byte	0x2b9
 1716 0a88 0F       		.uleb128 0xf
 1717 0a89 7D060000 		.4byte	0x67d
 1718 0a8d 0F       		.uleb128 0xf
 1719 0a8e 30000000 		.4byte	0x30
 1720 0a92 0F       		.uleb128 0xf
 1721 0a93 10010000 		.4byte	0x110
 1722 0a97 00       		.byte	0
 1723 0a98 09       		.uleb128 0x9
 1724 0a99 04       		.byte	0x4
 1725 0a9a 790A0000 		.4byte	0xa79
 1726 0a9e 13       		.uleb128 0x13
 1727 0a9f 01       		.byte	0x1
 1728 0aa0 30000000 		.4byte	0x30
 1729 0aa4 BD0A0000 		.4byte	0xabd
 1730 0aa8 0F       		.uleb128 0xf
 1731 0aa9 B9020000 		.4byte	0x2b9
 1732 0aad 0F       		.uleb128 0xf
 1733 0aae 18060000 		.4byte	0x618
 1734 0ab2 0F       		.uleb128 0xf
 1735 0ab3 30000000 		.4byte	0x30
 1736 0ab7 0F       		.uleb128 0xf
 1737 0ab8 10010000 		.4byte	0x110
 1738 0abc 00       		.byte	0
 1739 0abd 09       		.uleb128 0x9
 1740 0abe 04       		.byte	0x4
 1741 0abf 9E0A0000 		.4byte	0xa9e
 1742 0ac3 08       		.uleb128 0x8
 1743 0ac4 04       		.byte	0x4
 1744 0ac5 10       		.byte	0x10
 1745 0ac6 59       		.byte	0x59
 1746 0ac7 DA0A0000 		.4byte	0xada
 1747 0acb 07       		.uleb128 0x7
 1748 0acc 766D7400 		.ascii	"vmt\000"
 1749 0ad0 10       		.byte	0x10
 1750 0ad1 5B       		.byte	0x5b
 1751 0ad2 DA0A0000 		.4byte	0xada
 1752 0ad6 02       		.byte	0x2
 1753 0ad7 23       		.byte	0x23
 1754 0ad8 00       		.uleb128 0
ARM GAS  C:\Users\DNIEL~1\AppData\Local\Temp\ccnor429.s 			page 32


 1755 0ad9 00       		.byte	0
 1756 0ada 09       		.uleb128 0x9
 1757 0adb 04       		.byte	0x4
 1758 0adc E00A0000 		.4byte	0xae0
 1759 0ae0 12       		.uleb128 0x12
 1760 0ae1 C1090000 		.4byte	0x9c1
 1761 0ae5 03       		.uleb128 0x3
 1762 0ae6 11070000 		.4byte	.LASF122
 1763 0aea 10       		.byte	0x10
 1764 0aeb 5D       		.byte	0x5d
 1765 0aec C30A0000 		.4byte	0xac3
 1766 0af0 1A       		.uleb128 0x1a
 1767 0af1 01       		.byte	0x1
 1768 0af2 11       		.byte	0x11
 1769 0af3 6E       		.byte	0x6e
 1770 0af4 170B0000 		.4byte	0xb17
 1771 0af8 1B       		.uleb128 0x1b
 1772 0af9 97040000 		.4byte	.LASF123
 1773 0afd 00       		.sleb128 0
 1774 0afe 1B       		.uleb128 0x1b
 1775 0aff 32040000 		.4byte	.LASF124
 1776 0b03 01       		.sleb128 1
 1777 0b04 1B       		.uleb128 0x1b
 1778 0b05 0A010000 		.4byte	.LASF125
 1779 0b09 02       		.sleb128 2
 1780 0b0a 1B       		.uleb128 0x1b
 1781 0b0b F6010000 		.4byte	.LASF126
 1782 0b0f 03       		.sleb128 3
 1783 0b10 1B       		.uleb128 0x1b
 1784 0b11 CE020000 		.4byte	.LASF127
 1785 0b15 04       		.sleb128 4
 1786 0b16 00       		.byte	0
 1787 0b17 03       		.uleb128 0x3
 1788 0b18 27040000 		.4byte	.LASF128
 1789 0b1c 11       		.byte	0x11
 1790 0b1d 74       		.byte	0x74
 1791 0b1e F00A0000 		.4byte	0xaf0
 1792 0b22 08       		.uleb128 0x8
 1793 0b23 01       		.byte	0x1
 1794 0b24 12       		.byte	0x12
 1795 0b25 9A       		.byte	0x9a
 1796 0b26 5E0B0000 		.4byte	0xb5e
 1797 0b2a 1C       		.uleb128 0x1c
 1798 0b2b 444C4300 		.ascii	"DLC\000"
 1799 0b2f 12       		.byte	0x12
 1800 0b30 9B       		.byte	0x9b
 1801 0b31 49000000 		.4byte	0x49
 1802 0b35 01       		.byte	0x1
 1803 0b36 04       		.byte	0x4
 1804 0b37 04       		.byte	0x4
 1805 0b38 02       		.byte	0x2
 1806 0b39 23       		.byte	0x23
 1807 0b3a 00       		.uleb128 0
 1808 0b3b 1C       		.uleb128 0x1c
 1809 0b3c 52545200 		.ascii	"RTR\000"
 1810 0b40 12       		.byte	0x12
 1811 0b41 9C       		.byte	0x9c
ARM GAS  C:\Users\DNIEL~1\AppData\Local\Temp\ccnor429.s 			page 33


 1812 0b42 49000000 		.4byte	0x49
 1813 0b46 01       		.byte	0x1
 1814 0b47 01       		.byte	0x1
 1815 0b48 03       		.byte	0x3
 1816 0b49 02       		.byte	0x2
 1817 0b4a 23       		.byte	0x23
 1818 0b4b 00       		.uleb128 0
 1819 0b4c 1C       		.uleb128 0x1c
 1820 0b4d 49444500 		.ascii	"IDE\000"
 1821 0b51 12       		.byte	0x12
 1822 0b52 9D       		.byte	0x9d
 1823 0b53 49000000 		.4byte	0x49
 1824 0b57 01       		.byte	0x1
 1825 0b58 01       		.byte	0x1
 1826 0b59 02       		.byte	0x2
 1827 0b5a 02       		.byte	0x2
 1828 0b5b 23       		.byte	0x23
 1829 0b5c 00       		.uleb128 0
 1830 0b5d 00       		.byte	0
 1831 0b5e 08       		.uleb128 0x8
 1832 0b5f 04       		.byte	0x4
 1833 0b60 12       		.byte	0x12
 1834 0b61 A0       		.byte	0xa0
 1835 0b62 780B0000 		.4byte	0xb78
 1836 0b66 1C       		.uleb128 0x1c
 1837 0b67 53494400 		.ascii	"SID\000"
 1838 0b6b 12       		.byte	0x12
 1839 0b6c A1       		.byte	0xa1
 1840 0b6d 86000000 		.4byte	0x86
 1841 0b71 04       		.byte	0x4
 1842 0b72 0B       		.byte	0xb
 1843 0b73 15       		.byte	0x15
 1844 0b74 02       		.byte	0x2
 1845 0b75 23       		.byte	0x23
 1846 0b76 00       		.uleb128 0
 1847 0b77 00       		.byte	0
 1848 0b78 08       		.uleb128 0x8
 1849 0b79 04       		.byte	0x4
 1850 0b7a 12       		.byte	0x12
 1851 0b7b A3       		.byte	0xa3
 1852 0b7c 920B0000 		.4byte	0xb92
 1853 0b80 1C       		.uleb128 0x1c
 1854 0b81 45494400 		.ascii	"EID\000"
 1855 0b85 12       		.byte	0x12
 1856 0b86 A4       		.byte	0xa4
 1857 0b87 86000000 		.4byte	0x86
 1858 0b8b 04       		.byte	0x4
 1859 0b8c 1D       		.byte	0x1d
 1860 0b8d 03       		.byte	0x3
 1861 0b8e 02       		.byte	0x2
 1862 0b8f 23       		.byte	0x23
 1863 0b90 00       		.uleb128 0
 1864 0b91 00       		.byte	0
 1865 0b92 10       		.uleb128 0x10
 1866 0b93 04       		.byte	0x4
 1867 0b94 12       		.byte	0x12
 1868 0b95 9F       		.byte	0x9f
ARM GAS  C:\Users\DNIEL~1\AppData\Local\Temp\ccnor429.s 			page 34


 1869 0b96 A50B0000 		.4byte	0xba5
 1870 0b9a 1D       		.uleb128 0x1d
 1871 0b9b 5E0B0000 		.4byte	0xb5e
 1872 0b9f 1D       		.uleb128 0x1d
 1873 0ba0 780B0000 		.4byte	0xb78
 1874 0ba4 00       		.byte	0
 1875 0ba5 10       		.uleb128 0x10
 1876 0ba6 08       		.byte	0x8
 1877 0ba7 12       		.byte	0x12
 1878 0ba8 A7       		.byte	0xa7
 1879 0ba9 CF0B0000 		.4byte	0xbcf
 1880 0bad 11       		.uleb128 0x11
 1881 0bae 78030000 		.4byte	.LASF129
 1882 0bb2 12       		.byte	0x12
 1883 0bb3 A8       		.byte	0xa8
 1884 0bb4 CF0B0000 		.4byte	0xbcf
 1885 0bb8 11       		.uleb128 0x11
 1886 0bb9 84060000 		.4byte	.LASF130
 1887 0bbd 12       		.byte	0x12
 1888 0bbe A9       		.byte	0xa9
 1889 0bbf DF0B0000 		.4byte	0xbdf
 1890 0bc3 11       		.uleb128 0x11
 1891 0bc4 B6000000 		.4byte	.LASF131
 1892 0bc8 12       		.byte	0x12
 1893 0bc9 AA       		.byte	0xaa
 1894 0bca 06070000 		.4byte	0x706
 1895 0bce 00       		.byte	0
 1896 0bcf 14       		.uleb128 0x14
 1897 0bd0 49000000 		.4byte	0x49
 1898 0bd4 DF0B0000 		.4byte	0xbdf
 1899 0bd8 15       		.uleb128 0x15
 1900 0bd9 7C030000 		.4byte	0x37c
 1901 0bdd 07       		.byte	0x7
 1902 0bde 00       		.byte	0
 1903 0bdf 14       		.uleb128 0x14
 1904 0be0 62000000 		.4byte	0x62
 1905 0be4 EF0B0000 		.4byte	0xbef
 1906 0be8 15       		.uleb128 0x15
 1907 0be9 7C030000 		.4byte	0x37c
 1908 0bed 03       		.byte	0x3
 1909 0bee 00       		.byte	0
 1910 0bef 08       		.uleb128 0x8
 1911 0bf0 10       		.byte	0x10
 1912 0bf1 12       		.byte	0x12
 1913 0bf2 99       		.byte	0x99
 1914 0bf3 100C0000 		.4byte	0xc10
 1915 0bf7 1E       		.uleb128 0x1e
 1916 0bf8 220B0000 		.4byte	0xb22
 1917 0bfc 02       		.byte	0x2
 1918 0bfd 23       		.byte	0x23
 1919 0bfe 00       		.uleb128 0
 1920 0bff 1E       		.uleb128 0x1e
 1921 0c00 920B0000 		.4byte	0xb92
 1922 0c04 02       		.byte	0x2
 1923 0c05 23       		.byte	0x23
 1924 0c06 04       		.uleb128 0x4
 1925 0c07 1E       		.uleb128 0x1e
ARM GAS  C:\Users\DNIEL~1\AppData\Local\Temp\ccnor429.s 			page 35


 1926 0c08 A50B0000 		.4byte	0xba5
 1927 0c0c 02       		.byte	0x2
 1928 0c0d 23       		.byte	0x23
 1929 0c0e 08       		.uleb128 0x8
 1930 0c0f 00       		.byte	0
 1931 0c10 03       		.uleb128 0x3
 1932 0c11 76020000 		.4byte	.LASF132
 1933 0c15 12       		.byte	0x12
 1934 0c16 AC       		.byte	0xac
 1935 0c17 EF0B0000 		.4byte	0xbef
 1936 0c1b 08       		.uleb128 0x8
 1937 0c1c 08       		.byte	0x8
 1938 0c1d 12       		.byte	0x12
 1939 0c1e F4       		.byte	0xf4
 1940 0c1f 410C0000 		.4byte	0xc41
 1941 0c23 07       		.uleb128 0x7
 1942 0c24 6D637200 		.ascii	"mcr\000"
 1943 0c28 12       		.byte	0x12
 1944 0c29 FA       		.byte	0xfa
 1945 0c2a 86000000 		.4byte	0x86
 1946 0c2e 02       		.byte	0x2
 1947 0c2f 23       		.byte	0x23
 1948 0c30 00       		.uleb128 0
 1949 0c31 0C       		.uleb128 0xc
 1950 0c32 62747200 		.ascii	"btr\000"
 1951 0c36 12       		.byte	0x12
 1952 0c37 0001     		.2byte	0x100
 1953 0c39 86000000 		.4byte	0x86
 1954 0c3d 02       		.byte	0x2
 1955 0c3e 23       		.byte	0x23
 1956 0c3f 04       		.uleb128 0x4
 1957 0c40 00       		.byte	0
 1958 0c41 18       		.uleb128 0x18
 1959 0c42 40000000 		.4byte	.LASF133
 1960 0c46 12       		.byte	0x12
 1961 0c47 0101     		.2byte	0x101
 1962 0c49 1B0C0000 		.4byte	0xc1b
 1963 0c4d 16       		.uleb128 0x16
 1964 0c4e 38       		.byte	0x38
 1965 0c4f 12       		.byte	0x12
 1966 0c50 0601     		.2byte	0x106
 1967 0c52 ED0C0000 		.4byte	0xced
 1968 0c56 17       		.uleb128 0x17
 1969 0c57 78010000 		.4byte	.LASF134
 1970 0c5b 12       		.byte	0x12
 1971 0c5c 0A01     		.2byte	0x10a
 1972 0c5e 170B0000 		.4byte	0xb17
 1973 0c62 02       		.byte	0x2
 1974 0c63 23       		.byte	0x23
 1975 0c64 00       		.uleb128 0
 1976 0c65 17       		.uleb128 0x17
 1977 0c66 C6050000 		.4byte	.LASF135
 1978 0c6a 12       		.byte	0x12
 1979 0c6b 0E01     		.2byte	0x10e
 1980 0c6d ED0C0000 		.4byte	0xced
 1981 0c71 02       		.byte	0x2
 1982 0c72 23       		.byte	0x23
ARM GAS  C:\Users\DNIEL~1\AppData\Local\Temp\ccnor429.s 			page 36


 1983 0c73 04       		.uleb128 0x4
 1984 0c74 17       		.uleb128 0x17
 1985 0c75 54010000 		.4byte	.LASF136
 1986 0c79 12       		.byte	0x12
 1987 0c7a 1201     		.2byte	0x112
 1988 0c7c E6040000 		.4byte	0x4e6
 1989 0c80 02       		.byte	0x2
 1990 0c81 23       		.byte	0x23
 1991 0c82 08       		.uleb128 0x8
 1992 0c83 17       		.uleb128 0x17
 1993 0c84 97020000 		.4byte	.LASF137
 1994 0c88 12       		.byte	0x12
 1995 0c89 1601     		.2byte	0x116
 1996 0c8b E6040000 		.4byte	0x4e6
 1997 0c8f 02       		.byte	0x2
 1998 0c90 23       		.byte	0x23
 1999 0c91 14       		.uleb128 0x14
 2000 0c92 17       		.uleb128 0x17
 2001 0c93 06020000 		.4byte	.LASF138
 2002 0c97 12       		.byte	0x12
 2003 0c98 2301     		.2byte	0x123
 2004 0c9a AA050000 		.4byte	0x5aa
 2005 0c9e 02       		.byte	0x2
 2006 0c9f 23       		.byte	0x23
 2007 0ca0 20       		.uleb128 0x20
 2008 0ca1 17       		.uleb128 0x17
 2009 0ca2 E7030000 		.4byte	.LASF139
 2010 0ca6 12       		.byte	0x12
 2011 0ca7 2A01     		.2byte	0x12a
 2012 0ca9 AA050000 		.4byte	0x5aa
 2013 0cad 02       		.byte	0x2
 2014 0cae 23       		.byte	0x23
 2015 0caf 24       		.uleb128 0x24
 2016 0cb0 17       		.uleb128 0x17
 2017 0cb1 86020000 		.4byte	.LASF140
 2018 0cb5 12       		.byte	0x12
 2019 0cb6 3001     		.2byte	0x130
 2020 0cb8 AA050000 		.4byte	0x5aa
 2021 0cbc 02       		.byte	0x2
 2022 0cbd 23       		.byte	0x23
 2023 0cbe 28       		.uleb128 0x28
 2024 0cbf 17       		.uleb128 0x17
 2025 0cc0 1B040000 		.4byte	.LASF141
 2026 0cc4 12       		.byte	0x12
 2027 0cc5 3501     		.2byte	0x135
 2028 0cc7 AA050000 		.4byte	0x5aa
 2029 0ccb 02       		.byte	0x2
 2030 0ccc 23       		.byte	0x23
 2031 0ccd 2C       		.uleb128 0x2c
 2032 0cce 17       		.uleb128 0x17
 2033 0ccf C6040000 		.4byte	.LASF142
 2034 0cd3 12       		.byte	0x12
 2035 0cd4 3901     		.2byte	0x139
 2036 0cd6 AA050000 		.4byte	0x5aa
 2037 0cda 02       		.byte	0x2
 2038 0cdb 23       		.byte	0x23
 2039 0cdc 30       		.uleb128 0x30
ARM GAS  C:\Users\DNIEL~1\AppData\Local\Temp\ccnor429.s 			page 37


 2040 0cdd 0C       		.uleb128 0xc
 2041 0cde 63616E00 		.ascii	"can\000"
 2042 0ce2 12       		.byte	0x12
 2043 0ce3 3F01     		.2byte	0x13f
 2044 0ce5 F80C0000 		.4byte	0xcf8
 2045 0ce9 02       		.byte	0x2
 2046 0cea 23       		.byte	0x23
 2047 0ceb 34       		.uleb128 0x34
 2048 0cec 00       		.byte	0
 2049 0ced 09       		.uleb128 0x9
 2050 0cee 04       		.byte	0x4
 2051 0cef F30C0000 		.4byte	0xcf3
 2052 0cf3 12       		.uleb128 0x12
 2053 0cf4 410C0000 		.4byte	0xc41
 2054 0cf8 09       		.uleb128 0x9
 2055 0cf9 04       		.byte	0x4
 2056 0cfa B5090000 		.4byte	0x9b5
 2057 0cfe 18       		.uleb128 0x18
 2058 0cff 8D030000 		.4byte	.LASF143
 2059 0d03 12       		.byte	0x12
 2060 0d04 4001     		.2byte	0x140
 2061 0d06 4D0C0000 		.4byte	0xc4d
 2062 0d0a 16       		.uleb128 0x16
 2063 0d0b 60       		.byte	0x60
 2064 0d0c 13       		.byte	0x13
 2065 0d0d 9E01     		.2byte	0x19e
 2066 0d0f 4D0E0000 		.4byte	0xe4d
 2067 0d13 0C       		.uleb128 0xc
 2068 0d14 43523100 		.ascii	"CR1\000"
 2069 0d18 13       		.byte	0x13
 2070 0d19 9F01     		.2byte	0x19f
 2071 0d1b 77030000 		.4byte	0x377
 2072 0d1f 02       		.byte	0x2
 2073 0d20 23       		.byte	0x23
 2074 0d21 00       		.uleb128 0
 2075 0d22 0C       		.uleb128 0xc
 2076 0d23 43523200 		.ascii	"CR2\000"
 2077 0d27 13       		.byte	0x13
 2078 0d28 A001     		.2byte	0x1a0
 2079 0d2a 77030000 		.4byte	0x377
 2080 0d2e 02       		.byte	0x2
 2081 0d2f 23       		.byte	0x23
 2082 0d30 04       		.uleb128 0x4
 2083 0d31 17       		.uleb128 0x17
 2084 0d32 C1050000 		.4byte	.LASF144
 2085 0d36 13       		.byte	0x13
 2086 0d37 A101     		.2byte	0x1a1
 2087 0d39 77030000 		.4byte	0x377
 2088 0d3d 02       		.byte	0x2
 2089 0d3e 23       		.byte	0x23
 2090 0d3f 08       		.uleb128 0x8
 2091 0d40 17       		.uleb128 0x17
 2092 0d41 0D000000 		.4byte	.LASF145
 2093 0d45 13       		.byte	0x13
 2094 0d46 A201     		.2byte	0x1a2
 2095 0d48 77030000 		.4byte	0x377
 2096 0d4c 02       		.byte	0x2
ARM GAS  C:\Users\DNIEL~1\AppData\Local\Temp\ccnor429.s 			page 38


 2097 0d4d 23       		.byte	0x23
 2098 0d4e 0C       		.uleb128 0xc
 2099 0d4f 0C       		.uleb128 0xc
 2100 0d50 535200   		.ascii	"SR\000"
 2101 0d53 13       		.byte	0x13
 2102 0d54 A301     		.2byte	0x1a3
 2103 0d56 77030000 		.4byte	0x377
 2104 0d5a 02       		.byte	0x2
 2105 0d5b 23       		.byte	0x23
 2106 0d5c 10       		.uleb128 0x10
 2107 0d5d 0C       		.uleb128 0xc
 2108 0d5e 45475200 		.ascii	"EGR\000"
 2109 0d62 13       		.byte	0x13
 2110 0d63 A401     		.2byte	0x1a4
 2111 0d65 77030000 		.4byte	0x377
 2112 0d69 02       		.byte	0x2
 2113 0d6a 23       		.byte	0x23
 2114 0d6b 14       		.uleb128 0x14
 2115 0d6c 17       		.uleb128 0x17
 2116 0d6d ED000000 		.4byte	.LASF146
 2117 0d71 13       		.byte	0x13
 2118 0d72 A501     		.2byte	0x1a5
 2119 0d74 77030000 		.4byte	0x377
 2120 0d78 02       		.byte	0x2
 2121 0d79 23       		.byte	0x23
 2122 0d7a 18       		.uleb128 0x18
 2123 0d7b 17       		.uleb128 0x17
 2124 0d7c F3000000 		.4byte	.LASF147
 2125 0d80 13       		.byte	0x13
 2126 0d81 A601     		.2byte	0x1a6
 2127 0d83 77030000 		.4byte	0x377
 2128 0d87 02       		.byte	0x2
 2129 0d88 23       		.byte	0x23
 2130 0d89 1C       		.uleb128 0x1c
 2131 0d8a 17       		.uleb128 0x17
 2132 0d8b AE010000 		.4byte	.LASF148
 2133 0d8f 13       		.byte	0x13
 2134 0d90 A701     		.2byte	0x1a7
 2135 0d92 77030000 		.4byte	0x377
 2136 0d96 02       		.byte	0x2
 2137 0d97 23       		.byte	0x23
 2138 0d98 20       		.uleb128 0x20
 2139 0d99 0C       		.uleb128 0xc
 2140 0d9a 434E5400 		.ascii	"CNT\000"
 2141 0d9e 13       		.byte	0x13
 2142 0d9f A801     		.2byte	0x1a8
 2143 0da1 77030000 		.4byte	0x377
 2144 0da5 02       		.byte	0x2
 2145 0da6 23       		.byte	0x23
 2146 0da7 24       		.uleb128 0x24
 2147 0da8 0C       		.uleb128 0xc
 2148 0da9 50534300 		.ascii	"PSC\000"
 2149 0dad 13       		.byte	0x13
 2150 0dae A901     		.2byte	0x1a9
 2151 0db0 77030000 		.4byte	0x377
 2152 0db4 02       		.byte	0x2
 2153 0db5 23       		.byte	0x23
ARM GAS  C:\Users\DNIEL~1\AppData\Local\Temp\ccnor429.s 			page 39


 2154 0db6 28       		.uleb128 0x28
 2155 0db7 0C       		.uleb128 0xc
 2156 0db8 41525200 		.ascii	"ARR\000"
 2157 0dbc 13       		.byte	0x13
 2158 0dbd AA01     		.2byte	0x1aa
 2159 0dbf 77030000 		.4byte	0x377
 2160 0dc3 02       		.byte	0x2
 2161 0dc4 23       		.byte	0x23
 2162 0dc5 2C       		.uleb128 0x2c
 2163 0dc6 0C       		.uleb128 0xc
 2164 0dc7 52435200 		.ascii	"RCR\000"
 2165 0dcb 13       		.byte	0x13
 2166 0dcc AB01     		.2byte	0x1ab
 2167 0dce 77030000 		.4byte	0x377
 2168 0dd2 02       		.byte	0x2
 2169 0dd3 23       		.byte	0x23
 2170 0dd4 30       		.uleb128 0x30
 2171 0dd5 0C       		.uleb128 0xc
 2172 0dd6 43435200 		.ascii	"CCR\000"
 2173 0dda 13       		.byte	0x13
 2174 0ddb AC01     		.2byte	0x1ac
 2175 0ddd 4D0E0000 		.4byte	0xe4d
 2176 0de1 02       		.byte	0x2
 2177 0de2 23       		.byte	0x23
 2178 0de3 34       		.uleb128 0x34
 2179 0de4 17       		.uleb128 0x17
 2180 0de5 BD000000 		.4byte	.LASF149
 2181 0de9 13       		.byte	0x13
 2182 0dea AD01     		.2byte	0x1ad
 2183 0dec 77030000 		.4byte	0x377
 2184 0df0 02       		.byte	0x2
 2185 0df1 23       		.byte	0x23
 2186 0df2 44       		.uleb128 0x44
 2187 0df3 0C       		.uleb128 0xc
 2188 0df4 44435200 		.ascii	"DCR\000"
 2189 0df8 13       		.byte	0x13
 2190 0df9 AE01     		.2byte	0x1ae
 2191 0dfb 77030000 		.4byte	0x377
 2192 0dff 02       		.byte	0x2
 2193 0e00 23       		.byte	0x23
 2194 0e01 48       		.uleb128 0x48
 2195 0e02 17       		.uleb128 0x17
 2196 0e03 CD050000 		.4byte	.LASF150
 2197 0e07 13       		.byte	0x13
 2198 0e08 AF01     		.2byte	0x1af
 2199 0e0a 77030000 		.4byte	0x377
 2200 0e0e 02       		.byte	0x2
 2201 0e0f 23       		.byte	0x23
 2202 0e10 4C       		.uleb128 0x4c
 2203 0e11 0C       		.uleb128 0xc
 2204 0e12 4F5200   		.ascii	"OR\000"
 2205 0e15 13       		.byte	0x13
 2206 0e16 B001     		.2byte	0x1b0
 2207 0e18 77030000 		.4byte	0x377
 2208 0e1c 02       		.byte	0x2
 2209 0e1d 23       		.byte	0x23
 2210 0e1e 50       		.uleb128 0x50
ARM GAS  C:\Users\DNIEL~1\AppData\Local\Temp\ccnor429.s 			page 40


 2211 0e1f 17       		.uleb128 0x17
 2212 0e20 56000000 		.4byte	.LASF151
 2213 0e24 13       		.byte	0x13
 2214 0e25 B101     		.2byte	0x1b1
 2215 0e27 77030000 		.4byte	0x377
 2216 0e2b 02       		.byte	0x2
 2217 0e2c 23       		.byte	0x23
 2218 0e2d 54       		.uleb128 0x54
 2219 0e2e 17       		.uleb128 0x17
 2220 0e2f A2060000 		.4byte	.LASF152
 2221 0e33 13       		.byte	0x13
 2222 0e34 B201     		.2byte	0x1b2
 2223 0e36 77030000 		.4byte	0x377
 2224 0e3a 02       		.byte	0x2
 2225 0e3b 23       		.byte	0x23
 2226 0e3c 58       		.uleb128 0x58
 2227 0e3d 17       		.uleb128 0x17
 2228 0e3e A7060000 		.4byte	.LASF153
 2229 0e42 13       		.byte	0x13
 2230 0e43 B301     		.2byte	0x1b3
 2231 0e45 77030000 		.4byte	0x377
 2232 0e49 02       		.byte	0x2
 2233 0e4a 23       		.byte	0x23
 2234 0e4b 5C       		.uleb128 0x5c
 2235 0e4c 00       		.byte	0
 2236 0e4d 0D       		.uleb128 0xd
 2237 0e4e 16070000 		.4byte	0x716
 2238 0e52 18       		.uleb128 0x18
 2239 0e53 17010000 		.4byte	.LASF154
 2240 0e57 13       		.byte	0x13
 2241 0e58 B401     		.2byte	0x1b4
 2242 0e5a 0A0D0000 		.4byte	0xd0a
 2243 0e5e 09       		.uleb128 0x9
 2244 0e5f 04       		.byte	0x4
 2245 0e60 520E0000 		.4byte	0xe52
 2246 0e64 1A       		.uleb128 0x1a
 2247 0e65 01       		.byte	0x1
 2248 0e66 14       		.byte	0x14
 2249 0e67 55       		.byte	0x55
 2250 0e68 7F0E0000 		.4byte	0xe7f
 2251 0e6c 1B       		.uleb128 0x1b
 2252 0e6d 70070000 		.4byte	.LASF155
 2253 0e71 00       		.sleb128 0
 2254 0e72 1B       		.uleb128 0x1b
 2255 0e73 AE050000 		.4byte	.LASF156
 2256 0e77 01       		.sleb128 1
 2257 0e78 1B       		.uleb128 0x1b
 2258 0e79 D3000000 		.4byte	.LASF157
 2259 0e7d 02       		.sleb128 2
 2260 0e7e 00       		.byte	0
 2261 0e7f 03       		.uleb128 0x3
 2262 0e80 1D070000 		.4byte	.LASF158
 2263 0e84 14       		.byte	0x14
 2264 0e85 59       		.byte	0x59
 2265 0e86 640E0000 		.4byte	0xe64
 2266 0e8a 03       		.uleb128 0x3
 2267 0e8b E3000000 		.4byte	.LASF159
ARM GAS  C:\Users\DNIEL~1\AppData\Local\Temp\ccnor429.s 			page 41


 2268 0e8f 14       		.byte	0x14
 2269 0e90 5E       		.byte	0x5e
 2270 0e91 950E0000 		.4byte	0xe95
 2271 0e95 0B       		.uleb128 0xb
 2272 0e96 E3000000 		.4byte	.LASF159
 2273 0e9a 14       		.byte	0x14
 2274 0e9b 15       		.byte	0x15
 2275 0e9c 6F01     		.2byte	0x16f
 2276 0e9e EE0E0000 		.4byte	0xeee
 2277 0ea2 17       		.uleb128 0x17
 2278 0ea3 78010000 		.4byte	.LASF134
 2279 0ea7 15       		.byte	0x15
 2280 0ea8 7301     		.2byte	0x173
 2281 0eaa 7F0E0000 		.4byte	0xe7f
 2282 0eae 02       		.byte	0x2
 2283 0eaf 23       		.byte	0x23
 2284 0eb0 00       		.uleb128 0
 2285 0eb1 17       		.uleb128 0x17
 2286 0eb2 C6050000 		.4byte	.LASF135
 2287 0eb6 15       		.byte	0x15
 2288 0eb7 7701     		.2byte	0x177
 2289 0eb9 E90F0000 		.4byte	0xfe9
 2290 0ebd 02       		.byte	0x2
 2291 0ebe 23       		.byte	0x23
 2292 0ebf 04       		.uleb128 0x4
 2293 0ec0 17       		.uleb128 0x17
 2294 0ec1 6F000000 		.4byte	.LASF160
 2295 0ec5 15       		.byte	0x15
 2296 0ec6 7B01     		.2byte	0x17b
 2297 0ec8 290F0000 		.4byte	0xf29
 2298 0ecc 02       		.byte	0x2
 2299 0ecd 23       		.byte	0x23
 2300 0ece 08       		.uleb128 0x8
 2301 0ecf 17       		.uleb128 0x17
 2302 0ed0 5F070000 		.4byte	.LASF161
 2303 0ed4 15       		.byte	0x15
 2304 0ed5 8301     		.2byte	0x183
 2305 0ed7 86000000 		.4byte	0x86
 2306 0edb 02       		.byte	0x2
 2307 0edc 23       		.byte	0x23
 2308 0edd 0C       		.uleb128 0xc
 2309 0ede 0C       		.uleb128 0xc
 2310 0edf 74696D00 		.ascii	"tim\000"
 2311 0ee3 15       		.byte	0x15
 2312 0ee4 8701     		.2byte	0x187
 2313 0ee6 5E0E0000 		.4byte	0xe5e
 2314 0eea 02       		.byte	0x2
 2315 0eeb 23       		.byte	0x23
 2316 0eec 10       		.uleb128 0x10
 2317 0eed 00       		.byte	0
 2318 0eee 03       		.uleb128 0x3
 2319 0eef 4C040000 		.4byte	.LASF162
 2320 0ef3 14       		.byte	0x14
 2321 0ef4 65       		.byte	0x65
 2322 0ef5 F90E0000 		.4byte	0xef9
 2323 0ef9 09       		.uleb128 0x9
 2324 0efa 04       		.byte	0x4
ARM GAS  C:\Users\DNIEL~1\AppData\Local\Temp\ccnor429.s 			page 42


 2325 0efb FF0E0000 		.4byte	0xeff
 2326 0eff 0E       		.uleb128 0xe
 2327 0f00 01       		.byte	0x1
 2328 0f01 0B0F0000 		.4byte	0xf0b
 2329 0f05 0F       		.uleb128 0xf
 2330 0f06 0B0F0000 		.4byte	0xf0b
 2331 0f0a 00       		.byte	0
 2332 0f0b 09       		.uleb128 0x9
 2333 0f0c 04       		.byte	0x4
 2334 0f0d 8A0E0000 		.4byte	0xe8a
 2335 0f11 18       		.uleb128 0x18
 2336 0f12 9D020000 		.4byte	.LASF163
 2337 0f16 15       		.byte	0x15
 2338 0f17 2001     		.2byte	0x120
 2339 0f19 86000000 		.4byte	0x86
 2340 0f1d 18       		.uleb128 0x18
 2341 0f1e 00000000 		.4byte	.LASF164
 2342 0f22 15       		.byte	0x15
 2343 0f23 2501     		.2byte	0x125
 2344 0f25 49000000 		.4byte	0x49
 2345 0f29 18       		.uleb128 0x18
 2346 0f2a 28070000 		.4byte	.LASF165
 2347 0f2e 15       		.byte	0x15
 2348 0f2f 2A01     		.2byte	0x12a
 2349 0f31 62000000 		.4byte	0x62
 2350 0f35 16       		.uleb128 0x16
 2351 0f36 08       		.byte	0x8
 2352 0f37 15       		.byte	0x15
 2353 0f38 2F01     		.2byte	0x12f
 2354 0f3a 5D0F0000 		.4byte	0xf5d
 2355 0f3e 17       		.uleb128 0x17
 2356 0f3f BC050000 		.4byte	.LASF166
 2357 0f43 15       		.byte	0x15
 2358 0f44 3301     		.2byte	0x133
 2359 0f46 110F0000 		.4byte	0xf11
 2360 0f4a 02       		.byte	0x2
 2361 0f4b 23       		.byte	0x23
 2362 0f4c 00       		.uleb128 0
 2363 0f4d 17       		.uleb128 0x17
 2364 0f4e D4010000 		.4byte	.LASF167
 2365 0f52 15       		.byte	0x15
 2366 0f53 3901     		.2byte	0x139
 2367 0f55 EE0E0000 		.4byte	0xeee
 2368 0f59 02       		.byte	0x2
 2369 0f5a 23       		.byte	0x23
 2370 0f5b 04       		.uleb128 0x4
 2371 0f5c 00       		.byte	0
 2372 0f5d 18       		.uleb128 0x18
 2373 0f5e 33060000 		.4byte	.LASF168
 2374 0f62 15       		.byte	0x15
 2375 0f63 3B01     		.2byte	0x13b
 2376 0f65 350F0000 		.4byte	0xf35
 2377 0f69 16       		.uleb128 0x16
 2378 0f6a 34       		.byte	0x34
 2379 0f6b 15       		.byte	0x15
 2380 0f6c 4001     		.2byte	0x140
 2381 0f6e CD0F0000 		.4byte	0xfcd
ARM GAS  C:\Users\DNIEL~1\AppData\Local\Temp\ccnor429.s 			page 43


 2382 0f72 17       		.uleb128 0x17
 2383 0f73 C2000000 		.4byte	.LASF169
 2384 0f77 15       		.byte	0x15
 2385 0f78 4601     		.2byte	0x146
 2386 0f7a 86000000 		.4byte	0x86
 2387 0f7e 02       		.byte	0x2
 2388 0f7f 23       		.byte	0x23
 2389 0f80 00       		.uleb128 0
 2390 0f81 17       		.uleb128 0x17
 2391 0f82 6F000000 		.4byte	.LASF160
 2392 0f86 15       		.byte	0x15
 2393 0f87 4C01     		.2byte	0x14c
 2394 0f89 290F0000 		.4byte	0xf29
 2395 0f8d 02       		.byte	0x2
 2396 0f8e 23       		.byte	0x23
 2397 0f8f 04       		.uleb128 0x4
 2398 0f90 17       		.uleb128 0x17
 2399 0f91 D4010000 		.4byte	.LASF167
 2400 0f95 15       		.byte	0x15
 2401 0f96 5201     		.2byte	0x152
 2402 0f98 EE0E0000 		.4byte	0xeee
 2403 0f9c 02       		.byte	0x2
 2404 0f9d 23       		.byte	0x23
 2405 0f9e 08       		.uleb128 0x8
 2406 0f9f 17       		.uleb128 0x17
 2407 0fa0 0B060000 		.4byte	.LASF170
 2408 0fa4 15       		.byte	0x15
 2409 0fa5 5601     		.2byte	0x156
 2410 0fa7 CD0F0000 		.4byte	0xfcd
 2411 0fab 02       		.byte	0x2
 2412 0fac 23       		.byte	0x23
 2413 0fad 0C       		.uleb128 0xc
 2414 0fae 0C       		.uleb128 0xc
 2415 0faf 63723200 		.ascii	"cr2\000"
 2416 0fb3 15       		.byte	0x15
 2417 0fb4 5C01     		.2byte	0x15c
 2418 0fb6 86000000 		.4byte	0x86
 2419 0fba 02       		.byte	0x2
 2420 0fbb 23       		.byte	0x23
 2421 0fbc 2C       		.uleb128 0x2c
 2422 0fbd 17       		.uleb128 0x17
 2423 0fbe 9A070000 		.4byte	.LASF171
 2424 0fc2 15       		.byte	0x15
 2425 0fc3 6901     		.2byte	0x169
 2426 0fc5 86000000 		.4byte	0x86
 2427 0fc9 02       		.byte	0x2
 2428 0fca 23       		.byte	0x23
 2429 0fcb 30       		.uleb128 0x30
 2430 0fcc 00       		.byte	0
 2431 0fcd 14       		.uleb128 0x14
 2432 0fce 5D0F0000 		.4byte	0xf5d
 2433 0fd2 DD0F0000 		.4byte	0xfdd
 2434 0fd6 15       		.uleb128 0x15
 2435 0fd7 7C030000 		.4byte	0x37c
 2436 0fdb 03       		.byte	0x3
 2437 0fdc 00       		.byte	0
 2438 0fdd 18       		.uleb128 0x18
ARM GAS  C:\Users\DNIEL~1\AppData\Local\Temp\ccnor429.s 			page 44


 2439 0fde 98050000 		.4byte	.LASF172
 2440 0fe2 15       		.byte	0x15
 2441 0fe3 6A01     		.2byte	0x16a
 2442 0fe5 690F0000 		.4byte	0xf69
 2443 0fe9 09       		.uleb128 0x9
 2444 0fea 04       		.byte	0x4
 2445 0feb EF0F0000 		.4byte	0xfef
 2446 0fef 12       		.uleb128 0x12
 2447 0ff0 DD0F0000 		.4byte	0xfdd
 2448 0ff4 09       		.uleb128 0x9
 2449 0ff5 04       		.byte	0x4
 2450 0ff6 F5050000 		.4byte	0x5f5
 2451 0ffa 04       		.uleb128 0x4
 2452 0ffb 08       		.byte	0x8
 2453 0ffc 04       		.byte	0x4
 2454 0ffd 83070000 		.4byte	.LASF173
 2455 1001 04       		.uleb128 0x4
 2456 1002 04       		.byte	0x4
 2457 1003 04       		.byte	0x4
 2458 1004 41040000 		.4byte	.LASF174
 2459 1008 04       		.uleb128 0x4
 2460 1009 08       		.byte	0x8
 2461 100a 04       		.byte	0x4
 2462 100b A2050000 		.4byte	.LASF175
 2463 100f 03       		.uleb128 0x3
 2464 1010 7E030000 		.4byte	.LASF176
 2465 1014 16       		.byte	0x16
 2466 1015 28       		.byte	0x28
 2467 1016 1A100000 		.4byte	0x101a
 2468 101a 05       		.uleb128 0x5
 2469 101b CA010000 		.4byte	.LASF177
 2470 101f 04       		.byte	0x4
 2471 1020 17       		.byte	0x17
 2472 1021 00       		.byte	0
 2473 1022 34100000 		.4byte	0x1034
 2474 1026 1F       		.uleb128 0x1f
 2475 1027 21060000 		.4byte	.LASF178
 2476 102b B9020000 		.4byte	0x2b9
 2477 102f 02       		.byte	0x2
 2478 1030 23       		.byte	0x23
 2479 1031 00       		.uleb128 0
 2480 1032 01       		.byte	0x1
 2481 1033 00       		.byte	0
 2482 1034 03       		.uleb128 0x3
 2483 1035 2C020000 		.4byte	.LASF179
 2484 1039 16       		.byte	0x16
 2485 103a 66       		.byte	0x66
 2486 103b 0F100000 		.4byte	0x100f
 2487 103f 20       		.uleb128 0x20
 2488 1040 9F070000 		.4byte	.LASF199
 2489 1044 01       		.byte	0x1
 2490 1045 45       		.byte	0x45
 2491 1046 01       		.byte	0x1
 2492 1047 00000000 		.4byte	.LFB118
 2493 104b 1E000000 		.4byte	.LFE118
 2494 104f 00000000 		.4byte	.LLST0
 2495 1053 01       		.byte	0x1
ARM GAS  C:\Users\DNIEL~1\AppData\Local\Temp\ccnor429.s 			page 45


 2496 1054 A2100000 		.4byte	0x10a2
 2497 1058 21       		.uleb128 0x21
 2498 1059 63687000 		.ascii	"chp\000"
 2499 105d 01       		.byte	0x1
 2500 105e 45       		.byte	0x45
 2501 105f A2100000 		.4byte	0x10a2
 2502 1063 38000000 		.4byte	.LLST1
 2503 1067 22       		.uleb128 0x22
 2504 1068 666D7400 		.ascii	"fmt\000"
 2505 106c 01       		.byte	0x1
 2506 106d 45       		.byte	0x45
 2507 106e EA050000 		.4byte	0x5ea
 2508 1072 02       		.byte	0x2
 2509 1073 91       		.byte	0x91
 2510 1074 74       		.sleb128 -12
 2511 1075 23       		.uleb128 0x23
 2512 1076 24       		.uleb128 0x24
 2513 1077 617000   		.ascii	"ap\000"
 2514 107a 01       		.byte	0x1
 2515 107b 46       		.byte	0x46
 2516 107c 34100000 		.4byte	0x1034
 2517 1080 02       		.byte	0x2
 2518 1081 91       		.byte	0x91
 2519 1082 6C       		.sleb128 -20
 2520 1083 25       		.uleb128 0x25
 2521 1084 14000000 		.4byte	.LVL1
 2522 1088 B6120000 		.4byte	0x12b6
 2523 108c 26       		.uleb128 0x26
 2524 108d 01       		.byte	0x1
 2525 108e 52       		.byte	0x52
 2526 108f 02       		.byte	0x2
 2527 1090 91       		.byte	0x91
 2528 1091 60       		.sleb128 -32
 2529 1092 26       		.uleb128 0x26
 2530 1093 01       		.byte	0x1
 2531 1094 51       		.byte	0x51
 2532 1095 03       		.byte	0x3
 2533 1096 91       		.byte	0x91
 2534 1097 5C       		.sleb128 -36
 2535 1098 06       		.byte	0x6
 2536 1099 26       		.uleb128 0x26
 2537 109a 01       		.byte	0x1
 2538 109b 50       		.byte	0x50
 2539 109c 03       		.byte	0x3
 2540 109d F3       		.byte	0xf3
 2541 109e 01       		.uleb128 0x1
 2542 109f 50       		.byte	0x50
 2543 10a0 00       		.byte	0
 2544 10a1 00       		.byte	0
 2545 10a2 09       		.uleb128 0x9
 2546 10a3 04       		.byte	0x4
 2547 10a4 EB060000 		.4byte	0x6eb
 2548 10a8 27       		.uleb128 0x27
 2549 10a9 01       		.byte	0x1
 2550 10aa 4B050000 		.4byte	.LASF180
 2551 10ae 02       		.byte	0x2
 2552 10af 3A       		.byte	0x3a
ARM GAS  C:\Users\DNIEL~1\AppData\Local\Temp\ccnor429.s 			page 46


 2553 10b0 01       		.byte	0x1
 2554 10b1 00000000 		.4byte	.LFB120
 2555 10b5 14000000 		.4byte	.LFE120
 2556 10b9 02       		.byte	0x2
 2557 10ba 7D       		.byte	0x7d
 2558 10bb 00       		.sleb128 0
 2559 10bc 01       		.byte	0x1
 2560 10bd D6100000 		.4byte	0x10d6
 2561 10c1 28       		.uleb128 0x28
 2562 10c2 14000000 		.4byte	.LVL2
 2563 10c6 01       		.byte	0x1
 2564 10c7 D4120000 		.4byte	0x12d4
 2565 10cb 26       		.uleb128 0x26
 2566 10cc 01       		.byte	0x1
 2567 10cd 51       		.byte	0x51
 2568 10ce 05       		.byte	0x5
 2569 10cf 03       		.byte	0x3
 2570 10d0 00000000 		.4byte	.LANCHOR0
 2571 10d4 00       		.byte	0
 2572 10d5 00       		.byte	0
 2573 10d6 29       		.uleb128 0x29
 2574 10d7 01       		.byte	0x1
 2575 10d8 5C000000 		.4byte	.LASF181
 2576 10dc 02       		.byte	0x2
 2577 10dd 43       		.byte	0x43
 2578 10de 01       		.byte	0x1
 2579 10df 00000000 		.4byte	.LFB121
 2580 10e3 60000000 		.4byte	.LFE121
 2581 10e7 59000000 		.4byte	.LLST2
 2582 10eb 01       		.byte	0x1
 2583 10ec 39110000 		.4byte	0x1139
 2584 10f0 2A       		.uleb128 0x2a
 2585 10f1 38000000 		.4byte	.LVL3
 2586 10f5 ED120000 		.4byte	0x12ed
 2587 10f9 09110000 		.4byte	0x1109
 2588 10fd 26       		.uleb128 0x26
 2589 10fe 01       		.byte	0x1
 2590 10ff 51       		.byte	0x51
 2591 1100 01       		.byte	0x1
 2592 1101 30       		.byte	0x30
 2593 1102 26       		.uleb128 0x26
 2594 1103 01       		.byte	0x1
 2595 1104 50       		.byte	0x50
 2596 1105 02       		.byte	0x2
 2597 1106 74       		.byte	0x74
 2598 1107 00       		.sleb128 0
 2599 1108 00       		.byte	0
 2600 1109 2A       		.uleb128 0x2a
 2601 110a 44000000 		.4byte	.LVL4
 2602 110e ED120000 		.4byte	0x12ed
 2603 1112 22110000 		.4byte	0x1122
 2604 1116 26       		.uleb128 0x26
 2605 1117 01       		.byte	0x1
 2606 1118 51       		.byte	0x51
 2607 1119 01       		.byte	0x1
 2608 111a 32       		.byte	0x32
 2609 111b 26       		.uleb128 0x26
ARM GAS  C:\Users\DNIEL~1\AppData\Local\Temp\ccnor429.s 			page 47


 2610 111c 01       		.byte	0x1
 2611 111d 50       		.byte	0x50
 2612 111e 02       		.byte	0x2
 2613 111f 74       		.byte	0x74
 2614 1120 00       		.sleb128 0
 2615 1121 00       		.byte	0
 2616 1122 28       		.uleb128 0x28
 2617 1123 60000000 		.4byte	.LVL5
 2618 1127 01       		.byte	0x1
 2619 1128 ED120000 		.4byte	0x12ed
 2620 112c 26       		.uleb128 0x26
 2621 112d 01       		.byte	0x1
 2622 112e 51       		.byte	0x51
 2623 112f 01       		.byte	0x1
 2624 1130 33       		.byte	0x33
 2625 1131 26       		.uleb128 0x26
 2626 1132 01       		.byte	0x1
 2627 1133 50       		.byte	0x50
 2628 1134 02       		.byte	0x2
 2629 1135 74       		.byte	0x74
 2630 1136 00       		.sleb128 0
 2631 1137 00       		.byte	0
 2632 1138 00       		.byte	0
 2633 1139 29       		.uleb128 0x29
 2634 113a 01       		.byte	0x1
 2635 113b 29000000 		.4byte	.LASF182
 2636 113f 02       		.byte	0x2
 2637 1140 54       		.byte	0x54
 2638 1141 01       		.byte	0x1
 2639 1142 00000000 		.4byte	.LFB122
 2640 1146 64000000 		.4byte	.LFE122
 2641 114a 79000000 		.4byte	.LLST3
 2642 114e 01       		.byte	0x1
 2643 114f 24120000 		.4byte	0x1224
 2644 1153 21       		.uleb128 0x21
 2645 1154 63687000 		.ascii	"chp\000"
 2646 1158 02       		.byte	0x2
 2647 1159 54       		.byte	0x54
 2648 115a A2100000 		.4byte	0x10a2
 2649 115e 99000000 		.4byte	.LLST4
 2650 1162 2B       		.uleb128 0x2b
 2651 1163 44070000 		.4byte	.LASF183
 2652 1167 02       		.byte	0x2
 2653 1168 54       		.byte	0x54
 2654 1169 29000000 		.4byte	0x29
 2655 116d D8000000 		.4byte	.LLST5
 2656 1171 2B       		.uleb128 0x2b
 2657 1172 6B070000 		.4byte	.LASF184
 2658 1176 02       		.byte	0x2
 2659 1177 54       		.byte	0x54
 2660 1178 24120000 		.4byte	0x1224
 2661 117c F9000000 		.4byte	.LLST6
 2662 1180 2A       		.uleb128 0x2a
 2663 1181 0C000000 		.4byte	.LVL8
 2664 1185 3F100000 		.4byte	0x103f
 2665 1189 9D110000 		.4byte	0x119d
 2666 118d 26       		.uleb128 0x26
ARM GAS  C:\Users\DNIEL~1\AppData\Local\Temp\ccnor429.s 			page 48


 2667 118e 01       		.byte	0x1
 2668 118f 51       		.byte	0x51
 2669 1190 05       		.byte	0x5
 2670 1191 03       		.byte	0x3
 2671 1192 00000000 		.4byte	.LC0
 2672 1196 26       		.uleb128 0x26
 2673 1197 01       		.byte	0x1
 2674 1198 50       		.byte	0x50
 2675 1199 02       		.byte	0x2
 2676 119a 74       		.byte	0x74
 2677 119b 00       		.sleb128 0
 2678 119c 00       		.byte	0
 2679 119d 2A       		.uleb128 0x2a
 2680 119e 14000000 		.4byte	.LVL9
 2681 11a2 3F100000 		.4byte	0x103f
 2682 11a6 BA110000 		.4byte	0x11ba
 2683 11aa 26       		.uleb128 0x26
 2684 11ab 01       		.byte	0x1
 2685 11ac 51       		.byte	0x51
 2686 11ad 05       		.byte	0x5
 2687 11ae 03       		.byte	0x3
 2688 11af 04000000 		.4byte	.LC1
 2689 11b3 26       		.uleb128 0x26
 2690 11b4 01       		.byte	0x1
 2691 11b5 50       		.byte	0x50
 2692 11b6 02       		.byte	0x2
 2693 11b7 74       		.byte	0x74
 2694 11b8 00       		.sleb128 0
 2695 11b9 00       		.byte	0
 2696 11ba 2C       		.uleb128 0x2c
 2697 11bb 1A000000 		.4byte	.LVL11
 2698 11bf 3F100000 		.4byte	0x103f
 2699 11c3 2A       		.uleb128 0x2a
 2700 11c4 22000000 		.4byte	.LVL12
 2701 11c8 3F100000 		.4byte	0x103f
 2702 11cc E0110000 		.4byte	0x11e0
 2703 11d0 26       		.uleb128 0x26
 2704 11d1 01       		.byte	0x1
 2705 11d2 51       		.byte	0x51
 2706 11d3 05       		.byte	0x5
 2707 11d4 03       		.byte	0x3
 2708 11d5 18000000 		.4byte	.LC3
 2709 11d9 26       		.uleb128 0x26
 2710 11da 01       		.byte	0x1
 2711 11db 50       		.byte	0x50
 2712 11dc 02       		.byte	0x2
 2713 11dd 74       		.byte	0x74
 2714 11de 00       		.sleb128 0
 2715 11df 00       		.byte	0
 2716 11e0 2A       		.uleb128 0x2a
 2717 11e1 2C000000 		.4byte	.LVL13
 2718 11e5 3F100000 		.4byte	0x103f
 2719 11e9 FD110000 		.4byte	0x11fd
 2720 11ed 26       		.uleb128 0x26
 2721 11ee 01       		.byte	0x1
 2722 11ef 51       		.byte	0x51
 2723 11f0 05       		.byte	0x5
ARM GAS  C:\Users\DNIEL~1\AppData\Local\Temp\ccnor429.s 			page 49


 2724 11f1 03       		.byte	0x3
 2725 11f2 2C000000 		.4byte	.LC4
 2726 11f6 26       		.uleb128 0x26
 2727 11f7 01       		.byte	0x1
 2728 11f8 50       		.byte	0x50
 2729 11f9 02       		.byte	0x2
 2730 11fa 74       		.byte	0x74
 2731 11fb 00       		.sleb128 0
 2732 11fc 00       		.byte	0
 2733 11fd 2A       		.uleb128 0x2a
 2734 11fe 34000000 		.4byte	.LVL14
 2735 1202 0B130000 		.4byte	0x130b
 2736 1206 12120000 		.4byte	0x1212
 2737 120a 26       		.uleb128 0x26
 2738 120b 01       		.byte	0x1
 2739 120c 50       		.byte	0x50
 2740 120d 03       		.byte	0x3
 2741 120e 0A       		.byte	0xa
 2742 120f E803     		.2byte	0x3e8
 2743 1211 00       		.byte	0
 2744 1212 2D       		.uleb128 0x2d
 2745 1213 3E000000 		.4byte	.LVL15
 2746 1217 26       		.uleb128 0x26
 2747 1218 01       		.byte	0x1
 2748 1219 51       		.byte	0x51
 2749 121a 01       		.byte	0x1
 2750 121b 30       		.byte	0x30
 2751 121c 26       		.uleb128 0x26
 2752 121d 01       		.byte	0x1
 2753 121e 50       		.byte	0x50
 2754 121f 02       		.byte	0x2
 2755 1220 74       		.byte	0x74
 2756 1221 00       		.sleb128 0
 2757 1222 00       		.byte	0
 2758 1223 00       		.byte	0
 2759 1224 09       		.uleb128 0x9
 2760 1225 04       		.byte	0x4
 2761 1226 F40F0000 		.4byte	0xff4
 2762 122a 2E       		.uleb128 0x2e
 2763 122b 7E000000 		.4byte	.LASF186
 2764 122f 02       		.byte	0x2
 2765 1230 0D       		.byte	0xd
 2766 1231 100C0000 		.4byte	0xc10
 2767 1235 2F       		.uleb128 0x2f
 2768 1236 60060000 		.4byte	.LASF185
 2769 123a 02       		.byte	0x2
 2770 123b 0F       		.byte	0xf
 2771 123c DD0F0000 		.4byte	0xfdd
 2772 1240 05       		.byte	0x5
 2773 1241 03       		.byte	0x3
 2774 1242 00000000 		.4byte	pwmcfg
 2775 1246 14       		.uleb128 0x14
 2776 1247 BB020000 		.4byte	0x2bb
 2777 124b 56120000 		.4byte	0x1256
 2778 124f 15       		.uleb128 0x15
 2779 1250 7C030000 		.4byte	0x37c
 2780 1254 39       		.byte	0x39
ARM GAS  C:\Users\DNIEL~1\AppData\Local\Temp\ccnor429.s 			page 50


 2781 1255 00       		.byte	0
 2782 1256 2E       		.uleb128 0x2e
 2783 1257 D2050000 		.4byte	.LASF187
 2784 125b 02       		.byte	0x2
 2785 125c 20       		.byte	0x20
 2786 125d 46120000 		.4byte	0x1246
 2787 1261 24       		.uleb128 0x24
 2788 1262 69646F00 		.ascii	"ido\000"
 2789 1266 02       		.byte	0x2
 2790 1267 38       		.byte	0x38
 2791 1268 86000000 		.4byte	0x86
 2792 126c 05       		.byte	0x5
 2793 126d 03       		.byte	0x3
 2794 126e 00000000 		.4byte	ido
 2795 1272 30       		.uleb128 0x30
 2796 1273 39000000 		.4byte	.LASF188
 2797 1277 09       		.byte	0x9
 2798 1278 F5       		.byte	0xf5
 2799 1279 4A040000 		.4byte	0x44a
 2800 127d 01       		.byte	0x1
 2801 127e 01       		.byte	0x1
 2802 127f 30       		.uleb128 0x30
 2803 1280 F9060000 		.4byte	.LASF189
 2804 1284 0A       		.byte	0xa
 2805 1285 6F       		.byte	0x6f
 2806 1286 B2040000 		.4byte	0x4b2
 2807 128a 01       		.byte	0x1
 2808 128b 01       		.byte	0x1
 2809 128c 31       		.uleb128 0x31
 2810 128d A9000000 		.4byte	.LASF190
 2811 1291 18       		.byte	0x18
 2812 1292 9806     		.2byte	0x698
 2813 1294 26070000 		.4byte	0x726
 2814 1298 01       		.byte	0x1
 2815 1299 01       		.byte	0x1
 2816 129a 31       		.uleb128 0x31
 2817 129b 68020000 		.4byte	.LASF191
 2818 129f 12       		.byte	0x12
 2819 12a0 4B01     		.2byte	0x14b
 2820 12a2 FE0C0000 		.4byte	0xcfe
 2821 12a6 01       		.byte	0x1
 2822 12a7 01       		.byte	0x1
 2823 12a8 31       		.uleb128 0x31
 2824 12a9 00020000 		.4byte	.LASF192
 2825 12ad 15       		.byte	0x15
 2826 12ae BF01     		.2byte	0x1bf
 2827 12b0 8A0E0000 		.4byte	0xe8a
 2828 12b4 01       		.byte	0x1
 2829 12b5 01       		.byte	0x1
 2830 12b6 32       		.uleb128 0x32
 2831 12b7 01       		.byte	0x1
 2832 12b8 07070000 		.4byte	.LASF193
 2833 12bc 01       		.byte	0x1
 2834 12bd 28       		.byte	0x28
 2835 12be 01       		.byte	0x1
 2836 12bf 01       		.byte	0x1
 2837 12c0 D4120000 		.4byte	0x12d4
ARM GAS  C:\Users\DNIEL~1\AppData\Local\Temp\ccnor429.s 			page 51


 2838 12c4 0F       		.uleb128 0xf
 2839 12c5 A2100000 		.4byte	0x10a2
 2840 12c9 0F       		.uleb128 0xf
 2841 12ca EA050000 		.4byte	0x5ea
 2842 12ce 0F       		.uleb128 0xf
 2843 12cf 34100000 		.4byte	0x1034
 2844 12d3 00       		.byte	0
 2845 12d4 32       		.uleb128 0x32
 2846 12d5 01       		.byte	0x1
 2847 12d6 DD010000 		.4byte	.LASF194
 2848 12da 14       		.byte	0x14
 2849 12db F4       		.byte	0xf4
 2850 12dc 01       		.byte	0x1
 2851 12dd 01       		.byte	0x1
 2852 12de ED120000 		.4byte	0x12ed
 2853 12e2 0F       		.uleb128 0xf
 2854 12e3 0B0F0000 		.4byte	0xf0b
 2855 12e7 0F       		.uleb128 0xf
 2856 12e8 E90F0000 		.4byte	0xfe9
 2857 12ec 00       		.byte	0
 2858 12ed 32       		.uleb128 0x32
 2859 12ee 01       		.byte	0x1
 2860 12ef 49070000 		.4byte	.LASF195
 2861 12f3 14       		.byte	0x14
 2862 12f4 F7       		.byte	0xf7
 2863 12f5 01       		.byte	0x1
 2864 12f6 01       		.byte	0x1
 2865 12f7 0B130000 		.4byte	0x130b
 2866 12fb 0F       		.uleb128 0xf
 2867 12fc 0B0F0000 		.4byte	0xf0b
 2868 1300 0F       		.uleb128 0xf
 2869 1301 1D0F0000 		.4byte	0xf1d
 2870 1305 0F       		.uleb128 0xf
 2871 1306 290F0000 		.4byte	0xf29
 2872 130a 00       		.byte	0
 2873 130b 33       		.uleb128 0x33
 2874 130c 01       		.byte	0x1
 2875 130d 90060000 		.4byte	.LASF200
 2876 1311 07       		.byte	0x7
 2877 1312 7501     		.2byte	0x175
 2878 1314 01       		.byte	0x1
 2879 1315 01       		.byte	0x1
 2880 1316 0F       		.uleb128 0xf
 2881 1317 10010000 		.4byte	0x110
 2882 131b 00       		.byte	0
 2883 131c 00       		.byte	0
 2884              		.section	.debug_abbrev,"",%progbits
 2885              	.Ldebug_abbrev0:
 2886 0000 01       		.uleb128 0x1
 2887 0001 11       		.uleb128 0x11
 2888 0002 01       		.byte	0x1
 2889 0003 25       		.uleb128 0x25
 2890 0004 0E       		.uleb128 0xe
 2891 0005 13       		.uleb128 0x13
 2892 0006 0B       		.uleb128 0xb
 2893 0007 03       		.uleb128 0x3
 2894 0008 0E       		.uleb128 0xe
ARM GAS  C:\Users\DNIEL~1\AppData\Local\Temp\ccnor429.s 			page 52


 2895 0009 1B       		.uleb128 0x1b
 2896 000a 0E       		.uleb128 0xe
 2897 000b 55       		.uleb128 0x55
 2898 000c 06       		.uleb128 0x6
 2899 000d 11       		.uleb128 0x11
 2900 000e 01       		.uleb128 0x1
 2901 000f 52       		.uleb128 0x52
 2902 0010 01       		.uleb128 0x1
 2903 0011 10       		.uleb128 0x10
 2904 0012 06       		.uleb128 0x6
 2905 0013 00       		.byte	0
 2906 0014 00       		.byte	0
 2907 0015 02       		.uleb128 0x2
 2908 0016 24       		.uleb128 0x24
 2909 0017 00       		.byte	0
 2910 0018 0B       		.uleb128 0xb
 2911 0019 0B       		.uleb128 0xb
 2912 001a 3E       		.uleb128 0x3e
 2913 001b 0B       		.uleb128 0xb
 2914 001c 03       		.uleb128 0x3
 2915 001d 08       		.uleb128 0x8
 2916 001e 00       		.byte	0
 2917 001f 00       		.byte	0
 2918 0020 03       		.uleb128 0x3
 2919 0021 16       		.uleb128 0x16
 2920 0022 00       		.byte	0
 2921 0023 03       		.uleb128 0x3
 2922 0024 0E       		.uleb128 0xe
 2923 0025 3A       		.uleb128 0x3a
 2924 0026 0B       		.uleb128 0xb
 2925 0027 3B       		.uleb128 0x3b
 2926 0028 0B       		.uleb128 0xb
 2927 0029 49       		.uleb128 0x49
 2928 002a 13       		.uleb128 0x13
 2929 002b 00       		.byte	0
 2930 002c 00       		.byte	0
 2931 002d 04       		.uleb128 0x4
 2932 002e 24       		.uleb128 0x24
 2933 002f 00       		.byte	0
 2934 0030 0B       		.uleb128 0xb
 2935 0031 0B       		.uleb128 0xb
 2936 0032 3E       		.uleb128 0x3e
 2937 0033 0B       		.uleb128 0xb
 2938 0034 03       		.uleb128 0x3
 2939 0035 0E       		.uleb128 0xe
 2940 0036 00       		.byte	0
 2941 0037 00       		.byte	0
 2942 0038 05       		.uleb128 0x5
 2943 0039 13       		.uleb128 0x13
 2944 003a 01       		.byte	0x1
 2945 003b 03       		.uleb128 0x3
 2946 003c 0E       		.uleb128 0xe
 2947 003d 0B       		.uleb128 0xb
 2948 003e 0B       		.uleb128 0xb
 2949 003f 3A       		.uleb128 0x3a
 2950 0040 0B       		.uleb128 0xb
 2951 0041 3B       		.uleb128 0x3b
ARM GAS  C:\Users\DNIEL~1\AppData\Local\Temp\ccnor429.s 			page 53


 2952 0042 0B       		.uleb128 0xb
 2953 0043 01       		.uleb128 0x1
 2954 0044 13       		.uleb128 0x13
 2955 0045 00       		.byte	0
 2956 0046 00       		.byte	0
 2957 0047 06       		.uleb128 0x6
 2958 0048 0D       		.uleb128 0xd
 2959 0049 00       		.byte	0
 2960 004a 03       		.uleb128 0x3
 2961 004b 0E       		.uleb128 0xe
 2962 004c 3A       		.uleb128 0x3a
 2963 004d 0B       		.uleb128 0xb
 2964 004e 3B       		.uleb128 0x3b
 2965 004f 0B       		.uleb128 0xb
 2966 0050 49       		.uleb128 0x49
 2967 0051 13       		.uleb128 0x13
 2968 0052 38       		.uleb128 0x38
 2969 0053 0A       		.uleb128 0xa
 2970 0054 00       		.byte	0
 2971 0055 00       		.byte	0
 2972 0056 07       		.uleb128 0x7
 2973 0057 0D       		.uleb128 0xd
 2974 0058 00       		.byte	0
 2975 0059 03       		.uleb128 0x3
 2976 005a 08       		.uleb128 0x8
 2977 005b 3A       		.uleb128 0x3a
 2978 005c 0B       		.uleb128 0xb
 2979 005d 3B       		.uleb128 0x3b
 2980 005e 0B       		.uleb128 0xb
 2981 005f 49       		.uleb128 0x49
 2982 0060 13       		.uleb128 0x13
 2983 0061 38       		.uleb128 0x38
 2984 0062 0A       		.uleb128 0xa
 2985 0063 00       		.byte	0
 2986 0064 00       		.byte	0
 2987 0065 08       		.uleb128 0x8
 2988 0066 13       		.uleb128 0x13
 2989 0067 01       		.byte	0x1
 2990 0068 0B       		.uleb128 0xb
 2991 0069 0B       		.uleb128 0xb
 2992 006a 3A       		.uleb128 0x3a
 2993 006b 0B       		.uleb128 0xb
 2994 006c 3B       		.uleb128 0x3b
 2995 006d 0B       		.uleb128 0xb
 2996 006e 01       		.uleb128 0x1
 2997 006f 13       		.uleb128 0x13
 2998 0070 00       		.byte	0
 2999 0071 00       		.byte	0
 3000 0072 09       		.uleb128 0x9
 3001 0073 0F       		.uleb128 0xf
 3002 0074 00       		.byte	0
 3003 0075 0B       		.uleb128 0xb
 3004 0076 0B       		.uleb128 0xb
 3005 0077 49       		.uleb128 0x49
 3006 0078 13       		.uleb128 0x13
 3007 0079 00       		.byte	0
 3008 007a 00       		.byte	0
ARM GAS  C:\Users\DNIEL~1\AppData\Local\Temp\ccnor429.s 			page 54


 3009 007b 0A       		.uleb128 0xa
 3010 007c 0F       		.uleb128 0xf
 3011 007d 00       		.byte	0
 3012 007e 0B       		.uleb128 0xb
 3013 007f 0B       		.uleb128 0xb
 3014 0080 00       		.byte	0
 3015 0081 00       		.byte	0
 3016 0082 0B       		.uleb128 0xb
 3017 0083 13       		.uleb128 0x13
 3018 0084 01       		.byte	0x1
 3019 0085 03       		.uleb128 0x3
 3020 0086 0E       		.uleb128 0xe
 3021 0087 0B       		.uleb128 0xb
 3022 0088 0B       		.uleb128 0xb
 3023 0089 3A       		.uleb128 0x3a
 3024 008a 0B       		.uleb128 0xb
 3025 008b 3B       		.uleb128 0x3b
 3026 008c 05       		.uleb128 0x5
 3027 008d 01       		.uleb128 0x1
 3028 008e 13       		.uleb128 0x13
 3029 008f 00       		.byte	0
 3030 0090 00       		.byte	0
 3031 0091 0C       		.uleb128 0xc
 3032 0092 0D       		.uleb128 0xd
 3033 0093 00       		.byte	0
 3034 0094 03       		.uleb128 0x3
 3035 0095 08       		.uleb128 0x8
 3036 0096 3A       		.uleb128 0x3a
 3037 0097 0B       		.uleb128 0xb
 3038 0098 3B       		.uleb128 0x3b
 3039 0099 05       		.uleb128 0x5
 3040 009a 49       		.uleb128 0x49
 3041 009b 13       		.uleb128 0x13
 3042 009c 38       		.uleb128 0x38
 3043 009d 0A       		.uleb128 0xa
 3044 009e 00       		.byte	0
 3045 009f 00       		.byte	0
 3046 00a0 0D       		.uleb128 0xd
 3047 00a1 35       		.uleb128 0x35
 3048 00a2 00       		.byte	0
 3049 00a3 49       		.uleb128 0x49
 3050 00a4 13       		.uleb128 0x13
 3051 00a5 00       		.byte	0
 3052 00a6 00       		.byte	0
 3053 00a7 0E       		.uleb128 0xe
 3054 00a8 15       		.uleb128 0x15
 3055 00a9 01       		.byte	0x1
 3056 00aa 27       		.uleb128 0x27
 3057 00ab 0C       		.uleb128 0xc
 3058 00ac 01       		.uleb128 0x1
 3059 00ad 13       		.uleb128 0x13
 3060 00ae 00       		.byte	0
 3061 00af 00       		.byte	0
 3062 00b0 0F       		.uleb128 0xf
 3063 00b1 05       		.uleb128 0x5
 3064 00b2 00       		.byte	0
 3065 00b3 49       		.uleb128 0x49
ARM GAS  C:\Users\DNIEL~1\AppData\Local\Temp\ccnor429.s 			page 55


 3066 00b4 13       		.uleb128 0x13
 3067 00b5 00       		.byte	0
 3068 00b6 00       		.byte	0
 3069 00b7 10       		.uleb128 0x10
 3070 00b8 17       		.uleb128 0x17
 3071 00b9 01       		.byte	0x1
 3072 00ba 0B       		.uleb128 0xb
 3073 00bb 0B       		.uleb128 0xb
 3074 00bc 3A       		.uleb128 0x3a
 3075 00bd 0B       		.uleb128 0xb
 3076 00be 3B       		.uleb128 0x3b
 3077 00bf 0B       		.uleb128 0xb
 3078 00c0 01       		.uleb128 0x1
 3079 00c1 13       		.uleb128 0x13
 3080 00c2 00       		.byte	0
 3081 00c3 00       		.byte	0
 3082 00c4 11       		.uleb128 0x11
 3083 00c5 0D       		.uleb128 0xd
 3084 00c6 00       		.byte	0
 3085 00c7 03       		.uleb128 0x3
 3086 00c8 0E       		.uleb128 0xe
 3087 00c9 3A       		.uleb128 0x3a
 3088 00ca 0B       		.uleb128 0xb
 3089 00cb 3B       		.uleb128 0x3b
 3090 00cc 0B       		.uleb128 0xb
 3091 00cd 49       		.uleb128 0x49
 3092 00ce 13       		.uleb128 0x13
 3093 00cf 00       		.byte	0
 3094 00d0 00       		.byte	0
 3095 00d1 12       		.uleb128 0x12
 3096 00d2 26       		.uleb128 0x26
 3097 00d3 00       		.byte	0
 3098 00d4 49       		.uleb128 0x49
 3099 00d5 13       		.uleb128 0x13
 3100 00d6 00       		.byte	0
 3101 00d7 00       		.byte	0
 3102 00d8 13       		.uleb128 0x13
 3103 00d9 15       		.uleb128 0x15
 3104 00da 01       		.byte	0x1
 3105 00db 27       		.uleb128 0x27
 3106 00dc 0C       		.uleb128 0xc
 3107 00dd 49       		.uleb128 0x49
 3108 00de 13       		.uleb128 0x13
 3109 00df 01       		.uleb128 0x1
 3110 00e0 13       		.uleb128 0x13
 3111 00e1 00       		.byte	0
 3112 00e2 00       		.byte	0
 3113 00e3 14       		.uleb128 0x14
 3114 00e4 01       		.uleb128 0x1
 3115 00e5 01       		.byte	0x1
 3116 00e6 49       		.uleb128 0x49
 3117 00e7 13       		.uleb128 0x13
 3118 00e8 01       		.uleb128 0x1
 3119 00e9 13       		.uleb128 0x13
 3120 00ea 00       		.byte	0
 3121 00eb 00       		.byte	0
 3122 00ec 15       		.uleb128 0x15
ARM GAS  C:\Users\DNIEL~1\AppData\Local\Temp\ccnor429.s 			page 56


 3123 00ed 21       		.uleb128 0x21
 3124 00ee 00       		.byte	0
 3125 00ef 49       		.uleb128 0x49
 3126 00f0 13       		.uleb128 0x13
 3127 00f1 2F       		.uleb128 0x2f
 3128 00f2 0B       		.uleb128 0xb
 3129 00f3 00       		.byte	0
 3130 00f4 00       		.byte	0
 3131 00f5 16       		.uleb128 0x16
 3132 00f6 13       		.uleb128 0x13
 3133 00f7 01       		.byte	0x1
 3134 00f8 0B       		.uleb128 0xb
 3135 00f9 0B       		.uleb128 0xb
 3136 00fa 3A       		.uleb128 0x3a
 3137 00fb 0B       		.uleb128 0xb
 3138 00fc 3B       		.uleb128 0x3b
 3139 00fd 05       		.uleb128 0x5
 3140 00fe 01       		.uleb128 0x1
 3141 00ff 13       		.uleb128 0x13
 3142 0100 00       		.byte	0
 3143 0101 00       		.byte	0
 3144 0102 17       		.uleb128 0x17
 3145 0103 0D       		.uleb128 0xd
 3146 0104 00       		.byte	0
 3147 0105 03       		.uleb128 0x3
 3148 0106 0E       		.uleb128 0xe
 3149 0107 3A       		.uleb128 0x3a
 3150 0108 0B       		.uleb128 0xb
 3151 0109 3B       		.uleb128 0x3b
 3152 010a 05       		.uleb128 0x5
 3153 010b 49       		.uleb128 0x49
 3154 010c 13       		.uleb128 0x13
 3155 010d 38       		.uleb128 0x38
 3156 010e 0A       		.uleb128 0xa
 3157 010f 00       		.byte	0
 3158 0110 00       		.byte	0
 3159 0111 18       		.uleb128 0x18
 3160 0112 16       		.uleb128 0x16
 3161 0113 00       		.byte	0
 3162 0114 03       		.uleb128 0x3
 3163 0115 0E       		.uleb128 0xe
 3164 0116 3A       		.uleb128 0x3a
 3165 0117 0B       		.uleb128 0xb
 3166 0118 3B       		.uleb128 0x3b
 3167 0119 05       		.uleb128 0x5
 3168 011a 49       		.uleb128 0x49
 3169 011b 13       		.uleb128 0x13
 3170 011c 00       		.byte	0
 3171 011d 00       		.byte	0
 3172 011e 19       		.uleb128 0x19
 3173 011f 13       		.uleb128 0x13
 3174 0120 01       		.byte	0x1
 3175 0121 0B       		.uleb128 0xb
 3176 0122 05       		.uleb128 0x5
 3177 0123 3A       		.uleb128 0x3a
 3178 0124 0B       		.uleb128 0xb
 3179 0125 3B       		.uleb128 0x3b
ARM GAS  C:\Users\DNIEL~1\AppData\Local\Temp\ccnor429.s 			page 57


 3180 0126 05       		.uleb128 0x5
 3181 0127 01       		.uleb128 0x1
 3182 0128 13       		.uleb128 0x13
 3183 0129 00       		.byte	0
 3184 012a 00       		.byte	0
 3185 012b 1A       		.uleb128 0x1a
 3186 012c 04       		.uleb128 0x4
 3187 012d 01       		.byte	0x1
 3188 012e 0B       		.uleb128 0xb
 3189 012f 0B       		.uleb128 0xb
 3190 0130 3A       		.uleb128 0x3a
 3191 0131 0B       		.uleb128 0xb
 3192 0132 3B       		.uleb128 0x3b
 3193 0133 0B       		.uleb128 0xb
 3194 0134 01       		.uleb128 0x1
 3195 0135 13       		.uleb128 0x13
 3196 0136 00       		.byte	0
 3197 0137 00       		.byte	0
 3198 0138 1B       		.uleb128 0x1b
 3199 0139 28       		.uleb128 0x28
 3200 013a 00       		.byte	0
 3201 013b 03       		.uleb128 0x3
 3202 013c 0E       		.uleb128 0xe
 3203 013d 1C       		.uleb128 0x1c
 3204 013e 0D       		.uleb128 0xd
 3205 013f 00       		.byte	0
 3206 0140 00       		.byte	0
 3207 0141 1C       		.uleb128 0x1c
 3208 0142 0D       		.uleb128 0xd
 3209 0143 00       		.byte	0
 3210 0144 03       		.uleb128 0x3
 3211 0145 08       		.uleb128 0x8
 3212 0146 3A       		.uleb128 0x3a
 3213 0147 0B       		.uleb128 0xb
 3214 0148 3B       		.uleb128 0x3b
 3215 0149 0B       		.uleb128 0xb
 3216 014a 49       		.uleb128 0x49
 3217 014b 13       		.uleb128 0x13
 3218 014c 0B       		.uleb128 0xb
 3219 014d 0B       		.uleb128 0xb
 3220 014e 0D       		.uleb128 0xd
 3221 014f 0B       		.uleb128 0xb
 3222 0150 0C       		.uleb128 0xc
 3223 0151 0B       		.uleb128 0xb
 3224 0152 38       		.uleb128 0x38
 3225 0153 0A       		.uleb128 0xa
 3226 0154 00       		.byte	0
 3227 0155 00       		.byte	0
 3228 0156 1D       		.uleb128 0x1d
 3229 0157 0D       		.uleb128 0xd
 3230 0158 00       		.byte	0
 3231 0159 49       		.uleb128 0x49
 3232 015a 13       		.uleb128 0x13
 3233 015b 00       		.byte	0
 3234 015c 00       		.byte	0
 3235 015d 1E       		.uleb128 0x1e
 3236 015e 0D       		.uleb128 0xd
ARM GAS  C:\Users\DNIEL~1\AppData\Local\Temp\ccnor429.s 			page 58


 3237 015f 00       		.byte	0
 3238 0160 49       		.uleb128 0x49
 3239 0161 13       		.uleb128 0x13
 3240 0162 38       		.uleb128 0x38
 3241 0163 0A       		.uleb128 0xa
 3242 0164 00       		.byte	0
 3243 0165 00       		.byte	0
 3244 0166 1F       		.uleb128 0x1f
 3245 0167 0D       		.uleb128 0xd
 3246 0168 00       		.byte	0
 3247 0169 03       		.uleb128 0x3
 3248 016a 0E       		.uleb128 0xe
 3249 016b 49       		.uleb128 0x49
 3250 016c 13       		.uleb128 0x13
 3251 016d 38       		.uleb128 0x38
 3252 016e 0A       		.uleb128 0xa
 3253 016f 34       		.uleb128 0x34
 3254 0170 0C       		.uleb128 0xc
 3255 0171 00       		.byte	0
 3256 0172 00       		.byte	0
 3257 0173 20       		.uleb128 0x20
 3258 0174 2E       		.uleb128 0x2e
 3259 0175 01       		.byte	0x1
 3260 0176 03       		.uleb128 0x3
 3261 0177 0E       		.uleb128 0xe
 3262 0178 3A       		.uleb128 0x3a
 3263 0179 0B       		.uleb128 0xb
 3264 017a 3B       		.uleb128 0x3b
 3265 017b 0B       		.uleb128 0xb
 3266 017c 27       		.uleb128 0x27
 3267 017d 0C       		.uleb128 0xc
 3268 017e 11       		.uleb128 0x11
 3269 017f 01       		.uleb128 0x1
 3270 0180 12       		.uleb128 0x12
 3271 0181 01       		.uleb128 0x1
 3272 0182 40       		.uleb128 0x40
 3273 0183 06       		.uleb128 0x6
 3274 0184 9742     		.uleb128 0x2117
 3275 0186 0C       		.uleb128 0xc
 3276 0187 01       		.uleb128 0x1
 3277 0188 13       		.uleb128 0x13
 3278 0189 00       		.byte	0
 3279 018a 00       		.byte	0
 3280 018b 21       		.uleb128 0x21
 3281 018c 05       		.uleb128 0x5
 3282 018d 00       		.byte	0
 3283 018e 03       		.uleb128 0x3
 3284 018f 08       		.uleb128 0x8
 3285 0190 3A       		.uleb128 0x3a
 3286 0191 0B       		.uleb128 0xb
 3287 0192 3B       		.uleb128 0x3b
 3288 0193 0B       		.uleb128 0xb
 3289 0194 49       		.uleb128 0x49
 3290 0195 13       		.uleb128 0x13
 3291 0196 02       		.uleb128 0x2
 3292 0197 06       		.uleb128 0x6
 3293 0198 00       		.byte	0
ARM GAS  C:\Users\DNIEL~1\AppData\Local\Temp\ccnor429.s 			page 59


 3294 0199 00       		.byte	0
 3295 019a 22       		.uleb128 0x22
 3296 019b 05       		.uleb128 0x5
 3297 019c 00       		.byte	0
 3298 019d 03       		.uleb128 0x3
 3299 019e 08       		.uleb128 0x8
 3300 019f 3A       		.uleb128 0x3a
 3301 01a0 0B       		.uleb128 0xb
 3302 01a1 3B       		.uleb128 0x3b
 3303 01a2 0B       		.uleb128 0xb
 3304 01a3 49       		.uleb128 0x49
 3305 01a4 13       		.uleb128 0x13
 3306 01a5 02       		.uleb128 0x2
 3307 01a6 0A       		.uleb128 0xa
 3308 01a7 00       		.byte	0
 3309 01a8 00       		.byte	0
 3310 01a9 23       		.uleb128 0x23
 3311 01aa 18       		.uleb128 0x18
 3312 01ab 00       		.byte	0
 3313 01ac 00       		.byte	0
 3314 01ad 00       		.byte	0
 3315 01ae 24       		.uleb128 0x24
 3316 01af 34       		.uleb128 0x34
 3317 01b0 00       		.byte	0
 3318 01b1 03       		.uleb128 0x3
 3319 01b2 08       		.uleb128 0x8
 3320 01b3 3A       		.uleb128 0x3a
 3321 01b4 0B       		.uleb128 0xb
 3322 01b5 3B       		.uleb128 0x3b
 3323 01b6 0B       		.uleb128 0xb
 3324 01b7 49       		.uleb128 0x49
 3325 01b8 13       		.uleb128 0x13
 3326 01b9 02       		.uleb128 0x2
 3327 01ba 0A       		.uleb128 0xa
 3328 01bb 00       		.byte	0
 3329 01bc 00       		.byte	0
 3330 01bd 25       		.uleb128 0x25
 3331 01be 898201   		.uleb128 0x4109
 3332 01c1 01       		.byte	0x1
 3333 01c2 11       		.uleb128 0x11
 3334 01c3 01       		.uleb128 0x1
 3335 01c4 31       		.uleb128 0x31
 3336 01c5 13       		.uleb128 0x13
 3337 01c6 00       		.byte	0
 3338 01c7 00       		.byte	0
 3339 01c8 26       		.uleb128 0x26
 3340 01c9 8A8201   		.uleb128 0x410a
 3341 01cc 00       		.byte	0
 3342 01cd 02       		.uleb128 0x2
 3343 01ce 0A       		.uleb128 0xa
 3344 01cf 9142     		.uleb128 0x2111
 3345 01d1 0A       		.uleb128 0xa
 3346 01d2 00       		.byte	0
 3347 01d3 00       		.byte	0
 3348 01d4 27       		.uleb128 0x27
 3349 01d5 2E       		.uleb128 0x2e
 3350 01d6 01       		.byte	0x1
ARM GAS  C:\Users\DNIEL~1\AppData\Local\Temp\ccnor429.s 			page 60


 3351 01d7 3F       		.uleb128 0x3f
 3352 01d8 0C       		.uleb128 0xc
 3353 01d9 03       		.uleb128 0x3
 3354 01da 0E       		.uleb128 0xe
 3355 01db 3A       		.uleb128 0x3a
 3356 01dc 0B       		.uleb128 0xb
 3357 01dd 3B       		.uleb128 0x3b
 3358 01de 0B       		.uleb128 0xb
 3359 01df 27       		.uleb128 0x27
 3360 01e0 0C       		.uleb128 0xc
 3361 01e1 11       		.uleb128 0x11
 3362 01e2 01       		.uleb128 0x1
 3363 01e3 12       		.uleb128 0x12
 3364 01e4 01       		.uleb128 0x1
 3365 01e5 40       		.uleb128 0x40
 3366 01e6 0A       		.uleb128 0xa
 3367 01e7 9742     		.uleb128 0x2117
 3368 01e9 0C       		.uleb128 0xc
 3369 01ea 01       		.uleb128 0x1
 3370 01eb 13       		.uleb128 0x13
 3371 01ec 00       		.byte	0
 3372 01ed 00       		.byte	0
 3373 01ee 28       		.uleb128 0x28
 3374 01ef 898201   		.uleb128 0x4109
 3375 01f2 01       		.byte	0x1
 3376 01f3 11       		.uleb128 0x11
 3377 01f4 01       		.uleb128 0x1
 3378 01f5 9542     		.uleb128 0x2115
 3379 01f7 0C       		.uleb128 0xc
 3380 01f8 31       		.uleb128 0x31
 3381 01f9 13       		.uleb128 0x13
 3382 01fa 00       		.byte	0
 3383 01fb 00       		.byte	0
 3384 01fc 29       		.uleb128 0x29
 3385 01fd 2E       		.uleb128 0x2e
 3386 01fe 01       		.byte	0x1
 3387 01ff 3F       		.uleb128 0x3f
 3388 0200 0C       		.uleb128 0xc
 3389 0201 03       		.uleb128 0x3
 3390 0202 0E       		.uleb128 0xe
 3391 0203 3A       		.uleb128 0x3a
 3392 0204 0B       		.uleb128 0xb
 3393 0205 3B       		.uleb128 0x3b
 3394 0206 0B       		.uleb128 0xb
 3395 0207 27       		.uleb128 0x27
 3396 0208 0C       		.uleb128 0xc
 3397 0209 11       		.uleb128 0x11
 3398 020a 01       		.uleb128 0x1
 3399 020b 12       		.uleb128 0x12
 3400 020c 01       		.uleb128 0x1
 3401 020d 40       		.uleb128 0x40
 3402 020e 06       		.uleb128 0x6
 3403 020f 9742     		.uleb128 0x2117
 3404 0211 0C       		.uleb128 0xc
 3405 0212 01       		.uleb128 0x1
 3406 0213 13       		.uleb128 0x13
 3407 0214 00       		.byte	0
ARM GAS  C:\Users\DNIEL~1\AppData\Local\Temp\ccnor429.s 			page 61


 3408 0215 00       		.byte	0
 3409 0216 2A       		.uleb128 0x2a
 3410 0217 898201   		.uleb128 0x4109
 3411 021a 01       		.byte	0x1
 3412 021b 11       		.uleb128 0x11
 3413 021c 01       		.uleb128 0x1
 3414 021d 31       		.uleb128 0x31
 3415 021e 13       		.uleb128 0x13
 3416 021f 01       		.uleb128 0x1
 3417 0220 13       		.uleb128 0x13
 3418 0221 00       		.byte	0
 3419 0222 00       		.byte	0
 3420 0223 2B       		.uleb128 0x2b
 3421 0224 05       		.uleb128 0x5
 3422 0225 00       		.byte	0
 3423 0226 03       		.uleb128 0x3
 3424 0227 0E       		.uleb128 0xe
 3425 0228 3A       		.uleb128 0x3a
 3426 0229 0B       		.uleb128 0xb
 3427 022a 3B       		.uleb128 0x3b
 3428 022b 0B       		.uleb128 0xb
 3429 022c 49       		.uleb128 0x49
 3430 022d 13       		.uleb128 0x13
 3431 022e 02       		.uleb128 0x2
 3432 022f 06       		.uleb128 0x6
 3433 0230 00       		.byte	0
 3434 0231 00       		.byte	0
 3435 0232 2C       		.uleb128 0x2c
 3436 0233 898201   		.uleb128 0x4109
 3437 0236 00       		.byte	0
 3438 0237 11       		.uleb128 0x11
 3439 0238 01       		.uleb128 0x1
 3440 0239 31       		.uleb128 0x31
 3441 023a 13       		.uleb128 0x13
 3442 023b 00       		.byte	0
 3443 023c 00       		.byte	0
 3444 023d 2D       		.uleb128 0x2d
 3445 023e 898201   		.uleb128 0x4109
 3446 0241 01       		.byte	0x1
 3447 0242 11       		.uleb128 0x11
 3448 0243 01       		.uleb128 0x1
 3449 0244 00       		.byte	0
 3450 0245 00       		.byte	0
 3451 0246 2E       		.uleb128 0x2e
 3452 0247 34       		.uleb128 0x34
 3453 0248 00       		.byte	0
 3454 0249 03       		.uleb128 0x3
 3455 024a 0E       		.uleb128 0xe
 3456 024b 3A       		.uleb128 0x3a
 3457 024c 0B       		.uleb128 0xb
 3458 024d 3B       		.uleb128 0x3b
 3459 024e 0B       		.uleb128 0xb
 3460 024f 49       		.uleb128 0x49
 3461 0250 13       		.uleb128 0x13
 3462 0251 00       		.byte	0
 3463 0252 00       		.byte	0
 3464 0253 2F       		.uleb128 0x2f
ARM GAS  C:\Users\DNIEL~1\AppData\Local\Temp\ccnor429.s 			page 62


 3465 0254 34       		.uleb128 0x34
 3466 0255 00       		.byte	0
 3467 0256 03       		.uleb128 0x3
 3468 0257 0E       		.uleb128 0xe
 3469 0258 3A       		.uleb128 0x3a
 3470 0259 0B       		.uleb128 0xb
 3471 025a 3B       		.uleb128 0x3b
 3472 025b 0B       		.uleb128 0xb
 3473 025c 49       		.uleb128 0x49
 3474 025d 13       		.uleb128 0x13
 3475 025e 02       		.uleb128 0x2
 3476 025f 0A       		.uleb128 0xa
 3477 0260 00       		.byte	0
 3478 0261 00       		.byte	0
 3479 0262 30       		.uleb128 0x30
 3480 0263 34       		.uleb128 0x34
 3481 0264 00       		.byte	0
 3482 0265 03       		.uleb128 0x3
 3483 0266 0E       		.uleb128 0xe
 3484 0267 3A       		.uleb128 0x3a
 3485 0268 0B       		.uleb128 0xb
 3486 0269 3B       		.uleb128 0x3b
 3487 026a 0B       		.uleb128 0xb
 3488 026b 49       		.uleb128 0x49
 3489 026c 13       		.uleb128 0x13
 3490 026d 3F       		.uleb128 0x3f
 3491 026e 0C       		.uleb128 0xc
 3492 026f 3C       		.uleb128 0x3c
 3493 0270 0C       		.uleb128 0xc
 3494 0271 00       		.byte	0
 3495 0272 00       		.byte	0
 3496 0273 31       		.uleb128 0x31
 3497 0274 34       		.uleb128 0x34
 3498 0275 00       		.byte	0
 3499 0276 03       		.uleb128 0x3
 3500 0277 0E       		.uleb128 0xe
 3501 0278 3A       		.uleb128 0x3a
 3502 0279 0B       		.uleb128 0xb
 3503 027a 3B       		.uleb128 0x3b
 3504 027b 05       		.uleb128 0x5
 3505 027c 49       		.uleb128 0x49
 3506 027d 13       		.uleb128 0x13
 3507 027e 3F       		.uleb128 0x3f
 3508 027f 0C       		.uleb128 0xc
 3509 0280 3C       		.uleb128 0x3c
 3510 0281 0C       		.uleb128 0xc
 3511 0282 00       		.byte	0
 3512 0283 00       		.byte	0
 3513 0284 32       		.uleb128 0x32
 3514 0285 2E       		.uleb128 0x2e
 3515 0286 01       		.byte	0x1
 3516 0287 3F       		.uleb128 0x3f
 3517 0288 0C       		.uleb128 0xc
 3518 0289 03       		.uleb128 0x3
 3519 028a 0E       		.uleb128 0xe
 3520 028b 3A       		.uleb128 0x3a
 3521 028c 0B       		.uleb128 0xb
ARM GAS  C:\Users\DNIEL~1\AppData\Local\Temp\ccnor429.s 			page 63


 3522 028d 3B       		.uleb128 0x3b
 3523 028e 0B       		.uleb128 0xb
 3524 028f 27       		.uleb128 0x27
 3525 0290 0C       		.uleb128 0xc
 3526 0291 3C       		.uleb128 0x3c
 3527 0292 0C       		.uleb128 0xc
 3528 0293 01       		.uleb128 0x1
 3529 0294 13       		.uleb128 0x13
 3530 0295 00       		.byte	0
 3531 0296 00       		.byte	0
 3532 0297 33       		.uleb128 0x33
 3533 0298 2E       		.uleb128 0x2e
 3534 0299 01       		.byte	0x1
 3535 029a 3F       		.uleb128 0x3f
 3536 029b 0C       		.uleb128 0xc
 3537 029c 03       		.uleb128 0x3
 3538 029d 0E       		.uleb128 0xe
 3539 029e 3A       		.uleb128 0x3a
 3540 029f 0B       		.uleb128 0xb
 3541 02a0 3B       		.uleb128 0x3b
 3542 02a1 05       		.uleb128 0x5
 3543 02a2 27       		.uleb128 0x27
 3544 02a3 0C       		.uleb128 0xc
 3545 02a4 3C       		.uleb128 0x3c
 3546 02a5 0C       		.uleb128 0xc
 3547 02a6 00       		.byte	0
 3548 02a7 00       		.byte	0
 3549 02a8 00       		.byte	0
 3550              		.section	.debug_loc,"",%progbits
 3551              	.Ldebug_loc0:
 3552              	.LLST0:
 3553 0000 00000000 		.4byte	.LFB118
 3554 0004 02000000 		.4byte	.LCFI0
 3555 0008 0200     		.2byte	0x2
 3556 000a 7D       		.byte	0x7d
 3557 000b 00       		.sleb128 0
 3558 000c 02000000 		.4byte	.LCFI0
 3559 0010 04000000 		.4byte	.LCFI1
 3560 0014 0200     		.2byte	0x2
 3561 0016 7D       		.byte	0x7d
 3562 0017 0C       		.sleb128 12
 3563 0018 04000000 		.4byte	.LCFI1
 3564 001c 06000000 		.4byte	.LCFI2
 3565 0020 0200     		.2byte	0x2
 3566 0022 7D       		.byte	0x7d
 3567 0023 10       		.sleb128 16
 3568 0024 06000000 		.4byte	.LCFI2
 3569 0028 1E000000 		.4byte	.LFE118
 3570 002c 0200     		.2byte	0x2
 3571 002e 7D       		.byte	0x7d
 3572 002f 18       		.sleb128 24
 3573 0030 00000000 		.4byte	0
 3574 0034 00000000 		.4byte	0
 3575              	.LLST1:
 3576 0038 00000000 		.4byte	.LVL0
 3577 003c 13000000 		.4byte	.LVL1-1
 3578 0040 0100     		.2byte	0x1
ARM GAS  C:\Users\DNIEL~1\AppData\Local\Temp\ccnor429.s 			page 64


 3579 0042 50       		.byte	0x50
 3580 0043 13000000 		.4byte	.LVL1-1
 3581 0047 1E000000 		.4byte	.LFE118
 3582 004b 0400     		.2byte	0x4
 3583 004d F3       		.byte	0xf3
 3584 004e 01       		.uleb128 0x1
 3585 004f 50       		.byte	0x50
 3586 0050 9F       		.byte	0x9f
 3587 0051 00000000 		.4byte	0
 3588 0055 00000000 		.4byte	0
 3589              	.LLST2:
 3590 0059 00000000 		.4byte	.LFB121
 3591 005d 02000000 		.4byte	.LCFI3
 3592 0061 0200     		.2byte	0x2
 3593 0063 7D       		.byte	0x7d
 3594 0064 00       		.sleb128 0
 3595 0065 02000000 		.4byte	.LCFI3
 3596 0069 60000000 		.4byte	.LFE121
 3597 006d 0200     		.2byte	0x2
 3598 006f 7D       		.byte	0x7d
 3599 0070 10       		.sleb128 16
 3600 0071 00000000 		.4byte	0
 3601 0075 00000000 		.4byte	0
 3602              	.LLST3:
 3603 0079 00000000 		.4byte	.LFB122
 3604 007d 02000000 		.4byte	.LCFI4
 3605 0081 0200     		.2byte	0x2
 3606 0083 7D       		.byte	0x7d
 3607 0084 00       		.sleb128 0
 3608 0085 02000000 		.4byte	.LCFI4
 3609 0089 64000000 		.4byte	.LFE122
 3610 008d 0200     		.2byte	0x2
 3611 008f 7D       		.byte	0x7d
 3612 0090 10       		.sleb128 16
 3613 0091 00000000 		.4byte	0
 3614 0095 00000000 		.4byte	0
 3615              	.LLST4:
 3616 0099 00000000 		.4byte	.LVL6
 3617 009d 0B000000 		.4byte	.LVL8-1
 3618 00a1 0100     		.2byte	0x1
 3619 00a3 50       		.byte	0x50
 3620 00a4 0B000000 		.4byte	.LVL8-1
 3621 00a8 16000000 		.4byte	.LVL10
 3622 00ac 0100     		.2byte	0x1
 3623 00ae 54       		.byte	0x54
 3624 00af 16000000 		.4byte	.LVL10
 3625 00b3 19000000 		.4byte	.LVL11-1
 3626 00b7 0100     		.2byte	0x1
 3627 00b9 50       		.byte	0x50
 3628 00ba 19000000 		.4byte	.LVL11-1
 3629 00be 4A000000 		.4byte	.LVL16
 3630 00c2 0100     		.2byte	0x1
 3631 00c4 54       		.byte	0x54
 3632 00c5 4A000000 		.4byte	.LVL16
 3633 00c9 64000000 		.4byte	.LFE122
 3634 00cd 0100     		.2byte	0x1
 3635 00cf 50       		.byte	0x50
ARM GAS  C:\Users\DNIEL~1\AppData\Local\Temp\ccnor429.s 			page 65


 3636 00d0 00000000 		.4byte	0
 3637 00d4 00000000 		.4byte	0
 3638              	.LLST5:
 3639 00d8 00000000 		.4byte	.LVL6
 3640 00dc 04000000 		.4byte	.LVL7
 3641 00e0 0100     		.2byte	0x1
 3642 00e2 51       		.byte	0x51
 3643 00e3 04000000 		.4byte	.LVL7
 3644 00e7 64000000 		.4byte	.LFE122
 3645 00eb 0400     		.2byte	0x4
 3646 00ed F3       		.byte	0xf3
 3647 00ee 01       		.uleb128 0x1
 3648 00ef 51       		.byte	0x51
 3649 00f0 9F       		.byte	0x9f
 3650 00f1 00000000 		.4byte	0
 3651 00f5 00000000 		.4byte	0
 3652              	.LLST6:
 3653 00f9 00000000 		.4byte	.LVL6
 3654 00fd 0B000000 		.4byte	.LVL8-1
 3655 0101 0100     		.2byte	0x1
 3656 0103 52       		.byte	0x52
 3657 0104 0B000000 		.4byte	.LVL8-1
 3658 0108 64000000 		.4byte	.LFE122
 3659 010c 0400     		.2byte	0x4
 3660 010e F3       		.byte	0xf3
 3661 010f 01       		.uleb128 0x1
 3662 0110 52       		.byte	0x52
 3663 0111 9F       		.byte	0x9f
 3664 0112 00000000 		.4byte	0
 3665 0116 00000000 		.4byte	0
 3666              		.section	.debug_aranges,"",%progbits
 3667 0000 34000000 		.4byte	0x34
 3668 0004 0200     		.2byte	0x2
 3669 0006 00000000 		.4byte	.Ldebug_info0
 3670 000a 04       		.byte	0x4
 3671 000b 00       		.byte	0
 3672 000c 0000     		.2byte	0
 3673 000e 0000     		.2byte	0
 3674 0010 00000000 		.4byte	.LFB118
 3675 0014 1E000000 		.4byte	.LFE118-.LFB118
 3676 0018 00000000 		.4byte	.LFB120
 3677 001c 14000000 		.4byte	.LFE120-.LFB120
 3678 0020 00000000 		.4byte	.LFB121
 3679 0024 60000000 		.4byte	.LFE121-.LFB121
 3680 0028 00000000 		.4byte	.LFB122
 3681 002c 64000000 		.4byte	.LFE122-.LFB122
 3682 0030 00000000 		.4byte	0
 3683 0034 00000000 		.4byte	0
 3684              		.section	.debug_ranges,"",%progbits
 3685              	.Ldebug_ranges0:
 3686 0000 00000000 		.4byte	.LFB118
 3687 0004 1E000000 		.4byte	.LFE118
 3688 0008 00000000 		.4byte	.LFB120
 3689 000c 14000000 		.4byte	.LFE120
 3690 0010 00000000 		.4byte	.LFB121
 3691 0014 60000000 		.4byte	.LFE121
 3692 0018 00000000 		.4byte	.LFB122
ARM GAS  C:\Users\DNIEL~1\AppData\Local\Temp\ccnor429.s 			page 66


 3693 001c 64000000 		.4byte	.LFE122
 3694 0020 00000000 		.4byte	0
 3695 0024 00000000 		.4byte	0
 3696              		.section	.debug_line,"",%progbits
 3697              	.Ldebug_line0:
 3698 0000 EB030000 		.section	.debug_str,"MS",%progbits,1
 3698      02006603 
 3698      00000201 
 3698      FB0E0D00 
 3698      01010101 
 3699              	.LASF164:
 3700 0000 70776D63 		.ascii	"pwmchannel_t\000"
 3700      68616E6E 
 3700      656C5F74 
 3700      00
 3701              	.LASF145:
 3702 000d 44494552 		.ascii	"DIER\000"
 3702      00
 3703              	.LASF2:
 3704 0012 73697A65 		.ascii	"size_t\000"
 3704      5F7400
 3705              	.LASF83:
 3706 0019 7264796D 		.ascii	"rdymsg\000"
 3706      736700
 3707              	.LASF13:
 3708 0020 75696E74 		.ascii	"uint64_t\000"
 3708      36345F74 
 3708      00
 3709              	.LASF182:
 3710 0029 636D645F 		.ascii	"cmd_lightvalues\000"
 3710      6C696768 
 3710      7476616C 
 3710      75657300 
 3711              	.LASF188:
 3712 0039 76746C69 		.ascii	"vtlist\000"
 3712      737400
 3713              	.LASF133:
 3714 0040 43414E43 		.ascii	"CANConfig\000"
 3714      6F6E6669 
 3714      6700
 3715              	.LASF116:
 3716 004a 43414E5F 		.ascii	"CAN_TypeDef\000"
 3716      54797065 
 3716      44656600 
 3717              	.LASF151:
 3718 0056 43434D52 		.ascii	"CCMR3\000"
 3718      3300
 3719              	.LASF181:
 3720 005c 6C696768 		.ascii	"lightCalc\000"
 3720      7443616C 
 3720      6300
 3721              	.LASF9:
 3722 0066 6C6F6E67 		.ascii	"long int\000"
 3722      20696E74 
 3722      00
 3723              	.LASF160:
 3724 006f 70657269 		.ascii	"period\000"
ARM GAS  C:\Users\DNIEL~1\AppData\Local\Temp\ccnor429.s 			page 67


 3724      6F6400
 3725              	.LASF82:
 3726 0076 65735F6E 		.ascii	"es_next\000"
 3726      65787400 
 3727              	.LASF186:
 3728 007e 74786D73 		.ascii	"txmsg\000"
 3728      6700
 3729              	.LASF46:
 3730 0084 54687265 		.ascii	"ThreadsQueue\000"
 3730      61647351 
 3730      75657565 
 3730      00
 3731              	.LASF117:
 3732 0091 42617365 		.ascii	"BaseChannelVMT\000"
 3732      4368616E 
 3732      6E656C56 
 3732      4D5400
 3733              	.LASF84:
 3734 00a0 65786974 		.ascii	"exitcode\000"
 3734      636F6465 
 3734      00
 3735              	.LASF190:
 3736 00a9 49544D5F 		.ascii	"ITM_RxBuffer\000"
 3736      52784275 
 3736      66666572 
 3736      00
 3737              	.LASF131:
 3738 00b6 64617461 		.ascii	"data32\000"
 3738      333200
 3739              	.LASF149:
 3740 00bd 42445452 		.ascii	"BDTR\000"
 3740      00
 3741              	.LASF169:
 3742 00c2 66726571 		.ascii	"frequency\000"
 3742      75656E63 
 3742      7900
 3743              	.LASF29:
 3744 00cc 705F7072 		.ascii	"p_prio\000"
 3744      696F00
 3745              	.LASF157:
 3746 00d3 50574D5F 		.ascii	"PWM_READY\000"
 3746      52454144 
 3746      5900
 3747              	.LASF121:
 3748 00dd 72656164 		.ascii	"readt\000"
 3748      7400
 3749              	.LASF159:
 3750 00e3 50574D44 		.ascii	"PWMDriver\000"
 3750      72697665 
 3750      7200
 3751              	.LASF146:
 3752 00ed 43434D52 		.ascii	"CCMR1\000"
 3752      3100
 3753              	.LASF147:
 3754 00f3 43434D52 		.ascii	"CCMR2\000"
 3754      3200
 3755              	.LASF92:
ARM GAS  C:\Users\DNIEL~1\AppData\Local\Temp\ccnor429.s 			page 68


 3756 00f9 54445452 		.ascii	"TDTR\000"
 3756      00
 3757              	.LASF1:
 3758 00fe 7369676E 		.ascii	"signed char\000"
 3758      65642063 
 3758      68617200 
 3759              	.LASF125:
 3760 010a 43414E5F 		.ascii	"CAN_STARTING\000"
 3760      53544152 
 3760      54494E47 
 3760      00
 3761              	.LASF154:
 3762 0117 73746D33 		.ascii	"stm32_tim_t\000"
 3762      325F7469 
 3762      6D5F7400 
 3763              	.LASF11:
 3764 0123 6C6F6E67 		.ascii	"long unsigned int\000"
 3764      20756E73 
 3764      69676E65 
 3764      6420696E 
 3764      7400
 3765              	.LASF45:
 3766 0135 705F6D70 		.ascii	"p_mpool\000"
 3766      6F6F6C00 
 3767              	.LASF14:
 3768 013d 6C6F6E67 		.ascii	"long long unsigned int\000"
 3768      206C6F6E 
 3768      6720756E 
 3768      7369676E 
 3768      65642069 
 3769              	.LASF136:
 3770 0154 74787365 		.ascii	"txsem\000"
 3770      6D00
 3771              	.LASF85:
 3772 015a 77746F62 		.ascii	"wtobjp\000"
 3772      6A7000
 3773              	.LASF19:
 3774 0161 74736C69 		.ascii	"tslices_t\000"
 3774      6365735F 
 3774      7400
 3775              	.LASF54:
 3776 016b 56697274 		.ascii	"VirtualTimer\000"
 3776      75616C54 
 3776      696D6572 
 3776      00
 3777              	.LASF134:
 3778 0178 73746174 		.ascii	"state\000"
 3778      6500
 3779              	.LASF93:
 3780 017e 54444C52 		.ascii	"TDLR\000"
 3780      00
 3781              	.LASF17:
 3782 0183 74737461 		.ascii	"tstate_t\000"
 3782      74655F74 
 3782      00
 3783              	.LASF95:
 3784 018c 43414E5F 		.ascii	"CAN_TxMailBox_TypeDef\000"
ARM GAS  C:\Users\DNIEL~1\AppData\Local\Temp\ccnor429.s 			page 69


 3784      54784D61 
 3784      696C426F 
 3784      785F5479 
 3784      70654465 
 3785              	.LASF197:
 3786 01a2 7372632F 		.ascii	"src/light.c\000"
 3786      6C696768 
 3786      742E6300 
 3787              	.LASF148:
 3788 01ae 43434552 		.ascii	"CCER\000"
 3788      00
 3789              	.LASF12:
 3790 01b3 6C6F6E67 		.ascii	"long long int\000"
 3790      206C6F6E 
 3790      6720696E 
 3790      7400
 3791              	.LASF6:
 3792 01c1 75696E74 		.ascii	"uint16_t\000"
 3792      31365F74 
 3792      00
 3793              	.LASF177:
 3794 01ca 5F5F7661 		.ascii	"__va_list\000"
 3794      5F6C6973 
 3794      7400
 3795              	.LASF167:
 3796 01d4 63616C6C 		.ascii	"callback\000"
 3796      6261636B 
 3796      00
 3797              	.LASF194:
 3798 01dd 70776D53 		.ascii	"pwmStart\000"
 3798      74617274 
 3798      00
 3799              	.LASF31:
 3800 01e6 705F6E65 		.ascii	"p_newer\000"
 3800      77657200 
 3801              	.LASF70:
 3802 01ee 735F7175 		.ascii	"s_queue\000"
 3802      65756500 
 3803              	.LASF126:
 3804 01f6 43414E5F 		.ascii	"CAN_READY\000"
 3804      52454144 
 3804      5900
 3805              	.LASF192:
 3806 0200 50574D44 		.ascii	"PWMD4\000"
 3806      3400
 3807              	.LASF138:
 3808 0206 72786675 		.ascii	"rxfull_event\000"
 3808      6C6C5F65 
 3808      76656E74 
 3808      00
 3809              	.LASF65:
 3810 0213 725F6E65 		.ascii	"r_newer\000"
 3810      77657200 
 3811              	.LASF48:
 3812 021b 72656761 		.ascii	"regarm_t\000"
 3812      726D5F74 
 3812      00
ARM GAS  C:\Users\DNIEL~1\AppData\Local\Temp\ccnor429.s 			page 70


 3813              	.LASF56:
 3814 0224 76745F70 		.ascii	"vt_prev\000"
 3814      72657600 
 3815              	.LASF179:
 3816 022c 76615F6C 		.ascii	"va_list\000"
 3816      69737400 
 3817              	.LASF81:
 3818 0234 4576656E 		.ascii	"EventSource\000"
 3818      74536F75 
 3818      72636500 
 3819              	.LASF91:
 3820 0240 42617365 		.ascii	"BaseSequentialStream\000"
 3820      53657175 
 3820      656E7469 
 3820      616C5374 
 3820      7265616D 
 3821              	.LASF25:
 3822 0255 636E745F 		.ascii	"cnt_t\000"
 3822      7400
 3823              	.LASF0:
 3824 025b 756E7369 		.ascii	"unsigned int\000"
 3824      676E6564 
 3824      20696E74 
 3824      00
 3825              	.LASF191:
 3826 0268 43414E44 		.ascii	"CAND1\000"
 3826      3100
 3827              	.LASF55:
 3828 026e 76745F6E 		.ascii	"vt_next\000"
 3828      65787400 
 3829              	.LASF132:
 3830 0276 43414E54 		.ascii	"CANTxFrame\000"
 3830      78467261 
 3830      6D6500
 3831              	.LASF96:
 3832 0281 52445452 		.ascii	"RDTR\000"
 3832      00
 3833              	.LASF140:
 3834 0286 6572726F 		.ascii	"error_event\000"
 3834      725F6576 
 3834      656E7400 
 3835              	.LASF119:
 3836 0292 67657474 		.ascii	"gett\000"
 3836      00
 3837              	.LASF137:
 3838 0297 72787365 		.ascii	"rxsem\000"
 3838      6D00
 3839              	.LASF163:
 3840 029d 70776D6D 		.ascii	"pwmmode_t\000"
 3840      6F64655F 
 3840      7400
 3841              	.LASF71:
 3842 02a7 735F636E 		.ascii	"s_cnt\000"
 3842      7400
 3843              	.LASF72:
 3844 02ad 4D757465 		.ascii	"Mutex\000"
 3844      7800
ARM GAS  C:\Users\DNIEL~1\AppData\Local\Temp\ccnor429.s 			page 71


 3845              	.LASF51:
 3846 02b3 636F6E74 		.ascii	"context\000"
 3846      65787400 
 3847              	.LASF7:
 3848 02bb 73686F72 		.ascii	"short unsigned int\000"
 3848      7420756E 
 3848      7369676E 
 3848      65642069 
 3848      6E7400
 3849              	.LASF127:
 3850 02ce 43414E5F 		.ascii	"CAN_SLEEP\000"
 3850      534C4545 
 3850      5000
 3851              	.LASF102:
 3852 02d8 52463152 		.ascii	"RF1R\000"
 3852      00
 3853              	.LASF100:
 3854 02dd 43414E5F 		.ascii	"CAN_FilterRegister_TypeDef\000"
 3854      46696C74 
 3854      65725265 
 3854      67697374 
 3854      65725F54 
 3855              	.LASF21:
 3856 02f8 6D73675F 		.ascii	"msg_t\000"
 3856      7400
 3857              	.LASF77:
 3858 02fe 656C5F6E 		.ascii	"el_next\000"
 3858      65787400 
 3859              	.LASF120:
 3860 0306 77726974 		.ascii	"writet\000"
 3860      657400
 3861              	.LASF16:
 3862 030d 746D6F64 		.ascii	"tmode_t\000"
 3862      655F7400 
 3863              	.LASF47:
 3864 0315 54687265 		.ascii	"ThreadsList\000"
 3864      6164734C 
 3864      69737400 
 3865              	.LASF115:
 3866 0321 7346696C 		.ascii	"sFilterRegister\000"
 3866      74657252 
 3866      65676973 
 3866      74657200 
 3867              	.LASF22:
 3868 0331 6576656E 		.ascii	"eventmask_t\000"
 3868      746D6173 
 3868      6B5F7400 
 3869              	.LASF107:
 3870 033d 464D3152 		.ascii	"FM1R\000"
 3870      00
 3871              	.LASF49:
 3872 0342 73746B61 		.ascii	"stkalign_t\000"
 3872      6C69676E 
 3872      5F7400
 3873              	.LASF89:
 3874 034d 77726974 		.ascii	"write\000"
 3874      6500
ARM GAS  C:\Users\DNIEL~1\AppData\Local\Temp\ccnor429.s 			page 72


 3875              	.LASF118:
 3876 0353 70757474 		.ascii	"putt\000"
 3876      00
 3877              	.LASF57:
 3878 0358 76745F74 		.ascii	"vt_time\000"
 3878      696D6500 
 3879              	.LASF28:
 3880 0360 705F7072 		.ascii	"p_prev\000"
 3880      657600
 3881              	.LASF52:
 3882 0367 73697A65 		.ascii	"sizetype\000"
 3882      74797065 
 3882      00
 3883              	.LASF58:
 3884 0370 76745F66 		.ascii	"vt_func\000"
 3884      756E6300 
 3885              	.LASF129:
 3886 0378 64617461 		.ascii	"data8\000"
 3886      3800
 3887              	.LASF176:
 3888 037e 5F5F676E 		.ascii	"__gnuc_va_list\000"
 3888      75635F76 
 3888      615F6C69 
 3888      737400
 3889              	.LASF143:
 3890 038d 43414E44 		.ascii	"CANDriver\000"
 3890      72697665 
 3890      7200
 3891              	.LASF196:
 3892 0397 474E5520 		.ascii	"GNU C 4.7.4 20140401 (release) [ARM/embedded-4_7-br"
 3892      4320342E 
 3892      372E3420 
 3892      32303134 
 3892      30343031 
 3893 03ca 616E6368 		.ascii	"anch revision 209195]\000"
 3893      20726576 
 3893      6973696F 
 3893      6E203230 
 3893      39313935 
 3894              	.LASF61:
 3895 03e0 56544C69 		.ascii	"VTList\000"
 3895      737400
 3896              	.LASF139:
 3897 03e7 7478656D 		.ascii	"txempty_event\000"
 3897      7074795F 
 3897      6576656E 
 3897      7400
 3898              	.LASF94:
 3899 03f5 54444852 		.ascii	"TDHR\000"
 3899      00
 3900              	.LASF36:
 3901 03fa 705F7265 		.ascii	"p_refs\000"
 3901      667300
 3902              	.LASF67:
 3903 0401 725F6375 		.ascii	"r_current\000"
 3903      7272656E 
 3903      7400
ARM GAS  C:\Users\DNIEL~1\AppData\Local\Temp\ccnor429.s 			page 73


 3904              	.LASF66:
 3905 040b 725F6F6C 		.ascii	"r_older\000"
 3905      64657200 
 3906              	.LASF79:
 3907 0413 656C5F6D 		.ascii	"el_mask\000"
 3907      61736B00 
 3908              	.LASF141:
 3909 041b 736C6565 		.ascii	"sleep_event\000"
 3909      705F6576 
 3909      656E7400 
 3910              	.LASF128:
 3911 0427 63616E73 		.ascii	"canstate_t\000"
 3911      74617465 
 3911      5F7400
 3912              	.LASF124:
 3913 0432 43414E5F 		.ascii	"CAN_STOP\000"
 3913      53544F50 
 3913      00
 3914              	.LASF111:
 3915 043b 46464131 		.ascii	"FFA1R\000"
 3915      5200
 3916              	.LASF174:
 3917 0441 666C6F61 		.ascii	"float\000"
 3917      7400
 3918              	.LASF101:
 3919 0447 52463052 		.ascii	"RF0R\000"
 3919      00
 3920              	.LASF162:
 3921 044c 70776D63 		.ascii	"pwmcallback_t\000"
 3921      616C6C62 
 3921      61636B5F 
 3921      7400
 3922              	.LASF18:
 3923 045a 74726566 		.ascii	"trefs_t\000"
 3923      735F7400 
 3924              	.LASF103:
 3925 0462 52455345 		.ascii	"RESERVED0\000"
 3925      52564544 
 3925      3000
 3926              	.LASF106:
 3927 046c 52455345 		.ascii	"RESERVED1\000"
 3927      52564544 
 3927      3100
 3928              	.LASF110:
 3929 0476 52455345 		.ascii	"RESERVED3\000"
 3929      52564544 
 3929      3300
 3930              	.LASF112:
 3931 0480 52455345 		.ascii	"RESERVED4\000"
 3931      52564544 
 3931      3400
 3932              	.LASF113:
 3933 048a 46413152 		.ascii	"FA1R\000"
 3933      00
 3934              	.LASF20:
 3935 048f 74707269 		.ascii	"tprio_t\000"
 3935      6F5F7400 
ARM GAS  C:\Users\DNIEL~1\AppData\Local\Temp\ccnor429.s 			page 74


 3936              	.LASF123:
 3937 0497 43414E5F 		.ascii	"CAN_UNINIT\000"
 3937      554E494E 
 3937      495400
 3938              	.LASF15:
 3939 04a2 5F426F6F 		.ascii	"_Bool\000"
 3939      6C00
 3940              	.LASF8:
 3941 04a8 696E7433 		.ascii	"int32_t\000"
 3941      325F7400 
 3942              	.LASF4:
 3943 04b0 756E7369 		.ascii	"unsigned char\000"
 3943      676E6564 
 3943      20636861 
 3943      7200
 3944              	.LASF73:
 3945 04be 6D5F7175 		.ascii	"m_queue\000"
 3945      65756500 
 3946              	.LASF142:
 3947 04c6 77616B65 		.ascii	"wakeup_event\000"
 3947      75705F65 
 3947      76656E74 
 3947      00
 3948              	.LASF78:
 3949 04d3 656C5F6C 		.ascii	"el_listener\000"
 3949      69737465 
 3949      6E657200 
 3950              	.LASF80:
 3951 04df 656C5F66 		.ascii	"el_flags\000"
 3951      6C616773 
 3951      00
 3952              	.LASF43:
 3953 04e8 705F6D74 		.ascii	"p_mtxlist\000"
 3953      786C6973 
 3953      7400
 3954              	.LASF5:
 3955 04f2 73686F72 		.ascii	"short int\000"
 3955      7420696E 
 3955      7400
 3956              	.LASF34:
 3957 04fc 705F7374 		.ascii	"p_state\000"
 3957      61746500 
 3958              	.LASF37:
 3959 0504 705F7072 		.ascii	"p_preempt\000"
 3959      65656D70 
 3959      7400
 3960              	.LASF32:
 3961 050e 705F6F6C 		.ascii	"p_older\000"
 3961      64657200 
 3962              	.LASF63:
 3963 0516 725F7072 		.ascii	"r_prio\000"
 3963      696F00
 3964              	.LASF86:
 3965 051d 65776D61 		.ascii	"ewmask\000"
 3965      736B00
 3966              	.LASF27:
 3967 0524 705F6E65 		.ascii	"p_next\000"
ARM GAS  C:\Users\DNIEL~1\AppData\Local\Temp\ccnor429.s 			page 75


 3967      787400
 3968              	.LASF88:
 3969 052b 42617365 		.ascii	"BaseSequentialStreamVMT\000"
 3969      53657175 
 3969      656E7469 
 3969      616C5374 
 3969      7265616D 
 3970              	.LASF35:
 3971 0543 705F666C 		.ascii	"p_flags\000"
 3971      61677300 
 3972              	.LASF180:
 3973 054b 6C696768 		.ascii	"lightInit\000"
 3973      74496E69 
 3973      7400
 3974              	.LASF26:
 3975 0555 54687265 		.ascii	"Thread\000"
 3975      616400
 3976              	.LASF108:
 3977 055c 52455345 		.ascii	"RESERVED2\000"
 3977      52564544 
 3977      3200
 3978              	.LASF42:
 3979 0566 705F6570 		.ascii	"p_epending\000"
 3979      656E6469 
 3979      6E6700
 3980              	.LASF104:
 3981 0571 7354784D 		.ascii	"sTxMailBox\000"
 3981      61696C42 
 3981      6F7800
 3982              	.LASF10:
 3983 057c 75696E74 		.ascii	"uint32_t\000"
 3983      33325F74 
 3983      00
 3984              	.LASF62:
 3985 0585 725F7175 		.ascii	"r_queue\000"
 3985      65756500 
 3986              	.LASF60:
 3987 058d 76745F73 		.ascii	"vt_systime\000"
 3987      79737469 
 3987      6D6500
 3988              	.LASF172:
 3989 0598 50574D43 		.ascii	"PWMConfig\000"
 3989      6F6E6669 
 3989      6700
 3990              	.LASF175:
 3991 05a2 6C6F6E67 		.ascii	"long double\000"
 3991      20646F75 
 3991      626C6500 
 3992              	.LASF156:
 3993 05ae 50574D5F 		.ascii	"PWM_STOP\000"
 3993      53544F50 
 3993      00
 3994              	.LASF87:
 3995 05b7 63686172 		.ascii	"char\000"
 3995      00
 3996              	.LASF166:
 3997 05bc 6D6F6465 		.ascii	"mode\000"
ARM GAS  C:\Users\DNIEL~1\AppData\Local\Temp\ccnor429.s 			page 76


 3997      00
 3998              	.LASF144:
 3999 05c1 534D4352 		.ascii	"SMCR\000"
 3999      00
 4000              	.LASF135:
 4001 05c6 636F6E66 		.ascii	"config\000"
 4001      696700
 4002              	.LASF150:
 4003 05cd 444D4152 		.ascii	"DMAR\000"
 4003      00
 4004              	.LASF187:
 4005 05d2 6C696768 		.ascii	"light_blink_wa\000"
 4005      745F626C 
 4005      696E6B5F 
 4005      776100
 4006              	.LASF98:
 4007 05e1 52444852 		.ascii	"RDHR\000"
 4007      00
 4008              	.LASF75:
 4009 05e6 6D5F6E65 		.ascii	"m_next\000"
 4009      787400
 4010              	.LASF24:
 4011 05ed 73797374 		.ascii	"systime_t\000"
 4011      696D655F 
 4011      7400
 4012              	.LASF44:
 4013 05f7 705F7265 		.ascii	"p_realprio\000"
 4013      616C7072 
 4013      696F00
 4014              	.LASF53:
 4015 0602 76746675 		.ascii	"vtfunc_t\000"
 4015      6E635F74 
 4015      00
 4016              	.LASF170:
 4017 060b 6368616E 		.ascii	"channels\000"
 4017      6E656C73 
 4017      00
 4018              	.LASF105:
 4019 0614 73464946 		.ascii	"sFIFOMailBox\000"
 4019      4F4D6169 
 4019      6C426F78 
 4019      00
 4020              	.LASF178:
 4021 0621 5F5F6170 		.ascii	"__ap\000"
 4021      00
 4022              	.LASF38:
 4023 0626 705F7469 		.ascii	"p_time\000"
 4023      6D6500
 4024              	.LASF64:
 4025 062d 725F6374 		.ascii	"r_ctx\000"
 4025      7800
 4026              	.LASF168:
 4027 0633 50574D43 		.ascii	"PWMChannelConfig\000"
 4027      68616E6E 
 4027      656C436F 
 4027      6E666967 
 4027      00
ARM GAS  C:\Users\DNIEL~1\AppData\Local\Temp\ccnor429.s 			page 77


 4028              	.LASF114:
 4029 0644 52455345 		.ascii	"RESERVED5\000"
 4029      52564544 
 4029      3500
 4030              	.LASF50:
 4031 064e 696E7463 		.ascii	"intctx\000"
 4031      747800
 4032              	.LASF40:
 4033 0655 705F6D73 		.ascii	"p_msgqueue\000"
 4033      67717565 
 4033      756500
 4034              	.LASF185:
 4035 0660 70776D63 		.ascii	"pwmcfg\000"
 4035      666700
 4036              	.LASF59:
 4037 0667 76745F70 		.ascii	"vt_par\000"
 4037      617200
 4038              	.LASF69:
 4039 066e 53656D61 		.ascii	"Semaphore\000"
 4039      70686F72 
 4039      6500
 4040              	.LASF23:
 4041 0678 666C6167 		.ascii	"flagsmask_t\000"
 4041      736D6173 
 4041      6B5F7400 
 4042              	.LASF130:
 4043 0684 64617461 		.ascii	"data16\000"
 4043      313600
 4044              	.LASF109:
 4045 068b 46533152 		.ascii	"FS1R\000"
 4045      00
 4046              	.LASF200:
 4047 0690 63685468 		.ascii	"chThdSleep\000"
 4047      64536C65 
 4047      657000
 4048              	.LASF33:
 4049 069b 705F6E61 		.ascii	"p_name\000"
 4049      6D6500
 4050              	.LASF152:
 4051 06a2 43435235 		.ascii	"CCR5\000"
 4051      00
 4052              	.LASF153:
 4053 06a7 43435236 		.ascii	"CCR6\000"
 4053      00
 4054              	.LASF68:
 4055 06ac 52656164 		.ascii	"ReadyList\000"
 4055      794C6973 
 4055      7400
 4056              	.LASF198:
 4057 06b6 433A5C55 		.ascii	"C:\\Users\\D\341niel\\git\\Smarty\\smarty\\firmware"
 4057      73657273 
 4057      5C44E16E 
 4057      69656C5C 
 4057      6769745C 
 4058 06e0 00       		.ascii	"\000"
 4059              	.LASF99:
 4060 06e1 43414E5F 		.ascii	"CAN_FIFOMailBox_TypeDef\000"
ARM GAS  C:\Users\DNIEL~1\AppData\Local\Temp\ccnor429.s 			page 78


 4060      4649464F 
 4060      4D61696C 
 4060      426F785F 
 4060      54797065 
 4061              	.LASF189:
 4062 06f9 726C6973 		.ascii	"rlist\000"
 4062      7400
 4063              	.LASF3:
 4064 06ff 75696E74 		.ascii	"uint8_t\000"
 4064      385F7400 
 4065              	.LASF193:
 4066 0707 63687670 		.ascii	"chvprintf\000"
 4066      72696E74 
 4066      6600
 4067              	.LASF122:
 4068 0711 42617365 		.ascii	"BaseChannel\000"
 4068      4368616E 
 4068      6E656C00 
 4069              	.LASF158:
 4070 071d 70776D73 		.ascii	"pwmstate_t\000"
 4070      74617465 
 4070      5F7400
 4071              	.LASF165:
 4072 0728 70776D63 		.ascii	"pwmcnt_t\000"
 4072      6E745F74 
 4072      00
 4073              	.LASF76:
 4074 0731 4576656E 		.ascii	"EventListener\000"
 4074      744C6973 
 4074      74656E65 
 4074      7200
 4075              	.LASF90:
 4076 073f 72656164 		.ascii	"read\000"
 4076      00
 4077              	.LASF183:
 4078 0744 61726763 		.ascii	"argc\000"
 4078      00
 4079              	.LASF195:
 4080 0749 70776D45 		.ascii	"pwmEnableChannel\000"
 4080      6E61626C 
 4080      65436861 
 4080      6E6E656C 
 4080      00
 4081              	.LASF97:
 4082 075a 52444C52 		.ascii	"RDLR\000"
 4082      00
 4083              	.LASF161:
 4084 075f 636C6F63 		.ascii	"clock\000"
 4084      6B00
 4085              	.LASF41:
 4086 0765 705F6D73 		.ascii	"p_msg\000"
 4086      6700
 4087              	.LASF184:
 4088 076b 61726776 		.ascii	"argv\000"
 4088      00
 4089              	.LASF155:
 4090 0770 50574D5F 		.ascii	"PWM_UNINIT\000"
ARM GAS  C:\Users\DNIEL~1\AppData\Local\Temp\ccnor429.s 			page 79


 4090      554E494E 
 4090      495400
 4091              	.LASF74:
 4092 077b 6D5F6F77 		.ascii	"m_owner\000"
 4092      6E657200 
 4093              	.LASF173:
 4094 0783 646F7562 		.ascii	"double\000"
 4094      6C6500
 4095              	.LASF30:
 4096 078a 705F6374 		.ascii	"p_ctx\000"
 4096      7800
 4097              	.LASF39:
 4098 0790 705F7761 		.ascii	"p_waiting\000"
 4098      6974696E 
 4098      6700
 4099              	.LASF171:
 4100 079a 64696572 		.ascii	"dier\000"
 4100      00
 4101              	.LASF199:
 4102 079f 63687072 		.ascii	"chprintf\000"
 4102      696E7466 
 4102      00
 4103              		.ident	"GCC: (GNU Tools for ARM Embedded Processors) 4.7.4 20140401 (release) [ARM/embedded-4_7-br
ARM GAS  C:\Users\DNIEL~1\AppData\Local\Temp\ccnor429.s 			page 80


DEFINED SYMBOLS
                            *ABS*:00000000 light.c
C:\Users\DNIEL~1\AppData\Local\Temp\ccnor429.s:19     .text.chprintf:00000000 $t
C:\Users\DNIEL~1\AppData\Local\Temp\ccnor429.s:24     .text.chprintf:00000000 chprintf
C:\Users\DNIEL~1\AppData\Local\Temp\ccnor429.s:64     .text.lightInit:00000000 $t
C:\Users\DNIEL~1\AppData\Local\Temp\ccnor429.s:70     .text.lightInit:00000000 lightInit
C:\Users\DNIEL~1\AppData\Local\Temp\ccnor429.s:257    .data.pwmcfg:00000000 .LANCHOR0
C:\Users\DNIEL~1\AppData\Local\Temp\ccnor429.s:91     .text.lightCalc:00000000 $t
C:\Users\DNIEL~1\AppData\Local\Temp\ccnor429.s:97     .text.lightCalc:00000000 lightCalc
C:\Users\DNIEL~1\AppData\Local\Temp\ccnor429.s:250    .bss.ido:00000000 .LANCHOR1
C:\Users\DNIEL~1\AppData\Local\Temp\ccnor429.s:158    .text.cmd_lightvalues:00000000 $t
C:\Users\DNIEL~1\AppData\Local\Temp\ccnor429.s:164    .text.cmd_lightvalues:00000000 cmd_lightvalues
C:\Users\DNIEL~1\AppData\Local\Temp\ccnor429.s:239    .text.cmd_lightvalues:0000004c $d
C:\Users\DNIEL~1\AppData\Local\Temp\ccnor429.s:249    .bss.ido:00000000 $d
C:\Users\DNIEL~1\AppData\Local\Temp\ccnor429.s:253    .bss.ido:00000000 ido
C:\Users\DNIEL~1\AppData\Local\Temp\ccnor429.s:256    .data.pwmcfg:00000000 $d
C:\Users\DNIEL~1\AppData\Local\Temp\ccnor429.s:260    .data.pwmcfg:00000000 pwmcfg
C:\Users\DNIEL~1\AppData\Local\Temp\ccnor429.s:276    .rodata.str1.4:00000000 $d
                     .debug_frame:00000010 $d
C:\Users\DNIEL~1\AppData\Local\Temp\ccnor429.s:248    .text.cmd_lightvalues:00000064 $t

UNDEFINED SYMBOLS
chvprintf
PWMD4
pwmStart
vtlist
pwmEnableChannel
chThdSleep
