ARM GAS  C:\Users\DNIEL~1\AppData\Local\Temp\ccbjUQiQ.s 			page 1


   1              		.syntax unified
   2              		.cpu cortex-m4
   3              		.fpu softvfp
   4              		.eabi_attribute 20, 1
   5              		.eabi_attribute 21, 1
   6              		.eabi_attribute 23, 3
   7              		.eabi_attribute 24, 1
   8              		.eabi_attribute 25, 1
   9              		.eabi_attribute 26, 1
  10              		.eabi_attribute 30, 2
  11              		.eabi_attribute 34, 1
  12              		.eabi_attribute 18, 4
  13              		.thumb
  14              		.file	"light.c"
  15              		.text
  16              	.Ltext0:
  17              		.cfi_sections	.debug_frame
  18              		.section	.text.lightInit,"ax",%progbits
  19              		.align	2
  20              		.p2align 4,,15
  21              		.global	lightInit
  22              		.thumb
  23              		.thumb_func
  24              		.type	lightInit, %function
  25              	lightInit:
  26              	.LFB119:
  27              		.file 1 "src/light.c"
  28              		.loc 1 57 0
  29              		.cfi_startproc
  30              		@ args = 0, pretend = 0, frame = 0
  31              		@ frame_needed = 0, uses_anonymous_args = 0
  32              		@ link register save eliminated.
  33              		.loc 1 58 0
  34 0000 40F20000 		movw	r0, #:lower16:PWMD4
  35 0004 40F20001 		movw	r1, #:lower16:.LANCHOR0
  36 0008 C0F20000 		movt	r0, #:upper16:PWMD4
  37 000c C0F20001 		movt	r1, #:upper16:.LANCHOR0
  38              		.loc 1 64 0
  39              		.loc 1 58 0
  40 0010 FFF7FEBF 		b	pwmStart
  41              	.LVL0:
  42              		.cfi_endproc
  43              	.LFE119:
  44              		.size	lightInit, .-lightInit
  45 0014 AFF30080 		.section	.text.lightCalc,"ax",%progbits
  45      AFF30080 
  45      AFF30080 
  46              		.align	2
  47              		.p2align 4,,15
  48              		.global	lightCalc
  49              		.thumb
  50              		.thumb_func
  51              		.type	lightCalc, %function
  52              	lightCalc:
  53              	.LFB120:
  54              		.loc 1 66 0
  55              		.cfi_startproc
ARM GAS  C:\Users\DNIEL~1\AppData\Local\Temp\ccbjUQiQ.s 			page 2


  56              		@ args = 0, pretend = 0, frame = 0
  57              		@ frame_needed = 0, uses_anonymous_args = 0
  58 0000 70B5     		push	{r4, r5, r6, lr}
  59              	.LCFI0:
  60              		.cfi_def_cfa_offset 16
  61              		.cfi_offset 4, -16
  62              		.cfi_offset 5, -12
  63              		.cfi_offset 6, -8
  64              		.cfi_offset 14, -4
  65              		.loc 1 68 0
  66 0002 40F20003 		movw	r3, #:lower16:vtlist
  67              		.loc 1 71 0
  68 0006 40F20004 		movw	r4, #:lower16:PWMD4
  69 000a C0F20004 		movt	r4, #:upper16:PWMD4
  70              		.loc 1 68 0
  71 000e C0F20003 		movt	r3, #:upper16:vtlist
  72              		.loc 1 71 0
  73 0012 2289     		ldrh	r2, [r4, #8]
  74              		.loc 1 68 0
  75 0014 DE68     		ldr	r6, [r3, #12]
  76 0016 48F21961 		movw	r1, #34329
  77              		.loc 1 71 0
  78 001a 42F21073 		movw	r3, #10000
  79 001e 41F25975 		movw	r5, #5977
  80 0022 CDF2B715 		movt	r5, 53687
  81              		.loc 1 68 0
  82 0026 F008     		lsrs	r0, r6, #3
  83 0028 C1F66101 		movt	r1, 6241
  84              		.loc 1 71 0
  85 002c 03FB02F2 		mul	r2, r3, r2
  86              		.loc 1 68 0
  87 0030 40F20003 		movw	r3, #:lower16:.LANCHOR1
  88 0034 A1FB0006 		umull	r0, r6, r1, r0
  89 0038 C0F20003 		movt	r3, #:upper16:.LANCHOR1
  90              		.loc 1 71 0
  91 003c A5FB0202 		umull	r0, r2, r5, r2
  92 0040 0021     		movs	r1, #0
  93 0042 2046     		mov	r0, r4
  94              		.loc 1 68 0
  95 0044 7608     		lsrs	r6, r6, #1
  96              		.loc 1 71 0
  97 0046 C2F34F32 		ubfx	r2, r2, #13, #16
  98              		.loc 1 68 0
  99 004a 1E60     		str	r6, [r3, #0]
 100              		.loc 1 71 0
 101 004c FFF7FEFF 		bl	pwmEnableChannel
 102              	.LVL1:
 103              		.loc 1 77 0
 104 0050 2189     		ldrh	r1, [r4, #8]
 105 0052 41F28830 		movw	r0, #5000
 106 0056 00FB01F3 		mul	r3, r0, r1
 107 005a A5FB0312 		umull	r1, r2, r5, r3
 108 005e 2046     		mov	r0, r4
 109 0060 0221     		movs	r1, #2
 110 0062 520B     		lsrs	r2, r2, #13
 111 0064 FFF7FEFF 		bl	pwmEnableChannel
 112              	.LVL2:
ARM GAS  C:\Users\DNIEL~1\AppData\Local\Temp\ccbjUQiQ.s 			page 3


 113              		.loc 1 80 0
 114 0068 2189     		ldrh	r1, [r4, #8]
 115 006a 4FF47A70 		mov	r0, #1000
 116 006e 00FB01F1 		mul	r1, r0, r1
 117 0072 A5FB0103 		umull	r0, r3, r5, r1
 118 0076 5A0B     		lsrs	r2, r3, #13
 119 0078 2046     		mov	r0, r4
 120 007a 0321     		movs	r1, #3
 121              		.loc 1 81 0
 122 007c BDE87040 		pop	{r4, r5, r6, lr}
 123              		.loc 1 80 0
 124 0080 FFF7FEBF 		b	pwmEnableChannel
 125              	.LVL3:
 126              		.cfi_endproc
 127              	.LFE120:
 128              		.size	lightCalc, .-lightCalc
 129 0084 AFF30080 		.section	.text.cmd_lightvalues,"ax",%progbits
 129      AFF30080 
 129      AFF30080 
 130              		.align	2
 131              		.p2align 4,,15
 132              		.global	cmd_lightvalues
 133              		.thumb
 134              		.thumb_func
 135              		.type	cmd_lightvalues, %function
 136              	cmd_lightvalues:
 137              	.LFB121:
 138              		.loc 1 83 0
 139              		.cfi_startproc
 140              		@ args = 0, pretend = 0, frame = 0
 141              		@ frame_needed = 0, uses_anonymous_args = 0
 142              	.LVL4:
 143 0000 38B5     		push	{r3, r4, r5, lr}
 144              	.LCFI1:
 145              		.cfi_def_cfa_offset 16
 146              		.cfi_offset 3, -16
 147              		.cfi_offset 4, -12
 148              		.cfi_offset 5, -8
 149              		.cfi_offset 14, -4
 150              		.loc 1 87 0
 151 0002 1249     		ldr	r1, .L7
 152              	.LVL5:
 153              		.loc 1 93 0
 154 0004 124D     		ldr	r5, .L7+4
 155              		.loc 1 83 0
 156 0006 0446     		mov	r4, r0
 157              		.loc 1 87 0
 158 0008 FFF7FEFF 		bl	chprintf
 159              	.LVL6:
 160              		.loc 1 88 0
 161 000c 2046     		mov	r0, r4
 162 000e 1149     		ldr	r1, .L7+8
 163 0010 FFF7FEFF 		bl	chprintf
 164              	.LVL7:
 165              		.loc 1 89 0
 166 0014 0EE0     		b	.L4
 167              	.LVL8:
ARM GAS  C:\Users\DNIEL~1\AppData\Local\Temp\ccbjUQiQ.s 			page 4


 168              	.L5:
 169              		.loc 1 90 0
 170 0016 FFF7FEFF 		bl	chprintf
 171              	.LVL9:
 172              		.loc 1 92 0
 173 001a 2046     		mov	r0, r4
 174 001c 0E49     		ldr	r1, .L7+12
 175 001e FFF7FEFF 		bl	chprintf
 176              	.LVL10:
 177              		.loc 1 93 0
 178 0022 2046     		mov	r0, r4
 179 0024 0D49     		ldr	r1, .L7+16
 180 0026 2A68     		ldr	r2, [r5, #0]
 181 0028 FFF7FEFF 		bl	chprintf
 182              	.LVL11:
 183              		.loc 1 94 0
 184 002c 4FF47A70 		mov	r0, #1000
 185 0030 FFF7FEFF 		bl	chThdSleep
 186              	.LVL12:
 187              	.L4:
 188              		.loc 1 89 0 discriminator 1
 189 0034 2368     		ldr	r3, [r4, #0]
 190 0036 0021     		movs	r1, #0
 191 0038 5A69     		ldr	r2, [r3, #20]
 192 003a 2046     		mov	r0, r4
 193 003c 9047     		blx	r2
 194              	.LVL13:
 195              		.loc 1 90 0 discriminator 1
 196 003e 0022     		movs	r2, #0
 197              		.loc 1 89 0 discriminator 1
 198 0040 0130     		adds	r0, r0, #1
 199              		.loc 1 90 0 discriminator 1
 200 0042 1346     		mov	r3, r2
 201 0044 0649     		ldr	r1, .L7+20
 202 0046 2046     		mov	r0, r4
 203              		.loc 1 89 0 discriminator 1
 204 0048 E5D0     		beq	.L5
 205              	.LVL14:
 206              		.loc 1 96 0
 207 004a 38BD     		pop	{r3, r4, r5, pc}
 208              	.L8:
 209              		.align	2
 210              	.L7:
 211 004c 00000000 		.word	.LC0
 212 0050 00000000 		.word	.LANCHOR1
 213 0054 04000000 		.word	.LC1
 214 0058 18000000 		.word	.LC3
 215 005c 2C000000 		.word	.LC4
 216 0060 0C000000 		.word	.LC2
 217              		.cfi_endproc
 218              	.LFE121:
 219              		.size	cmd_lightvalues, .-cmd_lightvalues
 220 0064 AFF30080 		.section	.bss.ido,"aw",%nobits
 220      AFF30080 
 220      AFF30080 
 221              		.align	2
 222              		.set	.LANCHOR1,. + 0
ARM GAS  C:\Users\DNIEL~1\AppData\Local\Temp\ccbjUQiQ.s 			page 5


 223              		.type	ido, %object
 224              		.size	ido, 4
 225              	ido:
 226 0000 00000000 		.space	4
 227              		.section	.data.pwmcfg,"aw",%progbits
 228              		.align	2
 229              		.set	.LANCHOR0,. + 0
 230              		.type	pwmcfg, %object
 231              		.size	pwmcfg, 48
 232              	pwmcfg:
 233 0000 40420F00 		.word	1000000
 234 0004 E803     		.short	1000
 235 0006 0000     		.space	2
 236 0008 00000000 		.word	0
 237 000c 01000000 		.word	1
 238 0010 00000000 		.word	0
 239 0014 01000000 		.word	1
 240 0018 00000000 		.word	0
 241 001c 01000000 		.word	1
 242 0020 00000000 		.word	0
 243 0024 01000000 		.word	1
 244 0028 00000000 		.word	0
 245 002c 0000     		.short	0
 246 002e 0000     		.space	2
 247              		.section	.rodata.str1.4,"aMS",%progbits,1
 248              		.align	2
 249              	.LC0:
 250 0000 1B6300   		.ascii	"\033c\000"
 251 0003 00       		.space	1
 252              	.LC1:
 253 0004 1B5B324A 		.ascii	"\033[2J\000"
 253      00
 254 0009 000000   		.space	3
 255              	.LC2:
 256 000c 1B5B2564 		.ascii	"\033[%d;%dH\000"
 256      3B256448 
 256      00
 257 0015 000000   		.space	3
 258              	.LC3:
 259 0018 2D2D2D2D 		.ascii	"---- PWM START ----\000"
 259      2050574D 
 259      20535441 
 259      5254202D 
 259      2D2D2D00 
 260              	.LC4:
 261 002c 69646F20 		.ascii	"ido : %x \015\012\000"
 261      3A202578 
 261      200D0A00 
 262              		.text
 263              	.Letext0:
 264              		.file 2 "c:\\chibistudio\\tools\\gnu tools arm embedded\\4.7 2014q2\\bin\\../lib/gcc/arm-none-eabi
 265              		.file 3 "c:\\chibistudio\\tools\\gnu tools arm embedded\\4.7 2014q2\\bin\\../lib/gcc/arm-none-eabi
 266              		.file 4 "../../../ChibiOS/os/ports/GCC/ARMCMx/chtypes.h"
 267              		.file 5 "../../../ChibiOS/os/kernel/include/chlists.h"
 268              		.file 6 "../../../ChibiOS/os/kernel/include/chthreads.h"
 269              		.file 7 "../../../ChibiOS/os/ports/GCC/ARMCMx/chcore_v7m.h"
 270              		.file 8 "../../../ChibiOS/os/kernel/include/chvt.h"
ARM GAS  C:\Users\DNIEL~1\AppData\Local\Temp\ccbjUQiQ.s 			page 6


 271              		.file 9 "../../../ChibiOS/os/kernel/include/chschd.h"
 272              		.file 10 "../../../ChibiOS/os/kernel/include/chsem.h"
 273              		.file 11 "../../../ChibiOS/os/kernel/include/chmtx.h"
 274              		.file 12 "../../../ChibiOS/os/kernel/include/chevents.h"
 275              		.file 13 "../../../ChibiOS/os/kernel/include/chstreams.h"
 276              		.file 14 "../../../ChibiOS/os/hal/platforms/STM32F4xx/stm32f4xx.h"
 277              		.file 15 "../../../ChibiOS/os/hal/platforms/STM32/stm32.h"
 278              		.file 16 "../../../ChibiOS/os/hal/include/io_channel.h"
 279              		.file 17 "../../../ChibiOS/os/hal/include/can.h"
 280              		.file 18 "../../../ChibiOS/os/hal/platforms/STM32/can_lld.h"
 281              		.file 19 "../../../ChibiOS/os/hal/include/pwm.h"
 282              		.file 20 "../../../ChibiOS/os/hal/platforms/STM32/pwm_lld.h"
 283              		.file 21 "../../../ChibiOS/os/ports/common/ARMCMx/CMSIS/include/core_cm4.h"
 284              		.file 22 "../../../ChibiOS/os/various/chprintf.h"
 285              		.section	.debug_info,"",%progbits
 286              	.Ldebug_info0:
 287 0000 85130000 		.4byte	0x1385
 288 0004 0200     		.2byte	0x2
 289 0006 00000000 		.4byte	.Ldebug_abbrev0
 290 000a 04       		.byte	0x4
 291 000b 01       		.uleb128 0x1
 292 000c 80040000 		.4byte	.LASF208
 293 0010 01       		.byte	0x1
 294 0011 CE020000 		.4byte	.LASF209
 295 0015 CC070000 		.4byte	.LASF210
 296 0019 00000000 		.4byte	.Ldebug_ranges0+0
 297 001d 00000000 		.4byte	0
 298 0021 00000000 		.4byte	0
 299 0025 00000000 		.4byte	.Ldebug_line0
 300 0029 02       		.uleb128 0x2
 301 002a 04       		.byte	0x4
 302 002b 05       		.byte	0x5
 303 002c 696E7400 		.ascii	"int\000"
 304 0030 03       		.uleb128 0x3
 305 0031 00000000 		.4byte	.LASF2
 306 0035 02       		.byte	0x2
 307 0036 D5       		.byte	0xd5
 308 0037 3B000000 		.4byte	0x3b
 309 003b 04       		.uleb128 0x4
 310 003c 04       		.byte	0x4
 311 003d 07       		.byte	0x7
 312 003e D0030000 		.4byte	.LASF0
 313 0042 04       		.uleb128 0x4
 314 0043 01       		.byte	0x1
 315 0044 06       		.byte	0x6
 316 0045 84010000 		.4byte	.LASF1
 317 0049 03       		.uleb128 0x3
 318 004a 9A010000 		.4byte	.LASF3
 319 004e 03       		.byte	0x3
 320 004f 2A       		.byte	0x2a
 321 0050 54000000 		.4byte	0x54
 322 0054 04       		.uleb128 0x4
 323 0055 01       		.byte	0x1
 324 0056 08       		.byte	0x8
 325 0057 01020000 		.4byte	.LASF4
 326 005b 04       		.uleb128 0x4
 327 005c 02       		.byte	0x2
ARM GAS  C:\Users\DNIEL~1\AppData\Local\Temp\ccbjUQiQ.s 			page 7


 328 005d 05       		.byte	0x5
 329 005e 4F060000 		.4byte	.LASF5
 330 0062 03       		.uleb128 0x3
 331 0063 12050000 		.4byte	.LASF6
 332 0067 03       		.byte	0x3
 333 0068 36       		.byte	0x36
 334 0069 6D000000 		.4byte	0x6d
 335 006d 04       		.uleb128 0x4
 336 006e 02       		.byte	0x2
 337 006f 07       		.byte	0x7
 338 0070 4C070000 		.4byte	.LASF7
 339 0074 03       		.uleb128 0x3
 340 0075 40000000 		.4byte	.LASF8
 341 0079 03       		.byte	0x3
 342 007a 4F       		.byte	0x4f
 343 007b 7F000000 		.4byte	0x7f
 344 007f 04       		.uleb128 0x4
 345 0080 04       		.byte	0x4
 346 0081 05       		.byte	0x5
 347 0082 3A010000 		.4byte	.LASF9
 348 0086 03       		.uleb128 0x3
 349 0087 1B070000 		.4byte	.LASF10
 350 008b 03       		.byte	0x3
 351 008c 50       		.byte	0x50
 352 008d 91000000 		.4byte	0x91
 353 0091 04       		.uleb128 0x4
 354 0092 04       		.byte	0x4
 355 0093 07       		.byte	0x7
 356 0094 0E030000 		.4byte	.LASF11
 357 0098 04       		.uleb128 0x4
 358 0099 08       		.byte	0x8
 359 009a 05       		.byte	0x5
 360 009b 56030000 		.4byte	.LASF12
 361 009f 03       		.uleb128 0x3
 362 00a0 71060000 		.4byte	.LASF13
 363 00a4 03       		.byte	0x3
 364 00a5 78       		.byte	0x78
 365 00a6 AA000000 		.4byte	0xaa
 366 00aa 04       		.uleb128 0x4
 367 00ab 08       		.byte	0x8
 368 00ac 07       		.byte	0x7
 369 00ad EA040000 		.4byte	.LASF14
 370 00b1 03       		.uleb128 0x3
 371 00b2 C9050000 		.4byte	.LASF15
 372 00b6 04       		.byte	0x4
 373 00b7 28       		.byte	0x28
 374 00b8 49000000 		.4byte	0x49
 375 00bc 03       		.uleb128 0x3
 376 00bd 56010000 		.4byte	.LASF16
 377 00c1 04       		.byte	0x4
 378 00c2 29       		.byte	0x29
 379 00c3 49000000 		.4byte	0x49
 380 00c7 03       		.uleb128 0x3
 381 00c8 D6060000 		.4byte	.LASF17
 382 00cc 04       		.byte	0x4
 383 00cd 2A       		.byte	0x2a
 384 00ce 49000000 		.4byte	0x49
ARM GAS  C:\Users\DNIEL~1\AppData\Local\Temp\ccbjUQiQ.s 			page 8


 385 00d2 03       		.uleb128 0x3
 386 00d3 26050000 		.4byte	.LASF18
 387 00d7 04       		.byte	0x4
 388 00d8 2B       		.byte	0x2b
 389 00d9 49000000 		.4byte	0x49
 390 00dd 03       		.uleb128 0x3
 391 00de 27000000 		.4byte	.LASF19
 392 00e2 04       		.byte	0x4
 393 00e3 2C       		.byte	0x2c
 394 00e4 86000000 		.4byte	0x86
 395 00e8 03       		.uleb128 0x3
 396 00e9 1B050000 		.4byte	.LASF20
 397 00ed 04       		.byte	0x4
 398 00ee 2D       		.byte	0x2d
 399 00ef 74000000 		.4byte	0x74
 400 00f3 03       		.uleb128 0x3
 401 00f4 A2010000 		.4byte	.LASF21
 402 00f8 04       		.byte	0x4
 403 00f9 2F       		.byte	0x2f
 404 00fa 86000000 		.4byte	0x86
 405 00fe 03       		.uleb128 0x3
 406 00ff 45040000 		.4byte	.LASF22
 407 0103 04       		.byte	0x4
 408 0104 30       		.byte	0x30
 409 0105 86000000 		.4byte	0x86
 410 0109 03       		.uleb128 0x3
 411 010a 10000000 		.4byte	.LASF23
 412 010e 04       		.byte	0x4
 413 010f 31       		.byte	0x31
 414 0110 86000000 		.4byte	0x86
 415 0114 03       		.uleb128 0x3
 416 0115 B4020000 		.4byte	.LASF24
 417 0119 04       		.byte	0x4
 418 011a 32       		.byte	0x32
 419 011b 74000000 		.4byte	0x74
 420 011f 03       		.uleb128 0x3
 421 0120 BB060000 		.4byte	.LASF25
 422 0124 05       		.byte	0x5
 423 0125 23       		.byte	0x23
 424 0126 2A010000 		.4byte	0x12a
 425 012a 05       		.uleb128 0x5
 426 012b BB060000 		.4byte	.LASF25
 427 012f 48       		.byte	0x48
 428 0130 06       		.byte	0x6
 429 0131 57       		.byte	0x57
 430 0132 4F020000 		.4byte	0x24f
 431 0136 06       		.uleb128 0x6
 432 0137 43010000 		.4byte	.LASF26
 433 013b 06       		.byte	0x6
 434 013c 58       		.byte	0x58
 435 013d 74020000 		.4byte	0x274
 436 0141 02       		.byte	0x2
 437 0142 23       		.byte	0x23
 438 0143 00       		.uleb128 0
 439 0144 06       		.uleb128 0x6
 440 0145 4A010000 		.4byte	.LASF27
 441 0149 06       		.byte	0x6
ARM GAS  C:\Users\DNIEL~1\AppData\Local\Temp\ccbjUQiQ.s 			page 9


 442 014a 5A       		.byte	0x5a
 443 014b 74020000 		.4byte	0x274
 444 014f 02       		.byte	0x2
 445 0150 23       		.byte	0x23
 446 0151 04       		.uleb128 0x4
 447 0152 06       		.uleb128 0x6
 448 0153 5D020000 		.4byte	.LASF28
 449 0157 06       		.byte	0x6
 450 0158 5C       		.byte	0x5c
 451 0159 DD000000 		.4byte	0xdd
 452 015d 02       		.byte	0x2
 453 015e 23       		.byte	0x23
 454 015f 08       		.uleb128 0x8
 455 0160 06       		.uleb128 0x6
 456 0161 21000000 		.4byte	.LASF29
 457 0165 06       		.byte	0x6
 458 0166 5D       		.byte	0x5d
 459 0167 4D030000 		.4byte	0x34d
 460 016b 02       		.byte	0x2
 461 016c 23       		.byte	0x23
 462 016d 0C       		.uleb128 0xc
 463 016e 06       		.uleb128 0x6
 464 016f 32010000 		.4byte	.LASF30
 465 0173 06       		.byte	0x6
 466 0174 5F       		.byte	0x5f
 467 0175 74020000 		.4byte	0x274
 468 0179 02       		.byte	0x2
 469 017a 23       		.byte	0x23
 470 017b 10       		.uleb128 0x10
 471 017c 06       		.uleb128 0x6
 472 017d 0A050000 		.4byte	.LASF31
 473 0181 06       		.byte	0x6
 474 0182 60       		.byte	0x60
 475 0183 74020000 		.4byte	0x274
 476 0187 02       		.byte	0x2
 477 0188 23       		.byte	0x23
 478 0189 14       		.uleb128 0x14
 479 018a 06       		.uleb128 0x6
 480 018b 9C070000 		.4byte	.LASF32
 481 018f 06       		.byte	0x6
 482 0190 67       		.byte	0x67
 483 0191 E3050000 		.4byte	0x5e3
 484 0195 02       		.byte	0x2
 485 0196 23       		.byte	0x23
 486 0197 18       		.uleb128 0x18
 487 0198 06       		.uleb128 0x6
 488 0199 09080000 		.4byte	.LASF33
 489 019d 06       		.byte	0x6
 490 019e 72       		.byte	0x72
 491 019f BC000000 		.4byte	0xbc
 492 01a3 02       		.byte	0x2
 493 01a4 23       		.byte	0x23
 494 01a5 1C       		.uleb128 0x1c
 495 01a6 06       		.uleb128 0x6
 496 01a7 C3030000 		.4byte	.LASF34
 497 01ab 06       		.byte	0x6
 498 01ac 76       		.byte	0x76
ARM GAS  C:\Users\DNIEL~1\AppData\Local\Temp\ccbjUQiQ.s 			page 10


 499 01ad B1000000 		.4byte	0xb1
 500 01b1 02       		.byte	0x2
 501 01b2 23       		.byte	0x23
 502 01b3 1D       		.uleb128 0x1d
 503 01b4 06       		.uleb128 0x6
 504 01b5 F5030000 		.4byte	.LASF35
 505 01b9 06       		.byte	0x6
 506 01ba 7B       		.byte	0x7b
 507 01bb C7000000 		.4byte	0xc7
 508 01bf 02       		.byte	0x2
 509 01c0 23       		.byte	0x23
 510 01c1 1E       		.uleb128 0x1e
 511 01c2 06       		.uleb128 0x6
 512 01c3 90010000 		.4byte	.LASF36
 513 01c7 06       		.byte	0x6
 514 01c8 81       		.byte	0x81
 515 01c9 D2000000 		.4byte	0xd2
 516 01cd 02       		.byte	0x2
 517 01ce 23       		.byte	0x23
 518 01cf 1F       		.uleb128 0x1f
 519 01d0 06       		.uleb128 0x6
 520 01d1 69040000 		.4byte	.LASF37
 521 01d5 06       		.byte	0x6
 522 01d6 88       		.byte	0x88
 523 01d7 3E040000 		.4byte	0x43e
 524 01db 02       		.byte	0x2
 525 01dc 23       		.byte	0x23
 526 01dd 20       		.uleb128 0x20
 527 01de 07       		.uleb128 0x7
 528 01df 705F7500 		.ascii	"p_u\000"
 529 01e3 06       		.byte	0x6
 530 01e4 AD       		.byte	0xad
 531 01e5 AE050000 		.4byte	0x5ae
 532 01e9 02       		.byte	0x2
 533 01ea 23       		.byte	0x23
 534 01eb 24       		.uleb128 0x24
 535 01ec 06       		.uleb128 0x6
 536 01ed B9030000 		.4byte	.LASF38
 537 01f1 06       		.byte	0x6
 538 01f2 B2       		.byte	0xb2
 539 01f3 9C020000 		.4byte	0x29c
 540 01f7 02       		.byte	0x2
 541 01f8 23       		.byte	0x23
 542 01f9 28       		.uleb128 0x28
 543 01fa 06       		.uleb128 0x6
 544 01fb 2F000000 		.4byte	.LASF39
 545 01ff 06       		.byte	0x6
 546 0200 B8       		.byte	0xb8
 547 0201 7A020000 		.4byte	0x27a
 548 0205 02       		.byte	0x2
 549 0206 23       		.byte	0x23
 550 0207 2C       		.uleb128 0x2c
 551 0208 06       		.uleb128 0x6
 552 0209 F7070000 		.4byte	.LASF40
 553 020d 06       		.byte	0x6
 554 020e BC       		.byte	0xbc
 555 020f E8000000 		.4byte	0xe8
ARM GAS  C:\Users\DNIEL~1\AppData\Local\Temp\ccbjUQiQ.s 			page 11


 556 0213 02       		.byte	0x2
 557 0214 23       		.byte	0x23
 558 0215 34       		.uleb128 0x34
 559 0216 06       		.uleb128 0x6
 560 0217 E9020000 		.4byte	.LASF41
 561 021b 06       		.byte	0x6
 562 021c C2       		.byte	0xc2
 563 021d F3000000 		.4byte	0xf3
 564 0221 02       		.byte	0x2
 565 0222 23       		.byte	0x23
 566 0223 38       		.uleb128 0x38
 567 0224 06       		.uleb128 0x6
 568 0225 5F010000 		.4byte	.LASF42
 569 0229 06       		.byte	0x6
 570 022a C9       		.byte	0xc9
 571 022b F5050000 		.4byte	0x5f5
 572 022f 02       		.byte	0x2
 573 0230 23       		.byte	0x23
 574 0231 3C       		.uleb128 0x3c
 575 0232 06       		.uleb128 0x6
 576 0233 D3040000 		.4byte	.LASF43
 577 0237 06       		.byte	0x6
 578 0238 CD       		.byte	0xcd
 579 0239 DD000000 		.4byte	0xdd
 580 023d 02       		.byte	0x2
 581 023e 23       		.byte	0x23
 582 023f 40       		.uleb128 0x40
 583 0240 06       		.uleb128 0x6
 584 0241 DD030000 		.4byte	.LASF44
 585 0245 06       		.byte	0x6
 586 0246 D3       		.byte	0xd3
 587 0247 B2020000 		.4byte	0x2b2
 588 024b 02       		.byte	0x2
 589 024c 23       		.byte	0x23
 590 024d 44       		.uleb128 0x44
 591 024e 00       		.byte	0
 592 024f 08       		.uleb128 0x8
 593 0250 08       		.byte	0x8
 594 0251 05       		.byte	0x5
 595 0252 5A       		.byte	0x5a
 596 0253 74020000 		.4byte	0x274
 597 0257 06       		.uleb128 0x6
 598 0258 43010000 		.4byte	.LASF26
 599 025c 05       		.byte	0x5
 600 025d 5B       		.byte	0x5b
 601 025e 74020000 		.4byte	0x274
 602 0262 02       		.byte	0x2
 603 0263 23       		.byte	0x23
 604 0264 00       		.uleb128 0
 605 0265 06       		.uleb128 0x6
 606 0266 4A010000 		.4byte	.LASF27
 607 026a 05       		.byte	0x5
 608 026b 5D       		.byte	0x5d
 609 026c 74020000 		.4byte	0x274
 610 0270 02       		.byte	0x2
 611 0271 23       		.byte	0x23
 612 0272 04       		.uleb128 0x4
ARM GAS  C:\Users\DNIEL~1\AppData\Local\Temp\ccbjUQiQ.s 			page 12


 613 0273 00       		.byte	0
 614 0274 09       		.uleb128 0x9
 615 0275 04       		.byte	0x4
 616 0276 1F010000 		.4byte	0x11f
 617 027a 03       		.uleb128 0x3
 618 027b 31070000 		.4byte	.LASF45
 619 027f 05       		.byte	0x5
 620 0280 5F       		.byte	0x5f
 621 0281 4F020000 		.4byte	0x24f
 622 0285 08       		.uleb128 0x8
 623 0286 04       		.byte	0x4
 624 0287 05       		.byte	0x5
 625 0288 64       		.byte	0x64
 626 0289 9C020000 		.4byte	0x29c
 627 028d 06       		.uleb128 0x6
 628 028e 43010000 		.4byte	.LASF26
 629 0292 05       		.byte	0x5
 630 0293 66       		.byte	0x66
 631 0294 74020000 		.4byte	0x274
 632 0298 02       		.byte	0x2
 633 0299 23       		.byte	0x23
 634 029a 00       		.uleb128 0
 635 029b 00       		.byte	0
 636 029c 03       		.uleb128 0x3
 637 029d 25040000 		.4byte	.LASF46
 638 02a1 05       		.byte	0x5
 639 02a2 69       		.byte	0x69
 640 02a3 85020000 		.4byte	0x285
 641 02a7 03       		.uleb128 0x3
 642 02a8 69010000 		.4byte	.LASF47
 643 02ac 07       		.byte	0x7
 644 02ad DE       		.byte	0xde
 645 02ae B2020000 		.4byte	0x2b2
 646 02b2 0A       		.uleb128 0xa
 647 02b3 04       		.byte	0x4
 648 02b4 03       		.uleb128 0x3
 649 02b5 70020000 		.4byte	.LASF48
 650 02b9 07       		.byte	0x7
 651 02ba E4       		.byte	0xe4
 652 02bb 9F000000 		.4byte	0x9f
 653 02bf 0B       		.uleb128 0xb
 654 02c0 E2020000 		.4byte	.LASF49
 655 02c4 24       		.byte	0x24
 656 02c5 07       		.byte	0x7
 657 02c6 0501     		.2byte	0x105
 658 02c8 4D030000 		.4byte	0x34d
 659 02cc 0C       		.uleb128 0xc
 660 02cd 723400   		.ascii	"r4\000"
 661 02d0 07       		.byte	0x7
 662 02d1 1801     		.2byte	0x118
 663 02d3 A7020000 		.4byte	0x2a7
 664 02d7 02       		.byte	0x2
 665 02d8 23       		.byte	0x23
 666 02d9 00       		.uleb128 0
 667 02da 0C       		.uleb128 0xc
 668 02db 723500   		.ascii	"r5\000"
 669 02de 07       		.byte	0x7
ARM GAS  C:\Users\DNIEL~1\AppData\Local\Temp\ccbjUQiQ.s 			page 13


 670 02df 1901     		.2byte	0x119
 671 02e1 A7020000 		.4byte	0x2a7
 672 02e5 02       		.byte	0x2
 673 02e6 23       		.byte	0x23
 674 02e7 04       		.uleb128 0x4
 675 02e8 0C       		.uleb128 0xc
 676 02e9 723600   		.ascii	"r6\000"
 677 02ec 07       		.byte	0x7
 678 02ed 1A01     		.2byte	0x11a
 679 02ef A7020000 		.4byte	0x2a7
 680 02f3 02       		.byte	0x2
 681 02f4 23       		.byte	0x23
 682 02f5 08       		.uleb128 0x8
 683 02f6 0C       		.uleb128 0xc
 684 02f7 723700   		.ascii	"r7\000"
 685 02fa 07       		.byte	0x7
 686 02fb 1B01     		.2byte	0x11b
 687 02fd A7020000 		.4byte	0x2a7
 688 0301 02       		.byte	0x2
 689 0302 23       		.byte	0x23
 690 0303 0C       		.uleb128 0xc
 691 0304 0C       		.uleb128 0xc
 692 0305 723800   		.ascii	"r8\000"
 693 0308 07       		.byte	0x7
 694 0309 1C01     		.2byte	0x11c
 695 030b A7020000 		.4byte	0x2a7
 696 030f 02       		.byte	0x2
 697 0310 23       		.byte	0x23
 698 0311 10       		.uleb128 0x10
 699 0312 0C       		.uleb128 0xc
 700 0313 723900   		.ascii	"r9\000"
 701 0316 07       		.byte	0x7
 702 0317 1D01     		.2byte	0x11d
 703 0319 A7020000 		.4byte	0x2a7
 704 031d 02       		.byte	0x2
 705 031e 23       		.byte	0x23
 706 031f 14       		.uleb128 0x14
 707 0320 0C       		.uleb128 0xc
 708 0321 72313000 		.ascii	"r10\000"
 709 0325 07       		.byte	0x7
 710 0326 1E01     		.2byte	0x11e
 711 0328 A7020000 		.4byte	0x2a7
 712 032c 02       		.byte	0x2
 713 032d 23       		.byte	0x23
 714 032e 18       		.uleb128 0x18
 715 032f 0C       		.uleb128 0xc
 716 0330 72313100 		.ascii	"r11\000"
 717 0334 07       		.byte	0x7
 718 0335 1F01     		.2byte	0x11f
 719 0337 A7020000 		.4byte	0x2a7
 720 033b 02       		.byte	0x2
 721 033c 23       		.byte	0x23
 722 033d 1C       		.uleb128 0x1c
 723 033e 0C       		.uleb128 0xc
 724 033f 6C7200   		.ascii	"lr\000"
 725 0342 07       		.byte	0x7
 726 0343 2001     		.2byte	0x120
ARM GAS  C:\Users\DNIEL~1\AppData\Local\Temp\ccbjUQiQ.s 			page 14


 727 0345 A7020000 		.4byte	0x2a7
 728 0349 02       		.byte	0x2
 729 034a 23       		.byte	0x23
 730 034b 20       		.uleb128 0x20
 731 034c 00       		.byte	0
 732 034d 0B       		.uleb128 0xb
 733 034e C9010000 		.4byte	.LASF50
 734 0352 04       		.byte	0x4
 735 0353 07       		.byte	0x7
 736 0354 2A01     		.2byte	0x12a
 737 0356 6A030000 		.4byte	0x36a
 738 035a 0C       		.uleb128 0xc
 739 035b 72313300 		.ascii	"r13\000"
 740 035f 07       		.byte	0x7
 741 0360 2B01     		.2byte	0x12b
 742 0362 6A030000 		.4byte	0x36a
 743 0366 02       		.byte	0x2
 744 0367 23       		.byte	0x23
 745 0368 00       		.uleb128 0
 746 0369 00       		.byte	0
 747 036a 09       		.uleb128 0x9
 748 036b 04       		.byte	0x4
 749 036c BF020000 		.4byte	0x2bf
 750 0370 0D       		.uleb128 0xd
 751 0371 86000000 		.4byte	0x86
 752 0375 04       		.uleb128 0x4
 753 0376 04       		.byte	0x4
 754 0377 07       		.byte	0x7
 755 0378 07000000 		.4byte	.LASF51
 756 037c 03       		.uleb128 0x3
 757 037d 4F000000 		.4byte	.LASF52
 758 0381 08       		.byte	0x8
 759 0382 4E       		.byte	0x4e
 760 0383 87030000 		.4byte	0x387
 761 0387 09       		.uleb128 0x9
 762 0388 04       		.byte	0x4
 763 0389 8D030000 		.4byte	0x38d
 764 038d 0E       		.uleb128 0xe
 765 038e 01       		.byte	0x1
 766 038f 99030000 		.4byte	0x399
 767 0393 0F       		.uleb128 0xf
 768 0394 B2020000 		.4byte	0x2b2
 769 0398 00       		.byte	0
 770 0399 03       		.uleb128 0x3
 771 039a 24070000 		.4byte	.LASF53
 772 039e 08       		.byte	0x8
 773 039f 53       		.byte	0x53
 774 03a0 A4030000 		.4byte	0x3a4
 775 03a4 05       		.uleb128 0x5
 776 03a5 24070000 		.4byte	.LASF53
 777 03a9 14       		.byte	0x14
 778 03aa 08       		.byte	0x8
 779 03ab 5A       		.byte	0x5a
 780 03ac F7030000 		.4byte	0x3f7
 781 03b0 06       		.uleb128 0x6
 782 03b1 79030000 		.4byte	.LASF54
 783 03b5 08       		.byte	0x8
ARM GAS  C:\Users\DNIEL~1\AppData\Local\Temp\ccbjUQiQ.s 			page 15


 784 03b6 5B       		.byte	0x5b
 785 03b7 F7030000 		.4byte	0x3f7
 786 03bb 02       		.byte	0x2
 787 03bc 23       		.byte	0x23
 788 03bd 00       		.uleb128 0
 789 03be 06       		.uleb128 0x6
 790 03bf 2D020000 		.4byte	.LASF55
 791 03c3 08       		.byte	0x8
 792 03c4 5D       		.byte	0x5d
 793 03c5 F7030000 		.4byte	0x3f7
 794 03c9 02       		.byte	0x2
 795 03ca 23       		.byte	0x23
 796 03cb 04       		.uleb128 0x4
 797 03cc 06       		.uleb128 0x6
 798 03cd A3070000 		.4byte	.LASF56
 799 03d1 08       		.byte	0x8
 800 03d2 5F       		.byte	0x5f
 801 03d3 09010000 		.4byte	0x109
 802 03d7 02       		.byte	0x2
 803 03d8 23       		.byte	0x23
 804 03d9 08       		.uleb128 0x8
 805 03da 06       		.uleb128 0x6
 806 03db DA020000 		.4byte	.LASF57
 807 03df 08       		.byte	0x8
 808 03e0 60       		.byte	0x60
 809 03e1 7C030000 		.4byte	0x37c
 810 03e5 02       		.byte	0x2
 811 03e6 23       		.byte	0x23
 812 03e7 0C       		.uleb128 0xc
 813 03e8 06       		.uleb128 0x6
 814 03e9 03010000 		.4byte	.LASF58
 815 03ed 08       		.byte	0x8
 816 03ee 62       		.byte	0x62
 817 03ef B2020000 		.4byte	0x2b2
 818 03f3 02       		.byte	0x2
 819 03f4 23       		.byte	0x23
 820 03f5 10       		.uleb128 0x10
 821 03f6 00       		.byte	0
 822 03f7 09       		.uleb128 0x9
 823 03f8 04       		.byte	0x4
 824 03f9 99030000 		.4byte	0x399
 825 03fd 08       		.uleb128 0x8
 826 03fe 10       		.byte	0x10
 827 03ff 08       		.byte	0x8
 828 0400 6C       		.byte	0x6c
 829 0401 3E040000 		.4byte	0x43e
 830 0405 06       		.uleb128 0x6
 831 0406 79030000 		.4byte	.LASF54
 832 040a 08       		.byte	0x8
 833 040b 6D       		.byte	0x6d
 834 040c F7030000 		.4byte	0x3f7
 835 0410 02       		.byte	0x2
 836 0411 23       		.byte	0x23
 837 0412 00       		.uleb128 0
 838 0413 06       		.uleb128 0x6
 839 0414 2D020000 		.4byte	.LASF55
 840 0418 08       		.byte	0x8
ARM GAS  C:\Users\DNIEL~1\AppData\Local\Temp\ccbjUQiQ.s 			page 16


 841 0419 6F       		.byte	0x6f
 842 041a F7030000 		.4byte	0x3f7
 843 041e 02       		.byte	0x2
 844 041f 23       		.byte	0x23
 845 0420 04       		.uleb128 0x4
 846 0421 06       		.uleb128 0x6
 847 0422 A3070000 		.4byte	.LASF56
 848 0426 08       		.byte	0x8
 849 0427 71       		.byte	0x71
 850 0428 09010000 		.4byte	0x109
 851 042c 02       		.byte	0x2
 852 042d 23       		.byte	0x23
 853 042e 08       		.uleb128 0x8
 854 042f 06       		.uleb128 0x6
 855 0430 D1050000 		.4byte	.LASF59
 856 0434 08       		.byte	0x8
 857 0435 72       		.byte	0x72
 858 0436 3E040000 		.4byte	0x43e
 859 043a 02       		.byte	0x2
 860 043b 23       		.byte	0x23
 861 043c 0C       		.uleb128 0xc
 862 043d 00       		.byte	0
 863 043e 0D       		.uleb128 0xd
 864 043f 09010000 		.4byte	0x109
 865 0443 03       		.uleb128 0x3
 866 0444 3F050000 		.4byte	.LASF60
 867 0448 08       		.byte	0x8
 868 0449 73       		.byte	0x73
 869 044a FD030000 		.4byte	0x3fd
 870 044e 08       		.uleb128 0x8
 871 044f 1C       		.byte	0x1c
 872 0450 09       		.byte	0x9
 873 0451 57       		.byte	0x57
 874 0452 AB040000 		.4byte	0x4ab
 875 0456 06       		.uleb128 0x6
 876 0457 9D050000 		.4byte	.LASF61
 877 045b 09       		.byte	0x9
 878 045c 58       		.byte	0x58
 879 045d 7A020000 		.4byte	0x27a
 880 0461 02       		.byte	0x2
 881 0462 23       		.byte	0x23
 882 0463 00       		.uleb128 0
 883 0464 06       		.uleb128 0x6
 884 0465 9F060000 		.4byte	.LASF62
 885 0469 09       		.byte	0x9
 886 046a 59       		.byte	0x59
 887 046b DD000000 		.4byte	0xdd
 888 046f 02       		.byte	0x2
 889 0470 23       		.byte	0x23
 890 0471 08       		.uleb128 0x8
 891 0472 06       		.uleb128 0x6
 892 0473 3A000000 		.4byte	.LASF63
 893 0477 09       		.byte	0x9
 894 0478 5B       		.byte	0x5b
 895 0479 4D030000 		.4byte	0x34d
 896 047d 02       		.byte	0x2
 897 047e 23       		.byte	0x23
ARM GAS  C:\Users\DNIEL~1\AppData\Local\Temp\ccbjUQiQ.s 			page 17


 898 047f 0C       		.uleb128 0xc
 899 0480 06       		.uleb128 0x6
 900 0481 3A020000 		.4byte	.LASF64
 901 0485 09       		.byte	0x9
 902 0486 5E       		.byte	0x5e
 903 0487 74020000 		.4byte	0x274
 904 048b 02       		.byte	0x2
 905 048c 23       		.byte	0x23
 906 048d 10       		.uleb128 0x10
 907 048e 06       		.uleb128 0x6
 908 048f EF050000 		.4byte	.LASF65
 909 0493 09       		.byte	0x9
 910 0494 5F       		.byte	0x5f
 911 0495 74020000 		.4byte	0x274
 912 0499 02       		.byte	0x2
 913 049a 23       		.byte	0x23
 914 049b 14       		.uleb128 0x14
 915 049c 06       		.uleb128 0x6
 916 049d 35050000 		.4byte	.LASF66
 917 04a1 09       		.byte	0x9
 918 04a2 62       		.byte	0x62
 919 04a3 74020000 		.4byte	0x274
 920 04a7 02       		.byte	0x2
 921 04a8 23       		.byte	0x23
 922 04a9 18       		.uleb128 0x18
 923 04aa 00       		.byte	0
 924 04ab 03       		.uleb128 0x3
 925 04ac 89070000 		.4byte	.LASF67
 926 04b0 09       		.byte	0x9
 927 04b1 64       		.byte	0x64
 928 04b2 4E040000 		.4byte	0x44e
 929 04b6 05       		.uleb128 0x5
 930 04b7 C9040000 		.4byte	.LASF68
 931 04bb 0C       		.byte	0xc
 932 04bc 0A       		.byte	0xa
 933 04bd 25       		.byte	0x25
 934 04be DF040000 		.4byte	0x4df
 935 04c2 06       		.uleb128 0x6
 936 04c3 F7050000 		.4byte	.LASF69
 937 04c7 0A       		.byte	0xa
 938 04c8 26       		.byte	0x26
 939 04c9 7A020000 		.4byte	0x27a
 940 04cd 02       		.byte	0x2
 941 04ce 23       		.byte	0x23
 942 04cf 00       		.uleb128 0
 943 04d0 06       		.uleb128 0x6
 944 04d1 E4040000 		.4byte	.LASF70
 945 04d5 0A       		.byte	0xa
 946 04d6 28       		.byte	0x28
 947 04d7 14010000 		.4byte	0x114
 948 04db 02       		.byte	0x2
 949 04dc 23       		.byte	0x23
 950 04dd 08       		.uleb128 0x8
 951 04de 00       		.byte	0
 952 04df 03       		.uleb128 0x3
 953 04e0 C9040000 		.4byte	.LASF68
 954 04e4 0A       		.byte	0xa
ARM GAS  C:\Users\DNIEL~1\AppData\Local\Temp\ccbjUQiQ.s 			page 18


 955 04e5 29       		.byte	0x29
 956 04e6 B6040000 		.4byte	0x4b6
 957 04ea 05       		.uleb128 0x5
 958 04eb 50030000 		.4byte	.LASF71
 959 04ef 10       		.byte	0x10
 960 04f0 0B       		.byte	0xb
 961 04f1 25       		.byte	0x25
 962 04f2 21050000 		.4byte	0x521
 963 04f6 06       		.uleb128 0x6
 964 04f7 71030000 		.4byte	.LASF72
 965 04fb 0B       		.byte	0xb
 966 04fc 26       		.byte	0x26
 967 04fd 7A020000 		.4byte	0x27a
 968 0501 02       		.byte	0x2
 969 0502 23       		.byte	0x23
 970 0503 00       		.uleb128 0
 971 0504 06       		.uleb128 0x6
 972 0505 FB000000 		.4byte	.LASF73
 973 0509 0B       		.byte	0xb
 974 050a 28       		.byte	0x28
 975 050b 74020000 		.4byte	0x274
 976 050f 02       		.byte	0x2
 977 0510 23       		.byte	0x23
 978 0511 08       		.uleb128 0x8
 979 0512 06       		.uleb128 0x6
 980 0513 AB070000 		.4byte	.LASF74
 981 0517 0B       		.byte	0xb
 982 0518 2A       		.byte	0x2a
 983 0519 21050000 		.4byte	0x521
 984 051d 02       		.byte	0x2
 985 051e 23       		.byte	0x23
 986 051f 0C       		.uleb128 0xc
 987 0520 00       		.byte	0
 988 0521 09       		.uleb128 0x9
 989 0522 04       		.byte	0x4
 990 0523 EA040000 		.4byte	0x4ea
 991 0527 03       		.uleb128 0x3
 992 0528 50030000 		.4byte	.LASF71
 993 052c 0B       		.byte	0xb
 994 052d 2C       		.byte	0x2c
 995 052e EA040000 		.4byte	0x4ea
 996 0532 03       		.uleb128 0x3
 997 0533 DE060000 		.4byte	.LASF75
 998 0537 0C       		.byte	0xc
 999 0538 25       		.byte	0x25
 1000 0539 3D050000 		.4byte	0x53d
 1001 053d 05       		.uleb128 0x5
 1002 053e DE060000 		.4byte	.LASF75
 1003 0542 10       		.byte	0x10
 1004 0543 0C       		.byte	0xc
 1005 0544 2A       		.byte	0x2a
 1006 0545 82050000 		.4byte	0x582
 1007 0549 06       		.uleb128 0x6
 1008 054a 25030000 		.4byte	.LASF76
 1009 054e 0C       		.byte	0xc
 1010 054f 2B       		.byte	0x2b
 1011 0550 82050000 		.4byte	0x582
ARM GAS  C:\Users\DNIEL~1\AppData\Local\Temp\ccbjUQiQ.s 			page 19


 1012 0554 02       		.byte	0x2
 1013 0555 23       		.byte	0x23
 1014 0556 00       		.uleb128 0
 1015 0557 06       		.uleb128 0x6
 1016 0558 FD070000 		.4byte	.LASF77
 1017 055c 0C       		.byte	0xc
 1018 055d 2E       		.byte	0x2e
 1019 055e 74020000 		.4byte	0x274
 1020 0562 02       		.byte	0x2
 1021 0563 23       		.byte	0x23
 1022 0564 04       		.uleb128 0x4
 1023 0565 06       		.uleb128 0x6
 1024 0566 81070000 		.4byte	.LASF78
 1025 056a 0C       		.byte	0xc
 1026 056b 30       		.byte	0x30
 1027 056c F3000000 		.4byte	0xf3
 1028 0570 02       		.byte	0x2
 1029 0571 23       		.byte	0x23
 1030 0572 08       		.uleb128 0x8
 1031 0573 06       		.uleb128 0x6
 1032 0574 9B000000 		.4byte	.LASF79
 1033 0578 0C       		.byte	0xc
 1034 0579 33       		.byte	0x33
 1035 057a FE000000 		.4byte	0xfe
 1036 057e 02       		.byte	0x2
 1037 057f 23       		.byte	0x23
 1038 0580 0C       		.uleb128 0xc
 1039 0581 00       		.byte	0
 1040 0582 09       		.uleb128 0x9
 1041 0583 04       		.byte	0x4
 1042 0584 32050000 		.4byte	0x532
 1043 0588 05       		.uleb128 0x5
 1044 0589 02030000 		.4byte	.LASF80
 1045 058d 04       		.byte	0x4
 1046 058e 0C       		.byte	0xc
 1047 058f 3A       		.byte	0x3a
 1048 0590 A3050000 		.4byte	0x5a3
 1049 0594 06       		.uleb128 0x6
 1050 0595 FA020000 		.4byte	.LASF81
 1051 0599 0C       		.byte	0xc
 1052 059a 3B       		.byte	0x3b
 1053 059b 82050000 		.4byte	0x582
 1054 059f 02       		.byte	0x2
 1055 05a0 23       		.byte	0x23
 1056 05a1 00       		.uleb128 0
 1057 05a2 00       		.byte	0
 1058 05a3 03       		.uleb128 0x3
 1059 05a4 02030000 		.4byte	.LASF80
 1060 05a8 0C       		.byte	0xc
 1061 05a9 3E       		.byte	0x3e
 1062 05aa 88050000 		.4byte	0x588
 1063 05ae 10       		.uleb128 0x10
 1064 05af 04       		.byte	0x4
 1065 05b0 06       		.byte	0x6
 1066 05b1 8F       		.byte	0x8f
 1067 05b2 E3050000 		.4byte	0x5e3
 1068 05b6 11       		.uleb128 0x11
ARM GAS  C:\Users\DNIEL~1\AppData\Local\Temp\ccbjUQiQ.s 			page 20


 1069 05b7 45070000 		.4byte	.LASF82
 1070 05bb 06       		.byte	0x6
 1071 05bc 96       		.byte	0x96
 1072 05bd E8000000 		.4byte	0xe8
 1073 05c1 11       		.uleb128 0x11
 1074 05c2 0A010000 		.4byte	.LASF83
 1075 05c6 06       		.byte	0x6
 1076 05c7 9D       		.byte	0x9d
 1077 05c8 E8000000 		.4byte	0xe8
 1078 05cc 11       		.uleb128 0x11
 1079 05cd 64020000 		.4byte	.LASF84
 1080 05d1 06       		.byte	0x6
 1081 05d2 A4       		.byte	0xa4
 1082 05d3 B2020000 		.4byte	0x2b2
 1083 05d7 11       		.uleb128 0x11
 1084 05d8 13010000 		.4byte	.LASF85
 1085 05dc 06       		.byte	0x6
 1086 05dd AB       		.byte	0xab
 1087 05de F3000000 		.4byte	0xf3
 1088 05e2 00       		.byte	0
 1089 05e3 09       		.uleb128 0x9
 1090 05e4 04       		.byte	0x4
 1091 05e5 E9050000 		.4byte	0x5e9
 1092 05e9 12       		.uleb128 0x12
 1093 05ea EE050000 		.4byte	0x5ee
 1094 05ee 04       		.uleb128 0x4
 1095 05ef 01       		.byte	0x1
 1096 05f0 08       		.byte	0x8
 1097 05f1 58020000 		.4byte	.LASF86
 1098 05f5 09       		.uleb128 0x9
 1099 05f6 04       		.byte	0x4
 1100 05f7 27050000 		.4byte	0x527
 1101 05fb 09       		.uleb128 0x9
 1102 05fc 04       		.byte	0x4
 1103 05fd 01060000 		.4byte	0x601
 1104 0601 13       		.uleb128 0x13
 1105 0602 01       		.byte	0x1
 1106 0603 E8000000 		.4byte	0xe8
 1107 0607 11060000 		.4byte	0x611
 1108 060b 0F       		.uleb128 0xf
 1109 060c B2020000 		.4byte	0x2b2
 1110 0610 00       		.byte	0
 1111 0611 09       		.uleb128 0x9
 1112 0612 04       		.byte	0x4
 1113 0613 49000000 		.4byte	0x49
 1114 0617 05       		.uleb128 0x5
 1115 0618 AB050000 		.4byte	.LASF87
 1116 061c 10       		.byte	0x10
 1117 061d 0D       		.byte	0xd
 1118 061e 41       		.byte	0x41
 1119 061f 5C060000 		.4byte	0x65c
 1120 0623 06       		.uleb128 0x6
 1121 0624 73000000 		.4byte	.LASF88
 1122 0628 0D       		.byte	0xd
 1123 0629 42       		.byte	0x42
 1124 062a 81060000 		.4byte	0x681
 1125 062e 02       		.byte	0x2
ARM GAS  C:\Users\DNIEL~1\AppData\Local\Temp\ccbjUQiQ.s 			page 21


 1126 062f 23       		.byte	0x23
 1127 0630 00       		.uleb128 0
 1128 0631 06       		.uleb128 0x6
 1129 0632 CB030000 		.4byte	.LASF89
 1130 0636 0D       		.byte	0xd
 1131 0637 42       		.byte	0x42
 1132 0638 A1060000 		.4byte	0x6a1
 1133 063c 02       		.byte	0x2
 1134 063d 23       		.byte	0x23
 1135 063e 04       		.uleb128 0x4
 1136 063f 07       		.uleb128 0x7
 1137 0640 70757400 		.ascii	"put\000"
 1138 0644 0D       		.byte	0xd
 1139 0645 42       		.byte	0x42
 1140 0646 BC060000 		.4byte	0x6bc
 1141 064a 02       		.byte	0x2
 1142 064b 23       		.byte	0x23
 1143 064c 08       		.uleb128 0x8
 1144 064d 07       		.uleb128 0x7
 1145 064e 67657400 		.ascii	"get\000"
 1146 0652 0D       		.byte	0xd
 1147 0653 42       		.byte	0x42
 1148 0654 FB050000 		.4byte	0x5fb
 1149 0658 02       		.byte	0x2
 1150 0659 23       		.byte	0x23
 1151 065a 0C       		.uleb128 0xc
 1152 065b 00       		.byte	0
 1153 065c 13       		.uleb128 0x13
 1154 065d 01       		.byte	0x1
 1155 065e 30000000 		.4byte	0x30
 1156 0662 76060000 		.4byte	0x676
 1157 0666 0F       		.uleb128 0xf
 1158 0667 B2020000 		.4byte	0x2b2
 1159 066b 0F       		.uleb128 0xf
 1160 066c 76060000 		.4byte	0x676
 1161 0670 0F       		.uleb128 0xf
 1162 0671 30000000 		.4byte	0x30
 1163 0675 00       		.byte	0
 1164 0676 09       		.uleb128 0x9
 1165 0677 04       		.byte	0x4
 1166 0678 7C060000 		.4byte	0x67c
 1167 067c 12       		.uleb128 0x12
 1168 067d 49000000 		.4byte	0x49
 1169 0681 09       		.uleb128 0x9
 1170 0682 04       		.byte	0x4
 1171 0683 5C060000 		.4byte	0x65c
 1172 0687 13       		.uleb128 0x13
 1173 0688 01       		.byte	0x1
 1174 0689 30000000 		.4byte	0x30
 1175 068d A1060000 		.4byte	0x6a1
 1176 0691 0F       		.uleb128 0xf
 1177 0692 B2020000 		.4byte	0x2b2
 1178 0696 0F       		.uleb128 0xf
 1179 0697 11060000 		.4byte	0x611
 1180 069b 0F       		.uleb128 0xf
 1181 069c 30000000 		.4byte	0x30
 1182 06a0 00       		.byte	0
ARM GAS  C:\Users\DNIEL~1\AppData\Local\Temp\ccbjUQiQ.s 			page 22


 1183 06a1 09       		.uleb128 0x9
 1184 06a2 04       		.byte	0x4
 1185 06a3 87060000 		.4byte	0x687
 1186 06a7 13       		.uleb128 0x13
 1187 06a8 01       		.byte	0x1
 1188 06a9 E8000000 		.4byte	0xe8
 1189 06ad BC060000 		.4byte	0x6bc
 1190 06b1 0F       		.uleb128 0xf
 1191 06b2 B2020000 		.4byte	0x2b2
 1192 06b6 0F       		.uleb128 0xf
 1193 06b7 49000000 		.4byte	0x49
 1194 06bb 00       		.byte	0
 1195 06bc 09       		.uleb128 0x9
 1196 06bd 04       		.byte	0x4
 1197 06be A7060000 		.4byte	0x6a7
 1198 06c2 08       		.uleb128 0x8
 1199 06c3 04       		.byte	0x4
 1200 06c4 0D       		.byte	0xd
 1201 06c5 4A       		.byte	0x4a
 1202 06c6 D9060000 		.4byte	0x6d9
 1203 06ca 07       		.uleb128 0x7
 1204 06cb 766D7400 		.ascii	"vmt\000"
 1205 06cf 0D       		.byte	0xd
 1206 06d0 4C       		.byte	0x4c
 1207 06d1 D9060000 		.4byte	0x6d9
 1208 06d5 02       		.byte	0x2
 1209 06d6 23       		.byte	0x23
 1210 06d7 00       		.uleb128 0
 1211 06d8 00       		.byte	0
 1212 06d9 09       		.uleb128 0x9
 1213 06da 04       		.byte	0x4
 1214 06db DF060000 		.4byte	0x6df
 1215 06df 12       		.uleb128 0x12
 1216 06e0 17060000 		.4byte	0x617
 1217 06e4 03       		.uleb128 0x3
 1218 06e5 79000000 		.4byte	.LASF90
 1219 06e9 0D       		.byte	0xd
 1220 06ea 4E       		.byte	0x4e
 1221 06eb C2060000 		.4byte	0x6c2
 1222 06ef 14       		.uleb128 0x14
 1223 06f0 86000000 		.4byte	0x86
 1224 06f4 FF060000 		.4byte	0x6ff
 1225 06f8 15       		.uleb128 0x15
 1226 06f9 75030000 		.4byte	0x375
 1227 06fd 07       		.byte	0x7
 1228 06fe 00       		.byte	0
 1229 06ff 14       		.uleb128 0x14
 1230 0700 86000000 		.4byte	0x86
 1231 0704 0F070000 		.4byte	0x70f
 1232 0708 15       		.uleb128 0x15
 1233 0709 75030000 		.4byte	0x375
 1234 070d 01       		.byte	0x1
 1235 070e 00       		.byte	0
 1236 070f 14       		.uleb128 0x14
 1237 0710 86000000 		.4byte	0x86
 1238 0714 1F070000 		.4byte	0x71f
 1239 0718 15       		.uleb128 0x15
ARM GAS  C:\Users\DNIEL~1\AppData\Local\Temp\ccbjUQiQ.s 			page 23


 1240 0719 75030000 		.4byte	0x375
 1241 071d 03       		.byte	0x3
 1242 071e 00       		.byte	0
 1243 071f 0D       		.uleb128 0xd
 1244 0720 62000000 		.4byte	0x62
 1245 0724 0D       		.uleb128 0xd
 1246 0725 74000000 		.4byte	0x74
 1247 0729 16       		.uleb128 0x16
 1248 072a 10       		.byte	0x10
 1249 072b 0E       		.byte	0xe
 1250 072c 5101     		.2byte	0x151
 1251 072e 6F070000 		.4byte	0x76f
 1252 0732 0C       		.uleb128 0xc
 1253 0733 54495200 		.ascii	"TIR\000"
 1254 0737 0E       		.byte	0xe
 1255 0738 5301     		.2byte	0x153
 1256 073a 70030000 		.4byte	0x370
 1257 073e 02       		.byte	0x2
 1258 073f 23       		.byte	0x23
 1259 0740 00       		.uleb128 0
 1260 0741 17       		.uleb128 0x17
 1261 0742 C7070000 		.4byte	.LASF91
 1262 0746 0E       		.byte	0xe
 1263 0747 5401     		.2byte	0x154
 1264 0749 70030000 		.4byte	0x370
 1265 074d 02       		.byte	0x2
 1266 074e 23       		.byte	0x23
 1267 074f 04       		.uleb128 0x4
 1268 0750 17       		.uleb128 0x17
 1269 0751 70050000 		.4byte	.LASF92
 1270 0755 0E       		.byte	0xe
 1271 0756 5501     		.2byte	0x155
 1272 0758 70030000 		.4byte	0x370
 1273 075c 02       		.byte	0x2
 1274 075d 23       		.byte	0x23
 1275 075e 08       		.uleb128 0x8
 1276 075f 17       		.uleb128 0x17
 1277 0760 58000000 		.4byte	.LASF93
 1278 0764 0E       		.byte	0xe
 1279 0765 5601     		.2byte	0x156
 1280 0767 70030000 		.4byte	0x370
 1281 076b 02       		.byte	0x2
 1282 076c 23       		.byte	0x23
 1283 076d 0C       		.uleb128 0xc
 1284 076e 00       		.byte	0
 1285 076f 18       		.uleb128 0x18
 1286 0770 09060000 		.4byte	.LASF94
 1287 0774 0E       		.byte	0xe
 1288 0775 5701     		.2byte	0x157
 1289 0777 29070000 		.4byte	0x729
 1290 077b 16       		.uleb128 0x16
 1291 077c 10       		.byte	0x10
 1292 077d 0E       		.byte	0xe
 1293 077e 5D01     		.2byte	0x15d
 1294 0780 C1070000 		.4byte	0x7c1
 1295 0784 0C       		.uleb128 0xc
 1296 0785 52495200 		.ascii	"RIR\000"
ARM GAS  C:\Users\DNIEL~1\AppData\Local\Temp\ccbjUQiQ.s 			page 24


 1297 0789 0E       		.byte	0xe
 1298 078a 5F01     		.2byte	0x15f
 1299 078c 70030000 		.4byte	0x370
 1300 0790 02       		.byte	0x2
 1301 0791 23       		.byte	0x23
 1302 0792 00       		.uleb128 0
 1303 0793 17       		.uleb128 0x17
 1304 0794 B2070000 		.4byte	.LASF95
 1305 0798 0E       		.byte	0xe
 1306 0799 6001     		.2byte	0x160
 1307 079b 70030000 		.4byte	0x370
 1308 079f 02       		.byte	0x2
 1309 07a0 23       		.byte	0x23
 1310 07a1 04       		.uleb128 0x4
 1311 07a2 17       		.uleb128 0x17
 1312 07a3 30050000 		.4byte	.LASF96
 1313 07a7 0E       		.byte	0xe
 1314 07a8 6101     		.2byte	0x161
 1315 07aa 70030000 		.4byte	0x370
 1316 07ae 02       		.byte	0x2
 1317 07af 23       		.byte	0x23
 1318 07b0 08       		.uleb128 0x8
 1319 07b1 17       		.uleb128 0x17
 1320 07b2 01040000 		.4byte	.LASF97
 1321 07b6 0E       		.byte	0xe
 1322 07b7 6201     		.2byte	0x162
 1323 07b9 70030000 		.4byte	0x370
 1324 07bd 02       		.byte	0x2
 1325 07be 23       		.byte	0x23
 1326 07bf 0C       		.uleb128 0xc
 1327 07c0 00       		.byte	0
 1328 07c1 18       		.uleb128 0x18
 1329 07c2 46050000 		.4byte	.LASF98
 1330 07c6 0E       		.byte	0xe
 1331 07c7 6301     		.2byte	0x163
 1332 07c9 7B070000 		.4byte	0x77b
 1333 07cd 16       		.uleb128 0x16
 1334 07ce 08       		.byte	0x8
 1335 07cf 0E       		.byte	0xe
 1336 07d0 6901     		.2byte	0x169
 1337 07d2 F5070000 		.4byte	0x7f5
 1338 07d6 0C       		.uleb128 0xc
 1339 07d7 46523100 		.ascii	"FR1\000"
 1340 07db 0E       		.byte	0xe
 1341 07dc 6B01     		.2byte	0x16b
 1342 07de 70030000 		.4byte	0x370
 1343 07e2 02       		.byte	0x2
 1344 07e3 23       		.byte	0x23
 1345 07e4 00       		.uleb128 0
 1346 07e5 0C       		.uleb128 0xc
 1347 07e6 46523200 		.ascii	"FR2\000"
 1348 07ea 0E       		.byte	0xe
 1349 07eb 6C01     		.2byte	0x16c
 1350 07ed 70030000 		.4byte	0x370
 1351 07f1 02       		.byte	0x2
 1352 07f2 23       		.byte	0x23
 1353 07f3 04       		.uleb128 0x4
ARM GAS  C:\Users\DNIEL~1\AppData\Local\Temp\ccbjUQiQ.s 			page 25


 1354 07f4 00       		.byte	0
 1355 07f5 18       		.uleb128 0x18
 1356 07f6 AE010000 		.4byte	.LASF99
 1357 07fa 0E       		.byte	0xe
 1358 07fb 6D01     		.2byte	0x16d
 1359 07fd CD070000 		.4byte	0x7cd
 1360 0801 19       		.uleb128 0x19
 1361 0802 2003     		.2byte	0x320
 1362 0804 0E       		.byte	0xe
 1363 0805 7301     		.2byte	0x173
 1364 0807 63090000 		.4byte	0x963
 1365 080b 0C       		.uleb128 0xc
 1366 080c 4D435200 		.ascii	"MCR\000"
 1367 0810 0E       		.byte	0xe
 1368 0811 7501     		.2byte	0x175
 1369 0813 70030000 		.4byte	0x370
 1370 0817 02       		.byte	0x2
 1371 0818 23       		.byte	0x23
 1372 0819 00       		.uleb128 0
 1373 081a 0C       		.uleb128 0xc
 1374 081b 4D535200 		.ascii	"MSR\000"
 1375 081f 0E       		.byte	0xe
 1376 0820 7601     		.2byte	0x176
 1377 0822 70030000 		.4byte	0x370
 1378 0826 02       		.byte	0x2
 1379 0827 23       		.byte	0x23
 1380 0828 04       		.uleb128 0x4
 1381 0829 0C       		.uleb128 0xc
 1382 082a 54535200 		.ascii	"TSR\000"
 1383 082e 0E       		.byte	0xe
 1384 082f 7701     		.2byte	0x177
 1385 0831 70030000 		.4byte	0x370
 1386 0835 02       		.byte	0x2
 1387 0836 23       		.byte	0x23
 1388 0837 08       		.uleb128 0x8
 1389 0838 17       		.uleb128 0x17
 1390 0839 7F010000 		.4byte	.LASF100
 1391 083d 0E       		.byte	0xe
 1392 083e 7801     		.2byte	0x178
 1393 0840 70030000 		.4byte	0x370
 1394 0844 02       		.byte	0x2
 1395 0845 23       		.byte	0x23
 1396 0846 0C       		.uleb128 0xc
 1397 0847 17       		.uleb128 0x17
 1398 0848 35020000 		.4byte	.LASF101
 1399 084c 0E       		.byte	0xe
 1400 084d 7901     		.2byte	0x179
 1401 084f 70030000 		.4byte	0x370
 1402 0853 02       		.byte	0x2
 1403 0854 23       		.byte	0x23
 1404 0855 10       		.uleb128 0x10
 1405 0856 0C       		.uleb128 0xc
 1406 0857 49455200 		.ascii	"IER\000"
 1407 085b 0E       		.byte	0xe
 1408 085c 7A01     		.2byte	0x17a
 1409 085e 70030000 		.4byte	0x370
 1410 0862 02       		.byte	0x2
ARM GAS  C:\Users\DNIEL~1\AppData\Local\Temp\ccbjUQiQ.s 			page 26


 1411 0863 23       		.byte	0x23
 1412 0864 14       		.uleb128 0x14
 1413 0865 0C       		.uleb128 0xc
 1414 0866 45535200 		.ascii	"ESR\000"
 1415 086a 0E       		.byte	0xe
 1416 086b 7B01     		.2byte	0x17b
 1417 086d 70030000 		.4byte	0x370
 1418 0871 02       		.byte	0x2
 1419 0872 23       		.byte	0x23
 1420 0873 18       		.uleb128 0x18
 1421 0874 0C       		.uleb128 0xc
 1422 0875 42545200 		.ascii	"BTR\000"
 1423 0879 0E       		.byte	0xe
 1424 087a 7C01     		.2byte	0x17c
 1425 087c 70030000 		.4byte	0x370
 1426 0880 02       		.byte	0x2
 1427 0881 23       		.byte	0x23
 1428 0882 1C       		.uleb128 0x1c
 1429 0883 17       		.uleb128 0x17
 1430 0884 ED010000 		.4byte	.LASF102
 1431 0888 0E       		.byte	0xe
 1432 0889 7D01     		.2byte	0x17d
 1433 088b 63090000 		.4byte	0x963
 1434 088f 02       		.byte	0x2
 1435 0890 23       		.byte	0x23
 1436 0891 20       		.uleb128 0x20
 1437 0892 17       		.uleb128 0x17
 1438 0893 67070000 		.4byte	.LASF103
 1439 0897 0E       		.byte	0xe
 1440 0898 7E01     		.2byte	0x17e
 1441 089a 73090000 		.4byte	0x973
 1442 089e 03       		.byte	0x3
 1443 089f 23       		.byte	0x23
 1444 08a0 8003     		.uleb128 0x180
 1445 08a2 17       		.uleb128 0x17
 1446 08a3 FE060000 		.4byte	.LASF104
 1447 08a7 0E       		.byte	0xe
 1448 08a8 7F01     		.2byte	0x17f
 1449 08aa 83090000 		.4byte	0x983
 1450 08ae 03       		.byte	0x3
 1451 08af 23       		.byte	0x23
 1452 08b0 B003     		.uleb128 0x1b0
 1453 08b2 17       		.uleb128 0x17
 1454 08b3 F7010000 		.4byte	.LASF105
 1455 08b7 0E       		.byte	0xe
 1456 08b8 8001     		.2byte	0x180
 1457 08ba 93090000 		.4byte	0x993
 1458 08be 03       		.byte	0x3
 1459 08bf 23       		.byte	0x23
 1460 08c0 D003     		.uleb128 0x1d0
 1461 08c2 0C       		.uleb128 0xc
 1462 08c3 464D5200 		.ascii	"FMR\000"
 1463 08c7 0E       		.byte	0xe
 1464 08c8 8101     		.2byte	0x181
 1465 08ca 70030000 		.4byte	0x370
 1466 08ce 03       		.byte	0x3
 1467 08cf 23       		.byte	0x23
ARM GAS  C:\Users\DNIEL~1\AppData\Local\Temp\ccbjUQiQ.s 			page 27


 1468 08d0 8004     		.uleb128 0x200
 1469 08d2 17       		.uleb128 0x17
 1470 08d3 FC030000 		.4byte	.LASF106
 1471 08d7 0E       		.byte	0xe
 1472 08d8 8201     		.2byte	0x182
 1473 08da 70030000 		.4byte	0x370
 1474 08de 03       		.byte	0x3
 1475 08df 23       		.byte	0x23
 1476 08e0 8404     		.uleb128 0x204
 1477 08e2 17       		.uleb128 0x17
 1478 08e3 42020000 		.4byte	.LASF107
 1479 08e7 0E       		.byte	0xe
 1480 08e8 8301     		.2byte	0x183
 1481 08ea 86000000 		.4byte	0x86
 1482 08ee 03       		.byte	0x3
 1483 08ef 23       		.byte	0x23
 1484 08f0 8804     		.uleb128 0x208
 1485 08f2 17       		.uleb128 0x17
 1486 08f3 DC050000 		.4byte	.LASF108
 1487 08f7 0E       		.byte	0xe
 1488 08f8 8401     		.2byte	0x184
 1489 08fa 70030000 		.4byte	0x370
 1490 08fe 03       		.byte	0x3
 1491 08ff 23       		.byte	0x23
 1492 0900 8C04     		.uleb128 0x20c
 1493 0902 17       		.uleb128 0x17
 1494 0903 0F020000 		.4byte	.LASF109
 1495 0907 0E       		.byte	0xe
 1496 0908 8501     		.2byte	0x185
 1497 090a 86000000 		.4byte	0x86
 1498 090e 03       		.byte	0x3
 1499 090f 23       		.byte	0x23
 1500 0910 9004     		.uleb128 0x210
 1501 0912 17       		.uleb128 0x17
 1502 0913 8E060000 		.4byte	.LASF110
 1503 0917 0E       		.byte	0xe
 1504 0918 8601     		.2byte	0x186
 1505 091a 70030000 		.4byte	0x370
 1506 091e 03       		.byte	0x3
 1507 091f 23       		.byte	0x23
 1508 0920 9404     		.uleb128 0x214
 1509 0922 17       		.uleb128 0x17
 1510 0923 19020000 		.4byte	.LASF111
 1511 0927 0E       		.byte	0xe
 1512 0928 8701     		.2byte	0x187
 1513 092a 86000000 		.4byte	0x86
 1514 092e 03       		.byte	0x3
 1515 092f 23       		.byte	0x23
 1516 0930 9804     		.uleb128 0x218
 1517 0932 17       		.uleb128 0x17
 1518 0933 51010000 		.4byte	.LASF112
 1519 0937 0E       		.byte	0xe
 1520 0938 8801     		.2byte	0x188
 1521 093a 70030000 		.4byte	0x370
 1522 093e 03       		.byte	0x3
 1523 093f 23       		.byte	0x23
 1524 0940 9C04     		.uleb128 0x21c
ARM GAS  C:\Users\DNIEL~1\AppData\Local\Temp\ccbjUQiQ.s 			page 28


 1525 0942 17       		.uleb128 0x17
 1526 0943 23020000 		.4byte	.LASF113
 1527 0947 0E       		.byte	0xe
 1528 0948 8901     		.2byte	0x189
 1529 094a EF060000 		.4byte	0x6ef
 1530 094e 03       		.byte	0x3
 1531 094f 23       		.byte	0x23
 1532 0950 A004     		.uleb128 0x220
 1533 0952 17       		.uleb128 0x17
 1534 0953 70040000 		.4byte	.LASF114
 1535 0957 0E       		.byte	0xe
 1536 0958 8A01     		.2byte	0x18a
 1537 095a A3090000 		.4byte	0x9a3
 1538 095e 03       		.byte	0x3
 1539 095f 23       		.byte	0x23
 1540 0960 C004     		.uleb128 0x240
 1541 0962 00       		.byte	0
 1542 0963 14       		.uleb128 0x14
 1543 0964 86000000 		.4byte	0x86
 1544 0968 73090000 		.4byte	0x973
 1545 096c 15       		.uleb128 0x15
 1546 096d 75030000 		.4byte	0x375
 1547 0971 57       		.byte	0x57
 1548 0972 00       		.byte	0
 1549 0973 14       		.uleb128 0x14
 1550 0974 6F070000 		.4byte	0x76f
 1551 0978 83090000 		.4byte	0x983
 1552 097c 15       		.uleb128 0x15
 1553 097d 75030000 		.4byte	0x375
 1554 0981 02       		.byte	0x2
 1555 0982 00       		.byte	0
 1556 0983 14       		.uleb128 0x14
 1557 0984 C1070000 		.4byte	0x7c1
 1558 0988 93090000 		.4byte	0x993
 1559 098c 15       		.uleb128 0x15
 1560 098d 75030000 		.4byte	0x375
 1561 0991 01       		.byte	0x1
 1562 0992 00       		.byte	0
 1563 0993 14       		.uleb128 0x14
 1564 0994 86000000 		.4byte	0x86
 1565 0998 A3090000 		.4byte	0x9a3
 1566 099c 15       		.uleb128 0x15
 1567 099d 75030000 		.4byte	0x375
 1568 09a1 0B       		.byte	0xb
 1569 09a2 00       		.byte	0
 1570 09a3 14       		.uleb128 0x14
 1571 09a4 F5070000 		.4byte	0x7f5
 1572 09a8 B3090000 		.4byte	0x9b3
 1573 09ac 15       		.uleb128 0x15
 1574 09ad 75030000 		.4byte	0x375
 1575 09b1 1B       		.byte	0x1b
 1576 09b2 00       		.byte	0
 1577 09b3 18       		.uleb128 0x18
 1578 09b4 5D040000 		.4byte	.LASF115
 1579 09b8 0E       		.byte	0xe
 1580 09b9 8B01     		.2byte	0x18b
 1581 09bb 01080000 		.4byte	0x801
ARM GAS  C:\Users\DNIEL~1\AppData\Local\Temp\ccbjUQiQ.s 			page 29


 1582 09bf 08       		.uleb128 0x8
 1583 09c0 54       		.byte	0x54
 1584 09c1 0F       		.byte	0xf
 1585 09c2 60       		.byte	0x60
 1586 09c3 940B0000 		.4byte	0xb94
 1587 09c7 07       		.uleb128 0x7
 1588 09c8 43523100 		.ascii	"CR1\000"
 1589 09cc 0F       		.byte	0xf
 1590 09cd 61       		.byte	0x61
 1591 09ce 1F070000 		.4byte	0x71f
 1592 09d2 02       		.byte	0x2
 1593 09d3 23       		.byte	0x23
 1594 09d4 00       		.uleb128 0
 1595 09d5 06       		.uleb128 0x6
 1596 09d6 1F060000 		.4byte	.LASF116
 1597 09da 0F       		.byte	0xf
 1598 09db 62       		.byte	0x62
 1599 09dc 62000000 		.4byte	0x62
 1600 09e0 02       		.byte	0x2
 1601 09e1 23       		.byte	0x23
 1602 09e2 02       		.uleb128 0x2
 1603 09e3 07       		.uleb128 0x7
 1604 09e4 43523200 		.ascii	"CR2\000"
 1605 09e8 0F       		.byte	0xf
 1606 09e9 63       		.byte	0x63
 1607 09ea 1F070000 		.4byte	0x71f
 1608 09ee 02       		.byte	0x2
 1609 09ef 23       		.byte	0x23
 1610 09f0 04       		.uleb128 0x4
 1611 09f1 06       		.uleb128 0x6
 1612 09f2 27060000 		.4byte	.LASF117
 1613 09f6 0F       		.byte	0xf
 1614 09f7 64       		.byte	0x64
 1615 09f8 62000000 		.4byte	0x62
 1616 09fc 02       		.byte	0x2
 1617 09fd 23       		.byte	0x23
 1618 09fe 06       		.uleb128 0x6
 1619 09ff 06       		.uleb128 0x6
 1620 0a00 91050000 		.4byte	.LASF118
 1621 0a04 0F       		.byte	0xf
 1622 0a05 65       		.byte	0x65
 1623 0a06 1F070000 		.4byte	0x71f
 1624 0a0a 02       		.byte	0x2
 1625 0a0b 23       		.byte	0x23
 1626 0a0c 08       		.uleb128 0x8
 1627 0a0d 06       		.uleb128 0x6
 1628 0a0e 2F060000 		.4byte	.LASF119
 1629 0a12 0F       		.byte	0xf
 1630 0a13 66       		.byte	0x66
 1631 0a14 62000000 		.4byte	0x62
 1632 0a18 02       		.byte	0x2
 1633 0a19 23       		.byte	0x23
 1634 0a1a 0A       		.uleb128 0xa
 1635 0a1b 06       		.uleb128 0x6
 1636 0a1c 20030000 		.4byte	.LASF120
 1637 0a20 0F       		.byte	0xf
 1638 0a21 67       		.byte	0x67
ARM GAS  C:\Users\DNIEL~1\AppData\Local\Temp\ccbjUQiQ.s 			page 30


 1639 0a22 1F070000 		.4byte	0x71f
 1640 0a26 02       		.byte	0x2
 1641 0a27 23       		.byte	0x23
 1642 0a28 0C       		.uleb128 0xc
 1643 0a29 06       		.uleb128 0x6
 1644 0a2a 37060000 		.4byte	.LASF121
 1645 0a2e 0F       		.byte	0xf
 1646 0a2f 68       		.byte	0x68
 1647 0a30 62000000 		.4byte	0x62
 1648 0a34 02       		.byte	0x2
 1649 0a35 23       		.byte	0x23
 1650 0a36 0E       		.uleb128 0xe
 1651 0a37 07       		.uleb128 0x7
 1652 0a38 535200   		.ascii	"SR\000"
 1653 0a3b 0F       		.byte	0xf
 1654 0a3c 69       		.byte	0x69
 1655 0a3d 1F070000 		.4byte	0x71f
 1656 0a41 02       		.byte	0x2
 1657 0a42 23       		.byte	0x23
 1658 0a43 10       		.uleb128 0x10
 1659 0a44 06       		.uleb128 0x6
 1660 0a45 3F060000 		.4byte	.LASF122
 1661 0a49 0F       		.byte	0xf
 1662 0a4a 6A       		.byte	0x6a
 1663 0a4b 62000000 		.4byte	0x62
 1664 0a4f 02       		.byte	0x2
 1665 0a50 23       		.byte	0x23
 1666 0a51 12       		.uleb128 0x12
 1667 0a52 07       		.uleb128 0x7
 1668 0a53 45475200 		.ascii	"EGR\000"
 1669 0a57 0F       		.byte	0xf
 1670 0a58 6B       		.byte	0x6b
 1671 0a59 1F070000 		.4byte	0x71f
 1672 0a5d 02       		.byte	0x2
 1673 0a5e 23       		.byte	0x23
 1674 0a5f 14       		.uleb128 0x14
 1675 0a60 06       		.uleb128 0x6
 1676 0a61 47060000 		.4byte	.LASF123
 1677 0a65 0F       		.byte	0xf
 1678 0a66 6C       		.byte	0x6c
 1679 0a67 62000000 		.4byte	0x62
 1680 0a6b 02       		.byte	0x2
 1681 0a6c 23       		.byte	0x23
 1682 0a6d 16       		.uleb128 0x16
 1683 0a6e 06       		.uleb128 0x6
 1684 0a6f 4C020000 		.4byte	.LASF124
 1685 0a73 0F       		.byte	0xf
 1686 0a74 6D       		.byte	0x6d
 1687 0a75 1F070000 		.4byte	0x71f
 1688 0a79 02       		.byte	0x2
 1689 0a7a 23       		.byte	0x23
 1690 0a7b 18       		.uleb128 0x18
 1691 0a7c 06       		.uleb128 0x6
 1692 0a7d 5F070000 		.4byte	.LASF125
 1693 0a81 0F       		.byte	0xf
 1694 0a82 6E       		.byte	0x6e
 1695 0a83 62000000 		.4byte	0x62
ARM GAS  C:\Users\DNIEL~1\AppData\Local\Temp\ccbjUQiQ.s 			page 31


 1696 0a87 02       		.byte	0x2
 1697 0a88 23       		.byte	0x23
 1698 0a89 1A       		.uleb128 0x1a
 1699 0a8a 06       		.uleb128 0x6
 1700 0a8b 52020000 		.4byte	.LASF126
 1701 0a8f 0F       		.byte	0xf
 1702 0a90 6F       		.byte	0x6f
 1703 0a91 1F070000 		.4byte	0x71f
 1704 0a95 02       		.byte	0x2
 1705 0a96 23       		.byte	0x23
 1706 0a97 1C       		.uleb128 0x1c
 1707 0a98 06       		.uleb128 0x6
 1708 0a99 59060000 		.4byte	.LASF127
 1709 0a9d 0F       		.byte	0xf
 1710 0a9e 70       		.byte	0x70
 1711 0a9f 62000000 		.4byte	0x62
 1712 0aa3 02       		.byte	0x2
 1713 0aa4 23       		.byte	0x23
 1714 0aa5 1E       		.uleb128 0x1e
 1715 0aa6 06       		.uleb128 0x6
 1716 0aa7 21050000 		.4byte	.LASF128
 1717 0aab 0F       		.byte	0xf
 1718 0aac 71       		.byte	0x71
 1719 0aad 1F070000 		.4byte	0x71f
 1720 0ab1 02       		.byte	0x2
 1721 0ab2 23       		.byte	0x23
 1722 0ab3 20       		.uleb128 0x20
 1723 0ab4 06       		.uleb128 0x6
 1724 0ab5 61060000 		.4byte	.LASF129
 1725 0ab9 0F       		.byte	0xf
 1726 0aba 72       		.byte	0x72
 1727 0abb 62000000 		.4byte	0x62
 1728 0abf 02       		.byte	0x2
 1729 0ac0 23       		.byte	0x23
 1730 0ac1 22       		.uleb128 0x22
 1731 0ac2 07       		.uleb128 0x7
 1732 0ac3 434E5400 		.ascii	"CNT\000"
 1733 0ac7 0F       		.byte	0xf
 1734 0ac8 73       		.byte	0x73
 1735 0ac9 70030000 		.4byte	0x370
 1736 0acd 02       		.byte	0x2
 1737 0ace 23       		.byte	0x23
 1738 0acf 24       		.uleb128 0x24
 1739 0ad0 07       		.uleb128 0x7
 1740 0ad1 50534300 		.ascii	"PSC\000"
 1741 0ad5 0F       		.byte	0xf
 1742 0ad6 74       		.byte	0x74
 1743 0ad7 1F070000 		.4byte	0x71f
 1744 0adb 02       		.byte	0x2
 1745 0adc 23       		.byte	0x23
 1746 0add 28       		.uleb128 0x28
 1747 0ade 06       		.uleb128 0x6
 1748 0adf 69060000 		.4byte	.LASF130
 1749 0ae3 0F       		.byte	0xf
 1750 0ae4 75       		.byte	0x75
 1751 0ae5 62000000 		.4byte	0x62
 1752 0ae9 02       		.byte	0x2
ARM GAS  C:\Users\DNIEL~1\AppData\Local\Temp\ccbjUQiQ.s 			page 32


 1753 0aea 23       		.byte	0x23
 1754 0aeb 2A       		.uleb128 0x2a
 1755 0aec 07       		.uleb128 0x7
 1756 0aed 41525200 		.ascii	"ARR\000"
 1757 0af1 0F       		.byte	0xf
 1758 0af2 76       		.byte	0x76
 1759 0af3 70030000 		.4byte	0x370
 1760 0af7 02       		.byte	0x2
 1761 0af8 23       		.byte	0x23
 1762 0af9 2C       		.uleb128 0x2c
 1763 0afa 07       		.uleb128 0x7
 1764 0afb 52435200 		.ascii	"RCR\000"
 1765 0aff 0F       		.byte	0xf
 1766 0b00 77       		.byte	0x77
 1767 0b01 1F070000 		.4byte	0x71f
 1768 0b05 02       		.byte	0x2
 1769 0b06 23       		.byte	0x23
 1770 0b07 30       		.uleb128 0x30
 1771 0b08 06       		.uleb128 0x6
 1772 0b09 5E050000 		.4byte	.LASF131
 1773 0b0d 0F       		.byte	0xf
 1774 0b0e 78       		.byte	0x78
 1775 0b0f 62000000 		.4byte	0x62
 1776 0b13 02       		.byte	0x2
 1777 0b14 23       		.byte	0x23
 1778 0b15 32       		.uleb128 0x32
 1779 0b16 07       		.uleb128 0x7
 1780 0b17 43435200 		.ascii	"CCR\000"
 1781 0b1b 0F       		.byte	0xf
 1782 0b1c 79       		.byte	0x79
 1783 0b1d 940B0000 		.4byte	0xb94
 1784 0b21 02       		.byte	0x2
 1785 0b22 23       		.byte	0x23
 1786 0b23 34       		.uleb128 0x34
 1787 0b24 06       		.uleb128 0x6
 1788 0b25 16070000 		.4byte	.LASF132
 1789 0b29 0F       		.byte	0xf
 1790 0b2a 7A       		.byte	0x7a
 1791 0b2b 1F070000 		.4byte	0x71f
 1792 0b2f 02       		.byte	0x2
 1793 0b30 23       		.byte	0x23
 1794 0b31 44       		.uleb128 0x44
 1795 0b32 06       		.uleb128 0x6
 1796 0b33 67050000 		.4byte	.LASF133
 1797 0b37 0F       		.byte	0xf
 1798 0b38 7B       		.byte	0x7b
 1799 0b39 62000000 		.4byte	0x62
 1800 0b3d 02       		.byte	0x2
 1801 0b3e 23       		.byte	0x23
 1802 0b3f 46       		.uleb128 0x46
 1803 0b40 07       		.uleb128 0x7
 1804 0b41 44435200 		.ascii	"DCR\000"
 1805 0b45 0F       		.byte	0xf
 1806 0b46 7C       		.byte	0x7c
 1807 0b47 1F070000 		.4byte	0x71f
 1808 0b4b 02       		.byte	0x2
 1809 0b4c 23       		.byte	0x23
ARM GAS  C:\Users\DNIEL~1\AppData\Local\Temp\ccbjUQiQ.s 			page 33


 1810 0b4d 48       		.uleb128 0x48
 1811 0b4e 06       		.uleb128 0x6
 1812 0b4f B2060000 		.4byte	.LASF134
 1813 0b53 0F       		.byte	0xf
 1814 0b54 7D       		.byte	0x7d
 1815 0b55 62000000 		.4byte	0x62
 1816 0b59 02       		.byte	0x2
 1817 0b5a 23       		.byte	0x23
 1818 0b5b 4A       		.uleb128 0x4a
 1819 0b5c 06       		.uleb128 0x6
 1820 0b5d D8000000 		.4byte	.LASF135
 1821 0b61 0F       		.byte	0xf
 1822 0b62 7E       		.byte	0x7e
 1823 0b63 1F070000 		.4byte	0x71f
 1824 0b67 02       		.byte	0x2
 1825 0b68 23       		.byte	0x23
 1826 0b69 4C       		.uleb128 0x4c
 1827 0b6a 06       		.uleb128 0x6
 1828 0b6b 75050000 		.4byte	.LASF136
 1829 0b6f 0F       		.byte	0xf
 1830 0b70 7F       		.byte	0x7f
 1831 0b71 62000000 		.4byte	0x62
 1832 0b75 02       		.byte	0x2
 1833 0b76 23       		.byte	0x23
 1834 0b77 4E       		.uleb128 0x4e
 1835 0b78 07       		.uleb128 0x7
 1836 0b79 4F5200   		.ascii	"OR\000"
 1837 0b7c 0F       		.byte	0xf
 1838 0b7d 80       		.byte	0x80
 1839 0b7e 1F070000 		.4byte	0x71f
 1840 0b82 02       		.byte	0x2
 1841 0b83 23       		.byte	0x23
 1842 0b84 50       		.uleb128 0x50
 1843 0b85 06       		.uleb128 0x6
 1844 0b86 7E050000 		.4byte	.LASF137
 1845 0b8a 0F       		.byte	0xf
 1846 0b8b 81       		.byte	0x81
 1847 0b8c 62000000 		.4byte	0x62
 1848 0b90 02       		.byte	0x2
 1849 0b91 23       		.byte	0x23
 1850 0b92 52       		.uleb128 0x52
 1851 0b93 00       		.byte	0
 1852 0b94 0D       		.uleb128 0xd
 1853 0b95 0F070000 		.4byte	0x70f
 1854 0b99 03       		.uleb128 0x3
 1855 0b9a 34030000 		.4byte	.LASF138
 1856 0b9e 0F       		.byte	0xf
 1857 0b9f 82       		.byte	0x82
 1858 0ba0 BF090000 		.4byte	0x9bf
 1859 0ba4 05       		.uleb128 0x5
 1860 0ba5 72070000 		.4byte	.LASF139
 1861 0ba9 20       		.byte	0x20
 1862 0baa 10       		.byte	0x10
 1863 0bab 46       		.byte	0x46
 1864 0bac 210C0000 		.4byte	0xc21
 1865 0bb0 06       		.uleb128 0x6
 1866 0bb1 73000000 		.4byte	.LASF88
ARM GAS  C:\Users\DNIEL~1\AppData\Local\Temp\ccbjUQiQ.s 			page 34


 1867 0bb5 10       		.byte	0x10
 1868 0bb6 47       		.byte	0x47
 1869 0bb7 81060000 		.4byte	0x681
 1870 0bbb 02       		.byte	0x2
 1871 0bbc 23       		.byte	0x23
 1872 0bbd 00       		.uleb128 0
 1873 0bbe 06       		.uleb128 0x6
 1874 0bbf CB030000 		.4byte	.LASF89
 1875 0bc3 10       		.byte	0x10
 1876 0bc4 47       		.byte	0x47
 1877 0bc5 A1060000 		.4byte	0x6a1
 1878 0bc9 02       		.byte	0x2
 1879 0bca 23       		.byte	0x23
 1880 0bcb 04       		.uleb128 0x4
 1881 0bcc 07       		.uleb128 0x7
 1882 0bcd 70757400 		.ascii	"put\000"
 1883 0bd1 10       		.byte	0x10
 1884 0bd2 47       		.byte	0x47
 1885 0bd3 BC060000 		.4byte	0x6bc
 1886 0bd7 02       		.byte	0x2
 1887 0bd8 23       		.byte	0x23
 1888 0bd9 08       		.uleb128 0x8
 1889 0bda 07       		.uleb128 0x7
 1890 0bdb 67657400 		.ascii	"get\000"
 1891 0bdf 10       		.byte	0x10
 1892 0be0 47       		.byte	0x47
 1893 0be1 FB050000 		.4byte	0x5fb
 1894 0be5 02       		.byte	0x2
 1895 0be6 23       		.byte	0x23
 1896 0be7 0C       		.uleb128 0xc
 1897 0be8 06       		.uleb128 0x6
 1898 0be9 C2000000 		.4byte	.LASF140
 1899 0bed 10       		.byte	0x10
 1900 0bee 47       		.byte	0x47
 1901 0bef 3B0C0000 		.4byte	0xc3b
 1902 0bf3 02       		.byte	0x2
 1903 0bf4 23       		.byte	0x23
 1904 0bf5 10       		.uleb128 0x10
 1905 0bf6 06       		.uleb128 0x6
 1906 0bf7 6B020000 		.4byte	.LASF141
 1907 0bfb 10       		.byte	0x10
 1908 0bfc 47       		.byte	0x47
 1909 0bfd 560C0000 		.4byte	0xc56
 1910 0c01 02       		.byte	0x2
 1911 0c02 23       		.byte	0x23
 1912 0c03 14       		.uleb128 0x14
 1913 0c04 06       		.uleb128 0x6
 1914 0c05 48000000 		.4byte	.LASF142
 1915 0c09 10       		.byte	0x10
 1916 0c0a 47       		.byte	0x47
 1917 0c0b 7B0C0000 		.4byte	0xc7b
 1918 0c0f 02       		.byte	0x2
 1919 0c10 23       		.byte	0x23
 1920 0c11 18       		.uleb128 0x18
 1921 0c12 06       		.uleb128 0x6
 1922 0c13 24010000 		.4byte	.LASF143
 1923 0c17 10       		.byte	0x10
ARM GAS  C:\Users\DNIEL~1\AppData\Local\Temp\ccbjUQiQ.s 			page 35


 1924 0c18 47       		.byte	0x47
 1925 0c19 A00C0000 		.4byte	0xca0
 1926 0c1d 02       		.byte	0x2
 1927 0c1e 23       		.byte	0x23
 1928 0c1f 1C       		.uleb128 0x1c
 1929 0c20 00       		.byte	0
 1930 0c21 13       		.uleb128 0x13
 1931 0c22 01       		.byte	0x1
 1932 0c23 E8000000 		.4byte	0xe8
 1933 0c27 3B0C0000 		.4byte	0xc3b
 1934 0c2b 0F       		.uleb128 0xf
 1935 0c2c B2020000 		.4byte	0x2b2
 1936 0c30 0F       		.uleb128 0xf
 1937 0c31 49000000 		.4byte	0x49
 1938 0c35 0F       		.uleb128 0xf
 1939 0c36 09010000 		.4byte	0x109
 1940 0c3a 00       		.byte	0
 1941 0c3b 09       		.uleb128 0x9
 1942 0c3c 04       		.byte	0x4
 1943 0c3d 210C0000 		.4byte	0xc21
 1944 0c41 13       		.uleb128 0x13
 1945 0c42 01       		.byte	0x1
 1946 0c43 E8000000 		.4byte	0xe8
 1947 0c47 560C0000 		.4byte	0xc56
 1948 0c4b 0F       		.uleb128 0xf
 1949 0c4c B2020000 		.4byte	0x2b2
 1950 0c50 0F       		.uleb128 0xf
 1951 0c51 09010000 		.4byte	0x109
 1952 0c55 00       		.byte	0
 1953 0c56 09       		.uleb128 0x9
 1954 0c57 04       		.byte	0x4
 1955 0c58 410C0000 		.4byte	0xc41
 1956 0c5c 13       		.uleb128 0x13
 1957 0c5d 01       		.byte	0x1
 1958 0c5e 30000000 		.4byte	0x30
 1959 0c62 7B0C0000 		.4byte	0xc7b
 1960 0c66 0F       		.uleb128 0xf
 1961 0c67 B2020000 		.4byte	0x2b2
 1962 0c6b 0F       		.uleb128 0xf
 1963 0c6c 76060000 		.4byte	0x676
 1964 0c70 0F       		.uleb128 0xf
 1965 0c71 30000000 		.4byte	0x30
 1966 0c75 0F       		.uleb128 0xf
 1967 0c76 09010000 		.4byte	0x109
 1968 0c7a 00       		.byte	0
 1969 0c7b 09       		.uleb128 0x9
 1970 0c7c 04       		.byte	0x4
 1971 0c7d 5C0C0000 		.4byte	0xc5c
 1972 0c81 13       		.uleb128 0x13
 1973 0c82 01       		.byte	0x1
 1974 0c83 30000000 		.4byte	0x30
 1975 0c87 A00C0000 		.4byte	0xca0
 1976 0c8b 0F       		.uleb128 0xf
 1977 0c8c B2020000 		.4byte	0x2b2
 1978 0c90 0F       		.uleb128 0xf
 1979 0c91 11060000 		.4byte	0x611
 1980 0c95 0F       		.uleb128 0xf
ARM GAS  C:\Users\DNIEL~1\AppData\Local\Temp\ccbjUQiQ.s 			page 36


 1981 0c96 30000000 		.4byte	0x30
 1982 0c9a 0F       		.uleb128 0xf
 1983 0c9b 09010000 		.4byte	0x109
 1984 0c9f 00       		.byte	0
 1985 0ca0 09       		.uleb128 0x9
 1986 0ca1 04       		.byte	0x4
 1987 0ca2 810C0000 		.4byte	0xc81
 1988 0ca6 08       		.uleb128 0x8
 1989 0ca7 04       		.byte	0x4
 1990 0ca8 10       		.byte	0x10
 1991 0ca9 51       		.byte	0x51
 1992 0caa BD0C0000 		.4byte	0xcbd
 1993 0cae 07       		.uleb128 0x7
 1994 0caf 766D7400 		.ascii	"vmt\000"
 1995 0cb3 10       		.byte	0x10
 1996 0cb4 53       		.byte	0x53
 1997 0cb5 BD0C0000 		.4byte	0xcbd
 1998 0cb9 02       		.byte	0x2
 1999 0cba 23       		.byte	0x23
 2000 0cbb 00       		.uleb128 0
 2001 0cbc 00       		.byte	0
 2002 0cbd 09       		.uleb128 0x9
 2003 0cbe 04       		.byte	0x4
 2004 0cbf C30C0000 		.4byte	0xcc3
 2005 0cc3 12       		.uleb128 0x12
 2006 0cc4 A40B0000 		.4byte	0xba4
 2007 0cc8 03       		.uleb128 0x3
 2008 0cc9 A6060000 		.4byte	.LASF144
 2009 0ccd 10       		.byte	0x10
 2010 0cce 55       		.byte	0x55
 2011 0ccf A60C0000 		.4byte	0xca6
 2012 0cd3 1A       		.uleb128 0x1a
 2013 0cd4 01       		.byte	0x1
 2014 0cd5 11       		.byte	0x11
 2015 0cd6 62       		.byte	0x62
 2016 0cd7 FA0C0000 		.4byte	0xcfa
 2017 0cdb 1B       		.uleb128 0x1b
 2018 0cdc AE030000 		.4byte	.LASF145
 2019 0ce0 00       		.sleb128 0
 2020 0ce1 1B       		.uleb128 0x1b
 2021 0ce2 93070000 		.4byte	.LASF146
 2022 0ce6 01       		.sleb128 1
 2023 0ce7 1B       		.uleb128 0x1b
 2024 0ce8 64030000 		.4byte	.LASF147
 2025 0cec 02       		.sleb128 2
 2026 0ced 1B       		.uleb128 0x1b
 2027 0cee A0020000 		.4byte	.LASF148
 2028 0cf2 03       		.sleb128 3
 2029 0cf3 1B       		.uleb128 0x1b
 2030 0cf4 F1000000 		.4byte	.LASF149
 2031 0cf8 04       		.sleb128 4
 2032 0cf9 00       		.byte	0
 2033 0cfa 03       		.uleb128 0x3
 2034 0cfb 95020000 		.4byte	.LASF150
 2035 0cff 11       		.byte	0x11
 2036 0d00 68       		.byte	0x68
 2037 0d01 D30C0000 		.4byte	0xcd3
ARM GAS  C:\Users\DNIEL~1\AppData\Local\Temp\ccbjUQiQ.s 			page 37


 2038 0d05 08       		.uleb128 0x8
 2039 0d06 01       		.byte	0x1
 2040 0d07 12       		.byte	0x12
 2041 0d08 78       		.byte	0x78
 2042 0d09 410D0000 		.4byte	0xd41
 2043 0d0d 1C       		.uleb128 0x1c
 2044 0d0e 444C4300 		.ascii	"DLC\000"
 2045 0d12 12       		.byte	0x12
 2046 0d13 79       		.byte	0x79
 2047 0d14 49000000 		.4byte	0x49
 2048 0d18 01       		.byte	0x1
 2049 0d19 04       		.byte	0x4
 2050 0d1a 04       		.byte	0x4
 2051 0d1b 02       		.byte	0x2
 2052 0d1c 23       		.byte	0x23
 2053 0d1d 00       		.uleb128 0
 2054 0d1e 1C       		.uleb128 0x1c
 2055 0d1f 52545200 		.ascii	"RTR\000"
 2056 0d23 12       		.byte	0x12
 2057 0d24 7A       		.byte	0x7a
 2058 0d25 49000000 		.4byte	0x49
 2059 0d29 01       		.byte	0x1
 2060 0d2a 01       		.byte	0x1
 2061 0d2b 03       		.byte	0x3
 2062 0d2c 02       		.byte	0x2
 2063 0d2d 23       		.byte	0x23
 2064 0d2e 00       		.uleb128 0
 2065 0d2f 1C       		.uleb128 0x1c
 2066 0d30 49444500 		.ascii	"IDE\000"
 2067 0d34 12       		.byte	0x12
 2068 0d35 7B       		.byte	0x7b
 2069 0d36 49000000 		.4byte	0x49
 2070 0d3a 01       		.byte	0x1
 2071 0d3b 01       		.byte	0x1
 2072 0d3c 02       		.byte	0x2
 2073 0d3d 02       		.byte	0x2
 2074 0d3e 23       		.byte	0x23
 2075 0d3f 00       		.uleb128 0
 2076 0d40 00       		.byte	0
 2077 0d41 08       		.uleb128 0x8
 2078 0d42 04       		.byte	0x4
 2079 0d43 12       		.byte	0x12
 2080 0d44 7E       		.byte	0x7e
 2081 0d45 5B0D0000 		.4byte	0xd5b
 2082 0d49 1C       		.uleb128 0x1c
 2083 0d4a 53494400 		.ascii	"SID\000"
 2084 0d4e 12       		.byte	0x12
 2085 0d4f 7F       		.byte	0x7f
 2086 0d50 86000000 		.4byte	0x86
 2087 0d54 04       		.byte	0x4
 2088 0d55 0B       		.byte	0xb
 2089 0d56 15       		.byte	0x15
 2090 0d57 02       		.byte	0x2
 2091 0d58 23       		.byte	0x23
 2092 0d59 00       		.uleb128 0
 2093 0d5a 00       		.byte	0
 2094 0d5b 08       		.uleb128 0x8
ARM GAS  C:\Users\DNIEL~1\AppData\Local\Temp\ccbjUQiQ.s 			page 38


 2095 0d5c 04       		.byte	0x4
 2096 0d5d 12       		.byte	0x12
 2097 0d5e 81       		.byte	0x81
 2098 0d5f 750D0000 		.4byte	0xd75
 2099 0d63 1C       		.uleb128 0x1c
 2100 0d64 45494400 		.ascii	"EID\000"
 2101 0d68 12       		.byte	0x12
 2102 0d69 82       		.byte	0x82
 2103 0d6a 86000000 		.4byte	0x86
 2104 0d6e 04       		.byte	0x4
 2105 0d6f 1D       		.byte	0x1d
 2106 0d70 03       		.byte	0x3
 2107 0d71 02       		.byte	0x2
 2108 0d72 23       		.byte	0x23
 2109 0d73 00       		.uleb128 0
 2110 0d74 00       		.byte	0
 2111 0d75 10       		.uleb128 0x10
 2112 0d76 04       		.byte	0x4
 2113 0d77 12       		.byte	0x12
 2114 0d78 7D       		.byte	0x7d
 2115 0d79 880D0000 		.4byte	0xd88
 2116 0d7d 1D       		.uleb128 0x1d
 2117 0d7e 410D0000 		.4byte	0xd41
 2118 0d82 1D       		.uleb128 0x1d
 2119 0d83 5B0D0000 		.4byte	0xd5b
 2120 0d87 00       		.byte	0
 2121 0d88 10       		.uleb128 0x10
 2122 0d89 08       		.byte	0x8
 2123 0d8a 12       		.byte	0x12
 2124 0d8b 85       		.byte	0x85
 2125 0d8c B20D0000 		.4byte	0xdb2
 2126 0d90 11       		.uleb128 0x11
 2127 0d91 DE040000 		.4byte	.LASF151
 2128 0d95 12       		.byte	0x12
 2129 0d96 86       		.byte	0x86
 2130 0d97 B20D0000 		.4byte	0xdb2
 2131 0d9b 11       		.uleb128 0x11
 2132 0d9c 1A000000 		.4byte	.LASF152
 2133 0da0 12       		.byte	0x12
 2134 0da1 87       		.byte	0x87
 2135 0da2 C20D0000 		.4byte	0xdc2
 2136 0da6 11       		.uleb128 0x11
 2137 0da7 2D030000 		.4byte	.LASF153
 2138 0dab 12       		.byte	0x12
 2139 0dac 88       		.byte	0x88
 2140 0dad FF060000 		.4byte	0x6ff
 2141 0db1 00       		.byte	0
 2142 0db2 14       		.uleb128 0x14
 2143 0db3 49000000 		.4byte	0x49
 2144 0db7 C20D0000 		.4byte	0xdc2
 2145 0dbb 15       		.uleb128 0x15
 2146 0dbc 75030000 		.4byte	0x375
 2147 0dc0 07       		.byte	0x7
 2148 0dc1 00       		.byte	0
 2149 0dc2 14       		.uleb128 0x14
 2150 0dc3 62000000 		.4byte	0x62
 2151 0dc7 D20D0000 		.4byte	0xdd2
ARM GAS  C:\Users\DNIEL~1\AppData\Local\Temp\ccbjUQiQ.s 			page 39


 2152 0dcb 15       		.uleb128 0x15
 2153 0dcc 75030000 		.4byte	0x375
 2154 0dd0 03       		.byte	0x3
 2155 0dd1 00       		.byte	0
 2156 0dd2 08       		.uleb128 0x8
 2157 0dd3 10       		.byte	0x10
 2158 0dd4 12       		.byte	0x12
 2159 0dd5 77       		.byte	0x77
 2160 0dd6 F30D0000 		.4byte	0xdf3
 2161 0dda 1E       		.uleb128 0x1e
 2162 0ddb 050D0000 		.4byte	0xd05
 2163 0ddf 02       		.byte	0x2
 2164 0de0 23       		.byte	0x23
 2165 0de1 00       		.uleb128 0
 2166 0de2 1E       		.uleb128 0x1e
 2167 0de3 750D0000 		.4byte	0xd75
 2168 0de7 02       		.byte	0x2
 2169 0de8 23       		.byte	0x23
 2170 0de9 04       		.uleb128 0x4
 2171 0dea 1E       		.uleb128 0x1e
 2172 0deb 880D0000 		.4byte	0xd88
 2173 0def 02       		.byte	0x2
 2174 0df0 23       		.byte	0x23
 2175 0df1 08       		.uleb128 0x8
 2176 0df2 00       		.byte	0
 2177 0df3 03       		.uleb128 0x3
 2178 0df4 B1000000 		.4byte	.LASF154
 2179 0df8 12       		.byte	0x12
 2180 0df9 8A       		.byte	0x8a
 2181 0dfa D20D0000 		.4byte	0xdd2
 2182 0dfe 08       		.uleb128 0x8
 2183 0dff 0C       		.byte	0xc
 2184 0e00 12       		.byte	0x12
 2185 0e01 AE       		.byte	0xae
 2186 0e02 560E0000 		.4byte	0xe56
 2187 0e06 1F       		.uleb128 0x1f
 2188 0e07 7A060000 		.4byte	.LASF155
 2189 0e0b 12       		.byte	0x12
 2190 0e0c B4       		.byte	0xb4
 2191 0e0d 86000000 		.4byte	0x86
 2192 0e11 04       		.byte	0x4
 2193 0e12 01       		.byte	0x1
 2194 0e13 1F       		.byte	0x1f
 2195 0e14 02       		.byte	0x2
 2196 0e15 23       		.byte	0x23
 2197 0e16 00       		.uleb128 0
 2198 0e17 1F       		.uleb128 0x1f
 2199 0e18 DE010000 		.4byte	.LASF156
 2200 0e1c 12       		.byte	0x12
 2201 0e1d BA       		.byte	0xba
 2202 0e1e 86000000 		.4byte	0x86
 2203 0e22 04       		.byte	0x4
 2204 0e23 01       		.byte	0x1
 2205 0e24 1E       		.byte	0x1e
 2206 0e25 02       		.byte	0x2
 2207 0e26 23       		.byte	0x23
 2208 0e27 00       		.uleb128 0
ARM GAS  C:\Users\DNIEL~1\AppData\Local\Temp\ccbjUQiQ.s 			page 40


 2209 0e28 1F       		.uleb128 0x1f
 2210 0e29 94060000 		.4byte	.LASF157
 2211 0e2d 12       		.byte	0x12
 2212 0e2e C0       		.byte	0xc0
 2213 0e2f 86000000 		.4byte	0x86
 2214 0e33 04       		.byte	0x4
 2215 0e34 01       		.byte	0x1
 2216 0e35 1D       		.byte	0x1d
 2217 0e36 02       		.byte	0x2
 2218 0e37 23       		.byte	0x23
 2219 0e38 00       		.uleb128 0
 2220 0e39 06       		.uleb128 0x6
 2221 0e3a 81020000 		.4byte	.LASF158
 2222 0e3e 12       		.byte	0x12
 2223 0e3f C4       		.byte	0xc4
 2224 0e40 86000000 		.4byte	0x86
 2225 0e44 02       		.byte	0x2
 2226 0e45 23       		.byte	0x23
 2227 0e46 04       		.uleb128 0x4
 2228 0e47 06       		.uleb128 0x6
 2229 0e48 8B020000 		.4byte	.LASF159
 2230 0e4c 12       		.byte	0x12
 2231 0e4d C8       		.byte	0xc8
 2232 0e4e 86000000 		.4byte	0x86
 2233 0e52 02       		.byte	0x2
 2234 0e53 23       		.byte	0x23
 2235 0e54 08       		.uleb128 0x8
 2236 0e55 00       		.byte	0
 2237 0e56 03       		.uleb128 0x3
 2238 0e57 C2060000 		.4byte	.LASF160
 2239 0e5b 12       		.byte	0x12
 2240 0e5c C9       		.byte	0xc9
 2241 0e5d FE0D0000 		.4byte	0xdfe
 2242 0e61 08       		.uleb128 0x8
 2243 0e62 10       		.byte	0x10
 2244 0e63 12       		.byte	0x12
 2245 0e64 CE       		.byte	0xce
 2246 0e65 A20E0000 		.4byte	0xea2
 2247 0e69 07       		.uleb128 0x7
 2248 0e6a 6D637200 		.ascii	"mcr\000"
 2249 0e6e 12       		.byte	0x12
 2250 0e6f D4       		.byte	0xd4
 2251 0e70 86000000 		.4byte	0x86
 2252 0e74 02       		.byte	0x2
 2253 0e75 23       		.byte	0x23
 2254 0e76 00       		.uleb128 0
 2255 0e77 07       		.uleb128 0x7
 2256 0e78 62747200 		.ascii	"btr\000"
 2257 0e7c 12       		.byte	0x12
 2258 0e7d DA       		.byte	0xda
 2259 0e7e 86000000 		.4byte	0x86
 2260 0e82 02       		.byte	0x2
 2261 0e83 23       		.byte	0x23
 2262 0e84 04       		.uleb128 0x4
 2263 0e85 07       		.uleb128 0x7
 2264 0e86 6E756D00 		.ascii	"num\000"
 2265 0e8a 12       		.byte	0x12
ARM GAS  C:\Users\DNIEL~1\AppData\Local\Temp\ccbjUQiQ.s 			page 41


 2266 0e8b E0       		.byte	0xe0
 2267 0e8c 86000000 		.4byte	0x86
 2268 0e90 02       		.byte	0x2
 2269 0e91 23       		.byte	0x23
 2270 0e92 08       		.uleb128 0x8
 2271 0e93 06       		.uleb128 0x6
 2272 0e94 2A010000 		.4byte	.LASF161
 2273 0e98 12       		.byte	0x12
 2274 0e99 E6       		.byte	0xe6
 2275 0e9a A20E0000 		.4byte	0xea2
 2276 0e9e 02       		.byte	0x2
 2277 0e9f 23       		.byte	0x23
 2278 0ea0 0C       		.uleb128 0xc
 2279 0ea1 00       		.byte	0
 2280 0ea2 09       		.uleb128 0x9
 2281 0ea3 04       		.byte	0x4
 2282 0ea4 A80E0000 		.4byte	0xea8
 2283 0ea8 12       		.uleb128 0x12
 2284 0ea9 560E0000 		.4byte	0xe56
 2285 0ead 03       		.uleb128 0x3
 2286 0eae 87050000 		.4byte	.LASF162
 2287 0eb2 12       		.byte	0x12
 2288 0eb3 E7       		.byte	0xe7
 2289 0eb4 610E0000 		.4byte	0xe61
 2290 0eb8 08       		.uleb128 0x8
 2291 0eb9 38       		.byte	0x38
 2292 0eba 12       		.byte	0x12
 2293 0ebb EC       		.byte	0xec
 2294 0ebc 530F0000 		.4byte	0xf53
 2295 0ec0 06       		.uleb128 0x6
 2296 0ec1 AB000000 		.4byte	.LASF163
 2297 0ec5 12       		.byte	0x12
 2298 0ec6 F0       		.byte	0xf0
 2299 0ec7 FA0C0000 		.4byte	0xcfa
 2300 0ecb 02       		.byte	0x2
 2301 0ecc 23       		.byte	0x23
 2302 0ecd 00       		.uleb128 0
 2303 0ece 06       		.uleb128 0x6
 2304 0ecf A4000000 		.4byte	.LASF164
 2305 0ed3 12       		.byte	0x12
 2306 0ed4 F4       		.byte	0xf4
 2307 0ed5 530F0000 		.4byte	0xf53
 2308 0ed9 02       		.byte	0x2
 2309 0eda 23       		.byte	0x23
 2310 0edb 04       		.uleb128 0x4
 2311 0edc 06       		.uleb128 0x6
 2312 0edd BC000000 		.4byte	.LASF165
 2313 0ee1 12       		.byte	0x12
 2314 0ee2 F8       		.byte	0xf8
 2315 0ee3 DF040000 		.4byte	0x4df
 2316 0ee7 02       		.byte	0x2
 2317 0ee8 23       		.byte	0x23
 2318 0ee9 08       		.uleb128 0x8
 2319 0eea 06       		.uleb128 0x6
 2320 0eeb F4020000 		.4byte	.LASF166
 2321 0eef 12       		.byte	0x12
 2322 0ef0 FC       		.byte	0xfc
ARM GAS  C:\Users\DNIEL~1\AppData\Local\Temp\ccbjUQiQ.s 			page 42


 2323 0ef1 DF040000 		.4byte	0x4df
 2324 0ef5 02       		.byte	0x2
 2325 0ef6 23       		.byte	0x23
 2326 0ef7 14       		.uleb128 0x14
 2327 0ef8 17       		.uleb128 0x17
 2328 0ef9 D1010000 		.4byte	.LASF167
 2329 0efd 12       		.byte	0x12
 2330 0efe 0601     		.2byte	0x106
 2331 0f00 A3050000 		.4byte	0x5a3
 2332 0f04 02       		.byte	0x2
 2333 0f05 23       		.byte	0x23
 2334 0f06 20       		.uleb128 0x20
 2335 0f07 17       		.uleb128 0x17
 2336 0f08 E1050000 		.4byte	.LASF168
 2337 0f0c 12       		.byte	0x12
 2338 0f0d 0A01     		.2byte	0x10a
 2339 0f0f A3050000 		.4byte	0x5a3
 2340 0f13 02       		.byte	0x2
 2341 0f14 23       		.byte	0x23
 2342 0f15 24       		.uleb128 0x24
 2343 0f16 17       		.uleb128 0x17
 2344 0f17 51040000 		.4byte	.LASF169
 2345 0f1b 12       		.byte	0x12
 2346 0f1c 0E01     		.2byte	0x10e
 2347 0f1e A3050000 		.4byte	0x5a3
 2348 0f22 02       		.byte	0x2
 2349 0f23 23       		.byte	0x23
 2350 0f24 28       		.uleb128 0x28
 2351 0f25 17       		.uleb128 0x17
 2352 0f26 5D000000 		.4byte	.LASF170
 2353 0f2a 12       		.byte	0x12
 2354 0f2b 1301     		.2byte	0x113
 2355 0f2d A3050000 		.4byte	0x5a3
 2356 0f31 02       		.byte	0x2
 2357 0f32 23       		.byte	0x23
 2358 0f33 2C       		.uleb128 0x2c
 2359 0f34 17       		.uleb128 0x17
 2360 0f35 8E000000 		.4byte	.LASF171
 2361 0f39 12       		.byte	0x12
 2362 0f3a 1701     		.2byte	0x117
 2363 0f3c A3050000 		.4byte	0x5a3
 2364 0f40 02       		.byte	0x2
 2365 0f41 23       		.byte	0x23
 2366 0f42 30       		.uleb128 0x30
 2367 0f43 0C       		.uleb128 0xc
 2368 0f44 63616E00 		.ascii	"can\000"
 2369 0f48 12       		.byte	0x12
 2370 0f49 1D01     		.2byte	0x11d
 2371 0f4b 5E0F0000 		.4byte	0xf5e
 2372 0f4f 02       		.byte	0x2
 2373 0f50 23       		.byte	0x23
 2374 0f51 34       		.uleb128 0x34
 2375 0f52 00       		.byte	0
 2376 0f53 09       		.uleb128 0x9
 2377 0f54 04       		.byte	0x4
 2378 0f55 590F0000 		.4byte	0xf59
 2379 0f59 12       		.uleb128 0x12
ARM GAS  C:\Users\DNIEL~1\AppData\Local\Temp\ccbjUQiQ.s 			page 43


 2380 0f5a AD0E0000 		.4byte	0xead
 2381 0f5e 09       		.uleb128 0x9
 2382 0f5f 04       		.byte	0x4
 2383 0f60 B3090000 		.4byte	0x9b3
 2384 0f64 18       		.uleb128 0x18
 2385 0f65 1A010000 		.4byte	.LASF172
 2386 0f69 12       		.byte	0x12
 2387 0f6a 1E01     		.2byte	0x11e
 2388 0f6c B80E0000 		.4byte	0xeb8
 2389 0f70 09       		.uleb128 0x9
 2390 0f71 04       		.byte	0x4
 2391 0f72 990B0000 		.4byte	0xb99
 2392 0f76 1A       		.uleb128 0x1a
 2393 0f77 01       		.byte	0x1
 2394 0f78 13       		.byte	0x13
 2395 0f79 4E       		.byte	0x4e
 2396 0f7a 910F0000 		.4byte	0xf91
 2397 0f7e 1B       		.uleb128 0x1b
 2398 0f7f DD000000 		.4byte	.LASF173
 2399 0f83 00       		.sleb128 0
 2400 0f84 1B       		.uleb128 0x1b
 2401 0f85 01050000 		.4byte	.LASF174
 2402 0f89 01       		.sleb128 1
 2403 0f8a 1B       		.uleb128 0x1b
 2404 0f8b FF050000 		.4byte	.LASF175
 2405 0f8f 02       		.sleb128 2
 2406 0f90 00       		.byte	0
 2407 0f91 03       		.uleb128 0x3
 2408 0f92 0B070000 		.4byte	.LASF176
 2409 0f96 13       		.byte	0x13
 2410 0f97 52       		.byte	0x52
 2411 0f98 760F0000 		.4byte	0xf76
 2412 0f9c 03       		.uleb128 0x3
 2413 0f9d 31040000 		.4byte	.LASF177
 2414 0fa1 13       		.byte	0x13
 2415 0fa2 57       		.byte	0x57
 2416 0fa3 A70F0000 		.4byte	0xfa7
 2417 0fa7 0B       		.uleb128 0xb
 2418 0fa8 31040000 		.4byte	.LASF177
 2419 0fac 14       		.byte	0x14
 2420 0fad 14       		.byte	0x14
 2421 0fae 5001     		.2byte	0x150
 2422 0fb0 00100000 		.4byte	0x1000
 2423 0fb4 17       		.uleb128 0x17
 2424 0fb5 AB000000 		.4byte	.LASF163
 2425 0fb9 14       		.byte	0x14
 2426 0fba 5401     		.2byte	0x154
 2427 0fbc 910F0000 		.4byte	0xf91
 2428 0fc0 02       		.byte	0x2
 2429 0fc1 23       		.byte	0x23
 2430 0fc2 00       		.uleb128 0
 2431 0fc3 17       		.uleb128 0x17
 2432 0fc4 A4000000 		.4byte	.LASF164
 2433 0fc8 14       		.byte	0x14
 2434 0fc9 5801     		.2byte	0x158
 2435 0fcb EC100000 		.4byte	0x10ec
 2436 0fcf 02       		.byte	0x2
ARM GAS  C:\Users\DNIEL~1\AppData\Local\Temp\ccbjUQiQ.s 			page 44


 2437 0fd0 23       		.byte	0x23
 2438 0fd1 04       		.uleb128 0x4
 2439 0fd2 17       		.uleb128 0x17
 2440 0fd3 96050000 		.4byte	.LASF178
 2441 0fd7 14       		.byte	0x14
 2442 0fd8 5C01     		.2byte	0x15c
 2443 0fda 3B100000 		.4byte	0x103b
 2444 0fde 02       		.byte	0x2
 2445 0fdf 23       		.byte	0x23
 2446 0fe0 08       		.uleb128 0x8
 2447 0fe1 17       		.uleb128 0x17
 2448 0fe2 40030000 		.4byte	.LASF179
 2449 0fe6 14       		.byte	0x14
 2450 0fe7 6401     		.2byte	0x164
 2451 0fe9 86000000 		.4byte	0x86
 2452 0fed 02       		.byte	0x2
 2453 0fee 23       		.byte	0x23
 2454 0fef 0C       		.uleb128 0xc
 2455 0ff0 0C       		.uleb128 0xc
 2456 0ff1 74696D00 		.ascii	"tim\000"
 2457 0ff5 14       		.byte	0x14
 2458 0ff6 6801     		.2byte	0x168
 2459 0ff8 700F0000 		.4byte	0xf70
 2460 0ffc 02       		.byte	0x2
 2461 0ffd 23       		.byte	0x23
 2462 0ffe 10       		.uleb128 0x10
 2463 0fff 00       		.byte	0
 2464 1000 03       		.uleb128 0x3
 2465 1001 17040000 		.4byte	.LASF180
 2466 1005 13       		.byte	0x13
 2467 1006 5E       		.byte	0x5e
 2468 1007 0B100000 		.4byte	0x100b
 2469 100b 09       		.uleb128 0x9
 2470 100c 04       		.byte	0x4
 2471 100d 11100000 		.4byte	0x1011
 2472 1011 0E       		.uleb128 0xe
 2473 1012 01       		.byte	0x1
 2474 1013 1D100000 		.4byte	0x101d
 2475 1017 0F       		.uleb128 0xf
 2476 1018 1D100000 		.4byte	0x101d
 2477 101c 00       		.byte	0
 2478 101d 09       		.uleb128 0x9
 2479 101e 04       		.byte	0x4
 2480 101f 9C0F0000 		.4byte	0xf9c
 2481 1023 18       		.uleb128 0x18
 2482 1024 AA020000 		.4byte	.LASF181
 2483 1028 14       		.byte	0x14
 2484 1029 0701     		.2byte	0x107
 2485 102b 86000000 		.4byte	0x86
 2486 102f 18       		.uleb128 0x18
 2487 1030 72010000 		.4byte	.LASF182
 2488 1034 14       		.byte	0x14
 2489 1035 0C01     		.2byte	0x10c
 2490 1037 49000000 		.4byte	0x49
 2491 103b 18       		.uleb128 0x18
 2492 103c E4010000 		.4byte	.LASF183
 2493 1040 14       		.byte	0x14
ARM GAS  C:\Users\DNIEL~1\AppData\Local\Temp\ccbjUQiQ.s 			page 45


 2494 1041 1101     		.2byte	0x111
 2495 1043 62000000 		.4byte	0x62
 2496 1047 16       		.uleb128 0x16
 2497 1048 08       		.byte	0x8
 2498 1049 14       		.byte	0x14
 2499 104a 1601     		.2byte	0x116
 2500 104c 6F100000 		.4byte	0x106f
 2501 1050 17       		.uleb128 0x17
 2502 1051 7A060000 		.4byte	.LASF155
 2503 1055 14       		.byte	0x14
 2504 1056 1A01     		.2byte	0x11a
 2505 1058 23100000 		.4byte	0x1023
 2506 105c 02       		.byte	0x2
 2507 105d 23       		.byte	0x23
 2508 105e 00       		.uleb128 0
 2509 105f 17       		.uleb128 0x17
 2510 1060 E8000000 		.4byte	.LASF184
 2511 1064 14       		.byte	0x14
 2512 1065 2001     		.2byte	0x120
 2513 1067 00100000 		.4byte	0x1000
 2514 106b 02       		.byte	0x2
 2515 106c 23       		.byte	0x23
 2516 106d 04       		.uleb128 0x4
 2517 106e 00       		.byte	0
 2518 106f 18       		.uleb128 0x18
 2519 1070 C7000000 		.4byte	.LASF185
 2520 1074 14       		.byte	0x14
 2521 1075 2201     		.2byte	0x122
 2522 1077 47100000 		.4byte	0x1047
 2523 107b 16       		.uleb128 0x16
 2524 107c 30       		.byte	0x30
 2525 107d 14       		.byte	0x14
 2526 107e 2701     		.2byte	0x127
 2527 1080 D0100000 		.4byte	0x10d0
 2528 1084 17       		.uleb128 0x17
 2529 1085 9E030000 		.4byte	.LASF186
 2530 1089 14       		.byte	0x14
 2531 108a 2D01     		.2byte	0x12d
 2532 108c 86000000 		.4byte	0x86
 2533 1090 02       		.byte	0x2
 2534 1091 23       		.byte	0x23
 2535 1092 00       		.uleb128 0
 2536 1093 17       		.uleb128 0x17
 2537 1094 96050000 		.4byte	.LASF178
 2538 1098 14       		.byte	0x14
 2539 1099 3301     		.2byte	0x133
 2540 109b 3B100000 		.4byte	0x103b
 2541 109f 02       		.byte	0x2
 2542 10a0 23       		.byte	0x23
 2543 10a1 04       		.uleb128 0x4
 2544 10a2 17       		.uleb128 0x17
 2545 10a3 E8000000 		.4byte	.LASF184
 2546 10a7 14       		.byte	0x14
 2547 10a8 3901     		.2byte	0x139
 2548 10aa 00100000 		.4byte	0x1000
 2549 10ae 02       		.byte	0x2
 2550 10af 23       		.byte	0x23
ARM GAS  C:\Users\DNIEL~1\AppData\Local\Temp\ccbjUQiQ.s 			page 46


 2551 10b0 08       		.uleb128 0x8
 2552 10b1 17       		.uleb128 0x17
 2553 10b2 E5030000 		.4byte	.LASF187
 2554 10b6 14       		.byte	0x14
 2555 10b7 3D01     		.2byte	0x13d
 2556 10b9 D0100000 		.4byte	0x10d0
 2557 10bd 02       		.byte	0x2
 2558 10be 23       		.byte	0x23
 2559 10bf 0C       		.uleb128 0xc
 2560 10c0 0C       		.uleb128 0xc
 2561 10c1 63723200 		.ascii	"cr2\000"
 2562 10c5 14       		.byte	0x14
 2563 10c6 4301     		.2byte	0x143
 2564 10c8 62000000 		.4byte	0x62
 2565 10cc 02       		.byte	0x2
 2566 10cd 23       		.byte	0x23
 2567 10ce 2C       		.uleb128 0x2c
 2568 10cf 00       		.byte	0
 2569 10d0 14       		.uleb128 0x14
 2570 10d1 6F100000 		.4byte	0x106f
 2571 10d5 E0100000 		.4byte	0x10e0
 2572 10d9 15       		.uleb128 0x15
 2573 10da 75030000 		.4byte	0x375
 2574 10de 03       		.byte	0x3
 2575 10df 00       		.byte	0
 2576 10e0 18       		.uleb128 0x18
 2577 10e1 CC060000 		.4byte	.LASF188
 2578 10e5 14       		.byte	0x14
 2579 10e6 4B01     		.2byte	0x14b
 2580 10e8 7B100000 		.4byte	0x107b
 2581 10ec 09       		.uleb128 0x9
 2582 10ed 04       		.byte	0x4
 2583 10ee F2100000 		.4byte	0x10f2
 2584 10f2 12       		.uleb128 0x12
 2585 10f3 E0100000 		.4byte	0x10e0
 2586 10f7 09       		.uleb128 0x9
 2587 10f8 04       		.byte	0x4
 2588 10f9 EE050000 		.4byte	0x5ee
 2589 10fd 04       		.uleb128 0x4
 2590 10fe 08       		.byte	0x8
 2591 10ff 04       		.byte	0x4
 2592 1100 81030000 		.4byte	.LASF189
 2593 1104 04       		.uleb128 0x4
 2594 1105 04       		.byte	0x4
 2595 1106 04       		.byte	0x4
 2596 1107 A8030000 		.4byte	.LASF190
 2597 110b 04       		.uleb128 0x4
 2598 110c 08       		.byte	0x8
 2599 110d 04       		.byte	0x4
 2600 110e F2060000 		.4byte	.LASF191
 2601 1112 20       		.uleb128 0x20
 2602 1113 01       		.byte	0x1
 2603 1114 3B040000 		.4byte	.LASF192
 2604 1118 01       		.byte	0x1
 2605 1119 39       		.byte	0x39
 2606 111a 01       		.byte	0x1
 2607 111b 00000000 		.4byte	.LFB119
ARM GAS  C:\Users\DNIEL~1\AppData\Local\Temp\ccbjUQiQ.s 			page 47


 2608 111f 14000000 		.4byte	.LFE119
 2609 1123 02       		.byte	0x2
 2610 1124 7D       		.byte	0x7d
 2611 1125 00       		.sleb128 0
 2612 1126 01       		.byte	0x1
 2613 1127 40110000 		.4byte	0x1140
 2614 112b 21       		.uleb128 0x21
 2615 112c 14000000 		.4byte	.LVL0
 2616 1130 01       		.byte	0x1
 2617 1131 26130000 		.4byte	0x1326
 2618 1135 22       		.uleb128 0x22
 2619 1136 01       		.byte	0x1
 2620 1137 51       		.byte	0x51
 2621 1138 05       		.byte	0x5
 2622 1139 03       		.byte	0x3
 2623 113a 00000000 		.4byte	.LANCHOR0
 2624 113e 00       		.byte	0
 2625 113f 00       		.byte	0
 2626 1140 23       		.uleb128 0x23
 2627 1141 01       		.byte	0x1
 2628 1142 69000000 		.4byte	.LASF193
 2629 1146 01       		.byte	0x1
 2630 1147 42       		.byte	0x42
 2631 1148 01       		.byte	0x1
 2632 1149 00000000 		.4byte	.LFB120
 2633 114d 84000000 		.4byte	.LFE120
 2634 1151 00000000 		.4byte	.LLST0
 2635 1155 01       		.byte	0x1
 2636 1156 A3110000 		.4byte	0x11a3
 2637 115a 24       		.uleb128 0x24
 2638 115b 50000000 		.4byte	.LVL1
 2639 115f 3F130000 		.4byte	0x133f
 2640 1163 73110000 		.4byte	0x1173
 2641 1167 22       		.uleb128 0x22
 2642 1168 01       		.byte	0x1
 2643 1169 51       		.byte	0x51
 2644 116a 01       		.byte	0x1
 2645 116b 30       		.byte	0x30
 2646 116c 22       		.uleb128 0x22
 2647 116d 01       		.byte	0x1
 2648 116e 50       		.byte	0x50
 2649 116f 02       		.byte	0x2
 2650 1170 74       		.byte	0x74
 2651 1171 00       		.sleb128 0
 2652 1172 00       		.byte	0
 2653 1173 24       		.uleb128 0x24
 2654 1174 68000000 		.4byte	.LVL2
 2655 1178 3F130000 		.4byte	0x133f
 2656 117c 8C110000 		.4byte	0x118c
 2657 1180 22       		.uleb128 0x22
 2658 1181 01       		.byte	0x1
 2659 1182 51       		.byte	0x51
 2660 1183 01       		.byte	0x1
 2661 1184 32       		.byte	0x32
 2662 1185 22       		.uleb128 0x22
 2663 1186 01       		.byte	0x1
 2664 1187 50       		.byte	0x50
ARM GAS  C:\Users\DNIEL~1\AppData\Local\Temp\ccbjUQiQ.s 			page 48


 2665 1188 02       		.byte	0x2
 2666 1189 74       		.byte	0x74
 2667 118a 00       		.sleb128 0
 2668 118b 00       		.byte	0
 2669 118c 21       		.uleb128 0x21
 2670 118d 84000000 		.4byte	.LVL3
 2671 1191 01       		.byte	0x1
 2672 1192 3F130000 		.4byte	0x133f
 2673 1196 22       		.uleb128 0x22
 2674 1197 01       		.byte	0x1
 2675 1198 51       		.byte	0x51
 2676 1199 01       		.byte	0x1
 2677 119a 33       		.byte	0x33
 2678 119b 22       		.uleb128 0x22
 2679 119c 01       		.byte	0x1
 2680 119d 50       		.byte	0x50
 2681 119e 02       		.byte	0x2
 2682 119f 74       		.byte	0x74
 2683 11a0 00       		.sleb128 0
 2684 11a1 00       		.byte	0
 2685 11a2 00       		.byte	0
 2686 11a3 23       		.uleb128 0x23
 2687 11a4 01       		.byte	0x1
 2688 11a5 B7070000 		.4byte	.LASF194
 2689 11a9 01       		.byte	0x1
 2690 11aa 53       		.byte	0x53
 2691 11ab 01       		.byte	0x1
 2692 11ac 00000000 		.4byte	.LFB121
 2693 11b0 64000000 		.4byte	.LFE121
 2694 11b4 20000000 		.4byte	.LLST1
 2695 11b8 01       		.byte	0x1
 2696 11b9 8E120000 		.4byte	0x128e
 2697 11bd 25       		.uleb128 0x25
 2698 11be 63687000 		.ascii	"chp\000"
 2699 11c2 01       		.byte	0x1
 2700 11c3 53       		.byte	0x53
 2701 11c4 8E120000 		.4byte	0x128e
 2702 11c8 40000000 		.4byte	.LLST2
 2703 11cc 26       		.uleb128 0x26
 2704 11cd 46030000 		.4byte	.LASF195
 2705 11d1 01       		.byte	0x1
 2706 11d2 53       		.byte	0x53
 2707 11d3 29000000 		.4byte	0x29
 2708 11d7 7F000000 		.4byte	.LLST3
 2709 11db 26       		.uleb128 0x26
 2710 11dc 4B030000 		.4byte	.LASF196
 2711 11e0 01       		.byte	0x1
 2712 11e1 53       		.byte	0x53
 2713 11e2 94120000 		.4byte	0x1294
 2714 11e6 A0000000 		.4byte	.LLST4
 2715 11ea 24       		.uleb128 0x24
 2716 11eb 0C000000 		.4byte	.LVL6
 2717 11ef 5D130000 		.4byte	0x135d
 2718 11f3 07120000 		.4byte	0x1207
 2719 11f7 22       		.uleb128 0x22
 2720 11f8 01       		.byte	0x1
 2721 11f9 51       		.byte	0x51
ARM GAS  C:\Users\DNIEL~1\AppData\Local\Temp\ccbjUQiQ.s 			page 49


 2722 11fa 05       		.byte	0x5
 2723 11fb 03       		.byte	0x3
 2724 11fc 00000000 		.4byte	.LC0
 2725 1200 22       		.uleb128 0x22
 2726 1201 01       		.byte	0x1
 2727 1202 50       		.byte	0x50
 2728 1203 02       		.byte	0x2
 2729 1204 74       		.byte	0x74
 2730 1205 00       		.sleb128 0
 2731 1206 00       		.byte	0
 2732 1207 24       		.uleb128 0x24
 2733 1208 14000000 		.4byte	.LVL7
 2734 120c 5D130000 		.4byte	0x135d
 2735 1210 24120000 		.4byte	0x1224
 2736 1214 22       		.uleb128 0x22
 2737 1215 01       		.byte	0x1
 2738 1216 51       		.byte	0x51
 2739 1217 05       		.byte	0x5
 2740 1218 03       		.byte	0x3
 2741 1219 04000000 		.4byte	.LC1
 2742 121d 22       		.uleb128 0x22
 2743 121e 01       		.byte	0x1
 2744 121f 50       		.byte	0x50
 2745 1220 02       		.byte	0x2
 2746 1221 74       		.byte	0x74
 2747 1222 00       		.sleb128 0
 2748 1223 00       		.byte	0
 2749 1224 27       		.uleb128 0x27
 2750 1225 1A000000 		.4byte	.LVL9
 2751 1229 5D130000 		.4byte	0x135d
 2752 122d 24       		.uleb128 0x24
 2753 122e 22000000 		.4byte	.LVL10
 2754 1232 5D130000 		.4byte	0x135d
 2755 1236 4A120000 		.4byte	0x124a
 2756 123a 22       		.uleb128 0x22
 2757 123b 01       		.byte	0x1
 2758 123c 51       		.byte	0x51
 2759 123d 05       		.byte	0x5
 2760 123e 03       		.byte	0x3
 2761 123f 18000000 		.4byte	.LC3
 2762 1243 22       		.uleb128 0x22
 2763 1244 01       		.byte	0x1
 2764 1245 50       		.byte	0x50
 2765 1246 02       		.byte	0x2
 2766 1247 74       		.byte	0x74
 2767 1248 00       		.sleb128 0
 2768 1249 00       		.byte	0
 2769 124a 24       		.uleb128 0x24
 2770 124b 2C000000 		.4byte	.LVL11
 2771 124f 5D130000 		.4byte	0x135d
 2772 1253 67120000 		.4byte	0x1267
 2773 1257 22       		.uleb128 0x22
 2774 1258 01       		.byte	0x1
 2775 1259 51       		.byte	0x51
 2776 125a 05       		.byte	0x5
 2777 125b 03       		.byte	0x3
 2778 125c 2C000000 		.4byte	.LC4
ARM GAS  C:\Users\DNIEL~1\AppData\Local\Temp\ccbjUQiQ.s 			page 50


 2779 1260 22       		.uleb128 0x22
 2780 1261 01       		.byte	0x1
 2781 1262 50       		.byte	0x50
 2782 1263 02       		.byte	0x2
 2783 1264 74       		.byte	0x74
 2784 1265 00       		.sleb128 0
 2785 1266 00       		.byte	0
 2786 1267 24       		.uleb128 0x24
 2787 1268 34000000 		.4byte	.LVL12
 2788 126c 77130000 		.4byte	0x1377
 2789 1270 7C120000 		.4byte	0x127c
 2790 1274 22       		.uleb128 0x22
 2791 1275 01       		.byte	0x1
 2792 1276 50       		.byte	0x50
 2793 1277 03       		.byte	0x3
 2794 1278 0A       		.byte	0xa
 2795 1279 E803     		.2byte	0x3e8
 2796 127b 00       		.byte	0
 2797 127c 28       		.uleb128 0x28
 2798 127d 3E000000 		.4byte	.LVL13
 2799 1281 22       		.uleb128 0x22
 2800 1282 01       		.byte	0x1
 2801 1283 51       		.byte	0x51
 2802 1284 01       		.byte	0x1
 2803 1285 30       		.byte	0x30
 2804 1286 22       		.uleb128 0x22
 2805 1287 01       		.byte	0x1
 2806 1288 50       		.byte	0x50
 2807 1289 02       		.byte	0x2
 2808 128a 74       		.byte	0x74
 2809 128b 00       		.sleb128 0
 2810 128c 00       		.byte	0
 2811 128d 00       		.byte	0
 2812 128e 09       		.uleb128 0x9
 2813 128f 04       		.byte	0x4
 2814 1290 E4060000 		.4byte	0x6e4
 2815 1294 09       		.uleb128 0x9
 2816 1295 04       		.byte	0x4
 2817 1296 F7100000 		.4byte	0x10f7
 2818 129a 29       		.uleb128 0x29
 2819 129b 7B020000 		.4byte	.LASF197
 2820 129f 01       		.byte	0x1
 2821 12a0 0D       		.byte	0xd
 2822 12a1 F30D0000 		.4byte	0xdf3
 2823 12a5 2A       		.uleb128 0x2a
 2824 12a6 3E070000 		.4byte	.LASF199
 2825 12aa 01       		.byte	0x1
 2826 12ab 0F       		.byte	0xf
 2827 12ac E0100000 		.4byte	0x10e0
 2828 12b0 05       		.byte	0x5
 2829 12b1 03       		.byte	0x3
 2830 12b2 00000000 		.4byte	pwmcfg
 2831 12b6 14       		.uleb128 0x14
 2832 12b7 B4020000 		.4byte	0x2b4
 2833 12bb C6120000 		.4byte	0x12c6
 2834 12bf 15       		.uleb128 0x15
 2835 12c0 75030000 		.4byte	0x375
ARM GAS  C:\Users\DNIEL~1\AppData\Local\Temp\ccbjUQiQ.s 			page 51


 2836 12c4 35       		.byte	0x35
 2837 12c5 00       		.byte	0
 2838 12c6 29       		.uleb128 0x29
 2839 12c7 7F060000 		.4byte	.LASF198
 2840 12cb 01       		.byte	0x1
 2841 12cc 1F       		.byte	0x1f
 2842 12cd B6120000 		.4byte	0x12b6
 2843 12d1 2B       		.uleb128 0x2b
 2844 12d2 69646F00 		.ascii	"ido\000"
 2845 12d6 01       		.byte	0x1
 2846 12d7 37       		.byte	0x37
 2847 12d8 86000000 		.4byte	0x86
 2848 12dc 05       		.byte	0x5
 2849 12dd 03       		.byte	0x3
 2850 12de 00000000 		.4byte	ido
 2851 12e2 2C       		.uleb128 0x2c
 2852 12e3 EE030000 		.4byte	.LASF200
 2853 12e7 08       		.byte	0x8
 2854 12e8 D1       		.byte	0xd1
 2855 12e9 43040000 		.4byte	0x443
 2856 12ed 01       		.byte	0x1
 2857 12ee 01       		.byte	0x1
 2858 12ef 2C       		.uleb128 0x2c
 2859 12f0 C3050000 		.4byte	.LASF201
 2860 12f4 09       		.byte	0x9
 2861 12f5 68       		.byte	0x68
 2862 12f6 AB040000 		.4byte	0x4ab
 2863 12fa 01       		.byte	0x1
 2864 12fb 01       		.byte	0x1
 2865 12fc 2D       		.uleb128 0x2d
 2866 12fd 91030000 		.4byte	.LASF202
 2867 1301 15       		.byte	0x15
 2868 1302 9806     		.2byte	0x698
 2869 1304 24070000 		.4byte	0x724
 2870 1308 01       		.byte	0x1
 2871 1309 01       		.byte	0x1
 2872 130a 2D       		.uleb128 0x2d
 2873 130b A5050000 		.4byte	.LASF203
 2874 130f 12       		.byte	0x12
 2875 1310 2901     		.2byte	0x129
 2876 1312 640F0000 		.4byte	0xf64
 2877 1316 01       		.byte	0x1
 2878 1317 01       		.byte	0x1
 2879 1318 2D       		.uleb128 0x2d
 2880 1319 EC060000 		.4byte	.LASF204
 2881 131d 14       		.byte	0x14
 2882 131e 9301     		.2byte	0x193
 2883 1320 9C0F0000 		.4byte	0xf9c
 2884 1324 01       		.byte	0x1
 2885 1325 01       		.byte	0x1
 2886 1326 2E       		.uleb128 0x2e
 2887 1327 01       		.byte	0x1
 2888 1328 88030000 		.4byte	.LASF205
 2889 132c 13       		.byte	0x13
 2890 132d E1       		.byte	0xe1
 2891 132e 01       		.byte	0x1
 2892 132f 01       		.byte	0x1
ARM GAS  C:\Users\DNIEL~1\AppData\Local\Temp\ccbjUQiQ.s 			page 52


 2893 1330 3F130000 		.4byte	0x133f
 2894 1334 0F       		.uleb128 0xf
 2895 1335 1D100000 		.4byte	0x101d
 2896 1339 0F       		.uleb128 0xf
 2897 133a EC100000 		.4byte	0x10ec
 2898 133e 00       		.byte	0
 2899 133f 2E       		.uleb128 0x2e
 2900 1340 01       		.byte	0x1
 2901 1341 06040000 		.4byte	.LASF206
 2902 1345 13       		.byte	0x13
 2903 1346 E4       		.byte	0xe4
 2904 1347 01       		.byte	0x1
 2905 1348 01       		.byte	0x1
 2906 1349 5D130000 		.4byte	0x135d
 2907 134d 0F       		.uleb128 0xf
 2908 134e 1D100000 		.4byte	0x101d
 2909 1352 0F       		.uleb128 0xf
 2910 1353 2F100000 		.4byte	0x102f
 2911 1357 0F       		.uleb128 0xf
 2912 1358 3B100000 		.4byte	0x103b
 2913 135c 00       		.byte	0
 2914 135d 2E       		.uleb128 0x2e
 2915 135e 01       		.byte	0x1
 2916 135f BA020000 		.4byte	.LASF207
 2917 1363 16       		.byte	0x16
 2918 1364 2A       		.byte	0x2a
 2919 1365 01       		.byte	0x1
 2920 1366 01       		.byte	0x1
 2921 1367 77130000 		.4byte	0x1377
 2922 136b 0F       		.uleb128 0xf
 2923 136c 8E120000 		.4byte	0x128e
 2924 1370 0F       		.uleb128 0xf
 2925 1371 E3050000 		.4byte	0x5e3
 2926 1375 2F       		.uleb128 0x2f
 2927 1376 00       		.byte	0
 2928 1377 30       		.uleb128 0x30
 2929 1378 01       		.byte	0x1
 2930 1379 C3020000 		.4byte	.LASF211
 2931 137d 06       		.byte	0x6
 2932 137e 6901     		.2byte	0x169
 2933 1380 01       		.byte	0x1
 2934 1381 01       		.byte	0x1
 2935 1382 0F       		.uleb128 0xf
 2936 1383 09010000 		.4byte	0x109
 2937 1387 00       		.byte	0
 2938 1388 00       		.byte	0
 2939              		.section	.debug_abbrev,"",%progbits
 2940              	.Ldebug_abbrev0:
 2941 0000 01       		.uleb128 0x1
 2942 0001 11       		.uleb128 0x11
 2943 0002 01       		.byte	0x1
 2944 0003 25       		.uleb128 0x25
 2945 0004 0E       		.uleb128 0xe
 2946 0005 13       		.uleb128 0x13
 2947 0006 0B       		.uleb128 0xb
 2948 0007 03       		.uleb128 0x3
 2949 0008 0E       		.uleb128 0xe
ARM GAS  C:\Users\DNIEL~1\AppData\Local\Temp\ccbjUQiQ.s 			page 53


 2950 0009 1B       		.uleb128 0x1b
 2951 000a 0E       		.uleb128 0xe
 2952 000b 55       		.uleb128 0x55
 2953 000c 06       		.uleb128 0x6
 2954 000d 11       		.uleb128 0x11
 2955 000e 01       		.uleb128 0x1
 2956 000f 52       		.uleb128 0x52
 2957 0010 01       		.uleb128 0x1
 2958 0011 10       		.uleb128 0x10
 2959 0012 06       		.uleb128 0x6
 2960 0013 00       		.byte	0
 2961 0014 00       		.byte	0
 2962 0015 02       		.uleb128 0x2
 2963 0016 24       		.uleb128 0x24
 2964 0017 00       		.byte	0
 2965 0018 0B       		.uleb128 0xb
 2966 0019 0B       		.uleb128 0xb
 2967 001a 3E       		.uleb128 0x3e
 2968 001b 0B       		.uleb128 0xb
 2969 001c 03       		.uleb128 0x3
 2970 001d 08       		.uleb128 0x8
 2971 001e 00       		.byte	0
 2972 001f 00       		.byte	0
 2973 0020 03       		.uleb128 0x3
 2974 0021 16       		.uleb128 0x16
 2975 0022 00       		.byte	0
 2976 0023 03       		.uleb128 0x3
 2977 0024 0E       		.uleb128 0xe
 2978 0025 3A       		.uleb128 0x3a
 2979 0026 0B       		.uleb128 0xb
 2980 0027 3B       		.uleb128 0x3b
 2981 0028 0B       		.uleb128 0xb
 2982 0029 49       		.uleb128 0x49
 2983 002a 13       		.uleb128 0x13
 2984 002b 00       		.byte	0
 2985 002c 00       		.byte	0
 2986 002d 04       		.uleb128 0x4
 2987 002e 24       		.uleb128 0x24
 2988 002f 00       		.byte	0
 2989 0030 0B       		.uleb128 0xb
 2990 0031 0B       		.uleb128 0xb
 2991 0032 3E       		.uleb128 0x3e
 2992 0033 0B       		.uleb128 0xb
 2993 0034 03       		.uleb128 0x3
 2994 0035 0E       		.uleb128 0xe
 2995 0036 00       		.byte	0
 2996 0037 00       		.byte	0
 2997 0038 05       		.uleb128 0x5
 2998 0039 13       		.uleb128 0x13
 2999 003a 01       		.byte	0x1
 3000 003b 03       		.uleb128 0x3
 3001 003c 0E       		.uleb128 0xe
 3002 003d 0B       		.uleb128 0xb
 3003 003e 0B       		.uleb128 0xb
 3004 003f 3A       		.uleb128 0x3a
 3005 0040 0B       		.uleb128 0xb
 3006 0041 3B       		.uleb128 0x3b
ARM GAS  C:\Users\DNIEL~1\AppData\Local\Temp\ccbjUQiQ.s 			page 54


 3007 0042 0B       		.uleb128 0xb
 3008 0043 01       		.uleb128 0x1
 3009 0044 13       		.uleb128 0x13
 3010 0045 00       		.byte	0
 3011 0046 00       		.byte	0
 3012 0047 06       		.uleb128 0x6
 3013 0048 0D       		.uleb128 0xd
 3014 0049 00       		.byte	0
 3015 004a 03       		.uleb128 0x3
 3016 004b 0E       		.uleb128 0xe
 3017 004c 3A       		.uleb128 0x3a
 3018 004d 0B       		.uleb128 0xb
 3019 004e 3B       		.uleb128 0x3b
 3020 004f 0B       		.uleb128 0xb
 3021 0050 49       		.uleb128 0x49
 3022 0051 13       		.uleb128 0x13
 3023 0052 38       		.uleb128 0x38
 3024 0053 0A       		.uleb128 0xa
 3025 0054 00       		.byte	0
 3026 0055 00       		.byte	0
 3027 0056 07       		.uleb128 0x7
 3028 0057 0D       		.uleb128 0xd
 3029 0058 00       		.byte	0
 3030 0059 03       		.uleb128 0x3
 3031 005a 08       		.uleb128 0x8
 3032 005b 3A       		.uleb128 0x3a
 3033 005c 0B       		.uleb128 0xb
 3034 005d 3B       		.uleb128 0x3b
 3035 005e 0B       		.uleb128 0xb
 3036 005f 49       		.uleb128 0x49
 3037 0060 13       		.uleb128 0x13
 3038 0061 38       		.uleb128 0x38
 3039 0062 0A       		.uleb128 0xa
 3040 0063 00       		.byte	0
 3041 0064 00       		.byte	0
 3042 0065 08       		.uleb128 0x8
 3043 0066 13       		.uleb128 0x13
 3044 0067 01       		.byte	0x1
 3045 0068 0B       		.uleb128 0xb
 3046 0069 0B       		.uleb128 0xb
 3047 006a 3A       		.uleb128 0x3a
 3048 006b 0B       		.uleb128 0xb
 3049 006c 3B       		.uleb128 0x3b
 3050 006d 0B       		.uleb128 0xb
 3051 006e 01       		.uleb128 0x1
 3052 006f 13       		.uleb128 0x13
 3053 0070 00       		.byte	0
 3054 0071 00       		.byte	0
 3055 0072 09       		.uleb128 0x9
 3056 0073 0F       		.uleb128 0xf
 3057 0074 00       		.byte	0
 3058 0075 0B       		.uleb128 0xb
 3059 0076 0B       		.uleb128 0xb
 3060 0077 49       		.uleb128 0x49
 3061 0078 13       		.uleb128 0x13
 3062 0079 00       		.byte	0
 3063 007a 00       		.byte	0
ARM GAS  C:\Users\DNIEL~1\AppData\Local\Temp\ccbjUQiQ.s 			page 55


 3064 007b 0A       		.uleb128 0xa
 3065 007c 0F       		.uleb128 0xf
 3066 007d 00       		.byte	0
 3067 007e 0B       		.uleb128 0xb
 3068 007f 0B       		.uleb128 0xb
 3069 0080 00       		.byte	0
 3070 0081 00       		.byte	0
 3071 0082 0B       		.uleb128 0xb
 3072 0083 13       		.uleb128 0x13
 3073 0084 01       		.byte	0x1
 3074 0085 03       		.uleb128 0x3
 3075 0086 0E       		.uleb128 0xe
 3076 0087 0B       		.uleb128 0xb
 3077 0088 0B       		.uleb128 0xb
 3078 0089 3A       		.uleb128 0x3a
 3079 008a 0B       		.uleb128 0xb
 3080 008b 3B       		.uleb128 0x3b
 3081 008c 05       		.uleb128 0x5
 3082 008d 01       		.uleb128 0x1
 3083 008e 13       		.uleb128 0x13
 3084 008f 00       		.byte	0
 3085 0090 00       		.byte	0
 3086 0091 0C       		.uleb128 0xc
 3087 0092 0D       		.uleb128 0xd
 3088 0093 00       		.byte	0
 3089 0094 03       		.uleb128 0x3
 3090 0095 08       		.uleb128 0x8
 3091 0096 3A       		.uleb128 0x3a
 3092 0097 0B       		.uleb128 0xb
 3093 0098 3B       		.uleb128 0x3b
 3094 0099 05       		.uleb128 0x5
 3095 009a 49       		.uleb128 0x49
 3096 009b 13       		.uleb128 0x13
 3097 009c 38       		.uleb128 0x38
 3098 009d 0A       		.uleb128 0xa
 3099 009e 00       		.byte	0
 3100 009f 00       		.byte	0
 3101 00a0 0D       		.uleb128 0xd
 3102 00a1 35       		.uleb128 0x35
 3103 00a2 00       		.byte	0
 3104 00a3 49       		.uleb128 0x49
 3105 00a4 13       		.uleb128 0x13
 3106 00a5 00       		.byte	0
 3107 00a6 00       		.byte	0
 3108 00a7 0E       		.uleb128 0xe
 3109 00a8 15       		.uleb128 0x15
 3110 00a9 01       		.byte	0x1
 3111 00aa 27       		.uleb128 0x27
 3112 00ab 0C       		.uleb128 0xc
 3113 00ac 01       		.uleb128 0x1
 3114 00ad 13       		.uleb128 0x13
 3115 00ae 00       		.byte	0
 3116 00af 00       		.byte	0
 3117 00b0 0F       		.uleb128 0xf
 3118 00b1 05       		.uleb128 0x5
 3119 00b2 00       		.byte	0
 3120 00b3 49       		.uleb128 0x49
ARM GAS  C:\Users\DNIEL~1\AppData\Local\Temp\ccbjUQiQ.s 			page 56


 3121 00b4 13       		.uleb128 0x13
 3122 00b5 00       		.byte	0
 3123 00b6 00       		.byte	0
 3124 00b7 10       		.uleb128 0x10
 3125 00b8 17       		.uleb128 0x17
 3126 00b9 01       		.byte	0x1
 3127 00ba 0B       		.uleb128 0xb
 3128 00bb 0B       		.uleb128 0xb
 3129 00bc 3A       		.uleb128 0x3a
 3130 00bd 0B       		.uleb128 0xb
 3131 00be 3B       		.uleb128 0x3b
 3132 00bf 0B       		.uleb128 0xb
 3133 00c0 01       		.uleb128 0x1
 3134 00c1 13       		.uleb128 0x13
 3135 00c2 00       		.byte	0
 3136 00c3 00       		.byte	0
 3137 00c4 11       		.uleb128 0x11
 3138 00c5 0D       		.uleb128 0xd
 3139 00c6 00       		.byte	0
 3140 00c7 03       		.uleb128 0x3
 3141 00c8 0E       		.uleb128 0xe
 3142 00c9 3A       		.uleb128 0x3a
 3143 00ca 0B       		.uleb128 0xb
 3144 00cb 3B       		.uleb128 0x3b
 3145 00cc 0B       		.uleb128 0xb
 3146 00cd 49       		.uleb128 0x49
 3147 00ce 13       		.uleb128 0x13
 3148 00cf 00       		.byte	0
 3149 00d0 00       		.byte	0
 3150 00d1 12       		.uleb128 0x12
 3151 00d2 26       		.uleb128 0x26
 3152 00d3 00       		.byte	0
 3153 00d4 49       		.uleb128 0x49
 3154 00d5 13       		.uleb128 0x13
 3155 00d6 00       		.byte	0
 3156 00d7 00       		.byte	0
 3157 00d8 13       		.uleb128 0x13
 3158 00d9 15       		.uleb128 0x15
 3159 00da 01       		.byte	0x1
 3160 00db 27       		.uleb128 0x27
 3161 00dc 0C       		.uleb128 0xc
 3162 00dd 49       		.uleb128 0x49
 3163 00de 13       		.uleb128 0x13
 3164 00df 01       		.uleb128 0x1
 3165 00e0 13       		.uleb128 0x13
 3166 00e1 00       		.byte	0
 3167 00e2 00       		.byte	0
 3168 00e3 14       		.uleb128 0x14
 3169 00e4 01       		.uleb128 0x1
 3170 00e5 01       		.byte	0x1
 3171 00e6 49       		.uleb128 0x49
 3172 00e7 13       		.uleb128 0x13
 3173 00e8 01       		.uleb128 0x1
 3174 00e9 13       		.uleb128 0x13
 3175 00ea 00       		.byte	0
 3176 00eb 00       		.byte	0
 3177 00ec 15       		.uleb128 0x15
ARM GAS  C:\Users\DNIEL~1\AppData\Local\Temp\ccbjUQiQ.s 			page 57


 3178 00ed 21       		.uleb128 0x21
 3179 00ee 00       		.byte	0
 3180 00ef 49       		.uleb128 0x49
 3181 00f0 13       		.uleb128 0x13
 3182 00f1 2F       		.uleb128 0x2f
 3183 00f2 0B       		.uleb128 0xb
 3184 00f3 00       		.byte	0
 3185 00f4 00       		.byte	0
 3186 00f5 16       		.uleb128 0x16
 3187 00f6 13       		.uleb128 0x13
 3188 00f7 01       		.byte	0x1
 3189 00f8 0B       		.uleb128 0xb
 3190 00f9 0B       		.uleb128 0xb
 3191 00fa 3A       		.uleb128 0x3a
 3192 00fb 0B       		.uleb128 0xb
 3193 00fc 3B       		.uleb128 0x3b
 3194 00fd 05       		.uleb128 0x5
 3195 00fe 01       		.uleb128 0x1
 3196 00ff 13       		.uleb128 0x13
 3197 0100 00       		.byte	0
 3198 0101 00       		.byte	0
 3199 0102 17       		.uleb128 0x17
 3200 0103 0D       		.uleb128 0xd
 3201 0104 00       		.byte	0
 3202 0105 03       		.uleb128 0x3
 3203 0106 0E       		.uleb128 0xe
 3204 0107 3A       		.uleb128 0x3a
 3205 0108 0B       		.uleb128 0xb
 3206 0109 3B       		.uleb128 0x3b
 3207 010a 05       		.uleb128 0x5
 3208 010b 49       		.uleb128 0x49
 3209 010c 13       		.uleb128 0x13
 3210 010d 38       		.uleb128 0x38
 3211 010e 0A       		.uleb128 0xa
 3212 010f 00       		.byte	0
 3213 0110 00       		.byte	0
 3214 0111 18       		.uleb128 0x18
 3215 0112 16       		.uleb128 0x16
 3216 0113 00       		.byte	0
 3217 0114 03       		.uleb128 0x3
 3218 0115 0E       		.uleb128 0xe
 3219 0116 3A       		.uleb128 0x3a
 3220 0117 0B       		.uleb128 0xb
 3221 0118 3B       		.uleb128 0x3b
 3222 0119 05       		.uleb128 0x5
 3223 011a 49       		.uleb128 0x49
 3224 011b 13       		.uleb128 0x13
 3225 011c 00       		.byte	0
 3226 011d 00       		.byte	0
 3227 011e 19       		.uleb128 0x19
 3228 011f 13       		.uleb128 0x13
 3229 0120 01       		.byte	0x1
 3230 0121 0B       		.uleb128 0xb
 3231 0122 05       		.uleb128 0x5
 3232 0123 3A       		.uleb128 0x3a
 3233 0124 0B       		.uleb128 0xb
 3234 0125 3B       		.uleb128 0x3b
ARM GAS  C:\Users\DNIEL~1\AppData\Local\Temp\ccbjUQiQ.s 			page 58


 3235 0126 05       		.uleb128 0x5
 3236 0127 01       		.uleb128 0x1
 3237 0128 13       		.uleb128 0x13
 3238 0129 00       		.byte	0
 3239 012a 00       		.byte	0
 3240 012b 1A       		.uleb128 0x1a
 3241 012c 04       		.uleb128 0x4
 3242 012d 01       		.byte	0x1
 3243 012e 0B       		.uleb128 0xb
 3244 012f 0B       		.uleb128 0xb
 3245 0130 3A       		.uleb128 0x3a
 3246 0131 0B       		.uleb128 0xb
 3247 0132 3B       		.uleb128 0x3b
 3248 0133 0B       		.uleb128 0xb
 3249 0134 01       		.uleb128 0x1
 3250 0135 13       		.uleb128 0x13
 3251 0136 00       		.byte	0
 3252 0137 00       		.byte	0
 3253 0138 1B       		.uleb128 0x1b
 3254 0139 28       		.uleb128 0x28
 3255 013a 00       		.byte	0
 3256 013b 03       		.uleb128 0x3
 3257 013c 0E       		.uleb128 0xe
 3258 013d 1C       		.uleb128 0x1c
 3259 013e 0D       		.uleb128 0xd
 3260 013f 00       		.byte	0
 3261 0140 00       		.byte	0
 3262 0141 1C       		.uleb128 0x1c
 3263 0142 0D       		.uleb128 0xd
 3264 0143 00       		.byte	0
 3265 0144 03       		.uleb128 0x3
 3266 0145 08       		.uleb128 0x8
 3267 0146 3A       		.uleb128 0x3a
 3268 0147 0B       		.uleb128 0xb
 3269 0148 3B       		.uleb128 0x3b
 3270 0149 0B       		.uleb128 0xb
 3271 014a 49       		.uleb128 0x49
 3272 014b 13       		.uleb128 0x13
 3273 014c 0B       		.uleb128 0xb
 3274 014d 0B       		.uleb128 0xb
 3275 014e 0D       		.uleb128 0xd
 3276 014f 0B       		.uleb128 0xb
 3277 0150 0C       		.uleb128 0xc
 3278 0151 0B       		.uleb128 0xb
 3279 0152 38       		.uleb128 0x38
 3280 0153 0A       		.uleb128 0xa
 3281 0154 00       		.byte	0
 3282 0155 00       		.byte	0
 3283 0156 1D       		.uleb128 0x1d
 3284 0157 0D       		.uleb128 0xd
 3285 0158 00       		.byte	0
 3286 0159 49       		.uleb128 0x49
 3287 015a 13       		.uleb128 0x13
 3288 015b 00       		.byte	0
 3289 015c 00       		.byte	0
 3290 015d 1E       		.uleb128 0x1e
 3291 015e 0D       		.uleb128 0xd
ARM GAS  C:\Users\DNIEL~1\AppData\Local\Temp\ccbjUQiQ.s 			page 59


 3292 015f 00       		.byte	0
 3293 0160 49       		.uleb128 0x49
 3294 0161 13       		.uleb128 0x13
 3295 0162 38       		.uleb128 0x38
 3296 0163 0A       		.uleb128 0xa
 3297 0164 00       		.byte	0
 3298 0165 00       		.byte	0
 3299 0166 1F       		.uleb128 0x1f
 3300 0167 0D       		.uleb128 0xd
 3301 0168 00       		.byte	0
 3302 0169 03       		.uleb128 0x3
 3303 016a 0E       		.uleb128 0xe
 3304 016b 3A       		.uleb128 0x3a
 3305 016c 0B       		.uleb128 0xb
 3306 016d 3B       		.uleb128 0x3b
 3307 016e 0B       		.uleb128 0xb
 3308 016f 49       		.uleb128 0x49
 3309 0170 13       		.uleb128 0x13
 3310 0171 0B       		.uleb128 0xb
 3311 0172 0B       		.uleb128 0xb
 3312 0173 0D       		.uleb128 0xd
 3313 0174 0B       		.uleb128 0xb
 3314 0175 0C       		.uleb128 0xc
 3315 0176 0B       		.uleb128 0xb
 3316 0177 38       		.uleb128 0x38
 3317 0178 0A       		.uleb128 0xa
 3318 0179 00       		.byte	0
 3319 017a 00       		.byte	0
 3320 017b 20       		.uleb128 0x20
 3321 017c 2E       		.uleb128 0x2e
 3322 017d 01       		.byte	0x1
 3323 017e 3F       		.uleb128 0x3f
 3324 017f 0C       		.uleb128 0xc
 3325 0180 03       		.uleb128 0x3
 3326 0181 0E       		.uleb128 0xe
 3327 0182 3A       		.uleb128 0x3a
 3328 0183 0B       		.uleb128 0xb
 3329 0184 3B       		.uleb128 0x3b
 3330 0185 0B       		.uleb128 0xb
 3331 0186 27       		.uleb128 0x27
 3332 0187 0C       		.uleb128 0xc
 3333 0188 11       		.uleb128 0x11
 3334 0189 01       		.uleb128 0x1
 3335 018a 12       		.uleb128 0x12
 3336 018b 01       		.uleb128 0x1
 3337 018c 40       		.uleb128 0x40
 3338 018d 0A       		.uleb128 0xa
 3339 018e 9742     		.uleb128 0x2117
 3340 0190 0C       		.uleb128 0xc
 3341 0191 01       		.uleb128 0x1
 3342 0192 13       		.uleb128 0x13
 3343 0193 00       		.byte	0
 3344 0194 00       		.byte	0
 3345 0195 21       		.uleb128 0x21
 3346 0196 898201   		.uleb128 0x4109
 3347 0199 01       		.byte	0x1
 3348 019a 11       		.uleb128 0x11
ARM GAS  C:\Users\DNIEL~1\AppData\Local\Temp\ccbjUQiQ.s 			page 60


 3349 019b 01       		.uleb128 0x1
 3350 019c 9542     		.uleb128 0x2115
 3351 019e 0C       		.uleb128 0xc
 3352 019f 31       		.uleb128 0x31
 3353 01a0 13       		.uleb128 0x13
 3354 01a1 00       		.byte	0
 3355 01a2 00       		.byte	0
 3356 01a3 22       		.uleb128 0x22
 3357 01a4 8A8201   		.uleb128 0x410a
 3358 01a7 00       		.byte	0
 3359 01a8 02       		.uleb128 0x2
 3360 01a9 0A       		.uleb128 0xa
 3361 01aa 9142     		.uleb128 0x2111
 3362 01ac 0A       		.uleb128 0xa
 3363 01ad 00       		.byte	0
 3364 01ae 00       		.byte	0
 3365 01af 23       		.uleb128 0x23
 3366 01b0 2E       		.uleb128 0x2e
 3367 01b1 01       		.byte	0x1
 3368 01b2 3F       		.uleb128 0x3f
 3369 01b3 0C       		.uleb128 0xc
 3370 01b4 03       		.uleb128 0x3
 3371 01b5 0E       		.uleb128 0xe
 3372 01b6 3A       		.uleb128 0x3a
 3373 01b7 0B       		.uleb128 0xb
 3374 01b8 3B       		.uleb128 0x3b
 3375 01b9 0B       		.uleb128 0xb
 3376 01ba 27       		.uleb128 0x27
 3377 01bb 0C       		.uleb128 0xc
 3378 01bc 11       		.uleb128 0x11
 3379 01bd 01       		.uleb128 0x1
 3380 01be 12       		.uleb128 0x12
 3381 01bf 01       		.uleb128 0x1
 3382 01c0 40       		.uleb128 0x40
 3383 01c1 06       		.uleb128 0x6
 3384 01c2 9742     		.uleb128 0x2117
 3385 01c4 0C       		.uleb128 0xc
 3386 01c5 01       		.uleb128 0x1
 3387 01c6 13       		.uleb128 0x13
 3388 01c7 00       		.byte	0
 3389 01c8 00       		.byte	0
 3390 01c9 24       		.uleb128 0x24
 3391 01ca 898201   		.uleb128 0x4109
 3392 01cd 01       		.byte	0x1
 3393 01ce 11       		.uleb128 0x11
 3394 01cf 01       		.uleb128 0x1
 3395 01d0 31       		.uleb128 0x31
 3396 01d1 13       		.uleb128 0x13
 3397 01d2 01       		.uleb128 0x1
 3398 01d3 13       		.uleb128 0x13
 3399 01d4 00       		.byte	0
 3400 01d5 00       		.byte	0
 3401 01d6 25       		.uleb128 0x25
 3402 01d7 05       		.uleb128 0x5
 3403 01d8 00       		.byte	0
 3404 01d9 03       		.uleb128 0x3
 3405 01da 08       		.uleb128 0x8
ARM GAS  C:\Users\DNIEL~1\AppData\Local\Temp\ccbjUQiQ.s 			page 61


 3406 01db 3A       		.uleb128 0x3a
 3407 01dc 0B       		.uleb128 0xb
 3408 01dd 3B       		.uleb128 0x3b
 3409 01de 0B       		.uleb128 0xb
 3410 01df 49       		.uleb128 0x49
 3411 01e0 13       		.uleb128 0x13
 3412 01e1 02       		.uleb128 0x2
 3413 01e2 06       		.uleb128 0x6
 3414 01e3 00       		.byte	0
 3415 01e4 00       		.byte	0
 3416 01e5 26       		.uleb128 0x26
 3417 01e6 05       		.uleb128 0x5
 3418 01e7 00       		.byte	0
 3419 01e8 03       		.uleb128 0x3
 3420 01e9 0E       		.uleb128 0xe
 3421 01ea 3A       		.uleb128 0x3a
 3422 01eb 0B       		.uleb128 0xb
 3423 01ec 3B       		.uleb128 0x3b
 3424 01ed 0B       		.uleb128 0xb
 3425 01ee 49       		.uleb128 0x49
 3426 01ef 13       		.uleb128 0x13
 3427 01f0 02       		.uleb128 0x2
 3428 01f1 06       		.uleb128 0x6
 3429 01f2 00       		.byte	0
 3430 01f3 00       		.byte	0
 3431 01f4 27       		.uleb128 0x27
 3432 01f5 898201   		.uleb128 0x4109
 3433 01f8 00       		.byte	0
 3434 01f9 11       		.uleb128 0x11
 3435 01fa 01       		.uleb128 0x1
 3436 01fb 31       		.uleb128 0x31
 3437 01fc 13       		.uleb128 0x13
 3438 01fd 00       		.byte	0
 3439 01fe 00       		.byte	0
 3440 01ff 28       		.uleb128 0x28
 3441 0200 898201   		.uleb128 0x4109
 3442 0203 01       		.byte	0x1
 3443 0204 11       		.uleb128 0x11
 3444 0205 01       		.uleb128 0x1
 3445 0206 00       		.byte	0
 3446 0207 00       		.byte	0
 3447 0208 29       		.uleb128 0x29
 3448 0209 34       		.uleb128 0x34
 3449 020a 00       		.byte	0
 3450 020b 03       		.uleb128 0x3
 3451 020c 0E       		.uleb128 0xe
 3452 020d 3A       		.uleb128 0x3a
 3453 020e 0B       		.uleb128 0xb
 3454 020f 3B       		.uleb128 0x3b
 3455 0210 0B       		.uleb128 0xb
 3456 0211 49       		.uleb128 0x49
 3457 0212 13       		.uleb128 0x13
 3458 0213 00       		.byte	0
 3459 0214 00       		.byte	0
 3460 0215 2A       		.uleb128 0x2a
 3461 0216 34       		.uleb128 0x34
 3462 0217 00       		.byte	0
ARM GAS  C:\Users\DNIEL~1\AppData\Local\Temp\ccbjUQiQ.s 			page 62


 3463 0218 03       		.uleb128 0x3
 3464 0219 0E       		.uleb128 0xe
 3465 021a 3A       		.uleb128 0x3a
 3466 021b 0B       		.uleb128 0xb
 3467 021c 3B       		.uleb128 0x3b
 3468 021d 0B       		.uleb128 0xb
 3469 021e 49       		.uleb128 0x49
 3470 021f 13       		.uleb128 0x13
 3471 0220 02       		.uleb128 0x2
 3472 0221 0A       		.uleb128 0xa
 3473 0222 00       		.byte	0
 3474 0223 00       		.byte	0
 3475 0224 2B       		.uleb128 0x2b
 3476 0225 34       		.uleb128 0x34
 3477 0226 00       		.byte	0
 3478 0227 03       		.uleb128 0x3
 3479 0228 08       		.uleb128 0x8
 3480 0229 3A       		.uleb128 0x3a
 3481 022a 0B       		.uleb128 0xb
 3482 022b 3B       		.uleb128 0x3b
 3483 022c 0B       		.uleb128 0xb
 3484 022d 49       		.uleb128 0x49
 3485 022e 13       		.uleb128 0x13
 3486 022f 02       		.uleb128 0x2
 3487 0230 0A       		.uleb128 0xa
 3488 0231 00       		.byte	0
 3489 0232 00       		.byte	0
 3490 0233 2C       		.uleb128 0x2c
 3491 0234 34       		.uleb128 0x34
 3492 0235 00       		.byte	0
 3493 0236 03       		.uleb128 0x3
 3494 0237 0E       		.uleb128 0xe
 3495 0238 3A       		.uleb128 0x3a
 3496 0239 0B       		.uleb128 0xb
 3497 023a 3B       		.uleb128 0x3b
 3498 023b 0B       		.uleb128 0xb
 3499 023c 49       		.uleb128 0x49
 3500 023d 13       		.uleb128 0x13
 3501 023e 3F       		.uleb128 0x3f
 3502 023f 0C       		.uleb128 0xc
 3503 0240 3C       		.uleb128 0x3c
 3504 0241 0C       		.uleb128 0xc
 3505 0242 00       		.byte	0
 3506 0243 00       		.byte	0
 3507 0244 2D       		.uleb128 0x2d
 3508 0245 34       		.uleb128 0x34
 3509 0246 00       		.byte	0
 3510 0247 03       		.uleb128 0x3
 3511 0248 0E       		.uleb128 0xe
 3512 0249 3A       		.uleb128 0x3a
 3513 024a 0B       		.uleb128 0xb
 3514 024b 3B       		.uleb128 0x3b
 3515 024c 05       		.uleb128 0x5
 3516 024d 49       		.uleb128 0x49
 3517 024e 13       		.uleb128 0x13
 3518 024f 3F       		.uleb128 0x3f
 3519 0250 0C       		.uleb128 0xc
ARM GAS  C:\Users\DNIEL~1\AppData\Local\Temp\ccbjUQiQ.s 			page 63


 3520 0251 3C       		.uleb128 0x3c
 3521 0252 0C       		.uleb128 0xc
 3522 0253 00       		.byte	0
 3523 0254 00       		.byte	0
 3524 0255 2E       		.uleb128 0x2e
 3525 0256 2E       		.uleb128 0x2e
 3526 0257 01       		.byte	0x1
 3527 0258 3F       		.uleb128 0x3f
 3528 0259 0C       		.uleb128 0xc
 3529 025a 03       		.uleb128 0x3
 3530 025b 0E       		.uleb128 0xe
 3531 025c 3A       		.uleb128 0x3a
 3532 025d 0B       		.uleb128 0xb
 3533 025e 3B       		.uleb128 0x3b
 3534 025f 0B       		.uleb128 0xb
 3535 0260 27       		.uleb128 0x27
 3536 0261 0C       		.uleb128 0xc
 3537 0262 3C       		.uleb128 0x3c
 3538 0263 0C       		.uleb128 0xc
 3539 0264 01       		.uleb128 0x1
 3540 0265 13       		.uleb128 0x13
 3541 0266 00       		.byte	0
 3542 0267 00       		.byte	0
 3543 0268 2F       		.uleb128 0x2f
 3544 0269 18       		.uleb128 0x18
 3545 026a 00       		.byte	0
 3546 026b 00       		.byte	0
 3547 026c 00       		.byte	0
 3548 026d 30       		.uleb128 0x30
 3549 026e 2E       		.uleb128 0x2e
 3550 026f 01       		.byte	0x1
 3551 0270 3F       		.uleb128 0x3f
 3552 0271 0C       		.uleb128 0xc
 3553 0272 03       		.uleb128 0x3
 3554 0273 0E       		.uleb128 0xe
 3555 0274 3A       		.uleb128 0x3a
 3556 0275 0B       		.uleb128 0xb
 3557 0276 3B       		.uleb128 0x3b
 3558 0277 05       		.uleb128 0x5
 3559 0278 27       		.uleb128 0x27
 3560 0279 0C       		.uleb128 0xc
 3561 027a 3C       		.uleb128 0x3c
 3562 027b 0C       		.uleb128 0xc
 3563 027c 00       		.byte	0
 3564 027d 00       		.byte	0
 3565 027e 00       		.byte	0
 3566              		.section	.debug_loc,"",%progbits
 3567              	.Ldebug_loc0:
 3568              	.LLST0:
 3569 0000 00000000 		.4byte	.LFB120
 3570 0004 02000000 		.4byte	.LCFI0
 3571 0008 0200     		.2byte	0x2
 3572 000a 7D       		.byte	0x7d
 3573 000b 00       		.sleb128 0
 3574 000c 02000000 		.4byte	.LCFI0
 3575 0010 84000000 		.4byte	.LFE120
 3576 0014 0200     		.2byte	0x2
ARM GAS  C:\Users\DNIEL~1\AppData\Local\Temp\ccbjUQiQ.s 			page 64


 3577 0016 7D       		.byte	0x7d
 3578 0017 10       		.sleb128 16
 3579 0018 00000000 		.4byte	0
 3580 001c 00000000 		.4byte	0
 3581              	.LLST1:
 3582 0020 00000000 		.4byte	.LFB121
 3583 0024 02000000 		.4byte	.LCFI1
 3584 0028 0200     		.2byte	0x2
 3585 002a 7D       		.byte	0x7d
 3586 002b 00       		.sleb128 0
 3587 002c 02000000 		.4byte	.LCFI1
 3588 0030 64000000 		.4byte	.LFE121
 3589 0034 0200     		.2byte	0x2
 3590 0036 7D       		.byte	0x7d
 3591 0037 10       		.sleb128 16
 3592 0038 00000000 		.4byte	0
 3593 003c 00000000 		.4byte	0
 3594              	.LLST2:
 3595 0040 00000000 		.4byte	.LVL4
 3596 0044 0B000000 		.4byte	.LVL6-1
 3597 0048 0100     		.2byte	0x1
 3598 004a 50       		.byte	0x50
 3599 004b 0B000000 		.4byte	.LVL6-1
 3600 004f 16000000 		.4byte	.LVL8
 3601 0053 0100     		.2byte	0x1
 3602 0055 54       		.byte	0x54
 3603 0056 16000000 		.4byte	.LVL8
 3604 005a 19000000 		.4byte	.LVL9-1
 3605 005e 0100     		.2byte	0x1
 3606 0060 50       		.byte	0x50
 3607 0061 19000000 		.4byte	.LVL9-1
 3608 0065 4A000000 		.4byte	.LVL14
 3609 0069 0100     		.2byte	0x1
 3610 006b 54       		.byte	0x54
 3611 006c 4A000000 		.4byte	.LVL14
 3612 0070 64000000 		.4byte	.LFE121
 3613 0074 0100     		.2byte	0x1
 3614 0076 50       		.byte	0x50
 3615 0077 00000000 		.4byte	0
 3616 007b 00000000 		.4byte	0
 3617              	.LLST3:
 3618 007f 00000000 		.4byte	.LVL4
 3619 0083 04000000 		.4byte	.LVL5
 3620 0087 0100     		.2byte	0x1
 3621 0089 51       		.byte	0x51
 3622 008a 04000000 		.4byte	.LVL5
 3623 008e 64000000 		.4byte	.LFE121
 3624 0092 0400     		.2byte	0x4
 3625 0094 F3       		.byte	0xf3
 3626 0095 01       		.uleb128 0x1
 3627 0096 51       		.byte	0x51
 3628 0097 9F       		.byte	0x9f
 3629 0098 00000000 		.4byte	0
 3630 009c 00000000 		.4byte	0
 3631              	.LLST4:
 3632 00a0 00000000 		.4byte	.LVL4
 3633 00a4 0B000000 		.4byte	.LVL6-1
ARM GAS  C:\Users\DNIEL~1\AppData\Local\Temp\ccbjUQiQ.s 			page 65


 3634 00a8 0100     		.2byte	0x1
 3635 00aa 52       		.byte	0x52
 3636 00ab 0B000000 		.4byte	.LVL6-1
 3637 00af 64000000 		.4byte	.LFE121
 3638 00b3 0400     		.2byte	0x4
 3639 00b5 F3       		.byte	0xf3
 3640 00b6 01       		.uleb128 0x1
 3641 00b7 52       		.byte	0x52
 3642 00b8 9F       		.byte	0x9f
 3643 00b9 00000000 		.4byte	0
 3644 00bd 00000000 		.4byte	0
 3645              		.section	.debug_aranges,"",%progbits
 3646 0000 2C000000 		.4byte	0x2c
 3647 0004 0200     		.2byte	0x2
 3648 0006 00000000 		.4byte	.Ldebug_info0
 3649 000a 04       		.byte	0x4
 3650 000b 00       		.byte	0
 3651 000c 0000     		.2byte	0
 3652 000e 0000     		.2byte	0
 3653 0010 00000000 		.4byte	.LFB119
 3654 0014 14000000 		.4byte	.LFE119-.LFB119
 3655 0018 00000000 		.4byte	.LFB120
 3656 001c 84000000 		.4byte	.LFE120-.LFB120
 3657 0020 00000000 		.4byte	.LFB121
 3658 0024 64000000 		.4byte	.LFE121-.LFB121
 3659 0028 00000000 		.4byte	0
 3660 002c 00000000 		.4byte	0
 3661              		.section	.debug_ranges,"",%progbits
 3662              	.Ldebug_ranges0:
 3663 0000 00000000 		.4byte	.LFB119
 3664 0004 14000000 		.4byte	.LFE119
 3665 0008 00000000 		.4byte	.LFB120
 3666 000c 84000000 		.4byte	.LFE120
 3667 0010 00000000 		.4byte	.LFB121
 3668 0014 64000000 		.4byte	.LFE121
 3669 0018 00000000 		.4byte	0
 3670 001c 00000000 		.4byte	0
 3671              		.section	.debug_line,"",%progbits
 3672              	.Ldebug_line0:
 3673 0000 8C030000 		.section	.debug_str,"MS",%progbits,1
 3673      02001A03 
 3673      00000201 
 3673      FB0E0D00 
 3673      01010101 
 3674              	.LASF2:
 3675 0000 73697A65 		.ascii	"size_t\000"
 3675      5F7400
 3676              	.LASF51:
 3677 0007 73697A65 		.ascii	"sizetype\000"
 3677      74797065 
 3677      00
 3678              	.LASF23:
 3679 0010 73797374 		.ascii	"systime_t\000"
 3679      696D655F 
 3679      7400
 3680              	.LASF152:
 3681 001a 64617461 		.ascii	"data16\000"
ARM GAS  C:\Users\DNIEL~1\AppData\Local\Temp\ccbjUQiQ.s 			page 66


 3681      313600
 3682              	.LASF29:
 3683 0021 705F6374 		.ascii	"p_ctx\000"
 3683      7800
 3684              	.LASF19:
 3685 0027 74707269 		.ascii	"tprio_t\000"
 3685      6F5F7400 
 3686              	.LASF39:
 3687 002f 705F6D73 		.ascii	"p_msgqueue\000"
 3687      67717565 
 3687      756500
 3688              	.LASF63:
 3689 003a 725F6374 		.ascii	"r_ctx\000"
 3689      7800
 3690              	.LASF8:
 3691 0040 696E7433 		.ascii	"int32_t\000"
 3691      325F7400 
 3692              	.LASF142:
 3693 0048 77726974 		.ascii	"writet\000"
 3693      657400
 3694              	.LASF52:
 3695 004f 76746675 		.ascii	"vtfunc_t\000"
 3695      6E635F74 
 3695      00
 3696              	.LASF93:
 3697 0058 54444852 		.ascii	"TDHR\000"
 3697      00
 3698              	.LASF170:
 3699 005d 736C6565 		.ascii	"sleep_event\000"
 3699      705F6576 
 3699      656E7400 
 3700              	.LASF193:
 3701 0069 6C696768 		.ascii	"lightCalc\000"
 3701      7443616C 
 3701      6300
 3702              	.LASF88:
 3703 0073 77726974 		.ascii	"write\000"
 3703      6500
 3704              	.LASF90:
 3705 0079 42617365 		.ascii	"BaseSequentialStream\000"
 3705      53657175 
 3705      656E7469 
 3705      616C5374 
 3705      7265616D 
 3706              	.LASF171:
 3707 008e 77616B65 		.ascii	"wakeup_event\000"
 3707      75705F65 
 3707      76656E74 
 3707      00
 3708              	.LASF79:
 3709 009b 656C5F66 		.ascii	"el_flags\000"
 3709      6C616773 
 3709      00
 3710              	.LASF164:
 3711 00a4 636F6E66 		.ascii	"config\000"
 3711      696700
 3712              	.LASF163:
ARM GAS  C:\Users\DNIEL~1\AppData\Local\Temp\ccbjUQiQ.s 			page 67


 3713 00ab 73746174 		.ascii	"state\000"
 3713      6500
 3714              	.LASF154:
 3715 00b1 43414E54 		.ascii	"CANTxFrame\000"
 3715      78467261 
 3715      6D6500
 3716              	.LASF165:
 3717 00bc 74787365 		.ascii	"txsem\000"
 3717      6D00
 3718              	.LASF140:
 3719 00c2 70757474 		.ascii	"putt\000"
 3719      00
 3720              	.LASF185:
 3721 00c7 50574D43 		.ascii	"PWMChannelConfig\000"
 3721      68616E6E 
 3721      656C436F 
 3721      6E666967 
 3721      00
 3722              	.LASF135:
 3723 00d8 444D4152 		.ascii	"DMAR\000"
 3723      00
 3724              	.LASF173:
 3725 00dd 50574D5F 		.ascii	"PWM_UNINIT\000"
 3725      554E494E 
 3725      495400
 3726              	.LASF184:
 3727 00e8 63616C6C 		.ascii	"callback\000"
 3727      6261636B 
 3727      00
 3728              	.LASF149:
 3729 00f1 43414E5F 		.ascii	"CAN_SLEEP\000"
 3729      534C4545 
 3729      5000
 3730              	.LASF73:
 3731 00fb 6D5F6F77 		.ascii	"m_owner\000"
 3731      6E657200 
 3732              	.LASF58:
 3733 0103 76745F70 		.ascii	"vt_par\000"
 3733      617200
 3734              	.LASF83:
 3735 010a 65786974 		.ascii	"exitcode\000"
 3735      636F6465 
 3735      00
 3736              	.LASF85:
 3737 0113 65776D61 		.ascii	"ewmask\000"
 3737      736B00
 3738              	.LASF172:
 3739 011a 43414E44 		.ascii	"CANDriver\000"
 3739      72697665 
 3739      7200
 3740              	.LASF143:
 3741 0124 72656164 		.ascii	"readt\000"
 3741      7400
 3742              	.LASF161:
 3743 012a 66696C74 		.ascii	"filters\000"
 3743      65727300 
 3744              	.LASF30:
ARM GAS  C:\Users\DNIEL~1\AppData\Local\Temp\ccbjUQiQ.s 			page 68


 3745 0132 705F6E65 		.ascii	"p_newer\000"
 3745      77657200 
 3746              	.LASF9:
 3747 013a 6C6F6E67 		.ascii	"long int\000"
 3747      20696E74 
 3747      00
 3748              	.LASF26:
 3749 0143 705F6E65 		.ascii	"p_next\000"
 3749      787400
 3750              	.LASF27:
 3751 014a 705F7072 		.ascii	"p_prev\000"
 3751      657600
 3752              	.LASF112:
 3753 0151 46413152 		.ascii	"FA1R\000"
 3753      00
 3754              	.LASF16:
 3755 0156 74737461 		.ascii	"tstate_t\000"
 3755      74655F74 
 3755      00
 3756              	.LASF42:
 3757 015f 705F6D74 		.ascii	"p_mtxlist\000"
 3757      786C6973 
 3757      7400
 3758              	.LASF47:
 3759 0169 72656761 		.ascii	"regarm_t\000"
 3759      726D5F74 
 3759      00
 3760              	.LASF182:
 3761 0172 70776D63 		.ascii	"pwmchannel_t\000"
 3761      68616E6E 
 3761      656C5F74 
 3761      00
 3762              	.LASF100:
 3763 017f 52463052 		.ascii	"RF0R\000"
 3763      00
 3764              	.LASF1:
 3765 0184 7369676E 		.ascii	"signed char\000"
 3765      65642063 
 3765      68617200 
 3766              	.LASF36:
 3767 0190 705F7072 		.ascii	"p_preempt\000"
 3767      65656D70 
 3767      7400
 3768              	.LASF3:
 3769 019a 75696E74 		.ascii	"uint8_t\000"
 3769      385F7400 
 3770              	.LASF21:
 3771 01a2 6576656E 		.ascii	"eventmask_t\000"
 3771      746D6173 
 3771      6B5F7400 
 3772              	.LASF99:
 3773 01ae 43414E5F 		.ascii	"CAN_FilterRegister_TypeDef\000"
 3773      46696C74 
 3773      65725265 
 3773      67697374 
 3773      65725F54 
 3774              	.LASF50:
ARM GAS  C:\Users\DNIEL~1\AppData\Local\Temp\ccbjUQiQ.s 			page 69


 3775 01c9 636F6E74 		.ascii	"context\000"
 3775      65787400 
 3776              	.LASF167:
 3777 01d1 72786675 		.ascii	"rxfull_event\000"
 3777      6C6C5F65 
 3777      76656E74 
 3777      00
 3778              	.LASF156:
 3779 01de 7363616C 		.ascii	"scale\000"
 3779      6500
 3780              	.LASF183:
 3781 01e4 70776D63 		.ascii	"pwmcnt_t\000"
 3781      6E745F74 
 3781      00
 3782              	.LASF102:
 3783 01ed 52455345 		.ascii	"RESERVED0\000"
 3783      52564544 
 3783      3000
 3784              	.LASF105:
 3785 01f7 52455345 		.ascii	"RESERVED1\000"
 3785      52564544 
 3785      3100
 3786              	.LASF4:
 3787 0201 756E7369 		.ascii	"unsigned char\000"
 3787      676E6564 
 3787      20636861 
 3787      7200
 3788              	.LASF109:
 3789 020f 52455345 		.ascii	"RESERVED3\000"
 3789      52564544 
 3789      3300
 3790              	.LASF111:
 3791 0219 52455345 		.ascii	"RESERVED4\000"
 3791      52564544 
 3791      3400
 3792              	.LASF113:
 3793 0223 52455345 		.ascii	"RESERVED5\000"
 3793      52564544 
 3793      3500
 3794              	.LASF55:
 3795 022d 76745F70 		.ascii	"vt_prev\000"
 3795      72657600 
 3796              	.LASF101:
 3797 0235 52463152 		.ascii	"RF1R\000"
 3797      00
 3798              	.LASF64:
 3799 023a 725F6E65 		.ascii	"r_newer\000"
 3799      77657200 
 3800              	.LASF107:
 3801 0242 52455345 		.ascii	"RESERVED2\000"
 3801      52564544 
 3801      3200
 3802              	.LASF124:
 3803 024c 43434D52 		.ascii	"CCMR1\000"
 3803      3100
 3804              	.LASF126:
 3805 0252 43434D52 		.ascii	"CCMR2\000"
ARM GAS  C:\Users\DNIEL~1\AppData\Local\Temp\ccbjUQiQ.s 			page 70


 3805      3200
 3806              	.LASF86:
 3807 0258 63686172 		.ascii	"char\000"
 3807      00
 3808              	.LASF28:
 3809 025d 705F7072 		.ascii	"p_prio\000"
 3809      696F00
 3810              	.LASF84:
 3811 0264 77746F62 		.ascii	"wtobjp\000"
 3811      6A7000
 3812              	.LASF141:
 3813 026b 67657474 		.ascii	"gett\000"
 3813      00
 3814              	.LASF48:
 3815 0270 73746B61 		.ascii	"stkalign_t\000"
 3815      6C69676E 
 3815      5F7400
 3816              	.LASF197:
 3817 027b 74786D73 		.ascii	"txmsg\000"
 3817      6700
 3818              	.LASF158:
 3819 0281 72656769 		.ascii	"register1\000"
 3819      73746572 
 3819      3100
 3820              	.LASF159:
 3821 028b 72656769 		.ascii	"register2\000"
 3821      73746572 
 3821      3200
 3822              	.LASF150:
 3823 0295 63616E73 		.ascii	"canstate_t\000"
 3823      74617465 
 3823      5F7400
 3824              	.LASF148:
 3825 02a0 43414E5F 		.ascii	"CAN_READY\000"
 3825      52454144 
 3825      5900
 3826              	.LASF181:
 3827 02aa 70776D6D 		.ascii	"pwmmode_t\000"
 3827      6F64655F 
 3827      7400
 3828              	.LASF24:
 3829 02b4 636E745F 		.ascii	"cnt_t\000"
 3829      7400
 3830              	.LASF207:
 3831 02ba 63687072 		.ascii	"chprintf\000"
 3831      696E7466 
 3831      00
 3832              	.LASF211:
 3833 02c3 63685468 		.ascii	"chThdSleep\000"
 3833      64536C65 
 3833      657000
 3834              	.LASF209:
 3835 02ce 7372632F 		.ascii	"src/light.c\000"
 3835      6C696768 
 3835      742E6300 
 3836              	.LASF57:
 3837 02da 76745F66 		.ascii	"vt_func\000"
ARM GAS  C:\Users\DNIEL~1\AppData\Local\Temp\ccbjUQiQ.s 			page 71


 3837      756E6300 
 3838              	.LASF49:
 3839 02e2 696E7463 		.ascii	"intctx\000"
 3839      747800
 3840              	.LASF41:
 3841 02e9 705F6570 		.ascii	"p_epending\000"
 3841      656E6469 
 3841      6E6700
 3842              	.LASF166:
 3843 02f4 72787365 		.ascii	"rxsem\000"
 3843      6D00
 3844              	.LASF81:
 3845 02fa 65735F6E 		.ascii	"es_next\000"
 3845      65787400 
 3846              	.LASF80:
 3847 0302 4576656E 		.ascii	"EventSource\000"
 3847      74536F75 
 3847      72636500 
 3848              	.LASF11:
 3849 030e 6C6F6E67 		.ascii	"long unsigned int\000"
 3849      20756E73 
 3849      69676E65 
 3849      6420696E 
 3849      7400
 3850              	.LASF120:
 3851 0320 44494552 		.ascii	"DIER\000"
 3851      00
 3852              	.LASF76:
 3853 0325 656C5F6E 		.ascii	"el_next\000"
 3853      65787400 
 3854              	.LASF153:
 3855 032d 64617461 		.ascii	"data32\000"
 3855      333200
 3856              	.LASF138:
 3857 0334 73746D33 		.ascii	"stm32_tim_t\000"
 3857      325F7469 
 3857      6D5F7400 
 3858              	.LASF179:
 3859 0340 636C6F63 		.ascii	"clock\000"
 3859      6B00
 3860              	.LASF195:
 3861 0346 61726763 		.ascii	"argc\000"
 3861      00
 3862              	.LASF196:
 3863 034b 61726776 		.ascii	"argv\000"
 3863      00
 3864              	.LASF71:
 3865 0350 4D757465 		.ascii	"Mutex\000"
 3865      7800
 3866              	.LASF12:
 3867 0356 6C6F6E67 		.ascii	"long long int\000"
 3867      206C6F6E 
 3867      6720696E 
 3867      7400
 3868              	.LASF147:
 3869 0364 43414E5F 		.ascii	"CAN_STARTING\000"
 3869      53544152 
ARM GAS  C:\Users\DNIEL~1\AppData\Local\Temp\ccbjUQiQ.s 			page 72


 3869      54494E47 
 3869      00
 3870              	.LASF72:
 3871 0371 6D5F7175 		.ascii	"m_queue\000"
 3871      65756500 
 3872              	.LASF54:
 3873 0379 76745F6E 		.ascii	"vt_next\000"
 3873      65787400 
 3874              	.LASF189:
 3875 0381 646F7562 		.ascii	"double\000"
 3875      6C6500
 3876              	.LASF205:
 3877 0388 70776D53 		.ascii	"pwmStart\000"
 3877      74617274 
 3877      00
 3878              	.LASF202:
 3879 0391 49544D5F 		.ascii	"ITM_RxBuffer\000"
 3879      52784275 
 3879      66666572 
 3879      00
 3880              	.LASF186:
 3881 039e 66726571 		.ascii	"frequency\000"
 3881      75656E63 
 3881      7900
 3882              	.LASF190:
 3883 03a8 666C6F61 		.ascii	"float\000"
 3883      7400
 3884              	.LASF145:
 3885 03ae 43414E5F 		.ascii	"CAN_UNINIT\000"
 3885      554E494E 
 3885      495400
 3886              	.LASF38:
 3887 03b9 705F7761 		.ascii	"p_waiting\000"
 3887      6974696E 
 3887      6700
 3888              	.LASF34:
 3889 03c3 705F666C 		.ascii	"p_flags\000"
 3889      61677300 
 3890              	.LASF89:
 3891 03cb 72656164 		.ascii	"read\000"
 3891      00
 3892              	.LASF0:
 3893 03d0 756E7369 		.ascii	"unsigned int\000"
 3893      676E6564 
 3893      20696E74 
 3893      00
 3894              	.LASF44:
 3895 03dd 705F6D70 		.ascii	"p_mpool\000"
 3895      6F6F6C00 
 3896              	.LASF187:
 3897 03e5 6368616E 		.ascii	"channels\000"
 3897      6E656C73 
 3897      00
 3898              	.LASF200:
 3899 03ee 76746C69 		.ascii	"vtlist\000"
 3899      737400
 3900              	.LASF35:
ARM GAS  C:\Users\DNIEL~1\AppData\Local\Temp\ccbjUQiQ.s 			page 73


 3901 03f5 705F7265 		.ascii	"p_refs\000"
 3901      667300
 3902              	.LASF106:
 3903 03fc 464D3152 		.ascii	"FM1R\000"
 3903      00
 3904              	.LASF97:
 3905 0401 52444852 		.ascii	"RDHR\000"
 3905      00
 3906              	.LASF206:
 3907 0406 70776D45 		.ascii	"pwmEnableChannel\000"
 3907      6E61626C 
 3907      65436861 
 3907      6E6E656C 
 3907      00
 3908              	.LASF180:
 3909 0417 70776D63 		.ascii	"pwmcallback_t\000"
 3909      616C6C62 
 3909      61636B5F 
 3909      7400
 3910              	.LASF46:
 3911 0425 54687265 		.ascii	"ThreadsList\000"
 3911      6164734C 
 3911      69737400 
 3912              	.LASF177:
 3913 0431 50574D44 		.ascii	"PWMDriver\000"
 3913      72697665 
 3913      7200
 3914              	.LASF192:
 3915 043b 6C696768 		.ascii	"lightInit\000"
 3915      74496E69 
 3915      7400
 3916              	.LASF22:
 3917 0445 666C6167 		.ascii	"flagsmask_t\000"
 3917      736D6173 
 3917      6B5F7400 
 3918              	.LASF169:
 3919 0451 6572726F 		.ascii	"error_event\000"
 3919      725F6576 
 3919      656E7400 
 3920              	.LASF115:
 3921 045d 43414E5F 		.ascii	"CAN_TypeDef\000"
 3921      54797065 
 3921      44656600 
 3922              	.LASF37:
 3923 0469 705F7469 		.ascii	"p_time\000"
 3923      6D6500
 3924              	.LASF114:
 3925 0470 7346696C 		.ascii	"sFilterRegister\000"
 3925      74657252 
 3925      65676973 
 3925      74657200 
 3926              	.LASF208:
 3927 0480 474E5520 		.ascii	"GNU C 4.7.4 20140401 (release) [ARM/embedded-4_7-br"
 3927      4320342E 
 3927      372E3420 
 3927      32303134 
 3927      30343031 
ARM GAS  C:\Users\DNIEL~1\AppData\Local\Temp\ccbjUQiQ.s 			page 74


 3928 04b3 616E6368 		.ascii	"anch revision 209195]\000"
 3928      20726576 
 3928      6973696F 
 3928      6E203230 
 3928      39313935 
 3929              	.LASF68:
 3930 04c9 53656D61 		.ascii	"Semaphore\000"
 3930      70686F72 
 3930      6500
 3931              	.LASF43:
 3932 04d3 705F7265 		.ascii	"p_realprio\000"
 3932      616C7072 
 3932      696F00
 3933              	.LASF151:
 3934 04de 64617461 		.ascii	"data8\000"
 3934      3800
 3935              	.LASF70:
 3936 04e4 735F636E 		.ascii	"s_cnt\000"
 3936      7400
 3937              	.LASF14:
 3938 04ea 6C6F6E67 		.ascii	"long long unsigned int\000"
 3938      206C6F6E 
 3938      6720756E 
 3938      7369676E 
 3938      65642069 
 3939              	.LASF174:
 3940 0501 50574D5F 		.ascii	"PWM_STOP\000"
 3940      53544F50 
 3940      00
 3941              	.LASF31:
 3942 050a 705F6F6C 		.ascii	"p_older\000"
 3942      64657200 
 3943              	.LASF6:
 3944 0512 75696E74 		.ascii	"uint16_t\000"
 3944      31365F74 
 3944      00
 3945              	.LASF20:
 3946 051b 6D73675F 		.ascii	"msg_t\000"
 3946      7400
 3947              	.LASF128:
 3948 0521 43434552 		.ascii	"CCER\000"
 3948      00
 3949              	.LASF18:
 3950 0526 74736C69 		.ascii	"tslices_t\000"
 3950      6365735F 
 3950      7400
 3951              	.LASF96:
 3952 0530 52444C52 		.ascii	"RDLR\000"
 3952      00
 3953              	.LASF66:
 3954 0535 725F6375 		.ascii	"r_current\000"
 3954      7272656E 
 3954      7400
 3955              	.LASF60:
 3956 053f 56544C69 		.ascii	"VTList\000"
 3956      737400
 3957              	.LASF98:
ARM GAS  C:\Users\DNIEL~1\AppData\Local\Temp\ccbjUQiQ.s 			page 75


 3958 0546 43414E5F 		.ascii	"CAN_FIFOMailBox_TypeDef\000"
 3958      4649464F 
 3958      4D61696C 
 3958      426F785F 
 3958      54797065 
 3959              	.LASF131:
 3960 055e 5F726573 		.ascii	"_resvd10\000"
 3960      76643130 
 3960      00
 3961              	.LASF133:
 3962 0567 5F726573 		.ascii	"_resvd11\000"
 3962      76643131 
 3962      00
 3963              	.LASF92:
 3964 0570 54444C52 		.ascii	"TDLR\000"
 3964      00
 3965              	.LASF136:
 3966 0575 5F726573 		.ascii	"_resvd13\000"
 3966      76643133 
 3966      00
 3967              	.LASF137:
 3968 057e 5F726573 		.ascii	"_resvd14\000"
 3968      76643134 
 3968      00
 3969              	.LASF162:
 3970 0587 43414E43 		.ascii	"CANConfig\000"
 3970      6F6E6669 
 3970      6700
 3971              	.LASF118:
 3972 0591 534D4352 		.ascii	"SMCR\000"
 3972      00
 3973              	.LASF178:
 3974 0596 70657269 		.ascii	"period\000"
 3974      6F6400
 3975              	.LASF61:
 3976 059d 725F7175 		.ascii	"r_queue\000"
 3976      65756500 
 3977              	.LASF203:
 3978 05a5 43414E44 		.ascii	"CAND1\000"
 3978      3100
 3979              	.LASF87:
 3980 05ab 42617365 		.ascii	"BaseSequentialStreamVMT\000"
 3980      53657175 
 3980      656E7469 
 3980      616C5374 
 3980      7265616D 
 3981              	.LASF201:
 3982 05c3 726C6973 		.ascii	"rlist\000"
 3982      7400
 3983              	.LASF15:
 3984 05c9 746D6F64 		.ascii	"tmode_t\000"
 3984      655F7400 
 3985              	.LASF59:
 3986 05d1 76745F73 		.ascii	"vt_systime\000"
 3986      79737469 
 3986      6D6500
 3987              	.LASF108:
ARM GAS  C:\Users\DNIEL~1\AppData\Local\Temp\ccbjUQiQ.s 			page 76


 3988 05dc 46533152 		.ascii	"FS1R\000"
 3988      00
 3989              	.LASF168:
 3990 05e1 7478656D 		.ascii	"txempty_event\000"
 3990      7074795F 
 3990      6576656E 
 3990      7400
 3991              	.LASF65:
 3992 05ef 725F6F6C 		.ascii	"r_older\000"
 3992      64657200 
 3993              	.LASF69:
 3994 05f7 735F7175 		.ascii	"s_queue\000"
 3994      65756500 
 3995              	.LASF175:
 3996 05ff 50574D5F 		.ascii	"PWM_READY\000"
 3996      52454144 
 3996      5900
 3997              	.LASF94:
 3998 0609 43414E5F 		.ascii	"CAN_TxMailBox_TypeDef\000"
 3998      54784D61 
 3998      696C426F 
 3998      785F5479 
 3998      70654465 
 3999              	.LASF116:
 4000 061f 5F726573 		.ascii	"_resvd0\000"
 4000      76643000 
 4001              	.LASF117:
 4002 0627 5F726573 		.ascii	"_resvd1\000"
 4002      76643100 
 4003              	.LASF119:
 4004 062f 5F726573 		.ascii	"_resvd2\000"
 4004      76643200 
 4005              	.LASF121:
 4006 0637 5F726573 		.ascii	"_resvd3\000"
 4006      76643300 
 4007              	.LASF122:
 4008 063f 5F726573 		.ascii	"_resvd4\000"
 4008      76643400 
 4009              	.LASF123:
 4010 0647 5F726573 		.ascii	"_resvd5\000"
 4010      76643500 
 4011              	.LASF5:
 4012 064f 73686F72 		.ascii	"short int\000"
 4012      7420696E 
 4012      7400
 4013              	.LASF127:
 4014 0659 5F726573 		.ascii	"_resvd7\000"
 4014      76643700 
 4015              	.LASF129:
 4016 0661 5F726573 		.ascii	"_resvd8\000"
 4016      76643800 
 4017              	.LASF130:
 4018 0669 5F726573 		.ascii	"_resvd9\000"
 4018      76643900 
 4019              	.LASF13:
 4020 0671 75696E74 		.ascii	"uint64_t\000"
 4020      36345F74 
ARM GAS  C:\Users\DNIEL~1\AppData\Local\Temp\ccbjUQiQ.s 			page 77


 4020      00
 4021              	.LASF155:
 4022 067a 6D6F6465 		.ascii	"mode\000"
 4022      00
 4023              	.LASF198:
 4024 067f 6C696768 		.ascii	"light_blink_wa\000"
 4024      745F626C 
 4024      696E6B5F 
 4024      776100
 4025              	.LASF110:
 4026 068e 46464131 		.ascii	"FFA1R\000"
 4026      5200
 4027              	.LASF157:
 4028 0694 61737369 		.ascii	"assignment\000"
 4028      676E6D65 
 4028      6E7400
 4029              	.LASF62:
 4030 069f 725F7072 		.ascii	"r_prio\000"
 4030      696F00
 4031              	.LASF144:
 4032 06a6 42617365 		.ascii	"BaseChannel\000"
 4032      4368616E 
 4032      6E656C00 
 4033              	.LASF134:
 4034 06b2 5F726573 		.ascii	"_resvd12\000"
 4034      76643132 
 4034      00
 4035              	.LASF25:
 4036 06bb 54687265 		.ascii	"Thread\000"
 4036      616400
 4037              	.LASF160:
 4038 06c2 43414E46 		.ascii	"CANFilter\000"
 4038      696C7465 
 4038      7200
 4039              	.LASF188:
 4040 06cc 50574D43 		.ascii	"PWMConfig\000"
 4040      6F6E6669 
 4040      6700
 4041              	.LASF17:
 4042 06d6 74726566 		.ascii	"trefs_t\000"
 4042      735F7400 
 4043              	.LASF75:
 4044 06de 4576656E 		.ascii	"EventListener\000"
 4044      744C6973 
 4044      74656E65 
 4044      7200
 4045              	.LASF204:
 4046 06ec 50574D44 		.ascii	"PWMD4\000"
 4046      3400
 4047              	.LASF191:
 4048 06f2 6C6F6E67 		.ascii	"long double\000"
 4048      20646F75 
 4048      626C6500 
 4049              	.LASF104:
 4050 06fe 73464946 		.ascii	"sFIFOMailBox\000"
 4050      4F4D6169 
 4050      6C426F78 
ARM GAS  C:\Users\DNIEL~1\AppData\Local\Temp\ccbjUQiQ.s 			page 78


 4050      00
 4051              	.LASF176:
 4052 070b 70776D73 		.ascii	"pwmstate_t\000"
 4052      74617465 
 4052      5F7400
 4053              	.LASF132:
 4054 0716 42445452 		.ascii	"BDTR\000"
 4054      00
 4055              	.LASF10:
 4056 071b 75696E74 		.ascii	"uint32_t\000"
 4056      33325F74 
 4056      00
 4057              	.LASF53:
 4058 0724 56697274 		.ascii	"VirtualTimer\000"
 4058      75616C54 
 4058      696D6572 
 4058      00
 4059              	.LASF45:
 4060 0731 54687265 		.ascii	"ThreadsQueue\000"
 4060      61647351 
 4060      75657565 
 4060      00
 4061              	.LASF199:
 4062 073e 70776D63 		.ascii	"pwmcfg\000"
 4062      666700
 4063              	.LASF82:
 4064 0745 7264796D 		.ascii	"rdymsg\000"
 4064      736700
 4065              	.LASF7:
 4066 074c 73686F72 		.ascii	"short unsigned int\000"
 4066      7420756E 
 4066      7369676E 
 4066      65642069 
 4066      6E7400
 4067              	.LASF125:
 4068 075f 5F726573 		.ascii	"_resvd6\000"
 4068      76643600 
 4069              	.LASF103:
 4070 0767 7354784D 		.ascii	"sTxMailBox\000"
 4070      61696C42 
 4070      6F7800
 4071              	.LASF139:
 4072 0772 42617365 		.ascii	"BaseChannelVMT\000"
 4072      4368616E 
 4072      6E656C56 
 4072      4D5400
 4073              	.LASF78:
 4074 0781 656C5F6D 		.ascii	"el_mask\000"
 4074      61736B00 
 4075              	.LASF67:
 4076 0789 52656164 		.ascii	"ReadyList\000"
 4076      794C6973 
 4076      7400
 4077              	.LASF146:
 4078 0793 43414E5F 		.ascii	"CAN_STOP\000"
 4078      53544F50 
 4078      00
ARM GAS  C:\Users\DNIEL~1\AppData\Local\Temp\ccbjUQiQ.s 			page 79


 4079              	.LASF32:
 4080 079c 705F6E61 		.ascii	"p_name\000"
 4080      6D6500
 4081              	.LASF56:
 4082 07a3 76745F74 		.ascii	"vt_time\000"
 4082      696D6500 
 4083              	.LASF74:
 4084 07ab 6D5F6E65 		.ascii	"m_next\000"
 4084      787400
 4085              	.LASF95:
 4086 07b2 52445452 		.ascii	"RDTR\000"
 4086      00
 4087              	.LASF194:
 4088 07b7 636D645F 		.ascii	"cmd_lightvalues\000"
 4088      6C696768 
 4088      7476616C 
 4088      75657300 
 4089              	.LASF91:
 4090 07c7 54445452 		.ascii	"TDTR\000"
 4090      00
 4091              	.LASF210:
 4092 07cc 433A5C55 		.ascii	"C:\\Users\\D\341niel\\git\\Smarty\\smarty\\firmware"
 4092      73657273 
 4092      5C44E16E 
 4092      69656C5C 
 4092      6769745C 
 4093 07f6 00       		.ascii	"\000"
 4094              	.LASF40:
 4095 07f7 705F6D73 		.ascii	"p_msg\000"
 4095      6700
 4096              	.LASF77:
 4097 07fd 656C5F6C 		.ascii	"el_listener\000"
 4097      69737465 
 4097      6E657200 
 4098              	.LASF33:
 4099 0809 705F7374 		.ascii	"p_state\000"
 4099      61746500 
 4100              		.ident	"GCC: (GNU Tools for ARM Embedded Processors) 4.7.4 20140401 (release) [ARM/embedded-4_7-br
ARM GAS  C:\Users\DNIEL~1\AppData\Local\Temp\ccbjUQiQ.s 			page 80


DEFINED SYMBOLS
                            *ABS*:00000000 light.c
C:\Users\DNIEL~1\AppData\Local\Temp\ccbjUQiQ.s:19     .text.lightInit:00000000 $t
C:\Users\DNIEL~1\AppData\Local\Temp\ccbjUQiQ.s:25     .text.lightInit:00000000 lightInit
C:\Users\DNIEL~1\AppData\Local\Temp\ccbjUQiQ.s:229    .data.pwmcfg:00000000 .LANCHOR0
C:\Users\DNIEL~1\AppData\Local\Temp\ccbjUQiQ.s:46     .text.lightCalc:00000000 $t
C:\Users\DNIEL~1\AppData\Local\Temp\ccbjUQiQ.s:52     .text.lightCalc:00000000 lightCalc
C:\Users\DNIEL~1\AppData\Local\Temp\ccbjUQiQ.s:222    .bss.ido:00000000 .LANCHOR1
C:\Users\DNIEL~1\AppData\Local\Temp\ccbjUQiQ.s:130    .text.cmd_lightvalues:00000000 $t
C:\Users\DNIEL~1\AppData\Local\Temp\ccbjUQiQ.s:136    .text.cmd_lightvalues:00000000 cmd_lightvalues
C:\Users\DNIEL~1\AppData\Local\Temp\ccbjUQiQ.s:211    .text.cmd_lightvalues:0000004c $d
C:\Users\DNIEL~1\AppData\Local\Temp\ccbjUQiQ.s:221    .bss.ido:00000000 $d
C:\Users\DNIEL~1\AppData\Local\Temp\ccbjUQiQ.s:225    .bss.ido:00000000 ido
C:\Users\DNIEL~1\AppData\Local\Temp\ccbjUQiQ.s:228    .data.pwmcfg:00000000 $d
C:\Users\DNIEL~1\AppData\Local\Temp\ccbjUQiQ.s:232    .data.pwmcfg:00000000 pwmcfg
C:\Users\DNIEL~1\AppData\Local\Temp\ccbjUQiQ.s:248    .rodata.str1.4:00000000 $d
                     .debug_frame:00000010 $d
C:\Users\DNIEL~1\AppData\Local\Temp\ccbjUQiQ.s:220    .text.cmd_lightvalues:00000064 $t

UNDEFINED SYMBOLS
PWMD4
pwmStart
vtlist
pwmEnableChannel
chprintf
chThdSleep
