ARM GAS  C:\Users\DNIEL~1\AppData\Local\Temp\cccMS60k.s 			page 1


   1              		.syntax unified
   2              		.cpu cortex-m4
   3              		.fpu softvfp
   4              		.eabi_attribute 20, 1
   5              		.eabi_attribute 21, 1
   6              		.eabi_attribute 23, 3
   7              		.eabi_attribute 24, 1
   8              		.eabi_attribute 25, 1
   9              		.eabi_attribute 26, 1
  10              		.eabi_attribute 30, 2
  11              		.eabi_attribute 18, 4
  12              		.thumb
  13              		.file	"light.c"
  14              		.section	.debug_abbrev,"",%progbits
  15              	.Ldebug_abbrev0:
  16              		.section	.debug_info,"",%progbits
  17              	.Ldebug_info0:
  18              		.section	.debug_line,"",%progbits
  19              	.Ldebug_line0:
  20 0000 D5030000 		.text
  20      02006403 
  20      00000201 
  20      FB0E0D00 
  20      01010101 
  21              	.Ltext0:
  22              		.cfi_sections	.debug_frame
  23              		.section	.text.chprintf,"ax",%progbits
  24              		.align	2
  25              		.p2align 4,,15
  26              		.thumb
  27              		.thumb_func
  28              		.type	chprintf, %function
  29              	chprintf:
  30              	.LFB118:
  31              		.file 1 "../../../ChibiOS/os/various/chprintf.h"
  32              		.loc 1 69 0
  33              		.cfi_startproc
  34              		@ args = 4, pretend = 12, frame = 8
  35              		@ frame_needed = 0, uses_anonymous_args = 1
  36              	.LVL0:
  37 0000 0EB4     		push	{r1, r2, r3}
  38              	.LCFI0:
  39              		.cfi_def_cfa_offset 12
  40 0002 00B5     		push	{lr}
  41              	.LCFI1:
  42              		.cfi_def_cfa_offset 16
  43 0004 82B0     		sub	sp, sp, #8
  44              	.LCFI2:
  45              		.cfi_def_cfa_offset 24
  46              		.loc 1 69 0
  47 0006 03AB     		add	r3, sp, #12
  48              		.cfi_offset 14, -16
  49              		.cfi_offset 3, -4
  50              		.cfi_offset 2, -8
  51              		.cfi_offset 1, -12
  52 0008 53F8041B 		ldr	r1, [r3], #4
  53              		.loc 1 73 0
ARM GAS  C:\Users\DNIEL~1\AppData\Local\Temp\cccMS60k.s 			page 2


  54 000c 1A46     		mov	r2, r3
  55              		.loc 1 72 0
  56 000e 0193     		str	r3, [sp, #4]
  57              		.loc 1 73 0
  58 0010 FFF7FEFF 		bl	chvprintf
  59              	.LVL1:
  60              		.loc 1 75 0
  61 0014 02B0     		add	sp, sp, #8
  62 0016 5DF804EB 		pop	{lr}
  63 001a 03B0     		add	sp, sp, #12
  64 001c 7047     		bx	lr
  65              		.cfi_endproc
  66              	.LFE118:
  67              		.size	chprintf, .-chprintf
  68 001e 00BF     		.section	.text.lightInit,"ax",%progbits
  69              		.align	2
  70              		.p2align 4,,15
  71              		.global	lightInit
  72              		.thumb
  73              		.thumb_func
  74              		.type	lightInit, %function
  75              	lightInit:
  76              	.LFB120:
  77              		.file 2 "src/light.c"
  78              		.loc 2 58 0
  79              		.cfi_startproc
  80              		@ args = 0, pretend = 0, frame = 0
  81              		@ frame_needed = 0, uses_anonymous_args = 0
  82              		@ link register save eliminated.
  83              		.loc 2 59 0
  84 0000 0148     		ldr	r0, .L3
  85 0002 0249     		ldr	r1, .L3+4
  86              		.loc 2 65 0
  87              		.loc 2 59 0
  88 0004 FFF7FEBF 		b	pwmStart
  89              	.L4:
  90              		.align	2
  91              	.L3:
  92 0008 00000000 		.word	PWMD4
  93 000c 00000000 		.word	.LANCHOR0
  94              		.cfi_endproc
  95              	.LFE120:
  96              		.size	lightInit, .-lightInit
  97              		.section	.text.lightCalc,"ax",%progbits
  98              		.align	2
  99              		.p2align 4,,15
 100              		.global	lightCalc
 101              		.thumb
 102              		.thumb_func
 103              		.type	lightCalc, %function
 104              	lightCalc:
 105              	.LFB121:
 106              		.loc 2 67 0
 107              		.cfi_startproc
 108              		@ args = 0, pretend = 0, frame = 0
 109              		@ frame_needed = 0, uses_anonymous_args = 0
 110 0000 70B5     		push	{r4, r5, r6, lr}
ARM GAS  C:\Users\DNIEL~1\AppData\Local\Temp\cccMS60k.s 			page 3


 111              	.LCFI3:
 112              		.cfi_def_cfa_offset 16
 113              		.loc 2 69 0
 114 0002 104C     		ldr	r4, .L6
 115              		.cfi_offset 14, -4
 116              		.cfi_offset 6, -8
 117              		.cfi_offset 5, -12
 118              		.cfi_offset 4, -16
 119 0004 1048     		ldr	r0, .L6+4
 120 0006 E368     		ldr	r3, [r4, #12]
 121              		.loc 2 72 0
 122 0008 104C     		ldr	r4, .L6+8
 123              		.loc 2 69 0
 124 000a D908     		lsrs	r1, r3, #3
 125 000c A0FB0115 		umull	r1, r5, r0, r1
 126 0010 0F4B     		ldr	r3, .L6+12
 127              		.loc 2 72 0
 128 0012 2289     		ldrh	r2, [r4, #8]
 129              		.loc 2 69 0
 130 0014 6D08     		lsrs	r5, r5, #1
 131 0016 1D60     		str	r5, [r3, #0]
 132              		.loc 2 72 0
 133 0018 2046     		mov	r0, r4
 134 001a 0021     		movs	r1, #0
 135 001c FFF7FEFF 		bl	pwmEnableChannel
 136              		.loc 2 78 0
 137 0020 2289     		ldrh	r2, [r4, #8]
 138 0022 0221     		movs	r1, #2
 139 0024 2046     		mov	r0, r4
 140 0026 5208     		lsrs	r2, r2, #1
 141 0028 FFF7FEFF 		bl	pwmEnableChannel
 142              		.loc 2 81 0
 143 002c 2089     		ldrh	r0, [r4, #8]
 144 002e 094B     		ldr	r3, .L6+16
 145 0030 83FB0012 		smull	r1, r2, r3, r0
 146 0034 9208     		lsrs	r2, r2, #2
 147 0036 2046     		mov	r0, r4
 148 0038 0321     		movs	r1, #3
 149              		.loc 2 82 0
 150 003a BDE87040 		pop	{r4, r5, r6, lr}
 151              		.loc 2 81 0
 152 003e FFF7FEBF 		b	pwmEnableChannel
 153              	.L7:
 154 0042 00BF     		.align	2
 155              	.L6:
 156 0044 00000000 		.word	vtlist
 157 0048 19866118 		.word	409044505
 158 004c 00000000 		.word	PWMD4
 159 0050 00000000 		.word	.LANCHOR1
 160 0054 67666666 		.word	1717986919
 161              		.cfi_endproc
 162              	.LFE121:
 163              		.size	lightCalc, .-lightCalc
 164 0058 AFF30080 		.section	.text.cmd_lightvalues,"ax",%progbits
 164      AFF30080 
 165              		.align	2
 166              		.p2align 4,,15
ARM GAS  C:\Users\DNIEL~1\AppData\Local\Temp\cccMS60k.s 			page 4


 167              		.global	cmd_lightvalues
 168              		.thumb
 169              		.thumb_func
 170              		.type	cmd_lightvalues, %function
 171              	cmd_lightvalues:
 172              	.LFB122:
 173              		.loc 2 84 0
 174              		.cfi_startproc
 175              		@ args = 0, pretend = 0, frame = 0
 176              		@ frame_needed = 0, uses_anonymous_args = 0
 177              	.LVL2:
 178 0000 38B5     		push	{r3, r4, r5, lr}
 179              	.LCFI4:
 180              		.cfi_def_cfa_offset 16
 181              		.loc 2 88 0
 182 0002 1349     		ldr	r1, .L12
 183              	.LVL3:
 184              		.loc 2 94 0
 185 0004 134D     		ldr	r5, .L12+4
 186              		.cfi_offset 14, -4
 187              		.cfi_offset 5, -8
 188              		.cfi_offset 4, -12
 189              		.cfi_offset 3, -16
 190              		.loc 2 84 0
 191 0006 0446     		mov	r4, r0
 192              		.loc 2 88 0
 193 0008 FFF7FEFF 		bl	chprintf
 194              	.LVL4:
 195              		.loc 2 89 0
 196 000c 2046     		mov	r0, r4
 197 000e 1249     		ldr	r1, .L12+8
 198 0010 FFF7FEFF 		bl	chprintf
 199              		.loc 2 90 0
 200 0014 12E0     		b	.L9
 201              	.L10:
 202              		.loc 2 91 0
 203 0016 0022     		movs	r2, #0
 204 0018 1346     		mov	r3, r2
 205 001a 1049     		ldr	r1, .L12+12
 206 001c 2046     		mov	r0, r4
 207 001e FFF7FEFF 		bl	chprintf
 208              		.loc 2 93 0
 209 0022 2046     		mov	r0, r4
 210 0024 0E49     		ldr	r1, .L12+16
 211 0026 FFF7FEFF 		bl	chprintf
 212              		.loc 2 94 0
 213 002a 2046     		mov	r0, r4
 214 002c 0D49     		ldr	r1, .L12+20
 215 002e 2A68     		ldr	r2, [r5, #0]
 216 0030 FFF7FEFF 		bl	chprintf
 217              		.loc 2 95 0
 218 0034 4FF47A70 		mov	r0, #1000
 219 0038 FFF7FEFF 		bl	chThdSleep
 220              	.L9:
 221              		.loc 2 90 0 discriminator 1
 222 003c 2168     		ldr	r1, [r4, #0]
 223 003e 2046     		mov	r0, r4
ARM GAS  C:\Users\DNIEL~1\AppData\Local\Temp\cccMS60k.s 			page 5


 224 0040 4B69     		ldr	r3, [r1, #20]
 225 0042 0021     		movs	r1, #0
 226 0044 9847     		blx	r3
 227 0046 B0F1FF3F 		cmp	r0, #-1
 228 004a E4D0     		beq	.L10
 229              		.loc 2 97 0
 230 004c 38BD     		pop	{r3, r4, r5, pc}
 231              	.L13:
 232 004e 00BF     		.align	2
 233              	.L12:
 234 0050 00000000 		.word	.LC0
 235 0054 00000000 		.word	.LANCHOR1
 236 0058 04000000 		.word	.LC1
 237 005c 0C000000 		.word	.LC2
 238 0060 18000000 		.word	.LC3
 239 0064 2C000000 		.word	.LC4
 240              		.cfi_endproc
 241              	.LFE122:
 242              		.size	cmd_lightvalues, .-cmd_lightvalues
 243 0068 AFF30080 		.section	.bss.ido,"aw",%nobits
 243      AFF30080 
 244              		.align	2
 245              		.set	.LANCHOR1,. + 0
 246              		.type	ido, %object
 247              		.size	ido, 4
 248              	ido:
 249 0000 00000000 		.space	4
 250              		.section	.data.pwmcfg,"aw",%progbits
 251              		.align	2
 252              		.set	.LANCHOR0,. + 0
 253              		.type	pwmcfg, %object
 254              		.size	pwmcfg, 52
 255              	pwmcfg:
 256 0000 40420F00 		.word	1000000
 257 0004 E803     		.short	1000
 258 0006 0000     		.space	2
 259 0008 00000000 		.word	0
 260 000c 01000000 		.word	1
 261 0010 00000000 		.word	0
 262 0014 01000000 		.word	1
 263 0018 00000000 		.word	0
 264 001c 01000000 		.word	1
 265 0020 00000000 		.word	0
 266 0024 01000000 		.word	1
 267 0028 00000000 		.word	0
 268 002c 00000000 		.word	0
 269 0030 00000000 		.word	0
 270              		.section	.rodata.str1.4,"aMS",%progbits,1
 271              		.align	2
 272              	.LC0:
 273 0000 1B6300   		.ascii	"\033c\000"
 274 0003 00       		.space	1
 275              	.LC1:
 276 0004 1B5B324A 		.ascii	"\033[2J\000"
 276      00
 277 0009 000000   		.space	3
 278              	.LC2:
ARM GAS  C:\Users\DNIEL~1\AppData\Local\Temp\cccMS60k.s 			page 6


 279 000c 1B5B2564 		.ascii	"\033[%d;%dH\000"
 279      3B256448 
 279      00
 280 0015 000000   		.space	3
 281              	.LC3:
 282 0018 2D2D2D2D 		.ascii	"---- PWM START ----\000"
 282      2050574D 
 282      20535441 
 282      5254202D 
 282      2D2D2D00 
 283              	.LC4:
 284 002c 69646F20 		.ascii	"ido : %x \015\012\000"
 284      3A202578 
 284      200D0A00 
 285              		.text
 286              	.Letext0:
 287              		.section	.debug_loc,"",%progbits
 288              	.Ldebug_loc0:
 289              	.LLST0:
 290 0000 00000000 		.4byte	.LFB118
 291 0004 02000000 		.4byte	.LCFI0
 292 0008 0200     		.2byte	0x2
 293 000a 7D       		.byte	0x7d
 294 000b 00       		.sleb128 0
 295 000c 02000000 		.4byte	.LCFI0
 296 0010 04000000 		.4byte	.LCFI1
 297 0014 0200     		.2byte	0x2
 298 0016 7D       		.byte	0x7d
 299 0017 0C       		.sleb128 12
 300 0018 04000000 		.4byte	.LCFI1
 301 001c 06000000 		.4byte	.LCFI2
 302 0020 0200     		.2byte	0x2
 303 0022 7D       		.byte	0x7d
 304 0023 10       		.sleb128 16
 305 0024 06000000 		.4byte	.LCFI2
 306 0028 1E000000 		.4byte	.LFE118
 307 002c 0200     		.2byte	0x2
 308 002e 7D       		.byte	0x7d
 309 002f 18       		.sleb128 24
 310 0030 00000000 		.4byte	0x0
 311 0034 00000000 		.4byte	0x0
 312              	.LLST1:
 313 0038 00000000 		.4byte	.LVL0
 314 003c 13000000 		.4byte	.LVL1-1
 315 0040 0100     		.2byte	0x1
 316 0042 50       		.byte	0x50
 317 0043 00000000 		.4byte	0x0
 318 0047 00000000 		.4byte	0x0
 319              	.LLST2:
 320 004b 00000000 		.4byte	.LFB121
 321 004f 02000000 		.4byte	.LCFI3
 322 0053 0200     		.2byte	0x2
 323 0055 7D       		.byte	0x7d
 324 0056 00       		.sleb128 0
 325 0057 02000000 		.4byte	.LCFI3
 326 005b 58000000 		.4byte	.LFE121
 327 005f 0200     		.2byte	0x2
ARM GAS  C:\Users\DNIEL~1\AppData\Local\Temp\cccMS60k.s 			page 7


 328 0061 7D       		.byte	0x7d
 329 0062 10       		.sleb128 16
 330 0063 00000000 		.4byte	0x0
 331 0067 00000000 		.4byte	0x0
 332              	.LLST3:
 333 006b 00000000 		.4byte	.LFB122
 334 006f 02000000 		.4byte	.LCFI4
 335 0073 0200     		.2byte	0x2
 336 0075 7D       		.byte	0x7d
 337 0076 00       		.sleb128 0
 338 0077 02000000 		.4byte	.LCFI4
 339 007b 68000000 		.4byte	.LFE122
 340 007f 0200     		.2byte	0x2
 341 0081 7D       		.byte	0x7d
 342 0082 10       		.sleb128 16
 343 0083 00000000 		.4byte	0x0
 344 0087 00000000 		.4byte	0x0
 345              	.LLST4:
 346 008b 00000000 		.4byte	.LVL2
 347 008f 0B000000 		.4byte	.LVL4-1
 348 0093 0100     		.2byte	0x1
 349 0095 50       		.byte	0x50
 350 0096 0B000000 		.4byte	.LVL4-1
 351 009a 68000000 		.4byte	.LFE122
 352 009e 0100     		.2byte	0x1
 353 00a0 54       		.byte	0x54
 354 00a1 00000000 		.4byte	0x0
 355 00a5 00000000 		.4byte	0x0
 356              	.LLST5:
 357 00a9 00000000 		.4byte	.LVL2
 358 00ad 04000000 		.4byte	.LVL3
 359 00b1 0100     		.2byte	0x1
 360 00b3 51       		.byte	0x51
 361 00b4 00000000 		.4byte	0x0
 362 00b8 00000000 		.4byte	0x0
 363              	.LLST6:
 364 00bc 00000000 		.4byte	.LVL2
 365 00c0 0B000000 		.4byte	.LVL4-1
 366 00c4 0100     		.2byte	0x1
 367 00c6 52       		.byte	0x52
 368 00c7 00000000 		.4byte	0x0
 369 00cb 00000000 		.4byte	0x0
 370              		.file 3 "c:\\program files (x86)\\codesourcery\\sourcery g++ lite\\bin\\../lib/gcc/arm-none-eabi/4
 371              		.file 4 "c:\\program files (x86)\\codesourcery\\sourcery g++ lite\\bin\\../lib/gcc/arm-none-eabi/4
 372              		.file 5 "../../../ChibiOS/os/ports/GCC/ARMCMx/chtypes.h"
 373              		.file 6 "../../../ChibiOS/os/kernel/include/chlists.h"
 374              		.file 7 "../../../ChibiOS/os/kernel/include/chthreads.h"
 375              		.file 8 "../../../ChibiOS/os/ports/GCC/ARMCMx/chcore_v7m.h"
 376              		.file 9 "../../../ChibiOS/os/kernel/include/chvt.h"
 377              		.file 10 "../../../ChibiOS/os/kernel/include/chschd.h"
 378              		.file 11 "../../../ChibiOS/os/kernel/include/chsem.h"
 379              		.file 12 "../../../ChibiOS/os/kernel/include/chmtx.h"
 380              		.file 13 "../../../ChibiOS/os/kernel/include/chevents.h"
 381              		.file 14 "../../../ChibiOS/os/kernel/include/chstreams.h"
 382              		.file 15 "../../../ChibiOS/os/hal/platforms/STM32F4xx/stm32f4xx.h"
 383              		.file 16 "../../../ChibiOS/os/hal/include/io_channel.h"
 384              		.file 17 "../../../ChibiOS/os/hal/include/can.h"
ARM GAS  C:\Users\DNIEL~1\AppData\Local\Temp\cccMS60k.s 			page 8


 385              		.file 18 "../../../ChibiOS/os/hal/platforms/STM32/can_lld.h"
 386              		.file 19 "../../../ChibiOS/os/hal/platforms/STM32/TIMv1/stm32_tim.h"
 387              		.file 20 "../../../ChibiOS/os/hal/include/pwm.h"
 388              		.file 21 "../../../ChibiOS/os/hal/platforms/STM32/TIMv1/pwm_lld.h"
 389              		.file 22 "c:\\program files (x86)\\codesourcery\\sourcery g++ lite\\bin\\../lib/gcc/arm-none-eabi/
 390              		.file 23 "<built-in>"
 391              		.file 24 "../../../ChibiOS/os/ports/common/ARMCMx/CMSIS/include/core_cm4.h"
 392              		.section	.debug_info
 393 0000 B9110000 		.4byte	0x11b9
 394 0004 0200     		.2byte	0x2
 395 0006 00000000 		.4byte	.Ldebug_abbrev0
 396 000a 04       		.byte	0x4
 397 000b 01       		.uleb128 0x1
 398 000c 50010000 		.4byte	.LASF190
 399 0010 01       		.byte	0x1
 400 0011 97010000 		.4byte	.LASF191
 401 0015 60040000 		.4byte	.LASF192
 402 0019 00000000 		.4byte	0x0
 403 001d 00000000 		.4byte	0x0
 404 0021 00000000 		.4byte	.Ldebug_ranges0+0x0
 405 0025 00000000 		.4byte	.Ldebug_line0
 406 0029 02       		.uleb128 0x2
 407 002a 04       		.byte	0x4
 408 002b 05       		.byte	0x5
 409 002c 696E7400 		.ascii	"int\000"
 410 0030 03       		.uleb128 0x3
 411 0031 12000000 		.4byte	.LASF2
 412 0035 03       		.byte	0x3
 413 0036 D3       		.byte	0xd3
 414 0037 3B000000 		.4byte	0x3b
 415 003b 04       		.uleb128 0x4
 416 003c 04       		.byte	0x4
 417 003d 07       		.byte	0x7
 418 003e 47020000 		.4byte	.LASF0
 419 0042 04       		.uleb128 0x4
 420 0043 01       		.byte	0x1
 421 0044 06       		.byte	0x6
 422 0045 F4000000 		.4byte	.LASF1
 423 0049 03       		.uleb128 0x3
 424 004a 96060000 		.4byte	.LASF3
 425 004e 04       		.byte	0x4
 426 004f 2A       		.byte	0x2a
 427 0050 54000000 		.4byte	0x54
 428 0054 04       		.uleb128 0x4
 429 0055 01       		.byte	0x1
 430 0056 08       		.byte	0x8
 431 0057 4A040000 		.4byte	.LASF4
 432 005b 04       		.uleb128 0x4
 433 005c 02       		.byte	0x2
 434 005d 05       		.byte	0x5
 435 005e BF040000 		.4byte	.LASF5
 436 0062 03       		.uleb128 0x3
 437 0063 B6010000 		.4byte	.LASF6
 438 0067 04       		.byte	0x4
 439 0068 36       		.byte	0x36
 440 0069 6D000000 		.4byte	0x6d
 441 006d 04       		.uleb128 0x4
ARM GAS  C:\Users\DNIEL~1\AppData\Local\Temp\cccMS60k.s 			page 9


 442 006e 02       		.byte	0x2
 443 006f 07       		.byte	0x7
 444 0070 A7020000 		.4byte	.LASF7
 445 0074 03       		.uleb128 0x3
 446 0075 42040000 		.4byte	.LASF8
 447 0079 04       		.byte	0x4
 448 007a 4F       		.byte	0x4f
 449 007b 7F000000 		.4byte	0x7f
 450 007f 04       		.uleb128 0x4
 451 0080 04       		.byte	0x4
 452 0081 05       		.byte	0x5
 453 0082 66000000 		.4byte	.LASF9
 454 0086 03       		.uleb128 0x3
 455 0087 49050000 		.4byte	.LASF10
 456 008b 04       		.byte	0x4
 457 008c 50       		.byte	0x50
 458 008d 91000000 		.4byte	0x91
 459 0091 04       		.uleb128 0x4
 460 0092 04       		.byte	0x4
 461 0093 07       		.byte	0x7
 462 0094 19010000 		.4byte	.LASF11
 463 0098 04       		.uleb128 0x4
 464 0099 08       		.byte	0x8
 465 009a 05       		.byte	0x5
 466 009b A8010000 		.4byte	.LASF12
 467 009f 03       		.uleb128 0x3
 468 00a0 20000000 		.4byte	.LASF13
 469 00a4 04       		.byte	0x4
 470 00a5 78       		.byte	0x78
 471 00a6 AA000000 		.4byte	0xaa
 472 00aa 04       		.uleb128 0x4
 473 00ab 08       		.byte	0x8
 474 00ac 07       		.byte	0x7
 475 00ad 33010000 		.4byte	.LASF14
 476 00b1 04       		.uleb128 0x4
 477 00b2 01       		.byte	0x1
 478 00b3 02       		.byte	0x2
 479 00b4 3C040000 		.4byte	.LASF15
 480 00b8 03       		.uleb128 0x3
 481 00b9 F9020000 		.4byte	.LASF16
 482 00bd 05       		.byte	0x5
 483 00be 2C       		.byte	0x2c
 484 00bf 49000000 		.4byte	0x49
 485 00c3 03       		.uleb128 0x3
 486 00c4 78010000 		.4byte	.LASF17
 487 00c8 05       		.byte	0x5
 488 00c9 2D       		.byte	0x2d
 489 00ca 49000000 		.4byte	0x49
 490 00ce 03       		.uleb128 0x3
 491 00cf F4030000 		.4byte	.LASF18
 492 00d3 05       		.byte	0x5
 493 00d4 2E       		.byte	0x2e
 494 00d5 49000000 		.4byte	0x49
 495 00d9 03       		.uleb128 0x3
 496 00da 63010000 		.4byte	.LASF19
 497 00de 05       		.byte	0x5
 498 00df 2F       		.byte	0x2f
ARM GAS  C:\Users\DNIEL~1\AppData\Local\Temp\cccMS60k.s 			page 10


 499 00e0 49000000 		.4byte	0x49
 500 00e4 03       		.uleb128 0x3
 501 00e5 29040000 		.4byte	.LASF20
 502 00e9 05       		.byte	0x5
 503 00ea 30       		.byte	0x30
 504 00eb 86000000 		.4byte	0x86
 505 00ef 03       		.uleb128 0x3
 506 00f0 E4020000 		.4byte	.LASF21
 507 00f4 05       		.byte	0x5
 508 00f5 31       		.byte	0x31
 509 00f6 74000000 		.4byte	0x74
 510 00fa 03       		.uleb128 0x3
 511 00fb 1D030000 		.4byte	.LASF22
 512 00ff 05       		.byte	0x5
 513 0100 33       		.byte	0x33
 514 0101 86000000 		.4byte	0x86
 515 0105 03       		.uleb128 0x3
 516 0106 45060000 		.4byte	.LASF23
 517 010a 05       		.byte	0x5
 518 010b 34       		.byte	0x34
 519 010c 86000000 		.4byte	0x86
 520 0110 03       		.uleb128 0x3
 521 0111 BA050000 		.4byte	.LASF24
 522 0115 05       		.byte	0x5
 523 0116 35       		.byte	0x35
 524 0117 86000000 		.4byte	0x86
 525 011b 03       		.uleb128 0x3
 526 011c 41020000 		.4byte	.LASF25
 527 0120 05       		.byte	0x5
 528 0121 36       		.byte	0x36
 529 0122 74000000 		.4byte	0x74
 530 0126 03       		.uleb128 0x3
 531 0127 22050000 		.4byte	.LASF26
 532 012b 06       		.byte	0x6
 533 012c 2A       		.byte	0x2a
 534 012d 31010000 		.4byte	0x131
 535 0131 05       		.uleb128 0x5
 536 0132 22050000 		.4byte	.LASF26
 537 0136 48       		.byte	0x48
 538 0137 07       		.byte	0x7
 539 0138 5E       		.byte	0x5e
 540 0139 56020000 		.4byte	0x256
 541 013d 06       		.uleb128 0x6
 542 013e F1040000 		.4byte	.LASF27
 543 0142 07       		.byte	0x7
 544 0143 5F       		.byte	0x5f
 545 0144 7B020000 		.4byte	0x27b
 546 0148 02       		.byte	0x2
 547 0149 23       		.byte	0x23
 548 014a 00       		.uleb128 0x0
 549 014b 06       		.uleb128 0x6
 550 014c 4C030000 		.4byte	.LASF28
 551 0150 07       		.byte	0x7
 552 0151 61       		.byte	0x61
 553 0152 7B020000 		.4byte	0x27b
 554 0156 02       		.byte	0x2
 555 0157 23       		.byte	0x23
ARM GAS  C:\Users\DNIEL~1\AppData\Local\Temp\cccMS60k.s 			page 11


 556 0158 04       		.uleb128 0x4
 557 0159 06       		.uleb128 0x6
 558 015a CC000000 		.4byte	.LASF29
 559 015e 07       		.byte	0x7
 560 015f 63       		.byte	0x63
 561 0160 E4000000 		.4byte	0xe4
 562 0164 02       		.byte	0x2
 563 0165 23       		.byte	0x23
 564 0166 08       		.uleb128 0x8
 565 0167 06       		.uleb128 0x6
 566 0168 10070000 		.4byte	.LASF30
 567 016c 07       		.byte	0x7
 568 016d 64       		.byte	0x64
 569 016e 54030000 		.4byte	0x354
 570 0172 02       		.byte	0x2
 571 0173 23       		.byte	0x23
 572 0174 0C       		.uleb128 0xc
 573 0175 06       		.uleb128 0x6
 574 0176 D2010000 		.4byte	.LASF31
 575 017a 07       		.byte	0x7
 576 017b 66       		.byte	0x66
 577 017c 7B020000 		.4byte	0x27b
 578 0180 02       		.byte	0x2
 579 0181 23       		.byte	0x23
 580 0182 10       		.uleb128 0x10
 581 0183 06       		.uleb128 0x6
 582 0184 DB040000 		.4byte	.LASF32
 583 0188 07       		.byte	0x7
 584 0189 67       		.byte	0x67
 585 018a 7B020000 		.4byte	0x27b
 586 018e 02       		.byte	0x2
 587 018f 23       		.byte	0x23
 588 0190 14       		.uleb128 0x14
 589 0191 06       		.uleb128 0x6
 590 0192 5D060000 		.4byte	.LASF33
 591 0196 07       		.byte	0x7
 592 0197 6E       		.byte	0x6e
 593 0198 E3050000 		.4byte	0x5e3
 594 019c 02       		.byte	0x2
 595 019d 23       		.byte	0x23
 596 019e 18       		.uleb128 0x18
 597 019f 06       		.uleb128 0x6
 598 01a0 C9040000 		.4byte	.LASF34
 599 01a4 07       		.byte	0x7
 600 01a5 79       		.byte	0x79
 601 01a6 C3000000 		.4byte	0xc3
 602 01aa 02       		.byte	0x2
 603 01ab 23       		.byte	0x23
 604 01ac 1C       		.uleb128 0x1c
 605 01ad 06       		.uleb128 0x6
 606 01ae 10050000 		.4byte	.LASF35
 607 01b2 07       		.byte	0x7
 608 01b3 7D       		.byte	0x7d
 609 01b4 B8000000 		.4byte	0xb8
 610 01b8 02       		.byte	0x2
 611 01b9 23       		.byte	0x23
 612 01ba 1D       		.uleb128 0x1d
ARM GAS  C:\Users\DNIEL~1\AppData\Local\Temp\cccMS60k.s 			page 12


 613 01bb 06       		.uleb128 0x6
 614 01bc 94030000 		.4byte	.LASF36
 615 01c0 07       		.byte	0x7
 616 01c1 82       		.byte	0x82
 617 01c2 CE000000 		.4byte	0xce
 618 01c6 02       		.byte	0x2
 619 01c7 23       		.byte	0x23
 620 01c8 1E       		.uleb128 0x1e
 621 01c9 06       		.uleb128 0x6
 622 01ca D1040000 		.4byte	.LASF37
 623 01ce 07       		.byte	0x7
 624 01cf 88       		.byte	0x88
 625 01d0 D9000000 		.4byte	0xd9
 626 01d4 02       		.byte	0x2
 627 01d5 23       		.byte	0x23
 628 01d6 1F       		.uleb128 0x1f
 629 01d7 06       		.uleb128 0x6
 630 01d8 F3050000 		.4byte	.LASF38
 631 01dc 07       		.byte	0x7
 632 01dd 8F       		.byte	0x8f
 633 01de 3E040000 		.4byte	0x43e
 634 01e2 02       		.byte	0x2
 635 01e3 23       		.byte	0x23
 636 01e4 20       		.uleb128 0x20
 637 01e5 07       		.uleb128 0x7
 638 01e6 705F7500 		.ascii	"p_u\000"
 639 01ea 07       		.byte	0x7
 640 01eb B4       		.byte	0xb4
 641 01ec AE050000 		.4byte	0x5ae
 642 01f0 02       		.byte	0x2
 643 01f1 23       		.byte	0x23
 644 01f2 24       		.uleb128 0x24
 645 01f3 06       		.uleb128 0x6
 646 01f4 16070000 		.4byte	.LASF39
 647 01f8 07       		.byte	0x7
 648 01f9 B9       		.byte	0xb9
 649 01fa A3020000 		.4byte	0x2a3
 650 01fe 02       		.byte	0x2
 651 01ff 23       		.byte	0x23
 652 0200 28       		.uleb128 0x28
 653 0201 06       		.uleb128 0x6
 654 0202 22060000 		.4byte	.LASF40
 655 0206 07       		.byte	0x7
 656 0207 BF       		.byte	0xbf
 657 0208 81020000 		.4byte	0x281
 658 020c 02       		.byte	0x2
 659 020d 23       		.byte	0x23
 660 020e 2C       		.uleb128 0x2c
 661 020f 06       		.uleb128 0x6
 662 0210 EB060000 		.4byte	.LASF41
 663 0214 07       		.byte	0x7
 664 0215 C3       		.byte	0xc3
 665 0216 EF000000 		.4byte	0xef
 666 021a 02       		.byte	0x2
 667 021b 23       		.byte	0x23
 668 021c 34       		.uleb128 0x34
 669 021d 06       		.uleb128 0x6
ARM GAS  C:\Users\DNIEL~1\AppData\Local\Temp\cccMS60k.s 			page 13


 670 021e 33050000 		.4byte	.LASF42
 671 0222 07       		.byte	0x7
 672 0223 C9       		.byte	0xc9
 673 0224 FA000000 		.4byte	0xfa
 674 0228 02       		.byte	0x2
 675 0229 23       		.byte	0x23
 676 022a 38       		.uleb128 0x38
 677 022b 06       		.uleb128 0x6
 678 022c B5040000 		.4byte	.LASF43
 679 0230 07       		.byte	0x7
 680 0231 D0       		.byte	0xd0
 681 0232 F5050000 		.4byte	0x5f5
 682 0236 02       		.byte	0x2
 683 0237 23       		.byte	0x23
 684 0238 3C       		.uleb128 0x3c
 685 0239 06       		.uleb128 0x6
 686 023a C4050000 		.4byte	.LASF44
 687 023e 07       		.byte	0x7
 688 023f D4       		.byte	0xd4
 689 0240 E4000000 		.4byte	0xe4
 690 0244 02       		.byte	0x2
 691 0245 23       		.byte	0x23
 692 0246 40       		.uleb128 0x40
 693 0247 06       		.uleb128 0x6
 694 0248 2B010000 		.4byte	.LASF45
 695 024c 07       		.byte	0x7
 696 024d DA       		.byte	0xda
 697 024e B9020000 		.4byte	0x2b9
 698 0252 02       		.byte	0x2
 699 0253 23       		.byte	0x23
 700 0254 44       		.uleb128 0x44
 701 0255 00       		.byte	0x0
 702 0256 08       		.uleb128 0x8
 703 0257 08       		.byte	0x8
 704 0258 06       		.byte	0x6
 705 0259 61       		.byte	0x61
 706 025a 7B020000 		.4byte	0x27b
 707 025e 06       		.uleb128 0x6
 708 025f F1040000 		.4byte	.LASF27
 709 0263 06       		.byte	0x6
 710 0264 62       		.byte	0x62
 711 0265 7B020000 		.4byte	0x27b
 712 0269 02       		.byte	0x2
 713 026a 23       		.byte	0x23
 714 026b 00       		.uleb128 0x0
 715 026c 06       		.uleb128 0x6
 716 026d 4C030000 		.4byte	.LASF28
 717 0271 06       		.byte	0x6
 718 0272 64       		.byte	0x64
 719 0273 7B020000 		.4byte	0x27b
 720 0277 02       		.byte	0x2
 721 0278 23       		.byte	0x23
 722 0279 04       		.uleb128 0x4
 723 027a 00       		.byte	0x0
 724 027b 09       		.uleb128 0x9
 725 027c 04       		.byte	0x4
 726 027d 26010000 		.4byte	0x126
ARM GAS  C:\Users\DNIEL~1\AppData\Local\Temp\cccMS60k.s 			page 14


 727 0281 03       		.uleb128 0x3
 728 0282 84000000 		.4byte	.LASF46
 729 0286 06       		.byte	0x6
 730 0287 66       		.byte	0x66
 731 0288 56020000 		.4byte	0x256
 732 028c 08       		.uleb128 0x8
 733 028d 04       		.byte	0x4
 734 028e 06       		.byte	0x6
 735 028f 6B       		.byte	0x6b
 736 0290 A3020000 		.4byte	0x2a3
 737 0294 06       		.uleb128 0x6
 738 0295 F1040000 		.4byte	.LASF27
 739 0299 06       		.byte	0x6
 740 029a 6D       		.byte	0x6d
 741 029b 7B020000 		.4byte	0x27b
 742 029f 02       		.byte	0x2
 743 02a0 23       		.byte	0x23
 744 02a1 00       		.uleb128 0x0
 745 02a2 00       		.byte	0x0
 746 02a3 03       		.uleb128 0x3
 747 02a4 01030000 		.4byte	.LASF47
 748 02a8 06       		.byte	0x6
 749 02a9 70       		.byte	0x70
 750 02aa 8C020000 		.4byte	0x28c
 751 02ae 03       		.uleb128 0x3
 752 02af 07020000 		.4byte	.LASF48
 753 02b3 08       		.byte	0x8
 754 02b4 E5       		.byte	0xe5
 755 02b5 B9020000 		.4byte	0x2b9
 756 02b9 0A       		.uleb128 0xa
 757 02ba 04       		.byte	0x4
 758 02bb 03       		.uleb128 0x3
 759 02bc 2E030000 		.4byte	.LASF49
 760 02c0 08       		.byte	0x8
 761 02c1 EB       		.byte	0xeb
 762 02c2 9F000000 		.4byte	0x9f
 763 02c6 0B       		.uleb128 0xb
 764 02c7 1B060000 		.4byte	.LASF50
 765 02cb 24       		.byte	0x24
 766 02cc 08       		.byte	0x8
 767 02cd 0C01     		.2byte	0x10c
 768 02cf 54030000 		.4byte	0x354
 769 02d3 0C       		.uleb128 0xc
 770 02d4 723400   		.ascii	"r4\000"
 771 02d7 08       		.byte	0x8
 772 02d8 1F01     		.2byte	0x11f
 773 02da AE020000 		.4byte	0x2ae
 774 02de 02       		.byte	0x2
 775 02df 23       		.byte	0x23
 776 02e0 00       		.uleb128 0x0
 777 02e1 0C       		.uleb128 0xc
 778 02e2 723500   		.ascii	"r5\000"
 779 02e5 08       		.byte	0x8
 780 02e6 2001     		.2byte	0x120
 781 02e8 AE020000 		.4byte	0x2ae
 782 02ec 02       		.byte	0x2
 783 02ed 23       		.byte	0x23
ARM GAS  C:\Users\DNIEL~1\AppData\Local\Temp\cccMS60k.s 			page 15


 784 02ee 04       		.uleb128 0x4
 785 02ef 0C       		.uleb128 0xc
 786 02f0 723600   		.ascii	"r6\000"
 787 02f3 08       		.byte	0x8
 788 02f4 2101     		.2byte	0x121
 789 02f6 AE020000 		.4byte	0x2ae
 790 02fa 02       		.byte	0x2
 791 02fb 23       		.byte	0x23
 792 02fc 08       		.uleb128 0x8
 793 02fd 0C       		.uleb128 0xc
 794 02fe 723700   		.ascii	"r7\000"
 795 0301 08       		.byte	0x8
 796 0302 2201     		.2byte	0x122
 797 0304 AE020000 		.4byte	0x2ae
 798 0308 02       		.byte	0x2
 799 0309 23       		.byte	0x23
 800 030a 0C       		.uleb128 0xc
 801 030b 0C       		.uleb128 0xc
 802 030c 723800   		.ascii	"r8\000"
 803 030f 08       		.byte	0x8
 804 0310 2301     		.2byte	0x123
 805 0312 AE020000 		.4byte	0x2ae
 806 0316 02       		.byte	0x2
 807 0317 23       		.byte	0x23
 808 0318 10       		.uleb128 0x10
 809 0319 0C       		.uleb128 0xc
 810 031a 723900   		.ascii	"r9\000"
 811 031d 08       		.byte	0x8
 812 031e 2401     		.2byte	0x124
 813 0320 AE020000 		.4byte	0x2ae
 814 0324 02       		.byte	0x2
 815 0325 23       		.byte	0x23
 816 0326 14       		.uleb128 0x14
 817 0327 0C       		.uleb128 0xc
 818 0328 72313000 		.ascii	"r10\000"
 819 032c 08       		.byte	0x8
 820 032d 2501     		.2byte	0x125
 821 032f AE020000 		.4byte	0x2ae
 822 0333 02       		.byte	0x2
 823 0334 23       		.byte	0x23
 824 0335 18       		.uleb128 0x18
 825 0336 0C       		.uleb128 0xc
 826 0337 72313100 		.ascii	"r11\000"
 827 033b 08       		.byte	0x8
 828 033c 2601     		.2byte	0x126
 829 033e AE020000 		.4byte	0x2ae
 830 0342 02       		.byte	0x2
 831 0343 23       		.byte	0x23
 832 0344 1C       		.uleb128 0x1c
 833 0345 0C       		.uleb128 0xc
 834 0346 6C7200   		.ascii	"lr\000"
 835 0349 08       		.byte	0x8
 836 034a 2701     		.2byte	0x127
 837 034c AE020000 		.4byte	0x2ae
 838 0350 02       		.byte	0x2
 839 0351 23       		.byte	0x23
 840 0352 20       		.uleb128 0x20
ARM GAS  C:\Users\DNIEL~1\AppData\Local\Temp\cccMS60k.s 			page 16


 841 0353 00       		.byte	0x0
 842 0354 0B       		.uleb128 0xb
 843 0355 9F020000 		.4byte	.LASF51
 844 0359 04       		.byte	0x4
 845 035a 08       		.byte	0x8
 846 035b 3101     		.2byte	0x131
 847 035d 71030000 		.4byte	0x371
 848 0361 0C       		.uleb128 0xc
 849 0362 72313300 		.ascii	"r13\000"
 850 0366 08       		.byte	0x8
 851 0367 3201     		.2byte	0x132
 852 0369 71030000 		.4byte	0x371
 853 036d 02       		.byte	0x2
 854 036e 23       		.byte	0x23
 855 036f 00       		.uleb128 0x0
 856 0370 00       		.byte	0x0
 857 0371 09       		.uleb128 0x9
 858 0372 04       		.byte	0x4
 859 0373 C6020000 		.4byte	0x2c6
 860 0377 0D       		.uleb128 0xd
 861 0378 86000000 		.4byte	0x86
 862 037c 03       		.uleb128 0x3
 863 037d CF050000 		.4byte	.LASF52
 864 0381 09       		.byte	0x9
 865 0382 58       		.byte	0x58
 866 0383 87030000 		.4byte	0x387
 867 0387 09       		.uleb128 0x9
 868 0388 04       		.byte	0x4
 869 0389 8D030000 		.4byte	0x38d
 870 038d 0E       		.uleb128 0xe
 871 038e 01       		.byte	0x1
 872 038f 99030000 		.4byte	0x399
 873 0393 0F       		.uleb128 0xf
 874 0394 B9020000 		.4byte	0x2b9
 875 0398 00       		.byte	0x0
 876 0399 03       		.uleb128 0x3
 877 039a 00000000 		.4byte	.LASF53
 878 039e 09       		.byte	0x9
 879 039f 5D       		.byte	0x5d
 880 03a0 A4030000 		.4byte	0x3a4
 881 03a4 05       		.uleb128 0x5
 882 03a5 00000000 		.4byte	.LASF53
 883 03a9 14       		.byte	0x14
 884 03aa 09       		.byte	0x9
 885 03ab 64       		.byte	0x64
 886 03ac F7030000 		.4byte	0x3f7
 887 03b0 06       		.uleb128 0x6
 888 03b1 5A020000 		.4byte	.LASF54
 889 03b5 09       		.byte	0x9
 890 03b6 65       		.byte	0x65
 891 03b7 F7030000 		.4byte	0x3f7
 892 03bb 02       		.byte	0x2
 893 03bc 23       		.byte	0x23
 894 03bd 00       		.uleb128 0x0
 895 03be 06       		.uleb128 0x6
 896 03bf 10020000 		.4byte	.LASF55
 897 03c3 09       		.byte	0x9
ARM GAS  C:\Users\DNIEL~1\AppData\Local\Temp\cccMS60k.s 			page 17


 898 03c4 67       		.byte	0x67
 899 03c5 F7030000 		.4byte	0x3f7
 900 03c9 02       		.byte	0x2
 901 03ca 23       		.byte	0x23
 902 03cb 04       		.uleb128 0x4
 903 03cc 06       		.uleb128 0x6
 904 03cd 44030000 		.4byte	.LASF56
 905 03d1 09       		.byte	0x9
 906 03d2 69       		.byte	0x69
 907 03d3 10010000 		.4byte	0x110
 908 03d7 02       		.byte	0x2
 909 03d8 23       		.byte	0x23
 910 03d9 08       		.uleb128 0x8
 911 03da 06       		.uleb128 0x6
 912 03db 53030000 		.4byte	.LASF57
 913 03df 09       		.byte	0x9
 914 03e0 6A       		.byte	0x6a
 915 03e1 7C030000 		.4byte	0x37c
 916 03e5 02       		.byte	0x2
 917 03e6 23       		.byte	0x23
 918 03e7 0C       		.uleb128 0xc
 919 03e8 06       		.uleb128 0x6
 920 03e9 34060000 		.4byte	.LASF58
 921 03ed 09       		.byte	0x9
 922 03ee 6C       		.byte	0x6c
 923 03ef B9020000 		.4byte	0x2b9
 924 03f3 02       		.byte	0x2
 925 03f4 23       		.byte	0x23
 926 03f5 10       		.uleb128 0x10
 927 03f6 00       		.byte	0x0
 928 03f7 09       		.uleb128 0x9
 929 03f8 04       		.byte	0x4
 930 03f9 99030000 		.4byte	0x399
 931 03fd 08       		.uleb128 0x8
 932 03fe 10       		.byte	0x10
 933 03ff 09       		.byte	0x9
 934 0400 76       		.byte	0x76
 935 0401 3E040000 		.4byte	0x43e
 936 0405 06       		.uleb128 0x6
 937 0406 5A020000 		.4byte	.LASF54
 938 040a 09       		.byte	0x9
 939 040b 77       		.byte	0x77
 940 040c F7030000 		.4byte	0x3f7
 941 0410 02       		.byte	0x2
 942 0411 23       		.byte	0x23
 943 0412 00       		.uleb128 0x0
 944 0413 06       		.uleb128 0x6
 945 0414 10020000 		.4byte	.LASF55
 946 0418 09       		.byte	0x9
 947 0419 79       		.byte	0x79
 948 041a F7030000 		.4byte	0x3f7
 949 041e 02       		.byte	0x2
 950 041f 23       		.byte	0x23
 951 0420 04       		.uleb128 0x4
 952 0421 06       		.uleb128 0x6
 953 0422 44030000 		.4byte	.LASF56
 954 0426 09       		.byte	0x9
ARM GAS  C:\Users\DNIEL~1\AppData\Local\Temp\cccMS60k.s 			page 18


 955 0427 7B       		.byte	0x7b
 956 0428 10010000 		.4byte	0x110
 957 042c 02       		.byte	0x2
 958 042d 23       		.byte	0x23
 959 042e 08       		.uleb128 0x8
 960 042f 06       		.uleb128 0x6
 961 0430 5A050000 		.4byte	.LASF59
 962 0434 09       		.byte	0x9
 963 0435 7C       		.byte	0x7c
 964 0436 3E040000 		.4byte	0x43e
 965 043a 02       		.byte	0x2
 966 043b 23       		.byte	0x23
 967 043c 0C       		.uleb128 0xc
 968 043d 00       		.byte	0x0
 969 043e 0D       		.uleb128 0xd
 970 043f 10010000 		.4byte	0x110
 971 0443 03       		.uleb128 0x3
 972 0444 7A030000 		.4byte	.LASF60
 973 0448 09       		.byte	0x9
 974 0449 7D       		.byte	0x7d
 975 044a FD030000 		.4byte	0x3fd
 976 044e 08       		.uleb128 0x8
 977 044f 1C       		.byte	0x1c
 978 0450 0A       		.byte	0xa
 979 0451 5E       		.byte	0x5e
 980 0452 AB040000 		.4byte	0x4ab
 981 0456 06       		.uleb128 0x6
 982 0457 52050000 		.4byte	.LASF61
 983 045b 0A       		.byte	0xa
 984 045c 5F       		.byte	0x5f
 985 045d 81020000 		.4byte	0x281
 986 0461 02       		.byte	0x2
 987 0462 23       		.byte	0x23
 988 0463 00       		.uleb128 0x0
 989 0464 06       		.uleb128 0x6
 990 0465 E3040000 		.4byte	.LASF62
 991 0469 0A       		.byte	0xa
 992 046a 60       		.byte	0x60
 993 046b E4000000 		.4byte	0xe4
 994 046f 02       		.byte	0x2
 995 0470 23       		.byte	0x23
 996 0471 08       		.uleb128 0x8
 997 0472 06       		.uleb128 0x6
 998 0473 FA050000 		.4byte	.LASF63
 999 0477 0A       		.byte	0xa
 1000 0478 62       		.byte	0x62
 1001 0479 54030000 		.4byte	0x354
 1002 047d 02       		.byte	0x2
 1003 047e 23       		.byte	0x23
 1004 047f 0C       		.uleb128 0xc
 1005 0480 06       		.uleb128 0x6
 1006 0481 FF010000 		.4byte	.LASF64
 1007 0485 0A       		.byte	0xa
 1008 0486 65       		.byte	0x65
 1009 0487 7B020000 		.4byte	0x27b
 1010 048b 02       		.byte	0x2
 1011 048c 23       		.byte	0x23
ARM GAS  C:\Users\DNIEL~1\AppData\Local\Temp\cccMS60k.s 			page 19


 1012 048d 10       		.uleb128 0x10
 1013 048e 06       		.uleb128 0x6
 1014 048f A5030000 		.4byte	.LASF65
 1015 0493 0A       		.byte	0xa
 1016 0494 66       		.byte	0x66
 1017 0495 7B020000 		.4byte	0x27b
 1018 0499 02       		.byte	0x2
 1019 049a 23       		.byte	0x23
 1020 049b 14       		.uleb128 0x14
 1021 049c 06       		.uleb128 0x6
 1022 049d 9B030000 		.4byte	.LASF66
 1023 04a1 0A       		.byte	0xa
 1024 04a2 69       		.byte	0x69
 1025 04a3 7B020000 		.4byte	0x27b
 1026 04a7 02       		.byte	0x2
 1027 04a8 23       		.byte	0x23
 1028 04a9 18       		.uleb128 0x18
 1029 04aa 00       		.byte	0x0
 1030 04ab 03       		.uleb128 0x3
 1031 04ac 6E060000 		.4byte	.LASF67
 1032 04b0 0A       		.byte	0xa
 1033 04b1 6B       		.byte	0x6b
 1034 04b2 4E040000 		.4byte	0x44e
 1035 04b6 05       		.uleb128 0x5
 1036 04b7 3B060000 		.4byte	.LASF68
 1037 04bb 0C       		.byte	0xc
 1038 04bc 0B       		.byte	0xb
 1039 04bd 2C       		.byte	0x2c
 1040 04be DF040000 		.4byte	0x4df
 1041 04c2 06       		.uleb128 0x6
 1042 04c3 DA010000 		.4byte	.LASF69
 1043 04c7 0B       		.byte	0xb
 1044 04c8 2D       		.byte	0x2d
 1045 04c9 81020000 		.4byte	0x281
 1046 04cd 02       		.byte	0x2
 1047 04ce 23       		.byte	0x23
 1048 04cf 00       		.uleb128 0x0
 1049 04d0 06       		.uleb128 0x6
 1050 04d1 93020000 		.4byte	.LASF70
 1051 04d5 0B       		.byte	0xb
 1052 04d6 2F       		.byte	0x2f
 1053 04d7 1B010000 		.4byte	0x11b
 1054 04db 02       		.byte	0x2
 1055 04dc 23       		.byte	0x23
 1056 04dd 08       		.uleb128 0x8
 1057 04de 00       		.byte	0x0
 1058 04df 03       		.uleb128 0x3
 1059 04e0 3B060000 		.4byte	.LASF68
 1060 04e4 0B       		.byte	0xb
 1061 04e5 30       		.byte	0x30
 1062 04e6 B6040000 		.4byte	0x4b6
 1063 04ea 05       		.uleb128 0x5
 1064 04eb 99020000 		.4byte	.LASF71
 1065 04ef 10       		.byte	0x10
 1066 04f0 0C       		.byte	0xc
 1067 04f1 2C       		.byte	0x2c
 1068 04f2 21050000 		.4byte	0x521
ARM GAS  C:\Users\DNIEL~1\AppData\Local\Temp\cccMS60k.s 			page 20


 1069 04f6 06       		.uleb128 0x6
 1070 04f7 58040000 		.4byte	.LASF72
 1071 04fb 0C       		.byte	0xc
 1072 04fc 2D       		.byte	0x2d
 1073 04fd 81020000 		.4byte	0x281
 1074 0501 02       		.byte	0x2
 1075 0502 23       		.byte	0x23
 1076 0503 00       		.uleb128 0x0
 1077 0504 06       		.uleb128 0x6
 1078 0505 01070000 		.4byte	.LASF73
 1079 0509 0C       		.byte	0xc
 1080 050a 2F       		.byte	0x2f
 1081 050b 7B020000 		.4byte	0x27b
 1082 050f 02       		.byte	0x2
 1083 0510 23       		.byte	0x23
 1084 0511 08       		.uleb128 0x8
 1085 0512 06       		.uleb128 0x6
 1086 0513 B3050000 		.4byte	.LASF74
 1087 0517 0C       		.byte	0xc
 1088 0518 31       		.byte	0x31
 1089 0519 21050000 		.4byte	0x521
 1090 051d 02       		.byte	0x2
 1091 051e 23       		.byte	0x23
 1092 051f 0C       		.uleb128 0xc
 1093 0520 00       		.byte	0x0
 1094 0521 09       		.uleb128 0x9
 1095 0522 04       		.byte	0x4
 1096 0523 EA040000 		.4byte	0x4ea
 1097 0527 03       		.uleb128 0x3
 1098 0528 99020000 		.4byte	.LASF71
 1099 052c 0C       		.byte	0xc
 1100 052d 33       		.byte	0x33
 1101 052e EA040000 		.4byte	0x4ea
 1102 0532 03       		.uleb128 0x3
 1103 0533 C8060000 		.4byte	.LASF75
 1104 0537 0D       		.byte	0xd
 1105 0538 2C       		.byte	0x2c
 1106 0539 3D050000 		.4byte	0x53d
 1107 053d 05       		.uleb128 0x5
 1108 053e C8060000 		.4byte	.LASF75
 1109 0542 10       		.byte	0x10
 1110 0543 0D       		.byte	0xd
 1111 0544 31       		.byte	0x31
 1112 0545 82050000 		.4byte	0x582
 1113 0549 06       		.uleb128 0x6
 1114 054a EA020000 		.4byte	.LASF76
 1115 054e 0D       		.byte	0xd
 1116 054f 32       		.byte	0x32
 1117 0550 82050000 		.4byte	0x582
 1118 0554 02       		.byte	0x2
 1119 0555 23       		.byte	0x23
 1120 0556 00       		.uleb128 0x0
 1121 0557 06       		.uleb128 0x6
 1122 0558 A0040000 		.4byte	.LASF77
 1123 055c 0D       		.byte	0xd
 1124 055d 35       		.byte	0x35
 1125 055e 7B020000 		.4byte	0x27b
ARM GAS  C:\Users\DNIEL~1\AppData\Local\Temp\cccMS60k.s 			page 21


 1126 0562 02       		.byte	0x2
 1127 0563 23       		.byte	0x23
 1128 0564 04       		.uleb128 0x4
 1129 0565 06       		.uleb128 0x6
 1130 0566 AD030000 		.4byte	.LASF78
 1131 056a 0D       		.byte	0xd
 1132 056b 37       		.byte	0x37
 1133 056c FA000000 		.4byte	0xfa
 1134 0570 02       		.byte	0x2
 1135 0571 23       		.byte	0x23
 1136 0572 08       		.uleb128 0x8
 1137 0573 06       		.uleb128 0x6
 1138 0574 AC040000 		.4byte	.LASF79
 1139 0578 0D       		.byte	0xd
 1140 0579 3A       		.byte	0x3a
 1141 057a 05010000 		.4byte	0x105
 1142 057e 02       		.byte	0x2
 1143 057f 23       		.byte	0x23
 1144 0580 0C       		.uleb128 0xc
 1145 0581 00       		.byte	0x0
 1146 0582 09       		.uleb128 0x9
 1147 0583 04       		.byte	0x4
 1148 0584 32050000 		.4byte	0x532
 1149 0588 05       		.uleb128 0x5
 1150 0589 20020000 		.4byte	.LASF80
 1151 058d 04       		.byte	0x4
 1152 058e 0D       		.byte	0xd
 1153 058f 41       		.byte	0x41
 1154 0590 A3050000 		.4byte	0x5a3
 1155 0594 06       		.uleb128 0x6
 1156 0595 76000000 		.4byte	.LASF81
 1157 0599 0D       		.byte	0xd
 1158 059a 42       		.byte	0x42
 1159 059b 82050000 		.4byte	0x582
 1160 059f 02       		.byte	0x2
 1161 05a0 23       		.byte	0x23
 1162 05a1 00       		.uleb128 0x0
 1163 05a2 00       		.byte	0x0
 1164 05a3 03       		.uleb128 0x3
 1165 05a4 20020000 		.4byte	.LASF80
 1166 05a8 0D       		.byte	0xd
 1167 05a9 45       		.byte	0x45
 1168 05aa 88050000 		.4byte	0x588
 1169 05ae 10       		.uleb128 0x10
 1170 05af 04       		.byte	0x4
 1171 05b0 07       		.byte	0x7
 1172 05b1 96       		.byte	0x96
 1173 05b2 E3050000 		.4byte	0x5e3
 1174 05b6 11       		.uleb128 0x11
 1175 05b7 19000000 		.4byte	.LASF82
 1176 05bb 07       		.byte	0x7
 1177 05bc 9D       		.byte	0x9d
 1178 05bd EF000000 		.4byte	0xef
 1179 05c1 11       		.uleb128 0x11
 1180 05c2 A0000000 		.4byte	.LASF83
 1181 05c6 07       		.byte	0x7
 1182 05c7 A4       		.byte	0xa4
ARM GAS  C:\Users\DNIEL~1\AppData\Local\Temp\cccMS60k.s 			page 22


 1183 05c8 EF000000 		.4byte	0xef
 1184 05cc 11       		.uleb128 0x11
 1185 05cd 5C010000 		.4byte	.LASF84
 1186 05d1 07       		.byte	0x7
 1187 05d2 AB       		.byte	0xab
 1188 05d3 B9020000 		.4byte	0x2b9
 1189 05d7 11       		.uleb128 0x11
 1190 05d8 EA040000 		.4byte	.LASF85
 1191 05dc 07       		.byte	0x7
 1192 05dd B2       		.byte	0xb2
 1193 05de FA000000 		.4byte	0xfa
 1194 05e2 00       		.byte	0x0
 1195 05e3 09       		.uleb128 0x9
 1196 05e4 04       		.byte	0x4
 1197 05e5 E9050000 		.4byte	0x5e9
 1198 05e9 12       		.uleb128 0x12
 1199 05ea EE050000 		.4byte	0x5ee
 1200 05ee 04       		.uleb128 0x4
 1201 05ef 01       		.byte	0x1
 1202 05f0 08       		.byte	0x8
 1203 05f1 84050000 		.4byte	.LASF86
 1204 05f5 09       		.uleb128 0x9
 1205 05f6 04       		.byte	0x4
 1206 05f7 27050000 		.4byte	0x527
 1207 05fb 09       		.uleb128 0x9
 1208 05fc 04       		.byte	0x4
 1209 05fd 01060000 		.4byte	0x601
 1210 0601 13       		.uleb128 0x13
 1211 0602 01       		.byte	0x1
 1212 0603 EF000000 		.4byte	0xef
 1213 0607 11060000 		.4byte	0x611
 1214 060b 0F       		.uleb128 0xf
 1215 060c B9020000 		.4byte	0x2b9
 1216 0610 00       		.byte	0x0
 1217 0611 09       		.uleb128 0x9
 1218 0612 04       		.byte	0x4
 1219 0613 49000000 		.4byte	0x49
 1220 0617 05       		.uleb128 0x5
 1221 0618 F8040000 		.4byte	.LASF87
 1222 061c 10       		.byte	0x10
 1223 061d 0E       		.byte	0xe
 1224 061e 48       		.byte	0x48
 1225 061f 5C060000 		.4byte	0x65c
 1226 0623 06       		.uleb128 0x6
 1227 0624 39030000 		.4byte	.LASF88
 1228 0628 0E       		.byte	0xe
 1229 0629 49       		.byte	0x49
 1230 062a 81060000 		.4byte	0x681
 1231 062e 02       		.byte	0x2
 1232 062f 23       		.byte	0x23
 1233 0630 00       		.uleb128 0x0
 1234 0631 06       		.uleb128 0x6
 1235 0632 D6060000 		.4byte	.LASF89
 1236 0636 0E       		.byte	0xe
 1237 0637 49       		.byte	0x49
 1238 0638 A1060000 		.4byte	0x6a1
 1239 063c 02       		.byte	0x2
ARM GAS  C:\Users\DNIEL~1\AppData\Local\Temp\cccMS60k.s 			page 23


 1240 063d 23       		.byte	0x23
 1241 063e 04       		.uleb128 0x4
 1242 063f 07       		.uleb128 0x7
 1243 0640 70757400 		.ascii	"put\000"
 1244 0644 0E       		.byte	0xe
 1245 0645 49       		.byte	0x49
 1246 0646 BC060000 		.4byte	0x6bc
 1247 064a 02       		.byte	0x2
 1248 064b 23       		.byte	0x23
 1249 064c 08       		.uleb128 0x8
 1250 064d 07       		.uleb128 0x7
 1251 064e 67657400 		.ascii	"get\000"
 1252 0652 0E       		.byte	0xe
 1253 0653 49       		.byte	0x49
 1254 0654 FB050000 		.4byte	0x5fb
 1255 0658 02       		.byte	0x2
 1256 0659 23       		.byte	0x23
 1257 065a 0C       		.uleb128 0xc
 1258 065b 00       		.byte	0x0
 1259 065c 13       		.uleb128 0x13
 1260 065d 01       		.byte	0x1
 1261 065e 30000000 		.4byte	0x30
 1262 0662 76060000 		.4byte	0x676
 1263 0666 0F       		.uleb128 0xf
 1264 0667 B9020000 		.4byte	0x2b9
 1265 066b 0F       		.uleb128 0xf
 1266 066c 76060000 		.4byte	0x676
 1267 0670 0F       		.uleb128 0xf
 1268 0671 30000000 		.4byte	0x30
 1269 0675 00       		.byte	0x0
 1270 0676 09       		.uleb128 0x9
 1271 0677 04       		.byte	0x4
 1272 0678 7C060000 		.4byte	0x67c
 1273 067c 12       		.uleb128 0x12
 1274 067d 49000000 		.4byte	0x49
 1275 0681 09       		.uleb128 0x9
 1276 0682 04       		.byte	0x4
 1277 0683 5C060000 		.4byte	0x65c
 1278 0687 13       		.uleb128 0x13
 1279 0688 01       		.byte	0x1
 1280 0689 30000000 		.4byte	0x30
 1281 068d A1060000 		.4byte	0x6a1
 1282 0691 0F       		.uleb128 0xf
 1283 0692 B9020000 		.4byte	0x2b9
 1284 0696 0F       		.uleb128 0xf
 1285 0697 11060000 		.4byte	0x611
 1286 069b 0F       		.uleb128 0xf
 1287 069c 30000000 		.4byte	0x30
 1288 06a0 00       		.byte	0x0
 1289 06a1 09       		.uleb128 0x9
 1290 06a2 04       		.byte	0x4
 1291 06a3 87060000 		.4byte	0x687
 1292 06a7 13       		.uleb128 0x13
 1293 06a8 01       		.byte	0x1
 1294 06a9 EF000000 		.4byte	0xef
 1295 06ad BC060000 		.4byte	0x6bc
 1296 06b1 0F       		.uleb128 0xf
ARM GAS  C:\Users\DNIEL~1\AppData\Local\Temp\cccMS60k.s 			page 24


 1297 06b2 B9020000 		.4byte	0x2b9
 1298 06b6 0F       		.uleb128 0xf
 1299 06b7 49000000 		.4byte	0x49
 1300 06bb 00       		.byte	0x0
 1301 06bc 09       		.uleb128 0x9
 1302 06bd 04       		.byte	0x4
 1303 06be A7060000 		.4byte	0x6a7
 1304 06c2 08       		.uleb128 0x8
 1305 06c3 04       		.byte	0x4
 1306 06c4 0E       		.byte	0xe
 1307 06c5 51       		.byte	0x51
 1308 06c6 D9060000 		.4byte	0x6d9
 1309 06ca 07       		.uleb128 0x7
 1310 06cb 766D7400 		.ascii	"vmt\000"
 1311 06cf 0E       		.byte	0xe
 1312 06d0 53       		.byte	0x53
 1313 06d1 D9060000 		.4byte	0x6d9
 1314 06d5 02       		.byte	0x2
 1315 06d6 23       		.byte	0x23
 1316 06d7 00       		.uleb128 0x0
 1317 06d8 00       		.byte	0x0
 1318 06d9 09       		.uleb128 0x9
 1319 06da 04       		.byte	0x4
 1320 06db DF060000 		.4byte	0x6df
 1321 06df 12       		.uleb128 0x12
 1322 06e0 17060000 		.4byte	0x617
 1323 06e4 03       		.uleb128 0x3
 1324 06e5 2C020000 		.4byte	.LASF90
 1325 06e9 0E       		.byte	0xe
 1326 06ea 55       		.byte	0x55
 1327 06eb C2060000 		.4byte	0x6c2
 1328 06ef 14       		.uleb128 0x14
 1329 06f0 86000000 		.4byte	0x86
 1330 06f4 FF060000 		.4byte	0x6ff
 1331 06f8 15       		.uleb128 0x15
 1332 06f9 3B000000 		.4byte	0x3b
 1333 06fd 07       		.byte	0x7
 1334 06fe 00       		.byte	0x0
 1335 06ff 14       		.uleb128 0x14
 1336 0700 86000000 		.4byte	0x86
 1337 0704 0F070000 		.4byte	0x70f
 1338 0708 15       		.uleb128 0x15
 1339 0709 3B000000 		.4byte	0x3b
 1340 070d 01       		.byte	0x1
 1341 070e 00       		.byte	0x0
 1342 070f 14       		.uleb128 0x14
 1343 0710 86000000 		.4byte	0x86
 1344 0714 1F070000 		.4byte	0x71f
 1345 0718 15       		.uleb128 0x15
 1346 0719 3B000000 		.4byte	0x3b
 1347 071d 03       		.byte	0x3
 1348 071e 00       		.byte	0x0
 1349 071f 0D       		.uleb128 0xd
 1350 0720 74000000 		.4byte	0x74
 1351 0724 16       		.uleb128 0x16
 1352 0725 10       		.byte	0x10
 1353 0726 0F       		.byte	0xf
ARM GAS  C:\Users\DNIEL~1\AppData\Local\Temp\cccMS60k.s 			page 25


 1354 0727 2F02     		.2byte	0x22f
 1355 0729 6A070000 		.4byte	0x76a
 1356 072d 0C       		.uleb128 0xc
 1357 072e 54495200 		.ascii	"TIR\000"
 1358 0732 0F       		.byte	0xf
 1359 0733 3102     		.2byte	0x231
 1360 0735 77030000 		.4byte	0x377
 1361 0739 02       		.byte	0x2
 1362 073a 23       		.byte	0x23
 1363 073b 00       		.uleb128 0x0
 1364 073c 17       		.uleb128 0x17
 1365 073d EF000000 		.4byte	.LASF91
 1366 0741 0F       		.byte	0xf
 1367 0742 3202     		.2byte	0x232
 1368 0744 77030000 		.4byte	0x377
 1369 0748 02       		.byte	0x2
 1370 0749 23       		.byte	0x23
 1371 074a 04       		.uleb128 0x4
 1372 074b 17       		.uleb128 0x17
 1373 074c 73010000 		.4byte	.LASF92
 1374 0750 0F       		.byte	0xf
 1375 0751 3302     		.2byte	0x233
 1376 0753 77030000 		.4byte	0x377
 1377 0757 02       		.byte	0x2
 1378 0758 23       		.byte	0x23
 1379 0759 08       		.uleb128 0x8
 1380 075a 17       		.uleb128 0x17
 1381 075b 8F030000 		.4byte	.LASF93
 1382 075f 0F       		.byte	0xf
 1383 0760 3402     		.2byte	0x234
 1384 0762 77030000 		.4byte	0x377
 1385 0766 02       		.byte	0x2
 1386 0767 23       		.byte	0x23
 1387 0768 0C       		.uleb128 0xc
 1388 0769 00       		.byte	0x0
 1389 076a 18       		.uleb128 0x18
 1390 076b 81010000 		.4byte	.LASF94
 1391 076f 0F       		.byte	0xf
 1392 0770 3502     		.2byte	0x235
 1393 0772 24070000 		.4byte	0x724
 1394 0776 16       		.uleb128 0x16
 1395 0777 10       		.byte	0x10
 1396 0778 0F       		.byte	0xf
 1397 0779 3B02     		.2byte	0x23b
 1398 077b BC070000 		.4byte	0x7bc
 1399 077f 0C       		.uleb128 0xc
 1400 0780 52495200 		.ascii	"RIR\000"
 1401 0784 0F       		.byte	0xf
 1402 0785 3D02     		.2byte	0x23d
 1403 0787 77030000 		.4byte	0x377
 1404 078b 02       		.byte	0x2
 1405 078c 23       		.byte	0x23
 1406 078d 00       		.uleb128 0x0
 1407 078e 17       		.uleb128 0x17
 1408 078f 6D020000 		.4byte	.LASF95
 1409 0793 0F       		.byte	0xf
 1410 0794 3E02     		.2byte	0x23e
ARM GAS  C:\Users\DNIEL~1\AppData\Local\Temp\cccMS60k.s 			page 26


 1411 0796 77030000 		.4byte	0x377
 1412 079a 02       		.byte	0x2
 1413 079b 23       		.byte	0x23
 1414 079c 04       		.uleb128 0x4
 1415 079d 17       		.uleb128 0x17
 1416 079e E0060000 		.4byte	.LASF96
 1417 07a2 0F       		.byte	0xf
 1418 07a3 3F02     		.2byte	0x23f
 1419 07a5 77030000 		.4byte	0x377
 1420 07a9 02       		.byte	0x2
 1421 07aa 23       		.byte	0x23
 1422 07ab 08       		.uleb128 0x8
 1423 07ac 17       		.uleb128 0x17
 1424 07ad AE050000 		.4byte	.LASF97
 1425 07b1 0F       		.byte	0xf
 1426 07b2 4002     		.2byte	0x240
 1427 07b4 77030000 		.4byte	0x377
 1428 07b8 02       		.byte	0x2
 1429 07b9 23       		.byte	0x23
 1430 07ba 0C       		.uleb128 0xc
 1431 07bb 00       		.byte	0x0
 1432 07bc 18       		.uleb128 0x18
 1433 07bd 78060000 		.4byte	.LASF98
 1434 07c1 0F       		.byte	0xf
 1435 07c2 4102     		.2byte	0x241
 1436 07c4 76070000 		.4byte	0x776
 1437 07c8 16       		.uleb128 0x16
 1438 07c9 08       		.byte	0x8
 1439 07ca 0F       		.byte	0xf
 1440 07cb 4702     		.2byte	0x247
 1441 07cd F0070000 		.4byte	0x7f0
 1442 07d1 0C       		.uleb128 0xc
 1443 07d2 46523100 		.ascii	"FR1\000"
 1444 07d6 0F       		.byte	0xf
 1445 07d7 4902     		.2byte	0x249
 1446 07d9 77030000 		.4byte	0x377
 1447 07dd 02       		.byte	0x2
 1448 07de 23       		.byte	0x23
 1449 07df 00       		.uleb128 0x0
 1450 07e0 0C       		.uleb128 0xc
 1451 07e1 46523200 		.ascii	"FR2\000"
 1452 07e5 0F       		.byte	0xf
 1453 07e6 4A02     		.2byte	0x24a
 1454 07e8 77030000 		.4byte	0x377
 1455 07ec 02       		.byte	0x2
 1456 07ed 23       		.byte	0x23
 1457 07ee 04       		.uleb128 0x4
 1458 07ef 00       		.byte	0x0
 1459 07f0 18       		.uleb128 0x18
 1460 07f1 C9020000 		.4byte	.LASF99
 1461 07f5 0F       		.byte	0xf
 1462 07f6 4B02     		.2byte	0x24b
 1463 07f8 C8070000 		.4byte	0x7c8
 1464 07fc 19       		.uleb128 0x19
 1465 07fd 2003     		.2byte	0x320
 1466 07ff 0F       		.byte	0xf
 1467 0800 5102     		.2byte	0x251
ARM GAS  C:\Users\DNIEL~1\AppData\Local\Temp\cccMS60k.s 			page 27


 1468 0802 5E090000 		.4byte	0x95e
 1469 0806 0C       		.uleb128 0xc
 1470 0807 4D435200 		.ascii	"MCR\000"
 1471 080b 0F       		.byte	0xf
 1472 080c 5302     		.2byte	0x253
 1473 080e 77030000 		.4byte	0x377
 1474 0812 02       		.byte	0x2
 1475 0813 23       		.byte	0x23
 1476 0814 00       		.uleb128 0x0
 1477 0815 0C       		.uleb128 0xc
 1478 0816 4D535200 		.ascii	"MSR\000"
 1479 081a 0F       		.byte	0xf
 1480 081b 5402     		.2byte	0x254
 1481 081d 77030000 		.4byte	0x377
 1482 0821 02       		.byte	0x2
 1483 0822 23       		.byte	0x23
 1484 0823 04       		.uleb128 0x4
 1485 0824 0C       		.uleb128 0xc
 1486 0825 54535200 		.ascii	"TSR\000"
 1487 0829 0F       		.byte	0xf
 1488 082a 5502     		.2byte	0x255
 1489 082c 77030000 		.4byte	0x377
 1490 0830 02       		.byte	0x2
 1491 0831 23       		.byte	0x23
 1492 0832 08       		.uleb128 0x8
 1493 0833 17       		.uleb128 0x17
 1494 0834 E1030000 		.4byte	.LASF100
 1495 0838 0F       		.byte	0xf
 1496 0839 5602     		.2byte	0x256
 1497 083b 77030000 		.4byte	0x377
 1498 083f 02       		.byte	0x2
 1499 0840 23       		.byte	0x23
 1500 0841 0C       		.uleb128 0xc
 1501 0842 17       		.uleb128 0x17
 1502 0843 C4020000 		.4byte	.LASF101
 1503 0847 0F       		.byte	0xf
 1504 0848 5702     		.2byte	0x257
 1505 084a 77030000 		.4byte	0x377
 1506 084e 02       		.byte	0x2
 1507 084f 23       		.byte	0x23
 1508 0850 10       		.uleb128 0x10
 1509 0851 0C       		.uleb128 0xc
 1510 0852 49455200 		.ascii	"IER\000"
 1511 0856 0F       		.byte	0xf
 1512 0857 5802     		.2byte	0x258
 1513 0859 77030000 		.4byte	0x377
 1514 085d 02       		.byte	0x2
 1515 085e 23       		.byte	0x23
 1516 085f 14       		.uleb128 0x14
 1517 0860 0C       		.uleb128 0xc
 1518 0861 45535200 		.ascii	"ESR\000"
 1519 0865 0F       		.byte	0xf
 1520 0866 5902     		.2byte	0x259
 1521 0868 77030000 		.4byte	0x377
 1522 086c 02       		.byte	0x2
 1523 086d 23       		.byte	0x23
 1524 086e 18       		.uleb128 0x18
ARM GAS  C:\Users\DNIEL~1\AppData\Local\Temp\cccMS60k.s 			page 28


 1525 086f 0C       		.uleb128 0xc
 1526 0870 42545200 		.ascii	"BTR\000"
 1527 0874 0F       		.byte	0xf
 1528 0875 5A02     		.2byte	0x25a
 1529 0877 77030000 		.4byte	0x377
 1530 087b 02       		.byte	0x2
 1531 087c 23       		.byte	0x23
 1532 087d 1C       		.uleb128 0x1c
 1533 087e 17       		.uleb128 0x17
 1534 087f FC030000 		.4byte	.LASF102
 1535 0883 0F       		.byte	0xf
 1536 0884 5B02     		.2byte	0x25b
 1537 0886 5E090000 		.4byte	0x95e
 1538 088a 02       		.byte	0x2
 1539 088b 23       		.byte	0x23
 1540 088c 20       		.uleb128 0x20
 1541 088d 17       		.uleb128 0x17
 1542 088e 3E050000 		.4byte	.LASF103
 1543 0892 0F       		.byte	0xf
 1544 0893 5C02     		.2byte	0x25c
 1545 0895 6E090000 		.4byte	0x96e
 1546 0899 03       		.byte	0x3
 1547 089a 23       		.byte	0x23
 1548 089b 8003     		.uleb128 0x180
 1549 089d 17       		.uleb128 0x17
 1550 089e E1050000 		.4byte	.LASF104
 1551 08a2 0F       		.byte	0xf
 1552 08a3 5D02     		.2byte	0x25d
 1553 08a5 7E090000 		.4byte	0x97e
 1554 08a9 03       		.byte	0x3
 1555 08aa 23       		.byte	0x23
 1556 08ab B003     		.uleb128 0x1b0
 1557 08ad 17       		.uleb128 0x17
 1558 08ae 06040000 		.4byte	.LASF105
 1559 08b2 0F       		.byte	0xf
 1560 08b3 5E02     		.2byte	0x25e
 1561 08b5 8E090000 		.4byte	0x98e
 1562 08b9 03       		.byte	0x3
 1563 08ba 23       		.byte	0x23
 1564 08bb D003     		.uleb128 0x1d0
 1565 08bd 0C       		.uleb128 0xc
 1566 08be 464D5200 		.ascii	"FMR\000"
 1567 08c2 0F       		.byte	0xf
 1568 08c3 5F02     		.2byte	0x25f
 1569 08c5 77030000 		.4byte	0x377
 1570 08c9 03       		.byte	0x3
 1571 08ca 23       		.byte	0x23
 1572 08cb 8004     		.uleb128 0x200
 1573 08cd 17       		.uleb128 0x17
 1574 08ce 29030000 		.4byte	.LASF106
 1575 08d2 0F       		.byte	0xf
 1576 08d3 6002     		.2byte	0x260
 1577 08d5 77030000 		.4byte	0x377
 1578 08d9 03       		.byte	0x3
 1579 08da 23       		.byte	0x23
 1580 08db 8404     		.uleb128 0x204
 1581 08dd 17       		.uleb128 0x17
ARM GAS  C:\Users\DNIEL~1\AppData\Local\Temp\cccMS60k.s 			page 29


 1582 08de 29050000 		.4byte	.LASF107
 1583 08e2 0F       		.byte	0xf
 1584 08e3 6102     		.2byte	0x261
 1585 08e5 86000000 		.4byte	0x86
 1586 08e9 03       		.byte	0x3
 1587 08ea 23       		.byte	0x23
 1588 08eb 8804     		.uleb128 0x208
 1589 08ed 17       		.uleb128 0x17
 1590 08ee 58060000 		.4byte	.LASF108
 1591 08f2 0F       		.byte	0xf
 1592 08f3 6202     		.2byte	0x262
 1593 08f5 77030000 		.4byte	0x377
 1594 08f9 03       		.byte	0x3
 1595 08fa 23       		.byte	0x23
 1596 08fb 8C04     		.uleb128 0x20c
 1597 08fd 17       		.uleb128 0x17
 1598 08fe 10040000 		.4byte	.LASF109
 1599 0902 0F       		.byte	0xf
 1600 0903 6302     		.2byte	0x263
 1601 0905 86000000 		.4byte	0x86
 1602 0909 03       		.byte	0x3
 1603 090a 23       		.byte	0x23
 1604 090b 9004     		.uleb128 0x210
 1605 090d 17       		.uleb128 0x17
 1606 090e D5030000 		.4byte	.LASF110
 1607 0912 0F       		.byte	0xf
 1608 0913 6402     		.2byte	0x264
 1609 0915 77030000 		.4byte	0x377
 1610 0919 03       		.byte	0x3
 1611 091a 23       		.byte	0x23
 1612 091b 9404     		.uleb128 0x214
 1613 091d 17       		.uleb128 0x17
 1614 091e 1A040000 		.4byte	.LASF111
 1615 0922 0F       		.byte	0xf
 1616 0923 6502     		.2byte	0x265
 1617 0925 86000000 		.4byte	0x86
 1618 0929 03       		.byte	0x3
 1619 092a 23       		.byte	0x23
 1620 092b 9804     		.uleb128 0x218
 1621 092d 17       		.uleb128 0x17
 1622 092e 24040000 		.4byte	.LASF112
 1623 0932 0F       		.byte	0xf
 1624 0933 6602     		.2byte	0x266
 1625 0935 77030000 		.4byte	0x377
 1626 0939 03       		.byte	0x3
 1627 093a 23       		.byte	0x23
 1628 093b 9C04     		.uleb128 0x21c
 1629 093d 17       		.uleb128 0x17
 1630 093e 11060000 		.4byte	.LASF113
 1631 0942 0F       		.byte	0xf
 1632 0943 6702     		.2byte	0x267
 1633 0945 EF060000 		.4byte	0x6ef
 1634 0949 03       		.byte	0x3
 1635 094a 23       		.byte	0x23
 1636 094b A004     		.uleb128 0x220
 1637 094d 17       		.uleb128 0x17
 1638 094e 0D030000 		.4byte	.LASF114
ARM GAS  C:\Users\DNIEL~1\AppData\Local\Temp\cccMS60k.s 			page 30


 1639 0952 0F       		.byte	0xf
 1640 0953 6802     		.2byte	0x268
 1641 0955 9E090000 		.4byte	0x99e
 1642 0959 03       		.byte	0x3
 1643 095a 23       		.byte	0x23
 1644 095b C004     		.uleb128 0x240
 1645 095d 00       		.byte	0x0
 1646 095e 14       		.uleb128 0x14
 1647 095f 86000000 		.4byte	0x86
 1648 0963 6E090000 		.4byte	0x96e
 1649 0967 15       		.uleb128 0x15
 1650 0968 3B000000 		.4byte	0x3b
 1651 096c 57       		.byte	0x57
 1652 096d 00       		.byte	0x0
 1653 096e 14       		.uleb128 0x14
 1654 096f 6A070000 		.4byte	0x76a
 1655 0973 7E090000 		.4byte	0x97e
 1656 0977 15       		.uleb128 0x15
 1657 0978 3B000000 		.4byte	0x3b
 1658 097c 02       		.byte	0x2
 1659 097d 00       		.byte	0x0
 1660 097e 14       		.uleb128 0x14
 1661 097f BC070000 		.4byte	0x7bc
 1662 0983 8E090000 		.4byte	0x98e
 1663 0987 15       		.uleb128 0x15
 1664 0988 3B000000 		.4byte	0x3b
 1665 098c 01       		.byte	0x1
 1666 098d 00       		.byte	0x0
 1667 098e 14       		.uleb128 0x14
 1668 098f 86000000 		.4byte	0x86
 1669 0993 9E090000 		.4byte	0x99e
 1670 0997 15       		.uleb128 0x15
 1671 0998 3B000000 		.4byte	0x3b
 1672 099c 0B       		.byte	0xb
 1673 099d 00       		.byte	0x0
 1674 099e 14       		.uleb128 0x14
 1675 099f F0070000 		.4byte	0x7f0
 1676 09a3 AE090000 		.4byte	0x9ae
 1677 09a7 15       		.uleb128 0x15
 1678 09a8 3B000000 		.4byte	0x3b
 1679 09ac 1B       		.byte	0x1b
 1680 09ad 00       		.byte	0x0
 1681 09ae 18       		.uleb128 0x18
 1682 09af 4A000000 		.4byte	.LASF115
 1683 09b3 0F       		.byte	0xf
 1684 09b4 6902     		.2byte	0x269
 1685 09b6 FC070000 		.4byte	0x7fc
 1686 09ba 05       		.uleb128 0x5
 1687 09bb 91000000 		.4byte	.LASF116
 1688 09bf 20       		.byte	0x20
 1689 09c0 10       		.byte	0x10
 1690 09c1 4E       		.byte	0x4e
 1691 09c2 370A0000 		.4byte	0xa37
 1692 09c6 06       		.uleb128 0x6
 1693 09c7 39030000 		.4byte	.LASF88
 1694 09cb 10       		.byte	0x10
 1695 09cc 4F       		.byte	0x4f
ARM GAS  C:\Users\DNIEL~1\AppData\Local\Temp\cccMS60k.s 			page 31


 1696 09cd 81060000 		.4byte	0x681
 1697 09d1 02       		.byte	0x2
 1698 09d2 23       		.byte	0x23
 1699 09d3 00       		.uleb128 0x0
 1700 09d4 06       		.uleb128 0x6
 1701 09d5 D6060000 		.4byte	.LASF89
 1702 09d9 10       		.byte	0x10
 1703 09da 4F       		.byte	0x4f
 1704 09db A1060000 		.4byte	0x6a1
 1705 09df 02       		.byte	0x2
 1706 09e0 23       		.byte	0x23
 1707 09e1 04       		.uleb128 0x4
 1708 09e2 07       		.uleb128 0x7
 1709 09e3 70757400 		.ascii	"put\000"
 1710 09e7 10       		.byte	0x10
 1711 09e8 4F       		.byte	0x4f
 1712 09e9 BC060000 		.4byte	0x6bc
 1713 09ed 02       		.byte	0x2
 1714 09ee 23       		.byte	0x23
 1715 09ef 08       		.uleb128 0x8
 1716 09f0 07       		.uleb128 0x7
 1717 09f1 67657400 		.ascii	"get\000"
 1718 09f5 10       		.byte	0x10
 1719 09f6 4F       		.byte	0x4f
 1720 09f7 FB050000 		.4byte	0x5fb
 1721 09fb 02       		.byte	0x2
 1722 09fc 23       		.byte	0x23
 1723 09fd 0C       		.uleb128 0xc
 1724 09fe 06       		.uleb128 0x6
 1725 09ff 3F030000 		.4byte	.LASF117
 1726 0a03 10       		.byte	0x10
 1727 0a04 4F       		.byte	0x4f
 1728 0a05 510A0000 		.4byte	0xa51
 1729 0a09 02       		.byte	0x2
 1730 0a0a 23       		.byte	0x23
 1731 0a0b 10       		.uleb128 0x10
 1732 0a0c 06       		.uleb128 0x6
 1733 0a0d 7E020000 		.4byte	.LASF118
 1734 0a11 10       		.byte	0x10
 1735 0a12 4F       		.byte	0x4f
 1736 0a13 6C0A0000 		.4byte	0xa6c
 1737 0a17 02       		.byte	0x2
 1738 0a18 23       		.byte	0x23
 1739 0a19 14       		.uleb128 0x14
 1740 0a1a 06       		.uleb128 0x6
 1741 0a1b F2020000 		.4byte	.LASF119
 1742 0a1f 10       		.byte	0x10
 1743 0a20 4F       		.byte	0x4f
 1744 0a21 910A0000 		.4byte	0xa91
 1745 0a25 02       		.byte	0x2
 1746 0a26 23       		.byte	0x23
 1747 0a27 18       		.uleb128 0x18
 1748 0a28 06       		.uleb128 0x6
 1749 0a29 DD000000 		.4byte	.LASF120
 1750 0a2d 10       		.byte	0x10
 1751 0a2e 4F       		.byte	0x4f
 1752 0a2f B60A0000 		.4byte	0xab6
ARM GAS  C:\Users\DNIEL~1\AppData\Local\Temp\cccMS60k.s 			page 32


 1753 0a33 02       		.byte	0x2
 1754 0a34 23       		.byte	0x23
 1755 0a35 1C       		.uleb128 0x1c
 1756 0a36 00       		.byte	0x0
 1757 0a37 13       		.uleb128 0x13
 1758 0a38 01       		.byte	0x1
 1759 0a39 EF000000 		.4byte	0xef
 1760 0a3d 510A0000 		.4byte	0xa51
 1761 0a41 0F       		.uleb128 0xf
 1762 0a42 B9020000 		.4byte	0x2b9
 1763 0a46 0F       		.uleb128 0xf
 1764 0a47 49000000 		.4byte	0x49
 1765 0a4b 0F       		.uleb128 0xf
 1766 0a4c 10010000 		.4byte	0x110
 1767 0a50 00       		.byte	0x0
 1768 0a51 09       		.uleb128 0x9
 1769 0a52 04       		.byte	0x4
 1770 0a53 370A0000 		.4byte	0xa37
 1771 0a57 13       		.uleb128 0x13
 1772 0a58 01       		.byte	0x1
 1773 0a59 EF000000 		.4byte	0xef
 1774 0a5d 6C0A0000 		.4byte	0xa6c
 1775 0a61 0F       		.uleb128 0xf
 1776 0a62 B9020000 		.4byte	0x2b9
 1777 0a66 0F       		.uleb128 0xf
 1778 0a67 10010000 		.4byte	0x110
 1779 0a6b 00       		.byte	0x0
 1780 0a6c 09       		.uleb128 0x9
 1781 0a6d 04       		.byte	0x4
 1782 0a6e 570A0000 		.4byte	0xa57
 1783 0a72 13       		.uleb128 0x13
 1784 0a73 01       		.byte	0x1
 1785 0a74 30000000 		.4byte	0x30
 1786 0a78 910A0000 		.4byte	0xa91
 1787 0a7c 0F       		.uleb128 0xf
 1788 0a7d B9020000 		.4byte	0x2b9
 1789 0a81 0F       		.uleb128 0xf
 1790 0a82 76060000 		.4byte	0x676
 1791 0a86 0F       		.uleb128 0xf
 1792 0a87 30000000 		.4byte	0x30
 1793 0a8b 0F       		.uleb128 0xf
 1794 0a8c 10010000 		.4byte	0x110
 1795 0a90 00       		.byte	0x0
 1796 0a91 09       		.uleb128 0x9
 1797 0a92 04       		.byte	0x4
 1798 0a93 720A0000 		.4byte	0xa72
 1799 0a97 13       		.uleb128 0x13
 1800 0a98 01       		.byte	0x1
 1801 0a99 30000000 		.4byte	0x30
 1802 0a9d B60A0000 		.4byte	0xab6
 1803 0aa1 0F       		.uleb128 0xf
 1804 0aa2 B9020000 		.4byte	0x2b9
 1805 0aa6 0F       		.uleb128 0xf
 1806 0aa7 11060000 		.4byte	0x611
 1807 0aab 0F       		.uleb128 0xf
 1808 0aac 30000000 		.4byte	0x30
 1809 0ab0 0F       		.uleb128 0xf
ARM GAS  C:\Users\DNIEL~1\AppData\Local\Temp\cccMS60k.s 			page 33


 1810 0ab1 10010000 		.4byte	0x110
 1811 0ab5 00       		.byte	0x0
 1812 0ab6 09       		.uleb128 0x9
 1813 0ab7 04       		.byte	0x4
 1814 0ab8 970A0000 		.4byte	0xa97
 1815 0abc 08       		.uleb128 0x8
 1816 0abd 04       		.byte	0x4
 1817 0abe 10       		.byte	0x10
 1818 0abf 59       		.byte	0x59
 1819 0ac0 D30A0000 		.4byte	0xad3
 1820 0ac4 07       		.uleb128 0x7
 1821 0ac5 766D7400 		.ascii	"vmt\000"
 1822 0ac9 10       		.byte	0x10
 1823 0aca 5B       		.byte	0x5b
 1824 0acb D30A0000 		.4byte	0xad3
 1825 0acf 02       		.byte	0x2
 1826 0ad0 23       		.byte	0x23
 1827 0ad1 00       		.uleb128 0x0
 1828 0ad2 00       		.byte	0x0
 1829 0ad3 09       		.uleb128 0x9
 1830 0ad4 04       		.byte	0x4
 1831 0ad5 D90A0000 		.4byte	0xad9
 1832 0ad9 12       		.uleb128 0x12
 1833 0ada BA090000 		.4byte	0x9ba
 1834 0ade 03       		.uleb128 0x3
 1835 0adf A8060000 		.4byte	.LASF121
 1836 0ae3 10       		.byte	0x10
 1837 0ae4 5D       		.byte	0x5d
 1838 0ae5 BC0A0000 		.4byte	0xabc
 1839 0ae9 1A       		.uleb128 0x1a
 1840 0aea 01       		.byte	0x1
 1841 0aeb 11       		.byte	0x11
 1842 0aec 6E       		.byte	0x6e
 1843 0aed 100B0000 		.4byte	0xb10
 1844 0af1 1B       		.uleb128 0x1b
 1845 0af2 31040000 		.4byte	.LASF122
 1846 0af6 00       		.sleb128 0
 1847 0af7 1B       		.uleb128 0x1b
 1848 0af8 CC030000 		.4byte	.LASF123
 1849 0afc 01       		.sleb128 1
 1850 0afd 1B       		.uleb128 0x1b
 1851 0afe 00010000 		.4byte	.LASF124
 1852 0b02 02       		.sleb128 2
 1853 0b03 1B       		.uleb128 0x1b
 1854 0b04 E2010000 		.4byte	.LASF125
 1855 0b08 03       		.sleb128 3
 1856 0b09 1B       		.uleb128 0x1b
 1857 0b0a BA020000 		.4byte	.LASF126
 1858 0b0e 04       		.sleb128 4
 1859 0b0f 00       		.byte	0x0
 1860 0b10 03       		.uleb128 0x3
 1861 0b11 C1030000 		.4byte	.LASF127
 1862 0b15 11       		.byte	0x11
 1863 0b16 74       		.byte	0x74
 1864 0b17 E90A0000 		.4byte	0xae9
 1865 0b1b 08       		.uleb128 0x8
 1866 0b1c 01       		.byte	0x1
ARM GAS  C:\Users\DNIEL~1\AppData\Local\Temp\cccMS60k.s 			page 34


 1867 0b1d 12       		.byte	0x12
 1868 0b1e 9A       		.byte	0x9a
 1869 0b1f 570B0000 		.4byte	0xb57
 1870 0b23 1C       		.uleb128 0x1c
 1871 0b24 444C4300 		.ascii	"DLC\000"
 1872 0b28 12       		.byte	0x12
 1873 0b29 9B       		.byte	0x9b
 1874 0b2a 49000000 		.4byte	0x49
 1875 0b2e 01       		.byte	0x1
 1876 0b2f 04       		.byte	0x4
 1877 0b30 04       		.byte	0x4
 1878 0b31 02       		.byte	0x2
 1879 0b32 23       		.byte	0x23
 1880 0b33 00       		.uleb128 0x0
 1881 0b34 1C       		.uleb128 0x1c
 1882 0b35 52545200 		.ascii	"RTR\000"
 1883 0b39 12       		.byte	0x12
 1884 0b3a 9C       		.byte	0x9c
 1885 0b3b 49000000 		.4byte	0x49
 1886 0b3f 01       		.byte	0x1
 1887 0b40 01       		.byte	0x1
 1888 0b41 03       		.byte	0x3
 1889 0b42 02       		.byte	0x2
 1890 0b43 23       		.byte	0x23
 1891 0b44 00       		.uleb128 0x0
 1892 0b45 1C       		.uleb128 0x1c
 1893 0b46 49444500 		.ascii	"IDE\000"
 1894 0b4a 12       		.byte	0x12
 1895 0b4b 9D       		.byte	0x9d
 1896 0b4c 49000000 		.4byte	0x49
 1897 0b50 01       		.byte	0x1
 1898 0b51 01       		.byte	0x1
 1899 0b52 02       		.byte	0x2
 1900 0b53 02       		.byte	0x2
 1901 0b54 23       		.byte	0x23
 1902 0b55 00       		.uleb128 0x0
 1903 0b56 00       		.byte	0x0
 1904 0b57 08       		.uleb128 0x8
 1905 0b58 04       		.byte	0x4
 1906 0b59 12       		.byte	0x12
 1907 0b5a A0       		.byte	0xa0
 1908 0b5b 710B0000 		.4byte	0xb71
 1909 0b5f 1C       		.uleb128 0x1c
 1910 0b60 53494400 		.ascii	"SID\000"
 1911 0b64 12       		.byte	0x12
 1912 0b65 A1       		.byte	0xa1
 1913 0b66 86000000 		.4byte	0x86
 1914 0b6a 04       		.byte	0x4
 1915 0b6b 0B       		.byte	0xb
 1916 0b6c 15       		.byte	0x15
 1917 0b6d 02       		.byte	0x2
 1918 0b6e 23       		.byte	0x23
 1919 0b6f 00       		.uleb128 0x0
 1920 0b70 00       		.byte	0x0
 1921 0b71 08       		.uleb128 0x8
 1922 0b72 04       		.byte	0x4
 1923 0b73 12       		.byte	0x12
ARM GAS  C:\Users\DNIEL~1\AppData\Local\Temp\cccMS60k.s 			page 35


 1924 0b74 A3       		.byte	0xa3
 1925 0b75 8B0B0000 		.4byte	0xb8b
 1926 0b79 1C       		.uleb128 0x1c
 1927 0b7a 45494400 		.ascii	"EID\000"
 1928 0b7e 12       		.byte	0x12
 1929 0b7f A4       		.byte	0xa4
 1930 0b80 86000000 		.4byte	0x86
 1931 0b84 04       		.byte	0x4
 1932 0b85 1D       		.byte	0x1d
 1933 0b86 03       		.byte	0x3
 1934 0b87 02       		.byte	0x2
 1935 0b88 23       		.byte	0x23
 1936 0b89 00       		.uleb128 0x0
 1937 0b8a 00       		.byte	0x0
 1938 0b8b 10       		.uleb128 0x10
 1939 0b8c 04       		.byte	0x4
 1940 0b8d 12       		.byte	0x12
 1941 0b8e 9F       		.byte	0x9f
 1942 0b8f 9E0B0000 		.4byte	0xb9e
 1943 0b93 1D       		.uleb128 0x1d
 1944 0b94 570B0000 		.4byte	0xb57
 1945 0b98 1D       		.uleb128 0x1d
 1946 0b99 710B0000 		.4byte	0xb71
 1947 0b9d 00       		.byte	0x0
 1948 0b9e 10       		.uleb128 0x10
 1949 0b9f 08       		.byte	0x8
 1950 0ba0 12       		.byte	0x12
 1951 0ba1 A7       		.byte	0xa7
 1952 0ba2 C80B0000 		.4byte	0xbc8
 1953 0ba6 11       		.uleb128 0x11
 1954 0ba7 5B030000 		.4byte	.LASF128
 1955 0bab 12       		.byte	0x12
 1956 0bac A8       		.byte	0xa8
 1957 0bad C80B0000 		.4byte	0xbc8
 1958 0bb1 11       		.uleb128 0x11
 1959 0bb2 51060000 		.4byte	.LASF129
 1960 0bb6 12       		.byte	0x12
 1961 0bb7 A9       		.byte	0xa9
 1962 0bb8 D80B0000 		.4byte	0xbd8
 1963 0bbc 11       		.uleb128 0x11
 1964 0bbd B6000000 		.4byte	.LASF130
 1965 0bc1 12       		.byte	0x12
 1966 0bc2 AA       		.byte	0xaa
 1967 0bc3 FF060000 		.4byte	0x6ff
 1968 0bc7 00       		.byte	0x0
 1969 0bc8 14       		.uleb128 0x14
 1970 0bc9 49000000 		.4byte	0x49
 1971 0bcd D80B0000 		.4byte	0xbd8
 1972 0bd1 15       		.uleb128 0x15
 1973 0bd2 3B000000 		.4byte	0x3b
 1974 0bd6 07       		.byte	0x7
 1975 0bd7 00       		.byte	0x0
 1976 0bd8 14       		.uleb128 0x14
 1977 0bd9 62000000 		.4byte	0x62
 1978 0bdd E80B0000 		.4byte	0xbe8
 1979 0be1 15       		.uleb128 0x15
 1980 0be2 3B000000 		.4byte	0x3b
ARM GAS  C:\Users\DNIEL~1\AppData\Local\Temp\cccMS60k.s 			page 36


 1981 0be6 03       		.byte	0x3
 1982 0be7 00       		.byte	0x0
 1983 0be8 08       		.uleb128 0x8
 1984 0be9 10       		.byte	0x10
 1985 0bea 12       		.byte	0x12
 1986 0beb 99       		.byte	0x99
 1987 0bec 090C0000 		.4byte	0xc09
 1988 0bf0 1E       		.uleb128 0x1e
 1989 0bf1 1B0B0000 		.4byte	0xb1b
 1990 0bf5 02       		.byte	0x2
 1991 0bf6 23       		.byte	0x23
 1992 0bf7 00       		.uleb128 0x0
 1993 0bf8 1E       		.uleb128 0x1e
 1994 0bf9 8B0B0000 		.4byte	0xb8b
 1995 0bfd 02       		.byte	0x2
 1996 0bfe 23       		.byte	0x23
 1997 0bff 04       		.uleb128 0x4
 1998 0c00 1E       		.uleb128 0x1e
 1999 0c01 9E0B0000 		.4byte	0xb9e
 2000 0c05 02       		.byte	0x2
 2001 0c06 23       		.byte	0x23
 2002 0c07 08       		.uleb128 0x8
 2003 0c08 00       		.byte	0x0
 2004 0c09 03       		.uleb128 0x3
 2005 0c0a 62020000 		.4byte	.LASF131
 2006 0c0e 12       		.byte	0x12
 2007 0c0f AC       		.byte	0xac
 2008 0c10 E80B0000 		.4byte	0xbe8
 2009 0c14 08       		.uleb128 0x8
 2010 0c15 08       		.byte	0x8
 2011 0c16 12       		.byte	0x12
 2012 0c17 F4       		.byte	0xf4
 2013 0c18 3A0C0000 		.4byte	0xc3a
 2014 0c1c 07       		.uleb128 0x7
 2015 0c1d 6D637200 		.ascii	"mcr\000"
 2016 0c21 12       		.byte	0x12
 2017 0c22 FA       		.byte	0xfa
 2018 0c23 86000000 		.4byte	0x86
 2019 0c27 02       		.byte	0x2
 2020 0c28 23       		.byte	0x23
 2021 0c29 00       		.uleb128 0x0
 2022 0c2a 0C       		.uleb128 0xc
 2023 0c2b 62747200 		.ascii	"btr\000"
 2024 0c2f 12       		.byte	0x12
 2025 0c30 0001     		.2byte	0x100
 2026 0c32 86000000 		.4byte	0x86
 2027 0c36 02       		.byte	0x2
 2028 0c37 23       		.byte	0x23
 2029 0c38 04       		.uleb128 0x4
 2030 0c39 00       		.byte	0x0
 2031 0c3a 18       		.uleb128 0x18
 2032 0c3b 40000000 		.4byte	.LASF132
 2033 0c3f 12       		.byte	0x12
 2034 0c40 0101     		.2byte	0x101
 2035 0c42 140C0000 		.4byte	0xc14
 2036 0c46 16       		.uleb128 0x16
 2037 0c47 38       		.byte	0x38
ARM GAS  C:\Users\DNIEL~1\AppData\Local\Temp\cccMS60k.s 			page 37


 2038 0c48 12       		.byte	0x12
 2039 0c49 0601     		.2byte	0x106
 2040 0c4b E60C0000 		.4byte	0xce6
 2041 0c4f 17       		.uleb128 0x17
 2042 0c50 6D010000 		.4byte	.LASF133
 2043 0c54 12       		.byte	0x12
 2044 0c55 0A01     		.2byte	0x10a
 2045 0c57 100B0000 		.4byte	0xb10
 2046 0c5b 02       		.byte	0x2
 2047 0c5c 23       		.byte	0x23
 2048 0c5d 00       		.uleb128 0x0
 2049 0c5e 17       		.uleb128 0x17
 2050 0c5f 93050000 		.4byte	.LASF134
 2051 0c63 12       		.byte	0x12
 2052 0c64 0E01     		.2byte	0x10e
 2053 0c66 E60C0000 		.4byte	0xce6
 2054 0c6a 02       		.byte	0x2
 2055 0c6b 23       		.byte	0x23
 2056 0c6c 04       		.uleb128 0x4
 2057 0c6d 17       		.uleb128 0x17
 2058 0c6e 4A010000 		.4byte	.LASF135
 2059 0c72 12       		.byte	0x12
 2060 0c73 1201     		.2byte	0x112
 2061 0c75 DF040000 		.4byte	0x4df
 2062 0c79 02       		.byte	0x2
 2063 0c7a 23       		.byte	0x23
 2064 0c7b 08       		.uleb128 0x8
 2065 0c7c 17       		.uleb128 0x17
 2066 0c7d 83020000 		.4byte	.LASF136
 2067 0c81 12       		.byte	0x12
 2068 0c82 1601     		.2byte	0x116
 2069 0c84 DF040000 		.4byte	0x4df
 2070 0c88 02       		.byte	0x2
 2071 0c89 23       		.byte	0x23
 2072 0c8a 14       		.uleb128 0x14
 2073 0c8b 17       		.uleb128 0x17
 2074 0c8c F2010000 		.4byte	.LASF137
 2075 0c90 12       		.byte	0x12
 2076 0c91 2301     		.2byte	0x123
 2077 0c93 A3050000 		.4byte	0x5a3
 2078 0c97 02       		.byte	0x2
 2079 0c98 23       		.byte	0x23
 2080 0c99 20       		.uleb128 0x20
 2081 0c9a 17       		.uleb128 0x17
 2082 0c9b 81030000 		.4byte	.LASF138
 2083 0c9f 12       		.byte	0x12
 2084 0ca0 2A01     		.2byte	0x12a
 2085 0ca2 A3050000 		.4byte	0x5a3
 2086 0ca6 02       		.byte	0x2
 2087 0ca7 23       		.byte	0x23
 2088 0ca8 24       		.uleb128 0x24
 2089 0ca9 17       		.uleb128 0x17
 2090 0caa 72020000 		.4byte	.LASF139
 2091 0cae 12       		.byte	0x12
 2092 0caf 3001     		.2byte	0x130
 2093 0cb1 A3050000 		.4byte	0x5a3
 2094 0cb5 02       		.byte	0x2
ARM GAS  C:\Users\DNIEL~1\AppData\Local\Temp\cccMS60k.s 			page 38


 2095 0cb6 23       		.byte	0x23
 2096 0cb7 28       		.uleb128 0x28
 2097 0cb8 17       		.uleb128 0x17
 2098 0cb9 B5030000 		.4byte	.LASF140
 2099 0cbd 12       		.byte	0x12
 2100 0cbe 3501     		.2byte	0x135
 2101 0cc0 A3050000 		.4byte	0x5a3
 2102 0cc4 02       		.byte	0x2
 2103 0cc5 23       		.byte	0x23
 2104 0cc6 2C       		.uleb128 0x2c
 2105 0cc7 17       		.uleb128 0x17
 2106 0cc8 93040000 		.4byte	.LASF141
 2107 0ccc 12       		.byte	0x12
 2108 0ccd 3901     		.2byte	0x139
 2109 0ccf A3050000 		.4byte	0x5a3
 2110 0cd3 02       		.byte	0x2
 2111 0cd4 23       		.byte	0x23
 2112 0cd5 30       		.uleb128 0x30
 2113 0cd6 0C       		.uleb128 0xc
 2114 0cd7 63616E00 		.ascii	"can\000"
 2115 0cdb 12       		.byte	0x12
 2116 0cdc 3F01     		.2byte	0x13f
 2117 0cde F10C0000 		.4byte	0xcf1
 2118 0ce2 02       		.byte	0x2
 2119 0ce3 23       		.byte	0x23
 2120 0ce4 34       		.uleb128 0x34
 2121 0ce5 00       		.byte	0x0
 2122 0ce6 09       		.uleb128 0x9
 2123 0ce7 04       		.byte	0x4
 2124 0ce8 EC0C0000 		.4byte	0xcec
 2125 0cec 12       		.uleb128 0x12
 2126 0ced 3A0C0000 		.4byte	0xc3a
 2127 0cf1 09       		.uleb128 0x9
 2128 0cf2 04       		.byte	0x4
 2129 0cf3 AE090000 		.4byte	0x9ae
 2130 0cf7 18       		.uleb128 0x18
 2131 0cf8 70030000 		.4byte	.LASF142
 2132 0cfc 12       		.byte	0x12
 2133 0cfd 4001     		.2byte	0x140
 2134 0cff 460C0000 		.4byte	0xc46
 2135 0d03 16       		.uleb128 0x16
 2136 0d04 60       		.byte	0x60
 2137 0d05 13       		.byte	0x13
 2138 0d06 9E01     		.2byte	0x19e
 2139 0d08 460E0000 		.4byte	0xe46
 2140 0d0c 0C       		.uleb128 0xc
 2141 0d0d 43523100 		.ascii	"CR1\000"
 2142 0d11 13       		.byte	0x13
 2143 0d12 9F01     		.2byte	0x19f
 2144 0d14 77030000 		.4byte	0x377
 2145 0d18 02       		.byte	0x2
 2146 0d19 23       		.byte	0x23
 2147 0d1a 00       		.uleb128 0x0
 2148 0d1b 0C       		.uleb128 0xc
 2149 0d1c 43523200 		.ascii	"CR2\000"
 2150 0d20 13       		.byte	0x13
 2151 0d21 A001     		.2byte	0x1a0
ARM GAS  C:\Users\DNIEL~1\AppData\Local\Temp\cccMS60k.s 			page 39


 2152 0d23 77030000 		.4byte	0x377
 2153 0d27 02       		.byte	0x2
 2154 0d28 23       		.byte	0x23
 2155 0d29 04       		.uleb128 0x4
 2156 0d2a 17       		.uleb128 0x17
 2157 0d2b 8E050000 		.4byte	.LASF143
 2158 0d2f 13       		.byte	0x13
 2159 0d30 A101     		.2byte	0x1a1
 2160 0d32 77030000 		.4byte	0x377
 2161 0d36 02       		.byte	0x2
 2162 0d37 23       		.byte	0x23
 2163 0d38 08       		.uleb128 0x8
 2164 0d39 17       		.uleb128 0x17
 2165 0d3a 0D000000 		.4byte	.LASF144
 2166 0d3e 13       		.byte	0x13
 2167 0d3f A201     		.2byte	0x1a2
 2168 0d41 77030000 		.4byte	0x377
 2169 0d45 02       		.byte	0x2
 2170 0d46 23       		.byte	0x23
 2171 0d47 0C       		.uleb128 0xc
 2172 0d48 0C       		.uleb128 0xc
 2173 0d49 535200   		.ascii	"SR\000"
 2174 0d4c 13       		.byte	0x13
 2175 0d4d A301     		.2byte	0x1a3
 2176 0d4f 77030000 		.4byte	0x377
 2177 0d53 02       		.byte	0x2
 2178 0d54 23       		.byte	0x23
 2179 0d55 10       		.uleb128 0x10
 2180 0d56 0C       		.uleb128 0xc
 2181 0d57 45475200 		.ascii	"EGR\000"
 2182 0d5b 13       		.byte	0x13
 2183 0d5c A401     		.2byte	0x1a4
 2184 0d5e 77030000 		.4byte	0x377
 2185 0d62 02       		.byte	0x2
 2186 0d63 23       		.byte	0x23
 2187 0d64 14       		.uleb128 0x14
 2188 0d65 17       		.uleb128 0x17
 2189 0d66 E3000000 		.4byte	.LASF145
 2190 0d6a 13       		.byte	0x13
 2191 0d6b A501     		.2byte	0x1a5
 2192 0d6d 77030000 		.4byte	0x377
 2193 0d71 02       		.byte	0x2
 2194 0d72 23       		.byte	0x23
 2195 0d73 18       		.uleb128 0x18
 2196 0d74 17       		.uleb128 0x17
 2197 0d75 E9000000 		.4byte	.LASF146
 2198 0d79 13       		.byte	0x13
 2199 0d7a A601     		.2byte	0x1a6
 2200 0d7c 77030000 		.4byte	0x377
 2201 0d80 02       		.byte	0x2
 2202 0d81 23       		.byte	0x23
 2203 0d82 1C       		.uleb128 0x1c
 2204 0d83 17       		.uleb128 0x17
 2205 0d84 A3010000 		.4byte	.LASF147
 2206 0d88 13       		.byte	0x13
 2207 0d89 A701     		.2byte	0x1a7
 2208 0d8b 77030000 		.4byte	0x377
ARM GAS  C:\Users\DNIEL~1\AppData\Local\Temp\cccMS60k.s 			page 40


 2209 0d8f 02       		.byte	0x2
 2210 0d90 23       		.byte	0x23
 2211 0d91 20       		.uleb128 0x20
 2212 0d92 0C       		.uleb128 0xc
 2213 0d93 434E5400 		.ascii	"CNT\000"
 2214 0d97 13       		.byte	0x13
 2215 0d98 A801     		.2byte	0x1a8
 2216 0d9a 77030000 		.4byte	0x377
 2217 0d9e 02       		.byte	0x2
 2218 0d9f 23       		.byte	0x23
 2219 0da0 24       		.uleb128 0x24
 2220 0da1 0C       		.uleb128 0xc
 2221 0da2 50534300 		.ascii	"PSC\000"
 2222 0da6 13       		.byte	0x13
 2223 0da7 A901     		.2byte	0x1a9
 2224 0da9 77030000 		.4byte	0x377
 2225 0dad 02       		.byte	0x2
 2226 0dae 23       		.byte	0x23
 2227 0daf 28       		.uleb128 0x28
 2228 0db0 0C       		.uleb128 0xc
 2229 0db1 41525200 		.ascii	"ARR\000"
 2230 0db5 13       		.byte	0x13
 2231 0db6 AA01     		.2byte	0x1aa
 2232 0db8 77030000 		.4byte	0x377
 2233 0dbc 02       		.byte	0x2
 2234 0dbd 23       		.byte	0x23
 2235 0dbe 2C       		.uleb128 0x2c
 2236 0dbf 0C       		.uleb128 0xc
 2237 0dc0 52435200 		.ascii	"RCR\000"
 2238 0dc4 13       		.byte	0x13
 2239 0dc5 AB01     		.2byte	0x1ab
 2240 0dc7 77030000 		.4byte	0x377
 2241 0dcb 02       		.byte	0x2
 2242 0dcc 23       		.byte	0x23
 2243 0dcd 30       		.uleb128 0x30
 2244 0dce 0C       		.uleb128 0xc
 2245 0dcf 43435200 		.ascii	"CCR\000"
 2246 0dd3 13       		.byte	0x13
 2247 0dd4 AC01     		.2byte	0x1ac
 2248 0dd6 460E0000 		.4byte	0xe46
 2249 0dda 02       		.byte	0x2
 2250 0ddb 23       		.byte	0x23
 2251 0ddc 34       		.uleb128 0x34
 2252 0ddd 17       		.uleb128 0x17
 2253 0dde BD000000 		.4byte	.LASF148
 2254 0de2 13       		.byte	0x13
 2255 0de3 AD01     		.2byte	0x1ad
 2256 0de5 77030000 		.4byte	0x377
 2257 0de9 02       		.byte	0x2
 2258 0dea 23       		.byte	0x23
 2259 0deb 44       		.uleb128 0x44
 2260 0dec 0C       		.uleb128 0xc
 2261 0ded 44435200 		.ascii	"DCR\000"
 2262 0df1 13       		.byte	0x13
 2263 0df2 AE01     		.2byte	0x1ae
 2264 0df4 77030000 		.4byte	0x377
 2265 0df8 02       		.byte	0x2
ARM GAS  C:\Users\DNIEL~1\AppData\Local\Temp\cccMS60k.s 			page 41


 2266 0df9 23       		.byte	0x23
 2267 0dfa 48       		.uleb128 0x48
 2268 0dfb 17       		.uleb128 0x17
 2269 0dfc 9A050000 		.4byte	.LASF149
 2270 0e00 13       		.byte	0x13
 2271 0e01 AF01     		.2byte	0x1af
 2272 0e03 77030000 		.4byte	0x377
 2273 0e07 02       		.byte	0x2
 2274 0e08 23       		.byte	0x23
 2275 0e09 4C       		.uleb128 0x4c
 2276 0e0a 0C       		.uleb128 0xc
 2277 0e0b 4F5200   		.ascii	"OR\000"
 2278 0e0e 13       		.byte	0x13
 2279 0e0f B001     		.2byte	0x1b0
 2280 0e11 77030000 		.4byte	0x377
 2281 0e15 02       		.byte	0x2
 2282 0e16 23       		.byte	0x23
 2283 0e17 50       		.uleb128 0x50
 2284 0e18 17       		.uleb128 0x17
 2285 0e19 56000000 		.4byte	.LASF150
 2286 0e1d 13       		.byte	0x13
 2287 0e1e B101     		.2byte	0x1b1
 2288 0e20 77030000 		.4byte	0x377
 2289 0e24 02       		.byte	0x2
 2290 0e25 23       		.byte	0x23
 2291 0e26 54       		.uleb128 0x54
 2292 0e27 17       		.uleb128 0x17
 2293 0e28 64060000 		.4byte	.LASF151
 2294 0e2c 13       		.byte	0x13
 2295 0e2d B201     		.2byte	0x1b2
 2296 0e2f 77030000 		.4byte	0x377
 2297 0e33 02       		.byte	0x2
 2298 0e34 23       		.byte	0x23
 2299 0e35 58       		.uleb128 0x58
 2300 0e36 17       		.uleb128 0x17
 2301 0e37 69060000 		.4byte	.LASF152
 2302 0e3b 13       		.byte	0x13
 2303 0e3c B301     		.2byte	0x1b3
 2304 0e3e 77030000 		.4byte	0x377
 2305 0e42 02       		.byte	0x2
 2306 0e43 23       		.byte	0x23
 2307 0e44 5C       		.uleb128 0x5c
 2308 0e45 00       		.byte	0x0
 2309 0e46 0D       		.uleb128 0xd
 2310 0e47 0F070000 		.4byte	0x70f
 2311 0e4b 18       		.uleb128 0x18
 2312 0e4c 0D010000 		.4byte	.LASF153
 2313 0e50 13       		.byte	0x13
 2314 0e51 B401     		.2byte	0x1b4
 2315 0e53 030D0000 		.4byte	0xd03
 2316 0e57 09       		.uleb128 0x9
 2317 0e58 04       		.byte	0x4
 2318 0e59 4B0E0000 		.4byte	0xe4b
 2319 0e5d 1A       		.uleb128 0x1a
 2320 0e5e 01       		.byte	0x1
 2321 0e5f 14       		.byte	0x14
 2322 0e60 55       		.byte	0x55
ARM GAS  C:\Users\DNIEL~1\AppData\Local\Temp\cccMS60k.s 			page 42


 2323 0e61 780E0000 		.4byte	0xe78
 2324 0e65 1B       		.uleb128 0x1b
 2325 0e66 F6060000 		.4byte	.LASF154
 2326 0e6a 00       		.sleb128 0
 2327 0e6b 1B       		.uleb128 0x1b
 2328 0e6c 7B050000 		.4byte	.LASF155
 2329 0e70 01       		.sleb128 1
 2330 0e71 1B       		.uleb128 0x1b
 2331 0e72 D3000000 		.4byte	.LASF156
 2332 0e76 02       		.sleb128 2
 2333 0e77 00       		.byte	0x0
 2334 0e78 03       		.uleb128 0x3
 2335 0e79 B4060000 		.4byte	.LASF157
 2336 0e7d 14       		.byte	0x14
 2337 0e7e 59       		.byte	0x59
 2338 0e7f 5D0E0000 		.4byte	0xe5d
 2339 0e83 03       		.uleb128 0x3
 2340 0e84 9E060000 		.4byte	.LASF158
 2341 0e88 14       		.byte	0x14
 2342 0e89 5E       		.byte	0x5e
 2343 0e8a 8E0E0000 		.4byte	0xe8e
 2344 0e8e 0B       		.uleb128 0xb
 2345 0e8f 9E060000 		.4byte	.LASF158
 2346 0e93 14       		.byte	0x14
 2347 0e94 15       		.byte	0x15
 2348 0e95 6F01     		.2byte	0x16f
 2349 0e97 E70E0000 		.4byte	0xee7
 2350 0e9b 17       		.uleb128 0x17
 2351 0e9c 6D010000 		.4byte	.LASF133
 2352 0ea0 15       		.byte	0x15
 2353 0ea1 7301     		.2byte	0x173
 2354 0ea3 780E0000 		.4byte	0xe78
 2355 0ea7 02       		.byte	0x2
 2356 0ea8 23       		.byte	0x23
 2357 0ea9 00       		.uleb128 0x0
 2358 0eaa 17       		.uleb128 0x17
 2359 0eab 93050000 		.4byte	.LASF134
 2360 0eaf 15       		.byte	0x15
 2361 0eb0 7701     		.2byte	0x177
 2362 0eb2 D60F0000 		.4byte	0xfd6
 2363 0eb6 02       		.byte	0x2
 2364 0eb7 23       		.byte	0x23
 2365 0eb8 04       		.uleb128 0x4
 2366 0eb9 17       		.uleb128 0x17
 2367 0eba 6F000000 		.4byte	.LASF159
 2368 0ebe 15       		.byte	0x15
 2369 0ebf 7B01     		.2byte	0x17b
 2370 0ec1 160F0000 		.4byte	0xf16
 2371 0ec5 02       		.byte	0x2
 2372 0ec6 23       		.byte	0x23
 2373 0ec7 08       		.uleb128 0x8
 2374 0ec8 17       		.uleb128 0x17
 2375 0ec9 E5060000 		.4byte	.LASF160
 2376 0ecd 15       		.byte	0x15
 2377 0ece 8301     		.2byte	0x183
 2378 0ed0 86000000 		.4byte	0x86
 2379 0ed4 02       		.byte	0x2
ARM GAS  C:\Users\DNIEL~1\AppData\Local\Temp\cccMS60k.s 			page 43


 2380 0ed5 23       		.byte	0x23
 2381 0ed6 0C       		.uleb128 0xc
 2382 0ed7 0C       		.uleb128 0xc
 2383 0ed8 74696D00 		.ascii	"tim\000"
 2384 0edc 15       		.byte	0x15
 2385 0edd 8701     		.2byte	0x187
 2386 0edf 570E0000 		.4byte	0xe57
 2387 0ee3 02       		.byte	0x2
 2388 0ee4 23       		.byte	0x23
 2389 0ee5 10       		.uleb128 0x10
 2390 0ee6 00       		.byte	0x0
 2391 0ee7 03       		.uleb128 0x3
 2392 0ee8 E6030000 		.4byte	.LASF161
 2393 0eec 14       		.byte	0x14
 2394 0eed 65       		.byte	0x65
 2395 0eee F20E0000 		.4byte	0xef2
 2396 0ef2 09       		.uleb128 0x9
 2397 0ef3 04       		.byte	0x4
 2398 0ef4 F80E0000 		.4byte	0xef8
 2399 0ef8 0E       		.uleb128 0xe
 2400 0ef9 01       		.byte	0x1
 2401 0efa 040F0000 		.4byte	0xf04
 2402 0efe 0F       		.uleb128 0xf
 2403 0eff 040F0000 		.4byte	0xf04
 2404 0f03 00       		.byte	0x0
 2405 0f04 09       		.uleb128 0x9
 2406 0f05 04       		.byte	0x4
 2407 0f06 830E0000 		.4byte	0xe83
 2408 0f0a 18       		.uleb128 0x18
 2409 0f0b 89020000 		.4byte	.LASF162
 2410 0f0f 15       		.byte	0x15
 2411 0f10 2001     		.2byte	0x120
 2412 0f12 86000000 		.4byte	0x86
 2413 0f16 18       		.uleb128 0x18
 2414 0f17 BF060000 		.4byte	.LASF163
 2415 0f1b 15       		.byte	0x15
 2416 0f1c 2A01     		.2byte	0x12a
 2417 0f1e 62000000 		.4byte	0x62
 2418 0f22 16       		.uleb128 0x16
 2419 0f23 08       		.byte	0x8
 2420 0f24 15       		.byte	0x15
 2421 0f25 2F01     		.2byte	0x12f
 2422 0f27 4A0F0000 		.4byte	0xf4a
 2423 0f2b 17       		.uleb128 0x17
 2424 0f2c 89050000 		.4byte	.LASF164
 2425 0f30 15       		.byte	0x15
 2426 0f31 3301     		.2byte	0x133
 2427 0f33 0A0F0000 		.4byte	0xf0a
 2428 0f37 02       		.byte	0x2
 2429 0f38 23       		.byte	0x23
 2430 0f39 00       		.uleb128 0x0
 2431 0f3a 17       		.uleb128 0x17
 2432 0f3b C9010000 		.4byte	.LASF165
 2433 0f3f 15       		.byte	0x15
 2434 0f40 3901     		.2byte	0x139
 2435 0f42 E70E0000 		.4byte	0xee7
 2436 0f46 02       		.byte	0x2
ARM GAS  C:\Users\DNIEL~1\AppData\Local\Temp\cccMS60k.s 			page 44


 2437 0f47 23       		.byte	0x23
 2438 0f48 04       		.uleb128 0x4
 2439 0f49 00       		.byte	0x0
 2440 0f4a 18       		.uleb128 0x18
 2441 0f4b 00060000 		.4byte	.LASF166
 2442 0f4f 15       		.byte	0x15
 2443 0f50 3B01     		.2byte	0x13b
 2444 0f52 220F0000 		.4byte	0xf22
 2445 0f56 16       		.uleb128 0x16
 2446 0f57 34       		.byte	0x34
 2447 0f58 15       		.byte	0x15
 2448 0f59 4001     		.2byte	0x140
 2449 0f5b BA0F0000 		.4byte	0xfba
 2450 0f5f 17       		.uleb128 0x17
 2451 0f60 C2000000 		.4byte	.LASF167
 2452 0f64 15       		.byte	0x15
 2453 0f65 4601     		.2byte	0x146
 2454 0f67 86000000 		.4byte	0x86
 2455 0f6b 02       		.byte	0x2
 2456 0f6c 23       		.byte	0x23
 2457 0f6d 00       		.uleb128 0x0
 2458 0f6e 17       		.uleb128 0x17
 2459 0f6f 6F000000 		.4byte	.LASF159
 2460 0f73 15       		.byte	0x15
 2461 0f74 4C01     		.2byte	0x14c
 2462 0f76 160F0000 		.4byte	0xf16
 2463 0f7a 02       		.byte	0x2
 2464 0f7b 23       		.byte	0x23
 2465 0f7c 04       		.uleb128 0x4
 2466 0f7d 17       		.uleb128 0x17
 2467 0f7e C9010000 		.4byte	.LASF165
 2468 0f82 15       		.byte	0x15
 2469 0f83 5201     		.2byte	0x152
 2470 0f85 E70E0000 		.4byte	0xee7
 2471 0f89 02       		.byte	0x2
 2472 0f8a 23       		.byte	0x23
 2473 0f8b 08       		.uleb128 0x8
 2474 0f8c 17       		.uleb128 0x17
 2475 0f8d D8050000 		.4byte	.LASF168
 2476 0f91 15       		.byte	0x15
 2477 0f92 5601     		.2byte	0x156
 2478 0f94 BA0F0000 		.4byte	0xfba
 2479 0f98 02       		.byte	0x2
 2480 0f99 23       		.byte	0x23
 2481 0f9a 0C       		.uleb128 0xc
 2482 0f9b 0C       		.uleb128 0xc
 2483 0f9c 63723200 		.ascii	"cr2\000"
 2484 0fa0 15       		.byte	0x15
 2485 0fa1 5C01     		.2byte	0x15c
 2486 0fa3 86000000 		.4byte	0x86
 2487 0fa7 02       		.byte	0x2
 2488 0fa8 23       		.byte	0x23
 2489 0fa9 2C       		.uleb128 0x2c
 2490 0faa 17       		.uleb128 0x17
 2491 0fab 20070000 		.4byte	.LASF169
 2492 0faf 15       		.byte	0x15
 2493 0fb0 6901     		.2byte	0x169
ARM GAS  C:\Users\DNIEL~1\AppData\Local\Temp\cccMS60k.s 			page 45


 2494 0fb2 86000000 		.4byte	0x86
 2495 0fb6 02       		.byte	0x2
 2496 0fb7 23       		.byte	0x23
 2497 0fb8 30       		.uleb128 0x30
 2498 0fb9 00       		.byte	0x0
 2499 0fba 14       		.uleb128 0x14
 2500 0fbb 4A0F0000 		.4byte	0xf4a
 2501 0fbf CA0F0000 		.4byte	0xfca
 2502 0fc3 15       		.uleb128 0x15
 2503 0fc4 3B000000 		.4byte	0x3b
 2504 0fc8 03       		.byte	0x3
 2505 0fc9 00       		.byte	0x0
 2506 0fca 18       		.uleb128 0x18
 2507 0fcb 65050000 		.4byte	.LASF170
 2508 0fcf 15       		.byte	0x15
 2509 0fd0 6A01     		.2byte	0x16a
 2510 0fd2 560F0000 		.4byte	0xf56
 2511 0fd6 09       		.uleb128 0x9
 2512 0fd7 04       		.byte	0x4
 2513 0fd8 DC0F0000 		.4byte	0xfdc
 2514 0fdc 12       		.uleb128 0x12
 2515 0fdd CA0F0000 		.4byte	0xfca
 2516 0fe1 09       		.uleb128 0x9
 2517 0fe2 04       		.byte	0x4
 2518 0fe3 EE050000 		.4byte	0x5ee
 2519 0fe7 04       		.uleb128 0x4
 2520 0fe8 08       		.byte	0x8
 2521 0fe9 04       		.byte	0x4
 2522 0fea 09070000 		.4byte	.LASF171
 2523 0fee 04       		.uleb128 0x4
 2524 0fef 04       		.byte	0x4
 2525 0ff0 04       		.byte	0x4
 2526 0ff1 DB030000 		.4byte	.LASF172
 2527 0ff5 04       		.uleb128 0x4
 2528 0ff6 08       		.byte	0x8
 2529 0ff7 04       		.byte	0x4
 2530 0ff8 6F050000 		.4byte	.LASF173
 2531 0ffc 03       		.uleb128 0x3
 2532 0ffd 61030000 		.4byte	.LASF174
 2533 1001 16       		.byte	0x16
 2534 1002 28       		.byte	0x28
 2535 1003 07100000 		.4byte	0x1007
 2536 1007 05       		.uleb128 0x5
 2537 1008 BF010000 		.4byte	.LASF175
 2538 100c 04       		.byte	0x4
 2539 100d 17       		.byte	0x17
 2540 100e 00       		.byte	0x0
 2541 100f 21100000 		.4byte	0x1021
 2542 1013 1F       		.uleb128 0x1f
 2543 1014 EE050000 		.4byte	.LASF176
 2544 1018 B9020000 		.4byte	0x2b9
 2545 101c 02       		.byte	0x2
 2546 101d 23       		.byte	0x23
 2547 101e 00       		.uleb128 0x0
 2548 101f 01       		.byte	0x1
 2549 1020 00       		.byte	0x0
 2550 1021 03       		.uleb128 0x3
ARM GAS  C:\Users\DNIEL~1\AppData\Local\Temp\cccMS60k.s 			page 46


 2551 1022 18020000 		.4byte	.LASF177
 2552 1026 16       		.byte	0x16
 2553 1027 66       		.byte	0x66
 2554 1028 FC0F0000 		.4byte	0xffc
 2555 102c 20       		.uleb128 0x20
 2556 102d 25070000 		.4byte	.LASF193
 2557 1031 01       		.byte	0x1
 2558 1032 45       		.byte	0x45
 2559 1033 01       		.byte	0x1
 2560 1034 00000000 		.4byte	.LFB118
 2561 1038 1E000000 		.4byte	.LFE118
 2562 103c 00000000 		.4byte	.LLST0
 2563 1040 70100000 		.4byte	0x1070
 2564 1044 21       		.uleb128 0x21
 2565 1045 63687000 		.ascii	"chp\000"
 2566 1049 01       		.byte	0x1
 2567 104a 45       		.byte	0x45
 2568 104b 70100000 		.4byte	0x1070
 2569 104f 38000000 		.4byte	.LLST1
 2570 1053 22       		.uleb128 0x22
 2571 1054 666D7400 		.ascii	"fmt\000"
 2572 1058 01       		.byte	0x1
 2573 1059 45       		.byte	0x45
 2574 105a E3050000 		.4byte	0x5e3
 2575 105e 02       		.byte	0x2
 2576 105f 91       		.byte	0x91
 2577 1060 74       		.sleb128 -12
 2578 1061 23       		.uleb128 0x23
 2579 1062 24       		.uleb128 0x24
 2580 1063 617000   		.ascii	"ap\000"
 2581 1066 01       		.byte	0x1
 2582 1067 46       		.byte	0x46
 2583 1068 21100000 		.4byte	0x1021
 2584 106c 02       		.byte	0x2
 2585 106d 91       		.byte	0x91
 2586 106e 6C       		.sleb128 -20
 2587 106f 00       		.byte	0x0
 2588 1070 09       		.uleb128 0x9
 2589 1071 04       		.byte	0x4
 2590 1072 E4060000 		.4byte	0x6e4
 2591 1076 25       		.uleb128 0x25
 2592 1077 01       		.byte	0x1
 2593 1078 18050000 		.4byte	.LASF178
 2594 107c 02       		.byte	0x2
 2595 107d 3A       		.byte	0x3a
 2596 107e 01       		.byte	0x1
 2597 107f 00000000 		.4byte	.LFB120
 2598 1083 10000000 		.4byte	.LFE120
 2599 1087 02       		.byte	0x2
 2600 1088 7D       		.byte	0x7d
 2601 1089 00       		.sleb128 0
 2602 108a 26       		.uleb128 0x26
 2603 108b 01       		.byte	0x1
 2604 108c 5C000000 		.4byte	.LASF179
 2605 1090 02       		.byte	0x2
 2606 1091 43       		.byte	0x43
 2607 1092 01       		.byte	0x1
ARM GAS  C:\Users\DNIEL~1\AppData\Local\Temp\cccMS60k.s 			page 47


 2608 1093 00000000 		.4byte	.LFB121
 2609 1097 58000000 		.4byte	.LFE121
 2610 109b 4B000000 		.4byte	.LLST2
 2611 109f 27       		.uleb128 0x27
 2612 10a0 01       		.byte	0x1
 2613 10a1 29000000 		.4byte	.LASF194
 2614 10a5 02       		.byte	0x2
 2615 10a6 54       		.byte	0x54
 2616 10a7 01       		.byte	0x1
 2617 10a8 00000000 		.4byte	.LFB122
 2618 10ac 68000000 		.4byte	.LFE122
 2619 10b0 6B000000 		.4byte	.LLST3
 2620 10b4 E6100000 		.4byte	0x10e6
 2621 10b8 21       		.uleb128 0x21
 2622 10b9 63687000 		.ascii	"chp\000"
 2623 10bd 02       		.byte	0x2
 2624 10be 54       		.byte	0x54
 2625 10bf 70100000 		.4byte	0x1070
 2626 10c3 8B000000 		.4byte	.LLST4
 2627 10c7 28       		.uleb128 0x28
 2628 10c8 DB060000 		.4byte	.LASF180
 2629 10cc 02       		.byte	0x2
 2630 10cd 54       		.byte	0x54
 2631 10ce 29000000 		.4byte	0x29
 2632 10d2 A9000000 		.4byte	.LLST5
 2633 10d6 28       		.uleb128 0x28
 2634 10d7 F1060000 		.4byte	.LASF181
 2635 10db 02       		.byte	0x2
 2636 10dc 54       		.byte	0x54
 2637 10dd E6100000 		.4byte	0x10e6
 2638 10e1 BC000000 		.4byte	.LLST6
 2639 10e5 00       		.byte	0x0
 2640 10e6 09       		.uleb128 0x9
 2641 10e7 04       		.byte	0x4
 2642 10e8 E10F0000 		.4byte	0xfe1
 2643 10ec 29       		.uleb128 0x29
 2644 10ed 39000000 		.4byte	.LASF182
 2645 10f1 09       		.byte	0x9
 2646 10f2 F5       		.byte	0xf5
 2647 10f3 43040000 		.4byte	0x443
 2648 10f7 01       		.byte	0x1
 2649 10f8 01       		.byte	0x1
 2650 10f9 29       		.uleb128 0x29
 2651 10fa 90060000 		.4byte	.LASF183
 2652 10fe 0A       		.byte	0xa
 2653 10ff 6F       		.byte	0x6f
 2654 1100 AB040000 		.4byte	0x4ab
 2655 1104 01       		.byte	0x1
 2656 1105 01       		.byte	0x1
 2657 1106 2A       		.uleb128 0x2a
 2658 1107 A9000000 		.4byte	.LASF184
 2659 110b 18       		.byte	0x18
 2660 110c 9806     		.2byte	0x698
 2661 110e 1F070000 		.4byte	0x71f
 2662 1112 01       		.byte	0x1
 2663 1113 01       		.byte	0x1
 2664 1114 2A       		.uleb128 0x2a
ARM GAS  C:\Users\DNIEL~1\AppData\Local\Temp\cccMS60k.s 			page 48


 2665 1115 54020000 		.4byte	.LASF185
 2666 1119 12       		.byte	0x12
 2667 111a 4B01     		.2byte	0x14b
 2668 111c F70C0000 		.4byte	0xcf7
 2669 1120 01       		.byte	0x1
 2670 1121 01       		.byte	0x1
 2671 1122 2A       		.uleb128 0x2a
 2672 1123 EC010000 		.4byte	.LASF186
 2673 1127 15       		.byte	0x15
 2674 1128 BF01     		.2byte	0x1bf
 2675 112a 830E0000 		.4byte	0xe83
 2676 112e 01       		.byte	0x1
 2677 112f 01       		.byte	0x1
 2678 1130 2B       		.uleb128 0x2b
 2679 1131 7E000000 		.4byte	.LASF188
 2680 1135 02       		.byte	0x2
 2681 1136 0D       		.byte	0xd
 2682 1137 090C0000 		.4byte	0xc09
 2683 113b 2C       		.uleb128 0x2c
 2684 113c 2D060000 		.4byte	.LASF187
 2685 1140 02       		.byte	0x2
 2686 1141 0F       		.byte	0xf
 2687 1142 CA0F0000 		.4byte	0xfca
 2688 1146 05       		.byte	0x5
 2689 1147 03       		.byte	0x3
 2690 1148 00000000 		.4byte	pwmcfg
 2691 114c 14       		.uleb128 0x14
 2692 114d BB020000 		.4byte	0x2bb
 2693 1151 5C110000 		.4byte	0x115c
 2694 1155 15       		.uleb128 0x15
 2695 1156 3B000000 		.4byte	0x3b
 2696 115a 39       		.byte	0x39
 2697 115b 00       		.byte	0x0
 2698 115c 2B       		.uleb128 0x2b
 2699 115d 9F050000 		.4byte	.LASF189
 2700 1161 02       		.byte	0x2
 2701 1162 20       		.byte	0x20
 2702 1163 4C110000 		.4byte	0x114c
 2703 1167 24       		.uleb128 0x24
 2704 1168 69646F00 		.ascii	"ido\000"
 2705 116c 02       		.byte	0x2
 2706 116d 38       		.byte	0x38
 2707 116e 86000000 		.4byte	0x86
 2708 1172 05       		.byte	0x5
 2709 1173 03       		.byte	0x3
 2710 1174 00000000 		.4byte	ido
 2711 1178 29       		.uleb128 0x29
 2712 1179 39000000 		.4byte	.LASF182
 2713 117d 09       		.byte	0x9
 2714 117e F5       		.byte	0xf5
 2715 117f 43040000 		.4byte	0x443
 2716 1183 01       		.byte	0x1
 2717 1184 01       		.byte	0x1
 2718 1185 29       		.uleb128 0x29
 2719 1186 90060000 		.4byte	.LASF183
 2720 118a 0A       		.byte	0xa
 2721 118b 6F       		.byte	0x6f
ARM GAS  C:\Users\DNIEL~1\AppData\Local\Temp\cccMS60k.s 			page 49


 2722 118c AB040000 		.4byte	0x4ab
 2723 1190 01       		.byte	0x1
 2724 1191 01       		.byte	0x1
 2725 1192 2A       		.uleb128 0x2a
 2726 1193 A9000000 		.4byte	.LASF184
 2727 1197 18       		.byte	0x18
 2728 1198 9806     		.2byte	0x698
 2729 119a 1F070000 		.4byte	0x71f
 2730 119e 01       		.byte	0x1
 2731 119f 01       		.byte	0x1
 2732 11a0 2A       		.uleb128 0x2a
 2733 11a1 54020000 		.4byte	.LASF185
 2734 11a5 12       		.byte	0x12
 2735 11a6 4B01     		.2byte	0x14b
 2736 11a8 F70C0000 		.4byte	0xcf7
 2737 11ac 01       		.byte	0x1
 2738 11ad 01       		.byte	0x1
 2739 11ae 2A       		.uleb128 0x2a
 2740 11af EC010000 		.4byte	.LASF186
 2741 11b3 15       		.byte	0x15
 2742 11b4 BF01     		.2byte	0x1bf
 2743 11b6 830E0000 		.4byte	0xe83
 2744 11ba 01       		.byte	0x1
 2745 11bb 01       		.byte	0x1
 2746 11bc 00       		.byte	0x0
 2747              		.section	.debug_abbrev
 2748 0000 01       		.uleb128 0x1
 2749 0001 11       		.uleb128 0x11
 2750 0002 01       		.byte	0x1
 2751 0003 25       		.uleb128 0x25
 2752 0004 0E       		.uleb128 0xe
 2753 0005 13       		.uleb128 0x13
 2754 0006 0B       		.uleb128 0xb
 2755 0007 03       		.uleb128 0x3
 2756 0008 0E       		.uleb128 0xe
 2757 0009 1B       		.uleb128 0x1b
 2758 000a 0E       		.uleb128 0xe
 2759 000b 11       		.uleb128 0x11
 2760 000c 01       		.uleb128 0x1
 2761 000d 52       		.uleb128 0x52
 2762 000e 01       		.uleb128 0x1
 2763 000f 55       		.uleb128 0x55
 2764 0010 06       		.uleb128 0x6
 2765 0011 10       		.uleb128 0x10
 2766 0012 06       		.uleb128 0x6
 2767 0013 00       		.byte	0x0
 2768 0014 00       		.byte	0x0
 2769 0015 02       		.uleb128 0x2
 2770 0016 24       		.uleb128 0x24
 2771 0017 00       		.byte	0x0
 2772 0018 0B       		.uleb128 0xb
 2773 0019 0B       		.uleb128 0xb
 2774 001a 3E       		.uleb128 0x3e
 2775 001b 0B       		.uleb128 0xb
 2776 001c 03       		.uleb128 0x3
 2777 001d 08       		.uleb128 0x8
 2778 001e 00       		.byte	0x0
ARM GAS  C:\Users\DNIEL~1\AppData\Local\Temp\cccMS60k.s 			page 50


 2779 001f 00       		.byte	0x0
 2780 0020 03       		.uleb128 0x3
 2781 0021 16       		.uleb128 0x16
 2782 0022 00       		.byte	0x0
 2783 0023 03       		.uleb128 0x3
 2784 0024 0E       		.uleb128 0xe
 2785 0025 3A       		.uleb128 0x3a
 2786 0026 0B       		.uleb128 0xb
 2787 0027 3B       		.uleb128 0x3b
 2788 0028 0B       		.uleb128 0xb
 2789 0029 49       		.uleb128 0x49
 2790 002a 13       		.uleb128 0x13
 2791 002b 00       		.byte	0x0
 2792 002c 00       		.byte	0x0
 2793 002d 04       		.uleb128 0x4
 2794 002e 24       		.uleb128 0x24
 2795 002f 00       		.byte	0x0
 2796 0030 0B       		.uleb128 0xb
 2797 0031 0B       		.uleb128 0xb
 2798 0032 3E       		.uleb128 0x3e
 2799 0033 0B       		.uleb128 0xb
 2800 0034 03       		.uleb128 0x3
 2801 0035 0E       		.uleb128 0xe
 2802 0036 00       		.byte	0x0
 2803 0037 00       		.byte	0x0
 2804 0038 05       		.uleb128 0x5
 2805 0039 13       		.uleb128 0x13
 2806 003a 01       		.byte	0x1
 2807 003b 03       		.uleb128 0x3
 2808 003c 0E       		.uleb128 0xe
 2809 003d 0B       		.uleb128 0xb
 2810 003e 0B       		.uleb128 0xb
 2811 003f 3A       		.uleb128 0x3a
 2812 0040 0B       		.uleb128 0xb
 2813 0041 3B       		.uleb128 0x3b
 2814 0042 0B       		.uleb128 0xb
 2815 0043 01       		.uleb128 0x1
 2816 0044 13       		.uleb128 0x13
 2817 0045 00       		.byte	0x0
 2818 0046 00       		.byte	0x0
 2819 0047 06       		.uleb128 0x6
 2820 0048 0D       		.uleb128 0xd
 2821 0049 00       		.byte	0x0
 2822 004a 03       		.uleb128 0x3
 2823 004b 0E       		.uleb128 0xe
 2824 004c 3A       		.uleb128 0x3a
 2825 004d 0B       		.uleb128 0xb
 2826 004e 3B       		.uleb128 0x3b
 2827 004f 0B       		.uleb128 0xb
 2828 0050 49       		.uleb128 0x49
 2829 0051 13       		.uleb128 0x13
 2830 0052 38       		.uleb128 0x38
 2831 0053 0A       		.uleb128 0xa
 2832 0054 00       		.byte	0x0
 2833 0055 00       		.byte	0x0
 2834 0056 07       		.uleb128 0x7
 2835 0057 0D       		.uleb128 0xd
ARM GAS  C:\Users\DNIEL~1\AppData\Local\Temp\cccMS60k.s 			page 51


 2836 0058 00       		.byte	0x0
 2837 0059 03       		.uleb128 0x3
 2838 005a 08       		.uleb128 0x8
 2839 005b 3A       		.uleb128 0x3a
 2840 005c 0B       		.uleb128 0xb
 2841 005d 3B       		.uleb128 0x3b
 2842 005e 0B       		.uleb128 0xb
 2843 005f 49       		.uleb128 0x49
 2844 0060 13       		.uleb128 0x13
 2845 0061 38       		.uleb128 0x38
 2846 0062 0A       		.uleb128 0xa
 2847 0063 00       		.byte	0x0
 2848 0064 00       		.byte	0x0
 2849 0065 08       		.uleb128 0x8
 2850 0066 13       		.uleb128 0x13
 2851 0067 01       		.byte	0x1
 2852 0068 0B       		.uleb128 0xb
 2853 0069 0B       		.uleb128 0xb
 2854 006a 3A       		.uleb128 0x3a
 2855 006b 0B       		.uleb128 0xb
 2856 006c 3B       		.uleb128 0x3b
 2857 006d 0B       		.uleb128 0xb
 2858 006e 01       		.uleb128 0x1
 2859 006f 13       		.uleb128 0x13
 2860 0070 00       		.byte	0x0
 2861 0071 00       		.byte	0x0
 2862 0072 09       		.uleb128 0x9
 2863 0073 0F       		.uleb128 0xf
 2864 0074 00       		.byte	0x0
 2865 0075 0B       		.uleb128 0xb
 2866 0076 0B       		.uleb128 0xb
 2867 0077 49       		.uleb128 0x49
 2868 0078 13       		.uleb128 0x13
 2869 0079 00       		.byte	0x0
 2870 007a 00       		.byte	0x0
 2871 007b 0A       		.uleb128 0xa
 2872 007c 0F       		.uleb128 0xf
 2873 007d 00       		.byte	0x0
 2874 007e 0B       		.uleb128 0xb
 2875 007f 0B       		.uleb128 0xb
 2876 0080 00       		.byte	0x0
 2877 0081 00       		.byte	0x0
 2878 0082 0B       		.uleb128 0xb
 2879 0083 13       		.uleb128 0x13
 2880 0084 01       		.byte	0x1
 2881 0085 03       		.uleb128 0x3
 2882 0086 0E       		.uleb128 0xe
 2883 0087 0B       		.uleb128 0xb
 2884 0088 0B       		.uleb128 0xb
 2885 0089 3A       		.uleb128 0x3a
 2886 008a 0B       		.uleb128 0xb
 2887 008b 3B       		.uleb128 0x3b
 2888 008c 05       		.uleb128 0x5
 2889 008d 01       		.uleb128 0x1
 2890 008e 13       		.uleb128 0x13
 2891 008f 00       		.byte	0x0
 2892 0090 00       		.byte	0x0
ARM GAS  C:\Users\DNIEL~1\AppData\Local\Temp\cccMS60k.s 			page 52


 2893 0091 0C       		.uleb128 0xc
 2894 0092 0D       		.uleb128 0xd
 2895 0093 00       		.byte	0x0
 2896 0094 03       		.uleb128 0x3
 2897 0095 08       		.uleb128 0x8
 2898 0096 3A       		.uleb128 0x3a
 2899 0097 0B       		.uleb128 0xb
 2900 0098 3B       		.uleb128 0x3b
 2901 0099 05       		.uleb128 0x5
 2902 009a 49       		.uleb128 0x49
 2903 009b 13       		.uleb128 0x13
 2904 009c 38       		.uleb128 0x38
 2905 009d 0A       		.uleb128 0xa
 2906 009e 00       		.byte	0x0
 2907 009f 00       		.byte	0x0
 2908 00a0 0D       		.uleb128 0xd
 2909 00a1 35       		.uleb128 0x35
 2910 00a2 00       		.byte	0x0
 2911 00a3 49       		.uleb128 0x49
 2912 00a4 13       		.uleb128 0x13
 2913 00a5 00       		.byte	0x0
 2914 00a6 00       		.byte	0x0
 2915 00a7 0E       		.uleb128 0xe
 2916 00a8 15       		.uleb128 0x15
 2917 00a9 01       		.byte	0x1
 2918 00aa 27       		.uleb128 0x27
 2919 00ab 0C       		.uleb128 0xc
 2920 00ac 01       		.uleb128 0x1
 2921 00ad 13       		.uleb128 0x13
 2922 00ae 00       		.byte	0x0
 2923 00af 00       		.byte	0x0
 2924 00b0 0F       		.uleb128 0xf
 2925 00b1 05       		.uleb128 0x5
 2926 00b2 00       		.byte	0x0
 2927 00b3 49       		.uleb128 0x49
 2928 00b4 13       		.uleb128 0x13
 2929 00b5 00       		.byte	0x0
 2930 00b6 00       		.byte	0x0
 2931 00b7 10       		.uleb128 0x10
 2932 00b8 17       		.uleb128 0x17
 2933 00b9 01       		.byte	0x1
 2934 00ba 0B       		.uleb128 0xb
 2935 00bb 0B       		.uleb128 0xb
 2936 00bc 3A       		.uleb128 0x3a
 2937 00bd 0B       		.uleb128 0xb
 2938 00be 3B       		.uleb128 0x3b
 2939 00bf 0B       		.uleb128 0xb
 2940 00c0 01       		.uleb128 0x1
 2941 00c1 13       		.uleb128 0x13
 2942 00c2 00       		.byte	0x0
 2943 00c3 00       		.byte	0x0
 2944 00c4 11       		.uleb128 0x11
 2945 00c5 0D       		.uleb128 0xd
 2946 00c6 00       		.byte	0x0
 2947 00c7 03       		.uleb128 0x3
 2948 00c8 0E       		.uleb128 0xe
 2949 00c9 3A       		.uleb128 0x3a
ARM GAS  C:\Users\DNIEL~1\AppData\Local\Temp\cccMS60k.s 			page 53


 2950 00ca 0B       		.uleb128 0xb
 2951 00cb 3B       		.uleb128 0x3b
 2952 00cc 0B       		.uleb128 0xb
 2953 00cd 49       		.uleb128 0x49
 2954 00ce 13       		.uleb128 0x13
 2955 00cf 00       		.byte	0x0
 2956 00d0 00       		.byte	0x0
 2957 00d1 12       		.uleb128 0x12
 2958 00d2 26       		.uleb128 0x26
 2959 00d3 00       		.byte	0x0
 2960 00d4 49       		.uleb128 0x49
 2961 00d5 13       		.uleb128 0x13
 2962 00d6 00       		.byte	0x0
 2963 00d7 00       		.byte	0x0
 2964 00d8 13       		.uleb128 0x13
 2965 00d9 15       		.uleb128 0x15
 2966 00da 01       		.byte	0x1
 2967 00db 27       		.uleb128 0x27
 2968 00dc 0C       		.uleb128 0xc
 2969 00dd 49       		.uleb128 0x49
 2970 00de 13       		.uleb128 0x13
 2971 00df 01       		.uleb128 0x1
 2972 00e0 13       		.uleb128 0x13
 2973 00e1 00       		.byte	0x0
 2974 00e2 00       		.byte	0x0
 2975 00e3 14       		.uleb128 0x14
 2976 00e4 01       		.uleb128 0x1
 2977 00e5 01       		.byte	0x1
 2978 00e6 49       		.uleb128 0x49
 2979 00e7 13       		.uleb128 0x13
 2980 00e8 01       		.uleb128 0x1
 2981 00e9 13       		.uleb128 0x13
 2982 00ea 00       		.byte	0x0
 2983 00eb 00       		.byte	0x0
 2984 00ec 15       		.uleb128 0x15
 2985 00ed 21       		.uleb128 0x21
 2986 00ee 00       		.byte	0x0
 2987 00ef 49       		.uleb128 0x49
 2988 00f0 13       		.uleb128 0x13
 2989 00f1 2F       		.uleb128 0x2f
 2990 00f2 0B       		.uleb128 0xb
 2991 00f3 00       		.byte	0x0
 2992 00f4 00       		.byte	0x0
 2993 00f5 16       		.uleb128 0x16
 2994 00f6 13       		.uleb128 0x13
 2995 00f7 01       		.byte	0x1
 2996 00f8 0B       		.uleb128 0xb
 2997 00f9 0B       		.uleb128 0xb
 2998 00fa 3A       		.uleb128 0x3a
 2999 00fb 0B       		.uleb128 0xb
 3000 00fc 3B       		.uleb128 0x3b
 3001 00fd 05       		.uleb128 0x5
 3002 00fe 01       		.uleb128 0x1
 3003 00ff 13       		.uleb128 0x13
 3004 0100 00       		.byte	0x0
 3005 0101 00       		.byte	0x0
 3006 0102 17       		.uleb128 0x17
ARM GAS  C:\Users\DNIEL~1\AppData\Local\Temp\cccMS60k.s 			page 54


 3007 0103 0D       		.uleb128 0xd
 3008 0104 00       		.byte	0x0
 3009 0105 03       		.uleb128 0x3
 3010 0106 0E       		.uleb128 0xe
 3011 0107 3A       		.uleb128 0x3a
 3012 0108 0B       		.uleb128 0xb
 3013 0109 3B       		.uleb128 0x3b
 3014 010a 05       		.uleb128 0x5
 3015 010b 49       		.uleb128 0x49
 3016 010c 13       		.uleb128 0x13
 3017 010d 38       		.uleb128 0x38
 3018 010e 0A       		.uleb128 0xa
 3019 010f 00       		.byte	0x0
 3020 0110 00       		.byte	0x0
 3021 0111 18       		.uleb128 0x18
 3022 0112 16       		.uleb128 0x16
 3023 0113 00       		.byte	0x0
 3024 0114 03       		.uleb128 0x3
 3025 0115 0E       		.uleb128 0xe
 3026 0116 3A       		.uleb128 0x3a
 3027 0117 0B       		.uleb128 0xb
 3028 0118 3B       		.uleb128 0x3b
 3029 0119 05       		.uleb128 0x5
 3030 011a 49       		.uleb128 0x49
 3031 011b 13       		.uleb128 0x13
 3032 011c 00       		.byte	0x0
 3033 011d 00       		.byte	0x0
 3034 011e 19       		.uleb128 0x19
 3035 011f 13       		.uleb128 0x13
 3036 0120 01       		.byte	0x1
 3037 0121 0B       		.uleb128 0xb
 3038 0122 05       		.uleb128 0x5
 3039 0123 3A       		.uleb128 0x3a
 3040 0124 0B       		.uleb128 0xb
 3041 0125 3B       		.uleb128 0x3b
 3042 0126 05       		.uleb128 0x5
 3043 0127 01       		.uleb128 0x1
 3044 0128 13       		.uleb128 0x13
 3045 0129 00       		.byte	0x0
 3046 012a 00       		.byte	0x0
 3047 012b 1A       		.uleb128 0x1a
 3048 012c 04       		.uleb128 0x4
 3049 012d 01       		.byte	0x1
 3050 012e 0B       		.uleb128 0xb
 3051 012f 0B       		.uleb128 0xb
 3052 0130 3A       		.uleb128 0x3a
 3053 0131 0B       		.uleb128 0xb
 3054 0132 3B       		.uleb128 0x3b
 3055 0133 0B       		.uleb128 0xb
 3056 0134 01       		.uleb128 0x1
 3057 0135 13       		.uleb128 0x13
 3058 0136 00       		.byte	0x0
 3059 0137 00       		.byte	0x0
 3060 0138 1B       		.uleb128 0x1b
 3061 0139 28       		.uleb128 0x28
 3062 013a 00       		.byte	0x0
 3063 013b 03       		.uleb128 0x3
ARM GAS  C:\Users\DNIEL~1\AppData\Local\Temp\cccMS60k.s 			page 55


 3064 013c 0E       		.uleb128 0xe
 3065 013d 1C       		.uleb128 0x1c
 3066 013e 0D       		.uleb128 0xd
 3067 013f 00       		.byte	0x0
 3068 0140 00       		.byte	0x0
 3069 0141 1C       		.uleb128 0x1c
 3070 0142 0D       		.uleb128 0xd
 3071 0143 00       		.byte	0x0
 3072 0144 03       		.uleb128 0x3
 3073 0145 08       		.uleb128 0x8
 3074 0146 3A       		.uleb128 0x3a
 3075 0147 0B       		.uleb128 0xb
 3076 0148 3B       		.uleb128 0x3b
 3077 0149 0B       		.uleb128 0xb
 3078 014a 49       		.uleb128 0x49
 3079 014b 13       		.uleb128 0x13
 3080 014c 0B       		.uleb128 0xb
 3081 014d 0B       		.uleb128 0xb
 3082 014e 0D       		.uleb128 0xd
 3083 014f 0B       		.uleb128 0xb
 3084 0150 0C       		.uleb128 0xc
 3085 0151 0B       		.uleb128 0xb
 3086 0152 38       		.uleb128 0x38
 3087 0153 0A       		.uleb128 0xa
 3088 0154 00       		.byte	0x0
 3089 0155 00       		.byte	0x0
 3090 0156 1D       		.uleb128 0x1d
 3091 0157 0D       		.uleb128 0xd
 3092 0158 00       		.byte	0x0
 3093 0159 49       		.uleb128 0x49
 3094 015a 13       		.uleb128 0x13
 3095 015b 00       		.byte	0x0
 3096 015c 00       		.byte	0x0
 3097 015d 1E       		.uleb128 0x1e
 3098 015e 0D       		.uleb128 0xd
 3099 015f 00       		.byte	0x0
 3100 0160 49       		.uleb128 0x49
 3101 0161 13       		.uleb128 0x13
 3102 0162 38       		.uleb128 0x38
 3103 0163 0A       		.uleb128 0xa
 3104 0164 00       		.byte	0x0
 3105 0165 00       		.byte	0x0
 3106 0166 1F       		.uleb128 0x1f
 3107 0167 0D       		.uleb128 0xd
 3108 0168 00       		.byte	0x0
 3109 0169 03       		.uleb128 0x3
 3110 016a 0E       		.uleb128 0xe
 3111 016b 49       		.uleb128 0x49
 3112 016c 13       		.uleb128 0x13
 3113 016d 38       		.uleb128 0x38
 3114 016e 0A       		.uleb128 0xa
 3115 016f 34       		.uleb128 0x34
 3116 0170 0C       		.uleb128 0xc
 3117 0171 00       		.byte	0x0
 3118 0172 00       		.byte	0x0
 3119 0173 20       		.uleb128 0x20
 3120 0174 2E       		.uleb128 0x2e
ARM GAS  C:\Users\DNIEL~1\AppData\Local\Temp\cccMS60k.s 			page 56


 3121 0175 01       		.byte	0x1
 3122 0176 03       		.uleb128 0x3
 3123 0177 0E       		.uleb128 0xe
 3124 0178 3A       		.uleb128 0x3a
 3125 0179 0B       		.uleb128 0xb
 3126 017a 3B       		.uleb128 0x3b
 3127 017b 0B       		.uleb128 0xb
 3128 017c 27       		.uleb128 0x27
 3129 017d 0C       		.uleb128 0xc
 3130 017e 11       		.uleb128 0x11
 3131 017f 01       		.uleb128 0x1
 3132 0180 12       		.uleb128 0x12
 3133 0181 01       		.uleb128 0x1
 3134 0182 40       		.uleb128 0x40
 3135 0183 06       		.uleb128 0x6
 3136 0184 01       		.uleb128 0x1
 3137 0185 13       		.uleb128 0x13
 3138 0186 00       		.byte	0x0
 3139 0187 00       		.byte	0x0
 3140 0188 21       		.uleb128 0x21
 3141 0189 05       		.uleb128 0x5
 3142 018a 00       		.byte	0x0
 3143 018b 03       		.uleb128 0x3
 3144 018c 08       		.uleb128 0x8
 3145 018d 3A       		.uleb128 0x3a
 3146 018e 0B       		.uleb128 0xb
 3147 018f 3B       		.uleb128 0x3b
 3148 0190 0B       		.uleb128 0xb
 3149 0191 49       		.uleb128 0x49
 3150 0192 13       		.uleb128 0x13
 3151 0193 02       		.uleb128 0x2
 3152 0194 06       		.uleb128 0x6
 3153 0195 00       		.byte	0x0
 3154 0196 00       		.byte	0x0
 3155 0197 22       		.uleb128 0x22
 3156 0198 05       		.uleb128 0x5
 3157 0199 00       		.byte	0x0
 3158 019a 03       		.uleb128 0x3
 3159 019b 08       		.uleb128 0x8
 3160 019c 3A       		.uleb128 0x3a
 3161 019d 0B       		.uleb128 0xb
 3162 019e 3B       		.uleb128 0x3b
 3163 019f 0B       		.uleb128 0xb
 3164 01a0 49       		.uleb128 0x49
 3165 01a1 13       		.uleb128 0x13
 3166 01a2 02       		.uleb128 0x2
 3167 01a3 0A       		.uleb128 0xa
 3168 01a4 00       		.byte	0x0
 3169 01a5 00       		.byte	0x0
 3170 01a6 23       		.uleb128 0x23
 3171 01a7 18       		.uleb128 0x18
 3172 01a8 00       		.byte	0x0
 3173 01a9 00       		.byte	0x0
 3174 01aa 00       		.byte	0x0
 3175 01ab 24       		.uleb128 0x24
 3176 01ac 34       		.uleb128 0x34
 3177 01ad 00       		.byte	0x0
ARM GAS  C:\Users\DNIEL~1\AppData\Local\Temp\cccMS60k.s 			page 57


 3178 01ae 03       		.uleb128 0x3
 3179 01af 08       		.uleb128 0x8
 3180 01b0 3A       		.uleb128 0x3a
 3181 01b1 0B       		.uleb128 0xb
 3182 01b2 3B       		.uleb128 0x3b
 3183 01b3 0B       		.uleb128 0xb
 3184 01b4 49       		.uleb128 0x49
 3185 01b5 13       		.uleb128 0x13
 3186 01b6 02       		.uleb128 0x2
 3187 01b7 0A       		.uleb128 0xa
 3188 01b8 00       		.byte	0x0
 3189 01b9 00       		.byte	0x0
 3190 01ba 25       		.uleb128 0x25
 3191 01bb 2E       		.uleb128 0x2e
 3192 01bc 00       		.byte	0x0
 3193 01bd 3F       		.uleb128 0x3f
 3194 01be 0C       		.uleb128 0xc
 3195 01bf 03       		.uleb128 0x3
 3196 01c0 0E       		.uleb128 0xe
 3197 01c1 3A       		.uleb128 0x3a
 3198 01c2 0B       		.uleb128 0xb
 3199 01c3 3B       		.uleb128 0x3b
 3200 01c4 0B       		.uleb128 0xb
 3201 01c5 27       		.uleb128 0x27
 3202 01c6 0C       		.uleb128 0xc
 3203 01c7 11       		.uleb128 0x11
 3204 01c8 01       		.uleb128 0x1
 3205 01c9 12       		.uleb128 0x12
 3206 01ca 01       		.uleb128 0x1
 3207 01cb 40       		.uleb128 0x40
 3208 01cc 0A       		.uleb128 0xa
 3209 01cd 00       		.byte	0x0
 3210 01ce 00       		.byte	0x0
 3211 01cf 26       		.uleb128 0x26
 3212 01d0 2E       		.uleb128 0x2e
 3213 01d1 00       		.byte	0x0
 3214 01d2 3F       		.uleb128 0x3f
 3215 01d3 0C       		.uleb128 0xc
 3216 01d4 03       		.uleb128 0x3
 3217 01d5 0E       		.uleb128 0xe
 3218 01d6 3A       		.uleb128 0x3a
 3219 01d7 0B       		.uleb128 0xb
 3220 01d8 3B       		.uleb128 0x3b
 3221 01d9 0B       		.uleb128 0xb
 3222 01da 27       		.uleb128 0x27
 3223 01db 0C       		.uleb128 0xc
 3224 01dc 11       		.uleb128 0x11
 3225 01dd 01       		.uleb128 0x1
 3226 01de 12       		.uleb128 0x12
 3227 01df 01       		.uleb128 0x1
 3228 01e0 40       		.uleb128 0x40
 3229 01e1 06       		.uleb128 0x6
 3230 01e2 00       		.byte	0x0
 3231 01e3 00       		.byte	0x0
 3232 01e4 27       		.uleb128 0x27
 3233 01e5 2E       		.uleb128 0x2e
 3234 01e6 01       		.byte	0x1
ARM GAS  C:\Users\DNIEL~1\AppData\Local\Temp\cccMS60k.s 			page 58


 3235 01e7 3F       		.uleb128 0x3f
 3236 01e8 0C       		.uleb128 0xc
 3237 01e9 03       		.uleb128 0x3
 3238 01ea 0E       		.uleb128 0xe
 3239 01eb 3A       		.uleb128 0x3a
 3240 01ec 0B       		.uleb128 0xb
 3241 01ed 3B       		.uleb128 0x3b
 3242 01ee 0B       		.uleb128 0xb
 3243 01ef 27       		.uleb128 0x27
 3244 01f0 0C       		.uleb128 0xc
 3245 01f1 11       		.uleb128 0x11
 3246 01f2 01       		.uleb128 0x1
 3247 01f3 12       		.uleb128 0x12
 3248 01f4 01       		.uleb128 0x1
 3249 01f5 40       		.uleb128 0x40
 3250 01f6 06       		.uleb128 0x6
 3251 01f7 01       		.uleb128 0x1
 3252 01f8 13       		.uleb128 0x13
 3253 01f9 00       		.byte	0x0
 3254 01fa 00       		.byte	0x0
 3255 01fb 28       		.uleb128 0x28
 3256 01fc 05       		.uleb128 0x5
 3257 01fd 00       		.byte	0x0
 3258 01fe 03       		.uleb128 0x3
 3259 01ff 0E       		.uleb128 0xe
 3260 0200 3A       		.uleb128 0x3a
 3261 0201 0B       		.uleb128 0xb
 3262 0202 3B       		.uleb128 0x3b
 3263 0203 0B       		.uleb128 0xb
 3264 0204 49       		.uleb128 0x49
 3265 0205 13       		.uleb128 0x13
 3266 0206 02       		.uleb128 0x2
 3267 0207 06       		.uleb128 0x6
 3268 0208 00       		.byte	0x0
 3269 0209 00       		.byte	0x0
 3270 020a 29       		.uleb128 0x29
 3271 020b 34       		.uleb128 0x34
 3272 020c 00       		.byte	0x0
 3273 020d 03       		.uleb128 0x3
 3274 020e 0E       		.uleb128 0xe
 3275 020f 3A       		.uleb128 0x3a
 3276 0210 0B       		.uleb128 0xb
 3277 0211 3B       		.uleb128 0x3b
 3278 0212 0B       		.uleb128 0xb
 3279 0213 49       		.uleb128 0x49
 3280 0214 13       		.uleb128 0x13
 3281 0215 3F       		.uleb128 0x3f
 3282 0216 0C       		.uleb128 0xc
 3283 0217 3C       		.uleb128 0x3c
 3284 0218 0C       		.uleb128 0xc
 3285 0219 00       		.byte	0x0
 3286 021a 00       		.byte	0x0
 3287 021b 2A       		.uleb128 0x2a
 3288 021c 34       		.uleb128 0x34
 3289 021d 00       		.byte	0x0
 3290 021e 03       		.uleb128 0x3
 3291 021f 0E       		.uleb128 0xe
ARM GAS  C:\Users\DNIEL~1\AppData\Local\Temp\cccMS60k.s 			page 59


 3292 0220 3A       		.uleb128 0x3a
 3293 0221 0B       		.uleb128 0xb
 3294 0222 3B       		.uleb128 0x3b
 3295 0223 05       		.uleb128 0x5
 3296 0224 49       		.uleb128 0x49
 3297 0225 13       		.uleb128 0x13
 3298 0226 3F       		.uleb128 0x3f
 3299 0227 0C       		.uleb128 0xc
 3300 0228 3C       		.uleb128 0x3c
 3301 0229 0C       		.uleb128 0xc
 3302 022a 00       		.byte	0x0
 3303 022b 00       		.byte	0x0
 3304 022c 2B       		.uleb128 0x2b
 3305 022d 34       		.uleb128 0x34
 3306 022e 00       		.byte	0x0
 3307 022f 03       		.uleb128 0x3
 3308 0230 0E       		.uleb128 0xe
 3309 0231 3A       		.uleb128 0x3a
 3310 0232 0B       		.uleb128 0xb
 3311 0233 3B       		.uleb128 0x3b
 3312 0234 0B       		.uleb128 0xb
 3313 0235 49       		.uleb128 0x49
 3314 0236 13       		.uleb128 0x13
 3315 0237 00       		.byte	0x0
 3316 0238 00       		.byte	0x0
 3317 0239 2C       		.uleb128 0x2c
 3318 023a 34       		.uleb128 0x34
 3319 023b 00       		.byte	0x0
 3320 023c 03       		.uleb128 0x3
 3321 023d 0E       		.uleb128 0xe
 3322 023e 3A       		.uleb128 0x3a
 3323 023f 0B       		.uleb128 0xb
 3324 0240 3B       		.uleb128 0x3b
 3325 0241 0B       		.uleb128 0xb
 3326 0242 49       		.uleb128 0x49
 3327 0243 13       		.uleb128 0x13
 3328 0244 02       		.uleb128 0x2
 3329 0245 0A       		.uleb128 0xa
 3330 0246 00       		.byte	0x0
 3331 0247 00       		.byte	0x0
 3332 0248 00       		.byte	0x0
 3333              		.section	.debug_pubnames,"",%progbits
 3334 0000 3E000000 		.4byte	0x3e
 3335 0004 0200     		.2byte	0x2
 3336 0006 00000000 		.4byte	.Ldebug_info0
 3337 000a BD110000 		.4byte	0x11bd
 3338 000e 76100000 		.4byte	0x1076
 3339 0012 6C696768 		.ascii	"lightInit\000"
 3339      74496E69 
 3339      7400
 3340 001c 8A100000 		.4byte	0x108a
 3341 0020 6C696768 		.ascii	"lightCalc\000"
 3341      7443616C 
 3341      6300
 3342 002a 9F100000 		.4byte	0x109f
 3343 002e 636D645F 		.ascii	"cmd_lightvalues\000"
 3343      6C696768 
ARM GAS  C:\Users\DNIEL~1\AppData\Local\Temp\cccMS60k.s 			page 60


 3343      7476616C 
 3343      75657300 
 3344 003e 00000000 		.4byte	0x0
 3345              		.section	.debug_pubtypes,"",%progbits
 3346 0000 AE030000 		.4byte	0x3ae
 3347 0004 0200     		.2byte	0x2
 3348 0006 00000000 		.4byte	.Ldebug_info0
 3349 000a BD110000 		.4byte	0x11bd
 3350 000e 30000000 		.4byte	0x30
 3351 0012 73697A65 		.ascii	"size_t\000"
 3351      5F7400
 3352 0019 49000000 		.4byte	0x49
 3353 001d 75696E74 		.ascii	"uint8_t\000"
 3353      385F7400 
 3354 0025 62000000 		.4byte	0x62
 3355 0029 75696E74 		.ascii	"uint16_t\000"
 3355      31365F74 
 3355      00
 3356 0032 74000000 		.4byte	0x74
 3357 0036 696E7433 		.ascii	"int32_t\000"
 3357      325F7400 
 3358 003e 86000000 		.4byte	0x86
 3359 0042 75696E74 		.ascii	"uint32_t\000"
 3359      33325F74 
 3359      00
 3360 004b 9F000000 		.4byte	0x9f
 3361 004f 75696E74 		.ascii	"uint64_t\000"
 3361      36345F74 
 3361      00
 3362 0058 B8000000 		.4byte	0xb8
 3363 005c 746D6F64 		.ascii	"tmode_t\000"
 3363      655F7400 
 3364 0064 C3000000 		.4byte	0xc3
 3365 0068 74737461 		.ascii	"tstate_t\000"
 3365      74655F74 
 3365      00
 3366 0071 CE000000 		.4byte	0xce
 3367 0075 74726566 		.ascii	"trefs_t\000"
 3367      735F7400 
 3368 007d D9000000 		.4byte	0xd9
 3369 0081 74736C69 		.ascii	"tslices_t\000"
 3369      6365735F 
 3369      7400
 3370 008b E4000000 		.4byte	0xe4
 3371 008f 74707269 		.ascii	"tprio_t\000"
 3371      6F5F7400 
 3372 0097 EF000000 		.4byte	0xef
 3373 009b 6D73675F 		.ascii	"msg_t\000"
 3373      7400
 3374 00a1 FA000000 		.4byte	0xfa
 3375 00a5 6576656E 		.ascii	"eventmask_t\000"
 3375      746D6173 
 3375      6B5F7400 
 3376 00b1 05010000 		.4byte	0x105
 3377 00b5 666C6167 		.ascii	"flagsmask_t\000"
 3377      736D6173 
 3377      6B5F7400 
ARM GAS  C:\Users\DNIEL~1\AppData\Local\Temp\cccMS60k.s 			page 61


 3378 00c1 10010000 		.4byte	0x110
 3379 00c5 73797374 		.ascii	"systime_t\000"
 3379      696D655F 
 3379      7400
 3380 00cf 1B010000 		.4byte	0x11b
 3381 00d3 636E745F 		.ascii	"cnt_t\000"
 3381      7400
 3382 00d9 26010000 		.4byte	0x126
 3383 00dd 54687265 		.ascii	"Thread\000"
 3383      616400
 3384 00e4 81020000 		.4byte	0x281
 3385 00e8 54687265 		.ascii	"ThreadsQueue\000"
 3385      61647351 
 3385      75657565 
 3385      00
 3386 00f5 A3020000 		.4byte	0x2a3
 3387 00f9 54687265 		.ascii	"ThreadsList\000"
 3387      6164734C 
 3387      69737400 
 3388 0105 AE020000 		.4byte	0x2ae
 3389 0109 72656761 		.ascii	"regarm_t\000"
 3389      726D5F74 
 3389      00
 3390 0112 BB020000 		.4byte	0x2bb
 3391 0116 73746B61 		.ascii	"stkalign_t\000"
 3391      6C69676E 
 3391      5F7400
 3392 0121 C6020000 		.4byte	0x2c6
 3393 0125 696E7463 		.ascii	"intctx\000"
 3393      747800
 3394 012c 54030000 		.4byte	0x354
 3395 0130 636F6E74 		.ascii	"context\000"
 3395      65787400 
 3396 0138 7C030000 		.4byte	0x37c
 3397 013c 76746675 		.ascii	"vtfunc_t\000"
 3397      6E635F74 
 3397      00
 3398 0145 99030000 		.4byte	0x399
 3399 0149 56697274 		.ascii	"VirtualTimer\000"
 3399      75616C54 
 3399      696D6572 
 3399      00
 3400 0156 A4030000 		.4byte	0x3a4
 3401 015a 56697274 		.ascii	"VirtualTimer\000"
 3401      75616C54 
 3401      696D6572 
 3401      00
 3402 0167 43040000 		.4byte	0x443
 3403 016b 56544C69 		.ascii	"VTList\000"
 3403      737400
 3404 0172 AB040000 		.4byte	0x4ab
 3405 0176 52656164 		.ascii	"ReadyList\000"
 3405      794C6973 
 3405      7400
 3406 0180 B6040000 		.4byte	0x4b6
 3407 0184 53656D61 		.ascii	"Semaphore\000"
 3407      70686F72 
ARM GAS  C:\Users\DNIEL~1\AppData\Local\Temp\cccMS60k.s 			page 62


 3407      6500
 3408 018e DF040000 		.4byte	0x4df
 3409 0192 53656D61 		.ascii	"Semaphore\000"
 3409      70686F72 
 3409      6500
 3410 019c EA040000 		.4byte	0x4ea
 3411 01a0 4D757465 		.ascii	"Mutex\000"
 3411      7800
 3412 01a6 27050000 		.4byte	0x527
 3413 01aa 4D757465 		.ascii	"Mutex\000"
 3413      7800
 3414 01b0 32050000 		.4byte	0x532
 3415 01b4 4576656E 		.ascii	"EventListener\000"
 3415      744C6973 
 3415      74656E65 
 3415      7200
 3416 01c2 3D050000 		.4byte	0x53d
 3417 01c6 4576656E 		.ascii	"EventListener\000"
 3417      744C6973 
 3417      74656E65 
 3417      7200
 3418 01d4 88050000 		.4byte	0x588
 3419 01d8 4576656E 		.ascii	"EventSource\000"
 3419      74536F75 
 3419      72636500 
 3420 01e4 A3050000 		.4byte	0x5a3
 3421 01e8 4576656E 		.ascii	"EventSource\000"
 3421      74536F75 
 3421      72636500 
 3422 01f4 31010000 		.4byte	0x131
 3423 01f8 54687265 		.ascii	"Thread\000"
 3423      616400
 3424 01ff 17060000 		.4byte	0x617
 3425 0203 42617365 		.ascii	"BaseSequentialStreamVMT\000"
 3425      53657175 
 3425      656E7469 
 3425      616C5374 
 3425      7265616D 
 3426 021b E4060000 		.4byte	0x6e4
 3427 021f 42617365 		.ascii	"BaseSequentialStream\000"
 3427      53657175 
 3427      656E7469 
 3427      616C5374 
 3427      7265616D 
 3428 0234 6A070000 		.4byte	0x76a
 3429 0238 43414E5F 		.ascii	"CAN_TxMailBox_TypeDef\000"
 3429      54784D61 
 3429      696C426F 
 3429      785F5479 
 3429      70654465 
 3430 024e BC070000 		.4byte	0x7bc
 3431 0252 43414E5F 		.ascii	"CAN_FIFOMailBox_TypeDef\000"
 3431      4649464F 
 3431      4D61696C 
 3431      426F785F 
 3431      54797065 
 3432 026a F0070000 		.4byte	0x7f0
ARM GAS  C:\Users\DNIEL~1\AppData\Local\Temp\cccMS60k.s 			page 63


 3433 026e 43414E5F 		.ascii	"CAN_FilterRegister_TypeDef\000"
 3433      46696C74 
 3433      65725265 
 3433      67697374 
 3433      65725F54 
 3434 0289 AE090000 		.4byte	0x9ae
 3435 028d 43414E5F 		.ascii	"CAN_TypeDef\000"
 3435      54797065 
 3435      44656600 
 3436 0299 BA090000 		.4byte	0x9ba
 3437 029d 42617365 		.ascii	"BaseChannelVMT\000"
 3437      4368616E 
 3437      6E656C56 
 3437      4D5400
 3438 02ac DE0A0000 		.4byte	0xade
 3439 02b0 42617365 		.ascii	"BaseChannel\000"
 3439      4368616E 
 3439      6E656C00 
 3440 02bc 100B0000 		.4byte	0xb10
 3441 02c0 63616E73 		.ascii	"canstate_t\000"
 3441      74617465 
 3441      5F7400
 3442 02cb 090C0000 		.4byte	0xc09
 3443 02cf 43414E54 		.ascii	"CANTxFrame\000"
 3443      78467261 
 3443      6D6500
 3444 02da 3A0C0000 		.4byte	0xc3a
 3445 02de 43414E43 		.ascii	"CANConfig\000"
 3445      6F6E6669 
 3445      6700
 3446 02e8 F70C0000 		.4byte	0xcf7
 3447 02ec 43414E44 		.ascii	"CANDriver\000"
 3447      72697665 
 3447      7200
 3448 02f6 4B0E0000 		.4byte	0xe4b
 3449 02fa 73746D33 		.ascii	"stm32_tim_t\000"
 3449      325F7469 
 3449      6D5F7400 
 3450 0306 780E0000 		.4byte	0xe78
 3451 030a 70776D73 		.ascii	"pwmstate_t\000"
 3451      74617465 
 3451      5F7400
 3452 0315 830E0000 		.4byte	0xe83
 3453 0319 50574D44 		.ascii	"PWMDriver\000"
 3453      72697665 
 3453      7200
 3454 0323 E70E0000 		.4byte	0xee7
 3455 0327 70776D63 		.ascii	"pwmcallback_t\000"
 3455      616C6C62 
 3455      61636B5F 
 3455      7400
 3456 0335 0A0F0000 		.4byte	0xf0a
 3457 0339 70776D6D 		.ascii	"pwmmode_t\000"
 3457      6F64655F 
 3457      7400
 3458 0343 160F0000 		.4byte	0xf16
 3459 0347 70776D63 		.ascii	"pwmcnt_t\000"
ARM GAS  C:\Users\DNIEL~1\AppData\Local\Temp\cccMS60k.s 			page 64


 3459      6E745F74 
 3459      00
 3460 0350 4A0F0000 		.4byte	0xf4a
 3461 0354 50574D43 		.ascii	"PWMChannelConfig\000"
 3461      68616E6E 
 3461      656C436F 
 3461      6E666967 
 3461      00
 3462 0365 CA0F0000 		.4byte	0xfca
 3463 0369 50574D43 		.ascii	"PWMConfig\000"
 3463      6F6E6669 
 3463      6700
 3464 0373 8E0E0000 		.4byte	0xe8e
 3465 0377 50574D44 		.ascii	"PWMDriver\000"
 3465      72697665 
 3465      7200
 3466 0381 07100000 		.4byte	0x1007
 3467 0385 5F5F7661 		.ascii	"__va_list\000"
 3467      5F6C6973 
 3467      7400
 3468 038f FC0F0000 		.4byte	0xffc
 3469 0393 5F5F676E 		.ascii	"__gnuc_va_list\000"
 3469      75635F76 
 3469      615F6C69 
 3469      737400
 3470 03a2 21100000 		.4byte	0x1021
 3471 03a6 76615F6C 		.ascii	"va_list\000"
 3471      69737400 
 3472 03ae 00000000 		.4byte	0x0
 3473              		.section	.debug_aranges,"",%progbits
 3474 0000 34000000 		.4byte	0x34
 3475 0004 0200     		.2byte	0x2
 3476 0006 00000000 		.4byte	.Ldebug_info0
 3477 000a 04       		.byte	0x4
 3478 000b 00       		.byte	0x0
 3479 000c 0000     		.2byte	0x0
 3480 000e 0000     		.2byte	0x0
 3481 0010 00000000 		.4byte	.LFB118
 3482 0014 1E000000 		.4byte	.LFE118-.LFB118
 3483 0018 00000000 		.4byte	.LFB120
 3484 001c 10000000 		.4byte	.LFE120-.LFB120
 3485 0020 00000000 		.4byte	.LFB121
 3486 0024 58000000 		.4byte	.LFE121-.LFB121
 3487 0028 00000000 		.4byte	.LFB122
 3488 002c 68000000 		.4byte	.LFE122-.LFB122
 3489 0030 00000000 		.4byte	0x0
 3490 0034 00000000 		.4byte	0x0
 3491              		.section	.debug_ranges,"",%progbits
 3492              	.Ldebug_ranges0:
 3493 0000 00000000 		.4byte	.LFB118
 3494 0004 1E000000 		.4byte	.LFE118
 3495 0008 00000000 		.4byte	.LFB120
 3496 000c 10000000 		.4byte	.LFE120
 3497 0010 00000000 		.4byte	.LFB121
 3498 0014 58000000 		.4byte	.LFE121
 3499 0018 00000000 		.4byte	.LFB122
 3500 001c 68000000 		.4byte	.LFE122
ARM GAS  C:\Users\DNIEL~1\AppData\Local\Temp\cccMS60k.s 			page 65


 3501 0020 00000000 		.4byte	0x0
 3502 0024 00000000 		.4byte	0x0
 3503              		.section	.debug_str,"MS",%progbits,1
 3504              	.LASF53:
 3505 0000 56697274 		.ascii	"VirtualTimer\000"
 3505      75616C54 
 3505      696D6572 
 3505      00
 3506              	.LASF144:
 3507 000d 44494552 		.ascii	"DIER\000"
 3507      00
 3508              	.LASF2:
 3509 0012 73697A65 		.ascii	"size_t\000"
 3509      5F7400
 3510              	.LASF82:
 3511 0019 7264796D 		.ascii	"rdymsg\000"
 3511      736700
 3512              	.LASF13:
 3513 0020 75696E74 		.ascii	"uint64_t\000"
 3513      36345F74 
 3513      00
 3514              	.LASF194:
 3515 0029 636D645F 		.ascii	"cmd_lightvalues\000"
 3515      6C696768 
 3515      7476616C 
 3515      75657300 
 3516              	.LASF182:
 3517 0039 76746C69 		.ascii	"vtlist\000"
 3517      737400
 3518              	.LASF132:
 3519 0040 43414E43 		.ascii	"CANConfig\000"
 3519      6F6E6669 
 3519      6700
 3520              	.LASF115:
 3521 004a 43414E5F 		.ascii	"CAN_TypeDef\000"
 3521      54797065 
 3521      44656600 
 3522              	.LASF150:
 3523 0056 43434D52 		.ascii	"CCMR3\000"
 3523      3300
 3524              	.LASF179:
 3525 005c 6C696768 		.ascii	"lightCalc\000"
 3525      7443616C 
 3525      6300
 3526              	.LASF9:
 3527 0066 6C6F6E67 		.ascii	"long int\000"
 3527      20696E74 
 3527      00
 3528              	.LASF159:
 3529 006f 70657269 		.ascii	"period\000"
 3529      6F6400
 3530              	.LASF81:
 3531 0076 65735F6E 		.ascii	"es_next\000"
 3531      65787400 
 3532              	.LASF188:
 3533 007e 74786D73 		.ascii	"txmsg\000"
 3533      6700
ARM GAS  C:\Users\DNIEL~1\AppData\Local\Temp\cccMS60k.s 			page 66


 3534              	.LASF46:
 3535 0084 54687265 		.ascii	"ThreadsQueue\000"
 3535      61647351 
 3535      75657565 
 3535      00
 3536              	.LASF116:
 3537 0091 42617365 		.ascii	"BaseChannelVMT\000"
 3537      4368616E 
 3537      6E656C56 
 3537      4D5400
 3538              	.LASF83:
 3539 00a0 65786974 		.ascii	"exitcode\000"
 3539      636F6465 
 3539      00
 3540              	.LASF184:
 3541 00a9 49544D5F 		.ascii	"ITM_RxBuffer\000"
 3541      52784275 
 3541      66666572 
 3541      00
 3542              	.LASF130:
 3543 00b6 64617461 		.ascii	"data32\000"
 3543      333200
 3544              	.LASF148:
 3545 00bd 42445452 		.ascii	"BDTR\000"
 3545      00
 3546              	.LASF167:
 3547 00c2 66726571 		.ascii	"frequency\000"
 3547      75656E63 
 3547      7900
 3548              	.LASF29:
 3549 00cc 705F7072 		.ascii	"p_prio\000"
 3549      696F00
 3550              	.LASF156:
 3551 00d3 50574D5F 		.ascii	"PWM_READY\000"
 3551      52454144 
 3551      5900
 3552              	.LASF120:
 3553 00dd 72656164 		.ascii	"readt\000"
 3553      7400
 3554              	.LASF145:
 3555 00e3 43434D52 		.ascii	"CCMR1\000"
 3555      3100
 3556              	.LASF146:
 3557 00e9 43434D52 		.ascii	"CCMR2\000"
 3557      3200
 3558              	.LASF91:
 3559 00ef 54445452 		.ascii	"TDTR\000"
 3559      00
 3560              	.LASF1:
 3561 00f4 7369676E 		.ascii	"signed char\000"
 3561      65642063 
 3561      68617200 
 3562              	.LASF124:
 3563 0100 43414E5F 		.ascii	"CAN_STARTING\000"
 3563      53544152 
 3563      54494E47 
 3563      00
ARM GAS  C:\Users\DNIEL~1\AppData\Local\Temp\cccMS60k.s 			page 67


 3564              	.LASF153:
 3565 010d 73746D33 		.ascii	"stm32_tim_t\000"
 3565      325F7469 
 3565      6D5F7400 
 3566              	.LASF11:
 3567 0119 6C6F6E67 		.ascii	"long unsigned int\000"
 3567      20756E73 
 3567      69676E65 
 3567      6420696E 
 3567      7400
 3568              	.LASF45:
 3569 012b 705F6D70 		.ascii	"p_mpool\000"
 3569      6F6F6C00 
 3570              	.LASF14:
 3571 0133 6C6F6E67 		.ascii	"long long unsigned int\000"
 3571      206C6F6E 
 3571      6720756E 
 3571      7369676E 
 3571      65642069 
 3572              	.LASF135:
 3573 014a 74787365 		.ascii	"txsem\000"
 3573      6D00
 3574              	.LASF190:
 3575 0150 474E5520 		.ascii	"GNU C 4.5.2\000"
 3575      4320342E 
 3575      352E3200 
 3576              	.LASF84:
 3577 015c 77746F62 		.ascii	"wtobjp\000"
 3577      6A7000
 3578              	.LASF19:
 3579 0163 74736C69 		.ascii	"tslices_t\000"
 3579      6365735F 
 3579      7400
 3580              	.LASF133:
 3581 016d 73746174 		.ascii	"state\000"
 3581      6500
 3582              	.LASF92:
 3583 0173 54444C52 		.ascii	"TDLR\000"
 3583      00
 3584              	.LASF17:
 3585 0178 74737461 		.ascii	"tstate_t\000"
 3585      74655F74 
 3585      00
 3586              	.LASF94:
 3587 0181 43414E5F 		.ascii	"CAN_TxMailBox_TypeDef\000"
 3587      54784D61 
 3587      696C426F 
 3587      785F5479 
 3587      70654465 
 3588              	.LASF191:
 3589 0197 7372632F 		.ascii	"src/light.c\000"
 3589      6C696768 
 3589      742E6300 
 3590              	.LASF147:
 3591 01a3 43434552 		.ascii	"CCER\000"
 3591      00
 3592              	.LASF12:
ARM GAS  C:\Users\DNIEL~1\AppData\Local\Temp\cccMS60k.s 			page 68


 3593 01a8 6C6F6E67 		.ascii	"long long int\000"
 3593      206C6F6E 
 3593      6720696E 
 3593      7400
 3594              	.LASF6:
 3595 01b6 75696E74 		.ascii	"uint16_t\000"
 3595      31365F74 
 3595      00
 3596              	.LASF175:
 3597 01bf 5F5F7661 		.ascii	"__va_list\000"
 3597      5F6C6973 
 3597      7400
 3598              	.LASF165:
 3599 01c9 63616C6C 		.ascii	"callback\000"
 3599      6261636B 
 3599      00
 3600              	.LASF31:
 3601 01d2 705F6E65 		.ascii	"p_newer\000"
 3601      77657200 
 3602              	.LASF69:
 3603 01da 735F7175 		.ascii	"s_queue\000"
 3603      65756500 
 3604              	.LASF125:
 3605 01e2 43414E5F 		.ascii	"CAN_READY\000"
 3605      52454144 
 3605      5900
 3606              	.LASF186:
 3607 01ec 50574D44 		.ascii	"PWMD4\000"
 3607      3400
 3608              	.LASF137:
 3609 01f2 72786675 		.ascii	"rxfull_event\000"
 3609      6C6C5F65 
 3609      76656E74 
 3609      00
 3610              	.LASF64:
 3611 01ff 725F6E65 		.ascii	"r_newer\000"
 3611      77657200 
 3612              	.LASF48:
 3613 0207 72656761 		.ascii	"regarm_t\000"
 3613      726D5F74 
 3613      00
 3614              	.LASF55:
 3615 0210 76745F70 		.ascii	"vt_prev\000"
 3615      72657600 
 3616              	.LASF177:
 3617 0218 76615F6C 		.ascii	"va_list\000"
 3617      69737400 
 3618              	.LASF80:
 3619 0220 4576656E 		.ascii	"EventSource\000"
 3619      74536F75 
 3619      72636500 
 3620              	.LASF90:
 3621 022c 42617365 		.ascii	"BaseSequentialStream\000"
 3621      53657175 
 3621      656E7469 
 3621      616C5374 
 3621      7265616D 
ARM GAS  C:\Users\DNIEL~1\AppData\Local\Temp\cccMS60k.s 			page 69


 3622              	.LASF25:
 3623 0241 636E745F 		.ascii	"cnt_t\000"
 3623      7400
 3624              	.LASF0:
 3625 0247 756E7369 		.ascii	"unsigned int\000"
 3625      676E6564 
 3625      20696E74 
 3625      00
 3626              	.LASF185:
 3627 0254 43414E44 		.ascii	"CAND1\000"
 3627      3100
 3628              	.LASF54:
 3629 025a 76745F6E 		.ascii	"vt_next\000"
 3629      65787400 
 3630              	.LASF131:
 3631 0262 43414E54 		.ascii	"CANTxFrame\000"
 3631      78467261 
 3631      6D6500
 3632              	.LASF95:
 3633 026d 52445452 		.ascii	"RDTR\000"
 3633      00
 3634              	.LASF139:
 3635 0272 6572726F 		.ascii	"error_event\000"
 3635      725F6576 
 3635      656E7400 
 3636              	.LASF118:
 3637 027e 67657474 		.ascii	"gett\000"
 3637      00
 3638              	.LASF136:
 3639 0283 72787365 		.ascii	"rxsem\000"
 3639      6D00
 3640              	.LASF162:
 3641 0289 70776D6D 		.ascii	"pwmmode_t\000"
 3641      6F64655F 
 3641      7400
 3642              	.LASF70:
 3643 0293 735F636E 		.ascii	"s_cnt\000"
 3643      7400
 3644              	.LASF71:
 3645 0299 4D757465 		.ascii	"Mutex\000"
 3645      7800
 3646              	.LASF51:
 3647 029f 636F6E74 		.ascii	"context\000"
 3647      65787400 
 3648              	.LASF7:
 3649 02a7 73686F72 		.ascii	"short unsigned int\000"
 3649      7420756E 
 3649      7369676E 
 3649      65642069 
 3649      6E7400
 3650              	.LASF126:
 3651 02ba 43414E5F 		.ascii	"CAN_SLEEP\000"
 3651      534C4545 
 3651      5000
 3652              	.LASF101:
 3653 02c4 52463152 		.ascii	"RF1R\000"
 3653      00
ARM GAS  C:\Users\DNIEL~1\AppData\Local\Temp\cccMS60k.s 			page 70


 3654              	.LASF99:
 3655 02c9 43414E5F 		.ascii	"CAN_FilterRegister_TypeDef\000"
 3655      46696C74 
 3655      65725265 
 3655      67697374 
 3655      65725F54 
 3656              	.LASF21:
 3657 02e4 6D73675F 		.ascii	"msg_t\000"
 3657      7400
 3658              	.LASF76:
 3659 02ea 656C5F6E 		.ascii	"el_next\000"
 3659      65787400 
 3660              	.LASF119:
 3661 02f2 77726974 		.ascii	"writet\000"
 3661      657400
 3662              	.LASF16:
 3663 02f9 746D6F64 		.ascii	"tmode_t\000"
 3663      655F7400 
 3664              	.LASF47:
 3665 0301 54687265 		.ascii	"ThreadsList\000"
 3665      6164734C 
 3665      69737400 
 3666              	.LASF114:
 3667 030d 7346696C 		.ascii	"sFilterRegister\000"
 3667      74657252 
 3667      65676973 
 3667      74657200 
 3668              	.LASF22:
 3669 031d 6576656E 		.ascii	"eventmask_t\000"
 3669      746D6173 
 3669      6B5F7400 
 3670              	.LASF106:
 3671 0329 464D3152 		.ascii	"FM1R\000"
 3671      00
 3672              	.LASF49:
 3673 032e 73746B61 		.ascii	"stkalign_t\000"
 3673      6C69676E 
 3673      5F7400
 3674              	.LASF88:
 3675 0339 77726974 		.ascii	"write\000"
 3675      6500
 3676              	.LASF117:
 3677 033f 70757474 		.ascii	"putt\000"
 3677      00
 3678              	.LASF56:
 3679 0344 76745F74 		.ascii	"vt_time\000"
 3679      696D6500 
 3680              	.LASF28:
 3681 034c 705F7072 		.ascii	"p_prev\000"
 3681      657600
 3682              	.LASF57:
 3683 0353 76745F66 		.ascii	"vt_func\000"
 3683      756E6300 
 3684              	.LASF128:
 3685 035b 64617461 		.ascii	"data8\000"
 3685      3800
 3686              	.LASF174:
ARM GAS  C:\Users\DNIEL~1\AppData\Local\Temp\cccMS60k.s 			page 71


 3687 0361 5F5F676E 		.ascii	"__gnuc_va_list\000"
 3687      75635F76 
 3687      615F6C69 
 3687      737400
 3688              	.LASF142:
 3689 0370 43414E44 		.ascii	"CANDriver\000"
 3689      72697665 
 3689      7200
 3690              	.LASF60:
 3691 037a 56544C69 		.ascii	"VTList\000"
 3691      737400
 3692              	.LASF138:
 3693 0381 7478656D 		.ascii	"txempty_event\000"
 3693      7074795F 
 3693      6576656E 
 3693      7400
 3694              	.LASF93:
 3695 038f 54444852 		.ascii	"TDHR\000"
 3695      00
 3696              	.LASF36:
 3697 0394 705F7265 		.ascii	"p_refs\000"
 3697      667300
 3698              	.LASF66:
 3699 039b 725F6375 		.ascii	"r_current\000"
 3699      7272656E 
 3699      7400
 3700              	.LASF65:
 3701 03a5 725F6F6C 		.ascii	"r_older\000"
 3701      64657200 
 3702              	.LASF78:
 3703 03ad 656C5F6D 		.ascii	"el_mask\000"
 3703      61736B00 
 3704              	.LASF140:
 3705 03b5 736C6565 		.ascii	"sleep_event\000"
 3705      705F6576 
 3705      656E7400 
 3706              	.LASF127:
 3707 03c1 63616E73 		.ascii	"canstate_t\000"
 3707      74617465 
 3707      5F7400
 3708              	.LASF123:
 3709 03cc 43414E5F 		.ascii	"CAN_STOP\000"
 3709      53544F50 
 3709      00
 3710              	.LASF110:
 3711 03d5 46464131 		.ascii	"FFA1R\000"
 3711      5200
 3712              	.LASF172:
 3713 03db 666C6F61 		.ascii	"float\000"
 3713      7400
 3714              	.LASF100:
 3715 03e1 52463052 		.ascii	"RF0R\000"
 3715      00
 3716              	.LASF161:
 3717 03e6 70776D63 		.ascii	"pwmcallback_t\000"
 3717      616C6C62 
 3717      61636B5F 
ARM GAS  C:\Users\DNIEL~1\AppData\Local\Temp\cccMS60k.s 			page 72


 3717      7400
 3718              	.LASF18:
 3719 03f4 74726566 		.ascii	"trefs_t\000"
 3719      735F7400 
 3720              	.LASF102:
 3721 03fc 52455345 		.ascii	"RESERVED0\000"
 3721      52564544 
 3721      3000
 3722              	.LASF105:
 3723 0406 52455345 		.ascii	"RESERVED1\000"
 3723      52564544 
 3723      3100
 3724              	.LASF109:
 3725 0410 52455345 		.ascii	"RESERVED3\000"
 3725      52564544 
 3725      3300
 3726              	.LASF111:
 3727 041a 52455345 		.ascii	"RESERVED4\000"
 3727      52564544 
 3727      3400
 3728              	.LASF112:
 3729 0424 46413152 		.ascii	"FA1R\000"
 3729      00
 3730              	.LASF20:
 3731 0429 74707269 		.ascii	"tprio_t\000"
 3731      6F5F7400 
 3732              	.LASF122:
 3733 0431 43414E5F 		.ascii	"CAN_UNINIT\000"
 3733      554E494E 
 3733      495400
 3734              	.LASF15:
 3735 043c 5F426F6F 		.ascii	"_Bool\000"
 3735      6C00
 3736              	.LASF8:
 3737 0442 696E7433 		.ascii	"int32_t\000"
 3737      325F7400 
 3738              	.LASF4:
 3739 044a 756E7369 		.ascii	"unsigned char\000"
 3739      676E6564 
 3739      20636861 
 3739      7200
 3740              	.LASF72:
 3741 0458 6D5F7175 		.ascii	"m_queue\000"
 3741      65756500 
 3742              	.LASF192:
 3743 0460 433A5C44 		.ascii	"C:\\Dani\\MegaLux\\Repo\\Smarty\\Smarty\\smarty\\fi"
 3743      616E695C 
 3743      4D656761 
 3743      4C75785C 
 3743      5265706F 
 3744 048c 726D7761 		.ascii	"rmware\000"
 3744      726500
 3745              	.LASF141:
 3746 0493 77616B65 		.ascii	"wakeup_event\000"
 3746      75705F65 
 3746      76656E74 
 3746      00
ARM GAS  C:\Users\DNIEL~1\AppData\Local\Temp\cccMS60k.s 			page 73


 3747              	.LASF77:
 3748 04a0 656C5F6C 		.ascii	"el_listener\000"
 3748      69737465 
 3748      6E657200 
 3749              	.LASF79:
 3750 04ac 656C5F66 		.ascii	"el_flags\000"
 3750      6C616773 
 3750      00
 3751              	.LASF43:
 3752 04b5 705F6D74 		.ascii	"p_mtxlist\000"
 3752      786C6973 
 3752      7400
 3753              	.LASF5:
 3754 04bf 73686F72 		.ascii	"short int\000"
 3754      7420696E 
 3754      7400
 3755              	.LASF34:
 3756 04c9 705F7374 		.ascii	"p_state\000"
 3756      61746500 
 3757              	.LASF37:
 3758 04d1 705F7072 		.ascii	"p_preempt\000"
 3758      65656D70 
 3758      7400
 3759              	.LASF32:
 3760 04db 705F6F6C 		.ascii	"p_older\000"
 3760      64657200 
 3761              	.LASF62:
 3762 04e3 725F7072 		.ascii	"r_prio\000"
 3762      696F00
 3763              	.LASF85:
 3764 04ea 65776D61 		.ascii	"ewmask\000"
 3764      736B00
 3765              	.LASF27:
 3766 04f1 705F6E65 		.ascii	"p_next\000"
 3766      787400
 3767              	.LASF87:
 3768 04f8 42617365 		.ascii	"BaseSequentialStreamVMT\000"
 3768      53657175 
 3768      656E7469 
 3768      616C5374 
 3768      7265616D 
 3769              	.LASF35:
 3770 0510 705F666C 		.ascii	"p_flags\000"
 3770      61677300 
 3771              	.LASF178:
 3772 0518 6C696768 		.ascii	"lightInit\000"
 3772      74496E69 
 3772      7400
 3773              	.LASF26:
 3774 0522 54687265 		.ascii	"Thread\000"
 3774      616400
 3775              	.LASF107:
 3776 0529 52455345 		.ascii	"RESERVED2\000"
 3776      52564544 
 3776      3200
 3777              	.LASF42:
 3778 0533 705F6570 		.ascii	"p_epending\000"
ARM GAS  C:\Users\DNIEL~1\AppData\Local\Temp\cccMS60k.s 			page 74


 3778      656E6469 
 3778      6E6700
 3779              	.LASF103:
 3780 053e 7354784D 		.ascii	"sTxMailBox\000"
 3780      61696C42 
 3780      6F7800
 3781              	.LASF10:
 3782 0549 75696E74 		.ascii	"uint32_t\000"
 3782      33325F74 
 3782      00
 3783              	.LASF61:
 3784 0552 725F7175 		.ascii	"r_queue\000"
 3784      65756500 
 3785              	.LASF59:
 3786 055a 76745F73 		.ascii	"vt_systime\000"
 3786      79737469 
 3786      6D6500
 3787              	.LASF170:
 3788 0565 50574D43 		.ascii	"PWMConfig\000"
 3788      6F6E6669 
 3788      6700
 3789              	.LASF173:
 3790 056f 6C6F6E67 		.ascii	"long double\000"
 3790      20646F75 
 3790      626C6500 
 3791              	.LASF155:
 3792 057b 50574D5F 		.ascii	"PWM_STOP\000"
 3792      53544F50 
 3792      00
 3793              	.LASF86:
 3794 0584 63686172 		.ascii	"char\000"
 3794      00
 3795              	.LASF164:
 3796 0589 6D6F6465 		.ascii	"mode\000"
 3796      00
 3797              	.LASF143:
 3798 058e 534D4352 		.ascii	"SMCR\000"
 3798      00
 3799              	.LASF134:
 3800 0593 636F6E66 		.ascii	"config\000"
 3800      696700
 3801              	.LASF149:
 3802 059a 444D4152 		.ascii	"DMAR\000"
 3802      00
 3803              	.LASF189:
 3804 059f 6C696768 		.ascii	"light_blink_wa\000"
 3804      745F626C 
 3804      696E6B5F 
 3804      776100
 3805              	.LASF97:
 3806 05ae 52444852 		.ascii	"RDHR\000"
 3806      00
 3807              	.LASF74:
 3808 05b3 6D5F6E65 		.ascii	"m_next\000"
 3808      787400
 3809              	.LASF24:
 3810 05ba 73797374 		.ascii	"systime_t\000"
ARM GAS  C:\Users\DNIEL~1\AppData\Local\Temp\cccMS60k.s 			page 75


 3810      696D655F 
 3810      7400
 3811              	.LASF44:
 3812 05c4 705F7265 		.ascii	"p_realprio\000"
 3812      616C7072 
 3812      696F00
 3813              	.LASF52:
 3814 05cf 76746675 		.ascii	"vtfunc_t\000"
 3814      6E635F74 
 3814      00
 3815              	.LASF168:
 3816 05d8 6368616E 		.ascii	"channels\000"
 3816      6E656C73 
 3816      00
 3817              	.LASF104:
 3818 05e1 73464946 		.ascii	"sFIFOMailBox\000"
 3818      4F4D6169 
 3818      6C426F78 
 3818      00
 3819              	.LASF176:
 3820 05ee 5F5F6170 		.ascii	"__ap\000"
 3820      00
 3821              	.LASF38:
 3822 05f3 705F7469 		.ascii	"p_time\000"
 3822      6D6500
 3823              	.LASF63:
 3824 05fa 725F6374 		.ascii	"r_ctx\000"
 3824      7800
 3825              	.LASF166:
 3826 0600 50574D43 		.ascii	"PWMChannelConfig\000"
 3826      68616E6E 
 3826      656C436F 
 3826      6E666967 
 3826      00
 3827              	.LASF113:
 3828 0611 52455345 		.ascii	"RESERVED5\000"
 3828      52564544 
 3828      3500
 3829              	.LASF50:
 3830 061b 696E7463 		.ascii	"intctx\000"
 3830      747800
 3831              	.LASF40:
 3832 0622 705F6D73 		.ascii	"p_msgqueue\000"
 3832      67717565 
 3832      756500
 3833              	.LASF187:
 3834 062d 70776D63 		.ascii	"pwmcfg\000"
 3834      666700
 3835              	.LASF58:
 3836 0634 76745F70 		.ascii	"vt_par\000"
 3836      617200
 3837              	.LASF68:
 3838 063b 53656D61 		.ascii	"Semaphore\000"
 3838      70686F72 
 3838      6500
 3839              	.LASF23:
 3840 0645 666C6167 		.ascii	"flagsmask_t\000"
ARM GAS  C:\Users\DNIEL~1\AppData\Local\Temp\cccMS60k.s 			page 76


 3840      736D6173 
 3840      6B5F7400 
 3841              	.LASF129:
 3842 0651 64617461 		.ascii	"data16\000"
 3842      313600
 3843              	.LASF108:
 3844 0658 46533152 		.ascii	"FS1R\000"
 3844      00
 3845              	.LASF33:
 3846 065d 705F6E61 		.ascii	"p_name\000"
 3846      6D6500
 3847              	.LASF151:
 3848 0664 43435235 		.ascii	"CCR5\000"
 3848      00
 3849              	.LASF152:
 3850 0669 43435236 		.ascii	"CCR6\000"
 3850      00
 3851              	.LASF67:
 3852 066e 52656164 		.ascii	"ReadyList\000"
 3852      794C6973 
 3852      7400
 3853              	.LASF98:
 3854 0678 43414E5F 		.ascii	"CAN_FIFOMailBox_TypeDef\000"
 3854      4649464F 
 3854      4D61696C 
 3854      426F785F 
 3854      54797065 
 3855              	.LASF183:
 3856 0690 726C6973 		.ascii	"rlist\000"
 3856      7400
 3857              	.LASF3:
 3858 0696 75696E74 		.ascii	"uint8_t\000"
 3858      385F7400 
 3859              	.LASF158:
 3860 069e 50574D44 		.ascii	"PWMDriver\000"
 3860      72697665 
 3860      7200
 3861              	.LASF121:
 3862 06a8 42617365 		.ascii	"BaseChannel\000"
 3862      4368616E 
 3862      6E656C00 
 3863              	.LASF157:
 3864 06b4 70776D73 		.ascii	"pwmstate_t\000"
 3864      74617465 
 3864      5F7400
 3865              	.LASF163:
 3866 06bf 70776D63 		.ascii	"pwmcnt_t\000"
 3866      6E745F74 
 3866      00
 3867              	.LASF75:
 3868 06c8 4576656E 		.ascii	"EventListener\000"
 3868      744C6973 
 3868      74656E65 
 3868      7200
 3869              	.LASF89:
 3870 06d6 72656164 		.ascii	"read\000"
 3870      00
ARM GAS  C:\Users\DNIEL~1\AppData\Local\Temp\cccMS60k.s 			page 77


 3871              	.LASF180:
 3872 06db 61726763 		.ascii	"argc\000"
 3872      00
 3873              	.LASF96:
 3874 06e0 52444C52 		.ascii	"RDLR\000"
 3874      00
 3875              	.LASF160:
 3876 06e5 636C6F63 		.ascii	"clock\000"
 3876      6B00
 3877              	.LASF41:
 3878 06eb 705F6D73 		.ascii	"p_msg\000"
 3878      6700
 3879              	.LASF181:
 3880 06f1 61726776 		.ascii	"argv\000"
 3880      00
 3881              	.LASF154:
 3882 06f6 50574D5F 		.ascii	"PWM_UNINIT\000"
 3882      554E494E 
 3882      495400
 3883              	.LASF73:
 3884 0701 6D5F6F77 		.ascii	"m_owner\000"
 3884      6E657200 
 3885              	.LASF171:
 3886 0709 646F7562 		.ascii	"double\000"
 3886      6C6500
 3887              	.LASF30:
 3888 0710 705F6374 		.ascii	"p_ctx\000"
 3888      7800
 3889              	.LASF39:
 3890 0716 705F7761 		.ascii	"p_waiting\000"
 3890      6974696E 
 3890      6700
 3891              	.LASF169:
 3892 0720 64696572 		.ascii	"dier\000"
 3892      00
 3893              	.LASF193:
 3894 0725 63687072 		.ascii	"chprintf\000"
 3894      696E7466 
 3894      00
 3895              		.ident	"GCC: (Sourcery G++ Lite 2011.03-42) 4.5.2"
ARM GAS  C:\Users\DNIEL~1\AppData\Local\Temp\cccMS60k.s 			page 78


DEFINED SYMBOLS
                            *ABS*:00000000 light.c
C:\Users\DNIEL~1\AppData\Local\Temp\cccMS60k.s:24     .text.chprintf:00000000 $t
C:\Users\DNIEL~1\AppData\Local\Temp\cccMS60k.s:29     .text.chprintf:00000000 chprintf
C:\Users\DNIEL~1\AppData\Local\Temp\cccMS60k.s:69     .text.lightInit:00000000 $t
C:\Users\DNIEL~1\AppData\Local\Temp\cccMS60k.s:75     .text.lightInit:00000000 lightInit
C:\Users\DNIEL~1\AppData\Local\Temp\cccMS60k.s:92     .text.lightInit:00000008 $d
C:\Users\DNIEL~1\AppData\Local\Temp\cccMS60k.s:98     .text.lightCalc:00000000 $t
C:\Users\DNIEL~1\AppData\Local\Temp\cccMS60k.s:104    .text.lightCalc:00000000 lightCalc
C:\Users\DNIEL~1\AppData\Local\Temp\cccMS60k.s:156    .text.lightCalc:00000044 $d
C:\Users\DNIEL~1\AppData\Local\Temp\cccMS60k.s:165    .text.cmd_lightvalues:00000000 $t
C:\Users\DNIEL~1\AppData\Local\Temp\cccMS60k.s:171    .text.cmd_lightvalues:00000000 cmd_lightvalues
C:\Users\DNIEL~1\AppData\Local\Temp\cccMS60k.s:234    .text.cmd_lightvalues:00000050 $d
C:\Users\DNIEL~1\AppData\Local\Temp\cccMS60k.s:244    .bss.ido:00000000 $d
C:\Users\DNIEL~1\AppData\Local\Temp\cccMS60k.s:248    .bss.ido:00000000 ido
C:\Users\DNIEL~1\AppData\Local\Temp\cccMS60k.s:251    .data.pwmcfg:00000000 $d
C:\Users\DNIEL~1\AppData\Local\Temp\cccMS60k.s:255    .data.pwmcfg:00000000 pwmcfg
C:\Users\DNIEL~1\AppData\Local\Temp\cccMS60k.s:271    .rodata.str1.4:00000000 $d
                     .debug_frame:00000010 $d
C:\Users\DNIEL~1\AppData\Local\Temp\cccMS60k.s:164    .text.lightCalc:00000058 $t
C:\Users\DNIEL~1\AppData\Local\Temp\cccMS60k.s:243    .text.cmd_lightvalues:00000068 $t

UNDEFINED SYMBOLS
chvprintf
pwmStart
PWMD4
pwmEnableChannel
vtlist
chThdSleep
