ARM GAS  C:\Users\DNIEL~1\AppData\Local\Temp\ccSpMNhF.s 			page 1


   1              		.syntax unified
   2              		.cpu cortex-m4
   3              		.fpu softvfp
   4              		.eabi_attribute 20, 1
   5              		.eabi_attribute 21, 1
   6              		.eabi_attribute 23, 3
   7              		.eabi_attribute 24, 1
   8              		.eabi_attribute 25, 1
   9              		.eabi_attribute 26, 1
  10              		.eabi_attribute 30, 2
  11              		.eabi_attribute 18, 4
  12              		.thumb
  13              		.file	"light.c"
  14              		.section	.debug_abbrev,"",%progbits
  15              	.Ldebug_abbrev0:
  16              		.section	.debug_info,"",%progbits
  17              	.Ldebug_info0:
  18              		.section	.debug_line,"",%progbits
  19              	.Ldebug_line0:
  20 0000 9B030000 		.text
  20      02008502 
  20      00000201 
  20      FB0E0D00 
  20      01010101 
  21              	.Ltext0:
  22              		.cfi_sections	.debug_frame
  23              		.section	.text.chprintf,"ax",%progbits
  24              		.align	2
  25              		.p2align 4,,15
  26              		.thumb
  27              		.thumb_func
  28              		.type	chprintf, %function
  29              	chprintf:
  30              	.LFB118:
  31              		.file 1 "../../../ChibiOS/os/various/chprintf.h"
  32              		.loc 1 69 0
  33              		.cfi_startproc
  34              		@ args = 4, pretend = 12, frame = 8
  35              		@ frame_needed = 0, uses_anonymous_args = 1
  36              	.LVL0:
  37 0000 0EB4     		push	{r1, r2, r3}
  38              	.LCFI0:
  39              		.cfi_def_cfa_offset 12
  40 0002 00B5     		push	{lr}
  41              	.LCFI1:
  42              		.cfi_def_cfa_offset 16
  43 0004 82B0     		sub	sp, sp, #8
  44              	.LCFI2:
  45              		.cfi_def_cfa_offset 24
  46              		.loc 1 69 0
  47 0006 03AB     		add	r3, sp, #12
  48              		.cfi_offset 14, -16
  49              		.cfi_offset 3, -4
  50              		.cfi_offset 2, -8
  51              		.cfi_offset 1, -12
  52 0008 53F8041B 		ldr	r1, [r3], #4
  53              		.loc 1 73 0
ARM GAS  C:\Users\DNIEL~1\AppData\Local\Temp\ccSpMNhF.s 			page 2


  54 000c 1A46     		mov	r2, r3
  55              		.loc 1 72 0
  56 000e 0193     		str	r3, [sp, #4]
  57              		.loc 1 73 0
  58 0010 FFF7FEFF 		bl	chvprintf
  59              	.LVL1:
  60              		.loc 1 75 0
  61 0014 02B0     		add	sp, sp, #8
  62 0016 5DF804EB 		pop	{lr}
  63 001a 03B0     		add	sp, sp, #12
  64 001c 7047     		bx	lr
  65              		.cfi_endproc
  66              	.LFE118:
  67              		.size	chprintf, .-chprintf
  68 001e 00BF     		.section	.text.lightInit,"ax",%progbits
  69              		.align	2
  70              		.p2align 4,,15
  71              		.global	lightInit
  72              		.thumb
  73              		.thumb_func
  74              		.type	lightInit, %function
  75              	lightInit:
  76              	.LFB119:
  77              		.file 2 "src/light.c"
  78              		.loc 2 39 0
  79              		.cfi_startproc
  80              		@ args = 0, pretend = 0, frame = 0
  81              		@ frame_needed = 0, uses_anonymous_args = 0
  82              		@ link register save eliminated.
  83              		.loc 2 40 0
  84 0000 034B     		ldr	r3, .L3
  85              		.loc 2 41 0
  86 0002 0448     		ldr	r0, .L3+4
  87 0004 0449     		ldr	r1, .L3+8
  88              		.loc 2 40 0
  89 0006 0022     		movs	r2, #0
  90 0008 1A60     		str	r2, [r3, #0]
  91              		.loc 2 42 0
  92              		.loc 2 41 0
  93 000a FFF7FEBF 		b	pwmStart
  94              	.L4:
  95 000e 00BF     		.align	2
  96              	.L3:
  97 0010 00000000 		.word	.LANCHOR0
  98 0014 00000000 		.word	PWMD4
  99 0018 00000000 		.word	.LANCHOR1
 100              		.cfi_endproc
 101              	.LFE119:
 102              		.size	lightInit, .-lightInit
 103 001c AFF30080 		.section	.text.lightCalc,"ax",%progbits
 104              		.align	2
 105              		.p2align 4,,15
 106              		.global	lightCalc
 107              		.thumb
 108              		.thumb_func
 109              		.type	lightCalc, %function
 110              	lightCalc:
ARM GAS  C:\Users\DNIEL~1\AppData\Local\Temp\ccSpMNhF.s 			page 3


 111              	.LFB120:
 112              		.loc 2 44 0
 113              		.cfi_startproc
 114              		@ args = 0, pretend = 0, frame = 0
 115              		@ frame_needed = 0, uses_anonymous_args = 0
 116 0000 38B5     		push	{r3, r4, r5, lr}
 117              	.LCFI3:
 118              		.cfi_def_cfa_offset 16
 119              		.loc 2 50 0
 120 0002 144C     		ldr	r4, .L13
 121              		.cfi_offset 14, -4
 122              		.cfi_offset 5, -8
 123              		.cfi_offset 4, -12
 124              		.cfi_offset 3, -16
 125 0004 6378     		ldrb	r3, [r4, #1]	@ zero_extendqisi2
 126 0006 2BB1     		cbz	r3, .L6
 127              		.loc 2 52 0
 128 0008 134D     		ldr	r5, .L13+4
 129 000a 2968     		ldr	r1, [r5, #0]
 130 000c 481C     		adds	r0, r1, #1
 131              		.loc 2 54 0
 132 000e 1E28     		cmp	r0, #30
 133              		.loc 2 52 0
 134 0010 2860     		str	r0, [r5, #0]
 135              		.loc 2 54 0
 136 0012 1ADC     		bgt	.L10
 137              	.L6:
 138              		.loc 2 61 0
 139 0014 A378     		ldrb	r3, [r4, #2]	@ zero_extendqisi2
 140 0016 2BB1     		cbz	r3, .L7
 141              		.loc 2 63 0
 142 0018 0F4D     		ldr	r5, .L13+4
 143 001a 2968     		ldr	r1, [r5, #0]
 144 001c 481C     		adds	r0, r1, #1
 145              		.loc 2 65 0
 146 001e 1E28     		cmp	r0, #30
 147              		.loc 2 63 0
 148 0020 2860     		str	r0, [r5, #0]
 149              		.loc 2 65 0
 150 0022 0DDC     		bgt	.L11
 151              	.L7:
 152              		.loc 2 72 0
 153 0024 E378     		ldrb	r3, [r4, #3]	@ zero_extendqisi2
 154 0026 2BB1     		cbz	r3, .L5
 155              		.loc 2 74 0
 156 0028 0B4C     		ldr	r4, .L13+4
 157 002a 2168     		ldr	r1, [r4, #0]
 158 002c 481C     		adds	r0, r1, #1
 159              		.loc 2 76 0
 160 002e 1E28     		cmp	r0, #30
 161              		.loc 2 74 0
 162 0030 2060     		str	r0, [r4, #0]
 163              		.loc 2 76 0
 164 0032 00DC     		bgt	.L12
 165              	.L5:
 166 0034 38BD     		pop	{r3, r4, r5, pc}
 167              	.L12:
ARM GAS  C:\Users\DNIEL~1\AppData\Local\Temp\ccSpMNhF.s 			page 4


 168              		.loc 2 78 0
 169 0036 FFF7FEFF 		bl	can_lightWarning
 170              		.loc 2 79 0
 171 003a 0022     		movs	r2, #0
 172 003c 2260     		str	r2, [r4, #0]
 173 003e 38BD     		pop	{r3, r4, r5, pc}
 174              	.L11:
 175              		.loc 2 67 0
 176 0040 FFF7FEFF 		bl	can_lightLeft
 177              		.loc 2 68 0
 178 0044 0022     		movs	r2, #0
 179 0046 2A60     		str	r2, [r5, #0]
 180 0048 ECE7     		b	.L7
 181              	.L10:
 182              		.loc 2 56 0
 183 004a FFF7FEFF 		bl	can_lightRight
 184              		.loc 2 57 0
 185 004e 0022     		movs	r2, #0
 186 0050 2A60     		str	r2, [r5, #0]
 187 0052 DFE7     		b	.L6
 188              	.L14:
 189              		.align	2
 190              	.L13:
 191 0054 00000000 		.word	.LANCHOR2
 192 0058 00000000 		.word	.LANCHOR0
 193              		.cfi_endproc
 194              	.LFE120:
 195              		.size	lightCalc, .-lightCalc
 196 005c AFF30080 		.section	.text.lightFlashing,"ax",%progbits
 197              		.align	2
 198              		.p2align 4,,15
 199              		.global	lightFlashing
 200              		.thumb
 201              		.thumb_func
 202              		.type	lightFlashing, %function
 203              	lightFlashing:
 204              	.LFB121:
 205              		.loc 2 84 0
 206              		.cfi_startproc
 207              		@ args = 0, pretend = 0, frame = 0
 208              		@ frame_needed = 0, uses_anonymous_args = 0
 209              		@ link register save eliminated.
 210              	.LVL2:
 211 0000 10B4     		push	{r4}
 212              	.LCFI4:
 213              		.cfi_def_cfa_offset 4
 214              		.loc 2 86 0
 215 0002 A0F10102 		sub	r2, r0, #1
 216              		.loc 2 85 0
 217 0006 D0F10104 		rsbs	r4, r0, #1
 218              		.cfi_offset 4, -4
 219              		.loc 2 87 0
 220 000a A0F1020C 		sub	ip, r0, #2
 221              		.loc 2 85 0
 222 000e 38BF     		it	cc
 223 0010 0024     		movcc	r4, #0
 224              		.loc 2 86 0
ARM GAS  C:\Users\DNIEL~1\AppData\Local\Temp\ccSpMNhF.s 			page 5


 225 0012 5142     		rsbs	r1, r2, #0
 226 0014 41EB0201 		adc	r1, r1, r2
 227              		.loc 2 87 0
 228 0018 DCF10002 		rsbs	r2, ip, #0
 229 001c 42EB0C02 		adc	r2, r2, ip
 230              		.loc 2 88 0
 231 0020 A0F1030C 		sub	ip, r0, #3
 232              		.loc 2 85 0
 233 0024 064B     		ldr	r3, .L16
 234              		.loc 2 88 0
 235 0026 DCF10000 		rsbs	r0, ip, #0
 236              	.LVL3:
 237 002a 40EB0C00 		adc	r0, r0, ip
 238              		.loc 2 87 0
 239 002e 9A70     		strb	r2, [r3, #2]
 240              		.loc 2 85 0
 241 0030 1C70     		strb	r4, [r3, #0]
 242              		.loc 2 86 0
 243 0032 5970     		strb	r1, [r3, #1]
 244              		.loc 2 88 0
 245 0034 D870     		strb	r0, [r3, #3]
 246              		.loc 2 90 0
 247 0036 034B     		ldr	r3, .L16+4
 248 0038 0022     		movs	r2, #0
 249 003a 1A60     		str	r2, [r3, #0]
 250              		.loc 2 91 0
 251 003c 10BC     		pop	{r4}
 252 003e 7047     		bx	lr
 253              	.L17:
 254              		.align	2
 255              	.L16:
 256 0040 00000000 		.word	.LANCHOR2
 257 0044 00000000 		.word	.LANCHOR0
 258              		.cfi_endproc
 259              	.LFE121:
 260              		.size	lightFlashing, .-lightFlashing
 261 0048 AFF30080 		.section	.text.cmd_lightvalues,"ax",%progbits
 261      AFF30080 
 262              		.align	2
 263              		.p2align 4,,15
 264              		.global	cmd_lightvalues
 265              		.thumb
 266              		.thumb_func
 267              		.type	cmd_lightvalues, %function
 268              	cmd_lightvalues:
 269              	.LFB122:
 270              		.loc 2 93 0
 271              		.cfi_startproc
 272              		@ args = 0, pretend = 0, frame = 0
 273              		@ frame_needed = 0, uses_anonymous_args = 0
 274              	.LVL4:
 275 0000 10B5     		push	{r4, lr}
 276              	.LCFI5:
 277              		.cfi_def_cfa_offset 8
 278              		.loc 2 97 0
 279 0002 1049     		ldr	r1, .L21
 280              	.LVL5:
ARM GAS  C:\Users\DNIEL~1\AppData\Local\Temp\ccSpMNhF.s 			page 6


 281              		.loc 2 93 0
 282 0004 0446     		mov	r4, r0
 283              		.cfi_offset 14, -4
 284              		.cfi_offset 4, -8
 285              		.loc 2 97 0
 286 0006 FFF7FEFF 		bl	chprintf
 287              	.LVL6:
 288              		.loc 2 98 0
 289 000a 2046     		mov	r0, r4
 290 000c 0E49     		ldr	r1, .L21+4
 291 000e FFF7FEFF 		bl	chprintf
 292              		.loc 2 99 0
 293 0012 0DE0     		b	.L19
 294              	.L20:
 295              		.loc 2 100 0
 296 0014 0022     		movs	r2, #0
 297 0016 0D49     		ldr	r1, .L21+8
 298 0018 1346     		mov	r3, r2
 299 001a 2046     		mov	r0, r4
 300 001c FFF7FEFF 		bl	chprintf
 301              		.loc 2 102 0
 302 0020 2046     		mov	r0, r4
 303 0022 0B49     		ldr	r1, .L21+12
 304 0024 FFF7FEFF 		bl	chprintf
 305              		.loc 2 103 0
 306 0028 4FF47A70 		mov	r0, #1000
 307 002c FFF7FEFF 		bl	chThdSleep
 308              	.L19:
 309              		.loc 2 99 0 discriminator 1
 310 0030 2168     		ldr	r1, [r4, #0]
 311 0032 2046     		mov	r0, r4
 312 0034 4B69     		ldr	r3, [r1, #20]
 313 0036 0021     		movs	r1, #0
 314 0038 9847     		blx	r3
 315 003a B0F1FF3F 		cmp	r0, #-1
 316 003e E9D0     		beq	.L20
 317              		.loc 2 105 0
 318 0040 10BD     		pop	{r4, pc}
 319              	.L22:
 320 0042 00BF     		.align	2
 321              	.L21:
 322 0044 00000000 		.word	.LC0
 323 0048 04000000 		.word	.LC1
 324 004c 0C000000 		.word	.LC2
 325 0050 18000000 		.word	.LC3
 326              		.cfi_endproc
 327              	.LFE122:
 328              		.size	cmd_lightvalues, .-cmd_lightvalues
 329 0054 AFF30080 		.section	.text.cmd_lightblink,"ax",%progbits
 329      AFF30080 
 329      AFF30080 
 330              		.align	2
 331              		.p2align 4,,15
 332              		.global	cmd_lightblink
 333              		.thumb
 334              		.thumb_func
 335              		.type	cmd_lightblink, %function
ARM GAS  C:\Users\DNIEL~1\AppData\Local\Temp\ccSpMNhF.s 			page 7


 336              	cmd_lightblink:
 337              	.LFB123:
 338              		.loc 2 107 0
 339              		.cfi_startproc
 340              		@ args = 0, pretend = 0, frame = 8
 341              		@ frame_needed = 0, uses_anonymous_args = 0
 342              	.LVL7:
 343 0000 F0B5     		push	{r4, r5, r6, r7, lr}
 344              	.LCFI6:
 345              		.cfi_def_cfa_offset 20
 346 0002 0446     		mov	r4, r0
 347              		.cfi_offset 14, -4
 348              		.cfi_offset 7, -8
 349              		.cfi_offset 6, -12
 350              		.cfi_offset 5, -16
 351              		.cfi_offset 4, -20
 352 0004 83B0     		sub	sp, sp, #12
 353              	.LCFI7:
 354              		.cfi_def_cfa_offset 32
 355              		.loc 2 107 0
 356 0006 0E46     		mov	r6, r1
 357              		.loc 2 111 0
 358 0008 4349     		ldr	r1, .L35
 359              	.LVL8:
 360              		.loc 2 107 0
 361 000a 1546     		mov	r5, r2
 362              		.loc 2 111 0
 363 000c FFF7FEFF 		bl	chprintf
 364              	.LVL9:
 365              		.loc 2 112 0
 366 0010 2046     		mov	r0, r4
 367 0012 4249     		ldr	r1, .L35+4
 368 0014 FFF7FEFF 		bl	chprintf
 369              	.L24:
 370              		.loc 2 113 0 discriminator 1
 371 0018 2168     		ldr	r1, [r4, #0]
 372 001a 2046     		mov	r0, r4
 373 001c 4B69     		ldr	r3, [r1, #20]
 374 001e 0021     		movs	r1, #0
 375 0020 9847     		blx	r3
 376 0022 B0F1FF3F 		cmp	r0, #-1
 377 0026 3AD1     		bne	.L26
 378              	.LBB11:
 379              		.loc 2 114 0
 380 0028 0022     		movs	r2, #0
 381 002a 2046     		mov	r0, r4
 382 002c 3C49     		ldr	r1, .L35+8
 383 002e 1346     		mov	r3, r2
 384 0030 FFF7FEFF 		bl	chprintf
 385              		.loc 2 115 0
 386 0034 022E     		cmp	r6, #2
 387 0036 29D1     		bne	.L25
 388              		.loc 2 115 0 is_stmt 0 discriminator 1
 389 0038 2868     		ldr	r0, [r5, #0]
 390 003a 3A49     		ldr	r1, .L35+12
 391 003c FFF7FEFF 		bl	strcmp
 392 0040 0028     		cmp	r0, #0
ARM GAS  C:\Users\DNIEL~1\AppData\Local\Temp\ccSpMNhF.s 			page 8


 393 0042 2CD1     		bne	.L26
 394              		.loc 2 116 0 is_stmt 1 discriminator 1
 395 0044 6F68     		ldr	r7, [r5, #4]
 396 0046 3849     		ldr	r1, .L35+16
 397 0048 3846     		mov	r0, r7
 398 004a FFF7FEFF 		bl	strcmp
 399 004e 0346     		mov	r3, r0
 400 0050 0028     		cmp	r0, #0
 401 0052 37D0     		beq	.L32
 402              		.loc 2 123 0 discriminator 1
 403 0054 3846     		mov	r0, r7
 404 0056 3549     		ldr	r1, .L35+20
 405 0058 FFF7FEFF 		bl	strcmp
 406 005c 0346     		mov	r3, r0
 407 005e 0028     		cmp	r0, #0
 408 0060 3FD0     		beq	.L33
 409              		.loc 2 130 0 discriminator 1
 410 0062 3846     		mov	r0, r7
 411 0064 3249     		ldr	r1, .L35+24
 412 0066 FFF7FEFF 		bl	strcmp
 413 006a 0746     		mov	r7, r0
 414 006c 0028     		cmp	r0, #0
 415 006e D3D1     		bne	.L24
 416              		.loc 2 132 0
 417 0070 2046     		mov	r0, r4
 418 0072 3049     		ldr	r1, .L35+28
 419 0074 FFF7FEFF 		bl	chprintf
 420              	.LVL10:
 421              	.LBB12:
 422              	.LBB13:
 423              		.loc 2 85 0
 424 0078 2F4B     		ldr	r3, .L35+32
 425              		.loc 2 90 0
 426 007a 304A     		ldr	r2, .L35+36
 427              		.loc 2 85 0
 428 007c 1F70     		strb	r7, [r3, #0]
 429              		.loc 2 88 0
 430 007e 0120     		movs	r0, #1
 431              		.loc 2 86 0
 432 0080 5F70     		strb	r7, [r3, #1]
 433              		.loc 2 87 0
 434 0082 9F70     		strb	r7, [r3, #2]
 435              		.loc 2 88 0
 436 0084 D870     		strb	r0, [r3, #3]
 437              		.loc 2 90 0
 438 0086 1760     		str	r7, [r2, #0]
 439              	.LVL11:
 440              	.L23:
 441              	.LBE13:
 442              	.LBE12:
 443              	.LBE11:
 444              		.loc 2 155 0
 445 0088 03B0     		add	sp, sp, #12
 446 008a F0BD     		pop	{r4, r5, r6, r7, pc}
 447              	.LVL12:
 448              	.L25:
 449              	.LBB20:
ARM GAS  C:\Users\DNIEL~1\AppData\Local\Temp\ccSpMNhF.s 			page 9


 450              		.loc 2 138 0
 451 008c 012E     		cmp	r6, #1
 452 008e 06D1     		bne	.L26
 453              		.loc 2 138 0 is_stmt 0 discriminator 1
 454 0090 2868     		ldr	r0, [r5, #0]
 455 0092 2B49     		ldr	r1, .L35+40
 456 0094 FFF7FEFF 		bl	strcmp
 457 0098 0546     		mov	r5, r0
 458              	.LVL13:
 459 009a 0028     		cmp	r0, #0
 460 009c 30D0     		beq	.L34
 461              	.L26:
 462              	.LBE20:
 463              		.loc 2 150 0 is_stmt 1
 464 009e 2046     		mov	r0, r4
 465 00a0 2849     		ldr	r1, .L35+44
 466 00a2 FFF7FEFF 		bl	chprintf
 467              		.loc 2 151 0
 468 00a6 2046     		mov	r0, r4
 469 00a8 2749     		ldr	r1, .L35+48
 470 00aa FFF7FEFF 		bl	chprintf
 471              		.loc 2 152 0
 472 00ae 2046     		mov	r0, r4
 473 00b0 2649     		ldr	r1, .L35+52
 474 00b2 FFF7FEFF 		bl	chprintf
 475              		.loc 2 153 0
 476 00b6 2649     		ldr	r1, .L35+56
 477 00b8 2046     		mov	r0, r4
 478              		.loc 2 155 0
 479 00ba 03B0     		add	sp, sp, #12
 480 00bc BDE8F040 		pop	{r4, r5, r6, r7, lr}
 481              		.loc 2 153 0
 482 00c0 FFF7FEBF 		b	chprintf
 483              	.LVL14:
 484              	.L32:
 485              	.LBB21:
 486              		.loc 2 118 0
 487 00c4 2046     		mov	r0, r4
 488 00c6 2349     		ldr	r1, .L35+60
 489 00c8 0193     		str	r3, [sp, #4]
 490 00ca FFF7FEFF 		bl	chprintf
 491              	.LVL15:
 492              	.LBB14:
 493              	.LBB15:
 494              		.loc 2 85 0
 495 00ce 019B     		ldr	r3, [sp, #4]
 496 00d0 1948     		ldr	r0, .L35+32
 497              		.loc 2 90 0
 498 00d2 1A4A     		ldr	r2, .L35+36
 499              		.loc 2 85 0
 500 00d4 0370     		strb	r3, [r0, #0]
 501              		.loc 2 86 0
 502 00d6 0121     		movs	r1, #1
 503 00d8 4170     		strb	r1, [r0, #1]
 504              		.loc 2 87 0
 505 00da 8370     		strb	r3, [r0, #2]
 506              		.loc 2 88 0
ARM GAS  C:\Users\DNIEL~1\AppData\Local\Temp\ccSpMNhF.s 			page 10


 507 00dc C370     		strb	r3, [r0, #3]
 508              		.loc 2 90 0
 509 00de 1360     		str	r3, [r2, #0]
 510 00e0 D2E7     		b	.L23
 511              	.LVL16:
 512              	.L33:
 513              	.LBE15:
 514              	.LBE14:
 515              		.loc 2 125 0
 516 00e2 2046     		mov	r0, r4
 517 00e4 1C49     		ldr	r1, .L35+64
 518 00e6 0193     		str	r3, [sp, #4]
 519 00e8 FFF7FEFF 		bl	chprintf
 520              	.LVL17:
 521              	.LBB16:
 522              	.LBB17:
 523              		.loc 2 85 0
 524 00ec 019B     		ldr	r3, [sp, #4]
 525 00ee 1248     		ldr	r0, .L35+32
 526              		.loc 2 90 0
 527 00f0 124A     		ldr	r2, .L35+36
 528              		.loc 2 85 0
 529 00f2 0370     		strb	r3, [r0, #0]
 530              		.loc 2 87 0
 531 00f4 0121     		movs	r1, #1
 532              		.loc 2 86 0
 533 00f6 4370     		strb	r3, [r0, #1]
 534              		.loc 2 87 0
 535 00f8 8170     		strb	r1, [r0, #2]
 536              		.loc 2 88 0
 537 00fa C370     		strb	r3, [r0, #3]
 538              		.loc 2 90 0
 539 00fc 1360     		str	r3, [r2, #0]
 540 00fe C3E7     		b	.L23
 541              	.LVL18:
 542              	.L34:
 543              	.LBE17:
 544              	.LBE16:
 545              		.loc 2 139 0
 546 0100 1649     		ldr	r1, .L35+68
 547 0102 2046     		mov	r0, r4
 548 0104 FFF7FEFF 		bl	chprintf
 549              	.LVL19:
 550              	.LBB18:
 551              	.LBB19:
 552              		.loc 2 85 0
 553 0108 0B4A     		ldr	r2, .L35+32
 554              		.loc 2 90 0
 555 010a 0C49     		ldr	r1, .L35+36
 556              		.loc 2 85 0
 557 010c 1670     		strb	r6, [r2, #0]
 558              		.loc 2 86 0
 559 010e 5570     		strb	r5, [r2, #1]
 560              		.loc 2 87 0
 561 0110 9570     		strb	r5, [r2, #2]
 562              		.loc 2 88 0
 563 0112 D570     		strb	r5, [r2, #3]
ARM GAS  C:\Users\DNIEL~1\AppData\Local\Temp\ccSpMNhF.s 			page 11


 564              		.loc 2 90 0
 565 0114 0D60     		str	r5, [r1, #0]
 566 0116 B7E7     		b	.L23
 567              	.L36:
 568              		.align	2
 569              	.L35:
 570 0118 00000000 		.word	.LC0
 571 011c 04000000 		.word	.LC1
 572 0120 0C000000 		.word	.LC2
 573 0124 2C000000 		.word	.LC4
 574 0128 34000000 		.word	.LC5
 575 012c 74000000 		.word	.LC7
 576 0130 B4000000 		.word	.LC9
 577 0134 BC000000 		.word	.LC10
 578 0138 00000000 		.word	.LANCHOR2
 579 013c 00000000 		.word	.LANCHOR0
 580 0140 F8000000 		.word	.LC11
 581 0144 38010000 		.word	.LC13
 582 0148 50010000 		.word	.LC14
 583 014c 64010000 		.word	.LC15
 584 0150 7C010000 		.word	.LC16
 585 0154 3C000000 		.word	.LC6
 586 0158 7C000000 		.word	.LC8
 587 015c 00010000 		.word	.LC12
 588              	.LBE19:
 589              	.LBE18:
 590              	.LBE21:
 591              		.cfi_endproc
 592              	.LFE123:
 593              		.size	cmd_lightblink, .-cmd_lightblink
 594              		.section	.data.pwmcfg,"aw",%progbits
 595              		.align	2
 596              		.set	.LANCHOR1,. + 0
 597              		.type	pwmcfg, %object
 598              		.size	pwmcfg, 52
 599              	pwmcfg:
 600 0000 40420F00 		.word	1000000
 601 0004 E803     		.short	1000
 602 0006 0000     		.space	2
 603 0008 00000000 		.word	0
 604 000c 01000000 		.word	1
 605 0010 00000000 		.word	0
 606 0014 01000000 		.word	1
 607 0018 00000000 		.word	0
 608 001c 01000000 		.word	1
 609 0020 00000000 		.word	0
 610 0024 01000000 		.word	1
 611 0028 00000000 		.word	0
 612 002c 00000000 		.word	0
 613 0030 00000000 		.word	0
 614              		.section	.bss.period,"aw",%nobits
 615              		.align	2
 616              		.set	.LANCHOR0,. + 0
 617              		.type	period, %object
 618              		.size	period, 4
 619              	period:
 620 0000 00000000 		.space	4
ARM GAS  C:\Users\DNIEL~1\AppData\Local\Temp\ccSpMNhF.s 			page 12


 621              		.section	.rodata.str1.4,"aMS",%progbits,1
 622              		.align	2
 623              	.LC0:
 624 0000 1B6300   		.ascii	"\033c\000"
 625 0003 00       		.space	1
 626              	.LC1:
 627 0004 1B5B324A 		.ascii	"\033[2J\000"
 627      00
 628 0009 000000   		.space	3
 629              	.LC2:
 630 000c 1B5B2564 		.ascii	"\033[%d;%dH\000"
 630      3B256448 
 630      00
 631 0015 000000   		.space	3
 632              	.LC3:
 633 0018 2D2D2D2D 		.ascii	"---- PWM START ----\000"
 633      2050574D 
 633      20535441 
 633      5254202D 
 633      2D2D2D00 
 634              	.LC4:
 635 002c 73746172 		.ascii	"start\000"
 635      7400
 636 0032 0000     		.space	2
 637              	.LC5:
 638 0034 72696768 		.ascii	"right\000"
 638      7400
 639 003a 0000     		.space	2
 640              	.LC6:
 641 003c 2D2D2D2D 		.ascii	"-------------- Blinking right enabled -------------"
 641      2D2D2D2D 
 641      2D2D2D2D 
 641      2D2D2042 
 641      6C696E6B 
 642 006f 2D0D0A00 		.ascii	"-\015\012\000"
 643 0073 00       		.space	1
 644              	.LC7:
 645 0074 6C656674 		.ascii	"left\000"
 645      00
 646 0079 000000   		.space	3
 647              	.LC8:
 648 007c 2D2D2D2D 		.ascii	"-------------- Blinking left enabled --------------"
 648      2D2D2D2D 
 648      2D2D2D2D 
 648      2D2D2042 
 648      6C696E6B 
 649 00af 0D0A00   		.ascii	"\015\012\000"
 650 00b2 0000     		.space	2
 651              	.LC9:
 652 00b4 7761726E 		.ascii	"warning\000"
 652      696E6700 
 653              	.LC10:
 654 00bc 2D2D2D2D 		.ascii	"-------------- Blinking warning enabled -----------"
 654      2D2D2D2D 
 654      2D2D2D2D 
 654      2D2D2042 
 654      6C696E6B 
ARM GAS  C:\Users\DNIEL~1\AppData\Local\Temp\ccSpMNhF.s 			page 13


 655 00ef 2D2D2D0D 		.ascii	"---\015\012\000"
 655      0A00
 656 00f5 000000   		.space	3
 657              	.LC11:
 658 00f8 73746F70 		.ascii	"stop\000"
 658      00
 659 00fd 000000   		.space	3
 660              	.LC12:
 661 0100 2D2D2D2D 		.ascii	"-------------- All blinking disabled --------------"
 661      2D2D2D2D 
 661      2D2D2D2D 
 661      2D2D2041 
 661      6C6C2062 
 662 0133 0D0A00   		.ascii	"\015\012\000"
 663 0136 0000     		.space	2
 664              	.LC13:
 665 0138 55736167 		.ascii	"Usage: start right\015\012\000"
 665      653A2073 
 665      74617274 
 665      20726967 
 665      68740D0A 
 666 014d 000000   		.space	3
 667              	.LC14:
 668 0150 20202020 		.ascii	"       start left\015\012\000"
 668      20202073 
 668      74617274 
 668      206C6566 
 668      740D0A00 
 669              	.LC15:
 670 0164 20202020 		.ascii	"       start warning\015\012\000"
 670      20202073 
 670      74617274 
 670      20776172 
 670      6E696E67 
 671 017b 00       		.space	1
 672              	.LC16:
 673 017c 20202020 		.ascii	"       stop\015\012\000"
 673      20202073 
 673      746F700D 
 673      0A00
 674 018a 0000     		.section	.bss.lightchanels,"aw",%nobits
 675              		.align	2
 676              		.set	.LANCHOR2,. + 0
 677              		.type	lightchanels, %object
 678              		.size	lightchanels, 4
 679              	lightchanels:
 680 0000 00000000 		.space	4
 681              		.text
 682              	.Letext0:
 683              		.section	.debug_loc,"",%progbits
 684              	.Ldebug_loc0:
 685              	.LLST0:
 686 0000 00000000 		.4byte	.LFB118
 687 0004 02000000 		.4byte	.LCFI0
 688 0008 0200     		.2byte	0x2
 689 000a 7D       		.byte	0x7d
 690 000b 00       		.sleb128 0
ARM GAS  C:\Users\DNIEL~1\AppData\Local\Temp\ccSpMNhF.s 			page 14


 691 000c 02000000 		.4byte	.LCFI0
 692 0010 04000000 		.4byte	.LCFI1
 693 0014 0200     		.2byte	0x2
 694 0016 7D       		.byte	0x7d
 695 0017 0C       		.sleb128 12
 696 0018 04000000 		.4byte	.LCFI1
 697 001c 06000000 		.4byte	.LCFI2
 698 0020 0200     		.2byte	0x2
 699 0022 7D       		.byte	0x7d
 700 0023 10       		.sleb128 16
 701 0024 06000000 		.4byte	.LCFI2
 702 0028 1E000000 		.4byte	.LFE118
 703 002c 0200     		.2byte	0x2
 704 002e 7D       		.byte	0x7d
 705 002f 18       		.sleb128 24
 706 0030 00000000 		.4byte	0x0
 707 0034 00000000 		.4byte	0x0
 708              	.LLST1:
 709 0038 00000000 		.4byte	.LVL0
 710 003c 13000000 		.4byte	.LVL1-1
 711 0040 0100     		.2byte	0x1
 712 0042 50       		.byte	0x50
 713 0043 00000000 		.4byte	0x0
 714 0047 00000000 		.4byte	0x0
 715              	.LLST2:
 716 004b 00000000 		.4byte	.LFB120
 717 004f 02000000 		.4byte	.LCFI3
 718 0053 0200     		.2byte	0x2
 719 0055 7D       		.byte	0x7d
 720 0056 00       		.sleb128 0
 721 0057 02000000 		.4byte	.LCFI3
 722 005b 5C000000 		.4byte	.LFE120
 723 005f 0200     		.2byte	0x2
 724 0061 7D       		.byte	0x7d
 725 0062 10       		.sleb128 16
 726 0063 00000000 		.4byte	0x0
 727 0067 00000000 		.4byte	0x0
 728              	.LLST3:
 729 006b 00000000 		.4byte	.LFB121
 730 006f 02000000 		.4byte	.LCFI4
 731 0073 0200     		.2byte	0x2
 732 0075 7D       		.byte	0x7d
 733 0076 00       		.sleb128 0
 734 0077 02000000 		.4byte	.LCFI4
 735 007b 48000000 		.4byte	.LFE121
 736 007f 0200     		.2byte	0x2
 737 0081 7D       		.byte	0x7d
 738 0082 04       		.sleb128 4
 739 0083 00000000 		.4byte	0x0
 740 0087 00000000 		.4byte	0x0
 741              	.LLST4:
 742 008b 00000000 		.4byte	.LVL2
 743 008f 2A000000 		.4byte	.LVL3
 744 0093 0100     		.2byte	0x1
 745 0095 50       		.byte	0x50
 746 0096 2A000000 		.4byte	.LVL3
 747 009a 48000000 		.4byte	.LFE121
ARM GAS  C:\Users\DNIEL~1\AppData\Local\Temp\ccSpMNhF.s 			page 15


 748 009e 0300     		.2byte	0x3
 749 00a0 7C       		.byte	0x7c
 750 00a1 03       		.sleb128 3
 751 00a2 9F       		.byte	0x9f
 752 00a3 00000000 		.4byte	0x0
 753 00a7 00000000 		.4byte	0x0
 754              	.LLST5:
 755 00ab 00000000 		.4byte	.LFB122
 756 00af 02000000 		.4byte	.LCFI5
 757 00b3 0200     		.2byte	0x2
 758 00b5 7D       		.byte	0x7d
 759 00b6 00       		.sleb128 0
 760 00b7 02000000 		.4byte	.LCFI5
 761 00bb 54000000 		.4byte	.LFE122
 762 00bf 0200     		.2byte	0x2
 763 00c1 7D       		.byte	0x7d
 764 00c2 08       		.sleb128 8
 765 00c3 00000000 		.4byte	0x0
 766 00c7 00000000 		.4byte	0x0
 767              	.LLST6:
 768 00cb 00000000 		.4byte	.LVL4
 769 00cf 09000000 		.4byte	.LVL6-1
 770 00d3 0100     		.2byte	0x1
 771 00d5 50       		.byte	0x50
 772 00d6 09000000 		.4byte	.LVL6-1
 773 00da 54000000 		.4byte	.LFE122
 774 00de 0100     		.2byte	0x1
 775 00e0 54       		.byte	0x54
 776 00e1 00000000 		.4byte	0x0
 777 00e5 00000000 		.4byte	0x0
 778              	.LLST7:
 779 00e9 00000000 		.4byte	.LVL4
 780 00ed 04000000 		.4byte	.LVL5
 781 00f1 0100     		.2byte	0x1
 782 00f3 51       		.byte	0x51
 783 00f4 00000000 		.4byte	0x0
 784 00f8 00000000 		.4byte	0x0
 785              	.LLST8:
 786 00fc 00000000 		.4byte	.LVL4
 787 0100 09000000 		.4byte	.LVL6-1
 788 0104 0100     		.2byte	0x1
 789 0106 52       		.byte	0x52
 790 0107 00000000 		.4byte	0x0
 791 010b 00000000 		.4byte	0x0
 792              	.LLST9:
 793 010f 00000000 		.4byte	.LFB123
 794 0113 02000000 		.4byte	.LCFI6
 795 0117 0200     		.2byte	0x2
 796 0119 7D       		.byte	0x7d
 797 011a 00       		.sleb128 0
 798 011b 02000000 		.4byte	.LCFI6
 799 011f 06000000 		.4byte	.LCFI7
 800 0123 0200     		.2byte	0x2
 801 0125 7D       		.byte	0x7d
 802 0126 14       		.sleb128 20
 803 0127 06000000 		.4byte	.LCFI7
 804 012b 60010000 		.4byte	.LFE123
ARM GAS  C:\Users\DNIEL~1\AppData\Local\Temp\ccSpMNhF.s 			page 16


 805 012f 0200     		.2byte	0x2
 806 0131 7D       		.byte	0x7d
 807 0132 20       		.sleb128 32
 808 0133 00000000 		.4byte	0x0
 809 0137 00000000 		.4byte	0x0
 810              	.LLST10:
 811 013b 00000000 		.4byte	.LVL7
 812 013f 0F000000 		.4byte	.LVL9-1
 813 0143 0100     		.2byte	0x1
 814 0145 50       		.byte	0x50
 815 0146 0F000000 		.4byte	.LVL9-1
 816 014a 60010000 		.4byte	.LFE123
 817 014e 0100     		.2byte	0x1
 818 0150 54       		.byte	0x54
 819 0151 00000000 		.4byte	0x0
 820 0155 00000000 		.4byte	0x0
 821              	.LLST11:
 822 0159 00000000 		.4byte	.LVL7
 823 015d 0A000000 		.4byte	.LVL8
 824 0161 0100     		.2byte	0x1
 825 0163 51       		.byte	0x51
 826 0164 0A000000 		.4byte	.LVL8
 827 0168 60010000 		.4byte	.LFE123
 828 016c 0100     		.2byte	0x1
 829 016e 56       		.byte	0x56
 830 016f 00000000 		.4byte	0x0
 831 0173 00000000 		.4byte	0x0
 832              	.LLST12:
 833 0177 00000000 		.4byte	.LVL7
 834 017b 0F000000 		.4byte	.LVL9-1
 835 017f 0100     		.2byte	0x1
 836 0181 52       		.byte	0x52
 837 0182 0F000000 		.4byte	.LVL9-1
 838 0186 88000000 		.4byte	.LVL11
 839 018a 0100     		.2byte	0x1
 840 018c 55       		.byte	0x55
 841 018d 8C000000 		.4byte	.LVL12
 842 0191 9A000000 		.4byte	.LVL13
 843 0195 0100     		.2byte	0x1
 844 0197 55       		.byte	0x55
 845 0198 C4000000 		.4byte	.LVL14
 846 019c 00010000 		.4byte	.LVL18
 847 01a0 0100     		.2byte	0x1
 848 01a2 55       		.byte	0x55
 849 01a3 00000000 		.4byte	0x0
 850 01a7 00000000 		.4byte	0x0
 851              	.LLST13:
 852 01ab 78000000 		.4byte	.LVL10
 853 01af 88000000 		.4byte	.LVL11
 854 01b3 0200     		.2byte	0x2
 855 01b5 33       		.byte	0x33
 856 01b6 9F       		.byte	0x9f
 857 01b7 00000000 		.4byte	0x0
 858 01bb 00000000 		.4byte	0x0
 859              	.LLST14:
 860 01bf CE000000 		.4byte	.LVL15
 861 01c3 E2000000 		.4byte	.LVL16
ARM GAS  C:\Users\DNIEL~1\AppData\Local\Temp\ccSpMNhF.s 			page 17


 862 01c7 0200     		.2byte	0x2
 863 01c9 31       		.byte	0x31
 864 01ca 9F       		.byte	0x9f
 865 01cb 00000000 		.4byte	0x0
 866 01cf 00000000 		.4byte	0x0
 867              	.LLST15:
 868 01d3 EC000000 		.4byte	.LVL17
 869 01d7 00010000 		.4byte	.LVL18
 870 01db 0200     		.2byte	0x2
 871 01dd 32       		.byte	0x32
 872 01de 9F       		.byte	0x9f
 873 01df 00000000 		.4byte	0x0
 874 01e3 00000000 		.4byte	0x0
 875              		.file 3 "c:\\program files (x86)\\codesourcery\\sourcery g++ lite\\bin\\../lib/gcc/arm-none-eabi/4
 876              		.file 4 "c:\\program files (x86)\\codesourcery\\sourcery g++ lite\\bin\\../lib/gcc/arm-none-eabi/4
 877              		.file 5 "../../../ChibiOS/os/ports/GCC/ARMCMx/chtypes.h"
 878              		.file 6 "../../../ChibiOS/os/kernel/include/chstreams.h"
 879              		.file 7 "../../../ChibiOS/os/hal/include/io_channel.h"
 880              		.file 8 "../../../ChibiOS/os/hal/platforms/STM32/TIMv1/stm32_tim.h"
 881              		.file 9 "../../../ChibiOS/os/hal/include/pwm.h"
 882              		.file 10 "../../../ChibiOS/os/hal/platforms/STM32/TIMv1/pwm_lld.h"
 883              		.file 11 "c:\\program files (x86)\\codesourcery\\sourcery g++ lite\\bin\\../lib/gcc/arm-none-eabi/
 884              		.file 12 "<built-in>"
 885              		.file 13 "../../../ChibiOS/os/ports/common/ARMCMx/CMSIS/include/core_cm4.h"
 886              		.section	.debug_info
 887 0000 BB080000 		.4byte	0x8bb
 888 0004 0200     		.2byte	0x2
 889 0006 00000000 		.4byte	.Ldebug_abbrev0
 890 000a 04       		.byte	0x4
 891 000b 01       		.uleb128 0x1
 892 000c B8020000 		.4byte	.LASF81
 893 0010 01       		.byte	0x1
 894 0011 6F020000 		.4byte	.LASF82
 895 0015 5E000000 		.4byte	.LASF83
 896 0019 00000000 		.4byte	0x0
 897 001d 00000000 		.4byte	0x0
 898 0021 20000000 		.4byte	.Ldebug_ranges0+0x20
 899 0025 00000000 		.4byte	.Ldebug_line0
 900 0029 02       		.uleb128 0x2
 901 002a 04       		.byte	0x4
 902 002b 05       		.byte	0x5
 903 002c 696E7400 		.ascii	"int\000"
 904 0030 03       		.uleb128 0x3
 905 0031 34000000 		.4byte	.LASF2
 906 0035 03       		.byte	0x3
 907 0036 D3       		.byte	0xd3
 908 0037 3B000000 		.4byte	0x3b
 909 003b 04       		.uleb128 0x4
 910 003c 04       		.byte	0x4
 911 003d 07       		.byte	0x7
 912 003e B7010000 		.4byte	.LASF0
 913 0042 04       		.uleb128 0x4
 914 0043 01       		.byte	0x1
 915 0044 06       		.byte	0x6
 916 0045 8B010000 		.4byte	.LASF1
 917 0049 03       		.uleb128 0x3
 918 004a C0000000 		.4byte	.LASF3
ARM GAS  C:\Users\DNIEL~1\AppData\Local\Temp\ccSpMNhF.s 			page 18


 919 004e 04       		.byte	0x4
 920 004f 2A       		.byte	0x2a
 921 0050 54000000 		.4byte	0x54
 922 0054 04       		.uleb128 0x4
 923 0055 01       		.byte	0x1
 924 0056 08       		.byte	0x8
 925 0057 70010000 		.4byte	.LASF4
 926 005b 04       		.uleb128 0x4
 927 005c 02       		.byte	0x2
 928 005d 05       		.byte	0x5
 929 005e A0000000 		.4byte	.LASF5
 930 0062 03       		.uleb128 0x3
 931 0063 C9010000 		.4byte	.LASF6
 932 0067 04       		.byte	0x4
 933 0068 36       		.byte	0x36
 934 0069 6D000000 		.4byte	0x6d
 935 006d 04       		.uleb128 0x4
 936 006e 02       		.byte	0x2
 937 006f 07       		.byte	0x7
 938 0070 F8010000 		.4byte	.LASF7
 939 0074 03       		.uleb128 0x3
 940 0075 33020000 		.4byte	.LASF8
 941 0079 04       		.byte	0x4
 942 007a 4F       		.byte	0x4f
 943 007b 7F000000 		.4byte	0x7f
 944 007f 04       		.uleb128 0x4
 945 0080 04       		.byte	0x4
 946 0081 05       		.byte	0x5
 947 0082 25020000 		.4byte	.LASF9
 948 0086 03       		.uleb128 0x3
 949 0087 AE010000 		.4byte	.LASF10
 950 008b 04       		.byte	0x4
 951 008c 50       		.byte	0x50
 952 008d 91000000 		.4byte	0x91
 953 0091 04       		.uleb128 0x4
 954 0092 04       		.byte	0x4
 955 0093 07       		.byte	0x7
 956 0094 84020000 		.4byte	.LASF11
 957 0098 04       		.uleb128 0x4
 958 0099 08       		.byte	0x8
 959 009a 05       		.byte	0x5
 960 009b F8000000 		.4byte	.LASF12
 961 009f 04       		.uleb128 0x4
 962 00a0 08       		.byte	0x8
 963 00a1 07       		.byte	0x7
 964 00a2 97010000 		.4byte	.LASF13
 965 00a6 04       		.uleb128 0x4
 966 00a7 01       		.byte	0x1
 967 00a8 02       		.byte	0x2
 968 00a9 4F020000 		.4byte	.LASF14
 969 00ad 03       		.uleb128 0x3
 970 00ae 44030000 		.4byte	.LASF15
 971 00b2 05       		.byte	0x5
 972 00b3 31       		.byte	0x31
 973 00b4 74000000 		.4byte	0x74
 974 00b8 03       		.uleb128 0x3
 975 00b9 15020000 		.4byte	.LASF16
ARM GAS  C:\Users\DNIEL~1\AppData\Local\Temp\ccSpMNhF.s 			page 19


 976 00bd 05       		.byte	0x5
 977 00be 35       		.byte	0x35
 978 00bf 86000000 		.4byte	0x86
 979 00c3 05       		.uleb128 0x5
 980 00c4 04       		.byte	0x4
 981 00c5 06       		.uleb128 0x6
 982 00c6 86000000 		.4byte	0x86
 983 00ca 07       		.uleb128 0x7
 984 00cb 04       		.byte	0x4
 985 00cc D0000000 		.4byte	0xd0
 986 00d0 08       		.uleb128 0x8
 987 00d1 D5000000 		.4byte	0xd5
 988 00d5 04       		.uleb128 0x4
 989 00d6 01       		.byte	0x1
 990 00d7 08       		.byte	0x8
 991 00d8 10010000 		.4byte	.LASF17
 992 00dc 07       		.uleb128 0x7
 993 00dd 04       		.byte	0x4
 994 00de E2000000 		.4byte	0xe2
 995 00e2 09       		.uleb128 0x9
 996 00e3 01       		.byte	0x1
 997 00e4 AD000000 		.4byte	0xad
 998 00e8 F2000000 		.4byte	0xf2
 999 00ec 0A       		.uleb128 0xa
 1000 00ed C3000000 		.4byte	0xc3
 1001 00f1 00       		.byte	0x0
 1002 00f2 07       		.uleb128 0x7
 1003 00f3 04       		.byte	0x4
 1004 00f4 49000000 		.4byte	0x49
 1005 00f8 0B       		.uleb128 0xb
 1006 00f9 53030000 		.4byte	.LASF21
 1007 00fd 10       		.byte	0x10
 1008 00fe 06       		.byte	0x6
 1009 00ff 48       		.byte	0x48
 1010 0100 3D010000 		.4byte	0x13d
 1011 0104 0C       		.uleb128 0xc
 1012 0105 05000000 		.4byte	.LASF18
 1013 0109 06       		.byte	0x6
 1014 010a 49       		.byte	0x49
 1015 010b 62010000 		.4byte	0x162
 1016 010f 02       		.byte	0x2
 1017 0110 23       		.byte	0x23
 1018 0111 00       		.uleb128 0x0
 1019 0112 0C       		.uleb128 0xc
 1020 0113 F3000000 		.4byte	.LASF19
 1021 0117 06       		.byte	0x6
 1022 0118 49       		.byte	0x49
 1023 0119 82010000 		.4byte	0x182
 1024 011d 02       		.byte	0x2
 1025 011e 23       		.byte	0x23
 1026 011f 04       		.uleb128 0x4
 1027 0120 0D       		.uleb128 0xd
 1028 0121 70757400 		.ascii	"put\000"
 1029 0125 06       		.byte	0x6
 1030 0126 49       		.byte	0x49
 1031 0127 9D010000 		.4byte	0x19d
 1032 012b 02       		.byte	0x2
ARM GAS  C:\Users\DNIEL~1\AppData\Local\Temp\ccSpMNhF.s 			page 20


 1033 012c 23       		.byte	0x23
 1034 012d 08       		.uleb128 0x8
 1035 012e 0D       		.uleb128 0xd
 1036 012f 67657400 		.ascii	"get\000"
 1037 0133 06       		.byte	0x6
 1038 0134 49       		.byte	0x49
 1039 0135 DC000000 		.4byte	0xdc
 1040 0139 02       		.byte	0x2
 1041 013a 23       		.byte	0x23
 1042 013b 0C       		.uleb128 0xc
 1043 013c 00       		.byte	0x0
 1044 013d 09       		.uleb128 0x9
 1045 013e 01       		.byte	0x1
 1046 013f 30000000 		.4byte	0x30
 1047 0143 57010000 		.4byte	0x157
 1048 0147 0A       		.uleb128 0xa
 1049 0148 C3000000 		.4byte	0xc3
 1050 014c 0A       		.uleb128 0xa
 1051 014d 57010000 		.4byte	0x157
 1052 0151 0A       		.uleb128 0xa
 1053 0152 30000000 		.4byte	0x30
 1054 0156 00       		.byte	0x0
 1055 0157 07       		.uleb128 0x7
 1056 0158 04       		.byte	0x4
 1057 0159 5D010000 		.4byte	0x15d
 1058 015d 08       		.uleb128 0x8
 1059 015e 49000000 		.4byte	0x49
 1060 0162 07       		.uleb128 0x7
 1061 0163 04       		.byte	0x4
 1062 0164 3D010000 		.4byte	0x13d
 1063 0168 09       		.uleb128 0x9
 1064 0169 01       		.byte	0x1
 1065 016a 30000000 		.4byte	0x30
 1066 016e 82010000 		.4byte	0x182
 1067 0172 0A       		.uleb128 0xa
 1068 0173 C3000000 		.4byte	0xc3
 1069 0177 0A       		.uleb128 0xa
 1070 0178 F2000000 		.4byte	0xf2
 1071 017c 0A       		.uleb128 0xa
 1072 017d 30000000 		.4byte	0x30
 1073 0181 00       		.byte	0x0
 1074 0182 07       		.uleb128 0x7
 1075 0183 04       		.byte	0x4
 1076 0184 68010000 		.4byte	0x168
 1077 0188 09       		.uleb128 0x9
 1078 0189 01       		.byte	0x1
 1079 018a AD000000 		.4byte	0xad
 1080 018e 9D010000 		.4byte	0x19d
 1081 0192 0A       		.uleb128 0xa
 1082 0193 C3000000 		.4byte	0xc3
 1083 0197 0A       		.uleb128 0xa
 1084 0198 49000000 		.4byte	0x49
 1085 019c 00       		.byte	0x0
 1086 019d 07       		.uleb128 0x7
 1087 019e 04       		.byte	0x4
 1088 019f 88010000 		.4byte	0x188
 1089 01a3 0E       		.uleb128 0xe
ARM GAS  C:\Users\DNIEL~1\AppData\Local\Temp\ccSpMNhF.s 			page 21


 1090 01a4 04       		.byte	0x4
 1091 01a5 06       		.byte	0x6
 1092 01a6 51       		.byte	0x51
 1093 01a7 BA010000 		.4byte	0x1ba
 1094 01ab 0D       		.uleb128 0xd
 1095 01ac 766D7400 		.ascii	"vmt\000"
 1096 01b0 06       		.byte	0x6
 1097 01b1 53       		.byte	0x53
 1098 01b2 BA010000 		.4byte	0x1ba
 1099 01b6 02       		.byte	0x2
 1100 01b7 23       		.byte	0x23
 1101 01b8 00       		.uleb128 0x0
 1102 01b9 00       		.byte	0x0
 1103 01ba 07       		.uleb128 0x7
 1104 01bb 04       		.byte	0x4
 1105 01bc C0010000 		.4byte	0x1c0
 1106 01c0 08       		.uleb128 0x8
 1107 01c1 F8000000 		.4byte	0xf8
 1108 01c5 03       		.uleb128 0x3
 1109 01c6 44000000 		.4byte	.LASF20
 1110 01ca 06       		.byte	0x6
 1111 01cb 55       		.byte	0x55
 1112 01cc A3010000 		.4byte	0x1a3
 1113 01d0 0F       		.uleb128 0xf
 1114 01d1 86000000 		.4byte	0x86
 1115 01d5 E0010000 		.4byte	0x1e0
 1116 01d9 10       		.uleb128 0x10
 1117 01da 3B000000 		.4byte	0x3b
 1118 01de 03       		.byte	0x3
 1119 01df 00       		.byte	0x0
 1120 01e0 06       		.uleb128 0x6
 1121 01e1 74000000 		.4byte	0x74
 1122 01e5 0B       		.uleb128 0xb
 1123 01e6 B1000000 		.4byte	.LASF22
 1124 01ea 20       		.byte	0x20
 1125 01eb 07       		.byte	0x7
 1126 01ec 4E       		.byte	0x4e
 1127 01ed 62020000 		.4byte	0x262
 1128 01f1 0C       		.uleb128 0xc
 1129 01f2 05000000 		.4byte	.LASF18
 1130 01f6 07       		.byte	0x7
 1131 01f7 4F       		.byte	0x4f
 1132 01f8 62010000 		.4byte	0x162
 1133 01fc 02       		.byte	0x2
 1134 01fd 23       		.byte	0x23
 1135 01fe 00       		.uleb128 0x0
 1136 01ff 0C       		.uleb128 0xc
 1137 0200 F3000000 		.4byte	.LASF19
 1138 0204 07       		.byte	0x7
 1139 0205 4F       		.byte	0x4f
 1140 0206 82010000 		.4byte	0x182
 1141 020a 02       		.byte	0x2
 1142 020b 23       		.byte	0x23
 1143 020c 04       		.uleb128 0x4
 1144 020d 0D       		.uleb128 0xd
 1145 020e 70757400 		.ascii	"put\000"
 1146 0212 07       		.byte	0x7
ARM GAS  C:\Users\DNIEL~1\AppData\Local\Temp\ccSpMNhF.s 			page 22


 1147 0213 4F       		.byte	0x4f
 1148 0214 9D010000 		.4byte	0x19d
 1149 0218 02       		.byte	0x2
 1150 0219 23       		.byte	0x23
 1151 021a 08       		.uleb128 0x8
 1152 021b 0D       		.uleb128 0xd
 1153 021c 67657400 		.ascii	"get\000"
 1154 0220 07       		.byte	0x7
 1155 0221 4F       		.byte	0x4f
 1156 0222 DC000000 		.4byte	0xdc
 1157 0226 02       		.byte	0x2
 1158 0227 23       		.byte	0x23
 1159 0228 0C       		.uleb128 0xc
 1160 0229 0C       		.uleb128 0xc
 1161 022a E9010000 		.4byte	.LASF23
 1162 022e 07       		.byte	0x7
 1163 022f 4F       		.byte	0x4f
 1164 0230 7C020000 		.4byte	0x27c
 1165 0234 02       		.byte	0x2
 1166 0235 23       		.byte	0x23
 1167 0236 10       		.uleb128 0x10
 1168 0237 0C       		.uleb128 0xc
 1169 0238 4A020000 		.4byte	.LASF24
 1170 023c 07       		.byte	0x7
 1171 023d 4F       		.byte	0x4f
 1172 023e 97020000 		.4byte	0x297
 1173 0242 02       		.byte	0x2
 1174 0243 23       		.byte	0x23
 1175 0244 14       		.uleb128 0x14
 1176 0245 0C       		.uleb128 0xc
 1177 0246 99000000 		.4byte	.LASF25
 1178 024a 07       		.byte	0x7
 1179 024b 4F       		.byte	0x4f
 1180 024c BC020000 		.4byte	0x2bc
 1181 0250 02       		.byte	0x2
 1182 0251 23       		.byte	0x23
 1183 0252 18       		.uleb128 0x18
 1184 0253 0C       		.uleb128 0xc
 1185 0254 1F020000 		.4byte	.LASF26
 1186 0258 07       		.byte	0x7
 1187 0259 4F       		.byte	0x4f
 1188 025a E1020000 		.4byte	0x2e1
 1189 025e 02       		.byte	0x2
 1190 025f 23       		.byte	0x23
 1191 0260 1C       		.uleb128 0x1c
 1192 0261 00       		.byte	0x0
 1193 0262 09       		.uleb128 0x9
 1194 0263 01       		.byte	0x1
 1195 0264 AD000000 		.4byte	0xad
 1196 0268 7C020000 		.4byte	0x27c
 1197 026c 0A       		.uleb128 0xa
 1198 026d C3000000 		.4byte	0xc3
 1199 0271 0A       		.uleb128 0xa
 1200 0272 49000000 		.4byte	0x49
 1201 0276 0A       		.uleb128 0xa
 1202 0277 B8000000 		.4byte	0xb8
 1203 027b 00       		.byte	0x0
ARM GAS  C:\Users\DNIEL~1\AppData\Local\Temp\ccSpMNhF.s 			page 23


 1204 027c 07       		.uleb128 0x7
 1205 027d 04       		.byte	0x4
 1206 027e 62020000 		.4byte	0x262
 1207 0282 09       		.uleb128 0x9
 1208 0283 01       		.byte	0x1
 1209 0284 AD000000 		.4byte	0xad
 1210 0288 97020000 		.4byte	0x297
 1211 028c 0A       		.uleb128 0xa
 1212 028d C3000000 		.4byte	0xc3
 1213 0291 0A       		.uleb128 0xa
 1214 0292 B8000000 		.4byte	0xb8
 1215 0296 00       		.byte	0x0
 1216 0297 07       		.uleb128 0x7
 1217 0298 04       		.byte	0x4
 1218 0299 82020000 		.4byte	0x282
 1219 029d 09       		.uleb128 0x9
 1220 029e 01       		.byte	0x1
 1221 029f 30000000 		.4byte	0x30
 1222 02a3 BC020000 		.4byte	0x2bc
 1223 02a7 0A       		.uleb128 0xa
 1224 02a8 C3000000 		.4byte	0xc3
 1225 02ac 0A       		.uleb128 0xa
 1226 02ad 57010000 		.4byte	0x157
 1227 02b1 0A       		.uleb128 0xa
 1228 02b2 30000000 		.4byte	0x30
 1229 02b6 0A       		.uleb128 0xa
 1230 02b7 B8000000 		.4byte	0xb8
 1231 02bb 00       		.byte	0x0
 1232 02bc 07       		.uleb128 0x7
 1233 02bd 04       		.byte	0x4
 1234 02be 9D020000 		.4byte	0x29d
 1235 02c2 09       		.uleb128 0x9
 1236 02c3 01       		.byte	0x1
 1237 02c4 30000000 		.4byte	0x30
 1238 02c8 E1020000 		.4byte	0x2e1
 1239 02cc 0A       		.uleb128 0xa
 1240 02cd C3000000 		.4byte	0xc3
 1241 02d1 0A       		.uleb128 0xa
 1242 02d2 F2000000 		.4byte	0xf2
 1243 02d6 0A       		.uleb128 0xa
 1244 02d7 30000000 		.4byte	0x30
 1245 02db 0A       		.uleb128 0xa
 1246 02dc B8000000 		.4byte	0xb8
 1247 02e0 00       		.byte	0x0
 1248 02e1 07       		.uleb128 0x7
 1249 02e2 04       		.byte	0x4
 1250 02e3 C2020000 		.4byte	0x2c2
 1251 02e7 0E       		.uleb128 0xe
 1252 02e8 04       		.byte	0x4
 1253 02e9 07       		.byte	0x7
 1254 02ea 59       		.byte	0x59
 1255 02eb FE020000 		.4byte	0x2fe
 1256 02ef 0D       		.uleb128 0xd
 1257 02f0 766D7400 		.ascii	"vmt\000"
 1258 02f4 07       		.byte	0x7
 1259 02f5 5B       		.byte	0x5b
 1260 02f6 FE020000 		.4byte	0x2fe
ARM GAS  C:\Users\DNIEL~1\AppData\Local\Temp\ccSpMNhF.s 			page 24


 1261 02fa 02       		.byte	0x2
 1262 02fb 23       		.byte	0x23
 1263 02fc 00       		.uleb128 0x0
 1264 02fd 00       		.byte	0x0
 1265 02fe 07       		.uleb128 0x7
 1266 02ff 04       		.byte	0x4
 1267 0300 04030000 		.4byte	0x304
 1268 0304 08       		.uleb128 0x8
 1269 0305 E5010000 		.4byte	0x1e5
 1270 0309 03       		.uleb128 0x3
 1271 030a 13030000 		.4byte	.LASF27
 1272 030e 07       		.byte	0x7
 1273 030f 5D       		.byte	0x5d
 1274 0310 E7020000 		.4byte	0x2e7
 1275 0314 11       		.uleb128 0x11
 1276 0315 60       		.byte	0x60
 1277 0316 08       		.byte	0x8
 1278 0317 9E01     		.2byte	0x19e
 1279 0319 57040000 		.4byte	0x457
 1280 031d 12       		.uleb128 0x12
 1281 031e 43523100 		.ascii	"CR1\000"
 1282 0322 08       		.byte	0x8
 1283 0323 9F01     		.2byte	0x19f
 1284 0325 C5000000 		.4byte	0xc5
 1285 0329 02       		.byte	0x2
 1286 032a 23       		.byte	0x23
 1287 032b 00       		.uleb128 0x0
 1288 032c 12       		.uleb128 0x12
 1289 032d 43523200 		.ascii	"CR2\000"
 1290 0331 08       		.byte	0x8
 1291 0332 A001     		.2byte	0x1a0
 1292 0334 C5000000 		.4byte	0xc5
 1293 0338 02       		.byte	0x2
 1294 0339 23       		.byte	0x23
 1295 033a 04       		.uleb128 0x4
 1296 033b 13       		.uleb128 0x13
 1297 033c 60010000 		.4byte	.LASF28
 1298 0340 08       		.byte	0x8
 1299 0341 A101     		.2byte	0x1a1
 1300 0343 C5000000 		.4byte	0xc5
 1301 0347 02       		.byte	0x2
 1302 0348 23       		.byte	0x23
 1303 0349 08       		.uleb128 0x8
 1304 034a 13       		.uleb128 0x13
 1305 034b EE010000 		.4byte	.LASF29
 1306 034f 08       		.byte	0x8
 1307 0350 A201     		.2byte	0x1a2
 1308 0352 C5000000 		.4byte	0xc5
 1309 0356 02       		.byte	0x2
 1310 0357 23       		.byte	0x23
 1311 0358 0C       		.uleb128 0xc
 1312 0359 12       		.uleb128 0x12
 1313 035a 535200   		.ascii	"SR\000"
 1314 035d 08       		.byte	0x8
 1315 035e A301     		.2byte	0x1a3
 1316 0360 C5000000 		.4byte	0xc5
 1317 0364 02       		.byte	0x2
ARM GAS  C:\Users\DNIEL~1\AppData\Local\Temp\ccSpMNhF.s 			page 25


 1318 0365 23       		.byte	0x23
 1319 0366 10       		.uleb128 0x10
 1320 0367 12       		.uleb128 0x12
 1321 0368 45475200 		.ascii	"EGR\000"
 1322 036c 08       		.byte	0x8
 1323 036d A401     		.2byte	0x1a4
 1324 036f C5000000 		.4byte	0xc5
 1325 0373 02       		.byte	0x2
 1326 0374 23       		.byte	0x23
 1327 0375 14       		.uleb128 0x14
 1328 0376 13       		.uleb128 0x13
 1329 0377 2E000000 		.4byte	.LASF30
 1330 037b 08       		.byte	0x8
 1331 037c A501     		.2byte	0x1a5
 1332 037e C5000000 		.4byte	0xc5
 1333 0382 02       		.byte	0x2
 1334 0383 23       		.byte	0x23
 1335 0384 18       		.uleb128 0x18
 1336 0385 13       		.uleb128 0x13
 1337 0386 1C000000 		.4byte	.LASF31
 1338 038a 08       		.byte	0x8
 1339 038b A601     		.2byte	0x1a6
 1340 038d C5000000 		.4byte	0xc5
 1341 0391 02       		.byte	0x2
 1342 0392 23       		.byte	0x23
 1343 0393 1C       		.uleb128 0x1c
 1344 0394 13       		.uleb128 0x13
 1345 0395 00000000 		.4byte	.LASF32
 1346 0399 08       		.byte	0x8
 1347 039a A701     		.2byte	0x1a7
 1348 039c C5000000 		.4byte	0xc5
 1349 03a0 02       		.byte	0x2
 1350 03a1 23       		.byte	0x23
 1351 03a2 20       		.uleb128 0x20
 1352 03a3 12       		.uleb128 0x12
 1353 03a4 434E5400 		.ascii	"CNT\000"
 1354 03a8 08       		.byte	0x8
 1355 03a9 A801     		.2byte	0x1a8
 1356 03ab C5000000 		.4byte	0xc5
 1357 03af 02       		.byte	0x2
 1358 03b0 23       		.byte	0x23
 1359 03b1 24       		.uleb128 0x24
 1360 03b2 12       		.uleb128 0x12
 1361 03b3 50534300 		.ascii	"PSC\000"
 1362 03b7 08       		.byte	0x8
 1363 03b8 A901     		.2byte	0x1a9
 1364 03ba C5000000 		.4byte	0xc5
 1365 03be 02       		.byte	0x2
 1366 03bf 23       		.byte	0x23
 1367 03c0 28       		.uleb128 0x28
 1368 03c1 12       		.uleb128 0x12
 1369 03c2 41525200 		.ascii	"ARR\000"
 1370 03c6 08       		.byte	0x8
 1371 03c7 AA01     		.2byte	0x1aa
 1372 03c9 C5000000 		.4byte	0xc5
 1373 03cd 02       		.byte	0x2
 1374 03ce 23       		.byte	0x23
ARM GAS  C:\Users\DNIEL~1\AppData\Local\Temp\ccSpMNhF.s 			page 26


 1375 03cf 2C       		.uleb128 0x2c
 1376 03d0 12       		.uleb128 0x12
 1377 03d1 52435200 		.ascii	"RCR\000"
 1378 03d5 08       		.byte	0x8
 1379 03d6 AB01     		.2byte	0x1ab
 1380 03d8 C5000000 		.4byte	0xc5
 1381 03dc 02       		.byte	0x2
 1382 03dd 23       		.byte	0x23
 1383 03de 30       		.uleb128 0x30
 1384 03df 12       		.uleb128 0x12
 1385 03e0 43435200 		.ascii	"CCR\000"
 1386 03e4 08       		.byte	0x8
 1387 03e5 AC01     		.2byte	0x1ac
 1388 03e7 57040000 		.4byte	0x457
 1389 03eb 02       		.byte	0x2
 1390 03ec 23       		.byte	0x23
 1391 03ed 34       		.uleb128 0x34
 1392 03ee 13       		.uleb128 0x13
 1393 03ef 2E020000 		.4byte	.LASF33
 1394 03f3 08       		.byte	0x8
 1395 03f4 AD01     		.2byte	0x1ad
 1396 03f6 C5000000 		.4byte	0xc5
 1397 03fa 02       		.byte	0x2
 1398 03fb 23       		.byte	0x23
 1399 03fc 44       		.uleb128 0x44
 1400 03fd 12       		.uleb128 0x12
 1401 03fe 44435200 		.ascii	"DCR\000"
 1402 0402 08       		.byte	0x8
 1403 0403 AE01     		.2byte	0x1ae
 1404 0405 C5000000 		.4byte	0xc5
 1405 0409 02       		.byte	0x2
 1406 040a 23       		.byte	0x23
 1407 040b 48       		.uleb128 0x48
 1408 040c 13       		.uleb128 0x13
 1409 040d 11000000 		.4byte	.LASF34
 1410 0411 08       		.byte	0x8
 1411 0412 AF01     		.2byte	0x1af
 1412 0414 C5000000 		.4byte	0xc5
 1413 0418 02       		.byte	0x2
 1414 0419 23       		.byte	0x23
 1415 041a 4C       		.uleb128 0x4c
 1416 041b 12       		.uleb128 0x12
 1417 041c 4F5200   		.ascii	"OR\000"
 1418 041f 08       		.byte	0x8
 1419 0420 B001     		.2byte	0x1b0
 1420 0422 C5000000 		.4byte	0xc5
 1421 0426 02       		.byte	0x2
 1422 0427 23       		.byte	0x23
 1423 0428 50       		.uleb128 0x50
 1424 0429 13       		.uleb128 0x13
 1425 042a 22000000 		.4byte	.LASF35
 1426 042e 08       		.byte	0x8
 1427 042f B101     		.2byte	0x1b1
 1428 0431 C5000000 		.4byte	0xc5
 1429 0435 02       		.byte	0x2
 1430 0436 23       		.byte	0x23
 1431 0437 54       		.uleb128 0x54
ARM GAS  C:\Users\DNIEL~1\AppData\Local\Temp\ccSpMNhF.s 			page 27


 1432 0438 13       		.uleb128 0x13
 1433 0439 7E010000 		.4byte	.LASF36
 1434 043d 08       		.byte	0x8
 1435 043e B201     		.2byte	0x1b2
 1436 0440 C5000000 		.4byte	0xc5
 1437 0444 02       		.byte	0x2
 1438 0445 23       		.byte	0x23
 1439 0446 58       		.uleb128 0x58
 1440 0447 13       		.uleb128 0x13
 1441 0448 1B010000 		.4byte	.LASF37
 1442 044c 08       		.byte	0x8
 1443 044d B301     		.2byte	0x1b3
 1444 044f C5000000 		.4byte	0xc5
 1445 0453 02       		.byte	0x2
 1446 0454 23       		.byte	0x23
 1447 0455 5C       		.uleb128 0x5c
 1448 0456 00       		.byte	0x0
 1449 0457 06       		.uleb128 0x6
 1450 0458 D0010000 		.4byte	0x1d0
 1451 045c 14       		.uleb128 0x14
 1452 045d D2000000 		.4byte	.LASF38
 1453 0461 08       		.byte	0x8
 1454 0462 B401     		.2byte	0x1b4
 1455 0464 14030000 		.4byte	0x314
 1456 0468 07       		.uleb128 0x7
 1457 0469 04       		.byte	0x4
 1458 046a 5C040000 		.4byte	0x45c
 1459 046e 15       		.uleb128 0x15
 1460 046f 01       		.byte	0x1
 1461 0470 09       		.byte	0x9
 1462 0471 55       		.byte	0x55
 1463 0472 89040000 		.4byte	0x489
 1464 0476 16       		.uleb128 0x16
 1465 0477 65010000 		.4byte	.LASF39
 1466 047b 00       		.sleb128 0
 1467 047c 16       		.uleb128 0x16
 1468 047d D5020000 		.4byte	.LASF40
 1469 0481 01       		.sleb128 1
 1470 0482 16       		.uleb128 0x16
 1471 0483 C4020000 		.4byte	.LASF41
 1472 0487 02       		.sleb128 2
 1473 0488 00       		.byte	0x0
 1474 0489 03       		.uleb128 0x3
 1475 048a 96020000 		.4byte	.LASF42
 1476 048e 09       		.byte	0x9
 1477 048f 59       		.byte	0x59
 1478 0490 6E040000 		.4byte	0x46e
 1479 0494 03       		.uleb128 0x3
 1480 0495 D2010000 		.4byte	.LASF43
 1481 0499 09       		.byte	0x9
 1482 049a 5E       		.byte	0x5e
 1483 049b 9F040000 		.4byte	0x49f
 1484 049f 17       		.uleb128 0x17
 1485 04a0 D2010000 		.4byte	.LASF43
 1486 04a4 14       		.byte	0x14
 1487 04a5 0A       		.byte	0xa
 1488 04a6 6F01     		.2byte	0x16f
ARM GAS  C:\Users\DNIEL~1\AppData\Local\Temp\ccSpMNhF.s 			page 28


 1489 04a8 F8040000 		.4byte	0x4f8
 1490 04ac 13       		.uleb128 0x13
 1491 04ad 16000000 		.4byte	.LASF44
 1492 04b1 0A       		.byte	0xa
 1493 04b2 7301     		.2byte	0x173
 1494 04b4 89040000 		.4byte	0x489
 1495 04b8 02       		.byte	0x2
 1496 04b9 23       		.byte	0x23
 1497 04ba 00       		.uleb128 0x0
 1498 04bb 13       		.uleb128 0x13
 1499 04bc AA000000 		.4byte	.LASF45
 1500 04c0 0A       		.byte	0xa
 1501 04c1 7701     		.2byte	0x177
 1502 04c3 E7050000 		.4byte	0x5e7
 1503 04c7 02       		.byte	0x2
 1504 04c8 23       		.byte	0x23
 1505 04c9 04       		.uleb128 0x4
 1506 04ca 13       		.uleb128 0x13
 1507 04cb 20010000 		.4byte	.LASF46
 1508 04cf 0A       		.byte	0xa
 1509 04d0 7B01     		.2byte	0x17b
 1510 04d2 27050000 		.4byte	0x527
 1511 04d6 02       		.byte	0x2
 1512 04d7 23       		.byte	0x23
 1513 04d8 08       		.uleb128 0x8
 1514 04d9 13       		.uleb128 0x13
 1515 04da 15010000 		.4byte	.LASF47
 1516 04de 0A       		.byte	0xa
 1517 04df 8301     		.2byte	0x183
 1518 04e1 86000000 		.4byte	0x86
 1519 04e5 02       		.byte	0x2
 1520 04e6 23       		.byte	0x23
 1521 04e7 0C       		.uleb128 0xc
 1522 04e8 12       		.uleb128 0x12
 1523 04e9 74696D00 		.ascii	"tim\000"
 1524 04ed 0A       		.byte	0xa
 1525 04ee 8701     		.2byte	0x187
 1526 04f0 68040000 		.4byte	0x468
 1527 04f4 02       		.byte	0x2
 1528 04f5 23       		.byte	0x23
 1529 04f6 10       		.uleb128 0x10
 1530 04f7 00       		.byte	0x0
 1531 04f8 03       		.uleb128 0x3
 1532 04f9 36030000 		.4byte	.LASF48
 1533 04fd 09       		.byte	0x9
 1534 04fe 65       		.byte	0x65
 1535 04ff 03050000 		.4byte	0x503
 1536 0503 07       		.uleb128 0x7
 1537 0504 04       		.byte	0x4
 1538 0505 09050000 		.4byte	0x509
 1539 0509 18       		.uleb128 0x18
 1540 050a 01       		.byte	0x1
 1541 050b 15050000 		.4byte	0x515
 1542 050f 0A       		.uleb128 0xa
 1543 0510 15050000 		.4byte	0x515
 1544 0514 00       		.byte	0x0
 1545 0515 07       		.uleb128 0x7
ARM GAS  C:\Users\DNIEL~1\AppData\Local\Temp\ccSpMNhF.s 			page 29


 1546 0516 04       		.byte	0x4
 1547 0517 94040000 		.4byte	0x494
 1548 051b 14       		.uleb128 0x14
 1549 051c 1F030000 		.4byte	.LASF49
 1550 0520 0A       		.byte	0xa
 1551 0521 2001     		.2byte	0x120
 1552 0523 86000000 		.4byte	0x86
 1553 0527 14       		.uleb128 0x14
 1554 0528 3B000000 		.4byte	.LASF50
 1555 052c 0A       		.byte	0xa
 1556 052d 2A01     		.2byte	0x12a
 1557 052f 62000000 		.4byte	0x62
 1558 0533 11       		.uleb128 0x11
 1559 0534 08       		.byte	0x8
 1560 0535 0A       		.byte	0xa
 1561 0536 2F01     		.2byte	0x12f
 1562 0538 5B050000 		.4byte	0x55b
 1563 053c 13       		.uleb128 0x13
 1564 053d 59000000 		.4byte	.LASF51
 1565 0541 0A       		.byte	0xa
 1566 0542 3301     		.2byte	0x133
 1567 0544 1B050000 		.4byte	0x51b
 1568 0548 02       		.byte	0x2
 1569 0549 23       		.byte	0x23
 1570 054a 00       		.uleb128 0x0
 1571 054b 13       		.uleb128 0x13
 1572 054c 4A030000 		.4byte	.LASF52
 1573 0550 0A       		.byte	0xa
 1574 0551 3901     		.2byte	0x139
 1575 0553 F8040000 		.4byte	0x4f8
 1576 0557 02       		.byte	0x2
 1577 0558 23       		.byte	0x23
 1578 0559 04       		.uleb128 0x4
 1579 055a 00       		.byte	0x0
 1580 055b 14       		.uleb128 0x14
 1581 055c 02030000 		.4byte	.LASF53
 1582 0560 0A       		.byte	0xa
 1583 0561 3B01     		.2byte	0x13b
 1584 0563 33050000 		.4byte	0x533
 1585 0567 11       		.uleb128 0x11
 1586 0568 34       		.byte	0x34
 1587 0569 0A       		.byte	0xa
 1588 056a 4001     		.2byte	0x140
 1589 056c CB050000 		.4byte	0x5cb
 1590 0570 13       		.uleb128 0x13
 1591 0571 65020000 		.4byte	.LASF54
 1592 0575 0A       		.byte	0xa
 1593 0576 4601     		.2byte	0x146
 1594 0578 86000000 		.4byte	0x86
 1595 057c 02       		.byte	0x2
 1596 057d 23       		.byte	0x23
 1597 057e 00       		.uleb128 0x0
 1598 057f 13       		.uleb128 0x13
 1599 0580 20010000 		.4byte	.LASF46
 1600 0584 0A       		.byte	0xa
 1601 0585 4C01     		.2byte	0x14c
 1602 0587 27050000 		.4byte	0x527
ARM GAS  C:\Users\DNIEL~1\AppData\Local\Temp\ccSpMNhF.s 			page 30


 1603 058b 02       		.byte	0x2
 1604 058c 23       		.byte	0x23
 1605 058d 04       		.uleb128 0x4
 1606 058e 13       		.uleb128 0x13
 1607 058f 4A030000 		.4byte	.LASF52
 1608 0593 0A       		.byte	0xa
 1609 0594 5201     		.2byte	0x152
 1610 0596 F8040000 		.4byte	0x4f8
 1611 059a 02       		.byte	0x2
 1612 059b 23       		.byte	0x23
 1613 059c 08       		.uleb128 0x8
 1614 059d 13       		.uleb128 0x13
 1615 059e 7B020000 		.4byte	.LASF55
 1616 05a2 0A       		.byte	0xa
 1617 05a3 5601     		.2byte	0x156
 1618 05a5 CB050000 		.4byte	0x5cb
 1619 05a9 02       		.byte	0x2
 1620 05aa 23       		.byte	0x23
 1621 05ab 0C       		.uleb128 0xc
 1622 05ac 12       		.uleb128 0x12
 1623 05ad 63723200 		.ascii	"cr2\000"
 1624 05b1 0A       		.byte	0xa
 1625 05b2 5C01     		.2byte	0x15c
 1626 05b4 86000000 		.4byte	0x86
 1627 05b8 02       		.byte	0x2
 1628 05b9 23       		.byte	0x23
 1629 05ba 2C       		.uleb128 0x2c
 1630 05bb 13       		.uleb128 0x13
 1631 05bc DE020000 		.4byte	.LASF56
 1632 05c0 0A       		.byte	0xa
 1633 05c1 6901     		.2byte	0x169
 1634 05c3 86000000 		.4byte	0x86
 1635 05c7 02       		.byte	0x2
 1636 05c8 23       		.byte	0x23
 1637 05c9 30       		.uleb128 0x30
 1638 05ca 00       		.byte	0x0
 1639 05cb 0F       		.uleb128 0xf
 1640 05cc 5B050000 		.4byte	0x55b
 1641 05d0 DB050000 		.4byte	0x5db
 1642 05d4 10       		.uleb128 0x10
 1643 05d5 3B000000 		.4byte	0x3b
 1644 05d9 03       		.byte	0x3
 1645 05da 00       		.byte	0x0
 1646 05db 14       		.uleb128 0x14
 1647 05dc C8000000 		.4byte	.LASF57
 1648 05e0 0A       		.byte	0xa
 1649 05e1 6A01     		.2byte	0x16a
 1650 05e3 67050000 		.4byte	0x567
 1651 05e7 07       		.uleb128 0x7
 1652 05e8 04       		.byte	0x4
 1653 05e9 ED050000 		.4byte	0x5ed
 1654 05ed 08       		.uleb128 0x8
 1655 05ee DB050000 		.4byte	0x5db
 1656 05f2 07       		.uleb128 0x7
 1657 05f3 04       		.byte	0x4
 1658 05f4 D5000000 		.4byte	0xd5
 1659 05f8 04       		.uleb128 0x4
ARM GAS  C:\Users\DNIEL~1\AppData\Local\Temp\ccSpMNhF.s 			page 31


 1660 05f9 08       		.byte	0x8
 1661 05fa 04       		.byte	0x4
 1662 05fb A1020000 		.4byte	.LASF58
 1663 05ff 04       		.uleb128 0x4
 1664 0600 04       		.byte	0x4
 1665 0601 04       		.byte	0x4
 1666 0602 ED000000 		.4byte	.LASF59
 1667 0606 04       		.uleb128 0x4
 1668 0607 08       		.byte	0x8
 1669 0608 04       		.byte	0x4
 1670 0609 54010000 		.4byte	.LASF60
 1671 060d 03       		.uleb128 0x3
 1672 060e F3020000 		.4byte	.LASF61
 1673 0612 0B       		.byte	0xb
 1674 0613 28       		.byte	0x28
 1675 0614 18060000 		.4byte	0x618
 1676 0618 0B       		.uleb128 0xb
 1677 0619 06010000 		.4byte	.LASF62
 1678 061d 04       		.byte	0x4
 1679 061e 0C       		.byte	0xc
 1680 061f 00       		.byte	0x0
 1681 0620 32060000 		.4byte	0x632
 1682 0624 19       		.uleb128 0x19
 1683 0625 C4010000 		.4byte	.LASF84
 1684 0629 C3000000 		.4byte	0xc3
 1685 062d 02       		.byte	0x2
 1686 062e 23       		.byte	0x23
 1687 062f 00       		.uleb128 0x0
 1688 0630 01       		.byte	0x1
 1689 0631 00       		.byte	0x0
 1690 0632 03       		.uleb128 0x3
 1691 0633 91000000 		.4byte	.LASF63
 1692 0637 0B       		.byte	0xb
 1693 0638 66       		.byte	0x66
 1694 0639 0D060000 		.4byte	0x60d
 1695 063d 0B       		.uleb128 0xb
 1696 063e DC010000 		.4byte	.LASF64
 1697 0642 04       		.byte	0x4
 1698 0643 02       		.byte	0x2
 1699 0644 0F       		.byte	0xf
 1700 0645 82060000 		.4byte	0x682
 1701 0649 0C       		.uleb128 0xc
 1702 064a E3020000 		.4byte	.LASF65
 1703 064e 02       		.byte	0x2
 1704 064f 11       		.byte	0x11
 1705 0650 A6000000 		.4byte	0xa6
 1706 0654 02       		.byte	0x2
 1707 0655 23       		.byte	0x23
 1708 0656 00       		.uleb128 0x0
 1709 0657 0C       		.uleb128 0xc
 1710 0658 0B000000 		.4byte	.LASF66
 1711 065c 02       		.byte	0x2
 1712 065d 12       		.byte	0x12
 1713 065e A6000000 		.4byte	0xa6
 1714 0662 02       		.byte	0x2
 1715 0663 23       		.byte	0x23
 1716 0664 01       		.uleb128 0x1
ARM GAS  C:\Users\DNIEL~1\AppData\Local\Temp\ccSpMNhF.s 			page 32


 1717 0665 0C       		.uleb128 0xc
 1718 0666 F3010000 		.4byte	.LASF67
 1719 066a 02       		.byte	0x2
 1720 066b 13       		.byte	0x13
 1721 066c A6000000 		.4byte	0xa6
 1722 0670 02       		.byte	0x2
 1723 0671 23       		.byte	0x23
 1724 0672 02       		.uleb128 0x2
 1725 0673 0C       		.uleb128 0xc
 1726 0674 83010000 		.4byte	.LASF68
 1727 0678 02       		.byte	0x2
 1728 0679 14       		.byte	0x14
 1729 067a A6000000 		.4byte	0xa6
 1730 067e 02       		.byte	0x2
 1731 067f 23       		.byte	0x23
 1732 0680 03       		.uleb128 0x3
 1733 0681 00       		.byte	0x0
 1734 0682 1A       		.uleb128 0x1a
 1735 0683 01       		.byte	0x1
 1736 0684 34010000 		.4byte	.LASF75
 1737 0688 02       		.byte	0x2
 1738 0689 54       		.byte	0x54
 1739 068a 01       		.byte	0x1
 1740 068b 01       		.byte	0x1
 1741 068c 9C060000 		.4byte	0x69c
 1742 0690 1B       		.uleb128 0x1b
 1743 0691 27010000 		.4byte	.LASF85
 1744 0695 02       		.byte	0x2
 1745 0696 54       		.byte	0x54
 1746 0697 29000000 		.4byte	0x29
 1747 069b 00       		.byte	0x0
 1748 069c 1C       		.uleb128 0x1c
 1749 069d 55020000 		.4byte	.LASF86
 1750 06a1 01       		.byte	0x1
 1751 06a2 45       		.byte	0x45
 1752 06a3 01       		.byte	0x1
 1753 06a4 00000000 		.4byte	.LFB118
 1754 06a8 1E000000 		.4byte	.LFE118
 1755 06ac 00000000 		.4byte	.LLST0
 1756 06b0 E0060000 		.4byte	0x6e0
 1757 06b4 1D       		.uleb128 0x1d
 1758 06b5 63687000 		.ascii	"chp\000"
 1759 06b9 01       		.byte	0x1
 1760 06ba 45       		.byte	0x45
 1761 06bb E0060000 		.4byte	0x6e0
 1762 06bf 38000000 		.4byte	.LLST1
 1763 06c3 1E       		.uleb128 0x1e
 1764 06c4 666D7400 		.ascii	"fmt\000"
 1765 06c8 01       		.byte	0x1
 1766 06c9 45       		.byte	0x45
 1767 06ca CA000000 		.4byte	0xca
 1768 06ce 02       		.byte	0x2
 1769 06cf 91       		.byte	0x91
 1770 06d0 74       		.sleb128 -12
 1771 06d1 1F       		.uleb128 0x1f
 1772 06d2 20       		.uleb128 0x20
 1773 06d3 617000   		.ascii	"ap\000"
ARM GAS  C:\Users\DNIEL~1\AppData\Local\Temp\ccSpMNhF.s 			page 33


 1774 06d6 01       		.byte	0x1
 1775 06d7 46       		.byte	0x46
 1776 06d8 32060000 		.4byte	0x632
 1777 06dc 02       		.byte	0x2
 1778 06dd 91       		.byte	0x91
 1779 06de 6C       		.sleb128 -20
 1780 06df 00       		.byte	0x0
 1781 06e0 07       		.uleb128 0x7
 1782 06e1 04       		.byte	0x4
 1783 06e2 C5010000 		.4byte	0x1c5
 1784 06e6 21       		.uleb128 0x21
 1785 06e7 01       		.byte	0x1
 1786 06e8 0B020000 		.4byte	.LASF69
 1787 06ec 02       		.byte	0x2
 1788 06ed 27       		.byte	0x27
 1789 06ee 01       		.byte	0x1
 1790 06ef 00000000 		.4byte	.LFB119
 1791 06f3 1C000000 		.4byte	.LFE119
 1792 06f7 02       		.byte	0x2
 1793 06f8 7D       		.byte	0x7d
 1794 06f9 00       		.sleb128 0
 1795 06fa 22       		.uleb128 0x22
 1796 06fb 01       		.byte	0x1
 1797 06fc E3000000 		.4byte	.LASF70
 1798 0700 02       		.byte	0x2
 1799 0701 2C       		.byte	0x2c
 1800 0702 01       		.byte	0x1
 1801 0703 00000000 		.4byte	.LFB120
 1802 0707 5C000000 		.4byte	.LFE120
 1803 070b 4B000000 		.4byte	.LLST2
 1804 070f 23       		.uleb128 0x23
 1805 0710 82060000 		.4byte	0x682
 1806 0714 00000000 		.4byte	.LFB121
 1807 0718 48000000 		.4byte	.LFE121
 1808 071c 6B000000 		.4byte	.LLST3
 1809 0720 2E070000 		.4byte	0x72e
 1810 0724 24       		.uleb128 0x24
 1811 0725 90060000 		.4byte	0x690
 1812 0729 8B000000 		.4byte	.LLST4
 1813 072d 00       		.byte	0x0
 1814 072e 25       		.uleb128 0x25
 1815 072f 01       		.byte	0x1
 1816 0730 A8020000 		.4byte	.LASF73
 1817 0734 02       		.byte	0x2
 1818 0735 5D       		.byte	0x5d
 1819 0736 01       		.byte	0x1
 1820 0737 00000000 		.4byte	.LFB122
 1821 073b 54000000 		.4byte	.LFE122
 1822 073f AB000000 		.4byte	.LLST5
 1823 0743 75070000 		.4byte	0x775
 1824 0747 1D       		.uleb128 0x1d
 1825 0748 63687000 		.ascii	"chp\000"
 1826 074c 02       		.byte	0x2
 1827 074d 5D       		.byte	0x5d
 1828 074e E0060000 		.4byte	0x6e0
 1829 0752 CB000000 		.4byte	.LLST6
 1830 0756 26       		.uleb128 0x26
ARM GAS  C:\Users\DNIEL~1\AppData\Local\Temp\ccSpMNhF.s 			page 34


 1831 0757 DE000000 		.4byte	.LASF71
 1832 075b 02       		.byte	0x2
 1833 075c 5D       		.byte	0x5d
 1834 075d 29000000 		.4byte	0x29
 1835 0761 E9000000 		.4byte	.LLST7
 1836 0765 26       		.uleb128 0x26
 1837 0766 4F010000 		.4byte	.LASF72
 1838 076a 02       		.byte	0x2
 1839 076b 5D       		.byte	0x5d
 1840 076c 75070000 		.4byte	0x775
 1841 0770 FC000000 		.4byte	.LLST8
 1842 0774 00       		.byte	0x0
 1843 0775 07       		.uleb128 0x7
 1844 0776 04       		.byte	0x4
 1845 0777 F2050000 		.4byte	0x5f2
 1846 077b 25       		.uleb128 0x25
 1847 077c 01       		.byte	0x1
 1848 077d 3B020000 		.4byte	.LASF74
 1849 0781 02       		.byte	0x2
 1850 0782 6B       		.byte	0x6b
 1851 0783 01       		.byte	0x1
 1852 0784 00000000 		.4byte	.LFB123
 1853 0788 60010000 		.4byte	.LFE123
 1854 078c 0F010000 		.4byte	.LLST9
 1855 0790 53080000 		.4byte	0x853
 1856 0794 1D       		.uleb128 0x1d
 1857 0795 63687000 		.ascii	"chp\000"
 1858 0799 02       		.byte	0x2
 1859 079a 6B       		.byte	0x6b
 1860 079b E0060000 		.4byte	0x6e0
 1861 079f 3B010000 		.4byte	.LLST10
 1862 07a3 26       		.uleb128 0x26
 1863 07a4 DE000000 		.4byte	.LASF71
 1864 07a8 02       		.byte	0x2
 1865 07a9 6B       		.byte	0x6b
 1866 07aa 29000000 		.4byte	0x29
 1867 07ae 59010000 		.4byte	.LLST11
 1868 07b2 26       		.uleb128 0x26
 1869 07b3 4F010000 		.4byte	.LASF72
 1870 07b7 02       		.byte	0x2
 1871 07b8 6B       		.byte	0x6b
 1872 07b9 75070000 		.4byte	0x775
 1873 07bd 77010000 		.4byte	.LLST12
 1874 07c1 27       		.uleb128 0x27
 1875 07c2 2E010000 		.4byte	.LASF87
 1876 07c6 02       		.byte	0x2
 1877 07c7 95       		.byte	0x95
 1878 07c8 9E000000 		.4byte	.L26
 1879 07cc 28       		.uleb128 0x28
 1880 07cd 00000000 		.4byte	.Ldebug_ranges0+0x0
 1881 07d1 29       		.uleb128 0x29
 1882 07d2 01       		.byte	0x1
 1883 07d3 CE020000 		.4byte	.LASF76
 1884 07d7 0C       		.byte	0xc
 1885 07d8 00       		.byte	0x0
 1886 07d9 29000000 		.4byte	0x29
 1887 07dd 01       		.byte	0x1
ARM GAS  C:\Users\DNIEL~1\AppData\Local\Temp\ccSpMNhF.s 			page 35


 1888 07de E4070000 		.4byte	0x7e4
 1889 07e2 1F       		.uleb128 0x1f
 1890 07e3 00       		.byte	0x0
 1891 07e4 2A       		.uleb128 0x2a
 1892 07e5 82060000 		.4byte	0x682
 1893 07e9 78000000 		.4byte	.LBB12
 1894 07ed 88000000 		.4byte	.LBE12
 1895 07f1 02       		.byte	0x2
 1896 07f2 85       		.byte	0x85
 1897 07f3 01080000 		.4byte	0x801
 1898 07f7 24       		.uleb128 0x24
 1899 07f8 90060000 		.4byte	0x690
 1900 07fc AB010000 		.4byte	.LLST13
 1901 0800 00       		.byte	0x0
 1902 0801 2A       		.uleb128 0x2a
 1903 0802 82060000 		.4byte	0x682
 1904 0806 CE000000 		.4byte	.LBB14
 1905 080a E2000000 		.4byte	.LBE14
 1906 080e 02       		.byte	0x2
 1907 080f 77       		.byte	0x77
 1908 0810 1E080000 		.4byte	0x81e
 1909 0814 24       		.uleb128 0x24
 1910 0815 90060000 		.4byte	0x690
 1911 0819 BF010000 		.4byte	.LLST14
 1912 081d 00       		.byte	0x0
 1913 081e 2A       		.uleb128 0x2a
 1914 081f 82060000 		.4byte	0x682
 1915 0823 EC000000 		.4byte	.LBB16
 1916 0827 00010000 		.4byte	.LBE16
 1917 082b 02       		.byte	0x2
 1918 082c 7E       		.byte	0x7e
 1919 082d 3B080000 		.4byte	0x83b
 1920 0831 24       		.uleb128 0x24
 1921 0832 90060000 		.4byte	0x690
 1922 0836 D3010000 		.4byte	.LLST15
 1923 083a 00       		.byte	0x0
 1924 083b 2B       		.uleb128 0x2b
 1925 083c 82060000 		.4byte	0x682
 1926 0840 08010000 		.4byte	.LBB18
 1927 0844 60010000 		.4byte	.LBE18
 1928 0848 02       		.byte	0x2
 1929 0849 8C       		.byte	0x8c
 1930 084a 2C       		.uleb128 0x2c
 1931 084b 90060000 		.4byte	0x690
 1932 084f 00       		.byte	0x0
 1933 0850 00       		.byte	0x0
 1934 0851 00       		.byte	0x0
 1935 0852 00       		.byte	0x0
 1936 0853 2D       		.uleb128 0x2d
 1937 0854 29030000 		.4byte	.LASF77
 1938 0858 0D       		.byte	0xd
 1939 0859 9806     		.2byte	0x698
 1940 085b E0010000 		.4byte	0x1e0
 1941 085f 01       		.byte	0x1
 1942 0860 01       		.byte	0x1
 1943 0861 2D       		.uleb128 0x2d
 1944 0862 28000000 		.4byte	.LASF78
ARM GAS  C:\Users\DNIEL~1\AppData\Local\Temp\ccSpMNhF.s 			page 36


 1945 0866 0A       		.byte	0xa
 1946 0867 BF01     		.2byte	0x1bf
 1947 0869 94040000 		.4byte	0x494
 1948 086d 01       		.byte	0x1
 1949 086e 01       		.byte	0x1
 1950 086f 2E       		.uleb128 0x2e
 1951 0870 42010000 		.4byte	.LASF79
 1952 0874 02       		.byte	0x2
 1953 0875 15       		.byte	0x15
 1954 0876 3D060000 		.4byte	0x63d
 1955 087a 05       		.byte	0x5
 1956 087b 03       		.byte	0x3
 1957 087c 00000000 		.4byte	lightchanels
 1958 0880 2E       		.uleb128 0x2e
 1959 0881 5E020000 		.4byte	.LASF80
 1960 0885 02       		.byte	0x2
 1961 0886 17       		.byte	0x17
 1962 0887 DB050000 		.4byte	0x5db
 1963 088b 05       		.byte	0x5
 1964 088c 03       		.byte	0x3
 1965 088d 00000000 		.4byte	pwmcfg
 1966 0891 2E       		.uleb128 0x2e
 1967 0892 20010000 		.4byte	.LASF46
 1968 0896 02       		.byte	0x2
 1969 0897 25       		.byte	0x25
 1970 0898 29000000 		.4byte	0x29
 1971 089c 05       		.byte	0x5
 1972 089d 03       		.byte	0x3
 1973 089e 00000000 		.4byte	period
 1974 08a2 2D       		.uleb128 0x2d
 1975 08a3 29030000 		.4byte	.LASF77
 1976 08a7 0D       		.byte	0xd
 1977 08a8 9806     		.2byte	0x698
 1978 08aa E0010000 		.4byte	0x1e0
 1979 08ae 01       		.byte	0x1
 1980 08af 01       		.byte	0x1
 1981 08b0 2D       		.uleb128 0x2d
 1982 08b1 28000000 		.4byte	.LASF78
 1983 08b5 0A       		.byte	0xa
 1984 08b6 BF01     		.2byte	0x1bf
 1985 08b8 94040000 		.4byte	0x494
 1986 08bc 01       		.byte	0x1
 1987 08bd 01       		.byte	0x1
 1988 08be 00       		.byte	0x0
 1989              		.section	.debug_abbrev
 1990 0000 01       		.uleb128 0x1
 1991 0001 11       		.uleb128 0x11
 1992 0002 01       		.byte	0x1
 1993 0003 25       		.uleb128 0x25
 1994 0004 0E       		.uleb128 0xe
 1995 0005 13       		.uleb128 0x13
 1996 0006 0B       		.uleb128 0xb
 1997 0007 03       		.uleb128 0x3
 1998 0008 0E       		.uleb128 0xe
 1999 0009 1B       		.uleb128 0x1b
 2000 000a 0E       		.uleb128 0xe
 2001 000b 11       		.uleb128 0x11
ARM GAS  C:\Users\DNIEL~1\AppData\Local\Temp\ccSpMNhF.s 			page 37


 2002 000c 01       		.uleb128 0x1
 2003 000d 52       		.uleb128 0x52
 2004 000e 01       		.uleb128 0x1
 2005 000f 55       		.uleb128 0x55
 2006 0010 06       		.uleb128 0x6
 2007 0011 10       		.uleb128 0x10
 2008 0012 06       		.uleb128 0x6
 2009 0013 00       		.byte	0x0
 2010 0014 00       		.byte	0x0
 2011 0015 02       		.uleb128 0x2
 2012 0016 24       		.uleb128 0x24
 2013 0017 00       		.byte	0x0
 2014 0018 0B       		.uleb128 0xb
 2015 0019 0B       		.uleb128 0xb
 2016 001a 3E       		.uleb128 0x3e
 2017 001b 0B       		.uleb128 0xb
 2018 001c 03       		.uleb128 0x3
 2019 001d 08       		.uleb128 0x8
 2020 001e 00       		.byte	0x0
 2021 001f 00       		.byte	0x0
 2022 0020 03       		.uleb128 0x3
 2023 0021 16       		.uleb128 0x16
 2024 0022 00       		.byte	0x0
 2025 0023 03       		.uleb128 0x3
 2026 0024 0E       		.uleb128 0xe
 2027 0025 3A       		.uleb128 0x3a
 2028 0026 0B       		.uleb128 0xb
 2029 0027 3B       		.uleb128 0x3b
 2030 0028 0B       		.uleb128 0xb
 2031 0029 49       		.uleb128 0x49
 2032 002a 13       		.uleb128 0x13
 2033 002b 00       		.byte	0x0
 2034 002c 00       		.byte	0x0
 2035 002d 04       		.uleb128 0x4
 2036 002e 24       		.uleb128 0x24
 2037 002f 00       		.byte	0x0
 2038 0030 0B       		.uleb128 0xb
 2039 0031 0B       		.uleb128 0xb
 2040 0032 3E       		.uleb128 0x3e
 2041 0033 0B       		.uleb128 0xb
 2042 0034 03       		.uleb128 0x3
 2043 0035 0E       		.uleb128 0xe
 2044 0036 00       		.byte	0x0
 2045 0037 00       		.byte	0x0
 2046 0038 05       		.uleb128 0x5
 2047 0039 0F       		.uleb128 0xf
 2048 003a 00       		.byte	0x0
 2049 003b 0B       		.uleb128 0xb
 2050 003c 0B       		.uleb128 0xb
 2051 003d 00       		.byte	0x0
 2052 003e 00       		.byte	0x0
 2053 003f 06       		.uleb128 0x6
 2054 0040 35       		.uleb128 0x35
 2055 0041 00       		.byte	0x0
 2056 0042 49       		.uleb128 0x49
 2057 0043 13       		.uleb128 0x13
 2058 0044 00       		.byte	0x0
ARM GAS  C:\Users\DNIEL~1\AppData\Local\Temp\ccSpMNhF.s 			page 38


 2059 0045 00       		.byte	0x0
 2060 0046 07       		.uleb128 0x7
 2061 0047 0F       		.uleb128 0xf
 2062 0048 00       		.byte	0x0
 2063 0049 0B       		.uleb128 0xb
 2064 004a 0B       		.uleb128 0xb
 2065 004b 49       		.uleb128 0x49
 2066 004c 13       		.uleb128 0x13
 2067 004d 00       		.byte	0x0
 2068 004e 00       		.byte	0x0
 2069 004f 08       		.uleb128 0x8
 2070 0050 26       		.uleb128 0x26
 2071 0051 00       		.byte	0x0
 2072 0052 49       		.uleb128 0x49
 2073 0053 13       		.uleb128 0x13
 2074 0054 00       		.byte	0x0
 2075 0055 00       		.byte	0x0
 2076 0056 09       		.uleb128 0x9
 2077 0057 15       		.uleb128 0x15
 2078 0058 01       		.byte	0x1
 2079 0059 27       		.uleb128 0x27
 2080 005a 0C       		.uleb128 0xc
 2081 005b 49       		.uleb128 0x49
 2082 005c 13       		.uleb128 0x13
 2083 005d 01       		.uleb128 0x1
 2084 005e 13       		.uleb128 0x13
 2085 005f 00       		.byte	0x0
 2086 0060 00       		.byte	0x0
 2087 0061 0A       		.uleb128 0xa
 2088 0062 05       		.uleb128 0x5
 2089 0063 00       		.byte	0x0
 2090 0064 49       		.uleb128 0x49
 2091 0065 13       		.uleb128 0x13
 2092 0066 00       		.byte	0x0
 2093 0067 00       		.byte	0x0
 2094 0068 0B       		.uleb128 0xb
 2095 0069 13       		.uleb128 0x13
 2096 006a 01       		.byte	0x1
 2097 006b 03       		.uleb128 0x3
 2098 006c 0E       		.uleb128 0xe
 2099 006d 0B       		.uleb128 0xb
 2100 006e 0B       		.uleb128 0xb
 2101 006f 3A       		.uleb128 0x3a
 2102 0070 0B       		.uleb128 0xb
 2103 0071 3B       		.uleb128 0x3b
 2104 0072 0B       		.uleb128 0xb
 2105 0073 01       		.uleb128 0x1
 2106 0074 13       		.uleb128 0x13
 2107 0075 00       		.byte	0x0
 2108 0076 00       		.byte	0x0
 2109 0077 0C       		.uleb128 0xc
 2110 0078 0D       		.uleb128 0xd
 2111 0079 00       		.byte	0x0
 2112 007a 03       		.uleb128 0x3
 2113 007b 0E       		.uleb128 0xe
 2114 007c 3A       		.uleb128 0x3a
 2115 007d 0B       		.uleb128 0xb
ARM GAS  C:\Users\DNIEL~1\AppData\Local\Temp\ccSpMNhF.s 			page 39


 2116 007e 3B       		.uleb128 0x3b
 2117 007f 0B       		.uleb128 0xb
 2118 0080 49       		.uleb128 0x49
 2119 0081 13       		.uleb128 0x13
 2120 0082 38       		.uleb128 0x38
 2121 0083 0A       		.uleb128 0xa
 2122 0084 00       		.byte	0x0
 2123 0085 00       		.byte	0x0
 2124 0086 0D       		.uleb128 0xd
 2125 0087 0D       		.uleb128 0xd
 2126 0088 00       		.byte	0x0
 2127 0089 03       		.uleb128 0x3
 2128 008a 08       		.uleb128 0x8
 2129 008b 3A       		.uleb128 0x3a
 2130 008c 0B       		.uleb128 0xb
 2131 008d 3B       		.uleb128 0x3b
 2132 008e 0B       		.uleb128 0xb
 2133 008f 49       		.uleb128 0x49
 2134 0090 13       		.uleb128 0x13
 2135 0091 38       		.uleb128 0x38
 2136 0092 0A       		.uleb128 0xa
 2137 0093 00       		.byte	0x0
 2138 0094 00       		.byte	0x0
 2139 0095 0E       		.uleb128 0xe
 2140 0096 13       		.uleb128 0x13
 2141 0097 01       		.byte	0x1
 2142 0098 0B       		.uleb128 0xb
 2143 0099 0B       		.uleb128 0xb
 2144 009a 3A       		.uleb128 0x3a
 2145 009b 0B       		.uleb128 0xb
 2146 009c 3B       		.uleb128 0x3b
 2147 009d 0B       		.uleb128 0xb
 2148 009e 01       		.uleb128 0x1
 2149 009f 13       		.uleb128 0x13
 2150 00a0 00       		.byte	0x0
 2151 00a1 00       		.byte	0x0
 2152 00a2 0F       		.uleb128 0xf
 2153 00a3 01       		.uleb128 0x1
 2154 00a4 01       		.byte	0x1
 2155 00a5 49       		.uleb128 0x49
 2156 00a6 13       		.uleb128 0x13
 2157 00a7 01       		.uleb128 0x1
 2158 00a8 13       		.uleb128 0x13
 2159 00a9 00       		.byte	0x0
 2160 00aa 00       		.byte	0x0
 2161 00ab 10       		.uleb128 0x10
 2162 00ac 21       		.uleb128 0x21
 2163 00ad 00       		.byte	0x0
 2164 00ae 49       		.uleb128 0x49
 2165 00af 13       		.uleb128 0x13
 2166 00b0 2F       		.uleb128 0x2f
 2167 00b1 0B       		.uleb128 0xb
 2168 00b2 00       		.byte	0x0
 2169 00b3 00       		.byte	0x0
 2170 00b4 11       		.uleb128 0x11
 2171 00b5 13       		.uleb128 0x13
 2172 00b6 01       		.byte	0x1
ARM GAS  C:\Users\DNIEL~1\AppData\Local\Temp\ccSpMNhF.s 			page 40


 2173 00b7 0B       		.uleb128 0xb
 2174 00b8 0B       		.uleb128 0xb
 2175 00b9 3A       		.uleb128 0x3a
 2176 00ba 0B       		.uleb128 0xb
 2177 00bb 3B       		.uleb128 0x3b
 2178 00bc 05       		.uleb128 0x5
 2179 00bd 01       		.uleb128 0x1
 2180 00be 13       		.uleb128 0x13
 2181 00bf 00       		.byte	0x0
 2182 00c0 00       		.byte	0x0
 2183 00c1 12       		.uleb128 0x12
 2184 00c2 0D       		.uleb128 0xd
 2185 00c3 00       		.byte	0x0
 2186 00c4 03       		.uleb128 0x3
 2187 00c5 08       		.uleb128 0x8
 2188 00c6 3A       		.uleb128 0x3a
 2189 00c7 0B       		.uleb128 0xb
 2190 00c8 3B       		.uleb128 0x3b
 2191 00c9 05       		.uleb128 0x5
 2192 00ca 49       		.uleb128 0x49
 2193 00cb 13       		.uleb128 0x13
 2194 00cc 38       		.uleb128 0x38
 2195 00cd 0A       		.uleb128 0xa
 2196 00ce 00       		.byte	0x0
 2197 00cf 00       		.byte	0x0
 2198 00d0 13       		.uleb128 0x13
 2199 00d1 0D       		.uleb128 0xd
 2200 00d2 00       		.byte	0x0
 2201 00d3 03       		.uleb128 0x3
 2202 00d4 0E       		.uleb128 0xe
 2203 00d5 3A       		.uleb128 0x3a
 2204 00d6 0B       		.uleb128 0xb
 2205 00d7 3B       		.uleb128 0x3b
 2206 00d8 05       		.uleb128 0x5
 2207 00d9 49       		.uleb128 0x49
 2208 00da 13       		.uleb128 0x13
 2209 00db 38       		.uleb128 0x38
 2210 00dc 0A       		.uleb128 0xa
 2211 00dd 00       		.byte	0x0
 2212 00de 00       		.byte	0x0
 2213 00df 14       		.uleb128 0x14
 2214 00e0 16       		.uleb128 0x16
 2215 00e1 00       		.byte	0x0
 2216 00e2 03       		.uleb128 0x3
 2217 00e3 0E       		.uleb128 0xe
 2218 00e4 3A       		.uleb128 0x3a
 2219 00e5 0B       		.uleb128 0xb
 2220 00e6 3B       		.uleb128 0x3b
 2221 00e7 05       		.uleb128 0x5
 2222 00e8 49       		.uleb128 0x49
 2223 00e9 13       		.uleb128 0x13
 2224 00ea 00       		.byte	0x0
 2225 00eb 00       		.byte	0x0
 2226 00ec 15       		.uleb128 0x15
 2227 00ed 04       		.uleb128 0x4
 2228 00ee 01       		.byte	0x1
 2229 00ef 0B       		.uleb128 0xb
ARM GAS  C:\Users\DNIEL~1\AppData\Local\Temp\ccSpMNhF.s 			page 41


 2230 00f0 0B       		.uleb128 0xb
 2231 00f1 3A       		.uleb128 0x3a
 2232 00f2 0B       		.uleb128 0xb
 2233 00f3 3B       		.uleb128 0x3b
 2234 00f4 0B       		.uleb128 0xb
 2235 00f5 01       		.uleb128 0x1
 2236 00f6 13       		.uleb128 0x13
 2237 00f7 00       		.byte	0x0
 2238 00f8 00       		.byte	0x0
 2239 00f9 16       		.uleb128 0x16
 2240 00fa 28       		.uleb128 0x28
 2241 00fb 00       		.byte	0x0
 2242 00fc 03       		.uleb128 0x3
 2243 00fd 0E       		.uleb128 0xe
 2244 00fe 1C       		.uleb128 0x1c
 2245 00ff 0D       		.uleb128 0xd
 2246 0100 00       		.byte	0x0
 2247 0101 00       		.byte	0x0
 2248 0102 17       		.uleb128 0x17
 2249 0103 13       		.uleb128 0x13
 2250 0104 01       		.byte	0x1
 2251 0105 03       		.uleb128 0x3
 2252 0106 0E       		.uleb128 0xe
 2253 0107 0B       		.uleb128 0xb
 2254 0108 0B       		.uleb128 0xb
 2255 0109 3A       		.uleb128 0x3a
 2256 010a 0B       		.uleb128 0xb
 2257 010b 3B       		.uleb128 0x3b
 2258 010c 05       		.uleb128 0x5
 2259 010d 01       		.uleb128 0x1
 2260 010e 13       		.uleb128 0x13
 2261 010f 00       		.byte	0x0
 2262 0110 00       		.byte	0x0
 2263 0111 18       		.uleb128 0x18
 2264 0112 15       		.uleb128 0x15
 2265 0113 01       		.byte	0x1
 2266 0114 27       		.uleb128 0x27
 2267 0115 0C       		.uleb128 0xc
 2268 0116 01       		.uleb128 0x1
 2269 0117 13       		.uleb128 0x13
 2270 0118 00       		.byte	0x0
 2271 0119 00       		.byte	0x0
 2272 011a 19       		.uleb128 0x19
 2273 011b 0D       		.uleb128 0xd
 2274 011c 00       		.byte	0x0
 2275 011d 03       		.uleb128 0x3
 2276 011e 0E       		.uleb128 0xe
 2277 011f 49       		.uleb128 0x49
 2278 0120 13       		.uleb128 0x13
 2279 0121 38       		.uleb128 0x38
 2280 0122 0A       		.uleb128 0xa
 2281 0123 34       		.uleb128 0x34
 2282 0124 0C       		.uleb128 0xc
 2283 0125 00       		.byte	0x0
 2284 0126 00       		.byte	0x0
 2285 0127 1A       		.uleb128 0x1a
 2286 0128 2E       		.uleb128 0x2e
ARM GAS  C:\Users\DNIEL~1\AppData\Local\Temp\ccSpMNhF.s 			page 42


 2287 0129 01       		.byte	0x1
 2288 012a 3F       		.uleb128 0x3f
 2289 012b 0C       		.uleb128 0xc
 2290 012c 03       		.uleb128 0x3
 2291 012d 0E       		.uleb128 0xe
 2292 012e 3A       		.uleb128 0x3a
 2293 012f 0B       		.uleb128 0xb
 2294 0130 3B       		.uleb128 0x3b
 2295 0131 0B       		.uleb128 0xb
 2296 0132 27       		.uleb128 0x27
 2297 0133 0C       		.uleb128 0xc
 2298 0134 20       		.uleb128 0x20
 2299 0135 0B       		.uleb128 0xb
 2300 0136 01       		.uleb128 0x1
 2301 0137 13       		.uleb128 0x13
 2302 0138 00       		.byte	0x0
 2303 0139 00       		.byte	0x0
 2304 013a 1B       		.uleb128 0x1b
 2305 013b 05       		.uleb128 0x5
 2306 013c 00       		.byte	0x0
 2307 013d 03       		.uleb128 0x3
 2308 013e 0E       		.uleb128 0xe
 2309 013f 3A       		.uleb128 0x3a
 2310 0140 0B       		.uleb128 0xb
 2311 0141 3B       		.uleb128 0x3b
 2312 0142 0B       		.uleb128 0xb
 2313 0143 49       		.uleb128 0x49
 2314 0144 13       		.uleb128 0x13
 2315 0145 00       		.byte	0x0
 2316 0146 00       		.byte	0x0
 2317 0147 1C       		.uleb128 0x1c
 2318 0148 2E       		.uleb128 0x2e
 2319 0149 01       		.byte	0x1
 2320 014a 03       		.uleb128 0x3
 2321 014b 0E       		.uleb128 0xe
 2322 014c 3A       		.uleb128 0x3a
 2323 014d 0B       		.uleb128 0xb
 2324 014e 3B       		.uleb128 0x3b
 2325 014f 0B       		.uleb128 0xb
 2326 0150 27       		.uleb128 0x27
 2327 0151 0C       		.uleb128 0xc
 2328 0152 11       		.uleb128 0x11
 2329 0153 01       		.uleb128 0x1
 2330 0154 12       		.uleb128 0x12
 2331 0155 01       		.uleb128 0x1
 2332 0156 40       		.uleb128 0x40
 2333 0157 06       		.uleb128 0x6
 2334 0158 01       		.uleb128 0x1
 2335 0159 13       		.uleb128 0x13
 2336 015a 00       		.byte	0x0
 2337 015b 00       		.byte	0x0
 2338 015c 1D       		.uleb128 0x1d
 2339 015d 05       		.uleb128 0x5
 2340 015e 00       		.byte	0x0
 2341 015f 03       		.uleb128 0x3
 2342 0160 08       		.uleb128 0x8
 2343 0161 3A       		.uleb128 0x3a
ARM GAS  C:\Users\DNIEL~1\AppData\Local\Temp\ccSpMNhF.s 			page 43


 2344 0162 0B       		.uleb128 0xb
 2345 0163 3B       		.uleb128 0x3b
 2346 0164 0B       		.uleb128 0xb
 2347 0165 49       		.uleb128 0x49
 2348 0166 13       		.uleb128 0x13
 2349 0167 02       		.uleb128 0x2
 2350 0168 06       		.uleb128 0x6
 2351 0169 00       		.byte	0x0
 2352 016a 00       		.byte	0x0
 2353 016b 1E       		.uleb128 0x1e
 2354 016c 05       		.uleb128 0x5
 2355 016d 00       		.byte	0x0
 2356 016e 03       		.uleb128 0x3
 2357 016f 08       		.uleb128 0x8
 2358 0170 3A       		.uleb128 0x3a
 2359 0171 0B       		.uleb128 0xb
 2360 0172 3B       		.uleb128 0x3b
 2361 0173 0B       		.uleb128 0xb
 2362 0174 49       		.uleb128 0x49
 2363 0175 13       		.uleb128 0x13
 2364 0176 02       		.uleb128 0x2
 2365 0177 0A       		.uleb128 0xa
 2366 0178 00       		.byte	0x0
 2367 0179 00       		.byte	0x0
 2368 017a 1F       		.uleb128 0x1f
 2369 017b 18       		.uleb128 0x18
 2370 017c 00       		.byte	0x0
 2371 017d 00       		.byte	0x0
 2372 017e 00       		.byte	0x0
 2373 017f 20       		.uleb128 0x20
 2374 0180 34       		.uleb128 0x34
 2375 0181 00       		.byte	0x0
 2376 0182 03       		.uleb128 0x3
 2377 0183 08       		.uleb128 0x8
 2378 0184 3A       		.uleb128 0x3a
 2379 0185 0B       		.uleb128 0xb
 2380 0186 3B       		.uleb128 0x3b
 2381 0187 0B       		.uleb128 0xb
 2382 0188 49       		.uleb128 0x49
 2383 0189 13       		.uleb128 0x13
 2384 018a 02       		.uleb128 0x2
 2385 018b 0A       		.uleb128 0xa
 2386 018c 00       		.byte	0x0
 2387 018d 00       		.byte	0x0
 2388 018e 21       		.uleb128 0x21
 2389 018f 2E       		.uleb128 0x2e
 2390 0190 00       		.byte	0x0
 2391 0191 3F       		.uleb128 0x3f
 2392 0192 0C       		.uleb128 0xc
 2393 0193 03       		.uleb128 0x3
 2394 0194 0E       		.uleb128 0xe
 2395 0195 3A       		.uleb128 0x3a
 2396 0196 0B       		.uleb128 0xb
 2397 0197 3B       		.uleb128 0x3b
 2398 0198 0B       		.uleb128 0xb
 2399 0199 27       		.uleb128 0x27
 2400 019a 0C       		.uleb128 0xc
ARM GAS  C:\Users\DNIEL~1\AppData\Local\Temp\ccSpMNhF.s 			page 44


 2401 019b 11       		.uleb128 0x11
 2402 019c 01       		.uleb128 0x1
 2403 019d 12       		.uleb128 0x12
 2404 019e 01       		.uleb128 0x1
 2405 019f 40       		.uleb128 0x40
 2406 01a0 0A       		.uleb128 0xa
 2407 01a1 00       		.byte	0x0
 2408 01a2 00       		.byte	0x0
 2409 01a3 22       		.uleb128 0x22
 2410 01a4 2E       		.uleb128 0x2e
 2411 01a5 00       		.byte	0x0
 2412 01a6 3F       		.uleb128 0x3f
 2413 01a7 0C       		.uleb128 0xc
 2414 01a8 03       		.uleb128 0x3
 2415 01a9 0E       		.uleb128 0xe
 2416 01aa 3A       		.uleb128 0x3a
 2417 01ab 0B       		.uleb128 0xb
 2418 01ac 3B       		.uleb128 0x3b
 2419 01ad 0B       		.uleb128 0xb
 2420 01ae 27       		.uleb128 0x27
 2421 01af 0C       		.uleb128 0xc
 2422 01b0 11       		.uleb128 0x11
 2423 01b1 01       		.uleb128 0x1
 2424 01b2 12       		.uleb128 0x12
 2425 01b3 01       		.uleb128 0x1
 2426 01b4 40       		.uleb128 0x40
 2427 01b5 06       		.uleb128 0x6
 2428 01b6 00       		.byte	0x0
 2429 01b7 00       		.byte	0x0
 2430 01b8 23       		.uleb128 0x23
 2431 01b9 2E       		.uleb128 0x2e
 2432 01ba 01       		.byte	0x1
 2433 01bb 31       		.uleb128 0x31
 2434 01bc 13       		.uleb128 0x13
 2435 01bd 11       		.uleb128 0x11
 2436 01be 01       		.uleb128 0x1
 2437 01bf 12       		.uleb128 0x12
 2438 01c0 01       		.uleb128 0x1
 2439 01c1 40       		.uleb128 0x40
 2440 01c2 06       		.uleb128 0x6
 2441 01c3 01       		.uleb128 0x1
 2442 01c4 13       		.uleb128 0x13
 2443 01c5 00       		.byte	0x0
 2444 01c6 00       		.byte	0x0
 2445 01c7 24       		.uleb128 0x24
 2446 01c8 05       		.uleb128 0x5
 2447 01c9 00       		.byte	0x0
 2448 01ca 31       		.uleb128 0x31
 2449 01cb 13       		.uleb128 0x13
 2450 01cc 02       		.uleb128 0x2
 2451 01cd 06       		.uleb128 0x6
 2452 01ce 00       		.byte	0x0
 2453 01cf 00       		.byte	0x0
 2454 01d0 25       		.uleb128 0x25
 2455 01d1 2E       		.uleb128 0x2e
 2456 01d2 01       		.byte	0x1
 2457 01d3 3F       		.uleb128 0x3f
ARM GAS  C:\Users\DNIEL~1\AppData\Local\Temp\ccSpMNhF.s 			page 45


 2458 01d4 0C       		.uleb128 0xc
 2459 01d5 03       		.uleb128 0x3
 2460 01d6 0E       		.uleb128 0xe
 2461 01d7 3A       		.uleb128 0x3a
 2462 01d8 0B       		.uleb128 0xb
 2463 01d9 3B       		.uleb128 0x3b
 2464 01da 0B       		.uleb128 0xb
 2465 01db 27       		.uleb128 0x27
 2466 01dc 0C       		.uleb128 0xc
 2467 01dd 11       		.uleb128 0x11
 2468 01de 01       		.uleb128 0x1
 2469 01df 12       		.uleb128 0x12
 2470 01e0 01       		.uleb128 0x1
 2471 01e1 40       		.uleb128 0x40
 2472 01e2 06       		.uleb128 0x6
 2473 01e3 01       		.uleb128 0x1
 2474 01e4 13       		.uleb128 0x13
 2475 01e5 00       		.byte	0x0
 2476 01e6 00       		.byte	0x0
 2477 01e7 26       		.uleb128 0x26
 2478 01e8 05       		.uleb128 0x5
 2479 01e9 00       		.byte	0x0
 2480 01ea 03       		.uleb128 0x3
 2481 01eb 0E       		.uleb128 0xe
 2482 01ec 3A       		.uleb128 0x3a
 2483 01ed 0B       		.uleb128 0xb
 2484 01ee 3B       		.uleb128 0x3b
 2485 01ef 0B       		.uleb128 0xb
 2486 01f0 49       		.uleb128 0x49
 2487 01f1 13       		.uleb128 0x13
 2488 01f2 02       		.uleb128 0x2
 2489 01f3 06       		.uleb128 0x6
 2490 01f4 00       		.byte	0x0
 2491 01f5 00       		.byte	0x0
 2492 01f6 27       		.uleb128 0x27
 2493 01f7 0A       		.uleb128 0xa
 2494 01f8 00       		.byte	0x0
 2495 01f9 03       		.uleb128 0x3
 2496 01fa 0E       		.uleb128 0xe
 2497 01fb 3A       		.uleb128 0x3a
 2498 01fc 0B       		.uleb128 0xb
 2499 01fd 3B       		.uleb128 0x3b
 2500 01fe 0B       		.uleb128 0xb
 2501 01ff 11       		.uleb128 0x11
 2502 0200 01       		.uleb128 0x1
 2503 0201 00       		.byte	0x0
 2504 0202 00       		.byte	0x0
 2505 0203 28       		.uleb128 0x28
 2506 0204 0B       		.uleb128 0xb
 2507 0205 01       		.byte	0x1
 2508 0206 55       		.uleb128 0x55
 2509 0207 06       		.uleb128 0x6
 2510 0208 00       		.byte	0x0
 2511 0209 00       		.byte	0x0
 2512 020a 29       		.uleb128 0x29
 2513 020b 2E       		.uleb128 0x2e
 2514 020c 01       		.byte	0x1
ARM GAS  C:\Users\DNIEL~1\AppData\Local\Temp\ccSpMNhF.s 			page 46


 2515 020d 3F       		.uleb128 0x3f
 2516 020e 0C       		.uleb128 0xc
 2517 020f 03       		.uleb128 0x3
 2518 0210 0E       		.uleb128 0xe
 2519 0211 3A       		.uleb128 0x3a
 2520 0212 0B       		.uleb128 0xb
 2521 0213 3B       		.uleb128 0x3b
 2522 0214 0B       		.uleb128 0xb
 2523 0215 49       		.uleb128 0x49
 2524 0216 13       		.uleb128 0x13
 2525 0217 3C       		.uleb128 0x3c
 2526 0218 0C       		.uleb128 0xc
 2527 0219 01       		.uleb128 0x1
 2528 021a 13       		.uleb128 0x13
 2529 021b 00       		.byte	0x0
 2530 021c 00       		.byte	0x0
 2531 021d 2A       		.uleb128 0x2a
 2532 021e 1D       		.uleb128 0x1d
 2533 021f 01       		.byte	0x1
 2534 0220 31       		.uleb128 0x31
 2535 0221 13       		.uleb128 0x13
 2536 0222 11       		.uleb128 0x11
 2537 0223 01       		.uleb128 0x1
 2538 0224 12       		.uleb128 0x12
 2539 0225 01       		.uleb128 0x1
 2540 0226 58       		.uleb128 0x58
 2541 0227 0B       		.uleb128 0xb
 2542 0228 59       		.uleb128 0x59
 2543 0229 0B       		.uleb128 0xb
 2544 022a 01       		.uleb128 0x1
 2545 022b 13       		.uleb128 0x13
 2546 022c 00       		.byte	0x0
 2547 022d 00       		.byte	0x0
 2548 022e 2B       		.uleb128 0x2b
 2549 022f 1D       		.uleb128 0x1d
 2550 0230 01       		.byte	0x1
 2551 0231 31       		.uleb128 0x31
 2552 0232 13       		.uleb128 0x13
 2553 0233 11       		.uleb128 0x11
 2554 0234 01       		.uleb128 0x1
 2555 0235 12       		.uleb128 0x12
 2556 0236 01       		.uleb128 0x1
 2557 0237 58       		.uleb128 0x58
 2558 0238 0B       		.uleb128 0xb
 2559 0239 59       		.uleb128 0x59
 2560 023a 0B       		.uleb128 0xb
 2561 023b 00       		.byte	0x0
 2562 023c 00       		.byte	0x0
 2563 023d 2C       		.uleb128 0x2c
 2564 023e 05       		.uleb128 0x5
 2565 023f 00       		.byte	0x0
 2566 0240 31       		.uleb128 0x31
 2567 0241 13       		.uleb128 0x13
 2568 0242 1C       		.uleb128 0x1c
 2569 0243 0B       		.uleb128 0xb
 2570 0244 00       		.byte	0x0
 2571 0245 00       		.byte	0x0
ARM GAS  C:\Users\DNIEL~1\AppData\Local\Temp\ccSpMNhF.s 			page 47


 2572 0246 2D       		.uleb128 0x2d
 2573 0247 34       		.uleb128 0x34
 2574 0248 00       		.byte	0x0
 2575 0249 03       		.uleb128 0x3
 2576 024a 0E       		.uleb128 0xe
 2577 024b 3A       		.uleb128 0x3a
 2578 024c 0B       		.uleb128 0xb
 2579 024d 3B       		.uleb128 0x3b
 2580 024e 05       		.uleb128 0x5
 2581 024f 49       		.uleb128 0x49
 2582 0250 13       		.uleb128 0x13
 2583 0251 3F       		.uleb128 0x3f
 2584 0252 0C       		.uleb128 0xc
 2585 0253 3C       		.uleb128 0x3c
 2586 0254 0C       		.uleb128 0xc
 2587 0255 00       		.byte	0x0
 2588 0256 00       		.byte	0x0
 2589 0257 2E       		.uleb128 0x2e
 2590 0258 34       		.uleb128 0x34
 2591 0259 00       		.byte	0x0
 2592 025a 03       		.uleb128 0x3
 2593 025b 0E       		.uleb128 0xe
 2594 025c 3A       		.uleb128 0x3a
 2595 025d 0B       		.uleb128 0xb
 2596 025e 3B       		.uleb128 0x3b
 2597 025f 0B       		.uleb128 0xb
 2598 0260 49       		.uleb128 0x49
 2599 0261 13       		.uleb128 0x13
 2600 0262 02       		.uleb128 0x2
 2601 0263 0A       		.uleb128 0xa
 2602 0264 00       		.byte	0x0
 2603 0265 00       		.byte	0x0
 2604 0266 00       		.byte	0x0
 2605              		.section	.debug_pubnames,"",%progbits
 2606 0000 63000000 		.4byte	0x63
 2607 0004 0200     		.2byte	0x2
 2608 0006 00000000 		.4byte	.Ldebug_info0
 2609 000a BF080000 		.4byte	0x8bf
 2610 000e E6060000 		.4byte	0x6e6
 2611 0012 6C696768 		.ascii	"lightInit\000"
 2611      74496E69 
 2611      7400
 2612 001c FA060000 		.4byte	0x6fa
 2613 0020 6C696768 		.ascii	"lightCalc\000"
 2613      7443616C 
 2613      6300
 2614 002a 0F070000 		.4byte	0x70f
 2615 002e 6C696768 		.ascii	"lightFlashing\000"
 2615      74466C61 
 2615      7368696E 
 2615      6700
 2616 003c 2E070000 		.4byte	0x72e
 2617 0040 636D645F 		.ascii	"cmd_lightvalues\000"
 2617      6C696768 
 2617      7476616C 
 2617      75657300 
 2618 0050 7B070000 		.4byte	0x77b
ARM GAS  C:\Users\DNIEL~1\AppData\Local\Temp\ccSpMNhF.s 			page 48


 2619 0054 636D645F 		.ascii	"cmd_lightblink\000"
 2619      6C696768 
 2619      74626C69 
 2619      6E6B00
 2620 0063 00000000 		.4byte	0x0
 2621              		.section	.debug_pubtypes,"",%progbits
 2622 0000 84010000 		.4byte	0x184
 2623 0004 0200     		.2byte	0x2
 2624 0006 00000000 		.4byte	.Ldebug_info0
 2625 000a BF080000 		.4byte	0x8bf
 2626 000e 30000000 		.4byte	0x30
 2627 0012 73697A65 		.ascii	"size_t\000"
 2627      5F7400
 2628 0019 49000000 		.4byte	0x49
 2629 001d 75696E74 		.ascii	"uint8_t\000"
 2629      385F7400 
 2630 0025 62000000 		.4byte	0x62
 2631 0029 75696E74 		.ascii	"uint16_t\000"
 2631      31365F74 
 2631      00
 2632 0032 74000000 		.4byte	0x74
 2633 0036 696E7433 		.ascii	"int32_t\000"
 2633      325F7400 
 2634 003e 86000000 		.4byte	0x86
 2635 0042 75696E74 		.ascii	"uint32_t\000"
 2635      33325F74 
 2635      00
 2636 004b AD000000 		.4byte	0xad
 2637 004f 6D73675F 		.ascii	"msg_t\000"
 2637      7400
 2638 0055 B8000000 		.4byte	0xb8
 2639 0059 73797374 		.ascii	"systime_t\000"
 2639      696D655F 
 2639      7400
 2640 0063 F8000000 		.4byte	0xf8
 2641 0067 42617365 		.ascii	"BaseSequentialStreamVMT\000"
 2641      53657175 
 2641      656E7469 
 2641      616C5374 
 2641      7265616D 
 2642 007f C5010000 		.4byte	0x1c5
 2643 0083 42617365 		.ascii	"BaseSequentialStream\000"
 2643      53657175 
 2643      656E7469 
 2643      616C5374 
 2643      7265616D 
 2644 0098 E5010000 		.4byte	0x1e5
 2645 009c 42617365 		.ascii	"BaseChannelVMT\000"
 2645      4368616E 
 2645      6E656C56 
 2645      4D5400
 2646 00ab 09030000 		.4byte	0x309
 2647 00af 42617365 		.ascii	"BaseChannel\000"
 2647      4368616E 
 2647      6E656C00 
 2648 00bb 5C040000 		.4byte	0x45c
 2649 00bf 73746D33 		.ascii	"stm32_tim_t\000"
ARM GAS  C:\Users\DNIEL~1\AppData\Local\Temp\ccSpMNhF.s 			page 49


 2649      325F7469 
 2649      6D5F7400 
 2650 00cb 89040000 		.4byte	0x489
 2651 00cf 70776D73 		.ascii	"pwmstate_t\000"
 2651      74617465 
 2651      5F7400
 2652 00da 94040000 		.4byte	0x494
 2653 00de 50574D44 		.ascii	"PWMDriver\000"
 2653      72697665 
 2653      7200
 2654 00e8 F8040000 		.4byte	0x4f8
 2655 00ec 70776D63 		.ascii	"pwmcallback_t\000"
 2655      616C6C62 
 2655      61636B5F 
 2655      7400
 2656 00fa 1B050000 		.4byte	0x51b
 2657 00fe 70776D6D 		.ascii	"pwmmode_t\000"
 2657      6F64655F 
 2657      7400
 2658 0108 27050000 		.4byte	0x527
 2659 010c 70776D63 		.ascii	"pwmcnt_t\000"
 2659      6E745F74 
 2659      00
 2660 0115 5B050000 		.4byte	0x55b
 2661 0119 50574D43 		.ascii	"PWMChannelConfig\000"
 2661      68616E6E 
 2661      656C436F 
 2661      6E666967 
 2661      00
 2662 012a DB050000 		.4byte	0x5db
 2663 012e 50574D43 		.ascii	"PWMConfig\000"
 2663      6F6E6669 
 2663      6700
 2664 0138 9F040000 		.4byte	0x49f
 2665 013c 50574D44 		.ascii	"PWMDriver\000"
 2665      72697665 
 2665      7200
 2666 0146 18060000 		.4byte	0x618
 2667 014a 5F5F7661 		.ascii	"__va_list\000"
 2667      5F6C6973 
 2667      7400
 2668 0154 0D060000 		.4byte	0x60d
 2669 0158 5F5F676E 		.ascii	"__gnuc_va_list\000"
 2669      75635F76 
 2669      615F6C69 
 2669      737400
 2670 0167 32060000 		.4byte	0x632
 2671 016b 76615F6C 		.ascii	"va_list\000"
 2671      69737400 
 2672 0173 3D060000 		.4byte	0x63d
 2673 0177 6C696768 		.ascii	"lightChanels\000"
 2673      74436861 
 2673      6E656C73 
 2673      00
 2674 0184 00000000 		.4byte	0x0
 2675              		.section	.debug_aranges,"",%progbits
 2676 0000 44000000 		.4byte	0x44
ARM GAS  C:\Users\DNIEL~1\AppData\Local\Temp\ccSpMNhF.s 			page 50


 2677 0004 0200     		.2byte	0x2
 2678 0006 00000000 		.4byte	.Ldebug_info0
 2679 000a 04       		.byte	0x4
 2680 000b 00       		.byte	0x0
 2681 000c 0000     		.2byte	0x0
 2682 000e 0000     		.2byte	0x0
 2683 0010 00000000 		.4byte	.LFB118
 2684 0014 1E000000 		.4byte	.LFE118-.LFB118
 2685 0018 00000000 		.4byte	.LFB119
 2686 001c 1C000000 		.4byte	.LFE119-.LFB119
 2687 0020 00000000 		.4byte	.LFB120
 2688 0024 5C000000 		.4byte	.LFE120-.LFB120
 2689 0028 00000000 		.4byte	.LFB121
 2690 002c 48000000 		.4byte	.LFE121-.LFB121
 2691 0030 00000000 		.4byte	.LFB122
 2692 0034 54000000 		.4byte	.LFE122-.LFB122
 2693 0038 00000000 		.4byte	.LFB123
 2694 003c 60010000 		.4byte	.LFE123-.LFB123
 2695 0040 00000000 		.4byte	0x0
 2696 0044 00000000 		.4byte	0x0
 2697              		.section	.debug_ranges,"",%progbits
 2698              	.Ldebug_ranges0:
 2699 0000 28000000 		.4byte	.LBB11
 2700 0004 88000000 		.4byte	.LBE11
 2701 0008 C4000000 		.4byte	.LBB21
 2702 000c 60010000 		.4byte	.LBE21
 2703 0010 8C000000 		.4byte	.LBB20
 2704 0014 9E000000 		.4byte	.LBE20
 2705 0018 00000000 		.4byte	0x0
 2706 001c 00000000 		.4byte	0x0
 2707 0020 00000000 		.4byte	.LFB118
 2708 0024 1E000000 		.4byte	.LFE118
 2709 0028 00000000 		.4byte	.LFB119
 2710 002c 1C000000 		.4byte	.LFE119
 2711 0030 00000000 		.4byte	.LFB120
 2712 0034 5C000000 		.4byte	.LFE120
 2713 0038 00000000 		.4byte	.LFB121
 2714 003c 48000000 		.4byte	.LFE121
 2715 0040 00000000 		.4byte	.LFB122
 2716 0044 54000000 		.4byte	.LFE122
 2717 0048 00000000 		.4byte	.LFB123
 2718 004c 60010000 		.4byte	.LFE123
 2719 0050 00000000 		.4byte	0x0
 2720 0054 00000000 		.4byte	0x0
 2721              		.section	.debug_str,"MS",%progbits,1
 2722              	.LASF32:
 2723 0000 43434552 		.ascii	"CCER\000"
 2723      00
 2724              	.LASF18:
 2725 0005 77726974 		.ascii	"write\000"
 2725      6500
 2726              	.LASF66:
 2727 000b 72696768 		.ascii	"right\000"
 2727      7400
 2728              	.LASF34:
 2729 0011 444D4152 		.ascii	"DMAR\000"
 2729      00
ARM GAS  C:\Users\DNIEL~1\AppData\Local\Temp\ccSpMNhF.s 			page 51


 2730              	.LASF44:
 2731 0016 73746174 		.ascii	"state\000"
 2731      6500
 2732              	.LASF31:
 2733 001c 43434D52 		.ascii	"CCMR2\000"
 2733      3200
 2734              	.LASF35:
 2735 0022 43434D52 		.ascii	"CCMR3\000"
 2735      3300
 2736              	.LASF78:
 2737 0028 50574D44 		.ascii	"PWMD4\000"
 2737      3400
 2738              	.LASF30:
 2739 002e 43434D52 		.ascii	"CCMR1\000"
 2739      3100
 2740              	.LASF2:
 2741 0034 73697A65 		.ascii	"size_t\000"
 2741      5F7400
 2742              	.LASF50:
 2743 003b 70776D63 		.ascii	"pwmcnt_t\000"
 2743      6E745F74 
 2743      00
 2744              	.LASF20:
 2745 0044 42617365 		.ascii	"BaseSequentialStream\000"
 2745      53657175 
 2745      656E7469 
 2745      616C5374 
 2745      7265616D 
 2746              	.LASF51:
 2747 0059 6D6F6465 		.ascii	"mode\000"
 2747      00
 2748              	.LASF83:
 2749 005e 433A5C44 		.ascii	"C:\\Dani\\MegaLux\\Repo\\Smarty\\Smarty\\smarty\\fi"
 2749      616E695C 
 2749      4D656761 
 2749      4C75785C 
 2749      5265706F 
 2750 008a 726D7761 		.ascii	"rmware\000"
 2750      726500
 2751              	.LASF63:
 2752 0091 76615F6C 		.ascii	"va_list\000"
 2752      69737400 
 2753              	.LASF25:
 2754 0099 77726974 		.ascii	"writet\000"
 2754      657400
 2755              	.LASF5:
 2756 00a0 73686F72 		.ascii	"short int\000"
 2756      7420696E 
 2756      7400
 2757              	.LASF45:
 2758 00aa 636F6E66 		.ascii	"config\000"
 2758      696700
 2759              	.LASF22:
 2760 00b1 42617365 		.ascii	"BaseChannelVMT\000"
 2760      4368616E 
 2760      6E656C56 
 2760      4D5400
ARM GAS  C:\Users\DNIEL~1\AppData\Local\Temp\ccSpMNhF.s 			page 52


 2761              	.LASF3:
 2762 00c0 75696E74 		.ascii	"uint8_t\000"
 2762      385F7400 
 2763              	.LASF57:
 2764 00c8 50574D43 		.ascii	"PWMConfig\000"
 2764      6F6E6669 
 2764      6700
 2765              	.LASF38:
 2766 00d2 73746D33 		.ascii	"stm32_tim_t\000"
 2766      325F7469 
 2766      6D5F7400 
 2767              	.LASF71:
 2768 00de 61726763 		.ascii	"argc\000"
 2768      00
 2769              	.LASF70:
 2770 00e3 6C696768 		.ascii	"lightCalc\000"
 2770      7443616C 
 2770      6300
 2771              	.LASF59:
 2772 00ed 666C6F61 		.ascii	"float\000"
 2772      7400
 2773              	.LASF19:
 2774 00f3 72656164 		.ascii	"read\000"
 2774      00
 2775              	.LASF12:
 2776 00f8 6C6F6E67 		.ascii	"long long int\000"
 2776      206C6F6E 
 2776      6720696E 
 2776      7400
 2777              	.LASF62:
 2778 0106 5F5F7661 		.ascii	"__va_list\000"
 2778      5F6C6973 
 2778      7400
 2779              	.LASF17:
 2780 0110 63686172 		.ascii	"char\000"
 2780      00
 2781              	.LASF47:
 2782 0115 636C6F63 		.ascii	"clock\000"
 2782      6B00
 2783              	.LASF37:
 2784 011b 43435236 		.ascii	"CCR6\000"
 2784      00
 2785              	.LASF46:
 2786 0120 70657269 		.ascii	"period\000"
 2786      6F6400
 2787              	.LASF85:
 2788 0127 6368616E 		.ascii	"chanel\000"
 2788      656C00
 2789              	.LASF87:
 2790 012e 4552524F 		.ascii	"ERROR\000"
 2790      5200
 2791              	.LASF75:
 2792 0134 6C696768 		.ascii	"lightFlashing\000"
 2792      74466C61 
 2792      7368696E 
 2792      6700
 2793              	.LASF79:
ARM GAS  C:\Users\DNIEL~1\AppData\Local\Temp\ccSpMNhF.s 			page 53


 2794 0142 6C696768 		.ascii	"lightchanels\000"
 2794      74636861 
 2794      6E656C73 
 2794      00
 2795              	.LASF72:
 2796 014f 61726776 		.ascii	"argv\000"
 2796      00
 2797              	.LASF60:
 2798 0154 6C6F6E67 		.ascii	"long double\000"
 2798      20646F75 
 2798      626C6500 
 2799              	.LASF28:
 2800 0160 534D4352 		.ascii	"SMCR\000"
 2800      00
 2801              	.LASF39:
 2802 0165 50574D5F 		.ascii	"PWM_UNINIT\000"
 2802      554E494E 
 2802      495400
 2803              	.LASF4:
 2804 0170 756E7369 		.ascii	"unsigned char\000"
 2804      676E6564 
 2804      20636861 
 2804      7200
 2805              	.LASF36:
 2806 017e 43435235 		.ascii	"CCR5\000"
 2806      00
 2807              	.LASF68:
 2808 0183 7761726E 		.ascii	"warning\000"
 2808      696E6700 
 2809              	.LASF1:
 2810 018b 7369676E 		.ascii	"signed char\000"
 2810      65642063 
 2810      68617200 
 2811              	.LASF13:
 2812 0197 6C6F6E67 		.ascii	"long long unsigned int\000"
 2812      206C6F6E 
 2812      6720756E 
 2812      7369676E 
 2812      65642069 
 2813              	.LASF10:
 2814 01ae 75696E74 		.ascii	"uint32_t\000"
 2814      33325F74 
 2814      00
 2815              	.LASF0:
 2816 01b7 756E7369 		.ascii	"unsigned int\000"
 2816      676E6564 
 2816      20696E74 
 2816      00
 2817              	.LASF84:
 2818 01c4 5F5F6170 		.ascii	"__ap\000"
 2818      00
 2819              	.LASF6:
 2820 01c9 75696E74 		.ascii	"uint16_t\000"
 2820      31365F74 
 2820      00
 2821              	.LASF43:
 2822 01d2 50574D44 		.ascii	"PWMDriver\000"
ARM GAS  C:\Users\DNIEL~1\AppData\Local\Temp\ccSpMNhF.s 			page 54


 2822      72697665 
 2822      7200
 2823              	.LASF64:
 2824 01dc 6C696768 		.ascii	"lightChanels\000"
 2824      74436861 
 2824      6E656C73 
 2824      00
 2825              	.LASF23:
 2826 01e9 70757474 		.ascii	"putt\000"
 2826      00
 2827              	.LASF29:
 2828 01ee 44494552 		.ascii	"DIER\000"
 2828      00
 2829              	.LASF67:
 2830 01f3 6C656674 		.ascii	"left\000"
 2830      00
 2831              	.LASF7:
 2832 01f8 73686F72 		.ascii	"short unsigned int\000"
 2832      7420756E 
 2832      7369676E 
 2832      65642069 
 2832      6E7400
 2833              	.LASF69:
 2834 020b 6C696768 		.ascii	"lightInit\000"
 2834      74496E69 
 2834      7400
 2835              	.LASF16:
 2836 0215 73797374 		.ascii	"systime_t\000"
 2836      696D655F 
 2836      7400
 2837              	.LASF26:
 2838 021f 72656164 		.ascii	"readt\000"
 2838      7400
 2839              	.LASF9:
 2840 0225 6C6F6E67 		.ascii	"long int\000"
 2840      20696E74 
 2840      00
 2841              	.LASF33:
 2842 022e 42445452 		.ascii	"BDTR\000"
 2842      00
 2843              	.LASF8:
 2844 0233 696E7433 		.ascii	"int32_t\000"
 2844      325F7400 
 2845              	.LASF74:
 2846 023b 636D645F 		.ascii	"cmd_lightblink\000"
 2846      6C696768 
 2846      74626C69 
 2846      6E6B00
 2847              	.LASF24:
 2848 024a 67657474 		.ascii	"gett\000"
 2848      00
 2849              	.LASF14:
 2850 024f 5F426F6F 		.ascii	"_Bool\000"
 2850      6C00
 2851              	.LASF86:
 2852 0255 63687072 		.ascii	"chprintf\000"
 2852      696E7466 
ARM GAS  C:\Users\DNIEL~1\AppData\Local\Temp\ccSpMNhF.s 			page 55


 2852      00
 2853              	.LASF80:
 2854 025e 70776D63 		.ascii	"pwmcfg\000"
 2854      666700
 2855              	.LASF54:
 2856 0265 66726571 		.ascii	"frequency\000"
 2856      75656E63 
 2856      7900
 2857              	.LASF82:
 2858 026f 7372632F 		.ascii	"src/light.c\000"
 2858      6C696768 
 2858      742E6300 
 2859              	.LASF55:
 2860 027b 6368616E 		.ascii	"channels\000"
 2860      6E656C73 
 2860      00
 2861              	.LASF11:
 2862 0284 6C6F6E67 		.ascii	"long unsigned int\000"
 2862      20756E73 
 2862      69676E65 
 2862      6420696E 
 2862      7400
 2863              	.LASF42:
 2864 0296 70776D73 		.ascii	"pwmstate_t\000"
 2864      74617465 
 2864      5F7400
 2865              	.LASF58:
 2866 02a1 646F7562 		.ascii	"double\000"
 2866      6C6500
 2867              	.LASF73:
 2868 02a8 636D645F 		.ascii	"cmd_lightvalues\000"
 2868      6C696768 
 2868      7476616C 
 2868      75657300 
 2869              	.LASF81:
 2870 02b8 474E5520 		.ascii	"GNU C 4.5.2\000"
 2870      4320342E 
 2870      352E3200 
 2871              	.LASF41:
 2872 02c4 50574D5F 		.ascii	"PWM_READY\000"
 2872      52454144 
 2872      5900
 2873              	.LASF76:
 2874 02ce 73747263 		.ascii	"strcmp\000"
 2874      6D7000
 2875              	.LASF40:
 2876 02d5 50574D5F 		.ascii	"PWM_STOP\000"
 2876      53544F50 
 2876      00
 2877              	.LASF56:
 2878 02de 64696572 		.ascii	"dier\000"
 2878      00
 2879              	.LASF65:
 2880 02e3 6C696768 		.ascii	"lights_disabled\000"
 2880      74735F64 
 2880      69736162 
 2880      6C656400 
ARM GAS  C:\Users\DNIEL~1\AppData\Local\Temp\ccSpMNhF.s 			page 56


 2881              	.LASF61:
 2882 02f3 5F5F676E 		.ascii	"__gnuc_va_list\000"
 2882      75635F76 
 2882      615F6C69 
 2882      737400
 2883              	.LASF53:
 2884 0302 50574D43 		.ascii	"PWMChannelConfig\000"
 2884      68616E6E 
 2884      656C436F 
 2884      6E666967 
 2884      00
 2885              	.LASF27:
 2886 0313 42617365 		.ascii	"BaseChannel\000"
 2886      4368616E 
 2886      6E656C00 
 2887              	.LASF49:
 2888 031f 70776D6D 		.ascii	"pwmmode_t\000"
 2888      6F64655F 
 2888      7400
 2889              	.LASF77:
 2890 0329 49544D5F 		.ascii	"ITM_RxBuffer\000"
 2890      52784275 
 2890      66666572 
 2890      00
 2891              	.LASF48:
 2892 0336 70776D63 		.ascii	"pwmcallback_t\000"
 2892      616C6C62 
 2892      61636B5F 
 2892      7400
 2893              	.LASF15:
 2894 0344 6D73675F 		.ascii	"msg_t\000"
 2894      7400
 2895              	.LASF52:
 2896 034a 63616C6C 		.ascii	"callback\000"
 2896      6261636B 
 2896      00
 2897              	.LASF21:
 2898 0353 42617365 		.ascii	"BaseSequentialStreamVMT\000"
 2898      53657175 
 2898      656E7469 
 2898      616C5374 
 2898      7265616D 
 2899              		.ident	"GCC: (Sourcery G++ Lite 2011.03-42) 4.5.2"
ARM GAS  C:\Users\DNIEL~1\AppData\Local\Temp\ccSpMNhF.s 			page 57


DEFINED SYMBOLS
                            *ABS*:00000000 light.c
C:\Users\DNIEL~1\AppData\Local\Temp\ccSpMNhF.s:24     .text.chprintf:00000000 $t
C:\Users\DNIEL~1\AppData\Local\Temp\ccSpMNhF.s:29     .text.chprintf:00000000 chprintf
C:\Users\DNIEL~1\AppData\Local\Temp\ccSpMNhF.s:69     .text.lightInit:00000000 $t
C:\Users\DNIEL~1\AppData\Local\Temp\ccSpMNhF.s:75     .text.lightInit:00000000 lightInit
C:\Users\DNIEL~1\AppData\Local\Temp\ccSpMNhF.s:97     .text.lightInit:00000010 $d
C:\Users\DNIEL~1\AppData\Local\Temp\ccSpMNhF.s:104    .text.lightCalc:00000000 $t
C:\Users\DNIEL~1\AppData\Local\Temp\ccSpMNhF.s:110    .text.lightCalc:00000000 lightCalc
C:\Users\DNIEL~1\AppData\Local\Temp\ccSpMNhF.s:191    .text.lightCalc:00000054 $d
C:\Users\DNIEL~1\AppData\Local\Temp\ccSpMNhF.s:197    .text.lightFlashing:00000000 $t
C:\Users\DNIEL~1\AppData\Local\Temp\ccSpMNhF.s:203    .text.lightFlashing:00000000 lightFlashing
C:\Users\DNIEL~1\AppData\Local\Temp\ccSpMNhF.s:256    .text.lightFlashing:00000040 $d
C:\Users\DNIEL~1\AppData\Local\Temp\ccSpMNhF.s:262    .text.cmd_lightvalues:00000000 $t
C:\Users\DNIEL~1\AppData\Local\Temp\ccSpMNhF.s:268    .text.cmd_lightvalues:00000000 cmd_lightvalues
C:\Users\DNIEL~1\AppData\Local\Temp\ccSpMNhF.s:322    .text.cmd_lightvalues:00000044 $d
C:\Users\DNIEL~1\AppData\Local\Temp\ccSpMNhF.s:330    .text.cmd_lightblink:00000000 $t
C:\Users\DNIEL~1\AppData\Local\Temp\ccSpMNhF.s:336    .text.cmd_lightblink:00000000 cmd_lightblink
C:\Users\DNIEL~1\AppData\Local\Temp\ccSpMNhF.s:570    .text.cmd_lightblink:00000118 $d
C:\Users\DNIEL~1\AppData\Local\Temp\ccSpMNhF.s:595    .data.pwmcfg:00000000 $d
C:\Users\DNIEL~1\AppData\Local\Temp\ccSpMNhF.s:599    .data.pwmcfg:00000000 pwmcfg
C:\Users\DNIEL~1\AppData\Local\Temp\ccSpMNhF.s:615    .bss.period:00000000 $d
C:\Users\DNIEL~1\AppData\Local\Temp\ccSpMNhF.s:619    .bss.period:00000000 period
C:\Users\DNIEL~1\AppData\Local\Temp\ccSpMNhF.s:622    .rodata.str1.4:00000000 $d
C:\Users\DNIEL~1\AppData\Local\Temp\ccSpMNhF.s:675    .bss.lightchanels:00000000 $d
C:\Users\DNIEL~1\AppData\Local\Temp\ccSpMNhF.s:679    .bss.lightchanels:00000000 lightchanels
                     .debug_frame:00000010 $d
C:\Users\DNIEL~1\AppData\Local\Temp\ccSpMNhF.s:103    .text.lightInit:0000001c $t
C:\Users\DNIEL~1\AppData\Local\Temp\ccSpMNhF.s:196    .text.lightCalc:0000005c $t
C:\Users\DNIEL~1\AppData\Local\Temp\ccSpMNhF.s:261    .text.lightFlashing:00000048 $t
C:\Users\DNIEL~1\AppData\Local\Temp\ccSpMNhF.s:329    .text.cmd_lightvalues:00000054 $t

UNDEFINED SYMBOLS
chvprintf
pwmStart
PWMD4
can_lightWarning
can_lightLeft
can_lightRight
chThdSleep
strcmp
