ARM GAS  C:\Users\DNIEL~1\AppData\Local\Temp\ccnor429.s 			page 1


   1              		.syntax unified
   2              		.cpu cortex-m4
   3              		.fpu softvfp
   4              		.eabi_attribute 20, 1
   5              		.eabi_attribute 21, 1
   6              		.eabi_attribute 23, 3
   7              		.eabi_attribute 24, 1
   8              		.eabi_attribute 25, 1
   9              		.eabi_attribute 26, 1
  10              		.eabi_attribute 30, 2
  11              		.eabi_attribute 34, 1
  12              		.eabi_attribute 18, 4
  13              		.thumb
  14              		.file	"light.c"
  15              		.text
  16              	.Ltext0:
  17              		.cfi_sections	.debug_frame
  18              		.section	.text.chprintf,"ax",%progbits
  19              		.align	2
  20              		.p2align 4,,15
  21              		.thumb
  22              		.thumb_func
  23              		.type	chprintf, %function
  24              	chprintf:
  25              	.LFB118:
  26              		.file 1 "../../../ChibiOS/os/various/chprintf.h"
  27              		.loc 1 69 0
  28              		.cfi_startproc
  29              		@ args = 4, pretend = 12, frame = 8
  30              		@ frame_needed = 0, uses_anonymous_args = 1
  31              	.LVL0:
  32 0000 0EB4     		push	{r1, r2, r3}
  33              	.LCFI0:
  34              		.cfi_def_cfa_offset 12
  35              		.cfi_offset 1, -12
  36              		.cfi_offset 2, -8
  37              		.cfi_offset 3, -4
  38 0002 00B5     		push	{lr}
  39              	.LCFI1:
  40              		.cfi_def_cfa_offset 16
  41              		.cfi_offset 14, -16
  42 0004 82B0     		sub	sp, sp, #8
  43              	.LCFI2:
  44              		.cfi_def_cfa_offset 24
  45              		.loc 1 69 0
  46 0006 03AB     		add	r3, sp, #12
  47 0008 53F8041B 		ldr	r1, [r3], #4
  48              		.loc 1 73 0
  49 000c 1A46     		mov	r2, r3
  50              		.loc 1 72 0
  51 000e 0193     		str	r3, [sp, #4]
  52              		.loc 1 73 0
  53 0010 FFF7FEFF 		bl	chvprintf
  54              	.LVL1:
  55              		.loc 1 75 0
  56 0014 02B0     		add	sp, sp, #8
  57 0016 5DF804EB 		pop	{lr}
ARM GAS  C:\Users\DNIEL~1\AppData\Local\Temp\ccnor429.s 			page 2


  58 001a 03B0     		add	sp, sp, #12
  59 001c 7047     		bx	lr
  60              		.cfi_endproc
  61              	.LFE118:
  62              		.size	chprintf, .-chprintf
  63 001e 00BF     		.section	.text.lightInit,"ax",%progbits
  64              		.align	2
  65              		.p2align 4,,15
  66              		.global	lightInit
  67              		.thumb
  68              		.thumb_func
  69              		.type	lightInit, %function
  70              	lightInit:
  71              	.LFB120:
  72              		.file 2 "src/light.c"
  73              		.loc 2 58 0
  74              		.cfi_startproc
  75              		@ args = 0, pretend = 0, frame = 0
  76              		@ frame_needed = 0, uses_anonymous_args = 0
  77              		@ link register save eliminated.
  78              		.loc 2 59 0
  79 0000 40F20000 		movw	r0, #:lower16:PWMD4
  80 0004 40F20001 		movw	r1, #:lower16:.LANCHOR0
  81 0008 C0F20000 		movt	r0, #:upper16:PWMD4
  82 000c C0F20001 		movt	r1, #:upper16:.LANCHOR0
  83              		.loc 2 65 0
  84              		.loc 2 59 0
  85 0010 FFF7FEBF 		b	pwmStart
  86              	.LVL2:
  87              		.cfi_endproc
  88              	.LFE120:
  89              		.size	lightInit, .-lightInit
  90 0014 AFF30080 		.section	.text.lightCalc,"ax",%progbits
  90      AFF30080 
  90      AFF30080 
  91              		.align	2
  92              		.p2align 4,,15
  93              		.global	lightCalc
  94              		.thumb
  95              		.thumb_func
  96              		.type	lightCalc, %function
  97              	lightCalc:
  98              	.LFB121:
  99              		.loc 2 67 0
 100              		.cfi_startproc
 101              		@ args = 0, pretend = 0, frame = 0
 102              		@ frame_needed = 0, uses_anonymous_args = 0
 103 0000 38B5     		push	{r3, r4, r5, lr}
 104              	.LCFI3:
 105              		.cfi_def_cfa_offset 16
 106              		.cfi_offset 3, -16
 107              		.cfi_offset 4, -12
 108              		.cfi_offset 5, -8
 109              		.cfi_offset 14, -4
 110              		.loc 2 69 0
 111 0002 40F20003 		movw	r3, #:lower16:vtlist
 112 0006 C0F20003 		movt	r3, #:upper16:vtlist
ARM GAS  C:\Users\DNIEL~1\AppData\Local\Temp\ccnor429.s 			page 3


 113 000a 48F21962 		movw	r2, #34329
 114 000e DD68     		ldr	r5, [r3, #12]
 115              		.loc 2 72 0
 116 0010 40F20004 		movw	r4, #:lower16:PWMD4
 117 0014 C0F20004 		movt	r4, #:upper16:PWMD4
 118              		.loc 2 69 0
 119 0018 E808     		lsrs	r0, r5, #3
 120 001a C1F66102 		movt	r2, 6241
 121 001e 40F20003 		movw	r3, #:lower16:.LANCHOR1
 122 0022 A2FB0012 		umull	r1, r2, r2, r0
 123 0026 C0F20003 		movt	r3, #:upper16:.LANCHOR1
 124 002a 5508     		lsrs	r5, r2, #1
 125              		.loc 2 72 0
 126 002c 2046     		mov	r0, r4
 127 002e 0021     		movs	r1, #0
 128 0030 2289     		ldrh	r2, [r4, #8]
 129              		.loc 2 69 0
 130 0032 1D60     		str	r5, [r3, #0]
 131              		.loc 2 72 0
 132 0034 FFF7FEFF 		bl	pwmEnableChannel
 133              	.LVL3:
 134              		.loc 2 78 0
 135 0038 2389     		ldrh	r3, [r4, #8]
 136 003a 2046     		mov	r0, r4
 137 003c 0221     		movs	r1, #2
 138 003e 5A08     		lsrs	r2, r3, #1
 139 0040 FFF7FEFF 		bl	pwmEnableChannel
 140              	.LVL4:
 141              		.loc 2 81 0
 142 0044 2189     		ldrh	r1, [r4, #8]
 143 0046 46F26760 		movw	r0, #26215
 144 004a C6F26660 		movt	r0, 26214
 145 004e 80FB0112 		smull	r1, r2, r0, r1
 146 0052 9208     		lsrs	r2, r2, #2
 147 0054 2046     		mov	r0, r4
 148 0056 0321     		movs	r1, #3
 149              		.loc 2 82 0
 150 0058 BDE83840 		pop	{r3, r4, r5, lr}
 151              		.loc 2 81 0
 152 005c FFF7FEBF 		b	pwmEnableChannel
 153              	.LVL5:
 154              		.cfi_endproc
 155              	.LFE121:
 156              		.size	lightCalc, .-lightCalc
 157              		.section	.text.cmd_lightvalues,"ax",%progbits
 158              		.align	2
 159              		.p2align 4,,15
 160              		.global	cmd_lightvalues
 161              		.thumb
 162              		.thumb_func
 163              		.type	cmd_lightvalues, %function
 164              	cmd_lightvalues:
 165              	.LFB122:
 166              		.loc 2 84 0
 167              		.cfi_startproc
 168              		@ args = 0, pretend = 0, frame = 0
 169              		@ frame_needed = 0, uses_anonymous_args = 0
ARM GAS  C:\Users\DNIEL~1\AppData\Local\Temp\ccnor429.s 			page 4


 170              	.LVL6:
 171 0000 38B5     		push	{r3, r4, r5, lr}
 172              	.LCFI4:
 173              		.cfi_def_cfa_offset 16
 174              		.cfi_offset 3, -16
 175              		.cfi_offset 4, -12
 176              		.cfi_offset 5, -8
 177              		.cfi_offset 14, -4
 178              		.loc 2 88 0
 179 0002 1249     		ldr	r1, .L8
 180              	.LVL7:
 181              		.loc 2 94 0
 182 0004 124D     		ldr	r5, .L8+4
 183              		.loc 2 84 0
 184 0006 0446     		mov	r4, r0
 185              		.loc 2 88 0
 186 0008 FFF7FEFF 		bl	chprintf
 187              	.LVL8:
 188              		.loc 2 89 0
 189 000c 2046     		mov	r0, r4
 190 000e 1149     		ldr	r1, .L8+8
 191 0010 FFF7FEFF 		bl	chprintf
 192              	.LVL9:
 193              		.loc 2 90 0
 194 0014 0EE0     		b	.L5
 195              	.LVL10:
 196              	.L6:
 197              		.loc 2 91 0
 198 0016 FFF7FEFF 		bl	chprintf
 199              	.LVL11:
 200              		.loc 2 93 0
 201 001a 2046     		mov	r0, r4
 202 001c 0E49     		ldr	r1, .L8+12
 203 001e FFF7FEFF 		bl	chprintf
 204              	.LVL12:
 205              		.loc 2 94 0
 206 0022 2046     		mov	r0, r4
 207 0024 0D49     		ldr	r1, .L8+16
 208 0026 2A68     		ldr	r2, [r5, #0]
 209 0028 FFF7FEFF 		bl	chprintf
 210              	.LVL13:
 211              		.loc 2 95 0
 212 002c 4FF47A70 		mov	r0, #1000
 213 0030 FFF7FEFF 		bl	chThdSleep
 214              	.LVL14:
 215              	.L5:
 216              		.loc 2 90 0 discriminator 1
 217 0034 2368     		ldr	r3, [r4, #0]
 218 0036 0021     		movs	r1, #0
 219 0038 5A69     		ldr	r2, [r3, #20]
 220 003a 2046     		mov	r0, r4
 221 003c 9047     		blx	r2
 222              	.LVL15:
 223              		.loc 2 91 0 discriminator 1
 224 003e 0022     		movs	r2, #0
 225              		.loc 2 90 0 discriminator 1
 226 0040 0130     		adds	r0, r0, #1
ARM GAS  C:\Users\DNIEL~1\AppData\Local\Temp\ccnor429.s 			page 5


 227              		.loc 2 91 0 discriminator 1
 228 0042 1346     		mov	r3, r2
 229 0044 0649     		ldr	r1, .L8+20
 230 0046 2046     		mov	r0, r4
 231              		.loc 2 90 0 discriminator 1
 232 0048 E5D0     		beq	.L6
 233              	.LVL16:
 234              		.loc 2 97 0
 235 004a 38BD     		pop	{r3, r4, r5, pc}
 236              	.L9:
 237              		.align	2
 238              	.L8:
 239 004c 00000000 		.word	.LC0
 240 0050 00000000 		.word	.LANCHOR1
 241 0054 04000000 		.word	.LC1
 242 0058 18000000 		.word	.LC3
 243 005c 2C000000 		.word	.LC4
 244 0060 0C000000 		.word	.LC2
 245              		.cfi_endproc
 246              	.LFE122:
 247              		.size	cmd_lightvalues, .-cmd_lightvalues
 248 0064 AFF30080 		.section	.bss.ido,"aw",%nobits
 248      AFF30080 
 248      AFF30080 
 249              		.align	2
 250              		.set	.LANCHOR1,. + 0
 251              		.type	ido, %object
 252              		.size	ido, 4
 253              	ido:
 254 0000 00000000 		.space	4
 255              		.section	.data.pwmcfg,"aw",%progbits
 256              		.align	2
 257              		.set	.LANCHOR0,. + 0
 258              		.type	pwmcfg, %object
 259              		.size	pwmcfg, 52
 260              	pwmcfg:
 261 0000 40420F00 		.word	1000000
 262 0004 E803     		.short	1000
 263 0006 0000     		.space	2
 264 0008 00000000 		.word	0
 265 000c 01000000 		.word	1
 266 0010 00000000 		.word	0
 267 0014 01000000 		.word	1
 268 0018 00000000 		.word	0
 269 001c 01000000 		.word	1
 270 0020 00000000 		.word	0
 271 0024 01000000 		.word	1
 272 0028 00000000 		.word	0
 273 002c 00000000 		.word	0
 274 0030 00000000 		.word	0
 275              		.section	.rodata.str1.4,"aMS",%progbits,1
 276              		.align	2
 277              	.LC0:
 278 0000 1B6300   		.ascii	"\033c\000"
 279 0003 00       		.space	1
 280              	.LC1:
 281 0004 1B5B324A 		.ascii	"\033[2J\000"
ARM GAS  C:\Users\DNIEL~1\AppData\Local\Temp\ccnor429.s 			page 6


 281      00
 282 0009 000000   		.space	3
 283              	.LC2:
 284 000c 1B5B2564 		.ascii	"\033[%d;%dH\000"
 284      3B256448 
 284      00
 285 0015 000000   		.space	3
 286              	.LC3:
 287 0018 2D2D2D2D 		.ascii	"---- PWM START ----\000"
 287      2050574D 
 287      20535441 
 287      5254202D 
 287      2D2D2D00 
 288              	.LC4:
 289 002c 69646F20 		.ascii	"ido : %x \015\012\000"
 289      3A202578 
 289      200D0A00 
 290              		.text
 291              	.Letext0:
 292              		.file 3 "c:\\chibistudio\\tools\\gnu tools arm embedded\\4.7 2014q2\\bin\\../lib/gcc/arm-none-eabi
 293              		.file 4 "c:\\chibistudio\\tools\\gnu tools arm embedded\\4.7 2014q2\\bin\\../lib/gcc/arm-none-eabi
 294              		.file 5 "../../../ChibiOS/os/ports/GCC/ARMCMx/chtypes.h"
 295              		.file 6 "../../../ChibiOS/os/kernel/include/chlists.h"
 296              		.file 7 "../../../ChibiOS/os/kernel/include/chthreads.h"
 297              		.file 8 "../../../ChibiOS/os/ports/GCC/ARMCMx/chcore_v7m.h"
 298              		.file 9 "../../../ChibiOS/os/kernel/include/chvt.h"
 299              		.file 10 "../../../ChibiOS/os/kernel/include/chschd.h"
 300              		.file 11 "../../../ChibiOS/os/kernel/include/chsem.h"
 301              		.file 12 "../../../ChibiOS/os/kernel/include/chmtx.h"
 302              		.file 13 "../../../ChibiOS/os/kernel/include/chevents.h"
 303              		.file 14 "../../../ChibiOS/os/kernel/include/chstreams.h"
 304              		.file 15 "../../../ChibiOS/os/hal/platforms/STM32F4xx/stm32f4xx.h"
 305              		.file 16 "../../../ChibiOS/os/hal/include/io_channel.h"
 306              		.file 17 "../../../ChibiOS/os/hal/include/can.h"
 307              		.file 18 "../../../ChibiOS/os/hal/platforms/STM32/can_lld.h"
 308              		.file 19 "../../../ChibiOS/os/hal/platforms/STM32/TIMv1/stm32_tim.h"
 309              		.file 20 "../../../ChibiOS/os/hal/include/pwm.h"
 310              		.file 21 "../../../ChibiOS/os/hal/platforms/STM32/TIMv1/pwm_lld.h"
 311              		.file 22 "c:\\chibistudio\\tools\\gnu tools arm embedded\\4.7 2014q2\\bin\\../lib/gcc/arm-none-eab
 312              		.file 23 "<built-in>"
 313              		.file 24 "../../../ChibiOS/os/ports/common/ARMCMx/CMSIS/include/core_cm4.h"