ARM GAS  C:\Users\DNIEL~1\AppData\Local\Temp\ccKXrMX5.s 			page 1


   1              		.syntax unified
   2              		.cpu cortex-m4
   3              		.fpu softvfp
   4              		.eabi_attribute 20, 1
   5              		.eabi_attribute 21, 1
   6              		.eabi_attribute 23, 3
   7              		.eabi_attribute 24, 1
   8              		.eabi_attribute 25, 1
   9              		.eabi_attribute 26, 1
  10              		.eabi_attribute 30, 2
  11              		.eabi_attribute 18, 4
  12              		.thumb
  13              		.file	"log.c"
  20 0000 63050000 		.text
  20      02005A03 
  20      00000201 
  20      FB0E0D00 
  20      01010101 
  21              	.Ltext0:
  22              		.cfi_sections	.debug_frame
  23              		.section	.text.chprintf,"ax",%progbits
  24              		.align	2
  25              		.p2align 4,,15
  26              		.thumb
  27              		.thumb_func
  28              		.type	chprintf, %function
  29              	chprintf:
  30              	.LFB118:
  31              		.file 1 "../../../ChibiOS/os/various/chprintf.h"
  32              		.loc 1 69 0
  33              		.cfi_startproc
  34              		@ args = 4, pretend = 12, frame = 8
  35              		@ frame_needed = 0, uses_anonymous_args = 1
  36              	.LVL0:
  37 0000 0EB4     		push	{r1, r2, r3}
  38              	.LCFI0:
  39              		.cfi_def_cfa_offset 12
  40 0002 00B5     		push	{lr}
  41              	.LCFI1:
  42              		.cfi_def_cfa_offset 16
  43 0004 82B0     		sub	sp, sp, #8
  44              	.LCFI2:
  45              		.cfi_def_cfa_offset 24
  46              		.loc 1 69 0
  47 0006 03AB     		add	r3, sp, #12
  48              		.cfi_offset 14, -16
  49              		.cfi_offset 3, -4
  50              		.cfi_offset 2, -8
  51              		.cfi_offset 1, -12
  52 0008 53F8041B 		ldr	r1, [r3], #4
  53              		.loc 1 73 0
ARM GAS  C:\Users\DNIEL~1\AppData\Local\Temp\ccKXrMX5.s 			page 2


  54 000c 1A46     		mov	r2, r3
  55              		.loc 1 72 0
  56 000e 0193     		str	r3, [sp, #4]
  57              		.loc 1 73 0
  58 0010 FFF7FEFF 		bl	chvprintf
  59              	.LVL1:
  60              		.loc 1 75 0
  61 0014 02B0     		add	sp, sp, #8
  62 0016 5DF804EB 		pop	{lr}
  63 001a 03B0     		add	sp, sp, #12
  64 001c 7047     		bx	lr
  65              		.cfi_endproc
  66              	.LFE118:
  67              		.size	chprintf, .-chprintf
  68 001e 00BF     		.section	.text.logThread,"ax",%progbits
  69              		.align	2
  70              		.p2align 4,,15
  71              		.thumb
  72              		.thumb_func
  73              		.type	logThread, %function
  74              	logThread:
  75              	.LFB124:
  76              		.file 2 "src/log.c"
  77              		.loc 2 148 0
  78              		.cfi_startproc
  79              		@ args = 0, pretend = 0, frame = 48
  80              		@ frame_needed = 0, uses_anonymous_args = 0
  81              	.LVL2:
  82 0000 2DE9F04F 		push	{r4, r5, r6, r7, r8, r9, sl, fp, lr}
  83              	.LCFI3:
  84              		.cfi_def_cfa_offset 36
  85              		.loc 2 158 0
  86 0004 4A48     		ldr	r0, .L23
  87              	.LVL3:
  88 0006 4B4A     		ldr	r2, .L23+4
  89 0008 8369     		ldr	r3, [r0, #24]
  90 000a DFF85091 		ldr	r9, .L23+44
  91              		.cfi_offset 14, -4
  92              		.cfi_offset 11, -8
  93              		.cfi_offset 10, -12
  94              		.cfi_offset 9, -16
  95              		.cfi_offset 8, -20
  96              		.cfi_offset 7, -24
  97              		.cfi_offset 6, -28
  98              		.cfi_offset 5, -32
  99              		.cfi_offset 4, -36
 100 000e DFF850A1 		ldr	sl, .L23+48
 101 0012 494C     		ldr	r4, .L23+8
 102 0014 DFF84C81 		ldr	r8, .L23+52
 103 0018 9A61     		str	r2, [r3, #24]
 104              		.loc 2 148 0
 105 001a 8DB0     		sub	sp, sp, #52
 106              	.LCFI4:
 107              		.cfi_def_cfa_offset 88
 108              		.loc 2 164 0
 109 001c 0027     		movs	r7, #0
 110 001e 07E0     		b	.L13
ARM GAS  C:\Users\DNIEL~1\AppData\Local\Temp\ccKXrMX5.s 			page 3


 111              	.LVL4:
 112              	.L4:
 113              		.loc 2 171 0
 114 0020 464D     		ldr	r5, .L23+12
 115              	.LVL5:
 116 0022 2F60     		str	r7, [r5, #0]
 117              		.loc 2 172 0
 118 0024 002A     		cmp	r2, #0
 119 0026 63D1     		bne	.L20
 120              	.LVL6:
 121              	.L3:
 122              		.loc 2 235 0
 123 0028 4FF4FA70 		mov	r0, #500
 124 002c FFF7FEFF 		bl	chThdSleep
 125              	.LVL7:
 126              	.L13:
 127              	.LBB22:
 128              		.loc 2 161 0
 129 0030 2023     		movs	r3, #32
 130              	.LVL8:
 131              	@ 161 "src/log.c" 1
 132 0032 83F31188 		msr     BASEPRI, r3
 133              	@ 0 "" 2
 134              	.LVL9:
 135              		.thumb
 136              	.LBE22:
 137              		.loc 2 166 0
 138 0036 424E     		ldr	r6, .L23+16
 139              		.loc 2 162 0
 140 0038 99F80020 		ldrb	r2, [r9, #0]	@ zero_extendqisi2
 141              	.LVL10:
 142              		.loc 2 163 0
 143 003c 9AF80050 		ldrb	r5, [sl, #0]	@ zero_extendqisi2
 144              	.LVL11:
 145              		.loc 2 164 0
 146 0040 89F80070 		strb	r7, [r9, #0]
 147              	.LBB23:
 148              		.loc 2 167 0
 149 0044 0023     		movs	r3, #0
 150              	.LVL12:
 151              	.LBE23:
 152              		.loc 2 165 0
 153 0046 8AF80070 		strb	r7, [sl, #0]
 154              		.loc 2 166 0
 155 004a 3668     		ldr	r6, [r6, #0]
 156              	.LVL13:
 157              	.LBB24:
 158              		.loc 2 167 0
 159              	@ 167 "src/log.c" 1
 160 004c 83F31188 		msr     BASEPRI, r3
 161              	@ 0 "" 2
 162              	.LVL14:
 163              		.thumb
 164              	.LBE24:
 165              		.loc 2 169 0
 166 0050 3C49     		ldr	r1, .L23+20
 167 0052 0B78     		ldrb	r3, [r1, #0]	@ zero_extendqisi2
ARM GAS  C:\Users\DNIEL~1\AppData\Local\Temp\ccKXrMX5.s 			page 4


 168              	.LVL15:
 169 0054 012B     		cmp	r3, #1
 170 0056 0BD0     		beq	.L5
 171 0058 E2D3     		bcc	.L4
 172 005a 022B     		cmp	r3, #2
 173 005c E4D1     		bne	.L3
 174              	.LBB25:
 175              		.loc 2 226 0
 176 005e 2023     		movs	r3, #32
 177              	.LVL16:
 178              	@ 226 "src/log.c" 1
 179 0060 83F31188 		msr     BASEPRI, r3
 180              	@ 0 "" 2
 181              	.LVL17:
 182              		.thumb
 183              	.LBE25:
 184              		.loc 2 227 0
 185 0064 374E     		ldr	r6, .L23+20
 186              	.LBB26:
 187              		.loc 2 228 0
 188 0066 0023     		movs	r3, #0
 189              	.LVL18:
 190              	.LBE26:
 191              		.loc 2 227 0
 192 0068 3770     		strb	r7, [r6, #0]
 193              	.LBB27:
 194              		.loc 2 228 0
 195              	@ 228 "src/log.c" 1
 196 006a 83F31188 		msr     BASEPRI, r3
 197              	@ 0 "" 2
 198              	.LVL19:
 199              		.thumb
 200              	.LBE27:
 201              		.loc 2 229 0
 202 006e DBE7     		b	.L3
 203              	.LVL20:
 204              	.L5:
 205              		.loc 2 195 0
 206 0070 75B1     		cbz	r5, .L18
 207              	.LBB28:
 208              		.loc 2 196 0
 209 0072 2023     		movs	r3, #32
 210              	.LVL21:
 211              	@ 196 "src/log.c" 1
 212 0074 83F31188 		msr     BASEPRI, r3
 213              	@ 0 "" 2
 214              	.LVL22:
 215              		.thumb
 216              	.LBE28:
 217              		.loc 2 197 0
 218 0078 324A     		ldr	r2, .L23+20
 219              	.LVL23:
 220 007a 0223     		movs	r3, #2
 221              	.LVL24:
 222 007c 1370     		strb	r3, [r2, #0]
 223              	.LBB29:
 224              		.loc 2 198 0
ARM GAS  C:\Users\DNIEL~1\AppData\Local\Temp\ccKXrMX5.s 			page 5


 225 007e 0023     		movs	r3, #0
 226              	@ 198 "src/log.c" 1
 227 0080 83F31188 		msr     BASEPRI, r3
 228              	@ 0 "" 2
 229              	.LVL25:
 230              		.thumb
 231 0084 04E0     		b	.L18
 232              	.LVL26:
 233              	.L22:
 234              	.LBE29:
 235              		.loc 2 212 0 discriminator 1
 236 0086 0133     		adds	r3, r3, #1
 237              	.L11:
 238              		.loc 2 212 0 is_stmt 0 discriminator 3
 239 0088 2360     		str	r3, [r4, #0]
 240              	.LBB30:
 241              		.loc 2 213 0 is_stmt 1 discriminator 3
 242 008a 0023     		movs	r3, #0
 243              	@ 213 "src/log.c" 1
 244 008c 83F31188 		msr     BASEPRI, r3
 245              	@ 0 "" 2
 246              	.LVL27:
 247              		.thumb
 248              	.L18:
 249              	.LBE30:
 250              		.loc 2 200 0 discriminator 3
 251 0090 2168     		ldr	r1, [r4, #0]
 252 0092 8E42     		cmp	r6, r1
 253 0094 19D0     		beq	.L21
 254              		.loc 2 202 0
 255 0096 2C48     		ldr	r0, .L23+24
 256 0098 08EB0111 		add	r1, r8, r1, lsl #4
 257 009c 1022     		movs	r2, #16
 258 009e 0BAB     		add	r3, sp, #44
 259              	.LVL28:
 260 00a0 FFF7FEFF 		bl	f_write
 261              	.LVL29:
 262              		.loc 2 203 0
 263 00a4 8346     		mov	fp, r0
 264 00a6 90B9     		cbnz	r0, .L9
 265              		.loc 2 203 0 is_stmt 0 discriminator 1
 266 00a8 0B98     		ldr	r0, [sp, #44]
 267              	.LVL30:
 268 00aa 1028     		cmp	r0, #16
 269 00ac 0FD1     		bne	.L9
 270              		.loc 2 207 0 is_stmt 1
 271 00ae 2648     		ldr	r0, .L23+24
 272 00b0 FFF7FEFF 		bl	f_sync
 273              	.LVL31:
 274              	.LBB31:
 275              		.loc 2 211 0
 276 00b4 2023     		movs	r3, #32
 277              	.LVL32:
 278              	.LBE31:
 279              		.loc 2 209 0
 280 00b6 0028     		cmp	r0, #0
 281 00b8 18BF     		it	ne
ARM GAS  C:\Users\DNIEL~1\AppData\Local\Temp\ccKXrMX5.s 			page 6


 282 00ba 0125     		movne	r5, #1
 283              	.LVL33:
 284              	.LBB32:
 285              		.loc 2 211 0
 286              	@ 211 "src/log.c" 1
 287 00bc 83F31188 		msr     BASEPRI, r3
 288              	@ 0 "" 2
 289              	.LVL34:
 290              		.thumb
 291              	.LBE32:
 292              		.loc 2 212 0
 293 00c0 2368     		ldr	r3, [r4, #0]
 294              	.LVL35:
 295 00c2 622B     		cmp	r3, #98
 296 00c4 DFDD     		ble	.L22
 297 00c6 5B46     		mov	r3, fp
 298 00c8 DEE7     		b	.L11
 299              	.LVL36:
 300              	.L21:
 301              		.loc 2 215 0
 302 00ca 002D     		cmp	r5, #0
 303 00cc ACD0     		beq	.L3
 304              	.LVL37:
 305              	.L9:
 306              		.loc 2 217 0
 307 00ce 1C49     		ldr	r1, .L23+16
 308              		.loc 2 218 0
 309 00d0 1D48     		ldr	r0, .L23+24
 310              		.loc 2 217 0
 311 00d2 0F60     		str	r7, [r1, #0]
 312              		.loc 2 216 0
 313 00d4 2760     		str	r7, [r4, #0]
 314              		.loc 2 218 0
 315 00d6 FFF7FEFF 		bl	f_close
 316              	.LVL38:
 317              		.loc 2 219 0
 318 00da FFF7FEFF 		bl	sdcardUMount
 319              	.LBB33:
 320              		.loc 2 220 0
 321 00de 2023     		movs	r3, #32
 322              	.LVL39:
 323              	@ 220 "src/log.c" 1
 324 00e0 83F31188 		msr     BASEPRI, r3
 325              	@ 0 "" 2
 326              	.LVL40:
 327              		.thumb
 328              	.LBE33:
 329              		.loc 2 221 0
 330 00e4 174D     		ldr	r5, .L23+20
 331              	.LBB34:
 332              		.loc 2 222 0
 333 00e6 3B46     		mov	r3, r7
 334              	.LVL41:
 335              	.LBE34:
 336              		.loc 2 221 0
 337 00e8 2F70     		strb	r7, [r5, #0]
 338              	.LBB35:
ARM GAS  C:\Users\DNIEL~1\AppData\Local\Temp\ccKXrMX5.s 			page 7


 339              		.loc 2 222 0
 340              	@ 222 "src/log.c" 1
 341 00ea 83F31188 		msr     BASEPRI, r3
 342              	@ 0 "" 2
 343              	.LVL42:
 344              		.thumb
 345 00ee 9BE7     		b	.L3
 346              	.LVL43:
 347              	.L20:
 348              	.LBE35:
 349              		.loc 2 173 0
 350 00f0 FFF7FEFF 		bl	sdcardMount
 351              	.LVL44:
 352              		.loc 2 174 0
 353 00f4 FFF7FEFF 		bl	sdcardIsMounted
 354 00f8 0028     		cmp	r0, #0
 355 00fa 95D0     		beq	.L3
 356              		.loc 2 175 0
 357 00fc 1348     		ldr	r0, .L23+28
 358 00fe 6946     		mov	r1, sp
 359 0100 FFF7FEFF 		bl	rtcGetTimeTm
 360              		.loc 2 184 0
 361 0104 1048     		ldr	r0, .L23+24
 362 0106 1249     		ldr	r1, .L23+32
 363 0108 1222     		movs	r2, #18
 364 010a FFF7FEFF 		bl	f_open
 365              	.LVL45:
 366              		.loc 2 185 0
 367 010e 0028     		cmp	r0, #0
 368 0110 8AD1     		bne	.L3
 369              	.LBB36:
 370              		.loc 2 186 0
 371 0112 2023     		movs	r3, #32
 372              	.LVL46:
 373              	@ 186 "src/log.c" 1
 374 0114 83F31188 		msr     BASEPRI, r3
 375              	@ 0 "" 2
 376              	.LVL47:
 377              		.thumb
 378              	.LBE36:
 379              		.loc 2 187 0
 380 0118 0E4E     		ldr	r6, .L23+36
 381              	.LVL48:
 382 011a 0F48     		ldr	r0, .L23+40
 383              	.LVL49:
 384 011c F168     		ldr	r1, [r6, #12]
 385              		.loc 2 188 0
 386 011e 094A     		ldr	r2, .L23+20
 387              		.loc 2 187 0
 388 0120 0160     		str	r1, [r0, #0]
 389              		.loc 2 188 0
 390 0122 0123     		movs	r3, #1
 391              	.LVL50:
 392 0124 1370     		strb	r3, [r2, #0]
 393              	.LBB37:
 394              		.loc 2 189 0
 395 0126 3B46     		mov	r3, r7
ARM GAS  C:\Users\DNIEL~1\AppData\Local\Temp\ccKXrMX5.s 			page 8


 396              	@ 189 "src/log.c" 1
 397 0128 83F31188 		msr     BASEPRI, r3
 398              	@ 0 "" 2
 399              	.LVL51:
 400              		.thumb
 401 012c 7CE7     		b	.L3
 402              	.L24:
 403 012e 00BF     		.align	2
 404              	.L23:
 405 0130 00000000 		.word	rlist
 406 0134 00000000 		.word	.LC0
 407 0138 00000000 		.word	.LANCHOR8
 408 013c 00000000 		.word	.LANCHOR4
 409 0140 00000000 		.word	.LANCHOR2
 410 0144 00000000 		.word	.LANCHOR3
 411 0148 00000000 		.word	.LANCHOR5
 412 014c 00000000 		.word	RTCD1
 413 0150 00000000 		.word	.LANCHOR6
 414 0154 00000000 		.word	vtlist
 415 0158 00000000 		.word	.LANCHOR7
 416 015c 00000000 		.word	.LANCHOR0
 417 0160 00000000 		.word	.LANCHOR1
 418 0164 00000000 		.word	.LANCHOR9
 419              	.LBE37:
 420              		.cfi_endproc
 421              	.LFE124:
 422              		.size	logThread, .-logThread
 423 0168 AFF30080 		.section	.text.logInit,"ax",%progbits
 423      AFF30080 
 424              		.align	2
 425              		.p2align 4,,15
 426              		.global	logInit
 427              		.thumb
 428              		.thumb_func
 429              		.type	logInit, %function
 430              	logInit:
 431              	.LFB119:
 432              		.loc 2 59 0
 433              		.cfi_startproc
 434              		@ args = 0, pretend = 0, frame = 0
 435              		@ frame_needed = 0, uses_anonymous_args = 0
 436 0000 70B5     		push	{r4, r5, r6, lr}
 437              	.LCFI5:
 438              		.cfi_def_cfa_offset 16
 439              		.loc 2 60 0
 440 0002 0F4D     		ldr	r5, .L26
 441              		.cfi_offset 14, -4
 442              		.cfi_offset 6, -8
 443              		.cfi_offset 5, -12
 444              		.cfi_offset 4, -16
 445              		.loc 2 61 0
 446 0004 0F4E     		ldr	r6, .L26+4
 447              		.loc 2 70 0
 448 0006 104B     		ldr	r3, .L26+8
 449 0008 1048     		ldr	r0, .L26+12
 450              		.loc 2 60 0
 451 000a 0024     		movs	r4, #0
ARM GAS  C:\Users\DNIEL~1\AppData\Local\Temp\ccKXrMX5.s 			page 9


 452 000c 2C60     		str	r4, [r5, #0]
 453              		.loc 2 62 0
 454 000e 104D     		ldr	r5, .L26+16
 455              		.loc 2 61 0
 456 0010 3460     		str	r4, [r6, #0]
 457              		.loc 2 63 0
 458 0012 104E     		ldr	r6, .L26+20
 459              		.loc 2 62 0
 460 0014 2C70     		strb	r4, [r5, #0]
 461              		.loc 2 64 0
 462 0016 104D     		ldr	r5, .L26+24
 463              		.loc 2 63 0
 464 0018 3470     		strb	r4, [r6, #0]
 465              		.loc 2 65 0
 466 001a 104E     		ldr	r6, .L26+28
 467              		.loc 2 64 0
 468 001c 2C70     		strb	r4, [r5, #0]
 469              		.loc 2 66 0
 470 001e 104D     		ldr	r5, .L26+32
 471              		.loc 2 65 0
 472 0020 3460     		str	r4, [r6, #0]
 473              		.loc 2 66 0
 474 0022 6FF00206 		mvn	r6, #2
 475 0026 2E60     		str	r6, [r5, #0]
 476              		.loc 2 67 0
 477 0028 0E4D     		ldr	r5, .L26+36
 478              		.loc 2 59 0
 479 002a 82B0     		sub	sp, sp, #8
 480              	.LCFI6:
 481              		.cfi_def_cfa_offset 24
 482              		.loc 2 67 0
 483 002c 2C60     		str	r4, [r5, #0]
 484              		.loc 2 70 0
 485 002e 4FF40D61 		mov	r1, #2256
 486 0032 0222     		movs	r2, #2
 487 0034 0094     		str	r4, [sp, #0]
 488 0036 FFF7FEFF 		bl	chThdCreateStatic
 489              		.loc 2 71 0
 490 003a 02B0     		add	sp, sp, #8
 491 003c 70BD     		pop	{r4, r5, r6, pc}
 492              	.L27:
 493 003e 00BF     		.align	2
 494              	.L26:
 495 0040 00000000 		.word	.LANCHOR8
 496 0044 00000000 		.word	.LANCHOR2
 497 0048 00000000 		.word	logThread
 498 004c 00000000 		.word	.LANCHOR12
 499 0050 00000000 		.word	.LANCHOR3
 500 0054 00000000 		.word	.LANCHOR0
 501 0058 00000000 		.word	.LANCHOR1
 502 005c 00000000 		.word	.LANCHOR7
 503 0060 00000000 		.word	.LANCHOR10
 504 0064 00000000 		.word	.LANCHOR11
 505              		.cfi_endproc
 506              	.LFE119:
 507              		.size	logInit, .-logInit
 508 0068 AFF30080 		.section	.text.twodigit,"ax",%progbits
ARM GAS  C:\Users\DNIEL~1\AppData\Local\Temp\ccKXrMX5.s 			page 10


 508      AFF30080 
 509              		.align	2
 510              		.p2align 4,,15
 511              		.global	twodigit
 512              		.thumb
 513              		.thumb_func
 514              		.type	twodigit, %function
 515              	twodigit:
 516              	.LFB120:
 517              		.loc 2 73 0
 518              		.cfi_startproc
 519              		@ args = 0, pretend = 0, frame = 0
 520              		@ frame_needed = 0, uses_anonymous_args = 0
 521              		@ link register save eliminated.
 522              	.LVL52:
 523              		.loc 2 74 0
 524 0000 0928     		cmp	r0, #9
 525              		.loc 2 73 0
 526 0002 10B4     		push	{r4}
 527              	.LCFI7:
 528              		.cfi_def_cfa_offset 4
 529              		.loc 2 74 0
 530 0004 15D9     		bls	.L32
 531              		.cfi_offset 4, -4
 532              		.loc 2 78 0
 533 0006 6328     		cmp	r0, #99
 534 0008 04DD     		ble	.L33
 535              		.loc 2 83 0
 536 000a 5820     		movs	r0, #88
 537              	.LVL53:
 538 000c 0870     		strb	r0, [r1, #0]
 539              		.loc 2 84 0
 540 000e 4870     		strb	r0, [r1, #1]
 541              	.L28:
 542              		.loc 2 86 0
 543 0010 10BC     		pop	{r4}
 544 0012 7047     		bx	lr
 545              	.LVL54:
 546              	.L33:
 547              		.loc 2 79 0
 548 0014 094B     		ldr	r3, .L34
 549 0016 C217     		asrs	r2, r0, #31
 550 0018 83FB004C 		smull	r4, ip, r3, r0
 551 001c C2EBAC04 		rsb	r4, r2, ip, asr #2
 552              		.loc 2 80 0
 553 0020 04EB8402 		add	r2, r4, r4, lsl #2
 554 0024 A0EB4200 		sub	r0, r0, r2, lsl #1
 555              	.LVL55:
 556              		.loc 2 79 0
 557 0028 3034     		adds	r4, r4, #48
 558              		.loc 2 80 0
 559 002a 3030     		adds	r0, r0, #48
 560              		.loc 2 79 0
 561 002c 0C70     		strb	r4, [r1, #0]
 562              		.loc 2 80 0
 563 002e 4870     		strb	r0, [r1, #1]
 564 0030 EEE7     		b	.L28
ARM GAS  C:\Users\DNIEL~1\AppData\Local\Temp\ccKXrMX5.s 			page 11


 565              	.LVL56:
 566              	.L32:
 567              		.loc 2 76 0
 568 0032 3030     		adds	r0, r0, #48
 569              	.LVL57:
 570              		.loc 2 75 0
 571 0034 3023     		movs	r3, #48
 572 0036 0B70     		strb	r3, [r1, #0]
 573              		.loc 2 76 0
 574 0038 4870     		strb	r0, [r1, #1]
 575 003a E9E7     		b	.L28
 576              	.L35:
 577              		.align	2
 578              	.L34:
 579 003c 67666666 		.word	1717986919
 580              		.cfi_endproc
 581              	.LFE120:
 582              		.size	twodigit, .-twodigit
 583              		.section	.text.logStart,"ax",%progbits
 584              		.align	2
 585              		.p2align 4,,15
 586              		.global	logStart
 587              		.thumb
 588              		.thumb_func
 589              		.type	logStart, %function
 590              	logStart:
 591              	.LFB121:
 592              		.loc 2 91 0
 593              		.cfi_startproc
 594              		@ args = 0, pretend = 0, frame = 0
 595              		@ frame_needed = 0, uses_anonymous_args = 0
 596              		@ link register save eliminated.
 597              	.LBB38:
 598              		.loc 2 92 0
 599 0000 2023     		movs	r3, #32
 600              	.LVL58:
 601              	@ 92 "src/log.c" 1
 602 0002 83F31188 		msr     BASEPRI, r3
 603              	@ 0 "" 2
 604              	.LVL59:
 605              		.thumb
 606              	.LBE38:
 607              		.loc 2 93 0
 608 0006 034B     		ldr	r3, .L37
 609              	.LVL60:
 610 0008 0122     		movs	r2, #1
 611 000a 1A70     		strb	r2, [r3, #0]
 612              	.LBB39:
 613              		.loc 2 94 0
 614 000c 0023     		movs	r3, #0
 615              	.LVL61:
 616              	@ 94 "src/log.c" 1
 617 000e 83F31188 		msr     BASEPRI, r3
 618              	@ 0 "" 2
 619              	.LVL62:
 620              		.thumb
 621              	.LBE39:
ARM GAS  C:\Users\DNIEL~1\AppData\Local\Temp\ccKXrMX5.s 			page 12


 622              		.loc 2 95 0
 623 0012 7047     		bx	lr
 624              	.L38:
 625              		.align	2
 626              	.L37:
 627 0014 00000000 		.word	.LANCHOR0
 628              		.cfi_endproc
 629              	.LFE121:
 630              		.size	logStart, .-logStart
 631              		.section	.text.logStop,"ax",%progbits
 632              		.align	2
 633              		.p2align 4,,15
 634              		.global	logStop
 635              		.thumb
 636              		.thumb_func
 637              		.type	logStop, %function
 638              	logStop:
 639              	.LFB122:
 640              		.loc 2 100 0
 641              		.cfi_startproc
 642              		@ args = 0, pretend = 0, frame = 0
 643              		@ frame_needed = 0, uses_anonymous_args = 0
 644              		@ link register save eliminated.
 645              	.LBB40:
 646              		.loc 2 101 0
 647 0000 2023     		movs	r3, #32
 648              	.LVL63:
 649              	@ 101 "src/log.c" 1
 650 0002 83F31188 		msr     BASEPRI, r3
 651              	@ 0 "" 2
 652              	.LVL64:
 653              		.thumb
 654              	.LBE40:
 655              		.loc 2 102 0
 656 0006 0548     		ldr	r0, .L41
 657 0008 0378     		ldrb	r3, [r0, #0]	@ zero_extendqisi2
 658              	.LVL65:
 659 000a 012B     		cmp	r3, #1
 660              		.loc 2 103 0
 661 000c 04BF     		itt	eq
 662 000e 044A     		ldreq	r2, .L41+4
 663 0010 1370     		strbeq	r3, [r2, #0]
 664              	.LBB41:
 665              		.loc 2 105 0
 666 0012 0023     		movs	r3, #0
 667              	.LVL66:
 668              	@ 105 "src/log.c" 1
 669 0014 83F31188 		msr     BASEPRI, r3
 670              	@ 0 "" 2
 671              	.LVL67:
 672              		.thumb
 673              	.LBE41:
 674              		.loc 2 106 0
 675 0018 7047     		bx	lr
 676              	.L42:
 677 001a 00BF     		.align	2
 678              	.L41:
ARM GAS  C:\Users\DNIEL~1\AppData\Local\Temp\ccKXrMX5.s 			page 13


 679 001c 00000000 		.word	.LANCHOR3
 680 0020 00000000 		.word	.LANCHOR1
 681              		.cfi_endproc
 682              	.LFE122:
 683              		.size	logStop, .-logStop
 684 0024 AFF30080 		.section	.text.logCalc,"ax",%progbits
 684      AFF30080 
 684      AFF30080 
 685              		.align	2
 686              		.p2align 4,,15
 687              		.global	logCalc
 688              		.thumb
 689              		.thumb_func
 690              		.type	logCalc, %function
 691              	logCalc:
 692              	.LFB123:
 693              		.loc 2 111 0
 694              		.cfi_startproc
 695              		@ args = 0, pretend = 0, frame = 0
 696              		@ frame_needed = 0, uses_anonymous_args = 0
 697              		@ link register save eliminated.
 698 0000 2DE9F001 		push	{r4, r5, r6, r7, r8}
 699              	.LCFI8:
 700              		.cfi_def_cfa_offset 20
 701              	.LBB42:
 702              		.loc 2 113 0
 703 0004 2023     		movs	r3, #32
 704              	.LVL68:
 705              	@ 113 "src/log.c" 1
 706 0006 83F31188 		msr     BASEPRI, r3
 707              	@ 0 "" 2
 708              	.LVL69:
 709              		.thumb
 710              	.LBE42:
 711              	.LBB43:
 712              		.loc 2 115 0
 713 000a 0023     		movs	r3, #0
 714              	.LVL70:
 715              	@ 115 "src/log.c" 1
 716 000c 83F31188 		msr     BASEPRI, r3
 717              	@ 0 "" 2
 718              	.LVL71:
 719              		.thumb
 720              	.LBE43:
 721              	.LBB44:
 722              	.LBB45:
 723              	.LBB46:
 724              		.loc 2 263 0
 725 0010 2023     		movs	r3, #32
 726              	.LVL72:
 727              	@ 263 "src/log.c" 1
 728 0012 83F31188 		msr     BASEPRI, r3
 729              	@ 0 "" 2
 730              	.LVL73:
 731              		.thumb
 732              	.LBE46:
 733              		.loc 2 264 0
ARM GAS  C:\Users\DNIEL~1\AppData\Local\Temp\ccKXrMX5.s 			page 14


 734 0016 1E49     		ldr	r1, .L50
 735              	.LBB47:
 736              		.loc 2 265 0
 737 0018 0023     		movs	r3, #0
 738              	.LVL74:
 739              	.LBE47:
 740              		.loc 2 264 0
 741 001a 0A78     		ldrb	r2, [r1, #0]	@ zero_extendqisi2
 742              	.LVL75:
 743              	.LBB48:
 744              		.loc 2 265 0
 745              	@ 265 "src/log.c" 1
 746 001c 83F31188 		msr     BASEPRI, r3
 747              	@ 0 "" 2
 748              	.LVL76:
 749              		.thumb
 750              	.LBE48:
 751              	.LBE45:
 752              	.LBE44:
 753              		.loc 2 118 0
 754 0020 012A     		cmp	r2, #1
 755 0022 06D0     		beq	.L49
 756              		.cfi_offset 8, -4
 757              		.cfi_offset 7, -8
 758              		.cfi_offset 6, -12
 759              		.cfi_offset 5, -16
 760              		.cfi_offset 4, -20
 761              		.loc 2 141 0
 762 0024 1B4B     		ldr	r3, .L50+4
 763              	.LVL77:
 764 0026 1A68     		ldr	r2, [r3, #0]
 765              	.LVL78:
 766 0028 511C     		adds	r1, r2, #1
 767 002a 1960     		str	r1, [r3, #0]
 768              	.L43:
 769              		.loc 2 143 0
 770 002c BDE8F001 		pop	{r4, r5, r6, r7, r8}
 771 0030 7047     		bx	lr
 772              	.LVL79:
 773              	.L49:
 774              		.loc 2 120 0
 775 0032 194F     		ldr	r7, .L50+8
 776              		.loc 2 119 0
 777 0034 194B     		ldr	r3, .L50+12
 778              	.LVL80:
 779              		.loc 2 120 0
 780 0036 D7F800C0 		ldr	ip, [r7, #0]
 781              		.loc 2 119 0
 782 003a DA68     		ldr	r2, [r3, #12]
 783              	.LVL81:
 784              		.loc 2 120 0
 785 003c BCF1000F 		cmp	ip, #0
 786 0040 00D1     		bne	.L45
 787              		.loc 2 122 0
 788 0042 D868     		ldr	r0, [r3, #12]
 789              	.LVL82:
 790              	.L45:
ARM GAS  C:\Users\DNIEL~1\AppData\Local\Temp\ccKXrMX5.s 			page 15


 791              		.loc 2 126 0
 792 0044 1649     		ldr	r1, .L50+16
 793 0046 174E     		ldr	r6, .L50+20
 794 0048 0D68     		ldr	r5, [r1, #0]
 795 004a D3F80C80 		ldr	r8, [r3, #12]
 796 004e 2D01     		lsls	r5, r5, #4
 797 0050 7319     		adds	r3, r6, r5
 798              		.loc 2 127 0
 799 0052 0022     		movs	r2, #0
 800 0054 1A71     		strb	r2, [r3, #4]
 801              		.loc 2 128 0
 802 0056 5A71     		strb	r2, [r3, #5]
 803              		.loc 2 129 0
 804 0058 9A71     		strb	r2, [r3, #6]
 805              		.loc 2 130 0
 806 005a DA71     		strb	r2, [r3, #7]
 807              		.loc 2 124 0
 808 005c 0CF1010C 		add	ip, ip, #1
 809              		.loc 2 126 0
 810 0060 C0EB0800 		rsb	r0, r0, r8
 811              	.LVL83:
 812              		.loc 2 131 0
 813 0064 1A81     		strh	r2, [r3, #8]	@ movhi
 814              		.loc 2 132 0
 815 0066 5A81     		strh	r2, [r3, #10]	@ movhi
 816              		.loc 2 133 0
 817 0068 9A81     		strh	r2, [r3, #12]	@ movhi
 818              		.loc 2 134 0
 819 006a DA81     		strh	r2, [r3, #14]	@ movhi
 820              		.loc 2 124 0
 821 006c C7F800C0 		str	ip, [r7, #0]
 822              		.loc 2 126 0
 823 0070 7051     		str	r0, [r6, r5]
 824              	.LBB49:
 825              		.loc 2 135 0
 826 0072 2023     		movs	r3, #32
 827              	.LVL84:
 828              	@ 135 "src/log.c" 1
 829 0074 83F31188 		msr     BASEPRI, r3
 830              	@ 0 "" 2
 831              	.LVL85:
 832              		.thumb
 833              	.LBE49:
 834              		.loc 2 136 0
 835 0078 0B68     		ldr	r3, [r1, #0]
 836              	.LVL86:
 837 007a 622B     		cmp	r3, #98
 838 007c D8BF     		it	le
 839 007e 5A1C     		addle	r2, r3, #1
 840 0080 0A60     		str	r2, [r1, #0]
 841              	.LBB50:
 842              		.loc 2 137 0
 843 0082 0023     		movs	r3, #0
 844              	.LVL87:
 845              	@ 137 "src/log.c" 1
 846 0084 83F31188 		msr     BASEPRI, r3
 847              	@ 0 "" 2
ARM GAS  C:\Users\DNIEL~1\AppData\Local\Temp\ccKXrMX5.s 			page 16


 848              	.LVL88:
 849              		.thumb
 850              	.LBE50:
 851              		.loc 2 138 0
 852 0088 0248     		ldr	r0, .L50+4
 853 008a 0360     		str	r3, [r0, #0]
 854              	.LVL89:
 855 008c CEE7     		b	.L43
 856              	.L51:
 857 008e 00BF     		.align	2
 858              	.L50:
 859 0090 00000000 		.word	.LANCHOR3
 860 0094 00000000 		.word	.LANCHOR11
 861 0098 00000000 		.word	.LANCHOR4
 862 009c 00000000 		.word	vtlist
 863 00a0 00000000 		.word	.LANCHOR2
 864 00a4 00000000 		.word	.LANCHOR9
 865              		.cfi_endproc
 866              	.LFE123:
 867              		.size	logCalc, .-logCalc
 868 00a8 AFF30080 		.section	.text.logStartDownload,"ax",%progbits
 868      AFF30080 
 869              		.align	2
 870              		.p2align 4,,15
 871              		.global	logStartDownload
 872              		.thumb
 873              		.thumb_func
 874              		.type	logStartDownload, %function
 875              	logStartDownload:
 876              	.LFB125:
 877              		.loc 2 240 0
 878              		.cfi_startproc
 879              		@ args = 0, pretend = 0, frame = 0
 880              		@ frame_needed = 0, uses_anonymous_args = 0
 881              		@ link register save eliminated.
 882              	.LVL90:
 883              		.loc 2 240 0
 884 0000 0246     		mov	r2, r0
 885              	.LBB51:
 886              		.loc 2 242 0
 887 0002 2023     		movs	r3, #32
 888              	.LVL91:
 889              	@ 242 "src/log.c" 1
 890 0004 83F31188 		msr     BASEPRI, r3
 891              	@ 0 "" 2
 892              	.LVL92:
 893              		.thumb
 894              	.LBE51:
 895              		.loc 2 243 0
 896 0008 054B     		ldr	r3, .L54
 897              	.LVL93:
 898 000a 1978     		ldrb	r1, [r3, #0]	@ zero_extendqisi2
 899 000c 09B9     		cbnz	r1, .L53
 900              		.loc 2 244 0
 901 000e 0320     		movs	r0, #3
 902              	.LVL94:
 903 0010 1870     		strb	r0, [r3, #0]
ARM GAS  C:\Users\DNIEL~1\AppData\Local\Temp\ccKXrMX5.s 			page 17


 904              	.LVL95:
 905              	.L53:
 906              	.LBB52:
 907              		.loc 2 247 0
 908 0012 0023     		movs	r3, #0
 909              	.LVL96:
 910              	@ 247 "src/log.c" 1
 911 0014 83F31188 		msr     BASEPRI, r3
 912              	@ 0 "" 2
 913              	.LVL97:
 914              		.thumb
 915              	.LBE52:
 916              		.loc 2 248 0
 917 0018 024B     		ldr	r3, .L54+4
 918              	.LVL98:
 919              		.loc 2 250 0
 920 001a 0120     		movs	r0, #1
 921              		.loc 2 248 0
 922 001c 1360     		str	r3, [r2, #0]
 923              		.loc 2 250 0
 924 001e 7047     		bx	lr
 925              	.L55:
 926              		.align	2
 927              	.L54:
 928 0020 00000000 		.word	.LANCHOR3
 929 0024 00000000 		.word	.LANCHOR6
 930              		.cfi_endproc
 931              	.LFE125:
 932              		.size	logStartDownload, .-logStartDownload
 933 0028 AFF30080 		.section	.text.logStopDownload,"ax",%progbits
 933      AFF30080 
 934              		.align	2
 935              		.p2align 4,,15
 936              		.global	logStopDownload
 937              		.thumb
 938              		.thumb_func
 939              		.type	logStopDownload, %function
 940              	logStopDownload:
 941              	.LFB126:
 942              		.loc 2 252 0
 943              		.cfi_startproc
 944              		@ args = 0, pretend = 0, frame = 0
 945              		@ frame_needed = 0, uses_anonymous_args = 0
 946              		@ link register save eliminated.
 947              	.LBB53:
 948              		.loc 2 253 0
 949 0000 2023     		movs	r3, #32
 950              	.LVL99:
 951              	@ 253 "src/log.c" 1
 952 0002 83F31188 		msr     BASEPRI, r3
 953              	@ 0 "" 2
 954              	.LVL100:
 955              		.thumb
 956              	.LBE53:
 957              		.loc 2 254 0
 958 0006 054B     		ldr	r3, .L58
 959              	.LVL101:
ARM GAS  C:\Users\DNIEL~1\AppData\Local\Temp\ccKXrMX5.s 			page 18


 960 0008 1A78     		ldrb	r2, [r3, #0]	@ zero_extendqisi2
 961 000a 032A     		cmp	r2, #3
 962 000c 01D1     		bne	.L57
 963              		.loc 2 255 0
 964 000e 0020     		movs	r0, #0
 965 0010 1870     		strb	r0, [r3, #0]
 966              	.L57:
 967              	.LBB54:
 968              		.loc 2 257 0
 969 0012 0023     		movs	r3, #0
 970              	.LVL102:
 971              	@ 257 "src/log.c" 1
 972 0014 83F31188 		msr     BASEPRI, r3
 973              	@ 0 "" 2
 974              	.LVL103:
 975              		.thumb
 976              	.LBE54:
 977              		.loc 2 258 0
 978 0018 7047     		bx	lr
 979              	.L59:
 980 001a 00BF     		.align	2
 981              	.L58:
 982 001c 00000000 		.word	.LANCHOR3
 983              		.cfi_endproc
 984              	.LFE126:
 985              		.size	logStopDownload, .-logStopDownload
 986              		.section	.text.logGetState,"ax",%progbits
 987              		.align	2
 988              		.p2align 4,,15
 989              		.global	logGetState
 990              		.thumb
 991              		.thumb_func
 992              		.type	logGetState, %function
 993              	logGetState:
 994              	.LFB127:
 995              		.loc 2 260 0
 996              		.cfi_startproc
 997              		@ args = 0, pretend = 0, frame = 0
 998              		@ frame_needed = 0, uses_anonymous_args = 0
 999              		@ link register save eliminated.
 1000              	.LBB55:
 1001              		.loc 2 263 0
 1002 0000 2023     		movs	r3, #32
 1003              	.LVL104:
 1004              	@ 263 "src/log.c" 1
 1005 0002 83F31188 		msr     BASEPRI, r3
 1006              	@ 0 "" 2
 1007              	.LVL105:
 1008              		.thumb
 1009              	.LBE55:
 1010              		.loc 2 264 0
 1011 0006 034A     		ldr	r2, .L61
 1012              	.LBB56:
 1013              		.loc 2 265 0
 1014 0008 0023     		movs	r3, #0
 1015              	.LVL106:
 1016              	.LBE56:
ARM GAS  C:\Users\DNIEL~1\AppData\Local\Temp\ccKXrMX5.s 			page 19


 1017              		.loc 2 264 0
 1018 000a 1078     		ldrb	r0, [r2, #0]	@ zero_extendqisi2
 1019              	.LVL107:
 1020              	.LBB57:
 1021              		.loc 2 265 0
 1022              	@ 265 "src/log.c" 1
 1023 000c 83F31188 		msr     BASEPRI, r3
 1024              	@ 0 "" 2
 1025              	.LVL108:
 1026              		.thumb
 1027              	.LBE57:
 1028              		.loc 2 268 0
 1029 0010 7047     		bx	lr
 1030              	.L62:
 1031 0012 00BF     		.align	2
 1032              	.L61:
 1033 0014 00000000 		.word	.LANCHOR3
 1034              		.cfi_endproc
 1035              	.LFE127:
 1036              		.size	logGetState, .-logGetState
 1037 0018 AFF30080 		.section	.text.logGetTime,"ax",%progbits
 1037      AFF30080 
 1038              		.align	2
 1039              		.p2align 4,,15
 1040              		.global	logGetTime
 1041              		.thumb
 1042              		.thumb_func
 1043              		.type	logGetTime, %function
 1044              	logGetTime:
 1045              	.LFB128:
 1046              		.loc 2 270 0
 1047              		.cfi_startproc
 1048              		@ args = 0, pretend = 0, frame = 0
 1049              		@ frame_needed = 0, uses_anonymous_args = 0
 1050              		@ link register save eliminated.
 1051              	.LBB58:
 1052              		.loc 2 273 0
 1053 0000 2023     		movs	r3, #32
 1054              	.LVL109:
 1055              	@ 273 "src/log.c" 1
 1056 0002 83F31188 		msr     BASEPRI, r3
 1057              	@ 0 "" 2
 1058              	.LVL110:
 1059              		.thumb
 1060              	.LBE58:
 1061              		.loc 2 274 0
 1062 0006 0449     		ldr	r1, .L64
 1063 0008 044B     		ldr	r3, .L64+4
 1064              	.LVL111:
 1065 000a C868     		ldr	r0, [r1, #12]
 1066 000c 1A68     		ldr	r2, [r3, #0]
 1067              	.LBB59:
 1068              		.loc 2 275 0
 1069 000e 0023     		movs	r3, #0
 1070              	.LVL112:
 1071              	.LBE59:
 1072              		.loc 2 274 0
ARM GAS  C:\Users\DNIEL~1\AppData\Local\Temp\ccKXrMX5.s 			page 20


 1073 0010 801A     		subs	r0, r0, r2
 1074              	.LVL113:
 1075              	.LBB60:
 1076              		.loc 2 275 0
 1077              	@ 275 "src/log.c" 1
 1078 0012 83F31188 		msr     BASEPRI, r3
 1079              	@ 0 "" 2
 1080              	.LVL114:
 1081              		.thumb
 1082              	.LBE60:
 1083              		.loc 2 278 0
 1084 0016 7047     		bx	lr
 1085              	.L65:
 1086              		.align	2
 1087              	.L64:
 1088 0018 00000000 		.word	vtlist
 1089 001c 00000000 		.word	.LANCHOR7
 1090              		.cfi_endproc
 1091              	.LFE128:
 1092              		.size	logGetTime, .-logGetTime
 1093              		.section	.text.cmd_testlog,"ax",%progbits
 1094              		.align	2
 1095              		.p2align 4,,15
 1096              		.global	cmd_testlog
 1097              		.thumb
 1098              		.thumb_func
 1099              		.type	cmd_testlog, %function
 1100              	cmd_testlog:
 1101              	.LFB129:
 1102              		.loc 2 280 0
 1103              		.cfi_startproc
 1104              		@ args = 0, pretend = 0, frame = 0
 1105              		@ frame_needed = 0, uses_anonymous_args = 0
 1106              	.LVL115:
 1107 0000 2DE9F047 		push	{r4, r5, r6, r7, r8, r9, sl, lr}
 1108              	.LCFI9:
 1109              		.cfi_def_cfa_offset 32
 1110              		.loc 2 284 0
 1111 0004 3649     		ldr	r1, .L77
 1112              	.LVL116:
 1113              		.loc 2 280 0
 1114 0006 0446     		mov	r4, r0
 1115              		.cfi_offset 14, -4
 1116              		.cfi_offset 10, -8
 1117              		.cfi_offset 9, -12
 1118              		.cfi_offset 8, -16
 1119              		.cfi_offset 7, -20
 1120              		.cfi_offset 6, -24
 1121              		.cfi_offset 5, -28
 1122              		.cfi_offset 4, -32
 1123              		.loc 2 284 0
 1124 0008 FFF7FEFF 		bl	chprintf
 1125              	.LVL117:
 1126              		.loc 2 285 0
 1127 000c 2046     		mov	r0, r4
 1128 000e 3549     		ldr	r1, .L77+4
 1129 0010 FFF7FEFF 		bl	chprintf
ARM GAS  C:\Users\DNIEL~1\AppData\Local\Temp\ccKXrMX5.s 			page 21


 1130              	.LBB61:
 1131              	.LBB62:
 1132              	.LBB63:
 1133              		.loc 2 92 0
 1134 0014 2023     		movs	r3, #32
 1135              	.LVL118:
 1136              	@ 92 "src/log.c" 1
 1137 0016 83F31188 		msr     BASEPRI, r3
 1138              	@ 0 "" 2
 1139              	.LVL119:
 1140              		.thumb
 1141              	.LBE63:
 1142              		.loc 2 93 0
 1143 001a 334B     		ldr	r3, .L77+8
 1144              	.LVL120:
 1145 001c 0122     		movs	r2, #1
 1146 001e 1A70     		strb	r2, [r3, #0]
 1147              	.LBB64:
 1148              		.loc 2 94 0
 1149 0020 0023     		movs	r3, #0
 1150              	.LVL121:
 1151              	@ 94 "src/log.c" 1
 1152 0022 83F31188 		msr     BASEPRI, r3
 1153              	@ 0 "" 2
 1154              	.LVL122:
 1155              		.thumb
 1156              	.LBE64:
 1157              	.LBE62:
 1158              	.LBE61:
 1159              		.loc 2 287 0
 1160 0026 3149     		ldr	r1, .L77+12
 1161 0028 314E     		ldr	r6, .L77+16
 1162              		.loc 2 291 0
 1163 002a DFF8FC80 		ldr	r8, .L77+72
 1164 002e 314F     		ldr	r7, .L77+20
 1165              		.loc 2 297 0
 1166 0030 DFF8F890 		ldr	r9, .L77+76
 1167              		.loc 2 287 0
 1168 0034 2046     		mov	r0, r4
 1169 0036 FFF7FEFF 		bl	chprintf
 1170              	.LVL123:
 1171              		.loc 2 288 0
 1172 003a 0BE0     		b	.L67
 1173              	.LVL124:
 1174              	.L76:
 1175              		.loc 2 295 0
 1176 003c 2E48     		ldr	r0, .L77+24
 1177 003e 2F4A     		ldr	r2, .L77+28
 1178 0040 022D     		cmp	r5, #2
 1179 0042 18BF     		it	ne
 1180 0044 0246     		movne	r2, r0
 1181              	.L69:
 1182              		.loc 2 292 0 discriminator 2
 1183 0046 2046     		mov	r0, r4
 1184 0048 2D49     		ldr	r1, .L77+32
 1185 004a FFF7FEFF 		bl	chprintf
 1186              	.L72:
ARM GAS  C:\Users\DNIEL~1\AppData\Local\Temp\ccKXrMX5.s 			page 22


 1187              		.loc 2 299 0
 1188 004e C820     		movs	r0, #200
 1189 0050 FFF7FEFF 		bl	chThdSleep
 1190              	.LVL125:
 1191              	.L67:
 1192              		.loc 2 288 0 discriminator 1
 1193 0054 2168     		ldr	r1, [r4, #0]
 1194 0056 2046     		mov	r0, r4
 1195 0058 4A69     		ldr	r2, [r1, #20]
 1196 005a 0021     		movs	r1, #0
 1197 005c 9047     		blx	r2
 1198 005e B0F1FF3F 		cmp	r0, #-1
 1199 0062 29D1     		bne	.L75
 1200              	.LBB65:
 1201              	.LBB66:
 1202              	.LBB67:
 1203              		.loc 2 263 0
 1204 0064 2023     		movs	r3, #32
 1205              	.LVL126:
 1206              	@ 263 "src/log.c" 1
 1207 0066 83F31188 		msr     BASEPRI, r3
 1208              	@ 0 "" 2
 1209              	.LVL127:
 1210              		.thumb
 1211              	.LBE67:
 1212              	.LBB68:
 1213              		.loc 2 265 0
 1214 006a 0023     		movs	r3, #0
 1215              	.LVL128:
 1216              	.LBE68:
 1217              		.loc 2 264 0
 1218 006c 3578     		ldrb	r5, [r6, #0]	@ zero_extendqisi2
 1219              	.LVL129:
 1220              	.LBB69:
 1221              		.loc 2 265 0
 1222              	@ 265 "src/log.c" 1
 1223 006e 83F31188 		msr     BASEPRI, r3
 1224              	@ 0 "" 2
 1225              	.LVL130:
 1226              		.thumb
 1227              	.LBE69:
 1228              	.LBE66:
 1229              	.LBE65:
 1230              		.loc 2 290 0
 1231 0072 2449     		ldr	r1, .L77+36
 1232 0074 1A46     		mov	r2, r3
 1233 0076 2046     		mov	r0, r4
 1234 0078 FFF7FEFF 		bl	chprintf
 1235              	.LVL131:
 1236              		.loc 2 291 0
 1237 007c D8F80CE0 		ldr	lr, [r8, #12]
 1238 0080 3B68     		ldr	r3, [r7, #0]
 1239 0082 2149     		ldr	r1, .L77+40
 1240 0084 214A     		ldr	r2, .L77+44
 1241 0086 2046     		mov	r0, r4
 1242 0088 C3EB0E03 		rsb	r3, r3, lr
 1243 008c FFF7FEFF 		bl	chprintf
ARM GAS  C:\Users\DNIEL~1\AppData\Local\Temp\ccKXrMX5.s 			page 23


 1244              		.loc 2 292 0
 1245 0090 012D     		cmp	r5, #1
 1246 0092 03D0     		beq	.L68
 1247              		.loc 2 294 0
 1248 0094 002D     		cmp	r5, #0
 1249 0096 D1D1     		bne	.L76
 1250 0098 1D4A     		ldr	r2, .L77+48
 1251 009a D4E7     		b	.L69
 1252              	.L68:
 1253              		.loc 2 292 0
 1254 009c 2046     		mov	r0, r4
 1255 009e 1849     		ldr	r1, .L77+32
 1256 00a0 1C4A     		ldr	r2, .L77+52
 1257 00a2 FFF7FEFF 		bl	chprintf
 1258              		.loc 2 297 0
 1259 00a6 1C4B     		ldr	r3, .L77+56
 1260 00a8 1C49     		ldr	r1, .L77+60
 1261 00aa D9F80020 		ldr	r2, [r9, #0]
 1262 00ae 1B68     		ldr	r3, [r3, #0]
 1263 00b0 2046     		mov	r0, r4
 1264 00b2 FFF7FEFF 		bl	chprintf
 1265 00b6 CAE7     		b	.L72
 1266              	.LVL132:
 1267              	.L75:
 1268              	.LBB70:
 1269              	.LBB71:
 1270              	.LBB72:
 1271              		.loc 2 101 0
 1272 00b8 2023     		movs	r3, #32
 1273              	.LVL133:
 1274              	@ 101 "src/log.c" 1
 1275 00ba 83F31188 		msr     BASEPRI, r3
 1276              	@ 0 "" 2
 1277              	.LVL134:
 1278              		.thumb
 1279              	.LBE72:
 1280              		.loc 2 102 0
 1281 00be 96F800C0 		ldrb	ip, [r6, #0]	@ zero_extendqisi2
 1282 00c2 BCF1010F 		cmp	ip, #1
 1283              		.loc 2 103 0
 1284 00c6 04BF     		itt	eq
 1285 00c8 1548     		ldreq	r0, .L77+64
 1286 00ca 80F800C0 		strbeq	ip, [r0, #0]
 1287              	.LBB73:
 1288              		.loc 2 105 0
 1289 00ce 0023     		movs	r3, #0
 1290              	.LVL135:
 1291              	@ 105 "src/log.c" 1
 1292 00d0 83F31188 		msr     BASEPRI, r3
 1293              	@ 0 "" 2
 1294              	.LVL136:
 1295              		.thumb
 1296              	.LBE73:
 1297              	.LBE71:
 1298              	.LBE70:
 1299              		.loc 2 302 0
 1300 00d4 1349     		ldr	r1, .L77+68
ARM GAS  C:\Users\DNIEL~1\AppData\Local\Temp\ccKXrMX5.s 			page 24


 1301 00d6 2046     		mov	r0, r4
 1302              		.loc 2 303 0
 1303 00d8 BDE8F047 		pop	{r4, r5, r6, r7, r8, r9, sl, lr}
 1304              		.loc 2 302 0
 1305 00dc FFF7FEBF 		b	chprintf
 1306              	.LVL137:
 1307              	.L78:
 1308              		.align	2
 1309              	.L77:
 1310 00e0 34000000 		.word	.LC4
 1311 00e4 38000000 		.word	.LC5
 1312 00e8 00000000 		.word	.LANCHOR0
 1313 00ec 40000000 		.word	.LC6
 1314 00f0 00000000 		.word	.LANCHOR3
 1315 00f4 00000000 		.word	.LANCHOR7
 1316 00f8 24000000 		.word	.LC3
 1317 00fc 14000000 		.word	.LC2
 1318 0100 88000000 		.word	.LC9
 1319 0104 58000000 		.word	.LC7
 1320 0108 64000000 		.word	.LC8
 1321 010c 00000000 		.word	.LANCHOR6
 1322 0110 08000000 		.word	.LC1
 1323 0114 B0000000 		.word	.LC11
 1324 0118 00000000 		.word	.LANCHOR2
 1325 011c BC000000 		.word	.LC12
 1326 0120 00000000 		.word	.LANCHOR1
 1327 0124 9C000000 		.word	.LC10
 1328 0128 00000000 		.word	vtlist
 1329 012c 00000000 		.word	.LANCHOR8
 1330              		.cfi_endproc
 1331              	.LFE129:
 1332              		.size	cmd_testlog, .-cmd_testlog
 1333              		.global	logFileName
 1334              		.global	logCount
 1335              		.global	logBuffer
 1336              		.global	logReadPointer
 1337              		.global	logWritePointer
 1338              		.global	logState
 1339              		.global	logFileObject
 1340              		.global	logStartRequest
 1341              		.global	logStopRequest
 1342              		.global	logStartTime
 1343              		.global	logLastIgnCount
 1344              		.global	logIdleCount
 1345              		.section	.bss.waLog.9389,"aw",%nobits
 1346              		.align	3
 1347              		.set	.LANCHOR12,. + 0
 1348              		.type	waLog.9389, %object
 1349              		.size	waLog.9389, 2256
 1350              	waLog.9389:
 1351 0000 00000000 		.space	2256
 1351      00000000 
 1351      00000000 
 1351      00000000 
 1351      00000000 
 1352              		.section	.bss.logReadPointer,"aw",%nobits
 1353              		.align	2
ARM GAS  C:\Users\DNIEL~1\AppData\Local\Temp\ccKXrMX5.s 			page 25


 1354              		.set	.LANCHOR8,. + 0
 1355              		.type	logReadPointer, %object
 1356              		.size	logReadPointer, 4
 1357              	logReadPointer:
 1358 0000 00000000 		.space	4
 1359              		.section	.bss.logWritePointer,"aw",%nobits
 1360              		.align	2
 1361              		.set	.LANCHOR2,. + 0
 1362              		.type	logWritePointer, %object
 1363              		.size	logWritePointer, 4
 1364              	logWritePointer:
 1365 0000 00000000 		.space	4
 1366              		.section	.bss.logState,"aw",%nobits
 1367              		.set	.LANCHOR3,. + 0
 1368              		.type	logState, %object
 1369              		.size	logState, 1
 1370              	logState:
 1371 0000 00       		.space	1
 1372              		.section	.bss.logFileObject,"aw",%nobits
 1373              		.align	2
 1374              		.set	.LANCHOR5,. + 0
 1375              		.type	logFileObject, %object
 1376              		.size	logFileObject, 548
 1377              	logFileObject:
 1378 0000 00000000 		.space	548
 1378      00000000 
 1378      00000000 
 1378      00000000 
 1378      00000000 
 1379              		.section	.bss.logStopRequest,"aw",%nobits
 1380              		.set	.LANCHOR1,. + 0
 1381              		.type	logStopRequest, %object
 1382              		.size	logStopRequest, 1
 1383              	logStopRequest:
 1384 0000 00       		.space	1
 1385              		.section	.rodata.str1.4,"aMS",%progbits,1
 1386              		.align	2
 1387              	.LC0:
 1388 0000 6C6F6754 		.ascii	"logTask\000"
 1388      61736B00 
 1389              	.LC1:
 1390 0008 4C4F475F 		.ascii	"LOG_STOPPED\000"
 1390      53544F50 
 1390      50454400 
 1391              	.LC2:
 1392 0014 4C4F475F 		.ascii	"LOG_STOPPING\000"
 1392      53544F50 
 1392      50494E47 
 1392      00
 1393 0021 000000   		.space	3
 1394              	.LC3:
 1395 0024 4C4F475F 		.ascii	"LOG_DOWNLOADING\000"
 1395      444F574E 
 1395      4C4F4144 
 1395      494E4700 
 1396              	.LC4:
 1397 0034 1B6300   		.ascii	"\033c\000"
ARM GAS  C:\Users\DNIEL~1\AppData\Local\Temp\ccKXrMX5.s 			page 26


 1398 0037 00       		.space	1
 1399              	.LC5:
 1400 0038 1B5B324A 		.ascii	"\033[2J\000"
 1400      00
 1401 003d 000000   		.space	3
 1402              	.LC6:
 1403 0040 4C6F6767 		.ascii	"Logging starting...\015\012\000"
 1403      696E6720 
 1403      73746172 
 1403      74696E67 
 1403      2E2E2E0D 
 1404 0056 0000     		.space	2
 1405              	.LC7:
 1406 0058 1B5B2564 		.ascii	"\033[%d;%dH\000"
 1406      3B256448 
 1406      00
 1407 0061 000000   		.space	3
 1408              	.LC8:
 1409 0064 46696C65 		.ascii	"Filename = %s Logtime = %D    \015\012\000"
 1409      6E616D65 
 1409      203D2025 
 1409      73204C6F 
 1409      6774696D 
 1410 0085 000000   		.space	3
 1411              	.LC9:
 1412 0088 6C6F6753 		.ascii	"logState = %s \015\012\000"
 1412      74617465 
 1412      203D2025 
 1412      73200D0A 
 1412      00
 1413 0099 000000   		.space	3
 1414              	.LC10:
 1415 009c 0D0A4C6F 		.ascii	"\015\012Logging stopped\015\012\000"
 1415      6767696E 
 1415      67207374 
 1415      6F707065 
 1415      640D0A00 
 1416              	.LC11:
 1417 00b0 4C4F475F 		.ascii	"LOG_RUNNING\000"
 1417      52554E4E 
 1417      494E4700 
 1418              	.LC12:
 1419 00bc 52656164 		.ascii	"ReadPointer = %D WritePointer = %D    \015\012\000"
 1419      506F696E 
 1419      74657220 
 1419      3D202544 
 1419      20577269 
 1420 00e5 000000   		.section	.bss.logStartRequest,"aw",%nobits
 1421              		.set	.LANCHOR0,. + 0
 1422              		.type	logStartRequest, %object
 1423              		.size	logStartRequest, 1
 1424              	logStartRequest:
 1425 0000 00       		.space	1
 1426              		.section	.bss.logIdleCount,"aw",%nobits
 1427              		.align	2
 1428              		.set	.LANCHOR11,. + 0
 1429              		.type	logIdleCount, %object
ARM GAS  C:\Users\DNIEL~1\AppData\Local\Temp\ccKXrMX5.s 			page 27


 1430              		.size	logIdleCount, 4
 1431              	logIdleCount:
 1432 0000 00000000 		.space	4
 1433              		.section	.data.logFileName,"aw",%progbits
 1434              		.align	2
 1435              		.set	.LANCHOR6,. + 0
 1436              		.type	logFileName, %object
 1437              		.size	logFileName, 9
 1438              	logFileName:
 1439 0000 74657374 		.ascii	"test.txt\000"
 1439      2E747874 
 1439      00
 1440 0009 000000   		.section	.bss.logStartTime,"aw",%nobits
 1441              		.align	2
 1442              		.set	.LANCHOR7,. + 0
 1443              		.type	logStartTime, %object
 1444              		.size	logStartTime, 4
 1445              	logStartTime:
 1446 0000 00000000 		.space	4
 1447              		.section	.bss.logCount,"aw",%nobits
 1448              		.align	2
 1449              		.set	.LANCHOR4,. + 0
 1450              		.type	logCount, %object
 1451              		.size	logCount, 4
 1452              	logCount:
 1453 0000 00000000 		.space	4
 1454              		.section	.bss.logLastIgnCount,"aw",%nobits
 1455              		.align	2
 1456              		.set	.LANCHOR10,. + 0
 1457              		.type	logLastIgnCount, %object
 1458              		.size	logLastIgnCount, 4
 1459              	logLastIgnCount:
 1460 0000 00000000 		.space	4
 1461              		.section	.bss.logBuffer,"aw",%nobits
 1462              		.align	2
 1463              		.set	.LANCHOR9,. + 0
 1464              		.type	logBuffer, %object
 1465              		.size	logBuffer, 1600
 1466              	logBuffer:
 1467 0000 00000000 		.space	1600
 1467      00000000 
 1467      00000000 
 1467      00000000 
 1467      00000000 
 1468              		.text
 1469              	.Letext0: