ARM GAS  C:\Users\DNIEL~1\AppData\Local\Temp\ccpCQRnH.s 			page 1


   1              		.syntax unified
   2              		.cpu cortex-m4
   3              		.fpu softvfp
   4              		.eabi_attribute 20, 1
   5              		.eabi_attribute 21, 1
   6              		.eabi_attribute 23, 3
   7              		.eabi_attribute 24, 1
   8              		.eabi_attribute 25, 1
   9              		.eabi_attribute 26, 1
  10              		.eabi_attribute 30, 2
  11              		.eabi_attribute 34, 1
  12              		.eabi_attribute 18, 4
  13              		.thumb
  14              		.file	"main.c"
  15              		.text
  16              	.Ltext0:
  17              		.cfi_sections	.debug_frame
  18              		.section	.text.Thread1,"ax",%progbits
  19              		.align	2
  20              		.p2align 4,,15
  21              		.thumb
  22              		.thumb_func
  23              		.type	Thread1, %function
  24              	Thread1:
  25              	.LFB118:
  26              		.file 1 "src/main.c"
  27              		.loc 1 34 0
  28              		.cfi_startproc
  29              		@ args = 0, pretend = 0, frame = 0
  30              		@ frame_needed = 0, uses_anonymous_args = 0
  31              	.LVL0:
  32 0000 F8B5     		push	{r3, r4, r5, r6, r7, lr}
  33              	.LCFI0:
  34              		.cfi_def_cfa_offset 24
  35              		.cfi_offset 3, -24
  36              		.cfi_offset 4, -20
  37              		.cfi_offset 5, -16
  38              		.cfi_offset 6, -12
  39              		.cfi_offset 7, -8
  40              		.cfi_offset 14, -4
  41              		.loc 1 37 0
  42 0002 104B     		ldr	r3, .L7
  43 0004 104A     		ldr	r2, .L7+4
  44 0006 9869     		ldr	r0, [r3, #24]
  45              	.LVL1:
  46              	.LBB2:
  47              		.loc 1 41 0
  48 0008 4FF44067 		mov	r7, #3072
  49              		.loc 1 53 0
  50 000c 0025     		movs	r5, #0
  51              	.LBE2:
  52              		.loc 1 37 0
  53 000e 8261     		str	r2, [r0, #24]
  54              	.LBB3:
  55              		.loc 1 41 0
  56 0010 C4F20207 		movt	r7, 16386
  57              		.loc 1 53 0
ARM GAS  C:\Users\DNIEL~1\AppData\Local\Temp\ccpCQRnH.s 			page 2


  58 0014 C4F20205 		movt	r5, 16386
  59 0018 0126     		movs	r6, #1
  60 001a 09E0     		b	.L3
  61              	.L4:
  62              		.loc 1 41 0
  63 001c 4FF47A74 		mov	r4, #1000
  64              	.L2:
  65              		.loc 1 54 0
  66 0020 2046     		mov	r0, r4
  67              		.loc 1 53 0
  68 0022 6E83     		strh	r6, [r5, #26]	@ movhi
  69              		.loc 1 54 0
  70 0024 FFF7FEFF 		bl	chThdSleep
  71              	.LVL2:
  72              		.loc 1 55 0
  73 0028 2E83     		strh	r6, [r5, #24]	@ movhi
  74              		.loc 1 56 0
  75 002a 2046     		mov	r0, r4
  76 002c FFF7FEFF 		bl	chThdSleep
  77              	.LVL3:
  78              	.L3:
  79              		.loc 1 41 0
  80 0030 3969     		ldr	r1, [r7, #16]
  81 0032 0B07     		lsls	r3, r1, #28
  82 0034 F2D4     		bmi	.L4
  83              		.loc 1 42 0
  84 0036 FFF7FEFF 		bl	sdcardIsMounted
  85              	.LVL4:
  86 003a 0028     		cmp	r0, #0
  87 003c 0CBF     		ite	eq
  88 003e 3224     		moveq	r4, #50
  89 0040 FA24     		movne	r4, #250
  90 0042 EDE7     		b	.L2
  91              	.L8:
  92              		.align	2
  93              	.L7:
  94 0044 00000000 		.word	rlist
  95 0048 00000000 		.word	.LC0
  96              	.LBE3:
  97              		.cfi_endproc
  98              	.LFE118:
  99              		.size	Thread1, .-Thread1
 100 004c AFF30080 		.section	.text.task20ms,"ax",%progbits
 101              		.align	2
 102              		.p2align 4,,15
 103              		.thumb
 104              		.thumb_func
 105              		.type	task20ms, %function
 106              	task20ms:
 107              	.LFB119:
 108              		.loc 1 65 0
 109              		.cfi_startproc
 110              		@ args = 0, pretend = 0, frame = 0
 111              		@ frame_needed = 0, uses_anonymous_args = 0
 112              	.LVL5:
 113              		.loc 1 69 0
 114 0000 0A4B     		ldr	r3, .L11
ARM GAS  C:\Users\DNIEL~1\AppData\Local\Temp\ccpCQRnH.s 			page 3


 115              		.loc 1 70 0
 116 0002 0B4A     		ldr	r2, .L11+4
 117              		.loc 1 69 0
 118 0004 9869     		ldr	r0, [r3, #24]
 119              	.LVL6:
 120 0006 0B49     		ldr	r1, .L11+8
 121              		.loc 1 65 0
 122 0008 10B5     		push	{r4, lr}
 123              	.LCFI1:
 124              		.cfi_def_cfa_offset 8
 125              		.cfi_offset 4, -8
 126              		.cfi_offset 14, -4
 127              		.loc 1 70 0
 128 000a D468     		ldr	r4, [r2, #12]
 129              	.LVL7:
 130              		.loc 1 69 0
 131 000c 8161     		str	r1, [r0, #24]
 132              	.L10:
 133              		.loc 1 72 0 discriminator 1
 134 000e 1434     		adds	r4, r4, #20
 135              	.LVL8:
 136              		.loc 1 74 0 discriminator 1
 137 0010 FFF7FEFF 		bl	lightCalc
 138              	.LVL9:
 139              		.loc 1 75 0 discriminator 1
 140 0014 FFF7FEFF 		bl	speedCalc
 141              	.LVL10:
 142              		.loc 1 76 0 discriminator 1
 143 0018 FFF7FEFF 		bl	measCalc
 144              	.LVL11:
 145              		.loc 1 77 0 discriminator 1
 146 001c FFF7FEFF 		bl	cruiseCalc
 147              	.LVL12:
 148              		.loc 1 78 0 discriminator 1
 149 0020 FFF7FEFF 		bl	dspCalc
 150              	.LVL13:
 151              		.loc 1 81 0 discriminator 1
 152 0024 2046     		mov	r0, r4
 153 0026 FFF7FEFF 		bl	chThdSleepUntil
 154              	.LVL14:
 155 002a F0E7     		b	.L10
 156              	.L12:
 157              		.align	2
 158              	.L11:
 159 002c 00000000 		.word	rlist
 160 0030 00000000 		.word	vtlist
 161 0034 08000000 		.word	.LC1
 162              		.cfi_endproc
 163              	.LFE119:
 164              		.size	task20ms, .-task20ms
 165 0038 AFF30080 		.section	.text.startup.main,"ax",%progbits
 165      AFF30080 
 166              		.align	2
 167              		.p2align 4,,15
 168              		.global	main
 169              		.thumb
 170              		.thumb_func
ARM GAS  C:\Users\DNIEL~1\AppData\Local\Temp\ccpCQRnH.s 			page 4


 171              		.type	main, %function
 172              	main:
 173              	.LFB120:
 174              		.loc 1 88 0
 175              		.cfi_startproc
 176              		@ args = 0, pretend = 0, frame = 0
 177              		@ frame_needed = 0, uses_anonymous_args = 0
 178 0000 10B5     		push	{r4, lr}
 179              	.LCFI2:
 180              		.cfi_def_cfa_offset 8
 181              		.cfi_offset 4, -8
 182              		.cfi_offset 14, -4
 183 0002 82B0     		sub	sp, sp, #8
 184              	.LCFI3:
 185              		.cfi_def_cfa_offset 16
 186              		.loc 1 97 0
 187 0004 FFF7FEFF 		bl	halInit
 188              	.LVL15:
 189              		.loc 1 98 0
 190 0008 FFF7FEFF 		bl	chSysInit
 191              	.LVL16:
 192              		.loc 1 103 0
 193 000c 4FF48053 		mov	r3, #4096
 194 0010 C4F20203 		movt	r3, 16386
 195 0014 4FF40042 		mov	r2, #32768
 196 0018 1A83     		strh	r2, [r3, #24]	@ movhi
 197              		.loc 1 157 0
 198 001a 0024     		movs	r4, #0
 199              		.loc 1 108 0
 200 001c FFF7FEFF 		bl	sdcardInit
 201              	.LVL17:
 202              		.loc 1 113 0
 203 0020 FFF7FEFF 		bl	consoleInit
 204              	.LVL18:
 205              		.loc 1 123 0
 206 0024 FFF7FEFF 		bl	can_commInit
 207              	.LVL19:
 208              		.loc 1 127 0
 209 0028 FFF7FEFF 		bl	uart_commInit
 210              	.LVL20:
 211              		.loc 1 132 0
 212 002c FFF7FEFF 		bl	lightInit
 213              	.LVL21:
 214              		.loc 1 137 0
 215 0030 FFF7FEFF 		bl	speedInit
 216              	.LVL22:
 217              		.loc 1 142 0
 218 0034 FFF7FEFF 		bl	measInit
 219              	.LVL23:
 220              		.loc 1 146 0
 221 0038 FFF7FEFF 		bl	dspInit
 222              	.LVL24:
 223              		.loc 1 152 0
 224 003c FFF7FEFF 		bl	cruiseInit
 225              	.LVL25:
 226              		.loc 1 157 0
 227 0040 4FF4D871 		mov	r1, #432
ARM GAS  C:\Users\DNIEL~1\AppData\Local\Temp\ccpCQRnH.s 			page 5


 228 0044 4022     		movs	r2, #64
 229 0046 0A4B     		ldr	r3, .L15
 230 0048 0094     		str	r4, [sp, #0]
 231 004a 0A48     		ldr	r0, .L15+4
 232 004c FFF7FEFF 		bl	chThdCreateStatic
 233              	.LVL26:
 234              		.loc 1 162 0
 235 0050 0094     		str	r4, [sp, #0]
 236 0052 0948     		ldr	r0, .L15+8
 237 0054 094B     		ldr	r3, .L15+12
 238 0056 4FF49871 		mov	r1, #304
 239 005a 4022     		movs	r2, #64
 240 005c FFF7FEFF 		bl	chThdCreateStatic
 241              	.LVL27:
 242              	.L14:
 243              		.loc 1 169 0 discriminator 1
 244 0060 FFF7FEFF 		bl	consoleStart
 245              	.LVL28:
 246              		.loc 1 170 0 discriminator 1
 247 0064 4FF47A70 		mov	r0, #1000
 248 0068 FFF7FEFF 		bl	chThdSleep
 249              	.LVL29:
 250 006c F8E7     		b	.L14
 251              	.L16:
 252 006e 00BF     		.align	2
 253              	.L15:
 254 0070 00000000 		.word	task20ms
 255 0074 00000000 		.word	.LANCHOR0
 256 0078 00000000 		.word	.LANCHOR1
 257 007c 00000000 		.word	Thread1
 258              		.cfi_endproc
 259              	.LFE120:
 260              		.size	main, .-main
 261              		.section	.bss.waThread1,"aw",%nobits
 262              		.align	3
 263              		.set	.LANCHOR1,. + 0
 264              		.type	waThread1, %object
 265              		.size	waThread1, 304
 266              	waThread1:
 267 0000 00000000 		.space	304
 267      00000000 
 267      00000000 
 267      00000000 
 267      00000000 
 268              		.section	.bss.watask20ms,"aw",%nobits
 269              		.align	3
 270              		.set	.LANCHOR0,. + 0
 271              		.type	watask20ms, %object
 272              		.size	watask20ms, 432
 273              	watask20ms:
 274 0000 00000000 		.space	432
 274      00000000 
 274      00000000 
 274      00000000 
 274      00000000 
 275              		.section	.rodata.str1.4,"aMS",%progbits,1
 276              		.align	2
ARM GAS  C:\Users\DNIEL~1\AppData\Local\Temp\ccpCQRnH.s 			page 6


 277              	.LC0:
 278 0000 626C696E 		.ascii	"blinker\000"
 278      6B657200 
 279              	.LC1:
 280 0008 7461736B 		.ascii	"task20ms\000"
 280      32306D73 
 280      00
 281 0011 000000   		.text
 282              	.Letext0:
 283              		.file 2 "c:\\chibistudio\\tools\\gnu tools arm embedded\\4.7 2014q2\\bin\\../lib/gcc/arm-none-eabi
 284              		.file 3 "c:\\chibistudio\\tools\\gnu tools arm embedded\\4.7 2014q2\\bin\\../lib/gcc/arm-none-eabi
 285              		.file 4 "../../../ChibiOS/os/ports/GCC/ARMCMx/chtypes.h"
 286              		.file 5 "../../../ChibiOS/os/kernel/include/chlists.h"
 287              		.file 6 "../../../ChibiOS/os/kernel/include/chthreads.h"
 288              		.file 7 "../../../ChibiOS/os/ports/GCC/ARMCMx/chcore_v7m.h"
 289              		.file 8 "../../../ChibiOS/os/kernel/include/chvt.h"
 290              		.file 9 "../../../ChibiOS/os/kernel/include/chschd.h"
 291              		.file 10 "../../../ChibiOS/os/kernel/include/chmtx.h"
 292              		.file 11 "../../../ChibiOS/os/hal/platforms/STM32/GPIOv2/pal_lld.h"
 293              		.file 12 "../../../ChibiOS/os/ports/common/ARMCMx/CMSIS/include/core_cm4.h"
 294              		.file 13 "include/light.h"
 295              		.file 14 "include/speed.h"
 296              		.file 15 "include/meas.h"
 297              		.file 16 "include/cruise.h"
 298              		.file 17 "include/dsp.h"
 299              		.file 18 "../../../ChibiOS/os/hal/include/hal.h"
 300              		.file 19 "../../../ChibiOS/os/kernel/include/chsys.h"
 301              		.file 20 "include/sdcard.h"
 302              		.file 21 "include/console.h"
 303              		.file 22 "include/can_comm.h"
 304              		.file 23 "include/uart_comm.h"