ARM GAS  C:\Users\DNIEL~1\AppData\Local\Temp\cc69cIAG.s 			page 1


   1              		.syntax unified
   2              		.cpu cortex-m4
   3              		.fpu softvfp
   4              		.eabi_attribute 20, 1
   5              		.eabi_attribute 21, 1
   6              		.eabi_attribute 23, 3
   7              		.eabi_attribute 24, 1
   8              		.eabi_attribute 25, 1
   9              		.eabi_attribute 26, 1
  10              		.eabi_attribute 30, 2
  11              		.eabi_attribute 34, 1
  12              		.eabi_attribute 18, 4
  13              		.thumb
  14              		.file	"meas.c"
  15              		.text
  16              	.Ltext0:
  17              		.cfi_sections	.debug_frame
  18              		.section	.text.adcerrorcallback,"ax",%progbits
  19              		.align	2
  20              		.p2align 4,,15
  21              		.thumb
  22              		.thumb_func
  23              		.type	adcerrorcallback, %function
  24              	adcerrorcallback:
  25              	.LFB121:
  26              		.file 1 "src/meas.c"
  27              		.loc 1 115 0
  28              		.cfi_startproc
  29              		@ args = 0, pretend = 0, frame = 0
  30              		@ frame_needed = 0, uses_anonymous_args = 0
  31              		@ link register save eliminated.
  32              	.LVL0:
  33 0000 7047     		bx	lr
  34              		.cfi_endproc
  35              	.LFE121:
  36              		.size	adcerrorcallback, .-adcerrorcallback
  37 0002 00BFAFF3 		.section	.text.measInit,"ax",%progbits
  37      0080AFF3 
  37      0080AFF3 
  37      0080
  38              		.align	2
  39              		.p2align 4,,15
  40              		.global	measInit
  41              		.thumb
  42              		.thumb_func
  43              		.type	measInit, %function
  44              	measInit:
  45              	.LFB118:
  46              		.loc 1 48 0
  47              		.cfi_startproc
  48              		@ args = 0, pretend = 0, frame = 0
  49              		@ frame_needed = 0, uses_anonymous_args = 0
  50              		.loc 1 53 0
  51 0000 40F20000 		movw	r0, #:lower16:ADCD2
  52              		.loc 1 48 0
  53 0004 08B5     		push	{r3, lr}
  54              	.LCFI0:
ARM GAS  C:\Users\DNIEL~1\AppData\Local\Temp\cc69cIAG.s 			page 2


  55              		.cfi_def_cfa_offset 8
  56              		.cfi_offset 3, -8
  57              		.cfi_offset 14, -4
  58              		.loc 1 53 0
  59 0006 C0F20000 		movt	r0, #:upper16:ADCD2
  60 000a 0021     		movs	r1, #0
  61 000c FFF7FEFF 		bl	adcStart
  62              	.LVL1:
  63              		.loc 1 54 0
  64 0010 40F20003 		movw	r3, #:lower16:.LANCHOR0
  65 0014 C0F20003 		movt	r3, #:upper16:.LANCHOR0
  66 0018 0022     		movs	r2, #0
  67 001a 1A70     		strb	r2, [r3, #0]
  68 001c 08BD     		pop	{r3, pc}
  69              		.cfi_endproc
  70              	.LFE118:
  71              		.size	measInit, .-measInit
  72 001e 00BF     		.section	.text.measCalc,"ax",%progbits
  73              		.align	2
  74              		.p2align 4,,15
  75              		.global	measCalc
  76              		.thumb
  77              		.thumb_func
  78              		.type	measCalc, %function
  79              	measCalc:
  80              	.LFB119:
  81              		.loc 1 57 0
  82              		.cfi_startproc
  83              		@ args = 0, pretend = 0, frame = 0
  84              		@ frame_needed = 0, uses_anonymous_args = 0
  85              		@ link register save eliminated.
  86              		.loc 1 65 0
  87 0000 764A     		ldr	r2, .L9
  88 0002 1378     		ldrb	r3, [r2, #0]	@ zero_extendqisi2
  89              		.loc 1 57 0
  90 0004 2DE9F001 		push	{r4, r5, r6, r7, r8}
  91              	.LCFI1:
  92              		.cfi_def_cfa_offset 20
  93              		.cfi_offset 4, -20
  94              		.cfi_offset 5, -16
  95              		.cfi_offset 6, -12
  96              		.cfi_offset 7, -8
  97              		.cfi_offset 8, -4
  98              		.loc 1 65 0
  99 0008 4BB9     		cbnz	r3, .L8
 100              		.loc 1 68 0
 101 000a 0121     		movs	r1, #1
 102 000c 1170     		strb	r1, [r2, #0]
 103              	.LVL2:
 104              	.L4:
 105              		.loc 1 105 0
 106 000e 7448     		ldr	r0, .L9+4
 107 0010 7449     		ldr	r1, .L9+8
 108 0012 754A     		ldr	r2, .L9+12
 109 0014 0823     		movs	r3, #8
 110              	.LVL3:
 111              		.loc 1 106 0
ARM GAS  C:\Users\DNIEL~1\AppData\Local\Temp\cc69cIAG.s 			page 3


 112 0016 BDE8F001 		pop	{r4, r5, r6, r7, r8}
 113              		.loc 1 105 0
 114 001a FFF7FEBF 		b	adcConvert
 115              	.LVL4:
 116              	.L8:
 117              		.loc 1 65 0
 118 001e 012B     		cmp	r3, #1
 119 0020 F5D1     		bne	.L4
 120              	.LVL5:
 121              		.loc 1 74 0
 122 0022 714A     		ldr	r2, .L9+12
 123 0024 B2F80EC0 		ldrh	ip, [r2, #14]
 124 0028 1788     		ldrh	r7, [r2, #0]
 125              	.LVL6:
 126 002a 968B     		ldrh	r6, [r2, #28]
 127 002c 558D     		ldrh	r5, [r2, #42]
 128 002e 148F     		ldrh	r4, [r2, #56]
 129 0030 B2F84600 		ldrh	r0, [r2, #70]
 130 0034 B2F85410 		ldrh	r1, [r2, #84]
 131 0038 B2F86230 		ldrh	r3, [r2, #98]
 132 003c 6744     		add	r7, ip, r7
 133              	.LVL7:
 134 003e BE19     		adds	r6, r7, r6
 135              	.LVL8:
 136 0040 7519     		adds	r5, r6, r5
 137              	.LVL9:
 138 0042 2C19     		adds	r4, r5, r4
 139              	.LVL10:
 140 0044 2018     		adds	r0, r4, r0
 141              	.LVL11:
 142 0046 4118     		adds	r1, r0, r1
 143              	.LVL12:
 144 0048 CB18     		adds	r3, r1, r3
 145              	.LVL13:
 146              		.loc 1 76 0
 147 004a DF10     		asrs	r7, r3, #3
 148              	.LVL14:
 149              		.loc 1 79 0
 150 004c 41F2A955 		movw	r5, #5545
 151              		.loc 1 80 0
 152 0050 42F6B366 		movw	r6, #11955
 153              		.loc 1 79 0
 154 0054 05FB07F7 		mul	r7, r5, r7
 155              	.LVL15:
 156              		.loc 1 80 0
 157 0058 CAF6F606 		movt	r6, 43254
 158 005c 86FB0704 		smull	r0, r4, r6, r7
 159 0060 E019     		adds	r0, r4, r7
 160 0062 F917     		asrs	r1, r7, #31
 161 0064 C1EB6037 		rsb	r7, r1, r0, asr #13
 162              	.LVL16:
 163              	.LBB2:
 164              		.loc 1 97 0
 165 0068 2023     		movs	r3, #32
 166              	.LVL17:
 167              	@ 97 "src/meas.c" 1
 168 006a 83F31188 		msr     BASEPRI, r3
ARM GAS  C:\Users\DNIEL~1\AppData\Local\Temp\cc69cIAG.s 			page 4


 169              	@ 0 "" 2
 170              	.LVL18:
 171              		.thumb
 172              	.LBE2:
 173              		.loc 1 98 0
 174 006e 5F49     		ldr	r1, .L9+16
 175              	.LBB3:
 176              		.loc 1 99 0
 177 0070 0023     		movs	r3, #0
 178              	.LVL19:
 179              	.LBE3:
 180              		.loc 1 98 0
 181 0072 0F60     		str	r7, [r1, #0]
 182              	.LBB4:
 183              		.loc 1 99 0
 184              	@ 99 "src/meas.c" 1
 185 0074 83F31188 		msr     BASEPRI, r3
 186              	@ 0 "" 2
 187              	.LVL20:
 188              		.thumb
 189              	.LBE4:
 190              		.loc 1 74 0
 191 0078 B2F80280 		ldrh	r8, [r2, #2]
 192              	.LVL21:
 193 007c B2F810C0 		ldrh	ip, [r2, #16]
 194 0080 D78B     		ldrh	r7, [r2, #30]
 195 0082 968D     		ldrh	r6, [r2, #44]
 196 0084 558F     		ldrh	r5, [r2, #58]
 197 0086 B2F84840 		ldrh	r4, [r2, #72]
 198 008a B2F85600 		ldrh	r0, [r2, #86]
 199 008e B2F86430 		ldrh	r3, [r2, #100]
 200              	.LVL22:
 201 0092 E044     		add	r8, r8, ip
 202              	.LVL23:
 203 0094 4744     		add	r7, r8, r7
 204              	.LVL24:
 205 0096 BE19     		adds	r6, r7, r6
 206              	.LVL25:
 207 0098 7519     		adds	r5, r6, r5
 208              	.LVL26:
 209 009a 2C19     		adds	r4, r5, r4
 210              	.LVL27:
 211 009c 2018     		adds	r0, r4, r0
 212              	.LVL28:
 213 009e C718     		adds	r7, r0, r3
 214              	.LVL29:
 215              	.LBB5:
 216              		.loc 1 97 0
 217 00a0 2023     		movs	r3, #32
 218              	@ 97 "src/meas.c" 1
 219 00a2 83F31188 		msr     BASEPRI, r3
 220              	@ 0 "" 2
 221              	.LVL30:
 222              		.thumb
 223              	.LBE5:
 224              		.loc 1 98 0
 225 00a6 47F3CF03 		sbfx	r3, r7, #3, #16
ARM GAS  C:\Users\DNIEL~1\AppData\Local\Temp\cc69cIAG.s 			page 5


 226              	.LVL31:
 227 00aa 4B60     		str	r3, [r1, #4]
 228              	.LBB6:
 229              		.loc 1 99 0
 230 00ac 0023     		movs	r3, #0
 231              	@ 99 "src/meas.c" 1
 232 00ae 83F31188 		msr     BASEPRI, r3
 233              	@ 0 "" 2
 234              	.LVL32:
 235              		.thumb
 236              	.LBE6:
 237              		.loc 1 74 0
 238 00b2 B2F80480 		ldrh	r8, [r2, #4]
 239              	.LVL33:
 240 00b6 B2F812C0 		ldrh	ip, [r2, #18]
 241 00ba 178C     		ldrh	r7, [r2, #32]
 242 00bc D68D     		ldrh	r6, [r2, #46]
 243 00be 958F     		ldrh	r5, [r2, #60]
 244 00c0 B2F84A40 		ldrh	r4, [r2, #74]
 245 00c4 B2F85800 		ldrh	r0, [r2, #88]
 246 00c8 B2F86630 		ldrh	r3, [r2, #102]
 247              	.LVL34:
 248 00cc E044     		add	r8, r8, ip
 249              	.LVL35:
 250 00ce 4744     		add	r7, r8, r7
 251              	.LVL36:
 252 00d0 BE19     		adds	r6, r7, r6
 253              	.LVL37:
 254 00d2 7519     		adds	r5, r6, r5
 255              	.LVL38:
 256 00d4 2C19     		adds	r4, r5, r4
 257              	.LVL39:
 258 00d6 2018     		adds	r0, r4, r0
 259              	.LVL40:
 260 00d8 C718     		adds	r7, r0, r3
 261              	.LVL41:
 262              	.LBB7:
 263              		.loc 1 97 0
 264 00da 2023     		movs	r3, #32
 265              	@ 97 "src/meas.c" 1
 266 00dc 83F31188 		msr     BASEPRI, r3
 267              	@ 0 "" 2
 268              	.LVL42:
 269              		.thumb
 270              	.LBE7:
 271              		.loc 1 98 0
 272 00e0 47F3CF03 		sbfx	r3, r7, #3, #16
 273              	.LVL43:
 274 00e4 8B60     		str	r3, [r1, #8]
 275              	.LBB8:
 276              		.loc 1 99 0
 277 00e6 0023     		movs	r3, #0
 278              	@ 99 "src/meas.c" 1
 279 00e8 83F31188 		msr     BASEPRI, r3
 280              	@ 0 "" 2
 281              	.LVL44:
 282              		.thumb
ARM GAS  C:\Users\DNIEL~1\AppData\Local\Temp\cc69cIAG.s 			page 6


 283              	.LBE8:
 284              		.loc 1 74 0
 285 00ec B2F80680 		ldrh	r8, [r2, #6]
 286              	.LVL45:
 287 00f0 B2F814C0 		ldrh	ip, [r2, #20]
 288 00f4 578C     		ldrh	r7, [r2, #34]
 289 00f6 168E     		ldrh	r6, [r2, #48]
 290 00f8 D58F     		ldrh	r5, [r2, #62]
 291 00fa B2F84C40 		ldrh	r4, [r2, #76]
 292 00fe B2F85A00 		ldrh	r0, [r2, #90]
 293 0102 B2F86830 		ldrh	r3, [r2, #104]
 294              	.LVL46:
 295 0106 E044     		add	r8, r8, ip
 296              	.LVL47:
 297 0108 4744     		add	r7, r8, r7
 298              	.LVL48:
 299 010a BE19     		adds	r6, r7, r6
 300              	.LVL49:
 301 010c 7519     		adds	r5, r6, r5
 302              	.LVL50:
 303 010e 2C19     		adds	r4, r5, r4
 304              	.LVL51:
 305 0110 2018     		adds	r0, r4, r0
 306              	.LVL52:
 307 0112 C718     		adds	r7, r0, r3
 308              	.LVL53:
 309              	.LBB9:
 310              		.loc 1 97 0
 311 0114 2023     		movs	r3, #32
 312              	@ 97 "src/meas.c" 1
 313 0116 83F31188 		msr     BASEPRI, r3
 314              	@ 0 "" 2
 315              	.LVL54:
 316              		.thumb
 317              	.LBE9:
 318              		.loc 1 98 0
 319 011a 47F3CF03 		sbfx	r3, r7, #3, #16
 320              	.LVL55:
 321 011e CB60     		str	r3, [r1, #12]
 322              	.LBB10:
 323              		.loc 1 99 0
 324 0120 0023     		movs	r3, #0
 325              	@ 99 "src/meas.c" 1
 326 0122 83F31188 		msr     BASEPRI, r3
 327              	@ 0 "" 2
 328              	.LVL56:
 329              		.thumb
 330              	.LBE10:
 331              		.loc 1 74 0
 332 0126 B2F80880 		ldrh	r8, [r2, #8]
 333              	.LVL57:
 334 012a B2F816C0 		ldrh	ip, [r2, #22]
 335 012e 978C     		ldrh	r7, [r2, #36]
 336 0130 568E     		ldrh	r6, [r2, #50]
 337 0132 B2F84050 		ldrh	r5, [r2, #64]
 338 0136 B2F84E40 		ldrh	r4, [r2, #78]
 339 013a B2F85C00 		ldrh	r0, [r2, #92]
ARM GAS  C:\Users\DNIEL~1\AppData\Local\Temp\cc69cIAG.s 			page 7


 340 013e B2F86A30 		ldrh	r3, [r2, #106]
 341              	.LVL58:
 342 0142 E044     		add	r8, r8, ip
 343              	.LVL59:
 344 0144 4744     		add	r7, r8, r7
 345              	.LVL60:
 346 0146 BE19     		adds	r6, r7, r6
 347              	.LVL61:
 348 0148 7519     		adds	r5, r6, r5
 349              	.LVL62:
 350 014a 2C19     		adds	r4, r5, r4
 351              	.LVL63:
 352 014c 2018     		adds	r0, r4, r0
 353              	.LVL64:
 354 014e C718     		adds	r7, r0, r3
 355              	.LVL65:
 356              	.LBB11:
 357              		.loc 1 97 0
 358 0150 2023     		movs	r3, #32
 359              	@ 97 "src/meas.c" 1
 360 0152 83F31188 		msr     BASEPRI, r3
 361              	@ 0 "" 2
 362              	.LVL66:
 363              		.thumb
 364              	.LBE11:
 365              		.loc 1 98 0
 366 0156 47F3CF03 		sbfx	r3, r7, #3, #16
 367              	.LVL67:
 368 015a 0B61     		str	r3, [r1, #16]
 369              	.LBB12:
 370              		.loc 1 99 0
 371 015c 0023     		movs	r3, #0
 372              	@ 99 "src/meas.c" 1
 373 015e 83F31188 		msr     BASEPRI, r3
 374              	@ 0 "" 2
 375              	.LVL68:
 376              		.thumb
 377              	.LBE12:
 378              		.loc 1 74 0
 379 0162 B2F80A80 		ldrh	r8, [r2, #10]
 380              	.LVL69:
 381 0166 B2F818C0 		ldrh	ip, [r2, #24]
 382 016a D78C     		ldrh	r7, [r2, #38]
 383 016c 968E     		ldrh	r6, [r2, #52]
 384 016e B2F84250 		ldrh	r5, [r2, #66]
 385 0172 B2F85040 		ldrh	r4, [r2, #80]
 386 0176 B2F85E00 		ldrh	r0, [r2, #94]
 387 017a B2F86C30 		ldrh	r3, [r2, #108]
 388              	.LVL70:
 389 017e C444     		add	ip, r8, ip
 390              	.LVL71:
 391 0180 6744     		add	r7, ip, r7
 392              	.LVL72:
 393 0182 BE19     		adds	r6, r7, r6
 394              	.LVL73:
 395 0184 7519     		adds	r5, r6, r5
 396              	.LVL74:
ARM GAS  C:\Users\DNIEL~1\AppData\Local\Temp\cc69cIAG.s 			page 8


 397 0186 2C19     		adds	r4, r5, r4
 398              	.LVL75:
 399 0188 2018     		adds	r0, r4, r0
 400              	.LVL76:
 401 018a C718     		adds	r7, r0, r3
 402              	.LVL77:
 403              	.LBB13:
 404              		.loc 1 97 0
 405 018c 2023     		movs	r3, #32
 406              	@ 97 "src/meas.c" 1
 407 018e 83F31188 		msr     BASEPRI, r3
 408              	@ 0 "" 2
 409              	.LVL78:
 410              		.thumb
 411              	.LBE13:
 412              		.loc 1 98 0
 413 0192 47F3CF03 		sbfx	r3, r7, #3, #16
 414              	.LVL79:
 415 0196 4B61     		str	r3, [r1, #20]
 416              	.LBB14:
 417              		.loc 1 99 0
 418 0198 0023     		movs	r3, #0
 419              	@ 99 "src/meas.c" 1
 420 019a 83F31188 		msr     BASEPRI, r3
 421              	@ 0 "" 2
 422              	.LVL80:
 423              		.thumb
 424              	.LBE14:
 425              		.loc 1 74 0
 426 019e B2F80CC0 		ldrh	ip, [r2, #12]
 427              	.LVL81:
 428 01a2 578B     		ldrh	r7, [r2, #26]
 429 01a4 168D     		ldrh	r6, [r2, #40]
 430 01a6 D58E     		ldrh	r5, [r2, #54]
 431 01a8 B2F84440 		ldrh	r4, [r2, #68]
 432 01ac B2F85200 		ldrh	r0, [r2, #82]
 433 01b0 B2F86030 		ldrh	r3, [r2, #96]
 434              	.LVL82:
 435 01b4 B2F86E20 		ldrh	r2, [r2, #110]
 436 01b8 6744     		add	r7, ip, r7
 437              	.LVL83:
 438 01ba BE19     		adds	r6, r7, r6
 439              	.LVL84:
 440 01bc 7519     		adds	r5, r6, r5
 441              	.LVL85:
 442 01be 2C19     		adds	r4, r5, r4
 443              	.LVL86:
 444 01c0 2018     		adds	r0, r4, r0
 445              	.LVL87:
 446 01c2 C318     		adds	r3, r0, r3
 447              	.LVL88:
 448 01c4 D218     		adds	r2, r2, r3
 449              	.LVL89:
 450              	.LBB15:
 451              		.loc 1 97 0
 452 01c6 2023     		movs	r3, #32
 453              	@ 97 "src/meas.c" 1
ARM GAS  C:\Users\DNIEL~1\AppData\Local\Temp\cc69cIAG.s 			page 9


 454 01c8 83F31188 		msr     BASEPRI, r3
 455              	@ 0 "" 2
 456              	.LVL90:
 457              		.thumb
 458              	.LBE15:
 459              		.loc 1 98 0
 460 01cc 42F3CF00 		sbfx	r0, r2, #3, #16
 461 01d0 8861     		str	r0, [r1, #24]
 462              	.LBB16:
 463              		.loc 1 99 0
 464 01d2 0023     		movs	r3, #0
 465              	.LVL91:
 466              	@ 99 "src/meas.c" 1
 467 01d4 83F31188 		msr     BASEPRI, r3
 468              	@ 0 "" 2
 469              	.LVL92:
 470              		.thumb
 471 01d8 19E7     		b	.L4
 472              	.L10:
 473 01da 00BF     		.align	2
 474              	.L9:
 475 01dc 00000000 		.word	.LANCHOR0
 476 01e0 00000000 		.word	ADCD2
 477 01e4 00000000 		.word	.LANCHOR3
 478 01e8 00000000 		.word	.LANCHOR1
 479 01ec 00000000 		.word	.LANCHOR2
 480              	.LBE16:
 481              		.cfi_endproc
 482              	.LFE119:
 483              		.size	measCalc, .-measCalc
 484              		.section	.text.measGetValue,"ax",%progbits
 485              		.align	2
 486              		.p2align 4,,15
 487              		.global	measGetValue
 488              		.thumb
 489              		.thumb_func
 490              		.type	measGetValue, %function
 491              	measGetValue:
 492              	.LFB120:
 493              		.loc 1 108 0
 494              		.cfi_startproc
 495              		@ args = 0, pretend = 0, frame = 0
 496              		@ frame_needed = 0, uses_anonymous_args = 0
 497              		@ link register save eliminated.
 498              	.LVL93:
 499              		.loc 1 109 0
 500 0000 40F20003 		movw	r3, #:lower16:.LANCHOR2
 501 0004 C0F20003 		movt	r3, #:upper16:.LANCHOR2
 502              		.loc 1 110 0
 503 0008 33F92000 		ldrsh	r0, [r3, r0, lsl #2]
 504              	.LVL94:
 505 000c 7047     		bx	lr
 506              		.cfi_endproc
 507              	.LFE120:
 508              		.size	measGetValue, .-measGetValue
 509 000e 00BF     		.section	.text.cmd_measvalues,"ax",%progbits
 510              		.align	2
ARM GAS  C:\Users\DNIEL~1\AppData\Local\Temp\cc69cIAG.s 			page 10


 511              		.p2align 4,,15
 512              		.global	cmd_measvalues
 513              		.thumb
 514              		.thumb_func
 515              		.type	cmd_measvalues, %function
 516              	cmd_measvalues:
 517              	.LFB122:
 518              		.loc 1 121 0
 519              		.cfi_startproc
 520              		@ args = 0, pretend = 0, frame = 0
 521              		@ frame_needed = 0, uses_anonymous_args = 0
 522              	.LVL95:
 523 0000 38B5     		push	{r3, r4, r5, lr}
 524              	.LCFI2:
 525              		.cfi_def_cfa_offset 16
 526              		.cfi_offset 3, -16
 527              		.cfi_offset 4, -12
 528              		.cfi_offset 5, -8
 529              		.cfi_offset 14, -4
 530              		.loc 1 136 0
 531 0002 2349     		ldr	r1, .L15
 532              	.LVL96:
 533              		.loc 1 141 0
 534 0004 234D     		ldr	r5, .L15+4
 535              		.loc 1 121 0
 536 0006 0446     		mov	r4, r0
 537              		.loc 1 136 0
 538 0008 FFF7FEFF 		bl	chprintf
 539              	.LVL97:
 540              		.loc 1 137 0
 541 000c 2046     		mov	r0, r4
 542 000e 2249     		ldr	r1, .L15+8
 543 0010 FFF7FEFF 		bl	chprintf
 544              	.LVL98:
 545              		.loc 1 138 0
 546 0014 2FE0     		b	.L13
 547              	.LVL99:
 548              	.L14:
 549              		.loc 1 139 0
 550 0016 FFF7FEFF 		bl	chprintf
 551              	.LVL100:
 552              		.loc 1 141 0
 553 001a 2046     		mov	r0, r4
 554 001c 1F49     		ldr	r1, .L15+12
 555 001e 204A     		ldr	r2, .L15+16
 556 0020 2B68     		ldr	r3, [r5, #0]
 557 0022 FFF7FEFF 		bl	chprintf
 558              	.LVL101:
 559 0026 2046     		mov	r0, r4
 560 0028 1C49     		ldr	r1, .L15+12
 561 002a 1E4A     		ldr	r2, .L15+20
 562 002c 6B68     		ldr	r3, [r5, #4]
 563 002e FFF7FEFF 		bl	chprintf
 564              	.LVL102:
 565 0032 2046     		mov	r0, r4
 566 0034 1949     		ldr	r1, .L15+12
 567 0036 1C4A     		ldr	r2, .L15+24
ARM GAS  C:\Users\DNIEL~1\AppData\Local\Temp\cc69cIAG.s 			page 11


 568 0038 AB68     		ldr	r3, [r5, #8]
 569 003a FFF7FEFF 		bl	chprintf
 570              	.LVL103:
 571 003e 2046     		mov	r0, r4
 572 0040 1649     		ldr	r1, .L15+12
 573 0042 1A4A     		ldr	r2, .L15+28
 574 0044 EB68     		ldr	r3, [r5, #12]
 575 0046 FFF7FEFF 		bl	chprintf
 576              	.LVL104:
 577 004a 2046     		mov	r0, r4
 578 004c 1349     		ldr	r1, .L15+12
 579 004e 184A     		ldr	r2, .L15+32
 580 0050 2B69     		ldr	r3, [r5, #16]
 581 0052 FFF7FEFF 		bl	chprintf
 582              	.LVL105:
 583 0056 2046     		mov	r0, r4
 584 0058 1049     		ldr	r1, .L15+12
 585 005a 164A     		ldr	r2, .L15+36
 586 005c 6B69     		ldr	r3, [r5, #20]
 587 005e FFF7FEFF 		bl	chprintf
 588              	.LVL106:
 589 0062 2046     		mov	r0, r4
 590 0064 0D49     		ldr	r1, .L15+12
 591 0066 144A     		ldr	r2, .L15+40
 592 0068 AB69     		ldr	r3, [r5, #24]
 593 006a FFF7FEFF 		bl	chprintf
 594              	.LVL107:
 595              		.loc 1 143 0
 596 006e 4FF47A70 		mov	r0, #1000
 597 0072 FFF7FEFF 		bl	chThdSleep
 598              	.LVL108:
 599              	.L13:
 600              		.loc 1 138 0 discriminator 1
 601 0076 2368     		ldr	r3, [r4, #0]
 602 0078 0021     		movs	r1, #0
 603 007a 5A69     		ldr	r2, [r3, #20]
 604 007c 2046     		mov	r0, r4
 605 007e 9047     		blx	r2
 606              	.LVL109:
 607              		.loc 1 139 0 discriminator 1
 608 0080 0022     		movs	r2, #0
 609              		.loc 1 138 0 discriminator 1
 610 0082 0130     		adds	r0, r0, #1
 611              		.loc 1 139 0 discriminator 1
 612 0084 1346     		mov	r3, r2
 613 0086 0D49     		ldr	r1, .L15+44
 614 0088 2046     		mov	r0, r4
 615              		.loc 1 138 0 discriminator 1
 616 008a C4D0     		beq	.L14
 617              	.LVL110:
 618              		.loc 1 145 0
 619 008c 38BD     		pop	{r3, r4, r5, pc}
 620              	.L16:
 621 008e 00BF     		.align	2
 622              	.L15:
 623 0090 00000000 		.word	.LC0
 624 0094 00000000 		.word	.LANCHOR2
ARM GAS  C:\Users\DNIEL~1\AppData\Local\Temp\cc69cIAG.s 			page 12


 625 0098 04000000 		.word	.LC1
 626 009c 18000000 		.word	.LC3
 627 00a0 24000000 		.word	.LC4
 628 00a4 2C000000 		.word	.LC5
 629 00a8 3C000000 		.word	.LC6
 630 00ac 4C000000 		.word	.LC7
 631 00b0 54000000 		.word	.LC8
 632 00b4 5C000000 		.word	.LC9
 633 00b8 64000000 		.word	.LC10
 634 00bc 0C000000 		.word	.LC2
 635              		.cfi_endproc
 636              	.LFE122:
 637              		.size	cmd_measvalues, .-cmd_measvalues
 638              		.global	measstate
 639              		.section	.bss.measValue,"aw",%nobits
 640              		.align	2
 641              		.set	.LANCHOR2,. + 0
 642              		.type	measValue, %object
 643              		.size	measValue, 36
 644              	measValue:
 645 0000 00000000 		.space	36
 645      00000000 
 645      00000000 
 645      00000000 
 645      00000000 
 646              		.section	.bss.measstate,"aw",%nobits
 647              		.set	.LANCHOR0,. + 0
 648              		.type	measstate, %object
 649              		.size	measstate, 1
 650              	measstate:
 651 0000 00       		.space	1
 652              		.section	.rodata.str1.4,"aMS",%progbits,1
 653              		.align	2
 654              	.LC0:
 655 0000 1B6300   		.ascii	"\033c\000"
 656 0003 00       		.space	1
 657              	.LC1:
 658 0004 1B5B324A 		.ascii	"\033[2J\000"
 658      00
 659 0009 000000   		.space	3
 660              	.LC2:
 661 000c 1B5B2564 		.ascii	"\033[%d;%dH\000"
 661      3B256448 
 661      00
 662 0015 000000   		.space	3
 663              	.LC3:
 664 0018 25733A20 		.ascii	"%s: %15d\015\012\000"
 664      25313564 
 664      0D0A00
 665 0023 00       		.space	1
 666              	.LC4:
 667 0024 55424154 		.ascii	"UBAT\000"
 667      00
 668 0029 000000   		.space	3
 669              	.LC5:
 670 002c 4252414B 		.ascii	"BRAKE_PRESSURE1\000"
 670      455F5052 
ARM GAS  C:\Users\DNIEL~1\AppData\Local\Temp\cc69cIAG.s 			page 13


 670      45535355 
 670      52453100 
 671              	.LC6:
 672 003c 4252414B 		.ascii	"BRAKE_PRESSURE2\000"
 672      455F5052 
 672      45535355 
 672      52453200 
 673              	.LC7:
 674 004c 53454E32 		.ascii	"SEN2\000"
 674      00
 675 0051 000000   		.space	3
 676              	.LC8:
 677 0054 53454E33 		.ascii	"SEN3\000"
 677      00
 678 0059 000000   		.space	3
 679              	.LC9:
 680 005c 53454E34 		.ascii	"SEN4\000"
 680      00
 681 0061 000000   		.space	3
 682              	.LC10:
 683 0064 53454E35 		.ascii	"SEN5\000"
 683      00
 684 0069 000000   		.section	.rodata.adcgrpcfg,"a",%progbits
 685              		.align	2
 686              		.set	.LANCHOR3,. + 0
 687              		.type	adcgrpcfg, %object
 688              		.size	adcgrpcfg, 44
 689              	adcgrpcfg:
 690 0000 00000000 		.word	0
 691 0004 0700     		.short	7
 692 0006 0000     		.space	2
 693 0008 00000000 		.word	0
 694 000c 00000000 		.word	adcerrorcallback
 695 0010 00000000 		.word	0
 696 0014 00000040 		.word	1073741824
 697 0018 49920000 		.word	37449
 698 001c 00000001 		.word	16777216
 699 0020 00006000 		.word	6291456
 700 0024 08000000 		.word	8
 701 0028 4E2DD61E 		.word	517352782
 702              		.section	.bss.samples,"aw",%nobits
 703              		.align	2
 704              		.set	.LANCHOR1,. + 0
 705              		.type	samples, %object
 706              		.size	samples, 112
 707              	samples:
 708 0000 00000000 		.space	112
 708      00000000 
 708      00000000 
 708      00000000 
 708      00000000 
 709              		.text
 710              	.Letext0:
 711              		.file 2 "c:\\chibistudio\\tools\\gnu tools arm embedded\\4.7 2014q2\\bin\\../lib/gcc/arm-none-eabi
 712              		.file 3 "c:\\chibistudio\\tools\\gnu tools arm embedded\\4.7 2014q2\\bin\\../lib/gcc/arm-none-eabi
 713              		.file 4 "../../../ChibiOS/os/ports/GCC/ARMCMx/chtypes.h"
 714              		.file 5 "../../../ChibiOS/os/kernel/include/chlists.h"
ARM GAS  C:\Users\DNIEL~1\AppData\Local\Temp\cc69cIAG.s 			page 14


 715              		.file 6 "../../../ChibiOS/os/kernel/include/chthreads.h"
 716              		.file 7 "../../../ChibiOS/os/ports/GCC/ARMCMx/chcore_v7m.h"
 717              		.file 8 "../../../ChibiOS/os/kernel/include/chmtx.h"
 718              		.file 9 "../../../ChibiOS/os/kernel/include/chstreams.h"
 719              		.file 10 "../../../ChibiOS/os/hal/platforms/STM32F4xx/stm32f4xx.h"
 720              		.file 11 "../../../ChibiOS/os/hal/platforms/STM32F4xx/stm32_dma.h"
 721              		.file 12 "../../../ChibiOS/os/hal/include/io_channel.h"
 722              		.file 13 "../../../ChibiOS/os/hal/include/adc.h"
 723              		.file 14 "../../../ChibiOS/os/hal/platforms/STM32F4xx/adc_lld.h"
 724              		.file 15 "include/meas.h"
 725              		.file 16 "../../../ChibiOS/os/ports/common/ARMCMx/CMSIS/include/core_cm4.h"
 726              		.file 17 "../../../ChibiOS/os/various/chprintf.h"
 727              		.section	.debug_info,"",%progbits
 728              	.Ldebug_info0:
 729 0000 1B0F0000 		.4byte	0xf1b
 730 0004 0200     		.2byte	0x2
 731 0006 00000000 		.4byte	.Ldebug_abbrev0
 732 000a 04       		.byte	0x4
 733 000b 01       		.uleb128 0x1
 734 000c 12030000 		.4byte	.LASF155
 735 0010 01       		.byte	0x1
 736 0011 FE020000 		.4byte	.LASF156
 737 0015 93050000 		.4byte	.LASF157
 738 0019 88000000 		.4byte	.Ldebug_ranges0+0x88
 739 001d 00000000 		.4byte	0
 740 0021 00000000 		.4byte	0
 741 0025 00000000 		.4byte	.Ldebug_line0
 742 0029 02       		.uleb128 0x2
 743 002a 04       		.byte	0x4
 744 002b 05       		.byte	0x5
 745 002c 696E7400 		.ascii	"int\000"
 746 0030 03       		.uleb128 0x3
 747 0031 05000000 		.4byte	.LASF2
 748 0035 02       		.byte	0x2
 749 0036 D5       		.byte	0xd5
 750 0037 3B000000 		.4byte	0x3b
 751 003b 04       		.uleb128 0x4
 752 003c 04       		.byte	0x4
 753 003d 07       		.byte	0x7
 754 003e F3010000 		.4byte	.LASF0
 755 0042 04       		.uleb128 0x4
 756 0043 01       		.byte	0x1
 757 0044 06       		.byte	0x6
 758 0045 B6000000 		.4byte	.LASF1
 759 0049 03       		.uleb128 0x3
 760 004a D0050000 		.4byte	.LASF3
 761 004e 03       		.byte	0x3
 762 004f 2A       		.byte	0x2a
 763 0050 54000000 		.4byte	0x54
 764 0054 04       		.uleb128 0x4
 765 0055 01       		.byte	0x1
 766 0056 08       		.byte	0x8
 767 0057 EE030000 		.4byte	.LASF4
 768 005b 03       		.uleb128 0x3
 769 005c A0000000 		.4byte	.LASF5
 770 0060 03       		.byte	0x3
 771 0061 35       		.byte	0x35
ARM GAS  C:\Users\DNIEL~1\AppData\Local\Temp\cc69cIAG.s 			page 15


 772 0062 66000000 		.4byte	0x66
 773 0066 04       		.uleb128 0x4
 774 0067 02       		.byte	0x2
 775 0068 05       		.byte	0x5
 776 0069 13040000 		.4byte	.LASF6
 777 006d 03       		.uleb128 0x3
 778 006e 43010000 		.4byte	.LASF7
 779 0072 03       		.byte	0x3
 780 0073 36       		.byte	0x36
 781 0074 78000000 		.4byte	0x78
 782 0078 04       		.uleb128 0x4
 783 0079 02       		.byte	0x2
 784 007a 07       		.byte	0x7
 785 007b 4E020000 		.4byte	.LASF8
 786 007f 03       		.uleb128 0x3
 787 0080 E6030000 		.4byte	.LASF9
 788 0084 03       		.byte	0x3
 789 0085 4F       		.byte	0x4f
 790 0086 8A000000 		.4byte	0x8a
 791 008a 04       		.uleb128 0x4
 792 008b 04       		.byte	0x4
 793 008c 05       		.byte	0x5
 794 008d 04010000 		.4byte	.LASF10
 795 0091 03       		.uleb128 0x3
 796 0092 B1040000 		.4byte	.LASF11
 797 0096 03       		.byte	0x3
 798 0097 50       		.byte	0x50
 799 0098 9C000000 		.4byte	0x9c
 800 009c 04       		.uleb128 0x4
 801 009d 04       		.byte	0x4
 802 009e 07       		.byte	0x7
 803 009f CA040000 		.4byte	.LASF12
 804 00a3 04       		.uleb128 0x4
 805 00a4 08       		.byte	0x8
 806 00a5 05       		.byte	0x5
 807 00a6 A8000000 		.4byte	.LASF13
 808 00aa 04       		.uleb128 0x4
 809 00ab 08       		.byte	0x8
 810 00ac 07       		.byte	0x7
 811 00ad 34000000 		.4byte	.LASF14
 812 00b1 03       		.uleb128 0x3
 813 00b2 CA000000 		.4byte	.LASF15
 814 00b6 04       		.byte	0x4
 815 00b7 27       		.byte	0x27
 816 00b8 7F000000 		.4byte	0x7f
 817 00bc 03       		.uleb128 0x3
 818 00bd 95020000 		.4byte	.LASF16
 819 00c1 04       		.byte	0x4
 820 00c2 28       		.byte	0x28
 821 00c3 49000000 		.4byte	0x49
 822 00c7 03       		.uleb128 0x3
 823 00c8 33010000 		.4byte	.LASF17
 824 00cc 04       		.byte	0x4
 825 00cd 29       		.byte	0x29
 826 00ce 49000000 		.4byte	0x49
 827 00d2 03       		.uleb128 0x3
 828 00d3 A1030000 		.4byte	.LASF18
ARM GAS  C:\Users\DNIEL~1\AppData\Local\Temp\cc69cIAG.s 			page 16


 829 00d7 04       		.byte	0x4
 830 00d8 2A       		.byte	0x2a
 831 00d9 49000000 		.4byte	0x49
 832 00dd 03       		.uleb128 0x3
 833 00de C0040000 		.4byte	.LASF19
 834 00e2 04       		.byte	0x4
 835 00e3 2B       		.byte	0x2b
 836 00e4 49000000 		.4byte	0x49
 837 00e8 03       		.uleb128 0x3
 838 00e9 CE030000 		.4byte	.LASF20
 839 00ed 04       		.byte	0x4
 840 00ee 2C       		.byte	0x2c
 841 00ef 91000000 		.4byte	0x91
 842 00f3 03       		.uleb128 0x3
 843 00f4 7B020000 		.4byte	.LASF21
 844 00f8 04       		.byte	0x4
 845 00f9 2D       		.byte	0x2d
 846 00fa 7F000000 		.4byte	0x7f
 847 00fe 03       		.uleb128 0x3
 848 00ff B6020000 		.4byte	.LASF22
 849 0103 04       		.byte	0x4
 850 0104 2F       		.byte	0x2f
 851 0105 91000000 		.4byte	0x91
 852 0109 03       		.uleb128 0x3
 853 010a 26050000 		.4byte	.LASF23
 854 010e 04       		.byte	0x4
 855 010f 31       		.byte	0x31
 856 0110 91000000 		.4byte	0x91
 857 0114 03       		.uleb128 0x3
 858 0115 83040000 		.4byte	.LASF24
 859 0119 05       		.byte	0x5
 860 011a 23       		.byte	0x23
 861 011b 1F010000 		.4byte	0x11f
 862 011f 05       		.uleb128 0x5
 863 0120 83040000 		.4byte	.LASF24
 864 0124 48       		.byte	0x48
 865 0125 06       		.byte	0x6
 866 0126 57       		.byte	0x57
 867 0127 44020000 		.4byte	0x244
 868 012b 06       		.uleb128 0x6
 869 012c 3F040000 		.4byte	.LASF25
 870 0130 06       		.byte	0x6
 871 0131 58       		.byte	0x58
 872 0132 69020000 		.4byte	0x269
 873 0136 02       		.byte	0x2
 874 0137 23       		.byte	0x23
 875 0138 00       		.uleb128 0
 876 0139 06       		.uleb128 0x6
 877 013a B4030000 		.4byte	.LASF26
 878 013e 06       		.byte	0x6
 879 013f 5A       		.byte	0x5a
 880 0140 69020000 		.4byte	0x269
 881 0144 02       		.byte	0x2
 882 0145 23       		.byte	0x23
 883 0146 04       		.uleb128 0x4
 884 0147 06       		.uleb128 0x6
 885 0148 8E000000 		.4byte	.LASF27
ARM GAS  C:\Users\DNIEL~1\AppData\Local\Temp\cc69cIAG.s 			page 17


 886 014c 06       		.byte	0x6
 887 014d 5C       		.byte	0x5c
 888 014e E8000000 		.4byte	0xe8
 889 0152 02       		.byte	0x2
 890 0153 23       		.byte	0x23
 891 0154 08       		.uleb128 0x8
 892 0155 06       		.uleb128 0x6
 893 0156 4A060000 		.4byte	.LASF28
 894 015a 06       		.byte	0x6
 895 015b 5D       		.byte	0x5d
 896 015c 37030000 		.4byte	0x337
 897 0160 02       		.byte	0x2
 898 0161 23       		.byte	0x23
 899 0162 0C       		.uleb128 0xc
 900 0163 06       		.uleb128 0x6
 901 0164 5F010000 		.4byte	.LASF29
 902 0168 06       		.byte	0x6
 903 0169 5F       		.byte	0x5f
 904 016a 69020000 		.4byte	0x269
 905 016e 02       		.byte	0x2
 906 016f 23       		.byte	0x23
 907 0170 10       		.uleb128 0x10
 908 0171 06       		.uleb128 0x6
 909 0172 5B030000 		.4byte	.LASF30
 910 0176 06       		.byte	0x6
 911 0177 60       		.byte	0x60
 912 0178 69020000 		.4byte	0x269
 913 017c 02       		.byte	0x2
 914 017d 23       		.byte	0x23
 915 017e 14       		.uleb128 0x14
 916 017f 06       		.uleb128 0x6
 917 0180 85050000 		.4byte	.LASF31
 918 0184 06       		.byte	0x6
 919 0185 67       		.byte	0x67
 920 0186 E8030000 		.4byte	0x3e8
 921 018a 02       		.byte	0x2
 922 018b 23       		.byte	0x23
 923 018c 18       		.uleb128 0x18
 924 018d 06       		.uleb128 0x6
 925 018e 1D040000 		.4byte	.LASF32
 926 0192 06       		.byte	0x6
 927 0193 72       		.byte	0x72
 928 0194 C7000000 		.4byte	0xc7
 929 0198 02       		.byte	0x2
 930 0199 23       		.byte	0x23
 931 019a 1C       		.uleb128 0x1c
 932 019b 06       		.uleb128 0x6
 933 019c 5E040000 		.4byte	.LASF33
 934 01a0 06       		.byte	0x6
 935 01a1 76       		.byte	0x76
 936 01a2 BC000000 		.4byte	0xbc
 937 01a6 02       		.byte	0x2
 938 01a7 23       		.byte	0x23
 939 01a8 1D       		.uleb128 0x1d
 940 01a9 06       		.uleb128 0x6
 941 01aa 8C050000 		.4byte	.LASF34
 942 01ae 06       		.byte	0x6
ARM GAS  C:\Users\DNIEL~1\AppData\Local\Temp\cc69cIAG.s 			page 18


 943 01af 7B       		.byte	0x7b
 944 01b0 D2000000 		.4byte	0xd2
 945 01b4 02       		.byte	0x2
 946 01b5 23       		.byte	0x23
 947 01b6 1E       		.uleb128 0x1e
 948 01b7 06       		.uleb128 0x6
 949 01b8 25040000 		.4byte	.LASF35
 950 01bc 06       		.byte	0x6
 951 01bd 81       		.byte	0x81
 952 01be DD000000 		.4byte	0xdd
 953 01c2 02       		.byte	0x2
 954 01c3 23       		.byte	0x23
 955 01c4 1F       		.uleb128 0x1f
 956 01c5 06       		.uleb128 0x6
 957 01c6 4C010000 		.4byte	.LASF36
 958 01ca 06       		.byte	0x6
 959 01cb 88       		.byte	0x88
 960 01cc 66030000 		.4byte	0x366
 961 01d0 02       		.byte	0x2
 962 01d1 23       		.byte	0x23
 963 01d2 20       		.uleb128 0x20
 964 01d3 07       		.uleb128 0x7
 965 01d4 705F7500 		.ascii	"p_u\000"
 966 01d8 06       		.byte	0x6
 967 01d9 AD       		.byte	0xad
 968 01da B3030000 		.4byte	0x3b3
 969 01de 02       		.byte	0x2
 970 01df 23       		.byte	0x23
 971 01e0 24       		.uleb128 0x24
 972 01e1 06       		.uleb128 0x6
 973 01e2 50060000 		.4byte	.LASF37
 974 01e6 06       		.byte	0x6
 975 01e7 B2       		.byte	0xb2
 976 01e8 91020000 		.4byte	0x291
 977 01ec 02       		.byte	0x2
 978 01ed 23       		.byte	0x23
 979 01ee 28       		.uleb128 0x28
 980 01ef 06       		.uleb128 0x6
 981 01f0 28020000 		.4byte	.LASF38
 982 01f4 06       		.byte	0x6
 983 01f5 B8       		.byte	0xb8
 984 01f6 6F020000 		.4byte	0x26f
 985 01fa 02       		.byte	0x2
 986 01fb 23       		.byte	0x23
 987 01fc 2C       		.uleb128 0x2c
 988 01fd 06       		.uleb128 0x6
 989 01fe 37060000 		.4byte	.LASF39
 990 0202 06       		.byte	0x6
 991 0203 BC       		.byte	0xbc
 992 0204 F3000000 		.4byte	0xf3
 993 0208 02       		.byte	0x2
 994 0209 23       		.byte	0x23
 995 020a 34       		.uleb128 0x34
 996 020b 06       		.uleb128 0x6
 997 020c 9B040000 		.4byte	.LASF40
 998 0210 06       		.byte	0x6
 999 0211 C2       		.byte	0xc2
ARM GAS  C:\Users\DNIEL~1\AppData\Local\Temp\cc69cIAG.s 			page 19


 1000 0212 FE000000 		.4byte	0xfe
 1001 0216 02       		.byte	0x2
 1002 0217 23       		.byte	0x23
 1003 0218 38       		.uleb128 0x38
 1004 0219 06       		.uleb128 0x6
 1005 021a 09040000 		.4byte	.LASF41
 1006 021e 06       		.byte	0x6
 1007 021f C9       		.byte	0xc9
 1008 0220 FA030000 		.4byte	0x3fa
 1009 0224 02       		.byte	0x2
 1010 0225 23       		.byte	0x23
 1011 0226 3C       		.uleb128 0x3c
 1012 0227 06       		.uleb128 0x6
 1013 0228 30050000 		.4byte	.LASF42
 1014 022c 06       		.byte	0x6
 1015 022d CD       		.byte	0xcd
 1016 022e E8000000 		.4byte	0xe8
 1017 0232 02       		.byte	0x2
 1018 0233 23       		.byte	0x23
 1019 0234 40       		.uleb128 0x40
 1020 0235 06       		.uleb128 0x6
 1021 0236 C2000000 		.4byte	.LASF43
 1022 023a 06       		.byte	0x6
 1023 023b D3       		.byte	0xd3
 1024 023c A7020000 		.4byte	0x2a7
 1025 0240 02       		.byte	0x2
 1026 0241 23       		.byte	0x23
 1027 0242 44       		.uleb128 0x44
 1028 0243 00       		.byte	0
 1029 0244 08       		.uleb128 0x8
 1030 0245 08       		.byte	0x8
 1031 0246 05       		.byte	0x5
 1032 0247 5A       		.byte	0x5a
 1033 0248 69020000 		.4byte	0x269
 1034 024c 06       		.uleb128 0x6
 1035 024d 3F040000 		.4byte	.LASF25
 1036 0251 05       		.byte	0x5
 1037 0252 5B       		.byte	0x5b
 1038 0253 69020000 		.4byte	0x269
 1039 0257 02       		.byte	0x2
 1040 0258 23       		.byte	0x23
 1041 0259 00       		.uleb128 0
 1042 025a 06       		.uleb128 0x6
 1043 025b B4030000 		.4byte	.LASF26
 1044 025f 05       		.byte	0x5
 1045 0260 5D       		.byte	0x5d
 1046 0261 69020000 		.4byte	0x269
 1047 0265 02       		.byte	0x2
 1048 0266 23       		.byte	0x23
 1049 0267 04       		.uleb128 0x4
 1050 0268 00       		.byte	0
 1051 0269 09       		.uleb128 0x9
 1052 026a 04       		.byte	0x4
 1053 026b 14010000 		.4byte	0x114
 1054 026f 03       		.uleb128 0x3
 1055 0270 63030000 		.4byte	.LASF44
 1056 0274 05       		.byte	0x5
ARM GAS  C:\Users\DNIEL~1\AppData\Local\Temp\cc69cIAG.s 			page 20


 1057 0275 5F       		.byte	0x5f
 1058 0276 44020000 		.4byte	0x244
 1059 027a 08       		.uleb128 0x8
 1060 027b 04       		.byte	0x4
 1061 027c 05       		.byte	0x5
 1062 027d 64       		.byte	0x64
 1063 027e 91020000 		.4byte	0x291
 1064 0282 06       		.uleb128 0x6
 1065 0283 3F040000 		.4byte	.LASF25
 1066 0287 05       		.byte	0x5
 1067 0288 66       		.byte	0x66
 1068 0289 69020000 		.4byte	0x269
 1069 028d 02       		.byte	0x2
 1070 028e 23       		.byte	0x23
 1071 028f 00       		.uleb128 0
 1072 0290 00       		.byte	0
 1073 0291 03       		.uleb128 0x3
 1074 0292 AA020000 		.4byte	.LASF45
 1075 0296 05       		.byte	0x5
 1076 0297 69       		.byte	0x69
 1077 0298 7A020000 		.4byte	0x27a
 1078 029c 03       		.uleb128 0x3
 1079 029d 9D010000 		.4byte	.LASF46
 1080 02a1 07       		.byte	0x7
 1081 02a2 DE       		.byte	0xde
 1082 02a3 A7020000 		.4byte	0x2a7
 1083 02a7 0A       		.uleb128 0xa
 1084 02a8 04       		.byte	0x4
 1085 02a9 0B       		.uleb128 0xb
 1086 02aa 5B050000 		.4byte	.LASF47
 1087 02ae 24       		.byte	0x24
 1088 02af 07       		.byte	0x7
 1089 02b0 0501     		.2byte	0x105
 1090 02b2 37030000 		.4byte	0x337
 1091 02b6 0C       		.uleb128 0xc
 1092 02b7 723400   		.ascii	"r4\000"
 1093 02ba 07       		.byte	0x7
 1094 02bb 1801     		.2byte	0x118
 1095 02bd 9C020000 		.4byte	0x29c
 1096 02c1 02       		.byte	0x2
 1097 02c2 23       		.byte	0x23
 1098 02c3 00       		.uleb128 0
 1099 02c4 0C       		.uleb128 0xc
 1100 02c5 723500   		.ascii	"r5\000"
 1101 02c8 07       		.byte	0x7
 1102 02c9 1901     		.2byte	0x119
 1103 02cb 9C020000 		.4byte	0x29c
 1104 02cf 02       		.byte	0x2
 1105 02d0 23       		.byte	0x23
 1106 02d1 04       		.uleb128 0x4
 1107 02d2 0C       		.uleb128 0xc
 1108 02d3 723600   		.ascii	"r6\000"
 1109 02d6 07       		.byte	0x7
 1110 02d7 1A01     		.2byte	0x11a
 1111 02d9 9C020000 		.4byte	0x29c
 1112 02dd 02       		.byte	0x2
 1113 02de 23       		.byte	0x23
ARM GAS  C:\Users\DNIEL~1\AppData\Local\Temp\cc69cIAG.s 			page 21


 1114 02df 08       		.uleb128 0x8
 1115 02e0 0C       		.uleb128 0xc
 1116 02e1 723700   		.ascii	"r7\000"
 1117 02e4 07       		.byte	0x7
 1118 02e5 1B01     		.2byte	0x11b
 1119 02e7 9C020000 		.4byte	0x29c
 1120 02eb 02       		.byte	0x2
 1121 02ec 23       		.byte	0x23
 1122 02ed 0C       		.uleb128 0xc
 1123 02ee 0C       		.uleb128 0xc
 1124 02ef 723800   		.ascii	"r8\000"
 1125 02f2 07       		.byte	0x7
 1126 02f3 1C01     		.2byte	0x11c
 1127 02f5 9C020000 		.4byte	0x29c
 1128 02f9 02       		.byte	0x2
 1129 02fa 23       		.byte	0x23
 1130 02fb 10       		.uleb128 0x10
 1131 02fc 0C       		.uleb128 0xc
 1132 02fd 723900   		.ascii	"r9\000"
 1133 0300 07       		.byte	0x7
 1134 0301 1D01     		.2byte	0x11d
 1135 0303 9C020000 		.4byte	0x29c
 1136 0307 02       		.byte	0x2
 1137 0308 23       		.byte	0x23
 1138 0309 14       		.uleb128 0x14
 1139 030a 0C       		.uleb128 0xc
 1140 030b 72313000 		.ascii	"r10\000"
 1141 030f 07       		.byte	0x7
 1142 0310 1E01     		.2byte	0x11e
 1143 0312 9C020000 		.4byte	0x29c
 1144 0316 02       		.byte	0x2
 1145 0317 23       		.byte	0x23
 1146 0318 18       		.uleb128 0x18
 1147 0319 0C       		.uleb128 0xc
 1148 031a 72313100 		.ascii	"r11\000"
 1149 031e 07       		.byte	0x7
 1150 031f 1F01     		.2byte	0x11f
 1151 0321 9C020000 		.4byte	0x29c
 1152 0325 02       		.byte	0x2
 1153 0326 23       		.byte	0x23
 1154 0327 1C       		.uleb128 0x1c
 1155 0328 0C       		.uleb128 0xc
 1156 0329 6C7200   		.ascii	"lr\000"
 1157 032c 07       		.byte	0x7
 1158 032d 2001     		.2byte	0x120
 1159 032f 9C020000 		.4byte	0x29c
 1160 0333 02       		.byte	0x2
 1161 0334 23       		.byte	0x23
 1162 0335 20       		.uleb128 0x20
 1163 0336 00       		.byte	0
 1164 0337 0B       		.uleb128 0xb
 1165 0338 53050000 		.4byte	.LASF48
 1166 033c 04       		.byte	0x4
 1167 033d 07       		.byte	0x7
 1168 033e 2A01     		.2byte	0x12a
 1169 0340 54030000 		.4byte	0x354
 1170 0344 0C       		.uleb128 0xc
ARM GAS  C:\Users\DNIEL~1\AppData\Local\Temp\cc69cIAG.s 			page 22


 1171 0345 72313300 		.ascii	"r13\000"
 1172 0349 07       		.byte	0x7
 1173 034a 2B01     		.2byte	0x12b
 1174 034c 54030000 		.4byte	0x354
 1175 0350 02       		.byte	0x2
 1176 0351 23       		.byte	0x23
 1177 0352 00       		.uleb128 0
 1178 0353 00       		.byte	0
 1179 0354 09       		.uleb128 0x9
 1180 0355 04       		.byte	0x4
 1181 0356 A9020000 		.4byte	0x2a9
 1182 035a 0D       		.uleb128 0xd
 1183 035b 91000000 		.4byte	0x91
 1184 035f 04       		.uleb128 0x4
 1185 0360 04       		.byte	0x4
 1186 0361 07       		.byte	0x7
 1187 0362 EF020000 		.4byte	.LASF49
 1188 0366 0D       		.uleb128 0xd
 1189 0367 09010000 		.4byte	0x109
 1190 036b 05       		.uleb128 0x5
 1191 036c F8020000 		.4byte	.LASF50
 1192 0370 10       		.byte	0x10
 1193 0371 08       		.byte	0x8
 1194 0372 25       		.byte	0x25
 1195 0373 A2030000 		.4byte	0x3a2
 1196 0377 06       		.uleb128 0x6
 1197 0378 D1000000 		.4byte	.LASF51
 1198 037c 08       		.byte	0x8
 1199 037d 26       		.byte	0x26
 1200 037e 6F020000 		.4byte	0x26f
 1201 0382 02       		.byte	0x2
 1202 0383 23       		.byte	0x23
 1203 0384 00       		.uleb128 0
 1204 0385 06       		.uleb128 0x6
 1205 0386 42060000 		.4byte	.LASF52
 1206 038a 08       		.byte	0x8
 1207 038b 28       		.byte	0x28
 1208 038c 69020000 		.4byte	0x269
 1209 0390 02       		.byte	0x2
 1210 0391 23       		.byte	0x23
 1211 0392 08       		.uleb128 0x8
 1212 0393 06       		.uleb128 0x6
 1213 0394 7C030000 		.4byte	.LASF53
 1214 0398 08       		.byte	0x8
 1215 0399 2A       		.byte	0x2a
 1216 039a A2030000 		.4byte	0x3a2
 1217 039e 02       		.byte	0x2
 1218 039f 23       		.byte	0x23
 1219 03a0 0C       		.uleb128 0xc
 1220 03a1 00       		.byte	0
 1221 03a2 09       		.uleb128 0x9
 1222 03a3 04       		.byte	0x4
 1223 03a4 6B030000 		.4byte	0x36b
 1224 03a8 03       		.uleb128 0x3
 1225 03a9 F8020000 		.4byte	.LASF50
 1226 03ad 08       		.byte	0x8
 1227 03ae 2C       		.byte	0x2c
ARM GAS  C:\Users\DNIEL~1\AppData\Local\Temp\cc69cIAG.s 			page 23


 1228 03af 6B030000 		.4byte	0x36b
 1229 03b3 0E       		.uleb128 0xe
 1230 03b4 04       		.byte	0x4
 1231 03b5 06       		.byte	0x6
 1232 03b6 8F       		.byte	0x8f
 1233 03b7 E8030000 		.4byte	0x3e8
 1234 03bb 0F       		.uleb128 0xf
 1235 03bc 0C000000 		.4byte	.LASF54
 1236 03c0 06       		.byte	0x6
 1237 03c1 96       		.byte	0x96
 1238 03c2 F3000000 		.4byte	0xf3
 1239 03c6 0F       		.uleb128 0xf
 1240 03c7 5A000000 		.4byte	.LASF55
 1241 03cb 06       		.byte	0x6
 1242 03cc 9D       		.byte	0x9d
 1243 03cd F3000000 		.4byte	0xf3
 1244 03d1 0F       		.uleb128 0xf
 1245 03d2 0B060000 		.4byte	.LASF56
 1246 03d6 06       		.byte	0x6
 1247 03d7 A4       		.byte	0xa4
 1248 03d8 A7020000 		.4byte	0x2a7
 1249 03dc 0F       		.uleb128 0xf
 1250 03dd 38040000 		.4byte	.LASF57
 1251 03e1 06       		.byte	0x6
 1252 03e2 AB       		.byte	0xab
 1253 03e3 FE000000 		.4byte	0xfe
 1254 03e7 00       		.byte	0
 1255 03e8 09       		.uleb128 0x9
 1256 03e9 04       		.byte	0x4
 1257 03ea EE030000 		.4byte	0x3ee
 1258 03ee 10       		.uleb128 0x10
 1259 03ef F3030000 		.4byte	0x3f3
 1260 03f3 04       		.uleb128 0x4
 1261 03f4 01       		.byte	0x1
 1262 03f5 08       		.byte	0x8
 1263 03f6 E1040000 		.4byte	.LASF58
 1264 03fa 09       		.uleb128 0x9
 1265 03fb 04       		.byte	0x4
 1266 03fc A8030000 		.4byte	0x3a8
 1267 0400 09       		.uleb128 0x9
 1268 0401 04       		.byte	0x4
 1269 0402 06040000 		.4byte	0x406
 1270 0406 11       		.uleb128 0x11
 1271 0407 01       		.byte	0x1
 1272 0408 F3000000 		.4byte	0xf3
 1273 040c 16040000 		.4byte	0x416
 1274 0410 12       		.uleb128 0x12
 1275 0411 A7020000 		.4byte	0x2a7
 1276 0415 00       		.byte	0
 1277 0416 09       		.uleb128 0x9
 1278 0417 04       		.byte	0x4
 1279 0418 49000000 		.4byte	0x49
 1280 041c 05       		.uleb128 0x5
 1281 041d 46040000 		.4byte	.LASF59
 1282 0421 10       		.byte	0x10
 1283 0422 09       		.byte	0x9
 1284 0423 41       		.byte	0x41
ARM GAS  C:\Users\DNIEL~1\AppData\Local\Temp\cc69cIAG.s 			page 24


 1285 0424 61040000 		.4byte	0x461
 1286 0428 06       		.uleb128 0x6
 1287 0429 CB020000 		.4byte	.LASF60
 1288 042d 09       		.byte	0x9
 1289 042e 42       		.byte	0x42
 1290 042f 86040000 		.4byte	0x486
 1291 0433 02       		.byte	0x2
 1292 0434 23       		.byte	0x23
 1293 0435 00       		.uleb128 0
 1294 0436 06       		.uleb128 0x6
 1295 0437 DC040000 		.4byte	.LASF61
 1296 043b 09       		.byte	0x9
 1297 043c 42       		.byte	0x42
 1298 043d A6040000 		.4byte	0x4a6
 1299 0441 02       		.byte	0x2
 1300 0442 23       		.byte	0x23
 1301 0443 04       		.uleb128 0x4
 1302 0444 07       		.uleb128 0x7
 1303 0445 70757400 		.ascii	"put\000"
 1304 0449 09       		.byte	0x9
 1305 044a 42       		.byte	0x42
 1306 044b C1040000 		.4byte	0x4c1
 1307 044f 02       		.byte	0x2
 1308 0450 23       		.byte	0x23
 1309 0451 08       		.uleb128 0x8
 1310 0452 07       		.uleb128 0x7
 1311 0453 67657400 		.ascii	"get\000"
 1312 0457 09       		.byte	0x9
 1313 0458 42       		.byte	0x42
 1314 0459 00040000 		.4byte	0x400
 1315 045d 02       		.byte	0x2
 1316 045e 23       		.byte	0x23
 1317 045f 0C       		.uleb128 0xc
 1318 0460 00       		.byte	0
 1319 0461 11       		.uleb128 0x11
 1320 0462 01       		.byte	0x1
 1321 0463 30000000 		.4byte	0x30
 1322 0467 7B040000 		.4byte	0x47b
 1323 046b 12       		.uleb128 0x12
 1324 046c A7020000 		.4byte	0x2a7
 1325 0470 12       		.uleb128 0x12
 1326 0471 7B040000 		.4byte	0x47b
 1327 0475 12       		.uleb128 0x12
 1328 0476 30000000 		.4byte	0x30
 1329 047a 00       		.byte	0
 1330 047b 09       		.uleb128 0x9
 1331 047c 04       		.byte	0x4
 1332 047d 81040000 		.4byte	0x481
 1333 0481 10       		.uleb128 0x10
 1334 0482 49000000 		.4byte	0x49
 1335 0486 09       		.uleb128 0x9
 1336 0487 04       		.byte	0x4
 1337 0488 61040000 		.4byte	0x461
 1338 048c 11       		.uleb128 0x11
 1339 048d 01       		.byte	0x1
 1340 048e 30000000 		.4byte	0x30
 1341 0492 A6040000 		.4byte	0x4a6
ARM GAS  C:\Users\DNIEL~1\AppData\Local\Temp\cc69cIAG.s 			page 25


 1342 0496 12       		.uleb128 0x12
 1343 0497 A7020000 		.4byte	0x2a7
 1344 049b 12       		.uleb128 0x12
 1345 049c 16040000 		.4byte	0x416
 1346 04a0 12       		.uleb128 0x12
 1347 04a1 30000000 		.4byte	0x30
 1348 04a5 00       		.byte	0
 1349 04a6 09       		.uleb128 0x9
 1350 04a7 04       		.byte	0x4
 1351 04a8 8C040000 		.4byte	0x48c
 1352 04ac 11       		.uleb128 0x11
 1353 04ad 01       		.byte	0x1
 1354 04ae F3000000 		.4byte	0xf3
 1355 04b2 C1040000 		.4byte	0x4c1
 1356 04b6 12       		.uleb128 0x12
 1357 04b7 A7020000 		.4byte	0x2a7
 1358 04bb 12       		.uleb128 0x12
 1359 04bc 49000000 		.4byte	0x49
 1360 04c0 00       		.byte	0
 1361 04c1 09       		.uleb128 0x9
 1362 04c2 04       		.byte	0x4
 1363 04c3 AC040000 		.4byte	0x4ac
 1364 04c7 08       		.uleb128 0x8
 1365 04c8 04       		.byte	0x4
 1366 04c9 09       		.byte	0x9
 1367 04ca 4A       		.byte	0x4a
 1368 04cb DE040000 		.4byte	0x4de
 1369 04cf 07       		.uleb128 0x7
 1370 04d0 766D7400 		.ascii	"vmt\000"
 1371 04d4 09       		.byte	0x9
 1372 04d5 4C       		.byte	0x4c
 1373 04d6 DE040000 		.4byte	0x4de
 1374 04da 02       		.byte	0x2
 1375 04db 23       		.byte	0x23
 1376 04dc 00       		.uleb128 0
 1377 04dd 00       		.byte	0
 1378 04de 09       		.uleb128 0x9
 1379 04df 04       		.byte	0x4
 1380 04e0 E4040000 		.4byte	0x4e4
 1381 04e4 10       		.uleb128 0x10
 1382 04e5 1C040000 		.4byte	0x41c
 1383 04e9 03       		.uleb128 0x3
 1384 04ea DE010000 		.4byte	.LASF62
 1385 04ee 09       		.byte	0x9
 1386 04ef 4E       		.byte	0x4e
 1387 04f0 C7040000 		.4byte	0x4c7
 1388 04f4 0D       		.uleb128 0xd
 1389 04f5 7F000000 		.4byte	0x7f
 1390 04f9 13       		.uleb128 0x13
 1391 04fa 50       		.byte	0x50
 1392 04fb 0A       		.byte	0xa
 1393 04fc 2C01     		.2byte	0x12c
 1394 04fe 2D060000 		.4byte	0x62d
 1395 0502 0C       		.uleb128 0xc
 1396 0503 535200   		.ascii	"SR\000"
 1397 0506 0A       		.byte	0xa
 1398 0507 2E01     		.2byte	0x12e
ARM GAS  C:\Users\DNIEL~1\AppData\Local\Temp\cc69cIAG.s 			page 26


 1399 0509 5A030000 		.4byte	0x35a
 1400 050d 02       		.byte	0x2
 1401 050e 23       		.byte	0x23
 1402 050f 00       		.uleb128 0
 1403 0510 0C       		.uleb128 0xc
 1404 0511 43523100 		.ascii	"CR1\000"
 1405 0515 0A       		.byte	0xa
 1406 0516 2F01     		.2byte	0x12f
 1407 0518 5A030000 		.4byte	0x35a
 1408 051c 02       		.byte	0x2
 1409 051d 23       		.byte	0x23
 1410 051e 04       		.uleb128 0x4
 1411 051f 0C       		.uleb128 0xc
 1412 0520 43523200 		.ascii	"CR2\000"
 1413 0524 0A       		.byte	0xa
 1414 0525 3001     		.2byte	0x130
 1415 0527 5A030000 		.4byte	0x35a
 1416 052b 02       		.byte	0x2
 1417 052c 23       		.byte	0x23
 1418 052d 08       		.uleb128 0x8
 1419 052e 14       		.uleb128 0x14
 1420 052f 70030000 		.4byte	.LASF63
 1421 0533 0A       		.byte	0xa
 1422 0534 3101     		.2byte	0x131
 1423 0536 5A030000 		.4byte	0x35a
 1424 053a 02       		.byte	0x2
 1425 053b 23       		.byte	0x23
 1426 053c 0C       		.uleb128 0xc
 1427 053d 14       		.uleb128 0x14
 1428 053e 76030000 		.4byte	.LASF64
 1429 0542 0A       		.byte	0xa
 1430 0543 3201     		.2byte	0x132
 1431 0545 5A030000 		.4byte	0x35a
 1432 0549 02       		.byte	0x2
 1433 054a 23       		.byte	0x23
 1434 054b 10       		.uleb128 0x10
 1435 054c 14       		.uleb128 0x14
 1436 054d CA050000 		.4byte	.LASF65
 1437 0551 0A       		.byte	0xa
 1438 0552 3301     		.2byte	0x133
 1439 0554 5A030000 		.4byte	0x35a
 1440 0558 02       		.byte	0x2
 1441 0559 23       		.byte	0x23
 1442 055a 14       		.uleb128 0x14
 1443 055b 14       		.uleb128 0x14
 1444 055c DB020000 		.4byte	.LASF66
 1445 0560 0A       		.byte	0xa
 1446 0561 3401     		.2byte	0x134
 1447 0563 5A030000 		.4byte	0x35a
 1448 0567 02       		.byte	0x2
 1449 0568 23       		.byte	0x23
 1450 0569 18       		.uleb128 0x18
 1451 056a 14       		.uleb128 0x14
 1452 056b E1020000 		.4byte	.LASF67
 1453 056f 0A       		.byte	0xa
 1454 0570 3501     		.2byte	0x135
 1455 0572 5A030000 		.4byte	0x35a
ARM GAS  C:\Users\DNIEL~1\AppData\Local\Temp\cc69cIAG.s 			page 27


 1456 0576 02       		.byte	0x2
 1457 0577 23       		.byte	0x23
 1458 0578 1C       		.uleb128 0x1c
 1459 0579 14       		.uleb128 0x14
 1460 057a 71040000 		.4byte	.LASF68
 1461 057e 0A       		.byte	0xa
 1462 057f 3601     		.2byte	0x136
 1463 0581 5A030000 		.4byte	0x35a
 1464 0585 02       		.byte	0x2
 1465 0586 23       		.byte	0x23
 1466 0587 20       		.uleb128 0x20
 1467 0588 0C       		.uleb128 0xc
 1468 0589 48545200 		.ascii	"HTR\000"
 1469 058d 0A       		.byte	0xa
 1470 058e 3701     		.2byte	0x137
 1471 0590 5A030000 		.4byte	0x35a
 1472 0594 02       		.byte	0x2
 1473 0595 23       		.byte	0x23
 1474 0596 24       		.uleb128 0x24
 1475 0597 0C       		.uleb128 0xc
 1476 0598 4C545200 		.ascii	"LTR\000"
 1477 059c 0A       		.byte	0xa
 1478 059d 3801     		.2byte	0x138
 1479 059f 5A030000 		.4byte	0x35a
 1480 05a3 02       		.byte	0x2
 1481 05a4 23       		.byte	0x23
 1482 05a5 28       		.uleb128 0x28
 1483 05a6 14       		.uleb128 0x14
 1484 05a7 83030000 		.4byte	.LASF69
 1485 05ab 0A       		.byte	0xa
 1486 05ac 3901     		.2byte	0x139
 1487 05ae 5A030000 		.4byte	0x35a
 1488 05b2 02       		.byte	0x2
 1489 05b3 23       		.byte	0x23
 1490 05b4 2C       		.uleb128 0x2c
 1491 05b5 14       		.uleb128 0x14
 1492 05b6 88030000 		.4byte	.LASF70
 1493 05ba 0A       		.byte	0xa
 1494 05bb 3A01     		.2byte	0x13a
 1495 05bd 5A030000 		.4byte	0x35a
 1496 05c1 02       		.byte	0x2
 1497 05c2 23       		.byte	0x23
 1498 05c3 30       		.uleb128 0x30
 1499 05c4 14       		.uleb128 0x14
 1500 05c5 8D030000 		.4byte	.LASF71
 1501 05c9 0A       		.byte	0xa
 1502 05ca 3B01     		.2byte	0x13b
 1503 05cc 5A030000 		.4byte	0x35a
 1504 05d0 02       		.byte	0x2
 1505 05d1 23       		.byte	0x23
 1506 05d2 34       		.uleb128 0x34
 1507 05d3 14       		.uleb128 0x14
 1508 05d4 9B000000 		.4byte	.LASF72
 1509 05d8 0A       		.byte	0xa
 1510 05d9 3C01     		.2byte	0x13c
 1511 05db 5A030000 		.4byte	0x35a
 1512 05df 02       		.byte	0x2
ARM GAS  C:\Users\DNIEL~1\AppData\Local\Temp\cc69cIAG.s 			page 28


 1513 05e0 23       		.byte	0x23
 1514 05e1 38       		.uleb128 0x38
 1515 05e2 14       		.uleb128 0x14
 1516 05e3 F7050000 		.4byte	.LASF73
 1517 05e7 0A       		.byte	0xa
 1518 05e8 3D01     		.2byte	0x13d
 1519 05ea 5A030000 		.4byte	0x35a
 1520 05ee 02       		.byte	0x2
 1521 05ef 23       		.byte	0x23
 1522 05f0 3C       		.uleb128 0x3c
 1523 05f1 14       		.uleb128 0x14
 1524 05f2 FC050000 		.4byte	.LASF74
 1525 05f6 0A       		.byte	0xa
 1526 05f7 3E01     		.2byte	0x13e
 1527 05f9 5A030000 		.4byte	0x35a
 1528 05fd 02       		.byte	0x2
 1529 05fe 23       		.byte	0x23
 1530 05ff 40       		.uleb128 0x40
 1531 0600 14       		.uleb128 0x14
 1532 0601 01060000 		.4byte	.LASF75
 1533 0605 0A       		.byte	0xa
 1534 0606 3F01     		.2byte	0x13f
 1535 0608 5A030000 		.4byte	0x35a
 1536 060c 02       		.byte	0x2
 1537 060d 23       		.byte	0x23
 1538 060e 44       		.uleb128 0x44
 1539 060f 14       		.uleb128 0x14
 1540 0610 06060000 		.4byte	.LASF76
 1541 0614 0A       		.byte	0xa
 1542 0615 4001     		.2byte	0x140
 1543 0617 5A030000 		.4byte	0x35a
 1544 061b 02       		.byte	0x2
 1545 061c 23       		.byte	0x23
 1546 061d 48       		.uleb128 0x48
 1547 061e 0C       		.uleb128 0xc
 1548 061f 445200   		.ascii	"DR\000"
 1549 0622 0A       		.byte	0xa
 1550 0623 4101     		.2byte	0x141
 1551 0625 5A030000 		.4byte	0x35a
 1552 0629 02       		.byte	0x2
 1553 062a 23       		.byte	0x23
 1554 062b 4C       		.uleb128 0x4c
 1555 062c 00       		.byte	0
 1556 062d 15       		.uleb128 0x15
 1557 062e 53010000 		.4byte	.LASF77
 1558 0632 0A       		.byte	0xa
 1559 0633 4201     		.2byte	0x142
 1560 0635 F9040000 		.4byte	0x4f9
 1561 0639 13       		.uleb128 0x13
 1562 063a 18       		.byte	0x18
 1563 063b 0A       		.byte	0xa
 1564 063c D301     		.2byte	0x1d3
 1565 063e 9C060000 		.4byte	0x69c
 1566 0642 0C       		.uleb128 0xc
 1567 0643 435200   		.ascii	"CR\000"
 1568 0646 0A       		.byte	0xa
 1569 0647 D501     		.2byte	0x1d5
ARM GAS  C:\Users\DNIEL~1\AppData\Local\Temp\cc69cIAG.s 			page 29


 1570 0649 5A030000 		.4byte	0x35a
 1571 064d 02       		.byte	0x2
 1572 064e 23       		.byte	0x23
 1573 064f 00       		.uleb128 0
 1574 0650 14       		.uleb128 0x14
 1575 0651 3B050000 		.4byte	.LASF78
 1576 0655 0A       		.byte	0xa
 1577 0656 D601     		.2byte	0x1d6
 1578 0658 5A030000 		.4byte	0x35a
 1579 065c 02       		.byte	0x2
 1580 065d 23       		.byte	0x23
 1581 065e 04       		.uleb128 0x4
 1582 065f 0C       		.uleb128 0xc
 1583 0660 50415200 		.ascii	"PAR\000"
 1584 0664 0A       		.byte	0xa
 1585 0665 D701     		.2byte	0x1d7
 1586 0667 5A030000 		.4byte	0x35a
 1587 066b 02       		.byte	0x2
 1588 066c 23       		.byte	0x23
 1589 066d 08       		.uleb128 0x8
 1590 066e 14       		.uleb128 0x14
 1591 066f 00000000 		.4byte	.LASF79
 1592 0673 0A       		.byte	0xa
 1593 0674 D801     		.2byte	0x1d8
 1594 0676 5A030000 		.4byte	0x35a
 1595 067a 02       		.byte	0x2
 1596 067b 23       		.byte	0x23
 1597 067c 0C       		.uleb128 0xc
 1598 067d 14       		.uleb128 0x14
 1599 067e 62050000 		.4byte	.LASF80
 1600 0682 0A       		.byte	0xa
 1601 0683 D901     		.2byte	0x1d9
 1602 0685 5A030000 		.4byte	0x35a
 1603 0689 02       		.byte	0x2
 1604 068a 23       		.byte	0x23
 1605 068b 10       		.uleb128 0x10
 1606 068c 0C       		.uleb128 0xc
 1607 068d 46435200 		.ascii	"FCR\000"
 1608 0691 0A       		.byte	0xa
 1609 0692 DA01     		.2byte	0x1da
 1610 0694 5A030000 		.4byte	0x35a
 1611 0698 02       		.byte	0x2
 1612 0699 23       		.byte	0x23
 1613 069a 14       		.uleb128 0x14
 1614 069b 00       		.byte	0
 1615 069c 15       		.uleb128 0x15
 1616 069d 40050000 		.4byte	.LASF81
 1617 06a1 0A       		.byte	0xa
 1618 06a2 DB01     		.2byte	0x1db
 1619 06a4 39060000 		.4byte	0x639
 1620 06a8 08       		.uleb128 0x8
 1621 06a9 0C       		.byte	0xc
 1622 06aa 0B       		.byte	0xb
 1623 06ab DE       		.byte	0xde
 1624 06ac F7060000 		.4byte	0x6f7
 1625 06b0 06       		.uleb128 0x6
 1626 06b1 2D000000 		.4byte	.LASF82
ARM GAS  C:\Users\DNIEL~1\AppData\Local\Temp\cc69cIAG.s 			page 30


 1627 06b5 0B       		.byte	0xb
 1628 06b6 DF       		.byte	0xdf
 1629 06b7 F7060000 		.4byte	0x6f7
 1630 06bb 02       		.byte	0x2
 1631 06bc 23       		.byte	0x23
 1632 06bd 00       		.uleb128 0
 1633 06be 06       		.uleb128 0x6
 1634 06bf A6040000 		.4byte	.LASF83
 1635 06c3 0B       		.byte	0xb
 1636 06c4 E0       		.byte	0xe0
 1637 06c5 FD060000 		.4byte	0x6fd
 1638 06c9 02       		.byte	0x2
 1639 06ca 23       		.byte	0x23
 1640 06cb 04       		.uleb128 0x4
 1641 06cc 06       		.uleb128 0x6
 1642 06cd 47020000 		.4byte	.LASF84
 1643 06d1 0B       		.byte	0xb
 1644 06d2 E1       		.byte	0xe1
 1645 06d3 49000000 		.4byte	0x49
 1646 06d7 02       		.byte	0x2
 1647 06d8 23       		.byte	0x23
 1648 06d9 08       		.uleb128 0x8
 1649 06da 06       		.uleb128 0x6
 1650 06db A6010000 		.4byte	.LASF85
 1651 06df 0B       		.byte	0xb
 1652 06e0 E3       		.byte	0xe3
 1653 06e1 49000000 		.4byte	0x49
 1654 06e5 02       		.byte	0x2
 1655 06e6 23       		.byte	0x23
 1656 06e7 09       		.uleb128 0x9
 1657 06e8 06       		.uleb128 0x6
 1658 06e9 26000000 		.4byte	.LASF86
 1659 06ed 0B       		.byte	0xb
 1660 06ee E4       		.byte	0xe4
 1661 06ef 49000000 		.4byte	0x49
 1662 06f3 02       		.byte	0x2
 1663 06f4 23       		.byte	0x23
 1664 06f5 0A       		.uleb128 0xa
 1665 06f6 00       		.byte	0
 1666 06f7 09       		.uleb128 0x9
 1667 06f8 04       		.byte	0x4
 1668 06f9 9C060000 		.4byte	0x69c
 1669 06fd 09       		.uleb128 0x9
 1670 06fe 04       		.byte	0x4
 1671 06ff 5A030000 		.4byte	0x35a
 1672 0703 03       		.uleb128 0x3
 1673 0704 BB030000 		.4byte	.LASF87
 1674 0708 0B       		.byte	0xb
 1675 0709 E5       		.byte	0xe5
 1676 070a A8060000 		.4byte	0x6a8
 1677 070e 05       		.uleb128 0x5
 1678 070f 4B000000 		.4byte	.LASF88
 1679 0713 20       		.byte	0x20
 1680 0714 0C       		.byte	0xc
 1681 0715 46       		.byte	0x46
 1682 0716 8B070000 		.4byte	0x78b
 1683 071a 06       		.uleb128 0x6
ARM GAS  C:\Users\DNIEL~1\AppData\Local\Temp\cc69cIAG.s 			page 31


 1684 071b CB020000 		.4byte	.LASF60
 1685 071f 0C       		.byte	0xc
 1686 0720 47       		.byte	0x47
 1687 0721 86040000 		.4byte	0x486
 1688 0725 02       		.byte	0x2
 1689 0726 23       		.byte	0x23
 1690 0727 00       		.uleb128 0
 1691 0728 06       		.uleb128 0x6
 1692 0729 DC040000 		.4byte	.LASF61
 1693 072d 0C       		.byte	0xc
 1694 072e 47       		.byte	0x47
 1695 072f A6040000 		.4byte	0x4a6
 1696 0733 02       		.byte	0x2
 1697 0734 23       		.byte	0x23
 1698 0735 04       		.uleb128 0x4
 1699 0736 07       		.uleb128 0x7
 1700 0737 70757400 		.ascii	"put\000"
 1701 073b 0C       		.byte	0xc
 1702 073c 47       		.byte	0x47
 1703 073d C1040000 		.4byte	0x4c1
 1704 0741 02       		.byte	0x2
 1705 0742 23       		.byte	0x23
 1706 0743 08       		.uleb128 0x8
 1707 0744 07       		.uleb128 0x7
 1708 0745 67657400 		.ascii	"get\000"
 1709 0749 0C       		.byte	0xc
 1710 074a 47       		.byte	0x47
 1711 074b 00040000 		.4byte	0x400
 1712 074f 02       		.byte	0x2
 1713 0750 23       		.byte	0x23
 1714 0751 0C       		.uleb128 0xc
 1715 0752 06       		.uleb128 0x6
 1716 0753 D6020000 		.4byte	.LASF89
 1717 0757 0C       		.byte	0xc
 1718 0758 47       		.byte	0x47
 1719 0759 A5070000 		.4byte	0x7a5
 1720 075d 02       		.byte	0x2
 1721 075e 23       		.byte	0x23
 1722 075f 10       		.uleb128 0x10
 1723 0760 06       		.uleb128 0x6
 1724 0761 42020000 		.4byte	.LASF90
 1725 0765 0C       		.byte	0xc
 1726 0766 47       		.byte	0x47
 1727 0767 C0070000 		.4byte	0x7c0
 1728 076b 02       		.byte	0x2
 1729 076c 23       		.byte	0x23
 1730 076d 14       		.uleb128 0x14
 1731 076e 06       		.uleb128 0x6
 1732 076f 8E020000 		.4byte	.LASF91
 1733 0773 0C       		.byte	0xc
 1734 0774 47       		.byte	0x47
 1735 0775 E5070000 		.4byte	0x7e5
 1736 0779 02       		.byte	0x2
 1737 077a 23       		.byte	0x23
 1738 077b 18       		.uleb128 0x18
 1739 077c 06       		.uleb128 0x6
 1740 077d 95000000 		.4byte	.LASF92
ARM GAS  C:\Users\DNIEL~1\AppData\Local\Temp\cc69cIAG.s 			page 32


 1741 0781 0C       		.byte	0xc
 1742 0782 47       		.byte	0x47
 1743 0783 0A080000 		.4byte	0x80a
 1744 0787 02       		.byte	0x2
 1745 0788 23       		.byte	0x23
 1746 0789 1C       		.uleb128 0x1c
 1747 078a 00       		.byte	0
 1748 078b 11       		.uleb128 0x11
 1749 078c 01       		.byte	0x1
 1750 078d F3000000 		.4byte	0xf3
 1751 0791 A5070000 		.4byte	0x7a5
 1752 0795 12       		.uleb128 0x12
 1753 0796 A7020000 		.4byte	0x2a7
 1754 079a 12       		.uleb128 0x12
 1755 079b 49000000 		.4byte	0x49
 1756 079f 12       		.uleb128 0x12
 1757 07a0 09010000 		.4byte	0x109
 1758 07a4 00       		.byte	0
 1759 07a5 09       		.uleb128 0x9
 1760 07a6 04       		.byte	0x4
 1761 07a7 8B070000 		.4byte	0x78b
 1762 07ab 11       		.uleb128 0x11
 1763 07ac 01       		.byte	0x1
 1764 07ad F3000000 		.4byte	0xf3
 1765 07b1 C0070000 		.4byte	0x7c0
 1766 07b5 12       		.uleb128 0x12
 1767 07b6 A7020000 		.4byte	0x2a7
 1768 07ba 12       		.uleb128 0x12
 1769 07bb 09010000 		.4byte	0x109
 1770 07bf 00       		.byte	0
 1771 07c0 09       		.uleb128 0x9
 1772 07c1 04       		.byte	0x4
 1773 07c2 AB070000 		.4byte	0x7ab
 1774 07c6 11       		.uleb128 0x11
 1775 07c7 01       		.byte	0x1
 1776 07c8 30000000 		.4byte	0x30
 1777 07cc E5070000 		.4byte	0x7e5
 1778 07d0 12       		.uleb128 0x12
 1779 07d1 A7020000 		.4byte	0x2a7
 1780 07d5 12       		.uleb128 0x12
 1781 07d6 7B040000 		.4byte	0x47b
 1782 07da 12       		.uleb128 0x12
 1783 07db 30000000 		.4byte	0x30
 1784 07df 12       		.uleb128 0x12
 1785 07e0 09010000 		.4byte	0x109
 1786 07e4 00       		.byte	0
 1787 07e5 09       		.uleb128 0x9
 1788 07e6 04       		.byte	0x4
 1789 07e7 C6070000 		.4byte	0x7c6
 1790 07eb 11       		.uleb128 0x11
 1791 07ec 01       		.byte	0x1
 1792 07ed 30000000 		.4byte	0x30
 1793 07f1 0A080000 		.4byte	0x80a
 1794 07f5 12       		.uleb128 0x12
 1795 07f6 A7020000 		.4byte	0x2a7
 1796 07fa 12       		.uleb128 0x12
 1797 07fb 16040000 		.4byte	0x416
ARM GAS  C:\Users\DNIEL~1\AppData\Local\Temp\cc69cIAG.s 			page 33


 1798 07ff 12       		.uleb128 0x12
 1799 0800 30000000 		.4byte	0x30
 1800 0804 12       		.uleb128 0x12
 1801 0805 09010000 		.4byte	0x109
 1802 0809 00       		.byte	0
 1803 080a 09       		.uleb128 0x9
 1804 080b 04       		.byte	0x4
 1805 080c EB070000 		.4byte	0x7eb
 1806 0810 08       		.uleb128 0x8
 1807 0811 04       		.byte	0x4
 1808 0812 0C       		.byte	0xc
 1809 0813 51       		.byte	0x51
 1810 0814 27080000 		.4byte	0x827
 1811 0818 07       		.uleb128 0x7
 1812 0819 766D7400 		.ascii	"vmt\000"
 1813 081d 0C       		.byte	0xc
 1814 081e 53       		.byte	0x53
 1815 081f 27080000 		.4byte	0x827
 1816 0823 02       		.byte	0x2
 1817 0824 23       		.byte	0x23
 1818 0825 00       		.uleb128 0
 1819 0826 00       		.byte	0
 1820 0827 09       		.uleb128 0x9
 1821 0828 04       		.byte	0x4
 1822 0829 2D080000 		.4byte	0x82d
 1823 082d 10       		.uleb128 0x10
 1824 082e 0E070000 		.4byte	0x70e
 1825 0832 03       		.uleb128 0x3
 1826 0833 EB050000 		.4byte	.LASF93
 1827 0837 0C       		.byte	0xc
 1828 0838 55       		.byte	0x55
 1829 0839 10080000 		.4byte	0x810
 1830 083d 16       		.uleb128 0x16
 1831 083e 01       		.byte	0x1
 1832 083f 0D       		.byte	0xd
 1833 0840 4E       		.byte	0x4e
 1834 0841 6A080000 		.4byte	0x86a
 1835 0845 17       		.uleb128 0x17
 1836 0846 63000000 		.4byte	.LASF94
 1837 084a 00       		.sleb128 0
 1838 084b 17       		.uleb128 0x17
 1839 084c 09030000 		.4byte	.LASF95
 1840 0850 01       		.sleb128 1
 1841 0851 17       		.uleb128 0x17
 1842 0852 61020000 		.4byte	.LASF96
 1843 0856 02       		.sleb128 2
 1844 0857 17       		.uleb128 0x17
 1845 0858 66040000 		.4byte	.LASF97
 1846 085c 03       		.sleb128 3
 1847 085d 17       		.uleb128 0x17
 1848 085e 12060000 		.4byte	.LASF98
 1849 0862 04       		.sleb128 4
 1850 0863 17       		.uleb128 0x17
 1851 0864 67050000 		.4byte	.LASF99
 1852 0868 05       		.sleb128 5
 1853 0869 00       		.byte	0
 1854 086a 03       		.uleb128 0x3
ARM GAS  C:\Users\DNIEL~1\AppData\Local\Temp\cc69cIAG.s 			page 34


 1855 086b 1B000000 		.4byte	.LASF100
 1856 086f 0D       		.byte	0xd
 1857 0870 55       		.byte	0x55
 1858 0871 3D080000 		.4byte	0x83d
 1859 0875 15       		.uleb128 0x15
 1860 0876 87010000 		.4byte	.LASF101
 1861 087a 0E       		.byte	0xe
 1862 087b 2B01     		.2byte	0x12b
 1863 087d 6D000000 		.4byte	0x6d
 1864 0881 15       		.uleb128 0x15
 1865 0882 24060000 		.4byte	.LASF102
 1866 0886 0E       		.byte	0xe
 1867 0887 3001     		.2byte	0x130
 1868 0889 6D000000 		.4byte	0x6d
 1869 088d 18       		.uleb128 0x18
 1870 088e 01       		.byte	0x1
 1871 088f 0E       		.byte	0xe
 1872 0890 3701     		.2byte	0x137
 1873 0892 A3080000 		.4byte	0x8a3
 1874 0896 17       		.uleb128 0x17
 1875 0897 0D010000 		.4byte	.LASF103
 1876 089b 00       		.sleb128 0
 1877 089c 17       		.uleb128 0x17
 1878 089d BC010000 		.4byte	.LASF104
 1879 08a1 01       		.sleb128 1
 1880 08a2 00       		.byte	0
 1881 08a3 15       		.uleb128 0x15
 1882 08a4 E3000000 		.4byte	.LASF105
 1883 08a8 0E       		.byte	0xe
 1884 08a9 3A01     		.2byte	0x13a
 1885 08ab 8D080000 		.4byte	0x88d
 1886 08af 15       		.uleb128 0x15
 1887 08b0 33020000 		.4byte	.LASF106
 1888 08b4 0E       		.byte	0xe
 1889 08b5 3F01     		.2byte	0x13f
 1890 08b7 BB080000 		.4byte	0x8bb
 1891 08bb 0B       		.uleb128 0xb
 1892 08bc 33020000 		.4byte	.LASF106
 1893 08c0 34       		.byte	0x34
 1894 08c1 0E       		.byte	0xe
 1895 08c2 A301     		.2byte	0x1a3
 1896 08c4 5F090000 		.4byte	0x95f
 1897 08c8 14       		.uleb128 0x14
 1898 08c9 F5000000 		.4byte	.LASF107
 1899 08cd 0E       		.byte	0xe
 1900 08ce A701     		.2byte	0x1a7
 1901 08d0 6A080000 		.4byte	0x86a
 1902 08d4 02       		.byte	0x2
 1903 08d5 23       		.byte	0x23
 1904 08d6 00       		.uleb128 0
 1905 08d7 14       		.uleb128 0x14
 1906 08d8 E6040000 		.4byte	.LASF108
 1907 08dc 0E       		.byte	0xe
 1908 08dd AB01     		.2byte	0x1ab
 1909 08df 960A0000 		.4byte	0xa96
 1910 08e3 02       		.byte	0x2
 1911 08e4 23       		.byte	0x23
ARM GAS  C:\Users\DNIEL~1\AppData\Local\Temp\cc69cIAG.s 			page 35


 1912 08e5 04       		.uleb128 0x4
 1913 08e6 14       		.uleb128 0x14
 1914 08e7 E7020000 		.4byte	.LASF109
 1915 08eb 0E       		.byte	0xe
 1916 08ec AF01     		.2byte	0x1af
 1917 08ee 8D090000 		.4byte	0x98d
 1918 08f2 02       		.byte	0x2
 1919 08f3 23       		.byte	0x23
 1920 08f4 08       		.uleb128 0x8
 1921 08f5 14       		.uleb128 0x14
 1922 08f6 75020000 		.4byte	.LASF110
 1923 08fa 0E       		.byte	0xe
 1924 08fb B301     		.2byte	0x1b3
 1925 08fd 30000000 		.4byte	0x30
 1926 0901 02       		.byte	0x2
 1927 0902 23       		.byte	0x23
 1928 0903 0C       		.uleb128 0xc
 1929 0904 14       		.uleb128 0x14
 1930 0905 D1020000 		.4byte	.LASF111
 1931 0909 0E       		.byte	0xe
 1932 090a B701     		.2byte	0x1b7
 1933 090c A10A0000 		.4byte	0xaa1
 1934 0910 02       		.byte	0x2
 1935 0911 23       		.byte	0x23
 1936 0912 10       		.uleb128 0x10
 1937 0913 14       		.uleb128 0x14
 1938 0914 3C010000 		.4byte	.LASF112
 1939 0918 0E       		.byte	0xe
 1940 0919 BC01     		.2byte	0x1bc
 1941 091b 69020000 		.4byte	0x269
 1942 091f 02       		.byte	0x2
 1943 0920 23       		.byte	0x23
 1944 0921 14       		.uleb128 0x14
 1945 0922 14       		.uleb128 0x14
 1946 0923 E0030000 		.4byte	.LASF113
 1947 0927 0E       		.byte	0xe
 1948 0928 C301     		.2byte	0x1c3
 1949 092a A8030000 		.4byte	0x3a8
 1950 092e 02       		.byte	0x2
 1951 092f 23       		.byte	0x23
 1952 0930 18       		.uleb128 0x18
 1953 0931 0C       		.uleb128 0xc
 1954 0932 61646300 		.ascii	"adc\000"
 1955 0936 0E       		.byte	0xe
 1956 0937 CF01     		.2byte	0x1cf
 1957 0939 AC0A0000 		.4byte	0xaac
 1958 093d 02       		.byte	0x2
 1959 093e 23       		.byte	0x23
 1960 093f 28       		.uleb128 0x28
 1961 0940 14       		.uleb128 0x14
 1962 0941 EE000000 		.4byte	.LASF114
 1963 0945 0E       		.byte	0xe
 1964 0946 D301     		.2byte	0x1d3
 1965 0948 B20A0000 		.4byte	0xab2
 1966 094c 02       		.byte	0x2
 1967 094d 23       		.byte	0x23
 1968 094e 2C       		.uleb128 0x2c
ARM GAS  C:\Users\DNIEL~1\AppData\Local\Temp\cc69cIAG.s 			page 36


 1969 094f 14       		.uleb128 0x14
 1970 0950 13000000 		.4byte	.LASF115
 1971 0954 0E       		.byte	0xe
 1972 0955 D701     		.2byte	0x1d7
 1973 0957 91000000 		.4byte	0x91
 1974 095b 02       		.byte	0x2
 1975 095c 23       		.byte	0x23
 1976 095d 30       		.uleb128 0x30
 1977 095e 00       		.byte	0
 1978 095f 15       		.uleb128 0x15
 1979 0960 6E010000 		.4byte	.LASF116
 1980 0964 0E       		.byte	0xe
 1981 0965 4901     		.2byte	0x149
 1982 0967 6B090000 		.4byte	0x96b
 1983 096b 09       		.uleb128 0x9
 1984 096c 04       		.byte	0x4
 1985 096d 71090000 		.4byte	0x971
 1986 0971 19       		.uleb128 0x19
 1987 0972 01       		.byte	0x1
 1988 0973 87090000 		.4byte	0x987
 1989 0977 12       		.uleb128 0x12
 1990 0978 87090000 		.4byte	0x987
 1991 097c 12       		.uleb128 0x12
 1992 097d 8D090000 		.4byte	0x98d
 1993 0981 12       		.uleb128 0x12
 1994 0982 30000000 		.4byte	0x30
 1995 0986 00       		.byte	0
 1996 0987 09       		.uleb128 0x9
 1997 0988 04       		.byte	0x4
 1998 0989 AF080000 		.4byte	0x8af
 1999 098d 09       		.uleb128 0x9
 2000 098e 04       		.byte	0x4
 2001 098f 75080000 		.4byte	0x875
 2002 0993 15       		.uleb128 0x15
 2003 0994 20010000 		.4byte	.LASF117
 2004 0998 0E       		.byte	0xe
 2005 0999 5201     		.2byte	0x152
 2006 099b 9F090000 		.4byte	0x99f
 2007 099f 09       		.uleb128 0x9
 2008 09a0 04       		.byte	0x4
 2009 09a1 A5090000 		.4byte	0x9a5
 2010 09a5 19       		.uleb128 0x19
 2011 09a6 01       		.byte	0x1
 2012 09a7 B6090000 		.4byte	0x9b6
 2013 09ab 12       		.uleb128 0x12
 2014 09ac 87090000 		.4byte	0x987
 2015 09b0 12       		.uleb128 0x12
 2016 09b1 A3080000 		.4byte	0x8a3
 2017 09b5 00       		.byte	0
 2018 09b6 13       		.uleb128 0x13
 2019 09b7 2C       		.byte	0x2c
 2020 09b8 0E       		.byte	0xe
 2021 09b9 5C01     		.2byte	0x15c
 2022 09bb 650A0000 		.4byte	0xa65
 2023 09bf 14       		.uleb128 0x14
 2024 09c0 FB000000 		.4byte	.LASF118
 2025 09c4 0E       		.byte	0xe
ARM GAS  C:\Users\DNIEL~1\AppData\Local\Temp\cc69cIAG.s 			page 37


 2026 09c5 6001     		.2byte	0x160
 2027 09c7 B1000000 		.4byte	0xb1
 2028 09cb 02       		.byte	0x2
 2029 09cc 23       		.byte	0x23
 2030 09cd 00       		.uleb128 0
 2031 09ce 14       		.uleb128 0x14
 2032 09cf 9D020000 		.4byte	.LASF119
 2033 09d3 0E       		.byte	0xe
 2034 09d4 6401     		.2byte	0x164
 2035 09d6 81080000 		.4byte	0x881
 2036 09da 02       		.byte	0x2
 2037 09db 23       		.byte	0x23
 2038 09dc 04       		.uleb128 0x4
 2039 09dd 14       		.uleb128 0x14
 2040 09de 67010000 		.4byte	.LASF120
 2041 09e2 0E       		.byte	0xe
 2042 09e3 6801     		.2byte	0x168
 2043 09e5 5F090000 		.4byte	0x95f
 2044 09e9 02       		.byte	0x2
 2045 09ea 23       		.byte	0x23
 2046 09eb 08       		.uleb128 0x8
 2047 09ec 14       		.uleb128 0x14
 2048 09ed 2F040000 		.4byte	.LASF121
 2049 09f1 0E       		.byte	0xe
 2050 09f2 6C01     		.2byte	0x16c
 2051 09f4 93090000 		.4byte	0x993
 2052 09f8 02       		.byte	0x2
 2053 09f9 23       		.byte	0x23
 2054 09fa 0C       		.uleb128 0xc
 2055 09fb 0C       		.uleb128 0xc
 2056 09fc 63723100 		.ascii	"cr1\000"
 2057 0a00 0E       		.byte	0xe
 2058 0a01 7301     		.2byte	0x173
 2059 0a03 91000000 		.4byte	0x91
 2060 0a07 02       		.byte	0x2
 2061 0a08 23       		.byte	0x23
 2062 0a09 10       		.uleb128 0x10
 2063 0a0a 0C       		.uleb128 0xc
 2064 0a0b 63723200 		.ascii	"cr2\000"
 2065 0a0f 0E       		.byte	0xe
 2066 0a10 7A01     		.2byte	0x17a
 2067 0a12 91000000 		.4byte	0x91
 2068 0a16 02       		.byte	0x2
 2069 0a17 23       		.byte	0x23
 2070 0a18 14       		.uleb128 0x14
 2071 0a19 14       		.uleb128 0x14
 2072 0a1a BE050000 		.4byte	.LASF122
 2073 0a1e 0E       		.byte	0xe
 2074 0a1f 8001     		.2byte	0x180
 2075 0a21 91000000 		.4byte	0x91
 2076 0a25 02       		.byte	0x2
 2077 0a26 23       		.byte	0x23
 2078 0a27 18       		.uleb128 0x18
 2079 0a28 14       		.uleb128 0x14
 2080 0a29 C4050000 		.4byte	.LASF123
 2081 0a2d 0E       		.byte	0xe
 2082 0a2e 8601     		.2byte	0x186
ARM GAS  C:\Users\DNIEL~1\AppData\Local\Temp\cc69cIAG.s 			page 38


 2083 0a30 91000000 		.4byte	0x91
 2084 0a34 02       		.byte	0x2
 2085 0a35 23       		.byte	0x23
 2086 0a36 1C       		.uleb128 0x1c
 2087 0a37 14       		.uleb128 0x14
 2088 0a38 17050000 		.4byte	.LASF124
 2089 0a3c 0E       		.byte	0xe
 2090 0a3d 8B01     		.2byte	0x18b
 2091 0a3f 91000000 		.4byte	0x91
 2092 0a43 02       		.byte	0x2
 2093 0a44 23       		.byte	0x23
 2094 0a45 20       		.uleb128 0x20
 2095 0a46 14       		.uleb128 0x14
 2096 0a47 1C050000 		.4byte	.LASF125
 2097 0a4b 0E       		.byte	0xe
 2098 0a4c 9001     		.2byte	0x190
 2099 0a4e 91000000 		.4byte	0x91
 2100 0a52 02       		.byte	0x2
 2101 0a53 23       		.byte	0x23
 2102 0a54 24       		.uleb128 0x24
 2103 0a55 14       		.uleb128 0x14
 2104 0a56 21050000 		.4byte	.LASF126
 2105 0a5a 0E       		.byte	0xe
 2106 0a5b 9501     		.2byte	0x195
 2107 0a5d 91000000 		.4byte	0x91
 2108 0a61 02       		.byte	0x2
 2109 0a62 23       		.byte	0x23
 2110 0a63 28       		.uleb128 0x28
 2111 0a64 00       		.byte	0
 2112 0a65 15       		.uleb128 0x15
 2113 0a66 D8050000 		.4byte	.LASF127
 2114 0a6a 0E       		.byte	0xe
 2115 0a6b 9601     		.2byte	0x196
 2116 0a6d B6090000 		.4byte	0x9b6
 2117 0a71 13       		.uleb128 0x13
 2118 0a72 04       		.byte	0x4
 2119 0a73 0E       		.byte	0xe
 2120 0a74 9C01     		.2byte	0x19c
 2121 0a76 8A0A0000 		.4byte	0xa8a
 2122 0a7a 14       		.uleb128 0x14
 2123 0a7b AB040000 		.4byte	.LASF128
 2124 0a7f 0E       		.byte	0xe
 2125 0a80 9D01     		.2byte	0x19d
 2126 0a82 91000000 		.4byte	0x91
 2127 0a86 02       		.byte	0x2
 2128 0a87 23       		.byte	0x23
 2129 0a88 00       		.uleb128 0
 2130 0a89 00       		.byte	0
 2131 0a8a 15       		.uleb128 0x15
 2132 0a8b 93010000 		.4byte	.LASF129
 2133 0a8f 0E       		.byte	0xe
 2134 0a90 9E01     		.2byte	0x19e
 2135 0a92 710A0000 		.4byte	0xa71
 2136 0a96 09       		.uleb128 0x9
 2137 0a97 04       		.byte	0x4
 2138 0a98 9C0A0000 		.4byte	0xa9c
 2139 0a9c 10       		.uleb128 0x10
ARM GAS  C:\Users\DNIEL~1\AppData\Local\Temp\cc69cIAG.s 			page 39


 2140 0a9d 8A0A0000 		.4byte	0xa8a
 2141 0aa1 09       		.uleb128 0x9
 2142 0aa2 04       		.byte	0x4
 2143 0aa3 A70A0000 		.4byte	0xaa7
 2144 0aa7 10       		.uleb128 0x10
 2145 0aa8 650A0000 		.4byte	0xa65
 2146 0aac 09       		.uleb128 0x9
 2147 0aad 04       		.byte	0x4
 2148 0aae 2D060000 		.4byte	0x62d
 2149 0ab2 09       		.uleb128 0x9
 2150 0ab3 04       		.byte	0x4
 2151 0ab4 B80A0000 		.4byte	0xab8
 2152 0ab8 10       		.uleb128 0x10
 2153 0ab9 03070000 		.4byte	0x703
 2154 0abd 1A       		.uleb128 0x1a
 2155 0abe FC030000 		.4byte	.LASF138
 2156 0ac2 01       		.byte	0x1
 2157 0ac3 0F       		.byte	0xf
 2158 0ac4 0C       		.byte	0xc
 2159 0ac5 FA0A0000 		.4byte	0xafa
 2160 0ac9 17       		.uleb128 0x17
 2161 0aca D9000000 		.4byte	.LASF130
 2162 0ace 00       		.sleb128 0
 2163 0acf 17       		.uleb128 0x17
 2164 0ad0 ED040000 		.4byte	.LASF131
 2165 0ad4 01       		.sleb128 1
 2166 0ad5 17       		.uleb128 0x17
 2167 0ad6 02050000 		.4byte	.LASF132
 2168 0ada 02       		.sleb128 2
 2169 0adb 17       		.uleb128 0x17
 2170 0adc 00020000 		.4byte	.LASF133
 2171 0ae0 03       		.sleb128 3
 2172 0ae1 17       		.uleb128 0x17
 2173 0ae2 0A020000 		.4byte	.LASF134
 2174 0ae6 04       		.sleb128 4
 2175 0ae7 17       		.uleb128 0x17
 2176 0ae8 14020000 		.4byte	.LASF135
 2177 0aec 05       		.sleb128 5
 2178 0aed 17       		.uleb128 0x17
 2179 0aee 1E020000 		.4byte	.LASF136
 2180 0af2 06       		.sleb128 6
 2181 0af3 17       		.uleb128 0x17
 2182 0af4 B0010000 		.4byte	.LASF137
 2183 0af8 07       		.sleb128 7
 2184 0af9 00       		.byte	0
 2185 0afa 1A       		.uleb128 0x1a
 2186 0afb A9030000 		.4byte	.LASF139
 2187 0aff 01       		.byte	0x1
 2188 0b00 01       		.byte	0x1
 2189 0b01 0C       		.byte	0xc
 2190 0b02 130B0000 		.4byte	0xb13
 2191 0b06 17       		.uleb128 0x17
 2192 0b07 8A040000 		.4byte	.LASF140
 2193 0b0b 00       		.sleb128 0
 2194 0b0c 17       		.uleb128 0x17
 2195 0b0d 77040000 		.4byte	.LASF141
 2196 0b11 01       		.sleb128 1
ARM GAS  C:\Users\DNIEL~1\AppData\Local\Temp\cc69cIAG.s 			page 40


 2197 0b12 00       		.byte	0
 2198 0b13 1B       		.uleb128 0x1b
 2199 0b14 CD010000 		.4byte	.LASF158
 2200 0b18 01       		.byte	0x1
 2201 0b19 73       		.byte	0x73
 2202 0b1a 01       		.byte	0x1
 2203 0b1b 00000000 		.4byte	.LFB121
 2204 0b1f 02000000 		.4byte	.LFE121
 2205 0b23 02       		.byte	0x2
 2206 0b24 7D       		.byte	0x7d
 2207 0b25 00       		.sleb128 0
 2208 0b26 01       		.byte	0x1
 2209 0b27 460B0000 		.4byte	0xb46
 2210 0b2b 1C       		.uleb128 0x1c
 2211 0b2c 3D020000 		.4byte	.LASF142
 2212 0b30 01       		.byte	0x1
 2213 0b31 73       		.byte	0x73
 2214 0b32 87090000 		.4byte	0x987
 2215 0b36 01       		.byte	0x1
 2216 0b37 50       		.byte	0x50
 2217 0b38 1D       		.uleb128 0x1d
 2218 0b39 65727200 		.ascii	"err\000"
 2219 0b3d 01       		.byte	0x1
 2220 0b3e 73       		.byte	0x73
 2221 0b3f A3080000 		.4byte	0x8a3
 2222 0b43 01       		.byte	0x1
 2223 0b44 51       		.byte	0x51
 2224 0b45 00       		.byte	0
 2225 0b46 1E       		.uleb128 0x1e
 2226 0b47 01       		.byte	0x1
 2227 0b48 85000000 		.4byte	.LASF143
 2228 0b4c 01       		.byte	0x1
 2229 0b4d 30       		.byte	0x30
 2230 0b4e 01       		.byte	0x1
 2231 0b4f 00000000 		.4byte	.LFB118
 2232 0b53 1E000000 		.4byte	.LFE118
 2233 0b57 00000000 		.4byte	.LLST0
 2234 0b5b 01       		.byte	0x1
 2235 0b5c 700B0000 		.4byte	0xb70
 2236 0b60 1F       		.uleb128 0x1f
 2237 0b61 10000000 		.4byte	.LVL1
 2238 0b65 B10E0000 		.4byte	0xeb1
 2239 0b69 20       		.uleb128 0x20
 2240 0b6a 01       		.byte	0x1
 2241 0b6b 51       		.byte	0x51
 2242 0b6c 01       		.byte	0x1
 2243 0b6d 30       		.byte	0x30
 2244 0b6e 00       		.byte	0
 2245 0b6f 00       		.byte	0
 2246 0b70 1E       		.uleb128 0x1e
 2247 0b71 01       		.byte	0x1
 2248 0b72 C2020000 		.4byte	.LASF144
 2249 0b76 01       		.byte	0x1
 2250 0b77 39       		.byte	0x39
 2251 0b78 01       		.byte	0x1
 2252 0b79 00000000 		.4byte	.LFB119
 2253 0b7d F0010000 		.4byte	.LFE119
ARM GAS  C:\Users\DNIEL~1\AppData\Local\Temp\cc69cIAG.s 			page 41


 2254 0b81 20000000 		.4byte	.LLST1
 2255 0b85 01       		.byte	0x1
 2256 0b86 090C0000 		.4byte	0xc09
 2257 0b8a 21       		.uleb128 0x21
 2258 0b8b 636800   		.ascii	"ch\000"
 2259 0b8e 01       		.byte	0x1
 2260 0b8f 3A       		.byte	0x3a
 2261 0b90 29000000 		.4byte	0x29
 2262 0b94 40000000 		.4byte	.LLST2
 2263 0b98 21       		.uleb128 0x21
 2264 0b99 61766700 		.ascii	"avg\000"
 2265 0b9d 01       		.byte	0x1
 2266 0b9e 3B       		.byte	0x3b
 2267 0b9f 29000000 		.4byte	0x29
 2268 0ba3 9C000000 		.4byte	.LLST3
 2269 0ba7 21       		.uleb128 0x21
 2270 0ba8 6900     		.ascii	"i\000"
 2271 0baa 01       		.byte	0x1
 2272 0bab 3B       		.byte	0x3b
 2273 0bac 29000000 		.4byte	0x29
 2274 0bb0 92030000 		.4byte	.LLST4
 2275 0bb4 22       		.uleb128 0x22
 2276 0bb5 00000000 		.4byte	.Ldebug_ranges0+0
 2277 0bb9 CD0B0000 		.4byte	0xbcd
 2278 0bbd 21       		.uleb128 0x21
 2279 0bbe 746D7000 		.ascii	"tmp\000"
 2280 0bc2 01       		.byte	0x1
 2281 0bc3 61       		.byte	0x61
 2282 0bc4 91000000 		.4byte	0x91
 2283 0bc8 3A060000 		.4byte	.LLST5
 2284 0bcc 00       		.byte	0
 2285 0bcd 22       		.uleb128 0x22
 2286 0bce 40000000 		.4byte	.Ldebug_ranges0+0x40
 2287 0bd2 E60B0000 		.4byte	0xbe6
 2288 0bd6 21       		.uleb128 0x21
 2289 0bd7 746D7000 		.ascii	"tmp\000"
 2290 0bdb 01       		.byte	0x1
 2291 0bdc 63       		.byte	0x63
 2292 0bdd 91000000 		.4byte	0x91
 2293 0be1 8F060000 		.4byte	.LLST6
 2294 0be5 00       		.byte	0
 2295 0be6 23       		.uleb128 0x23
 2296 0be7 1E000000 		.4byte	.LVL4
 2297 0beb 01       		.byte	0x1
 2298 0bec CB0E0000 		.4byte	0xecb
 2299 0bf0 20       		.uleb128 0x20
 2300 0bf1 01       		.byte	0x1
 2301 0bf2 53       		.byte	0x53
 2302 0bf3 01       		.byte	0x1
 2303 0bf4 38       		.byte	0x38
 2304 0bf5 20       		.uleb128 0x20
 2305 0bf6 01       		.byte	0x1
 2306 0bf7 52       		.byte	0x52
 2307 0bf8 05       		.byte	0x5
 2308 0bf9 03       		.byte	0x3
 2309 0bfa 00000000 		.4byte	.LANCHOR1
 2310 0bfe 20       		.uleb128 0x20
ARM GAS  C:\Users\DNIEL~1\AppData\Local\Temp\cc69cIAG.s 			page 42


 2311 0bff 01       		.byte	0x1
 2312 0c00 51       		.byte	0x51
 2313 0c01 05       		.byte	0x5
 2314 0c02 03       		.byte	0x3
 2315 0c03 00000000 		.4byte	.LANCHOR3
 2316 0c07 00       		.byte	0
 2317 0c08 00       		.byte	0
 2318 0c09 24       		.uleb128 0x24
 2319 0c0a 01       		.byte	0x1
 2320 0c0b 81020000 		.4byte	.LASF159
 2321 0c0f 01       		.byte	0x1
 2322 0c10 6C       		.byte	0x6c
 2323 0c11 01       		.byte	0x1
 2324 0c12 5B000000 		.4byte	0x5b
 2325 0c16 00000000 		.4byte	.LFB120
 2326 0c1a 0E000000 		.4byte	.LFE120
 2327 0c1e 02       		.byte	0x2
 2328 0c1f 7D       		.byte	0x7d
 2329 0c20 00       		.sleb128 0
 2330 0c21 01       		.byte	0x1
 2331 0c22 350C0000 		.4byte	0xc35
 2332 0c26 25       		.uleb128 0x25
 2333 0c27 636800   		.ascii	"ch\000"
 2334 0c2a 01       		.byte	0x1
 2335 0c2b 6C       		.byte	0x6c
 2336 0c2c BD0A0000 		.4byte	0xabd
 2337 0c30 EF060000 		.4byte	.LLST7
 2338 0c34 00       		.byte	0
 2339 0c35 1E       		.uleb128 0x1e
 2340 0c36 01       		.byte	0x1
 2341 0c37 92030000 		.4byte	.LASF145
 2342 0c3b 01       		.byte	0x1
 2343 0c3c 79       		.byte	0x79
 2344 0c3d 01       		.byte	0x1
 2345 0c3e 00000000 		.4byte	.LFB122
 2346 0c42 C0000000 		.4byte	.LFE122
 2347 0c46 10070000 		.4byte	.LLST8
 2348 0c4a 01       		.byte	0x1
 2349 0c4b 090E0000 		.4byte	0xe09
 2350 0c4f 25       		.uleb128 0x25
 2351 0c50 63687000 		.ascii	"chp\000"
 2352 0c54 01       		.byte	0x1
 2353 0c55 79       		.byte	0x79
 2354 0c56 090E0000 		.4byte	0xe09
 2355 0c5a 30070000 		.4byte	.LLST9
 2356 0c5e 26       		.uleb128 0x26
 2357 0c5f 1F060000 		.4byte	.LASF146
 2358 0c63 01       		.byte	0x1
 2359 0c64 79       		.byte	0x79
 2360 0c65 29000000 		.4byte	0x29
 2361 0c69 6F070000 		.4byte	.LLST10
 2362 0c6d 26       		.uleb128 0x26
 2363 0c6e 3D060000 		.4byte	.LASF147
 2364 0c72 01       		.byte	0x1
 2365 0c73 79       		.byte	0x79
 2366 0c74 0F0E0000 		.4byte	0xe0f
 2367 0c78 90070000 		.4byte	.LLST11
ARM GAS  C:\Users\DNIEL~1\AppData\Local\Temp\cc69cIAG.s 			page 43


 2368 0c7c 21       		.uleb128 0x21
 2369 0c7d 636800   		.ascii	"ch\000"
 2370 0c80 01       		.byte	0x1
 2371 0c81 7A       		.byte	0x7a
 2372 0c82 BD0A0000 		.4byte	0xabd
 2373 0c86 B1070000 		.4byte	.LLST12
 2374 0c8a 27       		.uleb128 0x27
 2375 0c8b 95040000 		.4byte	.LASF160
 2376 0c8f 01       		.byte	0x1
 2377 0c90 7C       		.byte	0x7c
 2378 0c91 2B0E0000 		.4byte	0xe2b
 2379 0c95 28       		.uleb128 0x28
 2380 0c96 0C000000 		.4byte	.LVL97
 2381 0c9a F30E0000 		.4byte	0xef3
 2382 0c9e B20C0000 		.4byte	0xcb2
 2383 0ca2 20       		.uleb128 0x20
 2384 0ca3 01       		.byte	0x1
 2385 0ca4 51       		.byte	0x51
 2386 0ca5 05       		.byte	0x5
 2387 0ca6 03       		.byte	0x3
 2388 0ca7 00000000 		.4byte	.LC0
 2389 0cab 20       		.uleb128 0x20
 2390 0cac 01       		.byte	0x1
 2391 0cad 50       		.byte	0x50
 2392 0cae 02       		.byte	0x2
 2393 0caf 74       		.byte	0x74
 2394 0cb0 00       		.sleb128 0
 2395 0cb1 00       		.byte	0
 2396 0cb2 28       		.uleb128 0x28
 2397 0cb3 14000000 		.4byte	.LVL98
 2398 0cb7 F30E0000 		.4byte	0xef3
 2399 0cbb CF0C0000 		.4byte	0xccf
 2400 0cbf 20       		.uleb128 0x20
 2401 0cc0 01       		.byte	0x1
 2402 0cc1 51       		.byte	0x51
 2403 0cc2 05       		.byte	0x5
 2404 0cc3 03       		.byte	0x3
 2405 0cc4 04000000 		.4byte	.LC1
 2406 0cc8 20       		.uleb128 0x20
 2407 0cc9 01       		.byte	0x1
 2408 0cca 50       		.byte	0x50
 2409 0ccb 02       		.byte	0x2
 2410 0ccc 74       		.byte	0x74
 2411 0ccd 00       		.sleb128 0
 2412 0cce 00       		.byte	0
 2413 0ccf 29       		.uleb128 0x29
 2414 0cd0 1A000000 		.4byte	.LVL100
 2415 0cd4 F30E0000 		.4byte	0xef3
 2416 0cd8 28       		.uleb128 0x28
 2417 0cd9 26000000 		.4byte	.LVL101
 2418 0cdd F30E0000 		.4byte	0xef3
 2419 0ce1 FE0C0000 		.4byte	0xcfe
 2420 0ce5 20       		.uleb128 0x20
 2421 0ce6 01       		.byte	0x1
 2422 0ce7 52       		.byte	0x52
 2423 0ce8 05       		.byte	0x5
 2424 0ce9 03       		.byte	0x3
ARM GAS  C:\Users\DNIEL~1\AppData\Local\Temp\cc69cIAG.s 			page 44


 2425 0cea 24000000 		.4byte	.LC4
 2426 0cee 20       		.uleb128 0x20
 2427 0cef 01       		.byte	0x1
 2428 0cf0 51       		.byte	0x51
 2429 0cf1 05       		.byte	0x5
 2430 0cf2 03       		.byte	0x3
 2431 0cf3 18000000 		.4byte	.LC3
 2432 0cf7 20       		.uleb128 0x20
 2433 0cf8 01       		.byte	0x1
 2434 0cf9 50       		.byte	0x50
 2435 0cfa 02       		.byte	0x2
 2436 0cfb 74       		.byte	0x74
 2437 0cfc 00       		.sleb128 0
 2438 0cfd 00       		.byte	0
 2439 0cfe 28       		.uleb128 0x28
 2440 0cff 32000000 		.4byte	.LVL102
 2441 0d03 F30E0000 		.4byte	0xef3
 2442 0d07 240D0000 		.4byte	0xd24
 2443 0d0b 20       		.uleb128 0x20
 2444 0d0c 01       		.byte	0x1
 2445 0d0d 52       		.byte	0x52
 2446 0d0e 05       		.byte	0x5
 2447 0d0f 03       		.byte	0x3
 2448 0d10 2C000000 		.4byte	.LC5
 2449 0d14 20       		.uleb128 0x20
 2450 0d15 01       		.byte	0x1
 2451 0d16 51       		.byte	0x51
 2452 0d17 05       		.byte	0x5
 2453 0d18 03       		.byte	0x3
 2454 0d19 18000000 		.4byte	.LC3
 2455 0d1d 20       		.uleb128 0x20
 2456 0d1e 01       		.byte	0x1
 2457 0d1f 50       		.byte	0x50
 2458 0d20 02       		.byte	0x2
 2459 0d21 74       		.byte	0x74
 2460 0d22 00       		.sleb128 0
 2461 0d23 00       		.byte	0
 2462 0d24 28       		.uleb128 0x28
 2463 0d25 3E000000 		.4byte	.LVL103
 2464 0d29 F30E0000 		.4byte	0xef3
 2465 0d2d 4A0D0000 		.4byte	0xd4a
 2466 0d31 20       		.uleb128 0x20
 2467 0d32 01       		.byte	0x1
 2468 0d33 52       		.byte	0x52
 2469 0d34 05       		.byte	0x5
 2470 0d35 03       		.byte	0x3
 2471 0d36 3C000000 		.4byte	.LC6
 2472 0d3a 20       		.uleb128 0x20
 2473 0d3b 01       		.byte	0x1
 2474 0d3c 51       		.byte	0x51
 2475 0d3d 05       		.byte	0x5
 2476 0d3e 03       		.byte	0x3
 2477 0d3f 18000000 		.4byte	.LC3
 2478 0d43 20       		.uleb128 0x20
 2479 0d44 01       		.byte	0x1
 2480 0d45 50       		.byte	0x50
 2481 0d46 02       		.byte	0x2
ARM GAS  C:\Users\DNIEL~1\AppData\Local\Temp\cc69cIAG.s 			page 45


 2482 0d47 74       		.byte	0x74
 2483 0d48 00       		.sleb128 0
 2484 0d49 00       		.byte	0
 2485 0d4a 28       		.uleb128 0x28
 2486 0d4b 4A000000 		.4byte	.LVL104
 2487 0d4f F30E0000 		.4byte	0xef3
 2488 0d53 700D0000 		.4byte	0xd70
 2489 0d57 20       		.uleb128 0x20
 2490 0d58 01       		.byte	0x1
 2491 0d59 52       		.byte	0x52
 2492 0d5a 05       		.byte	0x5
 2493 0d5b 03       		.byte	0x3
 2494 0d5c 4C000000 		.4byte	.LC7
 2495 0d60 20       		.uleb128 0x20
 2496 0d61 01       		.byte	0x1
 2497 0d62 51       		.byte	0x51
 2498 0d63 05       		.byte	0x5
 2499 0d64 03       		.byte	0x3
 2500 0d65 18000000 		.4byte	.LC3
 2501 0d69 20       		.uleb128 0x20
 2502 0d6a 01       		.byte	0x1
 2503 0d6b 50       		.byte	0x50
 2504 0d6c 02       		.byte	0x2
 2505 0d6d 74       		.byte	0x74
 2506 0d6e 00       		.sleb128 0
 2507 0d6f 00       		.byte	0
 2508 0d70 28       		.uleb128 0x28
 2509 0d71 56000000 		.4byte	.LVL105
 2510 0d75 F30E0000 		.4byte	0xef3
 2511 0d79 960D0000 		.4byte	0xd96
 2512 0d7d 20       		.uleb128 0x20
 2513 0d7e 01       		.byte	0x1
 2514 0d7f 52       		.byte	0x52
 2515 0d80 05       		.byte	0x5
 2516 0d81 03       		.byte	0x3
 2517 0d82 54000000 		.4byte	.LC8
 2518 0d86 20       		.uleb128 0x20
 2519 0d87 01       		.byte	0x1
 2520 0d88 51       		.byte	0x51
 2521 0d89 05       		.byte	0x5
 2522 0d8a 03       		.byte	0x3
 2523 0d8b 18000000 		.4byte	.LC3
 2524 0d8f 20       		.uleb128 0x20
 2525 0d90 01       		.byte	0x1
 2526 0d91 50       		.byte	0x50
 2527 0d92 02       		.byte	0x2
 2528 0d93 74       		.byte	0x74
 2529 0d94 00       		.sleb128 0
 2530 0d95 00       		.byte	0
 2531 0d96 28       		.uleb128 0x28
 2532 0d97 62000000 		.4byte	.LVL106
 2533 0d9b F30E0000 		.4byte	0xef3
 2534 0d9f BC0D0000 		.4byte	0xdbc
 2535 0da3 20       		.uleb128 0x20
 2536 0da4 01       		.byte	0x1
 2537 0da5 52       		.byte	0x52
 2538 0da6 05       		.byte	0x5
ARM GAS  C:\Users\DNIEL~1\AppData\Local\Temp\cc69cIAG.s 			page 46


 2539 0da7 03       		.byte	0x3
 2540 0da8 5C000000 		.4byte	.LC9
 2541 0dac 20       		.uleb128 0x20
 2542 0dad 01       		.byte	0x1
 2543 0dae 51       		.byte	0x51
 2544 0daf 05       		.byte	0x5
 2545 0db0 03       		.byte	0x3
 2546 0db1 18000000 		.4byte	.LC3
 2547 0db5 20       		.uleb128 0x20
 2548 0db6 01       		.byte	0x1
 2549 0db7 50       		.byte	0x50
 2550 0db8 02       		.byte	0x2
 2551 0db9 74       		.byte	0x74
 2552 0dba 00       		.sleb128 0
 2553 0dbb 00       		.byte	0
 2554 0dbc 28       		.uleb128 0x28
 2555 0dbd 6E000000 		.4byte	.LVL107
 2556 0dc1 F30E0000 		.4byte	0xef3
 2557 0dc5 E20D0000 		.4byte	0xde2
 2558 0dc9 20       		.uleb128 0x20
 2559 0dca 01       		.byte	0x1
 2560 0dcb 52       		.byte	0x52
 2561 0dcc 05       		.byte	0x5
 2562 0dcd 03       		.byte	0x3
 2563 0dce 64000000 		.4byte	.LC10
 2564 0dd2 20       		.uleb128 0x20
 2565 0dd3 01       		.byte	0x1
 2566 0dd4 51       		.byte	0x51
 2567 0dd5 05       		.byte	0x5
 2568 0dd6 03       		.byte	0x3
 2569 0dd7 18000000 		.4byte	.LC3
 2570 0ddb 20       		.uleb128 0x20
 2571 0ddc 01       		.byte	0x1
 2572 0ddd 50       		.byte	0x50
 2573 0dde 02       		.byte	0x2
 2574 0ddf 74       		.byte	0x74
 2575 0de0 00       		.sleb128 0
 2576 0de1 00       		.byte	0
 2577 0de2 28       		.uleb128 0x28
 2578 0de3 76000000 		.4byte	.LVL108
 2579 0de7 0D0F0000 		.4byte	0xf0d
 2580 0deb F70D0000 		.4byte	0xdf7
 2581 0def 20       		.uleb128 0x20
 2582 0df0 01       		.byte	0x1
 2583 0df1 50       		.byte	0x50
 2584 0df2 03       		.byte	0x3
 2585 0df3 0A       		.byte	0xa
 2586 0df4 E803     		.2byte	0x3e8
 2587 0df6 00       		.byte	0
 2588 0df7 2A       		.uleb128 0x2a
 2589 0df8 80000000 		.4byte	.LVL109
 2590 0dfc 20       		.uleb128 0x20
 2591 0dfd 01       		.byte	0x1
 2592 0dfe 51       		.byte	0x51
 2593 0dff 01       		.byte	0x1
 2594 0e00 30       		.byte	0x30
 2595 0e01 20       		.uleb128 0x20
ARM GAS  C:\Users\DNIEL~1\AppData\Local\Temp\cc69cIAG.s 			page 47


 2596 0e02 01       		.byte	0x1
 2597 0e03 50       		.byte	0x50
 2598 0e04 02       		.byte	0x2
 2599 0e05 74       		.byte	0x74
 2600 0e06 00       		.sleb128 0
 2601 0e07 00       		.byte	0
 2602 0e08 00       		.byte	0
 2603 0e09 09       		.uleb128 0x9
 2604 0e0a 04       		.byte	0x4
 2605 0e0b E9040000 		.4byte	0x4e9
 2606 0e0f 09       		.uleb128 0x9
 2607 0e10 04       		.byte	0x4
 2608 0e11 150E0000 		.4byte	0xe15
 2609 0e15 09       		.uleb128 0x9
 2610 0e16 04       		.byte	0x4
 2611 0e17 F3030000 		.4byte	0x3f3
 2612 0e1b 2B       		.uleb128 0x2b
 2613 0e1c E8030000 		.4byte	0x3e8
 2614 0e20 2B0E0000 		.4byte	0xe2b
 2615 0e24 2C       		.uleb128 0x2c
 2616 0e25 5F030000 		.4byte	0x35f
 2617 0e29 06       		.byte	0x6
 2618 0e2a 00       		.byte	0
 2619 0e2b 10       		.uleb128 0x10
 2620 0e2c 1B0E0000 		.4byte	0xe1b
 2621 0e30 2B       		.uleb128 0x2b
 2622 0e31 7F000000 		.4byte	0x7f
 2623 0e35 400E0000 		.4byte	0xe40
 2624 0e39 2C       		.uleb128 0x2c
 2625 0e3a 5F030000 		.4byte	0x35f
 2626 0e3e 08       		.byte	0x8
 2627 0e3f 00       		.byte	0
 2628 0e40 2D       		.uleb128 0x2d
 2629 0e41 D6030000 		.4byte	.LASF148
 2630 0e45 01       		.byte	0x1
 2631 0e46 12       		.byte	0x12
 2632 0e47 300E0000 		.4byte	0xe30
 2633 0e4b 05       		.byte	0x5
 2634 0e4c 03       		.byte	0x3
 2635 0e4d 00000000 		.4byte	measValue
 2636 0e51 2B       		.uleb128 0x2b
 2637 0e52 75080000 		.4byte	0x875
 2638 0e56 610E0000 		.4byte	0xe61
 2639 0e5a 2C       		.uleb128 0x2c
 2640 0e5b 5F030000 		.4byte	0x35f
 2641 0e5f 37       		.byte	0x37
 2642 0e60 00       		.byte	0
 2643 0e61 2D       		.uleb128 0x2d
 2644 0e62 E7020000 		.4byte	.LASF109
 2645 0e66 01       		.byte	0x1
 2646 0e67 13       		.byte	0x13
 2647 0e68 510E0000 		.4byte	0xe51
 2648 0e6c 05       		.byte	0x5
 2649 0e6d 03       		.byte	0x3
 2650 0e6e 00000000 		.4byte	samples
 2651 0e72 2D       		.uleb128 0x2d
 2652 0e73 6E000000 		.4byte	.LASF149
ARM GAS  C:\Users\DNIEL~1\AppData\Local\Temp\cc69cIAG.s 			page 48


 2653 0e77 01       		.byte	0x1
 2654 0e78 1E       		.byte	0x1e
 2655 0e79 A70A0000 		.4byte	0xaa7
 2656 0e7d 05       		.byte	0x5
 2657 0e7e 03       		.byte	0x3
 2658 0e7f 00000000 		.4byte	adcgrpcfg
 2659 0e83 2E       		.uleb128 0x2e
 2660 0e84 78000000 		.4byte	.LASF150
 2661 0e88 10       		.byte	0x10
 2662 0e89 9806     		.2byte	0x698
 2663 0e8b F4040000 		.4byte	0x4f4
 2664 0e8f 01       		.byte	0x1
 2665 0e90 01       		.byte	0x1
 2666 0e91 2E       		.uleb128 0x2e
 2667 0e92 BA040000 		.4byte	.LASF151
 2668 0e96 0E       		.byte	0xe
 2669 0e97 2002     		.2byte	0x220
 2670 0e99 AF080000 		.4byte	0x8af
 2671 0e9d 01       		.byte	0x1
 2672 0e9e 01       		.byte	0x1
 2673 0e9f 2F       		.uleb128 0x2f
 2674 0ea0 6B020000 		.4byte	.LASF152
 2675 0ea4 01       		.byte	0x1
 2676 0ea5 10       		.byte	0x10
 2677 0ea6 FA0A0000 		.4byte	0xafa
 2678 0eaa 01       		.byte	0x1
 2679 0eab 05       		.byte	0x5
 2680 0eac 03       		.byte	0x3
 2681 0ead 00000000 		.4byte	measstate
 2682 0eb1 30       		.uleb128 0x30
 2683 0eb2 01       		.byte	0x1
 2684 0eb3 71050000 		.4byte	.LASF153
 2685 0eb7 0D       		.byte	0xd
 2686 0eb8 1C01     		.2byte	0x11c
 2687 0eba 01       		.byte	0x1
 2688 0ebb 01       		.byte	0x1
 2689 0ebc CB0E0000 		.4byte	0xecb
 2690 0ec0 12       		.uleb128 0x12
 2691 0ec1 87090000 		.4byte	0x987
 2692 0ec5 12       		.uleb128 0x12
 2693 0ec6 960A0000 		.4byte	0xa96
 2694 0eca 00       		.byte	0
 2695 0ecb 31       		.uleb128 0x31
 2696 0ecc 01       		.byte	0x1
 2697 0ecd 7C010000 		.4byte	.LASF161
 2698 0ed1 0D       		.byte	0xd
 2699 0ed2 2901     		.2byte	0x129
 2700 0ed4 01       		.byte	0x1
 2701 0ed5 F3000000 		.4byte	0xf3
 2702 0ed9 01       		.byte	0x1
 2703 0eda F30E0000 		.4byte	0xef3
 2704 0ede 12       		.uleb128 0x12
 2705 0edf 87090000 		.4byte	0x987
 2706 0ee3 12       		.uleb128 0x12
 2707 0ee4 A10A0000 		.4byte	0xaa1
 2708 0ee8 12       		.uleb128 0x12
 2709 0ee9 8D090000 		.4byte	0x98d
ARM GAS  C:\Users\DNIEL~1\AppData\Local\Temp\cc69cIAG.s 			page 49


 2710 0eed 12       		.uleb128 0x12
 2711 0eee 30000000 		.4byte	0x30
 2712 0ef2 00       		.byte	0
 2713 0ef3 32       		.uleb128 0x32
 2714 0ef4 01       		.byte	0x1
 2715 0ef5 5A060000 		.4byte	.LASF154
 2716 0ef9 11       		.byte	0x11
 2717 0efa 2A       		.byte	0x2a
 2718 0efb 01       		.byte	0x1
 2719 0efc 01       		.byte	0x1
 2720 0efd 0D0F0000 		.4byte	0xf0d
 2721 0f01 12       		.uleb128 0x12
 2722 0f02 090E0000 		.4byte	0xe09
 2723 0f06 12       		.uleb128 0x12
 2724 0f07 E8030000 		.4byte	0x3e8
 2725 0f0b 33       		.uleb128 0x33
 2726 0f0c 00       		.byte	0
 2727 0f0d 34       		.uleb128 0x34
 2728 0f0e 01       		.byte	0x1
 2729 0f0f 7A050000 		.4byte	.LASF162
 2730 0f13 06       		.byte	0x6
 2731 0f14 6901     		.2byte	0x169
 2732 0f16 01       		.byte	0x1
 2733 0f17 01       		.byte	0x1
 2734 0f18 12       		.uleb128 0x12
 2735 0f19 09010000 		.4byte	0x109
 2736 0f1d 00       		.byte	0
 2737 0f1e 00       		.byte	0
 2738              		.section	.debug_abbrev,"",%progbits
 2739              	.Ldebug_abbrev0:
 2740 0000 01       		.uleb128 0x1
 2741 0001 11       		.uleb128 0x11
 2742 0002 01       		.byte	0x1
 2743 0003 25       		.uleb128 0x25
 2744 0004 0E       		.uleb128 0xe
 2745 0005 13       		.uleb128 0x13
 2746 0006 0B       		.uleb128 0xb
 2747 0007 03       		.uleb128 0x3
 2748 0008 0E       		.uleb128 0xe
 2749 0009 1B       		.uleb128 0x1b
 2750 000a 0E       		.uleb128 0xe
 2751 000b 55       		.uleb128 0x55
 2752 000c 06       		.uleb128 0x6
 2753 000d 11       		.uleb128 0x11
 2754 000e 01       		.uleb128 0x1
 2755 000f 52       		.uleb128 0x52
 2756 0010 01       		.uleb128 0x1
 2757 0011 10       		.uleb128 0x10
 2758 0012 06       		.uleb128 0x6
 2759 0013 00       		.byte	0
 2760 0014 00       		.byte	0
 2761 0015 02       		.uleb128 0x2
 2762 0016 24       		.uleb128 0x24
 2763 0017 00       		.byte	0
 2764 0018 0B       		.uleb128 0xb
 2765 0019 0B       		.uleb128 0xb
 2766 001a 3E       		.uleb128 0x3e
ARM GAS  C:\Users\DNIEL~1\AppData\Local\Temp\cc69cIAG.s 			page 50


 2767 001b 0B       		.uleb128 0xb
 2768 001c 03       		.uleb128 0x3
 2769 001d 08       		.uleb128 0x8
 2770 001e 00       		.byte	0
 2771 001f 00       		.byte	0
 2772 0020 03       		.uleb128 0x3
 2773 0021 16       		.uleb128 0x16
 2774 0022 00       		.byte	0
 2775 0023 03       		.uleb128 0x3
 2776 0024 0E       		.uleb128 0xe
 2777 0025 3A       		.uleb128 0x3a
 2778 0026 0B       		.uleb128 0xb
 2779 0027 3B       		.uleb128 0x3b
 2780 0028 0B       		.uleb128 0xb
 2781 0029 49       		.uleb128 0x49
 2782 002a 13       		.uleb128 0x13
 2783 002b 00       		.byte	0
 2784 002c 00       		.byte	0
 2785 002d 04       		.uleb128 0x4
 2786 002e 24       		.uleb128 0x24
 2787 002f 00       		.byte	0
 2788 0030 0B       		.uleb128 0xb
 2789 0031 0B       		.uleb128 0xb
 2790 0032 3E       		.uleb128 0x3e
 2791 0033 0B       		.uleb128 0xb
 2792 0034 03       		.uleb128 0x3
 2793 0035 0E       		.uleb128 0xe
 2794 0036 00       		.byte	0
 2795 0037 00       		.byte	0
 2796 0038 05       		.uleb128 0x5
 2797 0039 13       		.uleb128 0x13
 2798 003a 01       		.byte	0x1
 2799 003b 03       		.uleb128 0x3
 2800 003c 0E       		.uleb128 0xe
 2801 003d 0B       		.uleb128 0xb
 2802 003e 0B       		.uleb128 0xb
 2803 003f 3A       		.uleb128 0x3a
 2804 0040 0B       		.uleb128 0xb
 2805 0041 3B       		.uleb128 0x3b
 2806 0042 0B       		.uleb128 0xb
 2807 0043 01       		.uleb128 0x1
 2808 0044 13       		.uleb128 0x13
 2809 0045 00       		.byte	0
 2810 0046 00       		.byte	0
 2811 0047 06       		.uleb128 0x6
 2812 0048 0D       		.uleb128 0xd
 2813 0049 00       		.byte	0
 2814 004a 03       		.uleb128 0x3
 2815 004b 0E       		.uleb128 0xe
 2816 004c 3A       		.uleb128 0x3a
 2817 004d 0B       		.uleb128 0xb
 2818 004e 3B       		.uleb128 0x3b
 2819 004f 0B       		.uleb128 0xb
 2820 0050 49       		.uleb128 0x49
 2821 0051 13       		.uleb128 0x13
 2822 0052 38       		.uleb128 0x38
 2823 0053 0A       		.uleb128 0xa
ARM GAS  C:\Users\DNIEL~1\AppData\Local\Temp\cc69cIAG.s 			page 51


 2824 0054 00       		.byte	0
 2825 0055 00       		.byte	0
 2826 0056 07       		.uleb128 0x7
 2827 0057 0D       		.uleb128 0xd
 2828 0058 00       		.byte	0
 2829 0059 03       		.uleb128 0x3
 2830 005a 08       		.uleb128 0x8
 2831 005b 3A       		.uleb128 0x3a
 2832 005c 0B       		.uleb128 0xb
 2833 005d 3B       		.uleb128 0x3b
 2834 005e 0B       		.uleb128 0xb
 2835 005f 49       		.uleb128 0x49
 2836 0060 13       		.uleb128 0x13
 2837 0061 38       		.uleb128 0x38
 2838 0062 0A       		.uleb128 0xa
 2839 0063 00       		.byte	0
 2840 0064 00       		.byte	0
 2841 0065 08       		.uleb128 0x8
 2842 0066 13       		.uleb128 0x13
 2843 0067 01       		.byte	0x1
 2844 0068 0B       		.uleb128 0xb
 2845 0069 0B       		.uleb128 0xb
 2846 006a 3A       		.uleb128 0x3a
 2847 006b 0B       		.uleb128 0xb
 2848 006c 3B       		.uleb128 0x3b
 2849 006d 0B       		.uleb128 0xb
 2850 006e 01       		.uleb128 0x1
 2851 006f 13       		.uleb128 0x13
 2852 0070 00       		.byte	0
 2853 0071 00       		.byte	0
 2854 0072 09       		.uleb128 0x9
 2855 0073 0F       		.uleb128 0xf
 2856 0074 00       		.byte	0
 2857 0075 0B       		.uleb128 0xb
 2858 0076 0B       		.uleb128 0xb
 2859 0077 49       		.uleb128 0x49
 2860 0078 13       		.uleb128 0x13
 2861 0079 00       		.byte	0
 2862 007a 00       		.byte	0
 2863 007b 0A       		.uleb128 0xa
 2864 007c 0F       		.uleb128 0xf
 2865 007d 00       		.byte	0
 2866 007e 0B       		.uleb128 0xb
 2867 007f 0B       		.uleb128 0xb
 2868 0080 00       		.byte	0
 2869 0081 00       		.byte	0
 2870 0082 0B       		.uleb128 0xb
 2871 0083 13       		.uleb128 0x13
 2872 0084 01       		.byte	0x1
 2873 0085 03       		.uleb128 0x3
 2874 0086 0E       		.uleb128 0xe
 2875 0087 0B       		.uleb128 0xb
 2876 0088 0B       		.uleb128 0xb
 2877 0089 3A       		.uleb128 0x3a
 2878 008a 0B       		.uleb128 0xb
 2879 008b 3B       		.uleb128 0x3b
 2880 008c 05       		.uleb128 0x5
ARM GAS  C:\Users\DNIEL~1\AppData\Local\Temp\cc69cIAG.s 			page 52


 2881 008d 01       		.uleb128 0x1
 2882 008e 13       		.uleb128 0x13
 2883 008f 00       		.byte	0
 2884 0090 00       		.byte	0
 2885 0091 0C       		.uleb128 0xc
 2886 0092 0D       		.uleb128 0xd
 2887 0093 00       		.byte	0
 2888 0094 03       		.uleb128 0x3
 2889 0095 08       		.uleb128 0x8
 2890 0096 3A       		.uleb128 0x3a
 2891 0097 0B       		.uleb128 0xb
 2892 0098 3B       		.uleb128 0x3b
 2893 0099 05       		.uleb128 0x5
 2894 009a 49       		.uleb128 0x49
 2895 009b 13       		.uleb128 0x13
 2896 009c 38       		.uleb128 0x38
 2897 009d 0A       		.uleb128 0xa
 2898 009e 00       		.byte	0
 2899 009f 00       		.byte	0
 2900 00a0 0D       		.uleb128 0xd
 2901 00a1 35       		.uleb128 0x35
 2902 00a2 00       		.byte	0
 2903 00a3 49       		.uleb128 0x49
 2904 00a4 13       		.uleb128 0x13
 2905 00a5 00       		.byte	0
 2906 00a6 00       		.byte	0
 2907 00a7 0E       		.uleb128 0xe
 2908 00a8 17       		.uleb128 0x17
 2909 00a9 01       		.byte	0x1
 2910 00aa 0B       		.uleb128 0xb
 2911 00ab 0B       		.uleb128 0xb
 2912 00ac 3A       		.uleb128 0x3a
 2913 00ad 0B       		.uleb128 0xb
 2914 00ae 3B       		.uleb128 0x3b
 2915 00af 0B       		.uleb128 0xb
 2916 00b0 01       		.uleb128 0x1
 2917 00b1 13       		.uleb128 0x13
 2918 00b2 00       		.byte	0
 2919 00b3 00       		.byte	0
 2920 00b4 0F       		.uleb128 0xf
 2921 00b5 0D       		.uleb128 0xd
 2922 00b6 00       		.byte	0
 2923 00b7 03       		.uleb128 0x3
 2924 00b8 0E       		.uleb128 0xe
 2925 00b9 3A       		.uleb128 0x3a
 2926 00ba 0B       		.uleb128 0xb
 2927 00bb 3B       		.uleb128 0x3b
 2928 00bc 0B       		.uleb128 0xb
 2929 00bd 49       		.uleb128 0x49
 2930 00be 13       		.uleb128 0x13
 2931 00bf 00       		.byte	0
 2932 00c0 00       		.byte	0
 2933 00c1 10       		.uleb128 0x10
 2934 00c2 26       		.uleb128 0x26
 2935 00c3 00       		.byte	0
 2936 00c4 49       		.uleb128 0x49
 2937 00c5 13       		.uleb128 0x13
ARM GAS  C:\Users\DNIEL~1\AppData\Local\Temp\cc69cIAG.s 			page 53


 2938 00c6 00       		.byte	0
 2939 00c7 00       		.byte	0
 2940 00c8 11       		.uleb128 0x11
 2941 00c9 15       		.uleb128 0x15
 2942 00ca 01       		.byte	0x1
 2943 00cb 27       		.uleb128 0x27
 2944 00cc 0C       		.uleb128 0xc
 2945 00cd 49       		.uleb128 0x49
 2946 00ce 13       		.uleb128 0x13
 2947 00cf 01       		.uleb128 0x1
 2948 00d0 13       		.uleb128 0x13
 2949 00d1 00       		.byte	0
 2950 00d2 00       		.byte	0
 2951 00d3 12       		.uleb128 0x12
 2952 00d4 05       		.uleb128 0x5
 2953 00d5 00       		.byte	0
 2954 00d6 49       		.uleb128 0x49
 2955 00d7 13       		.uleb128 0x13
 2956 00d8 00       		.byte	0
 2957 00d9 00       		.byte	0
 2958 00da 13       		.uleb128 0x13
 2959 00db 13       		.uleb128 0x13
 2960 00dc 01       		.byte	0x1
 2961 00dd 0B       		.uleb128 0xb
 2962 00de 0B       		.uleb128 0xb
 2963 00df 3A       		.uleb128 0x3a
 2964 00e0 0B       		.uleb128 0xb
 2965 00e1 3B       		.uleb128 0x3b
 2966 00e2 05       		.uleb128 0x5
 2967 00e3 01       		.uleb128 0x1
 2968 00e4 13       		.uleb128 0x13
 2969 00e5 00       		.byte	0
 2970 00e6 00       		.byte	0
 2971 00e7 14       		.uleb128 0x14
 2972 00e8 0D       		.uleb128 0xd
 2973 00e9 00       		.byte	0
 2974 00ea 03       		.uleb128 0x3
 2975 00eb 0E       		.uleb128 0xe
 2976 00ec 3A       		.uleb128 0x3a
 2977 00ed 0B       		.uleb128 0xb
 2978 00ee 3B       		.uleb128 0x3b
 2979 00ef 05       		.uleb128 0x5
 2980 00f0 49       		.uleb128 0x49
 2981 00f1 13       		.uleb128 0x13
 2982 00f2 38       		.uleb128 0x38
 2983 00f3 0A       		.uleb128 0xa
 2984 00f4 00       		.byte	0
 2985 00f5 00       		.byte	0
 2986 00f6 15       		.uleb128 0x15
 2987 00f7 16       		.uleb128 0x16
 2988 00f8 00       		.byte	0
 2989 00f9 03       		.uleb128 0x3
 2990 00fa 0E       		.uleb128 0xe
 2991 00fb 3A       		.uleb128 0x3a
 2992 00fc 0B       		.uleb128 0xb
 2993 00fd 3B       		.uleb128 0x3b
 2994 00fe 05       		.uleb128 0x5
ARM GAS  C:\Users\DNIEL~1\AppData\Local\Temp\cc69cIAG.s 			page 54


 2995 00ff 49       		.uleb128 0x49
 2996 0100 13       		.uleb128 0x13
 2997 0101 00       		.byte	0
 2998 0102 00       		.byte	0
 2999 0103 16       		.uleb128 0x16
 3000 0104 04       		.uleb128 0x4
 3001 0105 01       		.byte	0x1
 3002 0106 0B       		.uleb128 0xb
 3003 0107 0B       		.uleb128 0xb
 3004 0108 3A       		.uleb128 0x3a
 3005 0109 0B       		.uleb128 0xb
 3006 010a 3B       		.uleb128 0x3b
 3007 010b 0B       		.uleb128 0xb
 3008 010c 01       		.uleb128 0x1
 3009 010d 13       		.uleb128 0x13
 3010 010e 00       		.byte	0
 3011 010f 00       		.byte	0
 3012 0110 17       		.uleb128 0x17
 3013 0111 28       		.uleb128 0x28
 3014 0112 00       		.byte	0
 3015 0113 03       		.uleb128 0x3
 3016 0114 0E       		.uleb128 0xe
 3017 0115 1C       		.uleb128 0x1c
 3018 0116 0D       		.uleb128 0xd
 3019 0117 00       		.byte	0
 3020 0118 00       		.byte	0
 3021 0119 18       		.uleb128 0x18
 3022 011a 04       		.uleb128 0x4
 3023 011b 01       		.byte	0x1
 3024 011c 0B       		.uleb128 0xb
 3025 011d 0B       		.uleb128 0xb
 3026 011e 3A       		.uleb128 0x3a
 3027 011f 0B       		.uleb128 0xb
 3028 0120 3B       		.uleb128 0x3b
 3029 0121 05       		.uleb128 0x5
 3030 0122 01       		.uleb128 0x1
 3031 0123 13       		.uleb128 0x13
 3032 0124 00       		.byte	0
 3033 0125 00       		.byte	0
 3034 0126 19       		.uleb128 0x19
 3035 0127 15       		.uleb128 0x15
 3036 0128 01       		.byte	0x1
 3037 0129 27       		.uleb128 0x27
 3038 012a 0C       		.uleb128 0xc
 3039 012b 01       		.uleb128 0x1
 3040 012c 13       		.uleb128 0x13
 3041 012d 00       		.byte	0
 3042 012e 00       		.byte	0
 3043 012f 1A       		.uleb128 0x1a
 3044 0130 04       		.uleb128 0x4
 3045 0131 01       		.byte	0x1
 3046 0132 03       		.uleb128 0x3
 3047 0133 0E       		.uleb128 0xe
 3048 0134 0B       		.uleb128 0xb
 3049 0135 0B       		.uleb128 0xb
 3050 0136 3A       		.uleb128 0x3a
 3051 0137 0B       		.uleb128 0xb
ARM GAS  C:\Users\DNIEL~1\AppData\Local\Temp\cc69cIAG.s 			page 55


 3052 0138 3B       		.uleb128 0x3b
 3053 0139 0B       		.uleb128 0xb
 3054 013a 01       		.uleb128 0x1
 3055 013b 13       		.uleb128 0x13
 3056 013c 00       		.byte	0
 3057 013d 00       		.byte	0
 3058 013e 1B       		.uleb128 0x1b
 3059 013f 2E       		.uleb128 0x2e
 3060 0140 01       		.byte	0x1
 3061 0141 03       		.uleb128 0x3
 3062 0142 0E       		.uleb128 0xe
 3063 0143 3A       		.uleb128 0x3a
 3064 0144 0B       		.uleb128 0xb
 3065 0145 3B       		.uleb128 0x3b
 3066 0146 0B       		.uleb128 0xb
 3067 0147 27       		.uleb128 0x27
 3068 0148 0C       		.uleb128 0xc
 3069 0149 11       		.uleb128 0x11
 3070 014a 01       		.uleb128 0x1
 3071 014b 12       		.uleb128 0x12
 3072 014c 01       		.uleb128 0x1
 3073 014d 40       		.uleb128 0x40
 3074 014e 0A       		.uleb128 0xa
 3075 014f 9742     		.uleb128 0x2117
 3076 0151 0C       		.uleb128 0xc
 3077 0152 01       		.uleb128 0x1
 3078 0153 13       		.uleb128 0x13
 3079 0154 00       		.byte	0
 3080 0155 00       		.byte	0
 3081 0156 1C       		.uleb128 0x1c
 3082 0157 05       		.uleb128 0x5
 3083 0158 00       		.byte	0
 3084 0159 03       		.uleb128 0x3
 3085 015a 0E       		.uleb128 0xe
 3086 015b 3A       		.uleb128 0x3a
 3087 015c 0B       		.uleb128 0xb
 3088 015d 3B       		.uleb128 0x3b
 3089 015e 0B       		.uleb128 0xb
 3090 015f 49       		.uleb128 0x49
 3091 0160 13       		.uleb128 0x13
 3092 0161 02       		.uleb128 0x2
 3093 0162 0A       		.uleb128 0xa
 3094 0163 00       		.byte	0
 3095 0164 00       		.byte	0
 3096 0165 1D       		.uleb128 0x1d
 3097 0166 05       		.uleb128 0x5
 3098 0167 00       		.byte	0
 3099 0168 03       		.uleb128 0x3
 3100 0169 08       		.uleb128 0x8
 3101 016a 3A       		.uleb128 0x3a
 3102 016b 0B       		.uleb128 0xb
 3103 016c 3B       		.uleb128 0x3b
 3104 016d 0B       		.uleb128 0xb
 3105 016e 49       		.uleb128 0x49
 3106 016f 13       		.uleb128 0x13
 3107 0170 02       		.uleb128 0x2
 3108 0171 0A       		.uleb128 0xa
ARM GAS  C:\Users\DNIEL~1\AppData\Local\Temp\cc69cIAG.s 			page 56


 3109 0172 00       		.byte	0
 3110 0173 00       		.byte	0
 3111 0174 1E       		.uleb128 0x1e
 3112 0175 2E       		.uleb128 0x2e
 3113 0176 01       		.byte	0x1
 3114 0177 3F       		.uleb128 0x3f
 3115 0178 0C       		.uleb128 0xc
 3116 0179 03       		.uleb128 0x3
 3117 017a 0E       		.uleb128 0xe
 3118 017b 3A       		.uleb128 0x3a
 3119 017c 0B       		.uleb128 0xb
 3120 017d 3B       		.uleb128 0x3b
 3121 017e 0B       		.uleb128 0xb
 3122 017f 27       		.uleb128 0x27
 3123 0180 0C       		.uleb128 0xc
 3124 0181 11       		.uleb128 0x11
 3125 0182 01       		.uleb128 0x1
 3126 0183 12       		.uleb128 0x12
 3127 0184 01       		.uleb128 0x1
 3128 0185 40       		.uleb128 0x40
 3129 0186 06       		.uleb128 0x6
 3130 0187 9742     		.uleb128 0x2117
 3131 0189 0C       		.uleb128 0xc
 3132 018a 01       		.uleb128 0x1
 3133 018b 13       		.uleb128 0x13
 3134 018c 00       		.byte	0
 3135 018d 00       		.byte	0
 3136 018e 1F       		.uleb128 0x1f
 3137 018f 898201   		.uleb128 0x4109
 3138 0192 01       		.byte	0x1
 3139 0193 11       		.uleb128 0x11
 3140 0194 01       		.uleb128 0x1
 3141 0195 31       		.uleb128 0x31
 3142 0196 13       		.uleb128 0x13
 3143 0197 00       		.byte	0
 3144 0198 00       		.byte	0
 3145 0199 20       		.uleb128 0x20
 3146 019a 8A8201   		.uleb128 0x410a
 3147 019d 00       		.byte	0
 3148 019e 02       		.uleb128 0x2
 3149 019f 0A       		.uleb128 0xa
 3150 01a0 9142     		.uleb128 0x2111
 3151 01a2 0A       		.uleb128 0xa
 3152 01a3 00       		.byte	0
 3153 01a4 00       		.byte	0
 3154 01a5 21       		.uleb128 0x21
 3155 01a6 34       		.uleb128 0x34
 3156 01a7 00       		.byte	0
 3157 01a8 03       		.uleb128 0x3
 3158 01a9 08       		.uleb128 0x8
 3159 01aa 3A       		.uleb128 0x3a
 3160 01ab 0B       		.uleb128 0xb
 3161 01ac 3B       		.uleb128 0x3b
 3162 01ad 0B       		.uleb128 0xb
 3163 01ae 49       		.uleb128 0x49
 3164 01af 13       		.uleb128 0x13
 3165 01b0 02       		.uleb128 0x2
ARM GAS  C:\Users\DNIEL~1\AppData\Local\Temp\cc69cIAG.s 			page 57


 3166 01b1 06       		.uleb128 0x6
 3167 01b2 00       		.byte	0
 3168 01b3 00       		.byte	0
 3169 01b4 22       		.uleb128 0x22
 3170 01b5 0B       		.uleb128 0xb
 3171 01b6 01       		.byte	0x1
 3172 01b7 55       		.uleb128 0x55
 3173 01b8 06       		.uleb128 0x6
 3174 01b9 01       		.uleb128 0x1
 3175 01ba 13       		.uleb128 0x13
 3176 01bb 00       		.byte	0
 3177 01bc 00       		.byte	0
 3178 01bd 23       		.uleb128 0x23
 3179 01be 898201   		.uleb128 0x4109
 3180 01c1 01       		.byte	0x1
 3181 01c2 11       		.uleb128 0x11
 3182 01c3 01       		.uleb128 0x1
 3183 01c4 9542     		.uleb128 0x2115
 3184 01c6 0C       		.uleb128 0xc
 3185 01c7 31       		.uleb128 0x31
 3186 01c8 13       		.uleb128 0x13
 3187 01c9 00       		.byte	0
 3188 01ca 00       		.byte	0
 3189 01cb 24       		.uleb128 0x24
 3190 01cc 2E       		.uleb128 0x2e
 3191 01cd 01       		.byte	0x1
 3192 01ce 3F       		.uleb128 0x3f
 3193 01cf 0C       		.uleb128 0xc
 3194 01d0 03       		.uleb128 0x3
 3195 01d1 0E       		.uleb128 0xe
 3196 01d2 3A       		.uleb128 0x3a
 3197 01d3 0B       		.uleb128 0xb
 3198 01d4 3B       		.uleb128 0x3b
 3199 01d5 0B       		.uleb128 0xb
 3200 01d6 27       		.uleb128 0x27
 3201 01d7 0C       		.uleb128 0xc
 3202 01d8 49       		.uleb128 0x49
 3203 01d9 13       		.uleb128 0x13
 3204 01da 11       		.uleb128 0x11
 3205 01db 01       		.uleb128 0x1
 3206 01dc 12       		.uleb128 0x12
 3207 01dd 01       		.uleb128 0x1
 3208 01de 40       		.uleb128 0x40
 3209 01df 0A       		.uleb128 0xa
 3210 01e0 9742     		.uleb128 0x2117
 3211 01e2 0C       		.uleb128 0xc
 3212 01e3 01       		.uleb128 0x1
 3213 01e4 13       		.uleb128 0x13
 3214 01e5 00       		.byte	0
 3215 01e6 00       		.byte	0
 3216 01e7 25       		.uleb128 0x25
 3217 01e8 05       		.uleb128 0x5
 3218 01e9 00       		.byte	0
 3219 01ea 03       		.uleb128 0x3
 3220 01eb 08       		.uleb128 0x8
 3221 01ec 3A       		.uleb128 0x3a
 3222 01ed 0B       		.uleb128 0xb
ARM GAS  C:\Users\DNIEL~1\AppData\Local\Temp\cc69cIAG.s 			page 58


 3223 01ee 3B       		.uleb128 0x3b
 3224 01ef 0B       		.uleb128 0xb
 3225 01f0 49       		.uleb128 0x49
 3226 01f1 13       		.uleb128 0x13
 3227 01f2 02       		.uleb128 0x2
 3228 01f3 06       		.uleb128 0x6
 3229 01f4 00       		.byte	0
 3230 01f5 00       		.byte	0
 3231 01f6 26       		.uleb128 0x26
 3232 01f7 05       		.uleb128 0x5
 3233 01f8 00       		.byte	0
 3234 01f9 03       		.uleb128 0x3
 3235 01fa 0E       		.uleb128 0xe
 3236 01fb 3A       		.uleb128 0x3a
 3237 01fc 0B       		.uleb128 0xb
 3238 01fd 3B       		.uleb128 0x3b
 3239 01fe 0B       		.uleb128 0xb
 3240 01ff 49       		.uleb128 0x49
 3241 0200 13       		.uleb128 0x13
 3242 0201 02       		.uleb128 0x2
 3243 0202 06       		.uleb128 0x6
 3244 0203 00       		.byte	0
 3245 0204 00       		.byte	0
 3246 0205 27       		.uleb128 0x27
 3247 0206 34       		.uleb128 0x34
 3248 0207 00       		.byte	0
 3249 0208 03       		.uleb128 0x3
 3250 0209 0E       		.uleb128 0xe
 3251 020a 3A       		.uleb128 0x3a
 3252 020b 0B       		.uleb128 0xb
 3253 020c 3B       		.uleb128 0x3b
 3254 020d 0B       		.uleb128 0xb
 3255 020e 49       		.uleb128 0x49
 3256 020f 13       		.uleb128 0x13
 3257 0210 00       		.byte	0
 3258 0211 00       		.byte	0
 3259 0212 28       		.uleb128 0x28
 3260 0213 898201   		.uleb128 0x4109
 3261 0216 01       		.byte	0x1
 3262 0217 11       		.uleb128 0x11
 3263 0218 01       		.uleb128 0x1
 3264 0219 31       		.uleb128 0x31
 3265 021a 13       		.uleb128 0x13
 3266 021b 01       		.uleb128 0x1
 3267 021c 13       		.uleb128 0x13
 3268 021d 00       		.byte	0
 3269 021e 00       		.byte	0
 3270 021f 29       		.uleb128 0x29
 3271 0220 898201   		.uleb128 0x4109
 3272 0223 00       		.byte	0
 3273 0224 11       		.uleb128 0x11
 3274 0225 01       		.uleb128 0x1
 3275 0226 31       		.uleb128 0x31
 3276 0227 13       		.uleb128 0x13
 3277 0228 00       		.byte	0
 3278 0229 00       		.byte	0
 3279 022a 2A       		.uleb128 0x2a
ARM GAS  C:\Users\DNIEL~1\AppData\Local\Temp\cc69cIAG.s 			page 59


 3280 022b 898201   		.uleb128 0x4109
 3281 022e 01       		.byte	0x1
 3282 022f 11       		.uleb128 0x11
 3283 0230 01       		.uleb128 0x1
 3284 0231 00       		.byte	0
 3285 0232 00       		.byte	0
 3286 0233 2B       		.uleb128 0x2b
 3287 0234 01       		.uleb128 0x1
 3288 0235 01       		.byte	0x1
 3289 0236 49       		.uleb128 0x49
 3290 0237 13       		.uleb128 0x13
 3291 0238 01       		.uleb128 0x1
 3292 0239 13       		.uleb128 0x13
 3293 023a 00       		.byte	0
 3294 023b 00       		.byte	0
 3295 023c 2C       		.uleb128 0x2c
 3296 023d 21       		.uleb128 0x21
 3297 023e 00       		.byte	0
 3298 023f 49       		.uleb128 0x49
 3299 0240 13       		.uleb128 0x13
 3300 0241 2F       		.uleb128 0x2f
 3301 0242 0B       		.uleb128 0xb
 3302 0243 00       		.byte	0
 3303 0244 00       		.byte	0
 3304 0245 2D       		.uleb128 0x2d
 3305 0246 34       		.uleb128 0x34
 3306 0247 00       		.byte	0
 3307 0248 03       		.uleb128 0x3
 3308 0249 0E       		.uleb128 0xe
 3309 024a 3A       		.uleb128 0x3a
 3310 024b 0B       		.uleb128 0xb
 3311 024c 3B       		.uleb128 0x3b
 3312 024d 0B       		.uleb128 0xb
 3313 024e 49       		.uleb128 0x49
 3314 024f 13       		.uleb128 0x13
 3315 0250 02       		.uleb128 0x2
 3316 0251 0A       		.uleb128 0xa
 3317 0252 00       		.byte	0
 3318 0253 00       		.byte	0
 3319 0254 2E       		.uleb128 0x2e
 3320 0255 34       		.uleb128 0x34
 3321 0256 00       		.byte	0
 3322 0257 03       		.uleb128 0x3
 3323 0258 0E       		.uleb128 0xe
 3324 0259 3A       		.uleb128 0x3a
 3325 025a 0B       		.uleb128 0xb
 3326 025b 3B       		.uleb128 0x3b
 3327 025c 05       		.uleb128 0x5
 3328 025d 49       		.uleb128 0x49
 3329 025e 13       		.uleb128 0x13
 3330 025f 3F       		.uleb128 0x3f
 3331 0260 0C       		.uleb128 0xc
 3332 0261 3C       		.uleb128 0x3c
 3333 0262 0C       		.uleb128 0xc
 3334 0263 00       		.byte	0
 3335 0264 00       		.byte	0
 3336 0265 2F       		.uleb128 0x2f
ARM GAS  C:\Users\DNIEL~1\AppData\Local\Temp\cc69cIAG.s 			page 60


 3337 0266 34       		.uleb128 0x34
 3338 0267 00       		.byte	0
 3339 0268 03       		.uleb128 0x3
 3340 0269 0E       		.uleb128 0xe
 3341 026a 3A       		.uleb128 0x3a
 3342 026b 0B       		.uleb128 0xb
 3343 026c 3B       		.uleb128 0x3b
 3344 026d 0B       		.uleb128 0xb
 3345 026e 49       		.uleb128 0x49
 3346 026f 13       		.uleb128 0x13
 3347 0270 3F       		.uleb128 0x3f
 3348 0271 0C       		.uleb128 0xc
 3349 0272 02       		.uleb128 0x2
 3350 0273 0A       		.uleb128 0xa
 3351 0274 00       		.byte	0
 3352 0275 00       		.byte	0
 3353 0276 30       		.uleb128 0x30
 3354 0277 2E       		.uleb128 0x2e
 3355 0278 01       		.byte	0x1
 3356 0279 3F       		.uleb128 0x3f
 3357 027a 0C       		.uleb128 0xc
 3358 027b 03       		.uleb128 0x3
 3359 027c 0E       		.uleb128 0xe
 3360 027d 3A       		.uleb128 0x3a
 3361 027e 0B       		.uleb128 0xb
 3362 027f 3B       		.uleb128 0x3b
 3363 0280 05       		.uleb128 0x5
 3364 0281 27       		.uleb128 0x27
 3365 0282 0C       		.uleb128 0xc
 3366 0283 3C       		.uleb128 0x3c
 3367 0284 0C       		.uleb128 0xc
 3368 0285 01       		.uleb128 0x1
 3369 0286 13       		.uleb128 0x13
 3370 0287 00       		.byte	0
 3371 0288 00       		.byte	0
 3372 0289 31       		.uleb128 0x31
 3373 028a 2E       		.uleb128 0x2e
 3374 028b 01       		.byte	0x1
 3375 028c 3F       		.uleb128 0x3f
 3376 028d 0C       		.uleb128 0xc
 3377 028e 03       		.uleb128 0x3
 3378 028f 0E       		.uleb128 0xe
 3379 0290 3A       		.uleb128 0x3a
 3380 0291 0B       		.uleb128 0xb
 3381 0292 3B       		.uleb128 0x3b
 3382 0293 05       		.uleb128 0x5
 3383 0294 27       		.uleb128 0x27
 3384 0295 0C       		.uleb128 0xc
 3385 0296 49       		.uleb128 0x49
 3386 0297 13       		.uleb128 0x13
 3387 0298 3C       		.uleb128 0x3c
 3388 0299 0C       		.uleb128 0xc
 3389 029a 01       		.uleb128 0x1
 3390 029b 13       		.uleb128 0x13
 3391 029c 00       		.byte	0
 3392 029d 00       		.byte	0
 3393 029e 32       		.uleb128 0x32
ARM GAS  C:\Users\DNIEL~1\AppData\Local\Temp\cc69cIAG.s 			page 61


 3394 029f 2E       		.uleb128 0x2e
 3395 02a0 01       		.byte	0x1
 3396 02a1 3F       		.uleb128 0x3f
 3397 02a2 0C       		.uleb128 0xc
 3398 02a3 03       		.uleb128 0x3
 3399 02a4 0E       		.uleb128 0xe
 3400 02a5 3A       		.uleb128 0x3a
 3401 02a6 0B       		.uleb128 0xb
 3402 02a7 3B       		.uleb128 0x3b
 3403 02a8 0B       		.uleb128 0xb
 3404 02a9 27       		.uleb128 0x27
 3405 02aa 0C       		.uleb128 0xc
 3406 02ab 3C       		.uleb128 0x3c
 3407 02ac 0C       		.uleb128 0xc
 3408 02ad 01       		.uleb128 0x1
 3409 02ae 13       		.uleb128 0x13
 3410 02af 00       		.byte	0
 3411 02b0 00       		.byte	0
 3412 02b1 33       		.uleb128 0x33
 3413 02b2 18       		.uleb128 0x18
 3414 02b3 00       		.byte	0
 3415 02b4 00       		.byte	0
 3416 02b5 00       		.byte	0
 3417 02b6 34       		.uleb128 0x34
 3418 02b7 2E       		.uleb128 0x2e
 3419 02b8 01       		.byte	0x1
 3420 02b9 3F       		.uleb128 0x3f
 3421 02ba 0C       		.uleb128 0xc
 3422 02bb 03       		.uleb128 0x3
 3423 02bc 0E       		.uleb128 0xe
 3424 02bd 3A       		.uleb128 0x3a
 3425 02be 0B       		.uleb128 0xb
 3426 02bf 3B       		.uleb128 0x3b
 3427 02c0 05       		.uleb128 0x5
 3428 02c1 27       		.uleb128 0x27
 3429 02c2 0C       		.uleb128 0xc
 3430 02c3 3C       		.uleb128 0x3c
 3431 02c4 0C       		.uleb128 0xc
 3432 02c5 00       		.byte	0
 3433 02c6 00       		.byte	0
 3434 02c7 00       		.byte	0
 3435              		.section	.debug_loc,"",%progbits
 3436              	.Ldebug_loc0:
 3437              	.LLST0:
 3438 0000 00000000 		.4byte	.LFB118
 3439 0004 06000000 		.4byte	.LCFI0
 3440 0008 0200     		.2byte	0x2
 3441 000a 7D       		.byte	0x7d
 3442 000b 00       		.sleb128 0
 3443 000c 06000000 		.4byte	.LCFI0
 3444 0010 1E000000 		.4byte	.LFE118
 3445 0014 0200     		.2byte	0x2
 3446 0016 7D       		.byte	0x7d
 3447 0017 08       		.sleb128 8
 3448 0018 00000000 		.4byte	0
 3449 001c 00000000 		.4byte	0
 3450              	.LLST1:
ARM GAS  C:\Users\DNIEL~1\AppData\Local\Temp\cc69cIAG.s 			page 62


 3451 0020 00000000 		.4byte	.LFB119
 3452 0024 08000000 		.4byte	.LCFI1
 3453 0028 0200     		.2byte	0x2
 3454 002a 7D       		.byte	0x7d
 3455 002b 00       		.sleb128 0
 3456 002c 08000000 		.4byte	.LCFI1
 3457 0030 F0010000 		.4byte	.LFE119
 3458 0034 0200     		.2byte	0x2
 3459 0036 7D       		.byte	0x7d
 3460 0037 14       		.sleb128 20
 3461 0038 00000000 		.4byte	0
 3462 003c 00000000 		.4byte	0
 3463              	.LLST2:
 3464 0040 78000000 		.4byte	.LVL20
 3465 0044 B2000000 		.4byte	.LVL32
 3466 0048 0200     		.2byte	0x2
 3467 004a 31       		.byte	0x31
 3468 004b 9F       		.byte	0x9f
 3469 004c B2000000 		.4byte	.LVL32
 3470 0050 EC000000 		.4byte	.LVL44
 3471 0054 0200     		.2byte	0x2
 3472 0056 32       		.byte	0x32
 3473 0057 9F       		.byte	0x9f
 3474 0058 EC000000 		.4byte	.LVL44
 3475 005c 26010000 		.4byte	.LVL56
 3476 0060 0200     		.2byte	0x2
 3477 0062 33       		.byte	0x33
 3478 0063 9F       		.byte	0x9f
 3479 0064 26010000 		.4byte	.LVL56
 3480 0068 62010000 		.4byte	.LVL68
 3481 006c 0200     		.2byte	0x2
 3482 006e 34       		.byte	0x34
 3483 006f 9F       		.byte	0x9f
 3484 0070 62010000 		.4byte	.LVL68
 3485 0074 9E010000 		.4byte	.LVL80
 3486 0078 0200     		.2byte	0x2
 3487 007a 35       		.byte	0x35
 3488 007b 9F       		.byte	0x9f
 3489 007c 9E010000 		.4byte	.LVL80
 3490 0080 D8010000 		.4byte	.LVL92
 3491 0084 0200     		.2byte	0x2
 3492 0086 36       		.byte	0x36
 3493 0087 9F       		.byte	0x9f
 3494 0088 D8010000 		.4byte	.LVL92
 3495 008c F0010000 		.4byte	.LFE119
 3496 0090 0200     		.2byte	0x2
 3497 0092 37       		.byte	0x37
 3498 0093 9F       		.byte	0x9f
 3499 0094 00000000 		.4byte	0
 3500 0098 00000000 		.4byte	0
 3501              	.LLST3:
 3502 009c 22000000 		.4byte	.LVL5
 3503 00a0 2A000000 		.4byte	.LVL6
 3504 00a4 0C00     		.2byte	0xc
 3505 00a6 03       		.byte	0x3
 3506 00a7 00000000 		.4byte	samples
 3507 00ab 94       		.byte	0x94
ARM GAS  C:\Users\DNIEL~1\AppData\Local\Temp\cc69cIAG.s 			page 63


 3508 00ac 02       		.byte	0x2
 3509 00ad 0A       		.byte	0xa
 3510 00ae FFFF     		.2byte	0xffff
 3511 00b0 1A       		.byte	0x1a
 3512 00b1 9F       		.byte	0x9f
 3513 00b2 2A000000 		.4byte	.LVL6
 3514 00b6 40000000 		.4byte	.LVL8
 3515 00ba 0100     		.2byte	0x1
 3516 00bc 57       		.byte	0x57
 3517 00bd 40000000 		.4byte	.LVL8
 3518 00c1 42000000 		.4byte	.LVL9
 3519 00c5 0100     		.2byte	0x1
 3520 00c7 56       		.byte	0x56
 3521 00c8 42000000 		.4byte	.LVL9
 3522 00cc 44000000 		.4byte	.LVL10
 3523 00d0 0100     		.2byte	0x1
 3524 00d2 55       		.byte	0x55
 3525 00d3 44000000 		.4byte	.LVL10
 3526 00d7 46000000 		.4byte	.LVL11
 3527 00db 0100     		.2byte	0x1
 3528 00dd 54       		.byte	0x54
 3529 00de 46000000 		.4byte	.LVL11
 3530 00e2 48000000 		.4byte	.LVL12
 3531 00e6 0100     		.2byte	0x1
 3532 00e8 50       		.byte	0x50
 3533 00e9 48000000 		.4byte	.LVL12
 3534 00ed 4A000000 		.4byte	.LVL13
 3535 00f1 0100     		.2byte	0x1
 3536 00f3 51       		.byte	0x51
 3537 00f4 4A000000 		.4byte	.LVL13
 3538 00f8 4C000000 		.4byte	.LVL14
 3539 00fc 0100     		.2byte	0x1
 3540 00fe 53       		.byte	0x53
 3541 00ff 4C000000 		.4byte	.LVL14
 3542 0103 78000000 		.4byte	.LVL20
 3543 0107 0100     		.2byte	0x1
 3544 0109 57       		.byte	0x57
 3545 010a 78000000 		.4byte	.LVL20
 3546 010e 7C000000 		.4byte	.LVL21
 3547 0112 0C00     		.2byte	0xc
 3548 0114 03       		.byte	0x3
 3549 0115 02000000 		.4byte	samples+2
 3550 0119 94       		.byte	0x94
 3551 011a 02       		.byte	0x2
 3552 011b 0A       		.byte	0xa
 3553 011c FFFF     		.2byte	0xffff
 3554 011e 1A       		.byte	0x1a
 3555 011f 9F       		.byte	0x9f
 3556 0120 7C000000 		.4byte	.LVL21
 3557 0124 96000000 		.4byte	.LVL24
 3558 0128 0100     		.2byte	0x1
 3559 012a 58       		.byte	0x58
 3560 012b 96000000 		.4byte	.LVL24
 3561 012f 98000000 		.4byte	.LVL25
 3562 0133 0100     		.2byte	0x1
 3563 0135 57       		.byte	0x57
 3564 0136 98000000 		.4byte	.LVL25
ARM GAS  C:\Users\DNIEL~1\AppData\Local\Temp\cc69cIAG.s 			page 64


 3565 013a 9A000000 		.4byte	.LVL26
 3566 013e 0100     		.2byte	0x1
 3567 0140 56       		.byte	0x56
 3568 0141 9A000000 		.4byte	.LVL26
 3569 0145 9C000000 		.4byte	.LVL27
 3570 0149 0100     		.2byte	0x1
 3571 014b 55       		.byte	0x55
 3572 014c 9C000000 		.4byte	.LVL27
 3573 0150 9E000000 		.4byte	.LVL28
 3574 0154 0100     		.2byte	0x1
 3575 0156 54       		.byte	0x54
 3576 0157 9E000000 		.4byte	.LVL28
 3577 015b A0000000 		.4byte	.LVL29
 3578 015f 0100     		.2byte	0x1
 3579 0161 50       		.byte	0x50
 3580 0162 A0000000 		.4byte	.LVL29
 3581 0166 B2000000 		.4byte	.LVL32
 3582 016a 0500     		.2byte	0x5
 3583 016c 77       		.byte	0x77
 3584 016d 00       		.sleb128 0
 3585 016e 33       		.byte	0x33
 3586 016f 26       		.byte	0x26
 3587 0170 9F       		.byte	0x9f
 3588 0171 B2000000 		.4byte	.LVL32
 3589 0175 B6000000 		.4byte	.LVL33
 3590 0179 0C00     		.2byte	0xc
 3591 017b 03       		.byte	0x3
 3592 017c 04000000 		.4byte	samples+4
 3593 0180 94       		.byte	0x94
 3594 0181 02       		.byte	0x2
 3595 0182 0A       		.byte	0xa
 3596 0183 FFFF     		.2byte	0xffff
 3597 0185 1A       		.byte	0x1a
 3598 0186 9F       		.byte	0x9f
 3599 0187 B6000000 		.4byte	.LVL33
 3600 018b D0000000 		.4byte	.LVL36
 3601 018f 0100     		.2byte	0x1
 3602 0191 58       		.byte	0x58
 3603 0192 D0000000 		.4byte	.LVL36
 3604 0196 D2000000 		.4byte	.LVL37
 3605 019a 0100     		.2byte	0x1
 3606 019c 57       		.byte	0x57
 3607 019d D2000000 		.4byte	.LVL37
 3608 01a1 D4000000 		.4byte	.LVL38
 3609 01a5 0100     		.2byte	0x1
 3610 01a7 56       		.byte	0x56
 3611 01a8 D4000000 		.4byte	.LVL38
 3612 01ac D6000000 		.4byte	.LVL39
 3613 01b0 0100     		.2byte	0x1
 3614 01b2 55       		.byte	0x55
 3615 01b3 D6000000 		.4byte	.LVL39
 3616 01b7 D8000000 		.4byte	.LVL40
 3617 01bb 0100     		.2byte	0x1
 3618 01bd 54       		.byte	0x54
 3619 01be D8000000 		.4byte	.LVL40
 3620 01c2 DA000000 		.4byte	.LVL41
 3621 01c6 0100     		.2byte	0x1
ARM GAS  C:\Users\DNIEL~1\AppData\Local\Temp\cc69cIAG.s 			page 65


 3622 01c8 50       		.byte	0x50
 3623 01c9 DA000000 		.4byte	.LVL41
 3624 01cd EC000000 		.4byte	.LVL44
 3625 01d1 0500     		.2byte	0x5
 3626 01d3 77       		.byte	0x77
 3627 01d4 00       		.sleb128 0
 3628 01d5 33       		.byte	0x33
 3629 01d6 26       		.byte	0x26
 3630 01d7 9F       		.byte	0x9f
 3631 01d8 EC000000 		.4byte	.LVL44
 3632 01dc F0000000 		.4byte	.LVL45
 3633 01e0 0C00     		.2byte	0xc
 3634 01e2 03       		.byte	0x3
 3635 01e3 06000000 		.4byte	samples+6
 3636 01e7 94       		.byte	0x94
 3637 01e8 02       		.byte	0x2
 3638 01e9 0A       		.byte	0xa
 3639 01ea FFFF     		.2byte	0xffff
 3640 01ec 1A       		.byte	0x1a
 3641 01ed 9F       		.byte	0x9f
 3642 01ee F0000000 		.4byte	.LVL45
 3643 01f2 0A010000 		.4byte	.LVL48
 3644 01f6 0100     		.2byte	0x1
 3645 01f8 58       		.byte	0x58
 3646 01f9 0A010000 		.4byte	.LVL48
 3647 01fd 0C010000 		.4byte	.LVL49
 3648 0201 0100     		.2byte	0x1
 3649 0203 57       		.byte	0x57
 3650 0204 0C010000 		.4byte	.LVL49
 3651 0208 0E010000 		.4byte	.LVL50
 3652 020c 0100     		.2byte	0x1
 3653 020e 56       		.byte	0x56
 3654 020f 0E010000 		.4byte	.LVL50
 3655 0213 10010000 		.4byte	.LVL51
 3656 0217 0100     		.2byte	0x1
 3657 0219 55       		.byte	0x55
 3658 021a 10010000 		.4byte	.LVL51
 3659 021e 12010000 		.4byte	.LVL52
 3660 0222 0100     		.2byte	0x1
 3661 0224 54       		.byte	0x54
 3662 0225 12010000 		.4byte	.LVL52
 3663 0229 14010000 		.4byte	.LVL53
 3664 022d 0100     		.2byte	0x1
 3665 022f 50       		.byte	0x50
 3666 0230 14010000 		.4byte	.LVL53
 3667 0234 26010000 		.4byte	.LVL56
 3668 0238 0500     		.2byte	0x5
 3669 023a 77       		.byte	0x77
 3670 023b 00       		.sleb128 0
 3671 023c 33       		.byte	0x33
 3672 023d 26       		.byte	0x26
 3673 023e 9F       		.byte	0x9f
 3674 023f 26010000 		.4byte	.LVL56
 3675 0243 2A010000 		.4byte	.LVL57
 3676 0247 0C00     		.2byte	0xc
 3677 0249 03       		.byte	0x3
 3678 024a 08000000 		.4byte	samples+8
ARM GAS  C:\Users\DNIEL~1\AppData\Local\Temp\cc69cIAG.s 			page 66


 3679 024e 94       		.byte	0x94
 3680 024f 02       		.byte	0x2
 3681 0250 0A       		.byte	0xa
 3682 0251 FFFF     		.2byte	0xffff
 3683 0253 1A       		.byte	0x1a
 3684 0254 9F       		.byte	0x9f
 3685 0255 2A010000 		.4byte	.LVL57
 3686 0259 46010000 		.4byte	.LVL60
 3687 025d 0100     		.2byte	0x1
 3688 025f 58       		.byte	0x58
 3689 0260 46010000 		.4byte	.LVL60
 3690 0264 48010000 		.4byte	.LVL61
 3691 0268 0100     		.2byte	0x1
 3692 026a 57       		.byte	0x57
 3693 026b 48010000 		.4byte	.LVL61
 3694 026f 4A010000 		.4byte	.LVL62
 3695 0273 0100     		.2byte	0x1
 3696 0275 56       		.byte	0x56
 3697 0276 4A010000 		.4byte	.LVL62
 3698 027a 4C010000 		.4byte	.LVL63
 3699 027e 0100     		.2byte	0x1
 3700 0280 55       		.byte	0x55
 3701 0281 4C010000 		.4byte	.LVL63
 3702 0285 4E010000 		.4byte	.LVL64
 3703 0289 0100     		.2byte	0x1
 3704 028b 54       		.byte	0x54
 3705 028c 4E010000 		.4byte	.LVL64
 3706 0290 50010000 		.4byte	.LVL65
 3707 0294 0100     		.2byte	0x1
 3708 0296 50       		.byte	0x50
 3709 0297 50010000 		.4byte	.LVL65
 3710 029b 62010000 		.4byte	.LVL68
 3711 029f 0500     		.2byte	0x5
 3712 02a1 77       		.byte	0x77
 3713 02a2 00       		.sleb128 0
 3714 02a3 33       		.byte	0x33
 3715 02a4 26       		.byte	0x26
 3716 02a5 9F       		.byte	0x9f
 3717 02a6 62010000 		.4byte	.LVL68
 3718 02aa 66010000 		.4byte	.LVL69
 3719 02ae 0C00     		.2byte	0xc
 3720 02b0 03       		.byte	0x3
 3721 02b1 0A000000 		.4byte	samples+10
 3722 02b5 94       		.byte	0x94
 3723 02b6 02       		.byte	0x2
 3724 02b7 0A       		.byte	0xa
 3725 02b8 FFFF     		.2byte	0xffff
 3726 02ba 1A       		.byte	0x1a
 3727 02bb 9F       		.byte	0x9f
 3728 02bc 66010000 		.4byte	.LVL69
 3729 02c0 80010000 		.4byte	.LVL71
 3730 02c4 0100     		.2byte	0x1
 3731 02c6 58       		.byte	0x58
 3732 02c7 80010000 		.4byte	.LVL71
 3733 02cb 82010000 		.4byte	.LVL72
 3734 02cf 0100     		.2byte	0x1
 3735 02d1 5C       		.byte	0x5c
ARM GAS  C:\Users\DNIEL~1\AppData\Local\Temp\cc69cIAG.s 			page 67


 3736 02d2 82010000 		.4byte	.LVL72
 3737 02d6 84010000 		.4byte	.LVL73
 3738 02da 0100     		.2byte	0x1
 3739 02dc 57       		.byte	0x57
 3740 02dd 84010000 		.4byte	.LVL73
 3741 02e1 86010000 		.4byte	.LVL74
 3742 02e5 0100     		.2byte	0x1
 3743 02e7 56       		.byte	0x56
 3744 02e8 86010000 		.4byte	.LVL74
 3745 02ec 88010000 		.4byte	.LVL75
 3746 02f0 0100     		.2byte	0x1
 3747 02f2 55       		.byte	0x55
 3748 02f3 88010000 		.4byte	.LVL75
 3749 02f7 8A010000 		.4byte	.LVL76
 3750 02fb 0100     		.2byte	0x1
 3751 02fd 54       		.byte	0x54
 3752 02fe 8A010000 		.4byte	.LVL76
 3753 0302 8C010000 		.4byte	.LVL77
 3754 0306 0100     		.2byte	0x1
 3755 0308 50       		.byte	0x50
 3756 0309 8C010000 		.4byte	.LVL77
 3757 030d 9E010000 		.4byte	.LVL80
 3758 0311 0500     		.2byte	0x5
 3759 0313 77       		.byte	0x77
 3760 0314 00       		.sleb128 0
 3761 0315 33       		.byte	0x33
 3762 0316 26       		.byte	0x26
 3763 0317 9F       		.byte	0x9f
 3764 0318 9E010000 		.4byte	.LVL80
 3765 031c A2010000 		.4byte	.LVL81
 3766 0320 0C00     		.2byte	0xc
 3767 0322 03       		.byte	0x3
 3768 0323 0C000000 		.4byte	samples+12
 3769 0327 94       		.byte	0x94
 3770 0328 02       		.byte	0x2
 3771 0329 0A       		.byte	0xa
 3772 032a FFFF     		.2byte	0xffff
 3773 032c 1A       		.byte	0x1a
 3774 032d 9F       		.byte	0x9f
 3775 032e A2010000 		.4byte	.LVL81
 3776 0332 BA010000 		.4byte	.LVL83
 3777 0336 0100     		.2byte	0x1
 3778 0338 5C       		.byte	0x5c
 3779 0339 BA010000 		.4byte	.LVL83
 3780 033d BC010000 		.4byte	.LVL84
 3781 0341 0100     		.2byte	0x1
 3782 0343 57       		.byte	0x57
 3783 0344 BC010000 		.4byte	.LVL84
 3784 0348 BE010000 		.4byte	.LVL85
 3785 034c 0100     		.2byte	0x1
 3786 034e 56       		.byte	0x56
 3787 034f BE010000 		.4byte	.LVL85
 3788 0353 C0010000 		.4byte	.LVL86
 3789 0357 0100     		.2byte	0x1
 3790 0359 55       		.byte	0x55
 3791 035a C0010000 		.4byte	.LVL86
 3792 035e C2010000 		.4byte	.LVL87
ARM GAS  C:\Users\DNIEL~1\AppData\Local\Temp\cc69cIAG.s 			page 68


 3793 0362 0100     		.2byte	0x1
 3794 0364 54       		.byte	0x54
 3795 0365 C2010000 		.4byte	.LVL87
 3796 0369 C4010000 		.4byte	.LVL88
 3797 036d 0100     		.2byte	0x1
 3798 036f 50       		.byte	0x50
 3799 0370 C4010000 		.4byte	.LVL88
 3800 0374 C6010000 		.4byte	.LVL89
 3801 0378 0100     		.2byte	0x1
 3802 037a 53       		.byte	0x53
 3803 037b C6010000 		.4byte	.LVL89
 3804 037f F0010000 		.4byte	.LFE119
 3805 0383 0500     		.2byte	0x5
 3806 0385 72       		.byte	0x72
 3807 0386 00       		.sleb128 0
 3808 0387 33       		.byte	0x33
 3809 0388 26       		.byte	0x26
 3810 0389 9F       		.byte	0x9f
 3811 038a 00000000 		.4byte	0
 3812 038e 00000000 		.4byte	0
 3813              	.LLST4:
 3814 0392 22000000 		.4byte	.LVL5
 3815 0396 3E000000 		.4byte	.LVL7
 3816 039a 0200     		.2byte	0x2
 3817 039c 31       		.byte	0x31
 3818 039d 9F       		.byte	0x9f
 3819 039e 3E000000 		.4byte	.LVL7
 3820 03a2 40000000 		.4byte	.LVL8
 3821 03a6 0200     		.2byte	0x2
 3822 03a8 32       		.byte	0x32
 3823 03a9 9F       		.byte	0x9f
 3824 03aa 40000000 		.4byte	.LVL8
 3825 03ae 42000000 		.4byte	.LVL9
 3826 03b2 0200     		.2byte	0x2
 3827 03b4 33       		.byte	0x33
 3828 03b5 9F       		.byte	0x9f
 3829 03b6 42000000 		.4byte	.LVL9
 3830 03ba 44000000 		.4byte	.LVL10
 3831 03be 0200     		.2byte	0x2
 3832 03c0 34       		.byte	0x34
 3833 03c1 9F       		.byte	0x9f
 3834 03c2 44000000 		.4byte	.LVL10
 3835 03c6 46000000 		.4byte	.LVL11
 3836 03ca 0200     		.2byte	0x2
 3837 03cc 35       		.byte	0x35
 3838 03cd 9F       		.byte	0x9f
 3839 03ce 46000000 		.4byte	.LVL11
 3840 03d2 48000000 		.4byte	.LVL12
 3841 03d6 0200     		.2byte	0x2
 3842 03d8 36       		.byte	0x36
 3843 03d9 9F       		.byte	0x9f
 3844 03da 48000000 		.4byte	.LVL12
 3845 03de 4A000000 		.4byte	.LVL13
 3846 03e2 0200     		.2byte	0x2
 3847 03e4 37       		.byte	0x37
 3848 03e5 9F       		.byte	0x9f
 3849 03e6 4A000000 		.4byte	.LVL13
ARM GAS  C:\Users\DNIEL~1\AppData\Local\Temp\cc69cIAG.s 			page 69


 3850 03ea 78000000 		.4byte	.LVL20
 3851 03ee 0200     		.2byte	0x2
 3852 03f0 38       		.byte	0x38
 3853 03f1 9F       		.byte	0x9f
 3854 03f2 78000000 		.4byte	.LVL20
 3855 03f6 94000000 		.4byte	.LVL23
 3856 03fa 0200     		.2byte	0x2
 3857 03fc 31       		.byte	0x31
 3858 03fd 9F       		.byte	0x9f
 3859 03fe 94000000 		.4byte	.LVL23
 3860 0402 96000000 		.4byte	.LVL24
 3861 0406 0200     		.2byte	0x2
 3862 0408 32       		.byte	0x32
 3863 0409 9F       		.byte	0x9f
 3864 040a 96000000 		.4byte	.LVL24
 3865 040e 98000000 		.4byte	.LVL25
 3866 0412 0200     		.2byte	0x2
 3867 0414 33       		.byte	0x33
 3868 0415 9F       		.byte	0x9f
 3869 0416 98000000 		.4byte	.LVL25
 3870 041a 9A000000 		.4byte	.LVL26
 3871 041e 0200     		.2byte	0x2
 3872 0420 34       		.byte	0x34
 3873 0421 9F       		.byte	0x9f
 3874 0422 9A000000 		.4byte	.LVL26
 3875 0426 9C000000 		.4byte	.LVL27
 3876 042a 0200     		.2byte	0x2
 3877 042c 35       		.byte	0x35
 3878 042d 9F       		.byte	0x9f
 3879 042e 9C000000 		.4byte	.LVL27
 3880 0432 9E000000 		.4byte	.LVL28
 3881 0436 0200     		.2byte	0x2
 3882 0438 36       		.byte	0x36
 3883 0439 9F       		.byte	0x9f
 3884 043a 9E000000 		.4byte	.LVL28
 3885 043e A0000000 		.4byte	.LVL29
 3886 0442 0200     		.2byte	0x2
 3887 0444 37       		.byte	0x37
 3888 0445 9F       		.byte	0x9f
 3889 0446 A0000000 		.4byte	.LVL29
 3890 044a B2000000 		.4byte	.LVL32
 3891 044e 0200     		.2byte	0x2
 3892 0450 38       		.byte	0x38
 3893 0451 9F       		.byte	0x9f
 3894 0452 B2000000 		.4byte	.LVL32
 3895 0456 CE000000 		.4byte	.LVL35
 3896 045a 0200     		.2byte	0x2
 3897 045c 31       		.byte	0x31
 3898 045d 9F       		.byte	0x9f
 3899 045e CE000000 		.4byte	.LVL35
 3900 0462 D0000000 		.4byte	.LVL36
 3901 0466 0200     		.2byte	0x2
 3902 0468 32       		.byte	0x32
 3903 0469 9F       		.byte	0x9f
 3904 046a D0000000 		.4byte	.LVL36
 3905 046e D2000000 		.4byte	.LVL37
 3906 0472 0200     		.2byte	0x2
ARM GAS  C:\Users\DNIEL~1\AppData\Local\Temp\cc69cIAG.s 			page 70


 3907 0474 33       		.byte	0x33
 3908 0475 9F       		.byte	0x9f
 3909 0476 D2000000 		.4byte	.LVL37
 3910 047a D4000000 		.4byte	.LVL38
 3911 047e 0200     		.2byte	0x2
 3912 0480 34       		.byte	0x34
 3913 0481 9F       		.byte	0x9f
 3914 0482 D4000000 		.4byte	.LVL38
 3915 0486 D6000000 		.4byte	.LVL39
 3916 048a 0200     		.2byte	0x2
 3917 048c 35       		.byte	0x35
 3918 048d 9F       		.byte	0x9f
 3919 048e D6000000 		.4byte	.LVL39
 3920 0492 D8000000 		.4byte	.LVL40
 3921 0496 0200     		.2byte	0x2
 3922 0498 36       		.byte	0x36
 3923 0499 9F       		.byte	0x9f
 3924 049a D8000000 		.4byte	.LVL40
 3925 049e DA000000 		.4byte	.LVL41
 3926 04a2 0200     		.2byte	0x2
 3927 04a4 37       		.byte	0x37
 3928 04a5 9F       		.byte	0x9f
 3929 04a6 DA000000 		.4byte	.LVL41
 3930 04aa EC000000 		.4byte	.LVL44
 3931 04ae 0200     		.2byte	0x2
 3932 04b0 38       		.byte	0x38
 3933 04b1 9F       		.byte	0x9f
 3934 04b2 EC000000 		.4byte	.LVL44
 3935 04b6 08010000 		.4byte	.LVL47
 3936 04ba 0200     		.2byte	0x2
 3937 04bc 31       		.byte	0x31
 3938 04bd 9F       		.byte	0x9f
 3939 04be 08010000 		.4byte	.LVL47
 3940 04c2 0A010000 		.4byte	.LVL48
 3941 04c6 0200     		.2byte	0x2
 3942 04c8 32       		.byte	0x32
 3943 04c9 9F       		.byte	0x9f
 3944 04ca 0A010000 		.4byte	.LVL48
 3945 04ce 0C010000 		.4byte	.LVL49
 3946 04d2 0200     		.2byte	0x2
 3947 04d4 33       		.byte	0x33
 3948 04d5 9F       		.byte	0x9f
 3949 04d6 0C010000 		.4byte	.LVL49
 3950 04da 0E010000 		.4byte	.LVL50
 3951 04de 0200     		.2byte	0x2
 3952 04e0 34       		.byte	0x34
 3953 04e1 9F       		.byte	0x9f
 3954 04e2 0E010000 		.4byte	.LVL50
 3955 04e6 10010000 		.4byte	.LVL51
 3956 04ea 0200     		.2byte	0x2
 3957 04ec 35       		.byte	0x35
 3958 04ed 9F       		.byte	0x9f
 3959 04ee 10010000 		.4byte	.LVL51
 3960 04f2 12010000 		.4byte	.LVL52
 3961 04f6 0200     		.2byte	0x2
 3962 04f8 36       		.byte	0x36
 3963 04f9 9F       		.byte	0x9f
ARM GAS  C:\Users\DNIEL~1\AppData\Local\Temp\cc69cIAG.s 			page 71


 3964 04fa 12010000 		.4byte	.LVL52
 3965 04fe 14010000 		.4byte	.LVL53
 3966 0502 0200     		.2byte	0x2
 3967 0504 37       		.byte	0x37
 3968 0505 9F       		.byte	0x9f
 3969 0506 14010000 		.4byte	.LVL53
 3970 050a 26010000 		.4byte	.LVL56
 3971 050e 0200     		.2byte	0x2
 3972 0510 38       		.byte	0x38
 3973 0511 9F       		.byte	0x9f
 3974 0512 26010000 		.4byte	.LVL56
 3975 0516 44010000 		.4byte	.LVL59
 3976 051a 0200     		.2byte	0x2
 3977 051c 31       		.byte	0x31
 3978 051d 9F       		.byte	0x9f
 3979 051e 44010000 		.4byte	.LVL59
 3980 0522 46010000 		.4byte	.LVL60
 3981 0526 0200     		.2byte	0x2
 3982 0528 32       		.byte	0x32
 3983 0529 9F       		.byte	0x9f
 3984 052a 46010000 		.4byte	.LVL60
 3985 052e 48010000 		.4byte	.LVL61
 3986 0532 0200     		.2byte	0x2
 3987 0534 33       		.byte	0x33
 3988 0535 9F       		.byte	0x9f
 3989 0536 48010000 		.4byte	.LVL61
 3990 053a 4A010000 		.4byte	.LVL62
 3991 053e 0200     		.2byte	0x2
 3992 0540 34       		.byte	0x34
 3993 0541 9F       		.byte	0x9f
 3994 0542 4A010000 		.4byte	.LVL62
 3995 0546 4C010000 		.4byte	.LVL63
 3996 054a 0200     		.2byte	0x2
 3997 054c 35       		.byte	0x35
 3998 054d 9F       		.byte	0x9f
 3999 054e 4C010000 		.4byte	.LVL63
 4000 0552 4E010000 		.4byte	.LVL64
 4001 0556 0200     		.2byte	0x2
 4002 0558 36       		.byte	0x36
 4003 0559 9F       		.byte	0x9f
 4004 055a 4E010000 		.4byte	.LVL64
 4005 055e 50010000 		.4byte	.LVL65
 4006 0562 0200     		.2byte	0x2
 4007 0564 37       		.byte	0x37
 4008 0565 9F       		.byte	0x9f
 4009 0566 50010000 		.4byte	.LVL65
 4010 056a 62010000 		.4byte	.LVL68
 4011 056e 0200     		.2byte	0x2
 4012 0570 38       		.byte	0x38
 4013 0571 9F       		.byte	0x9f
 4014 0572 62010000 		.4byte	.LVL68
 4015 0576 80010000 		.4byte	.LVL71
 4016 057a 0200     		.2byte	0x2
 4017 057c 31       		.byte	0x31
 4018 057d 9F       		.byte	0x9f
 4019 057e 80010000 		.4byte	.LVL71
 4020 0582 82010000 		.4byte	.LVL72
ARM GAS  C:\Users\DNIEL~1\AppData\Local\Temp\cc69cIAG.s 			page 72


 4021 0586 0200     		.2byte	0x2
 4022 0588 32       		.byte	0x32
 4023 0589 9F       		.byte	0x9f
 4024 058a 82010000 		.4byte	.LVL72
 4025 058e 84010000 		.4byte	.LVL73
 4026 0592 0200     		.2byte	0x2
 4027 0594 33       		.byte	0x33
 4028 0595 9F       		.byte	0x9f
 4029 0596 84010000 		.4byte	.LVL73
 4030 059a 86010000 		.4byte	.LVL74
 4031 059e 0200     		.2byte	0x2
 4032 05a0 34       		.byte	0x34
 4033 05a1 9F       		.byte	0x9f
 4034 05a2 86010000 		.4byte	.LVL74
 4035 05a6 88010000 		.4byte	.LVL75
 4036 05aa 0200     		.2byte	0x2
 4037 05ac 35       		.byte	0x35
 4038 05ad 9F       		.byte	0x9f
 4039 05ae 88010000 		.4byte	.LVL75
 4040 05b2 8A010000 		.4byte	.LVL76
 4041 05b6 0200     		.2byte	0x2
 4042 05b8 36       		.byte	0x36
 4043 05b9 9F       		.byte	0x9f
 4044 05ba 8A010000 		.4byte	.LVL76
 4045 05be 8C010000 		.4byte	.LVL77
 4046 05c2 0200     		.2byte	0x2
 4047 05c4 37       		.byte	0x37
 4048 05c5 9F       		.byte	0x9f
 4049 05c6 8C010000 		.4byte	.LVL77
 4050 05ca 9E010000 		.4byte	.LVL80
 4051 05ce 0200     		.2byte	0x2
 4052 05d0 38       		.byte	0x38
 4053 05d1 9F       		.byte	0x9f
 4054 05d2 9E010000 		.4byte	.LVL80
 4055 05d6 BA010000 		.4byte	.LVL83
 4056 05da 0200     		.2byte	0x2
 4057 05dc 31       		.byte	0x31
 4058 05dd 9F       		.byte	0x9f
 4059 05de BA010000 		.4byte	.LVL83
 4060 05e2 BC010000 		.4byte	.LVL84
 4061 05e6 0200     		.2byte	0x2
 4062 05e8 32       		.byte	0x32
 4063 05e9 9F       		.byte	0x9f
 4064 05ea BC010000 		.4byte	.LVL84
 4065 05ee BE010000 		.4byte	.LVL85
 4066 05f2 0200     		.2byte	0x2
 4067 05f4 33       		.byte	0x33
 4068 05f5 9F       		.byte	0x9f
 4069 05f6 BE010000 		.4byte	.LVL85
 4070 05fa C0010000 		.4byte	.LVL86
 4071 05fe 0200     		.2byte	0x2
 4072 0600 34       		.byte	0x34
 4073 0601 9F       		.byte	0x9f
 4074 0602 C0010000 		.4byte	.LVL86
 4075 0606 C2010000 		.4byte	.LVL87
 4076 060a 0200     		.2byte	0x2
 4077 060c 35       		.byte	0x35
ARM GAS  C:\Users\DNIEL~1\AppData\Local\Temp\cc69cIAG.s 			page 73


 4078 060d 9F       		.byte	0x9f
 4079 060e C2010000 		.4byte	.LVL87
 4080 0612 C4010000 		.4byte	.LVL88
 4081 0616 0200     		.2byte	0x2
 4082 0618 36       		.byte	0x36
 4083 0619 9F       		.byte	0x9f
 4084 061a C4010000 		.4byte	.LVL88
 4085 061e C6010000 		.4byte	.LVL89
 4086 0622 0200     		.2byte	0x2
 4087 0624 37       		.byte	0x37
 4088 0625 9F       		.byte	0x9f
 4089 0626 C6010000 		.4byte	.LVL89
 4090 062a F0010000 		.4byte	.LFE119
 4091 062e 0200     		.2byte	0x2
 4092 0630 38       		.byte	0x38
 4093 0631 9F       		.byte	0x9f
 4094 0632 00000000 		.4byte	0
 4095 0636 00000000 		.4byte	0
 4096              	.LLST5:
 4097 063a 6E000000 		.4byte	.LVL18
 4098 063e 72000000 		.4byte	.LVL19
 4099 0642 0100     		.2byte	0x1
 4100 0644 53       		.byte	0x53
 4101 0645 A6000000 		.4byte	.LVL30
 4102 0649 AA000000 		.4byte	.LVL31
 4103 064d 0100     		.2byte	0x1
 4104 064f 53       		.byte	0x53
 4105 0650 E0000000 		.4byte	.LVL42
 4106 0654 E4000000 		.4byte	.LVL43
 4107 0658 0100     		.2byte	0x1
 4108 065a 53       		.byte	0x53
 4109 065b 1A010000 		.4byte	.LVL54
 4110 065f 1E010000 		.4byte	.LVL55
 4111 0663 0100     		.2byte	0x1
 4112 0665 53       		.byte	0x53
 4113 0666 56010000 		.4byte	.LVL66
 4114 066a 5A010000 		.4byte	.LVL67
 4115 066e 0100     		.2byte	0x1
 4116 0670 53       		.byte	0x53
 4117 0671 92010000 		.4byte	.LVL78
 4118 0675 96010000 		.4byte	.LVL79
 4119 0679 0100     		.2byte	0x1
 4120 067b 53       		.byte	0x53
 4121 067c CC010000 		.4byte	.LVL90
 4122 0680 D4010000 		.4byte	.LVL91
 4123 0684 0100     		.2byte	0x1
 4124 0686 53       		.byte	0x53
 4125 0687 00000000 		.4byte	0
 4126 068b 00000000 		.4byte	0
 4127              	.LLST6:
 4128 068f 0E000000 		.4byte	.LVL2
 4129 0693 16000000 		.4byte	.LVL3
 4130 0697 0100     		.2byte	0x1
 4131 0699 53       		.byte	0x53
 4132 069a 78000000 		.4byte	.LVL20
 4133 069e 92000000 		.4byte	.LVL22
 4134 06a2 0100     		.2byte	0x1
ARM GAS  C:\Users\DNIEL~1\AppData\Local\Temp\cc69cIAG.s 			page 74


 4135 06a4 53       		.byte	0x53
 4136 06a5 B2000000 		.4byte	.LVL32
 4137 06a9 CC000000 		.4byte	.LVL34
 4138 06ad 0100     		.2byte	0x1
 4139 06af 53       		.byte	0x53
 4140 06b0 EC000000 		.4byte	.LVL44
 4141 06b4 06010000 		.4byte	.LVL46
 4142 06b8 0100     		.2byte	0x1
 4143 06ba 53       		.byte	0x53
 4144 06bb 26010000 		.4byte	.LVL56
 4145 06bf 42010000 		.4byte	.LVL58
 4146 06c3 0100     		.2byte	0x1
 4147 06c5 53       		.byte	0x53
 4148 06c6 62010000 		.4byte	.LVL68
 4149 06ca 7E010000 		.4byte	.LVL70
 4150 06ce 0100     		.2byte	0x1
 4151 06d0 53       		.byte	0x53
 4152 06d1 9E010000 		.4byte	.LVL80
 4153 06d5 B4010000 		.4byte	.LVL82
 4154 06d9 0100     		.2byte	0x1
 4155 06db 53       		.byte	0x53
 4156 06dc D8010000 		.4byte	.LVL92
 4157 06e0 F0010000 		.4byte	.LFE119
 4158 06e4 0100     		.2byte	0x1
 4159 06e6 53       		.byte	0x53
 4160 06e7 00000000 		.4byte	0
 4161 06eb 00000000 		.4byte	0
 4162              	.LLST7:
 4163 06ef 00000000 		.4byte	.LVL93
 4164 06f3 0C000000 		.4byte	.LVL94
 4165 06f7 0100     		.2byte	0x1
 4166 06f9 50       		.byte	0x50
 4167 06fa 0C000000 		.4byte	.LVL94
 4168 06fe 0E000000 		.4byte	.LFE120
 4169 0702 0400     		.2byte	0x4
 4170 0704 F3       		.byte	0xf3
 4171 0705 01       		.uleb128 0x1
 4172 0706 50       		.byte	0x50
 4173 0707 9F       		.byte	0x9f
 4174 0708 00000000 		.4byte	0
 4175 070c 00000000 		.4byte	0
 4176              	.LLST8:
 4177 0710 00000000 		.4byte	.LFB122
 4178 0714 02000000 		.4byte	.LCFI2
 4179 0718 0200     		.2byte	0x2
 4180 071a 7D       		.byte	0x7d
 4181 071b 00       		.sleb128 0
 4182 071c 02000000 		.4byte	.LCFI2
 4183 0720 C0000000 		.4byte	.LFE122
 4184 0724 0200     		.2byte	0x2
 4185 0726 7D       		.byte	0x7d
 4186 0727 10       		.sleb128 16
 4187 0728 00000000 		.4byte	0
 4188 072c 00000000 		.4byte	0
 4189              	.LLST9:
 4190 0730 00000000 		.4byte	.LVL95
 4191 0734 0B000000 		.4byte	.LVL97-1
ARM GAS  C:\Users\DNIEL~1\AppData\Local\Temp\cc69cIAG.s 			page 75


 4192 0738 0100     		.2byte	0x1
 4193 073a 50       		.byte	0x50
 4194 073b 0B000000 		.4byte	.LVL97-1
 4195 073f 16000000 		.4byte	.LVL99
 4196 0743 0100     		.2byte	0x1
 4197 0745 54       		.byte	0x54
 4198 0746 16000000 		.4byte	.LVL99
 4199 074a 19000000 		.4byte	.LVL100-1
 4200 074e 0100     		.2byte	0x1
 4201 0750 50       		.byte	0x50
 4202 0751 19000000 		.4byte	.LVL100-1
 4203 0755 8C000000 		.4byte	.LVL110
 4204 0759 0100     		.2byte	0x1
 4205 075b 54       		.byte	0x54
 4206 075c 8C000000 		.4byte	.LVL110
 4207 0760 C0000000 		.4byte	.LFE122
 4208 0764 0100     		.2byte	0x1
 4209 0766 50       		.byte	0x50
 4210 0767 00000000 		.4byte	0
 4211 076b 00000000 		.4byte	0
 4212              	.LLST10:
 4213 076f 00000000 		.4byte	.LVL95
 4214 0773 04000000 		.4byte	.LVL96
 4215 0777 0100     		.2byte	0x1
 4216 0779 51       		.byte	0x51
 4217 077a 04000000 		.4byte	.LVL96
 4218 077e C0000000 		.4byte	.LFE122
 4219 0782 0400     		.2byte	0x4
 4220 0784 F3       		.byte	0xf3
 4221 0785 01       		.uleb128 0x1
 4222 0786 51       		.byte	0x51
 4223 0787 9F       		.byte	0x9f
 4224 0788 00000000 		.4byte	0
 4225 078c 00000000 		.4byte	0
 4226              	.LLST11:
 4227 0790 00000000 		.4byte	.LVL95
 4228 0794 0B000000 		.4byte	.LVL97-1
 4229 0798 0100     		.2byte	0x1
 4230 079a 52       		.byte	0x52
 4231 079b 0B000000 		.4byte	.LVL97-1
 4232 079f C0000000 		.4byte	.LFE122
 4233 07a3 0400     		.2byte	0x4
 4234 07a5 F3       		.byte	0xf3
 4235 07a6 01       		.uleb128 0x1
 4236 07a7 52       		.byte	0x52
 4237 07a8 9F       		.byte	0x9f
 4238 07a9 00000000 		.4byte	0
 4239 07ad 00000000 		.4byte	0
 4240              	.LLST12:
 4241 07b1 1A000000 		.4byte	.LVL100
 4242 07b5 26000000 		.4byte	.LVL101
 4243 07b9 0200     		.2byte	0x2
 4244 07bb 30       		.byte	0x30
 4245 07bc 9F       		.byte	0x9f
 4246 07bd 26000000 		.4byte	.LVL101
 4247 07c1 32000000 		.4byte	.LVL102
 4248 07c5 0200     		.2byte	0x2
ARM GAS  C:\Users\DNIEL~1\AppData\Local\Temp\cc69cIAG.s 			page 76


 4249 07c7 31       		.byte	0x31
 4250 07c8 9F       		.byte	0x9f
 4251 07c9 32000000 		.4byte	.LVL102
 4252 07cd 3E000000 		.4byte	.LVL103
 4253 07d1 0200     		.2byte	0x2
 4254 07d3 32       		.byte	0x32
 4255 07d4 9F       		.byte	0x9f
 4256 07d5 3E000000 		.4byte	.LVL103
 4257 07d9 4A000000 		.4byte	.LVL104
 4258 07dd 0200     		.2byte	0x2
 4259 07df 33       		.byte	0x33
 4260 07e0 9F       		.byte	0x9f
 4261 07e1 4A000000 		.4byte	.LVL104
 4262 07e5 56000000 		.4byte	.LVL105
 4263 07e9 0200     		.2byte	0x2
 4264 07eb 34       		.byte	0x34
 4265 07ec 9F       		.byte	0x9f
 4266 07ed 56000000 		.4byte	.LVL105
 4267 07f1 62000000 		.4byte	.LVL106
 4268 07f5 0200     		.2byte	0x2
 4269 07f7 35       		.byte	0x35
 4270 07f8 9F       		.byte	0x9f
 4271 07f9 62000000 		.4byte	.LVL106
 4272 07fd 6E000000 		.4byte	.LVL107
 4273 0801 0200     		.2byte	0x2
 4274 0803 36       		.byte	0x36
 4275 0804 9F       		.byte	0x9f
 4276 0805 6E000000 		.4byte	.LVL107
 4277 0809 76000000 		.4byte	.LVL108
 4278 080d 0200     		.2byte	0x2
 4279 080f 37       		.byte	0x37
 4280 0810 9F       		.byte	0x9f
 4281 0811 00000000 		.4byte	0
 4282 0815 00000000 		.4byte	0
 4283              		.section	.debug_aranges,"",%progbits
 4284 0000 3C000000 		.4byte	0x3c
 4285 0004 0200     		.2byte	0x2
 4286 0006 00000000 		.4byte	.Ldebug_info0
 4287 000a 04       		.byte	0x4
 4288 000b 00       		.byte	0
 4289 000c 0000     		.2byte	0
 4290 000e 0000     		.2byte	0
 4291 0010 00000000 		.4byte	.LFB121
 4292 0014 02000000 		.4byte	.LFE121-.LFB121
 4293 0018 00000000 		.4byte	.LFB118
 4294 001c 1E000000 		.4byte	.LFE118-.LFB118
 4295 0020 00000000 		.4byte	.LFB119
 4296 0024 F0010000 		.4byte	.LFE119-.LFB119
 4297 0028 00000000 		.4byte	.LFB120
 4298 002c 0E000000 		.4byte	.LFE120-.LFB120
 4299 0030 00000000 		.4byte	.LFB122
 4300 0034 C0000000 		.4byte	.LFE122-.LFB122
 4301 0038 00000000 		.4byte	0
 4302 003c 00000000 		.4byte	0
 4303              		.section	.debug_ranges,"",%progbits
 4304              	.Ldebug_ranges0:
 4305 0000 68000000 		.4byte	.LBB2
ARM GAS  C:\Users\DNIEL~1\AppData\Local\Temp\cc69cIAG.s 			page 77


 4306 0004 6E000000 		.4byte	.LBE2
 4307 0008 A0000000 		.4byte	.LBB5
 4308 000c A6000000 		.4byte	.LBE5
 4309 0010 DA000000 		.4byte	.LBB7
 4310 0014 E0000000 		.4byte	.LBE7
 4311 0018 14010000 		.4byte	.LBB9
 4312 001c 1A010000 		.4byte	.LBE9
 4313 0020 50010000 		.4byte	.LBB11
 4314 0024 56010000 		.4byte	.LBE11
 4315 0028 8C010000 		.4byte	.LBB13
 4316 002c 92010000 		.4byte	.LBE13
 4317 0030 C6010000 		.4byte	.LBB15
 4318 0034 CC010000 		.4byte	.LBE15
 4319 0038 00000000 		.4byte	0
 4320 003c 00000000 		.4byte	0
 4321 0040 70000000 		.4byte	.LBB3
 4322 0044 72000000 		.4byte	.LBE3
 4323 0048 74000000 		.4byte	.LBB4
 4324 004c 78000000 		.4byte	.LBE4
 4325 0050 AC000000 		.4byte	.LBB6
 4326 0054 B2000000 		.4byte	.LBE6
 4327 0058 E6000000 		.4byte	.LBB8
 4328 005c EC000000 		.4byte	.LBE8
 4329 0060 20010000 		.4byte	.LBB10
 4330 0064 26010000 		.4byte	.LBE10
 4331 0068 5C010000 		.4byte	.LBB12
 4332 006c 62010000 		.4byte	.LBE12
 4333 0070 98010000 		.4byte	.LBB14
 4334 0074 9E010000 		.4byte	.LBE14
 4335 0078 D2010000 		.4byte	.LBB16
 4336 007c F0010000 		.4byte	.LBE16
 4337 0080 00000000 		.4byte	0
 4338 0084 00000000 		.4byte	0
 4339 0088 00000000 		.4byte	.LFB121
 4340 008c 02000000 		.4byte	.LFE121
 4341 0090 00000000 		.4byte	.LFB118
 4342 0094 1E000000 		.4byte	.LFE118
 4343 0098 00000000 		.4byte	.LFB119
 4344 009c F0010000 		.4byte	.LFE119
 4345 00a0 00000000 		.4byte	.LFB120
 4346 00a4 0E000000 		.4byte	.LFE120
 4347 00a8 00000000 		.4byte	.LFB122
 4348 00ac C0000000 		.4byte	.LFE122
 4349 00b0 00000000 		.4byte	0
 4350 00b4 00000000 		.4byte	0
 4351              		.section	.debug_line,"",%progbits
 4352              	.Ldebug_line0:
 4353 0000 9B030000 		.section	.debug_str,"MS",%progbits,1
 4353      0200C202 
 4353      00000201 
 4353      FB0E0D00 
 4353      01010101 
 4354              	.LASF79:
 4355 0000 4D304152 		.ascii	"M0AR\000"
 4355      00
 4356              	.LASF2:
 4357 0005 73697A65 		.ascii	"size_t\000"
ARM GAS  C:\Users\DNIEL~1\AppData\Local\Temp\cc69cIAG.s 			page 78


 4357      5F7400
 4358              	.LASF54:
 4359 000c 7264796D 		.ascii	"rdymsg\000"
 4359      736700
 4360              	.LASF115:
 4361 0013 646D616D 		.ascii	"dmamode\000"
 4361      6F646500 
 4362              	.LASF100:
 4363 001b 61646373 		.ascii	"adcstate_t\000"
 4363      74617465 
 4363      5F7400
 4364              	.LASF86:
 4365 0026 76656374 		.ascii	"vector\000"
 4365      6F7200
 4366              	.LASF82:
 4367 002d 73747265 		.ascii	"stream\000"
 4367      616D00
 4368              	.LASF14:
 4369 0034 6C6F6E67 		.ascii	"long long unsigned int\000"
 4369      206C6F6E 
 4369      6720756E 
 4369      7369676E 
 4369      65642069 
 4370              	.LASF88:
 4371 004b 42617365 		.ascii	"BaseChannelVMT\000"
 4371      4368616E 
 4371      6E656C56 
 4371      4D5400
 4372              	.LASF55:
 4373 005a 65786974 		.ascii	"exitcode\000"
 4373      636F6465 
 4373      00
 4374              	.LASF94:
 4375 0063 4144435F 		.ascii	"ADC_UNINIT\000"
 4375      554E494E 
 4375      495400
 4376              	.LASF149:
 4377 006e 61646367 		.ascii	"adcgrpcfg\000"
 4377      72706366 
 4377      6700
 4378              	.LASF150:
 4379 0078 49544D5F 		.ascii	"ITM_RxBuffer\000"
 4379      52784275 
 4379      66666572 
 4379      00
 4380              	.LASF143:
 4381 0085 6D656173 		.ascii	"measInit\000"
 4381      496E6974 
 4381      00
 4382              	.LASF27:
 4383 008e 705F7072 		.ascii	"p_prio\000"
 4383      696F00
 4384              	.LASF92:
 4385 0095 72656164 		.ascii	"readt\000"
 4385      7400
 4386              	.LASF72:
 4387 009b 4A535152 		.ascii	"JSQR\000"
ARM GAS  C:\Users\DNIEL~1\AppData\Local\Temp\cc69cIAG.s 			page 79


 4387      00
 4388              	.LASF5:
 4389 00a0 696E7431 		.ascii	"int16_t\000"
 4389      365F7400 
 4390              	.LASF13:
 4391 00a8 6C6F6E67 		.ascii	"long long int\000"
 4391      206C6F6E 
 4391      6720696E 
 4391      7400
 4392              	.LASF1:
 4393 00b6 7369676E 		.ascii	"signed char\000"
 4393      65642063 
 4393      68617200 
 4394              	.LASF43:
 4395 00c2 705F6D70 		.ascii	"p_mpool\000"
 4395      6F6F6C00 
 4396              	.LASF15:
 4397 00ca 626F6F6C 		.ascii	"bool_t\000"
 4397      5F7400
 4398              	.LASF51:
 4399 00d1 6D5F7175 		.ascii	"m_queue\000"
 4399      65756500 
 4400              	.LASF130:
 4401 00d9 4D454153 		.ascii	"MEAS_UBAT\000"
 4401      5F554241 
 4401      5400
 4402              	.LASF105:
 4403 00e3 61646365 		.ascii	"adcerror_t\000"
 4403      72726F72 
 4403      5F7400
 4404              	.LASF114:
 4405 00ee 646D6173 		.ascii	"dmastp\000"
 4405      747000
 4406              	.LASF107:
 4407 00f5 73746174 		.ascii	"state\000"
 4407      6500
 4408              	.LASF118:
 4409 00fb 63697263 		.ascii	"circular\000"
 4409      756C6172 
 4409      00
 4410              	.LASF10:
 4411 0104 6C6F6E67 		.ascii	"long int\000"
 4411      20696E74 
 4411      00
 4412              	.LASF103:
 4413 010d 4144435F 		.ascii	"ADC_ERR_DMAFAILURE\000"
 4413      4552525F 
 4413      444D4146 
 4413      41494C55 
 4413      524500
 4414              	.LASF117:
 4415 0120 61646365 		.ascii	"adcerrorcallback_t\000"
 4415      72726F72 
 4415      63616C6C 
 4415      6261636B 
 4415      5F7400
 4416              	.LASF17:
ARM GAS  C:\Users\DNIEL~1\AppData\Local\Temp\cc69cIAG.s 			page 80


 4417 0133 74737461 		.ascii	"tstate_t\000"
 4417      74655F74 
 4417      00
 4418              	.LASF112:
 4419 013c 74687265 		.ascii	"thread\000"
 4419      616400
 4420              	.LASF7:
 4421 0143 75696E74 		.ascii	"uint16_t\000"
 4421      31365F74 
 4421      00
 4422              	.LASF36:
 4423 014c 705F7469 		.ascii	"p_time\000"
 4423      6D6500
 4424              	.LASF77:
 4425 0153 4144435F 		.ascii	"ADC_TypeDef\000"
 4425      54797065 
 4425      44656600 
 4426              	.LASF29:
 4427 015f 705F6E65 		.ascii	"p_newer\000"
 4427      77657200 
 4428              	.LASF120:
 4429 0167 656E645F 		.ascii	"end_cb\000"
 4429      636200
 4430              	.LASF116:
 4431 016e 61646363 		.ascii	"adccallback_t\000"
 4431      616C6C62 
 4431      61636B5F 
 4431      7400
 4432              	.LASF161:
 4433 017c 61646343 		.ascii	"adcConvert\000"
 4433      6F6E7665 
 4433      727400
 4434              	.LASF101:
 4435 0187 61646373 		.ascii	"adcsample_t\000"
 4435      616D706C 
 4435      655F7400 
 4436              	.LASF129:
 4437 0193 41444343 		.ascii	"ADCConfig\000"
 4437      6F6E6669 
 4437      6700
 4438              	.LASF46:
 4439 019d 72656761 		.ascii	"regarm_t\000"
 4439      726D5F74 
 4439      00
 4440              	.LASF85:
 4441 01a6 73656C66 		.ascii	"selfindex\000"
 4441      696E6465 
 4441      7800
 4442              	.LASF137:
 4443 01b0 4D454153 		.ascii	"MEAS_NUM_CH\000"
 4443      5F4E554D 
 4443      5F434800 
 4444              	.LASF104:
 4445 01bc 4144435F 		.ascii	"ADC_ERR_OVERFLOW\000"
 4445      4552525F 
 4445      4F564552 
 4445      464C4F57 
ARM GAS  C:\Users\DNIEL~1\AppData\Local\Temp\cc69cIAG.s 			page 81


 4445      00
 4446              	.LASF158:
 4447 01cd 61646365 		.ascii	"adcerrorcallback\000"
 4447      72726F72 
 4447      63616C6C 
 4447      6261636B 
 4447      00
 4448              	.LASF62:
 4449 01de 42617365 		.ascii	"BaseSequentialStream\000"
 4449      53657175 
 4449      656E7469 
 4449      616C5374 
 4449      7265616D 
 4450              	.LASF0:
 4451 01f3 756E7369 		.ascii	"unsigned int\000"
 4451      676E6564 
 4451      20696E74 
 4451      00
 4452              	.LASF133:
 4453 0200 4D454153 		.ascii	"MEAS_SEN2\000"
 4453      5F53454E 
 4453      3200
 4454              	.LASF134:
 4455 020a 4D454153 		.ascii	"MEAS_SEN3\000"
 4455      5F53454E 
 4455      3300
 4456              	.LASF135:
 4457 0214 4D454153 		.ascii	"MEAS_SEN4\000"
 4457      5F53454E 
 4457      3400
 4458              	.LASF136:
 4459 021e 4D454153 		.ascii	"MEAS_SEN5\000"
 4459      5F53454E 
 4459      3500
 4460              	.LASF38:
 4461 0228 705F6D73 		.ascii	"p_msgqueue\000"
 4461      67717565 
 4461      756500
 4462              	.LASF106:
 4463 0233 41444344 		.ascii	"ADCDriver\000"
 4463      72697665 
 4463      7200
 4464              	.LASF142:
 4465 023d 61646370 		.ascii	"adcp\000"
 4465      00
 4466              	.LASF90:
 4467 0242 67657474 		.ascii	"gett\000"
 4467      00
 4468              	.LASF84:
 4469 0247 69736869 		.ascii	"ishift\000"
 4469      667400
 4470              	.LASF8:
 4471 024e 73686F72 		.ascii	"short unsigned int\000"
 4471      7420756E 
 4471      7369676E 
 4471      65642069 
 4471      6E7400
ARM GAS  C:\Users\DNIEL~1\AppData\Local\Temp\cc69cIAG.s 			page 82


 4472              	.LASF96:
 4473 0261 4144435F 		.ascii	"ADC_READY\000"
 4473      52454144 
 4473      5900
 4474              	.LASF152:
 4475 026b 6D656173 		.ascii	"measstate\000"
 4475      73746174 
 4475      6500
 4476              	.LASF110:
 4477 0275 64657074 		.ascii	"depth\000"
 4477      6800
 4478              	.LASF21:
 4479 027b 6D73675F 		.ascii	"msg_t\000"
 4479      7400
 4480              	.LASF159:
 4481 0281 6D656173 		.ascii	"measGetValue\000"
 4481      47657456 
 4481      616C7565 
 4481      00
 4482              	.LASF91:
 4483 028e 77726974 		.ascii	"writet\000"
 4483      657400
 4484              	.LASF16:
 4485 0295 746D6F64 		.ascii	"tmode_t\000"
 4485      655F7400 
 4486              	.LASF119:
 4487 029d 6E756D5F 		.ascii	"num_channels\000"
 4487      6368616E 
 4487      6E656C73 
 4487      00
 4488              	.LASF45:
 4489 02aa 54687265 		.ascii	"ThreadsList\000"
 4489      6164734C 
 4489      69737400 
 4490              	.LASF22:
 4491 02b6 6576656E 		.ascii	"eventmask_t\000"
 4491      746D6173 
 4491      6B5F7400 
 4492              	.LASF144:
 4493 02c2 6D656173 		.ascii	"measCalc\000"
 4493      43616C63 
 4493      00
 4494              	.LASF60:
 4495 02cb 77726974 		.ascii	"write\000"
 4495      6500
 4496              	.LASF111:
 4497 02d1 67727070 		.ascii	"grpp\000"
 4497      00
 4498              	.LASF89:
 4499 02d6 70757474 		.ascii	"putt\000"
 4499      00
 4500              	.LASF66:
 4501 02db 4A4F4652 		.ascii	"JOFR2\000"
 4501      3200
 4502              	.LASF67:
 4503 02e1 4A4F4652 		.ascii	"JOFR3\000"
 4503      3300
ARM GAS  C:\Users\DNIEL~1\AppData\Local\Temp\cc69cIAG.s 			page 83


 4504              	.LASF109:
 4505 02e7 73616D70 		.ascii	"samples\000"
 4505      6C657300 
 4506              	.LASF49:
 4507 02ef 73697A65 		.ascii	"sizetype\000"
 4507      74797065 
 4507      00
 4508              	.LASF50:
 4509 02f8 4D757465 		.ascii	"Mutex\000"
 4509      7800
 4510              	.LASF156:
 4511 02fe 7372632F 		.ascii	"src/meas.c\000"
 4511      6D656173 
 4511      2E6300
 4512              	.LASF95:
 4513 0309 4144435F 		.ascii	"ADC_STOP\000"
 4513      53544F50 
 4513      00
 4514              	.LASF155:
 4515 0312 474E5520 		.ascii	"GNU C 4.7.4 20140401 (release) [ARM/embedded-4_7-br"
 4515      4320342E 
 4515      372E3420 
 4515      32303134 
 4515      30343031 
 4516 0345 616E6368 		.ascii	"anch revision 209195]\000"
 4516      20726576 
 4516      6973696F 
 4516      6E203230 
 4516      39313935 
 4517              	.LASF30:
 4518 035b 705F6F6C 		.ascii	"p_older\000"
 4518      64657200 
 4519              	.LASF44:
 4520 0363 54687265 		.ascii	"ThreadsQueue\000"
 4520      61647351 
 4520      75657565 
 4520      00
 4521              	.LASF63:
 4522 0370 534D5052 		.ascii	"SMPR1\000"
 4522      3100
 4523              	.LASF64:
 4524 0376 534D5052 		.ascii	"SMPR2\000"
 4524      3200
 4525              	.LASF53:
 4526 037c 6D5F6E65 		.ascii	"m_next\000"
 4526      787400
 4527              	.LASF69:
 4528 0383 53515231 		.ascii	"SQR1\000"
 4528      00
 4529              	.LASF70:
 4530 0388 53515232 		.ascii	"SQR2\000"
 4530      00
 4531              	.LASF71:
 4532 038d 53515233 		.ascii	"SQR3\000"
 4532      00
 4533              	.LASF145:
 4534 0392 636D645F 		.ascii	"cmd_measvalues\000"
ARM GAS  C:\Users\DNIEL~1\AppData\Local\Temp\cc69cIAG.s 			page 84


 4534      6D656173 
 4534      76616C75 
 4534      657300
 4535              	.LASF18:
 4536 03a1 74726566 		.ascii	"trefs_t\000"
 4536      735F7400 
 4537              	.LASF139:
 4538 03a9 6D656173 		.ascii	"measStates\000"
 4538      53746174 
 4538      657300
 4539              	.LASF26:
 4540 03b4 705F7072 		.ascii	"p_prev\000"
 4540      657600
 4541              	.LASF87:
 4542 03bb 73746D33 		.ascii	"stm32_dma_stream_t\000"
 4542      325F646D 
 4542      615F7374 
 4542      7265616D 
 4542      5F7400
 4543              	.LASF20:
 4544 03ce 74707269 		.ascii	"tprio_t\000"
 4544      6F5F7400 
 4545              	.LASF148:
 4546 03d6 6D656173 		.ascii	"measValue\000"
 4546      56616C75 
 4546      6500
 4547              	.LASF113:
 4548 03e0 6D757465 		.ascii	"mutex\000"
 4548      7800
 4549              	.LASF9:
 4550 03e6 696E7433 		.ascii	"int32_t\000"
 4550      325F7400 
 4551              	.LASF4:
 4552 03ee 756E7369 		.ascii	"unsigned char\000"
 4552      676E6564 
 4552      20636861 
 4552      7200
 4553              	.LASF138:
 4554 03fc 6D656173 		.ascii	"measChannels\000"
 4554      4368616E 
 4554      6E656C73 
 4554      00
 4555              	.LASF41:
 4556 0409 705F6D74 		.ascii	"p_mtxlist\000"
 4556      786C6973 
 4556      7400
 4557              	.LASF6:
 4558 0413 73686F72 		.ascii	"short int\000"
 4558      7420696E 
 4558      7400
 4559              	.LASF32:
 4560 041d 705F7374 		.ascii	"p_state\000"
 4560      61746500 
 4561              	.LASF35:
 4562 0425 705F7072 		.ascii	"p_preempt\000"
 4562      65656D70 
 4562      7400
ARM GAS  C:\Users\DNIEL~1\AppData\Local\Temp\cc69cIAG.s 			page 85


 4563              	.LASF121:
 4564 042f 6572726F 		.ascii	"error_cb\000"
 4564      725F6362 
 4564      00
 4565              	.LASF57:
 4566 0438 65776D61 		.ascii	"ewmask\000"
 4566      736B00
 4567              	.LASF25:
 4568 043f 705F6E65 		.ascii	"p_next\000"
 4568      787400
 4569              	.LASF59:
 4570 0446 42617365 		.ascii	"BaseSequentialStreamVMT\000"
 4570      53657175 
 4570      656E7469 
 4570      616C5374 
 4570      7265616D 
 4571              	.LASF33:
 4572 045e 705F666C 		.ascii	"p_flags\000"
 4572      61677300 
 4573              	.LASF97:
 4574 0466 4144435F 		.ascii	"ADC_ACTIVE\000"
 4574      41435449 
 4574      564500
 4575              	.LASF68:
 4576 0471 4A4F4652 		.ascii	"JOFR4\000"
 4576      3400
 4577              	.LASF141:
 4578 0477 4D454153 		.ascii	"MEAS_RUNING\000"
 4578      5F52554E 
 4578      494E4700 
 4579              	.LASF24:
 4580 0483 54687265 		.ascii	"Thread\000"
 4580      616400
 4581              	.LASF140:
 4582 048a 4D454153 		.ascii	"MEAS_START\000"
 4582      5F535441 
 4582      525400
 4583              	.LASF160:
 4584 0495 6E616D65 		.ascii	"names\000"
 4584      7300
 4585              	.LASF40:
 4586 049b 705F6570 		.ascii	"p_epending\000"
 4586      656E6469 
 4586      6E6700
 4587              	.LASF83:
 4588 04a6 69666372 		.ascii	"ifcr\000"
 4588      00
 4589              	.LASF128:
 4590 04ab 64756D6D 		.ascii	"dummy\000"
 4590      7900
 4591              	.LASF11:
 4592 04b1 75696E74 		.ascii	"uint32_t\000"
 4592      33325F74 
 4592      00
 4593              	.LASF151:
 4594 04ba 41444344 		.ascii	"ADCD2\000"
 4594      3200
ARM GAS  C:\Users\DNIEL~1\AppData\Local\Temp\cc69cIAG.s 			page 86


 4595              	.LASF19:
 4596 04c0 74736C69 		.ascii	"tslices_t\000"
 4596      6365735F 
 4596      7400
 4597              	.LASF12:
 4598 04ca 6C6F6E67 		.ascii	"long unsigned int\000"
 4598      20756E73 
 4598      69676E65 
 4598      6420696E 
 4598      7400
 4599              	.LASF61:
 4600 04dc 72656164 		.ascii	"read\000"
 4600      00
 4601              	.LASF58:
 4602 04e1 63686172 		.ascii	"char\000"
 4602      00
 4603              	.LASF108:
 4604 04e6 636F6E66 		.ascii	"config\000"
 4604      696700
 4605              	.LASF131:
 4606 04ed 4D454153 		.ascii	"MEAS_BRAKE_PRESSURE1\000"
 4606      5F425241 
 4606      4B455F50 
 4606      52455353 
 4606      55524531 
 4607              	.LASF132:
 4608 0502 4D454153 		.ascii	"MEAS_BRAKE_PRESSURE2\000"
 4608      5F425241 
 4608      4B455F50 
 4608      52455353 
 4608      55524532 
 4609              	.LASF124:
 4610 0517 73717231 		.ascii	"sqr1\000"
 4610      00
 4611              	.LASF125:
 4612 051c 73717232 		.ascii	"sqr2\000"
 4612      00
 4613              	.LASF126:
 4614 0521 73717233 		.ascii	"sqr3\000"
 4614      00
 4615              	.LASF23:
 4616 0526 73797374 		.ascii	"systime_t\000"
 4616      696D655F 
 4616      7400
 4617              	.LASF42:
 4618 0530 705F7265 		.ascii	"p_realprio\000"
 4618      616C7072 
 4618      696F00
 4619              	.LASF78:
 4620 053b 4E445452 		.ascii	"NDTR\000"
 4620      00
 4621              	.LASF81:
 4622 0540 444D415F 		.ascii	"DMA_Stream_TypeDef\000"
 4622      53747265 
 4622      616D5F54 
 4622      79706544 
 4622      656600
ARM GAS  C:\Users\DNIEL~1\AppData\Local\Temp\cc69cIAG.s 			page 87


 4623              	.LASF48:
 4624 0553 636F6E74 		.ascii	"context\000"
 4624      65787400 
 4625              	.LASF47:
 4626 055b 696E7463 		.ascii	"intctx\000"
 4626      747800
 4627              	.LASF80:
 4628 0562 4D314152 		.ascii	"M1AR\000"
 4628      00
 4629              	.LASF99:
 4630 0567 4144435F 		.ascii	"ADC_ERROR\000"
 4630      4552524F 
 4630      5200
 4631              	.LASF153:
 4632 0571 61646353 		.ascii	"adcStart\000"
 4632      74617274 
 4632      00
 4633              	.LASF162:
 4634 057a 63685468 		.ascii	"chThdSleep\000"
 4634      64536C65 
 4634      657000
 4635              	.LASF31:
 4636 0585 705F6E61 		.ascii	"p_name\000"
 4636      6D6500
 4637              	.LASF34:
 4638 058c 705F7265 		.ascii	"p_refs\000"
 4638      667300
 4639              	.LASF157:
 4640 0593 433A5C55 		.ascii	"C:\\Users\\D\341niel\\git\\Smarty\\smarty\\firmware"
 4640      73657273 
 4640      5C44E16E 
 4640      69656C5C 
 4640      6769745C 
 4641 05bd 00       		.ascii	"\000"
 4642              	.LASF122:
 4643 05be 736D7072 		.ascii	"smpr1\000"
 4643      3100
 4644              	.LASF123:
 4645 05c4 736D7072 		.ascii	"smpr2\000"
 4645      3200
 4646              	.LASF65:
 4647 05ca 4A4F4652 		.ascii	"JOFR1\000"
 4647      3100
 4648              	.LASF3:
 4649 05d0 75696E74 		.ascii	"uint8_t\000"
 4649      385F7400 
 4650              	.LASF127:
 4651 05d8 41444343 		.ascii	"ADCConversionGroup\000"
 4651      6F6E7665 
 4651      7273696F 
 4651      6E47726F 
 4651      757000
 4652              	.LASF93:
 4653 05eb 42617365 		.ascii	"BaseChannel\000"
 4653      4368616E 
 4653      6E656C00 
 4654              	.LASF73:
ARM GAS  C:\Users\DNIEL~1\AppData\Local\Temp\cc69cIAG.s 			page 88


 4655 05f7 4A445231 		.ascii	"JDR1\000"
 4655      00
 4656              	.LASF74:
 4657 05fc 4A445232 		.ascii	"JDR2\000"
 4657      00
 4658              	.LASF75:
 4659 0601 4A445233 		.ascii	"JDR3\000"
 4659      00
 4660              	.LASF76:
 4661 0606 4A445234 		.ascii	"JDR4\000"
 4661      00
 4662              	.LASF56:
 4663 060b 77746F62 		.ascii	"wtobjp\000"
 4663      6A7000
 4664              	.LASF98:
 4665 0612 4144435F 		.ascii	"ADC_COMPLETE\000"
 4665      434F4D50 
 4665      4C455445 
 4665      00
 4666              	.LASF146:
 4667 061f 61726763 		.ascii	"argc\000"
 4667      00
 4668              	.LASF102:
 4669 0624 6164635F 		.ascii	"adc_channels_num_t\000"
 4669      6368616E 
 4669      6E656C73 
 4669      5F6E756D 
 4669      5F7400
 4670              	.LASF39:
 4671 0637 705F6D73 		.ascii	"p_msg\000"
 4671      6700
 4672              	.LASF147:
 4673 063d 61726776 		.ascii	"argv\000"
 4673      00
 4674              	.LASF52:
 4675 0642 6D5F6F77 		.ascii	"m_owner\000"
 4675      6E657200 
 4676              	.LASF28:
 4677 064a 705F6374 		.ascii	"p_ctx\000"
 4677      7800
 4678              	.LASF37:
 4679 0650 705F7761 		.ascii	"p_waiting\000"
 4679      6974696E 
 4679      6700
 4680              	.LASF154:
 4681 065a 63687072 		.ascii	"chprintf\000"
 4681      696E7466 
 4681      00
 4682              		.ident	"GCC: (GNU Tools for ARM Embedded Processors) 4.7.4 20140401 (release) [ARM/embedded-4_7-br
ARM GAS  C:\Users\DNIEL~1\AppData\Local\Temp\cc69cIAG.s 			page 89


DEFINED SYMBOLS
                            *ABS*:00000000 meas.c
C:\Users\DNIEL~1\AppData\Local\Temp\cc69cIAG.s:19     .text.adcerrorcallback:00000000 $t
C:\Users\DNIEL~1\AppData\Local\Temp\cc69cIAG.s:24     .text.adcerrorcallback:00000000 adcerrorcallback
C:\Users\DNIEL~1\AppData\Local\Temp\cc69cIAG.s:38     .text.measInit:00000000 $t
C:\Users\DNIEL~1\AppData\Local\Temp\cc69cIAG.s:44     .text.measInit:00000000 measInit
C:\Users\DNIEL~1\AppData\Local\Temp\cc69cIAG.s:647    .bss.measstate:00000000 .LANCHOR0
C:\Users\DNIEL~1\AppData\Local\Temp\cc69cIAG.s:73     .text.measCalc:00000000 $t
C:\Users\DNIEL~1\AppData\Local\Temp\cc69cIAG.s:79     .text.measCalc:00000000 measCalc
C:\Users\DNIEL~1\AppData\Local\Temp\cc69cIAG.s:475    .text.measCalc:000001dc $d
C:\Users\DNIEL~1\AppData\Local\Temp\cc69cIAG.s:485    .text.measGetValue:00000000 $t
C:\Users\DNIEL~1\AppData\Local\Temp\cc69cIAG.s:491    .text.measGetValue:00000000 measGetValue
C:\Users\DNIEL~1\AppData\Local\Temp\cc69cIAG.s:641    .bss.measValue:00000000 .LANCHOR2
C:\Users\DNIEL~1\AppData\Local\Temp\cc69cIAG.s:510    .text.cmd_measvalues:00000000 $t
C:\Users\DNIEL~1\AppData\Local\Temp\cc69cIAG.s:516    .text.cmd_measvalues:00000000 cmd_measvalues
C:\Users\DNIEL~1\AppData\Local\Temp\cc69cIAG.s:623    .text.cmd_measvalues:00000090 $d
C:\Users\DNIEL~1\AppData\Local\Temp\cc69cIAG.s:650    .bss.measstate:00000000 measstate
C:\Users\DNIEL~1\AppData\Local\Temp\cc69cIAG.s:640    .bss.measValue:00000000 $d
C:\Users\DNIEL~1\AppData\Local\Temp\cc69cIAG.s:644    .bss.measValue:00000000 measValue
C:\Users\DNIEL~1\AppData\Local\Temp\cc69cIAG.s:651    .bss.measstate:00000000 $d
C:\Users\DNIEL~1\AppData\Local\Temp\cc69cIAG.s:653    .rodata.str1.4:00000000 $d
C:\Users\DNIEL~1\AppData\Local\Temp\cc69cIAG.s:685    .rodata.adcgrpcfg:00000000 $d
C:\Users\DNIEL~1\AppData\Local\Temp\cc69cIAG.s:689    .rodata.adcgrpcfg:00000000 adcgrpcfg
C:\Users\DNIEL~1\AppData\Local\Temp\cc69cIAG.s:703    .bss.samples:00000000 $d
C:\Users\DNIEL~1\AppData\Local\Temp\cc69cIAG.s:707    .bss.samples:00000000 samples
                     .debug_frame:00000010 $d

UNDEFINED SYMBOLS
ADCD2
adcStart
adcConvert
chprintf
chThdSleep
