ARM GAS  C:\Users\DNIEL~1\AppData\Local\Temp\ccMkT0BQ.s 			page 1


   1              		.syntax unified
   2              		.cpu cortex-m4
   3              		.fpu softvfp
   4              		.eabi_attribute 20, 1
   5              		.eabi_attribute 21, 1
   6              		.eabi_attribute 23, 3
   7              		.eabi_attribute 24, 1
   8              		.eabi_attribute 25, 1
   9              		.eabi_attribute 26, 1
  10              		.eabi_attribute 30, 2
  11              		.eabi_attribute 34, 1
  12              		.eabi_attribute 18, 4
  13              		.thumb
  14              		.file	"meas.c"
  15              		.text
  16              	.Ltext0:
  17              		.cfi_sections	.debug_frame
  18              		.section	.text.adcerrorcallback,"ax",%progbits
  19              		.align	2
  20              		.p2align 4,,15
  21              		.thumb
  22              		.thumb_func
  23              		.type	adcerrorcallback, %function
  24              	adcerrorcallback:
  25              	.LFB122:
  26              		.file 1 "src/meas.c"
  27              		.loc 1 115 0
  28              		.cfi_startproc
  29              		@ args = 0, pretend = 0, frame = 0
  30              		@ frame_needed = 0, uses_anonymous_args = 0
  31              		@ link register save eliminated.
  32              	.LVL0:
  33 0000 7047     		bx	lr
  34              		.cfi_endproc
  35              	.LFE122:
  36              		.size	adcerrorcallback, .-adcerrorcallback
  37 0002 00BFAFF3 		.section	.text.chprintf,"ax",%progbits
  37      0080AFF3 
  37      0080AFF3 
  37      0080
  38              		.align	2
  39              		.p2align 4,,15
  40              		.thumb
  41              		.thumb_func
  42              		.type	chprintf, %function
  43              	chprintf:
  44              	.LFB118:
  45              		.file 2 "../../../ChibiOS/os/various/chprintf.h"
  46              		.loc 2 69 0
  47              		.cfi_startproc
  48              		@ args = 4, pretend = 12, frame = 8
  49              		@ frame_needed = 0, uses_anonymous_args = 1
  50              	.LVL1:
  51              		.loc 2 69 0
  52 0000 0EB4     		push	{r1, r2, r3}
  53              	.LCFI0:
  54              		.cfi_def_cfa_offset 12
ARM GAS  C:\Users\DNIEL~1\AppData\Local\Temp\ccMkT0BQ.s 			page 2


  55              		.cfi_offset 1, -12
  56              		.cfi_offset 2, -8
  57              		.cfi_offset 3, -4
  58 0002 00B5     		push	{lr}
  59              	.LCFI1:
  60              		.cfi_def_cfa_offset 16
  61              		.cfi_offset 14, -16
  62 0004 82B0     		sub	sp, sp, #8
  63              	.LCFI2:
  64              		.cfi_def_cfa_offset 24
  65              		.loc 2 69 0
  66 0006 03AB     		add	r3, sp, #12
  67 0008 53F8041B 		ldr	r1, [r3], #4
  68              		.loc 2 73 0
  69 000c 1A46     		mov	r2, r3
  70              		.loc 2 72 0
  71 000e 0193     		str	r3, [sp, #4]
  72              		.loc 2 73 0
  73 0010 FFF7FEFF 		bl	chvprintf
  74              	.LVL2:
  75              		.loc 2 75 0
  76 0014 02B0     		add	sp, sp, #8
  77 0016 5DF804EB 		pop	{lr}
  78 001a 03B0     		add	sp, sp, #12
  79 001c 7047     		bx	lr
  80              		.cfi_endproc
  81              	.LFE118:
  82              		.size	chprintf, .-chprintf
  83 001e 00BF     		.section	.text.measInit,"ax",%progbits
  84              		.align	2
  85              		.p2align 4,,15
  86              		.global	measInit
  87              		.thumb
  88              		.thumb_func
  89              		.type	measInit, %function
  90              	measInit:
  91              	.LFB119:
  92              		.loc 1 48 0
  93              		.cfi_startproc
  94              		@ args = 0, pretend = 0, frame = 0
  95              		@ frame_needed = 0, uses_anonymous_args = 0
  96              		.loc 1 53 0
  97 0000 40F20000 		movw	r0, #:lower16:ADCD2
  98              		.loc 1 48 0
  99 0004 08B5     		push	{r3, lr}
 100              	.LCFI3:
 101              		.cfi_def_cfa_offset 8
 102              		.cfi_offset 3, -8
 103              		.cfi_offset 14, -4
 104              		.loc 1 53 0
 105 0006 C0F20000 		movt	r0, #:upper16:ADCD2
 106 000a 0021     		movs	r1, #0
 107 000c FFF7FEFF 		bl	adcStart
 108              	.LVL3:
 109              		.loc 1 54 0
 110 0010 40F20003 		movw	r3, #:lower16:.LANCHOR0
 111 0014 C0F20003 		movt	r3, #:upper16:.LANCHOR0
ARM GAS  C:\Users\DNIEL~1\AppData\Local\Temp\ccMkT0BQ.s 			page 3


 112 0018 0022     		movs	r2, #0
 113 001a 1A70     		strb	r2, [r3, #0]
 114 001c 08BD     		pop	{r3, pc}
 115              		.cfi_endproc
 116              	.LFE119:
 117              		.size	measInit, .-measInit
 118 001e 00BF     		.section	.text.measCalc,"ax",%progbits
 119              		.align	2
 120              		.p2align 4,,15
 121              		.global	measCalc
 122              		.thumb
 123              		.thumb_func
 124              		.type	measCalc, %function
 125              	measCalc:
 126              	.LFB120:
 127              		.loc 1 57 0
 128              		.cfi_startproc
 129              		@ args = 0, pretend = 0, frame = 0
 130              		@ frame_needed = 0, uses_anonymous_args = 0
 131              		@ link register save eliminated.
 132              		.loc 1 65 0
 133 0000 764A     		ldr	r2, .L10
 134 0002 1378     		ldrb	r3, [r2, #0]	@ zero_extendqisi2
 135              		.loc 1 57 0
 136 0004 2DE9F001 		push	{r4, r5, r6, r7, r8}
 137              	.LCFI4:
 138              		.cfi_def_cfa_offset 20
 139              		.cfi_offset 4, -20
 140              		.cfi_offset 5, -16
 141              		.cfi_offset 6, -12
 142              		.cfi_offset 7, -8
 143              		.cfi_offset 8, -4
 144              		.loc 1 65 0
 145 0008 4BB9     		cbnz	r3, .L9
 146              		.loc 1 68 0
 147 000a 0121     		movs	r1, #1
 148 000c 1170     		strb	r1, [r2, #0]
 149              	.LVL4:
 150              	.L5:
 151              		.loc 1 105 0
 152 000e 7448     		ldr	r0, .L10+4
 153 0010 7449     		ldr	r1, .L10+8
 154 0012 754A     		ldr	r2, .L10+12
 155 0014 0823     		movs	r3, #8
 156              	.LVL5:
 157              		.loc 1 106 0
 158 0016 BDE8F001 		pop	{r4, r5, r6, r7, r8}
 159              		.loc 1 105 0
 160 001a FFF7FEBF 		b	adcConvert
 161              	.LVL6:
 162              	.L9:
 163              		.loc 1 65 0
 164 001e 012B     		cmp	r3, #1
 165 0020 F5D1     		bne	.L5
 166              	.LVL7:
 167              		.loc 1 74 0
 168 0022 714A     		ldr	r2, .L10+12
ARM GAS  C:\Users\DNIEL~1\AppData\Local\Temp\ccMkT0BQ.s 			page 4


 169 0024 B2F80EC0 		ldrh	ip, [r2, #14]
 170 0028 1788     		ldrh	r7, [r2, #0]
 171              	.LVL8:
 172 002a 968B     		ldrh	r6, [r2, #28]
 173 002c 558D     		ldrh	r5, [r2, #42]
 174 002e 148F     		ldrh	r4, [r2, #56]
 175 0030 B2F84600 		ldrh	r0, [r2, #70]
 176 0034 B2F85410 		ldrh	r1, [r2, #84]
 177 0038 B2F86230 		ldrh	r3, [r2, #98]
 178 003c 6744     		add	r7, ip, r7
 179              	.LVL9:
 180 003e BE19     		adds	r6, r7, r6
 181              	.LVL10:
 182 0040 7519     		adds	r5, r6, r5
 183              	.LVL11:
 184 0042 2C19     		adds	r4, r5, r4
 185              	.LVL12:
 186 0044 2018     		adds	r0, r4, r0
 187              	.LVL13:
 188 0046 4118     		adds	r1, r0, r1
 189              	.LVL14:
 190 0048 CB18     		adds	r3, r1, r3
 191              	.LVL15:
 192              		.loc 1 76 0
 193 004a DF10     		asrs	r7, r3, #3
 194              	.LVL16:
 195              		.loc 1 79 0
 196 004c 41F2A955 		movw	r5, #5545
 197              		.loc 1 80 0
 198 0050 42F6B366 		movw	r6, #11955
 199              		.loc 1 79 0
 200 0054 05FB07F7 		mul	r7, r5, r7
 201              	.LVL17:
 202              		.loc 1 80 0
 203 0058 CAF6F606 		movt	r6, 43254
 204 005c 86FB0704 		smull	r0, r4, r6, r7
 205 0060 E019     		adds	r0, r4, r7
 206 0062 F917     		asrs	r1, r7, #31
 207 0064 C1EB6037 		rsb	r7, r1, r0, asr #13
 208              	.LVL18:
 209              	.LBB2:
 210              		.loc 1 97 0
 211 0068 2023     		movs	r3, #32
 212              	.LVL19:
 213              	@ 97 "src/meas.c" 1
 214 006a 83F31188 		msr     BASEPRI, r3
 215              	@ 0 "" 2
 216              	.LVL20:
 217              		.thumb
 218              	.LBE2:
 219              		.loc 1 98 0
 220 006e 5F49     		ldr	r1, .L10+16
 221              	.LBB3:
 222              		.loc 1 99 0
 223 0070 0023     		movs	r3, #0
 224              	.LVL21:
 225              	.LBE3:
ARM GAS  C:\Users\DNIEL~1\AppData\Local\Temp\ccMkT0BQ.s 			page 5


 226              		.loc 1 98 0
 227 0072 0F60     		str	r7, [r1, #0]
 228              	.LBB4:
 229              		.loc 1 99 0
 230              	@ 99 "src/meas.c" 1
 231 0074 83F31188 		msr     BASEPRI, r3
 232              	@ 0 "" 2
 233              	.LVL22:
 234              		.thumb
 235              	.LBE4:
 236              		.loc 1 74 0
 237 0078 B2F80280 		ldrh	r8, [r2, #2]
 238              	.LVL23:
 239 007c B2F810C0 		ldrh	ip, [r2, #16]
 240 0080 D78B     		ldrh	r7, [r2, #30]
 241 0082 968D     		ldrh	r6, [r2, #44]
 242 0084 558F     		ldrh	r5, [r2, #58]
 243 0086 B2F84840 		ldrh	r4, [r2, #72]
 244 008a B2F85600 		ldrh	r0, [r2, #86]
 245 008e B2F86430 		ldrh	r3, [r2, #100]
 246              	.LVL24:
 247 0092 E044     		add	r8, r8, ip
 248              	.LVL25:
 249 0094 4744     		add	r7, r8, r7
 250              	.LVL26:
 251 0096 BE19     		adds	r6, r7, r6
 252              	.LVL27:
 253 0098 7519     		adds	r5, r6, r5
 254              	.LVL28:
 255 009a 2C19     		adds	r4, r5, r4
 256              	.LVL29:
 257 009c 2018     		adds	r0, r4, r0
 258              	.LVL30:
 259 009e C718     		adds	r7, r0, r3
 260              	.LVL31:
 261              	.LBB5:
 262              		.loc 1 97 0
 263 00a0 2023     		movs	r3, #32
 264              	@ 97 "src/meas.c" 1
 265 00a2 83F31188 		msr     BASEPRI, r3
 266              	@ 0 "" 2
 267              	.LVL32:
 268              		.thumb
 269              	.LBE5:
 270              		.loc 1 98 0
 271 00a6 47F3CF03 		sbfx	r3, r7, #3, #16
 272              	.LVL33:
 273 00aa 4B60     		str	r3, [r1, #4]
 274              	.LBB6:
 275              		.loc 1 99 0
 276 00ac 0023     		movs	r3, #0
 277              	@ 99 "src/meas.c" 1
 278 00ae 83F31188 		msr     BASEPRI, r3
 279              	@ 0 "" 2
 280              	.LVL34:
 281              		.thumb
 282              	.LBE6:
ARM GAS  C:\Users\DNIEL~1\AppData\Local\Temp\ccMkT0BQ.s 			page 6


 283              		.loc 1 74 0
 284 00b2 B2F80480 		ldrh	r8, [r2, #4]
 285              	.LVL35:
 286 00b6 B2F812C0 		ldrh	ip, [r2, #18]
 287 00ba 178C     		ldrh	r7, [r2, #32]
 288 00bc D68D     		ldrh	r6, [r2, #46]
 289 00be 958F     		ldrh	r5, [r2, #60]
 290 00c0 B2F84A40 		ldrh	r4, [r2, #74]
 291 00c4 B2F85800 		ldrh	r0, [r2, #88]
 292 00c8 B2F86630 		ldrh	r3, [r2, #102]
 293              	.LVL36:
 294 00cc E044     		add	r8, r8, ip
 295              	.LVL37:
 296 00ce 4744     		add	r7, r8, r7
 297              	.LVL38:
 298 00d0 BE19     		adds	r6, r7, r6
 299              	.LVL39:
 300 00d2 7519     		adds	r5, r6, r5
 301              	.LVL40:
 302 00d4 2C19     		adds	r4, r5, r4
 303              	.LVL41:
 304 00d6 2018     		adds	r0, r4, r0
 305              	.LVL42:
 306 00d8 C718     		adds	r7, r0, r3
 307              	.LVL43:
 308              	.LBB7:
 309              		.loc 1 97 0
 310 00da 2023     		movs	r3, #32
 311              	@ 97 "src/meas.c" 1
 312 00dc 83F31188 		msr     BASEPRI, r3
 313              	@ 0 "" 2
 314              	.LVL44:
 315              		.thumb
 316              	.LBE7:
 317              		.loc 1 98 0
 318 00e0 47F3CF03 		sbfx	r3, r7, #3, #16
 319              	.LVL45:
 320 00e4 8B60     		str	r3, [r1, #8]
 321              	.LBB8:
 322              		.loc 1 99 0
 323 00e6 0023     		movs	r3, #0
 324              	@ 99 "src/meas.c" 1
 325 00e8 83F31188 		msr     BASEPRI, r3
 326              	@ 0 "" 2
 327              	.LVL46:
 328              		.thumb
 329              	.LBE8:
 330              		.loc 1 74 0
 331 00ec B2F80680 		ldrh	r8, [r2, #6]
 332              	.LVL47:
 333 00f0 B2F814C0 		ldrh	ip, [r2, #20]
 334 00f4 578C     		ldrh	r7, [r2, #34]
 335 00f6 168E     		ldrh	r6, [r2, #48]
 336 00f8 D58F     		ldrh	r5, [r2, #62]
 337 00fa B2F84C40 		ldrh	r4, [r2, #76]
 338 00fe B2F85A00 		ldrh	r0, [r2, #90]
 339 0102 B2F86830 		ldrh	r3, [r2, #104]
ARM GAS  C:\Users\DNIEL~1\AppData\Local\Temp\ccMkT0BQ.s 			page 7


 340              	.LVL48:
 341 0106 E044     		add	r8, r8, ip
 342              	.LVL49:
 343 0108 4744     		add	r7, r8, r7
 344              	.LVL50:
 345 010a BE19     		adds	r6, r7, r6
 346              	.LVL51:
 347 010c 7519     		adds	r5, r6, r5
 348              	.LVL52:
 349 010e 2C19     		adds	r4, r5, r4
 350              	.LVL53:
 351 0110 2018     		adds	r0, r4, r0
 352              	.LVL54:
 353 0112 C718     		adds	r7, r0, r3
 354              	.LVL55:
 355              	.LBB9:
 356              		.loc 1 97 0
 357 0114 2023     		movs	r3, #32
 358              	@ 97 "src/meas.c" 1
 359 0116 83F31188 		msr     BASEPRI, r3
 360              	@ 0 "" 2
 361              	.LVL56:
 362              		.thumb
 363              	.LBE9:
 364              		.loc 1 98 0
 365 011a 47F3CF03 		sbfx	r3, r7, #3, #16
 366              	.LVL57:
 367 011e CB60     		str	r3, [r1, #12]
 368              	.LBB10:
 369              		.loc 1 99 0
 370 0120 0023     		movs	r3, #0
 371              	@ 99 "src/meas.c" 1
 372 0122 83F31188 		msr     BASEPRI, r3
 373              	@ 0 "" 2
 374              	.LVL58:
 375              		.thumb
 376              	.LBE10:
 377              		.loc 1 74 0
 378 0126 B2F80880 		ldrh	r8, [r2, #8]
 379              	.LVL59:
 380 012a B2F816C0 		ldrh	ip, [r2, #22]
 381 012e 978C     		ldrh	r7, [r2, #36]
 382 0130 568E     		ldrh	r6, [r2, #50]
 383 0132 B2F84050 		ldrh	r5, [r2, #64]
 384 0136 B2F84E40 		ldrh	r4, [r2, #78]
 385 013a B2F85C00 		ldrh	r0, [r2, #92]
 386 013e B2F86A30 		ldrh	r3, [r2, #106]
 387              	.LVL60:
 388 0142 E044     		add	r8, r8, ip
 389              	.LVL61:
 390 0144 4744     		add	r7, r8, r7
 391              	.LVL62:
 392 0146 BE19     		adds	r6, r7, r6
 393              	.LVL63:
 394 0148 7519     		adds	r5, r6, r5
 395              	.LVL64:
 396 014a 2C19     		adds	r4, r5, r4
ARM GAS  C:\Users\DNIEL~1\AppData\Local\Temp\ccMkT0BQ.s 			page 8


 397              	.LVL65:
 398 014c 2018     		adds	r0, r4, r0
 399              	.LVL66:
 400 014e C718     		adds	r7, r0, r3
 401              	.LVL67:
 402              	.LBB11:
 403              		.loc 1 97 0
 404 0150 2023     		movs	r3, #32
 405              	@ 97 "src/meas.c" 1
 406 0152 83F31188 		msr     BASEPRI, r3
 407              	@ 0 "" 2
 408              	.LVL68:
 409              		.thumb
 410              	.LBE11:
 411              		.loc 1 98 0
 412 0156 47F3CF03 		sbfx	r3, r7, #3, #16
 413              	.LVL69:
 414 015a 0B61     		str	r3, [r1, #16]
 415              	.LBB12:
 416              		.loc 1 99 0
 417 015c 0023     		movs	r3, #0
 418              	@ 99 "src/meas.c" 1
 419 015e 83F31188 		msr     BASEPRI, r3
 420              	@ 0 "" 2
 421              	.LVL70:
 422              		.thumb
 423              	.LBE12:
 424              		.loc 1 74 0
 425 0162 B2F80A80 		ldrh	r8, [r2, #10]
 426              	.LVL71:
 427 0166 B2F818C0 		ldrh	ip, [r2, #24]
 428 016a D78C     		ldrh	r7, [r2, #38]
 429 016c 968E     		ldrh	r6, [r2, #52]
 430 016e B2F84250 		ldrh	r5, [r2, #66]
 431 0172 B2F85040 		ldrh	r4, [r2, #80]
 432 0176 B2F85E00 		ldrh	r0, [r2, #94]
 433 017a B2F86C30 		ldrh	r3, [r2, #108]
 434              	.LVL72:
 435 017e C444     		add	ip, r8, ip
 436              	.LVL73:
 437 0180 6744     		add	r7, ip, r7
 438              	.LVL74:
 439 0182 BE19     		adds	r6, r7, r6
 440              	.LVL75:
 441 0184 7519     		adds	r5, r6, r5
 442              	.LVL76:
 443 0186 2C19     		adds	r4, r5, r4
 444              	.LVL77:
 445 0188 2018     		adds	r0, r4, r0
 446              	.LVL78:
 447 018a C718     		adds	r7, r0, r3
 448              	.LVL79:
 449              	.LBB13:
 450              		.loc 1 97 0
 451 018c 2023     		movs	r3, #32
 452              	@ 97 "src/meas.c" 1
 453 018e 83F31188 		msr     BASEPRI, r3
ARM GAS  C:\Users\DNIEL~1\AppData\Local\Temp\ccMkT0BQ.s 			page 9


 454              	@ 0 "" 2
 455              	.LVL80:
 456              		.thumb
 457              	.LBE13:
 458              		.loc 1 98 0
 459 0192 47F3CF03 		sbfx	r3, r7, #3, #16
 460              	.LVL81:
 461 0196 4B61     		str	r3, [r1, #20]
 462              	.LBB14:
 463              		.loc 1 99 0
 464 0198 0023     		movs	r3, #0
 465              	@ 99 "src/meas.c" 1
 466 019a 83F31188 		msr     BASEPRI, r3
 467              	@ 0 "" 2
 468              	.LVL82:
 469              		.thumb
 470              	.LBE14:
 471              		.loc 1 74 0
 472 019e B2F80CC0 		ldrh	ip, [r2, #12]
 473              	.LVL83:
 474 01a2 578B     		ldrh	r7, [r2, #26]
 475 01a4 168D     		ldrh	r6, [r2, #40]
 476 01a6 D58E     		ldrh	r5, [r2, #54]
 477 01a8 B2F84440 		ldrh	r4, [r2, #68]
 478 01ac B2F85200 		ldrh	r0, [r2, #82]
 479 01b0 B2F86030 		ldrh	r3, [r2, #96]
 480              	.LVL84:
 481 01b4 B2F86E20 		ldrh	r2, [r2, #110]
 482 01b8 6744     		add	r7, ip, r7
 483              	.LVL85:
 484 01ba BE19     		adds	r6, r7, r6
 485              	.LVL86:
 486 01bc 7519     		adds	r5, r6, r5
 487              	.LVL87:
 488 01be 2C19     		adds	r4, r5, r4
 489              	.LVL88:
 490 01c0 2018     		adds	r0, r4, r0
 491              	.LVL89:
 492 01c2 C318     		adds	r3, r0, r3
 493              	.LVL90:
 494 01c4 D218     		adds	r2, r2, r3
 495              	.LVL91:
 496              	.LBB15:
 497              		.loc 1 97 0
 498 01c6 2023     		movs	r3, #32
 499              	@ 97 "src/meas.c" 1
 500 01c8 83F31188 		msr     BASEPRI, r3
 501              	@ 0 "" 2
 502              	.LVL92:
 503              		.thumb
 504              	.LBE15:
 505              		.loc 1 98 0
 506 01cc 42F3CF00 		sbfx	r0, r2, #3, #16
 507 01d0 8861     		str	r0, [r1, #24]
 508              	.LBB16:
 509              		.loc 1 99 0
 510 01d2 0023     		movs	r3, #0
ARM GAS  C:\Users\DNIEL~1\AppData\Local\Temp\ccMkT0BQ.s 			page 10


 511              	.LVL93:
 512              	@ 99 "src/meas.c" 1
 513 01d4 83F31188 		msr     BASEPRI, r3
 514              	@ 0 "" 2
 515              	.LVL94:
 516              		.thumb
 517 01d8 19E7     		b	.L5
 518              	.L11:
 519 01da 00BF     		.align	2
 520              	.L10:
 521 01dc 00000000 		.word	.LANCHOR0
 522 01e0 00000000 		.word	ADCD2
 523 01e4 00000000 		.word	.LANCHOR3
 524 01e8 00000000 		.word	.LANCHOR1
 525 01ec 00000000 		.word	.LANCHOR2
 526              	.LBE16:
 527              		.cfi_endproc
 528              	.LFE120:
 529              		.size	measCalc, .-measCalc
 530              		.section	.text.measGetValue,"ax",%progbits
 531              		.align	2
 532              		.p2align 4,,15
 533              		.global	measGetValue
 534              		.thumb
 535              		.thumb_func
 536              		.type	measGetValue, %function
 537              	measGetValue:
 538              	.LFB121:
 539              		.loc 1 108 0
 540              		.cfi_startproc
 541              		@ args = 0, pretend = 0, frame = 0
 542              		@ frame_needed = 0, uses_anonymous_args = 0
 543              		@ link register save eliminated.
 544              	.LVL95:
 545              		.loc 1 109 0
 546 0000 40F20003 		movw	r3, #:lower16:.LANCHOR2
 547 0004 C0F20003 		movt	r3, #:upper16:.LANCHOR2
 548              		.loc 1 110 0
 549 0008 33F92000 		ldrsh	r0, [r3, r0, lsl #2]
 550              	.LVL96:
 551 000c 7047     		bx	lr
 552              		.cfi_endproc
 553              	.LFE121:
 554              		.size	measGetValue, .-measGetValue
 555 000e 00BF     		.section	.text.cmd_measvalues,"ax",%progbits
 556              		.align	2
 557              		.p2align 4,,15
 558              		.global	cmd_measvalues
 559              		.thumb
 560              		.thumb_func
 561              		.type	cmd_measvalues, %function
 562              	cmd_measvalues:
 563              	.LFB123:
 564              		.loc 1 121 0
 565              		.cfi_startproc
 566              		@ args = 0, pretend = 0, frame = 0
 567              		@ frame_needed = 0, uses_anonymous_args = 0
ARM GAS  C:\Users\DNIEL~1\AppData\Local\Temp\ccMkT0BQ.s 			page 11


 568              	.LVL97:
 569 0000 38B5     		push	{r3, r4, r5, lr}
 570              	.LCFI5:
 571              		.cfi_def_cfa_offset 16
 572              		.cfi_offset 3, -16
 573              		.cfi_offset 4, -12
 574              		.cfi_offset 5, -8
 575              		.cfi_offset 14, -4
 576              		.loc 1 136 0
 577 0002 2349     		ldr	r1, .L16
 578              	.LVL98:
 579              		.loc 1 141 0
 580 0004 234D     		ldr	r5, .L16+4
 581              		.loc 1 121 0
 582 0006 0446     		mov	r4, r0
 583              		.loc 1 136 0
 584 0008 FFF7FEFF 		bl	chprintf
 585              	.LVL99:
 586              		.loc 1 137 0
 587 000c 2046     		mov	r0, r4
 588 000e 2249     		ldr	r1, .L16+8
 589 0010 FFF7FEFF 		bl	chprintf
 590              	.LVL100:
 591              		.loc 1 138 0
 592 0014 2FE0     		b	.L14
 593              	.LVL101:
 594              	.L15:
 595              		.loc 1 139 0
 596 0016 FFF7FEFF 		bl	chprintf
 597              	.LVL102:
 598              		.loc 1 141 0
 599 001a 2046     		mov	r0, r4
 600 001c 1F49     		ldr	r1, .L16+12
 601 001e 204A     		ldr	r2, .L16+16
 602 0020 2B68     		ldr	r3, [r5, #0]
 603 0022 FFF7FEFF 		bl	chprintf
 604              	.LVL103:
 605 0026 2046     		mov	r0, r4
 606 0028 1C49     		ldr	r1, .L16+12
 607 002a 1E4A     		ldr	r2, .L16+20
 608 002c 6B68     		ldr	r3, [r5, #4]
 609 002e FFF7FEFF 		bl	chprintf
 610              	.LVL104:
 611 0032 2046     		mov	r0, r4
 612 0034 1949     		ldr	r1, .L16+12
 613 0036 1C4A     		ldr	r2, .L16+24
 614 0038 AB68     		ldr	r3, [r5, #8]
 615 003a FFF7FEFF 		bl	chprintf
 616              	.LVL105:
 617 003e 2046     		mov	r0, r4
 618 0040 1649     		ldr	r1, .L16+12
 619 0042 1A4A     		ldr	r2, .L16+28
 620 0044 EB68     		ldr	r3, [r5, #12]
 621 0046 FFF7FEFF 		bl	chprintf
 622              	.LVL106:
 623 004a 2046     		mov	r0, r4
 624 004c 1349     		ldr	r1, .L16+12
ARM GAS  C:\Users\DNIEL~1\AppData\Local\Temp\ccMkT0BQ.s 			page 12


 625 004e 184A     		ldr	r2, .L16+32
 626 0050 2B69     		ldr	r3, [r5, #16]
 627 0052 FFF7FEFF 		bl	chprintf
 628              	.LVL107:
 629 0056 2046     		mov	r0, r4
 630 0058 1049     		ldr	r1, .L16+12
 631 005a 164A     		ldr	r2, .L16+36
 632 005c 6B69     		ldr	r3, [r5, #20]
 633 005e FFF7FEFF 		bl	chprintf
 634              	.LVL108:
 635 0062 2046     		mov	r0, r4
 636 0064 0D49     		ldr	r1, .L16+12
 637 0066 144A     		ldr	r2, .L16+40
 638 0068 AB69     		ldr	r3, [r5, #24]
 639 006a FFF7FEFF 		bl	chprintf
 640              	.LVL109:
 641              		.loc 1 143 0
 642 006e 4FF47A70 		mov	r0, #1000
 643 0072 FFF7FEFF 		bl	chThdSleep
 644              	.LVL110:
 645              	.L14:
 646              		.loc 1 138 0 discriminator 1
 647 0076 2368     		ldr	r3, [r4, #0]
 648 0078 0021     		movs	r1, #0
 649 007a 5A69     		ldr	r2, [r3, #20]
 650 007c 2046     		mov	r0, r4
 651 007e 9047     		blx	r2
 652              	.LVL111:
 653              		.loc 1 139 0 discriminator 1
 654 0080 0022     		movs	r2, #0
 655              		.loc 1 138 0 discriminator 1
 656 0082 0130     		adds	r0, r0, #1
 657              		.loc 1 139 0 discriminator 1
 658 0084 1346     		mov	r3, r2
 659 0086 0D49     		ldr	r1, .L16+44
 660 0088 2046     		mov	r0, r4
 661              		.loc 1 138 0 discriminator 1
 662 008a C4D0     		beq	.L15
 663              	.LVL112:
 664              		.loc 1 145 0
 665 008c 38BD     		pop	{r3, r4, r5, pc}
 666              	.L17:
 667 008e 00BF     		.align	2
 668              	.L16:
 669 0090 00000000 		.word	.LC0
 670 0094 00000000 		.word	.LANCHOR2
 671 0098 04000000 		.word	.LC1
 672 009c 18000000 		.word	.LC3
 673 00a0 24000000 		.word	.LC4
 674 00a4 2C000000 		.word	.LC5
 675 00a8 3C000000 		.word	.LC6
 676 00ac 4C000000 		.word	.LC7
 677 00b0 54000000 		.word	.LC8
 678 00b4 5C000000 		.word	.LC9
 679 00b8 64000000 		.word	.LC10
 680 00bc 0C000000 		.word	.LC2
 681              		.cfi_endproc
ARM GAS  C:\Users\DNIEL~1\AppData\Local\Temp\ccMkT0BQ.s 			page 13


 682              	.LFE123:
 683              		.size	cmd_measvalues, .-cmd_measvalues
 684              		.global	measstate
 685              		.section	.bss.measValue,"aw",%nobits
 686              		.align	2
 687              		.set	.LANCHOR2,. + 0
 688              		.type	measValue, %object
 689              		.size	measValue, 36
 690              	measValue:
 691 0000 00000000 		.space	36
 691      00000000 
 691      00000000 
 691      00000000 
 691      00000000 
 692              		.section	.bss.measstate,"aw",%nobits
 693              		.set	.LANCHOR0,. + 0
 694              		.type	measstate, %object
 695              		.size	measstate, 1
 696              	measstate:
 697 0000 00       		.space	1
 698              		.section	.rodata.str1.4,"aMS",%progbits,1
 699              		.align	2
 700              	.LC0:
 701 0000 1B6300   		.ascii	"\033c\000"
 702 0003 00       		.space	1
 703              	.LC1:
 704 0004 1B5B324A 		.ascii	"\033[2J\000"
 704      00
 705 0009 000000   		.space	3
 706              	.LC2:
 707 000c 1B5B2564 		.ascii	"\033[%d;%dH\000"
 707      3B256448 
 707      00
 708 0015 000000   		.space	3
 709              	.LC3:
 710 0018 25733A20 		.ascii	"%s: %15d\015\012\000"
 710      25313564 
 710      0D0A00
 711 0023 00       		.space	1
 712              	.LC4:
 713 0024 55424154 		.ascii	"UBAT\000"
 713      00
 714 0029 000000   		.space	3
 715              	.LC5:
 716 002c 4252414B 		.ascii	"BRAKE_PRESSURE1\000"
 716      455F5052 
 716      45535355 
 716      52453100 
 717              	.LC6:
 718 003c 4252414B 		.ascii	"BRAKE_PRESSURE2\000"
 718      455F5052 
 718      45535355 
 718      52453200 
 719              	.LC7:
 720 004c 53454E32 		.ascii	"SEN2\000"
 720      00
 721 0051 000000   		.space	3
ARM GAS  C:\Users\DNIEL~1\AppData\Local\Temp\ccMkT0BQ.s 			page 14


 722              	.LC8:
 723 0054 53454E33 		.ascii	"SEN3\000"
 723      00
 724 0059 000000   		.space	3
 725              	.LC9:
 726 005c 53454E34 		.ascii	"SEN4\000"
 726      00
 727 0061 000000   		.space	3
 728              	.LC10:
 729 0064 53454E35 		.ascii	"SEN5\000"
 729      00
 730 0069 000000   		.section	.rodata.adcgrpcfg,"a",%progbits
 731              		.align	2
 732              		.set	.LANCHOR3,. + 0
 733              		.type	adcgrpcfg, %object
 734              		.size	adcgrpcfg, 40
 735              	adcgrpcfg:
 736 0000 00       		.byte	0
 737 0001 00       		.space	1
 738 0002 0700     		.short	7
 739 0004 00000000 		.word	0
 740 0008 00000000 		.word	adcerrorcallback
 741 000c 00000000 		.word	0
 742 0010 00000040 		.word	1073741824
 743 0014 49920000 		.word	37449
 744 0018 00000001 		.word	16777216
 745 001c 00006000 		.word	6291456
 746 0020 08000000 		.word	8
 747 0024 4E2DD61E 		.word	517352782
 748              		.section	.bss.samples,"aw",%nobits
 749              		.align	2
 750              		.set	.LANCHOR1,. + 0
 751              		.type	samples, %object
 752              		.size	samples, 112
 753              	samples:
 754 0000 00000000 		.space	112
 754      00000000 
 754      00000000 
 754      00000000 
 754      00000000 
 755              		.text
 756              	.Letext0:
 757              		.file 3 "c:\\chibistudio\\tools\\gnu tools arm embedded\\4.7 2014q2\\bin\\../lib/gcc/arm-none-eabi
 758              		.file 4 "c:\\chibistudio\\tools\\gnu tools arm embedded\\4.7 2014q2\\bin\\../lib/gcc/arm-none-eabi
 759              		.file 5 "../../../ChibiOS/os/ports/GCC/ARMCMx/chtypes.h"
 760              		.file 6 "../../../ChibiOS/os/kernel/include/chlists.h"
 761              		.file 7 "../../../ChibiOS/os/kernel/include/chthreads.h"
 762              		.file 8 "../../../ChibiOS/os/ports/GCC/ARMCMx/chcore_v7m.h"
 763              		.file 9 "../../../ChibiOS/os/kernel/include/chmtx.h"
 764              		.file 10 "../../../ChibiOS/os/kernel/include/chstreams.h"
 765              		.file 11 "../../../ChibiOS/os/hal/platforms/STM32F4xx/stm32f4xx.h"
 766              		.file 12 "../../../ChibiOS/os/hal/platforms/STM32F4xx/stm32_dma.h"
 767              		.file 13 "../../../ChibiOS/os/hal/include/io_channel.h"
 768              		.file 14 "../../../ChibiOS/os/hal/include/adc.h"
 769              		.file 15 "../../../ChibiOS/os/hal/platforms/STM32F4xx/adc_lld.h"
 770              		.file 16 "c:\\chibistudio\\tools\\gnu tools arm embedded\\4.7 2014q2\\bin\\../lib/gcc/arm-none-eab
 771              		.file 17 "<built-in>"
ARM GAS  C:\Users\DNIEL~1\AppData\Local\Temp\ccMkT0BQ.s 			page 15


 772              		.file 18 "include/meas.h"
 773              		.file 19 "../../../ChibiOS/os/ports/common/ARMCMx/CMSIS/include/core_cm4.h"