ARM GAS  C:\Users\DNIEL~1\AppData\Local\Temp\ccMkT0BQ.s 			page 1


   1              		.syntax unified
   2              		.cpu cortex-m4
   3              		.fpu softvfp
   4              		.eabi_attribute 20, 1
   5              		.eabi_attribute 21, 1
   6              		.eabi_attribute 23, 3
   7              		.eabi_attribute 24, 1
   8              		.eabi_attribute 25, 1
   9              		.eabi_attribute 26, 1
  10              		.eabi_attribute 30, 2
  11              		.eabi_attribute 34, 1
  12              		.eabi_attribute 18, 4
  13              		.thumb
  14              		.file	"meas.c"
  15              		.text
  16              	.Ltext0:
  17              		.cfi_sections	.debug_frame
  18              		.section	.text.adcerrorcallback,"ax",%progbits
  19              		.align	2
  20              		.p2align 4,,15
  21              		.thumb
  22              		.thumb_func
  23              		.type	adcerrorcallback, %function
  24              	adcerrorcallback:
  25              	.LFB122:
  26              		.file 1 "src/meas.c"
  27              		.loc 1 115 0
  28              		.cfi_startproc
  29              		@ args = 0, pretend = 0, frame = 0
  30              		@ frame_needed = 0, uses_anonymous_args = 0
  31              		@ link register save eliminated.
  32              	.LVL0:
  33 0000 7047     		bx	lr
  34              		.cfi_endproc
  35              	.LFE122:
  36              		.size	adcerrorcallback, .-adcerrorcallback
  37 0002 00BFAFF3 		.section	.text.chprintf,"ax",%progbits
  37      0080AFF3 
  37      0080AFF3 
  37      0080
  38              		.align	2
  39              		.p2align 4,,15
  40              		.thumb
  41              		.thumb_func
  42              		.type	chprintf, %function
  43              	chprintf:
  44              	.LFB118:
  45              		.file 2 "../../../ChibiOS/os/various/chprintf.h"
  46              		.loc 2 69 0
  47              		.cfi_startproc
  48              		@ args = 4, pretend = 12, frame = 8
  49              		@ frame_needed = 0, uses_anonymous_args = 1
  50              	.LVL1:
  51              		.loc 2 69 0
  52 0000 0EB4     		push	{r1, r2, r3}
  53              	.LCFI0:
  54              		.cfi_def_cfa_offset 12
ARM GAS  C:\Users\DNIEL~1\AppData\Local\Temp\ccMkT0BQ.s 			page 2


  55              		.cfi_offset 1, -12
  56              		.cfi_offset 2, -8
  57              		.cfi_offset 3, -4
  58 0002 00B5     		push	{lr}
  59              	.LCFI1:
  60              		.cfi_def_cfa_offset 16
  61              		.cfi_offset 14, -16
  62 0004 82B0     		sub	sp, sp, #8
  63              	.LCFI2:
  64              		.cfi_def_cfa_offset 24
  65              		.loc 2 69 0
  66 0006 03AB     		add	r3, sp, #12
  67 0008 53F8041B 		ldr	r1, [r3], #4
  68              		.loc 2 73 0
  69 000c 1A46     		mov	r2, r3
  70              		.loc 2 72 0
  71 000e 0193     		str	r3, [sp, #4]
  72              		.loc 2 73 0
  73 0010 FFF7FEFF 		bl	chvprintf
  74              	.LVL2:
  75              		.loc 2 75 0
  76 0014 02B0     		add	sp, sp, #8
  77 0016 5DF804EB 		pop	{lr}
  78 001a 03B0     		add	sp, sp, #12
  79 001c 7047     		bx	lr
  80              		.cfi_endproc
  81              	.LFE118:
  82              		.size	chprintf, .-chprintf
  83 001e 00BF     		.section	.text.measInit,"ax",%progbits
  84              		.align	2
  85              		.p2align 4,,15
  86              		.global	measInit
  87              		.thumb
  88              		.thumb_func
  89              		.type	measInit, %function
  90              	measInit:
  91              	.LFB119:
  92              		.loc 1 48 0
  93              		.cfi_startproc
  94              		@ args = 0, pretend = 0, frame = 0
  95              		@ frame_needed = 0, uses_anonymous_args = 0
  96              		.loc 1 53 0
  97 0000 40F20000 		movw	r0, #:lower16:ADCD2
  98              		.loc 1 48 0
  99 0004 08B5     		push	{r3, lr}
 100              	.LCFI3:
 101              		.cfi_def_cfa_offset 8
 102              		.cfi_offset 3, -8
 103              		.cfi_offset 14, -4
 104              		.loc 1 53 0
 105 0006 C0F20000 		movt	r0, #:upper16:ADCD2
 106 000a 0021     		movs	r1, #0
 107 000c FFF7FEFF 		bl	adcStart
 108              	.LVL3:
 109              		.loc 1 54 0
 110 0010 40F20003 		movw	r3, #:lower16:.LANCHOR0
 111 0014 C0F20003 		movt	r3, #:upper16:.LANCHOR0
ARM GAS  C:\Users\DNIEL~1\AppData\Local\Temp\ccMkT0BQ.s 			page 3


 112 0018 0022     		movs	r2, #0
 113 001a 1A70     		strb	r2, [r3, #0]
 114 001c 08BD     		pop	{r3, pc}
 115              		.cfi_endproc
 116              	.LFE119:
 117              		.size	measInit, .-measInit
 118 001e 00BF     		.section	.text.measCalc,"ax",%progbits
 119              		.align	2
 120              		.p2align 4,,15
 121              		.global	measCalc
 122              		.thumb
 123              		.thumb_func
 124              		.type	measCalc, %function
 125              	measCalc:
 126              	.LFB120:
 127              		.loc 1 57 0
 128              		.cfi_startproc
 129              		@ args = 0, pretend = 0, frame = 0
 130              		@ frame_needed = 0, uses_anonymous_args = 0
 131              		@ link register save eliminated.
 132              		.loc 1 65 0
 133 0000 764A     		ldr	r2, .L10
 134 0002 1378     		ldrb	r3, [r2, #0]	@ zero_extendqisi2
 135              		.loc 1 57 0
 136 0004 2DE9F001 		push	{r4, r5, r6, r7, r8}
 137              	.LCFI4:
 138              		.cfi_def_cfa_offset 20
 139              		.cfi_offset 4, -20
 140              		.cfi_offset 5, -16
 141              		.cfi_offset 6, -12
 142              		.cfi_offset 7, -8
 143              		.cfi_offset 8, -4
 144              		.loc 1 65 0
 145 0008 4BB9     		cbnz	r3, .L9
 146              		.loc 1 68 0
 147 000a 0121     		movs	r1, #1
 148 000c 1170     		strb	r1, [r2, #0]
 149              	.LVL4:
 150              	.L5:
 151              		.loc 1 105 0
 152 000e 7448     		ldr	r0, .L10+4
 153 0010 7449     		ldr	r1, .L10+8
 154 0012 754A     		ldr	r2, .L10+12
 155 0014 0823     		movs	r3, #8
 156              	.LVL5:
 157              		.loc 1 106 0
 158 0016 BDE8F001 		pop	{r4, r5, r6, r7, r8}
 159              		.loc 1 105 0
 160 001a FFF7FEBF 		b	adcConvert
 161              	.LVL6:
 162              	.L9:
 163              		.loc 1 65 0
 164 001e 012B     		cmp	r3, #1
 165 0020 F5D1     		bne	.L5
 166              	.LVL7:
 167              		.loc 1 74 0
 168 0022 714A     		ldr	r2, .L10+12
ARM GAS  C:\Users\DNIEL~1\AppData\Local\Temp\ccMkT0BQ.s 			page 4


 169 0024 B2F80EC0 		ldrh	ip, [r2, #14]
 170 0028 1788     		ldrh	r7, [r2, #0]
 171              	.LVL8:
 172 002a 968B     		ldrh	r6, [r2, #28]
 173 002c 558D     		ldrh	r5, [r2, #42]
 174 002e 148F     		ldrh	r4, [r2, #56]
 175 0030 B2F84600 		ldrh	r0, [r2, #70]
 176 0034 B2F85410 		ldrh	r1, [r2, #84]
 177 0038 B2F86230 		ldrh	r3, [r2, #98]
 178 003c 6744     		add	r7, ip, r7
 179              	.LVL9:
 180 003e BE19     		adds	r6, r7, r6
 181              	.LVL10:
 182 0040 7519     		adds	r5, r6, r5
 183              	.LVL11:
 184 0042 2C19     		adds	r4, r5, r4
 185              	.LVL12:
 186 0044 2018     		adds	r0, r4, r0
 187              	.LVL13:
 188 0046 4118     		adds	r1, r0, r1
 189              	.LVL14:
 190 0048 CB18     		adds	r3, r1, r3
 191              	.LVL15:
 192              		.loc 1 76 0
 193 004a DF10     		asrs	r7, r3, #3
 194              	.LVL16:
 195              		.loc 1 79 0
 196 004c 41F2A955 		movw	r5, #5545
 197              		.loc 1 80 0
 198 0050 42F6B366 		movw	r6, #11955
 199              		.loc 1 79 0
 200 0054 05FB07F7 		mul	r7, r5, r7
 201              	.LVL17:
 202              		.loc 1 80 0
 203 0058 CAF6F606 		movt	r6, 43254
 204 005c 86FB0704 		smull	r0, r4, r6, r7
 205 0060 E019     		adds	r0, r4, r7
 206 0062 F917     		asrs	r1, r7, #31
 207 0064 C1EB6037 		rsb	r7, r1, r0, asr #13
 208              	.LVL18:
 209              	.LBB2:
 210              		.loc 1 97 0
 211 0068 2023     		movs	r3, #32
 212              	.LVL19:
 213              	@ 97 "src/meas.c" 1
 214 006a 83F31188 		msr     BASEPRI, r3
 215              	@ 0 "" 2
 216              	.LVL20:
 217              		.thumb
 218              	.LBE2:
 219              		.loc 1 98 0
 220 006e 5F49     		ldr	r1, .L10+16
 221              	.LBB3:
 222              		.loc 1 99 0
 223 0070 0023     		movs	r3, #0
 224              	.LVL21:
 225              	.LBE3:
ARM GAS  C:\Users\DNIEL~1\AppData\Local\Temp\ccMkT0BQ.s 			page 5


 226              		.loc 1 98 0
 227 0072 0F60     		str	r7, [r1, #0]
 228              	.LBB4:
 229              		.loc 1 99 0
 230              	@ 99 "src/meas.c" 1
 231 0074 83F31188 		msr     BASEPRI, r3
 232              	@ 0 "" 2
 233              	.LVL22:
 234              		.thumb
 235              	.LBE4:
 236              		.loc 1 74 0
 237 0078 B2F80280 		ldrh	r8, [r2, #2]
 238              	.LVL23:
 239 007c B2F810C0 		ldrh	ip, [r2, #16]
 240 0080 D78B     		ldrh	r7, [r2, #30]
 241 0082 968D     		ldrh	r6, [r2, #44]
 242 0084 558F     		ldrh	r5, [r2, #58]
 243 0086 B2F84840 		ldrh	r4, [r2, #72]
 244 008a B2F85600 		ldrh	r0, [r2, #86]
 245 008e B2F86430 		ldrh	r3, [r2, #100]
 246              	.LVL24:
 247 0092 E044     		add	r8, r8, ip
 248              	.LVL25:
 249 0094 4744     		add	r7, r8, r7
 250              	.LVL26:
 251 0096 BE19     		adds	r6, r7, r6
 252              	.LVL27:
 253 0098 7519     		adds	r5, r6, r5
 254              	.LVL28:
 255 009a 2C19     		adds	r4, r5, r4
 256              	.LVL29:
 257 009c 2018     		adds	r0, r4, r0
 258              	.LVL30:
 259 009e C718     		adds	r7, r0, r3
 260              	.LVL31:
 261              	.LBB5:
 262              		.loc 1 97 0
 263 00a0 2023     		movs	r3, #32
 264              	@ 97 "src/meas.c" 1
 265 00a2 83F31188 		msr     BASEPRI, r3
 266              	@ 0 "" 2
 267              	.LVL32:
 268              		.thumb
 269              	.LBE5:
 270              		.loc 1 98 0
 271 00a6 47F3CF03 		sbfx	r3, r7, #3, #16
 272              	.LVL33:
 273 00aa 4B60     		str	r3, [r1, #4]
 274              	.LBB6:
 275              		.loc 1 99 0
 276 00ac 0023     		movs	r3, #0
 277              	@ 99 "src/meas.c" 1
 278 00ae 83F31188 		msr     BASEPRI, r3
 279              	@ 0 "" 2
 280              	.LVL34:
 281              		.thumb
 282              	.LBE6:
ARM GAS  C:\Users\DNIEL~1\AppData\Local\Temp\ccMkT0BQ.s 			page 6


 283              		.loc 1 74 0
 284 00b2 B2F80480 		ldrh	r8, [r2, #4]
 285              	.LVL35:
 286 00b6 B2F812C0 		ldrh	ip, [r2, #18]
 287 00ba 178C     		ldrh	r7, [r2, #32]
 288 00bc D68D     		ldrh	r6, [r2, #46]
 289 00be 958F     		ldrh	r5, [r2, #60]
 290 00c0 B2F84A40 		ldrh	r4, [r2, #74]
 291 00c4 B2F85800 		ldrh	r0, [r2, #88]
 292 00c8 B2F86630 		ldrh	r3, [r2, #102]
 293              	.LVL36:
 294 00cc E044     		add	r8, r8, ip
 295              	.LVL37:
 296 00ce 4744     		add	r7, r8, r7
 297              	.LVL38:
 298 00d0 BE19     		adds	r6, r7, r6
 299              	.LVL39:
 300 00d2 7519     		adds	r5, r6, r5
 301              	.LVL40:
 302 00d4 2C19     		adds	r4, r5, r4
 303              	.LVL41:
 304 00d6 2018     		adds	r0, r4, r0
 305              	.LVL42:
 306 00d8 C718     		adds	r7, r0, r3
 307              	.LVL43:
 308              	.LBB7:
 309              		.loc 1 97 0
 310 00da 2023     		movs	r3, #32
 311              	@ 97 "src/meas.c" 1
 312 00dc 83F31188 		msr     BASEPRI, r3
 313              	@ 0 "" 2
 314              	.LVL44:
 315              		.thumb
 316              	.LBE7:
 317              		.loc 1 98 0
 318 00e0 47F3CF03 		sbfx	r3, r7, #3, #16
 319              	.LVL45:
 320 00e4 8B60     		str	r3, [r1, #8]
 321              	.LBB8:
 322              		.loc 1 99 0
 323 00e6 0023     		movs	r3, #0
 324              	@ 99 "src/meas.c" 1
 325 00e8 83F31188 		msr     BASEPRI, r3
 326              	@ 0 "" 2
 327              	.LVL46:
 328              		.thumb
 329              	.LBE8:
 330              		.loc 1 74 0
 331 00ec B2F80680 		ldrh	r8, [r2, #6]
 332              	.LVL47:
 333 00f0 B2F814C0 		ldrh	ip, [r2, #20]
 334 00f4 578C     		ldrh	r7, [r2, #34]
 335 00f6 168E     		ldrh	r6, [r2, #48]
 336 00f8 D58F     		ldrh	r5, [r2, #62]
 337 00fa B2F84C40 		ldrh	r4, [r2, #76]
 338 00fe B2F85A00 		ldrh	r0, [r2, #90]
 339 0102 B2F86830 		ldrh	r3, [r2, #104]
ARM GAS  C:\Users\DNIEL~1\AppData\Local\Temp\ccMkT0BQ.s 			page 7


 340              	.LVL48:
 341 0106 E044     		add	r8, r8, ip
 342              	.LVL49:
 343 0108 4744     		add	r7, r8, r7
 344              	.LVL50:
 345 010a BE19     		adds	r6, r7, r6
 346              	.LVL51:
 347 010c 7519     		adds	r5, r6, r5
 348              	.LVL52:
 349 010e 2C19     		adds	r4, r5, r4
 350              	.LVL53:
 351 0110 2018     		adds	r0, r4, r0
 352              	.LVL54:
 353 0112 C718     		adds	r7, r0, r3
 354              	.LVL55:
 355              	.LBB9:
 356              		.loc 1 97 0
 357 0114 2023     		movs	r3, #32
 358              	@ 97 "src/meas.c" 1
 359 0116 83F31188 		msr     BASEPRI, r3
 360              	@ 0 "" 2
 361              	.LVL56:
 362              		.thumb
 363              	.LBE9:
 364              		.loc 1 98 0
 365 011a 47F3CF03 		sbfx	r3, r7, #3, #16
 366              	.LVL57:
 367 011e CB60     		str	r3, [r1, #12]
 368              	.LBB10:
 369              		.loc 1 99 0
 370 0120 0023     		movs	r3, #0
 371              	@ 99 "src/meas.c" 1
 372 0122 83F31188 		msr     BASEPRI, r3
 373              	@ 0 "" 2
 374              	.LVL58:
 375              		.thumb
 376              	.LBE10:
 377              		.loc 1 74 0
 378 0126 B2F80880 		ldrh	r8, [r2, #8]
 379              	.LVL59:
 380 012a B2F816C0 		ldrh	ip, [r2, #22]
 381 012e 978C     		ldrh	r7, [r2, #36]
 382 0130 568E     		ldrh	r6, [r2, #50]
 383 0132 B2F84050 		ldrh	r5, [r2, #64]
 384 0136 B2F84E40 		ldrh	r4, [r2, #78]
 385 013a B2F85C00 		ldrh	r0, [r2, #92]
 386 013e B2F86A30 		ldrh	r3, [r2, #106]
 387              	.LVL60:
 388 0142 E044     		add	r8, r8, ip
 389              	.LVL61:
 390 0144 4744     		add	r7, r8, r7
 391              	.LVL62:
 392 0146 BE19     		adds	r6, r7, r6
 393              	.LVL63:
 394 0148 7519     		adds	r5, r6, r5
 395              	.LVL64:
 396 014a 2C19     		adds	r4, r5, r4
ARM GAS  C:\Users\DNIEL~1\AppData\Local\Temp\ccMkT0BQ.s 			page 8


 397              	.LVL65:
 398 014c 2018     		adds	r0, r4, r0
 399              	.LVL66:
 400 014e C718     		adds	r7, r0, r3
 401              	.LVL67:
 402              	.LBB11:
 403              		.loc 1 97 0
 404 0150 2023     		movs	r3, #32
 405              	@ 97 "src/meas.c" 1
 406 0152 83F31188 		msr     BASEPRI, r3
 407              	@ 0 "" 2
 408              	.LVL68:
 409              		.thumb
 410              	.LBE11:
 411              		.loc 1 98 0
 412 0156 47F3CF03 		sbfx	r3, r7, #3, #16
 413              	.LVL69:
 414 015a 0B61     		str	r3, [r1, #16]
 415              	.LBB12:
 416              		.loc 1 99 0
 417 015c 0023     		movs	r3, #0
 418              	@ 99 "src/meas.c" 1
 419 015e 83F31188 		msr     BASEPRI, r3
 420              	@ 0 "" 2
 421              	.LVL70:
 422              		.thumb
 423              	.LBE12:
 424              		.loc 1 74 0
 425 0162 B2F80A80 		ldrh	r8, [r2, #10]
 426              	.LVL71:
 427 0166 B2F818C0 		ldrh	ip, [r2, #24]
 428 016a D78C     		ldrh	r7, [r2, #38]
 429 016c 968E     		ldrh	r6, [r2, #52]
 430 016e B2F84250 		ldrh	r5, [r2, #66]
 431 0172 B2F85040 		ldrh	r4, [r2, #80]
 432 0176 B2F85E00 		ldrh	r0, [r2, #94]
 433 017a B2F86C30 		ldrh	r3, [r2, #108]
 434              	.LVL72:
 435 017e C444     		add	ip, r8, ip
 436              	.LVL73:
 437 0180 6744     		add	r7, ip, r7
 438              	.LVL74:
 439 0182 BE19     		adds	r6, r7, r6
 440              	.LVL75:
 441 0184 7519     		adds	r5, r6, r5
 442              	.LVL76:
 443 0186 2C19     		adds	r4, r5, r4
 444              	.LVL77:
 445 0188 2018     		adds	r0, r4, r0
 446              	.LVL78:
 447 018a C718     		adds	r7, r0, r3
 448              	.LVL79:
 449              	.LBB13:
 450              		.loc 1 97 0
 451 018c 2023     		movs	r3, #32
 452              	@ 97 "src/meas.c" 1
 453 018e 83F31188 		msr     BASEPRI, r3
ARM GAS  C:\Users\DNIEL~1\AppData\Local\Temp\ccMkT0BQ.s 			page 9


 454              	@ 0 "" 2
 455              	.LVL80:
 456              		.thumb
 457              	.LBE13:
 458              		.loc 1 98 0
 459 0192 47F3CF03 		sbfx	r3, r7, #3, #16
 460              	.LVL81:
 461 0196 4B61     		str	r3, [r1, #20]
 462              	.LBB14:
 463              		.loc 1 99 0
 464 0198 0023     		movs	r3, #0
 465              	@ 99 "src/meas.c" 1
 466 019a 83F31188 		msr     BASEPRI, r3
 467              	@ 0 "" 2
 468              	.LVL82:
 469              		.thumb
 470              	.LBE14:
 471              		.loc 1 74 0
 472 019e B2F80CC0 		ldrh	ip, [r2, #12]
 473              	.LVL83:
 474 01a2 578B     		ldrh	r7, [r2, #26]
 475 01a4 168D     		ldrh	r6, [r2, #40]
 476 01a6 D58E     		ldrh	r5, [r2, #54]
 477 01a8 B2F84440 		ldrh	r4, [r2, #68]
 478 01ac B2F85200 		ldrh	r0, [r2, #82]
 479 01b0 B2F86030 		ldrh	r3, [r2, #96]
 480              	.LVL84:
 481 01b4 B2F86E20 		ldrh	r2, [r2, #110]
 482 01b8 6744     		add	r7, ip, r7
 483              	.LVL85:
 484 01ba BE19     		adds	r6, r7, r6
 485              	.LVL86:
 486 01bc 7519     		adds	r5, r6, r5
 487              	.LVL87:
 488 01be 2C19     		adds	r4, r5, r4
 489              	.LVL88:
 490 01c0 2018     		adds	r0, r4, r0
 491              	.LVL89:
 492 01c2 C318     		adds	r3, r0, r3
 493              	.LVL90:
 494 01c4 D218     		adds	r2, r2, r3
 495              	.LVL91:
 496              	.LBB15:
 497              		.loc 1 97 0
 498 01c6 2023     		movs	r3, #32
 499              	@ 97 "src/meas.c" 1
 500 01c8 83F31188 		msr     BASEPRI, r3
 501              	@ 0 "" 2
 502              	.LVL92:
 503              		.thumb
 504              	.LBE15:
 505              		.loc 1 98 0
 506 01cc 42F3CF00 		sbfx	r0, r2, #3, #16
 507 01d0 8861     		str	r0, [r1, #24]
 508              	.LBB16:
 509              		.loc 1 99 0
 510 01d2 0023     		movs	r3, #0
ARM GAS  C:\Users\DNIEL~1\AppData\Local\Temp\ccMkT0BQ.s 			page 10


 511              	.LVL93:
 512              	@ 99 "src/meas.c" 1
 513 01d4 83F31188 		msr     BASEPRI, r3
 514              	@ 0 "" 2
 515              	.LVL94:
 516              		.thumb
 517 01d8 19E7     		b	.L5
 518              	.L11:
 519 01da 00BF     		.align	2
 520              	.L10:
 521 01dc 00000000 		.word	.LANCHOR0
 522 01e0 00000000 		.word	ADCD2
 523 01e4 00000000 		.word	.LANCHOR3
 524 01e8 00000000 		.word	.LANCHOR1
 525 01ec 00000000 		.word	.LANCHOR2
 526              	.LBE16:
 527              		.cfi_endproc
 528              	.LFE120:
 529              		.size	measCalc, .-measCalc
 530              		.section	.text.measGetValue,"ax",%progbits
 531              		.align	2
 532              		.p2align 4,,15
 533              		.global	measGetValue
 534              		.thumb
 535              		.thumb_func
 536              		.type	measGetValue, %function
 537              	measGetValue:
 538              	.LFB121:
 539              		.loc 1 108 0
 540              		.cfi_startproc
 541              		@ args = 0, pretend = 0, frame = 0
 542              		@ frame_needed = 0, uses_anonymous_args = 0
 543              		@ link register save eliminated.
 544              	.LVL95:
 545              		.loc 1 109 0
 546 0000 40F20003 		movw	r3, #:lower16:.LANCHOR2
 547 0004 C0F20003 		movt	r3, #:upper16:.LANCHOR2
 548              		.loc 1 110 0
 549 0008 33F92000 		ldrsh	r0, [r3, r0, lsl #2]
 550              	.LVL96:
 551 000c 7047     		bx	lr
 552              		.cfi_endproc
 553              	.LFE121:
 554              		.size	measGetValue, .-measGetValue
 555 000e 00BF     		.section	.text.cmd_measvalues,"ax",%progbits
 556              		.align	2
 557              		.p2align 4,,15
 558              		.global	cmd_measvalues
 559              		.thumb
 560              		.thumb_func
 561              		.type	cmd_measvalues, %function
 562              	cmd_measvalues:
 563              	.LFB123:
 564              		.loc 1 121 0
 565              		.cfi_startproc
 566              		@ args = 0, pretend = 0, frame = 0
 567              		@ frame_needed = 0, uses_anonymous_args = 0
ARM GAS  C:\Users\DNIEL~1\AppData\Local\Temp\ccMkT0BQ.s 			page 11


 568              	.LVL97:
 569 0000 38B5     		push	{r3, r4, r5, lr}
 570              	.LCFI5:
 571              		.cfi_def_cfa_offset 16
 572              		.cfi_offset 3, -16
 573              		.cfi_offset 4, -12
 574              		.cfi_offset 5, -8
 575              		.cfi_offset 14, -4
 576              		.loc 1 136 0
 577 0002 2349     		ldr	r1, .L16
 578              	.LVL98:
 579              		.loc 1 141 0
 580 0004 234D     		ldr	r5, .L16+4
 581              		.loc 1 121 0
 582 0006 0446     		mov	r4, r0
 583              		.loc 1 136 0
 584 0008 FFF7FEFF 		bl	chprintf
 585              	.LVL99:
 586              		.loc 1 137 0
 587 000c 2046     		mov	r0, r4
 588 000e 2249     		ldr	r1, .L16+8
 589 0010 FFF7FEFF 		bl	chprintf
 590              	.LVL100:
 591              		.loc 1 138 0
 592 0014 2FE0     		b	.L14
 593              	.LVL101:
 594              	.L15:
 595              		.loc 1 139 0
 596 0016 FFF7FEFF 		bl	chprintf
 597              	.LVL102:
 598              		.loc 1 141 0
 599 001a 2046     		mov	r0, r4
 600 001c 1F49     		ldr	r1, .L16+12
 601 001e 204A     		ldr	r2, .L16+16
 602 0020 2B68     		ldr	r3, [r5, #0]
 603 0022 FFF7FEFF 		bl	chprintf
 604              	.LVL103:
 605 0026 2046     		mov	r0, r4
 606 0028 1C49     		ldr	r1, .L16+12
 607 002a 1E4A     		ldr	r2, .L16+20
 608 002c 6B68     		ldr	r3, [r5, #4]
 609 002e FFF7FEFF 		bl	chprintf
 610              	.LVL104:
 611 0032 2046     		mov	r0, r4
 612 0034 1949     		ldr	r1, .L16+12
 613 0036 1C4A     		ldr	r2, .L16+24
 614 0038 AB68     		ldr	r3, [r5, #8]
 615 003a FFF7FEFF 		bl	chprintf
 616              	.LVL105:
 617 003e 2046     		mov	r0, r4
 618 0040 1649     		ldr	r1, .L16+12
 619 0042 1A4A     		ldr	r2, .L16+28
 620 0044 EB68     		ldr	r3, [r5, #12]
 621 0046 FFF7FEFF 		bl	chprintf
 622              	.LVL106:
 623 004a 2046     		mov	r0, r4
 624 004c 1349     		ldr	r1, .L16+12
ARM GAS  C:\Users\DNIEL~1\AppData\Local\Temp\ccMkT0BQ.s 			page 12


 625 004e 184A     		ldr	r2, .L16+32
 626 0050 2B69     		ldr	r3, [r5, #16]
 627 0052 FFF7FEFF 		bl	chprintf
 628              	.LVL107:
 629 0056 2046     		mov	r0, r4
 630 0058 1049     		ldr	r1, .L16+12
 631 005a 164A     		ldr	r2, .L16+36
 632 005c 6B69     		ldr	r3, [r5, #20]
 633 005e FFF7FEFF 		bl	chprintf
 634              	.LVL108:
 635 0062 2046     		mov	r0, r4
 636 0064 0D49     		ldr	r1, .L16+12
 637 0066 144A     		ldr	r2, .L16+40
 638 0068 AB69     		ldr	r3, [r5, #24]
 639 006a FFF7FEFF 		bl	chprintf
 640              	.LVL109:
 641              		.loc 1 143 0
 642 006e 4FF47A70 		mov	r0, #1000
 643 0072 FFF7FEFF 		bl	chThdSleep
 644              	.LVL110:
 645              	.L14:
 646              		.loc 1 138 0 discriminator 1
 647 0076 2368     		ldr	r3, [r4, #0]
 648 0078 0021     		movs	r1, #0
 649 007a 5A69     		ldr	r2, [r3, #20]
 650 007c 2046     		mov	r0, r4
 651 007e 9047     		blx	r2
 652              	.LVL111:
 653              		.loc 1 139 0 discriminator 1
 654 0080 0022     		movs	r2, #0
 655              		.loc 1 138 0 discriminator 1
 656 0082 0130     		adds	r0, r0, #1
 657              		.loc 1 139 0 discriminator 1
 658 0084 1346     		mov	r3, r2
 659 0086 0D49     		ldr	r1, .L16+44
 660 0088 2046     		mov	r0, r4
 661              		.loc 1 138 0 discriminator 1
 662 008a C4D0     		beq	.L15
 663              	.LVL112:
 664              		.loc 1 145 0
 665 008c 38BD     		pop	{r3, r4, r5, pc}
 666              	.L17:
 667 008e 00BF     		.align	2
 668              	.L16:
 669 0090 00000000 		.word	.LC0
 670 0094 00000000 		.word	.LANCHOR2
 671 0098 04000000 		.word	.LC1
 672 009c 18000000 		.word	.LC3
 673 00a0 24000000 		.word	.LC4
 674 00a4 2C000000 		.word	.LC5
 675 00a8 3C000000 		.word	.LC6
 676 00ac 4C000000 		.word	.LC7
 677 00b0 54000000 		.word	.LC8
 678 00b4 5C000000 		.word	.LC9
 679 00b8 64000000 		.word	.LC10
 680 00bc 0C000000 		.word	.LC2
 681              		.cfi_endproc
ARM GAS  C:\Users\DNIEL~1\AppData\Local\Temp\ccMkT0BQ.s 			page 13


 682              	.LFE123:
 683              		.size	cmd_measvalues, .-cmd_measvalues
 684              		.global	measstate
 685              		.section	.bss.measValue,"aw",%nobits
 686              		.align	2
 687              		.set	.LANCHOR2,. + 0
 688              		.type	measValue, %object
 689              		.size	measValue, 36
 690              	measValue:
 691 0000 00000000 		.space	36
 691      00000000 
 691      00000000 
 691      00000000 
 691      00000000 
 692              		.section	.bss.measstate,"aw",%nobits
 693              		.set	.LANCHOR0,. + 0
 694              		.type	measstate, %object
 695              		.size	measstate, 1
 696              	measstate:
 697 0000 00       		.space	1
 698              		.section	.rodata.str1.4,"aMS",%progbits,1
 699              		.align	2
 700              	.LC0:
 701 0000 1B6300   		.ascii	"\033c\000"
 702 0003 00       		.space	1
 703              	.LC1:
 704 0004 1B5B324A 		.ascii	"\033[2J\000"
 704      00
 705 0009 000000   		.space	3
 706              	.LC2:
 707 000c 1B5B2564 		.ascii	"\033[%d;%dH\000"
 707      3B256448 
 707      00
 708 0015 000000   		.space	3
 709              	.LC3:
 710 0018 25733A20 		.ascii	"%s: %15d\015\012\000"
 710      25313564 
 710      0D0A00
 711 0023 00       		.space	1
 712              	.LC4:
 713 0024 55424154 		.ascii	"UBAT\000"
 713      00
 714 0029 000000   		.space	3
 715              	.LC5:
 716 002c 4252414B 		.ascii	"BRAKE_PRESSURE1\000"
 716      455F5052 
 716      45535355 
 716      52453100 
 717              	.LC6:
 718 003c 4252414B 		.ascii	"BRAKE_PRESSURE2\000"
 718      455F5052 
 718      45535355 
 718      52453200 
 719              	.LC7:
 720 004c 53454E32 		.ascii	"SEN2\000"
 720      00
 721 0051 000000   		.space	3
ARM GAS  C:\Users\DNIEL~1\AppData\Local\Temp\ccMkT0BQ.s 			page 14


 722              	.LC8:
 723 0054 53454E33 		.ascii	"SEN3\000"
 723      00
 724 0059 000000   		.space	3
 725              	.LC9:
 726 005c 53454E34 		.ascii	"SEN4\000"
 726      00
 727 0061 000000   		.space	3
 728              	.LC10:
 729 0064 53454E35 		.ascii	"SEN5\000"
 729      00
 730 0069 000000   		.section	.rodata.adcgrpcfg,"a",%progbits
 731              		.align	2
 732              		.set	.LANCHOR3,. + 0
 733              		.type	adcgrpcfg, %object
 734              		.size	adcgrpcfg, 40
 735              	adcgrpcfg:
 736 0000 00       		.byte	0
 737 0001 00       		.space	1
 738 0002 0700     		.short	7
 739 0004 00000000 		.word	0
 740 0008 00000000 		.word	adcerrorcallback
 741 000c 00000000 		.word	0
 742 0010 00000040 		.word	1073741824
 743 0014 49920000 		.word	37449
 744 0018 00000001 		.word	16777216
 745 001c 00006000 		.word	6291456
 746 0020 08000000 		.word	8
 747 0024 4E2DD61E 		.word	517352782
 748              		.section	.bss.samples,"aw",%nobits
 749              		.align	2
 750              		.set	.LANCHOR1,. + 0
 751              		.type	samples, %object
 752              		.size	samples, 112
 753              	samples:
 754 0000 00000000 		.space	112
 754      00000000 
 754      00000000 
 754      00000000 
 754      00000000 
 755              		.text
 756              	.Letext0:
 757              		.file 3 "c:\\chibistudio\\tools\\gnu tools arm embedded\\4.7 2014q2\\bin\\../lib/gcc/arm-none-eabi
 758              		.file 4 "c:\\chibistudio\\tools\\gnu tools arm embedded\\4.7 2014q2\\bin\\../lib/gcc/arm-none-eabi
 759              		.file 5 "../../../ChibiOS/os/ports/GCC/ARMCMx/chtypes.h"
 760              		.file 6 "../../../ChibiOS/os/kernel/include/chlists.h"
 761              		.file 7 "../../../ChibiOS/os/kernel/include/chthreads.h"
 762              		.file 8 "../../../ChibiOS/os/ports/GCC/ARMCMx/chcore_v7m.h"
 763              		.file 9 "../../../ChibiOS/os/kernel/include/chmtx.h"
 764              		.file 10 "../../../ChibiOS/os/kernel/include/chstreams.h"
 765              		.file 11 "../../../ChibiOS/os/hal/platforms/STM32F4xx/stm32f4xx.h"
 766              		.file 12 "../../../ChibiOS/os/hal/platforms/STM32F4xx/stm32_dma.h"
 767              		.file 13 "../../../ChibiOS/os/hal/include/io_channel.h"
 768              		.file 14 "../../../ChibiOS/os/hal/include/adc.h"
 769              		.file 15 "../../../ChibiOS/os/hal/platforms/STM32F4xx/adc_lld.h"
 770              		.file 16 "c:\\chibistudio\\tools\\gnu tools arm embedded\\4.7 2014q2\\bin\\../lib/gcc/arm-none-eab
 771              		.file 17 "<built-in>"
ARM GAS  C:\Users\DNIEL~1\AppData\Local\Temp\ccMkT0BQ.s 			page 15


 772              		.file 18 "include/meas.h"
 773              		.file 19 "../../../ChibiOS/os/ports/common/ARMCMx/CMSIS/include/core_cm4.h"
 774              		.section	.debug_info,"",%progbits
 775              	.Ldebug_info0:
 776 0000 B90F0000 		.4byte	0xfb9
 777 0004 0200     		.2byte	0x2
 778 0006 00000000 		.4byte	.Ldebug_abbrev0
 779 000a 04       		.byte	0x4
 780 000b 01       		.uleb128 0x1
 781 000c 2B030000 		.4byte	.LASF162
 782 0010 01       		.byte	0x1
 783 0011 08030000 		.4byte	.LASF163
 784 0015 BF050000 		.4byte	.LASF164
 785 0019 88000000 		.4byte	.Ldebug_ranges0+0x88
 786 001d 00000000 		.4byte	0
 787 0021 00000000 		.4byte	0
 788 0025 00000000 		.4byte	.Ldebug_line0
 789 0029 02       		.uleb128 0x2
 790 002a 04       		.byte	0x4
 791 002b 05       		.byte	0x5
 792 002c 696E7400 		.ascii	"int\000"
 793 0030 03       		.uleb128 0x3
 794 0031 05000000 		.4byte	.LASF2
 795 0035 03       		.byte	0x3
 796 0036 D5       		.byte	0xd5
 797 0037 3B000000 		.4byte	0x3b
 798 003b 04       		.uleb128 0x4
 799 003c 04       		.byte	0x4
 800 003d 07       		.byte	0x7
 801 003e FD010000 		.4byte	.LASF0
 802 0042 04       		.uleb128 0x4
 803 0043 01       		.byte	0x1
 804 0044 06       		.byte	0x6
 805 0045 BE000000 		.4byte	.LASF1
 806 0049 03       		.uleb128 0x3
 807 004a FC050000 		.4byte	.LASF3
 808 004e 04       		.byte	0x4
 809 004f 2A       		.byte	0x2a
 810 0050 54000000 		.4byte	0x54
 811 0054 04       		.uleb128 0x4
 812 0055 01       		.byte	0x1
 813 0056 08       		.byte	0x8
 814 0057 0D040000 		.4byte	.LASF4
 815 005b 03       		.uleb128 0x3
 816 005c A8000000 		.4byte	.LASF5
 817 0060 04       		.byte	0x4
 818 0061 35       		.byte	0x35
 819 0062 66000000 		.4byte	0x66
 820 0066 04       		.uleb128 0x4
 821 0067 02       		.byte	0x2
 822 0068 05       		.byte	0x5
 823 0069 3A040000 		.4byte	.LASF6
 824 006d 03       		.uleb128 0x3
 825 006e 4D010000 		.4byte	.LASF7
 826 0072 04       		.byte	0x4
 827 0073 36       		.byte	0x36
 828 0074 78000000 		.4byte	0x78
ARM GAS  C:\Users\DNIEL~1\AppData\Local\Temp\ccMkT0BQ.s 			page 16


 829 0078 04       		.uleb128 0x4
 830 0079 02       		.byte	0x2
 831 007a 07       		.byte	0x7
 832 007b 58020000 		.4byte	.LASF8
 833 007f 03       		.uleb128 0x3
 834 0080 05040000 		.4byte	.LASF9
 835 0084 04       		.byte	0x4
 836 0085 4F       		.byte	0x4f
 837 0086 8A000000 		.4byte	0x8a
 838 008a 04       		.uleb128 0x4
 839 008b 04       		.byte	0x4
 840 008c 05       		.byte	0x5
 841 008d 04010000 		.4byte	.LASF10
 842 0091 03       		.uleb128 0x3
 843 0092 D8040000 		.4byte	.LASF11
 844 0096 04       		.byte	0x4
 845 0097 50       		.byte	0x50
 846 0098 9C000000 		.4byte	0x9c
 847 009c 04       		.uleb128 0x4
 848 009d 04       		.byte	0x4
 849 009e 07       		.byte	0x7
 850 009f F1040000 		.4byte	.LASF12
 851 00a3 04       		.uleb128 0x4
 852 00a4 08       		.byte	0x8
 853 00a5 05       		.byte	0x5
 854 00a6 B0000000 		.4byte	.LASF13
 855 00aa 04       		.uleb128 0x4
 856 00ab 08       		.byte	0x8
 857 00ac 07       		.byte	0x7
 858 00ad 3C000000 		.4byte	.LASF14
 859 00b1 03       		.uleb128 0x3
 860 00b2 D2000000 		.4byte	.LASF15
 861 00b6 05       		.byte	0x5
 862 00b7 2B       		.byte	0x2b
 863 00b8 BC000000 		.4byte	0xbc
 864 00bc 04       		.uleb128 0x4
 865 00bd 01       		.byte	0x1
 866 00be 02       		.byte	0x2
 867 00bf FF030000 		.4byte	.LASF16
 868 00c3 03       		.uleb128 0x3
 869 00c4 9F020000 		.4byte	.LASF17
 870 00c8 05       		.byte	0x5
 871 00c9 2C       		.byte	0x2c
 872 00ca 49000000 		.4byte	0x49
 873 00ce 03       		.uleb128 0x3
 874 00cf 33010000 		.4byte	.LASF18
 875 00d3 05       		.byte	0x5
 876 00d4 2D       		.byte	0x2d
 877 00d5 49000000 		.4byte	0x49
 878 00d9 03       		.uleb128 0x3
 879 00da BA030000 		.4byte	.LASF19
 880 00de 05       		.byte	0x5
 881 00df 2E       		.byte	0x2e
 882 00e0 49000000 		.4byte	0x49
 883 00e4 03       		.uleb128 0x3
 884 00e5 E7040000 		.4byte	.LASF20
 885 00e9 05       		.byte	0x5
ARM GAS  C:\Users\DNIEL~1\AppData\Local\Temp\ccMkT0BQ.s 			page 17


 886 00ea 2F       		.byte	0x2f
 887 00eb 49000000 		.4byte	0x49
 888 00ef 03       		.uleb128 0x3
 889 00f0 E7030000 		.4byte	.LASF21
 890 00f4 05       		.byte	0x5
 891 00f5 30       		.byte	0x30
 892 00f6 91000000 		.4byte	0x91
 893 00fa 03       		.uleb128 0x3
 894 00fb 85020000 		.4byte	.LASF22
 895 00ff 05       		.byte	0x5
 896 0100 31       		.byte	0x31
 897 0101 7F000000 		.4byte	0x7f
 898 0105 03       		.uleb128 0x3
 899 0106 C0020000 		.4byte	.LASF23
 900 010a 05       		.byte	0x5
 901 010b 33       		.byte	0x33
 902 010c 91000000 		.4byte	0x91
 903 0110 03       		.uleb128 0x3
 904 0111 4D050000 		.4byte	.LASF24
 905 0115 05       		.byte	0x5
 906 0116 35       		.byte	0x35
 907 0117 91000000 		.4byte	0x91
 908 011b 03       		.uleb128 0x3
 909 011c AA040000 		.4byte	.LASF25
 910 0120 06       		.byte	0x6
 911 0121 2A       		.byte	0x2a
 912 0122 26010000 		.4byte	0x126
 913 0126 05       		.uleb128 0x5
 914 0127 AA040000 		.4byte	.LASF25
 915 012b 48       		.byte	0x48
 916 012c 07       		.byte	0x7
 917 012d 5E       		.byte	0x5e
 918 012e 4B020000 		.4byte	0x24b
 919 0132 06       		.uleb128 0x6
 920 0133 66040000 		.4byte	.LASF26
 921 0137 07       		.byte	0x7
 922 0138 5F       		.byte	0x5f
 923 0139 70020000 		.4byte	0x270
 924 013d 02       		.byte	0x2
 925 013e 23       		.byte	0x23
 926 013f 00       		.uleb128 0
 927 0140 06       		.uleb128 0x6
 928 0141 CD030000 		.4byte	.LASF27
 929 0145 07       		.byte	0x7
 930 0146 61       		.byte	0x61
 931 0147 70020000 		.4byte	0x270
 932 014b 02       		.byte	0x2
 933 014c 23       		.byte	0x23
 934 014d 04       		.uleb128 0x4
 935 014e 06       		.uleb128 0x6
 936 014f 96000000 		.4byte	.LASF28
 937 0153 07       		.byte	0x7
 938 0154 63       		.byte	0x63
 939 0155 EF000000 		.4byte	0xef
 940 0159 02       		.byte	0x2
 941 015a 23       		.byte	0x23
 942 015b 08       		.uleb128 0x8
ARM GAS  C:\Users\DNIEL~1\AppData\Local\Temp\ccMkT0BQ.s 			page 18


 943 015c 06       		.uleb128 0x6
 944 015d 80060000 		.4byte	.LASF29
 945 0161 07       		.byte	0x7
 946 0162 64       		.byte	0x64
 947 0163 3E030000 		.4byte	0x33e
 948 0167 02       		.byte	0x2
 949 0168 23       		.byte	0x23
 950 0169 0C       		.uleb128 0xc
 951 016a 06       		.uleb128 0x6
 952 016b 69010000 		.4byte	.LASF30
 953 016f 07       		.byte	0x7
 954 0170 66       		.byte	0x66
 955 0171 70020000 		.4byte	0x270
 956 0175 02       		.byte	0x2
 957 0176 23       		.byte	0x23
 958 0177 10       		.uleb128 0x10
 959 0178 06       		.uleb128 0x6
 960 0179 74030000 		.4byte	.LASF31
 961 017d 07       		.byte	0x7
 962 017e 67       		.byte	0x67
 963 017f 70020000 		.4byte	0x270
 964 0183 02       		.byte	0x2
 965 0184 23       		.byte	0x23
 966 0185 14       		.uleb128 0x14
 967 0186 06       		.uleb128 0x6
 968 0187 B1050000 		.4byte	.LASF32
 969 018b 07       		.byte	0x7
 970 018c 6E       		.byte	0x6e
 971 018d EF030000 		.4byte	0x3ef
 972 0191 02       		.byte	0x2
 973 0192 23       		.byte	0x23
 974 0193 18       		.uleb128 0x18
 975 0194 06       		.uleb128 0x6
 976 0195 44040000 		.4byte	.LASF33
 977 0199 07       		.byte	0x7
 978 019a 79       		.byte	0x79
 979 019b CE000000 		.4byte	0xce
 980 019f 02       		.byte	0x2
 981 01a0 23       		.byte	0x23
 982 01a1 1C       		.uleb128 0x1c
 983 01a2 06       		.uleb128 0x6
 984 01a3 85040000 		.4byte	.LASF34
 985 01a7 07       		.byte	0x7
 986 01a8 7D       		.byte	0x7d
 987 01a9 C3000000 		.4byte	0xc3
 988 01ad 02       		.byte	0x2
 989 01ae 23       		.byte	0x23
 990 01af 1D       		.uleb128 0x1d
 991 01b0 06       		.uleb128 0x6
 992 01b1 B8050000 		.4byte	.LASF35
 993 01b5 07       		.byte	0x7
 994 01b6 82       		.byte	0x82
 995 01b7 D9000000 		.4byte	0xd9
 996 01bb 02       		.byte	0x2
 997 01bc 23       		.byte	0x23
 998 01bd 1E       		.uleb128 0x1e
 999 01be 06       		.uleb128 0x6
ARM GAS  C:\Users\DNIEL~1\AppData\Local\Temp\ccMkT0BQ.s 			page 19


 1000 01bf 4C040000 		.4byte	.LASF36
 1001 01c3 07       		.byte	0x7
 1002 01c4 88       		.byte	0x88
 1003 01c5 E4000000 		.4byte	0xe4
 1004 01c9 02       		.byte	0x2
 1005 01ca 23       		.byte	0x23
 1006 01cb 1F       		.uleb128 0x1f
 1007 01cc 06       		.uleb128 0x6
 1008 01cd 56010000 		.4byte	.LASF37
 1009 01d1 07       		.byte	0x7
 1010 01d2 8F       		.byte	0x8f
 1011 01d3 6D030000 		.4byte	0x36d
 1012 01d7 02       		.byte	0x2
 1013 01d8 23       		.byte	0x23
 1014 01d9 20       		.uleb128 0x20
 1015 01da 07       		.uleb128 0x7
 1016 01db 705F7500 		.ascii	"p_u\000"
 1017 01df 07       		.byte	0x7
 1018 01e0 B4       		.byte	0xb4
 1019 01e1 BA030000 		.4byte	0x3ba
 1020 01e5 02       		.byte	0x2
 1021 01e6 23       		.byte	0x23
 1022 01e7 24       		.uleb128 0x24
 1023 01e8 06       		.uleb128 0x6
 1024 01e9 86060000 		.4byte	.LASF38
 1025 01ed 07       		.byte	0x7
 1026 01ee B9       		.byte	0xb9
 1027 01ef 98020000 		.4byte	0x298
 1028 01f3 02       		.byte	0x2
 1029 01f4 23       		.byte	0x23
 1030 01f5 28       		.uleb128 0x28
 1031 01f6 06       		.uleb128 0x6
 1032 01f7 32020000 		.4byte	.LASF39
 1033 01fb 07       		.byte	0x7
 1034 01fc BF       		.byte	0xbf
 1035 01fd 76020000 		.4byte	0x276
 1036 0201 02       		.byte	0x2
 1037 0202 23       		.byte	0x23
 1038 0203 2C       		.uleb128 0x2c
 1039 0204 06       		.uleb128 0x6
 1040 0205 6D060000 		.4byte	.LASF40
 1041 0209 07       		.byte	0x7
 1042 020a C3       		.byte	0xc3
 1043 020b FA000000 		.4byte	0xfa
 1044 020f 02       		.byte	0x2
 1045 0210 23       		.byte	0x23
 1046 0211 34       		.uleb128 0x34
 1047 0212 06       		.uleb128 0x6
 1048 0213 C2040000 		.4byte	.LASF41
 1049 0217 07       		.byte	0x7
 1050 0218 C9       		.byte	0xc9
 1051 0219 05010000 		.4byte	0x105
 1052 021d 02       		.byte	0x2
 1053 021e 23       		.byte	0x23
 1054 021f 38       		.uleb128 0x38
 1055 0220 06       		.uleb128 0x6
 1056 0221 30040000 		.4byte	.LASF42
ARM GAS  C:\Users\DNIEL~1\AppData\Local\Temp\ccMkT0BQ.s 			page 20


 1057 0225 07       		.byte	0x7
 1058 0226 D0       		.byte	0xd0
 1059 0227 01040000 		.4byte	0x401
 1060 022b 02       		.byte	0x2
 1061 022c 23       		.byte	0x23
 1062 022d 3C       		.uleb128 0x3c
 1063 022e 06       		.uleb128 0x6
 1064 022f 57050000 		.4byte	.LASF43
 1065 0233 07       		.byte	0x7
 1066 0234 D4       		.byte	0xd4
 1067 0235 EF000000 		.4byte	0xef
 1068 0239 02       		.byte	0x2
 1069 023a 23       		.byte	0x23
 1070 023b 40       		.uleb128 0x40
 1071 023c 06       		.uleb128 0x6
 1072 023d CA000000 		.4byte	.LASF44
 1073 0241 07       		.byte	0x7
 1074 0242 DA       		.byte	0xda
 1075 0243 AE020000 		.4byte	0x2ae
 1076 0247 02       		.byte	0x2
 1077 0248 23       		.byte	0x23
 1078 0249 44       		.uleb128 0x44
 1079 024a 00       		.byte	0
 1080 024b 08       		.uleb128 0x8
 1081 024c 08       		.byte	0x8
 1082 024d 06       		.byte	0x6
 1083 024e 61       		.byte	0x61
 1084 024f 70020000 		.4byte	0x270
 1085 0253 06       		.uleb128 0x6
 1086 0254 66040000 		.4byte	.LASF26
 1087 0258 06       		.byte	0x6
 1088 0259 62       		.byte	0x62
 1089 025a 70020000 		.4byte	0x270
 1090 025e 02       		.byte	0x2
 1091 025f 23       		.byte	0x23
 1092 0260 00       		.uleb128 0
 1093 0261 06       		.uleb128 0x6
 1094 0262 CD030000 		.4byte	.LASF27
 1095 0266 06       		.byte	0x6
 1096 0267 64       		.byte	0x64
 1097 0268 70020000 		.4byte	0x270
 1098 026c 02       		.byte	0x2
 1099 026d 23       		.byte	0x23
 1100 026e 04       		.uleb128 0x4
 1101 026f 00       		.byte	0
 1102 0270 09       		.uleb128 0x9
 1103 0271 04       		.byte	0x4
 1104 0272 1B010000 		.4byte	0x11b
 1105 0276 03       		.uleb128 0x3
 1106 0277 7C030000 		.4byte	.LASF45
 1107 027b 06       		.byte	0x6
 1108 027c 66       		.byte	0x66
 1109 027d 4B020000 		.4byte	0x24b
 1110 0281 08       		.uleb128 0x8
 1111 0282 04       		.byte	0x4
 1112 0283 06       		.byte	0x6
 1113 0284 6B       		.byte	0x6b
ARM GAS  C:\Users\DNIEL~1\AppData\Local\Temp\ccMkT0BQ.s 			page 21


 1114 0285 98020000 		.4byte	0x298
 1115 0289 06       		.uleb128 0x6
 1116 028a 66040000 		.4byte	.LASF26
 1117 028e 06       		.byte	0x6
 1118 028f 6D       		.byte	0x6d
 1119 0290 70020000 		.4byte	0x270
 1120 0294 02       		.byte	0x2
 1121 0295 23       		.byte	0x23
 1122 0296 00       		.uleb128 0
 1123 0297 00       		.byte	0
 1124 0298 03       		.uleb128 0x3
 1125 0299 B4020000 		.4byte	.LASF46
 1126 029d 06       		.byte	0x6
 1127 029e 70       		.byte	0x70
 1128 029f 81020000 		.4byte	0x281
 1129 02a3 03       		.uleb128 0x3
 1130 02a4 A7010000 		.4byte	.LASF47
 1131 02a8 08       		.byte	0x8
 1132 02a9 E5       		.byte	0xe5
 1133 02aa AE020000 		.4byte	0x2ae
 1134 02ae 0A       		.uleb128 0xa
 1135 02af 04       		.byte	0x4
 1136 02b0 0B       		.uleb128 0xb
 1137 02b1 87050000 		.4byte	.LASF48
 1138 02b5 24       		.byte	0x24
 1139 02b6 08       		.byte	0x8
 1140 02b7 0C01     		.2byte	0x10c
 1141 02b9 3E030000 		.4byte	0x33e
 1142 02bd 0C       		.uleb128 0xc
 1143 02be 723400   		.ascii	"r4\000"
 1144 02c1 08       		.byte	0x8
 1145 02c2 1F01     		.2byte	0x11f
 1146 02c4 A3020000 		.4byte	0x2a3
 1147 02c8 02       		.byte	0x2
 1148 02c9 23       		.byte	0x23
 1149 02ca 00       		.uleb128 0
 1150 02cb 0C       		.uleb128 0xc
 1151 02cc 723500   		.ascii	"r5\000"
 1152 02cf 08       		.byte	0x8
 1153 02d0 2001     		.2byte	0x120
 1154 02d2 A3020000 		.4byte	0x2a3
 1155 02d6 02       		.byte	0x2
 1156 02d7 23       		.byte	0x23
 1157 02d8 04       		.uleb128 0x4
 1158 02d9 0C       		.uleb128 0xc
 1159 02da 723600   		.ascii	"r6\000"
 1160 02dd 08       		.byte	0x8
 1161 02de 2101     		.2byte	0x121
 1162 02e0 A3020000 		.4byte	0x2a3
 1163 02e4 02       		.byte	0x2
 1164 02e5 23       		.byte	0x23
 1165 02e6 08       		.uleb128 0x8
 1166 02e7 0C       		.uleb128 0xc
 1167 02e8 723700   		.ascii	"r7\000"
 1168 02eb 08       		.byte	0x8
 1169 02ec 2201     		.2byte	0x122
 1170 02ee A3020000 		.4byte	0x2a3
ARM GAS  C:\Users\DNIEL~1\AppData\Local\Temp\ccMkT0BQ.s 			page 22


 1171 02f2 02       		.byte	0x2
 1172 02f3 23       		.byte	0x23
 1173 02f4 0C       		.uleb128 0xc
 1174 02f5 0C       		.uleb128 0xc
 1175 02f6 723800   		.ascii	"r8\000"
 1176 02f9 08       		.byte	0x8
 1177 02fa 2301     		.2byte	0x123
 1178 02fc A3020000 		.4byte	0x2a3
 1179 0300 02       		.byte	0x2
 1180 0301 23       		.byte	0x23
 1181 0302 10       		.uleb128 0x10
 1182 0303 0C       		.uleb128 0xc
 1183 0304 723900   		.ascii	"r9\000"
 1184 0307 08       		.byte	0x8
 1185 0308 2401     		.2byte	0x124
 1186 030a A3020000 		.4byte	0x2a3
 1187 030e 02       		.byte	0x2
 1188 030f 23       		.byte	0x23
 1189 0310 14       		.uleb128 0x14
 1190 0311 0C       		.uleb128 0xc
 1191 0312 72313000 		.ascii	"r10\000"
 1192 0316 08       		.byte	0x8
 1193 0317 2501     		.2byte	0x125
 1194 0319 A3020000 		.4byte	0x2a3
 1195 031d 02       		.byte	0x2
 1196 031e 23       		.byte	0x23
 1197 031f 18       		.uleb128 0x18
 1198 0320 0C       		.uleb128 0xc
 1199 0321 72313100 		.ascii	"r11\000"
 1200 0325 08       		.byte	0x8
 1201 0326 2601     		.2byte	0x126
 1202 0328 A3020000 		.4byte	0x2a3
 1203 032c 02       		.byte	0x2
 1204 032d 23       		.byte	0x23
 1205 032e 1C       		.uleb128 0x1c
 1206 032f 0C       		.uleb128 0xc
 1207 0330 6C7200   		.ascii	"lr\000"
 1208 0333 08       		.byte	0x8
 1209 0334 2701     		.2byte	0x127
 1210 0336 A3020000 		.4byte	0x2a3
 1211 033a 02       		.byte	0x2
 1212 033b 23       		.byte	0x23
 1213 033c 20       		.uleb128 0x20
 1214 033d 00       		.byte	0
 1215 033e 0B       		.uleb128 0xb
 1216 033f 7F050000 		.4byte	.LASF49
 1217 0343 04       		.byte	0x4
 1218 0344 08       		.byte	0x8
 1219 0345 3101     		.2byte	0x131
 1220 0347 5B030000 		.4byte	0x35b
 1221 034b 0C       		.uleb128 0xc
 1222 034c 72313300 		.ascii	"r13\000"
 1223 0350 08       		.byte	0x8
 1224 0351 3201     		.2byte	0x132
 1225 0353 5B030000 		.4byte	0x35b
 1226 0357 02       		.byte	0x2
 1227 0358 23       		.byte	0x23
ARM GAS  C:\Users\DNIEL~1\AppData\Local\Temp\ccMkT0BQ.s 			page 23


 1228 0359 00       		.uleb128 0
 1229 035a 00       		.byte	0
 1230 035b 09       		.uleb128 0x9
 1231 035c 04       		.byte	0x4
 1232 035d B0020000 		.4byte	0x2b0
 1233 0361 0D       		.uleb128 0xd
 1234 0362 91000000 		.4byte	0x91
 1235 0366 04       		.uleb128 0x4
 1236 0367 04       		.byte	0x4
 1237 0368 07       		.byte	0x7
 1238 0369 F9020000 		.4byte	.LASF50
 1239 036d 0D       		.uleb128 0xd
 1240 036e 10010000 		.4byte	0x110
 1241 0372 05       		.uleb128 0x5
 1242 0373 02030000 		.4byte	.LASF51
 1243 0377 10       		.byte	0x10
 1244 0378 09       		.byte	0x9
 1245 0379 2C       		.byte	0x2c
 1246 037a A9030000 		.4byte	0x3a9
 1247 037e 06       		.uleb128 0x6
 1248 037f 1B040000 		.4byte	.LASF52
 1249 0383 09       		.byte	0x9
 1250 0384 2D       		.byte	0x2d
 1251 0385 76020000 		.4byte	0x276
 1252 0389 02       		.byte	0x2
 1253 038a 23       		.byte	0x23
 1254 038b 00       		.uleb128 0
 1255 038c 06       		.uleb128 0x6
 1256 038d 78060000 		.4byte	.LASF53
 1257 0391 09       		.byte	0x9
 1258 0392 2F       		.byte	0x2f
 1259 0393 70020000 		.4byte	0x270
 1260 0397 02       		.byte	0x2
 1261 0398 23       		.byte	0x23
 1262 0399 08       		.uleb128 0x8
 1263 039a 06       		.uleb128 0x6
 1264 039b 95030000 		.4byte	.LASF54
 1265 039f 09       		.byte	0x9
 1266 03a0 31       		.byte	0x31
 1267 03a1 A9030000 		.4byte	0x3a9
 1268 03a5 02       		.byte	0x2
 1269 03a6 23       		.byte	0x23
 1270 03a7 0C       		.uleb128 0xc
 1271 03a8 00       		.byte	0
 1272 03a9 09       		.uleb128 0x9
 1273 03aa 04       		.byte	0x4
 1274 03ab 72030000 		.4byte	0x372
 1275 03af 03       		.uleb128 0x3
 1276 03b0 02030000 		.4byte	.LASF51
 1277 03b4 09       		.byte	0x9
 1278 03b5 33       		.byte	0x33
 1279 03b6 72030000 		.4byte	0x372
 1280 03ba 0E       		.uleb128 0xe
 1281 03bb 04       		.byte	0x4
 1282 03bc 07       		.byte	0x7
 1283 03bd 96       		.byte	0x96
 1284 03be EF030000 		.4byte	0x3ef
ARM GAS  C:\Users\DNIEL~1\AppData\Local\Temp\ccMkT0BQ.s 			page 24


 1285 03c2 0F       		.uleb128 0xf
 1286 03c3 0C000000 		.4byte	.LASF55
 1287 03c7 07       		.byte	0x7
 1288 03c8 9D       		.byte	0x9d
 1289 03c9 FA000000 		.4byte	0xfa
 1290 03cd 0F       		.uleb128 0xf
 1291 03ce 62000000 		.4byte	.LASF56
 1292 03d2 07       		.byte	0x7
 1293 03d3 A4       		.byte	0xa4
 1294 03d4 FA000000 		.4byte	0xfa
 1295 03d8 0F       		.uleb128 0xf
 1296 03d9 41060000 		.4byte	.LASF57
 1297 03dd 07       		.byte	0x7
 1298 03de AB       		.byte	0xab
 1299 03df AE020000 		.4byte	0x2ae
 1300 03e3 0F       		.uleb128 0xf
 1301 03e4 5F040000 		.4byte	.LASF58
 1302 03e8 07       		.byte	0x7
 1303 03e9 B2       		.byte	0xb2
 1304 03ea 05010000 		.4byte	0x105
 1305 03ee 00       		.byte	0
 1306 03ef 09       		.uleb128 0x9
 1307 03f0 04       		.byte	0x4
 1308 03f1 F5030000 		.4byte	0x3f5
 1309 03f5 10       		.uleb128 0x10
 1310 03f6 FA030000 		.4byte	0x3fa
 1311 03fa 04       		.uleb128 0x4
 1312 03fb 01       		.byte	0x1
 1313 03fc 08       		.byte	0x8
 1314 03fd 08050000 		.4byte	.LASF59
 1315 0401 09       		.uleb128 0x9
 1316 0402 04       		.byte	0x4
 1317 0403 AF030000 		.4byte	0x3af
 1318 0407 09       		.uleb128 0x9
 1319 0408 04       		.byte	0x4
 1320 0409 0D040000 		.4byte	0x40d
 1321 040d 11       		.uleb128 0x11
 1322 040e 01       		.byte	0x1
 1323 040f FA000000 		.4byte	0xfa
 1324 0413 1D040000 		.4byte	0x41d
 1325 0417 12       		.uleb128 0x12
 1326 0418 AE020000 		.4byte	0x2ae
 1327 041c 00       		.byte	0
 1328 041d 09       		.uleb128 0x9
 1329 041e 04       		.byte	0x4
 1330 041f 49000000 		.4byte	0x49
 1331 0423 05       		.uleb128 0x5
 1332 0424 6D040000 		.4byte	.LASF60
 1333 0428 10       		.byte	0x10
 1334 0429 0A       		.byte	0xa
 1335 042a 48       		.byte	0x48
 1336 042b 68040000 		.4byte	0x468
 1337 042f 06       		.uleb128 0x6
 1338 0430 D5020000 		.4byte	.LASF61
 1339 0434 0A       		.byte	0xa
 1340 0435 49       		.byte	0x49
 1341 0436 8D040000 		.4byte	0x48d
ARM GAS  C:\Users\DNIEL~1\AppData\Local\Temp\ccMkT0BQ.s 			page 25


 1342 043a 02       		.byte	0x2
 1343 043b 23       		.byte	0x23
 1344 043c 00       		.uleb128 0
 1345 043d 06       		.uleb128 0x6
 1346 043e 03050000 		.4byte	.LASF62
 1347 0442 0A       		.byte	0xa
 1348 0443 49       		.byte	0x49
 1349 0444 AD040000 		.4byte	0x4ad
 1350 0448 02       		.byte	0x2
 1351 0449 23       		.byte	0x23
 1352 044a 04       		.uleb128 0x4
 1353 044b 07       		.uleb128 0x7
 1354 044c 70757400 		.ascii	"put\000"
 1355 0450 0A       		.byte	0xa
 1356 0451 49       		.byte	0x49
 1357 0452 C8040000 		.4byte	0x4c8
 1358 0456 02       		.byte	0x2
 1359 0457 23       		.byte	0x23
 1360 0458 08       		.uleb128 0x8
 1361 0459 07       		.uleb128 0x7
 1362 045a 67657400 		.ascii	"get\000"
 1363 045e 0A       		.byte	0xa
 1364 045f 49       		.byte	0x49
 1365 0460 07040000 		.4byte	0x407
 1366 0464 02       		.byte	0x2
 1367 0465 23       		.byte	0x23
 1368 0466 0C       		.uleb128 0xc
 1369 0467 00       		.byte	0
 1370 0468 11       		.uleb128 0x11
 1371 0469 01       		.byte	0x1
 1372 046a 30000000 		.4byte	0x30
 1373 046e 82040000 		.4byte	0x482
 1374 0472 12       		.uleb128 0x12
 1375 0473 AE020000 		.4byte	0x2ae
 1376 0477 12       		.uleb128 0x12
 1377 0478 82040000 		.4byte	0x482
 1378 047c 12       		.uleb128 0x12
 1379 047d 30000000 		.4byte	0x30
 1380 0481 00       		.byte	0
 1381 0482 09       		.uleb128 0x9
 1382 0483 04       		.byte	0x4
 1383 0484 88040000 		.4byte	0x488
 1384 0488 10       		.uleb128 0x10
 1385 0489 49000000 		.4byte	0x49
 1386 048d 09       		.uleb128 0x9
 1387 048e 04       		.byte	0x4
 1388 048f 68040000 		.4byte	0x468
 1389 0493 11       		.uleb128 0x11
 1390 0494 01       		.byte	0x1
 1391 0495 30000000 		.4byte	0x30
 1392 0499 AD040000 		.4byte	0x4ad
 1393 049d 12       		.uleb128 0x12
 1394 049e AE020000 		.4byte	0x2ae
 1395 04a2 12       		.uleb128 0x12
 1396 04a3 1D040000 		.4byte	0x41d
 1397 04a7 12       		.uleb128 0x12
 1398 04a8 30000000 		.4byte	0x30
ARM GAS  C:\Users\DNIEL~1\AppData\Local\Temp\ccMkT0BQ.s 			page 26


 1399 04ac 00       		.byte	0
 1400 04ad 09       		.uleb128 0x9
 1401 04ae 04       		.byte	0x4
 1402 04af 93040000 		.4byte	0x493
 1403 04b3 11       		.uleb128 0x11
 1404 04b4 01       		.byte	0x1
 1405 04b5 FA000000 		.4byte	0xfa
 1406 04b9 C8040000 		.4byte	0x4c8
 1407 04bd 12       		.uleb128 0x12
 1408 04be AE020000 		.4byte	0x2ae
 1409 04c2 12       		.uleb128 0x12
 1410 04c3 49000000 		.4byte	0x49
 1411 04c7 00       		.byte	0
 1412 04c8 09       		.uleb128 0x9
 1413 04c9 04       		.byte	0x4
 1414 04ca B3040000 		.4byte	0x4b3
 1415 04ce 08       		.uleb128 0x8
 1416 04cf 04       		.byte	0x4
 1417 04d0 0A       		.byte	0xa
 1418 04d1 51       		.byte	0x51
 1419 04d2 E5040000 		.4byte	0x4e5
 1420 04d6 07       		.uleb128 0x7
 1421 04d7 766D7400 		.ascii	"vmt\000"
 1422 04db 0A       		.byte	0xa
 1423 04dc 53       		.byte	0x53
 1424 04dd E5040000 		.4byte	0x4e5
 1425 04e1 02       		.byte	0x2
 1426 04e2 23       		.byte	0x23
 1427 04e3 00       		.uleb128 0
 1428 04e4 00       		.byte	0
 1429 04e5 09       		.uleb128 0x9
 1430 04e6 04       		.byte	0x4
 1431 04e7 EB040000 		.4byte	0x4eb
 1432 04eb 10       		.uleb128 0x10
 1433 04ec 23040000 		.4byte	0x423
 1434 04f0 03       		.uleb128 0x3
 1435 04f1 E8010000 		.4byte	.LASF63
 1436 04f5 0A       		.byte	0xa
 1437 04f6 55       		.byte	0x55
 1438 04f7 CE040000 		.4byte	0x4ce
 1439 04fb 0D       		.uleb128 0xd
 1440 04fc 7F000000 		.4byte	0x7f
 1441 0500 13       		.uleb128 0x13
 1442 0501 50       		.byte	0x50
 1443 0502 0B       		.byte	0xb
 1444 0503 0A02     		.2byte	0x20a
 1445 0505 34060000 		.4byte	0x634
 1446 0509 0C       		.uleb128 0xc
 1447 050a 535200   		.ascii	"SR\000"
 1448 050d 0B       		.byte	0xb
 1449 050e 0C02     		.2byte	0x20c
 1450 0510 61030000 		.4byte	0x361
 1451 0514 02       		.byte	0x2
 1452 0515 23       		.byte	0x23
 1453 0516 00       		.uleb128 0
 1454 0517 0C       		.uleb128 0xc
 1455 0518 43523100 		.ascii	"CR1\000"
ARM GAS  C:\Users\DNIEL~1\AppData\Local\Temp\ccMkT0BQ.s 			page 27


 1456 051c 0B       		.byte	0xb
 1457 051d 0D02     		.2byte	0x20d
 1458 051f 61030000 		.4byte	0x361
 1459 0523 02       		.byte	0x2
 1460 0524 23       		.byte	0x23
 1461 0525 04       		.uleb128 0x4
 1462 0526 0C       		.uleb128 0xc
 1463 0527 43523200 		.ascii	"CR2\000"
 1464 052b 0B       		.byte	0xb
 1465 052c 0E02     		.2byte	0x20e
 1466 052e 61030000 		.4byte	0x361
 1467 0532 02       		.byte	0x2
 1468 0533 23       		.byte	0x23
 1469 0534 08       		.uleb128 0x8
 1470 0535 14       		.uleb128 0x14
 1471 0536 89030000 		.4byte	.LASF64
 1472 053a 0B       		.byte	0xb
 1473 053b 0F02     		.2byte	0x20f
 1474 053d 61030000 		.4byte	0x361
 1475 0541 02       		.byte	0x2
 1476 0542 23       		.byte	0x23
 1477 0543 0C       		.uleb128 0xc
 1478 0544 14       		.uleb128 0x14
 1479 0545 8F030000 		.4byte	.LASF65
 1480 0549 0B       		.byte	0xb
 1481 054a 1002     		.2byte	0x210
 1482 054c 61030000 		.4byte	0x361
 1483 0550 02       		.byte	0x2
 1484 0551 23       		.byte	0x23
 1485 0552 10       		.uleb128 0x10
 1486 0553 14       		.uleb128 0x14
 1487 0554 F6050000 		.4byte	.LASF66
 1488 0558 0B       		.byte	0xb
 1489 0559 1102     		.2byte	0x211
 1490 055b 61030000 		.4byte	0x361
 1491 055f 02       		.byte	0x2
 1492 0560 23       		.byte	0x23
 1493 0561 14       		.uleb128 0x14
 1494 0562 14       		.uleb128 0x14
 1495 0563 E5020000 		.4byte	.LASF67
 1496 0567 0B       		.byte	0xb
 1497 0568 1202     		.2byte	0x212
 1498 056a 61030000 		.4byte	0x361
 1499 056e 02       		.byte	0x2
 1500 056f 23       		.byte	0x23
 1501 0570 18       		.uleb128 0x18
 1502 0571 14       		.uleb128 0x14
 1503 0572 EB020000 		.4byte	.LASF68
 1504 0576 0B       		.byte	0xb
 1505 0577 1302     		.2byte	0x213
 1506 0579 61030000 		.4byte	0x361
 1507 057d 02       		.byte	0x2
 1508 057e 23       		.byte	0x23
 1509 057f 1C       		.uleb128 0x1c
 1510 0580 14       		.uleb128 0x14
 1511 0581 98040000 		.4byte	.LASF69
 1512 0585 0B       		.byte	0xb
ARM GAS  C:\Users\DNIEL~1\AppData\Local\Temp\ccMkT0BQ.s 			page 28


 1513 0586 1402     		.2byte	0x214
 1514 0588 61030000 		.4byte	0x361
 1515 058c 02       		.byte	0x2
 1516 058d 23       		.byte	0x23
 1517 058e 20       		.uleb128 0x20
 1518 058f 0C       		.uleb128 0xc
 1519 0590 48545200 		.ascii	"HTR\000"
 1520 0594 0B       		.byte	0xb
 1521 0595 1502     		.2byte	0x215
 1522 0597 61030000 		.4byte	0x361
 1523 059b 02       		.byte	0x2
 1524 059c 23       		.byte	0x23
 1525 059d 24       		.uleb128 0x24
 1526 059e 0C       		.uleb128 0xc
 1527 059f 4C545200 		.ascii	"LTR\000"
 1528 05a3 0B       		.byte	0xb
 1529 05a4 1602     		.2byte	0x216
 1530 05a6 61030000 		.4byte	0x361
 1531 05aa 02       		.byte	0x2
 1532 05ab 23       		.byte	0x23
 1533 05ac 28       		.uleb128 0x28
 1534 05ad 14       		.uleb128 0x14
 1535 05ae 9C030000 		.4byte	.LASF70
 1536 05b2 0B       		.byte	0xb
 1537 05b3 1702     		.2byte	0x217
 1538 05b5 61030000 		.4byte	0x361
 1539 05b9 02       		.byte	0x2
 1540 05ba 23       		.byte	0x23
 1541 05bb 2C       		.uleb128 0x2c
 1542 05bc 14       		.uleb128 0x14
 1543 05bd A1030000 		.4byte	.LASF71
 1544 05c1 0B       		.byte	0xb
 1545 05c2 1802     		.2byte	0x218
 1546 05c4 61030000 		.4byte	0x361
 1547 05c8 02       		.byte	0x2
 1548 05c9 23       		.byte	0x23
 1549 05ca 30       		.uleb128 0x30
 1550 05cb 14       		.uleb128 0x14
 1551 05cc A6030000 		.4byte	.LASF72
 1552 05d0 0B       		.byte	0xb
 1553 05d1 1902     		.2byte	0x219
 1554 05d3 61030000 		.4byte	0x361
 1555 05d7 02       		.byte	0x2
 1556 05d8 23       		.byte	0x23
 1557 05d9 34       		.uleb128 0x34
 1558 05da 14       		.uleb128 0x14
 1559 05db A3000000 		.4byte	.LASF73
 1560 05df 0B       		.byte	0xb
 1561 05e0 1A02     		.2byte	0x21a
 1562 05e2 61030000 		.4byte	0x361
 1563 05e6 02       		.byte	0x2
 1564 05e7 23       		.byte	0x23
 1565 05e8 38       		.uleb128 0x38
 1566 05e9 14       		.uleb128 0x14
 1567 05ea 2D060000 		.4byte	.LASF74
 1568 05ee 0B       		.byte	0xb
 1569 05ef 1B02     		.2byte	0x21b
ARM GAS  C:\Users\DNIEL~1\AppData\Local\Temp\ccMkT0BQ.s 			page 29


 1570 05f1 61030000 		.4byte	0x361
 1571 05f5 02       		.byte	0x2
 1572 05f6 23       		.byte	0x23
 1573 05f7 3C       		.uleb128 0x3c
 1574 05f8 14       		.uleb128 0x14
 1575 05f9 32060000 		.4byte	.LASF75
 1576 05fd 0B       		.byte	0xb
 1577 05fe 1C02     		.2byte	0x21c
 1578 0600 61030000 		.4byte	0x361
 1579 0604 02       		.byte	0x2
 1580 0605 23       		.byte	0x23
 1581 0606 40       		.uleb128 0x40
 1582 0607 14       		.uleb128 0x14
 1583 0608 37060000 		.4byte	.LASF76
 1584 060c 0B       		.byte	0xb
 1585 060d 1D02     		.2byte	0x21d
 1586 060f 61030000 		.4byte	0x361
 1587 0613 02       		.byte	0x2
 1588 0614 23       		.byte	0x23
 1589 0615 44       		.uleb128 0x44
 1590 0616 14       		.uleb128 0x14
 1591 0617 3C060000 		.4byte	.LASF77
 1592 061b 0B       		.byte	0xb
 1593 061c 1E02     		.2byte	0x21e
 1594 061e 61030000 		.4byte	0x361
 1595 0622 02       		.byte	0x2
 1596 0623 23       		.byte	0x23
 1597 0624 48       		.uleb128 0x48
 1598 0625 0C       		.uleb128 0xc
 1599 0626 445200   		.ascii	"DR\000"
 1600 0629 0B       		.byte	0xb
 1601 062a 1F02     		.2byte	0x21f
 1602 062c 61030000 		.4byte	0x361
 1603 0630 02       		.byte	0x2
 1604 0631 23       		.byte	0x23
 1605 0632 4C       		.uleb128 0x4c
 1606 0633 00       		.byte	0
 1607 0634 15       		.uleb128 0x15
 1608 0635 5D010000 		.4byte	.LASF78
 1609 0639 0B       		.byte	0xb
 1610 063a 2002     		.2byte	0x220
 1611 063c 00050000 		.4byte	0x500
 1612 0640 13       		.uleb128 0x13
 1613 0641 18       		.byte	0x18
 1614 0642 0B       		.byte	0xb
 1615 0643 B102     		.2byte	0x2b1
 1616 0645 A3060000 		.4byte	0x6a3
 1617 0649 0C       		.uleb128 0xc
 1618 064a 435200   		.ascii	"CR\000"
 1619 064d 0B       		.byte	0xb
 1620 064e B302     		.2byte	0x2b3
 1621 0650 61030000 		.4byte	0x361
 1622 0654 02       		.byte	0x2
 1623 0655 23       		.byte	0x23
 1624 0656 00       		.uleb128 0
 1625 0657 14       		.uleb128 0x14
 1626 0658 62050000 		.4byte	.LASF79
ARM GAS  C:\Users\DNIEL~1\AppData\Local\Temp\ccMkT0BQ.s 			page 30


 1627 065c 0B       		.byte	0xb
 1628 065d B402     		.2byte	0x2b4
 1629 065f 61030000 		.4byte	0x361
 1630 0663 02       		.byte	0x2
 1631 0664 23       		.byte	0x23
 1632 0665 04       		.uleb128 0x4
 1633 0666 0C       		.uleb128 0xc
 1634 0667 50415200 		.ascii	"PAR\000"
 1635 066b 0B       		.byte	0xb
 1636 066c B502     		.2byte	0x2b5
 1637 066e 61030000 		.4byte	0x361
 1638 0672 02       		.byte	0x2
 1639 0673 23       		.byte	0x23
 1640 0674 08       		.uleb128 0x8
 1641 0675 14       		.uleb128 0x14
 1642 0676 00000000 		.4byte	.LASF80
 1643 067a 0B       		.byte	0xb
 1644 067b B602     		.2byte	0x2b6
 1645 067d 61030000 		.4byte	0x361
 1646 0681 02       		.byte	0x2
 1647 0682 23       		.byte	0x23
 1648 0683 0C       		.uleb128 0xc
 1649 0684 14       		.uleb128 0x14
 1650 0685 8E050000 		.4byte	.LASF81
 1651 0689 0B       		.byte	0xb
 1652 068a B702     		.2byte	0x2b7
 1653 068c 61030000 		.4byte	0x361
 1654 0690 02       		.byte	0x2
 1655 0691 23       		.byte	0x23
 1656 0692 10       		.uleb128 0x10
 1657 0693 0C       		.uleb128 0xc
 1658 0694 46435200 		.ascii	"FCR\000"
 1659 0698 0B       		.byte	0xb
 1660 0699 B802     		.2byte	0x2b8
 1661 069b 61030000 		.4byte	0x361
 1662 069f 02       		.byte	0x2
 1663 06a0 23       		.byte	0x23
 1664 06a1 14       		.uleb128 0x14
 1665 06a2 00       		.byte	0
 1666 06a3 15       		.uleb128 0x15
 1667 06a4 67050000 		.4byte	.LASF82
 1668 06a8 0B       		.byte	0xb
 1669 06a9 B902     		.2byte	0x2b9
 1670 06ab 40060000 		.4byte	0x640
 1671 06af 08       		.uleb128 0x8
 1672 06b0 0C       		.byte	0xc
 1673 06b1 0C       		.byte	0xc
 1674 06b2 DA       		.byte	0xda
 1675 06b3 FE060000 		.4byte	0x6fe
 1676 06b7 06       		.uleb128 0x6
 1677 06b8 35000000 		.4byte	.LASF83
 1678 06bc 0C       		.byte	0xc
 1679 06bd DB       		.byte	0xdb
 1680 06be FE060000 		.4byte	0x6fe
 1681 06c2 02       		.byte	0x2
 1682 06c3 23       		.byte	0x23
 1683 06c4 00       		.uleb128 0
ARM GAS  C:\Users\DNIEL~1\AppData\Local\Temp\ccMkT0BQ.s 			page 31


 1684 06c5 06       		.uleb128 0x6
 1685 06c6 CD040000 		.4byte	.LASF84
 1686 06ca 0C       		.byte	0xc
 1687 06cb DC       		.byte	0xdc
 1688 06cc 04070000 		.4byte	0x704
 1689 06d0 02       		.byte	0x2
 1690 06d1 23       		.byte	0x23
 1691 06d2 04       		.uleb128 0x4
 1692 06d3 06       		.uleb128 0x6
 1693 06d4 51020000 		.4byte	.LASF85
 1694 06d8 0C       		.byte	0xc
 1695 06d9 DD       		.byte	0xdd
 1696 06da 49000000 		.4byte	0x49
 1697 06de 02       		.byte	0x2
 1698 06df 23       		.byte	0x23
 1699 06e0 08       		.uleb128 0x8
 1700 06e1 06       		.uleb128 0x6
 1701 06e2 B0010000 		.4byte	.LASF86
 1702 06e6 0C       		.byte	0xc
 1703 06e7 DF       		.byte	0xdf
 1704 06e8 49000000 		.4byte	0x49
 1705 06ec 02       		.byte	0x2
 1706 06ed 23       		.byte	0x23
 1707 06ee 09       		.uleb128 0x9
 1708 06ef 06       		.uleb128 0x6
 1709 06f0 26000000 		.4byte	.LASF87
 1710 06f4 0C       		.byte	0xc
 1711 06f5 E0       		.byte	0xe0
 1712 06f6 49000000 		.4byte	0x49
 1713 06fa 02       		.byte	0x2
 1714 06fb 23       		.byte	0x23
 1715 06fc 0A       		.uleb128 0xa
 1716 06fd 00       		.byte	0
 1717 06fe 09       		.uleb128 0x9
 1718 06ff 04       		.byte	0x4
 1719 0700 A3060000 		.4byte	0x6a3
 1720 0704 09       		.uleb128 0x9
 1721 0705 04       		.byte	0x4
 1722 0706 61030000 		.4byte	0x361
 1723 070a 03       		.uleb128 0x3
 1724 070b D4030000 		.4byte	.LASF88
 1725 070f 0C       		.byte	0xc
 1726 0710 E1       		.byte	0xe1
 1727 0711 AF060000 		.4byte	0x6af
 1728 0715 05       		.uleb128 0x5
 1729 0716 53000000 		.4byte	.LASF89
 1730 071a 20       		.byte	0x20
 1731 071b 0D       		.byte	0xd
 1732 071c 4E       		.byte	0x4e
 1733 071d 92070000 		.4byte	0x792
 1734 0721 06       		.uleb128 0x6
 1735 0722 D5020000 		.4byte	.LASF61
 1736 0726 0D       		.byte	0xd
 1737 0727 4F       		.byte	0x4f
 1738 0728 8D040000 		.4byte	0x48d
 1739 072c 02       		.byte	0x2
 1740 072d 23       		.byte	0x23
ARM GAS  C:\Users\DNIEL~1\AppData\Local\Temp\ccMkT0BQ.s 			page 32


 1741 072e 00       		.uleb128 0
 1742 072f 06       		.uleb128 0x6
 1743 0730 03050000 		.4byte	.LASF62
 1744 0734 0D       		.byte	0xd
 1745 0735 4F       		.byte	0x4f
 1746 0736 AD040000 		.4byte	0x4ad
 1747 073a 02       		.byte	0x2
 1748 073b 23       		.byte	0x23
 1749 073c 04       		.uleb128 0x4
 1750 073d 07       		.uleb128 0x7
 1751 073e 70757400 		.ascii	"put\000"
 1752 0742 0D       		.byte	0xd
 1753 0743 4F       		.byte	0x4f
 1754 0744 C8040000 		.4byte	0x4c8
 1755 0748 02       		.byte	0x2
 1756 0749 23       		.byte	0x23
 1757 074a 08       		.uleb128 0x8
 1758 074b 07       		.uleb128 0x7
 1759 074c 67657400 		.ascii	"get\000"
 1760 0750 0D       		.byte	0xd
 1761 0751 4F       		.byte	0x4f
 1762 0752 07040000 		.4byte	0x407
 1763 0756 02       		.byte	0x2
 1764 0757 23       		.byte	0x23
 1765 0758 0C       		.uleb128 0xc
 1766 0759 06       		.uleb128 0x6
 1767 075a E0020000 		.4byte	.LASF90
 1768 075e 0D       		.byte	0xd
 1769 075f 4F       		.byte	0x4f
 1770 0760 AC070000 		.4byte	0x7ac
 1771 0764 02       		.byte	0x2
 1772 0765 23       		.byte	0x23
 1773 0766 10       		.uleb128 0x10
 1774 0767 06       		.uleb128 0x6
 1775 0768 4C020000 		.4byte	.LASF91
 1776 076c 0D       		.byte	0xd
 1777 076d 4F       		.byte	0x4f
 1778 076e C7070000 		.4byte	0x7c7
 1779 0772 02       		.byte	0x2
 1780 0773 23       		.byte	0x23
 1781 0774 14       		.uleb128 0x14
 1782 0775 06       		.uleb128 0x6
 1783 0776 98020000 		.4byte	.LASF92
 1784 077a 0D       		.byte	0xd
 1785 077b 4F       		.byte	0x4f
 1786 077c EC070000 		.4byte	0x7ec
 1787 0780 02       		.byte	0x2
 1788 0781 23       		.byte	0x23
 1789 0782 18       		.uleb128 0x18
 1790 0783 06       		.uleb128 0x6
 1791 0784 9D000000 		.4byte	.LASF93
 1792 0788 0D       		.byte	0xd
 1793 0789 4F       		.byte	0x4f
 1794 078a 11080000 		.4byte	0x811
 1795 078e 02       		.byte	0x2
 1796 078f 23       		.byte	0x23
 1797 0790 1C       		.uleb128 0x1c
ARM GAS  C:\Users\DNIEL~1\AppData\Local\Temp\ccMkT0BQ.s 			page 33


 1798 0791 00       		.byte	0
 1799 0792 11       		.uleb128 0x11
 1800 0793 01       		.byte	0x1
 1801 0794 FA000000 		.4byte	0xfa
 1802 0798 AC070000 		.4byte	0x7ac
 1803 079c 12       		.uleb128 0x12
 1804 079d AE020000 		.4byte	0x2ae
 1805 07a1 12       		.uleb128 0x12
 1806 07a2 49000000 		.4byte	0x49
 1807 07a6 12       		.uleb128 0x12
 1808 07a7 10010000 		.4byte	0x110
 1809 07ab 00       		.byte	0
 1810 07ac 09       		.uleb128 0x9
 1811 07ad 04       		.byte	0x4
 1812 07ae 92070000 		.4byte	0x792
 1813 07b2 11       		.uleb128 0x11
 1814 07b3 01       		.byte	0x1
 1815 07b4 FA000000 		.4byte	0xfa
 1816 07b8 C7070000 		.4byte	0x7c7
 1817 07bc 12       		.uleb128 0x12
 1818 07bd AE020000 		.4byte	0x2ae
 1819 07c1 12       		.uleb128 0x12
 1820 07c2 10010000 		.4byte	0x110
 1821 07c6 00       		.byte	0
 1822 07c7 09       		.uleb128 0x9
 1823 07c8 04       		.byte	0x4
 1824 07c9 B2070000 		.4byte	0x7b2
 1825 07cd 11       		.uleb128 0x11
 1826 07ce 01       		.byte	0x1
 1827 07cf 30000000 		.4byte	0x30
 1828 07d3 EC070000 		.4byte	0x7ec
 1829 07d7 12       		.uleb128 0x12
 1830 07d8 AE020000 		.4byte	0x2ae
 1831 07dc 12       		.uleb128 0x12
 1832 07dd 82040000 		.4byte	0x482
 1833 07e1 12       		.uleb128 0x12
 1834 07e2 30000000 		.4byte	0x30
 1835 07e6 12       		.uleb128 0x12
 1836 07e7 10010000 		.4byte	0x110
 1837 07eb 00       		.byte	0
 1838 07ec 09       		.uleb128 0x9
 1839 07ed 04       		.byte	0x4
 1840 07ee CD070000 		.4byte	0x7cd
 1841 07f2 11       		.uleb128 0x11
 1842 07f3 01       		.byte	0x1
 1843 07f4 30000000 		.4byte	0x30
 1844 07f8 11080000 		.4byte	0x811
 1845 07fc 12       		.uleb128 0x12
 1846 07fd AE020000 		.4byte	0x2ae
 1847 0801 12       		.uleb128 0x12
 1848 0802 1D040000 		.4byte	0x41d
 1849 0806 12       		.uleb128 0x12
 1850 0807 30000000 		.4byte	0x30
 1851 080b 12       		.uleb128 0x12
 1852 080c 10010000 		.4byte	0x110
 1853 0810 00       		.byte	0
 1854 0811 09       		.uleb128 0x9
ARM GAS  C:\Users\DNIEL~1\AppData\Local\Temp\ccMkT0BQ.s 			page 34


 1855 0812 04       		.byte	0x4
 1856 0813 F2070000 		.4byte	0x7f2
 1857 0817 08       		.uleb128 0x8
 1858 0818 04       		.byte	0x4
 1859 0819 0D       		.byte	0xd
 1860 081a 59       		.byte	0x59
 1861 081b 2E080000 		.4byte	0x82e
 1862 081f 07       		.uleb128 0x7
 1863 0820 766D7400 		.ascii	"vmt\000"
 1864 0824 0D       		.byte	0xd
 1865 0825 5B       		.byte	0x5b
 1866 0826 2E080000 		.4byte	0x82e
 1867 082a 02       		.byte	0x2
 1868 082b 23       		.byte	0x23
 1869 082c 00       		.uleb128 0
 1870 082d 00       		.byte	0
 1871 082e 09       		.uleb128 0x9
 1872 082f 04       		.byte	0x4
 1873 0830 34080000 		.4byte	0x834
 1874 0834 10       		.uleb128 0x10
 1875 0835 15070000 		.4byte	0x715
 1876 0839 03       		.uleb128 0x3
 1877 083a 21060000 		.4byte	.LASF94
 1878 083e 0D       		.byte	0xd
 1879 083f 5D       		.byte	0x5d
 1880 0840 17080000 		.4byte	0x817
 1881 0844 16       		.uleb128 0x16
 1882 0845 01       		.byte	0x1
 1883 0846 0E       		.byte	0xe
 1884 0847 55       		.byte	0x55
 1885 0848 71080000 		.4byte	0x871
 1886 084c 17       		.uleb128 0x17
 1887 084d 6B000000 		.4byte	.LASF95
 1888 0851 00       		.sleb128 0
 1889 0852 17       		.uleb128 0x17
 1890 0853 22030000 		.4byte	.LASF96
 1891 0857 01       		.sleb128 1
 1892 0858 17       		.uleb128 0x17
 1893 0859 6B020000 		.4byte	.LASF97
 1894 085d 02       		.sleb128 2
 1895 085e 17       		.uleb128 0x17
 1896 085f 8D040000 		.4byte	.LASF98
 1897 0863 03       		.sleb128 3
 1898 0864 17       		.uleb128 0x17
 1899 0865 48060000 		.4byte	.LASF99
 1900 0869 04       		.sleb128 4
 1901 086a 17       		.uleb128 0x17
 1902 086b 93050000 		.4byte	.LASF100
 1903 086f 05       		.sleb128 5
 1904 0870 00       		.byte	0
 1905 0871 03       		.uleb128 0x3
 1906 0872 1B000000 		.4byte	.LASF101
 1907 0876 0E       		.byte	0xe
 1908 0877 5C       		.byte	0x5c
 1909 0878 44080000 		.4byte	0x844
 1910 087c 15       		.uleb128 0x15
 1911 087d 91010000 		.4byte	.LASF102
ARM GAS  C:\Users\DNIEL~1\AppData\Local\Temp\ccMkT0BQ.s 			page 35


 1912 0881 0F       		.byte	0xf
 1913 0882 2701     		.2byte	0x127
 1914 0884 6D000000 		.4byte	0x6d
 1915 0888 15       		.uleb128 0x15
 1916 0889 5A060000 		.4byte	.LASF103
 1917 088d 0F       		.byte	0xf
 1918 088e 2C01     		.2byte	0x12c
 1919 0890 6D000000 		.4byte	0x6d
 1920 0894 18       		.uleb128 0x18
 1921 0895 01       		.byte	0x1
 1922 0896 0F       		.byte	0xf
 1923 0897 3301     		.2byte	0x133
 1924 0899 AA080000 		.4byte	0x8aa
 1925 089d 17       		.uleb128 0x17
 1926 089e 0D010000 		.4byte	.LASF104
 1927 08a2 00       		.sleb128 0
 1928 08a3 17       		.uleb128 0x17
 1929 08a4 C6010000 		.4byte	.LASF105
 1930 08a8 01       		.sleb128 1
 1931 08a9 00       		.byte	0
 1932 08aa 15       		.uleb128 0x15
 1933 08ab E3000000 		.4byte	.LASF106
 1934 08af 0F       		.byte	0xf
 1935 08b0 3601     		.2byte	0x136
 1936 08b2 94080000 		.4byte	0x894
 1937 08b6 15       		.uleb128 0x15
 1938 08b7 3D020000 		.4byte	.LASF107
 1939 08bb 0F       		.byte	0xf
 1940 08bc 3B01     		.2byte	0x13b
 1941 08be C2080000 		.4byte	0x8c2
 1942 08c2 0B       		.uleb128 0xb
 1943 08c3 3D020000 		.4byte	.LASF107
 1944 08c7 34       		.byte	0x34
 1945 08c8 0F       		.byte	0xf
 1946 08c9 9F01     		.2byte	0x19f
 1947 08cb 66090000 		.4byte	0x966
 1948 08cf 14       		.uleb128 0x14
 1949 08d0 F5000000 		.4byte	.LASF108
 1950 08d4 0F       		.byte	0xf
 1951 08d5 A301     		.2byte	0x1a3
 1952 08d7 71080000 		.4byte	0x871
 1953 08db 02       		.byte	0x2
 1954 08dc 23       		.byte	0x23
 1955 08dd 00       		.uleb128 0
 1956 08de 14       		.uleb128 0x14
 1957 08df 0D050000 		.4byte	.LASF109
 1958 08e3 0F       		.byte	0xf
 1959 08e4 A701     		.2byte	0x1a7
 1960 08e6 9D0A0000 		.4byte	0xa9d
 1961 08ea 02       		.byte	0x2
 1962 08eb 23       		.byte	0x23
 1963 08ec 04       		.uleb128 0x4
 1964 08ed 14       		.uleb128 0x14
 1965 08ee F1020000 		.4byte	.LASF110
 1966 08f2 0F       		.byte	0xf
 1967 08f3 AB01     		.2byte	0x1ab
 1968 08f5 94090000 		.4byte	0x994
ARM GAS  C:\Users\DNIEL~1\AppData\Local\Temp\ccMkT0BQ.s 			page 36


 1969 08f9 02       		.byte	0x2
 1970 08fa 23       		.byte	0x23
 1971 08fb 08       		.uleb128 0x8
 1972 08fc 14       		.uleb128 0x14
 1973 08fd 7F020000 		.4byte	.LASF111
 1974 0901 0F       		.byte	0xf
 1975 0902 AF01     		.2byte	0x1af
 1976 0904 30000000 		.4byte	0x30
 1977 0908 02       		.byte	0x2
 1978 0909 23       		.byte	0x23
 1979 090a 0C       		.uleb128 0xc
 1980 090b 14       		.uleb128 0x14
 1981 090c DB020000 		.4byte	.LASF112
 1982 0910 0F       		.byte	0xf
 1983 0911 B301     		.2byte	0x1b3
 1984 0913 A80A0000 		.4byte	0xaa8
 1985 0917 02       		.byte	0x2
 1986 0918 23       		.byte	0x23
 1987 0919 10       		.uleb128 0x10
 1988 091a 14       		.uleb128 0x14
 1989 091b 46010000 		.4byte	.LASF113
 1990 091f 0F       		.byte	0xf
 1991 0920 B801     		.2byte	0x1b8
 1992 0922 70020000 		.4byte	0x270
 1993 0926 02       		.byte	0x2
 1994 0927 23       		.byte	0x23
 1995 0928 14       		.uleb128 0x14
 1996 0929 14       		.uleb128 0x14
 1997 092a F9030000 		.4byte	.LASF114
 1998 092e 0F       		.byte	0xf
 1999 092f BF01     		.2byte	0x1bf
 2000 0931 AF030000 		.4byte	0x3af
 2001 0935 02       		.byte	0x2
 2002 0936 23       		.byte	0x23
 2003 0937 18       		.uleb128 0x18
 2004 0938 0C       		.uleb128 0xc
 2005 0939 61646300 		.ascii	"adc\000"
 2006 093d 0F       		.byte	0xf
 2007 093e CB01     		.2byte	0x1cb
 2008 0940 B30A0000 		.4byte	0xab3
 2009 0944 02       		.byte	0x2
 2010 0945 23       		.byte	0x23
 2011 0946 28       		.uleb128 0x28
 2012 0947 14       		.uleb128 0x14
 2013 0948 EE000000 		.4byte	.LASF115
 2014 094c 0F       		.byte	0xf
 2015 094d CF01     		.2byte	0x1cf
 2016 094f B90A0000 		.4byte	0xab9
 2017 0953 02       		.byte	0x2
 2018 0954 23       		.byte	0x23
 2019 0955 2C       		.uleb128 0x2c
 2020 0956 14       		.uleb128 0x14
 2021 0957 13000000 		.4byte	.LASF116
 2022 095b 0F       		.byte	0xf
 2023 095c D301     		.2byte	0x1d3
 2024 095e 91000000 		.4byte	0x91
 2025 0962 02       		.byte	0x2
ARM GAS  C:\Users\DNIEL~1\AppData\Local\Temp\ccMkT0BQ.s 			page 37


 2026 0963 23       		.byte	0x23
 2027 0964 30       		.uleb128 0x30
 2028 0965 00       		.byte	0
 2029 0966 15       		.uleb128 0x15
 2030 0967 78010000 		.4byte	.LASF117
 2031 096b 0F       		.byte	0xf
 2032 096c 4501     		.2byte	0x145
 2033 096e 72090000 		.4byte	0x972
 2034 0972 09       		.uleb128 0x9
 2035 0973 04       		.byte	0x4
 2036 0974 78090000 		.4byte	0x978
 2037 0978 19       		.uleb128 0x19
 2038 0979 01       		.byte	0x1
 2039 097a 8E090000 		.4byte	0x98e
 2040 097e 12       		.uleb128 0x12
 2041 097f 8E090000 		.4byte	0x98e
 2042 0983 12       		.uleb128 0x12
 2043 0984 94090000 		.4byte	0x994
 2044 0988 12       		.uleb128 0x12
 2045 0989 30000000 		.4byte	0x30
 2046 098d 00       		.byte	0
 2047 098e 09       		.uleb128 0x9
 2048 098f 04       		.byte	0x4
 2049 0990 B6080000 		.4byte	0x8b6
 2050 0994 09       		.uleb128 0x9
 2051 0995 04       		.byte	0x4
 2052 0996 7C080000 		.4byte	0x87c
 2053 099a 15       		.uleb128 0x15
 2054 099b 20010000 		.4byte	.LASF118
 2055 099f 0F       		.byte	0xf
 2056 09a0 4E01     		.2byte	0x14e
 2057 09a2 A6090000 		.4byte	0x9a6
 2058 09a6 09       		.uleb128 0x9
 2059 09a7 04       		.byte	0x4
 2060 09a8 AC090000 		.4byte	0x9ac
 2061 09ac 19       		.uleb128 0x19
 2062 09ad 01       		.byte	0x1
 2063 09ae BD090000 		.4byte	0x9bd
 2064 09b2 12       		.uleb128 0x12
 2065 09b3 8E090000 		.4byte	0x98e
 2066 09b7 12       		.uleb128 0x12
 2067 09b8 AA080000 		.4byte	0x8aa
 2068 09bc 00       		.byte	0
 2069 09bd 13       		.uleb128 0x13
 2070 09be 28       		.byte	0x28
 2071 09bf 0F       		.byte	0xf
 2072 09c0 5801     		.2byte	0x158
 2073 09c2 6C0A0000 		.4byte	0xa6c
 2074 09c6 14       		.uleb128 0x14
 2075 09c7 FB000000 		.4byte	.LASF119
 2076 09cb 0F       		.byte	0xf
 2077 09cc 5C01     		.2byte	0x15c
 2078 09ce B1000000 		.4byte	0xb1
 2079 09d2 02       		.byte	0x2
 2080 09d3 23       		.byte	0x23
 2081 09d4 00       		.uleb128 0
 2082 09d5 14       		.uleb128 0x14
ARM GAS  C:\Users\DNIEL~1\AppData\Local\Temp\ccMkT0BQ.s 			page 38


 2083 09d6 A7020000 		.4byte	.LASF120
 2084 09da 0F       		.byte	0xf
 2085 09db 6001     		.2byte	0x160
 2086 09dd 88080000 		.4byte	0x888
 2087 09e1 02       		.byte	0x2
 2088 09e2 23       		.byte	0x23
 2089 09e3 02       		.uleb128 0x2
 2090 09e4 14       		.uleb128 0x14
 2091 09e5 71010000 		.4byte	.LASF121
 2092 09e9 0F       		.byte	0xf
 2093 09ea 6401     		.2byte	0x164
 2094 09ec 66090000 		.4byte	0x966
 2095 09f0 02       		.byte	0x2
 2096 09f1 23       		.byte	0x23
 2097 09f2 04       		.uleb128 0x4
 2098 09f3 14       		.uleb128 0x14
 2099 09f4 56040000 		.4byte	.LASF122
 2100 09f8 0F       		.byte	0xf
 2101 09f9 6801     		.2byte	0x168
 2102 09fb 9A090000 		.4byte	0x99a
 2103 09ff 02       		.byte	0x2
 2104 0a00 23       		.byte	0x23
 2105 0a01 08       		.uleb128 0x8
 2106 0a02 0C       		.uleb128 0xc
 2107 0a03 63723100 		.ascii	"cr1\000"
 2108 0a07 0F       		.byte	0xf
 2109 0a08 6F01     		.2byte	0x16f
 2110 0a0a 91000000 		.4byte	0x91
 2111 0a0e 02       		.byte	0x2
 2112 0a0f 23       		.byte	0x23
 2113 0a10 0C       		.uleb128 0xc
 2114 0a11 0C       		.uleb128 0xc
 2115 0a12 63723200 		.ascii	"cr2\000"
 2116 0a16 0F       		.byte	0xf
 2117 0a17 7601     		.2byte	0x176
 2118 0a19 91000000 		.4byte	0x91
 2119 0a1d 02       		.byte	0x2
 2120 0a1e 23       		.byte	0x23
 2121 0a1f 10       		.uleb128 0x10
 2122 0a20 14       		.uleb128 0x14
 2123 0a21 EA050000 		.4byte	.LASF123
 2124 0a25 0F       		.byte	0xf
 2125 0a26 7C01     		.2byte	0x17c
 2126 0a28 91000000 		.4byte	0x91
 2127 0a2c 02       		.byte	0x2
 2128 0a2d 23       		.byte	0x23
 2129 0a2e 14       		.uleb128 0x14
 2130 0a2f 14       		.uleb128 0x14
 2131 0a30 F0050000 		.4byte	.LASF124
 2132 0a34 0F       		.byte	0xf
 2133 0a35 8201     		.2byte	0x182
 2134 0a37 91000000 		.4byte	0x91
 2135 0a3b 02       		.byte	0x2
 2136 0a3c 23       		.byte	0x23
 2137 0a3d 18       		.uleb128 0x18
 2138 0a3e 14       		.uleb128 0x14
 2139 0a3f 3E050000 		.4byte	.LASF125
ARM GAS  C:\Users\DNIEL~1\AppData\Local\Temp\ccMkT0BQ.s 			page 39


 2140 0a43 0F       		.byte	0xf
 2141 0a44 8701     		.2byte	0x187
 2142 0a46 91000000 		.4byte	0x91
 2143 0a4a 02       		.byte	0x2
 2144 0a4b 23       		.byte	0x23
 2145 0a4c 1C       		.uleb128 0x1c
 2146 0a4d 14       		.uleb128 0x14
 2147 0a4e 43050000 		.4byte	.LASF126
 2148 0a52 0F       		.byte	0xf
 2149 0a53 8C01     		.2byte	0x18c
 2150 0a55 91000000 		.4byte	0x91
 2151 0a59 02       		.byte	0x2
 2152 0a5a 23       		.byte	0x23
 2153 0a5b 20       		.uleb128 0x20
 2154 0a5c 14       		.uleb128 0x14
 2155 0a5d 48050000 		.4byte	.LASF127
 2156 0a61 0F       		.byte	0xf
 2157 0a62 9101     		.2byte	0x191
 2158 0a64 91000000 		.4byte	0x91
 2159 0a68 02       		.byte	0x2
 2160 0a69 23       		.byte	0x23
 2161 0a6a 24       		.uleb128 0x24
 2162 0a6b 00       		.byte	0
 2163 0a6c 15       		.uleb128 0x15
 2164 0a6d 0E060000 		.4byte	.LASF128
 2165 0a71 0F       		.byte	0xf
 2166 0a72 9201     		.2byte	0x192
 2167 0a74 BD090000 		.4byte	0x9bd
 2168 0a78 13       		.uleb128 0x13
 2169 0a79 04       		.byte	0x4
 2170 0a7a 0F       		.byte	0xf
 2171 0a7b 9801     		.2byte	0x198
 2172 0a7d 910A0000 		.4byte	0xa91
 2173 0a81 14       		.uleb128 0x14
 2174 0a82 D2040000 		.4byte	.LASF129
 2175 0a86 0F       		.byte	0xf
 2176 0a87 9901     		.2byte	0x199
 2177 0a89 91000000 		.4byte	0x91
 2178 0a8d 02       		.byte	0x2
 2179 0a8e 23       		.byte	0x23
 2180 0a8f 00       		.uleb128 0
 2181 0a90 00       		.byte	0
 2182 0a91 15       		.uleb128 0x15
 2183 0a92 9D010000 		.4byte	.LASF130
 2184 0a96 0F       		.byte	0xf
 2185 0a97 9A01     		.2byte	0x19a
 2186 0a99 780A0000 		.4byte	0xa78
 2187 0a9d 09       		.uleb128 0x9
 2188 0a9e 04       		.byte	0x4
 2189 0a9f A30A0000 		.4byte	0xaa3
 2190 0aa3 10       		.uleb128 0x10
 2191 0aa4 910A0000 		.4byte	0xa91
 2192 0aa8 09       		.uleb128 0x9
 2193 0aa9 04       		.byte	0x4
 2194 0aaa AE0A0000 		.4byte	0xaae
 2195 0aae 10       		.uleb128 0x10
 2196 0aaf 6C0A0000 		.4byte	0xa6c
ARM GAS  C:\Users\DNIEL~1\AppData\Local\Temp\ccMkT0BQ.s 			page 40


 2197 0ab3 09       		.uleb128 0x9
 2198 0ab4 04       		.byte	0x4
 2199 0ab5 34060000 		.4byte	0x634
 2200 0ab9 09       		.uleb128 0x9
 2201 0aba 04       		.byte	0x4
 2202 0abb BF0A0000 		.4byte	0xabf
 2203 0abf 10       		.uleb128 0x10
 2204 0ac0 0A070000 		.4byte	0x70a
 2205 0ac4 1A       		.uleb128 0x1a
 2206 0ac5 23040000 		.4byte	.LASF143
 2207 0ac9 01       		.byte	0x1
 2208 0aca 12       		.byte	0x12
 2209 0acb 0C       		.byte	0xc
 2210 0acc 010B0000 		.4byte	0xb01
 2211 0ad0 17       		.uleb128 0x17
 2212 0ad1 D9000000 		.4byte	.LASF131
 2213 0ad5 00       		.sleb128 0
 2214 0ad6 17       		.uleb128 0x17
 2215 0ad7 14050000 		.4byte	.LASF132
 2216 0adb 01       		.sleb128 1
 2217 0adc 17       		.uleb128 0x17
 2218 0add 29050000 		.4byte	.LASF133
 2219 0ae1 02       		.sleb128 2
 2220 0ae2 17       		.uleb128 0x17
 2221 0ae3 0A020000 		.4byte	.LASF134
 2222 0ae7 03       		.sleb128 3
 2223 0ae8 17       		.uleb128 0x17
 2224 0ae9 14020000 		.4byte	.LASF135
 2225 0aed 04       		.sleb128 4
 2226 0aee 17       		.uleb128 0x17
 2227 0aef 1E020000 		.4byte	.LASF136
 2228 0af3 05       		.sleb128 5
 2229 0af4 17       		.uleb128 0x17
 2230 0af5 28020000 		.4byte	.LASF137
 2231 0af9 06       		.sleb128 6
 2232 0afa 17       		.uleb128 0x17
 2233 0afb BA010000 		.4byte	.LASF138
 2234 0aff 07       		.sleb128 7
 2235 0b00 00       		.byte	0
 2236 0b01 03       		.uleb128 0x3
 2237 0b02 13030000 		.4byte	.LASF139
 2238 0b06 10       		.byte	0x10
 2239 0b07 28       		.byte	0x28
 2240 0b08 0C0B0000 		.4byte	0xb0c
 2241 0b0c 05       		.uleb128 0x5
 2242 0b0d 3C010000 		.4byte	.LASF140
 2243 0b11 04       		.byte	0x4
 2244 0b12 11       		.byte	0x11
 2245 0b13 00       		.byte	0
 2246 0b14 260B0000 		.4byte	0xb26
 2247 0b18 1B       		.uleb128 0x1b
 2248 0b19 7A050000 		.4byte	.LASF141
 2249 0b1d AE020000 		.4byte	0x2ae
 2250 0b21 02       		.byte	0x2
 2251 0b22 23       		.byte	0x23
 2252 0b23 00       		.uleb128 0
 2253 0b24 01       		.byte	0x1
ARM GAS  C:\Users\DNIEL~1\AppData\Local\Temp\ccMkT0BQ.s 			page 41


 2254 0b25 00       		.byte	0
 2255 0b26 03       		.uleb128 0x3
 2256 0b27 2D000000 		.4byte	.LASF142
 2257 0b2b 10       		.byte	0x10
 2258 0b2c 66       		.byte	0x66
 2259 0b2d 010B0000 		.4byte	0xb01
 2260 0b31 1A       		.uleb128 0x1a
 2261 0b32 C2030000 		.4byte	.LASF144
 2262 0b36 01       		.byte	0x1
 2263 0b37 01       		.byte	0x1
 2264 0b38 0C       		.byte	0xc
 2265 0b39 4A0B0000 		.4byte	0xb4a
 2266 0b3d 17       		.uleb128 0x17
 2267 0b3e B1040000 		.4byte	.LASF145
 2268 0b42 00       		.sleb128 0
 2269 0b43 17       		.uleb128 0x17
 2270 0b44 9E040000 		.4byte	.LASF146
 2271 0b48 01       		.sleb128 1
 2272 0b49 00       		.byte	0
 2273 0b4a 1C       		.uleb128 0x1c
 2274 0b4b D7010000 		.4byte	.LASF148
 2275 0b4f 01       		.byte	0x1
 2276 0b50 73       		.byte	0x73
 2277 0b51 01       		.byte	0x1
 2278 0b52 00000000 		.4byte	.LFB122
 2279 0b56 02000000 		.4byte	.LFE122
 2280 0b5a 02       		.byte	0x2
 2281 0b5b 7D       		.byte	0x7d
 2282 0b5c 00       		.sleb128 0
 2283 0b5d 01       		.byte	0x1
 2284 0b5e 7D0B0000 		.4byte	0xb7d
 2285 0b62 1D       		.uleb128 0x1d
 2286 0b63 47020000 		.4byte	.LASF147
 2287 0b67 01       		.byte	0x1
 2288 0b68 73       		.byte	0x73
 2289 0b69 8E090000 		.4byte	0x98e
 2290 0b6d 01       		.byte	0x1
 2291 0b6e 50       		.byte	0x50
 2292 0b6f 1E       		.uleb128 0x1e
 2293 0b70 65727200 		.ascii	"err\000"
 2294 0b74 01       		.byte	0x1
 2295 0b75 73       		.byte	0x73
 2296 0b76 AA080000 		.4byte	0x8aa
 2297 0b7a 01       		.byte	0x1
 2298 0b7b 51       		.byte	0x51
 2299 0b7c 00       		.byte	0
 2300 0b7d 1F       		.uleb128 0x1f
 2301 0b7e 90060000 		.4byte	.LASF149
 2302 0b82 02       		.byte	0x2
 2303 0b83 45       		.byte	0x45
 2304 0b84 01       		.byte	0x1
 2305 0b85 00000000 		.4byte	.LFB118
 2306 0b89 1E000000 		.4byte	.LFE118
 2307 0b8d 00000000 		.4byte	.LLST0
 2308 0b91 01       		.byte	0x1
 2309 0b92 E00B0000 		.4byte	0xbe0
 2310 0b96 20       		.uleb128 0x20
ARM GAS  C:\Users\DNIEL~1\AppData\Local\Temp\ccMkT0BQ.s 			page 42


 2311 0b97 63687000 		.ascii	"chp\000"
 2312 0b9b 02       		.byte	0x2
 2313 0b9c 45       		.byte	0x45
 2314 0b9d E00B0000 		.4byte	0xbe0
 2315 0ba1 38000000 		.4byte	.LLST1
 2316 0ba5 1E       		.uleb128 0x1e
 2317 0ba6 666D7400 		.ascii	"fmt\000"
 2318 0baa 02       		.byte	0x2
 2319 0bab 45       		.byte	0x45
 2320 0bac EF030000 		.4byte	0x3ef
 2321 0bb0 02       		.byte	0x2
 2322 0bb1 91       		.byte	0x91
 2323 0bb2 74       		.sleb128 -12
 2324 0bb3 21       		.uleb128 0x21
 2325 0bb4 22       		.uleb128 0x22
 2326 0bb5 617000   		.ascii	"ap\000"
 2327 0bb8 02       		.byte	0x2
 2328 0bb9 46       		.byte	0x46
 2329 0bba 260B0000 		.4byte	0xb26
 2330 0bbe 02       		.byte	0x2
 2331 0bbf 91       		.byte	0x91
 2332 0bc0 6C       		.sleb128 -20
 2333 0bc1 23       		.uleb128 0x23
 2334 0bc2 14000000 		.4byte	.LVL2
 2335 0bc6 4B0F0000 		.4byte	0xf4b
 2336 0bca 24       		.uleb128 0x24
 2337 0bcb 01       		.byte	0x1
 2338 0bcc 52       		.byte	0x52
 2339 0bcd 02       		.byte	0x2
 2340 0bce 91       		.byte	0x91
 2341 0bcf 60       		.sleb128 -32
 2342 0bd0 24       		.uleb128 0x24
 2343 0bd1 01       		.byte	0x1
 2344 0bd2 51       		.byte	0x51
 2345 0bd3 03       		.byte	0x3
 2346 0bd4 91       		.byte	0x91
 2347 0bd5 5C       		.sleb128 -36
 2348 0bd6 06       		.byte	0x6
 2349 0bd7 24       		.uleb128 0x24
 2350 0bd8 01       		.byte	0x1
 2351 0bd9 50       		.byte	0x50
 2352 0bda 03       		.byte	0x3
 2353 0bdb F3       		.byte	0xf3
 2354 0bdc 01       		.uleb128 0x1
 2355 0bdd 50       		.byte	0x50
 2356 0bde 00       		.byte	0
 2357 0bdf 00       		.byte	0
 2358 0be0 09       		.uleb128 0x9
 2359 0be1 04       		.byte	0x4
 2360 0be2 F0040000 		.4byte	0x4f0
 2361 0be6 25       		.uleb128 0x25
 2362 0be7 01       		.byte	0x1
 2363 0be8 8D000000 		.4byte	.LASF150
 2364 0bec 01       		.byte	0x1
 2365 0bed 30       		.byte	0x30
 2366 0bee 01       		.byte	0x1
 2367 0bef 00000000 		.4byte	.LFB119
ARM GAS  C:\Users\DNIEL~1\AppData\Local\Temp\ccMkT0BQ.s 			page 43


 2368 0bf3 1E000000 		.4byte	.LFE119
 2369 0bf7 59000000 		.4byte	.LLST2
 2370 0bfb 01       		.byte	0x1
 2371 0bfc 100C0000 		.4byte	0xc10
 2372 0c00 23       		.uleb128 0x23
 2373 0c01 10000000 		.4byte	.LVL3
 2374 0c05 690F0000 		.4byte	0xf69
 2375 0c09 24       		.uleb128 0x24
 2376 0c0a 01       		.byte	0x1
 2377 0c0b 51       		.byte	0x51
 2378 0c0c 01       		.byte	0x1
 2379 0c0d 30       		.byte	0x30
 2380 0c0e 00       		.byte	0
 2381 0c0f 00       		.byte	0
 2382 0c10 25       		.uleb128 0x25
 2383 0c11 01       		.byte	0x1
 2384 0c12 CC020000 		.4byte	.LASF151
 2385 0c16 01       		.byte	0x1
 2386 0c17 39       		.byte	0x39
 2387 0c18 01       		.byte	0x1
 2388 0c19 00000000 		.4byte	.LFB120
 2389 0c1d F0010000 		.4byte	.LFE120
 2390 0c21 79000000 		.4byte	.LLST3
 2391 0c25 01       		.byte	0x1
 2392 0c26 A90C0000 		.4byte	0xca9
 2393 0c2a 26       		.uleb128 0x26
 2394 0c2b 636800   		.ascii	"ch\000"
 2395 0c2e 01       		.byte	0x1
 2396 0c2f 3A       		.byte	0x3a
 2397 0c30 29000000 		.4byte	0x29
 2398 0c34 99000000 		.4byte	.LLST4
 2399 0c38 26       		.uleb128 0x26
 2400 0c39 61766700 		.ascii	"avg\000"
 2401 0c3d 01       		.byte	0x1
 2402 0c3e 3B       		.byte	0x3b
 2403 0c3f 29000000 		.4byte	0x29
 2404 0c43 F5000000 		.4byte	.LLST5
 2405 0c47 26       		.uleb128 0x26
 2406 0c48 6900     		.ascii	"i\000"
 2407 0c4a 01       		.byte	0x1
 2408 0c4b 3B       		.byte	0x3b
 2409 0c4c 29000000 		.4byte	0x29
 2410 0c50 EB030000 		.4byte	.LLST6
 2411 0c54 27       		.uleb128 0x27
 2412 0c55 00000000 		.4byte	.Ldebug_ranges0+0
 2413 0c59 6D0C0000 		.4byte	0xc6d
 2414 0c5d 26       		.uleb128 0x26
 2415 0c5e 746D7000 		.ascii	"tmp\000"
 2416 0c62 01       		.byte	0x1
 2417 0c63 61       		.byte	0x61
 2418 0c64 91000000 		.4byte	0x91
 2419 0c68 93060000 		.4byte	.LLST7
 2420 0c6c 00       		.byte	0
 2421 0c6d 27       		.uleb128 0x27
 2422 0c6e 40000000 		.4byte	.Ldebug_ranges0+0x40
 2423 0c72 860C0000 		.4byte	0xc86
 2424 0c76 26       		.uleb128 0x26
ARM GAS  C:\Users\DNIEL~1\AppData\Local\Temp\ccMkT0BQ.s 			page 44


 2425 0c77 746D7000 		.ascii	"tmp\000"
 2426 0c7b 01       		.byte	0x1
 2427 0c7c 63       		.byte	0x63
 2428 0c7d 91000000 		.4byte	0x91
 2429 0c81 E8060000 		.4byte	.LLST8
 2430 0c85 00       		.byte	0
 2431 0c86 28       		.uleb128 0x28
 2432 0c87 1E000000 		.4byte	.LVL6
 2433 0c8b 01       		.byte	0x1
 2434 0c8c 830F0000 		.4byte	0xf83
 2435 0c90 24       		.uleb128 0x24
 2436 0c91 01       		.byte	0x1
 2437 0c92 53       		.byte	0x53
 2438 0c93 01       		.byte	0x1
 2439 0c94 38       		.byte	0x38
 2440 0c95 24       		.uleb128 0x24
 2441 0c96 01       		.byte	0x1
 2442 0c97 52       		.byte	0x52
 2443 0c98 05       		.byte	0x5
 2444 0c99 03       		.byte	0x3
 2445 0c9a 00000000 		.4byte	.LANCHOR1
 2446 0c9e 24       		.uleb128 0x24
 2447 0c9f 01       		.byte	0x1
 2448 0ca0 51       		.byte	0x51
 2449 0ca1 05       		.byte	0x5
 2450 0ca2 03       		.byte	0x3
 2451 0ca3 00000000 		.4byte	.LANCHOR3
 2452 0ca7 00       		.byte	0
 2453 0ca8 00       		.byte	0
 2454 0ca9 29       		.uleb128 0x29
 2455 0caa 01       		.byte	0x1
 2456 0cab 8B020000 		.4byte	.LASF165
 2457 0caf 01       		.byte	0x1
 2458 0cb0 6C       		.byte	0x6c
 2459 0cb1 01       		.byte	0x1
 2460 0cb2 5B000000 		.4byte	0x5b
 2461 0cb6 00000000 		.4byte	.LFB121
 2462 0cba 0E000000 		.4byte	.LFE121
 2463 0cbe 02       		.byte	0x2
 2464 0cbf 7D       		.byte	0x7d
 2465 0cc0 00       		.sleb128 0
 2466 0cc1 01       		.byte	0x1
 2467 0cc2 D50C0000 		.4byte	0xcd5
 2468 0cc6 20       		.uleb128 0x20
 2469 0cc7 636800   		.ascii	"ch\000"
 2470 0cca 01       		.byte	0x1
 2471 0ccb 6C       		.byte	0x6c
 2472 0ccc C40A0000 		.4byte	0xac4
 2473 0cd0 48070000 		.4byte	.LLST9
 2474 0cd4 00       		.byte	0
 2475 0cd5 25       		.uleb128 0x25
 2476 0cd6 01       		.byte	0x1
 2477 0cd7 AB030000 		.4byte	.LASF152
 2478 0cdb 01       		.byte	0x1
 2479 0cdc 79       		.byte	0x79
 2480 0cdd 01       		.byte	0x1
 2481 0cde 00000000 		.4byte	.LFB123
ARM GAS  C:\Users\DNIEL~1\AppData\Local\Temp\ccMkT0BQ.s 			page 45


 2482 0ce2 C0000000 		.4byte	.LFE123
 2483 0ce6 69070000 		.4byte	.LLST10
 2484 0cea 01       		.byte	0x1
 2485 0ceb A90E0000 		.4byte	0xea9
 2486 0cef 20       		.uleb128 0x20
 2487 0cf0 63687000 		.ascii	"chp\000"
 2488 0cf4 01       		.byte	0x1
 2489 0cf5 79       		.byte	0x79
 2490 0cf6 E00B0000 		.4byte	0xbe0
 2491 0cfa 89070000 		.4byte	.LLST11
 2492 0cfe 2A       		.uleb128 0x2a
 2493 0cff 55060000 		.4byte	.LASF153
 2494 0d03 01       		.byte	0x1
 2495 0d04 79       		.byte	0x79
 2496 0d05 29000000 		.4byte	0x29
 2497 0d09 C8070000 		.4byte	.LLST12
 2498 0d0d 2A       		.uleb128 0x2a
 2499 0d0e 73060000 		.4byte	.LASF154
 2500 0d12 01       		.byte	0x1
 2501 0d13 79       		.byte	0x79
 2502 0d14 A90E0000 		.4byte	0xea9
 2503 0d18 E9070000 		.4byte	.LLST13
 2504 0d1c 26       		.uleb128 0x26
 2505 0d1d 636800   		.ascii	"ch\000"
 2506 0d20 01       		.byte	0x1
 2507 0d21 7A       		.byte	0x7a
 2508 0d22 C40A0000 		.4byte	0xac4
 2509 0d26 0A080000 		.4byte	.LLST14
 2510 0d2a 2B       		.uleb128 0x2b
 2511 0d2b BC040000 		.4byte	.LASF166
 2512 0d2f 01       		.byte	0x1
 2513 0d30 7C       		.byte	0x7c
 2514 0d31 C50E0000 		.4byte	0xec5
 2515 0d35 2C       		.uleb128 0x2c
 2516 0d36 0C000000 		.4byte	.LVL99
 2517 0d3a 7D0B0000 		.4byte	0xb7d
 2518 0d3e 520D0000 		.4byte	0xd52
 2519 0d42 24       		.uleb128 0x24
 2520 0d43 01       		.byte	0x1
 2521 0d44 51       		.byte	0x51
 2522 0d45 05       		.byte	0x5
 2523 0d46 03       		.byte	0x3
 2524 0d47 00000000 		.4byte	.LC0
 2525 0d4b 24       		.uleb128 0x24
 2526 0d4c 01       		.byte	0x1
 2527 0d4d 50       		.byte	0x50
 2528 0d4e 02       		.byte	0x2
 2529 0d4f 74       		.byte	0x74
 2530 0d50 00       		.sleb128 0
 2531 0d51 00       		.byte	0
 2532 0d52 2C       		.uleb128 0x2c
 2533 0d53 14000000 		.4byte	.LVL100
 2534 0d57 7D0B0000 		.4byte	0xb7d
 2535 0d5b 6F0D0000 		.4byte	0xd6f
 2536 0d5f 24       		.uleb128 0x24
 2537 0d60 01       		.byte	0x1
 2538 0d61 51       		.byte	0x51
ARM GAS  C:\Users\DNIEL~1\AppData\Local\Temp\ccMkT0BQ.s 			page 46


 2539 0d62 05       		.byte	0x5
 2540 0d63 03       		.byte	0x3
 2541 0d64 04000000 		.4byte	.LC1
 2542 0d68 24       		.uleb128 0x24
 2543 0d69 01       		.byte	0x1
 2544 0d6a 50       		.byte	0x50
 2545 0d6b 02       		.byte	0x2
 2546 0d6c 74       		.byte	0x74
 2547 0d6d 00       		.sleb128 0
 2548 0d6e 00       		.byte	0
 2549 0d6f 2D       		.uleb128 0x2d
 2550 0d70 1A000000 		.4byte	.LVL102
 2551 0d74 7D0B0000 		.4byte	0xb7d
 2552 0d78 2C       		.uleb128 0x2c
 2553 0d79 26000000 		.4byte	.LVL103
 2554 0d7d 7D0B0000 		.4byte	0xb7d
 2555 0d81 9E0D0000 		.4byte	0xd9e
 2556 0d85 24       		.uleb128 0x24
 2557 0d86 01       		.byte	0x1
 2558 0d87 52       		.byte	0x52
 2559 0d88 05       		.byte	0x5
 2560 0d89 03       		.byte	0x3
 2561 0d8a 24000000 		.4byte	.LC4
 2562 0d8e 24       		.uleb128 0x24
 2563 0d8f 01       		.byte	0x1
 2564 0d90 51       		.byte	0x51
 2565 0d91 05       		.byte	0x5
 2566 0d92 03       		.byte	0x3
 2567 0d93 18000000 		.4byte	.LC3
 2568 0d97 24       		.uleb128 0x24
 2569 0d98 01       		.byte	0x1
 2570 0d99 50       		.byte	0x50
 2571 0d9a 02       		.byte	0x2
 2572 0d9b 74       		.byte	0x74
 2573 0d9c 00       		.sleb128 0
 2574 0d9d 00       		.byte	0
 2575 0d9e 2C       		.uleb128 0x2c
 2576 0d9f 32000000 		.4byte	.LVL104
 2577 0da3 7D0B0000 		.4byte	0xb7d
 2578 0da7 C40D0000 		.4byte	0xdc4
 2579 0dab 24       		.uleb128 0x24
 2580 0dac 01       		.byte	0x1
 2581 0dad 52       		.byte	0x52
 2582 0dae 05       		.byte	0x5
 2583 0daf 03       		.byte	0x3
 2584 0db0 2C000000 		.4byte	.LC5
 2585 0db4 24       		.uleb128 0x24
 2586 0db5 01       		.byte	0x1
 2587 0db6 51       		.byte	0x51
 2588 0db7 05       		.byte	0x5
 2589 0db8 03       		.byte	0x3
 2590 0db9 18000000 		.4byte	.LC3
 2591 0dbd 24       		.uleb128 0x24
 2592 0dbe 01       		.byte	0x1
 2593 0dbf 50       		.byte	0x50
 2594 0dc0 02       		.byte	0x2
 2595 0dc1 74       		.byte	0x74
ARM GAS  C:\Users\DNIEL~1\AppData\Local\Temp\ccMkT0BQ.s 			page 47


 2596 0dc2 00       		.sleb128 0
 2597 0dc3 00       		.byte	0
 2598 0dc4 2C       		.uleb128 0x2c
 2599 0dc5 3E000000 		.4byte	.LVL105
 2600 0dc9 7D0B0000 		.4byte	0xb7d
 2601 0dcd EA0D0000 		.4byte	0xdea
 2602 0dd1 24       		.uleb128 0x24
 2603 0dd2 01       		.byte	0x1
 2604 0dd3 52       		.byte	0x52
 2605 0dd4 05       		.byte	0x5
 2606 0dd5 03       		.byte	0x3
 2607 0dd6 3C000000 		.4byte	.LC6
 2608 0dda 24       		.uleb128 0x24
 2609 0ddb 01       		.byte	0x1
 2610 0ddc 51       		.byte	0x51
 2611 0ddd 05       		.byte	0x5
 2612 0dde 03       		.byte	0x3
 2613 0ddf 18000000 		.4byte	.LC3
 2614 0de3 24       		.uleb128 0x24
 2615 0de4 01       		.byte	0x1
 2616 0de5 50       		.byte	0x50
 2617 0de6 02       		.byte	0x2
 2618 0de7 74       		.byte	0x74
 2619 0de8 00       		.sleb128 0
 2620 0de9 00       		.byte	0
 2621 0dea 2C       		.uleb128 0x2c
 2622 0deb 4A000000 		.4byte	.LVL106
 2623 0def 7D0B0000 		.4byte	0xb7d
 2624 0df3 100E0000 		.4byte	0xe10
 2625 0df7 24       		.uleb128 0x24
 2626 0df8 01       		.byte	0x1
 2627 0df9 52       		.byte	0x52
 2628 0dfa 05       		.byte	0x5
 2629 0dfb 03       		.byte	0x3
 2630 0dfc 4C000000 		.4byte	.LC7
 2631 0e00 24       		.uleb128 0x24
 2632 0e01 01       		.byte	0x1
 2633 0e02 51       		.byte	0x51
 2634 0e03 05       		.byte	0x5
 2635 0e04 03       		.byte	0x3
 2636 0e05 18000000 		.4byte	.LC3
 2637 0e09 24       		.uleb128 0x24
 2638 0e0a 01       		.byte	0x1
 2639 0e0b 50       		.byte	0x50
 2640 0e0c 02       		.byte	0x2
 2641 0e0d 74       		.byte	0x74
 2642 0e0e 00       		.sleb128 0
 2643 0e0f 00       		.byte	0
 2644 0e10 2C       		.uleb128 0x2c
 2645 0e11 56000000 		.4byte	.LVL107
 2646 0e15 7D0B0000 		.4byte	0xb7d
 2647 0e19 360E0000 		.4byte	0xe36
 2648 0e1d 24       		.uleb128 0x24
 2649 0e1e 01       		.byte	0x1
 2650 0e1f 52       		.byte	0x52
 2651 0e20 05       		.byte	0x5
 2652 0e21 03       		.byte	0x3
ARM GAS  C:\Users\DNIEL~1\AppData\Local\Temp\ccMkT0BQ.s 			page 48


 2653 0e22 54000000 		.4byte	.LC8
 2654 0e26 24       		.uleb128 0x24
 2655 0e27 01       		.byte	0x1
 2656 0e28 51       		.byte	0x51
 2657 0e29 05       		.byte	0x5
 2658 0e2a 03       		.byte	0x3
 2659 0e2b 18000000 		.4byte	.LC3
 2660 0e2f 24       		.uleb128 0x24
 2661 0e30 01       		.byte	0x1
 2662 0e31 50       		.byte	0x50
 2663 0e32 02       		.byte	0x2
 2664 0e33 74       		.byte	0x74
 2665 0e34 00       		.sleb128 0
 2666 0e35 00       		.byte	0
 2667 0e36 2C       		.uleb128 0x2c
 2668 0e37 62000000 		.4byte	.LVL108
 2669 0e3b 7D0B0000 		.4byte	0xb7d
 2670 0e3f 5C0E0000 		.4byte	0xe5c
 2671 0e43 24       		.uleb128 0x24
 2672 0e44 01       		.byte	0x1
 2673 0e45 52       		.byte	0x52
 2674 0e46 05       		.byte	0x5
 2675 0e47 03       		.byte	0x3
 2676 0e48 5C000000 		.4byte	.LC9
 2677 0e4c 24       		.uleb128 0x24
 2678 0e4d 01       		.byte	0x1
 2679 0e4e 51       		.byte	0x51
 2680 0e4f 05       		.byte	0x5
 2681 0e50 03       		.byte	0x3
 2682 0e51 18000000 		.4byte	.LC3
 2683 0e55 24       		.uleb128 0x24
 2684 0e56 01       		.byte	0x1
 2685 0e57 50       		.byte	0x50
 2686 0e58 02       		.byte	0x2
 2687 0e59 74       		.byte	0x74
 2688 0e5a 00       		.sleb128 0
 2689 0e5b 00       		.byte	0
 2690 0e5c 2C       		.uleb128 0x2c
 2691 0e5d 6E000000 		.4byte	.LVL109
 2692 0e61 7D0B0000 		.4byte	0xb7d
 2693 0e65 820E0000 		.4byte	0xe82
 2694 0e69 24       		.uleb128 0x24
 2695 0e6a 01       		.byte	0x1
 2696 0e6b 52       		.byte	0x52
 2697 0e6c 05       		.byte	0x5
 2698 0e6d 03       		.byte	0x3
 2699 0e6e 64000000 		.4byte	.LC10
 2700 0e72 24       		.uleb128 0x24
 2701 0e73 01       		.byte	0x1
 2702 0e74 51       		.byte	0x51
 2703 0e75 05       		.byte	0x5
 2704 0e76 03       		.byte	0x3
 2705 0e77 18000000 		.4byte	.LC3
 2706 0e7b 24       		.uleb128 0x24
 2707 0e7c 01       		.byte	0x1
 2708 0e7d 50       		.byte	0x50
 2709 0e7e 02       		.byte	0x2
ARM GAS  C:\Users\DNIEL~1\AppData\Local\Temp\ccMkT0BQ.s 			page 49


 2710 0e7f 74       		.byte	0x74
 2711 0e80 00       		.sleb128 0
 2712 0e81 00       		.byte	0
 2713 0e82 2C       		.uleb128 0x2c
 2714 0e83 76000000 		.4byte	.LVL110
 2715 0e87 AB0F0000 		.4byte	0xfab
 2716 0e8b 970E0000 		.4byte	0xe97
 2717 0e8f 24       		.uleb128 0x24
 2718 0e90 01       		.byte	0x1
 2719 0e91 50       		.byte	0x50
 2720 0e92 03       		.byte	0x3
 2721 0e93 0A       		.byte	0xa
 2722 0e94 E803     		.2byte	0x3e8
 2723 0e96 00       		.byte	0
 2724 0e97 2E       		.uleb128 0x2e
 2725 0e98 80000000 		.4byte	.LVL111
 2726 0e9c 24       		.uleb128 0x24
 2727 0e9d 01       		.byte	0x1
 2728 0e9e 51       		.byte	0x51
 2729 0e9f 01       		.byte	0x1
 2730 0ea0 30       		.byte	0x30
 2731 0ea1 24       		.uleb128 0x24
 2732 0ea2 01       		.byte	0x1
 2733 0ea3 50       		.byte	0x50
 2734 0ea4 02       		.byte	0x2
 2735 0ea5 74       		.byte	0x74
 2736 0ea6 00       		.sleb128 0
 2737 0ea7 00       		.byte	0
 2738 0ea8 00       		.byte	0
 2739 0ea9 09       		.uleb128 0x9
 2740 0eaa 04       		.byte	0x4
 2741 0eab AF0E0000 		.4byte	0xeaf
 2742 0eaf 09       		.uleb128 0x9
 2743 0eb0 04       		.byte	0x4
 2744 0eb1 FA030000 		.4byte	0x3fa
 2745 0eb5 2F       		.uleb128 0x2f
 2746 0eb6 EF030000 		.4byte	0x3ef
 2747 0eba C50E0000 		.4byte	0xec5
 2748 0ebe 30       		.uleb128 0x30
 2749 0ebf 66030000 		.4byte	0x366
 2750 0ec3 06       		.byte	0x6
 2751 0ec4 00       		.byte	0
 2752 0ec5 10       		.uleb128 0x10
 2753 0ec6 B50E0000 		.4byte	0xeb5
 2754 0eca 2F       		.uleb128 0x2f
 2755 0ecb 7F000000 		.4byte	0x7f
 2756 0ecf DA0E0000 		.4byte	0xeda
 2757 0ed3 30       		.uleb128 0x30
 2758 0ed4 66030000 		.4byte	0x366
 2759 0ed8 08       		.byte	0x8
 2760 0ed9 00       		.byte	0
 2761 0eda 31       		.uleb128 0x31
 2762 0edb EF030000 		.4byte	.LASF155
 2763 0edf 01       		.byte	0x1
 2764 0ee0 12       		.byte	0x12
 2765 0ee1 CA0E0000 		.4byte	0xeca
 2766 0ee5 05       		.byte	0x5
ARM GAS  C:\Users\DNIEL~1\AppData\Local\Temp\ccMkT0BQ.s 			page 50


 2767 0ee6 03       		.byte	0x3
 2768 0ee7 00000000 		.4byte	measValue
 2769 0eeb 2F       		.uleb128 0x2f
 2770 0eec 7C080000 		.4byte	0x87c
 2771 0ef0 FB0E0000 		.4byte	0xefb
 2772 0ef4 30       		.uleb128 0x30
 2773 0ef5 66030000 		.4byte	0x366
 2774 0ef9 37       		.byte	0x37
 2775 0efa 00       		.byte	0
 2776 0efb 31       		.uleb128 0x31
 2777 0efc F1020000 		.4byte	.LASF110
 2778 0f00 01       		.byte	0x1
 2779 0f01 13       		.byte	0x13
 2780 0f02 EB0E0000 		.4byte	0xeeb
 2781 0f06 05       		.byte	0x5
 2782 0f07 03       		.byte	0x3
 2783 0f08 00000000 		.4byte	samples
 2784 0f0c 31       		.uleb128 0x31
 2785 0f0d 76000000 		.4byte	.LASF156
 2786 0f11 01       		.byte	0x1
 2787 0f12 1E       		.byte	0x1e
 2788 0f13 AE0A0000 		.4byte	0xaae
 2789 0f17 05       		.byte	0x5
 2790 0f18 03       		.byte	0x3
 2791 0f19 00000000 		.4byte	adcgrpcfg
 2792 0f1d 32       		.uleb128 0x32
 2793 0f1e 80000000 		.4byte	.LASF157
 2794 0f22 13       		.byte	0x13
 2795 0f23 9806     		.2byte	0x698
 2796 0f25 FB040000 		.4byte	0x4fb
 2797 0f29 01       		.byte	0x1
 2798 0f2a 01       		.byte	0x1
 2799 0f2b 32       		.uleb128 0x32
 2800 0f2c E1040000 		.4byte	.LASF158
 2801 0f30 0F       		.byte	0xf
 2802 0f31 1C02     		.2byte	0x21c
 2803 0f33 B6080000 		.4byte	0x8b6
 2804 0f37 01       		.byte	0x1
 2805 0f38 01       		.byte	0x1
 2806 0f39 33       		.uleb128 0x33
 2807 0f3a 75020000 		.4byte	.LASF159
 2808 0f3e 01       		.byte	0x1
 2809 0f3f 10       		.byte	0x10
 2810 0f40 310B0000 		.4byte	0xb31
 2811 0f44 01       		.byte	0x1
 2812 0f45 05       		.byte	0x5
 2813 0f46 03       		.byte	0x3
 2814 0f47 00000000 		.4byte	measstate
 2815 0f4b 34       		.uleb128 0x34
 2816 0f4c 01       		.byte	0x1
 2817 0f4d 04060000 		.4byte	.LASF160
 2818 0f51 02       		.byte	0x2
 2819 0f52 28       		.byte	0x28
 2820 0f53 01       		.byte	0x1
 2821 0f54 01       		.byte	0x1
 2822 0f55 690F0000 		.4byte	0xf69
 2823 0f59 12       		.uleb128 0x12
ARM GAS  C:\Users\DNIEL~1\AppData\Local\Temp\ccMkT0BQ.s 			page 51


 2824 0f5a E00B0000 		.4byte	0xbe0
 2825 0f5e 12       		.uleb128 0x12
 2826 0f5f EF030000 		.4byte	0x3ef
 2827 0f63 12       		.uleb128 0x12
 2828 0f64 260B0000 		.4byte	0xb26
 2829 0f68 00       		.byte	0
 2830 0f69 35       		.uleb128 0x35
 2831 0f6a 01       		.byte	0x1
 2832 0f6b 9D050000 		.4byte	.LASF161
 2833 0f6f 0E       		.byte	0xe
 2834 0f70 1E01     		.2byte	0x11e
 2835 0f72 01       		.byte	0x1
 2836 0f73 01       		.byte	0x1
 2837 0f74 830F0000 		.4byte	0xf83
 2838 0f78 12       		.uleb128 0x12
 2839 0f79 8E090000 		.4byte	0x98e
 2840 0f7d 12       		.uleb128 0x12
 2841 0f7e 9D0A0000 		.4byte	0xa9d
 2842 0f82 00       		.byte	0
 2843 0f83 36       		.uleb128 0x36
 2844 0f84 01       		.byte	0x1
 2845 0f85 86010000 		.4byte	.LASF167
 2846 0f89 0E       		.byte	0xe
 2847 0f8a 2B01     		.2byte	0x12b
 2848 0f8c 01       		.byte	0x1
 2849 0f8d FA000000 		.4byte	0xfa
 2850 0f91 01       		.byte	0x1
 2851 0f92 AB0F0000 		.4byte	0xfab
 2852 0f96 12       		.uleb128 0x12
 2853 0f97 8E090000 		.4byte	0x98e
 2854 0f9b 12       		.uleb128 0x12
 2855 0f9c A80A0000 		.4byte	0xaa8
 2856 0fa0 12       		.uleb128 0x12
 2857 0fa1 94090000 		.4byte	0x994
 2858 0fa5 12       		.uleb128 0x12
 2859 0fa6 30000000 		.4byte	0x30
 2860 0faa 00       		.byte	0
 2861 0fab 37       		.uleb128 0x37
 2862 0fac 01       		.byte	0x1
 2863 0fad A6050000 		.4byte	.LASF168
 2864 0fb1 07       		.byte	0x7
 2865 0fb2 7501     		.2byte	0x175
 2866 0fb4 01       		.byte	0x1
 2867 0fb5 01       		.byte	0x1
 2868 0fb6 12       		.uleb128 0x12
 2869 0fb7 10010000 		.4byte	0x110
 2870 0fbb 00       		.byte	0
 2871 0fbc 00       		.byte	0
 2872              		.section	.debug_abbrev,"",%progbits
 2873              	.Ldebug_abbrev0:
 2874 0000 01       		.uleb128 0x1
 2875 0001 11       		.uleb128 0x11
 2876 0002 01       		.byte	0x1
 2877 0003 25       		.uleb128 0x25
 2878 0004 0E       		.uleb128 0xe
 2879 0005 13       		.uleb128 0x13
 2880 0006 0B       		.uleb128 0xb
ARM GAS  C:\Users\DNIEL~1\AppData\Local\Temp\ccMkT0BQ.s 			page 52


 2881 0007 03       		.uleb128 0x3
 2882 0008 0E       		.uleb128 0xe
 2883 0009 1B       		.uleb128 0x1b
 2884 000a 0E       		.uleb128 0xe
 2885 000b 55       		.uleb128 0x55
 2886 000c 06       		.uleb128 0x6
 2887 000d 11       		.uleb128 0x11
 2888 000e 01       		.uleb128 0x1
 2889 000f 52       		.uleb128 0x52
 2890 0010 01       		.uleb128 0x1
 2891 0011 10       		.uleb128 0x10
 2892 0012 06       		.uleb128 0x6
 2893 0013 00       		.byte	0
 2894 0014 00       		.byte	0
 2895 0015 02       		.uleb128 0x2
 2896 0016 24       		.uleb128 0x24
 2897 0017 00       		.byte	0
 2898 0018 0B       		.uleb128 0xb
 2899 0019 0B       		.uleb128 0xb
 2900 001a 3E       		.uleb128 0x3e
 2901 001b 0B       		.uleb128 0xb
 2902 001c 03       		.uleb128 0x3
 2903 001d 08       		.uleb128 0x8
 2904 001e 00       		.byte	0
 2905 001f 00       		.byte	0
 2906 0020 03       		.uleb128 0x3
 2907 0021 16       		.uleb128 0x16
 2908 0022 00       		.byte	0
 2909 0023 03       		.uleb128 0x3
 2910 0024 0E       		.uleb128 0xe
 2911 0025 3A       		.uleb128 0x3a
 2912 0026 0B       		.uleb128 0xb
 2913 0027 3B       		.uleb128 0x3b
 2914 0028 0B       		.uleb128 0xb
 2915 0029 49       		.uleb128 0x49
 2916 002a 13       		.uleb128 0x13
 2917 002b 00       		.byte	0
 2918 002c 00       		.byte	0
 2919 002d 04       		.uleb128 0x4
 2920 002e 24       		.uleb128 0x24
 2921 002f 00       		.byte	0
 2922 0030 0B       		.uleb128 0xb
 2923 0031 0B       		.uleb128 0xb
 2924 0032 3E       		.uleb128 0x3e
 2925 0033 0B       		.uleb128 0xb
 2926 0034 03       		.uleb128 0x3
 2927 0035 0E       		.uleb128 0xe
 2928 0036 00       		.byte	0
 2929 0037 00       		.byte	0
 2930 0038 05       		.uleb128 0x5
 2931 0039 13       		.uleb128 0x13
 2932 003a 01       		.byte	0x1
 2933 003b 03       		.uleb128 0x3
 2934 003c 0E       		.uleb128 0xe
 2935 003d 0B       		.uleb128 0xb
 2936 003e 0B       		.uleb128 0xb
 2937 003f 3A       		.uleb128 0x3a
ARM GAS  C:\Users\DNIEL~1\AppData\Local\Temp\ccMkT0BQ.s 			page 53


 2938 0040 0B       		.uleb128 0xb
 2939 0041 3B       		.uleb128 0x3b
 2940 0042 0B       		.uleb128 0xb
 2941 0043 01       		.uleb128 0x1
 2942 0044 13       		.uleb128 0x13
 2943 0045 00       		.byte	0
 2944 0046 00       		.byte	0
 2945 0047 06       		.uleb128 0x6
 2946 0048 0D       		.uleb128 0xd
 2947 0049 00       		.byte	0
 2948 004a 03       		.uleb128 0x3
 2949 004b 0E       		.uleb128 0xe
 2950 004c 3A       		.uleb128 0x3a
 2951 004d 0B       		.uleb128 0xb
 2952 004e 3B       		.uleb128 0x3b
 2953 004f 0B       		.uleb128 0xb
 2954 0050 49       		.uleb128 0x49
 2955 0051 13       		.uleb128 0x13
 2956 0052 38       		.uleb128 0x38
 2957 0053 0A       		.uleb128 0xa
 2958 0054 00       		.byte	0
 2959 0055 00       		.byte	0
 2960 0056 07       		.uleb128 0x7
 2961 0057 0D       		.uleb128 0xd
 2962 0058 00       		.byte	0
 2963 0059 03       		.uleb128 0x3
 2964 005a 08       		.uleb128 0x8
 2965 005b 3A       		.uleb128 0x3a
 2966 005c 0B       		.uleb128 0xb
 2967 005d 3B       		.uleb128 0x3b
 2968 005e 0B       		.uleb128 0xb
 2969 005f 49       		.uleb128 0x49
 2970 0060 13       		.uleb128 0x13
 2971 0061 38       		.uleb128 0x38
 2972 0062 0A       		.uleb128 0xa
 2973 0063 00       		.byte	0
 2974 0064 00       		.byte	0
 2975 0065 08       		.uleb128 0x8
 2976 0066 13       		.uleb128 0x13
 2977 0067 01       		.byte	0x1
 2978 0068 0B       		.uleb128 0xb
 2979 0069 0B       		.uleb128 0xb
 2980 006a 3A       		.uleb128 0x3a
 2981 006b 0B       		.uleb128 0xb
 2982 006c 3B       		.uleb128 0x3b
 2983 006d 0B       		.uleb128 0xb
 2984 006e 01       		.uleb128 0x1
 2985 006f 13       		.uleb128 0x13
 2986 0070 00       		.byte	0
 2987 0071 00       		.byte	0
 2988 0072 09       		.uleb128 0x9
 2989 0073 0F       		.uleb128 0xf
 2990 0074 00       		.byte	0
 2991 0075 0B       		.uleb128 0xb
 2992 0076 0B       		.uleb128 0xb
 2993 0077 49       		.uleb128 0x49
 2994 0078 13       		.uleb128 0x13
ARM GAS  C:\Users\DNIEL~1\AppData\Local\Temp\ccMkT0BQ.s 			page 54


 2995 0079 00       		.byte	0
 2996 007a 00       		.byte	0
 2997 007b 0A       		.uleb128 0xa
 2998 007c 0F       		.uleb128 0xf
 2999 007d 00       		.byte	0
 3000 007e 0B       		.uleb128 0xb
 3001 007f 0B       		.uleb128 0xb
 3002 0080 00       		.byte	0
 3003 0081 00       		.byte	0
 3004 0082 0B       		.uleb128 0xb
 3005 0083 13       		.uleb128 0x13
 3006 0084 01       		.byte	0x1
 3007 0085 03       		.uleb128 0x3
 3008 0086 0E       		.uleb128 0xe
 3009 0087 0B       		.uleb128 0xb
 3010 0088 0B       		.uleb128 0xb
 3011 0089 3A       		.uleb128 0x3a
 3012 008a 0B       		.uleb128 0xb
 3013 008b 3B       		.uleb128 0x3b
 3014 008c 05       		.uleb128 0x5
 3015 008d 01       		.uleb128 0x1
 3016 008e 13       		.uleb128 0x13
 3017 008f 00       		.byte	0
 3018 0090 00       		.byte	0
 3019 0091 0C       		.uleb128 0xc
 3020 0092 0D       		.uleb128 0xd
 3021 0093 00       		.byte	0
 3022 0094 03       		.uleb128 0x3
 3023 0095 08       		.uleb128 0x8
 3024 0096 3A       		.uleb128 0x3a
 3025 0097 0B       		.uleb128 0xb
 3026 0098 3B       		.uleb128 0x3b
 3027 0099 05       		.uleb128 0x5
 3028 009a 49       		.uleb128 0x49
 3029 009b 13       		.uleb128 0x13
 3030 009c 38       		.uleb128 0x38
 3031 009d 0A       		.uleb128 0xa
 3032 009e 00       		.byte	0
 3033 009f 00       		.byte	0
 3034 00a0 0D       		.uleb128 0xd
 3035 00a1 35       		.uleb128 0x35
 3036 00a2 00       		.byte	0
 3037 00a3 49       		.uleb128 0x49
 3038 00a4 13       		.uleb128 0x13
 3039 00a5 00       		.byte	0
 3040 00a6 00       		.byte	0
 3041 00a7 0E       		.uleb128 0xe
 3042 00a8 17       		.uleb128 0x17
 3043 00a9 01       		.byte	0x1
 3044 00aa 0B       		.uleb128 0xb
 3045 00ab 0B       		.uleb128 0xb
 3046 00ac 3A       		.uleb128 0x3a
 3047 00ad 0B       		.uleb128 0xb
 3048 00ae 3B       		.uleb128 0x3b
 3049 00af 0B       		.uleb128 0xb
 3050 00b0 01       		.uleb128 0x1
 3051 00b1 13       		.uleb128 0x13
ARM GAS  C:\Users\DNIEL~1\AppData\Local\Temp\ccMkT0BQ.s 			page 55


 3052 00b2 00       		.byte	0
 3053 00b3 00       		.byte	0
 3054 00b4 0F       		.uleb128 0xf
 3055 00b5 0D       		.uleb128 0xd
 3056 00b6 00       		.byte	0
 3057 00b7 03       		.uleb128 0x3
 3058 00b8 0E       		.uleb128 0xe
 3059 00b9 3A       		.uleb128 0x3a
 3060 00ba 0B       		.uleb128 0xb
 3061 00bb 3B       		.uleb128 0x3b
 3062 00bc 0B       		.uleb128 0xb
 3063 00bd 49       		.uleb128 0x49
 3064 00be 13       		.uleb128 0x13
 3065 00bf 00       		.byte	0
 3066 00c0 00       		.byte	0
 3067 00c1 10       		.uleb128 0x10
 3068 00c2 26       		.uleb128 0x26
 3069 00c3 00       		.byte	0
 3070 00c4 49       		.uleb128 0x49
 3071 00c5 13       		.uleb128 0x13
 3072 00c6 00       		.byte	0
 3073 00c7 00       		.byte	0
 3074 00c8 11       		.uleb128 0x11
 3075 00c9 15       		.uleb128 0x15
 3076 00ca 01       		.byte	0x1
 3077 00cb 27       		.uleb128 0x27
 3078 00cc 0C       		.uleb128 0xc
 3079 00cd 49       		.uleb128 0x49
 3080 00ce 13       		.uleb128 0x13
 3081 00cf 01       		.uleb128 0x1
 3082 00d0 13       		.uleb128 0x13
 3083 00d1 00       		.byte	0
 3084 00d2 00       		.byte	0
 3085 00d3 12       		.uleb128 0x12
 3086 00d4 05       		.uleb128 0x5
 3087 00d5 00       		.byte	0
 3088 00d6 49       		.uleb128 0x49
 3089 00d7 13       		.uleb128 0x13
 3090 00d8 00       		.byte	0
 3091 00d9 00       		.byte	0
 3092 00da 13       		.uleb128 0x13
 3093 00db 13       		.uleb128 0x13
 3094 00dc 01       		.byte	0x1
 3095 00dd 0B       		.uleb128 0xb
 3096 00de 0B       		.uleb128 0xb
 3097 00df 3A       		.uleb128 0x3a
 3098 00e0 0B       		.uleb128 0xb
 3099 00e1 3B       		.uleb128 0x3b
 3100 00e2 05       		.uleb128 0x5
 3101 00e3 01       		.uleb128 0x1
 3102 00e4 13       		.uleb128 0x13
 3103 00e5 00       		.byte	0
 3104 00e6 00       		.byte	0
 3105 00e7 14       		.uleb128 0x14
 3106 00e8 0D       		.uleb128 0xd
 3107 00e9 00       		.byte	0
 3108 00ea 03       		.uleb128 0x3
ARM GAS  C:\Users\DNIEL~1\AppData\Local\Temp\ccMkT0BQ.s 			page 56


 3109 00eb 0E       		.uleb128 0xe
 3110 00ec 3A       		.uleb128 0x3a
 3111 00ed 0B       		.uleb128 0xb
 3112 00ee 3B       		.uleb128 0x3b
 3113 00ef 05       		.uleb128 0x5
 3114 00f0 49       		.uleb128 0x49
 3115 00f1 13       		.uleb128 0x13
 3116 00f2 38       		.uleb128 0x38
 3117 00f3 0A       		.uleb128 0xa
 3118 00f4 00       		.byte	0
 3119 00f5 00       		.byte	0
 3120 00f6 15       		.uleb128 0x15
 3121 00f7 16       		.uleb128 0x16
 3122 00f8 00       		.byte	0
 3123 00f9 03       		.uleb128 0x3
 3124 00fa 0E       		.uleb128 0xe
 3125 00fb 3A       		.uleb128 0x3a
 3126 00fc 0B       		.uleb128 0xb
 3127 00fd 3B       		.uleb128 0x3b
 3128 00fe 05       		.uleb128 0x5
 3129 00ff 49       		.uleb128 0x49
 3130 0100 13       		.uleb128 0x13
 3131 0101 00       		.byte	0
 3132 0102 00       		.byte	0
 3133 0103 16       		.uleb128 0x16
 3134 0104 04       		.uleb128 0x4
 3135 0105 01       		.byte	0x1
 3136 0106 0B       		.uleb128 0xb
 3137 0107 0B       		.uleb128 0xb
 3138 0108 3A       		.uleb128 0x3a
 3139 0109 0B       		.uleb128 0xb
 3140 010a 3B       		.uleb128 0x3b
 3141 010b 0B       		.uleb128 0xb
 3142 010c 01       		.uleb128 0x1
 3143 010d 13       		.uleb128 0x13
 3144 010e 00       		.byte	0
 3145 010f 00       		.byte	0
 3146 0110 17       		.uleb128 0x17
 3147 0111 28       		.uleb128 0x28
 3148 0112 00       		.byte	0
 3149 0113 03       		.uleb128 0x3
 3150 0114 0E       		.uleb128 0xe
 3151 0115 1C       		.uleb128 0x1c
 3152 0116 0D       		.uleb128 0xd
 3153 0117 00       		.byte	0
 3154 0118 00       		.byte	0
 3155 0119 18       		.uleb128 0x18
 3156 011a 04       		.uleb128 0x4
 3157 011b 01       		.byte	0x1
 3158 011c 0B       		.uleb128 0xb
 3159 011d 0B       		.uleb128 0xb
 3160 011e 3A       		.uleb128 0x3a
 3161 011f 0B       		.uleb128 0xb
 3162 0120 3B       		.uleb128 0x3b
 3163 0121 05       		.uleb128 0x5
 3164 0122 01       		.uleb128 0x1
 3165 0123 13       		.uleb128 0x13
ARM GAS  C:\Users\DNIEL~1\AppData\Local\Temp\ccMkT0BQ.s 			page 57


 3166 0124 00       		.byte	0
 3167 0125 00       		.byte	0
 3168 0126 19       		.uleb128 0x19
 3169 0127 15       		.uleb128 0x15
 3170 0128 01       		.byte	0x1
 3171 0129 27       		.uleb128 0x27
 3172 012a 0C       		.uleb128 0xc
 3173 012b 01       		.uleb128 0x1
 3174 012c 13       		.uleb128 0x13
 3175 012d 00       		.byte	0
 3176 012e 00       		.byte	0
 3177 012f 1A       		.uleb128 0x1a
 3178 0130 04       		.uleb128 0x4
 3179 0131 01       		.byte	0x1
 3180 0132 03       		.uleb128 0x3
 3181 0133 0E       		.uleb128 0xe
 3182 0134 0B       		.uleb128 0xb
 3183 0135 0B       		.uleb128 0xb
 3184 0136 3A       		.uleb128 0x3a
 3185 0137 0B       		.uleb128 0xb
 3186 0138 3B       		.uleb128 0x3b
 3187 0139 0B       		.uleb128 0xb
 3188 013a 01       		.uleb128 0x1
 3189 013b 13       		.uleb128 0x13
 3190 013c 00       		.byte	0
 3191 013d 00       		.byte	0
 3192 013e 1B       		.uleb128 0x1b
 3193 013f 0D       		.uleb128 0xd
 3194 0140 00       		.byte	0
 3195 0141 03       		.uleb128 0x3
 3196 0142 0E       		.uleb128 0xe
 3197 0143 49       		.uleb128 0x49
 3198 0144 13       		.uleb128 0x13
 3199 0145 38       		.uleb128 0x38
 3200 0146 0A       		.uleb128 0xa
 3201 0147 34       		.uleb128 0x34
 3202 0148 0C       		.uleb128 0xc
 3203 0149 00       		.byte	0
 3204 014a 00       		.byte	0
 3205 014b 1C       		.uleb128 0x1c
 3206 014c 2E       		.uleb128 0x2e
 3207 014d 01       		.byte	0x1
 3208 014e 03       		.uleb128 0x3
 3209 014f 0E       		.uleb128 0xe
 3210 0150 3A       		.uleb128 0x3a
 3211 0151 0B       		.uleb128 0xb
 3212 0152 3B       		.uleb128 0x3b
 3213 0153 0B       		.uleb128 0xb
 3214 0154 27       		.uleb128 0x27
 3215 0155 0C       		.uleb128 0xc
 3216 0156 11       		.uleb128 0x11
 3217 0157 01       		.uleb128 0x1
 3218 0158 12       		.uleb128 0x12
 3219 0159 01       		.uleb128 0x1
 3220 015a 40       		.uleb128 0x40
 3221 015b 0A       		.uleb128 0xa
 3222 015c 9742     		.uleb128 0x2117
ARM GAS  C:\Users\DNIEL~1\AppData\Local\Temp\ccMkT0BQ.s 			page 58


 3223 015e 0C       		.uleb128 0xc
 3224 015f 01       		.uleb128 0x1
 3225 0160 13       		.uleb128 0x13
 3226 0161 00       		.byte	0
 3227 0162 00       		.byte	0
 3228 0163 1D       		.uleb128 0x1d
 3229 0164 05       		.uleb128 0x5
 3230 0165 00       		.byte	0
 3231 0166 03       		.uleb128 0x3
 3232 0167 0E       		.uleb128 0xe
 3233 0168 3A       		.uleb128 0x3a
 3234 0169 0B       		.uleb128 0xb
 3235 016a 3B       		.uleb128 0x3b
 3236 016b 0B       		.uleb128 0xb
 3237 016c 49       		.uleb128 0x49
 3238 016d 13       		.uleb128 0x13
 3239 016e 02       		.uleb128 0x2
 3240 016f 0A       		.uleb128 0xa
 3241 0170 00       		.byte	0
 3242 0171 00       		.byte	0
 3243 0172 1E       		.uleb128 0x1e
 3244 0173 05       		.uleb128 0x5
 3245 0174 00       		.byte	0
 3246 0175 03       		.uleb128 0x3
 3247 0176 08       		.uleb128 0x8
 3248 0177 3A       		.uleb128 0x3a
 3249 0178 0B       		.uleb128 0xb
 3250 0179 3B       		.uleb128 0x3b
 3251 017a 0B       		.uleb128 0xb
 3252 017b 49       		.uleb128 0x49
 3253 017c 13       		.uleb128 0x13
 3254 017d 02       		.uleb128 0x2
 3255 017e 0A       		.uleb128 0xa
 3256 017f 00       		.byte	0
 3257 0180 00       		.byte	0
 3258 0181 1F       		.uleb128 0x1f
 3259 0182 2E       		.uleb128 0x2e
 3260 0183 01       		.byte	0x1
 3261 0184 03       		.uleb128 0x3
 3262 0185 0E       		.uleb128 0xe
 3263 0186 3A       		.uleb128 0x3a
 3264 0187 0B       		.uleb128 0xb
 3265 0188 3B       		.uleb128 0x3b
 3266 0189 0B       		.uleb128 0xb
 3267 018a 27       		.uleb128 0x27
 3268 018b 0C       		.uleb128 0xc
 3269 018c 11       		.uleb128 0x11
 3270 018d 01       		.uleb128 0x1
 3271 018e 12       		.uleb128 0x12
 3272 018f 01       		.uleb128 0x1
 3273 0190 40       		.uleb128 0x40
 3274 0191 06       		.uleb128 0x6
 3275 0192 9742     		.uleb128 0x2117
 3276 0194 0C       		.uleb128 0xc
 3277 0195 01       		.uleb128 0x1
 3278 0196 13       		.uleb128 0x13
 3279 0197 00       		.byte	0
ARM GAS  C:\Users\DNIEL~1\AppData\Local\Temp\ccMkT0BQ.s 			page 59


 3280 0198 00       		.byte	0
 3281 0199 20       		.uleb128 0x20
 3282 019a 05       		.uleb128 0x5
 3283 019b 00       		.byte	0
 3284 019c 03       		.uleb128 0x3
 3285 019d 08       		.uleb128 0x8
 3286 019e 3A       		.uleb128 0x3a
 3287 019f 0B       		.uleb128 0xb
 3288 01a0 3B       		.uleb128 0x3b
 3289 01a1 0B       		.uleb128 0xb
 3290 01a2 49       		.uleb128 0x49
 3291 01a3 13       		.uleb128 0x13
 3292 01a4 02       		.uleb128 0x2
 3293 01a5 06       		.uleb128 0x6
 3294 01a6 00       		.byte	0
 3295 01a7 00       		.byte	0
 3296 01a8 21       		.uleb128 0x21
 3297 01a9 18       		.uleb128 0x18
 3298 01aa 00       		.byte	0
 3299 01ab 00       		.byte	0
 3300 01ac 00       		.byte	0
 3301 01ad 22       		.uleb128 0x22
 3302 01ae 34       		.uleb128 0x34
 3303 01af 00       		.byte	0
 3304 01b0 03       		.uleb128 0x3
 3305 01b1 08       		.uleb128 0x8
 3306 01b2 3A       		.uleb128 0x3a
 3307 01b3 0B       		.uleb128 0xb
 3308 01b4 3B       		.uleb128 0x3b
 3309 01b5 0B       		.uleb128 0xb
 3310 01b6 49       		.uleb128 0x49
 3311 01b7 13       		.uleb128 0x13
 3312 01b8 02       		.uleb128 0x2
 3313 01b9 0A       		.uleb128 0xa
 3314 01ba 00       		.byte	0
 3315 01bb 00       		.byte	0
 3316 01bc 23       		.uleb128 0x23
 3317 01bd 898201   		.uleb128 0x4109
 3318 01c0 01       		.byte	0x1
 3319 01c1 11       		.uleb128 0x11
 3320 01c2 01       		.uleb128 0x1
 3321 01c3 31       		.uleb128 0x31
 3322 01c4 13       		.uleb128 0x13
 3323 01c5 00       		.byte	0
 3324 01c6 00       		.byte	0
 3325 01c7 24       		.uleb128 0x24
 3326 01c8 8A8201   		.uleb128 0x410a
 3327 01cb 00       		.byte	0
 3328 01cc 02       		.uleb128 0x2
 3329 01cd 0A       		.uleb128 0xa
 3330 01ce 9142     		.uleb128 0x2111
 3331 01d0 0A       		.uleb128 0xa
 3332 01d1 00       		.byte	0
 3333 01d2 00       		.byte	0
 3334 01d3 25       		.uleb128 0x25
 3335 01d4 2E       		.uleb128 0x2e
 3336 01d5 01       		.byte	0x1
ARM GAS  C:\Users\DNIEL~1\AppData\Local\Temp\ccMkT0BQ.s 			page 60


 3337 01d6 3F       		.uleb128 0x3f
 3338 01d7 0C       		.uleb128 0xc
 3339 01d8 03       		.uleb128 0x3
 3340 01d9 0E       		.uleb128 0xe
 3341 01da 3A       		.uleb128 0x3a
 3342 01db 0B       		.uleb128 0xb
 3343 01dc 3B       		.uleb128 0x3b
 3344 01dd 0B       		.uleb128 0xb
 3345 01de 27       		.uleb128 0x27
 3346 01df 0C       		.uleb128 0xc
 3347 01e0 11       		.uleb128 0x11
 3348 01e1 01       		.uleb128 0x1
 3349 01e2 12       		.uleb128 0x12
 3350 01e3 01       		.uleb128 0x1
 3351 01e4 40       		.uleb128 0x40
 3352 01e5 06       		.uleb128 0x6
 3353 01e6 9742     		.uleb128 0x2117
 3354 01e8 0C       		.uleb128 0xc
 3355 01e9 01       		.uleb128 0x1
 3356 01ea 13       		.uleb128 0x13
 3357 01eb 00       		.byte	0
 3358 01ec 00       		.byte	0
 3359 01ed 26       		.uleb128 0x26
 3360 01ee 34       		.uleb128 0x34
 3361 01ef 00       		.byte	0
 3362 01f0 03       		.uleb128 0x3
 3363 01f1 08       		.uleb128 0x8
 3364 01f2 3A       		.uleb128 0x3a
 3365 01f3 0B       		.uleb128 0xb
 3366 01f4 3B       		.uleb128 0x3b
 3367 01f5 0B       		.uleb128 0xb
 3368 01f6 49       		.uleb128 0x49
 3369 01f7 13       		.uleb128 0x13
 3370 01f8 02       		.uleb128 0x2
 3371 01f9 06       		.uleb128 0x6
 3372 01fa 00       		.byte	0
 3373 01fb 00       		.byte	0
 3374 01fc 27       		.uleb128 0x27
 3375 01fd 0B       		.uleb128 0xb
 3376 01fe 01       		.byte	0x1
 3377 01ff 55       		.uleb128 0x55
 3378 0200 06       		.uleb128 0x6
 3379 0201 01       		.uleb128 0x1
 3380 0202 13       		.uleb128 0x13
 3381 0203 00       		.byte	0
 3382 0204 00       		.byte	0
 3383 0205 28       		.uleb128 0x28
 3384 0206 898201   		.uleb128 0x4109
 3385 0209 01       		.byte	0x1
 3386 020a 11       		.uleb128 0x11
 3387 020b 01       		.uleb128 0x1
 3388 020c 9542     		.uleb128 0x2115
 3389 020e 0C       		.uleb128 0xc
 3390 020f 31       		.uleb128 0x31
 3391 0210 13       		.uleb128 0x13
 3392 0211 00       		.byte	0
 3393 0212 00       		.byte	0
ARM GAS  C:\Users\DNIEL~1\AppData\Local\Temp\ccMkT0BQ.s 			page 61


 3394 0213 29       		.uleb128 0x29
 3395 0214 2E       		.uleb128 0x2e
 3396 0215 01       		.byte	0x1
 3397 0216 3F       		.uleb128 0x3f
 3398 0217 0C       		.uleb128 0xc
 3399 0218 03       		.uleb128 0x3
 3400 0219 0E       		.uleb128 0xe
 3401 021a 3A       		.uleb128 0x3a
 3402 021b 0B       		.uleb128 0xb
 3403 021c 3B       		.uleb128 0x3b
 3404 021d 0B       		.uleb128 0xb
 3405 021e 27       		.uleb128 0x27
 3406 021f 0C       		.uleb128 0xc
 3407 0220 49       		.uleb128 0x49
 3408 0221 13       		.uleb128 0x13
 3409 0222 11       		.uleb128 0x11
 3410 0223 01       		.uleb128 0x1
 3411 0224 12       		.uleb128 0x12
 3412 0225 01       		.uleb128 0x1
 3413 0226 40       		.uleb128 0x40
 3414 0227 0A       		.uleb128 0xa
 3415 0228 9742     		.uleb128 0x2117
 3416 022a 0C       		.uleb128 0xc
 3417 022b 01       		.uleb128 0x1
 3418 022c 13       		.uleb128 0x13
 3419 022d 00       		.byte	0
 3420 022e 00       		.byte	0
 3421 022f 2A       		.uleb128 0x2a
 3422 0230 05       		.uleb128 0x5
 3423 0231 00       		.byte	0
 3424 0232 03       		.uleb128 0x3
 3425 0233 0E       		.uleb128 0xe
 3426 0234 3A       		.uleb128 0x3a
 3427 0235 0B       		.uleb128 0xb
 3428 0236 3B       		.uleb128 0x3b
 3429 0237 0B       		.uleb128 0xb
 3430 0238 49       		.uleb128 0x49
 3431 0239 13       		.uleb128 0x13
 3432 023a 02       		.uleb128 0x2
 3433 023b 06       		.uleb128 0x6
 3434 023c 00       		.byte	0
 3435 023d 00       		.byte	0
 3436 023e 2B       		.uleb128 0x2b
 3437 023f 34       		.uleb128 0x34
 3438 0240 00       		.byte	0
 3439 0241 03       		.uleb128 0x3
 3440 0242 0E       		.uleb128 0xe
 3441 0243 3A       		.uleb128 0x3a
 3442 0244 0B       		.uleb128 0xb
 3443 0245 3B       		.uleb128 0x3b
 3444 0246 0B       		.uleb128 0xb
 3445 0247 49       		.uleb128 0x49
 3446 0248 13       		.uleb128 0x13
 3447 0249 00       		.byte	0
 3448 024a 00       		.byte	0
 3449 024b 2C       		.uleb128 0x2c
 3450 024c 898201   		.uleb128 0x4109
ARM GAS  C:\Users\DNIEL~1\AppData\Local\Temp\ccMkT0BQ.s 			page 62


 3451 024f 01       		.byte	0x1
 3452 0250 11       		.uleb128 0x11
 3453 0251 01       		.uleb128 0x1
 3454 0252 31       		.uleb128 0x31
 3455 0253 13       		.uleb128 0x13
 3456 0254 01       		.uleb128 0x1
 3457 0255 13       		.uleb128 0x13
 3458 0256 00       		.byte	0
 3459 0257 00       		.byte	0
 3460 0258 2D       		.uleb128 0x2d
 3461 0259 898201   		.uleb128 0x4109
 3462 025c 00       		.byte	0
 3463 025d 11       		.uleb128 0x11
 3464 025e 01       		.uleb128 0x1
 3465 025f 31       		.uleb128 0x31
 3466 0260 13       		.uleb128 0x13
 3467 0261 00       		.byte	0
 3468 0262 00       		.byte	0
 3469 0263 2E       		.uleb128 0x2e
 3470 0264 898201   		.uleb128 0x4109
 3471 0267 01       		.byte	0x1
 3472 0268 11       		.uleb128 0x11
 3473 0269 01       		.uleb128 0x1
 3474 026a 00       		.byte	0
 3475 026b 00       		.byte	0
 3476 026c 2F       		.uleb128 0x2f
 3477 026d 01       		.uleb128 0x1
 3478 026e 01       		.byte	0x1
 3479 026f 49       		.uleb128 0x49
 3480 0270 13       		.uleb128 0x13
 3481 0271 01       		.uleb128 0x1
 3482 0272 13       		.uleb128 0x13
 3483 0273 00       		.byte	0
 3484 0274 00       		.byte	0
 3485 0275 30       		.uleb128 0x30
 3486 0276 21       		.uleb128 0x21
 3487 0277 00       		.byte	0
 3488 0278 49       		.uleb128 0x49
 3489 0279 13       		.uleb128 0x13
 3490 027a 2F       		.uleb128 0x2f
 3491 027b 0B       		.uleb128 0xb
 3492 027c 00       		.byte	0
 3493 027d 00       		.byte	0
 3494 027e 31       		.uleb128 0x31
 3495 027f 34       		.uleb128 0x34
 3496 0280 00       		.byte	0
 3497 0281 03       		.uleb128 0x3
 3498 0282 0E       		.uleb128 0xe
 3499 0283 3A       		.uleb128 0x3a
 3500 0284 0B       		.uleb128 0xb
 3501 0285 3B       		.uleb128 0x3b
 3502 0286 0B       		.uleb128 0xb
 3503 0287 49       		.uleb128 0x49
 3504 0288 13       		.uleb128 0x13
 3505 0289 02       		.uleb128 0x2
 3506 028a 0A       		.uleb128 0xa
 3507 028b 00       		.byte	0
ARM GAS  C:\Users\DNIEL~1\AppData\Local\Temp\ccMkT0BQ.s 			page 63


 3508 028c 00       		.byte	0
 3509 028d 32       		.uleb128 0x32
 3510 028e 34       		.uleb128 0x34
 3511 028f 00       		.byte	0
 3512 0290 03       		.uleb128 0x3
 3513 0291 0E       		.uleb128 0xe
 3514 0292 3A       		.uleb128 0x3a
 3515 0293 0B       		.uleb128 0xb
 3516 0294 3B       		.uleb128 0x3b
 3517 0295 05       		.uleb128 0x5
 3518 0296 49       		.uleb128 0x49
 3519 0297 13       		.uleb128 0x13
 3520 0298 3F       		.uleb128 0x3f
 3521 0299 0C       		.uleb128 0xc
 3522 029a 3C       		.uleb128 0x3c
 3523 029b 0C       		.uleb128 0xc
 3524 029c 00       		.byte	0
 3525 029d 00       		.byte	0
 3526 029e 33       		.uleb128 0x33
 3527 029f 34       		.uleb128 0x34
 3528 02a0 00       		.byte	0
 3529 02a1 03       		.uleb128 0x3
 3530 02a2 0E       		.uleb128 0xe
 3531 02a3 3A       		.uleb128 0x3a
 3532 02a4 0B       		.uleb128 0xb
 3533 02a5 3B       		.uleb128 0x3b
 3534 02a6 0B       		.uleb128 0xb
 3535 02a7 49       		.uleb128 0x49
 3536 02a8 13       		.uleb128 0x13
 3537 02a9 3F       		.uleb128 0x3f
 3538 02aa 0C       		.uleb128 0xc
 3539 02ab 02       		.uleb128 0x2
 3540 02ac 0A       		.uleb128 0xa
 3541 02ad 00       		.byte	0
 3542 02ae 00       		.byte	0
 3543 02af 34       		.uleb128 0x34
 3544 02b0 2E       		.uleb128 0x2e
 3545 02b1 01       		.byte	0x1
 3546 02b2 3F       		.uleb128 0x3f
 3547 02b3 0C       		.uleb128 0xc
 3548 02b4 03       		.uleb128 0x3
 3549 02b5 0E       		.uleb128 0xe
 3550 02b6 3A       		.uleb128 0x3a
 3551 02b7 0B       		.uleb128 0xb
 3552 02b8 3B       		.uleb128 0x3b
 3553 02b9 0B       		.uleb128 0xb
 3554 02ba 27       		.uleb128 0x27
 3555 02bb 0C       		.uleb128 0xc
 3556 02bc 3C       		.uleb128 0x3c
 3557 02bd 0C       		.uleb128 0xc
 3558 02be 01       		.uleb128 0x1
 3559 02bf 13       		.uleb128 0x13
 3560 02c0 00       		.byte	0
 3561 02c1 00       		.byte	0
 3562 02c2 35       		.uleb128 0x35
 3563 02c3 2E       		.uleb128 0x2e
 3564 02c4 01       		.byte	0x1
ARM GAS  C:\Users\DNIEL~1\AppData\Local\Temp\ccMkT0BQ.s 			page 64


 3565 02c5 3F       		.uleb128 0x3f
 3566 02c6 0C       		.uleb128 0xc
 3567 02c7 03       		.uleb128 0x3
 3568 02c8 0E       		.uleb128 0xe
 3569 02c9 3A       		.uleb128 0x3a
 3570 02ca 0B       		.uleb128 0xb
 3571 02cb 3B       		.uleb128 0x3b
 3572 02cc 05       		.uleb128 0x5
 3573 02cd 27       		.uleb128 0x27
 3574 02ce 0C       		.uleb128 0xc
 3575 02cf 3C       		.uleb128 0x3c
 3576 02d0 0C       		.uleb128 0xc
 3577 02d1 01       		.uleb128 0x1
 3578 02d2 13       		.uleb128 0x13
 3579 02d3 00       		.byte	0
 3580 02d4 00       		.byte	0
 3581 02d5 36       		.uleb128 0x36
 3582 02d6 2E       		.uleb128 0x2e
 3583 02d7 01       		.byte	0x1
 3584 02d8 3F       		.uleb128 0x3f
 3585 02d9 0C       		.uleb128 0xc
 3586 02da 03       		.uleb128 0x3
 3587 02db 0E       		.uleb128 0xe
 3588 02dc 3A       		.uleb128 0x3a
 3589 02dd 0B       		.uleb128 0xb
 3590 02de 3B       		.uleb128 0x3b
 3591 02df 05       		.uleb128 0x5
 3592 02e0 27       		.uleb128 0x27
 3593 02e1 0C       		.uleb128 0xc
 3594 02e2 49       		.uleb128 0x49
 3595 02e3 13       		.uleb128 0x13
 3596 02e4 3C       		.uleb128 0x3c
 3597 02e5 0C       		.uleb128 0xc
 3598 02e6 01       		.uleb128 0x1
 3599 02e7 13       		.uleb128 0x13
 3600 02e8 00       		.byte	0
 3601 02e9 00       		.byte	0
 3602 02ea 37       		.uleb128 0x37
 3603 02eb 2E       		.uleb128 0x2e
 3604 02ec 01       		.byte	0x1
 3605 02ed 3F       		.uleb128 0x3f
 3606 02ee 0C       		.uleb128 0xc
 3607 02ef 03       		.uleb128 0x3
 3608 02f0 0E       		.uleb128 0xe
 3609 02f1 3A       		.uleb128 0x3a
 3610 02f2 0B       		.uleb128 0xb
 3611 02f3 3B       		.uleb128 0x3b
 3612 02f4 05       		.uleb128 0x5
 3613 02f5 27       		.uleb128 0x27
 3614 02f6 0C       		.uleb128 0xc
 3615 02f7 3C       		.uleb128 0x3c
 3616 02f8 0C       		.uleb128 0xc
 3617 02f9 00       		.byte	0
 3618 02fa 00       		.byte	0
 3619 02fb 00       		.byte	0
 3620              		.section	.debug_loc,"",%progbits
 3621              	.Ldebug_loc0:
ARM GAS  C:\Users\DNIEL~1\AppData\Local\Temp\ccMkT0BQ.s 			page 65


 3622              	.LLST0:
 3623 0000 00000000 		.4byte	.LFB118
 3624 0004 02000000 		.4byte	.LCFI0
 3625 0008 0200     		.2byte	0x2
 3626 000a 7D       		.byte	0x7d
 3627 000b 00       		.sleb128 0
 3628 000c 02000000 		.4byte	.LCFI0
 3629 0010 04000000 		.4byte	.LCFI1
 3630 0014 0200     		.2byte	0x2
 3631 0016 7D       		.byte	0x7d
 3632 0017 0C       		.sleb128 12
 3633 0018 04000000 		.4byte	.LCFI1
 3634 001c 06000000 		.4byte	.LCFI2
 3635 0020 0200     		.2byte	0x2
 3636 0022 7D       		.byte	0x7d
 3637 0023 10       		.sleb128 16
 3638 0024 06000000 		.4byte	.LCFI2
 3639 0028 1E000000 		.4byte	.LFE118
 3640 002c 0200     		.2byte	0x2
 3641 002e 7D       		.byte	0x7d
 3642 002f 18       		.sleb128 24
 3643 0030 00000000 		.4byte	0
 3644 0034 00000000 		.4byte	0
 3645              	.LLST1:
 3646 0038 00000000 		.4byte	.LVL1
 3647 003c 13000000 		.4byte	.LVL2-1
 3648 0040 0100     		.2byte	0x1
 3649 0042 50       		.byte	0x50
 3650 0043 13000000 		.4byte	.LVL2-1
 3651 0047 1E000000 		.4byte	.LFE118
 3652 004b 0400     		.2byte	0x4
 3653 004d F3       		.byte	0xf3
 3654 004e 01       		.uleb128 0x1
 3655 004f 50       		.byte	0x50
 3656 0050 9F       		.byte	0x9f
 3657 0051 00000000 		.4byte	0
 3658 0055 00000000 		.4byte	0
 3659              	.LLST2:
 3660 0059 00000000 		.4byte	.LFB119
 3661 005d 06000000 		.4byte	.LCFI3
 3662 0061 0200     		.2byte	0x2
 3663 0063 7D       		.byte	0x7d
 3664 0064 00       		.sleb128 0
 3665 0065 06000000 		.4byte	.LCFI3
 3666 0069 1E000000 		.4byte	.LFE119
 3667 006d 0200     		.2byte	0x2
 3668 006f 7D       		.byte	0x7d
 3669 0070 08       		.sleb128 8
 3670 0071 00000000 		.4byte	0
 3671 0075 00000000 		.4byte	0
 3672              	.LLST3:
 3673 0079 00000000 		.4byte	.LFB120
 3674 007d 08000000 		.4byte	.LCFI4
 3675 0081 0200     		.2byte	0x2
 3676 0083 7D       		.byte	0x7d
 3677 0084 00       		.sleb128 0
 3678 0085 08000000 		.4byte	.LCFI4
ARM GAS  C:\Users\DNIEL~1\AppData\Local\Temp\ccMkT0BQ.s 			page 66


 3679 0089 F0010000 		.4byte	.LFE120
 3680 008d 0200     		.2byte	0x2
 3681 008f 7D       		.byte	0x7d
 3682 0090 14       		.sleb128 20
 3683 0091 00000000 		.4byte	0
 3684 0095 00000000 		.4byte	0
 3685              	.LLST4:
 3686 0099 78000000 		.4byte	.LVL22
 3687 009d B2000000 		.4byte	.LVL34
 3688 00a1 0200     		.2byte	0x2
 3689 00a3 31       		.byte	0x31
 3690 00a4 9F       		.byte	0x9f
 3691 00a5 B2000000 		.4byte	.LVL34
 3692 00a9 EC000000 		.4byte	.LVL46
 3693 00ad 0200     		.2byte	0x2
 3694 00af 32       		.byte	0x32
 3695 00b0 9F       		.byte	0x9f
 3696 00b1 EC000000 		.4byte	.LVL46
 3697 00b5 26010000 		.4byte	.LVL58
 3698 00b9 0200     		.2byte	0x2
 3699 00bb 33       		.byte	0x33
 3700 00bc 9F       		.byte	0x9f
 3701 00bd 26010000 		.4byte	.LVL58
 3702 00c1 62010000 		.4byte	.LVL70
 3703 00c5 0200     		.2byte	0x2
 3704 00c7 34       		.byte	0x34
 3705 00c8 9F       		.byte	0x9f
 3706 00c9 62010000 		.4byte	.LVL70
 3707 00cd 9E010000 		.4byte	.LVL82
 3708 00d1 0200     		.2byte	0x2
 3709 00d3 35       		.byte	0x35
 3710 00d4 9F       		.byte	0x9f
 3711 00d5 9E010000 		.4byte	.LVL82
 3712 00d9 D8010000 		.4byte	.LVL94
 3713 00dd 0200     		.2byte	0x2
 3714 00df 36       		.byte	0x36
 3715 00e0 9F       		.byte	0x9f
 3716 00e1 D8010000 		.4byte	.LVL94
 3717 00e5 F0010000 		.4byte	.LFE120
 3718 00e9 0200     		.2byte	0x2
 3719 00eb 37       		.byte	0x37
 3720 00ec 9F       		.byte	0x9f
 3721 00ed 00000000 		.4byte	0
 3722 00f1 00000000 		.4byte	0
 3723              	.LLST5:
 3724 00f5 22000000 		.4byte	.LVL7
 3725 00f9 2A000000 		.4byte	.LVL8
 3726 00fd 0C00     		.2byte	0xc
 3727 00ff 03       		.byte	0x3
 3728 0100 00000000 		.4byte	samples
 3729 0104 94       		.byte	0x94
 3730 0105 02       		.byte	0x2
 3731 0106 0A       		.byte	0xa
 3732 0107 FFFF     		.2byte	0xffff
 3733 0109 1A       		.byte	0x1a
 3734 010a 9F       		.byte	0x9f
 3735 010b 2A000000 		.4byte	.LVL8
ARM GAS  C:\Users\DNIEL~1\AppData\Local\Temp\ccMkT0BQ.s 			page 67


 3736 010f 40000000 		.4byte	.LVL10
 3737 0113 0100     		.2byte	0x1
 3738 0115 57       		.byte	0x57
 3739 0116 40000000 		.4byte	.LVL10
 3740 011a 42000000 		.4byte	.LVL11
 3741 011e 0100     		.2byte	0x1
 3742 0120 56       		.byte	0x56
 3743 0121 42000000 		.4byte	.LVL11
 3744 0125 44000000 		.4byte	.LVL12
 3745 0129 0100     		.2byte	0x1
 3746 012b 55       		.byte	0x55
 3747 012c 44000000 		.4byte	.LVL12
 3748 0130 46000000 		.4byte	.LVL13
 3749 0134 0100     		.2byte	0x1
 3750 0136 54       		.byte	0x54
 3751 0137 46000000 		.4byte	.LVL13
 3752 013b 48000000 		.4byte	.LVL14
 3753 013f 0100     		.2byte	0x1
 3754 0141 50       		.byte	0x50
 3755 0142 48000000 		.4byte	.LVL14
 3756 0146 4A000000 		.4byte	.LVL15
 3757 014a 0100     		.2byte	0x1
 3758 014c 51       		.byte	0x51
 3759 014d 4A000000 		.4byte	.LVL15
 3760 0151 4C000000 		.4byte	.LVL16
 3761 0155 0100     		.2byte	0x1
 3762 0157 53       		.byte	0x53
 3763 0158 4C000000 		.4byte	.LVL16
 3764 015c 78000000 		.4byte	.LVL22
 3765 0160 0100     		.2byte	0x1
 3766 0162 57       		.byte	0x57
 3767 0163 78000000 		.4byte	.LVL22
 3768 0167 7C000000 		.4byte	.LVL23
 3769 016b 0C00     		.2byte	0xc
 3770 016d 03       		.byte	0x3
 3771 016e 02000000 		.4byte	samples+2
 3772 0172 94       		.byte	0x94
 3773 0173 02       		.byte	0x2
 3774 0174 0A       		.byte	0xa
 3775 0175 FFFF     		.2byte	0xffff
 3776 0177 1A       		.byte	0x1a
 3777 0178 9F       		.byte	0x9f
 3778 0179 7C000000 		.4byte	.LVL23
 3779 017d 96000000 		.4byte	.LVL26
 3780 0181 0100     		.2byte	0x1
 3781 0183 58       		.byte	0x58
 3782 0184 96000000 		.4byte	.LVL26
 3783 0188 98000000 		.4byte	.LVL27
 3784 018c 0100     		.2byte	0x1
 3785 018e 57       		.byte	0x57
 3786 018f 98000000 		.4byte	.LVL27
 3787 0193 9A000000 		.4byte	.LVL28
 3788 0197 0100     		.2byte	0x1
 3789 0199 56       		.byte	0x56
 3790 019a 9A000000 		.4byte	.LVL28
 3791 019e 9C000000 		.4byte	.LVL29
 3792 01a2 0100     		.2byte	0x1
ARM GAS  C:\Users\DNIEL~1\AppData\Local\Temp\ccMkT0BQ.s 			page 68


 3793 01a4 55       		.byte	0x55
 3794 01a5 9C000000 		.4byte	.LVL29
 3795 01a9 9E000000 		.4byte	.LVL30
 3796 01ad 0100     		.2byte	0x1
 3797 01af 54       		.byte	0x54
 3798 01b0 9E000000 		.4byte	.LVL30
 3799 01b4 A0000000 		.4byte	.LVL31
 3800 01b8 0100     		.2byte	0x1
 3801 01ba 50       		.byte	0x50
 3802 01bb A0000000 		.4byte	.LVL31
 3803 01bf B2000000 		.4byte	.LVL34
 3804 01c3 0500     		.2byte	0x5
 3805 01c5 77       		.byte	0x77
 3806 01c6 00       		.sleb128 0
 3807 01c7 33       		.byte	0x33
 3808 01c8 26       		.byte	0x26
 3809 01c9 9F       		.byte	0x9f
 3810 01ca B2000000 		.4byte	.LVL34
 3811 01ce B6000000 		.4byte	.LVL35
 3812 01d2 0C00     		.2byte	0xc
 3813 01d4 03       		.byte	0x3
 3814 01d5 04000000 		.4byte	samples+4
 3815 01d9 94       		.byte	0x94
 3816 01da 02       		.byte	0x2
 3817 01db 0A       		.byte	0xa
 3818 01dc FFFF     		.2byte	0xffff
 3819 01de 1A       		.byte	0x1a
 3820 01df 9F       		.byte	0x9f
 3821 01e0 B6000000 		.4byte	.LVL35
 3822 01e4 D0000000 		.4byte	.LVL38
 3823 01e8 0100     		.2byte	0x1
 3824 01ea 58       		.byte	0x58
 3825 01eb D0000000 		.4byte	.LVL38
 3826 01ef D2000000 		.4byte	.LVL39
 3827 01f3 0100     		.2byte	0x1
 3828 01f5 57       		.byte	0x57
 3829 01f6 D2000000 		.4byte	.LVL39
 3830 01fa D4000000 		.4byte	.LVL40
 3831 01fe 0100     		.2byte	0x1
 3832 0200 56       		.byte	0x56
 3833 0201 D4000000 		.4byte	.LVL40
 3834 0205 D6000000 		.4byte	.LVL41
 3835 0209 0100     		.2byte	0x1
 3836 020b 55       		.byte	0x55
 3837 020c D6000000 		.4byte	.LVL41
 3838 0210 D8000000 		.4byte	.LVL42
 3839 0214 0100     		.2byte	0x1
 3840 0216 54       		.byte	0x54
 3841 0217 D8000000 		.4byte	.LVL42
 3842 021b DA000000 		.4byte	.LVL43
 3843 021f 0100     		.2byte	0x1
 3844 0221 50       		.byte	0x50
 3845 0222 DA000000 		.4byte	.LVL43
 3846 0226 EC000000 		.4byte	.LVL46
 3847 022a 0500     		.2byte	0x5
 3848 022c 77       		.byte	0x77
 3849 022d 00       		.sleb128 0
ARM GAS  C:\Users\DNIEL~1\AppData\Local\Temp\ccMkT0BQ.s 			page 69


 3850 022e 33       		.byte	0x33
 3851 022f 26       		.byte	0x26
 3852 0230 9F       		.byte	0x9f
 3853 0231 EC000000 		.4byte	.LVL46
 3854 0235 F0000000 		.4byte	.LVL47
 3855 0239 0C00     		.2byte	0xc
 3856 023b 03       		.byte	0x3
 3857 023c 06000000 		.4byte	samples+6
 3858 0240 94       		.byte	0x94
 3859 0241 02       		.byte	0x2
 3860 0242 0A       		.byte	0xa
 3861 0243 FFFF     		.2byte	0xffff
 3862 0245 1A       		.byte	0x1a
 3863 0246 9F       		.byte	0x9f
 3864 0247 F0000000 		.4byte	.LVL47
 3865 024b 0A010000 		.4byte	.LVL50
 3866 024f 0100     		.2byte	0x1
 3867 0251 58       		.byte	0x58
 3868 0252 0A010000 		.4byte	.LVL50
 3869 0256 0C010000 		.4byte	.LVL51
 3870 025a 0100     		.2byte	0x1
 3871 025c 57       		.byte	0x57
 3872 025d 0C010000 		.4byte	.LVL51
 3873 0261 0E010000 		.4byte	.LVL52
 3874 0265 0100     		.2byte	0x1
 3875 0267 56       		.byte	0x56
 3876 0268 0E010000 		.4byte	.LVL52
 3877 026c 10010000 		.4byte	.LVL53
 3878 0270 0100     		.2byte	0x1
 3879 0272 55       		.byte	0x55
 3880 0273 10010000 		.4byte	.LVL53
 3881 0277 12010000 		.4byte	.LVL54
 3882 027b 0100     		.2byte	0x1
 3883 027d 54       		.byte	0x54
 3884 027e 12010000 		.4byte	.LVL54
 3885 0282 14010000 		.4byte	.LVL55
 3886 0286 0100     		.2byte	0x1
 3887 0288 50       		.byte	0x50
 3888 0289 14010000 		.4byte	.LVL55
 3889 028d 26010000 		.4byte	.LVL58
 3890 0291 0500     		.2byte	0x5
 3891 0293 77       		.byte	0x77
 3892 0294 00       		.sleb128 0
 3893 0295 33       		.byte	0x33
 3894 0296 26       		.byte	0x26
 3895 0297 9F       		.byte	0x9f
 3896 0298 26010000 		.4byte	.LVL58
 3897 029c 2A010000 		.4byte	.LVL59
 3898 02a0 0C00     		.2byte	0xc
 3899 02a2 03       		.byte	0x3
 3900 02a3 08000000 		.4byte	samples+8
 3901 02a7 94       		.byte	0x94
 3902 02a8 02       		.byte	0x2
 3903 02a9 0A       		.byte	0xa
 3904 02aa FFFF     		.2byte	0xffff
 3905 02ac 1A       		.byte	0x1a
 3906 02ad 9F       		.byte	0x9f
ARM GAS  C:\Users\DNIEL~1\AppData\Local\Temp\ccMkT0BQ.s 			page 70


 3907 02ae 2A010000 		.4byte	.LVL59
 3908 02b2 46010000 		.4byte	.LVL62
 3909 02b6 0100     		.2byte	0x1
 3910 02b8 58       		.byte	0x58
 3911 02b9 46010000 		.4byte	.LVL62
 3912 02bd 48010000 		.4byte	.LVL63
 3913 02c1 0100     		.2byte	0x1
 3914 02c3 57       		.byte	0x57
 3915 02c4 48010000 		.4byte	.LVL63
 3916 02c8 4A010000 		.4byte	.LVL64
 3917 02cc 0100     		.2byte	0x1
 3918 02ce 56       		.byte	0x56
 3919 02cf 4A010000 		.4byte	.LVL64
 3920 02d3 4C010000 		.4byte	.LVL65
 3921 02d7 0100     		.2byte	0x1
 3922 02d9 55       		.byte	0x55
 3923 02da 4C010000 		.4byte	.LVL65
 3924 02de 4E010000 		.4byte	.LVL66
 3925 02e2 0100     		.2byte	0x1
 3926 02e4 54       		.byte	0x54
 3927 02e5 4E010000 		.4byte	.LVL66
 3928 02e9 50010000 		.4byte	.LVL67
 3929 02ed 0100     		.2byte	0x1
 3930 02ef 50       		.byte	0x50
 3931 02f0 50010000 		.4byte	.LVL67
 3932 02f4 62010000 		.4byte	.LVL70
 3933 02f8 0500     		.2byte	0x5
 3934 02fa 77       		.byte	0x77
 3935 02fb 00       		.sleb128 0
 3936 02fc 33       		.byte	0x33
 3937 02fd 26       		.byte	0x26
 3938 02fe 9F       		.byte	0x9f
 3939 02ff 62010000 		.4byte	.LVL70
 3940 0303 66010000 		.4byte	.LVL71
 3941 0307 0C00     		.2byte	0xc
 3942 0309 03       		.byte	0x3
 3943 030a 0A000000 		.4byte	samples+10
 3944 030e 94       		.byte	0x94
 3945 030f 02       		.byte	0x2
 3946 0310 0A       		.byte	0xa
 3947 0311 FFFF     		.2byte	0xffff
 3948 0313 1A       		.byte	0x1a
 3949 0314 9F       		.byte	0x9f
 3950 0315 66010000 		.4byte	.LVL71
 3951 0319 80010000 		.4byte	.LVL73
 3952 031d 0100     		.2byte	0x1
 3953 031f 58       		.byte	0x58
 3954 0320 80010000 		.4byte	.LVL73
 3955 0324 82010000 		.4byte	.LVL74
 3956 0328 0100     		.2byte	0x1
 3957 032a 5C       		.byte	0x5c
 3958 032b 82010000 		.4byte	.LVL74
 3959 032f 84010000 		.4byte	.LVL75
 3960 0333 0100     		.2byte	0x1
 3961 0335 57       		.byte	0x57
 3962 0336 84010000 		.4byte	.LVL75
 3963 033a 86010000 		.4byte	.LVL76
ARM GAS  C:\Users\DNIEL~1\AppData\Local\Temp\ccMkT0BQ.s 			page 71


 3964 033e 0100     		.2byte	0x1
 3965 0340 56       		.byte	0x56
 3966 0341 86010000 		.4byte	.LVL76
 3967 0345 88010000 		.4byte	.LVL77
 3968 0349 0100     		.2byte	0x1
 3969 034b 55       		.byte	0x55
 3970 034c 88010000 		.4byte	.LVL77
 3971 0350 8A010000 		.4byte	.LVL78
 3972 0354 0100     		.2byte	0x1
 3973 0356 54       		.byte	0x54
 3974 0357 8A010000 		.4byte	.LVL78
 3975 035b 8C010000 		.4byte	.LVL79
 3976 035f 0100     		.2byte	0x1
 3977 0361 50       		.byte	0x50
 3978 0362 8C010000 		.4byte	.LVL79
 3979 0366 9E010000 		.4byte	.LVL82
 3980 036a 0500     		.2byte	0x5
 3981 036c 77       		.byte	0x77
 3982 036d 00       		.sleb128 0
 3983 036e 33       		.byte	0x33
 3984 036f 26       		.byte	0x26
 3985 0370 9F       		.byte	0x9f
 3986 0371 9E010000 		.4byte	.LVL82
 3987 0375 A2010000 		.4byte	.LVL83
 3988 0379 0C00     		.2byte	0xc
 3989 037b 03       		.byte	0x3
 3990 037c 0C000000 		.4byte	samples+12
 3991 0380 94       		.byte	0x94
 3992 0381 02       		.byte	0x2
 3993 0382 0A       		.byte	0xa
 3994 0383 FFFF     		.2byte	0xffff
 3995 0385 1A       		.byte	0x1a
 3996 0386 9F       		.byte	0x9f
 3997 0387 A2010000 		.4byte	.LVL83
 3998 038b BA010000 		.4byte	.LVL85
 3999 038f 0100     		.2byte	0x1
 4000 0391 5C       		.byte	0x5c
 4001 0392 BA010000 		.4byte	.LVL85
 4002 0396 BC010000 		.4byte	.LVL86
 4003 039a 0100     		.2byte	0x1
 4004 039c 57       		.byte	0x57
 4005 039d BC010000 		.4byte	.LVL86
 4006 03a1 BE010000 		.4byte	.LVL87
 4007 03a5 0100     		.2byte	0x1
 4008 03a7 56       		.byte	0x56
 4009 03a8 BE010000 		.4byte	.LVL87
 4010 03ac C0010000 		.4byte	.LVL88
 4011 03b0 0100     		.2byte	0x1
 4012 03b2 55       		.byte	0x55
 4013 03b3 C0010000 		.4byte	.LVL88
 4014 03b7 C2010000 		.4byte	.LVL89
 4015 03bb 0100     		.2byte	0x1
 4016 03bd 54       		.byte	0x54
 4017 03be C2010000 		.4byte	.LVL89
 4018 03c2 C4010000 		.4byte	.LVL90
 4019 03c6 0100     		.2byte	0x1
 4020 03c8 50       		.byte	0x50
ARM GAS  C:\Users\DNIEL~1\AppData\Local\Temp\ccMkT0BQ.s 			page 72


 4021 03c9 C4010000 		.4byte	.LVL90
 4022 03cd C6010000 		.4byte	.LVL91
 4023 03d1 0100     		.2byte	0x1
 4024 03d3 53       		.byte	0x53
 4025 03d4 C6010000 		.4byte	.LVL91
 4026 03d8 F0010000 		.4byte	.LFE120
 4027 03dc 0500     		.2byte	0x5
 4028 03de 72       		.byte	0x72
 4029 03df 00       		.sleb128 0
 4030 03e0 33       		.byte	0x33
 4031 03e1 26       		.byte	0x26
 4032 03e2 9F       		.byte	0x9f
 4033 03e3 00000000 		.4byte	0
 4034 03e7 00000000 		.4byte	0
 4035              	.LLST6:
 4036 03eb 22000000 		.4byte	.LVL7
 4037 03ef 3E000000 		.4byte	.LVL9
 4038 03f3 0200     		.2byte	0x2
 4039 03f5 31       		.byte	0x31
 4040 03f6 9F       		.byte	0x9f
 4041 03f7 3E000000 		.4byte	.LVL9
 4042 03fb 40000000 		.4byte	.LVL10
 4043 03ff 0200     		.2byte	0x2
 4044 0401 32       		.byte	0x32
 4045 0402 9F       		.byte	0x9f
 4046 0403 40000000 		.4byte	.LVL10
 4047 0407 42000000 		.4byte	.LVL11
 4048 040b 0200     		.2byte	0x2
 4049 040d 33       		.byte	0x33
 4050 040e 9F       		.byte	0x9f
 4051 040f 42000000 		.4byte	.LVL11
 4052 0413 44000000 		.4byte	.LVL12
 4053 0417 0200     		.2byte	0x2
 4054 0419 34       		.byte	0x34
 4055 041a 9F       		.byte	0x9f
 4056 041b 44000000 		.4byte	.LVL12
 4057 041f 46000000 		.4byte	.LVL13
 4058 0423 0200     		.2byte	0x2
 4059 0425 35       		.byte	0x35
 4060 0426 9F       		.byte	0x9f
 4061 0427 46000000 		.4byte	.LVL13
 4062 042b 48000000 		.4byte	.LVL14
 4063 042f 0200     		.2byte	0x2
 4064 0431 36       		.byte	0x36
 4065 0432 9F       		.byte	0x9f
 4066 0433 48000000 		.4byte	.LVL14
 4067 0437 4A000000 		.4byte	.LVL15
 4068 043b 0200     		.2byte	0x2
 4069 043d 37       		.byte	0x37
 4070 043e 9F       		.byte	0x9f
 4071 043f 4A000000 		.4byte	.LVL15
 4072 0443 78000000 		.4byte	.LVL22
 4073 0447 0200     		.2byte	0x2
 4074 0449 38       		.byte	0x38
 4075 044a 9F       		.byte	0x9f
 4076 044b 78000000 		.4byte	.LVL22
 4077 044f 94000000 		.4byte	.LVL25
ARM GAS  C:\Users\DNIEL~1\AppData\Local\Temp\ccMkT0BQ.s 			page 73


 4078 0453 0200     		.2byte	0x2
 4079 0455 31       		.byte	0x31
 4080 0456 9F       		.byte	0x9f
 4081 0457 94000000 		.4byte	.LVL25
 4082 045b 96000000 		.4byte	.LVL26
 4083 045f 0200     		.2byte	0x2
 4084 0461 32       		.byte	0x32
 4085 0462 9F       		.byte	0x9f
 4086 0463 96000000 		.4byte	.LVL26
 4087 0467 98000000 		.4byte	.LVL27
 4088 046b 0200     		.2byte	0x2
 4089 046d 33       		.byte	0x33
 4090 046e 9F       		.byte	0x9f
 4091 046f 98000000 		.4byte	.LVL27
 4092 0473 9A000000 		.4byte	.LVL28
 4093 0477 0200     		.2byte	0x2
 4094 0479 34       		.byte	0x34
 4095 047a 9F       		.byte	0x9f
 4096 047b 9A000000 		.4byte	.LVL28
 4097 047f 9C000000 		.4byte	.LVL29
 4098 0483 0200     		.2byte	0x2
 4099 0485 35       		.byte	0x35
 4100 0486 9F       		.byte	0x9f
 4101 0487 9C000000 		.4byte	.LVL29
 4102 048b 9E000000 		.4byte	.LVL30
 4103 048f 0200     		.2byte	0x2
 4104 0491 36       		.byte	0x36
 4105 0492 9F       		.byte	0x9f
 4106 0493 9E000000 		.4byte	.LVL30
 4107 0497 A0000000 		.4byte	.LVL31
 4108 049b 0200     		.2byte	0x2
 4109 049d 37       		.byte	0x37
 4110 049e 9F       		.byte	0x9f
 4111 049f A0000000 		.4byte	.LVL31
 4112 04a3 B2000000 		.4byte	.LVL34
 4113 04a7 0200     		.2byte	0x2
 4114 04a9 38       		.byte	0x38
 4115 04aa 9F       		.byte	0x9f
 4116 04ab B2000000 		.4byte	.LVL34
 4117 04af CE000000 		.4byte	.LVL37
 4118 04b3 0200     		.2byte	0x2
 4119 04b5 31       		.byte	0x31
 4120 04b6 9F       		.byte	0x9f
 4121 04b7 CE000000 		.4byte	.LVL37
 4122 04bb D0000000 		.4byte	.LVL38
 4123 04bf 0200     		.2byte	0x2
 4124 04c1 32       		.byte	0x32
 4125 04c2 9F       		.byte	0x9f
 4126 04c3 D0000000 		.4byte	.LVL38
 4127 04c7 D2000000 		.4byte	.LVL39
 4128 04cb 0200     		.2byte	0x2
 4129 04cd 33       		.byte	0x33
 4130 04ce 9F       		.byte	0x9f
 4131 04cf D2000000 		.4byte	.LVL39
 4132 04d3 D4000000 		.4byte	.LVL40
 4133 04d7 0200     		.2byte	0x2
 4134 04d9 34       		.byte	0x34
ARM GAS  C:\Users\DNIEL~1\AppData\Local\Temp\ccMkT0BQ.s 			page 74


 4135 04da 9F       		.byte	0x9f
 4136 04db D4000000 		.4byte	.LVL40
 4137 04df D6000000 		.4byte	.LVL41
 4138 04e3 0200     		.2byte	0x2
 4139 04e5 35       		.byte	0x35
 4140 04e6 9F       		.byte	0x9f
 4141 04e7 D6000000 		.4byte	.LVL41
 4142 04eb D8000000 		.4byte	.LVL42
 4143 04ef 0200     		.2byte	0x2
 4144 04f1 36       		.byte	0x36
 4145 04f2 9F       		.byte	0x9f
 4146 04f3 D8000000 		.4byte	.LVL42
 4147 04f7 DA000000 		.4byte	.LVL43
 4148 04fb 0200     		.2byte	0x2
 4149 04fd 37       		.byte	0x37
 4150 04fe 9F       		.byte	0x9f
 4151 04ff DA000000 		.4byte	.LVL43
 4152 0503 EC000000 		.4byte	.LVL46
 4153 0507 0200     		.2byte	0x2
 4154 0509 38       		.byte	0x38
 4155 050a 9F       		.byte	0x9f
 4156 050b EC000000 		.4byte	.LVL46
 4157 050f 08010000 		.4byte	.LVL49
 4158 0513 0200     		.2byte	0x2
 4159 0515 31       		.byte	0x31
 4160 0516 9F       		.byte	0x9f
 4161 0517 08010000 		.4byte	.LVL49
 4162 051b 0A010000 		.4byte	.LVL50
 4163 051f 0200     		.2byte	0x2
 4164 0521 32       		.byte	0x32
 4165 0522 9F       		.byte	0x9f
 4166 0523 0A010000 		.4byte	.LVL50
 4167 0527 0C010000 		.4byte	.LVL51
 4168 052b 0200     		.2byte	0x2
 4169 052d 33       		.byte	0x33
 4170 052e 9F       		.byte	0x9f
 4171 052f 0C010000 		.4byte	.LVL51
 4172 0533 0E010000 		.4byte	.LVL52
 4173 0537 0200     		.2byte	0x2
 4174 0539 34       		.byte	0x34
 4175 053a 9F       		.byte	0x9f
 4176 053b 0E010000 		.4byte	.LVL52
 4177 053f 10010000 		.4byte	.LVL53
 4178 0543 0200     		.2byte	0x2
 4179 0545 35       		.byte	0x35
 4180 0546 9F       		.byte	0x9f
 4181 0547 10010000 		.4byte	.LVL53
 4182 054b 12010000 		.4byte	.LVL54
 4183 054f 0200     		.2byte	0x2
 4184 0551 36       		.byte	0x36
 4185 0552 9F       		.byte	0x9f
 4186 0553 12010000 		.4byte	.LVL54
 4187 0557 14010000 		.4byte	.LVL55
 4188 055b 0200     		.2byte	0x2
 4189 055d 37       		.byte	0x37
 4190 055e 9F       		.byte	0x9f
 4191 055f 14010000 		.4byte	.LVL55
ARM GAS  C:\Users\DNIEL~1\AppData\Local\Temp\ccMkT0BQ.s 			page 75


 4192 0563 26010000 		.4byte	.LVL58
 4193 0567 0200     		.2byte	0x2
 4194 0569 38       		.byte	0x38
 4195 056a 9F       		.byte	0x9f
 4196 056b 26010000 		.4byte	.LVL58
 4197 056f 44010000 		.4byte	.LVL61
 4198 0573 0200     		.2byte	0x2
 4199 0575 31       		.byte	0x31
 4200 0576 9F       		.byte	0x9f
 4201 0577 44010000 		.4byte	.LVL61
 4202 057b 46010000 		.4byte	.LVL62
 4203 057f 0200     		.2byte	0x2
 4204 0581 32       		.byte	0x32
 4205 0582 9F       		.byte	0x9f
 4206 0583 46010000 		.4byte	.LVL62
 4207 0587 48010000 		.4byte	.LVL63
 4208 058b 0200     		.2byte	0x2
 4209 058d 33       		.byte	0x33
 4210 058e 9F       		.byte	0x9f
 4211 058f 48010000 		.4byte	.LVL63
 4212 0593 4A010000 		.4byte	.LVL64
 4213 0597 0200     		.2byte	0x2
 4214 0599 34       		.byte	0x34
 4215 059a 9F       		.byte	0x9f
 4216 059b 4A010000 		.4byte	.LVL64
 4217 059f 4C010000 		.4byte	.LVL65
 4218 05a3 0200     		.2byte	0x2
 4219 05a5 35       		.byte	0x35
 4220 05a6 9F       		.byte	0x9f
 4221 05a7 4C010000 		.4byte	.LVL65
 4222 05ab 4E010000 		.4byte	.LVL66
 4223 05af 0200     		.2byte	0x2
 4224 05b1 36       		.byte	0x36
 4225 05b2 9F       		.byte	0x9f
 4226 05b3 4E010000 		.4byte	.LVL66
 4227 05b7 50010000 		.4byte	.LVL67
 4228 05bb 0200     		.2byte	0x2
 4229 05bd 37       		.byte	0x37
 4230 05be 9F       		.byte	0x9f
 4231 05bf 50010000 		.4byte	.LVL67
 4232 05c3 62010000 		.4byte	.LVL70
 4233 05c7 0200     		.2byte	0x2
 4234 05c9 38       		.byte	0x38
 4235 05ca 9F       		.byte	0x9f
 4236 05cb 62010000 		.4byte	.LVL70
 4237 05cf 80010000 		.4byte	.LVL73
 4238 05d3 0200     		.2byte	0x2
 4239 05d5 31       		.byte	0x31
 4240 05d6 9F       		.byte	0x9f
 4241 05d7 80010000 		.4byte	.LVL73
 4242 05db 82010000 		.4byte	.LVL74
 4243 05df 0200     		.2byte	0x2
 4244 05e1 32       		.byte	0x32
 4245 05e2 9F       		.byte	0x9f
 4246 05e3 82010000 		.4byte	.LVL74
 4247 05e7 84010000 		.4byte	.LVL75
 4248 05eb 0200     		.2byte	0x2
ARM GAS  C:\Users\DNIEL~1\AppData\Local\Temp\ccMkT0BQ.s 			page 76


 4249 05ed 33       		.byte	0x33
 4250 05ee 9F       		.byte	0x9f
 4251 05ef 84010000 		.4byte	.LVL75
 4252 05f3 86010000 		.4byte	.LVL76
 4253 05f7 0200     		.2byte	0x2
 4254 05f9 34       		.byte	0x34
 4255 05fa 9F       		.byte	0x9f
 4256 05fb 86010000 		.4byte	.LVL76
 4257 05ff 88010000 		.4byte	.LVL77
 4258 0603 0200     		.2byte	0x2
 4259 0605 35       		.byte	0x35
 4260 0606 9F       		.byte	0x9f
 4261 0607 88010000 		.4byte	.LVL77
 4262 060b 8A010000 		.4byte	.LVL78
 4263 060f 0200     		.2byte	0x2
 4264 0611 36       		.byte	0x36
 4265 0612 9F       		.byte	0x9f
 4266 0613 8A010000 		.4byte	.LVL78
 4267 0617 8C010000 		.4byte	.LVL79
 4268 061b 0200     		.2byte	0x2
 4269 061d 37       		.byte	0x37
 4270 061e 9F       		.byte	0x9f
 4271 061f 8C010000 		.4byte	.LVL79
 4272 0623 9E010000 		.4byte	.LVL82
 4273 0627 0200     		.2byte	0x2
 4274 0629 38       		.byte	0x38
 4275 062a 9F       		.byte	0x9f
 4276 062b 9E010000 		.4byte	.LVL82
 4277 062f BA010000 		.4byte	.LVL85
 4278 0633 0200     		.2byte	0x2
 4279 0635 31       		.byte	0x31
 4280 0636 9F       		.byte	0x9f
 4281 0637 BA010000 		.4byte	.LVL85
 4282 063b BC010000 		.4byte	.LVL86
 4283 063f 0200     		.2byte	0x2
 4284 0641 32       		.byte	0x32
 4285 0642 9F       		.byte	0x9f
 4286 0643 BC010000 		.4byte	.LVL86
 4287 0647 BE010000 		.4byte	.LVL87
 4288 064b 0200     		.2byte	0x2
 4289 064d 33       		.byte	0x33
 4290 064e 9F       		.byte	0x9f
 4291 064f BE010000 		.4byte	.LVL87
 4292 0653 C0010000 		.4byte	.LVL88
 4293 0657 0200     		.2byte	0x2
 4294 0659 34       		.byte	0x34
 4295 065a 9F       		.byte	0x9f
 4296 065b C0010000 		.4byte	.LVL88
 4297 065f C2010000 		.4byte	.LVL89
 4298 0663 0200     		.2byte	0x2
 4299 0665 35       		.byte	0x35
 4300 0666 9F       		.byte	0x9f
 4301 0667 C2010000 		.4byte	.LVL89
 4302 066b C4010000 		.4byte	.LVL90
 4303 066f 0200     		.2byte	0x2
 4304 0671 36       		.byte	0x36
 4305 0672 9F       		.byte	0x9f
ARM GAS  C:\Users\DNIEL~1\AppData\Local\Temp\ccMkT0BQ.s 			page 77


 4306 0673 C4010000 		.4byte	.LVL90
 4307 0677 C6010000 		.4byte	.LVL91
 4308 067b 0200     		.2byte	0x2
 4309 067d 37       		.byte	0x37
 4310 067e 9F       		.byte	0x9f
 4311 067f C6010000 		.4byte	.LVL91
 4312 0683 F0010000 		.4byte	.LFE120
 4313 0687 0200     		.2byte	0x2
 4314 0689 38       		.byte	0x38
 4315 068a 9F       		.byte	0x9f
 4316 068b 00000000 		.4byte	0
 4317 068f 00000000 		.4byte	0
 4318              	.LLST7:
 4319 0693 6E000000 		.4byte	.LVL20
 4320 0697 72000000 		.4byte	.LVL21
 4321 069b 0100     		.2byte	0x1
 4322 069d 53       		.byte	0x53
 4323 069e A6000000 		.4byte	.LVL32
 4324 06a2 AA000000 		.4byte	.LVL33
 4325 06a6 0100     		.2byte	0x1
 4326 06a8 53       		.byte	0x53
 4327 06a9 E0000000 		.4byte	.LVL44
 4328 06ad E4000000 		.4byte	.LVL45
 4329 06b1 0100     		.2byte	0x1
 4330 06b3 53       		.byte	0x53
 4331 06b4 1A010000 		.4byte	.LVL56
 4332 06b8 1E010000 		.4byte	.LVL57
 4333 06bc 0100     		.2byte	0x1
 4334 06be 53       		.byte	0x53
 4335 06bf 56010000 		.4byte	.LVL68
 4336 06c3 5A010000 		.4byte	.LVL69
 4337 06c7 0100     		.2byte	0x1
 4338 06c9 53       		.byte	0x53
 4339 06ca 92010000 		.4byte	.LVL80
 4340 06ce 96010000 		.4byte	.LVL81
 4341 06d2 0100     		.2byte	0x1
 4342 06d4 53       		.byte	0x53
 4343 06d5 CC010000 		.4byte	.LVL92
 4344 06d9 D4010000 		.4byte	.LVL93
 4345 06dd 0100     		.2byte	0x1
 4346 06df 53       		.byte	0x53
 4347 06e0 00000000 		.4byte	0
 4348 06e4 00000000 		.4byte	0
 4349              	.LLST8:
 4350 06e8 0E000000 		.4byte	.LVL4
 4351 06ec 16000000 		.4byte	.LVL5
 4352 06f0 0100     		.2byte	0x1
 4353 06f2 53       		.byte	0x53
 4354 06f3 78000000 		.4byte	.LVL22
 4355 06f7 92000000 		.4byte	.LVL24
 4356 06fb 0100     		.2byte	0x1
 4357 06fd 53       		.byte	0x53
 4358 06fe B2000000 		.4byte	.LVL34
 4359 0702 CC000000 		.4byte	.LVL36
 4360 0706 0100     		.2byte	0x1
 4361 0708 53       		.byte	0x53
 4362 0709 EC000000 		.4byte	.LVL46
ARM GAS  C:\Users\DNIEL~1\AppData\Local\Temp\ccMkT0BQ.s 			page 78


 4363 070d 06010000 		.4byte	.LVL48
 4364 0711 0100     		.2byte	0x1
 4365 0713 53       		.byte	0x53
 4366 0714 26010000 		.4byte	.LVL58
 4367 0718 42010000 		.4byte	.LVL60
 4368 071c 0100     		.2byte	0x1
 4369 071e 53       		.byte	0x53
 4370 071f 62010000 		.4byte	.LVL70
 4371 0723 7E010000 		.4byte	.LVL72
 4372 0727 0100     		.2byte	0x1
 4373 0729 53       		.byte	0x53
 4374 072a 9E010000 		.4byte	.LVL82
 4375 072e B4010000 		.4byte	.LVL84
 4376 0732 0100     		.2byte	0x1
 4377 0734 53       		.byte	0x53
 4378 0735 D8010000 		.4byte	.LVL94
 4379 0739 F0010000 		.4byte	.LFE120
 4380 073d 0100     		.2byte	0x1
 4381 073f 53       		.byte	0x53
 4382 0740 00000000 		.4byte	0
 4383 0744 00000000 		.4byte	0
 4384              	.LLST9:
 4385 0748 00000000 		.4byte	.LVL95
 4386 074c 0C000000 		.4byte	.LVL96
 4387 0750 0100     		.2byte	0x1
 4388 0752 50       		.byte	0x50
 4389 0753 0C000000 		.4byte	.LVL96
 4390 0757 0E000000 		.4byte	.LFE121
 4391 075b 0400     		.2byte	0x4
 4392 075d F3       		.byte	0xf3
 4393 075e 01       		.uleb128 0x1
 4394 075f 50       		.byte	0x50
 4395 0760 9F       		.byte	0x9f
 4396 0761 00000000 		.4byte	0
 4397 0765 00000000 		.4byte	0
 4398              	.LLST10:
 4399 0769 00000000 		.4byte	.LFB123
 4400 076d 02000000 		.4byte	.LCFI5
 4401 0771 0200     		.2byte	0x2
 4402 0773 7D       		.byte	0x7d
 4403 0774 00       		.sleb128 0
 4404 0775 02000000 		.4byte	.LCFI5
 4405 0779 C0000000 		.4byte	.LFE123
 4406 077d 0200     		.2byte	0x2
 4407 077f 7D       		.byte	0x7d
 4408 0780 10       		.sleb128 16
 4409 0781 00000000 		.4byte	0
 4410 0785 00000000 		.4byte	0
 4411              	.LLST11:
 4412 0789 00000000 		.4byte	.LVL97
 4413 078d 0B000000 		.4byte	.LVL99-1
 4414 0791 0100     		.2byte	0x1
 4415 0793 50       		.byte	0x50
 4416 0794 0B000000 		.4byte	.LVL99-1
 4417 0798 16000000 		.4byte	.LVL101
 4418 079c 0100     		.2byte	0x1
 4419 079e 54       		.byte	0x54
ARM GAS  C:\Users\DNIEL~1\AppData\Local\Temp\ccMkT0BQ.s 			page 79


 4420 079f 16000000 		.4byte	.LVL101
 4421 07a3 19000000 		.4byte	.LVL102-1
 4422 07a7 0100     		.2byte	0x1
 4423 07a9 50       		.byte	0x50
 4424 07aa 19000000 		.4byte	.LVL102-1
 4425 07ae 8C000000 		.4byte	.LVL112
 4426 07b2 0100     		.2byte	0x1
 4427 07b4 54       		.byte	0x54
 4428 07b5 8C000000 		.4byte	.LVL112
 4429 07b9 C0000000 		.4byte	.LFE123
 4430 07bd 0100     		.2byte	0x1
 4431 07bf 50       		.byte	0x50
 4432 07c0 00000000 		.4byte	0
 4433 07c4 00000000 		.4byte	0
 4434              	.LLST12:
 4435 07c8 00000000 		.4byte	.LVL97
 4436 07cc 04000000 		.4byte	.LVL98
 4437 07d0 0100     		.2byte	0x1
 4438 07d2 51       		.byte	0x51
 4439 07d3 04000000 		.4byte	.LVL98
 4440 07d7 C0000000 		.4byte	.LFE123
 4441 07db 0400     		.2byte	0x4
 4442 07dd F3       		.byte	0xf3
 4443 07de 01       		.uleb128 0x1
 4444 07df 51       		.byte	0x51
 4445 07e0 9F       		.byte	0x9f
 4446 07e1 00000000 		.4byte	0
 4447 07e5 00000000 		.4byte	0
 4448              	.LLST13:
 4449 07e9 00000000 		.4byte	.LVL97
 4450 07ed 0B000000 		.4byte	.LVL99-1
 4451 07f1 0100     		.2byte	0x1
 4452 07f3 52       		.byte	0x52
 4453 07f4 0B000000 		.4byte	.LVL99-1
 4454 07f8 C0000000 		.4byte	.LFE123
 4455 07fc 0400     		.2byte	0x4
 4456 07fe F3       		.byte	0xf3
 4457 07ff 01       		.uleb128 0x1
 4458 0800 52       		.byte	0x52
 4459 0801 9F       		.byte	0x9f
 4460 0802 00000000 		.4byte	0
 4461 0806 00000000 		.4byte	0
 4462              	.LLST14:
 4463 080a 1A000000 		.4byte	.LVL102
 4464 080e 26000000 		.4byte	.LVL103
 4465 0812 0200     		.2byte	0x2
 4466 0814 30       		.byte	0x30
 4467 0815 9F       		.byte	0x9f
 4468 0816 26000000 		.4byte	.LVL103
 4469 081a 32000000 		.4byte	.LVL104
 4470 081e 0200     		.2byte	0x2
 4471 0820 31       		.byte	0x31
 4472 0821 9F       		.byte	0x9f
 4473 0822 32000000 		.4byte	.LVL104
 4474 0826 3E000000 		.4byte	.LVL105
 4475 082a 0200     		.2byte	0x2
 4476 082c 32       		.byte	0x32
ARM GAS  C:\Users\DNIEL~1\AppData\Local\Temp\ccMkT0BQ.s 			page 80


 4477 082d 9F       		.byte	0x9f
 4478 082e 3E000000 		.4byte	.LVL105
 4479 0832 4A000000 		.4byte	.LVL106
 4480 0836 0200     		.2byte	0x2
 4481 0838 33       		.byte	0x33
 4482 0839 9F       		.byte	0x9f
 4483 083a 4A000000 		.4byte	.LVL106
 4484 083e 56000000 		.4byte	.LVL107
 4485 0842 0200     		.2byte	0x2
 4486 0844 34       		.byte	0x34
 4487 0845 9F       		.byte	0x9f
 4488 0846 56000000 		.4byte	.LVL107
 4489 084a 62000000 		.4byte	.LVL108
 4490 084e 0200     		.2byte	0x2
 4491 0850 35       		.byte	0x35
 4492 0851 9F       		.byte	0x9f
 4493 0852 62000000 		.4byte	.LVL108
 4494 0856 6E000000 		.4byte	.LVL109
 4495 085a 0200     		.2byte	0x2
 4496 085c 36       		.byte	0x36
 4497 085d 9F       		.byte	0x9f
 4498 085e 6E000000 		.4byte	.LVL109
 4499 0862 76000000 		.4byte	.LVL110
 4500 0866 0200     		.2byte	0x2
 4501 0868 37       		.byte	0x37
 4502 0869 9F       		.byte	0x9f
 4503 086a 00000000 		.4byte	0
 4504 086e 00000000 		.4byte	0
 4505              		.section	.debug_aranges,"",%progbits
 4506 0000 44000000 		.4byte	0x44
 4507 0004 0200     		.2byte	0x2
 4508 0006 00000000 		.4byte	.Ldebug_info0
 4509 000a 04       		.byte	0x4
 4510 000b 00       		.byte	0
 4511 000c 0000     		.2byte	0
 4512 000e 0000     		.2byte	0
 4513 0010 00000000 		.4byte	.LFB122
 4514 0014 02000000 		.4byte	.LFE122-.LFB122
 4515 0018 00000000 		.4byte	.LFB118
 4516 001c 1E000000 		.4byte	.LFE118-.LFB118
 4517 0020 00000000 		.4byte	.LFB119
 4518 0024 1E000000 		.4byte	.LFE119-.LFB119
 4519 0028 00000000 		.4byte	.LFB120
 4520 002c F0010000 		.4byte	.LFE120-.LFB120
 4521 0030 00000000 		.4byte	.LFB121
 4522 0034 0E000000 		.4byte	.LFE121-.LFB121
 4523 0038 00000000 		.4byte	.LFB123
 4524 003c C0000000 		.4byte	.LFE123-.LFB123
 4525 0040 00000000 		.4byte	0
 4526 0044 00000000 		.4byte	0
 4527              		.section	.debug_ranges,"",%progbits
 4528              	.Ldebug_ranges0:
 4529 0000 68000000 		.4byte	.LBB2
 4530 0004 6E000000 		.4byte	.LBE2
 4531 0008 A0000000 		.4byte	.LBB5
 4532 000c A6000000 		.4byte	.LBE5
 4533 0010 DA000000 		.4byte	.LBB7
ARM GAS  C:\Users\DNIEL~1\AppData\Local\Temp\ccMkT0BQ.s 			page 81


 4534 0014 E0000000 		.4byte	.LBE7
 4535 0018 14010000 		.4byte	.LBB9
 4536 001c 1A010000 		.4byte	.LBE9
 4537 0020 50010000 		.4byte	.LBB11
 4538 0024 56010000 		.4byte	.LBE11
 4539 0028 8C010000 		.4byte	.LBB13
 4540 002c 92010000 		.4byte	.LBE13
 4541 0030 C6010000 		.4byte	.LBB15
 4542 0034 CC010000 		.4byte	.LBE15
 4543 0038 00000000 		.4byte	0
 4544 003c 00000000 		.4byte	0
 4545 0040 70000000 		.4byte	.LBB3
 4546 0044 72000000 		.4byte	.LBE3
 4547 0048 74000000 		.4byte	.LBB4
 4548 004c 78000000 		.4byte	.LBE4
 4549 0050 AC000000 		.4byte	.LBB6
 4550 0054 B2000000 		.4byte	.LBE6
 4551 0058 E6000000 		.4byte	.LBB8
 4552 005c EC000000 		.4byte	.LBE8
 4553 0060 20010000 		.4byte	.LBB10
 4554 0064 26010000 		.4byte	.LBE10
 4555 0068 5C010000 		.4byte	.LBB12
 4556 006c 62010000 		.4byte	.LBE12
 4557 0070 98010000 		.4byte	.LBB14
 4558 0074 9E010000 		.4byte	.LBE14
 4559 0078 D2010000 		.4byte	.LBB16
 4560 007c F0010000 		.4byte	.LBE16
 4561 0080 00000000 		.4byte	0
 4562 0084 00000000 		.4byte	0
 4563 0088 00000000 		.4byte	.LFB122
 4564 008c 02000000 		.4byte	.LFE122
 4565 0090 00000000 		.4byte	.LFB118
 4566 0094 1E000000 		.4byte	.LFE118
 4567 0098 00000000 		.4byte	.LFB119
 4568 009c 1E000000 		.4byte	.LFE119
 4569 00a0 00000000 		.4byte	.LFB120
 4570 00a4 F0010000 		.4byte	.LFE120
 4571 00a8 00000000 		.4byte	.LFB121
 4572 00ac 0E000000 		.4byte	.LFE121
 4573 00b0 00000000 		.4byte	.LFB123
 4574 00b4 C0000000 		.4byte	.LFE123
 4575 00b8 00000000 		.4byte	0
 4576 00bc 00000000 		.4byte	0
 4577              		.section	.debug_line,"",%progbits
 4578              	.Ldebug_line0:
 4579 0000 CD030000 		.section	.debug_str,"MS",%progbits,1
 4579      0200DC02 
 4579      00000201 
 4579      FB0E0D00 
 4579      01010101 
 4580              	.LASF80:
 4581 0000 4D304152 		.ascii	"M0AR\000"
 4581      00
 4582              	.LASF2:
 4583 0005 73697A65 		.ascii	"size_t\000"
 4583      5F7400
 4584              	.LASF55:
ARM GAS  C:\Users\DNIEL~1\AppData\Local\Temp\ccMkT0BQ.s 			page 82


 4585 000c 7264796D 		.ascii	"rdymsg\000"
 4585      736700
 4586              	.LASF116:
 4587 0013 646D616D 		.ascii	"dmamode\000"
 4587      6F646500 
 4588              	.LASF101:
 4589 001b 61646373 		.ascii	"adcstate_t\000"
 4589      74617465 
 4589      5F7400
 4590              	.LASF87:
 4591 0026 76656374 		.ascii	"vector\000"
 4591      6F7200
 4592              	.LASF142:
 4593 002d 76615F6C 		.ascii	"va_list\000"
 4593      69737400 
 4594              	.LASF83:
 4595 0035 73747265 		.ascii	"stream\000"
 4595      616D00
 4596              	.LASF14:
 4597 003c 6C6F6E67 		.ascii	"long long unsigned int\000"
 4597      206C6F6E 
 4597      6720756E 
 4597      7369676E 
 4597      65642069 
 4598              	.LASF89:
 4599 0053 42617365 		.ascii	"BaseChannelVMT\000"
 4599      4368616E 
 4599      6E656C56 
 4599      4D5400
 4600              	.LASF56:
 4601 0062 65786974 		.ascii	"exitcode\000"
 4601      636F6465 
 4601      00
 4602              	.LASF95:
 4603 006b 4144435F 		.ascii	"ADC_UNINIT\000"
 4603      554E494E 
 4603      495400
 4604              	.LASF156:
 4605 0076 61646367 		.ascii	"adcgrpcfg\000"
 4605      72706366 
 4605      6700
 4606              	.LASF157:
 4607 0080 49544D5F 		.ascii	"ITM_RxBuffer\000"
 4607      52784275 
 4607      66666572 
 4607      00
 4608              	.LASF150:
 4609 008d 6D656173 		.ascii	"measInit\000"
 4609      496E6974 
 4609      00
 4610              	.LASF28:
 4611 0096 705F7072 		.ascii	"p_prio\000"
 4611      696F00
 4612              	.LASF93:
 4613 009d 72656164 		.ascii	"readt\000"
 4613      7400
 4614              	.LASF73:
ARM GAS  C:\Users\DNIEL~1\AppData\Local\Temp\ccMkT0BQ.s 			page 83


 4615 00a3 4A535152 		.ascii	"JSQR\000"
 4615      00
 4616              	.LASF5:
 4617 00a8 696E7431 		.ascii	"int16_t\000"
 4617      365F7400 
 4618              	.LASF13:
 4619 00b0 6C6F6E67 		.ascii	"long long int\000"
 4619      206C6F6E 
 4619      6720696E 
 4619      7400
 4620              	.LASF1:
 4621 00be 7369676E 		.ascii	"signed char\000"
 4621      65642063 
 4621      68617200 
 4622              	.LASF44:
 4623 00ca 705F6D70 		.ascii	"p_mpool\000"
 4623      6F6F6C00 
 4624              	.LASF15:
 4625 00d2 626F6F6C 		.ascii	"bool_t\000"
 4625      5F7400
 4626              	.LASF131:
 4627 00d9 4D454153 		.ascii	"MEAS_UBAT\000"
 4627      5F554241 
 4627      5400
 4628              	.LASF106:
 4629 00e3 61646365 		.ascii	"adcerror_t\000"
 4629      72726F72 
 4629      5F7400
 4630              	.LASF115:
 4631 00ee 646D6173 		.ascii	"dmastp\000"
 4631      747000
 4632              	.LASF108:
 4633 00f5 73746174 		.ascii	"state\000"
 4633      6500
 4634              	.LASF119:
 4635 00fb 63697263 		.ascii	"circular\000"
 4635      756C6172 
 4635      00
 4636              	.LASF10:
 4637 0104 6C6F6E67 		.ascii	"long int\000"
 4637      20696E74 
 4637      00
 4638              	.LASF104:
 4639 010d 4144435F 		.ascii	"ADC_ERR_DMAFAILURE\000"
 4639      4552525F 
 4639      444D4146 
 4639      41494C55 
 4639      524500
 4640              	.LASF118:
 4641 0120 61646365 		.ascii	"adcerrorcallback_t\000"
 4641      72726F72 
 4641      63616C6C 
 4641      6261636B 
 4641      5F7400
 4642              	.LASF18:
 4643 0133 74737461 		.ascii	"tstate_t\000"
 4643      74655F74 
ARM GAS  C:\Users\DNIEL~1\AppData\Local\Temp\ccMkT0BQ.s 			page 84


 4643      00
 4644              	.LASF140:
 4645 013c 5F5F7661 		.ascii	"__va_list\000"
 4645      5F6C6973 
 4645      7400
 4646              	.LASF113:
 4647 0146 74687265 		.ascii	"thread\000"
 4647      616400
 4648              	.LASF7:
 4649 014d 75696E74 		.ascii	"uint16_t\000"
 4649      31365F74 
 4649      00
 4650              	.LASF37:
 4651 0156 705F7469 		.ascii	"p_time\000"
 4651      6D6500
 4652              	.LASF78:
 4653 015d 4144435F 		.ascii	"ADC_TypeDef\000"
 4653      54797065 
 4653      44656600 
 4654              	.LASF30:
 4655 0169 705F6E65 		.ascii	"p_newer\000"
 4655      77657200 
 4656              	.LASF121:
 4657 0171 656E645F 		.ascii	"end_cb\000"
 4657      636200
 4658              	.LASF117:
 4659 0178 61646363 		.ascii	"adccallback_t\000"
 4659      616C6C62 
 4659      61636B5F 
 4659      7400
 4660              	.LASF167:
 4661 0186 61646343 		.ascii	"adcConvert\000"
 4661      6F6E7665 
 4661      727400
 4662              	.LASF102:
 4663 0191 61646373 		.ascii	"adcsample_t\000"
 4663      616D706C 
 4663      655F7400 
 4664              	.LASF130:
 4665 019d 41444343 		.ascii	"ADCConfig\000"
 4665      6F6E6669 
 4665      6700
 4666              	.LASF47:
 4667 01a7 72656761 		.ascii	"regarm_t\000"
 4667      726D5F74 
 4667      00
 4668              	.LASF86:
 4669 01b0 73656C66 		.ascii	"selfindex\000"
 4669      696E6465 
 4669      7800
 4670              	.LASF138:
 4671 01ba 4D454153 		.ascii	"MEAS_NUM_CH\000"
 4671      5F4E554D 
 4671      5F434800 
 4672              	.LASF105:
 4673 01c6 4144435F 		.ascii	"ADC_ERR_OVERFLOW\000"
 4673      4552525F 
ARM GAS  C:\Users\DNIEL~1\AppData\Local\Temp\ccMkT0BQ.s 			page 85


 4673      4F564552 
 4673      464C4F57 
 4673      00
 4674              	.LASF148:
 4675 01d7 61646365 		.ascii	"adcerrorcallback\000"
 4675      72726F72 
 4675      63616C6C 
 4675      6261636B 
 4675      00
 4676              	.LASF63:
 4677 01e8 42617365 		.ascii	"BaseSequentialStream\000"
 4677      53657175 
 4677      656E7469 
 4677      616C5374 
 4677      7265616D 
 4678              	.LASF0:
 4679 01fd 756E7369 		.ascii	"unsigned int\000"
 4679      676E6564 
 4679      20696E74 
 4679      00
 4680              	.LASF134:
 4681 020a 4D454153 		.ascii	"MEAS_SEN2\000"
 4681      5F53454E 
 4681      3200
 4682              	.LASF135:
 4683 0214 4D454153 		.ascii	"MEAS_SEN3\000"
 4683      5F53454E 
 4683      3300
 4684              	.LASF136:
 4685 021e 4D454153 		.ascii	"MEAS_SEN4\000"
 4685      5F53454E 
 4685      3400
 4686              	.LASF137:
 4687 0228 4D454153 		.ascii	"MEAS_SEN5\000"
 4687      5F53454E 
 4687      3500
 4688              	.LASF39:
 4689 0232 705F6D73 		.ascii	"p_msgqueue\000"
 4689      67717565 
 4689      756500
 4690              	.LASF107:
 4691 023d 41444344 		.ascii	"ADCDriver\000"
 4691      72697665 
 4691      7200
 4692              	.LASF147:
 4693 0247 61646370 		.ascii	"adcp\000"
 4693      00
 4694              	.LASF91:
 4695 024c 67657474 		.ascii	"gett\000"
 4695      00
 4696              	.LASF85:
 4697 0251 69736869 		.ascii	"ishift\000"
 4697      667400
 4698              	.LASF8:
 4699 0258 73686F72 		.ascii	"short unsigned int\000"
 4699      7420756E 
 4699      7369676E 
ARM GAS  C:\Users\DNIEL~1\AppData\Local\Temp\ccMkT0BQ.s 			page 86


 4699      65642069 
 4699      6E7400
 4700              	.LASF97:
 4701 026b 4144435F 		.ascii	"ADC_READY\000"
 4701      52454144 
 4701      5900
 4702              	.LASF159:
 4703 0275 6D656173 		.ascii	"measstate\000"
 4703      73746174 
 4703      6500
 4704              	.LASF111:
 4705 027f 64657074 		.ascii	"depth\000"
 4705      6800
 4706              	.LASF22:
 4707 0285 6D73675F 		.ascii	"msg_t\000"
 4707      7400
 4708              	.LASF165:
 4709 028b 6D656173 		.ascii	"measGetValue\000"
 4709      47657456 
 4709      616C7565 
 4709      00
 4710              	.LASF92:
 4711 0298 77726974 		.ascii	"writet\000"
 4711      657400
 4712              	.LASF17:
 4713 029f 746D6F64 		.ascii	"tmode_t\000"
 4713      655F7400 
 4714              	.LASF120:
 4715 02a7 6E756D5F 		.ascii	"num_channels\000"
 4715      6368616E 
 4715      6E656C73 
 4715      00
 4716              	.LASF46:
 4717 02b4 54687265 		.ascii	"ThreadsList\000"
 4717      6164734C 
 4717      69737400 
 4718              	.LASF23:
 4719 02c0 6576656E 		.ascii	"eventmask_t\000"
 4719      746D6173 
 4719      6B5F7400 
 4720              	.LASF151:
 4721 02cc 6D656173 		.ascii	"measCalc\000"
 4721      43616C63 
 4721      00
 4722              	.LASF61:
 4723 02d5 77726974 		.ascii	"write\000"
 4723      6500
 4724              	.LASF112:
 4725 02db 67727070 		.ascii	"grpp\000"
 4725      00
 4726              	.LASF90:
 4727 02e0 70757474 		.ascii	"putt\000"
 4727      00
 4728              	.LASF67:
 4729 02e5 4A4F4652 		.ascii	"JOFR2\000"
 4729      3200
 4730              	.LASF68:
ARM GAS  C:\Users\DNIEL~1\AppData\Local\Temp\ccMkT0BQ.s 			page 87


 4731 02eb 4A4F4652 		.ascii	"JOFR3\000"
 4731      3300
 4732              	.LASF110:
 4733 02f1 73616D70 		.ascii	"samples\000"
 4733      6C657300 
 4734              	.LASF50:
 4735 02f9 73697A65 		.ascii	"sizetype\000"
 4735      74797065 
 4735      00
 4736              	.LASF51:
 4737 0302 4D757465 		.ascii	"Mutex\000"
 4737      7800
 4738              	.LASF163:
 4739 0308 7372632F 		.ascii	"src/meas.c\000"
 4739      6D656173 
 4739      2E6300
 4740              	.LASF139:
 4741 0313 5F5F676E 		.ascii	"__gnuc_va_list\000"
 4741      75635F76 
 4741      615F6C69 
 4741      737400
 4742              	.LASF96:
 4743 0322 4144435F 		.ascii	"ADC_STOP\000"
 4743      53544F50 
 4743      00
 4744              	.LASF162:
 4745 032b 474E5520 		.ascii	"GNU C 4.7.4 20140401 (release) [ARM/embedded-4_7-br"
 4745      4320342E 
 4745      372E3420 
 4745      32303134 
 4745      30343031 
 4746 035e 616E6368 		.ascii	"anch revision 209195]\000"
 4746      20726576 
 4746      6973696F 
 4746      6E203230 
 4746      39313935 
 4747              	.LASF31:
 4748 0374 705F6F6C 		.ascii	"p_older\000"
 4748      64657200 
 4749              	.LASF45:
 4750 037c 54687265 		.ascii	"ThreadsQueue\000"
 4750      61647351 
 4750      75657565 
 4750      00
 4751              	.LASF64:
 4752 0389 534D5052 		.ascii	"SMPR1\000"
 4752      3100
 4753              	.LASF65:
 4754 038f 534D5052 		.ascii	"SMPR2\000"
 4754      3200
 4755              	.LASF54:
 4756 0395 6D5F6E65 		.ascii	"m_next\000"
 4756      787400
 4757              	.LASF70:
 4758 039c 53515231 		.ascii	"SQR1\000"
 4758      00
 4759              	.LASF71:
ARM GAS  C:\Users\DNIEL~1\AppData\Local\Temp\ccMkT0BQ.s 			page 88


 4760 03a1 53515232 		.ascii	"SQR2\000"
 4760      00
 4761              	.LASF72:
 4762 03a6 53515233 		.ascii	"SQR3\000"
 4762      00
 4763              	.LASF152:
 4764 03ab 636D645F 		.ascii	"cmd_measvalues\000"
 4764      6D656173 
 4764      76616C75 
 4764      657300
 4765              	.LASF19:
 4766 03ba 74726566 		.ascii	"trefs_t\000"
 4766      735F7400 
 4767              	.LASF144:
 4768 03c2 6D656173 		.ascii	"measStates\000"
 4768      53746174 
 4768      657300
 4769              	.LASF27:
 4770 03cd 705F7072 		.ascii	"p_prev\000"
 4770      657600
 4771              	.LASF88:
 4772 03d4 73746D33 		.ascii	"stm32_dma_stream_t\000"
 4772      325F646D 
 4772      615F7374 
 4772      7265616D 
 4772      5F7400
 4773              	.LASF21:
 4774 03e7 74707269 		.ascii	"tprio_t\000"
 4774      6F5F7400 
 4775              	.LASF155:
 4776 03ef 6D656173 		.ascii	"measValue\000"
 4776      56616C75 
 4776      6500
 4777              	.LASF114:
 4778 03f9 6D757465 		.ascii	"mutex\000"
 4778      7800
 4779              	.LASF16:
 4780 03ff 5F426F6F 		.ascii	"_Bool\000"
 4780      6C00
 4781              	.LASF9:
 4782 0405 696E7433 		.ascii	"int32_t\000"
 4782      325F7400 
 4783              	.LASF4:
 4784 040d 756E7369 		.ascii	"unsigned char\000"
 4784      676E6564 
 4784      20636861 
 4784      7200
 4785              	.LASF52:
 4786 041b 6D5F7175 		.ascii	"m_queue\000"
 4786      65756500 
 4787              	.LASF143:
 4788 0423 6D656173 		.ascii	"measChannels\000"
 4788      4368616E 
 4788      6E656C73 
 4788      00
 4789              	.LASF42:
 4790 0430 705F6D74 		.ascii	"p_mtxlist\000"
ARM GAS  C:\Users\DNIEL~1\AppData\Local\Temp\ccMkT0BQ.s 			page 89


 4790      786C6973 
 4790      7400
 4791              	.LASF6:
 4792 043a 73686F72 		.ascii	"short int\000"
 4792      7420696E 
 4792      7400
 4793              	.LASF33:
 4794 0444 705F7374 		.ascii	"p_state\000"
 4794      61746500 
 4795              	.LASF36:
 4796 044c 705F7072 		.ascii	"p_preempt\000"
 4796      65656D70 
 4796      7400
 4797              	.LASF122:
 4798 0456 6572726F 		.ascii	"error_cb\000"
 4798      725F6362 
 4798      00
 4799              	.LASF58:
 4800 045f 65776D61 		.ascii	"ewmask\000"
 4800      736B00
 4801              	.LASF26:
 4802 0466 705F6E65 		.ascii	"p_next\000"
 4802      787400
 4803              	.LASF60:
 4804 046d 42617365 		.ascii	"BaseSequentialStreamVMT\000"
 4804      53657175 
 4804      656E7469 
 4804      616C5374 
 4804      7265616D 
 4805              	.LASF34:
 4806 0485 705F666C 		.ascii	"p_flags\000"
 4806      61677300 
 4807              	.LASF98:
 4808 048d 4144435F 		.ascii	"ADC_ACTIVE\000"
 4808      41435449 
 4808      564500
 4809              	.LASF69:
 4810 0498 4A4F4652 		.ascii	"JOFR4\000"
 4810      3400
 4811              	.LASF146:
 4812 049e 4D454153 		.ascii	"MEAS_RUNING\000"
 4812      5F52554E 
 4812      494E4700 
 4813              	.LASF25:
 4814 04aa 54687265 		.ascii	"Thread\000"
 4814      616400
 4815              	.LASF145:
 4816 04b1 4D454153 		.ascii	"MEAS_START\000"
 4816      5F535441 
 4816      525400
 4817              	.LASF166:
 4818 04bc 6E616D65 		.ascii	"names\000"
 4818      7300
 4819              	.LASF41:
 4820 04c2 705F6570 		.ascii	"p_epending\000"
 4820      656E6469 
 4820      6E6700
ARM GAS  C:\Users\DNIEL~1\AppData\Local\Temp\ccMkT0BQ.s 			page 90


 4821              	.LASF84:
 4822 04cd 69666372 		.ascii	"ifcr\000"
 4822      00
 4823              	.LASF129:
 4824 04d2 64756D6D 		.ascii	"dummy\000"
 4824      7900
 4825              	.LASF11:
 4826 04d8 75696E74 		.ascii	"uint32_t\000"
 4826      33325F74 
 4826      00
 4827              	.LASF158:
 4828 04e1 41444344 		.ascii	"ADCD2\000"
 4828      3200
 4829              	.LASF20:
 4830 04e7 74736C69 		.ascii	"tslices_t\000"
 4830      6365735F 
 4830      7400
 4831              	.LASF12:
 4832 04f1 6C6F6E67 		.ascii	"long unsigned int\000"
 4832      20756E73 
 4832      69676E65 
 4832      6420696E 
 4832      7400
 4833              	.LASF62:
 4834 0503 72656164 		.ascii	"read\000"
 4834      00
 4835              	.LASF59:
 4836 0508 63686172 		.ascii	"char\000"
 4836      00
 4837              	.LASF109:
 4838 050d 636F6E66 		.ascii	"config\000"
 4838      696700
 4839              	.LASF132:
 4840 0514 4D454153 		.ascii	"MEAS_BRAKE_PRESSURE1\000"
 4840      5F425241 
 4840      4B455F50 
 4840      52455353 
 4840      55524531 
 4841              	.LASF133:
 4842 0529 4D454153 		.ascii	"MEAS_BRAKE_PRESSURE2\000"
 4842      5F425241 
 4842      4B455F50 
 4842      52455353 
 4842      55524532 
 4843              	.LASF125:
 4844 053e 73717231 		.ascii	"sqr1\000"
 4844      00
 4845              	.LASF126:
 4846 0543 73717232 		.ascii	"sqr2\000"
 4846      00
 4847              	.LASF127:
 4848 0548 73717233 		.ascii	"sqr3\000"
 4848      00
 4849              	.LASF24:
 4850 054d 73797374 		.ascii	"systime_t\000"
 4850      696D655F 
 4850      7400
ARM GAS  C:\Users\DNIEL~1\AppData\Local\Temp\ccMkT0BQ.s 			page 91


 4851              	.LASF43:
 4852 0557 705F7265 		.ascii	"p_realprio\000"
 4852      616C7072 
 4852      696F00
 4853              	.LASF79:
 4854 0562 4E445452 		.ascii	"NDTR\000"
 4854      00
 4855              	.LASF82:
 4856 0567 444D415F 		.ascii	"DMA_Stream_TypeDef\000"
 4856      53747265 
 4856      616D5F54 
 4856      79706544 
 4856      656600
 4857              	.LASF141:
 4858 057a 5F5F6170 		.ascii	"__ap\000"
 4858      00
 4859              	.LASF49:
 4860 057f 636F6E74 		.ascii	"context\000"
 4860      65787400 
 4861              	.LASF48:
 4862 0587 696E7463 		.ascii	"intctx\000"
 4862      747800
 4863              	.LASF81:
 4864 058e 4D314152 		.ascii	"M1AR\000"
 4864      00
 4865              	.LASF100:
 4866 0593 4144435F 		.ascii	"ADC_ERROR\000"
 4866      4552524F 
 4866      5200
 4867              	.LASF161:
 4868 059d 61646353 		.ascii	"adcStart\000"
 4868      74617274 
 4868      00
 4869              	.LASF168:
 4870 05a6 63685468 		.ascii	"chThdSleep\000"
 4870      64536C65 
 4870      657000
 4871              	.LASF32:
 4872 05b1 705F6E61 		.ascii	"p_name\000"
 4872      6D6500
 4873              	.LASF35:
 4874 05b8 705F7265 		.ascii	"p_refs\000"
 4874      667300
 4875              	.LASF164:
 4876 05bf 433A5C55 		.ascii	"C:\\Users\\D\341niel\\git\\Smarty\\smarty\\firmware"
 4876      73657273 
 4876      5C44E16E 
 4876      69656C5C 
 4876      6769745C 
 4877 05e9 00       		.ascii	"\000"
 4878              	.LASF123:
 4879 05ea 736D7072 		.ascii	"smpr1\000"
 4879      3100
 4880              	.LASF124:
 4881 05f0 736D7072 		.ascii	"smpr2\000"
 4881      3200
 4882              	.LASF66:
ARM GAS  C:\Users\DNIEL~1\AppData\Local\Temp\ccMkT0BQ.s 			page 92


 4883 05f6 4A4F4652 		.ascii	"JOFR1\000"
 4883      3100
 4884              	.LASF3:
 4885 05fc 75696E74 		.ascii	"uint8_t\000"
 4885      385F7400 
 4886              	.LASF160:
 4887 0604 63687670 		.ascii	"chvprintf\000"
 4887      72696E74 
 4887      6600
 4888              	.LASF128:
 4889 060e 41444343 		.ascii	"ADCConversionGroup\000"
 4889      6F6E7665 
 4889      7273696F 
 4889      6E47726F 
 4889      757000
 4890              	.LASF94:
 4891 0621 42617365 		.ascii	"BaseChannel\000"
 4891      4368616E 
 4891      6E656C00 
 4892              	.LASF74:
 4893 062d 4A445231 		.ascii	"JDR1\000"
 4893      00
 4894              	.LASF75:
 4895 0632 4A445232 		.ascii	"JDR2\000"
 4895      00
 4896              	.LASF76:
 4897 0637 4A445233 		.ascii	"JDR3\000"
 4897      00
 4898              	.LASF77:
 4899 063c 4A445234 		.ascii	"JDR4\000"
 4899      00
 4900              	.LASF57:
 4901 0641 77746F62 		.ascii	"wtobjp\000"
 4901      6A7000
 4902              	.LASF99:
 4903 0648 4144435F 		.ascii	"ADC_COMPLETE\000"
 4903      434F4D50 
 4903      4C455445 
 4903      00
 4904              	.LASF153:
 4905 0655 61726763 		.ascii	"argc\000"
 4905      00
 4906              	.LASF103:
 4907 065a 6164635F 		.ascii	"adc_channels_num_t\000"
 4907      6368616E 
 4907      6E656C73 
 4907      5F6E756D 
 4907      5F7400
 4908              	.LASF40:
 4909 066d 705F6D73 		.ascii	"p_msg\000"
 4909      6700
 4910              	.LASF154:
 4911 0673 61726776 		.ascii	"argv\000"
 4911      00
 4912              	.LASF53:
 4913 0678 6D5F6F77 		.ascii	"m_owner\000"
 4913      6E657200 
ARM GAS  C:\Users\DNIEL~1\AppData\Local\Temp\ccMkT0BQ.s 			page 93


 4914              	.LASF29:
 4915 0680 705F6374 		.ascii	"p_ctx\000"
 4915      7800
 4916              	.LASF38:
 4917 0686 705F7761 		.ascii	"p_waiting\000"
 4917      6974696E 
 4917      6700
 4918              	.LASF149:
 4919 0690 63687072 		.ascii	"chprintf\000"
 4919      696E7466 
 4919      00
 4920              		.ident	"GCC: (GNU Tools for ARM Embedded Processors) 4.7.4 20140401 (release) [ARM/embedded-4_7-br
ARM GAS  C:\Users\DNIEL~1\AppData\Local\Temp\ccMkT0BQ.s 			page 94


DEFINED SYMBOLS
                            *ABS*:00000000 meas.c
C:\Users\DNIEL~1\AppData\Local\Temp\ccMkT0BQ.s:19     .text.adcerrorcallback:00000000 $t
C:\Users\DNIEL~1\AppData\Local\Temp\ccMkT0BQ.s:24     .text.adcerrorcallback:00000000 adcerrorcallback
C:\Users\DNIEL~1\AppData\Local\Temp\ccMkT0BQ.s:38     .text.chprintf:00000000 $t
C:\Users\DNIEL~1\AppData\Local\Temp\ccMkT0BQ.s:43     .text.chprintf:00000000 chprintf
C:\Users\DNIEL~1\AppData\Local\Temp\ccMkT0BQ.s:84     .text.measInit:00000000 $t
C:\Users\DNIEL~1\AppData\Local\Temp\ccMkT0BQ.s:90     .text.measInit:00000000 measInit
C:\Users\DNIEL~1\AppData\Local\Temp\ccMkT0BQ.s:693    .bss.measstate:00000000 .LANCHOR0
C:\Users\DNIEL~1\AppData\Local\Temp\ccMkT0BQ.s:119    .text.measCalc:00000000 $t
C:\Users\DNIEL~1\AppData\Local\Temp\ccMkT0BQ.s:125    .text.measCalc:00000000 measCalc
C:\Users\DNIEL~1\AppData\Local\Temp\ccMkT0BQ.s:521    .text.measCalc:000001dc $d
C:\Users\DNIEL~1\AppData\Local\Temp\ccMkT0BQ.s:531    .text.measGetValue:00000000 $t
C:\Users\DNIEL~1\AppData\Local\Temp\ccMkT0BQ.s:537    .text.measGetValue:00000000 measGetValue
C:\Users\DNIEL~1\AppData\Local\Temp\ccMkT0BQ.s:687    .bss.measValue:00000000 .LANCHOR2
C:\Users\DNIEL~1\AppData\Local\Temp\ccMkT0BQ.s:556    .text.cmd_measvalues:00000000 $t
C:\Users\DNIEL~1\AppData\Local\Temp\ccMkT0BQ.s:562    .text.cmd_measvalues:00000000 cmd_measvalues
C:\Users\DNIEL~1\AppData\Local\Temp\ccMkT0BQ.s:669    .text.cmd_measvalues:00000090 $d
C:\Users\DNIEL~1\AppData\Local\Temp\ccMkT0BQ.s:696    .bss.measstate:00000000 measstate
C:\Users\DNIEL~1\AppData\Local\Temp\ccMkT0BQ.s:686    .bss.measValue:00000000 $d
C:\Users\DNIEL~1\AppData\Local\Temp\ccMkT0BQ.s:690    .bss.measValue:00000000 measValue
C:\Users\DNIEL~1\AppData\Local\Temp\ccMkT0BQ.s:697    .bss.measstate:00000000 $d
C:\Users\DNIEL~1\AppData\Local\Temp\ccMkT0BQ.s:699    .rodata.str1.4:00000000 $d
C:\Users\DNIEL~1\AppData\Local\Temp\ccMkT0BQ.s:731    .rodata.adcgrpcfg:00000000 $d
C:\Users\DNIEL~1\AppData\Local\Temp\ccMkT0BQ.s:735    .rodata.adcgrpcfg:00000000 adcgrpcfg
C:\Users\DNIEL~1\AppData\Local\Temp\ccMkT0BQ.s:749    .bss.samples:00000000 $d
C:\Users\DNIEL~1\AppData\Local\Temp\ccMkT0BQ.s:753    .bss.samples:00000000 samples
                     .debug_frame:00000010 $d

UNDEFINED SYMBOLS
chvprintf
ADCD2
adcStart
adcConvert
chThdSleep
