ARM GAS  C:\Users\DNIEL~1\AppData\Local\Temp\ccicEs2F.s 			page 1


   1              		.syntax unified
   2              		.cpu cortex-m4
   3              		.fpu softvfp
   4              		.eabi_attribute 20, 1
   5              		.eabi_attribute 21, 1
   6              		.eabi_attribute 23, 3
   7              		.eabi_attribute 24, 1
   8              		.eabi_attribute 25, 1
   9              		.eabi_attribute 26, 1
  10              		.eabi_attribute 30, 2
  11              		.eabi_attribute 18, 4
  12              		.thumb
  13              		.file	"pal_lld.c"
  14              		.section	.debug_abbrev,"",%progbits
  15              	.Ldebug_abbrev0:
  16              		.section	.debug_info,"",%progbits
  17              	.Ldebug_info0:
  18              		.section	.debug_line,"",%progbits
  19              	.Ldebug_line0:
  20 0000 17020000 		.text
  20      02006201 
  20      00000201 
  20      FB0E0D00 
  20      01010101 
  21              	.Ltext0:
  22              		.cfi_sections	.debug_frame
  23              		.section	.text._pal_lld_init,"ax",%progbits
  24              		.align	2
  25              		.p2align 4,,15
  26              		.global	_pal_lld_init
  27              		.thumb
  28              		.thumb_func
  29              		.type	_pal_lld_init, %function
  30              	_pal_lld_init:
  31              	.LFB119:
  32              		.file 1 "../../../ChibiOS/os/hal/platforms/STM32/GPIOv2/pal_lld.c"
  33              		.loc 1 119 0
  34              		.cfi_startproc
  35              		@ args = 0, pretend = 0, frame = 0
  36              		@ frame_needed = 0, uses_anonymous_args = 0
  37              		@ link register save eliminated.
  38              	.LVL0:
  39 0000 2DE9F007 		push	{r4, r5, r6, r7, r8, r9, sl}
  40              	.LCFI0:
  41              		.cfi_def_cfa_offset 28
  42              		.loc 1 132 0
  43 0004 DFF8E8A1 		ldr	sl, .L2+28
  44              		.cfi_offset 10, -4
  45              		.cfi_offset 9, -8
  46              		.cfi_offset 8, -12
  47              		.cfi_offset 7, -16
  48              		.cfi_offset 6, -20
  49              		.cfi_offset 5, -24
  50              		.cfi_offset 4, -28
  51              	.LBB20:
  52              	.LBB21:
  53              		.loc 1 94 0
ARM GAS  C:\Users\DNIEL~1\AppData\Local\Temp\ccicEs2F.s 			page 2


  54 0008 DFF8E881 		ldr	r8, .L2+32
  55              	.LBE21:
  56              	.LBE20:
  57              		.loc 1 132 0
  58 000c DAF83090 		ldr	r9, [sl, #48]
  59              	.LBB23:
  60              	.LBB24:
  61              		.loc 1 94 0
  62 0010 DFF8E4C1 		ldr	ip, .L2+36
  63              	.LBE24:
  64              	.LBE23:
  65              	.LBB26:
  66              	.LBB27:
  67 0014 6F4F     		ldr	r7, .L2
  68              	.LBE27:
  69              	.LBE26:
  70              	.LBB29:
  71              	.LBB30:
  72 0016 704E     		ldr	r6, .L2+4
  73              	.LBE30:
  74              	.LBE29:
  75              	.LBB32:
  76              	.LBB33:
  77 0018 704D     		ldr	r5, .L2+8
  78              	.LBE33:
  79              	.LBE32:
  80              	.LBB35:
  81              	.LBB36:
  82 001a 714C     		ldr	r4, .L2+12
  83              	.LBE36:
  84              	.LBE35:
  85              	.LBB38:
  86              	.LBB39:
  87 001c 7149     		ldr	r1, .L2+16
  88              	.LBE39:
  89              	.LBE38:
  90              	.LBB41:
  91              	.LBB42:
  92 001e 724A     		ldr	r2, .L2+20
  93              	.LBE42:
  94              	.LBE41:
  95              	.LBB44:
  96              	.LBB45:
  97 0020 724B     		ldr	r3, .L2+24
  98              	.LBE45:
  99              	.LBE44:
 100              		.loc 1 132 0
 101 0022 6FEA5929 		mvn	r9, r9, lsr #9
 102 0026 6FEA4929 		mvn	r9, r9, lsl #9
 103 002a CAF83090 		str	r9, [sl, #48]
 104              		.loc 1 133 0
 105 002e DAF85090 		ldr	r9, [sl, #80]
 106 0032 6FEA5929 		mvn	r9, r9, lsr #9
 107 0036 6FEA4929 		mvn	r9, r9, lsl #9
 108 003a CAF85090 		str	r9, [sl, #80]
 109              	.LVL1:
 110              	.LBB47:
ARM GAS  C:\Users\DNIEL~1\AppData\Local\Temp\ccicEs2F.s 			page 3


 111              	.LBB22:
 112              		.loc 1 94 0
 113 003e D0F80490 		ldr	r9, [r0, #4]
 114 0042 C8F80490 		str	r9, [r8, #4]
 115              		.loc 1 95 0
 116 0046 D0F80890 		ldr	r9, [r0, #8]
 117 004a C8F80890 		str	r9, [r8, #8]
 118              		.loc 1 96 0
 119 004e D0F80C90 		ldr	r9, [r0, #12]
 120 0052 C8F80C90 		str	r9, [r8, #12]
 121              		.loc 1 97 0
 122 0056 D0F81090 		ldr	r9, [r0, #16]
 123 005a C8F81490 		str	r9, [r8, #20]
 124              		.loc 1 98 0
 125 005e D0F81490 		ldr	r9, [r0, #20]
 126 0062 C8F82090 		str	r9, [r8, #32]
 127              		.loc 1 99 0
 128 0066 D0F81890 		ldr	r9, [r0, #24]
 129 006a C8F82490 		str	r9, [r8, #36]
 130              		.loc 1 100 0
 131 006e D0F80090 		ldr	r9, [r0, #0]
 132 0072 C8F80090 		str	r9, [r8, #0]
 133              	.LVL2:
 134              	.LBE22:
 135              	.LBE47:
 136              	.LBB48:
 137              	.LBB25:
 138              		.loc 1 94 0
 139 0076 D0F82080 		ldr	r8, [r0, #32]
 140 007a CCF80480 		str	r8, [ip, #4]
 141              		.loc 1 95 0
 142 007e D0F82480 		ldr	r8, [r0, #36]
 143 0082 CCF80880 		str	r8, [ip, #8]
 144              		.loc 1 96 0
 145 0086 D0F82880 		ldr	r8, [r0, #40]
 146 008a CCF80C80 		str	r8, [ip, #12]
 147              		.loc 1 97 0
 148 008e D0F82C80 		ldr	r8, [r0, #44]
 149 0092 CCF81480 		str	r8, [ip, #20]
 150              		.loc 1 98 0
 151 0096 D0F83080 		ldr	r8, [r0, #48]
 152 009a CCF82080 		str	r8, [ip, #32]
 153              		.loc 1 99 0
 154 009e D0F83480 		ldr	r8, [r0, #52]
 155 00a2 CCF82480 		str	r8, [ip, #36]
 156              		.loc 1 100 0
 157 00a6 D0F81C80 		ldr	r8, [r0, #28]
 158 00aa CCF80080 		str	r8, [ip, #0]
 159              	.LVL3:
 160              	.LBE25:
 161              	.LBE48:
 162              	.LBB49:
 163              	.LBB28:
 164              		.loc 1 94 0
 165 00ae D0F83CC0 		ldr	ip, [r0, #60]
 166 00b2 C7F804C0 		str	ip, [r7, #4]
 167              		.loc 1 95 0
ARM GAS  C:\Users\DNIEL~1\AppData\Local\Temp\ccicEs2F.s 			page 4


 168 00b6 D0F840C0 		ldr	ip, [r0, #64]
 169 00ba C7F808C0 		str	ip, [r7, #8]
 170              		.loc 1 96 0
 171 00be D0F844C0 		ldr	ip, [r0, #68]
 172 00c2 C7F80CC0 		str	ip, [r7, #12]
 173              		.loc 1 97 0
 174 00c6 D0F848C0 		ldr	ip, [r0, #72]
 175 00ca C7F814C0 		str	ip, [r7, #20]
 176              		.loc 1 98 0
 177 00ce D0F84CC0 		ldr	ip, [r0, #76]
 178 00d2 C7F820C0 		str	ip, [r7, #32]
 179              		.loc 1 99 0
 180 00d6 D0F850C0 		ldr	ip, [r0, #80]
 181 00da C7F824C0 		str	ip, [r7, #36]
 182              		.loc 1 100 0
 183 00de D0F838C0 		ldr	ip, [r0, #56]
 184 00e2 C7F800C0 		str	ip, [r7, #0]
 185              	.LVL4:
 186              	.LBE28:
 187              	.LBE49:
 188              	.LBB50:
 189              	.LBB31:
 190              		.loc 1 94 0
 191 00e6 876D     		ldr	r7, [r0, #88]
 192 00e8 7760     		str	r7, [r6, #4]
 193              		.loc 1 95 0
 194 00ea C76D     		ldr	r7, [r0, #92]
 195 00ec B760     		str	r7, [r6, #8]
 196              		.loc 1 96 0
 197 00ee 076E     		ldr	r7, [r0, #96]
 198 00f0 F760     		str	r7, [r6, #12]
 199              		.loc 1 97 0
 200 00f2 476E     		ldr	r7, [r0, #100]
 201 00f4 7761     		str	r7, [r6, #20]
 202              		.loc 1 98 0
 203 00f6 876E     		ldr	r7, [r0, #104]
 204 00f8 3762     		str	r7, [r6, #32]
 205              		.loc 1 99 0
 206 00fa C76E     		ldr	r7, [r0, #108]
 207 00fc 7762     		str	r7, [r6, #36]
 208              		.loc 1 100 0
 209 00fe 476D     		ldr	r7, [r0, #84]
 210 0100 3760     		str	r7, [r6, #0]
 211              	.LVL5:
 212              	.LBE31:
 213              	.LBE50:
 214              	.LBB51:
 215              	.LBB34:
 216              		.loc 1 94 0
 217 0102 466F     		ldr	r6, [r0, #116]
 218 0104 6E60     		str	r6, [r5, #4]
 219              		.loc 1 95 0
 220 0106 866F     		ldr	r6, [r0, #120]
 221 0108 AE60     		str	r6, [r5, #8]
 222              		.loc 1 96 0
 223 010a C66F     		ldr	r6, [r0, #124]
 224 010c EE60     		str	r6, [r5, #12]
ARM GAS  C:\Users\DNIEL~1\AppData\Local\Temp\ccicEs2F.s 			page 5


 225              		.loc 1 97 0
 226 010e D0F88060 		ldr	r6, [r0, #128]
 227 0112 6E61     		str	r6, [r5, #20]
 228              		.loc 1 98 0
 229 0114 D0F88460 		ldr	r6, [r0, #132]
 230 0118 2E62     		str	r6, [r5, #32]
 231              		.loc 1 99 0
 232 011a D0F88860 		ldr	r6, [r0, #136]
 233 011e 6E62     		str	r6, [r5, #36]
 234              		.loc 1 100 0
 235 0120 066F     		ldr	r6, [r0, #112]
 236 0122 2E60     		str	r6, [r5, #0]
 237              	.LVL6:
 238              	.LBE34:
 239              	.LBE51:
 240              	.LBB52:
 241              	.LBB37:
 242              		.loc 1 94 0
 243 0124 D0F89050 		ldr	r5, [r0, #144]
 244 0128 6560     		str	r5, [r4, #4]
 245              		.loc 1 95 0
 246 012a D0F89450 		ldr	r5, [r0, #148]
 247 012e A560     		str	r5, [r4, #8]
 248              		.loc 1 96 0
 249 0130 D0F89850 		ldr	r5, [r0, #152]
 250 0134 E560     		str	r5, [r4, #12]
 251              		.loc 1 97 0
 252 0136 D0F89C50 		ldr	r5, [r0, #156]
 253 013a 6561     		str	r5, [r4, #20]
 254              		.loc 1 98 0
 255 013c D0F8A050 		ldr	r5, [r0, #160]
 256 0140 2562     		str	r5, [r4, #32]
 257              		.loc 1 99 0
 258 0142 D0F8A450 		ldr	r5, [r0, #164]
 259 0146 6562     		str	r5, [r4, #36]
 260              		.loc 1 100 0
 261 0148 D0F88C50 		ldr	r5, [r0, #140]
 262 014c 2560     		str	r5, [r4, #0]
 263              	.LVL7:
 264              	.LBE37:
 265              	.LBE52:
 266              	.LBB53:
 267              	.LBB40:
 268              		.loc 1 94 0
 269 014e D0F8AC40 		ldr	r4, [r0, #172]
 270 0152 4C60     		str	r4, [r1, #4]
 271              		.loc 1 95 0
 272 0154 D0F8B040 		ldr	r4, [r0, #176]
 273 0158 8C60     		str	r4, [r1, #8]
 274              		.loc 1 96 0
 275 015a D0F8B440 		ldr	r4, [r0, #180]
 276 015e CC60     		str	r4, [r1, #12]
 277              		.loc 1 97 0
 278 0160 D0F8B840 		ldr	r4, [r0, #184]
 279 0164 4C61     		str	r4, [r1, #20]
 280              		.loc 1 98 0
 281 0166 D0F8BC40 		ldr	r4, [r0, #188]
ARM GAS  C:\Users\DNIEL~1\AppData\Local\Temp\ccicEs2F.s 			page 6


 282 016a 0C62     		str	r4, [r1, #32]
 283              		.loc 1 99 0
 284 016c D0F8C040 		ldr	r4, [r0, #192]
 285 0170 4C62     		str	r4, [r1, #36]
 286              		.loc 1 100 0
 287 0172 D0F8A840 		ldr	r4, [r0, #168]
 288 0176 0C60     		str	r4, [r1, #0]
 289              	.LVL8:
 290              	.LBE40:
 291              	.LBE53:
 292              	.LBB54:
 293              	.LBB43:
 294              		.loc 1 94 0
 295 0178 D0F8C810 		ldr	r1, [r0, #200]
 296 017c 5160     		str	r1, [r2, #4]
 297              		.loc 1 95 0
 298 017e D0F8CC10 		ldr	r1, [r0, #204]
 299 0182 9160     		str	r1, [r2, #8]
 300              		.loc 1 96 0
 301 0184 D0F8D010 		ldr	r1, [r0, #208]
 302 0188 D160     		str	r1, [r2, #12]
 303              		.loc 1 97 0
 304 018a D0F8D410 		ldr	r1, [r0, #212]
 305 018e 5161     		str	r1, [r2, #20]
 306              		.loc 1 98 0
 307 0190 D0F8D810 		ldr	r1, [r0, #216]
 308 0194 1162     		str	r1, [r2, #32]
 309              		.loc 1 99 0
 310 0196 D0F8DC10 		ldr	r1, [r0, #220]
 311 019a 5162     		str	r1, [r2, #36]
 312              		.loc 1 100 0
 313 019c D0F8C410 		ldr	r1, [r0, #196]
 314 01a0 1160     		str	r1, [r2, #0]
 315              	.LVL9:
 316              	.LBE43:
 317              	.LBE54:
 318              	.LBB55:
 319              	.LBB46:
 320              		.loc 1 94 0
 321 01a2 D0F8E420 		ldr	r2, [r0, #228]
 322 01a6 5A60     		str	r2, [r3, #4]
 323              		.loc 1 95 0
 324 01a8 D0F8E810 		ldr	r1, [r0, #232]
 325 01ac 9960     		str	r1, [r3, #8]
 326              		.loc 1 96 0
 327 01ae D0F8EC20 		ldr	r2, [r0, #236]
 328 01b2 DA60     		str	r2, [r3, #12]
 329              		.loc 1 97 0
 330 01b4 D0F8F010 		ldr	r1, [r0, #240]
 331 01b8 5961     		str	r1, [r3, #20]
 332              		.loc 1 98 0
 333 01ba D0F8F420 		ldr	r2, [r0, #244]
 334 01be 1A62     		str	r2, [r3, #32]
 335              		.loc 1 99 0
 336 01c0 D0F8F810 		ldr	r1, [r0, #248]
 337 01c4 5962     		str	r1, [r3, #36]
 338              		.loc 1 100 0
ARM GAS  C:\Users\DNIEL~1\AppData\Local\Temp\ccicEs2F.s 			page 7


 339 01c6 D0F8E020 		ldr	r2, [r0, #224]
 340 01ca 1A60     		str	r2, [r3, #0]
 341              	.LBE46:
 342              	.LBE55:
 343              		.loc 1 166 0
 344 01cc BDE8F007 		pop	{r4, r5, r6, r7, r8, r9, sl}
 345 01d0 7047     		bx	lr
 346              	.L3:
 347 01d2 00BF     		.align	2
 348              	.L2:
 349 01d4 00080240 		.word	1073874944
 350 01d8 000C0240 		.word	1073875968
 351 01dc 00100240 		.word	1073876992
 352 01e0 00140240 		.word	1073878016
 353 01e4 00180240 		.word	1073879040
 354 01e8 001C0240 		.word	1073880064
 355 01ec 00200240 		.word	1073881088
 356 01f0 00380240 		.word	1073887232
 357 01f4 00000240 		.word	1073872896
 358 01f8 00040240 		.word	1073873920
 359              		.cfi_endproc
 360              	.LFE119:
 361              		.size	_pal_lld_init, .-_pal_lld_init
 362 01fc AFF30080 		.section	.text._pal_lld_setgroupmode,"ax",%progbits
 363              		.align	2
 364              		.p2align 4,,15
 365              		.global	_pal_lld_setgroupmode
 366              		.thumb
 367              		.thumb_func
 368              		.type	_pal_lld_setgroupmode, %function
 369              	_pal_lld_setgroupmode:
 370              	.LFB120:
 371              		.loc 1 184 0
 372              		.cfi_startproc
 373              		@ args = 0, pretend = 0, frame = 0
 374              		@ frame_needed = 0, uses_anonymous_args = 0
 375              		@ link register save eliminated.
 376              	.LVL10:
 377 0000 2DE9F00F 		push	{r4, r5, r6, r7, r8, r9, sl, fp}
 378              	.LCFI1:
 379              		.cfi_def_cfa_offset 32
 380              		.loc 1 186 0
 381 0004 02F00307 		and	r7, r2, #3
 382              		.cfi_offset 11, -4
 383              		.cfi_offset 10, -8
 384              		.cfi_offset 9, -12
 385              		.cfi_offset 8, -16
 386              		.cfi_offset 7, -20
 387              		.cfi_offset 6, -24
 388              		.cfi_offset 5, -28
 389              		.cfi_offset 4, -32
 390              	.LVL11:
 391              		.loc 1 187 0
 392 0008 C2F38006 		ubfx	r6, r2, #2, #1
 393              	.LVL12:
 394              		.loc 1 188 0
 395 000c C2F3C105 		ubfx	r5, r2, #3, #2
ARM GAS  C:\Users\DNIEL~1\AppData\Local\Temp\ccicEs2F.s 			page 8


 396              	.LVL13:
 397              		.loc 1 189 0
 398 0010 C2F34114 		ubfx	r4, r2, #5, #2
 399              	.LVL14:
 400              		.loc 1 190 0
 401 0014 C2F3C312 		ubfx	r2, r2, #7, #4
 402              	.LVL15:
 403              		.loc 1 191 0
 404 0018 0023     		movs	r3, #0
 405              	.LBB56:
 406              		.loc 1 197 0
 407 001a 4FF00F09 		mov	r9, #15
 408              		.loc 1 202 0
 409 001e 4FF0010B 		mov	fp, #1
 410              		.loc 1 204 0
 411 0022 9246     		mov	sl, r2
 412 0024 32E0     		b	.L9
 413              	.LVL16:
 414              	.L11:
 415              		.loc 1 199 0
 416 0026 D0F82080 		ldr	r8, [r0, #32]
 417 002a 28EA0C0C 		bic	ip, r8, ip
 418              	.LVL17:
 419 002e 4CEA0202 		orr	r2, ip, r2
 420              	.LVL18:
 421 0032 0262     		str	r2, [r0, #32]
 422              	.L7:
 423              	.LVL19:
 424              		.loc 1 203 0
 425 0034 4268     		ldr	r2, [r0, #4]
 426              		.loc 1 202 0
 427 0036 0BFA03FC 		lsl	ip, fp, r3
 428              		.loc 1 203 0
 429 003a 22EA0C08 		bic	r8, r2, ip
 430 003e 48EA0602 		orr	r2, r8, r6
 431 0042 4260     		str	r2, [r0, #4]
 432              	.LVL20:
 433              		.loc 1 204 0
 434 0044 4FF00308 		mov	r8, #3
 435              		.loc 1 182 0
 436 0048 5A00     		lsls	r2, r3, #1
 437              		.loc 1 205 0
 438 004a D0F808C0 		ldr	ip, [r0, #8]
 439              		.loc 1 204 0
 440 004e 08FA02F2 		lsl	r2, r8, r2
 441              		.loc 1 205 0
 442 0052 D243     		mvns	r2, r2
 443 0054 02EA0C0C 		and	ip, r2, ip
 444 0058 4CEA050C 		orr	ip, ip, r5
 445 005c C0F808C0 		str	ip, [r0, #8]
 446              		.loc 1 206 0
 447 0060 D0F80CC0 		ldr	ip, [r0, #12]
 448 0064 02EA0C0C 		and	ip, r2, ip
 449 0068 4CEA040C 		orr	ip, ip, r4
 450 006c C0F80CC0 		str	ip, [r0, #12]
 451              		.loc 1 207 0
 452 0070 D0F800C0 		ldr	ip, [r0, #0]
ARM GAS  C:\Users\DNIEL~1\AppData\Local\Temp\ccicEs2F.s 			page 9


 453 0074 02EA0C0C 		and	ip, r2, ip
 454 0078 4CEA0702 		orr	r2, ip, r7
 455 007c 0260     		str	r2, [r0, #0]
 456              	.LVL21:
 457              	.L5:
 458              	.LBE56:
 459              		.loc 1 210 0
 460 007e 4908     		lsrs	r1, r1, #1
 461              	.LVL22:
 462 0080 19D0     		beq	.L4
 463              		.loc 1 212 0
 464 0082 7600     		lsls	r6, r6, #1
 465              	.LVL23:
 466              		.loc 1 213 0
 467 0084 AD00     		lsls	r5, r5, #2
 468              	.LVL24:
 469              		.loc 1 214 0
 470 0086 A400     		lsls	r4, r4, #2
 471              	.LVL25:
 472              		.loc 1 215 0
 473 0088 BF00     		lsls	r7, r7, #2
 474              	.LVL26:
 475              		.loc 1 216 0
 476 008a 0133     		adds	r3, r3, #1
 477              	.LVL27:
 478              	.L9:
 479              		.loc 1 193 0
 480 008c 11F0010F 		tst	r1, #1
 481 0090 F5D0     		beq	.L5
 482              	.LBB57:
 483              		.loc 1 196 0
 484 0092 03F00708 		and	r8, r3, #7
 485 0096 4FEA880C 		lsl	ip, r8, #2
 486              		.loc 1 198 0
 487 009a 072B     		cmp	r3, #7
 488              		.loc 1 196 0
 489 009c 0AFA0CF2 		lsl	r2, sl, ip
 490              	.LVL28:
 491              		.loc 1 197 0
 492 00a0 09FA0CFC 		lsl	ip, r9, ip
 493              	.LVL29:
 494              		.loc 1 198 0
 495 00a4 BFD9     		bls	.L11
 496              		.loc 1 201 0
 497 00a6 D0F82480 		ldr	r8, [r0, #36]
 498 00aa 28EA0C0C 		bic	ip, r8, ip
 499              	.LVL30:
 500 00ae 4CEA0202 		orr	r2, ip, r2
 501              	.LVL31:
 502 00b2 4262     		str	r2, [r0, #36]
 503 00b4 BEE7     		b	.L7
 504              	.L4:
 505              	.LBE57:
 506              		.loc 1 218 0
 507 00b6 BDE8F00F 		pop	{r4, r5, r6, r7, r8, r9, sl, fp}
 508 00ba 7047     		bx	lr
 509              		.cfi_endproc
ARM GAS  C:\Users\DNIEL~1\AppData\Local\Temp\ccicEs2F.s 			page 10


 510              	.LFE120:
 511              		.size	_pal_lld_setgroupmode, .-_pal_lld_setgroupmode
 512 00bc AFF30080 		.text
 513              	.Letext0:
 514              		.section	.debug_loc,"",%progbits
 515              	.Ldebug_loc0:
 516              	.LLST0:
 517 0000 00000000 		.4byte	.LFB119
 518 0004 04000000 		.4byte	.LCFI0
 519 0008 0200     		.2byte	0x2
 520 000a 7D       		.byte	0x7d
 521 000b 00       		.sleb128 0
 522 000c 04000000 		.4byte	.LCFI0
 523 0010 FC010000 		.4byte	.LFE119
 524 0014 0200     		.2byte	0x2
 525 0016 7D       		.byte	0x7d
 526 0017 1C       		.sleb128 28
 527 0018 00000000 		.4byte	0x0
 528 001c 00000000 		.4byte	0x0
 529              	.LLST1:
 530 0020 00000000 		.4byte	.LFB120
 531 0024 04000000 		.4byte	.LCFI1
 532 0028 0200     		.2byte	0x2
 533 002a 7D       		.byte	0x7d
 534 002b 00       		.sleb128 0
 535 002c 04000000 		.4byte	.LCFI1
 536 0030 BC000000 		.4byte	.LFE120
 537 0034 0200     		.2byte	0x2
 538 0036 7D       		.byte	0x7d
 539 0037 20       		.sleb128 32
 540 0038 00000000 		.4byte	0x0
 541 003c 00000000 		.4byte	0x0
 542              	.LLST2:
 543 0040 00000000 		.4byte	.LVL10
 544 0044 7E000000 		.4byte	.LVL21
 545 0048 0100     		.2byte	0x1
 546 004a 51       		.byte	0x51
 547 004b 7E000000 		.4byte	.LVL21
 548 004f 80000000 		.4byte	.LVL22
 549 0053 0500     		.2byte	0x5
 550 0055 71       		.byte	0x71
 551 0056 00       		.sleb128 0
 552 0057 31       		.byte	0x31
 553 0058 25       		.byte	0x25
 554 0059 9F       		.byte	0x9f
 555 005a 80000000 		.4byte	.LVL22
 556 005e BC000000 		.4byte	.LFE120
 557 0062 0100     		.2byte	0x1
 558 0064 51       		.byte	0x51
 559 0065 00000000 		.4byte	0x0
 560 0069 00000000 		.4byte	0x0
 561              	.LLST3:
 562 006d 00000000 		.4byte	.LVL10
 563 0071 18000000 		.4byte	.LVL15
 564 0075 0100     		.2byte	0x1
 565 0077 52       		.byte	0x52
 566 0078 00000000 		.4byte	0x0
ARM GAS  C:\Users\DNIEL~1\AppData\Local\Temp\ccicEs2F.s 			page 11


 567 007c 00000000 		.4byte	0x0
 568              	.LLST4:
 569 0080 08000000 		.4byte	.LVL11
 570 0084 8A000000 		.4byte	.LVL26
 571 0088 0100     		.2byte	0x1
 572 008a 57       		.byte	0x57
 573 008b 8A000000 		.4byte	.LVL26
 574 008f BC000000 		.4byte	.LFE120
 575 0093 0100     		.2byte	0x1
 576 0095 57       		.byte	0x57
 577 0096 00000000 		.4byte	0x0
 578 009a 00000000 		.4byte	0x0
 579              	.LLST5:
 580 009e 0C000000 		.4byte	.LVL12
 581 00a2 84000000 		.4byte	.LVL23
 582 00a6 0100     		.2byte	0x1
 583 00a8 56       		.byte	0x56
 584 00a9 84000000 		.4byte	.LVL23
 585 00ad BC000000 		.4byte	.LFE120
 586 00b1 0100     		.2byte	0x1
 587 00b3 56       		.byte	0x56
 588 00b4 00000000 		.4byte	0x0
 589 00b8 00000000 		.4byte	0x0
 590              	.LLST6:
 591 00bc 10000000 		.4byte	.LVL13
 592 00c0 86000000 		.4byte	.LVL24
 593 00c4 0100     		.2byte	0x1
 594 00c6 55       		.byte	0x55
 595 00c7 86000000 		.4byte	.LVL24
 596 00cb BC000000 		.4byte	.LFE120
 597 00cf 0100     		.2byte	0x1
 598 00d1 55       		.byte	0x55
 599 00d2 00000000 		.4byte	0x0
 600 00d6 00000000 		.4byte	0x0
 601              	.LLST7:
 602 00da 14000000 		.4byte	.LVL14
 603 00de 88000000 		.4byte	.LVL25
 604 00e2 0100     		.2byte	0x1
 605 00e4 54       		.byte	0x54
 606 00e5 88000000 		.4byte	.LVL25
 607 00e9 BC000000 		.4byte	.LFE120
 608 00ed 0100     		.2byte	0x1
 609 00ef 54       		.byte	0x54
 610 00f0 00000000 		.4byte	0x0
 611 00f4 00000000 		.4byte	0x0
 612              	.LLST8:
 613 00f8 18000000 		.4byte	.LVL15
 614 00fc 26000000 		.4byte	.LVL16
 615 0100 0100     		.2byte	0x1
 616 0102 52       		.byte	0x52
 617 0103 26000000 		.4byte	.LVL16
 618 0107 BC000000 		.4byte	.LFE120
 619 010b 0100     		.2byte	0x1
 620 010d 5A       		.byte	0x5a
 621 010e 00000000 		.4byte	0x0
 622 0112 00000000 		.4byte	0x0
 623              	.LLST9:
ARM GAS  C:\Users\DNIEL~1\AppData\Local\Temp\ccicEs2F.s 			page 12


 624 0116 18000000 		.4byte	.LVL15
 625 011a 26000000 		.4byte	.LVL16
 626 011e 0200     		.2byte	0x2
 627 0120 30       		.byte	0x30
 628 0121 9F       		.byte	0x9f
 629 0122 26000000 		.4byte	.LVL16
 630 0126 8C000000 		.4byte	.LVL27
 631 012a 0100     		.2byte	0x1
 632 012c 53       		.byte	0x53
 633 012d 8C000000 		.4byte	.LVL27
 634 0131 BC000000 		.4byte	.LFE120
 635 0135 0100     		.2byte	0x1
 636 0137 53       		.byte	0x53
 637 0138 00000000 		.4byte	0x0
 638 013c 00000000 		.4byte	0x0
 639              	.LLST10:
 640 0140 26000000 		.4byte	.LVL16
 641 0144 32000000 		.4byte	.LVL18
 642 0148 0100     		.2byte	0x1
 643 014a 52       		.byte	0x52
 644 014b A0000000 		.4byte	.LVL28
 645 014f B2000000 		.4byte	.LVL31
 646 0153 0100     		.2byte	0x1
 647 0155 52       		.byte	0x52
 648 0156 00000000 		.4byte	0x0
 649 015a 00000000 		.4byte	0x0
 650              	.LLST11:
 651 015e 34000000 		.4byte	.LVL19
 652 0162 7E000000 		.4byte	.LVL21
 653 0166 0500     		.2byte	0x5
 654 0168 31       		.byte	0x31
 655 0169 73       		.byte	0x73
 656 016a 00       		.sleb128 0
 657 016b 24       		.byte	0x24
 658 016c 9F       		.byte	0x9f
 659 016d 00000000 		.4byte	0x0
 660 0171 00000000 		.4byte	0x0
 661              	.LLST12:
 662 0175 44000000 		.4byte	.LVL20
 663 0179 7E000000 		.4byte	.LVL21
 664 017d 0700     		.2byte	0x7
 665 017f 33       		.byte	0x33
 666 0180 73       		.byte	0x73
 667 0181 00       		.sleb128 0
 668 0182 31       		.byte	0x31
 669 0183 24       		.byte	0x24
 670 0184 24       		.byte	0x24
 671 0185 9F       		.byte	0x9f
 672 0186 00000000 		.4byte	0x0
 673 018a 00000000 		.4byte	0x0
 674              	.LLST13:
 675 018e 26000000 		.4byte	.LVL16
 676 0192 2E000000 		.4byte	.LVL17
 677 0196 0100     		.2byte	0x1
 678 0198 5C       		.byte	0x5c
 679 0199 A4000000 		.4byte	.LVL29
 680 019d AE000000 		.4byte	.LVL30
ARM GAS  C:\Users\DNIEL~1\AppData\Local\Temp\ccicEs2F.s 			page 13


 681 01a1 0100     		.2byte	0x1
 682 01a3 5C       		.byte	0x5c
 683 01a4 00000000 		.4byte	0x0
 684 01a8 00000000 		.4byte	0x0
 685              		.file 2 "c:\\program files (x86)\\codesourcery\\sourcery g++ lite\\bin\\../lib/gcc/arm-none-eabi/4
 686              		.file 3 "../../../ChibiOS/os/hal/platforms/STM32F4xx/stm32f4xx.h"
 687              		.file 4 "../../../ChibiOS/os/hal/platforms/STM32/GPIOv2/pal_lld.h"
 688              		.file 5 "../../../ChibiOS/os/ports/common/ARMCMx/CMSIS/include/core_cm4.h"
 689              		.section	.debug_info
 690 0000 77070000 		.4byte	0x777
 691 0004 0200     		.2byte	0x2
 692 0006 00000000 		.4byte	.Ldebug_abbrev0
 693 000a 04       		.byte	0x4
 694 000b 01       		.uleb128 0x1
 695 000c AD020000 		.4byte	.LASF84
 696 0010 01       		.byte	0x1
 697 0011 F8020000 		.4byte	.LASF85
 698 0015 C6010000 		.4byte	.LASF86
 699 0019 00000000 		.4byte	0x0
 700 001d 00000000 		.4byte	0x0
 701 0021 F0000000 		.4byte	.Ldebug_ranges0+0xf0
 702 0025 00000000 		.4byte	.Ldebug_line0
 703 0029 02       		.uleb128 0x2
 704 002a 04       		.byte	0x4
 705 002b 05       		.byte	0x5
 706 002c 696E7400 		.ascii	"int\000"
 707 0030 03       		.uleb128 0x3
 708 0031 04       		.byte	0x4
 709 0032 07       		.byte	0x7
 710 0033 47030000 		.4byte	.LASF0
 711 0037 03       		.uleb128 0x3
 712 0038 01       		.byte	0x1
 713 0039 06       		.byte	0x6
 714 003a 6F010000 		.4byte	.LASF1
 715 003e 03       		.uleb128 0x3
 716 003f 01       		.byte	0x1
 717 0040 08       		.byte	0x8
 718 0041 59010000 		.4byte	.LASF2
 719 0045 03       		.uleb128 0x3
 720 0046 02       		.byte	0x2
 721 0047 05       		.byte	0x5
 722 0048 60000000 		.4byte	.LASF3
 723 004c 04       		.uleb128 0x4
 724 004d AB010000 		.4byte	.LASF5
 725 0051 02       		.byte	0x2
 726 0052 36       		.byte	0x36
 727 0053 57000000 		.4byte	0x57
 728 0057 03       		.uleb128 0x3
 729 0058 02       		.byte	0x2
 730 0059 07       		.byte	0x7
 731 005a 0B020000 		.4byte	.LASF4
 732 005e 04       		.uleb128 0x4
 733 005f 2D020000 		.4byte	.LASF6
 734 0063 02       		.byte	0x2
 735 0064 4F       		.byte	0x4f
 736 0065 69000000 		.4byte	0x69
 737 0069 03       		.uleb128 0x3
ARM GAS  C:\Users\DNIEL~1\AppData\Local\Temp\ccicEs2F.s 			page 14


 738 006a 04       		.byte	0x4
 739 006b 05       		.byte	0x5
 740 006c 0F010000 		.4byte	.LASF7
 741 0070 04       		.uleb128 0x4
 742 0071 92010000 		.4byte	.LASF8
 743 0075 02       		.byte	0x2
 744 0076 50       		.byte	0x50
 745 0077 7B000000 		.4byte	0x7b
 746 007b 03       		.uleb128 0x3
 747 007c 04       		.byte	0x4
 748 007d 07       		.byte	0x7
 749 007e B4010000 		.4byte	.LASF9
 750 0082 03       		.uleb128 0x3
 751 0083 08       		.byte	0x8
 752 0084 05       		.byte	0x5
 753 0085 F3000000 		.4byte	.LASF10
 754 0089 03       		.uleb128 0x3
 755 008a 08       		.byte	0x8
 756 008b 07       		.byte	0x7
 757 008c 7B010000 		.4byte	.LASF11
 758 0090 03       		.uleb128 0x3
 759 0091 01       		.byte	0x1
 760 0092 02       		.byte	0x2
 761 0093 3F020000 		.4byte	.LASF12
 762 0097 05       		.uleb128 0x5
 763 0098 70000000 		.4byte	0x70
 764 009c 03       		.uleb128 0x3
 765 009d 01       		.byte	0x1
 766 009e 08       		.byte	0x8
 767 009f 28020000 		.4byte	.LASF13
 768 00a3 06       		.uleb128 0x6
 769 00a4 70000000 		.4byte	0x70
 770 00a8 B3000000 		.4byte	0xb3
 771 00ac 07       		.uleb128 0x7
 772 00ad 30000000 		.4byte	0x30
 773 00b1 01       		.byte	0x1
 774 00b2 00       		.byte	0x0
 775 00b3 05       		.uleb128 0x5
 776 00b4 5E000000 		.4byte	0x5e
 777 00b8 08       		.uleb128 0x8
 778 00b9 90       		.byte	0x90
 779 00ba 03       		.byte	0x3
 780 00bb 5804     		.2byte	0x458
 781 00bd A5020000 		.4byte	0x2a5
 782 00c1 09       		.uleb128 0x9
 783 00c2 435200   		.ascii	"CR\000"
 784 00c5 03       		.byte	0x3
 785 00c6 5A04     		.2byte	0x45a
 786 00c8 97000000 		.4byte	0x97
 787 00cc 02       		.byte	0x2
 788 00cd 23       		.byte	0x23
 789 00ce 00       		.uleb128 0x0
 790 00cf 0A       		.uleb128 0xa
 791 00d0 FE010000 		.4byte	.LASF14
 792 00d4 03       		.byte	0x3
 793 00d5 5B04     		.2byte	0x45b
 794 00d7 97000000 		.4byte	0x97
ARM GAS  C:\Users\DNIEL~1\AppData\Local\Temp\ccicEs2F.s 			page 15


 795 00db 02       		.byte	0x2
 796 00dc 23       		.byte	0x23
 797 00dd 04       		.uleb128 0x4
 798 00de 0A       		.uleb128 0xa
 799 00df 54030000 		.4byte	.LASF15
 800 00e3 03       		.byte	0x3
 801 00e4 5C04     		.2byte	0x45c
 802 00e6 97000000 		.4byte	0x97
 803 00ea 02       		.byte	0x2
 804 00eb 23       		.byte	0x23
 805 00ec 08       		.uleb128 0x8
 806 00ed 09       		.uleb128 0x9
 807 00ee 43495200 		.ascii	"CIR\000"
 808 00f2 03       		.byte	0x3
 809 00f3 5D04     		.2byte	0x45d
 810 00f5 97000000 		.4byte	0x97
 811 00f9 02       		.byte	0x2
 812 00fa 23       		.byte	0x23
 813 00fb 0C       		.uleb128 0xc
 814 00fc 0A       		.uleb128 0xa
 815 00fd D4020000 		.4byte	.LASF16
 816 0101 03       		.byte	0x3
 817 0102 5E04     		.2byte	0x45e
 818 0104 97000000 		.4byte	0x97
 819 0108 02       		.byte	0x2
 820 0109 23       		.byte	0x23
 821 010a 10       		.uleb128 0x10
 822 010b 0A       		.uleb128 0xa
 823 010c A2010000 		.4byte	.LASF17
 824 0110 03       		.byte	0x3
 825 0111 5F04     		.2byte	0x45f
 826 0113 97000000 		.4byte	0x97
 827 0117 02       		.byte	0x2
 828 0118 23       		.byte	0x23
 829 0119 14       		.uleb128 0x14
 830 011a 0A       		.uleb128 0xa
 831 011b EA020000 		.4byte	.LASF18
 832 011f 03       		.byte	0x3
 833 0120 6004     		.2byte	0x460
 834 0122 97000000 		.4byte	0x97
 835 0126 02       		.byte	0x2
 836 0127 23       		.byte	0x23
 837 0128 18       		.uleb128 0x18
 838 0129 0A       		.uleb128 0xa
 839 012a 60020000 		.4byte	.LASF19
 840 012e 03       		.byte	0x3
 841 012f 6104     		.2byte	0x461
 842 0131 70000000 		.4byte	0x70
 843 0135 02       		.byte	0x2
 844 0136 23       		.byte	0x23
 845 0137 1C       		.uleb128 0x1c
 846 0138 0A       		.uleb128 0xa
 847 0139 27000000 		.4byte	.LASF20
 848 013d 03       		.byte	0x3
 849 013e 6204     		.2byte	0x462
 850 0140 97000000 		.4byte	0x97
 851 0144 02       		.byte	0x2
ARM GAS  C:\Users\DNIEL~1\AppData\Local\Temp\ccicEs2F.s 			page 16


 852 0145 23       		.byte	0x23
 853 0146 20       		.uleb128 0x20
 854 0147 0A       		.uleb128 0xa
 855 0148 31010000 		.4byte	.LASF21
 856 014c 03       		.byte	0x3
 857 014d 6304     		.2byte	0x463
 858 014f 97000000 		.4byte	0x97
 859 0153 02       		.byte	0x2
 860 0154 23       		.byte	0x23
 861 0155 24       		.uleb128 0x24
 862 0156 0A       		.uleb128 0xa
 863 0157 6A020000 		.4byte	.LASF22
 864 015b 03       		.byte	0x3
 865 015c 6404     		.2byte	0x464
 866 015e A3000000 		.4byte	0xa3
 867 0162 02       		.byte	0x2
 868 0163 23       		.byte	0x23
 869 0164 28       		.uleb128 0x28
 870 0165 0A       		.uleb128 0xa
 871 0166 90000000 		.4byte	.LASF23
 872 016a 03       		.byte	0x3
 873 016b 6504     		.2byte	0x465
 874 016d 97000000 		.4byte	0x97
 875 0171 02       		.byte	0x2
 876 0172 23       		.byte	0x23
 877 0173 30       		.uleb128 0x30
 878 0174 0A       		.uleb128 0xa
 879 0175 30000000 		.4byte	.LASF24
 880 0179 03       		.byte	0x3
 881 017a 6604     		.2byte	0x466
 882 017c 97000000 		.4byte	0x97
 883 0180 02       		.byte	0x2
 884 0181 23       		.byte	0x23
 885 0182 34       		.uleb128 0x34
 886 0183 0A       		.uleb128 0xa
 887 0184 E3000000 		.4byte	.LASF25
 888 0188 03       		.byte	0x3
 889 0189 6704     		.2byte	0x467
 890 018b 97000000 		.4byte	0x97
 891 018f 02       		.byte	0x2
 892 0190 23       		.byte	0x23
 893 0191 38       		.uleb128 0x38
 894 0192 0A       		.uleb128 0xa
 895 0193 74020000 		.4byte	.LASF26
 896 0197 03       		.byte	0x3
 897 0198 6804     		.2byte	0x468
 898 019a 70000000 		.4byte	0x70
 899 019e 02       		.byte	0x2
 900 019f 23       		.byte	0x23
 901 01a0 3C       		.uleb128 0x3c
 902 01a1 0A       		.uleb128 0xa
 903 01a2 BF000000 		.4byte	.LASF27
 904 01a6 03       		.byte	0x3
 905 01a7 6904     		.2byte	0x469
 906 01a9 97000000 		.4byte	0x97
 907 01ad 02       		.byte	0x2
 908 01ae 23       		.byte	0x23
ARM GAS  C:\Users\DNIEL~1\AppData\Local\Temp\ccicEs2F.s 			page 17


 909 01af 40       		.uleb128 0x40
 910 01b0 0A       		.uleb128 0xa
 911 01b1 67010000 		.4byte	.LASF28
 912 01b5 03       		.byte	0x3
 913 01b6 6A04     		.2byte	0x46a
 914 01b8 97000000 		.4byte	0x97
 915 01bc 02       		.byte	0x2
 916 01bd 23       		.byte	0x23
 917 01be 44       		.uleb128 0x44
 918 01bf 0A       		.uleb128 0xa
 919 01c0 7E020000 		.4byte	.LASF29
 920 01c4 03       		.byte	0x3
 921 01c5 6B04     		.2byte	0x46b
 922 01c7 A3000000 		.4byte	0xa3
 923 01cb 02       		.byte	0x2
 924 01cc 23       		.byte	0x23
 925 01cd 48       		.uleb128 0x48
 926 01ce 0A       		.uleb128 0xa
 927 01cf 00000000 		.4byte	.LASF30
 928 01d3 03       		.byte	0x3
 929 01d4 6C04     		.2byte	0x46c
 930 01d6 97000000 		.4byte	0x97
 931 01da 02       		.byte	0x2
 932 01db 23       		.byte	0x23
 933 01dc 50       		.uleb128 0x50
 934 01dd 0A       		.uleb128 0xa
 935 01de 4A020000 		.4byte	.LASF31
 936 01e2 03       		.byte	0x3
 937 01e3 6D04     		.2byte	0x46d
 938 01e5 97000000 		.4byte	0x97
 939 01e9 02       		.byte	0x2
 940 01ea 23       		.byte	0x23
 941 01eb 54       		.uleb128 0x54
 942 01ec 0A       		.uleb128 0xa
 943 01ed A5000000 		.4byte	.LASF32
 944 01f1 03       		.byte	0x3
 945 01f2 6E04     		.2byte	0x46e
 946 01f4 97000000 		.4byte	0x97
 947 01f8 02       		.byte	0x2
 948 01f9 23       		.byte	0x23
 949 01fa 58       		.uleb128 0x58
 950 01fb 0A       		.uleb128 0xa
 951 01fc 88020000 		.4byte	.LASF33
 952 0200 03       		.byte	0x3
 953 0201 6F04     		.2byte	0x46f
 954 0203 70000000 		.4byte	0x70
 955 0207 02       		.byte	0x2
 956 0208 23       		.byte	0x23
 957 0209 5C       		.uleb128 0x5c
 958 020a 0A       		.uleb128 0xa
 959 020b 1E020000 		.4byte	.LASF34
 960 020f 03       		.byte	0x3
 961 0210 7004     		.2byte	0x470
 962 0212 97000000 		.4byte	0x97
 963 0216 02       		.byte	0x2
 964 0217 23       		.byte	0x23
 965 0218 60       		.uleb128 0x60
ARM GAS  C:\Users\DNIEL~1\AppData\Local\Temp\ccicEs2F.s 			page 18


 966 0219 0A       		.uleb128 0xa
 967 021a 69030000 		.4byte	.LASF35
 968 021e 03       		.byte	0x3
 969 021f 7104     		.2byte	0x471
 970 0221 97000000 		.4byte	0x97
 971 0225 02       		.byte	0x2
 972 0226 23       		.byte	0x23
 973 0227 64       		.uleb128 0x64
 974 0228 0A       		.uleb128 0xa
 975 0229 92020000 		.4byte	.LASF36
 976 022d 03       		.byte	0x3
 977 022e 7204     		.2byte	0x472
 978 0230 A3000000 		.4byte	0xa3
 979 0234 02       		.byte	0x2
 980 0235 23       		.byte	0x23
 981 0236 68       		.uleb128 0x68
 982 0237 0A       		.uleb128 0xa
 983 0238 79000000 		.4byte	.LASF37
 984 023c 03       		.byte	0x3
 985 023d 7304     		.2byte	0x473
 986 023f 97000000 		.4byte	0x97
 987 0243 02       		.byte	0x2
 988 0244 23       		.byte	0x23
 989 0245 70       		.uleb128 0x70
 990 0246 09       		.uleb128 0x9
 991 0247 43535200 		.ascii	"CSR\000"
 992 024b 03       		.byte	0x3
 993 024c 7404     		.2byte	0x474
 994 024e 97000000 		.4byte	0x97
 995 0252 02       		.byte	0x2
 996 0253 23       		.byte	0x23
 997 0254 74       		.uleb128 0x74
 998 0255 0A       		.uleb128 0xa
 999 0256 9C020000 		.4byte	.LASF38
 1000 025a 03       		.byte	0x3
 1001 025b 7504     		.2byte	0x475
 1002 025d A3000000 		.4byte	0xa3
 1003 0261 02       		.byte	0x2
 1004 0262 23       		.byte	0x23
 1005 0263 78       		.uleb128 0x78
 1006 0264 0A       		.uleb128 0xa
 1007 0265 98000000 		.4byte	.LASF39
 1008 0269 03       		.byte	0x3
 1009 026a 7604     		.2byte	0x476
 1010 026c 97000000 		.4byte	0x97
 1011 0270 03       		.byte	0x3
 1012 0271 23       		.byte	0x23
 1013 0272 8001     		.uleb128 0x80
 1014 0274 0A       		.uleb128 0xa
 1015 0275 85000000 		.4byte	.LASF40
 1016 0279 03       		.byte	0x3
 1017 027a 7704     		.2byte	0x477
 1018 027c 97000000 		.4byte	0x97
 1019 0280 03       		.byte	0x3
 1020 0281 23       		.byte	0x23
 1021 0282 8401     		.uleb128 0x84
 1022 0284 0A       		.uleb128 0xa
ARM GAS  C:\Users\DNIEL~1\AppData\Local\Temp\ccicEs2F.s 			page 19


 1023 0285 59030000 		.4byte	.LASF41
 1024 0289 03       		.byte	0x3
 1025 028a 7804     		.2byte	0x478
 1026 028c 97000000 		.4byte	0x97
 1027 0290 03       		.byte	0x3
 1028 0291 23       		.byte	0x23
 1029 0292 8801     		.uleb128 0x88
 1030 0294 0A       		.uleb128 0xa
 1031 0295 DB000000 		.4byte	.LASF42
 1032 0299 03       		.byte	0x3
 1033 029a 7904     		.2byte	0x479
 1034 029c 97000000 		.4byte	0x97
 1035 02a0 03       		.byte	0x3
 1036 02a1 23       		.byte	0x23
 1037 02a2 8C01     		.uleb128 0x8c
 1038 02a4 00       		.byte	0x0
 1039 02a5 0B       		.uleb128 0xb
 1040 02a6 1F010000 		.4byte	.LASF43
 1041 02aa 03       		.byte	0x3
 1042 02ab 7B04     		.2byte	0x47b
 1043 02ad B8000000 		.4byte	0xb8
 1044 02b1 0C       		.uleb128 0xc
 1045 02b2 04       		.byte	0x4
 1046 02b3 04       		.byte	0x4
 1047 02b4 96       		.byte	0x96
 1048 02b5 D6020000 		.4byte	0x2d6
 1049 02b9 0D       		.uleb128 0xd
 1050 02ba 73657400 		.ascii	"set\000"
 1051 02be 04       		.byte	0x4
 1052 02bf 97       		.byte	0x97
 1053 02c0 4C000000 		.4byte	0x4c
 1054 02c4 02       		.byte	0x2
 1055 02c5 23       		.byte	0x23
 1056 02c6 00       		.uleb128 0x0
 1057 02c7 0E       		.uleb128 0xe
 1058 02c8 3A010000 		.4byte	.LASF44
 1059 02cc 04       		.byte	0x4
 1060 02cd 98       		.byte	0x98
 1061 02ce 4C000000 		.4byte	0x4c
 1062 02d2 02       		.byte	0x2
 1063 02d3 23       		.byte	0x23
 1064 02d4 02       		.uleb128 0x2
 1065 02d5 00       		.byte	0x0
 1066 02d6 0F       		.uleb128 0xf
 1067 02d7 04       		.byte	0x4
 1068 02d8 04       		.byte	0x4
 1069 02d9 94       		.byte	0x94
 1070 02da F1020000 		.4byte	0x2f1
 1071 02de 10       		.uleb128 0x10
 1072 02df 5700     		.ascii	"W\000"
 1073 02e1 04       		.byte	0x4
 1074 02e2 95       		.byte	0x95
 1075 02e3 70000000 		.4byte	0x70
 1076 02e7 10       		.uleb128 0x10
 1077 02e8 4800     		.ascii	"H\000"
 1078 02ea 04       		.byte	0x4
 1079 02eb 99       		.byte	0x99
ARM GAS  C:\Users\DNIEL~1\AppData\Local\Temp\ccicEs2F.s 			page 20


 1080 02ec B1020000 		.4byte	0x2b1
 1081 02f0 00       		.byte	0x0
 1082 02f1 0C       		.uleb128 0xc
 1083 02f2 28       		.byte	0x28
 1084 02f3 04       		.byte	0x4
 1085 02f4 8C       		.byte	0x8c
 1086 02f5 86030000 		.4byte	0x386
 1087 02f9 0E       		.uleb128 0xe
 1088 02fa 2B010000 		.4byte	.LASF45
 1089 02fe 04       		.byte	0x4
 1090 02ff 8E       		.byte	0x8e
 1091 0300 97000000 		.4byte	0x97
 1092 0304 02       		.byte	0x2
 1093 0305 23       		.byte	0x23
 1094 0306 00       		.uleb128 0x0
 1095 0307 0E       		.uleb128 0xe
 1096 0308 D4000000 		.4byte	.LASF46
 1097 030c 04       		.byte	0x4
 1098 030d 8F       		.byte	0x8f
 1099 030e 97000000 		.4byte	0x97
 1100 0312 02       		.byte	0x2
 1101 0313 23       		.byte	0x23
 1102 0314 04       		.uleb128 0x4
 1103 0315 0E       		.uleb128 0xe
 1104 0316 EB000000 		.4byte	.LASF47
 1105 031a 04       		.byte	0x4
 1106 031b 90       		.byte	0x90
 1107 031c 97000000 		.4byte	0x97
 1108 0320 02       		.byte	0x2
 1109 0321 23       		.byte	0x23
 1110 0322 08       		.uleb128 0x8
 1111 0323 0E       		.uleb128 0xe
 1112 0324 01010000 		.4byte	.LASF48
 1113 0328 04       		.byte	0x4
 1114 0329 91       		.byte	0x91
 1115 032a 97000000 		.4byte	0x97
 1116 032e 02       		.byte	0x2
 1117 032f 23       		.byte	0x23
 1118 0330 0C       		.uleb128 0xc
 1119 0331 0D       		.uleb128 0xd
 1120 0332 49445200 		.ascii	"IDR\000"
 1121 0336 04       		.byte	0x4
 1122 0337 92       		.byte	0x92
 1123 0338 97000000 		.4byte	0x97
 1124 033c 02       		.byte	0x2
 1125 033d 23       		.byte	0x23
 1126 033e 10       		.uleb128 0x10
 1127 033f 0D       		.uleb128 0xd
 1128 0340 4F445200 		.ascii	"ODR\000"
 1129 0344 04       		.byte	0x4
 1130 0345 93       		.byte	0x93
 1131 0346 97000000 		.4byte	0x97
 1132 034a 02       		.byte	0x2
 1133 034b 23       		.byte	0x23
 1134 034c 14       		.uleb128 0x14
 1135 034d 0E       		.uleb128 0xe
 1136 034e 73030000 		.4byte	.LASF49
ARM GAS  C:\Users\DNIEL~1\AppData\Local\Temp\ccicEs2F.s 			page 21


 1137 0352 04       		.byte	0x4
 1138 0353 9A       		.byte	0x9a
 1139 0354 86030000 		.4byte	0x386
 1140 0358 02       		.byte	0x2
 1141 0359 23       		.byte	0x23
 1142 035a 18       		.uleb128 0x18
 1143 035b 0E       		.uleb128 0xe
 1144 035c 64030000 		.4byte	.LASF50
 1145 0360 04       		.byte	0x4
 1146 0361 9B       		.byte	0x9b
 1147 0362 97000000 		.4byte	0x97
 1148 0366 02       		.byte	0x2
 1149 0367 23       		.byte	0x23
 1150 0368 1C       		.uleb128 0x1c
 1151 0369 0E       		.uleb128 0xe
 1152 036a 06020000 		.4byte	.LASF51
 1153 036e 04       		.byte	0x4
 1154 036f 9C       		.byte	0x9c
 1155 0370 97000000 		.4byte	0x97
 1156 0374 02       		.byte	0x2
 1157 0375 23       		.byte	0x23
 1158 0376 20       		.uleb128 0x20
 1159 0377 0E       		.uleb128 0xe
 1160 0378 F9010000 		.4byte	.LASF52
 1161 037c 04       		.byte	0x4
 1162 037d 9D       		.byte	0x9d
 1163 037e 97000000 		.4byte	0x97
 1164 0382 02       		.byte	0x2
 1165 0383 23       		.byte	0x23
 1166 0384 24       		.uleb128 0x24
 1167 0385 00       		.byte	0x0
 1168 0386 05       		.uleb128 0x5
 1169 0387 D6020000 		.4byte	0x2d6
 1170 038b 04       		.uleb128 0x4
 1171 038c DD020000 		.4byte	.LASF53
 1172 0390 04       		.byte	0x4
 1173 0391 9E       		.byte	0x9e
 1174 0392 F1020000 		.4byte	0x2f1
 1175 0396 0C       		.uleb128 0xc
 1176 0397 1C       		.byte	0x1c
 1177 0398 04       		.byte	0x4
 1178 0399 A3       		.byte	0xa3
 1179 039a 01040000 		.4byte	0x401
 1180 039e 0E       		.uleb128 0xe
 1181 039f CE020000 		.4byte	.LASF54
 1182 03a3 04       		.byte	0x4
 1183 03a4 A5       		.byte	0xa5
 1184 03a5 70000000 		.4byte	0x70
 1185 03a9 02       		.byte	0x2
 1186 03aa 23       		.byte	0x23
 1187 03ab 00       		.uleb128 0x0
 1188 03ac 0E       		.uleb128 0xe
 1189 03ad 9B010000 		.4byte	.LASF55
 1190 03b1 04       		.byte	0x4
 1191 03b2 A7       		.byte	0xa7
 1192 03b3 70000000 		.4byte	0x70
 1193 03b7 02       		.byte	0x2
ARM GAS  C:\Users\DNIEL~1\AppData\Local\Temp\ccicEs2F.s 			page 22


 1194 03b8 23       		.byte	0x23
 1195 03b9 04       		.uleb128 0x4
 1196 03ba 0E       		.uleb128 0xe
 1197 03bb 07010000 		.4byte	.LASF56
 1198 03bf 04       		.byte	0x4
 1199 03c0 A9       		.byte	0xa9
 1200 03c1 70000000 		.4byte	0x70
 1201 03c5 02       		.byte	0x2
 1202 03c6 23       		.byte	0x23
 1203 03c7 08       		.uleb128 0x8
 1204 03c8 0E       		.uleb128 0xe
 1205 03c9 BE020000 		.4byte	.LASF57
 1206 03cd 04       		.byte	0x4
 1207 03ce AB       		.byte	0xab
 1208 03cf 70000000 		.4byte	0x70
 1209 03d3 02       		.byte	0x2
 1210 03d4 23       		.byte	0x23
 1211 03d5 0C       		.uleb128 0xc
 1212 03d6 0D       		.uleb128 0xd
 1213 03d7 6F647200 		.ascii	"odr\000"
 1214 03db 04       		.byte	0x4
 1215 03dc AD       		.byte	0xad
 1216 03dd 70000000 		.4byte	0x70
 1217 03e1 02       		.byte	0x2
 1218 03e2 23       		.byte	0x23
 1219 03e3 10       		.uleb128 0x10
 1220 03e4 0E       		.uleb128 0xe
 1221 03e5 C9020000 		.4byte	.LASF58
 1222 03e9 04       		.byte	0x4
 1223 03ea AF       		.byte	0xaf
 1224 03eb 70000000 		.4byte	0x70
 1225 03ef 02       		.byte	0x2
 1226 03f0 23       		.byte	0x23
 1227 03f1 14       		.uleb128 0x14
 1228 03f2 0E       		.uleb128 0xe
 1229 03f3 C4020000 		.4byte	.LASF59
 1230 03f7 04       		.byte	0x4
 1231 03f8 B1       		.byte	0xb1
 1232 03f9 70000000 		.4byte	0x70
 1233 03fd 02       		.byte	0x2
 1234 03fe 23       		.byte	0x23
 1235 03ff 18       		.uleb128 0x18
 1236 0400 00       		.byte	0x0
 1237 0401 04       		.uleb128 0x4
 1238 0402 38000000 		.4byte	.LASF60
 1239 0406 04       		.byte	0x4
 1240 0407 B2       		.byte	0xb2
 1241 0408 96030000 		.4byte	0x396
 1242 040c 0C       		.uleb128 0xc
 1243 040d FC       		.byte	0xfc
 1244 040e 04       		.byte	0x4
 1245 040f BB       		.byte	0xbb
 1246 0410 97040000 		.4byte	0x497
 1247 0414 0E       		.uleb128 0xe
 1248 0415 47010000 		.4byte	.LASF61
 1249 0419 04       		.byte	0x4
 1250 041a BE       		.byte	0xbe
ARM GAS  C:\Users\DNIEL~1\AppData\Local\Temp\ccicEs2F.s 			page 23


 1251 041b 01040000 		.4byte	0x401
 1252 041f 02       		.byte	0x2
 1253 0420 23       		.byte	0x23
 1254 0421 00       		.uleb128 0x0
 1255 0422 0E       		.uleb128 0xe
 1256 0423 9E000000 		.4byte	.LASF62
 1257 0427 04       		.byte	0x4
 1258 0428 C2       		.byte	0xc2
 1259 0429 01040000 		.4byte	0x401
 1260 042d 02       		.byte	0x2
 1261 042e 23       		.byte	0x23
 1262 042f 1C       		.uleb128 0x1c
 1263 0430 0E       		.uleb128 0xe
 1264 0431 0A000000 		.4byte	.LASF63
 1265 0435 04       		.byte	0x4
 1266 0436 C6       		.byte	0xc6
 1267 0437 01040000 		.4byte	0x401
 1268 043b 02       		.byte	0x2
 1269 043c 23       		.byte	0x23
 1270 043d 38       		.uleb128 0x38
 1271 043e 0E       		.uleb128 0xe
 1272 043f 18010000 		.4byte	.LASF64
 1273 0443 04       		.byte	0x4
 1274 0444 CA       		.byte	0xca
 1275 0445 01040000 		.4byte	0x401
 1276 0449 02       		.byte	0x2
 1277 044a 23       		.byte	0x23
 1278 044b 54       		.uleb128 0x54
 1279 044c 0E       		.uleb128 0xe
 1280 044d 59020000 		.4byte	.LASF65
 1281 0451 04       		.byte	0x4
 1282 0452 CE       		.byte	0xce
 1283 0453 01040000 		.4byte	0x401
 1284 0457 02       		.byte	0x2
 1285 0458 23       		.byte	0x23
 1286 0459 70       		.uleb128 0x70
 1287 045a 0E       		.uleb128 0xe
 1288 045b 4B000000 		.4byte	.LASF66
 1289 045f 04       		.byte	0x4
 1290 0460 D2       		.byte	0xd2
 1291 0461 01040000 		.4byte	0x401
 1292 0465 03       		.byte	0x3
 1293 0466 23       		.byte	0x23
 1294 0467 8C01     		.uleb128 0x8c
 1295 0469 0E       		.uleb128 0xe
 1296 046a 40010000 		.4byte	.LASF67
 1297 046e 04       		.byte	0x4
 1298 046f D6       		.byte	0xd6
 1299 0470 01040000 		.4byte	0x401
 1300 0474 03       		.byte	0x3
 1301 0475 23       		.byte	0x23
 1302 0476 A801     		.uleb128 0xa8
 1303 0478 0E       		.uleb128 0xe
 1304 0479 A6020000 		.4byte	.LASF68
 1305 047d 04       		.byte	0x4
 1306 047e DA       		.byte	0xda
 1307 047f 01040000 		.4byte	0x401
ARM GAS  C:\Users\DNIEL~1\AppData\Local\Temp\ccicEs2F.s 			page 24


 1308 0483 03       		.byte	0x3
 1309 0484 23       		.byte	0x23
 1310 0485 C401     		.uleb128 0xc4
 1311 0487 0E       		.uleb128 0xe
 1312 0488 7E000000 		.4byte	.LASF69
 1313 048c 04       		.byte	0x4
 1314 048d DE       		.byte	0xde
 1315 048e 01040000 		.4byte	0x401
 1316 0492 03       		.byte	0x3
 1317 0493 23       		.byte	0x23
 1318 0494 E001     		.uleb128 0xe0
 1319 0496 00       		.byte	0x0
 1320 0497 04       		.uleb128 0x4
 1321 0498 35020000 		.4byte	.LASF70
 1322 049c 04       		.byte	0x4
 1323 049d E0       		.byte	0xe0
 1324 049e 0C040000 		.4byte	0x40c
 1325 04a2 04       		.uleb128 0x4
 1326 04a3 C7000000 		.4byte	.LASF71
 1327 04a7 04       		.byte	0x4
 1328 04a8 F0       		.byte	0xf0
 1329 04a9 70000000 		.4byte	0x70
 1330 04ad 04       		.uleb128 0x4
 1331 04ae B6000000 		.4byte	.LASF72
 1332 04b2 04       		.byte	0x4
 1333 04b3 F5       		.byte	0xf5
 1334 04b4 70000000 		.4byte	0x70
 1335 04b8 04       		.uleb128 0x4
 1336 04b9 4E010000 		.4byte	.LASF73
 1337 04bd 04       		.byte	0x4
 1338 04be FD       		.byte	0xfd
 1339 04bf C3040000 		.4byte	0x4c3
 1340 04c3 11       		.uleb128 0x11
 1341 04c4 04       		.byte	0x4
 1342 04c5 8B030000 		.4byte	0x38b
 1343 04c9 12       		.uleb128 0x12
 1344 04ca 6A000000 		.4byte	.LASF87
 1345 04ce 01       		.byte	0x1
 1346 04cf 5C       		.byte	0x5c
 1347 04d0 01       		.byte	0x1
 1348 04d1 01       		.byte	0x1
 1349 04d2 ED040000 		.4byte	0x4ed
 1350 04d6 13       		.uleb128 0x13
 1351 04d7 73000000 		.4byte	.LASF74
 1352 04db 01       		.byte	0x1
 1353 04dc 5C       		.byte	0x5c
 1354 04dd C3040000 		.4byte	0x4c3
 1355 04e1 13       		.uleb128 0x13
 1356 04e2 AF000000 		.4byte	.LASF75
 1357 04e6 01       		.byte	0x1
 1358 04e7 5C       		.byte	0x5c
 1359 04e8 ED040000 		.4byte	0x4ed
 1360 04ec 00       		.byte	0x0
 1361 04ed 11       		.uleb128 0x11
 1362 04ee 04       		.byte	0x4
 1363 04ef F3040000 		.4byte	0x4f3
 1364 04f3 14       		.uleb128 0x14
ARM GAS  C:\Users\DNIEL~1\AppData\Local\Temp\ccicEs2F.s 			page 25


 1365 04f4 01040000 		.4byte	0x401
 1366 04f8 15       		.uleb128 0x15
 1367 04f9 01       		.byte	0x1
 1368 04fa 52000000 		.4byte	.LASF76
 1369 04fe 01       		.byte	0x1
 1370 04ff 77       		.byte	0x77
 1371 0500 01       		.byte	0x1
 1372 0501 00000000 		.4byte	.LFB119
 1373 0505 FC010000 		.4byte	.LFE119
 1374 0509 00000000 		.4byte	.LLST0
 1375 050d 75060000 		.4byte	0x675
 1376 0511 16       		.uleb128 0x16
 1377 0512 AF000000 		.4byte	.LASF75
 1378 0516 01       		.byte	0x1
 1379 0517 77       		.byte	0x77
 1380 0518 75060000 		.4byte	0x675
 1381 051c 01       		.byte	0x1
 1382 051d 50       		.byte	0x50
 1383 051e 17       		.uleb128 0x17
 1384 051f C9040000 		.4byte	0x4c9
 1385 0523 08000000 		.4byte	.LBB20
 1386 0527 00000000 		.4byte	.Ldebug_ranges0+0x0
 1387 052b 01       		.byte	0x1
 1388 052c 8C       		.byte	0x8c
 1389 052d 42050000 		.4byte	0x542
 1390 0531 18       		.uleb128 0x18
 1391 0532 E1040000 		.4byte	0x4e1
 1392 0536 01       		.byte	0x1
 1393 0537 50       		.byte	0x50
 1394 0538 19       		.uleb128 0x19
 1395 0539 D6040000 		.4byte	0x4d6
 1396 053d 00000240 		.4byte	0x40020000
 1397 0541 00       		.byte	0x0
 1398 0542 17       		.uleb128 0x17
 1399 0543 C9040000 		.4byte	0x4c9
 1400 0547 10000000 		.4byte	.LBB23
 1401 054b 18000000 		.4byte	.Ldebug_ranges0+0x18
 1402 054f 01       		.byte	0x1
 1403 0550 8F       		.byte	0x8f
 1404 0551 68050000 		.4byte	0x568
 1405 0555 18       		.uleb128 0x18
 1406 0556 E1040000 		.4byte	0x4e1
 1407 055a 03       		.byte	0x3
 1408 055b 70       		.byte	0x70
 1409 055c 1C       		.sleb128 28
 1410 055d 9F       		.byte	0x9f
 1411 055e 19       		.uleb128 0x19
 1412 055f D6040000 		.4byte	0x4d6
 1413 0563 00040240 		.4byte	0x40020400
 1414 0567 00       		.byte	0x0
 1415 0568 17       		.uleb128 0x17
 1416 0569 C9040000 		.4byte	0x4c9
 1417 056d 14000000 		.4byte	.LBB26
 1418 0571 30000000 		.4byte	.Ldebug_ranges0+0x30
 1419 0575 01       		.byte	0x1
 1420 0576 92       		.byte	0x92
 1421 0577 8E050000 		.4byte	0x58e
ARM GAS  C:\Users\DNIEL~1\AppData\Local\Temp\ccicEs2F.s 			page 26


 1422 057b 18       		.uleb128 0x18
 1423 057c E1040000 		.4byte	0x4e1
 1424 0580 03       		.byte	0x3
 1425 0581 70       		.byte	0x70
 1426 0582 38       		.sleb128 56
 1427 0583 9F       		.byte	0x9f
 1428 0584 19       		.uleb128 0x19
 1429 0585 D6040000 		.4byte	0x4d6
 1430 0589 00080240 		.4byte	0x40020800
 1431 058d 00       		.byte	0x0
 1432 058e 17       		.uleb128 0x17
 1433 058f C9040000 		.4byte	0x4c9
 1434 0593 16000000 		.4byte	.LBB29
 1435 0597 48000000 		.4byte	.Ldebug_ranges0+0x48
 1436 059b 01       		.byte	0x1
 1437 059c 95       		.byte	0x95
 1438 059d B5050000 		.4byte	0x5b5
 1439 05a1 18       		.uleb128 0x18
 1440 05a2 E1040000 		.4byte	0x4e1
 1441 05a6 04       		.byte	0x4
 1442 05a7 70       		.byte	0x70
 1443 05a8 D400     		.sleb128 84
 1444 05aa 9F       		.byte	0x9f
 1445 05ab 19       		.uleb128 0x19
 1446 05ac D6040000 		.4byte	0x4d6
 1447 05b0 000C0240 		.4byte	0x40020c00
 1448 05b4 00       		.byte	0x0
 1449 05b5 17       		.uleb128 0x17
 1450 05b6 C9040000 		.4byte	0x4c9
 1451 05ba 18000000 		.4byte	.LBB32
 1452 05be 60000000 		.4byte	.Ldebug_ranges0+0x60
 1453 05c2 01       		.byte	0x1
 1454 05c3 98       		.byte	0x98
 1455 05c4 DC050000 		.4byte	0x5dc
 1456 05c8 18       		.uleb128 0x18
 1457 05c9 E1040000 		.4byte	0x4e1
 1458 05cd 04       		.byte	0x4
 1459 05ce 70       		.byte	0x70
 1460 05cf F000     		.sleb128 112
 1461 05d1 9F       		.byte	0x9f
 1462 05d2 19       		.uleb128 0x19
 1463 05d3 D6040000 		.4byte	0x4d6
 1464 05d7 00100240 		.4byte	0x40021000
 1465 05db 00       		.byte	0x0
 1466 05dc 17       		.uleb128 0x17
 1467 05dd C9040000 		.4byte	0x4c9
 1468 05e1 1A000000 		.4byte	.LBB35
 1469 05e5 78000000 		.4byte	.Ldebug_ranges0+0x78
 1470 05e9 01       		.byte	0x1
 1471 05ea 9B       		.byte	0x9b
 1472 05eb 03060000 		.4byte	0x603
 1473 05ef 18       		.uleb128 0x18
 1474 05f0 E1040000 		.4byte	0x4e1
 1475 05f4 04       		.byte	0x4
 1476 05f5 70       		.byte	0x70
 1477 05f6 8C01     		.sleb128 140
 1478 05f8 9F       		.byte	0x9f
ARM GAS  C:\Users\DNIEL~1\AppData\Local\Temp\ccicEs2F.s 			page 27


 1479 05f9 19       		.uleb128 0x19
 1480 05fa D6040000 		.4byte	0x4d6
 1481 05fe 00140240 		.4byte	0x40021400
 1482 0602 00       		.byte	0x0
 1483 0603 17       		.uleb128 0x17
 1484 0604 C9040000 		.4byte	0x4c9
 1485 0608 1C000000 		.4byte	.LBB38
 1486 060c 90000000 		.4byte	.Ldebug_ranges0+0x90
 1487 0610 01       		.byte	0x1
 1488 0611 9E       		.byte	0x9e
 1489 0612 2A060000 		.4byte	0x62a
 1490 0616 18       		.uleb128 0x18
 1491 0617 E1040000 		.4byte	0x4e1
 1492 061b 04       		.byte	0x4
 1493 061c 70       		.byte	0x70
 1494 061d A801     		.sleb128 168
 1495 061f 9F       		.byte	0x9f
 1496 0620 19       		.uleb128 0x19
 1497 0621 D6040000 		.4byte	0x4d6
 1498 0625 00180240 		.4byte	0x40021800
 1499 0629 00       		.byte	0x0
 1500 062a 17       		.uleb128 0x17
 1501 062b C9040000 		.4byte	0x4c9
 1502 062f 1E000000 		.4byte	.LBB41
 1503 0633 A8000000 		.4byte	.Ldebug_ranges0+0xa8
 1504 0637 01       		.byte	0x1
 1505 0638 A1       		.byte	0xa1
 1506 0639 51060000 		.4byte	0x651
 1507 063d 18       		.uleb128 0x18
 1508 063e E1040000 		.4byte	0x4e1
 1509 0642 04       		.byte	0x4
 1510 0643 70       		.byte	0x70
 1511 0644 C401     		.sleb128 196
 1512 0646 9F       		.byte	0x9f
 1513 0647 19       		.uleb128 0x19
 1514 0648 D6040000 		.4byte	0x4d6
 1515 064c 001C0240 		.4byte	0x40021c00
 1516 0650 00       		.byte	0x0
 1517 0651 1A       		.uleb128 0x1a
 1518 0652 C9040000 		.4byte	0x4c9
 1519 0656 20000000 		.4byte	.LBB44
 1520 065a C0000000 		.4byte	.Ldebug_ranges0+0xc0
 1521 065e 01       		.byte	0x1
 1522 065f A4       		.byte	0xa4
 1523 0660 18       		.uleb128 0x18
 1524 0661 E1040000 		.4byte	0x4e1
 1525 0665 04       		.byte	0x4
 1526 0666 70       		.byte	0x70
 1527 0667 E001     		.sleb128 224
 1528 0669 9F       		.byte	0x9f
 1529 066a 19       		.uleb128 0x19
 1530 066b D6040000 		.4byte	0x4d6
 1531 066f 00200240 		.4byte	0x40022000
 1532 0673 00       		.byte	0x0
 1533 0674 00       		.byte	0x0
 1534 0675 11       		.uleb128 0x11
 1535 0676 04       		.byte	0x4
ARM GAS  C:\Users\DNIEL~1\AppData\Local\Temp\ccicEs2F.s 			page 28


 1536 0677 7B060000 		.4byte	0x67b
 1537 067b 14       		.uleb128 0x14
 1538 067c 97040000 		.4byte	0x497
 1539 0680 15       		.uleb128 0x15
 1540 0681 01       		.byte	0x1
 1541 0682 11000000 		.4byte	.LASF77
 1542 0686 01       		.byte	0x1
 1543 0687 B6       		.byte	0xb6
 1544 0688 01       		.byte	0x1
 1545 0689 00000000 		.4byte	.LFB120
 1546 068d BC000000 		.4byte	.LFE120
 1547 0691 20000000 		.4byte	.LLST1
 1548 0695 5E070000 		.4byte	0x75e
 1549 0699 16       		.uleb128 0x16
 1550 069a 54020000 		.4byte	.LASF78
 1551 069e 01       		.byte	0x1
 1552 069f B6       		.byte	0xb6
 1553 06a0 B8040000 		.4byte	0x4b8
 1554 06a4 01       		.byte	0x1
 1555 06a5 50       		.byte	0x50
 1556 06a6 1B       		.uleb128 0x1b
 1557 06a7 B9020000 		.4byte	.LASF79
 1558 06ab 01       		.byte	0x1
 1559 06ac B7       		.byte	0xb7
 1560 06ad A2040000 		.4byte	0x4a2
 1561 06b1 40000000 		.4byte	.LLST2
 1562 06b5 1B       		.uleb128 0x1b
 1563 06b6 45020000 		.4byte	.LASF80
 1564 06ba 01       		.byte	0x1
 1565 06bb B8       		.byte	0xb8
 1566 06bc AD040000 		.4byte	0x4ad
 1567 06c0 6D000000 		.4byte	.LLST3
 1568 06c4 1C       		.uleb128 0x1c
 1569 06c5 CE020000 		.4byte	.LASF54
 1570 06c9 01       		.byte	0x1
 1571 06ca BA       		.byte	0xba
 1572 06cb 70000000 		.4byte	0x70
 1573 06cf 80000000 		.4byte	.LLST4
 1574 06d3 1C       		.uleb128 0x1c
 1575 06d4 9B010000 		.4byte	.LASF55
 1576 06d8 01       		.byte	0x1
 1577 06d9 BB       		.byte	0xbb
 1578 06da 70000000 		.4byte	0x70
 1579 06de 9E000000 		.4byte	.LLST5
 1580 06e2 1C       		.uleb128 0x1c
 1581 06e3 07010000 		.4byte	.LASF56
 1582 06e7 01       		.byte	0x1
 1583 06e8 BC       		.byte	0xbc
 1584 06e9 70000000 		.4byte	0x70
 1585 06ed BC000000 		.4byte	.LLST6
 1586 06f1 1C       		.uleb128 0x1c
 1587 06f2 BE020000 		.4byte	.LASF57
 1588 06f6 01       		.byte	0x1
 1589 06f7 BD       		.byte	0xbd
 1590 06f8 70000000 		.4byte	0x70
 1591 06fc DA000000 		.4byte	.LLST7
 1592 0700 1C       		.uleb128 0x1c
ARM GAS  C:\Users\DNIEL~1\AppData\Local\Temp\ccicEs2F.s 			page 29


 1593 0701 F3020000 		.4byte	.LASF81
 1594 0705 01       		.byte	0x1
 1595 0706 BE       		.byte	0xbe
 1596 0707 70000000 		.4byte	0x70
 1597 070b F8000000 		.4byte	.LLST8
 1598 070f 1D       		.uleb128 0x1d
 1599 0710 62697400 		.ascii	"bit\000"
 1600 0714 01       		.byte	0x1
 1601 0715 BF       		.byte	0xbf
 1602 0716 70000000 		.4byte	0x70
 1603 071a 16010000 		.4byte	.LLST9
 1604 071e 1E       		.uleb128 0x1e
 1605 071f D8000000 		.4byte	.Ldebug_ranges0+0xd8
 1606 0723 1C       		.uleb128 0x1c
 1607 0724 3E030000 		.4byte	.LASF82
 1608 0728 01       		.byte	0x1
 1609 0729 C2       		.byte	0xc2
 1610 072a 70000000 		.4byte	0x70
 1611 072e 40010000 		.4byte	.LLST10
 1612 0732 1D       		.uleb128 0x1d
 1613 0733 6D3100   		.ascii	"m1\000"
 1614 0736 01       		.byte	0x1
 1615 0737 C2       		.byte	0xc2
 1616 0738 70000000 		.4byte	0x70
 1617 073c 5E010000 		.4byte	.LLST11
 1618 0740 1D       		.uleb128 0x1d
 1619 0741 6D3200   		.ascii	"m2\000"
 1620 0744 01       		.byte	0x1
 1621 0745 C2       		.byte	0xc2
 1622 0746 70000000 		.4byte	0x70
 1623 074a 75010000 		.4byte	.LLST12
 1624 074e 1D       		.uleb128 0x1d
 1625 074f 6D3400   		.ascii	"m4\000"
 1626 0752 01       		.byte	0x1
 1627 0753 C2       		.byte	0xc2
 1628 0754 70000000 		.4byte	0x70
 1629 0758 8E010000 		.4byte	.LLST13
 1630 075c 00       		.byte	0x0
 1631 075d 00       		.byte	0x0
 1632 075e 1F       		.uleb128 0x1f
 1633 075f 31030000 		.4byte	.LASF83
 1634 0763 05       		.byte	0x5
 1635 0764 9806     		.2byte	0x698
 1636 0766 B3000000 		.4byte	0xb3
 1637 076a 01       		.byte	0x1
 1638 076b 01       		.byte	0x1
 1639 076c 1F       		.uleb128 0x1f
 1640 076d 31030000 		.4byte	.LASF83
 1641 0771 05       		.byte	0x5
 1642 0772 9806     		.2byte	0x698
 1643 0774 B3000000 		.4byte	0xb3
 1644 0778 01       		.byte	0x1
 1645 0779 01       		.byte	0x1
 1646 077a 00       		.byte	0x0
 1647              		.section	.debug_abbrev
 1648 0000 01       		.uleb128 0x1
 1649 0001 11       		.uleb128 0x11
ARM GAS  C:\Users\DNIEL~1\AppData\Local\Temp\ccicEs2F.s 			page 30


 1650 0002 01       		.byte	0x1
 1651 0003 25       		.uleb128 0x25
 1652 0004 0E       		.uleb128 0xe
 1653 0005 13       		.uleb128 0x13
 1654 0006 0B       		.uleb128 0xb
 1655 0007 03       		.uleb128 0x3
 1656 0008 0E       		.uleb128 0xe
 1657 0009 1B       		.uleb128 0x1b
 1658 000a 0E       		.uleb128 0xe
 1659 000b 11       		.uleb128 0x11
 1660 000c 01       		.uleb128 0x1
 1661 000d 52       		.uleb128 0x52
 1662 000e 01       		.uleb128 0x1
 1663 000f 55       		.uleb128 0x55
 1664 0010 06       		.uleb128 0x6
 1665 0011 10       		.uleb128 0x10
 1666 0012 06       		.uleb128 0x6
 1667 0013 00       		.byte	0x0
 1668 0014 00       		.byte	0x0
 1669 0015 02       		.uleb128 0x2
 1670 0016 24       		.uleb128 0x24
 1671 0017 00       		.byte	0x0
 1672 0018 0B       		.uleb128 0xb
 1673 0019 0B       		.uleb128 0xb
 1674 001a 3E       		.uleb128 0x3e
 1675 001b 0B       		.uleb128 0xb
 1676 001c 03       		.uleb128 0x3
 1677 001d 08       		.uleb128 0x8
 1678 001e 00       		.byte	0x0
 1679 001f 00       		.byte	0x0
 1680 0020 03       		.uleb128 0x3
 1681 0021 24       		.uleb128 0x24
 1682 0022 00       		.byte	0x0
 1683 0023 0B       		.uleb128 0xb
 1684 0024 0B       		.uleb128 0xb
 1685 0025 3E       		.uleb128 0x3e
 1686 0026 0B       		.uleb128 0xb
 1687 0027 03       		.uleb128 0x3
 1688 0028 0E       		.uleb128 0xe
 1689 0029 00       		.byte	0x0
 1690 002a 00       		.byte	0x0
 1691 002b 04       		.uleb128 0x4
 1692 002c 16       		.uleb128 0x16
 1693 002d 00       		.byte	0x0
 1694 002e 03       		.uleb128 0x3
 1695 002f 0E       		.uleb128 0xe
 1696 0030 3A       		.uleb128 0x3a
 1697 0031 0B       		.uleb128 0xb
 1698 0032 3B       		.uleb128 0x3b
 1699 0033 0B       		.uleb128 0xb
 1700 0034 49       		.uleb128 0x49
 1701 0035 13       		.uleb128 0x13
 1702 0036 00       		.byte	0x0
 1703 0037 00       		.byte	0x0
 1704 0038 05       		.uleb128 0x5
 1705 0039 35       		.uleb128 0x35
 1706 003a 00       		.byte	0x0
ARM GAS  C:\Users\DNIEL~1\AppData\Local\Temp\ccicEs2F.s 			page 31


 1707 003b 49       		.uleb128 0x49
 1708 003c 13       		.uleb128 0x13
 1709 003d 00       		.byte	0x0
 1710 003e 00       		.byte	0x0
 1711 003f 06       		.uleb128 0x6
 1712 0040 01       		.uleb128 0x1
 1713 0041 01       		.byte	0x1
 1714 0042 49       		.uleb128 0x49
 1715 0043 13       		.uleb128 0x13
 1716 0044 01       		.uleb128 0x1
 1717 0045 13       		.uleb128 0x13
 1718 0046 00       		.byte	0x0
 1719 0047 00       		.byte	0x0
 1720 0048 07       		.uleb128 0x7
 1721 0049 21       		.uleb128 0x21
 1722 004a 00       		.byte	0x0
 1723 004b 49       		.uleb128 0x49
 1724 004c 13       		.uleb128 0x13
 1725 004d 2F       		.uleb128 0x2f
 1726 004e 0B       		.uleb128 0xb
 1727 004f 00       		.byte	0x0
 1728 0050 00       		.byte	0x0
 1729 0051 08       		.uleb128 0x8
 1730 0052 13       		.uleb128 0x13
 1731 0053 01       		.byte	0x1
 1732 0054 0B       		.uleb128 0xb
 1733 0055 0B       		.uleb128 0xb
 1734 0056 3A       		.uleb128 0x3a
 1735 0057 0B       		.uleb128 0xb
 1736 0058 3B       		.uleb128 0x3b
 1737 0059 05       		.uleb128 0x5
 1738 005a 01       		.uleb128 0x1
 1739 005b 13       		.uleb128 0x13
 1740 005c 00       		.byte	0x0
 1741 005d 00       		.byte	0x0
 1742 005e 09       		.uleb128 0x9
 1743 005f 0D       		.uleb128 0xd
 1744 0060 00       		.byte	0x0
 1745 0061 03       		.uleb128 0x3
 1746 0062 08       		.uleb128 0x8
 1747 0063 3A       		.uleb128 0x3a
 1748 0064 0B       		.uleb128 0xb
 1749 0065 3B       		.uleb128 0x3b
 1750 0066 05       		.uleb128 0x5
 1751 0067 49       		.uleb128 0x49
 1752 0068 13       		.uleb128 0x13
 1753 0069 38       		.uleb128 0x38
 1754 006a 0A       		.uleb128 0xa
 1755 006b 00       		.byte	0x0
 1756 006c 00       		.byte	0x0
 1757 006d 0A       		.uleb128 0xa
 1758 006e 0D       		.uleb128 0xd
 1759 006f 00       		.byte	0x0
 1760 0070 03       		.uleb128 0x3
 1761 0071 0E       		.uleb128 0xe
 1762 0072 3A       		.uleb128 0x3a
 1763 0073 0B       		.uleb128 0xb
ARM GAS  C:\Users\DNIEL~1\AppData\Local\Temp\ccicEs2F.s 			page 32


 1764 0074 3B       		.uleb128 0x3b
 1765 0075 05       		.uleb128 0x5
 1766 0076 49       		.uleb128 0x49
 1767 0077 13       		.uleb128 0x13
 1768 0078 38       		.uleb128 0x38
 1769 0079 0A       		.uleb128 0xa
 1770 007a 00       		.byte	0x0
 1771 007b 00       		.byte	0x0
 1772 007c 0B       		.uleb128 0xb
 1773 007d 16       		.uleb128 0x16
 1774 007e 00       		.byte	0x0
 1775 007f 03       		.uleb128 0x3
 1776 0080 0E       		.uleb128 0xe
 1777 0081 3A       		.uleb128 0x3a
 1778 0082 0B       		.uleb128 0xb
 1779 0083 3B       		.uleb128 0x3b
 1780 0084 05       		.uleb128 0x5
 1781 0085 49       		.uleb128 0x49
 1782 0086 13       		.uleb128 0x13
 1783 0087 00       		.byte	0x0
 1784 0088 00       		.byte	0x0
 1785 0089 0C       		.uleb128 0xc
 1786 008a 13       		.uleb128 0x13
 1787 008b 01       		.byte	0x1
 1788 008c 0B       		.uleb128 0xb
 1789 008d 0B       		.uleb128 0xb
 1790 008e 3A       		.uleb128 0x3a
 1791 008f 0B       		.uleb128 0xb
 1792 0090 3B       		.uleb128 0x3b
 1793 0091 0B       		.uleb128 0xb
 1794 0092 01       		.uleb128 0x1
 1795 0093 13       		.uleb128 0x13
 1796 0094 00       		.byte	0x0
 1797 0095 00       		.byte	0x0
 1798 0096 0D       		.uleb128 0xd
 1799 0097 0D       		.uleb128 0xd
 1800 0098 00       		.byte	0x0
 1801 0099 03       		.uleb128 0x3
 1802 009a 08       		.uleb128 0x8
 1803 009b 3A       		.uleb128 0x3a
 1804 009c 0B       		.uleb128 0xb
 1805 009d 3B       		.uleb128 0x3b
 1806 009e 0B       		.uleb128 0xb
 1807 009f 49       		.uleb128 0x49
 1808 00a0 13       		.uleb128 0x13
 1809 00a1 38       		.uleb128 0x38
 1810 00a2 0A       		.uleb128 0xa
 1811 00a3 00       		.byte	0x0
 1812 00a4 00       		.byte	0x0
 1813 00a5 0E       		.uleb128 0xe
 1814 00a6 0D       		.uleb128 0xd
 1815 00a7 00       		.byte	0x0
 1816 00a8 03       		.uleb128 0x3
 1817 00a9 0E       		.uleb128 0xe
 1818 00aa 3A       		.uleb128 0x3a
 1819 00ab 0B       		.uleb128 0xb
 1820 00ac 3B       		.uleb128 0x3b
ARM GAS  C:\Users\DNIEL~1\AppData\Local\Temp\ccicEs2F.s 			page 33


 1821 00ad 0B       		.uleb128 0xb
 1822 00ae 49       		.uleb128 0x49
 1823 00af 13       		.uleb128 0x13
 1824 00b0 38       		.uleb128 0x38
 1825 00b1 0A       		.uleb128 0xa
 1826 00b2 00       		.byte	0x0
 1827 00b3 00       		.byte	0x0
 1828 00b4 0F       		.uleb128 0xf
 1829 00b5 17       		.uleb128 0x17
 1830 00b6 01       		.byte	0x1
 1831 00b7 0B       		.uleb128 0xb
 1832 00b8 0B       		.uleb128 0xb
 1833 00b9 3A       		.uleb128 0x3a
 1834 00ba 0B       		.uleb128 0xb
 1835 00bb 3B       		.uleb128 0x3b
 1836 00bc 0B       		.uleb128 0xb
 1837 00bd 01       		.uleb128 0x1
 1838 00be 13       		.uleb128 0x13
 1839 00bf 00       		.byte	0x0
 1840 00c0 00       		.byte	0x0
 1841 00c1 10       		.uleb128 0x10
 1842 00c2 0D       		.uleb128 0xd
 1843 00c3 00       		.byte	0x0
 1844 00c4 03       		.uleb128 0x3
 1845 00c5 08       		.uleb128 0x8
 1846 00c6 3A       		.uleb128 0x3a
 1847 00c7 0B       		.uleb128 0xb
 1848 00c8 3B       		.uleb128 0x3b
 1849 00c9 0B       		.uleb128 0xb
 1850 00ca 49       		.uleb128 0x49
 1851 00cb 13       		.uleb128 0x13
 1852 00cc 00       		.byte	0x0
 1853 00cd 00       		.byte	0x0
 1854 00ce 11       		.uleb128 0x11
 1855 00cf 0F       		.uleb128 0xf
 1856 00d0 00       		.byte	0x0
 1857 00d1 0B       		.uleb128 0xb
 1858 00d2 0B       		.uleb128 0xb
 1859 00d3 49       		.uleb128 0x49
 1860 00d4 13       		.uleb128 0x13
 1861 00d5 00       		.byte	0x0
 1862 00d6 00       		.byte	0x0
 1863 00d7 12       		.uleb128 0x12
 1864 00d8 2E       		.uleb128 0x2e
 1865 00d9 01       		.byte	0x1
 1866 00da 03       		.uleb128 0x3
 1867 00db 0E       		.uleb128 0xe
 1868 00dc 3A       		.uleb128 0x3a
 1869 00dd 0B       		.uleb128 0xb
 1870 00de 3B       		.uleb128 0x3b
 1871 00df 0B       		.uleb128 0xb
 1872 00e0 27       		.uleb128 0x27
 1873 00e1 0C       		.uleb128 0xc
 1874 00e2 20       		.uleb128 0x20
 1875 00e3 0B       		.uleb128 0xb
 1876 00e4 01       		.uleb128 0x1
 1877 00e5 13       		.uleb128 0x13
ARM GAS  C:\Users\DNIEL~1\AppData\Local\Temp\ccicEs2F.s 			page 34


 1878 00e6 00       		.byte	0x0
 1879 00e7 00       		.byte	0x0
 1880 00e8 13       		.uleb128 0x13
 1881 00e9 05       		.uleb128 0x5
 1882 00ea 00       		.byte	0x0
 1883 00eb 03       		.uleb128 0x3
 1884 00ec 0E       		.uleb128 0xe
 1885 00ed 3A       		.uleb128 0x3a
 1886 00ee 0B       		.uleb128 0xb
 1887 00ef 3B       		.uleb128 0x3b
 1888 00f0 0B       		.uleb128 0xb
 1889 00f1 49       		.uleb128 0x49
 1890 00f2 13       		.uleb128 0x13
 1891 00f3 00       		.byte	0x0
 1892 00f4 00       		.byte	0x0
 1893 00f5 14       		.uleb128 0x14
 1894 00f6 26       		.uleb128 0x26
 1895 00f7 00       		.byte	0x0
 1896 00f8 49       		.uleb128 0x49
 1897 00f9 13       		.uleb128 0x13
 1898 00fa 00       		.byte	0x0
 1899 00fb 00       		.byte	0x0
 1900 00fc 15       		.uleb128 0x15
 1901 00fd 2E       		.uleb128 0x2e
 1902 00fe 01       		.byte	0x1
 1903 00ff 3F       		.uleb128 0x3f
 1904 0100 0C       		.uleb128 0xc
 1905 0101 03       		.uleb128 0x3
 1906 0102 0E       		.uleb128 0xe
 1907 0103 3A       		.uleb128 0x3a
 1908 0104 0B       		.uleb128 0xb
 1909 0105 3B       		.uleb128 0x3b
 1910 0106 0B       		.uleb128 0xb
 1911 0107 27       		.uleb128 0x27
 1912 0108 0C       		.uleb128 0xc
 1913 0109 11       		.uleb128 0x11
 1914 010a 01       		.uleb128 0x1
 1915 010b 12       		.uleb128 0x12
 1916 010c 01       		.uleb128 0x1
 1917 010d 40       		.uleb128 0x40
 1918 010e 06       		.uleb128 0x6
 1919 010f 01       		.uleb128 0x1
 1920 0110 13       		.uleb128 0x13
 1921 0111 00       		.byte	0x0
 1922 0112 00       		.byte	0x0
 1923 0113 16       		.uleb128 0x16
 1924 0114 05       		.uleb128 0x5
 1925 0115 00       		.byte	0x0
 1926 0116 03       		.uleb128 0x3
 1927 0117 0E       		.uleb128 0xe
 1928 0118 3A       		.uleb128 0x3a
 1929 0119 0B       		.uleb128 0xb
 1930 011a 3B       		.uleb128 0x3b
 1931 011b 0B       		.uleb128 0xb
 1932 011c 49       		.uleb128 0x49
 1933 011d 13       		.uleb128 0x13
 1934 011e 02       		.uleb128 0x2
ARM GAS  C:\Users\DNIEL~1\AppData\Local\Temp\ccicEs2F.s 			page 35


 1935 011f 0A       		.uleb128 0xa
 1936 0120 00       		.byte	0x0
 1937 0121 00       		.byte	0x0
 1938 0122 17       		.uleb128 0x17
 1939 0123 1D       		.uleb128 0x1d
 1940 0124 01       		.byte	0x1
 1941 0125 31       		.uleb128 0x31
 1942 0126 13       		.uleb128 0x13
 1943 0127 52       		.uleb128 0x52
 1944 0128 01       		.uleb128 0x1
 1945 0129 55       		.uleb128 0x55
 1946 012a 06       		.uleb128 0x6
 1947 012b 58       		.uleb128 0x58
 1948 012c 0B       		.uleb128 0xb
 1949 012d 59       		.uleb128 0x59
 1950 012e 0B       		.uleb128 0xb
 1951 012f 01       		.uleb128 0x1
 1952 0130 13       		.uleb128 0x13
 1953 0131 00       		.byte	0x0
 1954 0132 00       		.byte	0x0
 1955 0133 18       		.uleb128 0x18
 1956 0134 05       		.uleb128 0x5
 1957 0135 00       		.byte	0x0
 1958 0136 31       		.uleb128 0x31
 1959 0137 13       		.uleb128 0x13
 1960 0138 02       		.uleb128 0x2
 1961 0139 0A       		.uleb128 0xa
 1962 013a 00       		.byte	0x0
 1963 013b 00       		.byte	0x0
 1964 013c 19       		.uleb128 0x19
 1965 013d 05       		.uleb128 0x5
 1966 013e 00       		.byte	0x0
 1967 013f 31       		.uleb128 0x31
 1968 0140 13       		.uleb128 0x13
 1969 0141 1C       		.uleb128 0x1c
 1970 0142 06       		.uleb128 0x6
 1971 0143 00       		.byte	0x0
 1972 0144 00       		.byte	0x0
 1973 0145 1A       		.uleb128 0x1a
 1974 0146 1D       		.uleb128 0x1d
 1975 0147 01       		.byte	0x1
 1976 0148 31       		.uleb128 0x31
 1977 0149 13       		.uleb128 0x13
 1978 014a 52       		.uleb128 0x52
 1979 014b 01       		.uleb128 0x1
 1980 014c 55       		.uleb128 0x55
 1981 014d 06       		.uleb128 0x6
 1982 014e 58       		.uleb128 0x58
 1983 014f 0B       		.uleb128 0xb
 1984 0150 59       		.uleb128 0x59
 1985 0151 0B       		.uleb128 0xb
 1986 0152 00       		.byte	0x0
 1987 0153 00       		.byte	0x0
 1988 0154 1B       		.uleb128 0x1b
 1989 0155 05       		.uleb128 0x5
 1990 0156 00       		.byte	0x0
 1991 0157 03       		.uleb128 0x3
ARM GAS  C:\Users\DNIEL~1\AppData\Local\Temp\ccicEs2F.s 			page 36


 1992 0158 0E       		.uleb128 0xe
 1993 0159 3A       		.uleb128 0x3a
 1994 015a 0B       		.uleb128 0xb
 1995 015b 3B       		.uleb128 0x3b
 1996 015c 0B       		.uleb128 0xb
 1997 015d 49       		.uleb128 0x49
 1998 015e 13       		.uleb128 0x13
 1999 015f 02       		.uleb128 0x2
 2000 0160 06       		.uleb128 0x6
 2001 0161 00       		.byte	0x0
 2002 0162 00       		.byte	0x0
 2003 0163 1C       		.uleb128 0x1c
 2004 0164 34       		.uleb128 0x34
 2005 0165 00       		.byte	0x0
 2006 0166 03       		.uleb128 0x3
 2007 0167 0E       		.uleb128 0xe
 2008 0168 3A       		.uleb128 0x3a
 2009 0169 0B       		.uleb128 0xb
 2010 016a 3B       		.uleb128 0x3b
 2011 016b 0B       		.uleb128 0xb
 2012 016c 49       		.uleb128 0x49
 2013 016d 13       		.uleb128 0x13
 2014 016e 02       		.uleb128 0x2
 2015 016f 06       		.uleb128 0x6
 2016 0170 00       		.byte	0x0
 2017 0171 00       		.byte	0x0
 2018 0172 1D       		.uleb128 0x1d
 2019 0173 34       		.uleb128 0x34
 2020 0174 00       		.byte	0x0
 2021 0175 03       		.uleb128 0x3
 2022 0176 08       		.uleb128 0x8
 2023 0177 3A       		.uleb128 0x3a
 2024 0178 0B       		.uleb128 0xb
 2025 0179 3B       		.uleb128 0x3b
 2026 017a 0B       		.uleb128 0xb
 2027 017b 49       		.uleb128 0x49
 2028 017c 13       		.uleb128 0x13
 2029 017d 02       		.uleb128 0x2
 2030 017e 06       		.uleb128 0x6
 2031 017f 00       		.byte	0x0
 2032 0180 00       		.byte	0x0
 2033 0181 1E       		.uleb128 0x1e
 2034 0182 0B       		.uleb128 0xb
 2035 0183 01       		.byte	0x1
 2036 0184 55       		.uleb128 0x55
 2037 0185 06       		.uleb128 0x6
 2038 0186 00       		.byte	0x0
 2039 0187 00       		.byte	0x0
 2040 0188 1F       		.uleb128 0x1f
 2041 0189 34       		.uleb128 0x34
 2042 018a 00       		.byte	0x0
 2043 018b 03       		.uleb128 0x3
 2044 018c 0E       		.uleb128 0xe
 2045 018d 3A       		.uleb128 0x3a
 2046 018e 0B       		.uleb128 0xb
 2047 018f 3B       		.uleb128 0x3b
 2048 0190 05       		.uleb128 0x5
ARM GAS  C:\Users\DNIEL~1\AppData\Local\Temp\ccicEs2F.s 			page 37


 2049 0191 49       		.uleb128 0x49
 2050 0192 13       		.uleb128 0x13
 2051 0193 3F       		.uleb128 0x3f
 2052 0194 0C       		.uleb128 0xc
 2053 0195 3C       		.uleb128 0x3c
 2054 0196 0C       		.uleb128 0xc
 2055 0197 00       		.byte	0x0
 2056 0198 00       		.byte	0x0
 2057 0199 00       		.byte	0x0
 2058              		.section	.debug_pubnames,"",%progbits
 2059 0000 3A000000 		.4byte	0x3a
 2060 0004 0200     		.2byte	0x2
 2061 0006 00000000 		.4byte	.Ldebug_info0
 2062 000a 7B070000 		.4byte	0x77b
 2063 000e F8040000 		.4byte	0x4f8
 2064 0012 5F70616C 		.ascii	"_pal_lld_init\000"
 2064      5F6C6C64 
 2064      5F696E69 
 2064      7400
 2065 0020 80060000 		.4byte	0x680
 2066 0024 5F70616C 		.ascii	"_pal_lld_setgroupmode\000"
 2066      5F6C6C64 
 2066      5F736574 
 2066      67726F75 
 2066      706D6F64 
 2067 003a 00000000 		.4byte	0x0
 2068              		.section	.debug_pubtypes,"",%progbits
 2069 0000 A7000000 		.4byte	0xa7
 2070 0004 0200     		.2byte	0x2
 2071 0006 00000000 		.4byte	.Ldebug_info0
 2072 000a 7B070000 		.4byte	0x77b
 2073 000e 4C000000 		.4byte	0x4c
 2074 0012 75696E74 		.ascii	"uint16_t\000"
 2074      31365F74 
 2074      00
 2075 001b 5E000000 		.4byte	0x5e
 2076 001f 696E7433 		.ascii	"int32_t\000"
 2076      325F7400 
 2077 0027 70000000 		.4byte	0x70
 2078 002b 75696E74 		.ascii	"uint32_t\000"
 2078      33325F74 
 2078      00
 2079 0034 A5020000 		.4byte	0x2a5
 2080 0038 5243435F 		.ascii	"RCC_TypeDef\000"
 2080      54797065 
 2080      44656600 
 2081 0044 8B030000 		.4byte	0x38b
 2082 0048 4750494F 		.ascii	"GPIO_TypeDef\000"
 2082      5F547970 
 2082      65446566 
 2082      00
 2083 0055 01040000 		.4byte	0x401
 2084 0059 73746D33 		.ascii	"stm32_gpio_setup_t\000"
 2084      325F6770 
 2084      696F5F73 
 2084      65747570 
 2084      5F7400
ARM GAS  C:\Users\DNIEL~1\AppData\Local\Temp\ccicEs2F.s 			page 38


 2085 006c 97040000 		.4byte	0x497
 2086 0070 50414C43 		.ascii	"PALConfig\000"
 2086      6F6E6669 
 2086      6700
 2087 007a A2040000 		.4byte	0x4a2
 2088 007e 696F706F 		.ascii	"ioportmask_t\000"
 2088      72746D61 
 2088      736B5F74 
 2088      00
 2089 008b AD040000 		.4byte	0x4ad
 2090 008f 696F6D6F 		.ascii	"iomode_t\000"
 2090      64655F74 
 2090      00
 2091 0098 B8040000 		.4byte	0x4b8
 2092 009c 696F706F 		.ascii	"ioportid_t\000"
 2092      72746964 
 2092      5F7400
 2093 00a7 00000000 		.4byte	0x0
 2094              		.section	.debug_aranges,"",%progbits
 2095 0000 24000000 		.4byte	0x24
 2096 0004 0200     		.2byte	0x2
 2097 0006 00000000 		.4byte	.Ldebug_info0
 2098 000a 04       		.byte	0x4
 2099 000b 00       		.byte	0x0
 2100 000c 0000     		.2byte	0x0
 2101 000e 0000     		.2byte	0x0
 2102 0010 00000000 		.4byte	.LFB119
 2103 0014 FC010000 		.4byte	.LFE119-.LFB119
 2104 0018 00000000 		.4byte	.LFB120
 2105 001c BC000000 		.4byte	.LFE120-.LFB120
 2106 0020 00000000 		.4byte	0x0
 2107 0024 00000000 		.4byte	0x0
 2108              		.section	.debug_ranges,"",%progbits
 2109              	.Ldebug_ranges0:
 2110 0000 08000000 		.4byte	.LBB20
 2111 0004 0C000000 		.4byte	.LBE20
 2112 0008 3E000000 		.4byte	.LBB47
 2113 000c 76000000 		.4byte	.LBE47
 2114 0010 00000000 		.4byte	0x0
 2115 0014 00000000 		.4byte	0x0
 2116 0018 10000000 		.4byte	.LBB23
 2117 001c 14000000 		.4byte	.LBE23
 2118 0020 76000000 		.4byte	.LBB48
 2119 0024 AE000000 		.4byte	.LBE48
 2120 0028 00000000 		.4byte	0x0
 2121 002c 00000000 		.4byte	0x0
 2122 0030 14000000 		.4byte	.LBB26
 2123 0034 16000000 		.4byte	.LBE26
 2124 0038 AE000000 		.4byte	.LBB49
 2125 003c E6000000 		.4byte	.LBE49
 2126 0040 00000000 		.4byte	0x0
 2127 0044 00000000 		.4byte	0x0
 2128 0048 16000000 		.4byte	.LBB29
 2129 004c 18000000 		.4byte	.LBE29
 2130 0050 E6000000 		.4byte	.LBB50
 2131 0054 02010000 		.4byte	.LBE50
 2132 0058 00000000 		.4byte	0x0
ARM GAS  C:\Users\DNIEL~1\AppData\Local\Temp\ccicEs2F.s 			page 39


 2133 005c 00000000 		.4byte	0x0
 2134 0060 18000000 		.4byte	.LBB32
 2135 0064 1A000000 		.4byte	.LBE32
 2136 0068 02010000 		.4byte	.LBB51
 2137 006c 24010000 		.4byte	.LBE51
 2138 0070 00000000 		.4byte	0x0
 2139 0074 00000000 		.4byte	0x0
 2140 0078 1A000000 		.4byte	.LBB35
 2141 007c 1C000000 		.4byte	.LBE35
 2142 0080 24010000 		.4byte	.LBB52
 2143 0084 4E010000 		.4byte	.LBE52
 2144 0088 00000000 		.4byte	0x0
 2145 008c 00000000 		.4byte	0x0
 2146 0090 1C000000 		.4byte	.LBB38
 2147 0094 1E000000 		.4byte	.LBE38
 2148 0098 4E010000 		.4byte	.LBB53
 2149 009c 78010000 		.4byte	.LBE53
 2150 00a0 00000000 		.4byte	0x0
 2151 00a4 00000000 		.4byte	0x0
 2152 00a8 1E000000 		.4byte	.LBB41
 2153 00ac 20000000 		.4byte	.LBE41
 2154 00b0 78010000 		.4byte	.LBB54
 2155 00b4 A2010000 		.4byte	.LBE54
 2156 00b8 00000000 		.4byte	0x0
 2157 00bc 00000000 		.4byte	0x0
 2158 00c0 20000000 		.4byte	.LBB44
 2159 00c4 22000000 		.4byte	.LBE44
 2160 00c8 A2010000 		.4byte	.LBB55
 2161 00cc CC010000 		.4byte	.LBE55
 2162 00d0 00000000 		.4byte	0x0
 2163 00d4 00000000 		.4byte	0x0
 2164 00d8 1A000000 		.4byte	.LBB56
 2165 00dc 7E000000 		.4byte	.LBE56
 2166 00e0 92000000 		.4byte	.LBB57
 2167 00e4 B6000000 		.4byte	.LBE57
 2168 00e8 00000000 		.4byte	0x0
 2169 00ec 00000000 		.4byte	0x0
 2170 00f0 00000000 		.4byte	.LFB119
 2171 00f4 FC010000 		.4byte	.LFE119
 2172 00f8 00000000 		.4byte	.LFB120
 2173 00fc BC000000 		.4byte	.LFE120
 2174 0100 00000000 		.4byte	0x0
 2175 0104 00000000 		.4byte	0x0
 2176              		.section	.debug_str,"MS",%progbits,1
 2177              	.LASF30:
 2178 0000 41484231 		.ascii	"AHB1LPENR\000"
 2178      4C50454E 
 2178      5200
 2179              	.LASF63:
 2180 000a 50434461 		.ascii	"PCData\000"
 2180      746100
 2181              	.LASF77:
 2182 0011 5F70616C 		.ascii	"_pal_lld_setgroupmode\000"
 2182      5F6C6C64 
 2182      5F736574 
 2182      67726F75 
 2182      706D6F64 
ARM GAS  C:\Users\DNIEL~1\AppData\Local\Temp\ccicEs2F.s 			page 40


 2183              	.LASF20:
 2184 0027 41504231 		.ascii	"APB1RSTR\000"
 2184      52535452 
 2184      00
 2185              	.LASF24:
 2186 0030 41484232 		.ascii	"AHB2ENR\000"
 2186      454E5200 
 2187              	.LASF60:
 2188 0038 73746D33 		.ascii	"stm32_gpio_setup_t\000"
 2188      325F6770 
 2188      696F5F73 
 2188      65747570 
 2188      5F7400
 2189              	.LASF66:
 2190 004b 50464461 		.ascii	"PFData\000"
 2190      746100
 2191              	.LASF76:
 2192 0052 5F70616C 		.ascii	"_pal_lld_init\000"
 2192      5F6C6C64 
 2192      5F696E69 
 2192      7400
 2193              	.LASF3:
 2194 0060 73686F72 		.ascii	"short int\000"
 2194      7420696E 
 2194      7400
 2195              	.LASF87:
 2196 006a 696E6974 		.ascii	"initgpio\000"
 2196      6770696F 
 2196      00
 2197              	.LASF74:
 2198 0073 6770696F 		.ascii	"gpiop\000"
 2198      7000
 2199              	.LASF37:
 2200 0079 42444352 		.ascii	"BDCR\000"
 2200      00
 2201              	.LASF69:
 2202 007e 50494461 		.ascii	"PIData\000"
 2202      746100
 2203              	.LASF40:
 2204 0085 504C4C49 		.ascii	"PLLI2SCFGR\000"
 2204      32534346 
 2204      475200
 2205              	.LASF23:
 2206 0090 41484231 		.ascii	"AHB1ENR\000"
 2206      454E5200 
 2207              	.LASF39:
 2208 0098 53534347 		.ascii	"SSCGR\000"
 2208      5200
 2209              	.LASF62:
 2210 009e 50424461 		.ascii	"PBData\000"
 2210      746100
 2211              	.LASF32:
 2212 00a5 41484233 		.ascii	"AHB3LPENR\000"
 2212      4C50454E 
 2212      5200
 2213              	.LASF75:
 2214 00af 636F6E66 		.ascii	"config\000"
ARM GAS  C:\Users\DNIEL~1\AppData\Local\Temp\ccicEs2F.s 			page 41


 2214      696700
 2215              	.LASF72:
 2216 00b6 696F6D6F 		.ascii	"iomode_t\000"
 2216      64655F74 
 2216      00
 2217              	.LASF27:
 2218 00bf 41504231 		.ascii	"APB1ENR\000"
 2218      454E5200 
 2219              	.LASF71:
 2220 00c7 696F706F 		.ascii	"ioportmask_t\000"
 2220      72746D61 
 2220      736B5F74 
 2220      00
 2221              	.LASF46:
 2222 00d4 4F545950 		.ascii	"OTYPER\000"
 2222      455200
 2223              	.LASF42:
 2224 00db 44434B43 		.ascii	"DCKCFGR\000"
 2224      46475200 
 2225              	.LASF25:
 2226 00e3 41484233 		.ascii	"AHB3ENR\000"
 2226      454E5200 
 2227              	.LASF47:
 2228 00eb 4F535045 		.ascii	"OSPEEDR\000"
 2228      45445200 
 2229              	.LASF10:
 2230 00f3 6C6F6E67 		.ascii	"long long int\000"
 2230      206C6F6E 
 2230      6720696E 
 2230      7400
 2231              	.LASF48:
 2232 0101 50555044 		.ascii	"PUPDR\000"
 2232      5200
 2233              	.LASF56:
 2234 0107 6F737065 		.ascii	"ospeedr\000"
 2234      65647200 
 2235              	.LASF7:
 2236 010f 6C6F6E67 		.ascii	"long int\000"
 2236      20696E74 
 2236      00
 2237              	.LASF64:
 2238 0118 50444461 		.ascii	"PDData\000"
 2238      746100
 2239              	.LASF43:
 2240 011f 5243435F 		.ascii	"RCC_TypeDef\000"
 2240      54797065 
 2240      44656600 
 2241              	.LASF45:
 2242 012b 4D4F4445 		.ascii	"MODER\000"
 2242      5200
 2243              	.LASF21:
 2244 0131 41504232 		.ascii	"APB2RSTR\000"
 2244      52535452 
 2244      00
 2245              	.LASF44:
 2246 013a 636C6561 		.ascii	"clear\000"
 2246      7200
ARM GAS  C:\Users\DNIEL~1\AppData\Local\Temp\ccicEs2F.s 			page 42


 2247              	.LASF67:
 2248 0140 50474461 		.ascii	"PGData\000"
 2248      746100
 2249              	.LASF61:
 2250 0147 50414461 		.ascii	"PAData\000"
 2250      746100
 2251              	.LASF73:
 2252 014e 696F706F 		.ascii	"ioportid_t\000"
 2252      72746964 
 2252      5F7400
 2253              	.LASF2:
 2254 0159 756E7369 		.ascii	"unsigned char\000"
 2254      676E6564 
 2254      20636861 
 2254      7200
 2255              	.LASF28:
 2256 0167 41504232 		.ascii	"APB2ENR\000"
 2256      454E5200 
 2257              	.LASF1:
 2258 016f 7369676E 		.ascii	"signed char\000"
 2258      65642063 
 2258      68617200 
 2259              	.LASF11:
 2260 017b 6C6F6E67 		.ascii	"long long unsigned int\000"
 2260      206C6F6E 
 2260      6720756E 
 2260      7369676E 
 2260      65642069 
 2261              	.LASF8:
 2262 0192 75696E74 		.ascii	"uint32_t\000"
 2262      33325F74 
 2262      00
 2263              	.LASF55:
 2264 019b 6F747970 		.ascii	"otyper\000"
 2264      657200
 2265              	.LASF17:
 2266 01a2 41484232 		.ascii	"AHB2RSTR\000"
 2266      52535452 
 2266      00
 2267              	.LASF5:
 2268 01ab 75696E74 		.ascii	"uint16_t\000"
 2268      31365F74 
 2268      00
 2269              	.LASF9:
 2270 01b4 6C6F6E67 		.ascii	"long unsigned int\000"
 2270      20756E73 
 2270      69676E65 
 2270      6420696E 
 2270      7400
 2271              	.LASF86:
 2272 01c6 433A5C44 		.ascii	"C:\\Dani\\MegaLux\\Repo\\Smarty\\Smarty\\smarty\\fi"
 2272      616E695C 
 2272      4D656761 
 2272      4C75785C 
 2272      5265706F 
 2273 01f2 726D7761 		.ascii	"rmware\000"
 2273      726500
ARM GAS  C:\Users\DNIEL~1\AppData\Local\Temp\ccicEs2F.s 			page 43


 2274              	.LASF52:
 2275 01f9 41465248 		.ascii	"AFRH\000"
 2275      00
 2276              	.LASF14:
 2277 01fe 504C4C43 		.ascii	"PLLCFGR\000"
 2277      46475200 
 2278              	.LASF51:
 2279 0206 4146524C 		.ascii	"AFRL\000"
 2279      00
 2280              	.LASF4:
 2281 020b 73686F72 		.ascii	"short unsigned int\000"
 2281      7420756E 
 2281      7369676E 
 2281      65642069 
 2281      6E7400
 2282              	.LASF34:
 2283 021e 41504231 		.ascii	"APB1LPENR\000"
 2283      4C50454E 
 2283      5200
 2284              	.LASF13:
 2285 0228 63686172 		.ascii	"char\000"
 2285      00
 2286              	.LASF6:
 2287 022d 696E7433 		.ascii	"int32_t\000"
 2287      325F7400 
 2288              	.LASF70:
 2289 0235 50414C43 		.ascii	"PALConfig\000"
 2289      6F6E6669 
 2289      6700
 2290              	.LASF12:
 2291 023f 5F426F6F 		.ascii	"_Bool\000"
 2291      6C00
 2292              	.LASF80:
 2293 0245 6D6F6465 		.ascii	"mode\000"
 2293      00
 2294              	.LASF31:
 2295 024a 41484232 		.ascii	"AHB2LPENR\000"
 2295      4C50454E 
 2295      5200
 2296              	.LASF78:
 2297 0254 706F7274 		.ascii	"port\000"
 2297      00
 2298              	.LASF65:
 2299 0259 50454461 		.ascii	"PEData\000"
 2299      746100
 2300              	.LASF19:
 2301 0260 52455345 		.ascii	"RESERVED0\000"
 2301      52564544 
 2301      3000
 2302              	.LASF22:
 2303 026a 52455345 		.ascii	"RESERVED1\000"
 2303      52564544 
 2303      3100
 2304              	.LASF26:
 2305 0274 52455345 		.ascii	"RESERVED2\000"
 2305      52564544 
 2305      3200
ARM GAS  C:\Users\DNIEL~1\AppData\Local\Temp\ccicEs2F.s 			page 44


 2306              	.LASF29:
 2307 027e 52455345 		.ascii	"RESERVED3\000"
 2307      52564544 
 2307      3300
 2308              	.LASF33:
 2309 0288 52455345 		.ascii	"RESERVED4\000"
 2309      52564544 
 2309      3400
 2310              	.LASF36:
 2311 0292 52455345 		.ascii	"RESERVED5\000"
 2311      52564544 
 2311      3500
 2312              	.LASF38:
 2313 029c 52455345 		.ascii	"RESERVED6\000"
 2313      52564544 
 2313      3600
 2314              	.LASF68:
 2315 02a6 50484461 		.ascii	"PHData\000"
 2315      746100
 2316              	.LASF84:
 2317 02ad 474E5520 		.ascii	"GNU C 4.5.2\000"
 2317      4320342E 
 2317      352E3200 
 2318              	.LASF79:
 2319 02b9 6D61736B 		.ascii	"mask\000"
 2319      00
 2320              	.LASF57:
 2321 02be 70757064 		.ascii	"pupdr\000"
 2321      7200
 2322              	.LASF59:
 2323 02c4 61667268 		.ascii	"afrh\000"
 2323      00
 2324              	.LASF58:
 2325 02c9 6166726C 		.ascii	"afrl\000"
 2325      00
 2326              	.LASF54:
 2327 02ce 6D6F6465 		.ascii	"moder\000"
 2327      7200
 2328              	.LASF16:
 2329 02d4 41484231 		.ascii	"AHB1RSTR\000"
 2329      52535452 
 2329      00
 2330              	.LASF53:
 2331 02dd 4750494F 		.ascii	"GPIO_TypeDef\000"
 2331      5F547970 
 2331      65446566 
 2331      00
 2332              	.LASF18:
 2333 02ea 41484233 		.ascii	"AHB3RSTR\000"
 2333      52535452 
 2333      00
 2334              	.LASF81:
 2335 02f3 616C7472 		.ascii	"altr\000"
 2335      00
 2336              	.LASF85:
 2337 02f8 2E2E2F2E 		.ascii	"../../../ChibiOS/os/hal/platforms/STM32/GPIOv2/pal_"
 2337      2E2F2E2E 
ARM GAS  C:\Users\DNIEL~1\AppData\Local\Temp\ccicEs2F.s 			page 45


 2337      2F436869 
 2337      62694F53 
 2337      2F6F732F 
 2338 032b 6C6C642E 		.ascii	"lld.c\000"
 2338      6300
 2339              	.LASF83:
 2340 0331 49544D5F 		.ascii	"ITM_RxBuffer\000"
 2340      52784275 
 2340      66666572 
 2340      00
 2341              	.LASF82:
 2342 033e 616C7472 		.ascii	"altrmask\000"
 2342      6D61736B 
 2342      00
 2343              	.LASF0:
 2344 0347 756E7369 		.ascii	"unsigned int\000"
 2344      676E6564 
 2344      20696E74 
 2344      00
 2345              	.LASF15:
 2346 0354 43464752 		.ascii	"CFGR\000"
 2346      00
 2347              	.LASF41:
 2348 0359 504C4C53 		.ascii	"PLLSAICFGR\000"
 2348      41494346 
 2348      475200
 2349              	.LASF50:
 2350 0364 4C434B52 		.ascii	"LCKR\000"
 2350      00
 2351              	.LASF35:
 2352 0369 41504232 		.ascii	"APB2LPENR\000"
 2352      4C50454E 
 2352      5200
 2353              	.LASF49:
 2354 0373 42535252 		.ascii	"BSRR\000"
 2354      00
 2355              		.ident	"GCC: (Sourcery G++ Lite 2011.03-42) 4.5.2"
ARM GAS  C:\Users\DNIEL~1\AppData\Local\Temp\ccicEs2F.s 			page 46


DEFINED SYMBOLS
                            *ABS*:00000000 pal_lld.c
C:\Users\DNIEL~1\AppData\Local\Temp\ccicEs2F.s:24     .text._pal_lld_init:00000000 $t
C:\Users\DNIEL~1\AppData\Local\Temp\ccicEs2F.s:30     .text._pal_lld_init:00000000 _pal_lld_init
C:\Users\DNIEL~1\AppData\Local\Temp\ccicEs2F.s:349    .text._pal_lld_init:000001d4 $d
C:\Users\DNIEL~1\AppData\Local\Temp\ccicEs2F.s:363    .text._pal_lld_setgroupmode:00000000 $t
C:\Users\DNIEL~1\AppData\Local\Temp\ccicEs2F.s:369    .text._pal_lld_setgroupmode:00000000 _pal_lld_setgroupmode
                     .debug_frame:00000010 $d
C:\Users\DNIEL~1\AppData\Local\Temp\ccicEs2F.s:362    .text._pal_lld_init:000001fc $t

NO UNDEFINED SYMBOLS
