ARM GAS  C:\Users\DNIEL~1\AppData\Local\Temp\ccSDsxDN.s 			page 1


   1              		.syntax unified
   2              		.cpu cortex-m4
   3              		.fpu softvfp
   4              		.eabi_attribute 20, 1
   5              		.eabi_attribute 21, 1
   6              		.eabi_attribute 23, 3
   7              		.eabi_attribute 24, 1
   8              		.eabi_attribute 25, 1
   9              		.eabi_attribute 26, 1
  10              		.eabi_attribute 30, 2
  11              		.eabi_attribute 18, 4
  12              		.thumb
  13              		.file	"pal_lld.c"
  20 0000 16020000 		.text
  20      02006201 
  20      00000201 
  20      FB0E0D00 
  20      01010101 
  21              	.Ltext0:
  22              		.cfi_sections	.debug_frame
  23              		.section	.text._pal_lld_init,"ax",%progbits
  24              		.align	2
  25              		.p2align 4,,15
  26              		.global	_pal_lld_init
  27              		.thumb
  28              		.thumb_func
  29              		.type	_pal_lld_init, %function
  30              	_pal_lld_init:
  31              	.LFB119:
  32              		.file 1 "../../../ChibiOS/os/hal/platforms/STM32/GPIOv2/pal_lld.c"
  33              		.loc 1 104 0
  34              		.cfi_startproc
  35              		@ args = 0, pretend = 0, frame = 0
  36              		@ frame_needed = 0, uses_anonymous_args = 0
  37              		@ link register save eliminated.
  38              	.LVL0:
  39 0000 2DE9F007 		push	{r4, r5, r6, r7, r8, r9, sl}
  40              	.LCFI0:
  41              		.cfi_def_cfa_offset 28
  42              		.loc 1 115 0
  43 0004 DFF8E8A1 		ldr	sl, .L2+28
  44              		.cfi_offset 10, -4
  45              		.cfi_offset 9, -8
  46              		.cfi_offset 8, -12
  47              		.cfi_offset 7, -16
  48              		.cfi_offset 6, -20
  49              		.cfi_offset 5, -24
  50              		.cfi_offset 4, -28
  51              	.LBB20:
  52              	.LBB21:
  53              		.loc 1 79 0
ARM GAS  C:\Users\DNIEL~1\AppData\Local\Temp\ccSDsxDN.s 			page 2


  54 0008 DFF8E881 		ldr	r8, .L2+32
  55              	.LBE21:
  56              	.LBE20:
  57              		.loc 1 115 0
  58 000c DAF83090 		ldr	r9, [sl, #48]
  59              	.LBB23:
  60              	.LBB24:
  61              		.loc 1 79 0
  62 0010 DFF8E4C1 		ldr	ip, .L2+36
  63              	.LBE24:
  64              	.LBE23:
  65              	.LBB26:
  66              	.LBB27:
  67 0014 6F4F     		ldr	r7, .L2
  68              	.LBE27:
  69              	.LBE26:
  70              	.LBB29:
  71              	.LBB30:
  72 0016 704E     		ldr	r6, .L2+4
  73              	.LBE30:
  74              	.LBE29:
  75              	.LBB32:
  76              	.LBB33:
  77 0018 704D     		ldr	r5, .L2+8
  78              	.LBE33:
  79              	.LBE32:
  80              	.LBB35:
  81              	.LBB36:
  82 001a 714C     		ldr	r4, .L2+12
  83              	.LBE36:
  84              	.LBE35:
  85              	.LBB38:
  86              	.LBB39:
  87 001c 7149     		ldr	r1, .L2+16
  88              	.LBE39:
  89              	.LBE38:
  90              	.LBB41:
  91              	.LBB42:
  92 001e 724A     		ldr	r2, .L2+20
  93              	.LBE42:
  94              	.LBE41:
  95              	.LBB44:
  96              	.LBB45:
  97 0020 724B     		ldr	r3, .L2+24
  98              	.LBE45:
  99              	.LBE44:
 100              		.loc 1 115 0
 101 0022 6FEA5929 		mvn	r9, r9, lsr #9
 102 0026 6FEA4929 		mvn	r9, r9, lsl #9
 103 002a CAF83090 		str	r9, [sl, #48]
 104              		.loc 1 116 0
 105 002e DAF85090 		ldr	r9, [sl, #80]
 106 0032 6FEA5929 		mvn	r9, r9, lsr #9
 107 0036 6FEA4929 		mvn	r9, r9, lsl #9
 108 003a CAF85090 		str	r9, [sl, #80]
 109              	.LVL1:
 110              	.LBB47:
ARM GAS  C:\Users\DNIEL~1\AppData\Local\Temp\ccSDsxDN.s 			page 3


 111              	.LBB22:
 112              		.loc 1 79 0
 113 003e D0F80490 		ldr	r9, [r0, #4]
 114 0042 C8F80490 		str	r9, [r8, #4]
 115              		.loc 1 80 0
 116 0046 D0F80890 		ldr	r9, [r0, #8]
 117 004a C8F80890 		str	r9, [r8, #8]
 118              		.loc 1 81 0
 119 004e D0F80C90 		ldr	r9, [r0, #12]
 120 0052 C8F80C90 		str	r9, [r8, #12]
 121              		.loc 1 82 0
 122 0056 D0F81090 		ldr	r9, [r0, #16]
 123 005a C8F81490 		str	r9, [r8, #20]
 124              		.loc 1 83 0
 125 005e D0F81490 		ldr	r9, [r0, #20]
 126 0062 C8F82090 		str	r9, [r8, #32]
 127              		.loc 1 84 0
 128 0066 D0F81890 		ldr	r9, [r0, #24]
 129 006a C8F82490 		str	r9, [r8, #36]
 130              		.loc 1 85 0
 131 006e D0F80090 		ldr	r9, [r0, #0]
 132 0072 C8F80090 		str	r9, [r8, #0]
 133              	.LVL2:
 134              	.LBE22:
 135              	.LBE47:
 136              	.LBB48:
 137              	.LBB25:
 138              		.loc 1 79 0
 139 0076 D0F82080 		ldr	r8, [r0, #32]
 140 007a CCF80480 		str	r8, [ip, #4]
 141              		.loc 1 80 0
 142 007e D0F82480 		ldr	r8, [r0, #36]
 143 0082 CCF80880 		str	r8, [ip, #8]
 144              		.loc 1 81 0
 145 0086 D0F82880 		ldr	r8, [r0, #40]
 146 008a CCF80C80 		str	r8, [ip, #12]
 147              		.loc 1 82 0
 148 008e D0F82C80 		ldr	r8, [r0, #44]
 149 0092 CCF81480 		str	r8, [ip, #20]
 150              		.loc 1 83 0
 151 0096 D0F83080 		ldr	r8, [r0, #48]
 152 009a CCF82080 		str	r8, [ip, #32]
 153              		.loc 1 84 0
 154 009e D0F83480 		ldr	r8, [r0, #52]
 155 00a2 CCF82480 		str	r8, [ip, #36]
 156              		.loc 1 85 0
 157 00a6 D0F81C80 		ldr	r8, [r0, #28]
 158 00aa CCF80080 		str	r8, [ip, #0]
 159              	.LVL3:
 160              	.LBE25:
 161              	.LBE48:
 162              	.LBB49:
 163              	.LBB28:
 164              		.loc 1 79 0
 165 00ae D0F83CC0 		ldr	ip, [r0, #60]
 166 00b2 C7F804C0 		str	ip, [r7, #4]
 167              		.loc 1 80 0
ARM GAS  C:\Users\DNIEL~1\AppData\Local\Temp\ccSDsxDN.s 			page 4


 168 00b6 D0F840C0 		ldr	ip, [r0, #64]
 169 00ba C7F808C0 		str	ip, [r7, #8]
 170              		.loc 1 81 0
 171 00be D0F844C0 		ldr	ip, [r0, #68]
 172 00c2 C7F80CC0 		str	ip, [r7, #12]
 173              		.loc 1 82 0
 174 00c6 D0F848C0 		ldr	ip, [r0, #72]
 175 00ca C7F814C0 		str	ip, [r7, #20]
 176              		.loc 1 83 0
 177 00ce D0F84CC0 		ldr	ip, [r0, #76]
 178 00d2 C7F820C0 		str	ip, [r7, #32]
 179              		.loc 1 84 0
 180 00d6 D0F850C0 		ldr	ip, [r0, #80]
 181 00da C7F824C0 		str	ip, [r7, #36]
 182              		.loc 1 85 0
 183 00de D0F838C0 		ldr	ip, [r0, #56]
 184 00e2 C7F800C0 		str	ip, [r7, #0]
 185              	.LVL4:
 186              	.LBE28:
 187              	.LBE49:
 188              	.LBB50:
 189              	.LBB31:
 190              		.loc 1 79 0
 191 00e6 876D     		ldr	r7, [r0, #88]
 192 00e8 7760     		str	r7, [r6, #4]
 193              		.loc 1 80 0
 194 00ea C76D     		ldr	r7, [r0, #92]
 195 00ec B760     		str	r7, [r6, #8]
 196              		.loc 1 81 0
 197 00ee 076E     		ldr	r7, [r0, #96]
 198 00f0 F760     		str	r7, [r6, #12]
 199              		.loc 1 82 0
 200 00f2 476E     		ldr	r7, [r0, #100]
 201 00f4 7761     		str	r7, [r6, #20]
 202              		.loc 1 83 0
 203 00f6 876E     		ldr	r7, [r0, #104]
 204 00f8 3762     		str	r7, [r6, #32]
 205              		.loc 1 84 0
 206 00fa C76E     		ldr	r7, [r0, #108]
 207 00fc 7762     		str	r7, [r6, #36]
 208              		.loc 1 85 0
 209 00fe 476D     		ldr	r7, [r0, #84]
 210 0100 3760     		str	r7, [r6, #0]
 211              	.LVL5:
 212              	.LBE31:
 213              	.LBE50:
 214              	.LBB51:
 215              	.LBB34:
 216              		.loc 1 79 0
 217 0102 466F     		ldr	r6, [r0, #116]
 218 0104 6E60     		str	r6, [r5, #4]
 219              		.loc 1 80 0
 220 0106 866F     		ldr	r6, [r0, #120]
 221 0108 AE60     		str	r6, [r5, #8]
 222              		.loc 1 81 0
 223 010a C66F     		ldr	r6, [r0, #124]
 224 010c EE60     		str	r6, [r5, #12]
ARM GAS  C:\Users\DNIEL~1\AppData\Local\Temp\ccSDsxDN.s 			page 5


 225              		.loc 1 82 0
 226 010e D0F88060 		ldr	r6, [r0, #128]
 227 0112 6E61     		str	r6, [r5, #20]
 228              		.loc 1 83 0
 229 0114 D0F88460 		ldr	r6, [r0, #132]
 230 0118 2E62     		str	r6, [r5, #32]
 231              		.loc 1 84 0
 232 011a D0F88860 		ldr	r6, [r0, #136]
 233 011e 6E62     		str	r6, [r5, #36]
 234              		.loc 1 85 0
 235 0120 066F     		ldr	r6, [r0, #112]
 236 0122 2E60     		str	r6, [r5, #0]
 237              	.LVL6:
 238              	.LBE34:
 239              	.LBE51:
 240              	.LBB52:
 241              	.LBB37:
 242              		.loc 1 79 0
 243 0124 D0F89050 		ldr	r5, [r0, #144]
 244 0128 6560     		str	r5, [r4, #4]
 245              		.loc 1 80 0
 246 012a D0F89450 		ldr	r5, [r0, #148]
 247 012e A560     		str	r5, [r4, #8]
 248              		.loc 1 81 0
 249 0130 D0F89850 		ldr	r5, [r0, #152]
 250 0134 E560     		str	r5, [r4, #12]
 251              		.loc 1 82 0
 252 0136 D0F89C50 		ldr	r5, [r0, #156]
 253 013a 6561     		str	r5, [r4, #20]
 254              		.loc 1 83 0
 255 013c D0F8A050 		ldr	r5, [r0, #160]
 256 0140 2562     		str	r5, [r4, #32]
 257              		.loc 1 84 0
 258 0142 D0F8A450 		ldr	r5, [r0, #164]
 259 0146 6562     		str	r5, [r4, #36]
 260              		.loc 1 85 0
 261 0148 D0F88C50 		ldr	r5, [r0, #140]
 262 014c 2560     		str	r5, [r4, #0]
 263              	.LVL7:
 264              	.LBE37:
 265              	.LBE52:
 266              	.LBB53:
 267              	.LBB40:
 268              		.loc 1 79 0
 269 014e D0F8AC40 		ldr	r4, [r0, #172]
 270 0152 4C60     		str	r4, [r1, #4]
 271              		.loc 1 80 0
 272 0154 D0F8B040 		ldr	r4, [r0, #176]
 273 0158 8C60     		str	r4, [r1, #8]
 274              		.loc 1 81 0
 275 015a D0F8B440 		ldr	r4, [r0, #180]
 276 015e CC60     		str	r4, [r1, #12]
 277              		.loc 1 82 0
 278 0160 D0F8B840 		ldr	r4, [r0, #184]
 279 0164 4C61     		str	r4, [r1, #20]
 280              		.loc 1 83 0
 281 0166 D0F8BC40 		ldr	r4, [r0, #188]
ARM GAS  C:\Users\DNIEL~1\AppData\Local\Temp\ccSDsxDN.s 			page 6


 282 016a 0C62     		str	r4, [r1, #32]
 283              		.loc 1 84 0
 284 016c D0F8C040 		ldr	r4, [r0, #192]
 285 0170 4C62     		str	r4, [r1, #36]
 286              		.loc 1 85 0
 287 0172 D0F8A840 		ldr	r4, [r0, #168]
 288 0176 0C60     		str	r4, [r1, #0]
 289              	.LVL8:
 290              	.LBE40:
 291              	.LBE53:
 292              	.LBB54:
 293              	.LBB43:
 294              		.loc 1 79 0
 295 0178 D0F8C810 		ldr	r1, [r0, #200]
 296 017c 5160     		str	r1, [r2, #4]
 297              		.loc 1 80 0
 298 017e D0F8CC10 		ldr	r1, [r0, #204]
 299 0182 9160     		str	r1, [r2, #8]
 300              		.loc 1 81 0
 301 0184 D0F8D010 		ldr	r1, [r0, #208]
 302 0188 D160     		str	r1, [r2, #12]
 303              		.loc 1 82 0
 304 018a D0F8D410 		ldr	r1, [r0, #212]
 305 018e 5161     		str	r1, [r2, #20]
 306              		.loc 1 83 0
 307 0190 D0F8D810 		ldr	r1, [r0, #216]
 308 0194 1162     		str	r1, [r2, #32]
 309              		.loc 1 84 0
 310 0196 D0F8DC10 		ldr	r1, [r0, #220]
 311 019a 5162     		str	r1, [r2, #36]
 312              		.loc 1 85 0
 313 019c D0F8C410 		ldr	r1, [r0, #196]
 314 01a0 1160     		str	r1, [r2, #0]
 315              	.LVL9:
 316              	.LBE43:
 317              	.LBE54:
 318              	.LBB55:
 319              	.LBB46:
 320              		.loc 1 79 0
 321 01a2 D0F8E420 		ldr	r2, [r0, #228]
 322 01a6 5A60     		str	r2, [r3, #4]
 323              		.loc 1 80 0
 324 01a8 D0F8E810 		ldr	r1, [r0, #232]
 325 01ac 9960     		str	r1, [r3, #8]
 326              		.loc 1 81 0
 327 01ae D0F8EC20 		ldr	r2, [r0, #236]
 328 01b2 DA60     		str	r2, [r3, #12]
 329              		.loc 1 82 0
 330 01b4 D0F8F010 		ldr	r1, [r0, #240]
 331 01b8 5961     		str	r1, [r3, #20]
 332              		.loc 1 83 0
 333 01ba D0F8F420 		ldr	r2, [r0, #244]
 334 01be 1A62     		str	r2, [r3, #32]
 335              		.loc 1 84 0
 336 01c0 D0F8F810 		ldr	r1, [r0, #248]
 337 01c4 5962     		str	r1, [r3, #36]
 338              		.loc 1 85 0
ARM GAS  C:\Users\DNIEL~1\AppData\Local\Temp\ccSDsxDN.s 			page 7


 339 01c6 D0F8E020 		ldr	r2, [r0, #224]
 340 01ca 1A60     		str	r2, [r3, #0]
 341              	.LBE46:
 342              	.LBE55:
 343              		.loc 1 141 0
 344 01cc BDE8F007 		pop	{r4, r5, r6, r7, r8, r9, sl}
 345 01d0 7047     		bx	lr
 346              	.L3:
 347 01d2 00BF     		.align	2
 348              	.L2:
 349 01d4 00080240 		.word	1073874944
 350 01d8 000C0240 		.word	1073875968
 351 01dc 00100240 		.word	1073876992
 352 01e0 00140240 		.word	1073878016
 353 01e4 00180240 		.word	1073879040
 354 01e8 001C0240 		.word	1073880064
 355 01ec 00200240 		.word	1073881088
 356 01f0 00380240 		.word	1073887232
 357 01f4 00000240 		.word	1073872896
 358 01f8 00040240 		.word	1073873920
 359              		.cfi_endproc
 360              	.LFE119:
 361              		.size	_pal_lld_init, .-_pal_lld_init
 362 01fc AFF30080 		.section	.text._pal_lld_setgroupmode,"ax",%progbits
 363              		.align	2
 364              		.p2align 4,,15
 365              		.global	_pal_lld_setgroupmode
 366              		.thumb
 367              		.thumb_func
 368              		.type	_pal_lld_setgroupmode, %function
 369              	_pal_lld_setgroupmode:
 370              	.LFB120:
 371              		.loc 1 159 0
 372              		.cfi_startproc
 373              		@ args = 0, pretend = 0, frame = 0
 374              		@ frame_needed = 0, uses_anonymous_args = 0
 375              		@ link register save eliminated.
 376              	.LVL10:
 377 0000 2DE9F00F 		push	{r4, r5, r6, r7, r8, r9, sl, fp}
 378              	.LCFI1:
 379              		.cfi_def_cfa_offset 32
 380              		.loc 1 161 0
 381 0004 02F00307 		and	r7, r2, #3
 382              		.cfi_offset 11, -4
 383              		.cfi_offset 10, -8
 384              		.cfi_offset 9, -12
 385              		.cfi_offset 8, -16
 386              		.cfi_offset 7, -20
 387              		.cfi_offset 6, -24
 388              		.cfi_offset 5, -28
 389              		.cfi_offset 4, -32
 390              	.LVL11:
 391              		.loc 1 162 0
 392 0008 C2F38006 		ubfx	r6, r2, #2, #1
 393              	.LVL12:
 394              		.loc 1 163 0
 395 000c C2F3C105 		ubfx	r5, r2, #3, #2
ARM GAS  C:\Users\DNIEL~1\AppData\Local\Temp\ccSDsxDN.s 			page 8


 396              	.LVL13:
 397              		.loc 1 164 0
 398 0010 C2F34114 		ubfx	r4, r2, #5, #2
 399              	.LVL14:
 400              		.loc 1 165 0
 401 0014 C2F3C312 		ubfx	r2, r2, #7, #4
 402              	.LVL15:
 403              		.loc 1 166 0
 404 0018 0023     		movs	r3, #0
 405              	.LBB56:
 406              		.loc 1 172 0
 407 001a 4FF00F09 		mov	r9, #15
 408              		.loc 1 177 0
 409 001e 4FF0010B 		mov	fp, #1
 410              		.loc 1 179 0
 411 0022 9246     		mov	sl, r2
 412 0024 32E0     		b	.L9
 413              	.LVL16:
 414              	.L11:
 415              		.loc 1 174 0
 416 0026 D0F82080 		ldr	r8, [r0, #32]
 417 002a 28EA0C0C 		bic	ip, r8, ip
 418              	.LVL17:
 419 002e 4CEA0202 		orr	r2, ip, r2
 420              	.LVL18:
 421 0032 0262     		str	r2, [r0, #32]
 422              	.L7:
 423              	.LVL19:
 424              		.loc 1 178 0
 425 0034 4268     		ldr	r2, [r0, #4]
 426              		.loc 1 177 0
 427 0036 0BFA03FC 		lsl	ip, fp, r3
 428              		.loc 1 178 0
 429 003a 22EA0C08 		bic	r8, r2, ip
 430 003e 48EA0602 		orr	r2, r8, r6
 431 0042 4260     		str	r2, [r0, #4]
 432              	.LVL20:
 433              		.loc 1 179 0
 434 0044 4FF00308 		mov	r8, #3
 435              		.loc 1 157 0
 436 0048 5A00     		lsls	r2, r3, #1
 437              		.loc 1 180 0
 438 004a D0F808C0 		ldr	ip, [r0, #8]
 439              		.loc 1 179 0
 440 004e 08FA02F2 		lsl	r2, r8, r2
 441              		.loc 1 180 0
 442 0052 D243     		mvns	r2, r2
 443 0054 02EA0C0C 		and	ip, r2, ip
 444 0058 4CEA050C 		orr	ip, ip, r5
 445 005c C0F808C0 		str	ip, [r0, #8]
 446              		.loc 1 181 0
 447 0060 D0F80CC0 		ldr	ip, [r0, #12]
 448 0064 02EA0C0C 		and	ip, r2, ip
 449 0068 4CEA040C 		orr	ip, ip, r4
 450 006c C0F80CC0 		str	ip, [r0, #12]
 451              		.loc 1 182 0
 452 0070 D0F800C0 		ldr	ip, [r0, #0]
ARM GAS  C:\Users\DNIEL~1\AppData\Local\Temp\ccSDsxDN.s 			page 9


 453 0074 02EA0C0C 		and	ip, r2, ip
 454 0078 4CEA0702 		orr	r2, ip, r7
 455 007c 0260     		str	r2, [r0, #0]
 456              	.LVL21:
 457              	.L5:
 458              	.LBE56:
 459              		.loc 1 185 0
 460 007e 4908     		lsrs	r1, r1, #1
 461              	.LVL22:
 462 0080 19D0     		beq	.L4
 463              		.loc 1 187 0
 464 0082 7600     		lsls	r6, r6, #1
 465              	.LVL23:
 466              		.loc 1 188 0
 467 0084 AD00     		lsls	r5, r5, #2
 468              	.LVL24:
 469              		.loc 1 189 0
 470 0086 A400     		lsls	r4, r4, #2
 471              	.LVL25:
 472              		.loc 1 190 0
 473 0088 BF00     		lsls	r7, r7, #2
 474              	.LVL26:
 475              		.loc 1 191 0
 476 008a 0133     		adds	r3, r3, #1
 477              	.LVL27:
 478              	.L9:
 479              		.loc 1 168 0
 480 008c 11F0010F 		tst	r1, #1
 481 0090 F5D0     		beq	.L5
 482              	.LBB57:
 483              		.loc 1 171 0
 484 0092 03F00708 		and	r8, r3, #7
 485 0096 4FEA880C 		lsl	ip, r8, #2
 486              		.loc 1 173 0
 487 009a 072B     		cmp	r3, #7
 488              		.loc 1 171 0
 489 009c 0AFA0CF2 		lsl	r2, sl, ip
 490              	.LVL28:
 491              		.loc 1 172 0
 492 00a0 09FA0CFC 		lsl	ip, r9, ip
 493              	.LVL29:
 494              		.loc 1 173 0
 495 00a4 BFD9     		bls	.L11
 496              		.loc 1 176 0
 497 00a6 D0F82480 		ldr	r8, [r0, #36]
 498 00aa 28EA0C0C 		bic	ip, r8, ip
 499              	.LVL30:
 500 00ae 4CEA0202 		orr	r2, ip, r2
 501              	.LVL31:
 502 00b2 4262     		str	r2, [r0, #36]
 503 00b4 BEE7     		b	.L7
 504              	.L4:
 505              	.LBE57:
 506              		.loc 1 193 0
 507 00b6 BDE8F00F 		pop	{r4, r5, r6, r7, r8, r9, sl, fp}
 508 00ba 7047     		bx	lr
 509              		.cfi_endproc
ARM GAS  C:\Users\DNIEL~1\AppData\Local\Temp\ccSDsxDN.s 			page 10


 510              	.LFE120:
 511              		.size	_pal_lld_setgroupmode, .-_pal_lld_setgroupmode
 512 00bc AFF30080 		.text
 513              	.Letext0: