ARM GAS  C:\Users\DNIEL~1\AppData\Local\Temp\ccoZP52f.s 			page 1


   1              		.syntax unified
   2              		.cpu cortex-m4
   3              		.fpu softvfp
   4              		.eabi_attribute 20, 1
   5              		.eabi_attribute 21, 1
   6              		.eabi_attribute 23, 3
   7              		.eabi_attribute 24, 1
   8              		.eabi_attribute 25, 1
   9              		.eabi_attribute 26, 1
  10              		.eabi_attribute 30, 2
  11              		.eabi_attribute 18, 4
  12              		.thumb
  13              		.file	"pwm_lld.c"
  20 0000 CB020000 		.text
  20      02008F01 
  20      00000201 
  20      FB0E0D00 
  20      01010101 
  21              	.Ltext0:
  22              		.cfi_sections	.debug_frame
  23              		.section	.text.pwm_lld_serve_interrupt,"ax",%progbits
  24              		.align	2
  25              		.p2align 4,,15
  26              		.thumb
  27              		.thumb_func
  28              		.type	pwm_lld_serve_interrupt, %function
  29              	pwm_lld_serve_interrupt:
  30              	.LFB118:
  31              		.file 1 "../../../ChibiOS/os/hal/platforms/STM32/pwm_lld.c"
  32              		.loc 1 104 0
  33              		.cfi_startproc
  34              		@ args = 0, pretend = 0, frame = 0
  35              		@ frame_needed = 0, uses_anonymous_args = 0
  36              	.LVL0:
  37 0000 38B5     		push	{r3, r4, r5, lr}
  38              	.LCFI0:
  39              		.cfi_def_cfa_offset 16
  40              		.loc 1 107 0
  41 0002 0369     		ldr	r3, [r0, #16]
  42              		.cfi_offset 14, -4
  43              		.cfi_offset 5, -8
  44              		.cfi_offset 4, -12
  45              		.cfi_offset 3, -16
  46 0004 198A     		ldrh	r1, [r3, #16]
  47 0006 9C89     		ldrh	r4, [r3, #12]
  48 0008 0C40     		ands	r4, r4, r1
  49              	.LVL1:
  50              		.loc 1 108 0
  51 000a E243     		mvns	r2, r4
  52              		.loc 1 109 0
  53 000c 14F0020F 		tst	r4, #2
ARM GAS  C:\Users\DNIEL~1\AppData\Local\Temp\ccoZP52f.s 			page 2


  54              		.loc 1 104 0
  55 0010 0546     		mov	r5, r0
  56              		.loc 1 108 0
  57 0012 1A82     		strh	r2, [r3, #16]	@ movhi
  58              		.loc 1 109 0
  59 0014 1FD1     		bne	.L8
  60              	.LVL2:
  61              	.L2:
  62              		.loc 1 111 0
  63 0016 14F0040F 		tst	r4, #4
  64 001a 17D1     		bne	.L9
  65              	.L3:
  66              		.loc 1 113 0
  67 001c 14F0080F 		tst	r4, #8
  68 0020 0FD1     		bne	.L10
  69              	.L4:
  70              		.loc 1 115 0
  71 0022 14F0100F 		tst	r4, #16
  72 0026 07D1     		bne	.L11
  73              	.L5:
  74              		.loc 1 117 0
  75 0028 14F0010F 		tst	r4, #1
  76 002c 03D0     		beq	.L1
  77              		.loc 1 118 0
  78 002e 6A68     		ldr	r2, [r5, #4]
  79 0030 2846     		mov	r0, r5
  80 0032 9168     		ldr	r1, [r2, #8]
  81 0034 8847     		blx	r1
  82              	.L1:
  83 0036 38BD     		pop	{r3, r4, r5, pc}
  84              	.L11:
  85              		.loc 1 116 0
  86 0038 6B68     		ldr	r3, [r5, #4]
  87 003a 2846     		mov	r0, r5
  88 003c 9A6A     		ldr	r2, [r3, #40]
  89 003e 9047     		blx	r2
  90 0040 F2E7     		b	.L5
  91              	.L10:
  92              		.loc 1 114 0
  93 0042 6968     		ldr	r1, [r5, #4]
  94 0044 2846     		mov	r0, r5
  95 0046 0B6A     		ldr	r3, [r1, #32]
  96 0048 9847     		blx	r3
  97 004a EAE7     		b	.L4
  98              	.L9:
  99              		.loc 1 112 0
 100 004c 6A68     		ldr	r2, [r5, #4]
 101 004e 2846     		mov	r0, r5
 102 0050 9169     		ldr	r1, [r2, #24]
 103 0052 8847     		blx	r1
 104 0054 E2E7     		b	.L3
 105              	.L8:
 106              		.loc 1 110 0
 107 0056 4368     		ldr	r3, [r0, #4]
 108 0058 1A69     		ldr	r2, [r3, #16]
 109 005a 9047     		blx	r2
 110 005c DBE7     		b	.L2
ARM GAS  C:\Users\DNIEL~1\AppData\Local\Temp\ccoZP52f.s 			page 3


 111              		.cfi_endproc
 112              	.LFE118:
 113              		.size	pwm_lld_serve_interrupt, .-pwm_lld_serve_interrupt
 114 005e 00BF     		.section	.text.VectorB8,"ax",%progbits
 115              		.align	2
 116              		.p2align 4,,15
 117              		.global	VectorB8
 118              		.thumb
 119              		.thumb_func
 120              		.type	VectorB8, %function
 121              	VectorB8:
 122              	.LFB119:
 123              		.loc 1 227 0
 124              		.cfi_startproc
 125              		@ args = 0, pretend = 0, frame = 0
 126              		@ frame_needed = 0, uses_anonymous_args = 0
 127 0000 10B5     		push	{r4, lr}
 128              	.LCFI1:
 129              		.cfi_def_cfa_offset 8
 130              		.loc 1 231 0
 131 0002 0348     		ldr	r0, .L13
 132              		.cfi_offset 14, -4
 133              		.cfi_offset 4, -8
 134 0004 FFF7FEFF 		bl	pwm_lld_serve_interrupt
 135              		.loc 1 234 0
 136 0008 BDE81040 		pop	{r4, lr}
 137              		.loc 1 233 0
 138 000c FFF7FEBF 		b	_port_irq_epilogue
 139              	.L14:
 140              		.align	2
 141              	.L13:
 142 0010 00000000 		.word	.LANCHOR0
 143              		.cfi_endproc
 144              	.LFE119:
 145              		.size	VectorB8, .-VectorB8
 146 0014 AFF30080 		.section	.text.Vector108,"ax",%progbits
 146      AFF30080 
 146      AFF30080 
 147              		.align	2
 148              		.p2align 4,,15
 149              		.global	Vector108
 150              		.thumb
 151              		.thumb_func
 152              		.type	Vector108, %function
 153              	Vector108:
 154              	.LFB120:
 155              		.loc 1 246 0
 156              		.cfi_startproc
 157              		@ args = 0, pretend = 0, frame = 0
 158              		@ frame_needed = 0, uses_anonymous_args = 0
 159 0000 10B5     		push	{r4, lr}
 160              	.LCFI2:
 161              		.cfi_def_cfa_offset 8
 162              		.loc 1 250 0
 163 0002 0348     		ldr	r0, .L16
 164              		.cfi_offset 14, -4
 165              		.cfi_offset 4, -8
ARM GAS  C:\Users\DNIEL~1\AppData\Local\Temp\ccoZP52f.s 			page 4


 166 0004 FFF7FEFF 		bl	pwm_lld_serve_interrupt
 167              		.loc 1 253 0
 168 0008 BDE81040 		pop	{r4, lr}
 169              		.loc 1 252 0
 170 000c FFF7FEBF 		b	_port_irq_epilogue
 171              	.L17:
 172              		.align	2
 173              	.L16:
 174 0010 00000000 		.word	.LANCHOR1
 175              		.cfi_endproc
 176              	.LFE120:
 177              		.size	Vector108, .-Vector108
 178 0014 AFF30080 		.section	.text.pwm_lld_init,"ax",%progbits
 178      AFF30080 
 178      AFF30080 
 179              		.align	2
 180              		.p2align 4,,15
 181              		.global	pwm_lld_init
 182              		.thumb
 183              		.thumb_func
 184              		.type	pwm_lld_init, %function
 185              	pwm_lld_init:
 186              	.LFB121:
 187              		.loc 1 319 0
 188              		.cfi_startproc
 189              		@ args = 0, pretend = 0, frame = 0
 190              		@ frame_needed = 0, uses_anonymous_args = 0
 191 0000 38B5     		push	{r3, r4, r5, lr}
 192              	.LCFI3:
 193              		.cfi_def_cfa_offset 16
 194              		.loc 1 341 0
 195 0002 064D     		ldr	r5, .L19
 196              		.cfi_offset 14, -4
 197              		.cfi_offset 5, -8
 198              		.cfi_offset 4, -12
 199              		.cfi_offset 3, -16
 200              		.loc 1 347 0
 201 0004 064C     		ldr	r4, .L19+4
 202              		.loc 1 341 0
 203 0006 2846     		mov	r0, r5
 204 0008 FFF7FEFF 		bl	pwmObjectInit
 205              		.loc 1 342 0
 206 000c 0549     		ldr	r1, .L19+8
 207              		.loc 1 347 0
 208 000e 2046     		mov	r0, r4
 209              		.loc 1 342 0
 210 0010 2961     		str	r1, [r5, #16]
 211              		.loc 1 347 0
 212 0012 FFF7FEFF 		bl	pwmObjectInit
 213              		.loc 1 348 0
 214 0016 044B     		ldr	r3, .L19+12
 215 0018 2361     		str	r3, [r4, #16]
 216              		.loc 1 356 0
 217 001a 38BD     		pop	{r3, r4, r5, pc}
 218              	.L20:
 219              		.align	2
 220              	.L19:
ARM GAS  C:\Users\DNIEL~1\AppData\Local\Temp\ccoZP52f.s 			page 5


 221 001c 00000000 		.word	.LANCHOR0
 222 0020 00000000 		.word	.LANCHOR1
 223 0024 00080040 		.word	1073743872
 224 0028 000C0040 		.word	1073744896
 225              		.cfi_endproc
 226              	.LFE121:
 227              		.size	pwm_lld_init, .-pwm_lld_init
 228 002c AFF30080 		.section	.text.pwm_lld_start,"ax",%progbits
 229              		.align	2
 230              		.p2align 4,,15
 231              		.global	pwm_lld_start
 232              		.thumb
 233              		.thumb_func
 234              		.type	pwm_lld_start, %function
 235              	pwm_lld_start:
 236              	.LFB122:
 237              		.loc 1 367 0
 238              		.cfi_startproc
 239              		@ args = 0, pretend = 0, frame = 0
 240              		@ frame_needed = 0, uses_anonymous_args = 0
 241              	.LVL3:
 242              		.loc 1 371 0
 243 0000 0378     		ldrb	r3, [r0, #0]	@ zero_extendqisi2
 244 0002 012B     		cmp	r3, #1
 245              		.loc 1 367 0
 246 0004 70B5     		push	{r4, r5, r6, lr}
 247              	.LCFI4:
 248              		.cfi_def_cfa_offset 16
 249              		.loc 1 367 0
 250 0006 0446     		mov	r4, r0
 251              		.cfi_offset 14, -4
 252              		.cfi_offset 6, -8
 253              		.cfi_offset 5, -12
 254              		.cfi_offset 4, -16
 255              		.loc 1 371 0
 256 0008 61D0     		beq	.L41
 257              		.loc 1 446 0
 258 000a 0369     		ldr	r3, [r0, #16]
 259 000c 0026     		movs	r6, #0
 260 000e 1E80     		strh	r6, [r3, #0]	@ movhi
 261              		.loc 1 447 0
 262 0010 9E81     		strh	r6, [r3, #12]	@ movhi
 263              		.loc 1 448 0
 264 0012 1E82     		strh	r6, [r3, #16]	@ movhi
 265              		.loc 1 449 0
 266 0014 5E63     		str	r6, [r3, #52]
 267              		.loc 1 450 0
 268 0016 9E63     		str	r6, [r3, #56]
 269              		.loc 1 451 0
 270 0018 DE63     		str	r6, [r3, #60]
 271              		.loc 1 452 0
 272 001a 1E64     		str	r6, [r3, #64]
 273              		.loc 1 453 0
 274 001c 5E62     		str	r6, [r3, #36]
 275              	.LVL4:
 276              	.L25:
 277              		.loc 1 457 0
ARM GAS  C:\Users\DNIEL~1\AppData\Local\Temp\ccoZP52f.s 			page 6


 278 001e 6168     		ldr	r1, [r4, #4]
 279 0020 E668     		ldr	r6, [r4, #12]
 280 0022 0D68     		ldr	r5, [r1, #0]
 281              		.loc 1 462 0
 282 0024 2489     		ldrh	r4, [r4, #8]
 283              	.LVL5:
 284              		.loc 1 467 0
 285 0026 CA68     		ldr	r2, [r1, #12]
 286              		.loc 1 463 0
 287 0028 888D     		ldrh	r0, [r1, #44]
 288              		.loc 1 462 0
 289 002a 013C     		subs	r4, r4, #1
 290              		.loc 1 457 0
 291 002c B6FBF5F5 		udiv	r5, r6, r5
 292              		.loc 1 467 0
 293 0030 02F00F02 		and	r2, r2, #15
 294              		.loc 1 457 0
 295 0034 013D     		subs	r5, r5, #1
 296              		.loc 1 462 0
 297 0036 A4B2     		uxth	r4, r4
 298              		.loc 1 467 0
 299 0038 012A     		cmp	r2, #1
 300              		.loc 1 461 0
 301 003a 1D85     		strh	r5, [r3, #40]	@ movhi
 302              		.loc 1 462 0
 303 003c DC62     		str	r4, [r3, #44]
 304              		.loc 1 463 0
 305 003e 9880     		strh	r0, [r3, #4]	@ movhi
 306              	.LVL6:
 307              		.loc 1 467 0
 308 0040 03D0     		beq	.L26
 309              		.loc 1 466 0
 310 0042 022A     		cmp	r2, #2
 311 0044 0CBF     		ite	eq
 312 0046 0322     		moveq	r2, #3
 313 0048 0022     		movne	r2, #0
 314              	.L26:
 315              	.LVL7:
 316              		.loc 1 475 0
 317 004a 4869     		ldr	r0, [r1, #20]
 318 004c 00F00F00 		and	r0, r0, #15
 319 0050 0128     		cmp	r0, #1
 320 0052 21D0     		beq	.L30
 321 0054 0228     		cmp	r0, #2
 322 0056 1DD0     		beq	.L42
 323              		.loc 1 483 0
 324 0058 C869     		ldr	r0, [r1, #28]
 325 005a 00F00F00 		and	r0, r0, #15
 326 005e 0128     		cmp	r0, #1
 327 0060 21D0     		beq	.L33
 328              	.LVL8:
 329              	.L45:
 330 0062 0228     		cmp	r0, #2
 331 0064 2ED0     		beq	.L43
 332              	.LVL9:
 333              		.loc 1 491 0
 334 0066 486A     		ldr	r0, [r1, #36]
ARM GAS  C:\Users\DNIEL~1\AppData\Local\Temp\ccoZP52f.s 			page 7


 335 0068 00F00F00 		and	r0, r0, #15
 336 006c 0128     		cmp	r0, #1
 337 006e 21D0     		beq	.L36
 338              	.LVL10:
 339              	.L46:
 340 0070 0228     		cmp	r0, #2
 341 0072 22D0     		beq	.L44
 342              	.L35:
 343              	.LVL11:
 344              		.loc 1 538 0
 345 0074 8968     		ldr	r1, [r1, #8]
 346              	.LVL12:
 347              		.loc 1 536 0
 348 0076 1A84     		strh	r2, [r3, #32]	@ movhi
 349              		.loc 1 538 0
 350 0078 B1F1000C 		subs	ip, r1, #0
 351 007c 18BF     		it	ne
 352 007e 4FF0010C 		movne	ip, #1
 353              		.loc 1 537 0
 354 0082 0120     		movs	r0, #1
 355              		.loc 1 539 0
 356 0084 0022     		movs	r2, #0
 357              	.LVL13:
 358              		.loc 1 548 0
 359 0086 8521     		movs	r1, #133
 360              		.loc 1 537 0
 361 0088 9882     		strh	r0, [r3, #20]	@ movhi
 362              		.loc 1 538 0
 363 008a A3F80CC0 		strh	ip, [r3, #12]	@ movhi
 364              		.loc 1 539 0
 365 008e 1A82     		strh	r2, [r3, #16]	@ movhi
 366              		.loc 1 548 0
 367 0090 1980     		strh	r1, [r3, #0]	@ movhi
 368              		.loc 1 549 0
 369 0092 70BD     		pop	{r4, r5, r6, pc}
 370              	.LVL14:
 371              	.L42:
 372              		.loc 1 477 0
 373 0094 42F02002 		orr	r2, r2, #32
 374              	.LVL15:
 375              	.L30:
 376              		.loc 1 483 0
 377 0098 C869     		ldr	r0, [r1, #28]
 378 009a 00F00F00 		and	r0, r0, #15
 379 009e 0128     		cmp	r0, #1
 380              		.loc 1 479 0
 381 00a0 42F01002 		orr	r2, r2, #16
 382              	.LVL16:
 383              		.loc 1 483 0
 384 00a4 DDD1     		bne	.L45
 385              	.LVL17:
 386              	.L33:
 387              		.loc 1 487 0
 388 00a6 42F48072 		orr	r2, r2, #256
 389              	.LVL18:
 390              	.L47:
 391              		.loc 1 491 0
ARM GAS  C:\Users\DNIEL~1\AppData\Local\Temp\ccoZP52f.s 			page 8


 392 00aa 486A     		ldr	r0, [r1, #36]
 393 00ac 00F00F00 		and	r0, r0, #15
 394 00b0 0128     		cmp	r0, #1
 395 00b2 DDD1     		bne	.L46
 396              	.LVL19:
 397              	.L36:
 398              		.loc 1 495 0
 399 00b4 42F48052 		orr	r2, r2, #4096
 400              	.LVL20:
 401 00b8 DCE7     		b	.L35
 402              	.LVL21:
 403              	.L44:
 404              		.loc 1 493 0
 405 00ba 42F40052 		orr	r2, r2, #8192
 406              	.LVL22:
 407              		.loc 1 495 0
 408 00be 42F48052 		orr	r2, r2, #4096
 409              	.LVL23:
 410 00c2 D7E7     		b	.L35
 411              	.LVL24:
 412              	.L43:
 413              		.loc 1 485 0
 414 00c4 42F40072 		orr	r2, r2, #512
 415              	.LVL25:
 416              		.loc 1 487 0
 417 00c8 42F48072 		orr	r2, r2, #256
 418              	.LVL26:
 419 00cc EDE7     		b	.L47
 420              	.LVL27:
 421              	.L41:
 422              		.loc 1 403 0
 423 00ce 1549     		ldr	r1, .L50
 424 00d0 8842     		cmp	r0, r1
 425 00d2 0AD0     		beq	.L48
 426              		.loc 1 413 0
 427 00d4 144E     		ldr	r6, .L50+4
 428 00d6 B042     		cmp	r0, r6
 429 00d8 19D0     		beq	.L49
 430              	.LVL28:
 431              	.L24:
 432              		.loc 1 435 0
 433 00da 2369     		ldr	r3, [r4, #16]
 434 00dc 46F6680C 		movw	ip, 26728	@ movhi
 435 00e0 A3F818C0 		strh	ip, [r3, #24]	@ movhi
 436              		.loc 1 439 0
 437 00e4 A3F81CC0 		strh	ip, [r3, #28]	@ movhi
 438 00e8 99E7     		b	.L25
 439              	.L48:
 440              		.loc 1 404 0
 441 00ea 104B     		ldr	r3, .L50+8
 442 00ec 1D6C     		ldr	r5, [r3, #64]
 443 00ee 45F00400 		orr	r0, r5, #4
 444 00f2 1864     		str	r0, [r3, #64]
 445              		.loc 1 405 0
 446 00f4 1A6A     		ldr	r2, [r3, #32]
 447              		.loc 1 406 0
 448 00f6 1E20     		movs	r0, #30
ARM GAS  C:\Users\DNIEL~1\AppData\Local\Temp\ccoZP52f.s 			page 9


 449              		.loc 1 405 0
 450 00f8 42F00402 		orr	r2, r2, #4
 451              	.L40:
 452              		.loc 1 415 0
 453 00fc 0025     		movs	r5, #0
 454 00fe 1A62     		str	r2, [r3, #32]
 455              		.loc 1 416 0
 456 0100 7021     		movs	r1, #112
 457              		.loc 1 415 0
 458 0102 1D62     		str	r5, [r3, #32]
 459              		.loc 1 416 0
 460 0104 FFF7FEFF 		bl	nvicEnableVector
 461              		.loc 1 418 0
 462 0108 094B     		ldr	r3, .L50+12
 463 010a E360     		str	r3, [r4, #12]
 464 010c E5E7     		b	.L24
 465              	.L49:
 466              		.loc 1 414 0
 467 010e 074B     		ldr	r3, .L50+8
 468 0110 186C     		ldr	r0, [r3, #64]
 469 0112 40F00802 		orr	r2, r0, #8
 470 0116 1A64     		str	r2, [r3, #64]
 471              		.loc 1 415 0
 472 0118 196A     		ldr	r1, [r3, #32]
 473              		.loc 1 416 0
 474 011a 3220     		movs	r0, #50
 475              		.loc 1 415 0
 476 011c 41F00802 		orr	r2, r1, #8
 477 0120 ECE7     		b	.L40
 478              	.L51:
 479 0122 00BF     		.align	2
 480              	.L50:
 481 0124 00000000 		.word	.LANCHOR0
 482 0128 00000000 		.word	.LANCHOR1
 483 012c 00380240 		.word	1073887232
 484 0130 00BD0105 		.word	84000000
 485              		.cfi_endproc
 486              	.LFE122:
 487              		.size	pwm_lld_start, .-pwm_lld_start
 488 0134 AFF30080 		.section	.text.pwm_lld_stop,"ax",%progbits
 488      AFF30080 
 488      AFF30080 
 489              		.align	2
 490              		.p2align 4,,15
 491              		.global	pwm_lld_stop
 492              		.thumb
 493              		.thumb_func
 494              		.type	pwm_lld_stop, %function
 495              	pwm_lld_stop:
 496              	.LFB123:
 497              		.loc 1 558 0
 498              		.cfi_startproc
 499              		@ args = 0, pretend = 0, frame = 0
 500              		@ frame_needed = 0, uses_anonymous_args = 0
 501              	.LVL29:
 502 0000 08B5     		push	{r3, lr}
 503              	.LCFI5:
ARM GAS  C:\Users\DNIEL~1\AppData\Local\Temp\ccoZP52f.s 			page 10


 504              		.cfi_def_cfa_offset 8
 505              		.loc 1 561 0
 506 0002 0378     		ldrb	r3, [r0, #0]	@ zero_extendqisi2
 507              		.cfi_offset 14, -4
 508              		.cfi_offset 3, -8
 509 0004 022B     		cmp	r3, #2
 510 0006 00D0     		beq	.L55
 511              	.LVL30:
 512              	.L52:
 513 0008 08BD     		pop	{r3, pc}
 514              	.LVL31:
 515              	.L55:
 516              		.loc 1 589 0
 517 000a 0E49     		ldr	r1, .L57
 518              		.loc 1 562 0
 519 000c 0369     		ldr	r3, [r0, #16]
 520 000e 0022     		movs	r2, #0
 521              		.loc 1 589 0
 522 0010 8842     		cmp	r0, r1
 523              		.loc 1 562 0
 524 0012 1A80     		strh	r2, [r3, #0]	@ movhi
 525              		.loc 1 563 0
 526 0014 9A81     		strh	r2, [r3, #12]	@ movhi
 527              		.loc 1 564 0
 528 0016 1A82     		strh	r2, [r3, #16]	@ movhi
 529              		.loc 1 589 0
 530 0018 0BD0     		beq	.L56
 531              		.loc 1 595 0
 532 001a 0B4B     		ldr	r3, .L57+4
 533 001c 9842     		cmp	r0, r3
 534 001e F3D1     		bne	.L52
 535              		.loc 1 596 0
 536 0020 3220     		movs	r0, #50
 537              	.LVL32:
 538 0022 FFF7FEFF 		bl	nvicDisableVector
 539              		.loc 1 597 0
 540 0026 0949     		ldr	r1, .L57+8
 541 0028 0A6C     		ldr	r2, [r1, #64]
 542 002a 22F00800 		bic	r0, r2, #8
 543 002e 0864     		str	r0, [r1, #64]
 544 0030 EAE7     		b	.L52
 545              	.LVL33:
 546              	.L56:
 547              		.loc 1 590 0
 548 0032 1E20     		movs	r0, #30
 549              	.LVL34:
 550 0034 FFF7FEFF 		bl	nvicDisableVector
 551              		.loc 1 591 0
 552 0038 0449     		ldr	r1, .L57+8
 553 003a 0A6C     		ldr	r2, [r1, #64]
 554 003c 22F00400 		bic	r0, r2, #4
 555 0040 0864     		str	r0, [r1, #64]
 556 0042 08BD     		pop	{r3, pc}
 557              	.L58:
 558              		.align	2
 559              	.L57:
 560 0044 00000000 		.word	.LANCHOR0
ARM GAS  C:\Users\DNIEL~1\AppData\Local\Temp\ccoZP52f.s 			page 11


 561 0048 00000000 		.word	.LANCHOR1
 562 004c 00380240 		.word	1073887232
 563              		.cfi_endproc
 564              	.LFE123:
 565              		.size	pwm_lld_stop, .-pwm_lld_stop
 566              		.section	.text.pwm_lld_enable_channel,"ax",%progbits
 567              		.align	2
 568              		.p2align 4,,15
 569              		.global	pwm_lld_enable_channel
 570              		.thumb
 571              		.thumb_func
 572              		.type	pwm_lld_enable_channel, %function
 573              	pwm_lld_enable_channel:
 574              	.LFB124:
 575              		.loc 1 624 0
 576              		.cfi_startproc
 577              		@ args = 0, pretend = 0, frame = 0
 578              		@ frame_needed = 0, uses_anonymous_args = 0
 579              		@ link register save eliminated.
 580              	.LVL35:
 581 0000 10B4     		push	{r4}
 582              	.LCFI6:
 583              		.cfi_def_cfa_offset 4
 584              		.loc 1 629 0
 585 0002 4468     		ldr	r4, [r0, #4]
 586              		.cfi_offset 4, -4
 587              		.loc 1 626 0
 588 0004 0369     		ldr	r3, [r0, #16]
 589              		.loc 1 629 0
 590 0006 04EBC10C 		add	ip, r4, r1, lsl #3
 591              		.loc 1 626 0
 592 000a 01F10C04 		add	r4, r1, #12
 593 000e 03EB8404 		add	r4, r3, r4, lsl #2
 594              		.loc 1 629 0
 595 0012 DCF81000 		ldr	r0, [ip, #16]
 596              	.LVL36:
 597              		.loc 1 626 0
 598 0016 6260     		str	r2, [r4, #4]
 599              		.loc 1 629 0
 600 0018 58B1     		cbz	r0, .L59
 601              	.LBB2:
 602              		.loc 1 630 0
 603 001a 9A89     		ldrh	r2, [r3, #12]
 604              	.LVL37:
 605              		.loc 1 633 0
 606 001c 0220     		movs	r0, #2
 607              		.loc 1 630 0
 608 001e 92B2     		uxth	r2, r2
 609              	.LVL38:
 610              		.loc 1 633 0
 611 0020 10FA01F1 		lsls	r1, r0, r1
 612              	.LVL39:
 613 0024 1142     		tst	r1, r2
 614 0026 04D1     		bne	.L59
 615              		.loc 1 634 0
 616 0028 89B2     		uxth	r1, r1
 617              		.loc 1 635 0
ARM GAS  C:\Users\DNIEL~1\AppData\Local\Temp\ccoZP52f.s 			page 12


 618 002a C843     		mvns	r0, r1
 619              		.loc 1 634 0
 620 002c 1143     		orrs	r1, r1, r2
 621 002e 9981     		strh	r1, [r3, #12]	@ movhi
 622              		.loc 1 635 0
 623 0030 1882     		strh	r0, [r3, #16]	@ movhi
 624              	.LVL40:
 625              	.L59:
 626              	.LBE2:
 627              		.loc 1 638 0
 628 0032 10BC     		pop	{r4}
 629 0034 7047     		bx	lr
 630              		.cfi_endproc
 631              	.LFE124:
 632              		.size	pwm_lld_enable_channel, .-pwm_lld_enable_channel
 633 0036 00BFAFF3 		.section	.text.pwm_lld_disable_channel,"ax",%progbits
 633      0080AFF3 
 633      0080
 634              		.align	2
 635              		.p2align 4,,15
 636              		.global	pwm_lld_disable_channel
 637              		.thumb
 638              		.thumb_func
 639              		.type	pwm_lld_disable_channel, %function
 640              	pwm_lld_disable_channel:
 641              	.LFB125:
 642              		.loc 1 652 0
 643              		.cfi_startproc
 644              		@ args = 0, pretend = 0, frame = 0
 645              		@ frame_needed = 0, uses_anonymous_args = 0
 646              		@ link register save eliminated.
 647              	.LVL41:
 648              		.loc 1 654 0
 649 0000 0369     		ldr	r3, [r0, #16]
 650 0002 01F10C0C 		add	ip, r1, #12
 651 0006 03EB8C02 		add	r2, r3, ip, lsl #2
 652 000a 0020     		movs	r0, #0
 653              	.LVL42:
 654 000c 5060     		str	r0, [r2, #4]
 655              		.loc 1 655 0
 656 000e B3F80CC0 		ldrh	ip, [r3, #12]
 657 0012 0220     		movs	r0, #2
 658 0014 1FFA8CF2 		uxth	r2, ip
 659 0018 8840     		lsls	r0, r0, r1
 660 001a 22EA0001 		bic	r1, r2, r0
 661              	.LVL43:
 662 001e 9981     		strh	r1, [r3, #12]	@ movhi
 663              		.loc 1 656 0
 664 0020 7047     		bx	lr
 665              		.cfi_endproc
 666              	.LFE125:
 667              		.size	pwm_lld_disable_channel, .-pwm_lld_disable_channel
 668              		.global	PWMD4
 669              		.global	PWMD5
 670 0022 00BFAFF3 		.section	.bss.PWMD4,"aw",%nobits
 670      0080AFF3 
 670      0080AFF3 
ARM GAS  C:\Users\DNIEL~1\AppData\Local\Temp\ccoZP52f.s 			page 13


 670      0080
 671              		.align	2
 672              		.set	.LANCHOR0,. + 0
 673              		.type	PWMD4, %object
 674              		.size	PWMD4, 20
 675              	PWMD4:
 676 0000 00000000 		.space	20
 676      00000000 
 676      00000000 
 676      00000000 
 676      00000000 
 677              		.section	.bss.PWMD5,"aw",%nobits
 678              		.align	2
 679              		.set	.LANCHOR1,. + 0
 680              		.type	PWMD5, %object
 681              		.size	PWMD5, 20
 682              	PWMD5:
 683 0000 00000000 		.space	20
 683      00000000 
 683      00000000 
 683      00000000 
 683      00000000 
 684              		.text
 685              	.Letext0: