ARM GAS  C:\Users\DNIEL~1\AppData\Local\Temp\cc3iwxtd.s 			page 1


   1              		.syntax unified
   2              		.cpu cortex-m4
   3              		.fpu softvfp
   4              		.eabi_attribute 20, 1
   5              		.eabi_attribute 21, 1
   6              		.eabi_attribute 23, 3
   7              		.eabi_attribute 24, 1
   8              		.eabi_attribute 25, 1
   9              		.eabi_attribute 26, 1
  10              		.eabi_attribute 30, 2
  11              		.eabi_attribute 18, 4
  12              		.thumb
  13              		.file	"pwm_lld.c"
  14              		.section	.debug_abbrev,"",%progbits
  15              	.Ldebug_abbrev0:
  16              		.section	.debug_info,"",%progbits
  17              	.Ldebug_info0:
  18              		.section	.debug_line,"",%progbits
  19              	.Ldebug_line0:
  20 0000 D3020000 		.text
  20      02009901 
  20      00000201 
  20      FB0E0D00 
  20      01010101 
  21              	.Ltext0:
  22              		.cfi_sections	.debug_frame
  23              		.section	.text.pwm_lld_serve_interrupt,"ax",%progbits
  24              		.align	2
  25              		.p2align 4,,15
  26              		.thumb
  27              		.thumb_func
  28              		.type	pwm_lld_serve_interrupt, %function
  29              	pwm_lld_serve_interrupt:
  30              	.LFB118:
  31              		.file 1 "../../../ChibiOS/os/hal/platforms/STM32/TIMv1/pwm_lld.c"
  32              		.loc 1 112 0
  33              		.cfi_startproc
  34              		@ args = 0, pretend = 0, frame = 0
  35              		@ frame_needed = 0, uses_anonymous_args = 0
  36              	.LVL0:
  37 0000 38B5     		push	{r3, r4, r5, lr}
  38              	.LCFI0:
  39              		.cfi_def_cfa_offset 16
  40              		.loc 1 115 0
  41 0002 0369     		ldr	r3, [r0, #16]
  42              		.cfi_offset 14, -4
  43              		.cfi_offset 5, -8
  44              		.cfi_offset 4, -12
  45              		.cfi_offset 3, -16
  46 0004 1969     		ldr	r1, [r3, #16]
  47              	.LVL1:
  48              		.loc 1 116 0
  49 0006 DA68     		ldr	r2, [r3, #12]
  50 0008 01EA0204 		and	r4, r1, r2
  51 000c E4B2     		uxtb	r4, r4
  52              	.LVL2:
  53              		.loc 1 117 0
ARM GAS  C:\Users\DNIEL~1\AppData\Local\Temp\cc3iwxtd.s 			page 2


  54 000e E243     		mvns	r2, r4
  55              		.loc 1 118 0
  56 0010 14F0020F 		tst	r4, #2
  57              		.loc 1 112 0
  58 0014 0546     		mov	r5, r0
  59              		.loc 1 117 0
  60 0016 1A61     		str	r2, [r3, #16]
  61              		.loc 1 118 0
  62 0018 1FD1     		bne	.L8
  63              	.LVL3:
  64              	.L2:
  65              		.loc 1 120 0
  66 001a 14F0040F 		tst	r4, #4
  67 001e 17D1     		bne	.L9
  68              	.L3:
  69              		.loc 1 122 0
  70 0020 14F0080F 		tst	r4, #8
  71 0024 0FD1     		bne	.L10
  72              	.L4:
  73              		.loc 1 124 0
  74 0026 14F0100F 		tst	r4, #16
  75 002a 07D1     		bne	.L11
  76              	.L5:
  77              		.loc 1 126 0
  78 002c 14F0010F 		tst	r4, #1
  79 0030 03D0     		beq	.L1
  80              		.loc 1 127 0
  81 0032 6B68     		ldr	r3, [r5, #4]
  82 0034 2846     		mov	r0, r5
  83 0036 9A68     		ldr	r2, [r3, #8]
  84 0038 9047     		blx	r2
  85              	.L1:
  86 003a 38BD     		pop	{r3, r4, r5, pc}
  87              	.L11:
  88              		.loc 1 125 0
  89 003c 6968     		ldr	r1, [r5, #4]
  90 003e 2846     		mov	r0, r5
  91 0040 8B6A     		ldr	r3, [r1, #40]
  92 0042 9847     		blx	r3
  93 0044 F2E7     		b	.L5
  94              	.L10:
  95              		.loc 1 123 0
  96 0046 6A68     		ldr	r2, [r5, #4]
  97 0048 2846     		mov	r0, r5
  98 004a 116A     		ldr	r1, [r2, #32]
  99 004c 8847     		blx	r1
 100 004e EAE7     		b	.L4
 101              	.L9:
 102              		.loc 1 121 0
 103 0050 6B68     		ldr	r3, [r5, #4]
 104 0052 2846     		mov	r0, r5
 105 0054 9A69     		ldr	r2, [r3, #24]
 106 0056 9047     		blx	r2
 107 0058 E2E7     		b	.L3
 108              	.L8:
 109              		.loc 1 119 0
 110 005a 4168     		ldr	r1, [r0, #4]
ARM GAS  C:\Users\DNIEL~1\AppData\Local\Temp\cc3iwxtd.s 			page 3


 111 005c 0B69     		ldr	r3, [r1, #16]
 112 005e 9847     		blx	r3
 113 0060 DBE7     		b	.L2
 114              		.cfi_endproc
 115              	.LFE118:
 116              		.size	pwm_lld_serve_interrupt, .-pwm_lld_serve_interrupt
 117 0062 00BFAFF3 		.section	.text.VectorB8,"ax",%progbits
 117      0080AFF3 
 117      0080AFF3 
 117      0080
 118              		.align	2
 119              		.p2align 4,,15
 120              		.global	VectorB8
 121              		.thumb
 122              		.thumb_func
 123              		.type	VectorB8, %function
 124              	VectorB8:
 125              	.LFB119:
 126              		.loc 1 235 0
 127              		.cfi_startproc
 128              		@ args = 0, pretend = 0, frame = 0
 129              		@ frame_needed = 0, uses_anonymous_args = 0
 130 0000 10B5     		push	{r4, lr}
 131              	.LCFI1:
 132              		.cfi_def_cfa_offset 8
 133              		.loc 1 239 0
 134 0002 0348     		ldr	r0, .L13
 135              		.cfi_offset 14, -4
 136              		.cfi_offset 4, -8
 137 0004 FFF7FEFF 		bl	pwm_lld_serve_interrupt
 138              		.loc 1 242 0
 139 0008 BDE81040 		pop	{r4, lr}
 140              		.loc 1 241 0
 141 000c FFF7FEBF 		b	_port_irq_epilogue
 142              	.L14:
 143              		.align	2
 144              	.L13:
 145 0010 00000000 		.word	.LANCHOR0
 146              		.cfi_endproc
 147              	.LFE119:
 148              		.size	VectorB8, .-VectorB8
 149 0014 AFF30080 		.section	.text.Vector108,"ax",%progbits
 149      AFF30080 
 149      AFF30080 
 150              		.align	2
 151              		.p2align 4,,15
 152              		.global	Vector108
 153              		.thumb
 154              		.thumb_func
 155              		.type	Vector108, %function
 156              	Vector108:
 157              	.LFB120:
 158              		.loc 1 254 0
 159              		.cfi_startproc
 160              		@ args = 0, pretend = 0, frame = 0
 161              		@ frame_needed = 0, uses_anonymous_args = 0
 162 0000 10B5     		push	{r4, lr}
ARM GAS  C:\Users\DNIEL~1\AppData\Local\Temp\cc3iwxtd.s 			page 4


 163              	.LCFI2:
 164              		.cfi_def_cfa_offset 8
 165              		.loc 1 258 0
 166 0002 0348     		ldr	r0, .L16
 167              		.cfi_offset 14, -4
 168              		.cfi_offset 4, -8
 169 0004 FFF7FEFF 		bl	pwm_lld_serve_interrupt
 170              		.loc 1 261 0
 171 0008 BDE81040 		pop	{r4, lr}
 172              		.loc 1 260 0
 173 000c FFF7FEBF 		b	_port_irq_epilogue
 174              	.L17:
 175              		.align	2
 176              	.L16:
 177 0010 00000000 		.word	.LANCHOR1
 178              		.cfi_endproc
 179              	.LFE120:
 180              		.size	Vector108, .-Vector108
 181 0014 AFF30080 		.section	.text.pwm_lld_init,"ax",%progbits
 181      AFF30080 
 181      AFF30080 
 182              		.align	2
 183              		.p2align 4,,15
 184              		.global	pwm_lld_init
 185              		.thumb
 186              		.thumb_func
 187              		.type	pwm_lld_init, %function
 188              	pwm_lld_init:
 189              	.LFB121:
 190              		.loc 1 345 0
 191              		.cfi_startproc
 192              		@ args = 0, pretend = 0, frame = 0
 193              		@ frame_needed = 0, uses_anonymous_args = 0
 194 0000 38B5     		push	{r3, r4, r5, lr}
 195              	.LCFI3:
 196              		.cfi_def_cfa_offset 16
 197              		.loc 1 367 0
 198 0002 064D     		ldr	r5, .L19
 199              		.cfi_offset 14, -4
 200              		.cfi_offset 5, -8
 201              		.cfi_offset 4, -12
 202              		.cfi_offset 3, -16
 203              		.loc 1 373 0
 204 0004 064C     		ldr	r4, .L19+4
 205              		.loc 1 367 0
 206 0006 2846     		mov	r0, r5
 207 0008 FFF7FEFF 		bl	pwmObjectInit
 208              		.loc 1 368 0
 209 000c 0549     		ldr	r1, .L19+8
 210              		.loc 1 373 0
 211 000e 2046     		mov	r0, r4
 212              		.loc 1 368 0
 213 0010 2961     		str	r1, [r5, #16]
 214              		.loc 1 373 0
 215 0012 FFF7FEFF 		bl	pwmObjectInit
 216              		.loc 1 374 0
 217 0016 044B     		ldr	r3, .L19+12
ARM GAS  C:\Users\DNIEL~1\AppData\Local\Temp\cc3iwxtd.s 			page 5


 218 0018 2361     		str	r3, [r4, #16]
 219              		.loc 1 388 0
 220 001a 38BD     		pop	{r3, r4, r5, pc}
 221              	.L20:
 222              		.align	2
 223              	.L19:
 224 001c 00000000 		.word	.LANCHOR0
 225 0020 00000000 		.word	.LANCHOR1
 226 0024 00080040 		.word	1073743872
 227 0028 000C0040 		.word	1073744896
 228              		.cfi_endproc
 229              	.LFE121:
 230              		.size	pwm_lld_init, .-pwm_lld_init
 231 002c AFF30080 		.section	.text.pwm_lld_start,"ax",%progbits
 232              		.align	2
 233              		.p2align 4,,15
 234              		.global	pwm_lld_start
 235              		.thumb
 236              		.thumb_func
 237              		.type	pwm_lld_start, %function
 238              	pwm_lld_start:
 239              	.LFB122:
 240              		.loc 1 399 0
 241              		.cfi_startproc
 242              		@ args = 0, pretend = 0, frame = 0
 243              		@ frame_needed = 0, uses_anonymous_args = 0
 244              	.LVL4:
 245              		.loc 1 403 0
 246 0000 0378     		ldrb	r3, [r0, #0]	@ zero_extendqisi2
 247 0002 012B     		cmp	r3, #1
 248              		.loc 1 399 0
 249 0004 70B5     		push	{r4, r5, r6, lr}
 250              	.LCFI4:
 251              		.cfi_def_cfa_offset 16
 252              		.loc 1 399 0
 253 0006 0446     		mov	r4, r0
 254              		.cfi_offset 14, -4
 255              		.cfi_offset 6, -8
 256              		.cfi_offset 5, -12
 257              		.cfi_offset 4, -16
 258              		.loc 1 403 0
 259 0008 61D0     		beq	.L41
 260              		.loc 1 491 0
 261 000a 0369     		ldr	r3, [r0, #16]
 262 000c 0021     		movs	r1, #0
 263 000e 1960     		str	r1, [r3, #0]
 264              		.loc 1 492 0
 265 0010 5963     		str	r1, [r3, #52]
 266              		.loc 1 493 0
 267 0012 9963     		str	r1, [r3, #56]
 268              		.loc 1 494 0
 269 0014 D963     		str	r1, [r3, #60]
 270              		.loc 1 495 0
 271 0016 1964     		str	r1, [r3, #64]
 272              		.loc 1 496 0
 273 0018 5962     		str	r1, [r3, #36]
 274              	.LVL5:
ARM GAS  C:\Users\DNIEL~1\AppData\Local\Temp\cc3iwxtd.s 			page 6


 275              	.L25:
 276              		.loc 1 500 0
 277 001a 6268     		ldr	r2, [r4, #4]
 278 001c E668     		ldr	r6, [r4, #12]
 279 001e 1568     		ldr	r5, [r2, #0]
 280              		.loc 1 505 0
 281 0020 2489     		ldrh	r4, [r4, #8]
 282              	.LVL6:
 283              		.loc 1 510 0
 284 0022 D168     		ldr	r1, [r2, #12]
 285              		.loc 1 506 0
 286 0024 D06A     		ldr	r0, [r2, #44]
 287              		.loc 1 500 0
 288 0026 B6FBF5F5 		udiv	r5, r6, r5
 289 002a 013D     		subs	r5, r5, #1
 290              		.loc 1 505 0
 291 002c 013C     		subs	r4, r4, #1
 292              		.loc 1 510 0
 293 002e 01F00F01 		and	r1, r1, #15
 294              		.loc 1 504 0
 295 0032 ADB2     		uxth	r5, r5
 296              		.loc 1 505 0
 297 0034 A4B2     		uxth	r4, r4
 298              		.loc 1 510 0
 299 0036 0129     		cmp	r1, #1
 300              		.loc 1 504 0
 301 0038 9D62     		str	r5, [r3, #40]
 302              		.loc 1 505 0
 303 003a DC62     		str	r4, [r3, #44]
 304              		.loc 1 506 0
 305 003c 5860     		str	r0, [r3, #4]
 306              	.LVL7:
 307              		.loc 1 510 0
 308 003e 03D0     		beq	.L26
 309              		.loc 1 509 0
 310 0040 0229     		cmp	r1, #2
 311 0042 0CBF     		ite	eq
 312 0044 0321     		moveq	r1, #3
 313 0046 0021     		movne	r1, #0
 314              	.L26:
 315              	.LVL8:
 316              		.loc 1 518 0
 317 0048 5069     		ldr	r0, [r2, #20]
 318 004a 00F00F00 		and	r0, r0, #15
 319 004e 0128     		cmp	r0, #1
 320 0050 22D0     		beq	.L30
 321 0052 0228     		cmp	r0, #2
 322 0054 1ED0     		beq	.L42
 323              		.loc 1 526 0
 324 0056 D469     		ldr	r4, [r2, #28]
 325 0058 04F00F00 		and	r0, r4, #15
 326 005c 0128     		cmp	r0, #1
 327 005e 22D0     		beq	.L33
 328              	.L45:
 329 0060 0228     		cmp	r0, #2
 330 0062 2FD0     		beq	.L43
 331              		.loc 1 534 0
ARM GAS  C:\Users\DNIEL~1\AppData\Local\Temp\cc3iwxtd.s 			page 7


 332 0064 506A     		ldr	r0, [r2, #36]
 333 0066 00F00F00 		and	r0, r0, #15
 334 006a 0128     		cmp	r0, #1
 335 006c 22D0     		beq	.L36
 336              	.L46:
 337 006e 0228     		cmp	r0, #2
 338 0070 23D0     		beq	.L44
 339              	.L35:
 340              		.loc 1 583 0
 341 0072 146B     		ldr	r4, [r2, #48]
 342              		.loc 1 582 0
 343 0074 9068     		ldr	r0, [r2, #8]
 344              		.loc 1 579 0
 345 0076 1962     		str	r1, [r3, #32]
 346              		.loc 1 583 0
 347 0078 24F0FF02 		bic	r2, r4, #255
 348              	.LVL9:
 349              		.loc 1 582 0
 350 007c 0028     		cmp	r0, #0
 351 007e 18BF     		it	ne
 352 0080 42F00102 		orrne	r2, r2, #1
 353              		.loc 1 581 0
 354 0084 0021     		movs	r1, #0
 355              	.LVL10:
 356              		.loc 1 580 0
 357 0086 0120     		movs	r0, #1
 358 0088 5861     		str	r0, [r3, #20]
 359              		.loc 1 581 0
 360 008a 1961     		str	r1, [r3, #16]
 361              		.loc 1 582 0
 362 008c DA60     		str	r2, [r3, #12]
 363              		.loc 1 592 0
 364 008e 8522     		movs	r2, #133
 365 0090 1A60     		str	r2, [r3, #0]
 366              		.loc 1 594 0
 367 0092 70BD     		pop	{r4, r5, r6, pc}
 368              	.LVL11:
 369              	.L42:
 370              		.loc 1 520 0
 371 0094 41F02001 		orr	r1, r1, #32
 372              	.LVL12:
 373              	.L30:
 374              		.loc 1 526 0
 375 0098 D469     		ldr	r4, [r2, #28]
 376 009a 04F00F00 		and	r0, r4, #15
 377 009e 0128     		cmp	r0, #1
 378              		.loc 1 522 0
 379 00a0 41F01001 		orr	r1, r1, #16
 380              	.LVL13:
 381              		.loc 1 526 0
 382 00a4 DCD1     		bne	.L45
 383              	.L33:
 384              		.loc 1 530 0
 385 00a6 41F48071 		orr	r1, r1, #256
 386              	.LVL14:
 387              	.L47:
 388              		.loc 1 534 0
ARM GAS  C:\Users\DNIEL~1\AppData\Local\Temp\cc3iwxtd.s 			page 8


 389 00aa 506A     		ldr	r0, [r2, #36]
 390 00ac 00F00F00 		and	r0, r0, #15
 391 00b0 0128     		cmp	r0, #1
 392 00b2 DCD1     		bne	.L46
 393              	.L36:
 394              		.loc 1 538 0
 395 00b4 41F48051 		orr	r1, r1, #4096
 396              	.LVL15:
 397 00b8 DBE7     		b	.L35
 398              	.L44:
 399              		.loc 1 536 0
 400 00ba 41F40051 		orr	r1, r1, #8192
 401              	.LVL16:
 402              		.loc 1 538 0
 403 00be 41F48051 		orr	r1, r1, #4096
 404              	.LVL17:
 405 00c2 D6E7     		b	.L35
 406              	.L43:
 407              		.loc 1 528 0
 408 00c4 41F40071 		orr	r1, r1, #512
 409              	.LVL18:
 410              		.loc 1 530 0
 411 00c8 41F48071 		orr	r1, r1, #256
 412              	.LVL19:
 413 00cc EDE7     		b	.L47
 414              	.LVL20:
 415              	.L41:
 416              		.loc 1 439 0
 417 00ce 1449     		ldr	r1, .L50
 418 00d0 8842     		cmp	r0, r1
 419 00d2 08D0     		beq	.L48
 420              		.loc 1 449 0
 421 00d4 134E     		ldr	r6, .L50+4
 422 00d6 B042     		cmp	r0, r6
 423 00d8 17D0     		beq	.L49
 424              	.LVL21:
 425              	.L24:
 426              		.loc 1 484 0
 427 00da 2369     		ldr	r3, [r4, #16]
 428 00dc 46F66806 		movw	r6, #26728
 429 00e0 9E61     		str	r6, [r3, #24]
 430              		.loc 1 486 0
 431 00e2 DE61     		str	r6, [r3, #28]
 432 00e4 99E7     		b	.L25
 433              	.L48:
 434              		.loc 1 440 0
 435 00e6 104B     		ldr	r3, .L50+8
 436 00e8 1D6C     		ldr	r5, [r3, #64]
 437 00ea 45F00400 		orr	r0, r5, #4
 438 00ee 1864     		str	r0, [r3, #64]
 439              		.loc 1 441 0
 440 00f0 1A6A     		ldr	r2, [r3, #32]
 441              		.loc 1 442 0
 442 00f2 1E20     		movs	r0, #30
 443              		.loc 1 441 0
 444 00f4 42F00402 		orr	r2, r2, #4
 445              	.L40:
ARM GAS  C:\Users\DNIEL~1\AppData\Local\Temp\cc3iwxtd.s 			page 9


 446              		.loc 1 451 0
 447 00f8 0025     		movs	r5, #0
 448 00fa 1A62     		str	r2, [r3, #32]
 449              		.loc 1 452 0
 450 00fc 7021     		movs	r1, #112
 451              		.loc 1 451 0
 452 00fe 1D62     		str	r5, [r3, #32]
 453              		.loc 1 452 0
 454 0100 FFF7FEFF 		bl	nvicEnableVector
 455              		.loc 1 454 0
 456 0104 094B     		ldr	r3, .L50+12
 457 0106 E360     		str	r3, [r4, #12]
 458 0108 E7E7     		b	.L24
 459              	.L49:
 460              		.loc 1 450 0
 461 010a 074B     		ldr	r3, .L50+8
 462 010c 186C     		ldr	r0, [r3, #64]
 463 010e 40F00802 		orr	r2, r0, #8
 464 0112 1A64     		str	r2, [r3, #64]
 465              		.loc 1 451 0
 466 0114 196A     		ldr	r1, [r3, #32]
 467              		.loc 1 452 0
 468 0116 3220     		movs	r0, #50
 469              		.loc 1 451 0
 470 0118 41F00802 		orr	r2, r1, #8
 471 011c ECE7     		b	.L40
 472              	.L51:
 473 011e 00BF     		.align	2
 474              	.L50:
 475 0120 00000000 		.word	.LANCHOR0
 476 0124 00000000 		.word	.LANCHOR1
 477 0128 00380240 		.word	1073887232
 478 012c 00BD0105 		.word	84000000
 479              		.cfi_endproc
 480              	.LFE122:
 481              		.size	pwm_lld_start, .-pwm_lld_start
 482              		.section	.text.pwm_lld_stop,"ax",%progbits
 483              		.align	2
 484              		.p2align 4,,15
 485              		.global	pwm_lld_stop
 486              		.thumb
 487              		.thumb_func
 488              		.type	pwm_lld_stop, %function
 489              	pwm_lld_stop:
 490              	.LFB123:
 491              		.loc 1 603 0
 492              		.cfi_startproc
 493              		@ args = 0, pretend = 0, frame = 0
 494              		@ frame_needed = 0, uses_anonymous_args = 0
 495              	.LVL22:
 496 0000 08B5     		push	{r3, lr}
 497              	.LCFI5:
 498              		.cfi_def_cfa_offset 8
 499              		.loc 1 606 0
 500 0002 0378     		ldrb	r3, [r0, #0]	@ zero_extendqisi2
 501              		.cfi_offset 14, -4
 502              		.cfi_offset 3, -8
ARM GAS  C:\Users\DNIEL~1\AppData\Local\Temp\cc3iwxtd.s 			page 10


 503 0004 022B     		cmp	r3, #2
 504 0006 00D0     		beq	.L55
 505              	.LVL23:
 506              	.L52:
 507 0008 08BD     		pop	{r3, pc}
 508              	.LVL24:
 509              	.L55:
 510              		.loc 1 634 0
 511 000a 0E49     		ldr	r1, .L57
 512              		.loc 1 607 0
 513 000c 0369     		ldr	r3, [r0, #16]
 514 000e 0022     		movs	r2, #0
 515              		.loc 1 634 0
 516 0010 8842     		cmp	r0, r1
 517              		.loc 1 607 0
 518 0012 1A60     		str	r2, [r3, #0]
 519              		.loc 1 608 0
 520 0014 DA60     		str	r2, [r3, #12]
 521              		.loc 1 609 0
 522 0016 1A61     		str	r2, [r3, #16]
 523              		.loc 1 634 0
 524 0018 0BD0     		beq	.L56
 525              		.loc 1 640 0
 526 001a 0B4B     		ldr	r3, .L57+4
 527 001c 9842     		cmp	r0, r3
 528 001e F3D1     		bne	.L52
 529              		.loc 1 641 0
 530 0020 3220     		movs	r0, #50
 531              	.LVL25:
 532 0022 FFF7FEFF 		bl	nvicDisableVector
 533              		.loc 1 642 0
 534 0026 0949     		ldr	r1, .L57+8
 535 0028 0A6C     		ldr	r2, [r1, #64]
 536 002a 22F00800 		bic	r0, r2, #8
 537 002e 0864     		str	r0, [r1, #64]
 538 0030 EAE7     		b	.L52
 539              	.LVL26:
 540              	.L56:
 541              		.loc 1 635 0
 542 0032 1E20     		movs	r0, #30
 543              	.LVL27:
 544 0034 FFF7FEFF 		bl	nvicDisableVector
 545              		.loc 1 636 0
 546 0038 0449     		ldr	r1, .L57+8
 547 003a 0A6C     		ldr	r2, [r1, #64]
 548 003c 22F00400 		bic	r0, r2, #4
 549 0040 0864     		str	r0, [r1, #64]
 550 0042 08BD     		pop	{r3, pc}
 551              	.L58:
 552              		.align	2
 553              	.L57:
 554 0044 00000000 		.word	.LANCHOR0
 555 0048 00000000 		.word	.LANCHOR1
 556 004c 00380240 		.word	1073887232
 557              		.cfi_endproc
 558              	.LFE123:
 559              		.size	pwm_lld_stop, .-pwm_lld_stop
ARM GAS  C:\Users\DNIEL~1\AppData\Local\Temp\cc3iwxtd.s 			page 11


 560              		.section	.text.pwm_lld_enable_channel,"ax",%progbits
 561              		.align	2
 562              		.p2align 4,,15
 563              		.global	pwm_lld_enable_channel
 564              		.thumb
 565              		.thumb_func
 566              		.type	pwm_lld_enable_channel, %function
 567              	pwm_lld_enable_channel:
 568              	.LFB124:
 569              		.loc 1 675 0
 570              		.cfi_startproc
 571              		@ args = 0, pretend = 0, frame = 0
 572              		@ frame_needed = 0, uses_anonymous_args = 0
 573              		@ link register save eliminated.
 574              	.LVL28:
 575 0000 10B4     		push	{r4}
 576              	.LCFI6:
 577              		.cfi_def_cfa_offset 4
 578              		.loc 1 680 0
 579 0002 4468     		ldr	r4, [r0, #4]
 580              		.cfi_offset 4, -4
 581              		.loc 1 677 0
 582 0004 0369     		ldr	r3, [r0, #16]
 583              		.loc 1 680 0
 584 0006 04EBC10C 		add	ip, r4, r1, lsl #3
 585              		.loc 1 677 0
 586 000a 01F10C04 		add	r4, r1, #12
 587 000e 03EB8404 		add	r4, r3, r4, lsl #2
 588              		.loc 1 680 0
 589 0012 DCF81000 		ldr	r0, [ip, #16]
 590              	.LVL29:
 591              		.loc 1 677 0
 592 0016 6260     		str	r2, [r4, #4]
 593              		.loc 1 680 0
 594 0018 50B1     		cbz	r0, .L59
 595              	.LBB2:
 596              		.loc 1 684 0
 597 001a 0220     		movs	r0, #2
 598              		.loc 1 681 0
 599 001c DA68     		ldr	r2, [r3, #12]
 600              	.LVL30:
 601              		.loc 1 684 0
 602 001e 10FA01F1 		lsls	r1, r0, r1
 603              	.LVL31:
 604 0022 1142     		tst	r1, r2
 605 0024 04D1     		bne	.L59
 606              		.loc 1 685 0
 607 0026 41EA0202 		orr	r2, r1, r2
 608              	.LVL32:
 609              		.loc 1 686 0
 610 002a C943     		mvns	r1, r1
 611              		.loc 1 685 0
 612 002c DA60     		str	r2, [r3, #12]
 613              		.loc 1 686 0
 614 002e 1961     		str	r1, [r3, #16]
 615              	.L59:
 616              	.LBE2:
ARM GAS  C:\Users\DNIEL~1\AppData\Local\Temp\cc3iwxtd.s 			page 12


 617              		.loc 1 689 0
 618 0030 10BC     		pop	{r4}
 619 0032 7047     		bx	lr
 620              		.cfi_endproc
 621              	.LFE124:
 622              		.size	pwm_lld_enable_channel, .-pwm_lld_enable_channel
 623 0034 AFF30080 		.section	.text.pwm_lld_disable_channel,"ax",%progbits
 623      AFF30080 
 623      AFF30080 
 624              		.align	2
 625              		.p2align 4,,15
 626              		.global	pwm_lld_disable_channel
 627              		.thumb
 628              		.thumb_func
 629              		.type	pwm_lld_disable_channel, %function
 630              	pwm_lld_disable_channel:
 631              	.LFB125:
 632              		.loc 1 703 0
 633              		.cfi_startproc
 634              		@ args = 0, pretend = 0, frame = 0
 635              		@ frame_needed = 0, uses_anonymous_args = 0
 636              		@ link register save eliminated.
 637              	.LVL33:
 638              		.loc 1 705 0
 639 0000 0369     		ldr	r3, [r0, #16]
 640 0002 01F10C02 		add	r2, r1, #12
 641 0006 03EB820C 		add	ip, r3, r2, lsl #2
 642 000a 0020     		movs	r0, #0
 643              	.LVL34:
 644 000c CCF80400 		str	r0, [ip, #4]
 645              		.loc 1 706 0
 646 0010 DA68     		ldr	r2, [r3, #12]
 647 0012 0220     		movs	r0, #2
 648 0014 8840     		lsls	r0, r0, r1
 649 0016 22EA0001 		bic	r1, r2, r0
 650              	.LVL35:
 651 001a D960     		str	r1, [r3, #12]
 652              		.loc 1 707 0
 653 001c 7047     		bx	lr
 654              		.cfi_endproc
 655              	.LFE125:
 656              		.size	pwm_lld_disable_channel, .-pwm_lld_disable_channel
 657              		.global	PWMD4
 658              		.global	PWMD5
 659 001e 00BF     		.section	.bss.PWMD4,"aw",%nobits
 660              		.align	2
 661              		.set	.LANCHOR0,. + 0
 662              		.type	PWMD4, %object
 663              		.size	PWMD4, 20
 664              	PWMD4:
 665 0000 00000000 		.space	20
 665      00000000 
 665      00000000 
 665      00000000 
 665      00000000 
 666              		.section	.bss.PWMD5,"aw",%nobits
 667              		.align	2
ARM GAS  C:\Users\DNIEL~1\AppData\Local\Temp\cc3iwxtd.s 			page 13


 668              		.set	.LANCHOR1,. + 0
 669              		.type	PWMD5, %object
 670              		.size	PWMD5, 20
 671              	PWMD5:
 672 0000 00000000 		.space	20
 672      00000000 
 672      00000000 
 672      00000000 
 672      00000000 
 673              		.text
 674              	.Letext0:
 675              		.section	.debug_loc,"",%progbits
 676              	.Ldebug_loc0:
 677              	.LLST0:
 678 0000 00000000 		.4byte	.LFB118
 679 0004 02000000 		.4byte	.LCFI0
 680 0008 0200     		.2byte	0x2
 681 000a 7D       		.byte	0x7d
 682 000b 00       		.sleb128 0
 683 000c 02000000 		.4byte	.LCFI0
 684 0010 62000000 		.4byte	.LFE118
 685 0014 0200     		.2byte	0x2
 686 0016 7D       		.byte	0x7d
 687 0017 10       		.sleb128 16
 688 0018 00000000 		.4byte	0x0
 689 001c 00000000 		.4byte	0x0
 690              	.LLST1:
 691 0020 00000000 		.4byte	.LVL0
 692 0024 1A000000 		.4byte	.LVL3
 693 0028 0100     		.2byte	0x1
 694 002a 50       		.byte	0x50
 695 002b 1A000000 		.4byte	.LVL3
 696 002f 62000000 		.4byte	.LFE118
 697 0033 0100     		.2byte	0x1
 698 0035 55       		.byte	0x55
 699 0036 00000000 		.4byte	0x0
 700 003a 00000000 		.4byte	0x0
 701              	.LLST2:
 702 003e 06000000 		.4byte	.LVL1
 703 0042 0E000000 		.4byte	.LVL2
 704 0046 0100     		.2byte	0x1
 705 0048 51       		.byte	0x51
 706 0049 00000000 		.4byte	0x0
 707 004d 00000000 		.4byte	0x0
 708              	.LLST3:
 709 0051 00000000 		.4byte	.LFB119
 710 0055 02000000 		.4byte	.LCFI1
 711 0059 0200     		.2byte	0x2
 712 005b 7D       		.byte	0x7d
 713 005c 00       		.sleb128 0
 714 005d 02000000 		.4byte	.LCFI1
 715 0061 14000000 		.4byte	.LFE119
 716 0065 0200     		.2byte	0x2
 717 0067 7D       		.byte	0x7d
 718 0068 08       		.sleb128 8
 719 0069 00000000 		.4byte	0x0
 720 006d 00000000 		.4byte	0x0
ARM GAS  C:\Users\DNIEL~1\AppData\Local\Temp\cc3iwxtd.s 			page 14


 721              	.LLST4:
 722 0071 00000000 		.4byte	.LFB120
 723 0075 02000000 		.4byte	.LCFI2
 724 0079 0200     		.2byte	0x2
 725 007b 7D       		.byte	0x7d
 726 007c 00       		.sleb128 0
 727 007d 02000000 		.4byte	.LCFI2
 728 0081 14000000 		.4byte	.LFE120
 729 0085 0200     		.2byte	0x2
 730 0087 7D       		.byte	0x7d
 731 0088 08       		.sleb128 8
 732 0089 00000000 		.4byte	0x0
 733 008d 00000000 		.4byte	0x0
 734              	.LLST5:
 735 0091 00000000 		.4byte	.LFB121
 736 0095 02000000 		.4byte	.LCFI3
 737 0099 0200     		.2byte	0x2
 738 009b 7D       		.byte	0x7d
 739 009c 00       		.sleb128 0
 740 009d 02000000 		.4byte	.LCFI3
 741 00a1 2C000000 		.4byte	.LFE121
 742 00a5 0200     		.2byte	0x2
 743 00a7 7D       		.byte	0x7d
 744 00a8 10       		.sleb128 16
 745 00a9 00000000 		.4byte	0x0
 746 00ad 00000000 		.4byte	0x0
 747              	.LLST6:
 748 00b1 00000000 		.4byte	.LFB122
 749 00b5 06000000 		.4byte	.LCFI4
 750 00b9 0200     		.2byte	0x2
 751 00bb 7D       		.byte	0x7d
 752 00bc 00       		.sleb128 0
 753 00bd 06000000 		.4byte	.LCFI4
 754 00c1 30010000 		.4byte	.LFE122
 755 00c5 0200     		.2byte	0x2
 756 00c7 7D       		.byte	0x7d
 757 00c8 10       		.sleb128 16
 758 00c9 00000000 		.4byte	0x0
 759 00cd 00000000 		.4byte	0x0
 760              	.LLST7:
 761 00d1 00000000 		.4byte	.LVL4
 762 00d5 1A000000 		.4byte	.LVL5
 763 00d9 0100     		.2byte	0x1
 764 00db 50       		.byte	0x50
 765 00dc 1A000000 		.4byte	.LVL5
 766 00e0 22000000 		.4byte	.LVL6
 767 00e4 0100     		.2byte	0x1
 768 00e6 54       		.byte	0x54
 769 00e7 CE000000 		.4byte	.LVL20
 770 00eb DA000000 		.4byte	.LVL21
 771 00ef 0100     		.2byte	0x1
 772 00f1 50       		.byte	0x50
 773 00f2 DA000000 		.4byte	.LVL21
 774 00f6 30010000 		.4byte	.LFE122
 775 00fa 0100     		.2byte	0x1
 776 00fc 54       		.byte	0x54
 777 00fd 00000000 		.4byte	0x0
ARM GAS  C:\Users\DNIEL~1\AppData\Local\Temp\cc3iwxtd.s 			page 15


 778 0101 00000000 		.4byte	0x0
 779              	.LLST8:
 780 0105 3E000000 		.4byte	.LVL7
 781 0109 48000000 		.4byte	.LVL8
 782 010d 0200     		.2byte	0x2
 783 010f 30       		.byte	0x30
 784 0110 9F       		.byte	0x9f
 785 0111 48000000 		.4byte	.LVL8
 786 0115 86000000 		.4byte	.LVL10
 787 0119 0100     		.2byte	0x1
 788 011b 51       		.byte	0x51
 789 011c 86000000 		.4byte	.LVL10
 790 0120 94000000 		.4byte	.LVL11
 791 0124 0200     		.2byte	0x2
 792 0126 73       		.byte	0x73
 793 0127 20       		.sleb128 32
 794 0128 94000000 		.4byte	.LVL11
 795 012c 98000000 		.4byte	.LVL12
 796 0130 0100     		.2byte	0x1
 797 0132 51       		.byte	0x51
 798 0133 98000000 		.4byte	.LVL12
 799 0137 A4000000 		.4byte	.LVL13
 800 013b 0100     		.2byte	0x1
 801 013d 51       		.byte	0x51
 802 013e A4000000 		.4byte	.LVL13
 803 0142 AA000000 		.4byte	.LVL14
 804 0146 0100     		.2byte	0x1
 805 0148 51       		.byte	0x51
 806 0149 AA000000 		.4byte	.LVL14
 807 014d B8000000 		.4byte	.LVL15
 808 0151 0100     		.2byte	0x1
 809 0153 51       		.byte	0x51
 810 0154 B8000000 		.4byte	.LVL15
 811 0158 BE000000 		.4byte	.LVL16
 812 015c 0100     		.2byte	0x1
 813 015e 51       		.byte	0x51
 814 015f BE000000 		.4byte	.LVL16
 815 0163 C2000000 		.4byte	.LVL17
 816 0167 0100     		.2byte	0x1
 817 0169 51       		.byte	0x51
 818 016a C2000000 		.4byte	.LVL17
 819 016e C8000000 		.4byte	.LVL18
 820 0172 0100     		.2byte	0x1
 821 0174 51       		.byte	0x51
 822 0175 C8000000 		.4byte	.LVL18
 823 0179 CC000000 		.4byte	.LVL19
 824 017d 0100     		.2byte	0x1
 825 017f 51       		.byte	0x51
 826 0180 CC000000 		.4byte	.LVL19
 827 0184 CE000000 		.4byte	.LVL20
 828 0188 0100     		.2byte	0x1
 829 018a 51       		.byte	0x51
 830 018b 00000000 		.4byte	0x0
 831 018f 00000000 		.4byte	0x0
 832              	.LLST9:
 833 0193 00000000 		.4byte	.LFB123
 834 0197 02000000 		.4byte	.LCFI5
ARM GAS  C:\Users\DNIEL~1\AppData\Local\Temp\cc3iwxtd.s 			page 16


 835 019b 0200     		.2byte	0x2
 836 019d 7D       		.byte	0x7d
 837 019e 00       		.sleb128 0
 838 019f 02000000 		.4byte	.LCFI5
 839 01a3 50000000 		.4byte	.LFE123
 840 01a7 0200     		.2byte	0x2
 841 01a9 7D       		.byte	0x7d
 842 01aa 08       		.sleb128 8
 843 01ab 00000000 		.4byte	0x0
 844 01af 00000000 		.4byte	0x0
 845              	.LLST10:
 846 01b3 00000000 		.4byte	.LVL22
 847 01b7 08000000 		.4byte	.LVL23
 848 01bb 0100     		.2byte	0x1
 849 01bd 50       		.byte	0x50
 850 01be 0A000000 		.4byte	.LVL24
 851 01c2 22000000 		.4byte	.LVL25
 852 01c6 0100     		.2byte	0x1
 853 01c8 50       		.byte	0x50
 854 01c9 32000000 		.4byte	.LVL26
 855 01cd 34000000 		.4byte	.LVL27
 856 01d1 0100     		.2byte	0x1
 857 01d3 50       		.byte	0x50
 858 01d4 00000000 		.4byte	0x0
 859 01d8 00000000 		.4byte	0x0
 860              	.LLST11:
 861 01dc 00000000 		.4byte	.LFB124
 862 01e0 02000000 		.4byte	.LCFI6
 863 01e4 0200     		.2byte	0x2
 864 01e6 7D       		.byte	0x7d
 865 01e7 00       		.sleb128 0
 866 01e8 02000000 		.4byte	.LCFI6
 867 01ec 34000000 		.4byte	.LFE124
 868 01f0 0200     		.2byte	0x2
 869 01f2 7D       		.byte	0x7d
 870 01f3 04       		.sleb128 4
 871 01f4 00000000 		.4byte	0x0
 872 01f8 00000000 		.4byte	0x0
 873              	.LLST12:
 874 01fc 00000000 		.4byte	.LVL28
 875 0200 16000000 		.4byte	.LVL29
 876 0204 0100     		.2byte	0x1
 877 0206 50       		.byte	0x50
 878 0207 00000000 		.4byte	0x0
 879 020b 00000000 		.4byte	0x0
 880              	.LLST13:
 881 020f 00000000 		.4byte	.LVL28
 882 0213 22000000 		.4byte	.LVL31
 883 0217 0100     		.2byte	0x1
 884 0219 51       		.byte	0x51
 885 021a 00000000 		.4byte	0x0
 886 021e 00000000 		.4byte	0x0
 887              	.LLST14:
 888 0222 00000000 		.4byte	.LVL28
 889 0226 1E000000 		.4byte	.LVL30
 890 022a 0100     		.2byte	0x1
 891 022c 52       		.byte	0x52
ARM GAS  C:\Users\DNIEL~1\AppData\Local\Temp\cc3iwxtd.s 			page 17


 892 022d 00000000 		.4byte	0x0
 893 0231 00000000 		.4byte	0x0
 894              	.LLST15:
 895 0235 1E000000 		.4byte	.LVL30
 896 0239 2A000000 		.4byte	.LVL32
 897 023d 0100     		.2byte	0x1
 898 023f 52       		.byte	0x52
 899 0240 00000000 		.4byte	0x0
 900 0244 00000000 		.4byte	0x0
 901              	.LLST16:
 902 0248 00000000 		.4byte	.LVL33
 903 024c 0C000000 		.4byte	.LVL34
 904 0250 0100     		.2byte	0x1
 905 0252 50       		.byte	0x50
 906 0253 00000000 		.4byte	0x0
 907 0257 00000000 		.4byte	0x0
 908              	.LLST17:
 909 025b 00000000 		.4byte	.LVL33
 910 025f 1A000000 		.4byte	.LVL35
 911 0263 0100     		.2byte	0x1
 912 0265 51       		.byte	0x51
 913 0266 00000000 		.4byte	0x0
 914 026a 00000000 		.4byte	0x0
 915              		.file 2 "c:\\program files (x86)\\codesourcery\\sourcery g++ lite\\bin\\../lib/gcc/arm-none-eabi/4
 916              		.file 3 "../../../ChibiOS/os/hal/platforms/STM32F4xx/stm32f4xx.h"
 917              		.file 4 "../../../ChibiOS/os/hal/platforms/STM32/TIMv1/stm32_tim.h"
 918              		.file 5 "../../../ChibiOS/os/hal/include/pwm.h"
 919              		.file 6 "../../../ChibiOS/os/hal/platforms/STM32/TIMv1/pwm_lld.h"
 920              		.file 7 "../../../ChibiOS/os/ports/common/ARMCMx/CMSIS/include/core_cm4.h"
 921              		.section	.debug_info
 922 0000 96070000 		.4byte	0x796
 923 0004 0200     		.2byte	0x2
 924 0006 00000000 		.4byte	.Ldebug_abbrev0
 925 000a 04       		.byte	0x4
 926 000b 01       		.uleb128 0x1
 927 000c F8020000 		.4byte	.LASF90
 928 0010 01       		.byte	0x1
 929 0011 58030000 		.4byte	.LASF91
 930 0015 A2000000 		.4byte	.LASF92
 931 0019 00000000 		.4byte	0x0
 932 001d 00000000 		.4byte	0x0
 933 0021 00000000 		.4byte	.Ldebug_ranges0+0x0
 934 0025 00000000 		.4byte	.Ldebug_line0
 935 0029 02       		.uleb128 0x2
 936 002a 04       		.byte	0x4
 937 002b 05       		.byte	0x5
 938 002c 696E7400 		.ascii	"int\000"
 939 0030 03       		.uleb128 0x3
 940 0031 04       		.byte	0x4
 941 0032 07       		.byte	0x7
 942 0033 03020000 		.4byte	.LASF0
 943 0037 03       		.uleb128 0x3
 944 0038 01       		.byte	0x1
 945 0039 06       		.byte	0x6
 946 003a E0010000 		.4byte	.LASF1
 947 003e 04       		.uleb128 0x4
 948 003f F1000000 		.4byte	.LASF4
ARM GAS  C:\Users\DNIEL~1\AppData\Local\Temp\cc3iwxtd.s 			page 18


 949 0043 02       		.byte	0x2
 950 0044 2A       		.byte	0x2a
 951 0045 49000000 		.4byte	0x49
 952 0049 03       		.uleb128 0x3
 953 004a 01       		.byte	0x1
 954 004b 08       		.byte	0x8
 955 004c B3010000 		.4byte	.LASF2
 956 0050 03       		.uleb128 0x3
 957 0051 02       		.byte	0x2
 958 0052 05       		.byte	0x5
 959 0053 43000000 		.4byte	.LASF3
 960 0057 04       		.uleb128 0x4
 961 0058 19020000 		.4byte	.LASF5
 962 005c 02       		.byte	0x2
 963 005d 36       		.byte	0x36
 964 005e 62000000 		.4byte	0x62
 965 0062 03       		.uleb128 0x3
 966 0063 02       		.byte	0x2
 967 0064 07       		.byte	0x7
 968 0065 41020000 		.4byte	.LASF6
 969 0069 04       		.uleb128 0x4
 970 006a 86020000 		.4byte	.LASF7
 971 006e 02       		.byte	0x2
 972 006f 4F       		.byte	0x4f
 973 0070 74000000 		.4byte	0x74
 974 0074 03       		.uleb128 0x3
 975 0075 04       		.byte	0x4
 976 0076 05       		.byte	0x5
 977 0077 3C010000 		.4byte	.LASF8
 978 007b 04       		.uleb128 0x4
 979 007c 0A010000 		.4byte	.LASF9
 980 0080 02       		.byte	0x2
 981 0081 50       		.byte	0x50
 982 0082 86000000 		.4byte	0x86
 983 0086 03       		.uleb128 0x3
 984 0087 04       		.byte	0x4
 985 0088 07       		.byte	0x7
 986 0089 4F010000 		.4byte	.LASF10
 987 008d 03       		.uleb128 0x3
 988 008e 08       		.byte	0x8
 989 008f 05       		.byte	0x5
 990 0090 2E010000 		.4byte	.LASF11
 991 0094 03       		.uleb128 0x3
 992 0095 08       		.byte	0x8
 993 0096 07       		.byte	0x7
 994 0097 EC010000 		.4byte	.LASF12
 995 009b 03       		.uleb128 0x3
 996 009c 01       		.byte	0x1
 997 009d 02       		.byte	0x2
 998 009e 8E020000 		.4byte	.LASF13
 999 00a2 05       		.uleb128 0x5
 1000 00a3 7B000000 		.4byte	0x7b
 1001 00a7 03       		.uleb128 0x3
 1002 00a8 01       		.byte	0x1
 1003 00a9 08       		.byte	0x8
 1004 00aa 6B020000 		.4byte	.LASF14
 1005 00ae 06       		.uleb128 0x6
ARM GAS  C:\Users\DNIEL~1\AppData\Local\Temp\cc3iwxtd.s 			page 19


 1006 00af 7B000000 		.4byte	0x7b
 1007 00b3 BE000000 		.4byte	0xbe
 1008 00b7 07       		.uleb128 0x7
 1009 00b8 30000000 		.4byte	0x30
 1010 00bc 01       		.byte	0x1
 1011 00bd 00       		.byte	0x0
 1012 00be 06       		.uleb128 0x6
 1013 00bf 7B000000 		.4byte	0x7b
 1014 00c3 CE000000 		.4byte	0xce
 1015 00c7 07       		.uleb128 0x7
 1016 00c8 30000000 		.4byte	0x30
 1017 00cc 03       		.byte	0x3
 1018 00cd 00       		.byte	0x0
 1019 00ce 05       		.uleb128 0x5
 1020 00cf 69000000 		.4byte	0x69
 1021 00d3 08       		.uleb128 0x8
 1022 00d4 90       		.byte	0x90
 1023 00d5 03       		.byte	0x3
 1024 00d6 5804     		.2byte	0x458
 1025 00d8 C0020000 		.4byte	0x2c0
 1026 00dc 09       		.uleb128 0x9
 1027 00dd 435200   		.ascii	"CR\000"
 1028 00e0 03       		.byte	0x3
 1029 00e1 5A04     		.2byte	0x45a
 1030 00e3 A2000000 		.4byte	0xa2
 1031 00e7 02       		.byte	0x2
 1032 00e8 23       		.byte	0x23
 1033 00e9 00       		.uleb128 0x0
 1034 00ea 0A       		.uleb128 0xa
 1035 00eb 39020000 		.4byte	.LASF15
 1036 00ef 03       		.byte	0x3
 1037 00f0 5B04     		.2byte	0x45b
 1038 00f2 A2000000 		.4byte	0xa2
 1039 00f6 02       		.byte	0x2
 1040 00f7 23       		.byte	0x23
 1041 00f8 04       		.uleb128 0x4
 1042 00f9 0A       		.uleb128 0xa
 1043 00fa EC000000 		.4byte	.LASF16
 1044 00fe 03       		.byte	0x3
 1045 00ff 5C04     		.2byte	0x45c
 1046 0101 A2000000 		.4byte	0xa2
 1047 0105 02       		.byte	0x2
 1048 0106 23       		.byte	0x23
 1049 0107 08       		.uleb128 0x8
 1050 0108 09       		.uleb128 0x9
 1051 0109 43495200 		.ascii	"CIR\000"
 1052 010d 03       		.byte	0x3
 1053 010e 5D04     		.2byte	0x45d
 1054 0110 A2000000 		.4byte	0xa2
 1055 0114 02       		.byte	0x2
 1056 0115 23       		.byte	0x23
 1057 0116 0C       		.uleb128 0xc
 1058 0117 0A       		.uleb128 0xa
 1059 0118 01010000 		.4byte	.LASF17
 1060 011c 03       		.byte	0x3
 1061 011d 5E04     		.2byte	0x45e
 1062 011f A2000000 		.4byte	0xa2
ARM GAS  C:\Users\DNIEL~1\AppData\Local\Temp\cc3iwxtd.s 			page 20


 1063 0123 02       		.byte	0x2
 1064 0124 23       		.byte	0x23
 1065 0125 10       		.uleb128 0x10
 1066 0126 0A       		.uleb128 0xa
 1067 0127 10020000 		.4byte	.LASF18
 1068 012b 03       		.byte	0x3
 1069 012c 5F04     		.2byte	0x45f
 1070 012e A2000000 		.4byte	0xa2
 1071 0132 02       		.byte	0x2
 1072 0133 23       		.byte	0x23
 1073 0134 14       		.uleb128 0x14
 1074 0135 0A       		.uleb128 0xa
 1075 0136 90030000 		.4byte	.LASF19
 1076 013a 03       		.byte	0x3
 1077 013b 6004     		.2byte	0x460
 1078 013d A2000000 		.4byte	0xa2
 1079 0141 02       		.byte	0x2
 1080 0142 23       		.byte	0x23
 1081 0143 18       		.uleb128 0x18
 1082 0144 0A       		.uleb128 0xa
 1083 0145 AC020000 		.4byte	.LASF20
 1084 0149 03       		.byte	0x3
 1085 014a 6104     		.2byte	0x461
 1086 014c 7B000000 		.4byte	0x7b
 1087 0150 02       		.byte	0x2
 1088 0151 23       		.byte	0x23
 1089 0152 1C       		.uleb128 0x1c
 1090 0153 0A       		.uleb128 0xa
 1091 0154 1B000000 		.4byte	.LASF21
 1092 0158 03       		.byte	0x3
 1093 0159 6204     		.2byte	0x462
 1094 015b A2000000 		.4byte	0xa2
 1095 015f 02       		.byte	0x2
 1096 0160 23       		.byte	0x23
 1097 0161 20       		.uleb128 0x20
 1098 0162 0A       		.uleb128 0xa
 1099 0163 68010000 		.4byte	.LASF22
 1100 0167 03       		.byte	0x3
 1101 0168 6304     		.2byte	0x463
 1102 016a A2000000 		.4byte	0xa2
 1103 016e 02       		.byte	0x2
 1104 016f 23       		.byte	0x23
 1105 0170 24       		.uleb128 0x24
 1106 0171 0A       		.uleb128 0xa
 1107 0172 B6020000 		.4byte	.LASF23
 1108 0176 03       		.byte	0x3
 1109 0177 6404     		.2byte	0x464
 1110 0179 AE000000 		.4byte	0xae
 1111 017d 02       		.byte	0x2
 1112 017e 23       		.byte	0x23
 1113 017f 28       		.uleb128 0x28
 1114 0180 0A       		.uleb128 0xa
 1115 0181 95000000 		.4byte	.LASF24
 1116 0185 03       		.byte	0x3
 1117 0186 6504     		.2byte	0x465
 1118 0188 A2000000 		.4byte	0xa2
 1119 018c 02       		.byte	0x2
ARM GAS  C:\Users\DNIEL~1\AppData\Local\Temp\cc3iwxtd.s 			page 21


 1120 018d 23       		.byte	0x23
 1121 018e 30       		.uleb128 0x30
 1122 018f 0A       		.uleb128 0xa
 1123 0190 24000000 		.4byte	.LASF25
 1124 0194 03       		.byte	0x3
 1125 0195 6604     		.2byte	0x466
 1126 0197 A2000000 		.4byte	0xa2
 1127 019b 02       		.byte	0x2
 1128 019c 23       		.byte	0x23
 1129 019d 34       		.uleb128 0x34
 1130 019e 0A       		.uleb128 0xa
 1131 019f 26010000 		.4byte	.LASF26
 1132 01a3 03       		.byte	0x3
 1133 01a4 6704     		.2byte	0x467
 1134 01a6 A2000000 		.4byte	0xa2
 1135 01aa 02       		.byte	0x2
 1136 01ab 23       		.byte	0x23
 1137 01ac 38       		.uleb128 0x38
 1138 01ad 0A       		.uleb128 0xa
 1139 01ae C0020000 		.4byte	.LASF27
 1140 01b2 03       		.byte	0x3
 1141 01b3 6804     		.2byte	0x468
 1142 01b5 7B000000 		.4byte	0x7b
 1143 01b9 02       		.byte	0x2
 1144 01ba 23       		.byte	0x23
 1145 01bb 3C       		.uleb128 0x3c
 1146 01bc 0A       		.uleb128 0xa
 1147 01bd F9000000 		.4byte	.LASF28
 1148 01c1 03       		.byte	0x3
 1149 01c2 6904     		.2byte	0x469
 1150 01c4 A2000000 		.4byte	0xa2
 1151 01c8 02       		.byte	0x2
 1152 01c9 23       		.byte	0x23
 1153 01ca 40       		.uleb128 0x40
 1154 01cb 0A       		.uleb128 0xa
 1155 01cc D8010000 		.4byte	.LASF29
 1156 01d0 03       		.byte	0x3
 1157 01d1 6A04     		.2byte	0x46a
 1158 01d3 A2000000 		.4byte	0xa2
 1159 01d7 02       		.byte	0x2
 1160 01d8 23       		.byte	0x23
 1161 01d9 44       		.uleb128 0x44
 1162 01da 0A       		.uleb128 0xa
 1163 01db CA020000 		.4byte	.LASF30
 1164 01df 03       		.byte	0x3
 1165 01e0 6B04     		.2byte	0x46b
 1166 01e2 AE000000 		.4byte	0xae
 1167 01e6 02       		.byte	0x2
 1168 01e7 23       		.byte	0x23
 1169 01e8 48       		.uleb128 0x48
 1170 01e9 0A       		.uleb128 0xa
 1171 01ea 00000000 		.4byte	.LASF31
 1172 01ee 03       		.byte	0x3
 1173 01ef 6C04     		.2byte	0x46c
 1174 01f1 A2000000 		.4byte	0xa2
 1175 01f5 02       		.byte	0x2
 1176 01f6 23       		.byte	0x23
ARM GAS  C:\Users\DNIEL~1\AppData\Local\Temp\cc3iwxtd.s 			page 22


 1177 01f7 50       		.uleb128 0x50
 1178 01f8 0A       		.uleb128 0xa
 1179 01f9 9C020000 		.4byte	.LASF32
 1180 01fd 03       		.byte	0x3
 1181 01fe 6D04     		.2byte	0x46d
 1182 0200 A2000000 		.4byte	0xa2
 1183 0204 02       		.byte	0x2
 1184 0205 23       		.byte	0x23
 1185 0206 54       		.uleb128 0x54
 1186 0207 0A       		.uleb128 0xa
 1187 0208 DB000000 		.4byte	.LASF33
 1188 020c 03       		.byte	0x3
 1189 020d 6E04     		.2byte	0x46e
 1190 020f A2000000 		.4byte	0xa2
 1191 0213 02       		.byte	0x2
 1192 0214 23       		.byte	0x23
 1193 0215 58       		.uleb128 0x58
 1194 0216 0A       		.uleb128 0xa
 1195 0217 D4020000 		.4byte	.LASF34
 1196 021b 03       		.byte	0x3
 1197 021c 6F04     		.2byte	0x46f
 1198 021e 7B000000 		.4byte	0x7b
 1199 0222 02       		.byte	0x2
 1200 0223 23       		.byte	0x23
 1201 0224 5C       		.uleb128 0x5c
 1202 0225 0A       		.uleb128 0xa
 1203 0226 54020000 		.4byte	.LASF35
 1204 022a 03       		.byte	0x3
 1205 022b 7004     		.2byte	0x470
 1206 022d A2000000 		.4byte	0xa2
 1207 0231 02       		.byte	0x2
 1208 0232 23       		.byte	0x23
 1209 0233 60       		.uleb128 0x60
 1210 0234 0A       		.uleb128 0xa
 1211 0235 D4030000 		.4byte	.LASF36
 1212 0239 03       		.byte	0x3
 1213 023a 7104     		.2byte	0x471
 1214 023c A2000000 		.4byte	0xa2
 1215 0240 02       		.byte	0x2
 1216 0241 23       		.byte	0x23
 1217 0242 64       		.uleb128 0x64
 1218 0243 0A       		.uleb128 0xa
 1219 0244 DE020000 		.4byte	.LASF37
 1220 0248 03       		.byte	0x3
 1221 0249 7204     		.2byte	0x472
 1222 024b AE000000 		.4byte	0xae
 1223 024f 02       		.byte	0x2
 1224 0250 23       		.byte	0x23
 1225 0251 68       		.uleb128 0x68
 1226 0252 0A       		.uleb128 0xa
 1227 0253 56000000 		.4byte	.LASF38
 1228 0257 03       		.byte	0x3
 1229 0258 7304     		.2byte	0x473
 1230 025a A2000000 		.4byte	0xa2
 1231 025e 02       		.byte	0x2
 1232 025f 23       		.byte	0x23
 1233 0260 70       		.uleb128 0x70
ARM GAS  C:\Users\DNIEL~1\AppData\Local\Temp\cc3iwxtd.s 			page 23


 1234 0261 09       		.uleb128 0x9
 1235 0262 43535200 		.ascii	"CSR\000"
 1236 0266 03       		.byte	0x3
 1237 0267 7404     		.2byte	0x474
 1238 0269 A2000000 		.4byte	0xa2
 1239 026d 02       		.byte	0x2
 1240 026e 23       		.byte	0x23
 1241 026f 74       		.uleb128 0x74
 1242 0270 0A       		.uleb128 0xa
 1243 0271 E8020000 		.4byte	.LASF39
 1244 0275 03       		.byte	0x3
 1245 0276 7504     		.2byte	0x475
 1246 0278 AE000000 		.4byte	0xae
 1247 027c 02       		.byte	0x2
 1248 027d 23       		.byte	0x23
 1249 027e 78       		.uleb128 0x78
 1250 027f 0A       		.uleb128 0xa
 1251 0280 D5000000 		.4byte	.LASF40
 1252 0284 03       		.byte	0x3
 1253 0285 7604     		.2byte	0x476
 1254 0287 A2000000 		.4byte	0xa2
 1255 028b 03       		.byte	0x3
 1256 028c 23       		.byte	0x23
 1257 028d 8001     		.uleb128 0x80
 1258 028f 0A       		.uleb128 0xa
 1259 0290 5B000000 		.4byte	.LASF41
 1260 0294 03       		.byte	0x3
 1261 0295 7704     		.2byte	0x477
 1262 0297 A2000000 		.4byte	0xa2
 1263 029b 03       		.byte	0x3
 1264 029c 23       		.byte	0x23
 1265 029d 8401     		.uleb128 0x84
 1266 029f 0A       		.uleb128 0xa
 1267 02a0 B0030000 		.4byte	.LASF42
 1268 02a4 03       		.byte	0x3
 1269 02a5 7804     		.2byte	0x478
 1270 02a7 A2000000 		.4byte	0xa2
 1271 02ab 03       		.byte	0x3
 1272 02ac 23       		.byte	0x23
 1273 02ad 8801     		.uleb128 0x88
 1274 02af 0A       		.uleb128 0xa
 1275 02b0 18010000 		.4byte	.LASF43
 1276 02b4 03       		.byte	0x3
 1277 02b5 7904     		.2byte	0x479
 1278 02b7 A2000000 		.4byte	0xa2
 1279 02bb 03       		.byte	0x3
 1280 02bc 23       		.byte	0x23
 1281 02bd 8C01     		.uleb128 0x8c
 1282 02bf 00       		.byte	0x0
 1283 02c0 0B       		.uleb128 0xb
 1284 02c1 0F000000 		.4byte	.LASF44
 1285 02c5 03       		.byte	0x3
 1286 02c6 7B04     		.2byte	0x47b
 1287 02c8 D3000000 		.4byte	0xd3
 1288 02cc 08       		.uleb128 0x8
 1289 02cd 60       		.byte	0x60
 1290 02ce 04       		.byte	0x4
ARM GAS  C:\Users\DNIEL~1\AppData\Local\Temp\cc3iwxtd.s 			page 24


 1291 02cf 9E01     		.2byte	0x19e
 1292 02d1 0F040000 		.4byte	0x40f
 1293 02d5 09       		.uleb128 0x9
 1294 02d6 43523100 		.ascii	"CR1\000"
 1295 02da 04       		.byte	0x4
 1296 02db 9F01     		.2byte	0x19f
 1297 02dd A2000000 		.4byte	0xa2
 1298 02e1 02       		.byte	0x2
 1299 02e2 23       		.byte	0x23
 1300 02e3 00       		.uleb128 0x0
 1301 02e4 09       		.uleb128 0x9
 1302 02e5 43523200 		.ascii	"CR2\000"
 1303 02e9 04       		.byte	0x4
 1304 02ea A001     		.2byte	0x1a0
 1305 02ec A2000000 		.4byte	0xa2
 1306 02f0 02       		.byte	0x2
 1307 02f1 23       		.byte	0x23
 1308 02f2 04       		.uleb128 0x4
 1309 02f3 0A       		.uleb128 0xa
 1310 02f4 A3010000 		.4byte	.LASF45
 1311 02f8 04       		.byte	0x4
 1312 02f9 A101     		.2byte	0x1a1
 1313 02fb A2000000 		.4byte	0xa2
 1314 02ff 02       		.byte	0x2
 1315 0300 23       		.byte	0x23
 1316 0301 08       		.uleb128 0x8
 1317 0302 0A       		.uleb128 0xa
 1318 0303 34020000 		.4byte	.LASF46
 1319 0307 04       		.byte	0x4
 1320 0308 A201     		.2byte	0x1a2
 1321 030a A2000000 		.4byte	0xa2
 1322 030e 02       		.byte	0x2
 1323 030f 23       		.byte	0x23
 1324 0310 0C       		.uleb128 0xc
 1325 0311 09       		.uleb128 0x9
 1326 0312 535200   		.ascii	"SR\000"
 1327 0315 04       		.byte	0x4
 1328 0316 A301     		.2byte	0x1a3
 1329 0318 A2000000 		.4byte	0xa2
 1330 031c 02       		.byte	0x2
 1331 031d 23       		.byte	0x23
 1332 031e 10       		.uleb128 0x10
 1333 031f 09       		.uleb128 0x9
 1334 0320 45475200 		.ascii	"EGR\000"
 1335 0324 04       		.byte	0x4
 1336 0325 A401     		.2byte	0x1a4
 1337 0327 A2000000 		.4byte	0xa2
 1338 032b 02       		.byte	0x2
 1339 032c 23       		.byte	0x23
 1340 032d 14       		.uleb128 0x14
 1341 032e 0A       		.uleb128 0xa
 1342 032f 71010000 		.4byte	.LASF47
 1343 0333 04       		.byte	0x4
 1344 0334 A501     		.2byte	0x1a5
 1345 0336 A2000000 		.4byte	0xa2
 1346 033a 02       		.byte	0x2
 1347 033b 23       		.byte	0x23
ARM GAS  C:\Users\DNIEL~1\AppData\Local\Temp\cc3iwxtd.s 			page 25


 1348 033c 18       		.uleb128 0x18
 1349 033d 0A       		.uleb128 0xa
 1350 033e 37000000 		.4byte	.LASF48
 1351 0342 04       		.byte	0x4
 1352 0343 A601     		.2byte	0x1a6
 1353 0345 A2000000 		.4byte	0xa2
 1354 0349 02       		.byte	0x2
 1355 034a 23       		.byte	0x23
 1356 034b 1C       		.uleb128 0x1c
 1357 034c 0A       		.uleb128 0xa
 1358 034d 0A000000 		.4byte	.LASF49
 1359 0351 04       		.byte	0x4
 1360 0352 A701     		.2byte	0x1a7
 1361 0354 A2000000 		.4byte	0xa2
 1362 0358 02       		.byte	0x2
 1363 0359 23       		.byte	0x23
 1364 035a 20       		.uleb128 0x20
 1365 035b 09       		.uleb128 0x9
 1366 035c 434E5400 		.ascii	"CNT\000"
 1367 0360 04       		.byte	0x4
 1368 0361 A801     		.2byte	0x1a8
 1369 0363 A2000000 		.4byte	0xa2
 1370 0367 02       		.byte	0x2
 1371 0368 23       		.byte	0x23
 1372 0369 24       		.uleb128 0x24
 1373 036a 09       		.uleb128 0x9
 1374 036b 50534300 		.ascii	"PSC\000"
 1375 036f 04       		.byte	0x4
 1376 0370 A901     		.2byte	0x1a9
 1377 0372 A2000000 		.4byte	0xa2
 1378 0376 02       		.byte	0x2
 1379 0377 23       		.byte	0x23
 1380 0378 28       		.uleb128 0x28
 1381 0379 09       		.uleb128 0x9
 1382 037a 41525200 		.ascii	"ARR\000"
 1383 037e 04       		.byte	0x4
 1384 037f AA01     		.2byte	0x1aa
 1385 0381 A2000000 		.4byte	0xa2
 1386 0385 02       		.byte	0x2
 1387 0386 23       		.byte	0x23
 1388 0387 2C       		.uleb128 0x2c
 1389 0388 09       		.uleb128 0x9
 1390 0389 52435200 		.ascii	"RCR\000"
 1391 038d 04       		.byte	0x4
 1392 038e AB01     		.2byte	0x1ab
 1393 0390 A2000000 		.4byte	0xa2
 1394 0394 02       		.byte	0x2
 1395 0395 23       		.byte	0x23
 1396 0396 30       		.uleb128 0x30
 1397 0397 09       		.uleb128 0x9
 1398 0398 43435200 		.ascii	"CCR\000"
 1399 039c 04       		.byte	0x4
 1400 039d AC01     		.2byte	0x1ac
 1401 039f 0F040000 		.4byte	0x40f
 1402 03a3 02       		.byte	0x2
 1403 03a4 23       		.byte	0x23
 1404 03a5 34       		.uleb128 0x34
ARM GAS  C:\Users\DNIEL~1\AppData\Local\Temp\cc3iwxtd.s 			page 26


 1405 03a6 0A       		.uleb128 0xa
 1406 03a7 2F020000 		.4byte	.LASF50
 1407 03ab 04       		.byte	0x4
 1408 03ac AD01     		.2byte	0x1ad
 1409 03ae A2000000 		.4byte	0xa2
 1410 03b2 02       		.byte	0x2
 1411 03b3 23       		.byte	0x23
 1412 03b4 44       		.uleb128 0x44
 1413 03b5 09       		.uleb128 0x9
 1414 03b6 44435200 		.ascii	"DCR\000"
 1415 03ba 04       		.byte	0x4
 1416 03bb AE01     		.2byte	0x1ae
 1417 03bd A2000000 		.4byte	0xa2
 1418 03c1 02       		.byte	0x2
 1419 03c2 23       		.byte	0x23
 1420 03c3 48       		.uleb128 0x48
 1421 03c4 0A       		.uleb128 0xa
 1422 03c5 2C000000 		.4byte	.LASF51
 1423 03c9 04       		.byte	0x4
 1424 03ca AF01     		.2byte	0x1af
 1425 03cc A2000000 		.4byte	0xa2
 1426 03d0 02       		.byte	0x2
 1427 03d1 23       		.byte	0x23
 1428 03d2 4C       		.uleb128 0x4c
 1429 03d3 09       		.uleb128 0x9
 1430 03d4 4F5200   		.ascii	"OR\000"
 1431 03d7 04       		.byte	0x4
 1432 03d8 B001     		.2byte	0x1b0
 1433 03da A2000000 		.4byte	0xa2
 1434 03de 02       		.byte	0x2
 1435 03df 23       		.byte	0x23
 1436 03e0 50       		.uleb128 0x50
 1437 03e1 0A       		.uleb128 0xa
 1438 03e2 8F010000 		.4byte	.LASF52
 1439 03e6 04       		.byte	0x4
 1440 03e7 B101     		.2byte	0x1b1
 1441 03e9 A2000000 		.4byte	0xa2
 1442 03ed 02       		.byte	0x2
 1443 03ee 23       		.byte	0x23
 1444 03ef 54       		.uleb128 0x54
 1445 03f0 0A       		.uleb128 0xa
 1446 03f1 45010000 		.4byte	.LASF53
 1447 03f5 04       		.byte	0x4
 1448 03f6 B201     		.2byte	0x1b2
 1449 03f8 A2000000 		.4byte	0xa2
 1450 03fc 02       		.byte	0x2
 1451 03fd 23       		.byte	0x23
 1452 03fe 58       		.uleb128 0x58
 1453 03ff 0A       		.uleb128 0xa
 1454 0400 4A010000 		.4byte	.LASF54
 1455 0404 04       		.byte	0x4
 1456 0405 B301     		.2byte	0x1b3
 1457 0407 A2000000 		.4byte	0xa2
 1458 040b 02       		.byte	0x2
 1459 040c 23       		.byte	0x23
 1460 040d 5C       		.uleb128 0x5c
 1461 040e 00       		.byte	0x0
ARM GAS  C:\Users\DNIEL~1\AppData\Local\Temp\cc3iwxtd.s 			page 27


 1462 040f 05       		.uleb128 0x5
 1463 0410 BE000000 		.4byte	0xbe
 1464 0414 0B       		.uleb128 0xb
 1465 0415 70020000 		.4byte	.LASF55
 1466 0419 04       		.byte	0x4
 1467 041a B401     		.2byte	0x1b4
 1468 041c CC020000 		.4byte	0x2cc
 1469 0420 0C       		.uleb128 0xc
 1470 0421 04       		.byte	0x4
 1471 0422 14040000 		.4byte	0x414
 1472 0426 0D       		.uleb128 0xd
 1473 0427 01       		.byte	0x1
 1474 0428 05       		.byte	0x5
 1475 0429 55       		.byte	0x55
 1476 042a 41040000 		.4byte	0x441
 1477 042e 0E       		.uleb128 0xe
 1478 042f A8010000 		.4byte	.LASF56
 1479 0433 00       		.sleb128 0
 1480 0434 0E       		.uleb128 0xe
 1481 0435 2F030000 		.4byte	.LASF57
 1482 0439 01       		.sleb128 1
 1483 043a 0E       		.uleb128 0xe
 1484 043b 25030000 		.4byte	.LASF58
 1485 043f 02       		.sleb128 2
 1486 0440 00       		.byte	0x0
 1487 0441 04       		.uleb128 0x4
 1488 0442 BB030000 		.4byte	.LASF59
 1489 0446 05       		.byte	0x5
 1490 0447 59       		.byte	0x59
 1491 0448 26040000 		.4byte	0x426
 1492 044c 04       		.uleb128 0x4
 1493 044d 7C020000 		.4byte	.LASF60
 1494 0451 05       		.byte	0x5
 1495 0452 5E       		.byte	0x5e
 1496 0453 57040000 		.4byte	0x457
 1497 0457 0F       		.uleb128 0xf
 1498 0458 7C020000 		.4byte	.LASF60
 1499 045c 14       		.byte	0x14
 1500 045d 06       		.byte	0x6
 1501 045e 6F01     		.2byte	0x16f
 1502 0460 B0040000 		.4byte	0x4b0
 1503 0464 0A       		.uleb128 0xa
 1504 0465 31000000 		.4byte	.LASF61
 1505 0469 06       		.byte	0x6
 1506 046a 7301     		.2byte	0x173
 1507 046c 41040000 		.4byte	0x441
 1508 0470 02       		.byte	0x2
 1509 0471 23       		.byte	0x23
 1510 0472 00       		.uleb128 0x0
 1511 0473 0A       		.uleb128 0xa
 1512 0474 E5000000 		.4byte	.LASF62
 1513 0478 06       		.byte	0x6
 1514 0479 7701     		.2byte	0x177
 1515 047b AB050000 		.4byte	0x5ab
 1516 047f 02       		.byte	0x2
 1517 0480 23       		.byte	0x23
 1518 0481 04       		.uleb128 0x4
ARM GAS  C:\Users\DNIEL~1\AppData\Local\Temp\cc3iwxtd.s 			page 28


 1519 0482 0A       		.uleb128 0xa
 1520 0483 61010000 		.4byte	.LASF63
 1521 0487 06       		.byte	0x6
 1522 0488 7B01     		.2byte	0x17b
 1523 048a EB040000 		.4byte	0x4eb
 1524 048e 02       		.byte	0x2
 1525 048f 23       		.byte	0x23
 1526 0490 08       		.uleb128 0x8
 1527 0491 0A       		.uleb128 0xa
 1528 0492 F2020000 		.4byte	.LASF64
 1529 0496 06       		.byte	0x6
 1530 0497 8301     		.2byte	0x183
 1531 0499 7B000000 		.4byte	0x7b
 1532 049d 02       		.byte	0x2
 1533 049e 23       		.byte	0x23
 1534 049f 0C       		.uleb128 0xc
 1535 04a0 09       		.uleb128 0x9
 1536 04a1 74696D00 		.ascii	"tim\000"
 1537 04a5 06       		.byte	0x6
 1538 04a6 8701     		.2byte	0x187
 1539 04a8 20040000 		.4byte	0x420
 1540 04ac 02       		.byte	0x2
 1541 04ad 23       		.byte	0x23
 1542 04ae 10       		.uleb128 0x10
 1543 04af 00       		.byte	0x0
 1544 04b0 04       		.uleb128 0x4
 1545 04b1 C6030000 		.4byte	.LASF65
 1546 04b5 05       		.byte	0x5
 1547 04b6 65       		.byte	0x65
 1548 04b7 BB040000 		.4byte	0x4bb
 1549 04bb 0C       		.uleb128 0xc
 1550 04bc 04       		.byte	0x4
 1551 04bd C1040000 		.4byte	0x4c1
 1552 04c1 10       		.uleb128 0x10
 1553 04c2 01       		.byte	0x1
 1554 04c3 CD040000 		.4byte	0x4cd
 1555 04c7 11       		.uleb128 0x11
 1556 04c8 CD040000 		.4byte	0x4cd
 1557 04cc 00       		.byte	0x0
 1558 04cd 0C       		.uleb128 0xc
 1559 04ce 04       		.byte	0x4
 1560 04cf 4C040000 		.4byte	0x44c
 1561 04d3 0B       		.uleb128 0xb
 1562 04d4 99030000 		.4byte	.LASF66
 1563 04d8 06       		.byte	0x6
 1564 04d9 2001     		.2byte	0x120
 1565 04db 7B000000 		.4byte	0x7b
 1566 04df 0B       		.uleb128 0xb
 1567 04e0 7E000000 		.4byte	.LASF67
 1568 04e4 06       		.byte	0x6
 1569 04e5 2501     		.2byte	0x125
 1570 04e7 3E000000 		.4byte	0x3e
 1571 04eb 0B       		.uleb128 0xb
 1572 04ec 4D000000 		.4byte	.LASF68
 1573 04f0 06       		.byte	0x6
 1574 04f1 2A01     		.2byte	0x12a
 1575 04f3 57000000 		.4byte	0x57
ARM GAS  C:\Users\DNIEL~1\AppData\Local\Temp\cc3iwxtd.s 			page 29


 1576 04f7 08       		.uleb128 0x8
 1577 04f8 08       		.byte	0x8
 1578 04f9 06       		.byte	0x6
 1579 04fa 2F01     		.2byte	0x12f
 1580 04fc 1F050000 		.4byte	0x51f
 1581 0500 0A       		.uleb128 0xa
 1582 0501 9D000000 		.4byte	.LASF69
 1583 0505 06       		.byte	0x6
 1584 0506 3301     		.2byte	0x133
 1585 0508 D3040000 		.4byte	0x4d3
 1586 050c 02       		.byte	0x2
 1587 050d 23       		.byte	0x23
 1588 050e 00       		.uleb128 0x0
 1589 050f 0A       		.uleb128 0xa
 1590 0510 DE030000 		.4byte	.LASF70
 1591 0514 06       		.byte	0x6
 1592 0515 3901     		.2byte	0x139
 1593 0517 B0040000 		.4byte	0x4b0
 1594 051b 02       		.byte	0x2
 1595 051c 23       		.byte	0x23
 1596 051d 04       		.uleb128 0x4
 1597 051e 00       		.byte	0x0
 1598 051f 0B       		.uleb128 0xb
 1599 0520 47030000 		.4byte	.LASF71
 1600 0524 06       		.byte	0x6
 1601 0525 3B01     		.2byte	0x13b
 1602 0527 F7040000 		.4byte	0x4f7
 1603 052b 08       		.uleb128 0x8
 1604 052c 34       		.byte	0x34
 1605 052d 06       		.byte	0x6
 1606 052e 4001     		.2byte	0x140
 1607 0530 8F050000 		.4byte	0x58f
 1608 0534 0A       		.uleb128 0xa
 1609 0535 3D030000 		.4byte	.LASF72
 1610 0539 06       		.byte	0x6
 1611 053a 4601     		.2byte	0x146
 1612 053c 7B000000 		.4byte	0x7b
 1613 0540 02       		.byte	0x2
 1614 0541 23       		.byte	0x23
 1615 0542 00       		.uleb128 0x0
 1616 0543 0A       		.uleb128 0xa
 1617 0544 61010000 		.4byte	.LASF63
 1618 0548 06       		.byte	0x6
 1619 0549 4C01     		.2byte	0x14c
 1620 054b EB040000 		.4byte	0x4eb
 1621 054f 02       		.byte	0x2
 1622 0550 23       		.byte	0x23
 1623 0551 04       		.uleb128 0x4
 1624 0552 0A       		.uleb128 0xa
 1625 0553 DE030000 		.4byte	.LASF70
 1626 0557 06       		.byte	0x6
 1627 0558 5201     		.2byte	0x152
 1628 055a B0040000 		.4byte	0x4b0
 1629 055e 02       		.byte	0x2
 1630 055f 23       		.byte	0x23
 1631 0560 08       		.uleb128 0x8
 1632 0561 0A       		.uleb128 0xa
ARM GAS  C:\Users\DNIEL~1\AppData\Local\Temp\cc3iwxtd.s 			page 30


 1633 0562 1C030000 		.4byte	.LASF73
 1634 0566 06       		.byte	0x6
 1635 0567 5601     		.2byte	0x156
 1636 0569 8F050000 		.4byte	0x58f
 1637 056d 02       		.byte	0x2
 1638 056e 23       		.byte	0x23
 1639 056f 0C       		.uleb128 0xc
 1640 0570 09       		.uleb128 0x9
 1641 0571 63723200 		.ascii	"cr2\000"
 1642 0575 06       		.byte	0x6
 1643 0576 5C01     		.2byte	0x15c
 1644 0578 7B000000 		.4byte	0x7b
 1645 057c 02       		.byte	0x2
 1646 057d 23       		.byte	0x23
 1647 057e 2C       		.uleb128 0x2c
 1648 057f 0A       		.uleb128 0xa
 1649 0580 38030000 		.4byte	.LASF74
 1650 0584 06       		.byte	0x6
 1651 0585 6901     		.2byte	0x169
 1652 0587 7B000000 		.4byte	0x7b
 1653 058b 02       		.byte	0x2
 1654 058c 23       		.byte	0x23
 1655 058d 30       		.uleb128 0x30
 1656 058e 00       		.byte	0x0
 1657 058f 06       		.uleb128 0x6
 1658 0590 1F050000 		.4byte	0x51f
 1659 0594 9F050000 		.4byte	0x59f
 1660 0598 07       		.uleb128 0x7
 1661 0599 30000000 		.4byte	0x30
 1662 059d 03       		.byte	0x3
 1663 059e 00       		.byte	0x0
 1664 059f 0B       		.uleb128 0xb
 1665 05a0 85010000 		.4byte	.LASF75
 1666 05a4 06       		.byte	0x6
 1667 05a5 6A01     		.2byte	0x16a
 1668 05a7 2B050000 		.4byte	0x52b
 1669 05ab 0C       		.uleb128 0xc
 1670 05ac 04       		.byte	0x4
 1671 05ad B1050000 		.4byte	0x5b1
 1672 05b1 12       		.uleb128 0x12
 1673 05b2 9F050000 		.4byte	0x59f
 1674 05b6 13       		.uleb128 0x13
 1675 05b7 66000000 		.4byte	.LASF93
 1676 05bb 01       		.byte	0x1
 1677 05bc 70       		.byte	0x70
 1678 05bd 01       		.byte	0x1
 1679 05be 00000000 		.4byte	.LFB118
 1680 05c2 62000000 		.4byte	.LFE118
 1681 05c6 00000000 		.4byte	.LLST0
 1682 05ca EC050000 		.4byte	0x5ec
 1683 05ce 14       		.uleb128 0x14
 1684 05cf 9E010000 		.4byte	.LASF79
 1685 05d3 01       		.byte	0x1
 1686 05d4 70       		.byte	0x70
 1687 05d5 CD040000 		.4byte	0x4cd
 1688 05d9 20000000 		.4byte	.LLST1
 1689 05dd 15       		.uleb128 0x15
ARM GAS  C:\Users\DNIEL~1\AppData\Local\Temp\cc3iwxtd.s 			page 31


 1690 05de 737200   		.ascii	"sr\000"
 1691 05e1 01       		.byte	0x1
 1692 05e2 71       		.byte	0x71
 1693 05e3 57000000 		.4byte	0x57
 1694 05e7 3E000000 		.4byte	.LLST2
 1695 05eb 00       		.byte	0x0
 1696 05ec 16       		.uleb128 0x16
 1697 05ed 01       		.byte	0x1
 1698 05ee 95010000 		.4byte	.LASF76
 1699 05f2 01       		.byte	0x1
 1700 05f3 EB       		.byte	0xeb
 1701 05f4 01       		.byte	0x1
 1702 05f5 00000000 		.4byte	.LFB119
 1703 05f9 14000000 		.4byte	.LFE119
 1704 05fd 51000000 		.4byte	.LLST3
 1705 0601 16       		.uleb128 0x16
 1706 0602 01       		.byte	0x1
 1707 0603 8B000000 		.4byte	.LASF77
 1708 0607 01       		.byte	0x1
 1709 0608 FE       		.byte	0xfe
 1710 0609 01       		.byte	0x1
 1711 060a 00000000 		.4byte	.LFB120
 1712 060e 14000000 		.4byte	.LFE120
 1713 0612 71000000 		.4byte	.LLST4
 1714 0616 17       		.uleb128 0x17
 1715 0617 01       		.byte	0x1
 1716 0618 5E020000 		.4byte	.LASF78
 1717 061c 01       		.byte	0x1
 1718 061d 5901     		.2byte	0x159
 1719 061f 01       		.byte	0x1
 1720 0620 00000000 		.4byte	.LFB121
 1721 0624 2C000000 		.4byte	.LFE121
 1722 0628 91000000 		.4byte	.LLST5
 1723 062c 18       		.uleb128 0x18
 1724 062d 01       		.byte	0x1
 1725 062e 77010000 		.4byte	.LASF81
 1726 0632 01       		.byte	0x1
 1727 0633 8F01     		.2byte	0x18f
 1728 0635 01       		.byte	0x1
 1729 0636 00000000 		.4byte	.LFB122
 1730 063a 30010000 		.4byte	.LFE122
 1731 063e B1000000 		.4byte	.LLST6
 1732 0642 73060000 		.4byte	0x673
 1733 0646 19       		.uleb128 0x19
 1734 0647 9E010000 		.4byte	.LASF79
 1735 064b 01       		.byte	0x1
 1736 064c 8F01     		.2byte	0x18f
 1737 064e CD040000 		.4byte	0x4cd
 1738 0652 D1000000 		.4byte	.LLST7
 1739 0656 1A       		.uleb128 0x1a
 1740 0657 70736300 		.ascii	"psc\000"
 1741 065b 01       		.byte	0x1
 1742 065c 9001     		.2byte	0x190
 1743 065e 7B000000 		.4byte	0x7b
 1744 0662 1B       		.uleb128 0x1b
 1745 0663 13010000 		.4byte	.LASF80
 1746 0667 01       		.byte	0x1
ARM GAS  C:\Users\DNIEL~1\AppData\Local\Temp\cc3iwxtd.s 			page 32


 1747 0668 9101     		.2byte	0x191
 1748 066a 7B000000 		.4byte	0x7b
 1749 066e 05010000 		.4byte	.LLST8
 1750 0672 00       		.byte	0x0
 1751 0673 18       		.uleb128 0x18
 1752 0674 01       		.byte	0x1
 1753 0675 22020000 		.4byte	.LASF82
 1754 0679 01       		.byte	0x1
 1755 067a 5B02     		.2byte	0x25b
 1756 067c 01       		.byte	0x1
 1757 067d 00000000 		.4byte	.LFB123
 1758 0681 50000000 		.4byte	.LFE123
 1759 0685 93010000 		.4byte	.LLST9
 1760 0689 9E060000 		.4byte	0x69e
 1761 068d 19       		.uleb128 0x19
 1762 068e 9E010000 		.4byte	.LASF79
 1763 0692 01       		.byte	0x1
 1764 0693 5B02     		.2byte	0x25b
 1765 0695 CD040000 		.4byte	0x4cd
 1766 0699 B3010000 		.4byte	.LLST10
 1767 069d 00       		.byte	0x0
 1768 069e 18       		.uleb128 0x18
 1769 069f 01       		.byte	0x1
 1770 06a0 C1010000 		.4byte	.LASF83
 1771 06a4 01       		.byte	0x1
 1772 06a5 A102     		.2byte	0x2a1
 1773 06a7 01       		.byte	0x1
 1774 06a8 00000000 		.4byte	.LFB124
 1775 06ac 34000000 		.4byte	.LFE124
 1776 06b0 DC010000 		.4byte	.LLST11
 1777 06b4 03070000 		.4byte	0x703
 1778 06b8 19       		.uleb128 0x19
 1779 06b9 9E010000 		.4byte	.LASF79
 1780 06bd 01       		.byte	0x1
 1781 06be A102     		.2byte	0x2a1
 1782 06c0 CD040000 		.4byte	0x4cd
 1783 06c4 FC010000 		.4byte	.LLST12
 1784 06c8 19       		.uleb128 0x19
 1785 06c9 94020000 		.4byte	.LASF84
 1786 06cd 01       		.byte	0x1
 1787 06ce A202     		.2byte	0x2a2
 1788 06d0 DF040000 		.4byte	0x4df
 1789 06d4 0F020000 		.4byte	.LLST13
 1790 06d8 19       		.uleb128 0x19
 1791 06d9 20010000 		.4byte	.LASF85
 1792 06dd 01       		.byte	0x1
 1793 06de A302     		.2byte	0x2a3
 1794 06e0 EB040000 		.4byte	0x4eb
 1795 06e4 22020000 		.4byte	.LLST14
 1796 06e8 1C       		.uleb128 0x1c
 1797 06e9 1A000000 		.4byte	.LBB2
 1798 06ed 30000000 		.4byte	.LBE2
 1799 06f1 1B       		.uleb128 0x1b
 1800 06f2 38030000 		.4byte	.LASF74
 1801 06f6 01       		.byte	0x1
 1802 06f7 A902     		.2byte	0x2a9
 1803 06f9 7B000000 		.4byte	0x7b
ARM GAS  C:\Users\DNIEL~1\AppData\Local\Temp\cc3iwxtd.s 			page 33


 1804 06fd 35020000 		.4byte	.LLST15
 1805 0701 00       		.byte	0x0
 1806 0702 00       		.byte	0x0
 1807 0703 1D       		.uleb128 0x1d
 1808 0704 01       		.byte	0x1
 1809 0705 04030000 		.4byte	.LASF86
 1810 0709 01       		.byte	0x1
 1811 070a BF02     		.2byte	0x2bf
 1812 070c 01       		.byte	0x1
 1813 070d 00000000 		.4byte	.LFB125
 1814 0711 1E000000 		.4byte	.LFE125
 1815 0715 02       		.byte	0x2
 1816 0716 7D       		.byte	0x7d
 1817 0717 00       		.sleb128 0
 1818 0718 3D070000 		.4byte	0x73d
 1819 071c 19       		.uleb128 0x19
 1820 071d 9E010000 		.4byte	.LASF79
 1821 0721 01       		.byte	0x1
 1822 0722 BF02     		.2byte	0x2bf
 1823 0724 CD040000 		.4byte	0x4cd
 1824 0728 48020000 		.4byte	.LLST16
 1825 072c 19       		.uleb128 0x19
 1826 072d 94020000 		.4byte	.LASF84
 1827 0731 01       		.byte	0x1
 1828 0732 BF02     		.2byte	0x2bf
 1829 0734 DF040000 		.4byte	0x4df
 1830 0738 5B020000 		.4byte	.LLST17
 1831 073c 00       		.byte	0x0
 1832 073d 1E       		.uleb128 0x1e
 1833 073e A3030000 		.4byte	.LASF87
 1834 0742 07       		.byte	0x7
 1835 0743 9806     		.2byte	0x698
 1836 0745 CE000000 		.4byte	0xce
 1837 0749 01       		.byte	0x1
 1838 074a 01       		.byte	0x1
 1839 074b 1E       		.uleb128 0x1e
 1840 074c 3D000000 		.4byte	.LASF88
 1841 0750 06       		.byte	0x6
 1842 0751 BF01     		.2byte	0x1bf
 1843 0753 4C040000 		.4byte	0x44c
 1844 0757 01       		.byte	0x1
 1845 0758 01       		.byte	0x1
 1846 0759 1E       		.uleb128 0x1e
 1847 075a A6020000 		.4byte	.LASF89
 1848 075e 06       		.byte	0x6
 1849 075f C301     		.2byte	0x1c3
 1850 0761 4C040000 		.4byte	0x44c
 1851 0765 01       		.byte	0x1
 1852 0766 01       		.byte	0x1
 1853 0767 1E       		.uleb128 0x1e
 1854 0768 A3030000 		.4byte	.LASF87
 1855 076c 07       		.byte	0x7
 1856 076d 9806     		.2byte	0x698
 1857 076f CE000000 		.4byte	0xce
 1858 0773 01       		.byte	0x1
 1859 0774 01       		.byte	0x1
 1860 0775 1F       		.uleb128 0x1f
ARM GAS  C:\Users\DNIEL~1\AppData\Local\Temp\cc3iwxtd.s 			page 34


 1861 0776 3D000000 		.4byte	.LASF88
 1862 077a 01       		.byte	0x1
 1863 077b 43       		.byte	0x43
 1864 077c 4C040000 		.4byte	0x44c
 1865 0780 01       		.byte	0x1
 1866 0781 05       		.byte	0x5
 1867 0782 03       		.byte	0x3
 1868 0783 00000000 		.4byte	PWMD4
 1869 0787 1F       		.uleb128 0x1f
 1870 0788 A6020000 		.4byte	.LASF89
 1871 078c 01       		.byte	0x1
 1872 078d 4B       		.byte	0x4b
 1873 078e 4C040000 		.4byte	0x44c
 1874 0792 01       		.byte	0x1
 1875 0793 05       		.byte	0x5
 1876 0794 03       		.byte	0x3
 1877 0795 00000000 		.4byte	PWMD5
 1878 0799 00       		.byte	0x0
 1879              		.section	.debug_abbrev
 1880 0000 01       		.uleb128 0x1
 1881 0001 11       		.uleb128 0x11
 1882 0002 01       		.byte	0x1
 1883 0003 25       		.uleb128 0x25
 1884 0004 0E       		.uleb128 0xe
 1885 0005 13       		.uleb128 0x13
 1886 0006 0B       		.uleb128 0xb
 1887 0007 03       		.uleb128 0x3
 1888 0008 0E       		.uleb128 0xe
 1889 0009 1B       		.uleb128 0x1b
 1890 000a 0E       		.uleb128 0xe
 1891 000b 11       		.uleb128 0x11
 1892 000c 01       		.uleb128 0x1
 1893 000d 52       		.uleb128 0x52
 1894 000e 01       		.uleb128 0x1
 1895 000f 55       		.uleb128 0x55
 1896 0010 06       		.uleb128 0x6
 1897 0011 10       		.uleb128 0x10
 1898 0012 06       		.uleb128 0x6
 1899 0013 00       		.byte	0x0
 1900 0014 00       		.byte	0x0
 1901 0015 02       		.uleb128 0x2
 1902 0016 24       		.uleb128 0x24
 1903 0017 00       		.byte	0x0
 1904 0018 0B       		.uleb128 0xb
 1905 0019 0B       		.uleb128 0xb
 1906 001a 3E       		.uleb128 0x3e
 1907 001b 0B       		.uleb128 0xb
 1908 001c 03       		.uleb128 0x3
 1909 001d 08       		.uleb128 0x8
 1910 001e 00       		.byte	0x0
 1911 001f 00       		.byte	0x0
 1912 0020 03       		.uleb128 0x3
 1913 0021 24       		.uleb128 0x24
 1914 0022 00       		.byte	0x0
 1915 0023 0B       		.uleb128 0xb
 1916 0024 0B       		.uleb128 0xb
 1917 0025 3E       		.uleb128 0x3e
ARM GAS  C:\Users\DNIEL~1\AppData\Local\Temp\cc3iwxtd.s 			page 35


 1918 0026 0B       		.uleb128 0xb
 1919 0027 03       		.uleb128 0x3
 1920 0028 0E       		.uleb128 0xe
 1921 0029 00       		.byte	0x0
 1922 002a 00       		.byte	0x0
 1923 002b 04       		.uleb128 0x4
 1924 002c 16       		.uleb128 0x16
 1925 002d 00       		.byte	0x0
 1926 002e 03       		.uleb128 0x3
 1927 002f 0E       		.uleb128 0xe
 1928 0030 3A       		.uleb128 0x3a
 1929 0031 0B       		.uleb128 0xb
 1930 0032 3B       		.uleb128 0x3b
 1931 0033 0B       		.uleb128 0xb
 1932 0034 49       		.uleb128 0x49
 1933 0035 13       		.uleb128 0x13
 1934 0036 00       		.byte	0x0
 1935 0037 00       		.byte	0x0
 1936 0038 05       		.uleb128 0x5
 1937 0039 35       		.uleb128 0x35
 1938 003a 00       		.byte	0x0
 1939 003b 49       		.uleb128 0x49
 1940 003c 13       		.uleb128 0x13
 1941 003d 00       		.byte	0x0
 1942 003e 00       		.byte	0x0
 1943 003f 06       		.uleb128 0x6
 1944 0040 01       		.uleb128 0x1
 1945 0041 01       		.byte	0x1
 1946 0042 49       		.uleb128 0x49
 1947 0043 13       		.uleb128 0x13
 1948 0044 01       		.uleb128 0x1
 1949 0045 13       		.uleb128 0x13
 1950 0046 00       		.byte	0x0
 1951 0047 00       		.byte	0x0
 1952 0048 07       		.uleb128 0x7
 1953 0049 21       		.uleb128 0x21
 1954 004a 00       		.byte	0x0
 1955 004b 49       		.uleb128 0x49
 1956 004c 13       		.uleb128 0x13
 1957 004d 2F       		.uleb128 0x2f
 1958 004e 0B       		.uleb128 0xb
 1959 004f 00       		.byte	0x0
 1960 0050 00       		.byte	0x0
 1961 0051 08       		.uleb128 0x8
 1962 0052 13       		.uleb128 0x13
 1963 0053 01       		.byte	0x1
 1964 0054 0B       		.uleb128 0xb
 1965 0055 0B       		.uleb128 0xb
 1966 0056 3A       		.uleb128 0x3a
 1967 0057 0B       		.uleb128 0xb
 1968 0058 3B       		.uleb128 0x3b
 1969 0059 05       		.uleb128 0x5
 1970 005a 01       		.uleb128 0x1
 1971 005b 13       		.uleb128 0x13
 1972 005c 00       		.byte	0x0
 1973 005d 00       		.byte	0x0
 1974 005e 09       		.uleb128 0x9
ARM GAS  C:\Users\DNIEL~1\AppData\Local\Temp\cc3iwxtd.s 			page 36


 1975 005f 0D       		.uleb128 0xd
 1976 0060 00       		.byte	0x0
 1977 0061 03       		.uleb128 0x3
 1978 0062 08       		.uleb128 0x8
 1979 0063 3A       		.uleb128 0x3a
 1980 0064 0B       		.uleb128 0xb
 1981 0065 3B       		.uleb128 0x3b
 1982 0066 05       		.uleb128 0x5
 1983 0067 49       		.uleb128 0x49
 1984 0068 13       		.uleb128 0x13
 1985 0069 38       		.uleb128 0x38
 1986 006a 0A       		.uleb128 0xa
 1987 006b 00       		.byte	0x0
 1988 006c 00       		.byte	0x0
 1989 006d 0A       		.uleb128 0xa
 1990 006e 0D       		.uleb128 0xd
 1991 006f 00       		.byte	0x0
 1992 0070 03       		.uleb128 0x3
 1993 0071 0E       		.uleb128 0xe
 1994 0072 3A       		.uleb128 0x3a
 1995 0073 0B       		.uleb128 0xb
 1996 0074 3B       		.uleb128 0x3b
 1997 0075 05       		.uleb128 0x5
 1998 0076 49       		.uleb128 0x49
 1999 0077 13       		.uleb128 0x13
 2000 0078 38       		.uleb128 0x38
 2001 0079 0A       		.uleb128 0xa
 2002 007a 00       		.byte	0x0
 2003 007b 00       		.byte	0x0
 2004 007c 0B       		.uleb128 0xb
 2005 007d 16       		.uleb128 0x16
 2006 007e 00       		.byte	0x0
 2007 007f 03       		.uleb128 0x3
 2008 0080 0E       		.uleb128 0xe
 2009 0081 3A       		.uleb128 0x3a
 2010 0082 0B       		.uleb128 0xb
 2011 0083 3B       		.uleb128 0x3b
 2012 0084 05       		.uleb128 0x5
 2013 0085 49       		.uleb128 0x49
 2014 0086 13       		.uleb128 0x13
 2015 0087 00       		.byte	0x0
 2016 0088 00       		.byte	0x0
 2017 0089 0C       		.uleb128 0xc
 2018 008a 0F       		.uleb128 0xf
 2019 008b 00       		.byte	0x0
 2020 008c 0B       		.uleb128 0xb
 2021 008d 0B       		.uleb128 0xb
 2022 008e 49       		.uleb128 0x49
 2023 008f 13       		.uleb128 0x13
 2024 0090 00       		.byte	0x0
 2025 0091 00       		.byte	0x0
 2026 0092 0D       		.uleb128 0xd
 2027 0093 04       		.uleb128 0x4
 2028 0094 01       		.byte	0x1
 2029 0095 0B       		.uleb128 0xb
 2030 0096 0B       		.uleb128 0xb
 2031 0097 3A       		.uleb128 0x3a
ARM GAS  C:\Users\DNIEL~1\AppData\Local\Temp\cc3iwxtd.s 			page 37


 2032 0098 0B       		.uleb128 0xb
 2033 0099 3B       		.uleb128 0x3b
 2034 009a 0B       		.uleb128 0xb
 2035 009b 01       		.uleb128 0x1
 2036 009c 13       		.uleb128 0x13
 2037 009d 00       		.byte	0x0
 2038 009e 00       		.byte	0x0
 2039 009f 0E       		.uleb128 0xe
 2040 00a0 28       		.uleb128 0x28
 2041 00a1 00       		.byte	0x0
 2042 00a2 03       		.uleb128 0x3
 2043 00a3 0E       		.uleb128 0xe
 2044 00a4 1C       		.uleb128 0x1c
 2045 00a5 0D       		.uleb128 0xd
 2046 00a6 00       		.byte	0x0
 2047 00a7 00       		.byte	0x0
 2048 00a8 0F       		.uleb128 0xf
 2049 00a9 13       		.uleb128 0x13
 2050 00aa 01       		.byte	0x1
 2051 00ab 03       		.uleb128 0x3
 2052 00ac 0E       		.uleb128 0xe
 2053 00ad 0B       		.uleb128 0xb
 2054 00ae 0B       		.uleb128 0xb
 2055 00af 3A       		.uleb128 0x3a
 2056 00b0 0B       		.uleb128 0xb
 2057 00b1 3B       		.uleb128 0x3b
 2058 00b2 05       		.uleb128 0x5
 2059 00b3 01       		.uleb128 0x1
 2060 00b4 13       		.uleb128 0x13
 2061 00b5 00       		.byte	0x0
 2062 00b6 00       		.byte	0x0
 2063 00b7 10       		.uleb128 0x10
 2064 00b8 15       		.uleb128 0x15
 2065 00b9 01       		.byte	0x1
 2066 00ba 27       		.uleb128 0x27
 2067 00bb 0C       		.uleb128 0xc
 2068 00bc 01       		.uleb128 0x1
 2069 00bd 13       		.uleb128 0x13
 2070 00be 00       		.byte	0x0
 2071 00bf 00       		.byte	0x0
 2072 00c0 11       		.uleb128 0x11
 2073 00c1 05       		.uleb128 0x5
 2074 00c2 00       		.byte	0x0
 2075 00c3 49       		.uleb128 0x49
 2076 00c4 13       		.uleb128 0x13
 2077 00c5 00       		.byte	0x0
 2078 00c6 00       		.byte	0x0
 2079 00c7 12       		.uleb128 0x12
 2080 00c8 26       		.uleb128 0x26
 2081 00c9 00       		.byte	0x0
 2082 00ca 49       		.uleb128 0x49
 2083 00cb 13       		.uleb128 0x13
 2084 00cc 00       		.byte	0x0
 2085 00cd 00       		.byte	0x0
 2086 00ce 13       		.uleb128 0x13
 2087 00cf 2E       		.uleb128 0x2e
 2088 00d0 01       		.byte	0x1
ARM GAS  C:\Users\DNIEL~1\AppData\Local\Temp\cc3iwxtd.s 			page 38


 2089 00d1 03       		.uleb128 0x3
 2090 00d2 0E       		.uleb128 0xe
 2091 00d3 3A       		.uleb128 0x3a
 2092 00d4 0B       		.uleb128 0xb
 2093 00d5 3B       		.uleb128 0x3b
 2094 00d6 0B       		.uleb128 0xb
 2095 00d7 27       		.uleb128 0x27
 2096 00d8 0C       		.uleb128 0xc
 2097 00d9 11       		.uleb128 0x11
 2098 00da 01       		.uleb128 0x1
 2099 00db 12       		.uleb128 0x12
 2100 00dc 01       		.uleb128 0x1
 2101 00dd 40       		.uleb128 0x40
 2102 00de 06       		.uleb128 0x6
 2103 00df 01       		.uleb128 0x1
 2104 00e0 13       		.uleb128 0x13
 2105 00e1 00       		.byte	0x0
 2106 00e2 00       		.byte	0x0
 2107 00e3 14       		.uleb128 0x14
 2108 00e4 05       		.uleb128 0x5
 2109 00e5 00       		.byte	0x0
 2110 00e6 03       		.uleb128 0x3
 2111 00e7 0E       		.uleb128 0xe
 2112 00e8 3A       		.uleb128 0x3a
 2113 00e9 0B       		.uleb128 0xb
 2114 00ea 3B       		.uleb128 0x3b
 2115 00eb 0B       		.uleb128 0xb
 2116 00ec 49       		.uleb128 0x49
 2117 00ed 13       		.uleb128 0x13
 2118 00ee 02       		.uleb128 0x2
 2119 00ef 06       		.uleb128 0x6
 2120 00f0 00       		.byte	0x0
 2121 00f1 00       		.byte	0x0
 2122 00f2 15       		.uleb128 0x15
 2123 00f3 34       		.uleb128 0x34
 2124 00f4 00       		.byte	0x0
 2125 00f5 03       		.uleb128 0x3
 2126 00f6 08       		.uleb128 0x8
 2127 00f7 3A       		.uleb128 0x3a
 2128 00f8 0B       		.uleb128 0xb
 2129 00f9 3B       		.uleb128 0x3b
 2130 00fa 0B       		.uleb128 0xb
 2131 00fb 49       		.uleb128 0x49
 2132 00fc 13       		.uleb128 0x13
 2133 00fd 02       		.uleb128 0x2
 2134 00fe 06       		.uleb128 0x6
 2135 00ff 00       		.byte	0x0
 2136 0100 00       		.byte	0x0
 2137 0101 16       		.uleb128 0x16
 2138 0102 2E       		.uleb128 0x2e
 2139 0103 00       		.byte	0x0
 2140 0104 3F       		.uleb128 0x3f
 2141 0105 0C       		.uleb128 0xc
 2142 0106 03       		.uleb128 0x3
 2143 0107 0E       		.uleb128 0xe
 2144 0108 3A       		.uleb128 0x3a
 2145 0109 0B       		.uleb128 0xb
ARM GAS  C:\Users\DNIEL~1\AppData\Local\Temp\cc3iwxtd.s 			page 39


 2146 010a 3B       		.uleb128 0x3b
 2147 010b 0B       		.uleb128 0xb
 2148 010c 27       		.uleb128 0x27
 2149 010d 0C       		.uleb128 0xc
 2150 010e 11       		.uleb128 0x11
 2151 010f 01       		.uleb128 0x1
 2152 0110 12       		.uleb128 0x12
 2153 0111 01       		.uleb128 0x1
 2154 0112 40       		.uleb128 0x40
 2155 0113 06       		.uleb128 0x6
 2156 0114 00       		.byte	0x0
 2157 0115 00       		.byte	0x0
 2158 0116 17       		.uleb128 0x17
 2159 0117 2E       		.uleb128 0x2e
 2160 0118 00       		.byte	0x0
 2161 0119 3F       		.uleb128 0x3f
 2162 011a 0C       		.uleb128 0xc
 2163 011b 03       		.uleb128 0x3
 2164 011c 0E       		.uleb128 0xe
 2165 011d 3A       		.uleb128 0x3a
 2166 011e 0B       		.uleb128 0xb
 2167 011f 3B       		.uleb128 0x3b
 2168 0120 05       		.uleb128 0x5
 2169 0121 27       		.uleb128 0x27
 2170 0122 0C       		.uleb128 0xc
 2171 0123 11       		.uleb128 0x11
 2172 0124 01       		.uleb128 0x1
 2173 0125 12       		.uleb128 0x12
 2174 0126 01       		.uleb128 0x1
 2175 0127 40       		.uleb128 0x40
 2176 0128 06       		.uleb128 0x6
 2177 0129 00       		.byte	0x0
 2178 012a 00       		.byte	0x0
 2179 012b 18       		.uleb128 0x18
 2180 012c 2E       		.uleb128 0x2e
 2181 012d 01       		.byte	0x1
 2182 012e 3F       		.uleb128 0x3f
 2183 012f 0C       		.uleb128 0xc
 2184 0130 03       		.uleb128 0x3
 2185 0131 0E       		.uleb128 0xe
 2186 0132 3A       		.uleb128 0x3a
 2187 0133 0B       		.uleb128 0xb
 2188 0134 3B       		.uleb128 0x3b
 2189 0135 05       		.uleb128 0x5
 2190 0136 27       		.uleb128 0x27
 2191 0137 0C       		.uleb128 0xc
 2192 0138 11       		.uleb128 0x11
 2193 0139 01       		.uleb128 0x1
 2194 013a 12       		.uleb128 0x12
 2195 013b 01       		.uleb128 0x1
 2196 013c 40       		.uleb128 0x40
 2197 013d 06       		.uleb128 0x6
 2198 013e 01       		.uleb128 0x1
 2199 013f 13       		.uleb128 0x13
 2200 0140 00       		.byte	0x0
 2201 0141 00       		.byte	0x0
 2202 0142 19       		.uleb128 0x19
ARM GAS  C:\Users\DNIEL~1\AppData\Local\Temp\cc3iwxtd.s 			page 40


 2203 0143 05       		.uleb128 0x5
 2204 0144 00       		.byte	0x0
 2205 0145 03       		.uleb128 0x3
 2206 0146 0E       		.uleb128 0xe
 2207 0147 3A       		.uleb128 0x3a
 2208 0148 0B       		.uleb128 0xb
 2209 0149 3B       		.uleb128 0x3b
 2210 014a 05       		.uleb128 0x5
 2211 014b 49       		.uleb128 0x49
 2212 014c 13       		.uleb128 0x13
 2213 014d 02       		.uleb128 0x2
 2214 014e 06       		.uleb128 0x6
 2215 014f 00       		.byte	0x0
 2216 0150 00       		.byte	0x0
 2217 0151 1A       		.uleb128 0x1a
 2218 0152 34       		.uleb128 0x34
 2219 0153 00       		.byte	0x0
 2220 0154 03       		.uleb128 0x3
 2221 0155 08       		.uleb128 0x8
 2222 0156 3A       		.uleb128 0x3a
 2223 0157 0B       		.uleb128 0xb
 2224 0158 3B       		.uleb128 0x3b
 2225 0159 05       		.uleb128 0x5
 2226 015a 49       		.uleb128 0x49
 2227 015b 13       		.uleb128 0x13
 2228 015c 00       		.byte	0x0
 2229 015d 00       		.byte	0x0
 2230 015e 1B       		.uleb128 0x1b
 2231 015f 34       		.uleb128 0x34
 2232 0160 00       		.byte	0x0
 2233 0161 03       		.uleb128 0x3
 2234 0162 0E       		.uleb128 0xe
 2235 0163 3A       		.uleb128 0x3a
 2236 0164 0B       		.uleb128 0xb
 2237 0165 3B       		.uleb128 0x3b
 2238 0166 05       		.uleb128 0x5
 2239 0167 49       		.uleb128 0x49
 2240 0168 13       		.uleb128 0x13
 2241 0169 02       		.uleb128 0x2
 2242 016a 06       		.uleb128 0x6
 2243 016b 00       		.byte	0x0
 2244 016c 00       		.byte	0x0
 2245 016d 1C       		.uleb128 0x1c
 2246 016e 0B       		.uleb128 0xb
 2247 016f 01       		.byte	0x1
 2248 0170 11       		.uleb128 0x11
 2249 0171 01       		.uleb128 0x1
 2250 0172 12       		.uleb128 0x12
 2251 0173 01       		.uleb128 0x1
 2252 0174 00       		.byte	0x0
 2253 0175 00       		.byte	0x0
 2254 0176 1D       		.uleb128 0x1d
 2255 0177 2E       		.uleb128 0x2e
 2256 0178 01       		.byte	0x1
 2257 0179 3F       		.uleb128 0x3f
 2258 017a 0C       		.uleb128 0xc
 2259 017b 03       		.uleb128 0x3
ARM GAS  C:\Users\DNIEL~1\AppData\Local\Temp\cc3iwxtd.s 			page 41


 2260 017c 0E       		.uleb128 0xe
 2261 017d 3A       		.uleb128 0x3a
 2262 017e 0B       		.uleb128 0xb
 2263 017f 3B       		.uleb128 0x3b
 2264 0180 05       		.uleb128 0x5
 2265 0181 27       		.uleb128 0x27
 2266 0182 0C       		.uleb128 0xc
 2267 0183 11       		.uleb128 0x11
 2268 0184 01       		.uleb128 0x1
 2269 0185 12       		.uleb128 0x12
 2270 0186 01       		.uleb128 0x1
 2271 0187 40       		.uleb128 0x40
 2272 0188 0A       		.uleb128 0xa
 2273 0189 01       		.uleb128 0x1
 2274 018a 13       		.uleb128 0x13
 2275 018b 00       		.byte	0x0
 2276 018c 00       		.byte	0x0
 2277 018d 1E       		.uleb128 0x1e
 2278 018e 34       		.uleb128 0x34
 2279 018f 00       		.byte	0x0
 2280 0190 03       		.uleb128 0x3
 2281 0191 0E       		.uleb128 0xe
 2282 0192 3A       		.uleb128 0x3a
 2283 0193 0B       		.uleb128 0xb
 2284 0194 3B       		.uleb128 0x3b
 2285 0195 05       		.uleb128 0x5
 2286 0196 49       		.uleb128 0x49
 2287 0197 13       		.uleb128 0x13
 2288 0198 3F       		.uleb128 0x3f
 2289 0199 0C       		.uleb128 0xc
 2290 019a 3C       		.uleb128 0x3c
 2291 019b 0C       		.uleb128 0xc
 2292 019c 00       		.byte	0x0
 2293 019d 00       		.byte	0x0
 2294 019e 1F       		.uleb128 0x1f
 2295 019f 34       		.uleb128 0x34
 2296 01a0 00       		.byte	0x0
 2297 01a1 03       		.uleb128 0x3
 2298 01a2 0E       		.uleb128 0xe
 2299 01a3 3A       		.uleb128 0x3a
 2300 01a4 0B       		.uleb128 0xb
 2301 01a5 3B       		.uleb128 0x3b
 2302 01a6 0B       		.uleb128 0xb
 2303 01a7 49       		.uleb128 0x49
 2304 01a8 13       		.uleb128 0x13
 2305 01a9 3F       		.uleb128 0x3f
 2306 01aa 0C       		.uleb128 0xc
 2307 01ab 02       		.uleb128 0x2
 2308 01ac 0A       		.uleb128 0xa
 2309 01ad 00       		.byte	0x0
 2310 01ae 00       		.byte	0x0
 2311 01af 00       		.byte	0x0
 2312              		.section	.debug_pubnames,"",%progbits
 2313 0000 A8000000 		.4byte	0xa8
 2314 0004 0200     		.2byte	0x2
 2315 0006 00000000 		.4byte	.Ldebug_info0
 2316 000a 9A070000 		.4byte	0x79a
ARM GAS  C:\Users\DNIEL~1\AppData\Local\Temp\cc3iwxtd.s 			page 42


 2317 000e EC050000 		.4byte	0x5ec
 2318 0012 56656374 		.ascii	"VectorB8\000"
 2318      6F724238 
 2318      00
 2319 001b 01060000 		.4byte	0x601
 2320 001f 56656374 		.ascii	"Vector108\000"
 2320      6F723130 
 2320      3800
 2321 0029 16060000 		.4byte	0x616
 2322 002d 70776D5F 		.ascii	"pwm_lld_init\000"
 2322      6C6C645F 
 2322      696E6974 
 2322      00
 2323 003a 2C060000 		.4byte	0x62c
 2324 003e 70776D5F 		.ascii	"pwm_lld_start\000"
 2324      6C6C645F 
 2324      73746172 
 2324      7400
 2325 004c 73060000 		.4byte	0x673
 2326 0050 70776D5F 		.ascii	"pwm_lld_stop\000"
 2326      6C6C645F 
 2326      73746F70 
 2326      00
 2327 005d 9E060000 		.4byte	0x69e
 2328 0061 70776D5F 		.ascii	"pwm_lld_enable_channel\000"
 2328      6C6C645F 
 2328      656E6162 
 2328      6C655F63 
 2328      68616E6E 
 2329 0078 03070000 		.4byte	0x703
 2330 007c 70776D5F 		.ascii	"pwm_lld_disable_channel\000"
 2330      6C6C645F 
 2330      64697361 
 2330      626C655F 
 2330      6368616E 
 2331 0094 75070000 		.4byte	0x775
 2332 0098 50574D44 		.ascii	"PWMD4\000"
 2332      3400
 2333 009e 87070000 		.4byte	0x787
 2334 00a2 50574D44 		.ascii	"PWMD5\000"
 2334      3500
 2335 00a8 00000000 		.4byte	0x0
 2336              		.section	.debug_pubtypes,"",%progbits
 2337 0000 EC000000 		.4byte	0xec
 2338 0004 0200     		.2byte	0x2
 2339 0006 00000000 		.4byte	.Ldebug_info0
 2340 000a 9A070000 		.4byte	0x79a
 2341 000e 3E000000 		.4byte	0x3e
 2342 0012 75696E74 		.ascii	"uint8_t\000"
 2342      385F7400 
 2343 001a 57000000 		.4byte	0x57
 2344 001e 75696E74 		.ascii	"uint16_t\000"
 2344      31365F74 
 2344      00
 2345 0027 69000000 		.4byte	0x69
 2346 002b 696E7433 		.ascii	"int32_t\000"
 2346      325F7400 
ARM GAS  C:\Users\DNIEL~1\AppData\Local\Temp\cc3iwxtd.s 			page 43


 2347 0033 7B000000 		.4byte	0x7b
 2348 0037 75696E74 		.ascii	"uint32_t\000"
 2348      33325F74 
 2348      00
 2349 0040 C0020000 		.4byte	0x2c0
 2350 0044 5243435F 		.ascii	"RCC_TypeDef\000"
 2350      54797065 
 2350      44656600 
 2351 0050 14040000 		.4byte	0x414
 2352 0054 73746D33 		.ascii	"stm32_tim_t\000"
 2352      325F7469 
 2352      6D5F7400 
 2353 0060 41040000 		.4byte	0x441
 2354 0064 70776D73 		.ascii	"pwmstate_t\000"
 2354      74617465 
 2354      5F7400
 2355 006f 4C040000 		.4byte	0x44c
 2356 0073 50574D44 		.ascii	"PWMDriver\000"
 2356      72697665 
 2356      7200
 2357 007d B0040000 		.4byte	0x4b0
 2358 0081 70776D63 		.ascii	"pwmcallback_t\000"
 2358      616C6C62 
 2358      61636B5F 
 2358      7400
 2359 008f D3040000 		.4byte	0x4d3
 2360 0093 70776D6D 		.ascii	"pwmmode_t\000"
 2360      6F64655F 
 2360      7400
 2361 009d DF040000 		.4byte	0x4df
 2362 00a1 70776D63 		.ascii	"pwmchannel_t\000"
 2362      68616E6E 
 2362      656C5F74 
 2362      00
 2363 00ae EB040000 		.4byte	0x4eb
 2364 00b2 70776D63 		.ascii	"pwmcnt_t\000"
 2364      6E745F74 
 2364      00
 2365 00bb 1F050000 		.4byte	0x51f
 2366 00bf 50574D43 		.ascii	"PWMChannelConfig\000"
 2366      68616E6E 
 2366      656C436F 
 2366      6E666967 
 2366      00
 2367 00d0 9F050000 		.4byte	0x59f
 2368 00d4 50574D43 		.ascii	"PWMConfig\000"
 2368      6F6E6669 
 2368      6700
 2369 00de 57040000 		.4byte	0x457
 2370 00e2 50574D44 		.ascii	"PWMDriver\000"
 2370      72697665 
 2370      7200
 2371 00ec 00000000 		.4byte	0x0
 2372              		.section	.debug_aranges,"",%progbits
 2373 0000 54000000 		.4byte	0x54
 2374 0004 0200     		.2byte	0x2
 2375 0006 00000000 		.4byte	.Ldebug_info0
ARM GAS  C:\Users\DNIEL~1\AppData\Local\Temp\cc3iwxtd.s 			page 44


 2376 000a 04       		.byte	0x4
 2377 000b 00       		.byte	0x0
 2378 000c 0000     		.2byte	0x0
 2379 000e 0000     		.2byte	0x0
 2380 0010 00000000 		.4byte	.LFB118
 2381 0014 62000000 		.4byte	.LFE118-.LFB118
 2382 0018 00000000 		.4byte	.LFB119
 2383 001c 14000000 		.4byte	.LFE119-.LFB119
 2384 0020 00000000 		.4byte	.LFB120
 2385 0024 14000000 		.4byte	.LFE120-.LFB120
 2386 0028 00000000 		.4byte	.LFB121
 2387 002c 2C000000 		.4byte	.LFE121-.LFB121
 2388 0030 00000000 		.4byte	.LFB122
 2389 0034 30010000 		.4byte	.LFE122-.LFB122
 2390 0038 00000000 		.4byte	.LFB123
 2391 003c 50000000 		.4byte	.LFE123-.LFB123
 2392 0040 00000000 		.4byte	.LFB124
 2393 0044 34000000 		.4byte	.LFE124-.LFB124
 2394 0048 00000000 		.4byte	.LFB125
 2395 004c 1E000000 		.4byte	.LFE125-.LFB125
 2396 0050 00000000 		.4byte	0x0
 2397 0054 00000000 		.4byte	0x0
 2398              		.section	.debug_ranges,"",%progbits
 2399              	.Ldebug_ranges0:
 2400 0000 00000000 		.4byte	.LFB118
 2401 0004 62000000 		.4byte	.LFE118
 2402 0008 00000000 		.4byte	.LFB119
 2403 000c 14000000 		.4byte	.LFE119
 2404 0010 00000000 		.4byte	.LFB120
 2405 0014 14000000 		.4byte	.LFE120
 2406 0018 00000000 		.4byte	.LFB121
 2407 001c 2C000000 		.4byte	.LFE121
 2408 0020 00000000 		.4byte	.LFB122
 2409 0024 30010000 		.4byte	.LFE122
 2410 0028 00000000 		.4byte	.LFB123
 2411 002c 50000000 		.4byte	.LFE123
 2412 0030 00000000 		.4byte	.LFB124
 2413 0034 34000000 		.4byte	.LFE124
 2414 0038 00000000 		.4byte	.LFB125
 2415 003c 1E000000 		.4byte	.LFE125
 2416 0040 00000000 		.4byte	0x0
 2417 0044 00000000 		.4byte	0x0
 2418              		.section	.debug_str,"MS",%progbits,1
 2419              	.LASF31:
 2420 0000 41484231 		.ascii	"AHB1LPENR\000"
 2420      4C50454E 
 2420      5200
 2421              	.LASF49:
 2422 000a 43434552 		.ascii	"CCER\000"
 2422      00
 2423              	.LASF44:
 2424 000f 5243435F 		.ascii	"RCC_TypeDef\000"
 2424      54797065 
 2424      44656600 
 2425              	.LASF21:
 2426 001b 41504231 		.ascii	"APB1RSTR\000"
 2426      52535452 
ARM GAS  C:\Users\DNIEL~1\AppData\Local\Temp\cc3iwxtd.s 			page 45


 2426      00
 2427              	.LASF25:
 2428 0024 41484232 		.ascii	"AHB2ENR\000"
 2428      454E5200 
 2429              	.LASF51:
 2430 002c 444D4152 		.ascii	"DMAR\000"
 2430      00
 2431              	.LASF61:
 2432 0031 73746174 		.ascii	"state\000"
 2432      6500
 2433              	.LASF48:
 2434 0037 43434D52 		.ascii	"CCMR2\000"
 2434      3200
 2435              	.LASF88:
 2436 003d 50574D44 		.ascii	"PWMD4\000"
 2436      3400
 2437              	.LASF3:
 2438 0043 73686F72 		.ascii	"short int\000"
 2438      7420696E 
 2438      7400
 2439              	.LASF68:
 2440 004d 70776D63 		.ascii	"pwmcnt_t\000"
 2440      6E745F74 
 2440      00
 2441              	.LASF38:
 2442 0056 42444352 		.ascii	"BDCR\000"
 2442      00
 2443              	.LASF41:
 2444 005b 504C4C49 		.ascii	"PLLI2SCFGR\000"
 2444      32534346 
 2444      475200
 2445              	.LASF93:
 2446 0066 70776D5F 		.ascii	"pwm_lld_serve_interrupt\000"
 2446      6C6C645F 
 2446      73657276 
 2446      655F696E 
 2446      74657272 
 2447              	.LASF67:
 2448 007e 70776D63 		.ascii	"pwmchannel_t\000"
 2448      68616E6E 
 2448      656C5F74 
 2448      00
 2449              	.LASF77:
 2450 008b 56656374 		.ascii	"Vector108\000"
 2450      6F723130 
 2450      3800
 2451              	.LASF24:
 2452 0095 41484231 		.ascii	"AHB1ENR\000"
 2452      454E5200 
 2453              	.LASF69:
 2454 009d 6D6F6465 		.ascii	"mode\000"
 2454      00
 2455              	.LASF92:
 2456 00a2 433A5C44 		.ascii	"C:\\Dani\\MegaLux\\Repo\\Smarty\\Smarty\\smarty\\fi"
 2456      616E695C 
 2456      4D656761 
 2456      4C75785C 
ARM GAS  C:\Users\DNIEL~1\AppData\Local\Temp\cc3iwxtd.s 			page 46


 2456      5265706F 
 2457 00ce 726D7761 		.ascii	"rmware\000"
 2457      726500
 2458              	.LASF40:
 2459 00d5 53534347 		.ascii	"SSCGR\000"
 2459      5200
 2460              	.LASF33:
 2461 00db 41484233 		.ascii	"AHB3LPENR\000"
 2461      4C50454E 
 2461      5200
 2462              	.LASF62:
 2463 00e5 636F6E66 		.ascii	"config\000"
 2463      696700
 2464              	.LASF16:
 2465 00ec 43464752 		.ascii	"CFGR\000"
 2465      00
 2466              	.LASF4:
 2467 00f1 75696E74 		.ascii	"uint8_t\000"
 2467      385F7400 
 2468              	.LASF28:
 2469 00f9 41504231 		.ascii	"APB1ENR\000"
 2469      454E5200 
 2470              	.LASF17:
 2471 0101 41484231 		.ascii	"AHB1RSTR\000"
 2471      52535452 
 2471      00
 2472              	.LASF9:
 2473 010a 75696E74 		.ascii	"uint32_t\000"
 2473      33325F74 
 2473      00
 2474              	.LASF80:
 2475 0113 63636572 		.ascii	"ccer\000"
 2475      00
 2476              	.LASF43:
 2477 0118 44434B43 		.ascii	"DCKCFGR\000"
 2477      46475200 
 2478              	.LASF85:
 2479 0120 77696474 		.ascii	"width\000"
 2479      6800
 2480              	.LASF26:
 2481 0126 41484233 		.ascii	"AHB3ENR\000"
 2481      454E5200 
 2482              	.LASF11:
 2483 012e 6C6F6E67 		.ascii	"long long int\000"
 2483      206C6F6E 
 2483      6720696E 
 2483      7400
 2484              	.LASF8:
 2485 013c 6C6F6E67 		.ascii	"long int\000"
 2485      20696E74 
 2485      00
 2486              	.LASF53:
 2487 0145 43435235 		.ascii	"CCR5\000"
 2487      00
 2488              	.LASF54:
 2489 014a 43435236 		.ascii	"CCR6\000"
 2489      00
ARM GAS  C:\Users\DNIEL~1\AppData\Local\Temp\cc3iwxtd.s 			page 47


 2490              	.LASF10:
 2491 014f 6C6F6E67 		.ascii	"long unsigned int\000"
 2491      20756E73 
 2491      69676E65 
 2491      6420696E 
 2491      7400
 2492              	.LASF63:
 2493 0161 70657269 		.ascii	"period\000"
 2493      6F6400
 2494              	.LASF22:
 2495 0168 41504232 		.ascii	"APB2RSTR\000"
 2495      52535452 
 2495      00
 2496              	.LASF47:
 2497 0171 43434D52 		.ascii	"CCMR1\000"
 2497      3100
 2498              	.LASF81:
 2499 0177 70776D5F 		.ascii	"pwm_lld_start\000"
 2499      6C6C645F 
 2499      73746172 
 2499      7400
 2500              	.LASF75:
 2501 0185 50574D43 		.ascii	"PWMConfig\000"
 2501      6F6E6669 
 2501      6700
 2502              	.LASF52:
 2503 018f 43434D52 		.ascii	"CCMR3\000"
 2503      3300
 2504              	.LASF76:
 2505 0195 56656374 		.ascii	"VectorB8\000"
 2505      6F724238 
 2505      00
 2506              	.LASF79:
 2507 019e 70776D70 		.ascii	"pwmp\000"
 2507      00
 2508              	.LASF45:
 2509 01a3 534D4352 		.ascii	"SMCR\000"
 2509      00
 2510              	.LASF56:
 2511 01a8 50574D5F 		.ascii	"PWM_UNINIT\000"
 2511      554E494E 
 2511      495400
 2512              	.LASF2:
 2513 01b3 756E7369 		.ascii	"unsigned char\000"
 2513      676E6564 
 2513      20636861 
 2513      7200
 2514              	.LASF83:
 2515 01c1 70776D5F 		.ascii	"pwm_lld_enable_channel\000"
 2515      6C6C645F 
 2515      656E6162 
 2515      6C655F63 
 2515      68616E6E 
 2516              	.LASF29:
 2517 01d8 41504232 		.ascii	"APB2ENR\000"
 2517      454E5200 
 2518              	.LASF1:
ARM GAS  C:\Users\DNIEL~1\AppData\Local\Temp\cc3iwxtd.s 			page 48


 2519 01e0 7369676E 		.ascii	"signed char\000"
 2519      65642063 
 2519      68617200 
 2520              	.LASF12:
 2521 01ec 6C6F6E67 		.ascii	"long long unsigned int\000"
 2521      206C6F6E 
 2521      6720756E 
 2521      7369676E 
 2521      65642069 
 2522              	.LASF0:
 2523 0203 756E7369 		.ascii	"unsigned int\000"
 2523      676E6564 
 2523      20696E74 
 2523      00
 2524              	.LASF18:
 2525 0210 41484232 		.ascii	"AHB2RSTR\000"
 2525      52535452 
 2525      00
 2526              	.LASF5:
 2527 0219 75696E74 		.ascii	"uint16_t\000"
 2527      31365F74 
 2527      00
 2528              	.LASF82:
 2529 0222 70776D5F 		.ascii	"pwm_lld_stop\000"
 2529      6C6C645F 
 2529      73746F70 
 2529      00
 2530              	.LASF50:
 2531 022f 42445452 		.ascii	"BDTR\000"
 2531      00
 2532              	.LASF46:
 2533 0234 44494552 		.ascii	"DIER\000"
 2533      00
 2534              	.LASF15:
 2535 0239 504C4C43 		.ascii	"PLLCFGR\000"
 2535      46475200 
 2536              	.LASF6:
 2537 0241 73686F72 		.ascii	"short unsigned int\000"
 2537      7420756E 
 2537      7369676E 
 2537      65642069 
 2537      6E7400
 2538              	.LASF35:
 2539 0254 41504231 		.ascii	"APB1LPENR\000"
 2539      4C50454E 
 2539      5200
 2540              	.LASF78:
 2541 025e 70776D5F 		.ascii	"pwm_lld_init\000"
 2541      6C6C645F 
 2541      696E6974 
 2541      00
 2542              	.LASF14:
 2543 026b 63686172 		.ascii	"char\000"
 2543      00
 2544              	.LASF55:
 2545 0270 73746D33 		.ascii	"stm32_tim_t\000"
 2545      325F7469 
ARM GAS  C:\Users\DNIEL~1\AppData\Local\Temp\cc3iwxtd.s 			page 49


 2545      6D5F7400 
 2546              	.LASF60:
 2547 027c 50574D44 		.ascii	"PWMDriver\000"
 2547      72697665 
 2547      7200
 2548              	.LASF7:
 2549 0286 696E7433 		.ascii	"int32_t\000"
 2549      325F7400 
 2550              	.LASF13:
 2551 028e 5F426F6F 		.ascii	"_Bool\000"
 2551      6C00
 2552              	.LASF84:
 2553 0294 6368616E 		.ascii	"channel\000"
 2553      6E656C00 
 2554              	.LASF32:
 2555 029c 41484232 		.ascii	"AHB2LPENR\000"
 2555      4C50454E 
 2555      5200
 2556              	.LASF89:
 2557 02a6 50574D44 		.ascii	"PWMD5\000"
 2557      3500
 2558              	.LASF20:
 2559 02ac 52455345 		.ascii	"RESERVED0\000"
 2559      52564544 
 2559      3000
 2560              	.LASF23:
 2561 02b6 52455345 		.ascii	"RESERVED1\000"
 2561      52564544 
 2561      3100
 2562              	.LASF27:
 2563 02c0 52455345 		.ascii	"RESERVED2\000"
 2563      52564544 
 2563      3200
 2564              	.LASF30:
 2565 02ca 52455345 		.ascii	"RESERVED3\000"
 2565      52564544 
 2565      3300
 2566              	.LASF34:
 2567 02d4 52455345 		.ascii	"RESERVED4\000"
 2567      52564544 
 2567      3400
 2568              	.LASF37:
 2569 02de 52455345 		.ascii	"RESERVED5\000"
 2569      52564544 
 2569      3500
 2570              	.LASF39:
 2571 02e8 52455345 		.ascii	"RESERVED6\000"
 2571      52564544 
 2571      3600
 2572              	.LASF64:
 2573 02f2 636C6F63 		.ascii	"clock\000"
 2573      6B00
 2574              	.LASF90:
 2575 02f8 474E5520 		.ascii	"GNU C 4.5.2\000"
 2575      4320342E 
 2575      352E3200 
 2576              	.LASF86:
ARM GAS  C:\Users\DNIEL~1\AppData\Local\Temp\cc3iwxtd.s 			page 50


 2577 0304 70776D5F 		.ascii	"pwm_lld_disable_channel\000"
 2577      6C6C645F 
 2577      64697361 
 2577      626C655F 
 2577      6368616E 
 2578              	.LASF73:
 2579 031c 6368616E 		.ascii	"channels\000"
 2579      6E656C73 
 2579      00
 2580              	.LASF58:
 2581 0325 50574D5F 		.ascii	"PWM_READY\000"
 2581      52454144 
 2581      5900
 2582              	.LASF57:
 2583 032f 50574D5F 		.ascii	"PWM_STOP\000"
 2583      53544F50 
 2583      00
 2584              	.LASF74:
 2585 0338 64696572 		.ascii	"dier\000"
 2585      00
 2586              	.LASF72:
 2587 033d 66726571 		.ascii	"frequency\000"
 2587      75656E63 
 2587      7900
 2588              	.LASF71:
 2589 0347 50574D43 		.ascii	"PWMChannelConfig\000"
 2589      68616E6E 
 2589      656C436F 
 2589      6E666967 
 2589      00
 2590              	.LASF91:
 2591 0358 2E2E2F2E 		.ascii	"../../../ChibiOS/os/hal/platforms/STM32/TIMv1/pwm_l"
 2591      2E2F2E2E 
 2591      2F436869 
 2591      62694F53 
 2591      2F6F732F 
 2592 038b 6C642E63 		.ascii	"ld.c\000"
 2592      00
 2593              	.LASF19:
 2594 0390 41484233 		.ascii	"AHB3RSTR\000"
 2594      52535452 
 2594      00
 2595              	.LASF66:
 2596 0399 70776D6D 		.ascii	"pwmmode_t\000"
 2596      6F64655F 
 2596      7400
 2597              	.LASF87:
 2598 03a3 49544D5F 		.ascii	"ITM_RxBuffer\000"
 2598      52784275 
 2598      66666572 
 2598      00
 2599              	.LASF42:
 2600 03b0 504C4C53 		.ascii	"PLLSAICFGR\000"
 2600      41494346 
 2600      475200
 2601              	.LASF59:
 2602 03bb 70776D73 		.ascii	"pwmstate_t\000"
ARM GAS  C:\Users\DNIEL~1\AppData\Local\Temp\cc3iwxtd.s 			page 51


 2602      74617465 
 2602      5F7400
 2603              	.LASF65:
 2604 03c6 70776D63 		.ascii	"pwmcallback_t\000"
 2604      616C6C62 
 2604      61636B5F 
 2604      7400
 2605              	.LASF36:
 2606 03d4 41504232 		.ascii	"APB2LPENR\000"
 2606      4C50454E 
 2606      5200
 2607              	.LASF70:
 2608 03de 63616C6C 		.ascii	"callback\000"
 2608      6261636B 
 2608      00
 2609              		.ident	"GCC: (Sourcery G++ Lite 2011.03-42) 4.5.2"
ARM GAS  C:\Users\DNIEL~1\AppData\Local\Temp\cc3iwxtd.s 			page 52


DEFINED SYMBOLS
                            *ABS*:00000000 pwm_lld.c
C:\Users\DNIEL~1\AppData\Local\Temp\cc3iwxtd.s:24     .text.pwm_lld_serve_interrupt:00000000 $t
C:\Users\DNIEL~1\AppData\Local\Temp\cc3iwxtd.s:29     .text.pwm_lld_serve_interrupt:00000000 pwm_lld_serve_interrupt
C:\Users\DNIEL~1\AppData\Local\Temp\cc3iwxtd.s:118    .text.VectorB8:00000000 $t
C:\Users\DNIEL~1\AppData\Local\Temp\cc3iwxtd.s:124    .text.VectorB8:00000000 VectorB8
C:\Users\DNIEL~1\AppData\Local\Temp\cc3iwxtd.s:145    .text.VectorB8:00000010 $d
C:\Users\DNIEL~1\AppData\Local\Temp\cc3iwxtd.s:150    .text.Vector108:00000000 $t
C:\Users\DNIEL~1\AppData\Local\Temp\cc3iwxtd.s:156    .text.Vector108:00000000 Vector108
C:\Users\DNIEL~1\AppData\Local\Temp\cc3iwxtd.s:177    .text.Vector108:00000010 $d
C:\Users\DNIEL~1\AppData\Local\Temp\cc3iwxtd.s:182    .text.pwm_lld_init:00000000 $t
C:\Users\DNIEL~1\AppData\Local\Temp\cc3iwxtd.s:188    .text.pwm_lld_init:00000000 pwm_lld_init
C:\Users\DNIEL~1\AppData\Local\Temp\cc3iwxtd.s:224    .text.pwm_lld_init:0000001c $d
C:\Users\DNIEL~1\AppData\Local\Temp\cc3iwxtd.s:232    .text.pwm_lld_start:00000000 $t
C:\Users\DNIEL~1\AppData\Local\Temp\cc3iwxtd.s:238    .text.pwm_lld_start:00000000 pwm_lld_start
C:\Users\DNIEL~1\AppData\Local\Temp\cc3iwxtd.s:475    .text.pwm_lld_start:00000120 $d
C:\Users\DNIEL~1\AppData\Local\Temp\cc3iwxtd.s:483    .text.pwm_lld_stop:00000000 $t
C:\Users\DNIEL~1\AppData\Local\Temp\cc3iwxtd.s:489    .text.pwm_lld_stop:00000000 pwm_lld_stop
C:\Users\DNIEL~1\AppData\Local\Temp\cc3iwxtd.s:554    .text.pwm_lld_stop:00000044 $d
C:\Users\DNIEL~1\AppData\Local\Temp\cc3iwxtd.s:561    .text.pwm_lld_enable_channel:00000000 $t
C:\Users\DNIEL~1\AppData\Local\Temp\cc3iwxtd.s:567    .text.pwm_lld_enable_channel:00000000 pwm_lld_enable_channel
C:\Users\DNIEL~1\AppData\Local\Temp\cc3iwxtd.s:624    .text.pwm_lld_disable_channel:00000000 $t
C:\Users\DNIEL~1\AppData\Local\Temp\cc3iwxtd.s:630    .text.pwm_lld_disable_channel:00000000 pwm_lld_disable_channel
C:\Users\DNIEL~1\AppData\Local\Temp\cc3iwxtd.s:664    .bss.PWMD4:00000000 PWMD4
C:\Users\DNIEL~1\AppData\Local\Temp\cc3iwxtd.s:671    .bss.PWMD5:00000000 PWMD5
C:\Users\DNIEL~1\AppData\Local\Temp\cc3iwxtd.s:660    .bss.PWMD4:00000000 $d
C:\Users\DNIEL~1\AppData\Local\Temp\cc3iwxtd.s:667    .bss.PWMD5:00000000 $d
                     .debug_frame:00000010 $d
C:\Users\DNIEL~1\AppData\Local\Temp\cc3iwxtd.s:149    .text.VectorB8:00000014 $t
C:\Users\DNIEL~1\AppData\Local\Temp\cc3iwxtd.s:181    .text.Vector108:00000014 $t
C:\Users\DNIEL~1\AppData\Local\Temp\cc3iwxtd.s:231    .text.pwm_lld_init:0000002c $t

UNDEFINED SYMBOLS
_port_irq_epilogue
pwmObjectInit
nvicEnableVector
nvicDisableVector
