ARM GAS  C:\Users\DNIEL~1\AppData\Local\Temp\ccuuZZtq.s 			page 1


   1              		.syntax unified
   2              		.cpu cortex-m4
   3              		.fpu softvfp
   4              		.eabi_attribute 20, 1
   5              		.eabi_attribute 21, 1
   6              		.eabi_attribute 23, 3
   7              		.eabi_attribute 24, 1
   8              		.eabi_attribute 25, 1
   9              		.eabi_attribute 26, 1
  10              		.eabi_attribute 30, 2
  11              		.eabi_attribute 34, 1
  12              		.eabi_attribute 18, 4
  13              		.thumb
  14              		.file	"pwm_lld.c"
  15              		.text
  16              	.Ltext0:
  17              		.cfi_sections	.debug_frame
  18              		.section	.text.pwm_lld_serve_interrupt,"ax",%progbits
  19              		.align	2
  20              		.p2align 4,,15
  21              		.thumb
  22              		.thumb_func
  23              		.type	pwm_lld_serve_interrupt, %function
  24              	pwm_lld_serve_interrupt:
  25              	.LFB118:
  26              		.file 1 "../../../ChibiOS/os/hal/platforms/STM32/TIMv1/pwm_lld.c"
  27              		.loc 1 112 0
  28              		.cfi_startproc
  29              		@ args = 0, pretend = 0, frame = 0
  30              		@ frame_needed = 0, uses_anonymous_args = 0
  31              	.LVL0:
  32 0000 38B5     		push	{r3, r4, r5, lr}
  33              	.LCFI0:
  34              		.cfi_def_cfa_offset 16
  35              		.cfi_offset 3, -16
  36              		.cfi_offset 4, -12
  37              		.cfi_offset 5, -8
  38              		.cfi_offset 14, -4
  39              		.loc 1 115 0
  40 0002 0369     		ldr	r3, [r0, #16]
  41 0004 1A69     		ldr	r2, [r3, #16]
  42              	.LVL1:
  43              		.loc 1 116 0
  44 0006 DC68     		ldr	r4, [r3, #12]
  45 0008 1440     		ands	r4, r4, r2
  46 000a A4B2     		uxth	r4, r4
  47              	.LVL2:
  48              		.loc 1 117 0
  49 000c E1B2     		uxtb	r1, r4
  50              		.loc 1 118 0
  51 000e 04F00202 		and	r2, r4, #2
  52              		.loc 1 117 0
  53 0012 C943     		mvns	r1, r1
  54              		.loc 1 118 0
  55 0014 92B2     		uxth	r2, r2
  56              		.loc 1 112 0
  57 0016 0546     		mov	r5, r0
ARM GAS  C:\Users\DNIEL~1\AppData\Local\Temp\ccuuZZtq.s 			page 2


  58              		.loc 1 117 0
  59 0018 1961     		str	r1, [r3, #16]
  60              		.loc 1 118 0
  61 001a 0ABB     		cbnz	r2, .L23
  62              	.LVL3:
  63              	.L2:
  64              		.loc 1 120 0
  65 001c 04F00400 		and	r0, r4, #4
  66 0020 82B2     		uxth	r2, r0
  67 0022 C2B9     		cbnz	r2, .L24
  68              	.L3:
  69              		.loc 1 122 0
  70 0024 04F00800 		and	r0, r4, #8
  71 0028 82B2     		uxth	r2, r0
  72 002a 7AB9     		cbnz	r2, .L25
  73              	.L4:
  74              		.loc 1 124 0
  75 002c 04F01000 		and	r0, r4, #16
  76 0030 82B2     		uxth	r2, r0
  77 0032 32B9     		cbnz	r2, .L26
  78              	.L5:
  79              		.loc 1 126 0
  80 0034 E307     		lsls	r3, r4, #31
  81 0036 03D5     		bpl	.L1
  82              		.loc 1 127 0
  83 0038 6A68     		ldr	r2, [r5, #4]
  84 003a 2846     		mov	r0, r5
  85 003c 9368     		ldr	r3, [r2, #8]
  86 003e 9847     		blx	r3
  87              	.LVL4:
  88              	.L1:
  89 0040 38BD     		pop	{r3, r4, r5, pc}
  90              	.L26:
  91              		.loc 1 125 0
  92 0042 6B68     		ldr	r3, [r5, #4]
  93 0044 2846     		mov	r0, r5
  94 0046 996A     		ldr	r1, [r3, #40]
  95 0048 8847     		blx	r1
  96              	.LVL5:
  97 004a F3E7     		b	.L5
  98              	.L25:
  99              		.loc 1 123 0
 100 004c 6B68     		ldr	r3, [r5, #4]
 101 004e 2846     		mov	r0, r5
 102 0050 196A     		ldr	r1, [r3, #32]
 103 0052 8847     		blx	r1
 104              	.LVL6:
 105 0054 EAE7     		b	.L4
 106              	.L24:
 107              		.loc 1 121 0
 108 0056 6B68     		ldr	r3, [r5, #4]
 109 0058 2846     		mov	r0, r5
 110 005a 9969     		ldr	r1, [r3, #24]
 111 005c 8847     		blx	r1
 112              	.LVL7:
 113 005e E1E7     		b	.L3
 114              	.LVL8:
ARM GAS  C:\Users\DNIEL~1\AppData\Local\Temp\ccuuZZtq.s 			page 3


 115              	.L23:
 116              		.loc 1 119 0
 117 0060 4368     		ldr	r3, [r0, #4]
 118 0062 1969     		ldr	r1, [r3, #16]
 119 0064 8847     		blx	r1
 120              	.LVL9:
 121 0066 D9E7     		b	.L2
 122              		.cfi_endproc
 123              	.LFE118:
 124              		.size	pwm_lld_serve_interrupt, .-pwm_lld_serve_interrupt
 125 0068 AFF30080 		.section	.text.VectorB8,"ax",%progbits
 125      AFF30080 
 126              		.align	2
 127              		.p2align 4,,15
 128              		.global	VectorB8
 129              		.thumb
 130              		.thumb_func
 131              		.type	VectorB8, %function
 132              	VectorB8:
 133              	.LFB119:
 134              		.loc 1 235 0
 135              		.cfi_startproc
 136              		@ args = 0, pretend = 0, frame = 0
 137              		@ frame_needed = 0, uses_anonymous_args = 0
 138 0000 08B5     		push	{r3, lr}
 139              	.LCFI1:
 140              		.cfi_def_cfa_offset 8
 141              		.cfi_offset 3, -8
 142              		.cfi_offset 14, -4
 143              		.loc 1 239 0
 144 0002 40F20000 		movw	r0, #:lower16:.LANCHOR0
 145 0006 C0F20000 		movt	r0, #:upper16:.LANCHOR0
 146 000a FFF7FEFF 		bl	pwm_lld_serve_interrupt
 147              	.LVL10:
 148              		.loc 1 242 0
 149 000e BDE80840 		pop	{r3, lr}
 150              		.loc 1 241 0
 151 0012 FFF7FEBF 		b	_port_irq_epilogue
 152              	.LVL11:
 153              		.cfi_endproc
 154              	.LFE119:
 155              		.size	VectorB8, .-VectorB8
 156 0016 00BFAFF3 		.section	.text.Vector108,"ax",%progbits
 156      0080AFF3 
 156      0080
 157              		.align	2
 158              		.p2align 4,,15
 159              		.global	Vector108
 160              		.thumb
 161              		.thumb_func
 162              		.type	Vector108, %function
 163              	Vector108:
 164              	.LFB120:
 165              		.loc 1 254 0
 166              		.cfi_startproc
 167              		@ args = 0, pretend = 0, frame = 0
 168              		@ frame_needed = 0, uses_anonymous_args = 0
ARM GAS  C:\Users\DNIEL~1\AppData\Local\Temp\ccuuZZtq.s 			page 4


 169 0000 08B5     		push	{r3, lr}
 170              	.LCFI2:
 171              		.cfi_def_cfa_offset 8
 172              		.cfi_offset 3, -8
 173              		.cfi_offset 14, -4
 174              		.loc 1 258 0
 175 0002 40F20000 		movw	r0, #:lower16:.LANCHOR1
 176 0006 C0F20000 		movt	r0, #:upper16:.LANCHOR1
 177 000a FFF7FEFF 		bl	pwm_lld_serve_interrupt
 178              	.LVL12:
 179              		.loc 1 261 0
 180 000e BDE80840 		pop	{r3, lr}
 181              		.loc 1 260 0
 182 0012 FFF7FEBF 		b	_port_irq_epilogue
 183              	.LVL13:
 184              		.cfi_endproc
 185              	.LFE120:
 186              		.size	Vector108, .-Vector108
 187 0016 00BFAFF3 		.section	.text.pwm_lld_init,"ax",%progbits
 187      0080AFF3 
 187      0080
 188              		.align	2
 189              		.p2align 4,,15
 190              		.global	pwm_lld_init
 191              		.thumb
 192              		.thumb_func
 193              		.type	pwm_lld_init, %function
 194              	pwm_lld_init:
 195              	.LFB121:
 196              		.loc 1 345 0
 197              		.cfi_startproc
 198              		@ args = 0, pretend = 0, frame = 0
 199              		@ frame_needed = 0, uses_anonymous_args = 0
 200 0000 38B5     		push	{r3, r4, r5, lr}
 201              	.LCFI3:
 202              		.cfi_def_cfa_offset 16
 203              		.cfi_offset 3, -16
 204              		.cfi_offset 4, -12
 205              		.cfi_offset 5, -8
 206              		.cfi_offset 14, -4
 207              		.loc 1 367 0
 208 0002 40F20005 		movw	r5, #:lower16:.LANCHOR0
 209 0006 C0F20005 		movt	r5, #:upper16:.LANCHOR0
 210 000a 2846     		mov	r0, r5
 211              		.loc 1 373 0
 212 000c 40F20004 		movw	r4, #:lower16:.LANCHOR1
 213              		.loc 1 367 0
 214 0010 FFF7FEFF 		bl	pwmObjectInit
 215              	.LVL14:
 216              		.loc 1 373 0
 217 0014 C0F20004 		movt	r4, #:upper16:.LANCHOR1
 218              		.loc 1 368 0
 219 0018 4FF40063 		mov	r3, #2048
 220 001c C4F20003 		movt	r3, 16384
 221              		.loc 1 373 0
 222 0020 2046     		mov	r0, r4
 223              		.loc 1 368 0
ARM GAS  C:\Users\DNIEL~1\AppData\Local\Temp\ccuuZZtq.s 			page 5


 224 0022 2B61     		str	r3, [r5, #16]
 225              		.loc 1 373 0
 226 0024 FFF7FEFF 		bl	pwmObjectInit
 227              	.LVL15:
 228              		.loc 1 374 0
 229 0028 4FF44060 		mov	r0, #3072
 230 002c C4F20000 		movt	r0, 16384
 231 0030 2061     		str	r0, [r4, #16]
 232 0032 38BD     		pop	{r3, r4, r5, pc}
 233              		.cfi_endproc
 234              	.LFE121:
 235              		.size	pwm_lld_init, .-pwm_lld_init
 236 0034 AFF30080 		.section	.text.pwm_lld_start,"ax",%progbits
 236      AFF30080 
 236      AFF30080 
 237              		.align	2
 238              		.p2align 4,,15
 239              		.global	pwm_lld_start
 240              		.thumb
 241              		.thumb_func
 242              		.type	pwm_lld_start, %function
 243              	pwm_lld_start:
 244              	.LFB122:
 245              		.loc 1 399 0
 246              		.cfi_startproc
 247              		@ args = 0, pretend = 0, frame = 0
 248              		@ frame_needed = 0, uses_anonymous_args = 0
 249              	.LVL16:
 250              		.loc 1 403 0
 251 0000 0378     		ldrb	r3, [r0, #0]	@ zero_extendqisi2
 252 0002 012B     		cmp	r3, #1
 253              		.loc 1 399 0
 254 0004 70B5     		push	{r4, r5, r6, lr}
 255              	.LCFI4:
 256              		.cfi_def_cfa_offset 16
 257              		.cfi_offset 4, -16
 258              		.cfi_offset 5, -12
 259              		.cfi_offset 6, -8
 260              		.cfi_offset 14, -4
 261              		.loc 1 399 0
 262 0006 0446     		mov	r4, r0
 263              		.loc 1 403 0
 264 0008 61D0     		beq	.L59
 265              		.loc 1 491 0
 266 000a 0369     		ldr	r3, [r0, #16]
 267 000c 0022     		movs	r2, #0
 268 000e 1A60     		str	r2, [r3, #0]
 269              		.loc 1 492 0
 270 0010 5A63     		str	r2, [r3, #52]
 271              		.loc 1 493 0
 272 0012 9A63     		str	r2, [r3, #56]
 273              		.loc 1 494 0
 274 0014 DA63     		str	r2, [r3, #60]
 275              		.loc 1 495 0
 276 0016 1A64     		str	r2, [r3, #64]
 277              		.loc 1 496 0
 278 0018 5A62     		str	r2, [r3, #36]
ARM GAS  C:\Users\DNIEL~1\AppData\Local\Temp\ccuuZZtq.s 			page 6


 279              	.LVL17:
 280              	.L34:
 281              		.loc 1 500 0
 282 001a 6268     		ldr	r2, [r4, #4]
 283              	.LVL18:
 284 001c E668     		ldr	r6, [r4, #12]
 285 001e 1568     		ldr	r5, [r2, #0]
 286              		.loc 1 505 0
 287 0020 2489     		ldrh	r4, [r4, #8]
 288              	.LVL19:
 289              		.loc 1 510 0
 290 0022 D168     		ldr	r1, [r2, #12]
 291              		.loc 1 506 0
 292 0024 D06A     		ldr	r0, [r2, #44]
 293              		.loc 1 500 0
 294 0026 B6FBF5F5 		udiv	r5, r6, r5
 295 002a 013D     		subs	r5, r5, #1
 296              	.LVL20:
 297              		.loc 1 505 0
 298 002c 013C     		subs	r4, r4, #1
 299              		.loc 1 510 0
 300 002e 01F00F01 		and	r1, r1, #15
 301              		.loc 1 504 0
 302 0032 ADB2     		uxth	r5, r5
 303              	.LVL21:
 304              		.loc 1 505 0
 305 0034 A4B2     		uxth	r4, r4
 306              		.loc 1 510 0
 307 0036 0129     		cmp	r1, #1
 308              		.loc 1 504 0
 309 0038 9D62     		str	r5, [r3, #40]
 310              		.loc 1 505 0
 311 003a DC62     		str	r4, [r3, #44]
 312              		.loc 1 506 0
 313 003c 5860     		str	r0, [r3, #4]
 314              	.LVL22:
 315              		.loc 1 510 0
 316 003e 03D0     		beq	.L35
 317              		.loc 1 509 0
 318 0040 0229     		cmp	r1, #2
 319 0042 0CBF     		ite	eq
 320 0044 0321     		moveq	r1, #3
 321 0046 0021     		movne	r1, #0
 322              	.L35:
 323              	.LVL23:
 324              		.loc 1 518 0
 325 0048 5069     		ldr	r0, [r2, #20]
 326 004a 00F00F04 		and	r4, r0, #15
 327 004e 012C     		cmp	r4, #1
 328 0050 22D0     		beq	.L39
 329 0052 022C     		cmp	r4, #2
 330 0054 1ED0     		beq	.L60
 331              		.loc 1 526 0
 332 0056 D069     		ldr	r0, [r2, #28]
 333 0058 00F00F04 		and	r4, r0, #15
 334 005c 012C     		cmp	r4, #1
 335 005e 22D0     		beq	.L42
ARM GAS  C:\Users\DNIEL~1\AppData\Local\Temp\ccuuZZtq.s 			page 7


 336              	.L63:
 337 0060 022C     		cmp	r4, #2
 338 0062 2FD0     		beq	.L61
 339              		.loc 1 534 0
 340 0064 506A     		ldr	r0, [r2, #36]
 341 0066 00F00F04 		and	r4, r0, #15
 342 006a 012C     		cmp	r4, #1
 343 006c 22D0     		beq	.L45
 344              	.L64:
 345 006e 022C     		cmp	r4, #2
 346 0070 23D0     		beq	.L62
 347              	.L44:
 348              		.loc 1 583 0
 349 0072 146B     		ldr	r4, [r2, #48]
 350              		.loc 1 582 0
 351 0074 9068     		ldr	r0, [r2, #8]
 352              		.loc 1 579 0
 353 0076 1962     		str	r1, [r3, #32]
 354              		.loc 1 583 0
 355 0078 24F0FF02 		bic	r2, r4, #255
 356              	.LVL24:
 357              		.loc 1 582 0
 358 007c 0028     		cmp	r0, #0
 359 007e 18BF     		it	ne
 360 0080 42F00102 		orrne	r2, r2, #1
 361              		.loc 1 580 0
 362 0084 0121     		movs	r1, #1
 363              	.LVL25:
 364              		.loc 1 581 0
 365 0086 0020     		movs	r0, #0
 366              		.loc 1 580 0
 367 0088 5961     		str	r1, [r3, #20]
 368              		.loc 1 581 0
 369 008a 1861     		str	r0, [r3, #16]
 370              		.loc 1 582 0
 371 008c DA60     		str	r2, [r3, #12]
 372              		.loc 1 592 0
 373 008e 8522     		movs	r2, #133
 374 0090 1A60     		str	r2, [r3, #0]
 375 0092 70BD     		pop	{r4, r5, r6, pc}
 376              	.LVL26:
 377              	.L60:
 378              		.loc 1 520 0
 379 0094 41F02001 		orr	r1, r1, #32
 380              	.LVL27:
 381              	.L39:
 382              		.loc 1 526 0
 383 0098 D069     		ldr	r0, [r2, #28]
 384 009a 00F00F04 		and	r4, r0, #15
 385 009e 012C     		cmp	r4, #1
 386              		.loc 1 522 0
 387 00a0 41F01001 		orr	r1, r1, #16
 388              	.LVL28:
 389              		.loc 1 526 0
 390 00a4 DCD1     		bne	.L63
 391              	.L42:
 392              		.loc 1 530 0
ARM GAS  C:\Users\DNIEL~1\AppData\Local\Temp\ccuuZZtq.s 			page 8


 393 00a6 41F48071 		orr	r1, r1, #256
 394              	.LVL29:
 395              	.L65:
 396              		.loc 1 534 0
 397 00aa 506A     		ldr	r0, [r2, #36]
 398 00ac 00F00F04 		and	r4, r0, #15
 399 00b0 012C     		cmp	r4, #1
 400 00b2 DCD1     		bne	.L64
 401              	.L45:
 402              		.loc 1 538 0
 403 00b4 41F48051 		orr	r1, r1, #4096
 404              	.LVL30:
 405 00b8 DBE7     		b	.L44
 406              	.L62:
 407              		.loc 1 536 0
 408 00ba 41F40051 		orr	r1, r1, #8192
 409              	.LVL31:
 410              		.loc 1 538 0
 411 00be 41F48051 		orr	r1, r1, #4096
 412              	.LVL32:
 413 00c2 D6E7     		b	.L44
 414              	.L61:
 415              		.loc 1 528 0
 416 00c4 41F40071 		orr	r1, r1, #512
 417              	.LVL33:
 418              		.loc 1 530 0
 419 00c8 41F48071 		orr	r1, r1, #256
 420              	.LVL34:
 421 00cc EDE7     		b	.L65
 422              	.LVL35:
 423              	.L59:
 424              		.loc 1 439 0
 425 00ce 1948     		ldr	r0, .L68
 426              	.LVL36:
 427 00d0 8442     		cmp	r4, r0
 428 00d2 08D0     		beq	.L66
 429              		.loc 1 449 0
 430 00d4 1849     		ldr	r1, .L68+4
 431 00d6 8C42     		cmp	r4, r1
 432 00d8 1DD0     		beq	.L67
 433              	.L33:
 434              		.loc 1 484 0
 435 00da 2369     		ldr	r3, [r4, #16]
 436 00dc 46F66800 		movw	r0, #26728
 437 00e0 9861     		str	r0, [r3, #24]
 438              		.loc 1 486 0
 439 00e2 D861     		str	r0, [r3, #28]
 440 00e4 99E7     		b	.L34
 441              	.L66:
 442              		.loc 1 440 0
 443 00e6 4FF46055 		mov	r5, #14336
 444 00ea C4F20205 		movt	r5, 16386
 445              		.loc 1 442 0
 446 00ee 1E20     		movs	r0, #30
 447              		.loc 1 440 0
 448 00f0 296C     		ldr	r1, [r5, #64]
 449 00f2 41F00406 		orr	r6, r1, #4
ARM GAS  C:\Users\DNIEL~1\AppData\Local\Temp\ccuuZZtq.s 			page 9


 450 00f6 2E64     		str	r6, [r5, #64]
 451              		.loc 1 441 0
 452 00f8 2B6A     		ldr	r3, [r5, #32]
 453 00fa 43F00402 		orr	r2, r3, #4
 454 00fe 2A62     		str	r2, [r5, #32]
 455              	.L58:
 456              		.loc 1 451 0
 457 0100 0021     		movs	r1, #0
 458 0102 2962     		str	r1, [r5, #32]
 459              		.loc 1 454 0
 460 0104 4FF43D45 		mov	r5, #48384
 461              		.loc 1 452 0
 462 0108 7021     		movs	r1, #112
 463              		.loc 1 454 0
 464 010a C0F20155 		movt	r5, 1281
 465              		.loc 1 452 0
 466 010e FFF7FEFF 		bl	nvicEnableVector
 467              	.LVL37:
 468              		.loc 1 454 0
 469 0112 E560     		str	r5, [r4, #12]
 470 0114 E1E7     		b	.L33
 471              	.L67:
 472              		.loc 1 450 0
 473 0116 4FF46055 		mov	r5, #14336
 474 011a C4F20205 		movt	r5, 16386
 475 011e 2E6C     		ldr	r6, [r5, #64]
 476 0120 46F00803 		orr	r3, r6, #8
 477 0124 2B64     		str	r3, [r5, #64]
 478              		.loc 1 451 0
 479 0126 2A6A     		ldr	r2, [r5, #32]
 480 0128 42F00800 		orr	r0, r2, #8
 481 012c 2862     		str	r0, [r5, #32]
 482              		.loc 1 452 0
 483 012e 3220     		movs	r0, #50
 484 0130 E6E7     		b	.L58
 485              	.L69:
 486 0132 00BF     		.align	2
 487              	.L68:
 488 0134 00000000 		.word	.LANCHOR0
 489 0138 00000000 		.word	.LANCHOR1
 490              		.cfi_endproc
 491              	.LFE122:
 492              		.size	pwm_lld_start, .-pwm_lld_start
 493 013c AFF30080 		.section	.text.pwm_lld_stop,"ax",%progbits
 494              		.align	2
 495              		.p2align 4,,15
 496              		.global	pwm_lld_stop
 497              		.thumb
 498              		.thumb_func
 499              		.type	pwm_lld_stop, %function
 500              	pwm_lld_stop:
 501              	.LFB123:
 502              		.loc 1 603 0
 503              		.cfi_startproc
 504              		@ args = 0, pretend = 0, frame = 0
 505              		@ frame_needed = 0, uses_anonymous_args = 0
 506              	.LVL38:
ARM GAS  C:\Users\DNIEL~1\AppData\Local\Temp\ccuuZZtq.s 			page 10


 507 0000 08B5     		push	{r3, lr}
 508              	.LCFI5:
 509              		.cfi_def_cfa_offset 8
 510              		.cfi_offset 3, -8
 511              		.cfi_offset 14, -4
 512              		.loc 1 606 0
 513 0002 0378     		ldrb	r3, [r0, #0]	@ zero_extendqisi2
 514 0004 022B     		cmp	r3, #2
 515 0006 00D0     		beq	.L75
 516              	.LVL39:
 517              	.L70:
 518 0008 08BD     		pop	{r3, pc}
 519              	.LVL40:
 520              	.L75:
 521              		.loc 1 634 0
 522 000a 114B     		ldr	r3, .L77
 523              		.loc 1 607 0
 524 000c 0169     		ldr	r1, [r0, #16]
 525 000e 0022     		movs	r2, #0
 526              		.loc 1 634 0
 527 0010 9842     		cmp	r0, r3
 528              		.loc 1 607 0
 529 0012 0A60     		str	r2, [r1, #0]
 530              		.loc 1 608 0
 531 0014 CA60     		str	r2, [r1, #12]
 532              		.loc 1 609 0
 533 0016 0A61     		str	r2, [r1, #16]
 534              		.loc 1 634 0
 535 0018 0ED0     		beq	.L76
 536              		.loc 1 640 0
 537 001a 0E49     		ldr	r1, .L77+4
 538 001c 8842     		cmp	r0, r1
 539 001e F3D1     		bne	.L70
 540              		.loc 1 641 0
 541 0020 3220     		movs	r0, #50
 542              	.LVL41:
 543 0022 FFF7FEFF 		bl	nvicDisableVector
 544              	.LVL42:
 545              		.loc 1 642 0
 546 0026 4FF46050 		mov	r0, #14336
 547 002a C4F20200 		movt	r0, 16386
 548 002e 026C     		ldr	r2, [r0, #64]
 549 0030 22F00803 		bic	r3, r2, #8
 550 0034 0364     		str	r3, [r0, #64]
 551 0036 E7E7     		b	.L70
 552              	.LVL43:
 553              	.L76:
 554              		.loc 1 635 0
 555 0038 1E20     		movs	r0, #30
 556              	.LVL44:
 557 003a FFF7FEFF 		bl	nvicDisableVector
 558              	.LVL45:
 559              		.loc 1 636 0
 560 003e 4FF46051 		mov	r1, #14336
 561 0042 C4F20201 		movt	r1, 16386
 562 0046 086C     		ldr	r0, [r1, #64]
 563 0048 20F00402 		bic	r2, r0, #4
ARM GAS  C:\Users\DNIEL~1\AppData\Local\Temp\ccuuZZtq.s 			page 11


 564 004c 0A64     		str	r2, [r1, #64]
 565 004e 08BD     		pop	{r3, pc}
 566              	.L78:
 567              		.align	2
 568              	.L77:
 569 0050 00000000 		.word	.LANCHOR0
 570 0054 00000000 		.word	.LANCHOR1
 571              		.cfi_endproc
 572              	.LFE123:
 573              		.size	pwm_lld_stop, .-pwm_lld_stop
 574 0058 AFF30080 		.section	.text.pwm_lld_enable_channel,"ax",%progbits
 574      AFF30080 
 575              		.align	2
 576              		.p2align 4,,15
 577              		.global	pwm_lld_enable_channel
 578              		.thumb
 579              		.thumb_func
 580              		.type	pwm_lld_enable_channel, %function
 581              	pwm_lld_enable_channel:
 582              	.LFB124:
 583              		.loc 1 675 0
 584              		.cfi_startproc
 585              		@ args = 0, pretend = 0, frame = 0
 586              		@ frame_needed = 0, uses_anonymous_args = 0
 587              		@ link register save eliminated.
 588              	.LVL46:
 589 0000 10B4     		push	{r4}
 590              	.LCFI6:
 591              		.cfi_def_cfa_offset 4
 592              		.cfi_offset 4, -4
 593              		.loc 1 680 0
 594 0002 4468     		ldr	r4, [r0, #4]
 595              		.loc 1 677 0
 596 0004 0369     		ldr	r3, [r0, #16]
 597              		.loc 1 680 0
 598 0006 04EBC100 		add	r0, r4, r1, lsl #3
 599              	.LVL47:
 600              		.loc 1 677 0
 601 000a 01F10C04 		add	r4, r1, #12
 602 000e 03EB8404 		add	r4, r3, r4, lsl #2
 603              		.loc 1 680 0
 604 0012 0069     		ldr	r0, [r0, #16]
 605              		.loc 1 677 0
 606 0014 6260     		str	r2, [r4, #4]
 607              		.loc 1 680 0
 608 0016 48B1     		cbz	r0, .L79
 609              	.LBB2:
 610              		.loc 1 684 0
 611 0018 0220     		movs	r0, #2
 612              		.loc 1 681 0
 613 001a DA68     		ldr	r2, [r3, #12]
 614              	.LVL48:
 615              		.loc 1 684 0
 616 001c 00FA01F1 		lsl	r1, r0, r1
 617              	.LVL49:
 618 0020 1142     		tst	r1, r2
 619 0022 03D1     		bne	.L79
ARM GAS  C:\Users\DNIEL~1\AppData\Local\Temp\ccuuZZtq.s 			page 12


 620              		.loc 1 685 0
 621 0024 0A43     		orrs	r2, r2, r1
 622              	.LVL50:
 623              		.loc 1 686 0
 624 0026 C843     		mvns	r0, r1
 625              		.loc 1 685 0
 626 0028 DA60     		str	r2, [r3, #12]
 627              		.loc 1 686 0
 628 002a 1861     		str	r0, [r3, #16]
 629              	.L79:
 630              	.LBE2:
 631              		.loc 1 689 0
 632 002c 10BC     		pop	{r4}
 633 002e 7047     		bx	lr
 634              		.cfi_endproc
 635              	.LFE124:
 636              		.size	pwm_lld_enable_channel, .-pwm_lld_enable_channel
 637              		.section	.text.pwm_lld_disable_channel,"ax",%progbits
 638              		.align	2
 639              		.p2align 4,,15
 640              		.global	pwm_lld_disable_channel
 641              		.thumb
 642              		.thumb_func
 643              		.type	pwm_lld_disable_channel, %function
 644              	pwm_lld_disable_channel:
 645              	.LFB125:
 646              		.loc 1 703 0
 647              		.cfi_startproc
 648              		@ args = 0, pretend = 0, frame = 0
 649              		@ frame_needed = 0, uses_anonymous_args = 0
 650              		@ link register save eliminated.
 651              	.LVL51:
 652              		.loc 1 705 0
 653 0000 0369     		ldr	r3, [r0, #16]
 654 0002 01F10C02 		add	r2, r1, #12
 655 0006 03EB8202 		add	r2, r3, r2, lsl #2
 656 000a 0020     		movs	r0, #0
 657              	.LVL52:
 658 000c 5060     		str	r0, [r2, #4]
 659              		.loc 1 706 0
 660 000e DA68     		ldr	r2, [r3, #12]
 661 0010 0220     		movs	r0, #2
 662 0012 00FA01F1 		lsl	r1, r0, r1
 663              	.LVL53:
 664 0016 22EA0102 		bic	r2, r2, r1
 665 001a DA60     		str	r2, [r3, #12]
 666 001c 7047     		bx	lr
 667              		.cfi_endproc
 668              	.LFE125:
 669              		.size	pwm_lld_disable_channel, .-pwm_lld_disable_channel
 670              		.global	PWMD5
 671              		.global	PWMD4
 672 001e 00BF     		.section	.bss.PWMD4,"aw",%nobits
 673              		.align	2
 674              		.set	.LANCHOR0,. + 0
 675              		.type	PWMD4, %object
 676              		.size	PWMD4, 20
ARM GAS  C:\Users\DNIEL~1\AppData\Local\Temp\ccuuZZtq.s 			page 13


 677              	PWMD4:
 678 0000 00000000 		.space	20
 678      00000000 
 678      00000000 
 678      00000000 
 678      00000000 
 679              		.section	.bss.PWMD5,"aw",%nobits
 680              		.align	2
 681              		.set	.LANCHOR1,. + 0
 682              		.type	PWMD5, %object
 683              		.size	PWMD5, 20
 684              	PWMD5:
 685 0000 00000000 		.space	20
 685      00000000 
 685      00000000 
 685      00000000 
 685      00000000 
 686              		.text
 687              	.Letext0:
 688              		.file 2 "c:\\chibistudio\\tools\\gnu tools arm embedded\\4.7 2014q2\\bin\\../lib/gcc/arm-none-eabi
 689              		.file 3 "../../../ChibiOS/os/hal/platforms/STM32F4xx/stm32f4xx.h"
 690              		.file 4 "../../../ChibiOS/os/hal/platforms/STM32/TIMv1/stm32_tim.h"
 691              		.file 5 "../../../ChibiOS/os/hal/include/pwm.h"
 692              		.file 6 "../../../ChibiOS/os/hal/platforms/STM32/TIMv1/pwm_lld.h"
 693              		.file 7 "../../../ChibiOS/os/ports/common/ARMCMx/CMSIS/include/core_cm4.h"
 694              		.file 8 "../../../ChibiOS/os/ports/common/ARMCMx/nvic.h"
 695              		.file 9 "../../../ChibiOS/os/ports/GCC/ARMCMx/chcore_v7m.h"
 696              		.section	.debug_info,"",%progbits
 697              	.Ldebug_info0:
 698 0000 BD080000 		.4byte	0x8bd
 699 0004 0200     		.2byte	0x2
 700 0006 00000000 		.4byte	.Ldebug_abbrev0
 701 000a 04       		.byte	0x4
 702 000b 01       		.uleb128 0x1
 703 000c 6B020000 		.4byte	.LASF93
 704 0010 01       		.byte	0x1
 705 0011 D4030000 		.4byte	.LASF94
 706 0015 1F010000 		.4byte	.LASF95
 707 0019 00000000 		.4byte	.Ldebug_ranges0+0
 708 001d 00000000 		.4byte	0
 709 0021 00000000 		.4byte	0
 710 0025 00000000 		.4byte	.Ldebug_line0
 711 0029 02       		.uleb128 0x2
 712 002a 04       		.byte	0x4
 713 002b 07       		.byte	0x7
 714 002c 47020000 		.4byte	.LASF0
 715 0030 03       		.uleb128 0x3
 716 0031 04       		.byte	0x4
 717 0032 05       		.byte	0x5
 718 0033 696E7400 		.ascii	"int\000"
 719 0037 02       		.uleb128 0x2
 720 0038 01       		.byte	0x1
 721 0039 06       		.byte	0x6
 722 003a 24020000 		.4byte	.LASF1
 723 003e 04       		.uleb128 0x4
 724 003f C8000000 		.4byte	.LASF4
 725 0043 02       		.byte	0x2
ARM GAS  C:\Users\DNIEL~1\AppData\Local\Temp\ccuuZZtq.s 			page 14


 726 0044 2A       		.byte	0x2a
 727 0045 49000000 		.4byte	0x49
 728 0049 02       		.uleb128 0x2
 729 004a 01       		.byte	0x1
 730 004b 08       		.byte	0x8
 731 004c E6010000 		.4byte	.LASF2
 732 0050 02       		.uleb128 0x2
 733 0051 02       		.byte	0x2
 734 0052 05       		.byte	0x5
 735 0053 3E000000 		.4byte	.LASF3
 736 0057 04       		.uleb128 0x4
 737 0058 5D020000 		.4byte	.LASF5
 738 005c 02       		.byte	0x2
 739 005d 36       		.byte	0x36
 740 005e 62000000 		.4byte	0x62
 741 0062 02       		.uleb128 0x2
 742 0063 02       		.byte	0x2
 743 0064 07       		.byte	0x7
 744 0065 C1020000 		.4byte	.LASF6
 745 0069 04       		.uleb128 0x4
 746 006a 06030000 		.4byte	.LASF7
 747 006e 02       		.byte	0x2
 748 006f 4F       		.byte	0x4f
 749 0070 74000000 		.4byte	0x74
 750 0074 02       		.uleb128 0x2
 751 0075 04       		.byte	0x4
 752 0076 05       		.byte	0x5
 753 0077 4A010000 		.4byte	.LASF8
 754 007b 04       		.uleb128 0x4
 755 007c E1000000 		.4byte	.LASF9
 756 0080 02       		.byte	0x2
 757 0081 50       		.byte	0x50
 758 0082 86000000 		.4byte	0x86
 759 0086 02       		.uleb128 0x2
 760 0087 04       		.byte	0x4
 761 0088 07       		.byte	0x7
 762 0089 6F010000 		.4byte	.LASF10
 763 008d 02       		.uleb128 0x2
 764 008e 08       		.byte	0x8
 765 008f 05       		.byte	0x5
 766 0090 11010000 		.4byte	.LASF11
 767 0094 02       		.uleb128 0x2
 768 0095 08       		.byte	0x8
 769 0096 07       		.byte	0x7
 770 0097 30020000 		.4byte	.LASF12
 771 009b 02       		.uleb128 0x2
 772 009c 01       		.byte	0x1
 773 009d 02       		.byte	0x2
 774 009e 0E030000 		.4byte	.LASF13
 775 00a2 05       		.uleb128 0x5
 776 00a3 7B000000 		.4byte	0x7b
 777 00a7 02       		.uleb128 0x2
 778 00a8 04       		.byte	0x4
 779 00a9 07       		.byte	0x7
 780 00aa 51000000 		.4byte	.LASF14
 781 00ae 02       		.uleb128 0x2
 782 00af 01       		.byte	0x1
ARM GAS  C:\Users\DNIEL~1\AppData\Local\Temp\ccuuZZtq.s 			page 15


 783 00b0 08       		.byte	0x8
 784 00b1 EB020000 		.4byte	.LASF15
 785 00b5 06       		.uleb128 0x6
 786 00b6 7B000000 		.4byte	0x7b
 787 00ba C5000000 		.4byte	0xc5
 788 00be 07       		.uleb128 0x7
 789 00bf A7000000 		.4byte	0xa7
 790 00c3 01       		.byte	0x1
 791 00c4 00       		.byte	0
 792 00c5 06       		.uleb128 0x6
 793 00c6 7B000000 		.4byte	0x7b
 794 00ca D5000000 		.4byte	0xd5
 795 00ce 07       		.uleb128 0x7
 796 00cf A7000000 		.4byte	0xa7
 797 00d3 03       		.byte	0x3
 798 00d4 00       		.byte	0
 799 00d5 05       		.uleb128 0x5
 800 00d6 69000000 		.4byte	0x69
 801 00da 08       		.uleb128 0x8
 802 00db 90       		.byte	0x90
 803 00dc 03       		.byte	0x3
 804 00dd 5804     		.2byte	0x458
 805 00df C7020000 		.4byte	0x2c7
 806 00e3 09       		.uleb128 0x9
 807 00e4 435200   		.ascii	"CR\000"
 808 00e7 03       		.byte	0x3
 809 00e8 5A04     		.2byte	0x45a
 810 00ea A2000000 		.4byte	0xa2
 811 00ee 02       		.byte	0x2
 812 00ef 23       		.byte	0x23
 813 00f0 00       		.uleb128 0
 814 00f1 0A       		.uleb128 0xa
 815 00f2 B9020000 		.4byte	.LASF16
 816 00f6 03       		.byte	0x3
 817 00f7 5B04     		.2byte	0x45b
 818 00f9 A2000000 		.4byte	0xa2
 819 00fd 02       		.byte	0x2
 820 00fe 23       		.byte	0x23
 821 00ff 04       		.uleb128 0x4
 822 0100 0A       		.uleb128 0xa
 823 0101 B5000000 		.4byte	.LASF17
 824 0105 03       		.byte	0x3
 825 0106 5C04     		.2byte	0x45c
 826 0108 A2000000 		.4byte	0xa2
 827 010c 02       		.byte	0x2
 828 010d 23       		.byte	0x23
 829 010e 08       		.uleb128 0x8
 830 010f 09       		.uleb128 0x9
 831 0110 43495200 		.ascii	"CIR\000"
 832 0114 03       		.byte	0x3
 833 0115 5D04     		.2byte	0x45d
 834 0117 A2000000 		.4byte	0xa2
 835 011b 02       		.byte	0x2
 836 011c 23       		.byte	0x23
 837 011d 0C       		.uleb128 0xc
 838 011e 0A       		.uleb128 0xa
 839 011f D8000000 		.4byte	.LASF18
ARM GAS  C:\Users\DNIEL~1\AppData\Local\Temp\ccuuZZtq.s 			page 16


 840 0123 03       		.byte	0x3
 841 0124 5E04     		.2byte	0x45e
 842 0126 A2000000 		.4byte	0xa2
 843 012a 02       		.byte	0x2
 844 012b 23       		.byte	0x23
 845 012c 10       		.uleb128 0x10
 846 012d 0A       		.uleb128 0xa
 847 012e 54020000 		.4byte	.LASF19
 848 0132 03       		.byte	0x3
 849 0133 5F04     		.2byte	0x45f
 850 0135 A2000000 		.4byte	0xa2
 851 0139 02       		.byte	0x2
 852 013a 23       		.byte	0x23
 853 013b 14       		.uleb128 0x14
 854 013c 0A       		.uleb128 0xa
 855 013d 12040000 		.4byte	.LASF20
 856 0141 03       		.byte	0x3
 857 0142 6004     		.2byte	0x460
 858 0144 A2000000 		.4byte	0xa2
 859 0148 02       		.byte	0x2
 860 0149 23       		.byte	0x23
 861 014a 18       		.uleb128 0x18
 862 014b 0A       		.uleb128 0xa
 863 014c 2C030000 		.4byte	.LASF21
 864 0150 03       		.byte	0x3
 865 0151 6104     		.2byte	0x461
 866 0153 7B000000 		.4byte	0x7b
 867 0157 02       		.byte	0x2
 868 0158 23       		.byte	0x23
 869 0159 1C       		.uleb128 0x1c
 870 015a 0A       		.uleb128 0xa
 871 015b 1C000000 		.4byte	.LASF22
 872 015f 03       		.byte	0x3
 873 0160 6204     		.2byte	0x462
 874 0162 A2000000 		.4byte	0xa2
 875 0166 02       		.byte	0x2
 876 0167 23       		.byte	0x23
 877 0168 20       		.uleb128 0x20
 878 0169 0A       		.uleb128 0xa
 879 016a 88010000 		.4byte	.LASF23
 880 016e 03       		.byte	0x3
 881 016f 6304     		.2byte	0x463
 882 0171 A2000000 		.4byte	0xa2
 883 0175 02       		.byte	0x2
 884 0176 23       		.byte	0x23
 885 0177 24       		.uleb128 0x24
 886 0178 0A       		.uleb128 0xa
 887 0179 36030000 		.4byte	.LASF24
 888 017d 03       		.byte	0x3
 889 017e 6404     		.2byte	0x464
 890 0180 B5000000 		.4byte	0xb5
 891 0184 02       		.byte	0x2
 892 0185 23       		.byte	0x23
 893 0186 28       		.uleb128 0x28
 894 0187 0A       		.uleb128 0xa
 895 0188 78030000 		.4byte	.LASF25
 896 018c 03       		.byte	0x3
ARM GAS  C:\Users\DNIEL~1\AppData\Local\Temp\ccuuZZtq.s 			page 17


 897 018d 6504     		.2byte	0x465
 898 018f A2000000 		.4byte	0xa2
 899 0193 02       		.byte	0x2
 900 0194 23       		.byte	0x23
 901 0195 30       		.uleb128 0x30
 902 0196 0A       		.uleb128 0xa
 903 0197 25000000 		.4byte	.LASF26
 904 019b 03       		.byte	0x3
 905 019c 6604     		.2byte	0x466
 906 019e A2000000 		.4byte	0xa2
 907 01a2 02       		.byte	0x2
 908 01a3 23       		.byte	0x23
 909 01a4 34       		.uleb128 0x34
 910 01a5 0A       		.uleb128 0xa
 911 01a6 FD000000 		.4byte	.LASF27
 912 01aa 03       		.byte	0x3
 913 01ab 6704     		.2byte	0x467
 914 01ad A2000000 		.4byte	0xa2
 915 01b1 02       		.byte	0x2
 916 01b2 23       		.byte	0x23
 917 01b3 38       		.uleb128 0x38
 918 01b4 0A       		.uleb128 0xa
 919 01b5 40030000 		.4byte	.LASF28
 920 01b9 03       		.byte	0x3
 921 01ba 6804     		.2byte	0x468
 922 01bc 7B000000 		.4byte	0x7b
 923 01c0 02       		.byte	0x2
 924 01c1 23       		.byte	0x23
 925 01c2 3C       		.uleb128 0x3c
 926 01c3 0A       		.uleb128 0xa
 927 01c4 D0000000 		.4byte	.LASF29
 928 01c8 03       		.byte	0x3
 929 01c9 6904     		.2byte	0x469
 930 01cb A2000000 		.4byte	0xa2
 931 01cf 02       		.byte	0x2
 932 01d0 23       		.byte	0x23
 933 01d1 40       		.uleb128 0x40
 934 01d2 0A       		.uleb128 0xa
 935 01d3 0B020000 		.4byte	.LASF30
 936 01d7 03       		.byte	0x3
 937 01d8 6A04     		.2byte	0x46a
 938 01da A2000000 		.4byte	0xa2
 939 01de 02       		.byte	0x2
 940 01df 23       		.byte	0x23
 941 01e0 44       		.uleb128 0x44
 942 01e1 0A       		.uleb128 0xa
 943 01e2 4A030000 		.4byte	.LASF31
 944 01e6 03       		.byte	0x3
 945 01e7 6B04     		.2byte	0x46b
 946 01e9 B5000000 		.4byte	0xb5
 947 01ed 02       		.byte	0x2
 948 01ee 23       		.byte	0x23
 949 01ef 48       		.uleb128 0x48
 950 01f0 0A       		.uleb128 0xa
 951 01f1 00000000 		.4byte	.LASF32
 952 01f5 03       		.byte	0x3
 953 01f6 6C04     		.2byte	0x46c
ARM GAS  C:\Users\DNIEL~1\AppData\Local\Temp\ccuuZZtq.s 			page 18


 954 01f8 A2000000 		.4byte	0xa2
 955 01fc 02       		.byte	0x2
 956 01fd 23       		.byte	0x23
 957 01fe 50       		.uleb128 0x50
 958 01ff 0A       		.uleb128 0xa
 959 0200 1C030000 		.4byte	.LASF33
 960 0204 03       		.byte	0x3
 961 0205 6D04     		.2byte	0x46d
 962 0207 A2000000 		.4byte	0xa2
 963 020b 02       		.byte	0x2
 964 020c 23       		.byte	0x23
 965 020d 54       		.uleb128 0x54
 966 020e 0A       		.uleb128 0xa
 967 020f A4000000 		.4byte	.LASF34
 968 0213 03       		.byte	0x3
 969 0214 6E04     		.2byte	0x46e
 970 0216 A2000000 		.4byte	0xa2
 971 021a 02       		.byte	0x2
 972 021b 23       		.byte	0x23
 973 021c 58       		.uleb128 0x58
 974 021d 0A       		.uleb128 0xa
 975 021e 54030000 		.4byte	.LASF35
 976 0222 03       		.byte	0x3
 977 0223 6F04     		.2byte	0x46f
 978 0225 7B000000 		.4byte	0x7b
 979 0229 02       		.byte	0x2
 980 022a 23       		.byte	0x23
 981 022b 5C       		.uleb128 0x5c
 982 022c 0A       		.uleb128 0xa
 983 022d D4020000 		.4byte	.LASF36
 984 0231 03       		.byte	0x3
 985 0232 7004     		.2byte	0x470
 986 0234 A2000000 		.4byte	0xa2
 987 0238 02       		.byte	0x2
 988 0239 23       		.byte	0x23
 989 023a 60       		.uleb128 0x60
 990 023b 0A       		.uleb128 0xa
 991 023c 56040000 		.4byte	.LASF37
 992 0240 03       		.byte	0x3
 993 0241 7104     		.2byte	0x471
 994 0243 A2000000 		.4byte	0xa2
 995 0247 02       		.byte	0x2
 996 0248 23       		.byte	0x23
 997 0249 64       		.uleb128 0x64
 998 024a 0A       		.uleb128 0xa
 999 024b 5E030000 		.4byte	.LASF38
 1000 024f 03       		.byte	0x3
 1001 0250 7204     		.2byte	0x472
 1002 0252 B5000000 		.4byte	0xb5
 1003 0256 02       		.byte	0x2
 1004 0257 23       		.byte	0x23
 1005 0258 68       		.uleb128 0x68
 1006 0259 0A       		.uleb128 0xa
 1007 025a 5A000000 		.4byte	.LASF39
 1008 025e 03       		.byte	0x3
 1009 025f 7304     		.2byte	0x473
 1010 0261 A2000000 		.4byte	0xa2
ARM GAS  C:\Users\DNIEL~1\AppData\Local\Temp\ccuuZZtq.s 			page 19


 1011 0265 02       		.byte	0x2
 1012 0266 23       		.byte	0x23
 1013 0267 70       		.uleb128 0x70
 1014 0268 09       		.uleb128 0x9
 1015 0269 43535200 		.ascii	"CSR\000"
 1016 026d 03       		.byte	0x3
 1017 026e 7404     		.2byte	0x474
 1018 0270 A2000000 		.4byte	0xa2
 1019 0274 02       		.byte	0x2
 1020 0275 23       		.byte	0x23
 1021 0276 74       		.uleb128 0x74
 1022 0277 0A       		.uleb128 0xa
 1023 0278 68030000 		.4byte	.LASF40
 1024 027c 03       		.byte	0x3
 1025 027d 7504     		.2byte	0x475
 1026 027f B5000000 		.4byte	0xb5
 1027 0283 02       		.byte	0x2
 1028 0284 23       		.byte	0x23
 1029 0285 78       		.uleb128 0x78
 1030 0286 0A       		.uleb128 0xa
 1031 0287 9E000000 		.4byte	.LASF41
 1032 028b 03       		.byte	0x3
 1033 028c 7604     		.2byte	0x476
 1034 028e A2000000 		.4byte	0xa2
 1035 0292 03       		.byte	0x3
 1036 0293 23       		.byte	0x23
 1037 0294 8001     		.uleb128 0x80
 1038 0296 0A       		.uleb128 0xa
 1039 0297 5F000000 		.4byte	.LASF42
 1040 029b 03       		.byte	0x3
 1041 029c 7704     		.2byte	0x477
 1042 029e A2000000 		.4byte	0xa2
 1043 02a2 03       		.byte	0x3
 1044 02a3 23       		.byte	0x23
 1045 02a4 8401     		.uleb128 0x84
 1046 02a6 0A       		.uleb128 0xa
 1047 02a7 32040000 		.4byte	.LASF43
 1048 02ab 03       		.byte	0x3
 1049 02ac 7804     		.2byte	0x478
 1050 02ae A2000000 		.4byte	0xa2
 1051 02b2 03       		.byte	0x3
 1052 02b3 23       		.byte	0x23
 1053 02b4 8801     		.uleb128 0x88
 1054 02b6 0A       		.uleb128 0xa
 1055 02b7 EF000000 		.4byte	.LASF44
 1056 02bb 03       		.byte	0x3
 1057 02bc 7904     		.2byte	0x479
 1058 02be A2000000 		.4byte	0xa2
 1059 02c2 03       		.byte	0x3
 1060 02c3 23       		.byte	0x23
 1061 02c4 8C01     		.uleb128 0x8c
 1062 02c6 00       		.byte	0
 1063 02c7 0B       		.uleb128 0xb
 1064 02c8 05010000 		.4byte	.LASF45
 1065 02cc 03       		.byte	0x3
 1066 02cd 7B04     		.2byte	0x47b
 1067 02cf DA000000 		.4byte	0xda
ARM GAS  C:\Users\DNIEL~1\AppData\Local\Temp\ccuuZZtq.s 			page 20


 1068 02d3 08       		.uleb128 0x8
 1069 02d4 60       		.byte	0x60
 1070 02d5 04       		.byte	0x4
 1071 02d6 9E01     		.2byte	0x19e
 1072 02d8 16040000 		.4byte	0x416
 1073 02dc 09       		.uleb128 0x9
 1074 02dd 43523100 		.ascii	"CR1\000"
 1075 02e1 04       		.byte	0x4
 1076 02e2 9F01     		.2byte	0x19f
 1077 02e4 A2000000 		.4byte	0xa2
 1078 02e8 02       		.byte	0x2
 1079 02e9 23       		.byte	0x23
 1080 02ea 00       		.uleb128 0
 1081 02eb 09       		.uleb128 0x9
 1082 02ec 43523200 		.ascii	"CR2\000"
 1083 02f0 04       		.byte	0x4
 1084 02f1 A001     		.2byte	0x1a0
 1085 02f3 A2000000 		.4byte	0xa2
 1086 02f7 02       		.byte	0x2
 1087 02f8 23       		.byte	0x23
 1088 02f9 04       		.uleb128 0x4
 1089 02fa 0A       		.uleb128 0xa
 1090 02fb D6010000 		.4byte	.LASF46
 1091 02ff 04       		.byte	0x4
 1092 0300 A101     		.2byte	0x1a1
 1093 0302 A2000000 		.4byte	0xa2
 1094 0306 02       		.byte	0x2
 1095 0307 23       		.byte	0x23
 1096 0308 08       		.uleb128 0x8
 1097 0309 0A       		.uleb128 0xa
 1098 030a B4020000 		.4byte	.LASF47
 1099 030e 04       		.byte	0x4
 1100 030f A201     		.2byte	0x1a2
 1101 0311 A2000000 		.4byte	0xa2
 1102 0315 02       		.byte	0x2
 1103 0316 23       		.byte	0x23
 1104 0317 0C       		.uleb128 0xc
 1105 0318 09       		.uleb128 0x9
 1106 0319 535200   		.ascii	"SR\000"
 1107 031c 04       		.byte	0x4
 1108 031d A301     		.2byte	0x1a3
 1109 031f A2000000 		.4byte	0xa2
 1110 0323 02       		.byte	0x2
 1111 0324 23       		.byte	0x23
 1112 0325 10       		.uleb128 0x10
 1113 0326 09       		.uleb128 0x9
 1114 0327 45475200 		.ascii	"EGR\000"
 1115 032b 04       		.byte	0x4
 1116 032c A401     		.2byte	0x1a4
 1117 032e A2000000 		.4byte	0xa2
 1118 0332 02       		.byte	0x2
 1119 0333 23       		.byte	0x23
 1120 0334 14       		.uleb128 0x14
 1121 0335 0A       		.uleb128 0xa
 1122 0336 A4010000 		.4byte	.LASF48
 1123 033a 04       		.byte	0x4
 1124 033b A501     		.2byte	0x1a5
ARM GAS  C:\Users\DNIEL~1\AppData\Local\Temp\ccuuZZtq.s 			page 21


 1125 033d A2000000 		.4byte	0xa2
 1126 0341 02       		.byte	0x2
 1127 0342 23       		.byte	0x23
 1128 0343 18       		.uleb128 0x18
 1129 0344 0A       		.uleb128 0xa
 1130 0345 38000000 		.4byte	.LASF49
 1131 0349 04       		.byte	0x4
 1132 034a A601     		.2byte	0x1a6
 1133 034c A2000000 		.4byte	0xa2
 1134 0350 02       		.byte	0x2
 1135 0351 23       		.byte	0x23
 1136 0352 1C       		.uleb128 0x1c
 1137 0353 0A       		.uleb128 0xa
 1138 0354 0A000000 		.4byte	.LASF50
 1139 0358 04       		.byte	0x4
 1140 0359 A701     		.2byte	0x1a7
 1141 035b A2000000 		.4byte	0xa2
 1142 035f 02       		.byte	0x2
 1143 0360 23       		.byte	0x23
 1144 0361 20       		.uleb128 0x20
 1145 0362 09       		.uleb128 0x9
 1146 0363 434E5400 		.ascii	"CNT\000"
 1147 0367 04       		.byte	0x4
 1148 0368 A801     		.2byte	0x1a8
 1149 036a A2000000 		.4byte	0xa2
 1150 036e 02       		.byte	0x2
 1151 036f 23       		.byte	0x23
 1152 0370 24       		.uleb128 0x24
 1153 0371 09       		.uleb128 0x9
 1154 0372 50534300 		.ascii	"PSC\000"
 1155 0376 04       		.byte	0x4
 1156 0377 A901     		.2byte	0x1a9
 1157 0379 A2000000 		.4byte	0xa2
 1158 037d 02       		.byte	0x2
 1159 037e 23       		.byte	0x23
 1160 037f 28       		.uleb128 0x28
 1161 0380 09       		.uleb128 0x9
 1162 0381 41525200 		.ascii	"ARR\000"
 1163 0385 04       		.byte	0x4
 1164 0386 AA01     		.2byte	0x1aa
 1165 0388 A2000000 		.4byte	0xa2
 1166 038c 02       		.byte	0x2
 1167 038d 23       		.byte	0x23
 1168 038e 2C       		.uleb128 0x2c
 1169 038f 09       		.uleb128 0x9
 1170 0390 52435200 		.ascii	"RCR\000"
 1171 0394 04       		.byte	0x4
 1172 0395 AB01     		.2byte	0x1ab
 1173 0397 A2000000 		.4byte	0xa2
 1174 039b 02       		.byte	0x2
 1175 039c 23       		.byte	0x23
 1176 039d 30       		.uleb128 0x30
 1177 039e 09       		.uleb128 0x9
 1178 039f 43435200 		.ascii	"CCR\000"
 1179 03a3 04       		.byte	0x4
 1180 03a4 AC01     		.2byte	0x1ac
 1181 03a6 16040000 		.4byte	0x416
ARM GAS  C:\Users\DNIEL~1\AppData\Local\Temp\ccuuZZtq.s 			page 22


 1182 03aa 02       		.byte	0x2
 1183 03ab 23       		.byte	0x23
 1184 03ac 34       		.uleb128 0x34
 1185 03ad 0A       		.uleb128 0xa
 1186 03ae 66020000 		.4byte	.LASF51
 1187 03b2 04       		.byte	0x4
 1188 03b3 AD01     		.2byte	0x1ad
 1189 03b5 A2000000 		.4byte	0xa2
 1190 03b9 02       		.byte	0x2
 1191 03ba 23       		.byte	0x23
 1192 03bb 44       		.uleb128 0x44
 1193 03bc 09       		.uleb128 0x9
 1194 03bd 44435200 		.ascii	"DCR\000"
 1195 03c1 04       		.byte	0x4
 1196 03c2 AE01     		.2byte	0x1ae
 1197 03c4 A2000000 		.4byte	0xa2
 1198 03c8 02       		.byte	0x2
 1199 03c9 23       		.byte	0x23
 1200 03ca 48       		.uleb128 0x48
 1201 03cb 0A       		.uleb128 0xa
 1202 03cc 2D000000 		.4byte	.LASF52
 1203 03d0 04       		.byte	0x4
 1204 03d1 AF01     		.2byte	0x1af
 1205 03d3 A2000000 		.4byte	0xa2
 1206 03d7 02       		.byte	0x2
 1207 03d8 23       		.byte	0x23
 1208 03d9 4C       		.uleb128 0x4c
 1209 03da 09       		.uleb128 0x9
 1210 03db 4F5200   		.ascii	"OR\000"
 1211 03de 04       		.byte	0x4
 1212 03df B001     		.2byte	0x1b0
 1213 03e1 A2000000 		.4byte	0xa2
 1214 03e5 02       		.byte	0x2
 1215 03e6 23       		.byte	0x23
 1216 03e7 50       		.uleb128 0x50
 1217 03e8 0A       		.uleb128 0xa
 1218 03e9 C2010000 		.4byte	.LASF53
 1219 03ed 04       		.byte	0x4
 1220 03ee B101     		.2byte	0x1b1
 1221 03f0 A2000000 		.4byte	0xa2
 1222 03f4 02       		.byte	0x2
 1223 03f5 23       		.byte	0x23
 1224 03f6 54       		.uleb128 0x54
 1225 03f7 0A       		.uleb128 0xa
 1226 03f8 65010000 		.4byte	.LASF54
 1227 03fc 04       		.byte	0x4
 1228 03fd B201     		.2byte	0x1b2
 1229 03ff A2000000 		.4byte	0xa2
 1230 0403 02       		.byte	0x2
 1231 0404 23       		.byte	0x23
 1232 0405 58       		.uleb128 0x58
 1233 0406 0A       		.uleb128 0xa
 1234 0407 6A010000 		.4byte	.LASF55
 1235 040b 04       		.byte	0x4
 1236 040c B301     		.2byte	0x1b3
 1237 040e A2000000 		.4byte	0xa2
 1238 0412 02       		.byte	0x2
ARM GAS  C:\Users\DNIEL~1\AppData\Local\Temp\ccuuZZtq.s 			page 23


 1239 0413 23       		.byte	0x23
 1240 0414 5C       		.uleb128 0x5c
 1241 0415 00       		.byte	0
 1242 0416 05       		.uleb128 0x5
 1243 0417 C5000000 		.4byte	0xc5
 1244 041b 0B       		.uleb128 0xb
 1245 041c F0020000 		.4byte	.LASF56
 1246 0420 04       		.byte	0x4
 1247 0421 B401     		.2byte	0x1b4
 1248 0423 D3020000 		.4byte	0x2d3
 1249 0427 0C       		.uleb128 0xc
 1250 0428 04       		.byte	0x4
 1251 0429 1B040000 		.4byte	0x41b
 1252 042d 0D       		.uleb128 0xd
 1253 042e 01       		.byte	0x1
 1254 042f 05       		.byte	0x5
 1255 0430 55       		.byte	0x55
 1256 0431 48040000 		.4byte	0x448
 1257 0435 0E       		.uleb128 0xe
 1258 0436 DB010000 		.4byte	.LASF57
 1259 043a 00       		.sleb128 0
 1260 043b 0E       		.uleb128 0xe
 1261 043c AB030000 		.4byte	.LASF58
 1262 0440 01       		.sleb128 1
 1263 0441 0E       		.uleb128 0xe
 1264 0442 A1030000 		.4byte	.LASF59
 1265 0446 02       		.sleb128 2
 1266 0447 00       		.byte	0
 1267 0448 04       		.uleb128 0x4
 1268 0449 3D040000 		.4byte	.LASF60
 1269 044d 05       		.byte	0x5
 1270 044e 59       		.byte	0x59
 1271 044f 2D040000 		.4byte	0x42d
 1272 0453 04       		.uleb128 0x4
 1273 0454 FC020000 		.4byte	.LASF61
 1274 0458 05       		.byte	0x5
 1275 0459 5E       		.byte	0x5e
 1276 045a 5E040000 		.4byte	0x45e
 1277 045e 0F       		.uleb128 0xf
 1278 045f FC020000 		.4byte	.LASF61
 1279 0463 14       		.byte	0x14
 1280 0464 06       		.byte	0x6
 1281 0465 6F01     		.2byte	0x16f
 1282 0467 B7040000 		.4byte	0x4b7
 1283 046b 0A       		.uleb128 0xa
 1284 046c 32000000 		.4byte	.LASF62
 1285 0470 06       		.byte	0x6
 1286 0471 7301     		.2byte	0x173
 1287 0473 48040000 		.4byte	0x448
 1288 0477 02       		.byte	0x2
 1289 0478 23       		.byte	0x23
 1290 0479 00       		.uleb128 0
 1291 047a 0A       		.uleb128 0xa
 1292 047b AE000000 		.4byte	.LASF63
 1293 047f 06       		.byte	0x6
 1294 0480 7701     		.2byte	0x177
 1295 0482 B2050000 		.4byte	0x5b2
ARM GAS  C:\Users\DNIEL~1\AppData\Local\Temp\ccuuZZtq.s 			page 24


 1296 0486 02       		.byte	0x2
 1297 0487 23       		.byte	0x23
 1298 0488 04       		.uleb128 0x4
 1299 0489 0A       		.uleb128 0xa
 1300 048a 81010000 		.4byte	.LASF64
 1301 048e 06       		.byte	0x6
 1302 048f 7B01     		.2byte	0x17b
 1303 0491 F2040000 		.4byte	0x4f2
 1304 0495 02       		.byte	0x2
 1305 0496 23       		.byte	0x23
 1306 0497 08       		.uleb128 0x8
 1307 0498 0A       		.uleb128 0xa
 1308 0499 72030000 		.4byte	.LASF65
 1309 049d 06       		.byte	0x6
 1310 049e 8301     		.2byte	0x183
 1311 04a0 7B000000 		.4byte	0x7b
 1312 04a4 02       		.byte	0x2
 1313 04a5 23       		.byte	0x23
 1314 04a6 0C       		.uleb128 0xc
 1315 04a7 09       		.uleb128 0x9
 1316 04a8 74696D00 		.ascii	"tim\000"
 1317 04ac 06       		.byte	0x6
 1318 04ad 8701     		.2byte	0x187
 1319 04af 27040000 		.4byte	0x427
 1320 04b3 02       		.byte	0x2
 1321 04b4 23       		.byte	0x23
 1322 04b5 10       		.uleb128 0x10
 1323 04b6 00       		.byte	0
 1324 04b7 04       		.uleb128 0x4
 1325 04b8 48040000 		.4byte	.LASF66
 1326 04bc 05       		.byte	0x5
 1327 04bd 65       		.byte	0x65
 1328 04be C2040000 		.4byte	0x4c2
 1329 04c2 0C       		.uleb128 0xc
 1330 04c3 04       		.byte	0x4
 1331 04c4 C8040000 		.4byte	0x4c8
 1332 04c8 10       		.uleb128 0x10
 1333 04c9 01       		.byte	0x1
 1334 04ca D4040000 		.4byte	0x4d4
 1335 04ce 11       		.uleb128 0x11
 1336 04cf D4040000 		.4byte	0x4d4
 1337 04d3 00       		.byte	0
 1338 04d4 0C       		.uleb128 0xc
 1339 04d5 04       		.byte	0x4
 1340 04d6 53040000 		.4byte	0x453
 1341 04da 0B       		.uleb128 0xb
 1342 04db 1B040000 		.4byte	.LASF67
 1343 04df 06       		.byte	0x6
 1344 04e0 2001     		.2byte	0x120
 1345 04e2 7B000000 		.4byte	0x7b
 1346 04e6 0B       		.uleb128 0xb
 1347 04e7 82000000 		.4byte	.LASF68
 1348 04eb 06       		.byte	0x6
 1349 04ec 2501     		.2byte	0x125
 1350 04ee 3E000000 		.4byte	0x3e
 1351 04f2 0B       		.uleb128 0xb
 1352 04f3 48000000 		.4byte	.LASF69
ARM GAS  C:\Users\DNIEL~1\AppData\Local\Temp\ccuuZZtq.s 			page 25


 1353 04f7 06       		.byte	0x6
 1354 04f8 2A01     		.2byte	0x12a
 1355 04fa 57000000 		.4byte	0x57
 1356 04fe 08       		.uleb128 0x8
 1357 04ff 08       		.byte	0x8
 1358 0500 06       		.byte	0x6
 1359 0501 2F01     		.2byte	0x12f
 1360 0503 26050000 		.4byte	0x526
 1361 0507 0A       		.uleb128 0xa
 1362 0508 99000000 		.4byte	.LASF70
 1363 050c 06       		.byte	0x6
 1364 050d 3301     		.2byte	0x133
 1365 050f DA040000 		.4byte	0x4da
 1366 0513 02       		.byte	0x2
 1367 0514 23       		.byte	0x23
 1368 0515 00       		.uleb128 0
 1369 0516 0A       		.uleb128 0xa
 1370 0517 60040000 		.4byte	.LASF71
 1371 051b 06       		.byte	0x6
 1372 051c 3901     		.2byte	0x139
 1373 051e B7040000 		.4byte	0x4b7
 1374 0522 02       		.byte	0x2
 1375 0523 23       		.byte	0x23
 1376 0524 04       		.uleb128 0x4
 1377 0525 00       		.byte	0
 1378 0526 0B       		.uleb128 0xb
 1379 0527 C3030000 		.4byte	.LASF72
 1380 052b 06       		.byte	0x6
 1381 052c 3B01     		.2byte	0x13b
 1382 052e FE040000 		.4byte	0x4fe
 1383 0532 08       		.uleb128 0x8
 1384 0533 34       		.byte	0x34
 1385 0534 06       		.byte	0x6
 1386 0535 4001     		.2byte	0x140
 1387 0537 96050000 		.4byte	0x596
 1388 053b 0A       		.uleb128 0xa
 1389 053c B9030000 		.4byte	.LASF73
 1390 0540 06       		.byte	0x6
 1391 0541 4601     		.2byte	0x146
 1392 0543 7B000000 		.4byte	0x7b
 1393 0547 02       		.byte	0x2
 1394 0548 23       		.byte	0x23
 1395 0549 00       		.uleb128 0
 1396 054a 0A       		.uleb128 0xa
 1397 054b 81010000 		.4byte	.LASF64
 1398 054f 06       		.byte	0x6
 1399 0550 4C01     		.2byte	0x14c
 1400 0552 F2040000 		.4byte	0x4f2
 1401 0556 02       		.byte	0x2
 1402 0557 23       		.byte	0x23
 1403 0558 04       		.uleb128 0x4
 1404 0559 0A       		.uleb128 0xa
 1405 055a 60040000 		.4byte	.LASF71
 1406 055e 06       		.byte	0x6
 1407 055f 5201     		.2byte	0x152
 1408 0561 B7040000 		.4byte	0x4b7
 1409 0565 02       		.byte	0x2
ARM GAS  C:\Users\DNIEL~1\AppData\Local\Temp\ccuuZZtq.s 			page 26


 1410 0566 23       		.byte	0x23
 1411 0567 08       		.uleb128 0x8
 1412 0568 0A       		.uleb128 0xa
 1413 0569 98030000 		.4byte	.LASF74
 1414 056d 06       		.byte	0x6
 1415 056e 5601     		.2byte	0x156
 1416 0570 96050000 		.4byte	0x596
 1417 0574 02       		.byte	0x2
 1418 0575 23       		.byte	0x23
 1419 0576 0C       		.uleb128 0xc
 1420 0577 09       		.uleb128 0x9
 1421 0578 63723200 		.ascii	"cr2\000"
 1422 057c 06       		.byte	0x6
 1423 057d 5C01     		.2byte	0x15c
 1424 057f 7B000000 		.4byte	0x7b
 1425 0583 02       		.byte	0x2
 1426 0584 23       		.byte	0x23
 1427 0585 2C       		.uleb128 0x2c
 1428 0586 0A       		.uleb128 0xa
 1429 0587 B4030000 		.4byte	.LASF75
 1430 058b 06       		.byte	0x6
 1431 058c 6901     		.2byte	0x169
 1432 058e 7B000000 		.4byte	0x7b
 1433 0592 02       		.byte	0x2
 1434 0593 23       		.byte	0x23
 1435 0594 30       		.uleb128 0x30
 1436 0595 00       		.byte	0
 1437 0596 06       		.uleb128 0x6
 1438 0597 26050000 		.4byte	0x526
 1439 059b A6050000 		.4byte	0x5a6
 1440 059f 07       		.uleb128 0x7
 1441 05a0 A7000000 		.4byte	0xa7
 1442 05a4 03       		.byte	0x3
 1443 05a5 00       		.byte	0
 1444 05a6 0B       		.uleb128 0xb
 1445 05a7 B8010000 		.4byte	.LASF76
 1446 05ab 06       		.byte	0x6
 1447 05ac 6A01     		.2byte	0x16a
 1448 05ae 32050000 		.4byte	0x532
 1449 05b2 0C       		.uleb128 0xc
 1450 05b3 04       		.byte	0x4
 1451 05b4 B8050000 		.4byte	0x5b8
 1452 05b8 12       		.uleb128 0x12
 1453 05b9 A6050000 		.4byte	0x5a6
 1454 05bd 13       		.uleb128 0x13
 1455 05be 6A000000 		.4byte	.LASF96
 1456 05c2 01       		.byte	0x1
 1457 05c3 70       		.byte	0x70
 1458 05c4 01       		.byte	0x1
 1459 05c5 00000000 		.4byte	.LFB118
 1460 05c9 68000000 		.4byte	.LFE118
 1461 05cd 00000000 		.4byte	.LLST0
 1462 05d1 01       		.byte	0x1
 1463 05d2 40060000 		.4byte	0x640
 1464 05d6 14       		.uleb128 0x14
 1465 05d7 D1010000 		.4byte	.LASF81
 1466 05db 01       		.byte	0x1
ARM GAS  C:\Users\DNIEL~1\AppData\Local\Temp\ccuuZZtq.s 			page 27


 1467 05dc 70       		.byte	0x70
 1468 05dd D4040000 		.4byte	0x4d4
 1469 05e1 20000000 		.4byte	.LLST1
 1470 05e5 15       		.uleb128 0x15
 1471 05e6 737200   		.ascii	"sr\000"
 1472 05e9 01       		.byte	0x1
 1473 05ea 71       		.byte	0x71
 1474 05eb 57000000 		.4byte	0x57
 1475 05ef 54000000 		.4byte	.LLST2
 1476 05f3 16       		.uleb128 0x16
 1477 05f4 40000000 		.4byte	.LVL4
 1478 05f8 03060000 		.4byte	0x603
 1479 05fc 17       		.uleb128 0x17
 1480 05fd 01       		.byte	0x1
 1481 05fe 50       		.byte	0x50
 1482 05ff 02       		.byte	0x2
 1483 0600 75       		.byte	0x75
 1484 0601 00       		.sleb128 0
 1485 0602 00       		.byte	0
 1486 0603 16       		.uleb128 0x16
 1487 0604 4A000000 		.4byte	.LVL5
 1488 0608 13060000 		.4byte	0x613
 1489 060c 17       		.uleb128 0x17
 1490 060d 01       		.byte	0x1
 1491 060e 50       		.byte	0x50
 1492 060f 02       		.byte	0x2
 1493 0610 75       		.byte	0x75
 1494 0611 00       		.sleb128 0
 1495 0612 00       		.byte	0
 1496 0613 16       		.uleb128 0x16
 1497 0614 54000000 		.4byte	.LVL6
 1498 0618 23060000 		.4byte	0x623
 1499 061c 17       		.uleb128 0x17
 1500 061d 01       		.byte	0x1
 1501 061e 50       		.byte	0x50
 1502 061f 02       		.byte	0x2
 1503 0620 75       		.byte	0x75
 1504 0621 00       		.sleb128 0
 1505 0622 00       		.byte	0
 1506 0623 16       		.uleb128 0x16
 1507 0624 5E000000 		.4byte	.LVL7
 1508 0628 33060000 		.4byte	0x633
 1509 062c 17       		.uleb128 0x17
 1510 062d 01       		.byte	0x1
 1511 062e 50       		.byte	0x50
 1512 062f 02       		.byte	0x2
 1513 0630 75       		.byte	0x75
 1514 0631 00       		.sleb128 0
 1515 0632 00       		.byte	0
 1516 0633 18       		.uleb128 0x18
 1517 0634 66000000 		.4byte	.LVL9
 1518 0638 17       		.uleb128 0x17
 1519 0639 01       		.byte	0x1
 1520 063a 50       		.byte	0x50
 1521 063b 02       		.byte	0x2
 1522 063c 75       		.byte	0x75
 1523 063d 00       		.sleb128 0
ARM GAS  C:\Users\DNIEL~1\AppData\Local\Temp\ccuuZZtq.s 			page 28


 1524 063e 00       		.byte	0
 1525 063f 00       		.byte	0
 1526 0640 19       		.uleb128 0x19
 1527 0641 01       		.byte	0x1
 1528 0642 C8010000 		.4byte	.LASF77
 1529 0646 01       		.byte	0x1
 1530 0647 EB       		.byte	0xeb
 1531 0648 01       		.byte	0x1
 1532 0649 00000000 		.4byte	.LFB119
 1533 064d 16000000 		.4byte	.LFE119
 1534 0651 77000000 		.4byte	.LLST3
 1535 0655 01       		.byte	0x1
 1536 0656 7C060000 		.4byte	0x67c
 1537 065a 1A       		.uleb128 0x1a
 1538 065b 0E000000 		.4byte	.LVL10
 1539 065f BD050000 		.4byte	0x5bd
 1540 0663 71060000 		.4byte	0x671
 1541 0667 17       		.uleb128 0x17
 1542 0668 01       		.byte	0x1
 1543 0669 50       		.byte	0x50
 1544 066a 05       		.byte	0x5
 1545 066b 03       		.byte	0x3
 1546 066c 00000000 		.4byte	.LANCHOR0
 1547 0670 00       		.byte	0
 1548 0671 1B       		.uleb128 0x1b
 1549 0672 16000000 		.4byte	.LVL11
 1550 0676 01       		.byte	0x1
 1551 0677 76080000 		.4byte	0x876
 1552 067b 00       		.byte	0
 1553 067c 19       		.uleb128 0x19
 1554 067d 01       		.byte	0x1
 1555 067e 8F000000 		.4byte	.LASF78
 1556 0682 01       		.byte	0x1
 1557 0683 FE       		.byte	0xfe
 1558 0684 01       		.byte	0x1
 1559 0685 00000000 		.4byte	.LFB120
 1560 0689 16000000 		.4byte	.LFE120
 1561 068d 97000000 		.4byte	.LLST4
 1562 0691 01       		.byte	0x1
 1563 0692 B8060000 		.4byte	0x6b8
 1564 0696 1A       		.uleb128 0x1a
 1565 0697 0E000000 		.4byte	.LVL12
 1566 069b BD050000 		.4byte	0x5bd
 1567 069f AD060000 		.4byte	0x6ad
 1568 06a3 17       		.uleb128 0x17
 1569 06a4 01       		.byte	0x1
 1570 06a5 50       		.byte	0x50
 1571 06a6 05       		.byte	0x5
 1572 06a7 03       		.byte	0x3
 1573 06a8 00000000 		.4byte	.LANCHOR1
 1574 06ac 00       		.byte	0
 1575 06ad 1B       		.uleb128 0x1b
 1576 06ae 16000000 		.4byte	.LVL13
 1577 06b2 01       		.byte	0x1
 1578 06b3 76080000 		.4byte	0x876
 1579 06b7 00       		.byte	0
 1580 06b8 1C       		.uleb128 0x1c
ARM GAS  C:\Users\DNIEL~1\AppData\Local\Temp\ccuuZZtq.s 			page 29


 1581 06b9 01       		.byte	0x1
 1582 06ba DE020000 		.4byte	.LASF79
 1583 06be 01       		.byte	0x1
 1584 06bf 5901     		.2byte	0x159
 1585 06c1 01       		.byte	0x1
 1586 06c2 00000000 		.4byte	.LFB121
 1587 06c6 34000000 		.4byte	.LFE121
 1588 06ca B7000000 		.4byte	.LLST5
 1589 06ce 01       		.byte	0x1
 1590 06cf F8060000 		.4byte	0x6f8
 1591 06d3 1A       		.uleb128 0x1a
 1592 06d4 14000000 		.4byte	.LVL14
 1593 06d8 81080000 		.4byte	0x881
 1594 06dc E7060000 		.4byte	0x6e7
 1595 06e0 17       		.uleb128 0x17
 1596 06e1 01       		.byte	0x1
 1597 06e2 50       		.byte	0x50
 1598 06e3 02       		.byte	0x2
 1599 06e4 75       		.byte	0x75
 1600 06e5 00       		.sleb128 0
 1601 06e6 00       		.byte	0
 1602 06e7 1D       		.uleb128 0x1d
 1603 06e8 28000000 		.4byte	.LVL15
 1604 06ec 81080000 		.4byte	0x881
 1605 06f0 17       		.uleb128 0x17
 1606 06f1 01       		.byte	0x1
 1607 06f2 50       		.byte	0x50
 1608 06f3 02       		.byte	0x2
 1609 06f4 74       		.byte	0x74
 1610 06f5 00       		.sleb128 0
 1611 06f6 00       		.byte	0
 1612 06f7 00       		.byte	0
 1613 06f8 1C       		.uleb128 0x1c
 1614 06f9 01       		.byte	0x1
 1615 06fa AA010000 		.4byte	.LASF80
 1616 06fe 01       		.byte	0x1
 1617 06ff 8F01     		.2byte	0x18f
 1618 0701 01       		.byte	0x1
 1619 0702 00000000 		.4byte	.LFB122
 1620 0706 3C010000 		.4byte	.LFE122
 1621 070a D7000000 		.4byte	.LLST6
 1622 070e 01       		.byte	0x1
 1623 070f 54070000 		.4byte	0x754
 1624 0713 1E       		.uleb128 0x1e
 1625 0714 D1010000 		.4byte	.LASF81
 1626 0718 01       		.byte	0x1
 1627 0719 8F01     		.2byte	0x18f
 1628 071b D4040000 		.4byte	0x4d4
 1629 071f F7000000 		.4byte	.LLST7
 1630 0723 1F       		.uleb128 0x1f
 1631 0724 70736300 		.ascii	"psc\000"
 1632 0728 01       		.byte	0x1
 1633 0729 9001     		.2byte	0x190
 1634 072b 7B000000 		.4byte	0x7b
 1635 072f 39010000 		.4byte	.LLST8
 1636 0733 20       		.uleb128 0x20
 1637 0734 EA000000 		.4byte	.LASF82
ARM GAS  C:\Users\DNIEL~1\AppData\Local\Temp\ccuuZZtq.s 			page 30


 1638 0738 01       		.byte	0x1
 1639 0739 9101     		.2byte	0x191
 1640 073b 7B000000 		.4byte	0x7b
 1641 073f CE010000 		.4byte	.LLST9
 1642 0743 1D       		.uleb128 0x1d
 1643 0744 12010000 		.4byte	.LVL37
 1644 0748 95080000 		.4byte	0x895
 1645 074c 17       		.uleb128 0x17
 1646 074d 01       		.byte	0x1
 1647 074e 51       		.byte	0x51
 1648 074f 02       		.byte	0x2
 1649 0750 08       		.byte	0x8
 1650 0751 70       		.byte	0x70
 1651 0752 00       		.byte	0
 1652 0753 00       		.byte	0
 1653 0754 1C       		.uleb128 0x1c
 1654 0755 01       		.byte	0x1
 1655 0756 0F000000 		.4byte	.LASF83
 1656 075a 01       		.byte	0x1
 1657 075b 5B02     		.2byte	0x25b
 1658 075d 01       		.byte	0x1
 1659 075e 00000000 		.4byte	.LFB123
 1660 0762 58000000 		.4byte	.LFE123
 1661 0766 04020000 		.4byte	.LLST10
 1662 076a 01       		.byte	0x1
 1663 076b A3070000 		.4byte	0x7a3
 1664 076f 1E       		.uleb128 0x1e
 1665 0770 D1010000 		.4byte	.LASF81
 1666 0774 01       		.byte	0x1
 1667 0775 5B02     		.2byte	0x25b
 1668 0777 D4040000 		.4byte	0x4d4
 1669 077b 24020000 		.4byte	.LLST11
 1670 077f 1A       		.uleb128 0x1a
 1671 0780 26000000 		.4byte	.LVL42
 1672 0784 AF080000 		.4byte	0x8af
 1673 0788 93070000 		.4byte	0x793
 1674 078c 17       		.uleb128 0x17
 1675 078d 01       		.byte	0x1
 1676 078e 50       		.byte	0x50
 1677 078f 02       		.byte	0x2
 1678 0790 08       		.byte	0x8
 1679 0791 32       		.byte	0x32
 1680 0792 00       		.byte	0
 1681 0793 1D       		.uleb128 0x1d
 1682 0794 3E000000 		.4byte	.LVL45
 1683 0798 AF080000 		.4byte	0x8af
 1684 079c 17       		.uleb128 0x17
 1685 079d 01       		.byte	0x1
 1686 079e 50       		.byte	0x50
 1687 079f 01       		.byte	0x1
 1688 07a0 4E       		.byte	0x4e
 1689 07a1 00       		.byte	0
 1690 07a2 00       		.byte	0
 1691 07a3 1C       		.uleb128 0x1c
 1692 07a4 01       		.byte	0x1
 1693 07a5 F4010000 		.4byte	.LASF84
 1694 07a9 01       		.byte	0x1
ARM GAS  C:\Users\DNIEL~1\AppData\Local\Temp\ccuuZZtq.s 			page 31


 1695 07aa A102     		.2byte	0x2a1
 1696 07ac 01       		.byte	0x1
 1697 07ad 00000000 		.4byte	.LFB124
 1698 07b1 30000000 		.4byte	.LFE124
 1699 07b5 77020000 		.4byte	.LLST12
 1700 07b9 01       		.byte	0x1
 1701 07ba 09080000 		.4byte	0x809
 1702 07be 1E       		.uleb128 0x1e
 1703 07bf D1010000 		.4byte	.LASF81
 1704 07c3 01       		.byte	0x1
 1705 07c4 A102     		.2byte	0x2a1
 1706 07c6 D4040000 		.4byte	0x4d4
 1707 07ca 97020000 		.4byte	.LLST13
 1708 07ce 1E       		.uleb128 0x1e
 1709 07cf 14030000 		.4byte	.LASF85
 1710 07d3 01       		.byte	0x1
 1711 07d4 A202     		.2byte	0x2a2
 1712 07d6 E6040000 		.4byte	0x4e6
 1713 07da B8020000 		.4byte	.LLST14
 1714 07de 1E       		.uleb128 0x1e
 1715 07df F7000000 		.4byte	.LASF86
 1716 07e3 01       		.byte	0x1
 1717 07e4 A302     		.2byte	0x2a3
 1718 07e6 F2040000 		.4byte	0x4f2
 1719 07ea D9020000 		.4byte	.LLST15
 1720 07ee 21       		.uleb128 0x21
 1721 07ef 18000000 		.4byte	.LBB2
 1722 07f3 2C000000 		.4byte	.LBE2
 1723 07f7 20       		.uleb128 0x20
 1724 07f8 B4030000 		.4byte	.LASF75
 1725 07fc 01       		.byte	0x1
 1726 07fd A902     		.2byte	0x2a9
 1727 07ff 7B000000 		.4byte	0x7b
 1728 0803 FA020000 		.4byte	.LLST16
 1729 0807 00       		.byte	0
 1730 0808 00       		.byte	0
 1731 0809 22       		.uleb128 0x22
 1732 080a 01       		.byte	0x1
 1733 080b 80030000 		.4byte	.LASF87
 1734 080f 01       		.byte	0x1
 1735 0810 BF02     		.2byte	0x2bf
 1736 0812 01       		.byte	0x1
 1737 0813 00000000 		.4byte	.LFB125
 1738 0817 1E000000 		.4byte	.LFE125
 1739 081b 02       		.byte	0x2
 1740 081c 7D       		.byte	0x7d
 1741 081d 00       		.sleb128 0
 1742 081e 01       		.byte	0x1
 1743 081f 44080000 		.4byte	0x844
 1744 0823 1E       		.uleb128 0x1e
 1745 0824 D1010000 		.4byte	.LASF81
 1746 0828 01       		.byte	0x1
 1747 0829 BF02     		.2byte	0x2bf
 1748 082b D4040000 		.4byte	0x4d4
 1749 082f 0D030000 		.4byte	.LLST17
 1750 0833 1E       		.uleb128 0x1e
 1751 0834 14030000 		.4byte	.LASF85
ARM GAS  C:\Users\DNIEL~1\AppData\Local\Temp\ccuuZZtq.s 			page 32


 1752 0838 01       		.byte	0x1
 1753 0839 BF02     		.2byte	0x2bf
 1754 083b E6040000 		.4byte	0x4e6
 1755 083f 2E030000 		.4byte	.LLST18
 1756 0843 00       		.byte	0
 1757 0844 23       		.uleb128 0x23
 1758 0845 25040000 		.4byte	.LASF88
 1759 0849 07       		.byte	0x7
 1760 084a 9806     		.2byte	0x698
 1761 084c D5000000 		.4byte	0xd5
 1762 0850 01       		.byte	0x1
 1763 0851 01       		.byte	0x1
 1764 0852 24       		.uleb128 0x24
 1765 0853 0C040000 		.4byte	.LASF89
 1766 0857 01       		.byte	0x1
 1767 0858 43       		.byte	0x43
 1768 0859 53040000 		.4byte	0x453
 1769 085d 01       		.byte	0x1
 1770 085e 05       		.byte	0x5
 1771 085f 03       		.byte	0x3
 1772 0860 00000000 		.4byte	PWMD4
 1773 0864 24       		.uleb128 0x24
 1774 0865 26030000 		.4byte	.LASF90
 1775 0869 01       		.byte	0x1
 1776 086a 4B       		.byte	0x4b
 1777 086b 53040000 		.4byte	0x453
 1778 086f 01       		.byte	0x1
 1779 0870 05       		.byte	0x5
 1780 0871 03       		.byte	0x3
 1781 0872 00000000 		.4byte	PWMD5
 1782 0876 25       		.uleb128 0x25
 1783 0877 01       		.byte	0x1
 1784 0878 91010000 		.4byte	.LASF97
 1785 087c 09       		.byte	0x9
 1786 087d 0302     		.2byte	0x203
 1787 087f 01       		.byte	0x1
 1788 0880 01       		.byte	0x1
 1789 0881 26       		.uleb128 0x26
 1790 0882 01       		.byte	0x1
 1791 0883 BA000000 		.4byte	.LASF91
 1792 0887 05       		.byte	0x5
 1793 0888 F3       		.byte	0xf3
 1794 0889 01       		.byte	0x1
 1795 088a 01       		.byte	0x1
 1796 088b 95080000 		.4byte	0x895
 1797 088f 11       		.uleb128 0x11
 1798 0890 D4040000 		.4byte	0x4d4
 1799 0894 00       		.byte	0
 1800 0895 27       		.uleb128 0x27
 1801 0896 01       		.byte	0x1
 1802 0897 13020000 		.4byte	.LASF92
 1803 089b 08       		.byte	0x8
 1804 089c 2301     		.2byte	0x123
 1805 089e 01       		.byte	0x1
 1806 089f 01       		.byte	0x1
 1807 08a0 AF080000 		.4byte	0x8af
 1808 08a4 11       		.uleb128 0x11
ARM GAS  C:\Users\DNIEL~1\AppData\Local\Temp\ccuuZZtq.s 			page 33


 1809 08a5 7B000000 		.4byte	0x7b
 1810 08a9 11       		.uleb128 0x11
 1811 08aa 7B000000 		.4byte	0x7b
 1812 08ae 00       		.byte	0
 1813 08af 28       		.uleb128 0x28
 1814 08b0 01       		.byte	0x1
 1815 08b1 53010000 		.4byte	.LASF98
 1816 08b5 08       		.byte	0x8
 1817 08b6 2401     		.2byte	0x124
 1818 08b8 01       		.byte	0x1
 1819 08b9 01       		.byte	0x1
 1820 08ba 11       		.uleb128 0x11
 1821 08bb 7B000000 		.4byte	0x7b
 1822 08bf 00       		.byte	0
 1823 08c0 00       		.byte	0
 1824              		.section	.debug_abbrev,"",%progbits
 1825              	.Ldebug_abbrev0:
 1826 0000 01       		.uleb128 0x1
 1827 0001 11       		.uleb128 0x11
 1828 0002 01       		.byte	0x1
 1829 0003 25       		.uleb128 0x25
 1830 0004 0E       		.uleb128 0xe
 1831 0005 13       		.uleb128 0x13
 1832 0006 0B       		.uleb128 0xb
 1833 0007 03       		.uleb128 0x3
 1834 0008 0E       		.uleb128 0xe
 1835 0009 1B       		.uleb128 0x1b
 1836 000a 0E       		.uleb128 0xe
 1837 000b 55       		.uleb128 0x55
 1838 000c 06       		.uleb128 0x6
 1839 000d 11       		.uleb128 0x11
 1840 000e 01       		.uleb128 0x1
 1841 000f 52       		.uleb128 0x52
 1842 0010 01       		.uleb128 0x1
 1843 0011 10       		.uleb128 0x10
 1844 0012 06       		.uleb128 0x6
 1845 0013 00       		.byte	0
 1846 0014 00       		.byte	0
 1847 0015 02       		.uleb128 0x2
 1848 0016 24       		.uleb128 0x24
 1849 0017 00       		.byte	0
 1850 0018 0B       		.uleb128 0xb
 1851 0019 0B       		.uleb128 0xb
 1852 001a 3E       		.uleb128 0x3e
 1853 001b 0B       		.uleb128 0xb
 1854 001c 03       		.uleb128 0x3
 1855 001d 0E       		.uleb128 0xe
 1856 001e 00       		.byte	0
 1857 001f 00       		.byte	0
 1858 0020 03       		.uleb128 0x3
 1859 0021 24       		.uleb128 0x24
 1860 0022 00       		.byte	0
 1861 0023 0B       		.uleb128 0xb
 1862 0024 0B       		.uleb128 0xb
 1863 0025 3E       		.uleb128 0x3e
 1864 0026 0B       		.uleb128 0xb
 1865 0027 03       		.uleb128 0x3
ARM GAS  C:\Users\DNIEL~1\AppData\Local\Temp\ccuuZZtq.s 			page 34


 1866 0028 08       		.uleb128 0x8
 1867 0029 00       		.byte	0
 1868 002a 00       		.byte	0
 1869 002b 04       		.uleb128 0x4
 1870 002c 16       		.uleb128 0x16
 1871 002d 00       		.byte	0
 1872 002e 03       		.uleb128 0x3
 1873 002f 0E       		.uleb128 0xe
 1874 0030 3A       		.uleb128 0x3a
 1875 0031 0B       		.uleb128 0xb
 1876 0032 3B       		.uleb128 0x3b
 1877 0033 0B       		.uleb128 0xb
 1878 0034 49       		.uleb128 0x49
 1879 0035 13       		.uleb128 0x13
 1880 0036 00       		.byte	0
 1881 0037 00       		.byte	0
 1882 0038 05       		.uleb128 0x5
 1883 0039 35       		.uleb128 0x35
 1884 003a 00       		.byte	0
 1885 003b 49       		.uleb128 0x49
 1886 003c 13       		.uleb128 0x13
 1887 003d 00       		.byte	0
 1888 003e 00       		.byte	0
 1889 003f 06       		.uleb128 0x6
 1890 0040 01       		.uleb128 0x1
 1891 0041 01       		.byte	0x1
 1892 0042 49       		.uleb128 0x49
 1893 0043 13       		.uleb128 0x13
 1894 0044 01       		.uleb128 0x1
 1895 0045 13       		.uleb128 0x13
 1896 0046 00       		.byte	0
 1897 0047 00       		.byte	0
 1898 0048 07       		.uleb128 0x7
 1899 0049 21       		.uleb128 0x21
 1900 004a 00       		.byte	0
 1901 004b 49       		.uleb128 0x49
 1902 004c 13       		.uleb128 0x13
 1903 004d 2F       		.uleb128 0x2f
 1904 004e 0B       		.uleb128 0xb
 1905 004f 00       		.byte	0
 1906 0050 00       		.byte	0
 1907 0051 08       		.uleb128 0x8
 1908 0052 13       		.uleb128 0x13
 1909 0053 01       		.byte	0x1
 1910 0054 0B       		.uleb128 0xb
 1911 0055 0B       		.uleb128 0xb
 1912 0056 3A       		.uleb128 0x3a
 1913 0057 0B       		.uleb128 0xb
 1914 0058 3B       		.uleb128 0x3b
 1915 0059 05       		.uleb128 0x5
 1916 005a 01       		.uleb128 0x1
 1917 005b 13       		.uleb128 0x13
 1918 005c 00       		.byte	0
 1919 005d 00       		.byte	0
 1920 005e 09       		.uleb128 0x9
 1921 005f 0D       		.uleb128 0xd
 1922 0060 00       		.byte	0
ARM GAS  C:\Users\DNIEL~1\AppData\Local\Temp\ccuuZZtq.s 			page 35


 1923 0061 03       		.uleb128 0x3
 1924 0062 08       		.uleb128 0x8
 1925 0063 3A       		.uleb128 0x3a
 1926 0064 0B       		.uleb128 0xb
 1927 0065 3B       		.uleb128 0x3b
 1928 0066 05       		.uleb128 0x5
 1929 0067 49       		.uleb128 0x49
 1930 0068 13       		.uleb128 0x13
 1931 0069 38       		.uleb128 0x38
 1932 006a 0A       		.uleb128 0xa
 1933 006b 00       		.byte	0
 1934 006c 00       		.byte	0
 1935 006d 0A       		.uleb128 0xa
 1936 006e 0D       		.uleb128 0xd
 1937 006f 00       		.byte	0
 1938 0070 03       		.uleb128 0x3
 1939 0071 0E       		.uleb128 0xe
 1940 0072 3A       		.uleb128 0x3a
 1941 0073 0B       		.uleb128 0xb
 1942 0074 3B       		.uleb128 0x3b
 1943 0075 05       		.uleb128 0x5
 1944 0076 49       		.uleb128 0x49
 1945 0077 13       		.uleb128 0x13
 1946 0078 38       		.uleb128 0x38
 1947 0079 0A       		.uleb128 0xa
 1948 007a 00       		.byte	0
 1949 007b 00       		.byte	0
 1950 007c 0B       		.uleb128 0xb
 1951 007d 16       		.uleb128 0x16
 1952 007e 00       		.byte	0
 1953 007f 03       		.uleb128 0x3
 1954 0080 0E       		.uleb128 0xe
 1955 0081 3A       		.uleb128 0x3a
 1956 0082 0B       		.uleb128 0xb
 1957 0083 3B       		.uleb128 0x3b
 1958 0084 05       		.uleb128 0x5
 1959 0085 49       		.uleb128 0x49
 1960 0086 13       		.uleb128 0x13
 1961 0087 00       		.byte	0
 1962 0088 00       		.byte	0
 1963 0089 0C       		.uleb128 0xc
 1964 008a 0F       		.uleb128 0xf
 1965 008b 00       		.byte	0
 1966 008c 0B       		.uleb128 0xb
 1967 008d 0B       		.uleb128 0xb
 1968 008e 49       		.uleb128 0x49
 1969 008f 13       		.uleb128 0x13
 1970 0090 00       		.byte	0
 1971 0091 00       		.byte	0
 1972 0092 0D       		.uleb128 0xd
 1973 0093 04       		.uleb128 0x4
 1974 0094 01       		.byte	0x1
 1975 0095 0B       		.uleb128 0xb
 1976 0096 0B       		.uleb128 0xb
 1977 0097 3A       		.uleb128 0x3a
 1978 0098 0B       		.uleb128 0xb
 1979 0099 3B       		.uleb128 0x3b
ARM GAS  C:\Users\DNIEL~1\AppData\Local\Temp\ccuuZZtq.s 			page 36


 1980 009a 0B       		.uleb128 0xb
 1981 009b 01       		.uleb128 0x1
 1982 009c 13       		.uleb128 0x13
 1983 009d 00       		.byte	0
 1984 009e 00       		.byte	0
 1985 009f 0E       		.uleb128 0xe
 1986 00a0 28       		.uleb128 0x28
 1987 00a1 00       		.byte	0
 1988 00a2 03       		.uleb128 0x3
 1989 00a3 0E       		.uleb128 0xe
 1990 00a4 1C       		.uleb128 0x1c
 1991 00a5 0D       		.uleb128 0xd
 1992 00a6 00       		.byte	0
 1993 00a7 00       		.byte	0
 1994 00a8 0F       		.uleb128 0xf
 1995 00a9 13       		.uleb128 0x13
 1996 00aa 01       		.byte	0x1
 1997 00ab 03       		.uleb128 0x3
 1998 00ac 0E       		.uleb128 0xe
 1999 00ad 0B       		.uleb128 0xb
 2000 00ae 0B       		.uleb128 0xb
 2001 00af 3A       		.uleb128 0x3a
 2002 00b0 0B       		.uleb128 0xb
 2003 00b1 3B       		.uleb128 0x3b
 2004 00b2 05       		.uleb128 0x5
 2005 00b3 01       		.uleb128 0x1
 2006 00b4 13       		.uleb128 0x13
 2007 00b5 00       		.byte	0
 2008 00b6 00       		.byte	0
 2009 00b7 10       		.uleb128 0x10
 2010 00b8 15       		.uleb128 0x15
 2011 00b9 01       		.byte	0x1
 2012 00ba 27       		.uleb128 0x27
 2013 00bb 0C       		.uleb128 0xc
 2014 00bc 01       		.uleb128 0x1
 2015 00bd 13       		.uleb128 0x13
 2016 00be 00       		.byte	0
 2017 00bf 00       		.byte	0
 2018 00c0 11       		.uleb128 0x11
 2019 00c1 05       		.uleb128 0x5
 2020 00c2 00       		.byte	0
 2021 00c3 49       		.uleb128 0x49
 2022 00c4 13       		.uleb128 0x13
 2023 00c5 00       		.byte	0
 2024 00c6 00       		.byte	0
 2025 00c7 12       		.uleb128 0x12
 2026 00c8 26       		.uleb128 0x26
 2027 00c9 00       		.byte	0
 2028 00ca 49       		.uleb128 0x49
 2029 00cb 13       		.uleb128 0x13
 2030 00cc 00       		.byte	0
 2031 00cd 00       		.byte	0
 2032 00ce 13       		.uleb128 0x13
 2033 00cf 2E       		.uleb128 0x2e
 2034 00d0 01       		.byte	0x1
 2035 00d1 03       		.uleb128 0x3
 2036 00d2 0E       		.uleb128 0xe
ARM GAS  C:\Users\DNIEL~1\AppData\Local\Temp\ccuuZZtq.s 			page 37


 2037 00d3 3A       		.uleb128 0x3a
 2038 00d4 0B       		.uleb128 0xb
 2039 00d5 3B       		.uleb128 0x3b
 2040 00d6 0B       		.uleb128 0xb
 2041 00d7 27       		.uleb128 0x27
 2042 00d8 0C       		.uleb128 0xc
 2043 00d9 11       		.uleb128 0x11
 2044 00da 01       		.uleb128 0x1
 2045 00db 12       		.uleb128 0x12
 2046 00dc 01       		.uleb128 0x1
 2047 00dd 40       		.uleb128 0x40
 2048 00de 06       		.uleb128 0x6
 2049 00df 9742     		.uleb128 0x2117
 2050 00e1 0C       		.uleb128 0xc
 2051 00e2 01       		.uleb128 0x1
 2052 00e3 13       		.uleb128 0x13
 2053 00e4 00       		.byte	0
 2054 00e5 00       		.byte	0
 2055 00e6 14       		.uleb128 0x14
 2056 00e7 05       		.uleb128 0x5
 2057 00e8 00       		.byte	0
 2058 00e9 03       		.uleb128 0x3
 2059 00ea 0E       		.uleb128 0xe
 2060 00eb 3A       		.uleb128 0x3a
 2061 00ec 0B       		.uleb128 0xb
 2062 00ed 3B       		.uleb128 0x3b
 2063 00ee 0B       		.uleb128 0xb
 2064 00ef 49       		.uleb128 0x49
 2065 00f0 13       		.uleb128 0x13
 2066 00f1 02       		.uleb128 0x2
 2067 00f2 06       		.uleb128 0x6
 2068 00f3 00       		.byte	0
 2069 00f4 00       		.byte	0
 2070 00f5 15       		.uleb128 0x15
 2071 00f6 34       		.uleb128 0x34
 2072 00f7 00       		.byte	0
 2073 00f8 03       		.uleb128 0x3
 2074 00f9 08       		.uleb128 0x8
 2075 00fa 3A       		.uleb128 0x3a
 2076 00fb 0B       		.uleb128 0xb
 2077 00fc 3B       		.uleb128 0x3b
 2078 00fd 0B       		.uleb128 0xb
 2079 00fe 49       		.uleb128 0x49
 2080 00ff 13       		.uleb128 0x13
 2081 0100 02       		.uleb128 0x2
 2082 0101 06       		.uleb128 0x6
 2083 0102 00       		.byte	0
 2084 0103 00       		.byte	0
 2085 0104 16       		.uleb128 0x16
 2086 0105 898201   		.uleb128 0x4109
 2087 0108 01       		.byte	0x1
 2088 0109 11       		.uleb128 0x11
 2089 010a 01       		.uleb128 0x1
 2090 010b 01       		.uleb128 0x1
 2091 010c 13       		.uleb128 0x13
 2092 010d 00       		.byte	0
 2093 010e 00       		.byte	0
ARM GAS  C:\Users\DNIEL~1\AppData\Local\Temp\ccuuZZtq.s 			page 38


 2094 010f 17       		.uleb128 0x17
 2095 0110 8A8201   		.uleb128 0x410a
 2096 0113 00       		.byte	0
 2097 0114 02       		.uleb128 0x2
 2098 0115 0A       		.uleb128 0xa
 2099 0116 9142     		.uleb128 0x2111
 2100 0118 0A       		.uleb128 0xa
 2101 0119 00       		.byte	0
 2102 011a 00       		.byte	0
 2103 011b 18       		.uleb128 0x18
 2104 011c 898201   		.uleb128 0x4109
 2105 011f 01       		.byte	0x1
 2106 0120 11       		.uleb128 0x11
 2107 0121 01       		.uleb128 0x1
 2108 0122 00       		.byte	0
 2109 0123 00       		.byte	0
 2110 0124 19       		.uleb128 0x19
 2111 0125 2E       		.uleb128 0x2e
 2112 0126 01       		.byte	0x1
 2113 0127 3F       		.uleb128 0x3f
 2114 0128 0C       		.uleb128 0xc
 2115 0129 03       		.uleb128 0x3
 2116 012a 0E       		.uleb128 0xe
 2117 012b 3A       		.uleb128 0x3a
 2118 012c 0B       		.uleb128 0xb
 2119 012d 3B       		.uleb128 0x3b
 2120 012e 0B       		.uleb128 0xb
 2121 012f 27       		.uleb128 0x27
 2122 0130 0C       		.uleb128 0xc
 2123 0131 11       		.uleb128 0x11
 2124 0132 01       		.uleb128 0x1
 2125 0133 12       		.uleb128 0x12
 2126 0134 01       		.uleb128 0x1
 2127 0135 40       		.uleb128 0x40
 2128 0136 06       		.uleb128 0x6
 2129 0137 9742     		.uleb128 0x2117
 2130 0139 0C       		.uleb128 0xc
 2131 013a 01       		.uleb128 0x1
 2132 013b 13       		.uleb128 0x13
 2133 013c 00       		.byte	0
 2134 013d 00       		.byte	0
 2135 013e 1A       		.uleb128 0x1a
 2136 013f 898201   		.uleb128 0x4109
 2137 0142 01       		.byte	0x1
 2138 0143 11       		.uleb128 0x11
 2139 0144 01       		.uleb128 0x1
 2140 0145 31       		.uleb128 0x31
 2141 0146 13       		.uleb128 0x13
 2142 0147 01       		.uleb128 0x1
 2143 0148 13       		.uleb128 0x13
 2144 0149 00       		.byte	0
 2145 014a 00       		.byte	0
 2146 014b 1B       		.uleb128 0x1b
 2147 014c 898201   		.uleb128 0x4109
 2148 014f 00       		.byte	0
 2149 0150 11       		.uleb128 0x11
 2150 0151 01       		.uleb128 0x1
ARM GAS  C:\Users\DNIEL~1\AppData\Local\Temp\ccuuZZtq.s 			page 39


 2151 0152 9542     		.uleb128 0x2115
 2152 0154 0C       		.uleb128 0xc
 2153 0155 31       		.uleb128 0x31
 2154 0156 13       		.uleb128 0x13
 2155 0157 00       		.byte	0
 2156 0158 00       		.byte	0
 2157 0159 1C       		.uleb128 0x1c
 2158 015a 2E       		.uleb128 0x2e
 2159 015b 01       		.byte	0x1
 2160 015c 3F       		.uleb128 0x3f
 2161 015d 0C       		.uleb128 0xc
 2162 015e 03       		.uleb128 0x3
 2163 015f 0E       		.uleb128 0xe
 2164 0160 3A       		.uleb128 0x3a
 2165 0161 0B       		.uleb128 0xb
 2166 0162 3B       		.uleb128 0x3b
 2167 0163 05       		.uleb128 0x5
 2168 0164 27       		.uleb128 0x27
 2169 0165 0C       		.uleb128 0xc
 2170 0166 11       		.uleb128 0x11
 2171 0167 01       		.uleb128 0x1
 2172 0168 12       		.uleb128 0x12
 2173 0169 01       		.uleb128 0x1
 2174 016a 40       		.uleb128 0x40
 2175 016b 06       		.uleb128 0x6
 2176 016c 9742     		.uleb128 0x2117
 2177 016e 0C       		.uleb128 0xc
 2178 016f 01       		.uleb128 0x1
 2179 0170 13       		.uleb128 0x13
 2180 0171 00       		.byte	0
 2181 0172 00       		.byte	0
 2182 0173 1D       		.uleb128 0x1d
 2183 0174 898201   		.uleb128 0x4109
 2184 0177 01       		.byte	0x1
 2185 0178 11       		.uleb128 0x11
 2186 0179 01       		.uleb128 0x1
 2187 017a 31       		.uleb128 0x31
 2188 017b 13       		.uleb128 0x13
 2189 017c 00       		.byte	0
 2190 017d 00       		.byte	0
 2191 017e 1E       		.uleb128 0x1e
 2192 017f 05       		.uleb128 0x5
 2193 0180 00       		.byte	0
 2194 0181 03       		.uleb128 0x3
 2195 0182 0E       		.uleb128 0xe
 2196 0183 3A       		.uleb128 0x3a
 2197 0184 0B       		.uleb128 0xb
 2198 0185 3B       		.uleb128 0x3b
 2199 0186 05       		.uleb128 0x5
 2200 0187 49       		.uleb128 0x49
 2201 0188 13       		.uleb128 0x13
 2202 0189 02       		.uleb128 0x2
 2203 018a 06       		.uleb128 0x6
 2204 018b 00       		.byte	0
 2205 018c 00       		.byte	0
 2206 018d 1F       		.uleb128 0x1f
 2207 018e 34       		.uleb128 0x34
ARM GAS  C:\Users\DNIEL~1\AppData\Local\Temp\ccuuZZtq.s 			page 40


 2208 018f 00       		.byte	0
 2209 0190 03       		.uleb128 0x3
 2210 0191 08       		.uleb128 0x8
 2211 0192 3A       		.uleb128 0x3a
 2212 0193 0B       		.uleb128 0xb
 2213 0194 3B       		.uleb128 0x3b
 2214 0195 05       		.uleb128 0x5
 2215 0196 49       		.uleb128 0x49
 2216 0197 13       		.uleb128 0x13
 2217 0198 02       		.uleb128 0x2
 2218 0199 06       		.uleb128 0x6
 2219 019a 00       		.byte	0
 2220 019b 00       		.byte	0
 2221 019c 20       		.uleb128 0x20
 2222 019d 34       		.uleb128 0x34
 2223 019e 00       		.byte	0
 2224 019f 03       		.uleb128 0x3
 2225 01a0 0E       		.uleb128 0xe
 2226 01a1 3A       		.uleb128 0x3a
 2227 01a2 0B       		.uleb128 0xb
 2228 01a3 3B       		.uleb128 0x3b
 2229 01a4 05       		.uleb128 0x5
 2230 01a5 49       		.uleb128 0x49
 2231 01a6 13       		.uleb128 0x13
 2232 01a7 02       		.uleb128 0x2
 2233 01a8 06       		.uleb128 0x6
 2234 01a9 00       		.byte	0
 2235 01aa 00       		.byte	0
 2236 01ab 21       		.uleb128 0x21
 2237 01ac 0B       		.uleb128 0xb
 2238 01ad 01       		.byte	0x1
 2239 01ae 11       		.uleb128 0x11
 2240 01af 01       		.uleb128 0x1
 2241 01b0 12       		.uleb128 0x12
 2242 01b1 01       		.uleb128 0x1
 2243 01b2 00       		.byte	0
 2244 01b3 00       		.byte	0
 2245 01b4 22       		.uleb128 0x22
 2246 01b5 2E       		.uleb128 0x2e
 2247 01b6 01       		.byte	0x1
 2248 01b7 3F       		.uleb128 0x3f
 2249 01b8 0C       		.uleb128 0xc
 2250 01b9 03       		.uleb128 0x3
 2251 01ba 0E       		.uleb128 0xe
 2252 01bb 3A       		.uleb128 0x3a
 2253 01bc 0B       		.uleb128 0xb
 2254 01bd 3B       		.uleb128 0x3b
 2255 01be 05       		.uleb128 0x5
 2256 01bf 27       		.uleb128 0x27
 2257 01c0 0C       		.uleb128 0xc
 2258 01c1 11       		.uleb128 0x11
 2259 01c2 01       		.uleb128 0x1
 2260 01c3 12       		.uleb128 0x12
 2261 01c4 01       		.uleb128 0x1
 2262 01c5 40       		.uleb128 0x40
 2263 01c6 0A       		.uleb128 0xa
 2264 01c7 9742     		.uleb128 0x2117
ARM GAS  C:\Users\DNIEL~1\AppData\Local\Temp\ccuuZZtq.s 			page 41


 2265 01c9 0C       		.uleb128 0xc
 2266 01ca 01       		.uleb128 0x1
 2267 01cb 13       		.uleb128 0x13
 2268 01cc 00       		.byte	0
 2269 01cd 00       		.byte	0
 2270 01ce 23       		.uleb128 0x23
 2271 01cf 34       		.uleb128 0x34
 2272 01d0 00       		.byte	0
 2273 01d1 03       		.uleb128 0x3
 2274 01d2 0E       		.uleb128 0xe
 2275 01d3 3A       		.uleb128 0x3a
 2276 01d4 0B       		.uleb128 0xb
 2277 01d5 3B       		.uleb128 0x3b
 2278 01d6 05       		.uleb128 0x5
 2279 01d7 49       		.uleb128 0x49
 2280 01d8 13       		.uleb128 0x13
 2281 01d9 3F       		.uleb128 0x3f
 2282 01da 0C       		.uleb128 0xc
 2283 01db 3C       		.uleb128 0x3c
 2284 01dc 0C       		.uleb128 0xc
 2285 01dd 00       		.byte	0
 2286 01de 00       		.byte	0
 2287 01df 24       		.uleb128 0x24
 2288 01e0 34       		.uleb128 0x34
 2289 01e1 00       		.byte	0
 2290 01e2 03       		.uleb128 0x3
 2291 01e3 0E       		.uleb128 0xe
 2292 01e4 3A       		.uleb128 0x3a
 2293 01e5 0B       		.uleb128 0xb
 2294 01e6 3B       		.uleb128 0x3b
 2295 01e7 0B       		.uleb128 0xb
 2296 01e8 49       		.uleb128 0x49
 2297 01e9 13       		.uleb128 0x13
 2298 01ea 3F       		.uleb128 0x3f
 2299 01eb 0C       		.uleb128 0xc
 2300 01ec 02       		.uleb128 0x2
 2301 01ed 0A       		.uleb128 0xa
 2302 01ee 00       		.byte	0
 2303 01ef 00       		.byte	0
 2304 01f0 25       		.uleb128 0x25
 2305 01f1 2E       		.uleb128 0x2e
 2306 01f2 00       		.byte	0
 2307 01f3 3F       		.uleb128 0x3f
 2308 01f4 0C       		.uleb128 0xc
 2309 01f5 03       		.uleb128 0x3
 2310 01f6 0E       		.uleb128 0xe
 2311 01f7 3A       		.uleb128 0x3a
 2312 01f8 0B       		.uleb128 0xb
 2313 01f9 3B       		.uleb128 0x3b
 2314 01fa 05       		.uleb128 0x5
 2315 01fb 27       		.uleb128 0x27
 2316 01fc 0C       		.uleb128 0xc
 2317 01fd 3C       		.uleb128 0x3c
 2318 01fe 0C       		.uleb128 0xc
 2319 01ff 00       		.byte	0
 2320 0200 00       		.byte	0
 2321 0201 26       		.uleb128 0x26
ARM GAS  C:\Users\DNIEL~1\AppData\Local\Temp\ccuuZZtq.s 			page 42


 2322 0202 2E       		.uleb128 0x2e
 2323 0203 01       		.byte	0x1
 2324 0204 3F       		.uleb128 0x3f
 2325 0205 0C       		.uleb128 0xc
 2326 0206 03       		.uleb128 0x3
 2327 0207 0E       		.uleb128 0xe
 2328 0208 3A       		.uleb128 0x3a
 2329 0209 0B       		.uleb128 0xb
 2330 020a 3B       		.uleb128 0x3b
 2331 020b 0B       		.uleb128 0xb
 2332 020c 27       		.uleb128 0x27
 2333 020d 0C       		.uleb128 0xc
 2334 020e 3C       		.uleb128 0x3c
 2335 020f 0C       		.uleb128 0xc
 2336 0210 01       		.uleb128 0x1
 2337 0211 13       		.uleb128 0x13
 2338 0212 00       		.byte	0
 2339 0213 00       		.byte	0
 2340 0214 27       		.uleb128 0x27
 2341 0215 2E       		.uleb128 0x2e
 2342 0216 01       		.byte	0x1
 2343 0217 3F       		.uleb128 0x3f
 2344 0218 0C       		.uleb128 0xc
 2345 0219 03       		.uleb128 0x3
 2346 021a 0E       		.uleb128 0xe
 2347 021b 3A       		.uleb128 0x3a
 2348 021c 0B       		.uleb128 0xb
 2349 021d 3B       		.uleb128 0x3b
 2350 021e 05       		.uleb128 0x5
 2351 021f 27       		.uleb128 0x27
 2352 0220 0C       		.uleb128 0xc
 2353 0221 3C       		.uleb128 0x3c
 2354 0222 0C       		.uleb128 0xc
 2355 0223 01       		.uleb128 0x1
 2356 0224 13       		.uleb128 0x13
 2357 0225 00       		.byte	0
 2358 0226 00       		.byte	0
 2359 0227 28       		.uleb128 0x28
 2360 0228 2E       		.uleb128 0x2e
 2361 0229 01       		.byte	0x1
 2362 022a 3F       		.uleb128 0x3f
 2363 022b 0C       		.uleb128 0xc
 2364 022c 03       		.uleb128 0x3
 2365 022d 0E       		.uleb128 0xe
 2366 022e 3A       		.uleb128 0x3a
 2367 022f 0B       		.uleb128 0xb
 2368 0230 3B       		.uleb128 0x3b
 2369 0231 05       		.uleb128 0x5
 2370 0232 27       		.uleb128 0x27
 2371 0233 0C       		.uleb128 0xc
 2372 0234 3C       		.uleb128 0x3c
 2373 0235 0C       		.uleb128 0xc
 2374 0236 00       		.byte	0
 2375 0237 00       		.byte	0
 2376 0238 00       		.byte	0
 2377              		.section	.debug_loc,"",%progbits
 2378              	.Ldebug_loc0:
ARM GAS  C:\Users\DNIEL~1\AppData\Local\Temp\ccuuZZtq.s 			page 43


 2379              	.LLST0:
 2380 0000 00000000 		.4byte	.LFB118
 2381 0004 02000000 		.4byte	.LCFI0
 2382 0008 0200     		.2byte	0x2
 2383 000a 7D       		.byte	0x7d
 2384 000b 00       		.sleb128 0
 2385 000c 02000000 		.4byte	.LCFI0
 2386 0010 68000000 		.4byte	.LFE118
 2387 0014 0200     		.2byte	0x2
 2388 0016 7D       		.byte	0x7d
 2389 0017 10       		.sleb128 16
 2390 0018 00000000 		.4byte	0
 2391 001c 00000000 		.4byte	0
 2392              	.LLST1:
 2393 0020 00000000 		.4byte	.LVL0
 2394 0024 1C000000 		.4byte	.LVL3
 2395 0028 0100     		.2byte	0x1
 2396 002a 50       		.byte	0x50
 2397 002b 1C000000 		.4byte	.LVL3
 2398 002f 60000000 		.4byte	.LVL8
 2399 0033 0100     		.2byte	0x1
 2400 0035 55       		.byte	0x55
 2401 0036 60000000 		.4byte	.LVL8
 2402 003a 65000000 		.4byte	.LVL9-1
 2403 003e 0100     		.2byte	0x1
 2404 0040 50       		.byte	0x50
 2405 0041 65000000 		.4byte	.LVL9-1
 2406 0045 68000000 		.4byte	.LFE118
 2407 0049 0100     		.2byte	0x1
 2408 004b 55       		.byte	0x55
 2409 004c 00000000 		.4byte	0
 2410 0050 00000000 		.4byte	0
 2411              	.LLST2:
 2412 0054 06000000 		.4byte	.LVL1
 2413 0058 0C000000 		.4byte	.LVL2
 2414 005c 0100     		.2byte	0x1
 2415 005e 52       		.byte	0x52
 2416 005f 0C000000 		.4byte	.LVL2
 2417 0063 68000000 		.4byte	.LFE118
 2418 0067 0600     		.2byte	0x6
 2419 0069 74       		.byte	0x74
 2420 006a 00       		.sleb128 0
 2421 006b 08       		.byte	0x8
 2422 006c FF       		.byte	0xff
 2423 006d 1A       		.byte	0x1a
 2424 006e 9F       		.byte	0x9f
 2425 006f 00000000 		.4byte	0
 2426 0073 00000000 		.4byte	0
 2427              	.LLST3:
 2428 0077 00000000 		.4byte	.LFB119
 2429 007b 02000000 		.4byte	.LCFI1
 2430 007f 0200     		.2byte	0x2
 2431 0081 7D       		.byte	0x7d
 2432 0082 00       		.sleb128 0
 2433 0083 02000000 		.4byte	.LCFI1
 2434 0087 16000000 		.4byte	.LFE119
 2435 008b 0200     		.2byte	0x2
ARM GAS  C:\Users\DNIEL~1\AppData\Local\Temp\ccuuZZtq.s 			page 44


 2436 008d 7D       		.byte	0x7d
 2437 008e 08       		.sleb128 8
 2438 008f 00000000 		.4byte	0
 2439 0093 00000000 		.4byte	0
 2440              	.LLST4:
 2441 0097 00000000 		.4byte	.LFB120
 2442 009b 02000000 		.4byte	.LCFI2
 2443 009f 0200     		.2byte	0x2
 2444 00a1 7D       		.byte	0x7d
 2445 00a2 00       		.sleb128 0
 2446 00a3 02000000 		.4byte	.LCFI2
 2447 00a7 16000000 		.4byte	.LFE120
 2448 00ab 0200     		.2byte	0x2
 2449 00ad 7D       		.byte	0x7d
 2450 00ae 08       		.sleb128 8
 2451 00af 00000000 		.4byte	0
 2452 00b3 00000000 		.4byte	0
 2453              	.LLST5:
 2454 00b7 00000000 		.4byte	.LFB121
 2455 00bb 02000000 		.4byte	.LCFI3
 2456 00bf 0200     		.2byte	0x2
 2457 00c1 7D       		.byte	0x7d
 2458 00c2 00       		.sleb128 0
 2459 00c3 02000000 		.4byte	.LCFI3
 2460 00c7 34000000 		.4byte	.LFE121
 2461 00cb 0200     		.2byte	0x2
 2462 00cd 7D       		.byte	0x7d
 2463 00ce 10       		.sleb128 16
 2464 00cf 00000000 		.4byte	0
 2465 00d3 00000000 		.4byte	0
 2466              	.LLST6:
 2467 00d7 00000000 		.4byte	.LFB122
 2468 00db 06000000 		.4byte	.LCFI4
 2469 00df 0200     		.2byte	0x2
 2470 00e1 7D       		.byte	0x7d
 2471 00e2 00       		.sleb128 0
 2472 00e3 06000000 		.4byte	.LCFI4
 2473 00e7 3C010000 		.4byte	.LFE122
 2474 00eb 0200     		.2byte	0x2
 2475 00ed 7D       		.byte	0x7d
 2476 00ee 10       		.sleb128 16
 2477 00ef 00000000 		.4byte	0
 2478 00f3 00000000 		.4byte	0
 2479              	.LLST7:
 2480 00f7 00000000 		.4byte	.LVL16
 2481 00fb 1A000000 		.4byte	.LVL17
 2482 00ff 0100     		.2byte	0x1
 2483 0101 50       		.byte	0x50
 2484 0102 1A000000 		.4byte	.LVL17
 2485 0106 22000000 		.4byte	.LVL19
 2486 010a 0100     		.2byte	0x1
 2487 010c 54       		.byte	0x54
 2488 010d 22000000 		.4byte	.LVL19
 2489 0111 CE000000 		.4byte	.LVL35
 2490 0115 0400     		.2byte	0x4
 2491 0117 F3       		.byte	0xf3
 2492 0118 01       		.uleb128 0x1
ARM GAS  C:\Users\DNIEL~1\AppData\Local\Temp\ccuuZZtq.s 			page 45


 2493 0119 50       		.byte	0x50
 2494 011a 9F       		.byte	0x9f
 2495 011b CE000000 		.4byte	.LVL35
 2496 011f D0000000 		.4byte	.LVL36
 2497 0123 0100     		.2byte	0x1
 2498 0125 50       		.byte	0x50
 2499 0126 D0000000 		.4byte	.LVL36
 2500 012a 3C010000 		.4byte	.LFE122
 2501 012e 0100     		.2byte	0x1
 2502 0130 54       		.byte	0x54
 2503 0131 00000000 		.4byte	0
 2504 0135 00000000 		.4byte	0
 2505              	.LLST8:
 2506 0139 1C000000 		.4byte	.LVL18
 2507 013d 22000000 		.4byte	.LVL19
 2508 0141 1000     		.2byte	0x10
 2509 0143 74       		.byte	0x74
 2510 0144 0C       		.sleb128 12
 2511 0145 06       		.byte	0x6
 2512 0146 F7       		.byte	0xf7
 2513 0147 29       		.uleb128 0x29
 2514 0148 72       		.byte	0x72
 2515 0149 00       		.sleb128 0
 2516 014a 06       		.byte	0x6
 2517 014b F7       		.byte	0xf7
 2518 014c 29       		.uleb128 0x29
 2519 014d 1B       		.byte	0x1b
 2520 014e F7       		.byte	0xf7
 2521 014f 00       		.uleb128 0
 2522 0150 31       		.byte	0x31
 2523 0151 1C       		.byte	0x1c
 2524 0152 9F       		.byte	0x9f
 2525 0153 22000000 		.4byte	.LVL19
 2526 0157 2C000000 		.4byte	.LVL20
 2527 015b 0F00     		.2byte	0xf
 2528 015d 76       		.byte	0x76
 2529 015e 00       		.sleb128 0
 2530 015f F7       		.byte	0xf7
 2531 0160 29       		.uleb128 0x29
 2532 0161 72       		.byte	0x72
 2533 0162 00       		.sleb128 0
 2534 0163 06       		.byte	0x6
 2535 0164 F7       		.byte	0xf7
 2536 0165 29       		.uleb128 0x29
 2537 0166 1B       		.byte	0x1b
 2538 0167 F7       		.byte	0xf7
 2539 0168 00       		.uleb128 0
 2540 0169 31       		.byte	0x31
 2541 016a 1C       		.byte	0x1c
 2542 016b 9F       		.byte	0x9f
 2543 016c 2C000000 		.4byte	.LVL20
 2544 0170 34000000 		.4byte	.LVL21
 2545 0174 0100     		.2byte	0x1
 2546 0176 55       		.byte	0x55
 2547 0177 34000000 		.4byte	.LVL21
 2548 017b 7C000000 		.4byte	.LVL24
 2549 017f 0F00     		.2byte	0xf
ARM GAS  C:\Users\DNIEL~1\AppData\Local\Temp\ccuuZZtq.s 			page 46


 2550 0181 76       		.byte	0x76
 2551 0182 00       		.sleb128 0
 2552 0183 F7       		.byte	0xf7
 2553 0184 29       		.uleb128 0x29
 2554 0185 72       		.byte	0x72
 2555 0186 00       		.sleb128 0
 2556 0187 06       		.byte	0x6
 2557 0188 F7       		.byte	0xf7
 2558 0189 29       		.uleb128 0x29
 2559 018a 1B       		.byte	0x1b
 2560 018b F7       		.byte	0xf7
 2561 018c 00       		.uleb128 0
 2562 018d 31       		.byte	0x31
 2563 018e 1C       		.byte	0x1c
 2564 018f 9F       		.byte	0x9f
 2565 0190 7C000000 		.4byte	.LVL24
 2566 0194 94000000 		.4byte	.LVL26
 2567 0198 1300     		.2byte	0x13
 2568 019a 76       		.byte	0x76
 2569 019b 00       		.sleb128 0
 2570 019c F7       		.byte	0xf7
 2571 019d 29       		.uleb128 0x29
 2572 019e F3       		.byte	0xf3
 2573 019f 01       		.uleb128 0x1
 2574 01a0 50       		.byte	0x50
 2575 01a1 23       		.byte	0x23
 2576 01a2 04       		.uleb128 0x4
 2577 01a3 06       		.byte	0x6
 2578 01a4 06       		.byte	0x6
 2579 01a5 F7       		.byte	0xf7
 2580 01a6 29       		.uleb128 0x29
 2581 01a7 1B       		.byte	0x1b
 2582 01a8 F7       		.byte	0xf7
 2583 01a9 00       		.uleb128 0
 2584 01aa 31       		.byte	0x31
 2585 01ab 1C       		.byte	0x1c
 2586 01ac 9F       		.byte	0x9f
 2587 01ad 94000000 		.4byte	.LVL26
 2588 01b1 CE000000 		.4byte	.LVL35
 2589 01b5 0F00     		.2byte	0xf
 2590 01b7 76       		.byte	0x76
 2591 01b8 00       		.sleb128 0
 2592 01b9 F7       		.byte	0xf7
 2593 01ba 29       		.uleb128 0x29
 2594 01bb 72       		.byte	0x72
 2595 01bc 00       		.sleb128 0
 2596 01bd 06       		.byte	0x6
 2597 01be F7       		.byte	0xf7
 2598 01bf 29       		.uleb128 0x29
 2599 01c0 1B       		.byte	0x1b
 2600 01c1 F7       		.byte	0xf7
 2601 01c2 00       		.uleb128 0
 2602 01c3 31       		.byte	0x31
 2603 01c4 1C       		.byte	0x1c
 2604 01c5 9F       		.byte	0x9f
 2605 01c6 00000000 		.4byte	0
 2606 01ca 00000000 		.4byte	0
ARM GAS  C:\Users\DNIEL~1\AppData\Local\Temp\ccuuZZtq.s 			page 47


 2607              	.LLST9:
 2608 01ce 3E000000 		.4byte	.LVL22
 2609 01d2 48000000 		.4byte	.LVL23
 2610 01d6 0200     		.2byte	0x2
 2611 01d8 30       		.byte	0x30
 2612 01d9 9F       		.byte	0x9f
 2613 01da 48000000 		.4byte	.LVL23
 2614 01de 86000000 		.4byte	.LVL25
 2615 01e2 0100     		.2byte	0x1
 2616 01e4 51       		.byte	0x51
 2617 01e5 86000000 		.4byte	.LVL25
 2618 01e9 94000000 		.4byte	.LVL26
 2619 01ed 0200     		.2byte	0x2
 2620 01ef 73       		.byte	0x73
 2621 01f0 20       		.sleb128 32
 2622 01f1 94000000 		.4byte	.LVL26
 2623 01f5 CE000000 		.4byte	.LVL35
 2624 01f9 0100     		.2byte	0x1
 2625 01fb 51       		.byte	0x51
 2626 01fc 00000000 		.4byte	0
 2627 0200 00000000 		.4byte	0
 2628              	.LLST10:
 2629 0204 00000000 		.4byte	.LFB123
 2630 0208 02000000 		.4byte	.LCFI5
 2631 020c 0200     		.2byte	0x2
 2632 020e 7D       		.byte	0x7d
 2633 020f 00       		.sleb128 0
 2634 0210 02000000 		.4byte	.LCFI5
 2635 0214 58000000 		.4byte	.LFE123
 2636 0218 0200     		.2byte	0x2
 2637 021a 7D       		.byte	0x7d
 2638 021b 08       		.sleb128 8
 2639 021c 00000000 		.4byte	0
 2640 0220 00000000 		.4byte	0
 2641              	.LLST11:
 2642 0224 00000000 		.4byte	.LVL38
 2643 0228 08000000 		.4byte	.LVL39
 2644 022c 0100     		.2byte	0x1
 2645 022e 50       		.byte	0x50
 2646 022f 08000000 		.4byte	.LVL39
 2647 0233 0A000000 		.4byte	.LVL40
 2648 0237 0400     		.2byte	0x4
 2649 0239 F3       		.byte	0xf3
 2650 023a 01       		.uleb128 0x1
 2651 023b 50       		.byte	0x50
 2652 023c 9F       		.byte	0x9f
 2653 023d 0A000000 		.4byte	.LVL40
 2654 0241 22000000 		.4byte	.LVL41
 2655 0245 0100     		.2byte	0x1
 2656 0247 50       		.byte	0x50
 2657 0248 22000000 		.4byte	.LVL41
 2658 024c 38000000 		.4byte	.LVL43
 2659 0250 0400     		.2byte	0x4
 2660 0252 F3       		.byte	0xf3
 2661 0253 01       		.uleb128 0x1
 2662 0254 50       		.byte	0x50
 2663 0255 9F       		.byte	0x9f
ARM GAS  C:\Users\DNIEL~1\AppData\Local\Temp\ccuuZZtq.s 			page 48


 2664 0256 38000000 		.4byte	.LVL43
 2665 025a 3A000000 		.4byte	.LVL44
 2666 025e 0100     		.2byte	0x1
 2667 0260 50       		.byte	0x50
 2668 0261 3A000000 		.4byte	.LVL44
 2669 0265 58000000 		.4byte	.LFE123
 2670 0269 0400     		.2byte	0x4
 2671 026b F3       		.byte	0xf3
 2672 026c 01       		.uleb128 0x1
 2673 026d 50       		.byte	0x50
 2674 026e 9F       		.byte	0x9f
 2675 026f 00000000 		.4byte	0
 2676 0273 00000000 		.4byte	0
 2677              	.LLST12:
 2678 0277 00000000 		.4byte	.LFB124
 2679 027b 02000000 		.4byte	.LCFI6
 2680 027f 0200     		.2byte	0x2
 2681 0281 7D       		.byte	0x7d
 2682 0282 00       		.sleb128 0
 2683 0283 02000000 		.4byte	.LCFI6
 2684 0287 30000000 		.4byte	.LFE124
 2685 028b 0200     		.2byte	0x2
 2686 028d 7D       		.byte	0x7d
 2687 028e 04       		.sleb128 4
 2688 028f 00000000 		.4byte	0
 2689 0293 00000000 		.4byte	0
 2690              	.LLST13:
 2691 0297 00000000 		.4byte	.LVL46
 2692 029b 0A000000 		.4byte	.LVL47
 2693 029f 0100     		.2byte	0x1
 2694 02a1 50       		.byte	0x50
 2695 02a2 0A000000 		.4byte	.LVL47
 2696 02a6 30000000 		.4byte	.LFE124
 2697 02aa 0400     		.2byte	0x4
 2698 02ac F3       		.byte	0xf3
 2699 02ad 01       		.uleb128 0x1
 2700 02ae 50       		.byte	0x50
 2701 02af 9F       		.byte	0x9f
 2702 02b0 00000000 		.4byte	0
 2703 02b4 00000000 		.4byte	0
 2704              	.LLST14:
 2705 02b8 00000000 		.4byte	.LVL46
 2706 02bc 20000000 		.4byte	.LVL49
 2707 02c0 0100     		.2byte	0x1
 2708 02c2 51       		.byte	0x51
 2709 02c3 20000000 		.4byte	.LVL49
 2710 02c7 30000000 		.4byte	.LFE124
 2711 02cb 0400     		.2byte	0x4
 2712 02cd F3       		.byte	0xf3
 2713 02ce 01       		.uleb128 0x1
 2714 02cf 51       		.byte	0x51
 2715 02d0 9F       		.byte	0x9f
 2716 02d1 00000000 		.4byte	0
 2717 02d5 00000000 		.4byte	0
 2718              	.LLST15:
 2719 02d9 00000000 		.4byte	.LVL46
 2720 02dd 1C000000 		.4byte	.LVL48
ARM GAS  C:\Users\DNIEL~1\AppData\Local\Temp\ccuuZZtq.s 			page 49


 2721 02e1 0100     		.2byte	0x1
 2722 02e3 52       		.byte	0x52
 2723 02e4 1C000000 		.4byte	.LVL48
 2724 02e8 30000000 		.4byte	.LFE124
 2725 02ec 0400     		.2byte	0x4
 2726 02ee F3       		.byte	0xf3
 2727 02ef 01       		.uleb128 0x1
 2728 02f0 52       		.byte	0x52
 2729 02f1 9F       		.byte	0x9f
 2730 02f2 00000000 		.4byte	0
 2731 02f6 00000000 		.4byte	0
 2732              	.LLST16:
 2733 02fa 1C000000 		.4byte	.LVL48
 2734 02fe 26000000 		.4byte	.LVL50
 2735 0302 0100     		.2byte	0x1
 2736 0304 52       		.byte	0x52
 2737 0305 00000000 		.4byte	0
 2738 0309 00000000 		.4byte	0
 2739              	.LLST17:
 2740 030d 00000000 		.4byte	.LVL51
 2741 0311 0C000000 		.4byte	.LVL52
 2742 0315 0100     		.2byte	0x1
 2743 0317 50       		.byte	0x50
 2744 0318 0C000000 		.4byte	.LVL52
 2745 031c 1E000000 		.4byte	.LFE125
 2746 0320 0400     		.2byte	0x4
 2747 0322 F3       		.byte	0xf3
 2748 0323 01       		.uleb128 0x1
 2749 0324 50       		.byte	0x50
 2750 0325 9F       		.byte	0x9f
 2751 0326 00000000 		.4byte	0
 2752 032a 00000000 		.4byte	0
 2753              	.LLST18:
 2754 032e 00000000 		.4byte	.LVL51
 2755 0332 16000000 		.4byte	.LVL53
 2756 0336 0100     		.2byte	0x1
 2757 0338 51       		.byte	0x51
 2758 0339 16000000 		.4byte	.LVL53
 2759 033d 1E000000 		.4byte	.LFE125
 2760 0341 0400     		.2byte	0x4
 2761 0343 F3       		.byte	0xf3
 2762 0344 01       		.uleb128 0x1
 2763 0345 51       		.byte	0x51
 2764 0346 9F       		.byte	0x9f
 2765 0347 00000000 		.4byte	0
 2766 034b 00000000 		.4byte	0
 2767              		.section	.debug_aranges,"",%progbits
 2768 0000 54000000 		.4byte	0x54
 2769 0004 0200     		.2byte	0x2
 2770 0006 00000000 		.4byte	.Ldebug_info0
 2771 000a 04       		.byte	0x4
 2772 000b 00       		.byte	0
 2773 000c 0000     		.2byte	0
 2774 000e 0000     		.2byte	0
 2775 0010 00000000 		.4byte	.LFB118
 2776 0014 68000000 		.4byte	.LFE118-.LFB118
 2777 0018 00000000 		.4byte	.LFB119
ARM GAS  C:\Users\DNIEL~1\AppData\Local\Temp\ccuuZZtq.s 			page 50


 2778 001c 16000000 		.4byte	.LFE119-.LFB119
 2779 0020 00000000 		.4byte	.LFB120
 2780 0024 16000000 		.4byte	.LFE120-.LFB120
 2781 0028 00000000 		.4byte	.LFB121
 2782 002c 34000000 		.4byte	.LFE121-.LFB121
 2783 0030 00000000 		.4byte	.LFB122
 2784 0034 3C010000 		.4byte	.LFE122-.LFB122
 2785 0038 00000000 		.4byte	.LFB123
 2786 003c 58000000 		.4byte	.LFE123-.LFB123
 2787 0040 00000000 		.4byte	.LFB124
 2788 0044 30000000 		.4byte	.LFE124-.LFB124
 2789 0048 00000000 		.4byte	.LFB125
 2790 004c 1E000000 		.4byte	.LFE125-.LFB125
 2791 0050 00000000 		.4byte	0
 2792 0054 00000000 		.4byte	0
 2793              		.section	.debug_ranges,"",%progbits
 2794              	.Ldebug_ranges0:
 2795 0000 00000000 		.4byte	.LFB118
 2796 0004 68000000 		.4byte	.LFE118
 2797 0008 00000000 		.4byte	.LFB119
 2798 000c 16000000 		.4byte	.LFE119
 2799 0010 00000000 		.4byte	.LFB120
 2800 0014 16000000 		.4byte	.LFE120
 2801 0018 00000000 		.4byte	.LFB121
 2802 001c 34000000 		.4byte	.LFE121
 2803 0020 00000000 		.4byte	.LFB122
 2804 0024 3C010000 		.4byte	.LFE122
 2805 0028 00000000 		.4byte	.LFB123
 2806 002c 58000000 		.4byte	.LFE123
 2807 0030 00000000 		.4byte	.LFB124
 2808 0034 30000000 		.4byte	.LFE124
 2809 0038 00000000 		.4byte	.LFB125
 2810 003c 1E000000 		.4byte	.LFE125
 2811 0040 00000000 		.4byte	0
 2812 0044 00000000 		.4byte	0
 2813              		.section	.debug_line,"",%progbits
 2814              	.Ldebug_line0:
 2815 0000 3A030000 		.section	.debug_str,"MS",%progbits,1
 2815      02000102 
 2815      00000201 
 2815      FB0E0D00 
 2815      01010101 
 2816              	.LASF32:
 2817 0000 41484231 		.ascii	"AHB1LPENR\000"
 2817      4C50454E 
 2817      5200
 2818              	.LASF50:
 2819 000a 43434552 		.ascii	"CCER\000"
 2819      00
 2820              	.LASF83:
 2821 000f 70776D5F 		.ascii	"pwm_lld_stop\000"
 2821      6C6C645F 
 2821      73746F70 
 2821      00
 2822              	.LASF22:
 2823 001c 41504231 		.ascii	"APB1RSTR\000"
 2823      52535452 
ARM GAS  C:\Users\DNIEL~1\AppData\Local\Temp\ccuuZZtq.s 			page 51


 2823      00
 2824              	.LASF26:
 2825 0025 41484232 		.ascii	"AHB2ENR\000"
 2825      454E5200 
 2826              	.LASF52:
 2827 002d 444D4152 		.ascii	"DMAR\000"
 2827      00
 2828              	.LASF62:
 2829 0032 73746174 		.ascii	"state\000"
 2829      6500
 2830              	.LASF49:
 2831 0038 43434D52 		.ascii	"CCMR2\000"
 2831      3200
 2832              	.LASF3:
 2833 003e 73686F72 		.ascii	"short int\000"
 2833      7420696E 
 2833      7400
 2834              	.LASF69:
 2835 0048 70776D63 		.ascii	"pwmcnt_t\000"
 2835      6E745F74 
 2835      00
 2836              	.LASF14:
 2837 0051 73697A65 		.ascii	"sizetype\000"
 2837      74797065 
 2837      00
 2838              	.LASF39:
 2839 005a 42444352 		.ascii	"BDCR\000"
 2839      00
 2840              	.LASF42:
 2841 005f 504C4C49 		.ascii	"PLLI2SCFGR\000"
 2841      32534346 
 2841      475200
 2842              	.LASF96:
 2843 006a 70776D5F 		.ascii	"pwm_lld_serve_interrupt\000"
 2843      6C6C645F 
 2843      73657276 
 2843      655F696E 
 2843      74657272 
 2844              	.LASF68:
 2845 0082 70776D63 		.ascii	"pwmchannel_t\000"
 2845      68616E6E 
 2845      656C5F74 
 2845      00
 2846              	.LASF78:
 2847 008f 56656374 		.ascii	"Vector108\000"
 2847      6F723130 
 2847      3800
 2848              	.LASF70:
 2849 0099 6D6F6465 		.ascii	"mode\000"
 2849      00
 2850              	.LASF41:
 2851 009e 53534347 		.ascii	"SSCGR\000"
 2851      5200
 2852              	.LASF34:
 2853 00a4 41484233 		.ascii	"AHB3LPENR\000"
 2853      4C50454E 
 2853      5200
ARM GAS  C:\Users\DNIEL~1\AppData\Local\Temp\ccuuZZtq.s 			page 52


 2854              	.LASF63:
 2855 00ae 636F6E66 		.ascii	"config\000"
 2855      696700
 2856              	.LASF17:
 2857 00b5 43464752 		.ascii	"CFGR\000"
 2857      00
 2858              	.LASF91:
 2859 00ba 70776D4F 		.ascii	"pwmObjectInit\000"
 2859      626A6563 
 2859      74496E69 
 2859      7400
 2860              	.LASF4:
 2861 00c8 75696E74 		.ascii	"uint8_t\000"
 2861      385F7400 
 2862              	.LASF29:
 2863 00d0 41504231 		.ascii	"APB1ENR\000"
 2863      454E5200 
 2864              	.LASF18:
 2865 00d8 41484231 		.ascii	"AHB1RSTR\000"
 2865      52535452 
 2865      00
 2866              	.LASF9:
 2867 00e1 75696E74 		.ascii	"uint32_t\000"
 2867      33325F74 
 2867      00
 2868              	.LASF82:
 2869 00ea 63636572 		.ascii	"ccer\000"
 2869      00
 2870              	.LASF44:
 2871 00ef 44434B43 		.ascii	"DCKCFGR\000"
 2871      46475200 
 2872              	.LASF86:
 2873 00f7 77696474 		.ascii	"width\000"
 2873      6800
 2874              	.LASF27:
 2875 00fd 41484233 		.ascii	"AHB3ENR\000"
 2875      454E5200 
 2876              	.LASF45:
 2877 0105 5243435F 		.ascii	"RCC_TypeDef\000"
 2877      54797065 
 2877      44656600 
 2878              	.LASF11:
 2879 0111 6C6F6E67 		.ascii	"long long int\000"
 2879      206C6F6E 
 2879      6720696E 
 2879      7400
 2880              	.LASF95:
 2881 011f 433A5C55 		.ascii	"C:\\Users\\D\341niel\\git\\Smarty\\smarty\\firmware"
 2881      73657273 
 2881      5C44E16E 
 2881      69656C5C 
 2881      6769745C 
 2882 0149 00       		.ascii	"\000"
 2883              	.LASF8:
 2884 014a 6C6F6E67 		.ascii	"long int\000"
 2884      20696E74 
 2884      00
ARM GAS  C:\Users\DNIEL~1\AppData\Local\Temp\ccuuZZtq.s 			page 53


 2885              	.LASF98:
 2886 0153 6E766963 		.ascii	"nvicDisableVector\000"
 2886      44697361 
 2886      626C6556 
 2886      6563746F 
 2886      7200
 2887              	.LASF54:
 2888 0165 43435235 		.ascii	"CCR5\000"
 2888      00
 2889              	.LASF55:
 2890 016a 43435236 		.ascii	"CCR6\000"
 2890      00
 2891              	.LASF10:
 2892 016f 6C6F6E67 		.ascii	"long unsigned int\000"
 2892      20756E73 
 2892      69676E65 
 2892      6420696E 
 2892      7400
 2893              	.LASF64:
 2894 0181 70657269 		.ascii	"period\000"
 2894      6F6400
 2895              	.LASF23:
 2896 0188 41504232 		.ascii	"APB2RSTR\000"
 2896      52535452 
 2896      00
 2897              	.LASF97:
 2898 0191 5F706F72 		.ascii	"_port_irq_epilogue\000"
 2898      745F6972 
 2898      715F6570 
 2898      696C6F67 
 2898      756500
 2899              	.LASF48:
 2900 01a4 43434D52 		.ascii	"CCMR1\000"
 2900      3100
 2901              	.LASF80:
 2902 01aa 70776D5F 		.ascii	"pwm_lld_start\000"
 2902      6C6C645F 
 2902      73746172 
 2902      7400
 2903              	.LASF76:
 2904 01b8 50574D43 		.ascii	"PWMConfig\000"
 2904      6F6E6669 
 2904      6700
 2905              	.LASF53:
 2906 01c2 43434D52 		.ascii	"CCMR3\000"
 2906      3300
 2907              	.LASF77:
 2908 01c8 56656374 		.ascii	"VectorB8\000"
 2908      6F724238 
 2908      00
 2909              	.LASF81:
 2910 01d1 70776D70 		.ascii	"pwmp\000"
 2910      00
 2911              	.LASF46:
 2912 01d6 534D4352 		.ascii	"SMCR\000"
 2912      00
 2913              	.LASF57:
ARM GAS  C:\Users\DNIEL~1\AppData\Local\Temp\ccuuZZtq.s 			page 54


 2914 01db 50574D5F 		.ascii	"PWM_UNINIT\000"
 2914      554E494E 
 2914      495400
 2915              	.LASF2:
 2916 01e6 756E7369 		.ascii	"unsigned char\000"
 2916      676E6564 
 2916      20636861 
 2916      7200
 2917              	.LASF84:
 2918 01f4 70776D5F 		.ascii	"pwm_lld_enable_channel\000"
 2918      6C6C645F 
 2918      656E6162 
 2918      6C655F63 
 2918      68616E6E 
 2919              	.LASF30:
 2920 020b 41504232 		.ascii	"APB2ENR\000"
 2920      454E5200 
 2921              	.LASF92:
 2922 0213 6E766963 		.ascii	"nvicEnableVector\000"
 2922      456E6162 
 2922      6C655665 
 2922      63746F72 
 2922      00
 2923              	.LASF1:
 2924 0224 7369676E 		.ascii	"signed char\000"
 2924      65642063 
 2924      68617200 
 2925              	.LASF12:
 2926 0230 6C6F6E67 		.ascii	"long long unsigned int\000"
 2926      206C6F6E 
 2926      6720756E 
 2926      7369676E 
 2926      65642069 
 2927              	.LASF0:
 2928 0247 756E7369 		.ascii	"unsigned int\000"
 2928      676E6564 
 2928      20696E74 
 2928      00
 2929              	.LASF19:
 2930 0254 41484232 		.ascii	"AHB2RSTR\000"
 2930      52535452 
 2930      00
 2931              	.LASF5:
 2932 025d 75696E74 		.ascii	"uint16_t\000"
 2932      31365F74 
 2932      00
 2933              	.LASF51:
 2934 0266 42445452 		.ascii	"BDTR\000"
 2934      00
 2935              	.LASF93:
 2936 026b 474E5520 		.ascii	"GNU C 4.7.4 20140401 (release) [ARM/embedded-4_7-br"
 2936      4320342E 
 2936      372E3420 
 2936      32303134 
 2936      30343031 
 2937 029e 616E6368 		.ascii	"anch revision 209195]\000"
 2937      20726576 
ARM GAS  C:\Users\DNIEL~1\AppData\Local\Temp\ccuuZZtq.s 			page 55


 2937      6973696F 
 2937      6E203230 
 2937      39313935 
 2938              	.LASF47:
 2939 02b4 44494552 		.ascii	"DIER\000"
 2939      00
 2940              	.LASF16:
 2941 02b9 504C4C43 		.ascii	"PLLCFGR\000"
 2941      46475200 
 2942              	.LASF6:
 2943 02c1 73686F72 		.ascii	"short unsigned int\000"
 2943      7420756E 
 2943      7369676E 
 2943      65642069 
 2943      6E7400
 2944              	.LASF36:
 2945 02d4 41504231 		.ascii	"APB1LPENR\000"
 2945      4C50454E 
 2945      5200
 2946              	.LASF79:
 2947 02de 70776D5F 		.ascii	"pwm_lld_init\000"
 2947      6C6C645F 
 2947      696E6974 
 2947      00
 2948              	.LASF15:
 2949 02eb 63686172 		.ascii	"char\000"
 2949      00
 2950              	.LASF56:
 2951 02f0 73746D33 		.ascii	"stm32_tim_t\000"
 2951      325F7469 
 2951      6D5F7400 
 2952              	.LASF61:
 2953 02fc 50574D44 		.ascii	"PWMDriver\000"
 2953      72697665 
 2953      7200
 2954              	.LASF7:
 2955 0306 696E7433 		.ascii	"int32_t\000"
 2955      325F7400 
 2956              	.LASF13:
 2957 030e 5F426F6F 		.ascii	"_Bool\000"
 2957      6C00
 2958              	.LASF85:
 2959 0314 6368616E 		.ascii	"channel\000"
 2959      6E656C00 
 2960              	.LASF33:
 2961 031c 41484232 		.ascii	"AHB2LPENR\000"
 2961      4C50454E 
 2961      5200
 2962              	.LASF90:
 2963 0326 50574D44 		.ascii	"PWMD5\000"
 2963      3500
 2964              	.LASF21:
 2965 032c 52455345 		.ascii	"RESERVED0\000"
 2965      52564544 
 2965      3000
 2966              	.LASF24:
 2967 0336 52455345 		.ascii	"RESERVED1\000"
ARM GAS  C:\Users\DNIEL~1\AppData\Local\Temp\ccuuZZtq.s 			page 56


 2967      52564544 
 2967      3100
 2968              	.LASF28:
 2969 0340 52455345 		.ascii	"RESERVED2\000"
 2969      52564544 
 2969      3200
 2970              	.LASF31:
 2971 034a 52455345 		.ascii	"RESERVED3\000"
 2971      52564544 
 2971      3300
 2972              	.LASF35:
 2973 0354 52455345 		.ascii	"RESERVED4\000"
 2973      52564544 
 2973      3400
 2974              	.LASF38:
 2975 035e 52455345 		.ascii	"RESERVED5\000"
 2975      52564544 
 2975      3500
 2976              	.LASF40:
 2977 0368 52455345 		.ascii	"RESERVED6\000"
 2977      52564544 
 2977      3600
 2978              	.LASF65:
 2979 0372 636C6F63 		.ascii	"clock\000"
 2979      6B00
 2980              	.LASF25:
 2981 0378 41484231 		.ascii	"AHB1ENR\000"
 2981      454E5200 
 2982              	.LASF87:
 2983 0380 70776D5F 		.ascii	"pwm_lld_disable_channel\000"
 2983      6C6C645F 
 2983      64697361 
 2983      626C655F 
 2983      6368616E 
 2984              	.LASF74:
 2985 0398 6368616E 		.ascii	"channels\000"
 2985      6E656C73 
 2985      00
 2986              	.LASF59:
 2987 03a1 50574D5F 		.ascii	"PWM_READY\000"
 2987      52454144 
 2987      5900
 2988              	.LASF58:
 2989 03ab 50574D5F 		.ascii	"PWM_STOP\000"
 2989      53544F50 
 2989      00
 2990              	.LASF75:
 2991 03b4 64696572 		.ascii	"dier\000"
 2991      00
 2992              	.LASF73:
 2993 03b9 66726571 		.ascii	"frequency\000"
 2993      75656E63 
 2993      7900
 2994              	.LASF72:
 2995 03c3 50574D43 		.ascii	"PWMChannelConfig\000"
 2995      68616E6E 
 2995      656C436F 
ARM GAS  C:\Users\DNIEL~1\AppData\Local\Temp\ccuuZZtq.s 			page 57


 2995      6E666967 
 2995      00
 2996              	.LASF94:
 2997 03d4 2E2E2F2E 		.ascii	"../../../ChibiOS/os/hal/platforms/STM32/TIMv1/pwm_l"
 2997      2E2F2E2E 
 2997      2F436869 
 2997      62694F53 
 2997      2F6F732F 
 2998 0407 6C642E63 		.ascii	"ld.c\000"
 2998      00
 2999              	.LASF89:
 3000 040c 50574D44 		.ascii	"PWMD4\000"
 3000      3400
 3001              	.LASF20:
 3002 0412 41484233 		.ascii	"AHB3RSTR\000"
 3002      52535452 
 3002      00
 3003              	.LASF67:
 3004 041b 70776D6D 		.ascii	"pwmmode_t\000"
 3004      6F64655F 
 3004      7400
 3005              	.LASF88:
 3006 0425 49544D5F 		.ascii	"ITM_RxBuffer\000"
 3006      52784275 
 3006      66666572 
 3006      00
 3007              	.LASF43:
 3008 0432 504C4C53 		.ascii	"PLLSAICFGR\000"
 3008      41494346 
 3008      475200
 3009              	.LASF60:
 3010 043d 70776D73 		.ascii	"pwmstate_t\000"
 3010      74617465 
 3010      5F7400
 3011              	.LASF66:
 3012 0448 70776D63 		.ascii	"pwmcallback_t\000"
 3012      616C6C62 
 3012      61636B5F 
 3012      7400
 3013              	.LASF37:
 3014 0456 41504232 		.ascii	"APB2LPENR\000"
 3014      4C50454E 
 3014      5200
 3015              	.LASF71:
 3016 0460 63616C6C 		.ascii	"callback\000"
 3016      6261636B 
 3016      00
 3017              		.ident	"GCC: (GNU Tools for ARM Embedded Processors) 4.7.4 20140401 (release) [ARM/embedded-4_7-br
ARM GAS  C:\Users\DNIEL~1\AppData\Local\Temp\ccuuZZtq.s 			page 58


DEFINED SYMBOLS
                            *ABS*:00000000 pwm_lld.c
C:\Users\DNIEL~1\AppData\Local\Temp\ccuuZZtq.s:19     .text.pwm_lld_serve_interrupt:00000000 $t
C:\Users\DNIEL~1\AppData\Local\Temp\ccuuZZtq.s:24     .text.pwm_lld_serve_interrupt:00000000 pwm_lld_serve_interrupt
C:\Users\DNIEL~1\AppData\Local\Temp\ccuuZZtq.s:126    .text.VectorB8:00000000 $t
C:\Users\DNIEL~1\AppData\Local\Temp\ccuuZZtq.s:132    .text.VectorB8:00000000 VectorB8
C:\Users\DNIEL~1\AppData\Local\Temp\ccuuZZtq.s:674    .bss.PWMD4:00000000 .LANCHOR0
C:\Users\DNIEL~1\AppData\Local\Temp\ccuuZZtq.s:157    .text.Vector108:00000000 $t
C:\Users\DNIEL~1\AppData\Local\Temp\ccuuZZtq.s:163    .text.Vector108:00000000 Vector108
C:\Users\DNIEL~1\AppData\Local\Temp\ccuuZZtq.s:681    .bss.PWMD5:00000000 .LANCHOR1
C:\Users\DNIEL~1\AppData\Local\Temp\ccuuZZtq.s:188    .text.pwm_lld_init:00000000 $t
C:\Users\DNIEL~1\AppData\Local\Temp\ccuuZZtq.s:194    .text.pwm_lld_init:00000000 pwm_lld_init
C:\Users\DNIEL~1\AppData\Local\Temp\ccuuZZtq.s:237    .text.pwm_lld_start:00000000 $t
C:\Users\DNIEL~1\AppData\Local\Temp\ccuuZZtq.s:243    .text.pwm_lld_start:00000000 pwm_lld_start
C:\Users\DNIEL~1\AppData\Local\Temp\ccuuZZtq.s:488    .text.pwm_lld_start:00000134 $d
C:\Users\DNIEL~1\AppData\Local\Temp\ccuuZZtq.s:494    .text.pwm_lld_stop:00000000 $t
C:\Users\DNIEL~1\AppData\Local\Temp\ccuuZZtq.s:500    .text.pwm_lld_stop:00000000 pwm_lld_stop
C:\Users\DNIEL~1\AppData\Local\Temp\ccuuZZtq.s:569    .text.pwm_lld_stop:00000050 $d
C:\Users\DNIEL~1\AppData\Local\Temp\ccuuZZtq.s:575    .text.pwm_lld_enable_channel:00000000 $t
C:\Users\DNIEL~1\AppData\Local\Temp\ccuuZZtq.s:581    .text.pwm_lld_enable_channel:00000000 pwm_lld_enable_channel
C:\Users\DNIEL~1\AppData\Local\Temp\ccuuZZtq.s:638    .text.pwm_lld_disable_channel:00000000 $t
C:\Users\DNIEL~1\AppData\Local\Temp\ccuuZZtq.s:644    .text.pwm_lld_disable_channel:00000000 pwm_lld_disable_channel
C:\Users\DNIEL~1\AppData\Local\Temp\ccuuZZtq.s:684    .bss.PWMD5:00000000 PWMD5
C:\Users\DNIEL~1\AppData\Local\Temp\ccuuZZtq.s:677    .bss.PWMD4:00000000 PWMD4
C:\Users\DNIEL~1\AppData\Local\Temp\ccuuZZtq.s:673    .bss.PWMD4:00000000 $d
C:\Users\DNIEL~1\AppData\Local\Temp\ccuuZZtq.s:680    .bss.PWMD5:00000000 $d
                     .debug_frame:00000010 $d
C:\Users\DNIEL~1\AppData\Local\Temp\ccuuZZtq.s:493    .text.pwm_lld_start:0000013c $t
C:\Users\DNIEL~1\AppData\Local\Temp\ccuuZZtq.s:574    .text.pwm_lld_stop:00000058 $t

UNDEFINED SYMBOLS
_port_irq_epilogue
pwmObjectInit
nvicEnableVector
nvicDisableVector
