ARM GAS  C:\Users\DNIEL~1\AppData\Local\Temp\cc3kNDIX.s 			page 1


   1              		.syntax unified
   2              		.cpu cortex-m4
   3              		.fpu softvfp
   4              		.eabi_attribute 20, 1
   5              		.eabi_attribute 21, 1
   6              		.eabi_attribute 23, 3
   7              		.eabi_attribute 24, 1
   8              		.eabi_attribute 25, 1
   9              		.eabi_attribute 26, 1
  10              		.eabi_attribute 30, 2
  11              		.eabi_attribute 34, 1
  12              		.eabi_attribute 18, 4
  13              		.thumb
  14              		.file	"pwm_lld.c"
  15              		.text
  16              	.Ltext0:
  17              		.cfi_sections	.debug_frame
  18              		.section	.text.pwm_lld_serve_interrupt,"ax",%progbits
  19              		.align	2
  20              		.p2align 4,,15
  21              		.thumb
  22              		.thumb_func
  23              		.type	pwm_lld_serve_interrupt, %function
  24              	pwm_lld_serve_interrupt:
  25              	.LFB118:
  26              		.file 1 "../../../ChibiOS/os/hal/platforms/STM32/pwm_lld.c"
  27              		.loc 1 104 0
  28              		.cfi_startproc
  29              		@ args = 0, pretend = 0, frame = 0
  30              		@ frame_needed = 0, uses_anonymous_args = 0
  31              	.LVL0:
  32 0000 38B5     		push	{r3, r4, r5, lr}
  33              	.LCFI0:
  34              		.cfi_def_cfa_offset 16
  35              		.cfi_offset 3, -16
  36              		.cfi_offset 4, -12
  37              		.cfi_offset 5, -8
  38              		.cfi_offset 14, -4
  39              		.loc 1 107 0
  40 0002 0369     		ldr	r3, [r0, #16]
  41 0004 1A8A     		ldrh	r2, [r3, #16]
  42 0006 9C89     		ldrh	r4, [r3, #12]
  43 0008 A4B2     		uxth	r4, r4
  44 000a 1440     		ands	r4, r4, r2
  45              	.LVL1:
  46              		.loc 1 108 0
  47 000c E143     		mvns	r1, r4
  48              		.loc 1 109 0
  49 000e 04F00202 		and	r2, r4, #2
  50              		.loc 1 108 0
  51 0012 89B2     		uxth	r1, r1
  52              		.loc 1 109 0
  53 0014 92B2     		uxth	r2, r2
  54              		.loc 1 104 0
  55 0016 0546     		mov	r5, r0
  56              		.loc 1 108 0
  57 0018 1982     		strh	r1, [r3, #16]	@ movhi
ARM GAS  C:\Users\DNIEL~1\AppData\Local\Temp\cc3kNDIX.s 			page 2


  58              		.loc 1 109 0
  59 001a 0ABB     		cbnz	r2, .L23
  60              	.LVL2:
  61              	.L2:
  62              		.loc 1 111 0
  63 001c 04F00400 		and	r0, r4, #4
  64 0020 82B2     		uxth	r2, r0
  65 0022 C2B9     		cbnz	r2, .L24
  66              	.L3:
  67              		.loc 1 113 0
  68 0024 04F00800 		and	r0, r4, #8
  69 0028 82B2     		uxth	r2, r0
  70 002a 7AB9     		cbnz	r2, .L25
  71              	.L4:
  72              		.loc 1 115 0
  73 002c 04F01000 		and	r0, r4, #16
  74 0030 82B2     		uxth	r2, r0
  75 0032 32B9     		cbnz	r2, .L26
  76              	.L5:
  77              		.loc 1 117 0
  78 0034 E307     		lsls	r3, r4, #31
  79 0036 03D5     		bpl	.L1
  80              		.loc 1 118 0
  81 0038 6A68     		ldr	r2, [r5, #4]
  82 003a 2846     		mov	r0, r5
  83 003c 9368     		ldr	r3, [r2, #8]
  84 003e 9847     		blx	r3
  85              	.LVL3:
  86              	.L1:
  87 0040 38BD     		pop	{r3, r4, r5, pc}
  88              	.L26:
  89              		.loc 1 116 0
  90 0042 6B68     		ldr	r3, [r5, #4]
  91 0044 2846     		mov	r0, r5
  92 0046 996A     		ldr	r1, [r3, #40]
  93 0048 8847     		blx	r1
  94              	.LVL4:
  95 004a F3E7     		b	.L5
  96              	.L25:
  97              		.loc 1 114 0
  98 004c 6B68     		ldr	r3, [r5, #4]
  99 004e 2846     		mov	r0, r5
 100 0050 196A     		ldr	r1, [r3, #32]
 101 0052 8847     		blx	r1
 102              	.LVL5:
 103 0054 EAE7     		b	.L4
 104              	.L24:
 105              		.loc 1 112 0
 106 0056 6B68     		ldr	r3, [r5, #4]
 107 0058 2846     		mov	r0, r5
 108 005a 9969     		ldr	r1, [r3, #24]
 109 005c 8847     		blx	r1
 110              	.LVL6:
 111 005e E1E7     		b	.L3
 112              	.LVL7:
 113              	.L23:
 114              		.loc 1 110 0
ARM GAS  C:\Users\DNIEL~1\AppData\Local\Temp\cc3kNDIX.s 			page 3


 115 0060 4368     		ldr	r3, [r0, #4]
 116 0062 1969     		ldr	r1, [r3, #16]
 117 0064 8847     		blx	r1
 118              	.LVL8:
 119 0066 D9E7     		b	.L2
 120              		.cfi_endproc
 121              	.LFE118:
 122              		.size	pwm_lld_serve_interrupt, .-pwm_lld_serve_interrupt
 123 0068 AFF30080 		.section	.text.VectorB8,"ax",%progbits
 123      AFF30080 
 124              		.align	2
 125              		.p2align 4,,15
 126              		.global	VectorB8
 127              		.thumb
 128              		.thumb_func
 129              		.type	VectorB8, %function
 130              	VectorB8:
 131              	.LFB119:
 132              		.loc 1 227 0
 133              		.cfi_startproc
 134              		@ args = 0, pretend = 0, frame = 0
 135              		@ frame_needed = 0, uses_anonymous_args = 0
 136 0000 08B5     		push	{r3, lr}
 137              	.LCFI1:
 138              		.cfi_def_cfa_offset 8
 139              		.cfi_offset 3, -8
 140              		.cfi_offset 14, -4
 141              		.loc 1 231 0
 142 0002 40F20000 		movw	r0, #:lower16:.LANCHOR0
 143 0006 C0F20000 		movt	r0, #:upper16:.LANCHOR0
 144 000a FFF7FEFF 		bl	pwm_lld_serve_interrupt
 145              	.LVL9:
 146              		.loc 1 234 0
 147 000e BDE80840 		pop	{r3, lr}
 148              		.loc 1 233 0
 149 0012 FFF7FEBF 		b	_port_irq_epilogue
 150              	.LVL10:
 151              		.cfi_endproc
 152              	.LFE119:
 153              		.size	VectorB8, .-VectorB8
 154 0016 00BFAFF3 		.section	.text.Vector108,"ax",%progbits
 154      0080AFF3 
 154      0080
 155              		.align	2
 156              		.p2align 4,,15
 157              		.global	Vector108
 158              		.thumb
 159              		.thumb_func
 160              		.type	Vector108, %function
 161              	Vector108:
 162              	.LFB120:
 163              		.loc 1 246 0
 164              		.cfi_startproc
 165              		@ args = 0, pretend = 0, frame = 0
 166              		@ frame_needed = 0, uses_anonymous_args = 0
 167 0000 08B5     		push	{r3, lr}
 168              	.LCFI2:
ARM GAS  C:\Users\DNIEL~1\AppData\Local\Temp\cc3kNDIX.s 			page 4


 169              		.cfi_def_cfa_offset 8
 170              		.cfi_offset 3, -8
 171              		.cfi_offset 14, -4
 172              		.loc 1 250 0
 173 0002 40F20000 		movw	r0, #:lower16:.LANCHOR1
 174 0006 C0F20000 		movt	r0, #:upper16:.LANCHOR1
 175 000a FFF7FEFF 		bl	pwm_lld_serve_interrupt
 176              	.LVL11:
 177              		.loc 1 253 0
 178 000e BDE80840 		pop	{r3, lr}
 179              		.loc 1 252 0
 180 0012 FFF7FEBF 		b	_port_irq_epilogue
 181              	.LVL12:
 182              		.cfi_endproc
 183              	.LFE120:
 184              		.size	Vector108, .-Vector108
 185 0016 00BFAFF3 		.section	.text.pwm_lld_init,"ax",%progbits
 185      0080AFF3 
 185      0080
 186              		.align	2
 187              		.p2align 4,,15
 188              		.global	pwm_lld_init
 189              		.thumb
 190              		.thumb_func
 191              		.type	pwm_lld_init, %function
 192              	pwm_lld_init:
 193              	.LFB121:
 194              		.loc 1 319 0
 195              		.cfi_startproc
 196              		@ args = 0, pretend = 0, frame = 0
 197              		@ frame_needed = 0, uses_anonymous_args = 0
 198 0000 38B5     		push	{r3, r4, r5, lr}
 199              	.LCFI3:
 200              		.cfi_def_cfa_offset 16
 201              		.cfi_offset 3, -16
 202              		.cfi_offset 4, -12
 203              		.cfi_offset 5, -8
 204              		.cfi_offset 14, -4
 205              		.loc 1 341 0
 206 0002 40F20005 		movw	r5, #:lower16:.LANCHOR0
 207 0006 C0F20005 		movt	r5, #:upper16:.LANCHOR0
 208 000a 2846     		mov	r0, r5
 209              		.loc 1 347 0
 210 000c 40F20004 		movw	r4, #:lower16:.LANCHOR1
 211              		.loc 1 341 0
 212 0010 FFF7FEFF 		bl	pwmObjectInit
 213              	.LVL13:
 214              		.loc 1 347 0
 215 0014 C0F20004 		movt	r4, #:upper16:.LANCHOR1
 216              		.loc 1 342 0
 217 0018 4FF40063 		mov	r3, #2048
 218 001c C4F20003 		movt	r3, 16384
 219              		.loc 1 347 0
 220 0020 2046     		mov	r0, r4
 221              		.loc 1 342 0
 222 0022 2B61     		str	r3, [r5, #16]
 223              		.loc 1 347 0
ARM GAS  C:\Users\DNIEL~1\AppData\Local\Temp\cc3kNDIX.s 			page 5


 224 0024 FFF7FEFF 		bl	pwmObjectInit
 225              	.LVL14:
 226              		.loc 1 348 0
 227 0028 4FF44060 		mov	r0, #3072
 228 002c C4F20000 		movt	r0, 16384
 229 0030 2061     		str	r0, [r4, #16]
 230 0032 38BD     		pop	{r3, r4, r5, pc}
 231              		.cfi_endproc
 232              	.LFE121:
 233              		.size	pwm_lld_init, .-pwm_lld_init
 234 0034 AFF30080 		.section	.text.pwm_lld_start,"ax",%progbits
 234      AFF30080 
 234      AFF30080 
 235              		.align	2
 236              		.p2align 4,,15
 237              		.global	pwm_lld_start
 238              		.thumb
 239              		.thumb_func
 240              		.type	pwm_lld_start, %function
 241              	pwm_lld_start:
 242              	.LFB122:
 243              		.loc 1 367 0
 244              		.cfi_startproc
 245              		@ args = 0, pretend = 0, frame = 0
 246              		@ frame_needed = 0, uses_anonymous_args = 0
 247              	.LVL15:
 248              		.loc 1 371 0
 249 0000 0378     		ldrb	r3, [r0, #0]	@ zero_extendqisi2
 250 0002 012B     		cmp	r3, #1
 251              		.loc 1 367 0
 252 0004 70B5     		push	{r4, r5, r6, lr}
 253              	.LCFI4:
 254              		.cfi_def_cfa_offset 16
 255              		.cfi_offset 4, -16
 256              		.cfi_offset 5, -12
 257              		.cfi_offset 6, -8
 258              		.cfi_offset 14, -4
 259              		.loc 1 367 0
 260 0006 0446     		mov	r4, r0
 261              		.loc 1 371 0
 262 0008 5FD0     		beq	.L59
 263              		.loc 1 446 0
 264 000a 0369     		ldr	r3, [r0, #16]
 265 000c 0022     		movs	r2, #0
 266 000e 1A80     		strh	r2, [r3, #0]	@ movhi
 267              		.loc 1 447 0
 268 0010 9A81     		strh	r2, [r3, #12]	@ movhi
 269              		.loc 1 448 0
 270 0012 1A82     		strh	r2, [r3, #16]	@ movhi
 271              		.loc 1 449 0
 272 0014 5A63     		str	r2, [r3, #52]
 273              		.loc 1 450 0
 274 0016 9A63     		str	r2, [r3, #56]
 275              		.loc 1 451 0
 276 0018 DA63     		str	r2, [r3, #60]
 277              		.loc 1 452 0
 278 001a 1A64     		str	r2, [r3, #64]
ARM GAS  C:\Users\DNIEL~1\AppData\Local\Temp\cc3kNDIX.s 			page 6


 279              		.loc 1 453 0
 280 001c 5A62     		str	r2, [r3, #36]
 281              	.LVL16:
 282              	.L34:
 283              		.loc 1 457 0
 284 001e 6168     		ldr	r1, [r4, #4]
 285              	.LVL17:
 286 0020 E668     		ldr	r6, [r4, #12]
 287 0022 0868     		ldr	r0, [r1, #0]
 288              		.loc 1 462 0
 289 0024 2589     		ldrh	r5, [r4, #8]
 290              		.loc 1 467 0
 291 0026 CA68     		ldr	r2, [r1, #12]
 292              		.loc 1 463 0
 293 0028 8C8D     		ldrh	r4, [r1, #44]
 294              	.LVL18:
 295              		.loc 1 457 0
 296 002a B6FBF0F0 		udiv	r0, r6, r0
 297 002e 0138     		subs	r0, r0, #1
 298              	.LVL19:
 299              		.loc 1 462 0
 300 0030 013D     		subs	r5, r5, #1
 301              		.loc 1 467 0
 302 0032 02F00F02 		and	r2, r2, #15
 303              		.loc 1 461 0
 304 0036 80B2     		uxth	r0, r0
 305              	.LVL20:
 306              		.loc 1 462 0
 307 0038 ADB2     		uxth	r5, r5
 308              		.loc 1 467 0
 309 003a 012A     		cmp	r2, #1
 310              		.loc 1 461 0
 311 003c 1885     		strh	r0, [r3, #40]	@ movhi
 312              		.loc 1 462 0
 313 003e DD62     		str	r5, [r3, #44]
 314              		.loc 1 463 0
 315 0040 9C80     		strh	r4, [r3, #4]	@ movhi
 316              	.LVL21:
 317              		.loc 1 467 0
 318 0042 03D0     		beq	.L35
 319              		.loc 1 466 0
 320 0044 022A     		cmp	r2, #2
 321 0046 0CBF     		ite	eq
 322 0048 0322     		moveq	r2, #3
 323 004a 0022     		movne	r2, #0
 324              	.L35:
 325              	.LVL22:
 326              		.loc 1 475 0
 327 004c 4869     		ldr	r0, [r1, #20]
 328 004e 00F00F00 		and	r0, r0, #15
 329 0052 0128     		cmp	r0, #1
 330 0054 1ED0     		beq	.L39
 331 0056 0228     		cmp	r0, #2
 332 0058 1AD0     		beq	.L60
 333              		.loc 1 483 0
 334 005a C869     		ldr	r0, [r1, #28]
 335 005c 00F00F00 		and	r0, r0, #15
ARM GAS  C:\Users\DNIEL~1\AppData\Local\Temp\cc3kNDIX.s 			page 7


 336 0060 0128     		cmp	r0, #1
 337 0062 1ED0     		beq	.L42
 338              	.LVL23:
 339              	.L63:
 340 0064 0228     		cmp	r0, #2
 341 0066 2BD0     		beq	.L61
 342              	.LVL24:
 343              		.loc 1 491 0
 344 0068 486A     		ldr	r0, [r1, #36]
 345 006a 00F00F00 		and	r0, r0, #15
 346 006e 0128     		cmp	r0, #1
 347 0070 1ED0     		beq	.L45
 348              	.LVL25:
 349              	.L64:
 350 0072 0228     		cmp	r0, #2
 351 0074 1FD0     		beq	.L62
 352              	.L44:
 353              	.LVL26:
 354              		.loc 1 538 0
 355 0076 8968     		ldr	r1, [r1, #8]
 356              	.LVL27:
 357              		.loc 1 536 0
 358 0078 1A84     		strh	r2, [r3, #32]	@ movhi
 359              		.loc 1 538 0
 360 007a 081C     		adds	r0, r1, #0
 361 007c 18BF     		it	ne
 362 007e 0120     		movne	r0, #1
 363              		.loc 1 537 0
 364 0080 0122     		movs	r2, #1
 365              	.LVL28:
 366 0082 9A82     		strh	r2, [r3, #20]	@ movhi
 367              		.loc 1 539 0
 368 0084 0021     		movs	r1, #0
 369              		.loc 1 538 0
 370 0086 9881     		strh	r0, [r3, #12]	@ movhi
 371              		.loc 1 548 0
 372 0088 8520     		movs	r0, #133
 373              		.loc 1 539 0
 374 008a 1982     		strh	r1, [r3, #16]	@ movhi
 375              		.loc 1 548 0
 376 008c 1880     		strh	r0, [r3, #0]	@ movhi
 377 008e 70BD     		pop	{r4, r5, r6, pc}
 378              	.LVL29:
 379              	.L60:
 380              		.loc 1 477 0
 381 0090 42F02002 		orr	r2, r2, #32
 382              	.LVL30:
 383              	.L39:
 384              		.loc 1 483 0
 385 0094 C869     		ldr	r0, [r1, #28]
 386 0096 00F00F00 		and	r0, r0, #15
 387 009a 0128     		cmp	r0, #1
 388              		.loc 1 479 0
 389 009c 42F01002 		orr	r2, r2, #16
 390              	.LVL31:
 391              		.loc 1 483 0
 392 00a0 E0D1     		bne	.L63
ARM GAS  C:\Users\DNIEL~1\AppData\Local\Temp\cc3kNDIX.s 			page 8


 393              	.LVL32:
 394              	.L42:
 395              		.loc 1 487 0
 396 00a2 42F48072 		orr	r2, r2, #256
 397              	.LVL33:
 398              	.L65:
 399              		.loc 1 491 0
 400 00a6 486A     		ldr	r0, [r1, #36]
 401 00a8 00F00F00 		and	r0, r0, #15
 402 00ac 0128     		cmp	r0, #1
 403 00ae E0D1     		bne	.L64
 404              	.LVL34:
 405              	.L45:
 406              		.loc 1 495 0
 407 00b0 42F48052 		orr	r2, r2, #4096
 408              	.LVL35:
 409 00b4 DFE7     		b	.L44
 410              	.LVL36:
 411              	.L62:
 412              		.loc 1 493 0
 413 00b6 42F40052 		orr	r2, r2, #8192
 414              	.LVL37:
 415              		.loc 1 495 0
 416 00ba 42F48052 		orr	r2, r2, #4096
 417              	.LVL38:
 418 00be DAE7     		b	.L44
 419              	.LVL39:
 420              	.L61:
 421              		.loc 1 485 0
 422 00c0 42F40072 		orr	r2, r2, #512
 423              	.LVL40:
 424              		.loc 1 487 0
 425 00c4 42F48072 		orr	r2, r2, #256
 426              	.LVL41:
 427 00c8 EDE7     		b	.L65
 428              	.LVL42:
 429              	.L59:
 430              		.loc 1 403 0
 431 00ca 1948     		ldr	r0, .L68
 432              	.LVL43:
 433 00cc 8442     		cmp	r4, r0
 434 00ce 08D0     		beq	.L66
 435              		.loc 1 413 0
 436 00d0 1849     		ldr	r1, .L68+4
 437 00d2 8C42     		cmp	r4, r1
 438 00d4 1DD0     		beq	.L67
 439              	.L33:
 440              		.loc 1 435 0
 441 00d6 2369     		ldr	r3, [r4, #16]
 442 00d8 46F66800 		movw	r0, #26728
 443 00dc 1883     		strh	r0, [r3, #24]	@ movhi
 444              		.loc 1 439 0
 445 00de 9883     		strh	r0, [r3, #28]	@ movhi
 446 00e0 9DE7     		b	.L34
 447              	.L66:
 448              		.loc 1 404 0
 449 00e2 4FF46055 		mov	r5, #14336
ARM GAS  C:\Users\DNIEL~1\AppData\Local\Temp\cc3kNDIX.s 			page 9


 450 00e6 C4F20205 		movt	r5, 16386
 451              		.loc 1 406 0
 452 00ea 1E20     		movs	r0, #30
 453              		.loc 1 404 0
 454 00ec 296C     		ldr	r1, [r5, #64]
 455 00ee 41F00406 		orr	r6, r1, #4
 456 00f2 2E64     		str	r6, [r5, #64]
 457              		.loc 1 405 0
 458 00f4 2B6A     		ldr	r3, [r5, #32]
 459 00f6 43F00402 		orr	r2, r3, #4
 460 00fa 2A62     		str	r2, [r5, #32]
 461              	.L58:
 462              		.loc 1 415 0
 463 00fc 0021     		movs	r1, #0
 464 00fe 2962     		str	r1, [r5, #32]
 465              		.loc 1 418 0
 466 0100 4FF43D45 		mov	r5, #48384
 467              		.loc 1 416 0
 468 0104 7021     		movs	r1, #112
 469              		.loc 1 418 0
 470 0106 C0F20155 		movt	r5, 1281
 471              		.loc 1 416 0
 472 010a FFF7FEFF 		bl	nvicEnableVector
 473              	.LVL44:
 474              		.loc 1 418 0
 475 010e E560     		str	r5, [r4, #12]
 476 0110 E1E7     		b	.L33
 477              	.L67:
 478              		.loc 1 414 0
 479 0112 4FF46055 		mov	r5, #14336
 480 0116 C4F20205 		movt	r5, 16386
 481 011a 2E6C     		ldr	r6, [r5, #64]
 482 011c 46F00803 		orr	r3, r6, #8
 483 0120 2B64     		str	r3, [r5, #64]
 484              		.loc 1 415 0
 485 0122 2A6A     		ldr	r2, [r5, #32]
 486 0124 42F00800 		orr	r0, r2, #8
 487 0128 2862     		str	r0, [r5, #32]
 488              		.loc 1 416 0
 489 012a 3220     		movs	r0, #50
 490 012c E6E7     		b	.L58
 491              	.L69:
 492 012e 00BF     		.align	2
 493              	.L68:
 494 0130 00000000 		.word	.LANCHOR0
 495 0134 00000000 		.word	.LANCHOR1
 496              		.cfi_endproc
 497              	.LFE122:
 498              		.size	pwm_lld_start, .-pwm_lld_start
 499 0138 AFF30080 		.section	.text.pwm_lld_stop,"ax",%progbits
 499      AFF30080 
 500              		.align	2
 501              		.p2align 4,,15
 502              		.global	pwm_lld_stop
 503              		.thumb
 504              		.thumb_func
 505              		.type	pwm_lld_stop, %function
ARM GAS  C:\Users\DNIEL~1\AppData\Local\Temp\cc3kNDIX.s 			page 10


 506              	pwm_lld_stop:
 507              	.LFB123:
 508              		.loc 1 558 0
 509              		.cfi_startproc
 510              		@ args = 0, pretend = 0, frame = 0
 511              		@ frame_needed = 0, uses_anonymous_args = 0
 512              	.LVL45:
 513 0000 08B5     		push	{r3, lr}
 514              	.LCFI5:
 515              		.cfi_def_cfa_offset 8
 516              		.cfi_offset 3, -8
 517              		.cfi_offset 14, -4
 518              		.loc 1 561 0
 519 0002 0378     		ldrb	r3, [r0, #0]	@ zero_extendqisi2
 520 0004 022B     		cmp	r3, #2
 521 0006 00D0     		beq	.L75
 522              	.LVL46:
 523              	.L70:
 524 0008 08BD     		pop	{r3, pc}
 525              	.LVL47:
 526              	.L75:
 527              		.loc 1 589 0
 528 000a 114B     		ldr	r3, .L77
 529              		.loc 1 562 0
 530 000c 0169     		ldr	r1, [r0, #16]
 531 000e 0022     		movs	r2, #0
 532              		.loc 1 589 0
 533 0010 9842     		cmp	r0, r3
 534              		.loc 1 562 0
 535 0012 0A80     		strh	r2, [r1, #0]	@ movhi
 536              		.loc 1 563 0
 537 0014 8A81     		strh	r2, [r1, #12]	@ movhi
 538              		.loc 1 564 0
 539 0016 0A82     		strh	r2, [r1, #16]	@ movhi
 540              		.loc 1 589 0
 541 0018 0ED0     		beq	.L76
 542              		.loc 1 595 0
 543 001a 0E49     		ldr	r1, .L77+4
 544 001c 8842     		cmp	r0, r1
 545 001e F3D1     		bne	.L70
 546              		.loc 1 596 0
 547 0020 3220     		movs	r0, #50
 548              	.LVL48:
 549 0022 FFF7FEFF 		bl	nvicDisableVector
 550              	.LVL49:
 551              		.loc 1 597 0
 552 0026 4FF46050 		mov	r0, #14336
 553 002a C4F20200 		movt	r0, 16386
 554 002e 026C     		ldr	r2, [r0, #64]
 555 0030 22F00803 		bic	r3, r2, #8
 556 0034 0364     		str	r3, [r0, #64]
 557 0036 E7E7     		b	.L70
 558              	.LVL50:
 559              	.L76:
 560              		.loc 1 590 0
 561 0038 1E20     		movs	r0, #30
 562              	.LVL51:
ARM GAS  C:\Users\DNIEL~1\AppData\Local\Temp\cc3kNDIX.s 			page 11


 563 003a FFF7FEFF 		bl	nvicDisableVector
 564              	.LVL52:
 565              		.loc 1 591 0
 566 003e 4FF46051 		mov	r1, #14336
 567 0042 C4F20201 		movt	r1, 16386
 568 0046 086C     		ldr	r0, [r1, #64]
 569 0048 20F00402 		bic	r2, r0, #4
 570 004c 0A64     		str	r2, [r1, #64]
 571 004e 08BD     		pop	{r3, pc}
 572              	.L78:
 573              		.align	2
 574              	.L77:
 575 0050 00000000 		.word	.LANCHOR0
 576 0054 00000000 		.word	.LANCHOR1
 577              		.cfi_endproc
 578              	.LFE123:
 579              		.size	pwm_lld_stop, .-pwm_lld_stop
 580 0058 AFF30080 		.section	.text.pwm_lld_enable_channel,"ax",%progbits
 580      AFF30080 
 581              		.align	2
 582              		.p2align 4,,15
 583              		.global	pwm_lld_enable_channel
 584              		.thumb
 585              		.thumb_func
 586              		.type	pwm_lld_enable_channel, %function
 587              	pwm_lld_enable_channel:
 588              	.LFB124:
 589              		.loc 1 624 0
 590              		.cfi_startproc
 591              		@ args = 0, pretend = 0, frame = 0
 592              		@ frame_needed = 0, uses_anonymous_args = 0
 593              		@ link register save eliminated.
 594              	.LVL53:
 595 0000 10B4     		push	{r4}
 596              	.LCFI6:
 597              		.cfi_def_cfa_offset 4
 598              		.cfi_offset 4, -4
 599              		.loc 1 629 0
 600 0002 4468     		ldr	r4, [r0, #4]
 601              		.loc 1 626 0
 602 0004 0369     		ldr	r3, [r0, #16]
 603              		.loc 1 629 0
 604 0006 04EBC100 		add	r0, r4, r1, lsl #3
 605              	.LVL54:
 606              		.loc 1 626 0
 607 000a 01F10C04 		add	r4, r1, #12
 608 000e 03EB8404 		add	r4, r3, r4, lsl #2
 609              		.loc 1 629 0
 610 0012 0069     		ldr	r0, [r0, #16]
 611              		.loc 1 626 0
 612 0014 6260     		str	r2, [r4, #4]
 613              		.loc 1 629 0
 614 0016 60B1     		cbz	r0, .L79
 615              	.LBB2:
 616              		.loc 1 630 0
 617 0018 9A89     		ldrh	r2, [r3, #12]
 618              	.LVL55:
ARM GAS  C:\Users\DNIEL~1\AppData\Local\Temp\cc3kNDIX.s 			page 12


 619              		.loc 1 633 0
 620 001a 0220     		movs	r0, #2
 621              		.loc 1 630 0
 622 001c 92B2     		uxth	r2, r2
 623              	.LVL56:
 624              		.loc 1 633 0
 625 001e 00FA01F1 		lsl	r1, r0, r1
 626              	.LVL57:
 627 0022 1142     		tst	r1, r2
 628 0024 05D1     		bne	.L79
 629              		.loc 1 634 0
 630 0026 89B2     		uxth	r1, r1
 631              		.loc 1 635 0
 632 0028 C843     		mvns	r0, r1
 633              		.loc 1 634 0
 634 002a 1143     		orrs	r1, r1, r2
 635              		.loc 1 635 0
 636 002c 82B2     		uxth	r2, r0
 637              	.LVL58:
 638              		.loc 1 634 0
 639 002e 9981     		strh	r1, [r3, #12]	@ movhi
 640              		.loc 1 635 0
 641 0030 1A82     		strh	r2, [r3, #16]	@ movhi
 642              	.L79:
 643              	.LBE2:
 644              		.loc 1 638 0
 645 0032 10BC     		pop	{r4}
 646 0034 7047     		bx	lr
 647              		.cfi_endproc
 648              	.LFE124:
 649              		.size	pwm_lld_enable_channel, .-pwm_lld_enable_channel
 650 0036 00BFAFF3 		.section	.text.pwm_lld_disable_channel,"ax",%progbits
 650      0080AFF3 
 650      0080
 651              		.align	2
 652              		.p2align 4,,15
 653              		.global	pwm_lld_disable_channel
 654              		.thumb
 655              		.thumb_func
 656              		.type	pwm_lld_disable_channel, %function
 657              	pwm_lld_disable_channel:
 658              	.LFB125:
 659              		.loc 1 652 0
 660              		.cfi_startproc
 661              		@ args = 0, pretend = 0, frame = 0
 662              		@ frame_needed = 0, uses_anonymous_args = 0
 663              		@ link register save eliminated.
 664              	.LVL59:
 665              		.loc 1 654 0
 666 0000 0369     		ldr	r3, [r0, #16]
 667 0002 01F10C02 		add	r2, r1, #12
 668 0006 03EB8202 		add	r2, r3, r2, lsl #2
 669 000a 0020     		movs	r0, #0
 670              	.LVL60:
 671 000c 5060     		str	r0, [r2, #4]
 672              		.loc 1 655 0
 673 000e 9A89     		ldrh	r2, [r3, #12]
ARM GAS  C:\Users\DNIEL~1\AppData\Local\Temp\cc3kNDIX.s 			page 13


 674 0010 0220     		movs	r0, #2
 675 0012 92B2     		uxth	r2, r2
 676 0014 00FA01F1 		lsl	r1, r0, r1
 677              	.LVL61:
 678 0018 22EA0102 		bic	r2, r2, r1
 679 001c 9A81     		strh	r2, [r3, #12]	@ movhi
 680 001e 7047     		bx	lr
 681              		.cfi_endproc
 682              	.LFE125:
 683              		.size	pwm_lld_disable_channel, .-pwm_lld_disable_channel
 684              		.global	PWMD5
 685              		.global	PWMD4
 686              		.section	.bss.PWMD4,"aw",%nobits
 687              		.align	2
 688              		.set	.LANCHOR0,. + 0
 689              		.type	PWMD4, %object
 690              		.size	PWMD4, 20
 691              	PWMD4:
 692 0000 00000000 		.space	20
 692      00000000 
 692      00000000 
 692      00000000 
 692      00000000 
 693              		.section	.bss.PWMD5,"aw",%nobits
 694              		.align	2
 695              		.set	.LANCHOR1,. + 0
 696              		.type	PWMD5, %object
 697              		.size	PWMD5, 20
 698              	PWMD5:
 699 0000 00000000 		.space	20
 699      00000000 
 699      00000000 
 699      00000000 
 699      00000000 
 700              		.text
 701              	.Letext0:
 702              		.file 2 "c:\\chibistudio\\tools\\gnu tools arm embedded\\4.7 2014q2\\bin\\../lib/gcc/arm-none-eabi
 703              		.file 3 "../../../ChibiOS/os/hal/platforms/STM32F4xx/stm32f4xx.h"
 704              		.file 4 "../../../ChibiOS/os/hal/platforms/STM32/stm32.h"
 705              		.file 5 "../../../ChibiOS/os/hal/include/pwm.h"
 706              		.file 6 "../../../ChibiOS/os/hal/platforms/STM32/pwm_lld.h"
 707              		.file 7 "../../../ChibiOS/os/ports/common/ARMCMx/CMSIS/include/core_cm4.h"
 708              		.file 8 "../../../ChibiOS/os/ports/common/ARMCMx/nvic.h"
 709              		.file 9 "../../../ChibiOS/os/ports/GCC/ARMCMx/chcore_v7m.h"
 710              		.section	.debug_info,"",%progbits
 711              	.Ldebug_info0:
 712 0000 560B0000 		.4byte	0xb56
 713 0004 0200     		.2byte	0x2
 714 0006 00000000 		.4byte	.Ldebug_abbrev0
 715 000a 04       		.byte	0x4
 716 000b 01       		.uleb128 0x1
 717 000c D4040000 		.4byte	.LASF192
 718 0010 01       		.byte	0x1
 719 0011 D7080000 		.4byte	.LASF193
 720 0015 20080000 		.4byte	.LASF194
 721 0019 00000000 		.4byte	.Ldebug_ranges0+0
 722 001d 00000000 		.4byte	0
ARM GAS  C:\Users\DNIEL~1\AppData\Local\Temp\cc3kNDIX.s 			page 14


 723 0021 00000000 		.4byte	0
 724 0025 00000000 		.4byte	.Ldebug_line0
 725 0029 02       		.uleb128 0x2
 726 002a 04       		.byte	0x4
 727 002b 07       		.byte	0x7
 728 002c 04030000 		.4byte	.LASF0
 729 0030 03       		.uleb128 0x3
 730 0031 04       		.byte	0x4
 731 0032 05       		.byte	0x5
 732 0033 696E7400 		.ascii	"int\000"
 733 0037 02       		.uleb128 0x2
 734 0038 01       		.byte	0x1
 735 0039 06       		.byte	0x6
 736 003a 84010000 		.4byte	.LASF1
 737 003e 04       		.uleb128 0x4
 738 003f 6E080000 		.4byte	.LASF4
 739 0043 02       		.byte	0x2
 740 0044 2A       		.byte	0x2a
 741 0045 49000000 		.4byte	0x49
 742 0049 02       		.uleb128 0x2
 743 004a 01       		.byte	0x1
 744 004b 08       		.byte	0x8
 745 004c E7050000 		.4byte	.LASF2
 746 0050 02       		.uleb128 0x2
 747 0051 02       		.byte	0x2
 748 0052 05       		.byte	0x5
 749 0053 2E060000 		.4byte	.LASF3
 750 0057 04       		.uleb128 0x4
 751 0058 3C020000 		.4byte	.LASF5
 752 005c 02       		.byte	0x2
 753 005d 36       		.byte	0x36
 754 005e 62000000 		.4byte	0x62
 755 0062 02       		.uleb128 0x2
 756 0063 02       		.byte	0x2
 757 0064 07       		.byte	0x7
 758 0065 65060000 		.4byte	.LASF6
 759 0069 04       		.uleb128 0x4
 760 006a DF050000 		.4byte	.LASF7
 761 006e 02       		.byte	0x2
 762 006f 4F       		.byte	0x4f
 763 0070 74000000 		.4byte	0x74
 764 0074 02       		.uleb128 0x2
 765 0075 04       		.byte	0x4
 766 0076 05       		.byte	0x5
 767 0077 E1010000 		.4byte	.LASF8
 768 007b 04       		.uleb128 0x4
 769 007c BF060000 		.4byte	.LASF9
 770 0080 02       		.byte	0x2
 771 0081 50       		.byte	0x50
 772 0082 86000000 		.4byte	0x86
 773 0086 02       		.uleb128 0x2
 774 0087 04       		.byte	0x4
 775 0088 07       		.byte	0x7
 776 0089 58030000 		.4byte	.LASF10
 777 008d 02       		.uleb128 0x2
 778 008e 08       		.byte	0x8
 779 008f 05       		.byte	0x5
ARM GAS  C:\Users\DNIEL~1\AppData\Local\Temp\cc3kNDIX.s 			page 15


 780 0090 76010000 		.4byte	.LASF11
 781 0094 02       		.uleb128 0x2
 782 0095 08       		.byte	0x8
 783 0096 07       		.byte	0x7
 784 0097 E6000000 		.4byte	.LASF12
 785 009b 05       		.uleb128 0x5
 786 009c 7B000000 		.4byte	0x7b
 787 00a0 02       		.uleb128 0x2
 788 00a1 04       		.byte	0x4
 789 00a2 07       		.byte	0x7
 790 00a3 75040000 		.4byte	.LASF13
 791 00a7 02       		.uleb128 0x2
 792 00a8 01       		.byte	0x1
 793 00a9 08       		.byte	0x8
 794 00aa 28070000 		.4byte	.LASF14
 795 00ae 06       		.uleb128 0x6
 796 00af 70040000 		.4byte	.LASF195
 797 00b3 01       		.byte	0x1
 798 00b4 03       		.byte	0x3
 799 00b5 8C       		.byte	0x8c
 800 00b6 E9020000 		.4byte	0x2e9
 801 00ba 07       		.uleb128 0x7
 802 00bb 77070000 		.4byte	.LASF15
 803 00bf 72       		.sleb128 -14
 804 00c0 07       		.uleb128 0x7
 805 00c1 35030000 		.4byte	.LASF16
 806 00c5 74       		.sleb128 -12
 807 00c6 07       		.uleb128 0x7
 808 00c7 C6020000 		.4byte	.LASF17
 809 00cb 75       		.sleb128 -11
 810 00cc 07       		.uleb128 0x7
 811 00cd D4060000 		.4byte	.LASF18
 812 00d1 76       		.sleb128 -10
 813 00d2 07       		.uleb128 0x7
 814 00d3 9A030000 		.4byte	.LASF19
 815 00d7 7B       		.sleb128 -5
 816 00d8 07       		.uleb128 0x7
 817 00d9 BC070000 		.4byte	.LASF20
 818 00dd 7C       		.sleb128 -4
 819 00de 07       		.uleb128 0x7
 820 00df E1020000 		.4byte	.LASF21
 821 00e3 7E       		.sleb128 -2
 822 00e4 07       		.uleb128 0x7
 823 00e5 3E040000 		.4byte	.LASF22
 824 00e9 7F       		.sleb128 -1
 825 00ea 07       		.uleb128 0x7
 826 00eb 31010000 		.4byte	.LASF23
 827 00ef 00       		.sleb128 0
 828 00f0 07       		.uleb128 0x7
 829 00f1 25000000 		.4byte	.LASF24
 830 00f5 01       		.sleb128 1
 831 00f6 07       		.uleb128 0x7
 832 00f7 9B070000 		.4byte	.LASF25
 833 00fb 02       		.sleb128 2
 834 00fc 07       		.uleb128 0x7
 835 00fd 23010000 		.4byte	.LASF26
 836 0101 03       		.sleb128 3
ARM GAS  C:\Users\DNIEL~1\AppData\Local\Temp\cc3kNDIX.s 			page 16


 837 0102 07       		.uleb128 0x7
 838 0103 9B060000 		.4byte	.LASF27
 839 0107 04       		.sleb128 4
 840 0108 07       		.uleb128 0x7
 841 0109 73090000 		.4byte	.LASF28
 842 010d 05       		.sleb128 5
 843 010e 07       		.uleb128 0x7
 844 010f 09080000 		.4byte	.LASF29
 845 0113 06       		.sleb128 6
 846 0114 07       		.uleb128 0x7
 847 0115 97090000 		.4byte	.LASF30
 848 0119 07       		.sleb128 7
 849 011a 07       		.uleb128 0x7
 850 011b 78060000 		.4byte	.LASF31
 851 011f 08       		.sleb128 8
 852 0120 07       		.uleb128 0x7
 853 0121 50080000 		.4byte	.LASF32
 854 0125 09       		.sleb128 9
 855 0126 07       		.uleb128 0x7
 856 0127 15060000 		.4byte	.LASF33
 857 012b 0A       		.sleb128 10
 858 012c 07       		.uleb128 0x7
 859 012d A7090000 		.4byte	.LASF34
 860 0131 0B       		.sleb128 11
 861 0132 07       		.uleb128 0x7
 862 0133 52070000 		.4byte	.LASF35
 863 0137 0C       		.sleb128 12
 864 0138 07       		.uleb128 0x7
 865 0139 27050000 		.4byte	.LASF36
 866 013d 0D       		.sleb128 13
 867 013e 07       		.uleb128 0x7
 868 013f 11030000 		.4byte	.LASF37
 869 0143 0E       		.sleb128 14
 870 0144 07       		.uleb128 0x7
 871 0145 AC040000 		.4byte	.LASF38
 872 0149 0F       		.sleb128 15
 873 014a 07       		.uleb128 0x7
 874 014b 0A020000 		.4byte	.LASF39
 875 014f 10       		.sleb128 16
 876 0150 07       		.uleb128 0x7
 877 0151 23030000 		.4byte	.LASF40
 878 0155 11       		.sleb128 17
 879 0156 07       		.uleb128 0x7
 880 0157 23090000 		.4byte	.LASF41
 881 015b 12       		.sleb128 18
 882 015c 07       		.uleb128 0x7
 883 015d C8030000 		.4byte	.LASF42
 884 0161 13       		.sleb128 19
 885 0162 07       		.uleb128 0x7
 886 0163 17000000 		.4byte	.LASF43
 887 0167 14       		.sleb128 20
 888 0168 07       		.uleb128 0x7
 889 0169 CF000000 		.4byte	.LASF44
 890 016d 15       		.sleb128 21
 891 016e 07       		.uleb128 0x7
 892 016f 49090000 		.4byte	.LASF45
 893 0173 16       		.sleb128 22
ARM GAS  C:\Users\DNIEL~1\AppData\Local\Temp\cc3kNDIX.s 			page 17


 894 0174 07       		.uleb128 0x7
 895 0175 1C020000 		.4byte	.LASF46
 896 0179 17       		.sleb128 23
 897 017a 07       		.uleb128 0x7
 898 017b F5050000 		.4byte	.LASF47
 899 017f 18       		.sleb128 24
 900 0180 07       		.uleb128 0x7
 901 0181 87040000 		.4byte	.LASF48
 902 0185 19       		.sleb128 25
 903 0186 07       		.uleb128 0x7
 904 0187 4D060000 		.4byte	.LASF49
 905 018b 1A       		.sleb128 26
 906 018c 07       		.uleb128 0x7
 907 018d 4B040000 		.4byte	.LASF50
 908 0191 1B       		.sleb128 27
 909 0192 07       		.uleb128 0x7
 910 0193 FF070000 		.4byte	.LASF51
 911 0197 1C       		.sleb128 28
 912 0198 07       		.uleb128 0x7
 913 0199 8D090000 		.4byte	.LASF52
 914 019d 1D       		.sleb128 29
 915 019e 07       		.uleb128 0x7
 916 019f 19010000 		.4byte	.LASF53
 917 01a3 1E       		.sleb128 30
 918 01a4 07       		.uleb128 0x7
 919 01a5 71000000 		.4byte	.LASF54
 920 01a9 1F       		.sleb128 31
 921 01aa 07       		.uleb128 0x7
 922 01ab 09090000 		.4byte	.LASF55
 923 01af 20       		.sleb128 32
 924 01b0 07       		.uleb128 0x7
 925 01b1 E0070000 		.4byte	.LASF56
 926 01b5 21       		.sleb128 33
 927 01b6 07       		.uleb128 0x7
 928 01b7 0C010000 		.4byte	.LASF57
 929 01bb 22       		.sleb128 34
 930 01bc 07       		.uleb128 0x7
 931 01bd ED030000 		.4byte	.LASF58
 932 01c1 23       		.sleb128 35
 933 01c2 07       		.uleb128 0x7
 934 01c3 1D050000 		.4byte	.LASF59
 935 01c7 24       		.sleb128 36
 936 01c8 07       		.uleb128 0x7
 937 01c9 14080000 		.4byte	.LASF60
 938 01cd 25       		.sleb128 37
 939 01ce 07       		.uleb128 0x7
 940 01cf C8060000 		.4byte	.LASF61
 941 01d3 26       		.sleb128 38
 942 01d4 07       		.uleb128 0x7
 943 01d5 ED070000 		.4byte	.LASF62
 944 01d9 27       		.sleb128 39
 945 01da 07       		.uleb128 0x7
 946 01db DE030000 		.4byte	.LASF63
 947 01df 28       		.sleb128 40
 948 01e0 07       		.uleb128 0x7
 949 01e1 FD000000 		.4byte	.LASF64
 950 01e5 29       		.sleb128 41
ARM GAS  C:\Users\DNIEL~1\AppData\Local\Temp\cc3kNDIX.s 			page 18


 951 01e6 07       		.uleb128 0x7
 952 01e7 78020000 		.4byte	.LASF65
 953 01eb 2A       		.sleb128 42
 954 01ec 07       		.uleb128 0x7
 955 01ed 25040000 		.4byte	.LASF66
 956 01f1 2B       		.sleb128 43
 957 01f2 07       		.uleb128 0x7
 958 01f3 9B020000 		.4byte	.LASF67
 959 01f7 2C       		.sleb128 44
 960 01f8 07       		.uleb128 0x7
 961 01f9 58040000 		.4byte	.LASF68
 962 01fd 2D       		.sleb128 45
 963 01fe 07       		.uleb128 0x7
 964 01ff D4020000 		.4byte	.LASF69
 965 0203 2E       		.sleb128 46
 966 0204 07       		.uleb128 0x7
 967 0205 45020000 		.4byte	.LASF70
 968 0209 2F       		.sleb128 47
 969 020a 07       		.uleb128 0x7
 970 020b D5050000 		.4byte	.LASF71
 971 020f 30       		.sleb128 48
 972 0210 07       		.uleb128 0x7
 973 0211 8A030000 		.4byte	.LASF72
 974 0215 31       		.sleb128 49
 975 0216 07       		.uleb128 0x7
 976 0217 CA040000 		.4byte	.LASF73
 977 021b 32       		.sleb128 50
 978 021c 07       		.uleb128 0x7
 979 021d B9050000 		.4byte	.LASF74
 980 0221 33       		.sleb128 51
 981 0222 07       		.uleb128 0x7
 982 0223 6D020000 		.4byte	.LASF75
 983 0227 34       		.sleb128 52
 984 0228 07       		.uleb128 0x7
 985 0229 42060000 		.4byte	.LASF76
 986 022d 35       		.sleb128 53
 987 022e 07       		.uleb128 0x7
 988 022f 57020000 		.4byte	.LASF77
 989 0233 36       		.sleb128 54
 990 0234 07       		.uleb128 0x7
 991 0235 48070000 		.4byte	.LASF78
 992 0239 37       		.sleb128 55
 993 023a 07       		.uleb128 0x7
 994 023b CE070000 		.4byte	.LASF79
 995 023f 38       		.sleb128 56
 996 0240 07       		.uleb128 0x7
 997 0241 2C090000 		.4byte	.LASF80
 998 0245 39       		.sleb128 57
 999 0246 07       		.uleb128 0x7
 1000 0247 AB030000 		.4byte	.LASF81
 1001 024b 3A       		.sleb128 58
 1002 024c 07       		.uleb128 0x7
 1003 024d 9A040000 		.4byte	.LASF82
 1004 0251 3B       		.sleb128 59
 1005 0252 07       		.uleb128 0x7
 1006 0253 C3050000 		.4byte	.LASF83
 1007 0257 3C       		.sleb128 60
ARM GAS  C:\Users\DNIEL~1\AppData\Local\Temp\cc3kNDIX.s 			page 19


 1008 0258 07       		.uleb128 0x7
 1009 0259 7E040000 		.4byte	.LASF84
 1010 025d 3D       		.sleb128 61
 1011 025e 07       		.uleb128 0x7
 1012 025f 2E020000 		.4byte	.LASF85
 1013 0263 3E       		.sleb128 62
 1014 0264 07       		.uleb128 0x7
 1015 0265 39050000 		.4byte	.LASF86
 1016 0269 3F       		.sleb128 63
 1017 026a 07       		.uleb128 0x7
 1018 026b 2E000000 		.4byte	.LASF87
 1019 026f C000     		.sleb128 64
 1020 0271 07       		.uleb128 0x7
 1021 0272 90010000 		.4byte	.LASF88
 1022 0276 C100     		.sleb128 65
 1023 0278 07       		.uleb128 0x7
 1024 0279 65090000 		.4byte	.LASF89
 1025 027d C200     		.sleb128 66
 1026 027f 07       		.uleb128 0x7
 1027 0280 B3060000 		.4byte	.LASF90
 1028 0284 C300     		.sleb128 67
 1029 0286 07       		.uleb128 0x7
 1030 0287 89020000 		.4byte	.LASF91
 1031 028b C400     		.sleb128 68
 1032 028d 07       		.uleb128 0x7
 1033 028e B1010000 		.4byte	.LASF92
 1034 0292 C500     		.sleb128 69
 1035 0294 07       		.uleb128 0x7
 1036 0295 ED020000 		.4byte	.LASF93
 1037 0299 C600     		.sleb128 70
 1038 029b 07       		.uleb128 0x7
 1039 029c BE040000 		.4byte	.LASF94
 1040 02a0 C700     		.sleb128 71
 1041 02a2 07       		.uleb128 0x7
 1042 02a3 4B030000 		.4byte	.LASF95
 1043 02a7 C800     		.sleb128 72
 1044 02a9 07       		.uleb128 0x7
 1045 02aa 54000000 		.4byte	.LASF96
 1046 02ae C900     		.sleb128 73
 1047 02b0 07       		.uleb128 0x7
 1048 02b1 76030000 		.4byte	.LASF97
 1049 02b5 CA00     		.sleb128 74
 1050 02b7 07       		.uleb128 0x7
 1051 02b8 64070000 		.4byte	.LASF98
 1052 02bc CB00     		.sleb128 75
 1053 02be 07       		.uleb128 0x7
 1054 02bf 7C090000 		.4byte	.LASF99
 1055 02c3 CC00     		.sleb128 76
 1056 02c5 07       		.uleb128 0x7
 1057 02c6 59050000 		.4byte	.LASF100
 1058 02ca CD00     		.sleb128 77
 1059 02cc 07       		.uleb128 0x7
 1060 02cd 80080000 		.4byte	.LASF101
 1061 02d1 CE00     		.sleb128 78
 1062 02d3 07       		.uleb128 0x7
 1063 02d4 32070000 		.4byte	.LASF102
 1064 02d8 CF00     		.sleb128 79
ARM GAS  C:\Users\DNIEL~1\AppData\Local\Temp\cc3kNDIX.s 			page 20


 1065 02da 07       		.uleb128 0x7
 1066 02db 20060000 		.4byte	.LASF103
 1067 02df D000     		.sleb128 80
 1068 02e1 07       		.uleb128 0x7
 1069 02e2 AB080000 		.4byte	.LASF104
 1070 02e6 D100     		.sleb128 81
 1071 02e8 00       		.byte	0
 1072 02e9 08       		.uleb128 0x8
 1073 02ea 7B000000 		.4byte	0x7b
 1074 02ee F9020000 		.4byte	0x2f9
 1075 02f2 09       		.uleb128 0x9
 1076 02f3 A0000000 		.4byte	0xa0
 1077 02f7 01       		.byte	0x1
 1078 02f8 00       		.byte	0
 1079 02f9 08       		.uleb128 0x8
 1080 02fa 7B000000 		.4byte	0x7b
 1081 02fe 09030000 		.4byte	0x309
 1082 0302 09       		.uleb128 0x9
 1083 0303 A0000000 		.4byte	0xa0
 1084 0307 03       		.byte	0x3
 1085 0308 00       		.byte	0
 1086 0309 05       		.uleb128 0x5
 1087 030a 57000000 		.4byte	0x57
 1088 030e 05       		.uleb128 0x5
 1089 030f 69000000 		.4byte	0x69
 1090 0313 0A       		.uleb128 0xa
 1091 0314 88       		.byte	0x88
 1092 0315 03       		.byte	0x3
 1093 0316 DB02     		.2byte	0x2db
 1094 0318 E0040000 		.4byte	0x4e0
 1095 031c 0B       		.uleb128 0xb
 1096 031d 435200   		.ascii	"CR\000"
 1097 0320 03       		.byte	0x3
 1098 0321 DD02     		.2byte	0x2dd
 1099 0323 9B000000 		.4byte	0x9b
 1100 0327 02       		.byte	0x2
 1101 0328 23       		.byte	0x23
 1102 0329 00       		.uleb128 0
 1103 032a 0C       		.uleb128 0xc
 1104 032b 65020000 		.4byte	.LASF105
 1105 032f 03       		.byte	0x3
 1106 0330 DE02     		.2byte	0x2de
 1107 0332 9B000000 		.4byte	0x9b
 1108 0336 02       		.byte	0x2
 1109 0337 23       		.byte	0x23
 1110 0338 04       		.uleb128 0x4
 1111 0339 0C       		.uleb128 0xc
 1112 033a B4080000 		.4byte	.LASF106
 1113 033e 03       		.byte	0x3
 1114 033f DF02     		.2byte	0x2df
 1115 0341 9B000000 		.4byte	0x9b
 1116 0345 02       		.byte	0x2
 1117 0346 23       		.byte	0x23
 1118 0347 08       		.uleb128 0x8
 1119 0348 0B       		.uleb128 0xb
 1120 0349 43495200 		.ascii	"CIR\000"
 1121 034d 03       		.byte	0x3
ARM GAS  C:\Users\DNIEL~1\AppData\Local\Temp\cc3kNDIX.s 			page 21


 1122 034e E002     		.2byte	0x2e0
 1123 0350 9B000000 		.4byte	0x9b
 1124 0354 02       		.byte	0x2
 1125 0355 23       		.byte	0x23
 1126 0356 0C       		.uleb128 0xc
 1127 0357 0C       		.uleb128 0xc
 1128 0358 9E010000 		.4byte	.LASF107
 1129 035c 03       		.byte	0x3
 1130 035d E102     		.2byte	0x2e1
 1131 035f 9B000000 		.4byte	0x9b
 1132 0363 02       		.byte	0x2
 1133 0364 23       		.byte	0x23
 1134 0365 10       		.uleb128 0x10
 1135 0366 0C       		.uleb128 0xc
 1136 0367 BD020000 		.4byte	.LASF108
 1137 036b 03       		.byte	0x3
 1138 036c E202     		.2byte	0x2e2
 1139 036e 9B000000 		.4byte	0x9b
 1140 0372 02       		.byte	0x2
 1141 0373 23       		.byte	0x23
 1142 0374 14       		.uleb128 0x14
 1143 0375 0C       		.uleb128 0xc
 1144 0376 D5030000 		.4byte	.LASF109
 1145 037a 03       		.byte	0x3
 1146 037b E302     		.2byte	0x2e3
 1147 037d 9B000000 		.4byte	0x9b
 1148 0381 02       		.byte	0x2
 1149 0382 23       		.byte	0x23
 1150 0383 18       		.uleb128 0x18
 1151 0384 0C       		.uleb128 0xc
 1152 0385 73050000 		.4byte	.LASF110
 1153 0389 03       		.byte	0x3
 1154 038a E402     		.2byte	0x2e4
 1155 038c 7B000000 		.4byte	0x7b
 1156 0390 02       		.byte	0x2
 1157 0391 23       		.byte	0x23
 1158 0392 1C       		.uleb128 0x1c
 1159 0393 0C       		.uleb128 0xc
 1160 0394 50050000 		.4byte	.LASF111
 1161 0398 03       		.byte	0x3
 1162 0399 E502     		.2byte	0x2e5
 1163 039b 9B000000 		.4byte	0x9b
 1164 039f 02       		.byte	0x2
 1165 03a0 23       		.byte	0x23
 1166 03a1 20       		.uleb128 0x20
 1167 03a2 0C       		.uleb128 0xc
 1168 03a3 01020000 		.4byte	.LASF112
 1169 03a7 03       		.byte	0x3
 1170 03a8 E602     		.2byte	0x2e6
 1171 03aa 9B000000 		.4byte	0x9b
 1172 03ae 02       		.byte	0x2
 1173 03af 23       		.byte	0x23
 1174 03b0 24       		.uleb128 0x24
 1175 03b1 0C       		.uleb128 0xc
 1176 03b2 7D050000 		.4byte	.LASF113
 1177 03b6 03       		.byte	0x3
 1178 03b7 E702     		.2byte	0x2e7
ARM GAS  C:\Users\DNIEL~1\AppData\Local\Temp\cc3kNDIX.s 			page 22


 1179 03b9 E9020000 		.4byte	0x2e9
 1180 03bd 02       		.byte	0x2
 1181 03be 23       		.byte	0x23
 1182 03bf 28       		.uleb128 0x28
 1183 03c0 0C       		.uleb128 0xc
 1184 03c1 9E080000 		.4byte	.LASF114
 1185 03c5 03       		.byte	0x3
 1186 03c6 E802     		.2byte	0x2e8
 1187 03c8 9B000000 		.4byte	0x9b
 1188 03cc 02       		.byte	0x2
 1189 03cd 23       		.byte	0x23
 1190 03ce 30       		.uleb128 0x30
 1191 03cf 0C       		.uleb128 0xc
 1192 03d0 93070000 		.4byte	.LASF115
 1193 03d4 03       		.byte	0x3
 1194 03d5 E902     		.2byte	0x2e9
 1195 03d7 9B000000 		.4byte	0x9b
 1196 03db 02       		.byte	0x2
 1197 03dc 23       		.byte	0x23
 1198 03dd 34       		.uleb128 0x34
 1199 03de 0C       		.uleb128 0xc
 1200 03df 93060000 		.4byte	.LASF116
 1201 03e3 03       		.byte	0x3
 1202 03e4 EA02     		.2byte	0x2ea
 1203 03e6 9B000000 		.4byte	0x9b
 1204 03ea 02       		.byte	0x2
 1205 03eb 23       		.byte	0x23
 1206 03ec 38       		.uleb128 0x38
 1207 03ed 0C       		.uleb128 0xc
 1208 03ee 87050000 		.4byte	.LASF117
 1209 03f2 03       		.byte	0x3
 1210 03f3 EB02     		.2byte	0x2eb
 1211 03f5 7B000000 		.4byte	0x7b
 1212 03f9 02       		.byte	0x2
 1213 03fa 23       		.byte	0x23
 1214 03fb 3C       		.uleb128 0x3c
 1215 03fc 0C       		.uleb128 0xc
 1216 03fd 8B070000 		.4byte	.LASF118
 1217 0401 03       		.byte	0x3
 1218 0402 EC02     		.2byte	0x2ec
 1219 0404 9B000000 		.4byte	0x9b
 1220 0408 02       		.byte	0x2
 1221 0409 23       		.byte	0x23
 1222 040a 40       		.uleb128 0x40
 1223 040b 0C       		.uleb128 0xc
 1224 040c 83060000 		.4byte	.LASF119
 1225 0410 03       		.byte	0x3
 1226 0411 ED02     		.2byte	0x2ed
 1227 0413 9B000000 		.4byte	0x9b
 1228 0417 02       		.byte	0x2
 1229 0418 23       		.byte	0x23
 1230 0419 44       		.uleb128 0x44
 1231 041a 0C       		.uleb128 0xc
 1232 041b 91050000 		.4byte	.LASF120
 1233 041f 03       		.byte	0x3
 1234 0420 EE02     		.2byte	0x2ee
 1235 0422 E9020000 		.4byte	0x2e9
ARM GAS  C:\Users\DNIEL~1\AppData\Local\Temp\cc3kNDIX.s 			page 23


 1236 0426 02       		.byte	0x2
 1237 0427 23       		.byte	0x23
 1238 0428 48       		.uleb128 0x48
 1239 0429 0C       		.uleb128 0xc
 1240 042a 45010000 		.4byte	.LASF121
 1241 042e 03       		.byte	0x3
 1242 042f EF02     		.2byte	0x2ef
 1243 0431 9B000000 		.4byte	0x9b
 1244 0435 02       		.byte	0x2
 1245 0436 23       		.byte	0x23
 1246 0437 50       		.uleb128 0x50
 1247 0438 0C       		.uleb128 0xc
 1248 0439 46050000 		.4byte	.LASF122
 1249 043d 03       		.byte	0x3
 1250 043e F002     		.2byte	0x2f0
 1251 0440 9B000000 		.4byte	0x9b
 1252 0444 02       		.byte	0x2
 1253 0445 23       		.byte	0x23
 1254 0446 54       		.uleb128 0x54
 1255 0447 0C       		.uleb128 0xc
 1256 0448 38060000 		.4byte	.LASF123
 1257 044c 03       		.byte	0x3
 1258 044d F102     		.2byte	0x2f1
 1259 044f 9B000000 		.4byte	0x9b
 1260 0453 02       		.byte	0x2
 1261 0454 23       		.byte	0x23
 1262 0455 58       		.uleb128 0x58
 1263 0456 0C       		.uleb128 0xc
 1264 0457 9B050000 		.4byte	.LASF124
 1265 045b 03       		.byte	0x3
 1266 045c F202     		.2byte	0x2f2
 1267 045e 7B000000 		.4byte	0x7b
 1268 0462 02       		.byte	0x2
 1269 0463 23       		.byte	0x23
 1270 0464 5C       		.uleb128 0x5c
 1271 0465 0C       		.uleb128 0xc
 1272 0466 0D000000 		.4byte	.LASF125
 1273 046a 03       		.byte	0x3
 1274 046b F302     		.2byte	0x2f3
 1275 046d 9B000000 		.4byte	0x9b
 1276 0471 02       		.byte	0x2
 1277 0472 23       		.byte	0x23
 1278 0473 60       		.uleb128 0x60
 1279 0474 0C       		.uleb128 0xc
 1280 0475 16040000 		.4byte	.LASF126
 1281 0479 03       		.byte	0x3
 1282 047a F402     		.2byte	0x2f4
 1283 047c 9B000000 		.4byte	0x9b
 1284 0480 02       		.byte	0x2
 1285 0481 23       		.byte	0x23
 1286 0482 64       		.uleb128 0x64
 1287 0483 0C       		.uleb128 0xc
 1288 0484 A5050000 		.4byte	.LASF127
 1289 0488 03       		.byte	0x3
 1290 0489 F502     		.2byte	0x2f5
 1291 048b E9020000 		.4byte	0x2e9
 1292 048f 02       		.byte	0x2
ARM GAS  C:\Users\DNIEL~1\AppData\Local\Temp\cc3kNDIX.s 			page 24


 1293 0490 23       		.byte	0x23
 1294 0491 68       		.uleb128 0x68
 1295 0492 0C       		.uleb128 0xc
 1296 0493 4B080000 		.4byte	.LASF128
 1297 0497 03       		.byte	0x3
 1298 0498 F602     		.2byte	0x2f6
 1299 049a 9B000000 		.4byte	0x9b
 1300 049e 02       		.byte	0x2
 1301 049f 23       		.byte	0x23
 1302 04a0 70       		.uleb128 0x70
 1303 04a1 0B       		.uleb128 0xb
 1304 04a2 43535200 		.ascii	"CSR\000"
 1305 04a6 03       		.byte	0x3
 1306 04a7 F702     		.2byte	0x2f7
 1307 04a9 9B000000 		.4byte	0x9b
 1308 04ad 02       		.byte	0x2
 1309 04ae 23       		.byte	0x23
 1310 04af 74       		.uleb128 0x74
 1311 04b0 0C       		.uleb128 0xc
 1312 04b1 AF050000 		.4byte	.LASF129
 1313 04b5 03       		.byte	0x3
 1314 04b6 F802     		.2byte	0x2f8
 1315 04b8 E9020000 		.4byte	0x2e9
 1316 04bc 02       		.byte	0x2
 1317 04bd 23       		.byte	0x23
 1318 04be 78       		.uleb128 0x78
 1319 04bf 0C       		.uleb128 0xc
 1320 04c0 F9070000 		.4byte	.LASF130
 1321 04c4 03       		.byte	0x3
 1322 04c5 F902     		.2byte	0x2f9
 1323 04c7 9B000000 		.4byte	0x9b
 1324 04cb 03       		.byte	0x3
 1325 04cc 23       		.byte	0x23
 1326 04cd 8001     		.uleb128 0x80
 1327 04cf 0C       		.uleb128 0xc
 1328 04d0 BD030000 		.4byte	.LASF131
 1329 04d4 03       		.byte	0x3
 1330 04d5 FA02     		.2byte	0x2fa
 1331 04d7 9B000000 		.4byte	0x9b
 1332 04db 03       		.byte	0x3
 1333 04dc 23       		.byte	0x23
 1334 04dd 8401     		.uleb128 0x84
 1335 04df 00       		.byte	0
 1336 04e0 0D       		.uleb128 0xd
 1337 04e1 6A030000 		.4byte	.LASF132
 1338 04e5 03       		.byte	0x3
 1339 04e6 FB02     		.2byte	0x2fb
 1340 04e8 13030000 		.4byte	0x313
 1341 04ec 0E       		.uleb128 0xe
 1342 04ed 54       		.byte	0x54
 1343 04ee 04       		.byte	0x4
 1344 04ef 60       		.byte	0x60
 1345 04f0 C1060000 		.4byte	0x6c1
 1346 04f4 0F       		.uleb128 0xf
 1347 04f5 43523100 		.ascii	"CR1\000"
 1348 04f9 04       		.byte	0x4
 1349 04fa 61       		.byte	0x61
ARM GAS  C:\Users\DNIEL~1\AppData\Local\Temp\cc3kNDIX.s 			page 25


 1350 04fb 09030000 		.4byte	0x309
 1351 04ff 02       		.byte	0x2
 1352 0500 23       		.byte	0x23
 1353 0501 00       		.uleb128 0
 1354 0502 10       		.uleb128 0x10
 1355 0503 61000000 		.4byte	.LASF133
 1356 0507 04       		.byte	0x4
 1357 0508 62       		.byte	0x62
 1358 0509 57000000 		.4byte	0x57
 1359 050d 02       		.byte	0x2
 1360 050e 23       		.byte	0x23
 1361 050f 02       		.uleb128 0x2
 1362 0510 0F       		.uleb128 0xf
 1363 0511 43523200 		.ascii	"CR2\000"
 1364 0515 04       		.byte	0x4
 1365 0516 63       		.byte	0x63
 1366 0517 09030000 		.4byte	0x309
 1367 051b 02       		.byte	0x2
 1368 051c 23       		.byte	0x23
 1369 051d 04       		.uleb128 0x4
 1370 051e 10       		.uleb128 0x10
 1371 051f 69000000 		.4byte	.LASF134
 1372 0523 04       		.byte	0x4
 1373 0524 64       		.byte	0x64
 1374 0525 57000000 		.4byte	0x57
 1375 0529 02       		.byte	0x2
 1376 052a 23       		.byte	0x23
 1377 052b 06       		.uleb128 0x6
 1378 052c 10       		.uleb128 0x10
 1379 052d A6030000 		.4byte	.LASF135
 1380 0531 04       		.byte	0x4
 1381 0532 65       		.byte	0x65
 1382 0533 09030000 		.4byte	0x309
 1383 0537 02       		.byte	0x2
 1384 0538 23       		.byte	0x23
 1385 0539 08       		.uleb128 0x8
 1386 053a 10       		.uleb128 0x10
 1387 053b 00070000 		.4byte	.LASF136
 1388 053f 04       		.byte	0x4
 1389 0540 66       		.byte	0x66
 1390 0541 57000000 		.4byte	0x57
 1391 0545 02       		.byte	0x2
 1392 0546 23       		.byte	0x23
 1393 0547 0A       		.uleb128 0xa
 1394 0548 10       		.uleb128 0x10
 1395 0549 A6080000 		.4byte	.LASF137
 1396 054d 04       		.byte	0x4
 1397 054e 67       		.byte	0x67
 1398 054f 09030000 		.4byte	0x309
 1399 0553 02       		.byte	0x2
 1400 0554 23       		.byte	0x23
 1401 0555 0C       		.uleb128 0xc
 1402 0556 10       		.uleb128 0x10
 1403 0557 7E000000 		.4byte	.LASF138
 1404 055b 04       		.byte	0x4
 1405 055c 68       		.byte	0x68
 1406 055d 57000000 		.4byte	0x57
ARM GAS  C:\Users\DNIEL~1\AppData\Local\Temp\cc3kNDIX.s 			page 26


 1407 0561 02       		.byte	0x2
 1408 0562 23       		.byte	0x23
 1409 0563 0E       		.uleb128 0xe
 1410 0564 0F       		.uleb128 0xf
 1411 0565 535200   		.ascii	"SR\000"
 1412 0568 04       		.byte	0x4
 1413 0569 69       		.byte	0x69
 1414 056a 09030000 		.4byte	0x309
 1415 056e 02       		.byte	0x2
 1416 056f 23       		.byte	0x23
 1417 0570 10       		.uleb128 0x10
 1418 0571 10       		.uleb128 0x10
 1419 0572 86000000 		.4byte	.LASF139
 1420 0576 04       		.byte	0x4
 1421 0577 6A       		.byte	0x6a
 1422 0578 57000000 		.4byte	0x57
 1423 057c 02       		.byte	0x2
 1424 057d 23       		.byte	0x23
 1425 057e 12       		.uleb128 0x12
 1426 057f 0F       		.uleb128 0xf
 1427 0580 45475200 		.ascii	"EGR\000"
 1428 0584 04       		.byte	0x4
 1429 0585 6B       		.byte	0x6b
 1430 0586 09030000 		.4byte	0x309
 1431 058a 02       		.byte	0x2
 1432 058b 23       		.byte	0x23
 1433 058c 14       		.uleb128 0x14
 1434 058d 10       		.uleb128 0x10
 1435 058e 8E000000 		.4byte	.LASF140
 1436 0592 04       		.byte	0x4
 1437 0593 6C       		.byte	0x6c
 1438 0594 57000000 		.4byte	0x57
 1439 0598 02       		.byte	0x2
 1440 0599 23       		.byte	0x23
 1441 059a 16       		.uleb128 0x16
 1442 059b 10       		.uleb128 0x10
 1443 059c 6A010000 		.4byte	.LASF141
 1444 05a0 04       		.byte	0x4
 1445 05a1 6D       		.byte	0x6d
 1446 05a2 09030000 		.4byte	0x309
 1447 05a6 02       		.byte	0x2
 1448 05a7 23       		.byte	0x23
 1449 05a8 18       		.uleb128 0x18
 1450 05a9 10       		.uleb128 0x10
 1451 05aa 96000000 		.4byte	.LASF142
 1452 05ae 04       		.byte	0x4
 1453 05af 6E       		.byte	0x6e
 1454 05b0 57000000 		.4byte	0x57
 1455 05b4 02       		.byte	0x2
 1456 05b5 23       		.byte	0x23
 1457 05b6 1A       		.uleb128 0x1a
 1458 05b7 10       		.uleb128 0x10
 1459 05b8 70010000 		.4byte	.LASF143
 1460 05bc 04       		.byte	0x4
 1461 05bd 6F       		.byte	0x6f
 1462 05be 09030000 		.4byte	0x309
 1463 05c2 02       		.byte	0x2
ARM GAS  C:\Users\DNIEL~1\AppData\Local\Temp\cc3kNDIX.s 			page 27


 1464 05c3 23       		.byte	0x23
 1465 05c4 1C       		.uleb128 0x1c
 1466 05c5 10       		.uleb128 0x10
 1467 05c6 9E000000 		.4byte	.LASF144
 1468 05ca 04       		.byte	0x4
 1469 05cb 70       		.byte	0x70
 1470 05cc 57000000 		.4byte	0x57
 1471 05d0 02       		.byte	0x2
 1472 05d1 23       		.byte	0x23
 1473 05d2 1E       		.uleb128 0x1e
 1474 05d3 10       		.uleb128 0x10
 1475 05d4 29020000 		.4byte	.LASF145
 1476 05d8 04       		.byte	0x4
 1477 05d9 71       		.byte	0x71
 1478 05da 09030000 		.4byte	0x309
 1479 05de 02       		.byte	0x2
 1480 05df 23       		.byte	0x23
 1481 05e0 20       		.uleb128 0x20
 1482 05e1 10       		.uleb128 0x10
 1483 05e2 A6000000 		.4byte	.LASF146
 1484 05e6 04       		.byte	0x4
 1485 05e7 72       		.byte	0x72
 1486 05e8 57000000 		.4byte	0x57
 1487 05ec 02       		.byte	0x2
 1488 05ed 23       		.byte	0x23
 1489 05ee 22       		.uleb128 0x22
 1490 05ef 0F       		.uleb128 0xf
 1491 05f0 434E5400 		.ascii	"CNT\000"
 1492 05f4 04       		.byte	0x4
 1493 05f5 73       		.byte	0x73
 1494 05f6 9B000000 		.4byte	0x9b
 1495 05fa 02       		.byte	0x2
 1496 05fb 23       		.byte	0x23
 1497 05fc 24       		.uleb128 0x24
 1498 05fd 0F       		.uleb128 0xf
 1499 05fe 50534300 		.ascii	"PSC\000"
 1500 0602 04       		.byte	0x4
 1501 0603 74       		.byte	0x74
 1502 0604 09030000 		.4byte	0x309
 1503 0608 02       		.byte	0x2
 1504 0609 23       		.byte	0x23
 1505 060a 28       		.uleb128 0x28
 1506 060b 10       		.uleb128 0x10
 1507 060c AE000000 		.4byte	.LASF147
 1508 0610 04       		.byte	0x4
 1509 0611 75       		.byte	0x75
 1510 0612 57000000 		.4byte	0x57
 1511 0616 02       		.byte	0x2
 1512 0617 23       		.byte	0x23
 1513 0618 2A       		.uleb128 0x2a
 1514 0619 0F       		.uleb128 0xf
 1515 061a 41525200 		.ascii	"ARR\000"
 1516 061e 04       		.byte	0x4
 1517 061f 76       		.byte	0x76
 1518 0620 9B000000 		.4byte	0x9b
 1519 0624 02       		.byte	0x2
 1520 0625 23       		.byte	0x23
ARM GAS  C:\Users\DNIEL~1\AppData\Local\Temp\cc3kNDIX.s 			page 28


 1521 0626 2C       		.uleb128 0x2c
 1522 0627 0F       		.uleb128 0xf
 1523 0628 52435200 		.ascii	"RCR\000"
 1524 062c 04       		.byte	0x4
 1525 062d 77       		.byte	0x77
 1526 062e 09030000 		.4byte	0x309
 1527 0632 02       		.byte	0x2
 1528 0633 23       		.byte	0x23
 1529 0634 30       		.uleb128 0x30
 1530 0635 10       		.uleb128 0x10
 1531 0636 C9010000 		.4byte	.LASF148
 1532 063a 04       		.byte	0x4
 1533 063b 78       		.byte	0x78
 1534 063c 57000000 		.4byte	0x57
 1535 0640 02       		.byte	0x2
 1536 0641 23       		.byte	0x23
 1537 0642 32       		.uleb128 0x32
 1538 0643 0F       		.uleb128 0xf
 1539 0644 43435200 		.ascii	"CCR\000"
 1540 0648 04       		.byte	0x4
 1541 0649 79       		.byte	0x79
 1542 064a C1060000 		.4byte	0x6c1
 1543 064e 02       		.byte	0x2
 1544 064f 23       		.byte	0x23
 1545 0650 34       		.uleb128 0x34
 1546 0651 10       		.uleb128 0x10
 1547 0652 FF020000 		.4byte	.LASF149
 1548 0656 04       		.byte	0x4
 1549 0657 7A       		.byte	0x7a
 1550 0658 09030000 		.4byte	0x309
 1551 065c 02       		.byte	0x2
 1552 065d 23       		.byte	0x23
 1553 065e 44       		.uleb128 0x44
 1554 065f 10       		.uleb128 0x10
 1555 0660 BD000000 		.4byte	.LASF150
 1556 0664 04       		.byte	0x4
 1557 0665 7B       		.byte	0x7b
 1558 0666 57000000 		.4byte	0x57
 1559 066a 02       		.byte	0x2
 1560 066b 23       		.byte	0x23
 1561 066c 46       		.uleb128 0x46
 1562 066d 0F       		.uleb128 0xf
 1563 066e 44435200 		.ascii	"DCR\000"
 1564 0672 04       		.byte	0x4
 1565 0673 7C       		.byte	0x7c
 1566 0674 09030000 		.4byte	0x309
 1567 0678 02       		.byte	0x2
 1568 0679 23       		.byte	0x23
 1569 067a 48       		.uleb128 0x48
 1570 067b 10       		.uleb128 0x10
 1571 067c C6000000 		.4byte	.LASF151
 1572 0680 04       		.byte	0x4
 1573 0681 7D       		.byte	0x7d
 1574 0682 57000000 		.4byte	0x57
 1575 0686 02       		.byte	0x2
 1576 0687 23       		.byte	0x23
 1577 0688 4A       		.uleb128 0x4a
ARM GAS  C:\Users\DNIEL~1\AppData\Local\Temp\cc3kNDIX.s 			page 29


 1578 0689 10       		.uleb128 0x10
 1579 068a 43070000 		.4byte	.LASF152
 1580 068e 04       		.byte	0x4
 1581 068f 7E       		.byte	0x7e
 1582 0690 09030000 		.4byte	0x309
 1583 0694 02       		.byte	0x2
 1584 0695 23       		.byte	0x23
 1585 0696 4C       		.uleb128 0x4c
 1586 0697 10       		.uleb128 0x10
 1587 0698 DD000000 		.4byte	.LASF153
 1588 069c 04       		.byte	0x4
 1589 069d 7F       		.byte	0x7f
 1590 069e 57000000 		.4byte	0x57
 1591 06a2 02       		.byte	0x2
 1592 06a3 23       		.byte	0x23
 1593 06a4 4E       		.uleb128 0x4e
 1594 06a5 0F       		.uleb128 0xf
 1595 06a6 4F5200   		.ascii	"OR\000"
 1596 06a9 04       		.byte	0x4
 1597 06aa 80       		.byte	0x80
 1598 06ab 09030000 		.4byte	0x309
 1599 06af 02       		.byte	0x2
 1600 06b0 23       		.byte	0x23
 1601 06b1 50       		.uleb128 0x50
 1602 06b2 10       		.uleb128 0x10
 1603 06b3 EA010000 		.4byte	.LASF154
 1604 06b7 04       		.byte	0x4
 1605 06b8 81       		.byte	0x81
 1606 06b9 57000000 		.4byte	0x57
 1607 06bd 02       		.byte	0x2
 1608 06be 23       		.byte	0x23
 1609 06bf 52       		.uleb128 0x52
 1610 06c0 00       		.byte	0
 1611 06c1 05       		.uleb128 0x5
 1612 06c2 F9020000 		.4byte	0x2f9
 1613 06c6 04       		.uleb128 0x4
 1614 06c7 0A040000 		.4byte	.LASF155
 1615 06cb 04       		.byte	0x4
 1616 06cc 82       		.byte	0x82
 1617 06cd EC040000 		.4byte	0x4ec
 1618 06d1 11       		.uleb128 0x11
 1619 06d2 04       		.byte	0x4
 1620 06d3 C6060000 		.4byte	0x6c6
 1621 06d7 12       		.uleb128 0x12
 1622 06d8 01       		.byte	0x1
 1623 06d9 05       		.byte	0x5
 1624 06da 4E       		.byte	0x4e
 1625 06db F2060000 		.4byte	0x6f2
 1626 06df 07       		.uleb128 0x7
 1627 06e0 3E090000 		.4byte	.LASF156
 1628 06e4 00       		.sleb128 0
 1629 06e5 07       		.uleb128 0x7
 1630 06e6 1F070000 		.4byte	.LASF157
 1631 06ea 01       		.sleb128 1
 1632 06eb 07       		.uleb128 0x7
 1633 06ec 4F010000 		.4byte	.LASF158
 1634 06f0 02       		.sleb128 2
ARM GAS  C:\Users\DNIEL~1\AppData\Local\Temp\cc3kNDIX.s 			page 30


 1635 06f1 00       		.byte	0
 1636 06f2 04       		.uleb128 0x4
 1637 06f3 8A080000 		.4byte	.LASF159
 1638 06f7 05       		.byte	0x5
 1639 06f8 52       		.byte	0x52
 1640 06f9 D7060000 		.4byte	0x6d7
 1641 06fd 04       		.uleb128 0x4
 1642 06fe 76080000 		.4byte	.LASF160
 1643 0702 05       		.byte	0x5
 1644 0703 57       		.byte	0x57
 1645 0704 08070000 		.4byte	0x708
 1646 0708 13       		.uleb128 0x13
 1647 0709 76080000 		.4byte	.LASF160
 1648 070d 14       		.byte	0x14
 1649 070e 06       		.byte	0x6
 1650 070f 5001     		.2byte	0x150
 1651 0711 61070000 		.4byte	0x761
 1652 0715 0C       		.uleb128 0xc
 1653 0716 D2010000 		.4byte	.LASF161
 1654 071a 06       		.byte	0x6
 1655 071b 5401     		.2byte	0x154
 1656 071d F2060000 		.4byte	0x6f2
 1657 0721 02       		.byte	0x2
 1658 0722 23       		.byte	0x23
 1659 0723 00       		.uleb128 0
 1660 0724 0C       		.uleb128 0xc
 1661 0725 3C070000 		.4byte	.LASF162
 1662 0729 06       		.byte	0x6
 1663 072a 5801     		.2byte	0x158
 1664 072c 4D080000 		.4byte	0x84d
 1665 0730 02       		.byte	0x2
 1666 0731 23       		.byte	0x23
 1667 0732 04       		.uleb128 0x4
 1668 0733 0C       		.uleb128 0xc
 1669 0734 B6000000 		.4byte	.LASF163
 1670 0738 06       		.byte	0x6
 1671 0739 5C01     		.2byte	0x15c
 1672 073b 9C070000 		.4byte	0x79c
 1673 073f 02       		.byte	0x2
 1674 0740 23       		.byte	0x23
 1675 0741 08       		.uleb128 0x8
 1676 0742 0C       		.uleb128 0xc
 1677 0743 D1080000 		.4byte	.LASF164
 1678 0747 06       		.byte	0x6
 1679 0748 6401     		.2byte	0x164
 1680 074a 7B000000 		.4byte	0x7b
 1681 074e 02       		.byte	0x2
 1682 074f 23       		.byte	0x23
 1683 0750 0C       		.uleb128 0xc
 1684 0751 0B       		.uleb128 0xb
 1685 0752 74696D00 		.ascii	"tim\000"
 1686 0756 06       		.byte	0x6
 1687 0757 6801     		.2byte	0x168
 1688 0759 D1060000 		.4byte	0x6d1
 1689 075d 02       		.byte	0x2
 1690 075e 23       		.byte	0x23
 1691 075f 10       		.uleb128 0x10
ARM GAS  C:\Users\DNIEL~1\AppData\Local\Temp\cc3kNDIX.s 			page 31


 1692 0760 00       		.byte	0
 1693 0761 04       		.uleb128 0x4
 1694 0762 65050000 		.4byte	.LASF165
 1695 0766 05       		.byte	0x5
 1696 0767 5E       		.byte	0x5e
 1697 0768 6C070000 		.4byte	0x76c
 1698 076c 11       		.uleb128 0x11
 1699 076d 04       		.byte	0x4
 1700 076e 72070000 		.4byte	0x772
 1701 0772 14       		.uleb128 0x14
 1702 0773 01       		.byte	0x1
 1703 0774 7E070000 		.4byte	0x77e
 1704 0778 15       		.uleb128 0x15
 1705 0779 7E070000 		.4byte	0x77e
 1706 077d 00       		.byte	0
 1707 077e 11       		.uleb128 0x11
 1708 077f 04       		.byte	0x4
 1709 0780 FD060000 		.4byte	0x6fd
 1710 0784 0D       		.uleb128 0xd
 1711 0785 A7010000 		.4byte	.LASF166
 1712 0789 06       		.byte	0x6
 1713 078a 0701     		.2byte	0x107
 1714 078c 7B000000 		.4byte	0x7b
 1715 0790 0D       		.uleb128 0xd
 1716 0791 00000000 		.4byte	.LASF167
 1717 0795 06       		.byte	0x6
 1718 0796 0C01     		.2byte	0x10c
 1719 0798 3E000000 		.4byte	0x3e
 1720 079c 0D       		.uleb128 0xd
 1721 079d 95080000 		.4byte	.LASF168
 1722 07a1 06       		.byte	0x6
 1723 07a2 1101     		.2byte	0x111
 1724 07a4 57000000 		.4byte	0x57
 1725 07a8 0A       		.uleb128 0xa
 1726 07a9 08       		.byte	0x8
 1727 07aa 06       		.byte	0x6
 1728 07ab 1601     		.2byte	0x116
 1729 07ad D0070000 		.4byte	0x7d0
 1730 07b1 0C       		.uleb128 0xc
 1731 07b2 2D070000 		.4byte	.LASF169
 1732 07b6 06       		.byte	0x6
 1733 07b7 1A01     		.2byte	0x11a
 1734 07b9 84070000 		.4byte	0x784
 1735 07bd 02       		.byte	0x2
 1736 07be 23       		.byte	0x23
 1737 07bf 00       		.uleb128 0
 1738 07c0 0C       		.uleb128 0xc
 1739 07c1 F7030000 		.4byte	.LASF170
 1740 07c5 06       		.byte	0x6
 1741 07c6 2001     		.2byte	0x120
 1742 07c8 61070000 		.4byte	0x761
 1743 07cc 02       		.byte	0x2
 1744 07cd 23       		.byte	0x23
 1745 07ce 04       		.uleb128 0x4
 1746 07cf 00       		.byte	0
 1747 07d0 0D       		.uleb128 0xd
 1748 07d1 AB070000 		.4byte	.LASF171
ARM GAS  C:\Users\DNIEL~1\AppData\Local\Temp\cc3kNDIX.s 			page 32


 1749 07d5 06       		.byte	0x6
 1750 07d6 2201     		.2byte	0x122
 1751 07d8 A8070000 		.4byte	0x7a8
 1752 07dc 0A       		.uleb128 0xa
 1753 07dd 30       		.byte	0x30
 1754 07de 06       		.byte	0x6
 1755 07df 2701     		.2byte	0x127
 1756 07e1 31080000 		.4byte	0x831
 1757 07e5 0C       		.uleb128 0xc
 1758 07e6 3B010000 		.4byte	.LASF172
 1759 07ea 06       		.byte	0x6
 1760 07eb 2D01     		.2byte	0x12d
 1761 07ed 7B000000 		.4byte	0x7b
 1762 07f1 02       		.byte	0x2
 1763 07f2 23       		.byte	0x23
 1764 07f3 00       		.uleb128 0
 1765 07f4 0C       		.uleb128 0xc
 1766 07f5 B6000000 		.4byte	.LASF163
 1767 07f9 06       		.byte	0x6
 1768 07fa 3301     		.2byte	0x133
 1769 07fc 9C070000 		.4byte	0x79c
 1770 0800 02       		.byte	0x2
 1771 0801 23       		.byte	0x23
 1772 0802 04       		.uleb128 0x4
 1773 0803 0C       		.uleb128 0xc
 1774 0804 F7030000 		.4byte	.LASF170
 1775 0808 06       		.byte	0x6
 1776 0809 3901     		.2byte	0x139
 1777 080b 61070000 		.4byte	0x761
 1778 080f 02       		.byte	0x2
 1779 0810 23       		.byte	0x23
 1780 0811 08       		.uleb128 0x8
 1781 0812 0C       		.uleb128 0xc
 1782 0813 D8010000 		.4byte	.LASF173
 1783 0817 06       		.byte	0x6
 1784 0818 3D01     		.2byte	0x13d
 1785 081a 31080000 		.4byte	0x831
 1786 081e 02       		.byte	0x2
 1787 081f 23       		.byte	0x23
 1788 0820 0C       		.uleb128 0xc
 1789 0821 0B       		.uleb128 0xb
 1790 0822 63723200 		.ascii	"cr2\000"
 1791 0826 06       		.byte	0x6
 1792 0827 4301     		.2byte	0x143
 1793 0829 57000000 		.4byte	0x57
 1794 082d 02       		.byte	0x2
 1795 082e 23       		.byte	0x23
 1796 082f 2C       		.uleb128 0x2c
 1797 0830 00       		.byte	0
 1798 0831 08       		.uleb128 0x8
 1799 0832 D0070000 		.4byte	0x7d0
 1800 0836 41080000 		.4byte	0x841
 1801 083a 09       		.uleb128 0x9
 1802 083b A0000000 		.4byte	0xa0
 1803 083f 03       		.byte	0x3
 1804 0840 00       		.byte	0
 1805 0841 0D       		.uleb128 0xd
ARM GAS  C:\Users\DNIEL~1\AppData\Local\Temp\cc3kNDIX.s 			page 33


 1806 0842 E4060000 		.4byte	.LASF174
 1807 0846 06       		.byte	0x6
 1808 0847 4B01     		.2byte	0x14b
 1809 0849 DC070000 		.4byte	0x7dc
 1810 084d 11       		.uleb128 0x11
 1811 084e 04       		.byte	0x4
 1812 084f 53080000 		.4byte	0x853
 1813 0853 16       		.uleb128 0x16
 1814 0854 41080000 		.4byte	0x841
 1815 0858 17       		.uleb128 0x17
 1816 0859 3C000000 		.4byte	.LASF196
 1817 085d 01       		.byte	0x1
 1818 085e 68       		.byte	0x68
 1819 085f 01       		.byte	0x1
 1820 0860 00000000 		.4byte	.LFB118
 1821 0864 68000000 		.4byte	.LFE118
 1822 0868 00000000 		.4byte	.LLST0
 1823 086c 01       		.byte	0x1
 1824 086d D9080000 		.4byte	0x8d9
 1825 0871 18       		.uleb128 0x18
 1826 0872 39040000 		.4byte	.LASF179
 1827 0876 01       		.byte	0x1
 1828 0877 68       		.byte	0x68
 1829 0878 7E070000 		.4byte	0x77e
 1830 087c 20000000 		.4byte	.LLST1
 1831 0880 19       		.uleb128 0x19
 1832 0881 737200   		.ascii	"sr\000"
 1833 0884 01       		.byte	0x1
 1834 0885 69       		.byte	0x69
 1835 0886 57000000 		.4byte	0x57
 1836 088a 01       		.byte	0x1
 1837 088b 54       		.byte	0x54
 1838 088c 1A       		.uleb128 0x1a
 1839 088d 40000000 		.4byte	.LVL3
 1840 0891 9C080000 		.4byte	0x89c
 1841 0895 1B       		.uleb128 0x1b
 1842 0896 01       		.byte	0x1
 1843 0897 50       		.byte	0x50
 1844 0898 02       		.byte	0x2
 1845 0899 75       		.byte	0x75
 1846 089a 00       		.sleb128 0
 1847 089b 00       		.byte	0
 1848 089c 1A       		.uleb128 0x1a
 1849 089d 4A000000 		.4byte	.LVL4
 1850 08a1 AC080000 		.4byte	0x8ac
 1851 08a5 1B       		.uleb128 0x1b
 1852 08a6 01       		.byte	0x1
 1853 08a7 50       		.byte	0x50
 1854 08a8 02       		.byte	0x2
 1855 08a9 75       		.byte	0x75
 1856 08aa 00       		.sleb128 0
 1857 08ab 00       		.byte	0
 1858 08ac 1A       		.uleb128 0x1a
 1859 08ad 54000000 		.4byte	.LVL5
 1860 08b1 BC080000 		.4byte	0x8bc
 1861 08b5 1B       		.uleb128 0x1b
 1862 08b6 01       		.byte	0x1
ARM GAS  C:\Users\DNIEL~1\AppData\Local\Temp\cc3kNDIX.s 			page 34


 1863 08b7 50       		.byte	0x50
 1864 08b8 02       		.byte	0x2
 1865 08b9 75       		.byte	0x75
 1866 08ba 00       		.sleb128 0
 1867 08bb 00       		.byte	0
 1868 08bc 1A       		.uleb128 0x1a
 1869 08bd 5E000000 		.4byte	.LVL6
 1870 08c1 CC080000 		.4byte	0x8cc
 1871 08c5 1B       		.uleb128 0x1b
 1872 08c6 01       		.byte	0x1
 1873 08c7 50       		.byte	0x50
 1874 08c8 02       		.byte	0x2
 1875 08c9 75       		.byte	0x75
 1876 08ca 00       		.sleb128 0
 1877 08cb 00       		.byte	0
 1878 08cc 1C       		.uleb128 0x1c
 1879 08cd 66000000 		.4byte	.LVL8
 1880 08d1 1B       		.uleb128 0x1b
 1881 08d2 01       		.byte	0x1
 1882 08d3 50       		.byte	0x50
 1883 08d4 02       		.byte	0x2
 1884 08d5 75       		.byte	0x75
 1885 08d6 00       		.sleb128 0
 1886 08d7 00       		.byte	0
 1887 08d8 00       		.byte	0
 1888 08d9 1D       		.uleb128 0x1d
 1889 08da 01       		.byte	0x1
 1890 08db B4020000 		.4byte	.LASF175
 1891 08df 01       		.byte	0x1
 1892 08e0 E3       		.byte	0xe3
 1893 08e1 01       		.byte	0x1
 1894 08e2 00000000 		.4byte	.LFB119
 1895 08e6 16000000 		.4byte	.LFE119
 1896 08ea 54000000 		.4byte	.LLST2
 1897 08ee 01       		.byte	0x1
 1898 08ef 15090000 		.4byte	0x915
 1899 08f3 1E       		.uleb128 0x1e
 1900 08f4 0E000000 		.4byte	.LVL9
 1901 08f8 58080000 		.4byte	0x858
 1902 08fc 0A090000 		.4byte	0x90a
 1903 0900 1B       		.uleb128 0x1b
 1904 0901 01       		.byte	0x1
 1905 0902 50       		.byte	0x50
 1906 0903 05       		.byte	0x5
 1907 0904 03       		.byte	0x3
 1908 0905 00000000 		.4byte	.LANCHOR0
 1909 0909 00       		.byte	0
 1910 090a 1F       		.uleb128 0x1f
 1911 090b 16000000 		.4byte	.LVL10
 1912 090f 01       		.byte	0x1
 1913 0910 0F0B0000 		.4byte	0xb0f
 1914 0914 00       		.byte	0
 1915 0915 1D       		.uleb128 0x1d
 1916 0916 01       		.byte	0x1
 1917 0917 00040000 		.4byte	.LASF176
 1918 091b 01       		.byte	0x1
 1919 091c F6       		.byte	0xf6
ARM GAS  C:\Users\DNIEL~1\AppData\Local\Temp\cc3kNDIX.s 			page 35


 1920 091d 01       		.byte	0x1
 1921 091e 00000000 		.4byte	.LFB120
 1922 0922 16000000 		.4byte	.LFE120
 1923 0926 74000000 		.4byte	.LLST3
 1924 092a 01       		.byte	0x1
 1925 092b 51090000 		.4byte	0x951
 1926 092f 1E       		.uleb128 0x1e
 1927 0930 0E000000 		.4byte	.LVL11
 1928 0934 58080000 		.4byte	0x858
 1929 0938 46090000 		.4byte	0x946
 1930 093c 1B       		.uleb128 0x1b
 1931 093d 01       		.byte	0x1
 1932 093e 50       		.byte	0x50
 1933 093f 05       		.byte	0x5
 1934 0940 03       		.byte	0x3
 1935 0941 00000000 		.4byte	.LANCHOR1
 1936 0945 00       		.byte	0
 1937 0946 1F       		.uleb128 0x1f
 1938 0947 16000000 		.4byte	.LVL12
 1939 094b 01       		.byte	0x1
 1940 094c 0F0B0000 		.4byte	0xb0f
 1941 0950 00       		.byte	0
 1942 0951 20       		.uleb128 0x20
 1943 0952 01       		.byte	0x1
 1944 0953 16090000 		.4byte	.LASF177
 1945 0957 01       		.byte	0x1
 1946 0958 3F01     		.2byte	0x13f
 1947 095a 01       		.byte	0x1
 1948 095b 00000000 		.4byte	.LFB121
 1949 095f 34000000 		.4byte	.LFE121
 1950 0963 94000000 		.4byte	.LLST4
 1951 0967 01       		.byte	0x1
 1952 0968 91090000 		.4byte	0x991
 1953 096c 1E       		.uleb128 0x1e
 1954 096d 14000000 		.4byte	.LVL13
 1955 0971 1A0B0000 		.4byte	0xb1a
 1956 0975 80090000 		.4byte	0x980
 1957 0979 1B       		.uleb128 0x1b
 1958 097a 01       		.byte	0x1
 1959 097b 50       		.byte	0x50
 1960 097c 02       		.byte	0x2
 1961 097d 75       		.byte	0x75
 1962 097e 00       		.sleb128 0
 1963 097f 00       		.byte	0
 1964 0980 21       		.uleb128 0x21
 1965 0981 28000000 		.4byte	.LVL14
 1966 0985 1A0B0000 		.4byte	0xb1a
 1967 0989 1B       		.uleb128 0x1b
 1968 098a 01       		.byte	0x1
 1969 098b 50       		.byte	0x50
 1970 098c 02       		.byte	0x2
 1971 098d 74       		.byte	0x74
 1972 098e 00       		.sleb128 0
 1973 098f 00       		.byte	0
 1974 0990 00       		.byte	0
 1975 0991 20       		.uleb128 0x20
 1976 0992 01       		.byte	0x1
ARM GAS  C:\Users\DNIEL~1\AppData\Local\Temp\cc3kNDIX.s 			page 36


 1977 0993 F3010000 		.4byte	.LASF178
 1978 0997 01       		.byte	0x1
 1979 0998 6F01     		.2byte	0x16f
 1980 099a 01       		.byte	0x1
 1981 099b 00000000 		.4byte	.LFB122
 1982 099f 38010000 		.4byte	.LFE122
 1983 09a3 B4000000 		.4byte	.LLST5
 1984 09a7 01       		.byte	0x1
 1985 09a8 ED090000 		.4byte	0x9ed
 1986 09ac 22       		.uleb128 0x22
 1987 09ad 39040000 		.4byte	.LASF179
 1988 09b1 01       		.byte	0x1
 1989 09b2 6F01     		.2byte	0x16f
 1990 09b4 7E070000 		.4byte	0x77e
 1991 09b8 D4000000 		.4byte	.LLST6
 1992 09bc 23       		.uleb128 0x23
 1993 09bd 70736300 		.ascii	"psc\000"
 1994 09c1 01       		.byte	0x1
 1995 09c2 7001     		.2byte	0x170
 1996 09c4 7B000000 		.4byte	0x7b
 1997 09c8 16010000 		.4byte	.LLST7
 1998 09cc 24       		.uleb128 0x24
 1999 09cd 20040000 		.4byte	.LASF180
 2000 09d1 01       		.byte	0x1
 2001 09d2 7101     		.2byte	0x171
 2002 09d4 57000000 		.4byte	0x57
 2003 09d8 AB010000 		.4byte	.LLST8
 2004 09dc 21       		.uleb128 0x21
 2005 09dd 0E010000 		.4byte	.LVL44
 2006 09e1 2E0B0000 		.4byte	0xb2e
 2007 09e5 1B       		.uleb128 0x1b
 2008 09e6 01       		.byte	0x1
 2009 09e7 51       		.byte	0x51
 2010 09e8 02       		.byte	0x2
 2011 09e9 08       		.byte	0x8
 2012 09ea 70       		.byte	0x70
 2013 09eb 00       		.byte	0
 2014 09ec 00       		.byte	0
 2015 09ed 20       		.uleb128 0x20
 2016 09ee 01       		.byte	0x1
 2017 09ef A6060000 		.4byte	.LASF181
 2018 09f3 01       		.byte	0x1
 2019 09f4 2E02     		.2byte	0x22e
 2020 09f6 01       		.byte	0x1
 2021 09f7 00000000 		.4byte	.LFB123
 2022 09fb 58000000 		.4byte	.LFE123
 2023 09ff 01020000 		.4byte	.LLST9
 2024 0a03 01       		.byte	0x1
 2025 0a04 3C0A0000 		.4byte	0xa3c
 2026 0a08 22       		.uleb128 0x22
 2027 0a09 39040000 		.4byte	.LASF179
 2028 0a0d 01       		.byte	0x1
 2029 0a0e 2E02     		.2byte	0x22e
 2030 0a10 7E070000 		.4byte	0x77e
 2031 0a14 21020000 		.4byte	.LLST10
 2032 0a18 1E       		.uleb128 0x1e
 2033 0a19 26000000 		.4byte	.LVL49
ARM GAS  C:\Users\DNIEL~1\AppData\Local\Temp\cc3kNDIX.s 			page 37


 2034 0a1d 480B0000 		.4byte	0xb48
 2035 0a21 2C0A0000 		.4byte	0xa2c
 2036 0a25 1B       		.uleb128 0x1b
 2037 0a26 01       		.byte	0x1
 2038 0a27 50       		.byte	0x50
 2039 0a28 02       		.byte	0x2
 2040 0a29 08       		.byte	0x8
 2041 0a2a 32       		.byte	0x32
 2042 0a2b 00       		.byte	0
 2043 0a2c 21       		.uleb128 0x21
 2044 0a2d 3E000000 		.4byte	.LVL52
 2045 0a31 480B0000 		.4byte	0xb48
 2046 0a35 1B       		.uleb128 0x1b
 2047 0a36 01       		.byte	0x1
 2048 0a37 50       		.byte	0x50
 2049 0a38 01       		.byte	0x1
 2050 0a39 4E       		.byte	0x4e
 2051 0a3a 00       		.byte	0
 2052 0a3b 00       		.byte	0
 2053 0a3c 20       		.uleb128 0x20
 2054 0a3d 01       		.byte	0x1
 2055 0a3e 08070000 		.4byte	.LASF182
 2056 0a42 01       		.byte	0x1
 2057 0a43 6E02     		.2byte	0x26e
 2058 0a45 01       		.byte	0x1
 2059 0a46 00000000 		.4byte	.LFB124
 2060 0a4a 36000000 		.4byte	.LFE124
 2061 0a4e 74020000 		.4byte	.LLST11
 2062 0a52 01       		.byte	0x1
 2063 0a53 A20A0000 		.4byte	0xaa2
 2064 0a57 22       		.uleb128 0x22
 2065 0a58 39040000 		.4byte	.LASF179
 2066 0a5c 01       		.byte	0x1
 2067 0a5d 6E02     		.2byte	0x26e
 2068 0a5f 7E070000 		.4byte	0x77e
 2069 0a63 94020000 		.4byte	.LLST12
 2070 0a67 22       		.uleb128 0x22
 2071 0a68 8B060000 		.4byte	.LASF183
 2072 0a6c 01       		.byte	0x1
 2073 0a6d 6F02     		.2byte	0x26f
 2074 0a6f 90070000 		.4byte	0x790
 2075 0a73 B5020000 		.4byte	.LLST13
 2076 0a77 22       		.uleb128 0x22
 2077 0a78 94030000 		.4byte	.LASF184
 2078 0a7c 01       		.byte	0x1
 2079 0a7d 7002     		.2byte	0x270
 2080 0a7f 9C070000 		.4byte	0x79c
 2081 0a83 D6020000 		.4byte	.LLST14
 2082 0a87 25       		.uleb128 0x25
 2083 0a88 18000000 		.4byte	.LBB2
 2084 0a8c 32000000 		.4byte	.LBE2
 2085 0a90 24       		.uleb128 0x24
 2086 0a91 A2090000 		.4byte	.LASF185
 2087 0a95 01       		.byte	0x1
 2088 0a96 7602     		.2byte	0x276
 2089 0a98 7B000000 		.4byte	0x7b
 2090 0a9c F7020000 		.4byte	.LLST15
ARM GAS  C:\Users\DNIEL~1\AppData\Local\Temp\cc3kNDIX.s 			page 38


 2091 0aa0 00       		.byte	0
 2092 0aa1 00       		.byte	0
 2093 0aa2 26       		.uleb128 0x26
 2094 0aa3 01       		.byte	0x1
 2095 0aa4 B9080000 		.4byte	.LASF186
 2096 0aa8 01       		.byte	0x1
 2097 0aa9 8C02     		.2byte	0x28c
 2098 0aab 01       		.byte	0x1
 2099 0aac 00000000 		.4byte	.LFB125
 2100 0ab0 20000000 		.4byte	.LFE125
 2101 0ab4 02       		.byte	0x2
 2102 0ab5 7D       		.byte	0x7d
 2103 0ab6 00       		.sleb128 0
 2104 0ab7 01       		.byte	0x1
 2105 0ab8 DD0A0000 		.4byte	0xadd
 2106 0abc 22       		.uleb128 0x22
 2107 0abd 39040000 		.4byte	.LASF179
 2108 0ac1 01       		.byte	0x1
 2109 0ac2 8C02     		.2byte	0x28c
 2110 0ac4 7E070000 		.4byte	0x77e
 2111 0ac8 10030000 		.4byte	.LLST16
 2112 0acc 22       		.uleb128 0x22
 2113 0acd 8B060000 		.4byte	.LASF183
 2114 0ad1 01       		.byte	0x1
 2115 0ad2 8C02     		.2byte	0x28c
 2116 0ad4 90070000 		.4byte	0x790
 2117 0ad8 31030000 		.4byte	.LLST17
 2118 0adc 00       		.byte	0
 2119 0add 27       		.uleb128 0x27
 2120 0ade 08060000 		.4byte	.LASF187
 2121 0ae2 07       		.byte	0x7
 2122 0ae3 9806     		.2byte	0x698
 2123 0ae5 0E030000 		.4byte	0x30e
 2124 0ae9 01       		.byte	0x1
 2125 0aea 01       		.byte	0x1
 2126 0aeb 28       		.uleb128 0x28
 2127 0aec AE020000 		.4byte	.LASF188
 2128 0af0 01       		.byte	0x1
 2129 0af1 43       		.byte	0x43
 2130 0af2 FD060000 		.4byte	0x6fd
 2131 0af6 01       		.byte	0x1
 2132 0af7 05       		.byte	0x5
 2133 0af8 03       		.byte	0x3
 2134 0af9 00000000 		.4byte	PWMD4
 2135 0afd 28       		.uleb128 0x28
 2136 0afe C3010000 		.4byte	.LASF189
 2137 0b02 01       		.byte	0x1
 2138 0b03 4B       		.byte	0x4b
 2139 0b04 FD060000 		.4byte	0x6fd
 2140 0b08 01       		.byte	0x1
 2141 0b09 05       		.byte	0x5
 2142 0b0a 03       		.byte	0x3
 2143 0b0b 00000000 		.4byte	PWMD5
 2144 0b0f 29       		.uleb128 0x29
 2145 0b10 01       		.byte	0x1
 2146 0b11 5B080000 		.4byte	.LASF197
 2147 0b15 09       		.byte	0x9
ARM GAS  C:\Users\DNIEL~1\AppData\Local\Temp\cc3kNDIX.s 			page 39


 2148 0b16 FC01     		.2byte	0x1fc
 2149 0b18 01       		.byte	0x1
 2150 0b19 01       		.byte	0x1
 2151 0b1a 2A       		.uleb128 0x2a
 2152 0b1b 01       		.byte	0x1
 2153 0b1c 57090000 		.4byte	.LASF190
 2154 0b20 05       		.byte	0x5
 2155 0b21 E0       		.byte	0xe0
 2156 0b22 01       		.byte	0x1
 2157 0b23 01       		.byte	0x1
 2158 0b24 2E0B0000 		.4byte	0xb2e
 2159 0b28 15       		.uleb128 0x15
 2160 0b29 7E070000 		.4byte	0x77e
 2161 0b2d 00       		.byte	0
 2162 0b2e 2B       		.uleb128 0x2b
 2163 0b2f 01       		.byte	0x1
 2164 0b30 59010000 		.4byte	.LASF191
 2165 0b34 08       		.byte	0x8
 2166 0b35 1C01     		.2byte	0x11c
 2167 0b37 01       		.byte	0x1
 2168 0b38 01       		.byte	0x1
 2169 0b39 480B0000 		.4byte	0xb48
 2170 0b3d 15       		.uleb128 0x15
 2171 0b3e 7B000000 		.4byte	0x7b
 2172 0b42 15       		.uleb128 0x15
 2173 0b43 7B000000 		.4byte	0x7b
 2174 0b47 00       		.byte	0
 2175 0b48 2C       		.uleb128 0x2c
 2176 0b49 01       		.byte	0x1
 2177 0b4a EE060000 		.4byte	.LASF198
 2178 0b4e 08       		.byte	0x8
 2179 0b4f 1D01     		.2byte	0x11d
 2180 0b51 01       		.byte	0x1
 2181 0b52 01       		.byte	0x1
 2182 0b53 15       		.uleb128 0x15
 2183 0b54 7B000000 		.4byte	0x7b
 2184 0b58 00       		.byte	0
 2185 0b59 00       		.byte	0
 2186              		.section	.debug_abbrev,"",%progbits
 2187              	.Ldebug_abbrev0:
 2188 0000 01       		.uleb128 0x1
 2189 0001 11       		.uleb128 0x11
 2190 0002 01       		.byte	0x1
 2191 0003 25       		.uleb128 0x25
 2192 0004 0E       		.uleb128 0xe
 2193 0005 13       		.uleb128 0x13
 2194 0006 0B       		.uleb128 0xb
 2195 0007 03       		.uleb128 0x3
 2196 0008 0E       		.uleb128 0xe
 2197 0009 1B       		.uleb128 0x1b
 2198 000a 0E       		.uleb128 0xe
 2199 000b 55       		.uleb128 0x55
 2200 000c 06       		.uleb128 0x6
 2201 000d 11       		.uleb128 0x11
 2202 000e 01       		.uleb128 0x1
 2203 000f 52       		.uleb128 0x52
 2204 0010 01       		.uleb128 0x1
ARM GAS  C:\Users\DNIEL~1\AppData\Local\Temp\cc3kNDIX.s 			page 40


 2205 0011 10       		.uleb128 0x10
 2206 0012 06       		.uleb128 0x6
 2207 0013 00       		.byte	0
 2208 0014 00       		.byte	0
 2209 0015 02       		.uleb128 0x2
 2210 0016 24       		.uleb128 0x24
 2211 0017 00       		.byte	0
 2212 0018 0B       		.uleb128 0xb
 2213 0019 0B       		.uleb128 0xb
 2214 001a 3E       		.uleb128 0x3e
 2215 001b 0B       		.uleb128 0xb
 2216 001c 03       		.uleb128 0x3
 2217 001d 0E       		.uleb128 0xe
 2218 001e 00       		.byte	0
 2219 001f 00       		.byte	0
 2220 0020 03       		.uleb128 0x3
 2221 0021 24       		.uleb128 0x24
 2222 0022 00       		.byte	0
 2223 0023 0B       		.uleb128 0xb
 2224 0024 0B       		.uleb128 0xb
 2225 0025 3E       		.uleb128 0x3e
 2226 0026 0B       		.uleb128 0xb
 2227 0027 03       		.uleb128 0x3
 2228 0028 08       		.uleb128 0x8
 2229 0029 00       		.byte	0
 2230 002a 00       		.byte	0
 2231 002b 04       		.uleb128 0x4
 2232 002c 16       		.uleb128 0x16
 2233 002d 00       		.byte	0
 2234 002e 03       		.uleb128 0x3
 2235 002f 0E       		.uleb128 0xe
 2236 0030 3A       		.uleb128 0x3a
 2237 0031 0B       		.uleb128 0xb
 2238 0032 3B       		.uleb128 0x3b
 2239 0033 0B       		.uleb128 0xb
 2240 0034 49       		.uleb128 0x49
 2241 0035 13       		.uleb128 0x13
 2242 0036 00       		.byte	0
 2243 0037 00       		.byte	0
 2244 0038 05       		.uleb128 0x5
 2245 0039 35       		.uleb128 0x35
 2246 003a 00       		.byte	0
 2247 003b 49       		.uleb128 0x49
 2248 003c 13       		.uleb128 0x13
 2249 003d 00       		.byte	0
 2250 003e 00       		.byte	0
 2251 003f 06       		.uleb128 0x6
 2252 0040 04       		.uleb128 0x4
 2253 0041 01       		.byte	0x1
 2254 0042 03       		.uleb128 0x3
 2255 0043 0E       		.uleb128 0xe
 2256 0044 0B       		.uleb128 0xb
 2257 0045 0B       		.uleb128 0xb
 2258 0046 3A       		.uleb128 0x3a
 2259 0047 0B       		.uleb128 0xb
 2260 0048 3B       		.uleb128 0x3b
 2261 0049 0B       		.uleb128 0xb
ARM GAS  C:\Users\DNIEL~1\AppData\Local\Temp\cc3kNDIX.s 			page 41


 2262 004a 01       		.uleb128 0x1
 2263 004b 13       		.uleb128 0x13
 2264 004c 00       		.byte	0
 2265 004d 00       		.byte	0
 2266 004e 07       		.uleb128 0x7
 2267 004f 28       		.uleb128 0x28
 2268 0050 00       		.byte	0
 2269 0051 03       		.uleb128 0x3
 2270 0052 0E       		.uleb128 0xe
 2271 0053 1C       		.uleb128 0x1c
 2272 0054 0D       		.uleb128 0xd
 2273 0055 00       		.byte	0
 2274 0056 00       		.byte	0
 2275 0057 08       		.uleb128 0x8
 2276 0058 01       		.uleb128 0x1
 2277 0059 01       		.byte	0x1
 2278 005a 49       		.uleb128 0x49
 2279 005b 13       		.uleb128 0x13
 2280 005c 01       		.uleb128 0x1
 2281 005d 13       		.uleb128 0x13
 2282 005e 00       		.byte	0
 2283 005f 00       		.byte	0
 2284 0060 09       		.uleb128 0x9
 2285 0061 21       		.uleb128 0x21
 2286 0062 00       		.byte	0
 2287 0063 49       		.uleb128 0x49
 2288 0064 13       		.uleb128 0x13
 2289 0065 2F       		.uleb128 0x2f
 2290 0066 0B       		.uleb128 0xb
 2291 0067 00       		.byte	0
 2292 0068 00       		.byte	0
 2293 0069 0A       		.uleb128 0xa
 2294 006a 13       		.uleb128 0x13
 2295 006b 01       		.byte	0x1
 2296 006c 0B       		.uleb128 0xb
 2297 006d 0B       		.uleb128 0xb
 2298 006e 3A       		.uleb128 0x3a
 2299 006f 0B       		.uleb128 0xb
 2300 0070 3B       		.uleb128 0x3b
 2301 0071 05       		.uleb128 0x5
 2302 0072 01       		.uleb128 0x1
 2303 0073 13       		.uleb128 0x13
 2304 0074 00       		.byte	0
 2305 0075 00       		.byte	0
 2306 0076 0B       		.uleb128 0xb
 2307 0077 0D       		.uleb128 0xd
 2308 0078 00       		.byte	0
 2309 0079 03       		.uleb128 0x3
 2310 007a 08       		.uleb128 0x8
 2311 007b 3A       		.uleb128 0x3a
 2312 007c 0B       		.uleb128 0xb
 2313 007d 3B       		.uleb128 0x3b
 2314 007e 05       		.uleb128 0x5
 2315 007f 49       		.uleb128 0x49
 2316 0080 13       		.uleb128 0x13
 2317 0081 38       		.uleb128 0x38
 2318 0082 0A       		.uleb128 0xa
ARM GAS  C:\Users\DNIEL~1\AppData\Local\Temp\cc3kNDIX.s 			page 42


 2319 0083 00       		.byte	0
 2320 0084 00       		.byte	0
 2321 0085 0C       		.uleb128 0xc
 2322 0086 0D       		.uleb128 0xd
 2323 0087 00       		.byte	0
 2324 0088 03       		.uleb128 0x3
 2325 0089 0E       		.uleb128 0xe
 2326 008a 3A       		.uleb128 0x3a
 2327 008b 0B       		.uleb128 0xb
 2328 008c 3B       		.uleb128 0x3b
 2329 008d 05       		.uleb128 0x5
 2330 008e 49       		.uleb128 0x49
 2331 008f 13       		.uleb128 0x13
 2332 0090 38       		.uleb128 0x38
 2333 0091 0A       		.uleb128 0xa
 2334 0092 00       		.byte	0
 2335 0093 00       		.byte	0
 2336 0094 0D       		.uleb128 0xd
 2337 0095 16       		.uleb128 0x16
 2338 0096 00       		.byte	0
 2339 0097 03       		.uleb128 0x3
 2340 0098 0E       		.uleb128 0xe
 2341 0099 3A       		.uleb128 0x3a
 2342 009a 0B       		.uleb128 0xb
 2343 009b 3B       		.uleb128 0x3b
 2344 009c 05       		.uleb128 0x5
 2345 009d 49       		.uleb128 0x49
 2346 009e 13       		.uleb128 0x13
 2347 009f 00       		.byte	0
 2348 00a0 00       		.byte	0
 2349 00a1 0E       		.uleb128 0xe
 2350 00a2 13       		.uleb128 0x13
 2351 00a3 01       		.byte	0x1
 2352 00a4 0B       		.uleb128 0xb
 2353 00a5 0B       		.uleb128 0xb
 2354 00a6 3A       		.uleb128 0x3a
 2355 00a7 0B       		.uleb128 0xb
 2356 00a8 3B       		.uleb128 0x3b
 2357 00a9 0B       		.uleb128 0xb
 2358 00aa 01       		.uleb128 0x1
 2359 00ab 13       		.uleb128 0x13
 2360 00ac 00       		.byte	0
 2361 00ad 00       		.byte	0
 2362 00ae 0F       		.uleb128 0xf
 2363 00af 0D       		.uleb128 0xd
 2364 00b0 00       		.byte	0
 2365 00b1 03       		.uleb128 0x3
 2366 00b2 08       		.uleb128 0x8
 2367 00b3 3A       		.uleb128 0x3a
 2368 00b4 0B       		.uleb128 0xb
 2369 00b5 3B       		.uleb128 0x3b
 2370 00b6 0B       		.uleb128 0xb
 2371 00b7 49       		.uleb128 0x49
 2372 00b8 13       		.uleb128 0x13
 2373 00b9 38       		.uleb128 0x38
 2374 00ba 0A       		.uleb128 0xa
 2375 00bb 00       		.byte	0
ARM GAS  C:\Users\DNIEL~1\AppData\Local\Temp\cc3kNDIX.s 			page 43


 2376 00bc 00       		.byte	0
 2377 00bd 10       		.uleb128 0x10
 2378 00be 0D       		.uleb128 0xd
 2379 00bf 00       		.byte	0
 2380 00c0 03       		.uleb128 0x3
 2381 00c1 0E       		.uleb128 0xe
 2382 00c2 3A       		.uleb128 0x3a
 2383 00c3 0B       		.uleb128 0xb
 2384 00c4 3B       		.uleb128 0x3b
 2385 00c5 0B       		.uleb128 0xb
 2386 00c6 49       		.uleb128 0x49
 2387 00c7 13       		.uleb128 0x13
 2388 00c8 38       		.uleb128 0x38
 2389 00c9 0A       		.uleb128 0xa
 2390 00ca 00       		.byte	0
 2391 00cb 00       		.byte	0
 2392 00cc 11       		.uleb128 0x11
 2393 00cd 0F       		.uleb128 0xf
 2394 00ce 00       		.byte	0
 2395 00cf 0B       		.uleb128 0xb
 2396 00d0 0B       		.uleb128 0xb
 2397 00d1 49       		.uleb128 0x49
 2398 00d2 13       		.uleb128 0x13
 2399 00d3 00       		.byte	0
 2400 00d4 00       		.byte	0
 2401 00d5 12       		.uleb128 0x12
 2402 00d6 04       		.uleb128 0x4
 2403 00d7 01       		.byte	0x1
 2404 00d8 0B       		.uleb128 0xb
 2405 00d9 0B       		.uleb128 0xb
 2406 00da 3A       		.uleb128 0x3a
 2407 00db 0B       		.uleb128 0xb
 2408 00dc 3B       		.uleb128 0x3b
 2409 00dd 0B       		.uleb128 0xb
 2410 00de 01       		.uleb128 0x1
 2411 00df 13       		.uleb128 0x13
 2412 00e0 00       		.byte	0
 2413 00e1 00       		.byte	0
 2414 00e2 13       		.uleb128 0x13
 2415 00e3 13       		.uleb128 0x13
 2416 00e4 01       		.byte	0x1
 2417 00e5 03       		.uleb128 0x3
 2418 00e6 0E       		.uleb128 0xe
 2419 00e7 0B       		.uleb128 0xb
 2420 00e8 0B       		.uleb128 0xb
 2421 00e9 3A       		.uleb128 0x3a
 2422 00ea 0B       		.uleb128 0xb
 2423 00eb 3B       		.uleb128 0x3b
 2424 00ec 05       		.uleb128 0x5
 2425 00ed 01       		.uleb128 0x1
 2426 00ee 13       		.uleb128 0x13
 2427 00ef 00       		.byte	0
 2428 00f0 00       		.byte	0
 2429 00f1 14       		.uleb128 0x14
 2430 00f2 15       		.uleb128 0x15
 2431 00f3 01       		.byte	0x1
 2432 00f4 27       		.uleb128 0x27
ARM GAS  C:\Users\DNIEL~1\AppData\Local\Temp\cc3kNDIX.s 			page 44


 2433 00f5 0C       		.uleb128 0xc
 2434 00f6 01       		.uleb128 0x1
 2435 00f7 13       		.uleb128 0x13
 2436 00f8 00       		.byte	0
 2437 00f9 00       		.byte	0
 2438 00fa 15       		.uleb128 0x15
 2439 00fb 05       		.uleb128 0x5
 2440 00fc 00       		.byte	0
 2441 00fd 49       		.uleb128 0x49
 2442 00fe 13       		.uleb128 0x13
 2443 00ff 00       		.byte	0
 2444 0100 00       		.byte	0
 2445 0101 16       		.uleb128 0x16
 2446 0102 26       		.uleb128 0x26
 2447 0103 00       		.byte	0
 2448 0104 49       		.uleb128 0x49
 2449 0105 13       		.uleb128 0x13
 2450 0106 00       		.byte	0
 2451 0107 00       		.byte	0
 2452 0108 17       		.uleb128 0x17
 2453 0109 2E       		.uleb128 0x2e
 2454 010a 01       		.byte	0x1
 2455 010b 03       		.uleb128 0x3
 2456 010c 0E       		.uleb128 0xe
 2457 010d 3A       		.uleb128 0x3a
 2458 010e 0B       		.uleb128 0xb
 2459 010f 3B       		.uleb128 0x3b
 2460 0110 0B       		.uleb128 0xb
 2461 0111 27       		.uleb128 0x27
 2462 0112 0C       		.uleb128 0xc
 2463 0113 11       		.uleb128 0x11
 2464 0114 01       		.uleb128 0x1
 2465 0115 12       		.uleb128 0x12
 2466 0116 01       		.uleb128 0x1
 2467 0117 40       		.uleb128 0x40
 2468 0118 06       		.uleb128 0x6
 2469 0119 9742     		.uleb128 0x2117
 2470 011b 0C       		.uleb128 0xc
 2471 011c 01       		.uleb128 0x1
 2472 011d 13       		.uleb128 0x13
 2473 011e 00       		.byte	0
 2474 011f 00       		.byte	0
 2475 0120 18       		.uleb128 0x18
 2476 0121 05       		.uleb128 0x5
 2477 0122 00       		.byte	0
 2478 0123 03       		.uleb128 0x3
 2479 0124 0E       		.uleb128 0xe
 2480 0125 3A       		.uleb128 0x3a
 2481 0126 0B       		.uleb128 0xb
 2482 0127 3B       		.uleb128 0x3b
 2483 0128 0B       		.uleb128 0xb
 2484 0129 49       		.uleb128 0x49
 2485 012a 13       		.uleb128 0x13
 2486 012b 02       		.uleb128 0x2
 2487 012c 06       		.uleb128 0x6
 2488 012d 00       		.byte	0
 2489 012e 00       		.byte	0
ARM GAS  C:\Users\DNIEL~1\AppData\Local\Temp\cc3kNDIX.s 			page 45


 2490 012f 19       		.uleb128 0x19
 2491 0130 34       		.uleb128 0x34
 2492 0131 00       		.byte	0
 2493 0132 03       		.uleb128 0x3
 2494 0133 08       		.uleb128 0x8
 2495 0134 3A       		.uleb128 0x3a
 2496 0135 0B       		.uleb128 0xb
 2497 0136 3B       		.uleb128 0x3b
 2498 0137 0B       		.uleb128 0xb
 2499 0138 49       		.uleb128 0x49
 2500 0139 13       		.uleb128 0x13
 2501 013a 02       		.uleb128 0x2
 2502 013b 0A       		.uleb128 0xa
 2503 013c 00       		.byte	0
 2504 013d 00       		.byte	0
 2505 013e 1A       		.uleb128 0x1a
 2506 013f 898201   		.uleb128 0x4109
 2507 0142 01       		.byte	0x1
 2508 0143 11       		.uleb128 0x11
 2509 0144 01       		.uleb128 0x1
 2510 0145 01       		.uleb128 0x1
 2511 0146 13       		.uleb128 0x13
 2512 0147 00       		.byte	0
 2513 0148 00       		.byte	0
 2514 0149 1B       		.uleb128 0x1b
 2515 014a 8A8201   		.uleb128 0x410a
 2516 014d 00       		.byte	0
 2517 014e 02       		.uleb128 0x2
 2518 014f 0A       		.uleb128 0xa
 2519 0150 9142     		.uleb128 0x2111
 2520 0152 0A       		.uleb128 0xa
 2521 0153 00       		.byte	0
 2522 0154 00       		.byte	0
 2523 0155 1C       		.uleb128 0x1c
 2524 0156 898201   		.uleb128 0x4109
 2525 0159 01       		.byte	0x1
 2526 015a 11       		.uleb128 0x11
 2527 015b 01       		.uleb128 0x1
 2528 015c 00       		.byte	0
 2529 015d 00       		.byte	0
 2530 015e 1D       		.uleb128 0x1d
 2531 015f 2E       		.uleb128 0x2e
 2532 0160 01       		.byte	0x1
 2533 0161 3F       		.uleb128 0x3f
 2534 0162 0C       		.uleb128 0xc
 2535 0163 03       		.uleb128 0x3
 2536 0164 0E       		.uleb128 0xe
 2537 0165 3A       		.uleb128 0x3a
 2538 0166 0B       		.uleb128 0xb
 2539 0167 3B       		.uleb128 0x3b
 2540 0168 0B       		.uleb128 0xb
 2541 0169 27       		.uleb128 0x27
 2542 016a 0C       		.uleb128 0xc
 2543 016b 11       		.uleb128 0x11
 2544 016c 01       		.uleb128 0x1
 2545 016d 12       		.uleb128 0x12
 2546 016e 01       		.uleb128 0x1
ARM GAS  C:\Users\DNIEL~1\AppData\Local\Temp\cc3kNDIX.s 			page 46


 2547 016f 40       		.uleb128 0x40
 2548 0170 06       		.uleb128 0x6
 2549 0171 9742     		.uleb128 0x2117
 2550 0173 0C       		.uleb128 0xc
 2551 0174 01       		.uleb128 0x1
 2552 0175 13       		.uleb128 0x13
 2553 0176 00       		.byte	0
 2554 0177 00       		.byte	0
 2555 0178 1E       		.uleb128 0x1e
 2556 0179 898201   		.uleb128 0x4109
 2557 017c 01       		.byte	0x1
 2558 017d 11       		.uleb128 0x11
 2559 017e 01       		.uleb128 0x1
 2560 017f 31       		.uleb128 0x31
 2561 0180 13       		.uleb128 0x13
 2562 0181 01       		.uleb128 0x1
 2563 0182 13       		.uleb128 0x13
 2564 0183 00       		.byte	0
 2565 0184 00       		.byte	0
 2566 0185 1F       		.uleb128 0x1f
 2567 0186 898201   		.uleb128 0x4109
 2568 0189 00       		.byte	0
 2569 018a 11       		.uleb128 0x11
 2570 018b 01       		.uleb128 0x1
 2571 018c 9542     		.uleb128 0x2115
 2572 018e 0C       		.uleb128 0xc
 2573 018f 31       		.uleb128 0x31
 2574 0190 13       		.uleb128 0x13
 2575 0191 00       		.byte	0
 2576 0192 00       		.byte	0
 2577 0193 20       		.uleb128 0x20
 2578 0194 2E       		.uleb128 0x2e
 2579 0195 01       		.byte	0x1
 2580 0196 3F       		.uleb128 0x3f
 2581 0197 0C       		.uleb128 0xc
 2582 0198 03       		.uleb128 0x3
 2583 0199 0E       		.uleb128 0xe
 2584 019a 3A       		.uleb128 0x3a
 2585 019b 0B       		.uleb128 0xb
 2586 019c 3B       		.uleb128 0x3b
 2587 019d 05       		.uleb128 0x5
 2588 019e 27       		.uleb128 0x27
 2589 019f 0C       		.uleb128 0xc
 2590 01a0 11       		.uleb128 0x11
 2591 01a1 01       		.uleb128 0x1
 2592 01a2 12       		.uleb128 0x12
 2593 01a3 01       		.uleb128 0x1
 2594 01a4 40       		.uleb128 0x40
 2595 01a5 06       		.uleb128 0x6
 2596 01a6 9742     		.uleb128 0x2117
 2597 01a8 0C       		.uleb128 0xc
 2598 01a9 01       		.uleb128 0x1
 2599 01aa 13       		.uleb128 0x13
 2600 01ab 00       		.byte	0
 2601 01ac 00       		.byte	0
 2602 01ad 21       		.uleb128 0x21
 2603 01ae 898201   		.uleb128 0x4109
ARM GAS  C:\Users\DNIEL~1\AppData\Local\Temp\cc3kNDIX.s 			page 47


 2604 01b1 01       		.byte	0x1
 2605 01b2 11       		.uleb128 0x11
 2606 01b3 01       		.uleb128 0x1
 2607 01b4 31       		.uleb128 0x31
 2608 01b5 13       		.uleb128 0x13
 2609 01b6 00       		.byte	0
 2610 01b7 00       		.byte	0
 2611 01b8 22       		.uleb128 0x22
 2612 01b9 05       		.uleb128 0x5
 2613 01ba 00       		.byte	0
 2614 01bb 03       		.uleb128 0x3
 2615 01bc 0E       		.uleb128 0xe
 2616 01bd 3A       		.uleb128 0x3a
 2617 01be 0B       		.uleb128 0xb
 2618 01bf 3B       		.uleb128 0x3b
 2619 01c0 05       		.uleb128 0x5
 2620 01c1 49       		.uleb128 0x49
 2621 01c2 13       		.uleb128 0x13
 2622 01c3 02       		.uleb128 0x2
 2623 01c4 06       		.uleb128 0x6
 2624 01c5 00       		.byte	0
 2625 01c6 00       		.byte	0
 2626 01c7 23       		.uleb128 0x23
 2627 01c8 34       		.uleb128 0x34
 2628 01c9 00       		.byte	0
 2629 01ca 03       		.uleb128 0x3
 2630 01cb 08       		.uleb128 0x8
 2631 01cc 3A       		.uleb128 0x3a
 2632 01cd 0B       		.uleb128 0xb
 2633 01ce 3B       		.uleb128 0x3b
 2634 01cf 05       		.uleb128 0x5
 2635 01d0 49       		.uleb128 0x49
 2636 01d1 13       		.uleb128 0x13
 2637 01d2 02       		.uleb128 0x2
 2638 01d3 06       		.uleb128 0x6
 2639 01d4 00       		.byte	0
 2640 01d5 00       		.byte	0
 2641 01d6 24       		.uleb128 0x24
 2642 01d7 34       		.uleb128 0x34
 2643 01d8 00       		.byte	0
 2644 01d9 03       		.uleb128 0x3
 2645 01da 0E       		.uleb128 0xe
 2646 01db 3A       		.uleb128 0x3a
 2647 01dc 0B       		.uleb128 0xb
 2648 01dd 3B       		.uleb128 0x3b
 2649 01de 05       		.uleb128 0x5
 2650 01df 49       		.uleb128 0x49
 2651 01e0 13       		.uleb128 0x13
 2652 01e1 02       		.uleb128 0x2
 2653 01e2 06       		.uleb128 0x6
 2654 01e3 00       		.byte	0
 2655 01e4 00       		.byte	0
 2656 01e5 25       		.uleb128 0x25
 2657 01e6 0B       		.uleb128 0xb
 2658 01e7 01       		.byte	0x1
 2659 01e8 11       		.uleb128 0x11
 2660 01e9 01       		.uleb128 0x1
ARM GAS  C:\Users\DNIEL~1\AppData\Local\Temp\cc3kNDIX.s 			page 48


 2661 01ea 12       		.uleb128 0x12
 2662 01eb 01       		.uleb128 0x1
 2663 01ec 00       		.byte	0
 2664 01ed 00       		.byte	0
 2665 01ee 26       		.uleb128 0x26
 2666 01ef 2E       		.uleb128 0x2e
 2667 01f0 01       		.byte	0x1
 2668 01f1 3F       		.uleb128 0x3f
 2669 01f2 0C       		.uleb128 0xc
 2670 01f3 03       		.uleb128 0x3
 2671 01f4 0E       		.uleb128 0xe
 2672 01f5 3A       		.uleb128 0x3a
 2673 01f6 0B       		.uleb128 0xb
 2674 01f7 3B       		.uleb128 0x3b
 2675 01f8 05       		.uleb128 0x5
 2676 01f9 27       		.uleb128 0x27
 2677 01fa 0C       		.uleb128 0xc
 2678 01fb 11       		.uleb128 0x11
 2679 01fc 01       		.uleb128 0x1
 2680 01fd 12       		.uleb128 0x12
 2681 01fe 01       		.uleb128 0x1
 2682 01ff 40       		.uleb128 0x40
 2683 0200 0A       		.uleb128 0xa
 2684 0201 9742     		.uleb128 0x2117
 2685 0203 0C       		.uleb128 0xc
 2686 0204 01       		.uleb128 0x1
 2687 0205 13       		.uleb128 0x13
 2688 0206 00       		.byte	0
 2689 0207 00       		.byte	0
 2690 0208 27       		.uleb128 0x27
 2691 0209 34       		.uleb128 0x34
 2692 020a 00       		.byte	0
 2693 020b 03       		.uleb128 0x3
 2694 020c 0E       		.uleb128 0xe
 2695 020d 3A       		.uleb128 0x3a
 2696 020e 0B       		.uleb128 0xb
 2697 020f 3B       		.uleb128 0x3b
 2698 0210 05       		.uleb128 0x5
 2699 0211 49       		.uleb128 0x49
 2700 0212 13       		.uleb128 0x13
 2701 0213 3F       		.uleb128 0x3f
 2702 0214 0C       		.uleb128 0xc
 2703 0215 3C       		.uleb128 0x3c
 2704 0216 0C       		.uleb128 0xc
 2705 0217 00       		.byte	0
 2706 0218 00       		.byte	0
 2707 0219 28       		.uleb128 0x28
 2708 021a 34       		.uleb128 0x34
 2709 021b 00       		.byte	0
 2710 021c 03       		.uleb128 0x3
 2711 021d 0E       		.uleb128 0xe
 2712 021e 3A       		.uleb128 0x3a
 2713 021f 0B       		.uleb128 0xb
 2714 0220 3B       		.uleb128 0x3b
 2715 0221 0B       		.uleb128 0xb
 2716 0222 49       		.uleb128 0x49
 2717 0223 13       		.uleb128 0x13
ARM GAS  C:\Users\DNIEL~1\AppData\Local\Temp\cc3kNDIX.s 			page 49


 2718 0224 3F       		.uleb128 0x3f
 2719 0225 0C       		.uleb128 0xc
 2720 0226 02       		.uleb128 0x2
 2721 0227 0A       		.uleb128 0xa
 2722 0228 00       		.byte	0
 2723 0229 00       		.byte	0
 2724 022a 29       		.uleb128 0x29
 2725 022b 2E       		.uleb128 0x2e
 2726 022c 00       		.byte	0
 2727 022d 3F       		.uleb128 0x3f
 2728 022e 0C       		.uleb128 0xc
 2729 022f 03       		.uleb128 0x3
 2730 0230 0E       		.uleb128 0xe
 2731 0231 3A       		.uleb128 0x3a
 2732 0232 0B       		.uleb128 0xb
 2733 0233 3B       		.uleb128 0x3b
 2734 0234 05       		.uleb128 0x5
 2735 0235 27       		.uleb128 0x27
 2736 0236 0C       		.uleb128 0xc
 2737 0237 3C       		.uleb128 0x3c
 2738 0238 0C       		.uleb128 0xc
 2739 0239 00       		.byte	0
 2740 023a 00       		.byte	0
 2741 023b 2A       		.uleb128 0x2a
 2742 023c 2E       		.uleb128 0x2e
 2743 023d 01       		.byte	0x1
 2744 023e 3F       		.uleb128 0x3f
 2745 023f 0C       		.uleb128 0xc
 2746 0240 03       		.uleb128 0x3
 2747 0241 0E       		.uleb128 0xe
 2748 0242 3A       		.uleb128 0x3a
 2749 0243 0B       		.uleb128 0xb
 2750 0244 3B       		.uleb128 0x3b
 2751 0245 0B       		.uleb128 0xb
 2752 0246 27       		.uleb128 0x27
 2753 0247 0C       		.uleb128 0xc
 2754 0248 3C       		.uleb128 0x3c
 2755 0249 0C       		.uleb128 0xc
 2756 024a 01       		.uleb128 0x1
 2757 024b 13       		.uleb128 0x13
 2758 024c 00       		.byte	0
 2759 024d 00       		.byte	0
 2760 024e 2B       		.uleb128 0x2b
 2761 024f 2E       		.uleb128 0x2e
 2762 0250 01       		.byte	0x1
 2763 0251 3F       		.uleb128 0x3f
 2764 0252 0C       		.uleb128 0xc
 2765 0253 03       		.uleb128 0x3
 2766 0254 0E       		.uleb128 0xe
 2767 0255 3A       		.uleb128 0x3a
 2768 0256 0B       		.uleb128 0xb
 2769 0257 3B       		.uleb128 0x3b
 2770 0258 05       		.uleb128 0x5
 2771 0259 27       		.uleb128 0x27
 2772 025a 0C       		.uleb128 0xc
 2773 025b 3C       		.uleb128 0x3c
 2774 025c 0C       		.uleb128 0xc
ARM GAS  C:\Users\DNIEL~1\AppData\Local\Temp\cc3kNDIX.s 			page 50


 2775 025d 01       		.uleb128 0x1
 2776 025e 13       		.uleb128 0x13
 2777 025f 00       		.byte	0
 2778 0260 00       		.byte	0
 2779 0261 2C       		.uleb128 0x2c
 2780 0262 2E       		.uleb128 0x2e
 2781 0263 01       		.byte	0x1
 2782 0264 3F       		.uleb128 0x3f
 2783 0265 0C       		.uleb128 0xc
 2784 0266 03       		.uleb128 0x3
 2785 0267 0E       		.uleb128 0xe
 2786 0268 3A       		.uleb128 0x3a
 2787 0269 0B       		.uleb128 0xb
 2788 026a 3B       		.uleb128 0x3b
 2789 026b 05       		.uleb128 0x5
 2790 026c 27       		.uleb128 0x27
 2791 026d 0C       		.uleb128 0xc
 2792 026e 3C       		.uleb128 0x3c
 2793 026f 0C       		.uleb128 0xc
 2794 0270 00       		.byte	0
 2795 0271 00       		.byte	0
 2796 0272 00       		.byte	0
 2797              		.section	.debug_loc,"",%progbits
 2798              	.Ldebug_loc0:
 2799              	.LLST0:
 2800 0000 00000000 		.4byte	.LFB118
 2801 0004 02000000 		.4byte	.LCFI0
 2802 0008 0200     		.2byte	0x2
 2803 000a 7D       		.byte	0x7d
 2804 000b 00       		.sleb128 0
 2805 000c 02000000 		.4byte	.LCFI0
 2806 0010 68000000 		.4byte	.LFE118
 2807 0014 0200     		.2byte	0x2
 2808 0016 7D       		.byte	0x7d
 2809 0017 10       		.sleb128 16
 2810 0018 00000000 		.4byte	0
 2811 001c 00000000 		.4byte	0
 2812              	.LLST1:
 2813 0020 00000000 		.4byte	.LVL0
 2814 0024 1C000000 		.4byte	.LVL2
 2815 0028 0100     		.2byte	0x1
 2816 002a 50       		.byte	0x50
 2817 002b 1C000000 		.4byte	.LVL2
 2818 002f 60000000 		.4byte	.LVL7
 2819 0033 0100     		.2byte	0x1
 2820 0035 55       		.byte	0x55
 2821 0036 60000000 		.4byte	.LVL7
 2822 003a 65000000 		.4byte	.LVL8-1
 2823 003e 0100     		.2byte	0x1
 2824 0040 50       		.byte	0x50
 2825 0041 65000000 		.4byte	.LVL8-1
 2826 0045 68000000 		.4byte	.LFE118
 2827 0049 0100     		.2byte	0x1
 2828 004b 55       		.byte	0x55
 2829 004c 00000000 		.4byte	0
 2830 0050 00000000 		.4byte	0
 2831              	.LLST2:
ARM GAS  C:\Users\DNIEL~1\AppData\Local\Temp\cc3kNDIX.s 			page 51


 2832 0054 00000000 		.4byte	.LFB119
 2833 0058 02000000 		.4byte	.LCFI1
 2834 005c 0200     		.2byte	0x2
 2835 005e 7D       		.byte	0x7d
 2836 005f 00       		.sleb128 0
 2837 0060 02000000 		.4byte	.LCFI1
 2838 0064 16000000 		.4byte	.LFE119
 2839 0068 0200     		.2byte	0x2
 2840 006a 7D       		.byte	0x7d
 2841 006b 08       		.sleb128 8
 2842 006c 00000000 		.4byte	0
 2843 0070 00000000 		.4byte	0
 2844              	.LLST3:
 2845 0074 00000000 		.4byte	.LFB120
 2846 0078 02000000 		.4byte	.LCFI2
 2847 007c 0200     		.2byte	0x2
 2848 007e 7D       		.byte	0x7d
 2849 007f 00       		.sleb128 0
 2850 0080 02000000 		.4byte	.LCFI2
 2851 0084 16000000 		.4byte	.LFE120
 2852 0088 0200     		.2byte	0x2
 2853 008a 7D       		.byte	0x7d
 2854 008b 08       		.sleb128 8
 2855 008c 00000000 		.4byte	0
 2856 0090 00000000 		.4byte	0
 2857              	.LLST4:
 2858 0094 00000000 		.4byte	.LFB121
 2859 0098 02000000 		.4byte	.LCFI3
 2860 009c 0200     		.2byte	0x2
 2861 009e 7D       		.byte	0x7d
 2862 009f 00       		.sleb128 0
 2863 00a0 02000000 		.4byte	.LCFI3
 2864 00a4 34000000 		.4byte	.LFE121
 2865 00a8 0200     		.2byte	0x2
 2866 00aa 7D       		.byte	0x7d
 2867 00ab 10       		.sleb128 16
 2868 00ac 00000000 		.4byte	0
 2869 00b0 00000000 		.4byte	0
 2870              	.LLST5:
 2871 00b4 00000000 		.4byte	.LFB122
 2872 00b8 06000000 		.4byte	.LCFI4
 2873 00bc 0200     		.2byte	0x2
 2874 00be 7D       		.byte	0x7d
 2875 00bf 00       		.sleb128 0
 2876 00c0 06000000 		.4byte	.LCFI4
 2877 00c4 38010000 		.4byte	.LFE122
 2878 00c8 0200     		.2byte	0x2
 2879 00ca 7D       		.byte	0x7d
 2880 00cb 10       		.sleb128 16
 2881 00cc 00000000 		.4byte	0
 2882 00d0 00000000 		.4byte	0
 2883              	.LLST6:
 2884 00d4 00000000 		.4byte	.LVL15
 2885 00d8 1E000000 		.4byte	.LVL16
 2886 00dc 0100     		.2byte	0x1
 2887 00de 50       		.byte	0x50
 2888 00df 1E000000 		.4byte	.LVL16
ARM GAS  C:\Users\DNIEL~1\AppData\Local\Temp\cc3kNDIX.s 			page 52


 2889 00e3 2A000000 		.4byte	.LVL18
 2890 00e7 0100     		.2byte	0x1
 2891 00e9 54       		.byte	0x54
 2892 00ea 2A000000 		.4byte	.LVL18
 2893 00ee CA000000 		.4byte	.LVL42
 2894 00f2 0400     		.2byte	0x4
 2895 00f4 F3       		.byte	0xf3
 2896 00f5 01       		.uleb128 0x1
 2897 00f6 50       		.byte	0x50
 2898 00f7 9F       		.byte	0x9f
 2899 00f8 CA000000 		.4byte	.LVL42
 2900 00fc CC000000 		.4byte	.LVL43
 2901 0100 0100     		.2byte	0x1
 2902 0102 50       		.byte	0x50
 2903 0103 CC000000 		.4byte	.LVL43
 2904 0107 38010000 		.4byte	.LFE122
 2905 010b 0100     		.2byte	0x1
 2906 010d 54       		.byte	0x54
 2907 010e 00000000 		.4byte	0
 2908 0112 00000000 		.4byte	0
 2909              	.LLST7:
 2910 0116 20000000 		.4byte	.LVL17
 2911 011a 2A000000 		.4byte	.LVL18
 2912 011e 1000     		.2byte	0x10
 2913 0120 74       		.byte	0x74
 2914 0121 0C       		.sleb128 12
 2915 0122 06       		.byte	0x6
 2916 0123 F7       		.byte	0xf7
 2917 0124 29       		.uleb128 0x29
 2918 0125 71       		.byte	0x71
 2919 0126 00       		.sleb128 0
 2920 0127 06       		.byte	0x6
 2921 0128 F7       		.byte	0xf7
 2922 0129 29       		.uleb128 0x29
 2923 012a 1B       		.byte	0x1b
 2924 012b F7       		.byte	0xf7
 2925 012c 00       		.uleb128 0
 2926 012d 31       		.byte	0x31
 2927 012e 1C       		.byte	0x1c
 2928 012f 9F       		.byte	0x9f
 2929 0130 2A000000 		.4byte	.LVL18
 2930 0134 30000000 		.4byte	.LVL19
 2931 0138 0F00     		.2byte	0xf
 2932 013a 76       		.byte	0x76
 2933 013b 00       		.sleb128 0
 2934 013c F7       		.byte	0xf7
 2935 013d 29       		.uleb128 0x29
 2936 013e 71       		.byte	0x71
 2937 013f 00       		.sleb128 0
 2938 0140 06       		.byte	0x6
 2939 0141 F7       		.byte	0xf7
 2940 0142 29       		.uleb128 0x29
 2941 0143 1B       		.byte	0x1b
 2942 0144 F7       		.byte	0xf7
 2943 0145 00       		.uleb128 0
 2944 0146 31       		.byte	0x31
 2945 0147 1C       		.byte	0x1c
ARM GAS  C:\Users\DNIEL~1\AppData\Local\Temp\cc3kNDIX.s 			page 53


 2946 0148 9F       		.byte	0x9f
 2947 0149 30000000 		.4byte	.LVL19
 2948 014d 38000000 		.4byte	.LVL20
 2949 0151 0100     		.2byte	0x1
 2950 0153 50       		.byte	0x50
 2951 0154 38000000 		.4byte	.LVL20
 2952 0158 78000000 		.4byte	.LVL27
 2953 015c 0F00     		.2byte	0xf
 2954 015e 76       		.byte	0x76
 2955 015f 00       		.sleb128 0
 2956 0160 F7       		.byte	0xf7
 2957 0161 29       		.uleb128 0x29
 2958 0162 71       		.byte	0x71
 2959 0163 00       		.sleb128 0
 2960 0164 06       		.byte	0x6
 2961 0165 F7       		.byte	0xf7
 2962 0166 29       		.uleb128 0x29
 2963 0167 1B       		.byte	0x1b
 2964 0168 F7       		.byte	0xf7
 2965 0169 00       		.uleb128 0
 2966 016a 31       		.byte	0x31
 2967 016b 1C       		.byte	0x1c
 2968 016c 9F       		.byte	0x9f
 2969 016d 78000000 		.4byte	.LVL27
 2970 0171 90000000 		.4byte	.LVL29
 2971 0175 1300     		.2byte	0x13
 2972 0177 76       		.byte	0x76
 2973 0178 00       		.sleb128 0
 2974 0179 F7       		.byte	0xf7
 2975 017a 29       		.uleb128 0x29
 2976 017b F3       		.byte	0xf3
 2977 017c 01       		.uleb128 0x1
 2978 017d 50       		.byte	0x50
 2979 017e 23       		.byte	0x23
 2980 017f 04       		.uleb128 0x4
 2981 0180 06       		.byte	0x6
 2982 0181 06       		.byte	0x6
 2983 0182 F7       		.byte	0xf7
 2984 0183 29       		.uleb128 0x29
 2985 0184 1B       		.byte	0x1b
 2986 0185 F7       		.byte	0xf7
 2987 0186 00       		.uleb128 0
 2988 0187 31       		.byte	0x31
 2989 0188 1C       		.byte	0x1c
 2990 0189 9F       		.byte	0x9f
 2991 018a 90000000 		.4byte	.LVL29
 2992 018e CA000000 		.4byte	.LVL42
 2993 0192 0F00     		.2byte	0xf
 2994 0194 76       		.byte	0x76
 2995 0195 00       		.sleb128 0
 2996 0196 F7       		.byte	0xf7
 2997 0197 29       		.uleb128 0x29
 2998 0198 71       		.byte	0x71
 2999 0199 00       		.sleb128 0
 3000 019a 06       		.byte	0x6
 3001 019b F7       		.byte	0xf7
 3002 019c 29       		.uleb128 0x29
ARM GAS  C:\Users\DNIEL~1\AppData\Local\Temp\cc3kNDIX.s 			page 54


 3003 019d 1B       		.byte	0x1b
 3004 019e F7       		.byte	0xf7
 3005 019f 00       		.uleb128 0
 3006 01a0 31       		.byte	0x31
 3007 01a1 1C       		.byte	0x1c
 3008 01a2 9F       		.byte	0x9f
 3009 01a3 00000000 		.4byte	0
 3010 01a7 00000000 		.4byte	0
 3011              	.LLST8:
 3012 01ab 42000000 		.4byte	.LVL21
 3013 01af 4C000000 		.4byte	.LVL22
 3014 01b3 0200     		.2byte	0x2
 3015 01b5 30       		.byte	0x30
 3016 01b6 9F       		.byte	0x9f
 3017 01b7 4C000000 		.4byte	.LVL22
 3018 01bb 64000000 		.4byte	.LVL23
 3019 01bf 0100     		.2byte	0x1
 3020 01c1 52       		.byte	0x52
 3021 01c2 68000000 		.4byte	.LVL24
 3022 01c6 72000000 		.4byte	.LVL25
 3023 01ca 0100     		.2byte	0x1
 3024 01cc 52       		.byte	0x52
 3025 01cd 76000000 		.4byte	.LVL26
 3026 01d1 82000000 		.4byte	.LVL28
 3027 01d5 0100     		.2byte	0x1
 3028 01d7 52       		.byte	0x52
 3029 01d8 90000000 		.4byte	.LVL29
 3030 01dc B6000000 		.4byte	.LVL36
 3031 01e0 0100     		.2byte	0x1
 3032 01e2 52       		.byte	0x52
 3033 01e3 BA000000 		.4byte	.LVL37
 3034 01e7 C0000000 		.4byte	.LVL39
 3035 01eb 0100     		.2byte	0x1
 3036 01ed 52       		.byte	0x52
 3037 01ee C4000000 		.4byte	.LVL40
 3038 01f2 CA000000 		.4byte	.LVL42
 3039 01f6 0100     		.2byte	0x1
 3040 01f8 52       		.byte	0x52
 3041 01f9 00000000 		.4byte	0
 3042 01fd 00000000 		.4byte	0
 3043              	.LLST9:
 3044 0201 00000000 		.4byte	.LFB123
 3045 0205 02000000 		.4byte	.LCFI5
 3046 0209 0200     		.2byte	0x2
 3047 020b 7D       		.byte	0x7d
 3048 020c 00       		.sleb128 0
 3049 020d 02000000 		.4byte	.LCFI5
 3050 0211 58000000 		.4byte	.LFE123
 3051 0215 0200     		.2byte	0x2
 3052 0217 7D       		.byte	0x7d
 3053 0218 08       		.sleb128 8
 3054 0219 00000000 		.4byte	0
 3055 021d 00000000 		.4byte	0
 3056              	.LLST10:
 3057 0221 00000000 		.4byte	.LVL45
 3058 0225 08000000 		.4byte	.LVL46
 3059 0229 0100     		.2byte	0x1
ARM GAS  C:\Users\DNIEL~1\AppData\Local\Temp\cc3kNDIX.s 			page 55


 3060 022b 50       		.byte	0x50
 3061 022c 08000000 		.4byte	.LVL46
 3062 0230 0A000000 		.4byte	.LVL47
 3063 0234 0400     		.2byte	0x4
 3064 0236 F3       		.byte	0xf3
 3065 0237 01       		.uleb128 0x1
 3066 0238 50       		.byte	0x50
 3067 0239 9F       		.byte	0x9f
 3068 023a 0A000000 		.4byte	.LVL47
 3069 023e 22000000 		.4byte	.LVL48
 3070 0242 0100     		.2byte	0x1
 3071 0244 50       		.byte	0x50
 3072 0245 22000000 		.4byte	.LVL48
 3073 0249 38000000 		.4byte	.LVL50
 3074 024d 0400     		.2byte	0x4
 3075 024f F3       		.byte	0xf3
 3076 0250 01       		.uleb128 0x1
 3077 0251 50       		.byte	0x50
 3078 0252 9F       		.byte	0x9f
 3079 0253 38000000 		.4byte	.LVL50
 3080 0257 3A000000 		.4byte	.LVL51
 3081 025b 0100     		.2byte	0x1
 3082 025d 50       		.byte	0x50
 3083 025e 3A000000 		.4byte	.LVL51
 3084 0262 58000000 		.4byte	.LFE123
 3085 0266 0400     		.2byte	0x4
 3086 0268 F3       		.byte	0xf3
 3087 0269 01       		.uleb128 0x1
 3088 026a 50       		.byte	0x50
 3089 026b 9F       		.byte	0x9f
 3090 026c 00000000 		.4byte	0
 3091 0270 00000000 		.4byte	0
 3092              	.LLST11:
 3093 0274 00000000 		.4byte	.LFB124
 3094 0278 02000000 		.4byte	.LCFI6
 3095 027c 0200     		.2byte	0x2
 3096 027e 7D       		.byte	0x7d
 3097 027f 00       		.sleb128 0
 3098 0280 02000000 		.4byte	.LCFI6
 3099 0284 36000000 		.4byte	.LFE124
 3100 0288 0200     		.2byte	0x2
 3101 028a 7D       		.byte	0x7d
 3102 028b 04       		.sleb128 4
 3103 028c 00000000 		.4byte	0
 3104 0290 00000000 		.4byte	0
 3105              	.LLST12:
 3106 0294 00000000 		.4byte	.LVL53
 3107 0298 0A000000 		.4byte	.LVL54
 3108 029c 0100     		.2byte	0x1
 3109 029e 50       		.byte	0x50
 3110 029f 0A000000 		.4byte	.LVL54
 3111 02a3 36000000 		.4byte	.LFE124
 3112 02a7 0400     		.2byte	0x4
 3113 02a9 F3       		.byte	0xf3
 3114 02aa 01       		.uleb128 0x1
 3115 02ab 50       		.byte	0x50
 3116 02ac 9F       		.byte	0x9f
ARM GAS  C:\Users\DNIEL~1\AppData\Local\Temp\cc3kNDIX.s 			page 56


 3117 02ad 00000000 		.4byte	0
 3118 02b1 00000000 		.4byte	0
 3119              	.LLST13:
 3120 02b5 00000000 		.4byte	.LVL53
 3121 02b9 22000000 		.4byte	.LVL57
 3122 02bd 0100     		.2byte	0x1
 3123 02bf 51       		.byte	0x51
 3124 02c0 22000000 		.4byte	.LVL57
 3125 02c4 36000000 		.4byte	.LFE124
 3126 02c8 0400     		.2byte	0x4
 3127 02ca F3       		.byte	0xf3
 3128 02cb 01       		.uleb128 0x1
 3129 02cc 51       		.byte	0x51
 3130 02cd 9F       		.byte	0x9f
 3131 02ce 00000000 		.4byte	0
 3132 02d2 00000000 		.4byte	0
 3133              	.LLST14:
 3134 02d6 00000000 		.4byte	.LVL53
 3135 02da 1A000000 		.4byte	.LVL55
 3136 02de 0100     		.2byte	0x1
 3137 02e0 52       		.byte	0x52
 3138 02e1 1A000000 		.4byte	.LVL55
 3139 02e5 36000000 		.4byte	.LFE124
 3140 02e9 0400     		.2byte	0x4
 3141 02eb F3       		.byte	0xf3
 3142 02ec 01       		.uleb128 0x1
 3143 02ed 52       		.byte	0x52
 3144 02ee 9F       		.byte	0x9f
 3145 02ef 00000000 		.4byte	0
 3146 02f3 00000000 		.4byte	0
 3147              	.LLST15:
 3148 02f7 1E000000 		.4byte	.LVL56
 3149 02fb 2E000000 		.4byte	.LVL58
 3150 02ff 0700     		.2byte	0x7
 3151 0301 72       		.byte	0x72
 3152 0302 00       		.sleb128 0
 3153 0303 0A       		.byte	0xa
 3154 0304 FFFF     		.2byte	0xffff
 3155 0306 1A       		.byte	0x1a
 3156 0307 9F       		.byte	0x9f
 3157 0308 00000000 		.4byte	0
 3158 030c 00000000 		.4byte	0
 3159              	.LLST16:
 3160 0310 00000000 		.4byte	.LVL59
 3161 0314 0C000000 		.4byte	.LVL60
 3162 0318 0100     		.2byte	0x1
 3163 031a 50       		.byte	0x50
 3164 031b 0C000000 		.4byte	.LVL60
 3165 031f 20000000 		.4byte	.LFE125
 3166 0323 0400     		.2byte	0x4
 3167 0325 F3       		.byte	0xf3
 3168 0326 01       		.uleb128 0x1
 3169 0327 50       		.byte	0x50
 3170 0328 9F       		.byte	0x9f
 3171 0329 00000000 		.4byte	0
 3172 032d 00000000 		.4byte	0
 3173              	.LLST17:
ARM GAS  C:\Users\DNIEL~1\AppData\Local\Temp\cc3kNDIX.s 			page 57


 3174 0331 00000000 		.4byte	.LVL59
 3175 0335 18000000 		.4byte	.LVL61
 3176 0339 0100     		.2byte	0x1
 3177 033b 51       		.byte	0x51
 3178 033c 18000000 		.4byte	.LVL61
 3179 0340 20000000 		.4byte	.LFE125
 3180 0344 0400     		.2byte	0x4
 3181 0346 F3       		.byte	0xf3
 3182 0347 01       		.uleb128 0x1
 3183 0348 51       		.byte	0x51
 3184 0349 9F       		.byte	0x9f
 3185 034a 00000000 		.4byte	0
 3186 034e 00000000 		.4byte	0
 3187              		.section	.debug_aranges,"",%progbits
 3188 0000 54000000 		.4byte	0x54
 3189 0004 0200     		.2byte	0x2
 3190 0006 00000000 		.4byte	.Ldebug_info0
 3191 000a 04       		.byte	0x4
 3192 000b 00       		.byte	0
 3193 000c 0000     		.2byte	0
 3194 000e 0000     		.2byte	0
 3195 0010 00000000 		.4byte	.LFB118
 3196 0014 68000000 		.4byte	.LFE118-.LFB118
 3197 0018 00000000 		.4byte	.LFB119
 3198 001c 16000000 		.4byte	.LFE119-.LFB119
 3199 0020 00000000 		.4byte	.LFB120
 3200 0024 16000000 		.4byte	.LFE120-.LFB120
 3201 0028 00000000 		.4byte	.LFB121
 3202 002c 34000000 		.4byte	.LFE121-.LFB121
 3203 0030 00000000 		.4byte	.LFB122
 3204 0034 38010000 		.4byte	.LFE122-.LFB122
 3205 0038 00000000 		.4byte	.LFB123
 3206 003c 58000000 		.4byte	.LFE123-.LFB123
 3207 0040 00000000 		.4byte	.LFB124
 3208 0044 36000000 		.4byte	.LFE124-.LFB124
 3209 0048 00000000 		.4byte	.LFB125
 3210 004c 20000000 		.4byte	.LFE125-.LFB125
 3211 0050 00000000 		.4byte	0
 3212 0054 00000000 		.4byte	0
 3213              		.section	.debug_ranges,"",%progbits
 3214              	.Ldebug_ranges0:
 3215 0000 00000000 		.4byte	.LFB118
 3216 0004 68000000 		.4byte	.LFE118
 3217 0008 00000000 		.4byte	.LFB119
 3218 000c 16000000 		.4byte	.LFE119
 3219 0010 00000000 		.4byte	.LFB120
 3220 0014 16000000 		.4byte	.LFE120
 3221 0018 00000000 		.4byte	.LFB121
 3222 001c 34000000 		.4byte	.LFE121
 3223 0020 00000000 		.4byte	.LFB122
 3224 0024 38010000 		.4byte	.LFE122
 3225 0028 00000000 		.4byte	.LFB123
 3226 002c 58000000 		.4byte	.LFE123
 3227 0030 00000000 		.4byte	.LFB124
 3228 0034 36000000 		.4byte	.LFE124
 3229 0038 00000000 		.4byte	.LFB125
 3230 003c 20000000 		.4byte	.LFE125
ARM GAS  C:\Users\DNIEL~1\AppData\Local\Temp\cc3kNDIX.s 			page 58


 3231 0040 00000000 		.4byte	0
 3232 0044 00000000 		.4byte	0
 3233              		.section	.debug_line,"",%progbits
 3234              	.Ldebug_line0:
 3235 0000 34030000 		.section	.debug_str,"MS",%progbits,1
 3235      0200F701 
 3235      00000201 
 3235      FB0E0D00 
 3235      01010101 
 3236              	.LASF167:
 3237 0000 70776D63 		.ascii	"pwmchannel_t\000"
 3237      68616E6E 
 3237      656C5F74 
 3237      00
 3238              	.LASF125:
 3239 000d 41504231 		.ascii	"APB1LPENR\000"
 3239      4C50454E 
 3239      5200
 3240              	.LASF43:
 3241 0017 43414E31 		.ascii	"CAN1_RX0_IRQn\000"
 3241      5F525830 
 3241      5F495251 
 3241      6E00
 3242              	.LASF24:
 3243 0025 5056445F 		.ascii	"PVD_IRQn\000"
 3243      4952516E 
 3243      00
 3244              	.LASF87:
 3245 002e 43414E32 		.ascii	"CAN2_RX0_IRQn\000"
 3245      5F525830 
 3245      5F495251 
 3245      6E00
 3246              	.LASF196:
 3247 003c 70776D5F 		.ascii	"pwm_lld_serve_interrupt\000"
 3247      6C6C645F 
 3247      73657276 
 3247      655F696E 
 3247      74657272 
 3248              	.LASF96:
 3249 0054 49324333 		.ascii	"I2C3_ER_IRQn\000"
 3249      5F45525F 
 3249      4952516E 
 3249      00
 3250              	.LASF133:
 3251 0061 5F726573 		.ascii	"_resvd0\000"
 3251      76643000 
 3252              	.LASF134:
 3253 0069 5F726573 		.ascii	"_resvd1\000"
 3253      76643100 
 3254              	.LASF54:
 3255 0071 49324331 		.ascii	"I2C1_EV_IRQn\000"
 3255      5F45565F 
 3255      4952516E 
 3255      00
 3256              	.LASF138:
 3257 007e 5F726573 		.ascii	"_resvd3\000"
 3257      76643300 
ARM GAS  C:\Users\DNIEL~1\AppData\Local\Temp\cc3kNDIX.s 			page 59


 3258              	.LASF139:
 3259 0086 5F726573 		.ascii	"_resvd4\000"
 3259      76643400 
 3260              	.LASF140:
 3261 008e 5F726573 		.ascii	"_resvd5\000"
 3261      76643500 
 3262              	.LASF142:
 3263 0096 5F726573 		.ascii	"_resvd6\000"
 3263      76643600 
 3264              	.LASF144:
 3265 009e 5F726573 		.ascii	"_resvd7\000"
 3265      76643700 
 3266              	.LASF146:
 3267 00a6 5F726573 		.ascii	"_resvd8\000"
 3267      76643800 
 3268              	.LASF147:
 3269 00ae 5F726573 		.ascii	"_resvd9\000"
 3269      76643900 
 3270              	.LASF163:
 3271 00b6 70657269 		.ascii	"period\000"
 3271      6F6400
 3272              	.LASF150:
 3273 00bd 5F726573 		.ascii	"_resvd11\000"
 3273      76643131 
 3273      00
 3274              	.LASF151:
 3275 00c6 5F726573 		.ascii	"_resvd12\000"
 3275      76643132 
 3275      00
 3276              	.LASF44:
 3277 00cf 43414E31 		.ascii	"CAN1_RX1_IRQn\000"
 3277      5F525831 
 3277      5F495251 
 3277      6E00
 3278              	.LASF153:
 3279 00dd 5F726573 		.ascii	"_resvd13\000"
 3279      76643133 
 3279      00
 3280              	.LASF12:
 3281 00e6 6C6F6E67 		.ascii	"long long unsigned int\000"
 3281      206C6F6E 
 3281      6720756E 
 3281      7369676E 
 3281      65642069 
 3282              	.LASF64:
 3283 00fd 5254435F 		.ascii	"RTC_Alarm_IRQn\000"
 3283      416C6172 
 3283      6D5F4952 
 3283      516E00
 3284              	.LASF57:
 3285 010c 49324332 		.ascii	"I2C2_ER_IRQn\000"
 3285      5F45525F 
 3285      4952516E 
 3285      00
 3286              	.LASF53:
 3287 0119 54494D34 		.ascii	"TIM4_IRQn\000"
 3287      5F495251 
ARM GAS  C:\Users\DNIEL~1\AppData\Local\Temp\cc3kNDIX.s 			page 60


 3287      6E00
 3288              	.LASF26:
 3289 0123 5254435F 		.ascii	"RTC_WKUP_IRQn\000"
 3289      574B5550 
 3289      5F495251 
 3289      6E00
 3290              	.LASF23:
 3291 0131 57574447 		.ascii	"WWDG_IRQn\000"
 3291      5F495251 
 3291      6E00
 3292              	.LASF172:
 3293 013b 66726571 		.ascii	"frequency\000"
 3293      75656E63 
 3293      7900
 3294              	.LASF121:
 3295 0145 41484231 		.ascii	"AHB1LPENR\000"
 3295      4C50454E 
 3295      5200
 3296              	.LASF158:
 3297 014f 50574D5F 		.ascii	"PWM_READY\000"
 3297      52454144 
 3297      5900
 3298              	.LASF191:
 3299 0159 6E766963 		.ascii	"nvicEnableVector\000"
 3299      456E6162 
 3299      6C655665 
 3299      63746F72 
 3299      00
 3300              	.LASF141:
 3301 016a 43434D52 		.ascii	"CCMR1\000"
 3301      3100
 3302              	.LASF143:
 3303 0170 43434D52 		.ascii	"CCMR2\000"
 3303      3200
 3304              	.LASF11:
 3305 0176 6C6F6E67 		.ascii	"long long int\000"
 3305      206C6F6E 
 3305      6720696E 
 3305      7400
 3306              	.LASF1:
 3307 0184 7369676E 		.ascii	"signed char\000"
 3307      65642063 
 3307      68617200 
 3308              	.LASF88:
 3309 0190 43414E32 		.ascii	"CAN2_RX1_IRQn\000"
 3309      5F525831 
 3309      5F495251 
 3309      6E00
 3310              	.LASF107:
 3311 019e 41484231 		.ascii	"AHB1RSTR\000"
 3311      52535452 
 3311      00
 3312              	.LASF166:
 3313 01a7 70776D6D 		.ascii	"pwmmode_t\000"
 3313      6F64655F 
 3313      7400
 3314              	.LASF92:
ARM GAS  C:\Users\DNIEL~1\AppData\Local\Temp\cc3kNDIX.s 			page 61


 3315 01b1 444D4132 		.ascii	"DMA2_Stream6_IRQn\000"
 3315      5F537472 
 3315      65616D36 
 3315      5F495251 
 3315      6E00
 3316              	.LASF189:
 3317 01c3 50574D44 		.ascii	"PWMD5\000"
 3317      3500
 3318              	.LASF148:
 3319 01c9 5F726573 		.ascii	"_resvd10\000"
 3319      76643130 
 3319      00
 3320              	.LASF161:
 3321 01d2 73746174 		.ascii	"state\000"
 3321      6500
 3322              	.LASF173:
 3323 01d8 6368616E 		.ascii	"channels\000"
 3323      6E656C73 
 3323      00
 3324              	.LASF8:
 3325 01e1 6C6F6E67 		.ascii	"long int\000"
 3325      20696E74 
 3325      00
 3326              	.LASF154:
 3327 01ea 5F726573 		.ascii	"_resvd14\000"
 3327      76643134 
 3327      00
 3328              	.LASF178:
 3329 01f3 70776D5F 		.ascii	"pwm_lld_start\000"
 3329      6C6C645F 
 3329      73746172 
 3329      7400
 3330              	.LASF112:
 3331 0201 41504232 		.ascii	"APB2RSTR\000"
 3331      52535452 
 3331      00
 3332              	.LASF39:
 3333 020a 444D4131 		.ascii	"DMA1_Stream5_IRQn\000"
 3333      5F537472 
 3333      65616D35 
 3333      5F495251 
 3333      6E00
 3334              	.LASF46:
 3335 021c 45585449 		.ascii	"EXTI9_5_IRQn\000"
 3335      395F355F 
 3335      4952516E 
 3335      00
 3336              	.LASF145:
 3337 0229 43434552 		.ascii	"CCER\000"
 3337      00
 3338              	.LASF85:
 3339 022e 4554485F 		.ascii	"ETH_WKUP_IRQn\000"
 3339      574B5550 
 3339      5F495251 
 3339      6E00
 3340              	.LASF5:
 3341 023c 75696E74 		.ascii	"uint16_t\000"
ARM GAS  C:\Users\DNIEL~1\AppData\Local\Temp\cc3kNDIX.s 			page 62


 3341      31365F74 
 3341      00
 3342              	.LASF70:
 3343 0245 444D4131 		.ascii	"DMA1_Stream7_IRQn\000"
 3343      5F537472 
 3343      65616D37 
 3343      5F495251 
 3343      6E00
 3344              	.LASF77:
 3345 0257 54494D36 		.ascii	"TIM6_DAC_IRQn\000"
 3345      5F444143 
 3345      5F495251 
 3345      6E00
 3346              	.LASF105:
 3347 0265 504C4C43 		.ascii	"PLLCFGR\000"
 3347      46475200 
 3348              	.LASF75:
 3349 026d 55415254 		.ascii	"UART4_IRQn\000"
 3349      345F4952 
 3349      516E00
 3350              	.LASF65:
 3351 0278 4F54475F 		.ascii	"OTG_FS_WKUP_IRQn\000"
 3351      46535F57 
 3351      4B55505F 
 3351      4952516E 
 3351      00
 3352              	.LASF91:
 3353 0289 444D4132 		.ascii	"DMA2_Stream5_IRQn\000"
 3353      5F537472 
 3353      65616D35 
 3353      5F495251 
 3353      6E00
 3354              	.LASF67:
 3355 029b 54494D38 		.ascii	"TIM8_UP_TIM13_IRQn\000"
 3355      5F55505F 
 3355      54494D31 
 3355      335F4952 
 3355      516E00
 3356              	.LASF188:
 3357 02ae 50574D44 		.ascii	"PWMD4\000"
 3357      3400
 3358              	.LASF175:
 3359 02b4 56656374 		.ascii	"VectorB8\000"
 3359      6F724238 
 3359      00
 3360              	.LASF108:
 3361 02bd 41484232 		.ascii	"AHB2RSTR\000"
 3361      52535452 
 3361      00
 3362              	.LASF17:
 3363 02c6 42757346 		.ascii	"BusFault_IRQn\000"
 3363      61756C74 
 3363      5F495251 
 3363      6E00
 3364              	.LASF69:
 3365 02d4 54494D38 		.ascii	"TIM8_CC_IRQn\000"
 3365      5F43435F 
ARM GAS  C:\Users\DNIEL~1\AppData\Local\Temp\cc3kNDIX.s 			page 63


 3365      4952516E 
 3365      00
 3366              	.LASF21:
 3367 02e1 50656E64 		.ascii	"PendSV_IRQn\000"
 3367      53565F49 
 3367      52516E00 
 3368              	.LASF93:
 3369 02ed 444D4132 		.ascii	"DMA2_Stream7_IRQn\000"
 3369      5F537472 
 3369      65616D37 
 3369      5F495251 
 3369      6E00
 3370              	.LASF149:
 3371 02ff 42445452 		.ascii	"BDTR\000"
 3371      00
 3372              	.LASF0:
 3373 0304 756E7369 		.ascii	"unsigned int\000"
 3373      676E6564 
 3373      20696E74 
 3373      00
 3374              	.LASF37:
 3375 0311 444D4131 		.ascii	"DMA1_Stream3_IRQn\000"
 3375      5F537472 
 3375      65616D33 
 3375      5F495251 
 3375      6E00
 3376              	.LASF40:
 3377 0323 444D4131 		.ascii	"DMA1_Stream6_IRQn\000"
 3377      5F537472 
 3377      65616D36 
 3377      5F495251 
 3377      6E00
 3378              	.LASF16:
 3379 0335 4D656D6F 		.ascii	"MemoryManagement_IRQn\000"
 3379      72794D61 
 3379      6E616765 
 3379      6D656E74 
 3379      5F495251 
 3380              	.LASF95:
 3381 034b 49324333 		.ascii	"I2C3_EV_IRQn\000"
 3381      5F45565F 
 3381      4952516E 
 3381      00
 3382              	.LASF10:
 3383 0358 6C6F6E67 		.ascii	"long unsigned int\000"
 3383      20756E73 
 3383      69676E65 
 3383      6420696E 
 3383      7400
 3384              	.LASF132:
 3385 036a 5243435F 		.ascii	"RCC_TypeDef\000"
 3385      54797065 
 3385      44656600 
 3386              	.LASF97:
 3387 0376 4F54475F 		.ascii	"OTG_HS_EP1_OUT_IRQn\000"
 3387      48535F45 
 3387      50315F4F 
ARM GAS  C:\Users\DNIEL~1\AppData\Local\Temp\cc3kNDIX.s 			page 64


 3387      55545F49 
 3387      52516E00 
 3388              	.LASF72:
 3389 038a 5344494F 		.ascii	"SDIO_IRQn\000"
 3389      5F495251 
 3389      6E00
 3390              	.LASF184:
 3391 0394 77696474 		.ascii	"width\000"
 3391      6800
 3392              	.LASF19:
 3393 039a 53564361 		.ascii	"SVCall_IRQn\000"
 3393      6C6C5F49 
 3393      52516E00 
 3394              	.LASF135:
 3395 03a6 534D4352 		.ascii	"SMCR\000"
 3395      00
 3396              	.LASF81:
 3397 03ab 444D4132 		.ascii	"DMA2_Stream2_IRQn\000"
 3397      5F537472 
 3397      65616D32 
 3397      5F495251 
 3397      6E00
 3398              	.LASF131:
 3399 03bd 504C4C49 		.ascii	"PLLI2SCFGR\000"
 3399      32534346 
 3399      475200
 3400              	.LASF42:
 3401 03c8 43414E31 		.ascii	"CAN1_TX_IRQn\000"
 3401      5F54585F 
 3401      4952516E 
 3401      00
 3402              	.LASF109:
 3403 03d5 41484233 		.ascii	"AHB3RSTR\000"
 3403      52535452 
 3403      00
 3404              	.LASF63:
 3405 03de 45585449 		.ascii	"EXTI15_10_IRQn\000"
 3405      31355F31 
 3405      305F4952 
 3405      516E00
 3406              	.LASF58:
 3407 03ed 53504931 		.ascii	"SPI1_IRQn\000"
 3407      5F495251 
 3407      6E00
 3408              	.LASF170:
 3409 03f7 63616C6C 		.ascii	"callback\000"
 3409      6261636B 
 3409      00
 3410              	.LASF176:
 3411 0400 56656374 		.ascii	"Vector108\000"
 3411      6F723130 
 3411      3800
 3412              	.LASF155:
 3413 040a 73746D33 		.ascii	"stm32_tim_t\000"
 3413      325F7469 
 3413      6D5F7400 
 3414              	.LASF126:
ARM GAS  C:\Users\DNIEL~1\AppData\Local\Temp\cc3kNDIX.s 			page 65


 3415 0416 41504232 		.ascii	"APB2LPENR\000"
 3415      4C50454E 
 3415      5200
 3416              	.LASF180:
 3417 0420 63636572 		.ascii	"ccer\000"
 3417      00
 3418              	.LASF66:
 3419 0425 54494D38 		.ascii	"TIM8_BRK_TIM12_IRQn\000"
 3419      5F42524B 
 3419      5F54494D 
 3419      31325F49 
 3419      52516E00 
 3420              	.LASF179:
 3421 0439 70776D70 		.ascii	"pwmp\000"
 3421      00
 3422              	.LASF22:
 3423 043e 53797354 		.ascii	"SysTick_IRQn\000"
 3423      69636B5F 
 3423      4952516E 
 3423      00
 3424              	.LASF50:
 3425 044b 54494D31 		.ascii	"TIM1_CC_IRQn\000"
 3425      5F43435F 
 3425      4952516E 
 3425      00
 3426              	.LASF68:
 3427 0458 54494D38 		.ascii	"TIM8_TRG_COM_TIM14_IRQn\000"
 3427      5F545247 
 3427      5F434F4D 
 3427      5F54494D 
 3427      31345F49 
 3428              	.LASF195:
 3429 0470 4952516E 		.ascii	"IRQn\000"
 3429      00
 3430              	.LASF13:
 3431 0475 73697A65 		.ascii	"sizetype\000"
 3431      74797065 
 3431      00
 3432              	.LASF84:
 3433 047e 4554485F 		.ascii	"ETH_IRQn\000"
 3433      4952516E 
 3433      00
 3434              	.LASF48:
 3435 0487 54494D31 		.ascii	"TIM1_UP_TIM10_IRQn\000"
 3435      5F55505F 
 3435      54494D31 
 3435      305F4952 
 3435      516E00
 3436              	.LASF82:
 3437 049a 444D4132 		.ascii	"DMA2_Stream3_IRQn\000"
 3437      5F537472 
 3437      65616D33 
 3437      5F495251 
 3437      6E00
 3438              	.LASF38:
 3439 04ac 444D4131 		.ascii	"DMA1_Stream4_IRQn\000"
 3439      5F537472 
ARM GAS  C:\Users\DNIEL~1\AppData\Local\Temp\cc3kNDIX.s 			page 66


 3439      65616D34 
 3439      5F495251 
 3439      6E00
 3440              	.LASF94:
 3441 04be 55534152 		.ascii	"USART6_IRQn\000"
 3441      54365F49 
 3441      52516E00 
 3442              	.LASF73:
 3443 04ca 54494D35 		.ascii	"TIM5_IRQn\000"
 3443      5F495251 
 3443      6E00
 3444              	.LASF192:
 3445 04d4 474E5520 		.ascii	"GNU C 4.7.4 20140401 (release) [ARM/embedded-4_7-br"
 3445      4320342E 
 3445      372E3420 
 3445      32303134 
 3445      30343031 
 3446 0507 616E6368 		.ascii	"anch revision 209195]\000"
 3446      20726576 
 3446      6973696F 
 3446      6E203230 
 3446      39313935 
 3447              	.LASF59:
 3448 051d 53504932 		.ascii	"SPI2_IRQn\000"
 3448      5F495251 
 3448      6E00
 3449              	.LASF36:
 3450 0527 444D4131 		.ascii	"DMA1_Stream2_IRQn\000"
 3450      5F537472 
 3450      65616D32 
 3450      5F495251 
 3450      6E00
 3451              	.LASF86:
 3452 0539 43414E32 		.ascii	"CAN2_TX_IRQn\000"
 3452      5F54585F 
 3452      4952516E 
 3452      00
 3453              	.LASF122:
 3454 0546 41484232 		.ascii	"AHB2LPENR\000"
 3454      4C50454E 
 3454      5200
 3455              	.LASF111:
 3456 0550 41504231 		.ascii	"APB1RSTR\000"
 3456      52535452 
 3456      00
 3457              	.LASF100:
 3458 0559 4F54475F 		.ascii	"OTG_HS_IRQn\000"
 3458      48535F49 
 3458      52516E00 
 3459              	.LASF165:
 3460 0565 70776D63 		.ascii	"pwmcallback_t\000"
 3460      616C6C62 
 3460      61636B5F 
 3460      7400
 3461              	.LASF110:
 3462 0573 52455345 		.ascii	"RESERVED0\000"
 3462      52564544 
ARM GAS  C:\Users\DNIEL~1\AppData\Local\Temp\cc3kNDIX.s 			page 67


 3462      3000
 3463              	.LASF113:
 3464 057d 52455345 		.ascii	"RESERVED1\000"
 3464      52564544 
 3464      3100
 3465              	.LASF117:
 3466 0587 52455345 		.ascii	"RESERVED2\000"
 3466      52564544 
 3466      3200
 3467              	.LASF120:
 3468 0591 52455345 		.ascii	"RESERVED3\000"
 3468      52564544 
 3468      3300
 3469              	.LASF124:
 3470 059b 52455345 		.ascii	"RESERVED4\000"
 3470      52564544 
 3470      3400
 3471              	.LASF127:
 3472 05a5 52455345 		.ascii	"RESERVED5\000"
 3472      52564544 
 3472      3500
 3473              	.LASF129:
 3474 05af 52455345 		.ascii	"RESERVED6\000"
 3474      52564544 
 3474      3600
 3475              	.LASF74:
 3476 05b9 53504933 		.ascii	"SPI3_IRQn\000"
 3476      5F495251 
 3476      6E00
 3477              	.LASF83:
 3478 05c3 444D4132 		.ascii	"DMA2_Stream4_IRQn\000"
 3478      5F537472 
 3478      65616D34 
 3478      5F495251 
 3478      6E00
 3479              	.LASF71:
 3480 05d5 46534D43 		.ascii	"FSMC_IRQn\000"
 3480      5F495251 
 3480      6E00
 3481              	.LASF7:
 3482 05df 696E7433 		.ascii	"int32_t\000"
 3482      325F7400 
 3483              	.LASF2:
 3484 05e7 756E7369 		.ascii	"unsigned char\000"
 3484      676E6564 
 3484      20636861 
 3484      7200
 3485              	.LASF47:
 3486 05f5 54494D31 		.ascii	"TIM1_BRK_TIM9_IRQn\000"
 3486      5F42524B 
 3486      5F54494D 
 3486      395F4952 
 3486      516E00
 3487              	.LASF187:
 3488 0608 49544D5F 		.ascii	"ITM_RxBuffer\000"
 3488      52784275 
 3488      66666572 
ARM GAS  C:\Users\DNIEL~1\AppData\Local\Temp\cc3kNDIX.s 			page 68


 3488      00
 3489              	.LASF33:
 3490 0615 45585449 		.ascii	"EXTI4_IRQn\000"
 3490      345F4952 
 3490      516E00
 3491              	.LASF103:
 3492 0620 48415348 		.ascii	"HASH_RNG_IRQn\000"
 3492      5F524E47 
 3492      5F495251 
 3492      6E00
 3493              	.LASF3:
 3494 062e 73686F72 		.ascii	"short int\000"
 3494      7420696E 
 3494      7400
 3495              	.LASF123:
 3496 0638 41484233 		.ascii	"AHB3LPENR\000"
 3496      4C50454E 
 3496      5200
 3497              	.LASF76:
 3498 0642 55415254 		.ascii	"UART5_IRQn\000"
 3498      355F4952 
 3498      516E00
 3499              	.LASF49:
 3500 064d 54494D31 		.ascii	"TIM1_TRG_COM_TIM11_IRQn\000"
 3500      5F545247 
 3500      5F434F4D 
 3500      5F54494D 
 3500      31315F49 
 3501              	.LASF6:
 3502 0665 73686F72 		.ascii	"short unsigned int\000"
 3502      7420756E 
 3502      7369676E 
 3502      65642069 
 3502      6E7400
 3503              	.LASF31:
 3504 0678 45585449 		.ascii	"EXTI2_IRQn\000"
 3504      325F4952 
 3504      516E00
 3505              	.LASF119:
 3506 0683 41504232 		.ascii	"APB2ENR\000"
 3506      454E5200 
 3507              	.LASF183:
 3508 068b 6368616E 		.ascii	"channel\000"
 3508      6E656C00 
 3509              	.LASF116:
 3510 0693 41484233 		.ascii	"AHB3ENR\000"
 3510      454E5200 
 3511              	.LASF27:
 3512 069b 464C4153 		.ascii	"FLASH_IRQn\000"
 3512      485F4952 
 3512      516E00
 3513              	.LASF181:
 3514 06a6 70776D5F 		.ascii	"pwm_lld_stop\000"
 3514      6C6C645F 
 3514      73746F70 
 3514      00
 3515              	.LASF90:
ARM GAS  C:\Users\DNIEL~1\AppData\Local\Temp\cc3kNDIX.s 			page 69


 3516 06b3 4F54475F 		.ascii	"OTG_FS_IRQn\000"
 3516      46535F49 
 3516      52516E00 
 3517              	.LASF9:
 3518 06bf 75696E74 		.ascii	"uint32_t\000"
 3518      33325F74 
 3518      00
 3519              	.LASF61:
 3520 06c8 55534152 		.ascii	"USART2_IRQn\000"
 3520      54325F49 
 3520      52516E00 
 3521              	.LASF18:
 3522 06d4 55736167 		.ascii	"UsageFault_IRQn\000"
 3522      65466175 
 3522      6C745F49 
 3522      52516E00 
 3523              	.LASF174:
 3524 06e4 50574D43 		.ascii	"PWMConfig\000"
 3524      6F6E6669 
 3524      6700
 3525              	.LASF198:
 3526 06ee 6E766963 		.ascii	"nvicDisableVector\000"
 3526      44697361 
 3526      626C6556 
 3526      6563746F 
 3526      7200
 3527              	.LASF136:
 3528 0700 5F726573 		.ascii	"_resvd2\000"
 3528      76643200 
 3529              	.LASF182:
 3530 0708 70776D5F 		.ascii	"pwm_lld_enable_channel\000"
 3530      6C6C645F 
 3530      656E6162 
 3530      6C655F63 
 3530      68616E6E 
 3531              	.LASF157:
 3532 071f 50574D5F 		.ascii	"PWM_STOP\000"
 3532      53544F50 
 3532      00
 3533              	.LASF14:
 3534 0728 63686172 		.ascii	"char\000"
 3534      00
 3535              	.LASF169:
 3536 072d 6D6F6465 		.ascii	"mode\000"
 3536      00
 3537              	.LASF102:
 3538 0732 43525950 		.ascii	"CRYP_IRQn\000"
 3538      5F495251 
 3538      6E00
 3539              	.LASF162:
 3540 073c 636F6E66 		.ascii	"config\000"
 3540      696700
 3541              	.LASF152:
 3542 0743 444D4152 		.ascii	"DMAR\000"
 3542      00
 3543              	.LASF78:
 3544 0748 54494D37 		.ascii	"TIM7_IRQn\000"
ARM GAS  C:\Users\DNIEL~1\AppData\Local\Temp\cc3kNDIX.s 			page 70


 3544      5F495251 
 3544      6E00
 3545              	.LASF35:
 3546 0752 444D4131 		.ascii	"DMA1_Stream1_IRQn\000"
 3546      5F537472 
 3546      65616D31 
 3546      5F495251 
 3546      6E00
 3547              	.LASF98:
 3548 0764 4F54475F 		.ascii	"OTG_HS_EP1_IN_IRQn\000"
 3548      48535F45 
 3548      50315F49 
 3548      4E5F4952 
 3548      516E00
 3549              	.LASF15:
 3550 0777 4E6F6E4D 		.ascii	"NonMaskableInt_IRQn\000"
 3550      61736B61 
 3550      626C6549 
 3550      6E745F49 
 3550      52516E00 
 3551              	.LASF118:
 3552 078b 41504231 		.ascii	"APB1ENR\000"
 3552      454E5200 
 3553              	.LASF115:
 3554 0793 41484232 		.ascii	"AHB2ENR\000"
 3554      454E5200 
 3555              	.LASF25:
 3556 079b 54414D50 		.ascii	"TAMP_STAMP_IRQn\000"
 3556      5F535441 
 3556      4D505F49 
 3556      52516E00 
 3557              	.LASF171:
 3558 07ab 50574D43 		.ascii	"PWMChannelConfig\000"
 3558      68616E6E 
 3558      656C436F 
 3558      6E666967 
 3558      00
 3559              	.LASF20:
 3560 07bc 44656275 		.ascii	"DebugMonitor_IRQn\000"
 3560      674D6F6E 
 3560      69746F72 
 3560      5F495251 
 3560      6E00
 3561              	.LASF79:
 3562 07ce 444D4132 		.ascii	"DMA2_Stream0_IRQn\000"
 3562      5F537472 
 3562      65616D30 
 3562      5F495251 
 3562      6E00
 3563              	.LASF56:
 3564 07e0 49324332 		.ascii	"I2C2_EV_IRQn\000"
 3564      5F45565F 
 3564      4952516E 
 3564      00
 3565              	.LASF62:
 3566 07ed 55534152 		.ascii	"USART3_IRQn\000"
 3566      54335F49 
ARM GAS  C:\Users\DNIEL~1\AppData\Local\Temp\cc3kNDIX.s 			page 71


 3566      52516E00 
 3567              	.LASF130:
 3568 07f9 53534347 		.ascii	"SSCGR\000"
 3568      5200
 3569              	.LASF51:
 3570 07ff 54494D32 		.ascii	"TIM2_IRQn\000"
 3570      5F495251 
 3570      6E00
 3571              	.LASF29:
 3572 0809 45585449 		.ascii	"EXTI0_IRQn\000"
 3572      305F4952 
 3572      516E00
 3573              	.LASF60:
 3574 0814 55534152 		.ascii	"USART1_IRQn\000"
 3574      54315F49 
 3574      52516E00 
 3575              	.LASF194:
 3576 0820 433A5C55 		.ascii	"C:\\Users\\D\341niel\\git\\Smarty\\smarty\\firmware"
 3576      73657273 
 3576      5C44E16E 
 3576      69656C5C 
 3576      6769745C 
 3577 084a 00       		.ascii	"\000"
 3578              	.LASF128:
 3579 084b 42444352 		.ascii	"BDCR\000"
 3579      00
 3580              	.LASF32:
 3581 0850 45585449 		.ascii	"EXTI3_IRQn\000"
 3581      335F4952 
 3581      516E00
 3582              	.LASF197:
 3583 085b 5F706F72 		.ascii	"_port_irq_epilogue\000"
 3583      745F6972 
 3583      715F6570 
 3583      696C6F67 
 3583      756500
 3584              	.LASF4:
 3585 086e 75696E74 		.ascii	"uint8_t\000"
 3585      385F7400 
 3586              	.LASF160:
 3587 0876 50574D44 		.ascii	"PWMDriver\000"
 3587      72697665 
 3587      7200
 3588              	.LASF101:
 3589 0880 44434D49 		.ascii	"DCMI_IRQn\000"
 3589      5F495251 
 3589      6E00
 3590              	.LASF159:
 3591 088a 70776D73 		.ascii	"pwmstate_t\000"
 3591      74617465 
 3591      5F7400
 3592              	.LASF168:
 3593 0895 70776D63 		.ascii	"pwmcnt_t\000"
 3593      6E745F74 
 3593      00
 3594              	.LASF114:
 3595 089e 41484231 		.ascii	"AHB1ENR\000"
ARM GAS  C:\Users\DNIEL~1\AppData\Local\Temp\cc3kNDIX.s 			page 72


 3595      454E5200 
 3596              	.LASF137:
 3597 08a6 44494552 		.ascii	"DIER\000"
 3597      00
 3598              	.LASF104:
 3599 08ab 4650555F 		.ascii	"FPU_IRQn\000"
 3599      4952516E 
 3599      00
 3600              	.LASF106:
 3601 08b4 43464752 		.ascii	"CFGR\000"
 3601      00
 3602              	.LASF186:
 3603 08b9 70776D5F 		.ascii	"pwm_lld_disable_channel\000"
 3603      6C6C645F 
 3603      64697361 
 3603      626C655F 
 3603      6368616E 
 3604              	.LASF164:
 3605 08d1 636C6F63 		.ascii	"clock\000"
 3605      6B00
 3606              	.LASF193:
 3607 08d7 2E2E2F2E 		.ascii	"../../../ChibiOS/os/hal/platforms/STM32/pwm_lld.c\000"
 3607      2E2F2E2E 
 3607      2F436869 
 3607      62694F53 
 3607      2F6F732F 
 3608              	.LASF55:
 3609 0909 49324331 		.ascii	"I2C1_ER_IRQn\000"
 3609      5F45525F 
 3609      4952516E 
 3609      00
 3610              	.LASF177:
 3611 0916 70776D5F 		.ascii	"pwm_lld_init\000"
 3611      6C6C645F 
 3611      696E6974 
 3611      00
 3612              	.LASF41:
 3613 0923 4144435F 		.ascii	"ADC_IRQn\000"
 3613      4952516E 
 3613      00
 3614              	.LASF80:
 3615 092c 444D4132 		.ascii	"DMA2_Stream1_IRQn\000"
 3615      5F537472 
 3615      65616D31 
 3615      5F495251 
 3615      6E00
 3616              	.LASF156:
 3617 093e 50574D5F 		.ascii	"PWM_UNINIT\000"
 3617      554E494E 
 3617      495400
 3618              	.LASF45:
 3619 0949 43414E31 		.ascii	"CAN1_SCE_IRQn\000"
 3619      5F534345 
 3619      5F495251 
 3619      6E00
 3620              	.LASF190:
 3621 0957 70776D4F 		.ascii	"pwmObjectInit\000"
ARM GAS  C:\Users\DNIEL~1\AppData\Local\Temp\cc3kNDIX.s 			page 73


 3621      626A6563 
 3621      74496E69 
 3621      7400
 3622              	.LASF89:
 3623 0965 43414E32 		.ascii	"CAN2_SCE_IRQn\000"
 3623      5F534345 
 3623      5F495251 
 3623      6E00
 3624              	.LASF28:
 3625 0973 5243435F 		.ascii	"RCC_IRQn\000"
 3625      4952516E 
 3625      00
 3626              	.LASF99:
 3627 097c 4F54475F 		.ascii	"OTG_HS_WKUP_IRQn\000"
 3627      48535F57 
 3627      4B55505F 
 3627      4952516E 
 3627      00
 3628              	.LASF52:
 3629 098d 54494D33 		.ascii	"TIM3_IRQn\000"
 3629      5F495251 
 3629      6E00
 3630              	.LASF30:
 3631 0997 45585449 		.ascii	"EXTI1_IRQn\000"
 3631      315F4952 
 3631      516E00
 3632              	.LASF185:
 3633 09a2 64696572 		.ascii	"dier\000"
 3633      00
 3634              	.LASF34:
 3635 09a7 444D4131 		.ascii	"DMA1_Stream0_IRQn\000"
 3635      5F537472 
 3635      65616D30 
 3635      5F495251 
 3635      6E00
 3636              		.ident	"GCC: (GNU Tools for ARM Embedded Processors) 4.7.4 20140401 (release) [ARM/embedded-4_7-br
ARM GAS  C:\Users\DNIEL~1\AppData\Local\Temp\cc3kNDIX.s 			page 74


DEFINED SYMBOLS
                            *ABS*:00000000 pwm_lld.c
C:\Users\DNIEL~1\AppData\Local\Temp\cc3kNDIX.s:19     .text.pwm_lld_serve_interrupt:00000000 $t
C:\Users\DNIEL~1\AppData\Local\Temp\cc3kNDIX.s:24     .text.pwm_lld_serve_interrupt:00000000 pwm_lld_serve_interrupt
C:\Users\DNIEL~1\AppData\Local\Temp\cc3kNDIX.s:124    .text.VectorB8:00000000 $t
C:\Users\DNIEL~1\AppData\Local\Temp\cc3kNDIX.s:130    .text.VectorB8:00000000 VectorB8
C:\Users\DNIEL~1\AppData\Local\Temp\cc3kNDIX.s:688    .bss.PWMD4:00000000 .LANCHOR0
C:\Users\DNIEL~1\AppData\Local\Temp\cc3kNDIX.s:155    .text.Vector108:00000000 $t
C:\Users\DNIEL~1\AppData\Local\Temp\cc3kNDIX.s:161    .text.Vector108:00000000 Vector108
C:\Users\DNIEL~1\AppData\Local\Temp\cc3kNDIX.s:695    .bss.PWMD5:00000000 .LANCHOR1
C:\Users\DNIEL~1\AppData\Local\Temp\cc3kNDIX.s:186    .text.pwm_lld_init:00000000 $t
C:\Users\DNIEL~1\AppData\Local\Temp\cc3kNDIX.s:192    .text.pwm_lld_init:00000000 pwm_lld_init
C:\Users\DNIEL~1\AppData\Local\Temp\cc3kNDIX.s:235    .text.pwm_lld_start:00000000 $t
C:\Users\DNIEL~1\AppData\Local\Temp\cc3kNDIX.s:241    .text.pwm_lld_start:00000000 pwm_lld_start
C:\Users\DNIEL~1\AppData\Local\Temp\cc3kNDIX.s:494    .text.pwm_lld_start:00000130 $d
C:\Users\DNIEL~1\AppData\Local\Temp\cc3kNDIX.s:500    .text.pwm_lld_stop:00000000 $t
C:\Users\DNIEL~1\AppData\Local\Temp\cc3kNDIX.s:506    .text.pwm_lld_stop:00000000 pwm_lld_stop
C:\Users\DNIEL~1\AppData\Local\Temp\cc3kNDIX.s:575    .text.pwm_lld_stop:00000050 $d
C:\Users\DNIEL~1\AppData\Local\Temp\cc3kNDIX.s:581    .text.pwm_lld_enable_channel:00000000 $t
C:\Users\DNIEL~1\AppData\Local\Temp\cc3kNDIX.s:587    .text.pwm_lld_enable_channel:00000000 pwm_lld_enable_channel
C:\Users\DNIEL~1\AppData\Local\Temp\cc3kNDIX.s:651    .text.pwm_lld_disable_channel:00000000 $t
C:\Users\DNIEL~1\AppData\Local\Temp\cc3kNDIX.s:657    .text.pwm_lld_disable_channel:00000000 pwm_lld_disable_channel
C:\Users\DNIEL~1\AppData\Local\Temp\cc3kNDIX.s:698    .bss.PWMD5:00000000 PWMD5
C:\Users\DNIEL~1\AppData\Local\Temp\cc3kNDIX.s:691    .bss.PWMD4:00000000 PWMD4
C:\Users\DNIEL~1\AppData\Local\Temp\cc3kNDIX.s:687    .bss.PWMD4:00000000 $d
C:\Users\DNIEL~1\AppData\Local\Temp\cc3kNDIX.s:694    .bss.PWMD5:00000000 $d
                     .debug_frame:00000010 $d
C:\Users\DNIEL~1\AppData\Local\Temp\cc3kNDIX.s:499    .text.pwm_lld_start:00000138 $t
C:\Users\DNIEL~1\AppData\Local\Temp\cc3kNDIX.s:580    .text.pwm_lld_stop:00000058 $t

UNDEFINED SYMBOLS
_port_irq_epilogue
pwmObjectInit
nvicEnableVector
nvicDisableVector
