ARM GAS  C:\Users\DNIEL~1\AppData\Local\Temp\cc2k9ybe.s 			page 1


   1              		.syntax unified
   2              		.cpu cortex-m4
   3              		.fpu softvfp
   4              		.eabi_attribute 20, 1
   5              		.eabi_attribute 21, 1
   6              		.eabi_attribute 23, 3
   7              		.eabi_attribute 24, 1
   8              		.eabi_attribute 25, 1
   9              		.eabi_attribute 26, 1
  10              		.eabi_attribute 30, 2
  11              		.eabi_attribute 34, 1
  12              		.eabi_attribute 18, 4
  13              		.thumb
  14              		.file	"rtc.c"
  15              		.text
  16              	.Ltext0:
  17              		.cfi_sections	.debug_frame
  18              		.section	.text.rtcInit,"ax",%progbits
  19              		.align	2
  20              		.p2align 4,,15
  21              		.global	rtcInit
  22              		.thumb
  23              		.thumb_func
  24              		.type	rtcInit, %function
  25              	rtcInit:
  26              	.LFB118:
  27              		.file 1 "../../../ChibiOS/os/hal/src/rtc.c"
  28              		.loc 1 72 0
  29              		.cfi_startproc
  30              		@ args = 0, pretend = 0, frame = 0
  31              		@ frame_needed = 0, uses_anonymous_args = 0
  32              		@ link register save eliminated.
  33              		.loc 1 75 0
  34              		.loc 1 74 0
  35 0000 FFF7FEBF 		b	rtc_lld_init
  36              	.LVL0:
  37              		.cfi_endproc
  38              	.LFE118:
  39              		.size	rtcInit, .-rtcInit
  40 0004 AFF30080 		.section	.text.rtcSetTime,"ax",%progbits
  40      AFF30080 
  40      AFF30080 
  41              		.align	2
  42              		.p2align 4,,15
  43              		.global	rtcSetTime
  44              		.thumb
  45              		.thumb_func
  46              		.type	rtcSetTime, %function
  47              	rtcSetTime:
  48              	.LFB119:
  49              		.loc 1 85 0
  50              		.cfi_startproc
  51              		@ args = 0, pretend = 0, frame = 0
  52              		@ frame_needed = 0, uses_anonymous_args = 0
  53              	.LVL1:
  54 0000 08B5     		push	{r3, lr}
  55              	.LCFI0:
ARM GAS  C:\Users\DNIEL~1\AppData\Local\Temp\cc2k9ybe.s 			page 2


  56              		.cfi_def_cfa_offset 8
  57              		.cfi_offset 3, -8
  58              		.cfi_offset 14, -4
  59              	.LBB2:
  60              		.loc 1 89 0
  61 0002 2023     		movs	r3, #32
  62              	.LVL2:
  63              	@ 89 "../../../ChibiOS/os/hal/src/rtc.c" 1
  64 0004 83F31188 		msr     BASEPRI, r3
  65              	@ 0 "" 2
  66              	.LVL3:
  67              		.thumb
  68              	.LBE2:
  69              		.loc 1 90 0
  70 0008 FFF7FEFF 		bl	rtc_lld_set_time
  71              	.LVL4:
  72              	.LBB3:
  73              		.loc 1 91 0
  74 000c 0023     		movs	r3, #0
  75              	.LVL5:
  76              	@ 91 "../../../ChibiOS/os/hal/src/rtc.c" 1
  77 000e 83F31188 		msr     BASEPRI, r3
  78              	@ 0 "" 2
  79              	.LVL6:
  80              		.thumb
  81 0012 08BD     		pop	{r3, pc}
  82              	.LBE3:
  83              		.cfi_endproc
  84              	.LFE119:
  85              		.size	rtcSetTime, .-rtcSetTime
  86 0014 AFF30080 		.section	.text.rtcGetTime,"ax",%progbits
  86      AFF30080 
  86      AFF30080 
  87              		.align	2
  88              		.p2align 4,,15
  89              		.global	rtcGetTime
  90              		.thumb
  91              		.thumb_func
  92              		.type	rtcGetTime, %function
  93              	rtcGetTime:
  94              	.LFB120:
  95              		.loc 1 102 0
  96              		.cfi_startproc
  97              		@ args = 0, pretend = 0, frame = 0
  98              		@ frame_needed = 0, uses_anonymous_args = 0
  99              	.LVL7:
 100 0000 08B5     		push	{r3, lr}
 101              	.LCFI1:
 102              		.cfi_def_cfa_offset 8
 103              		.cfi_offset 3, -8
 104              		.cfi_offset 14, -4
 105              	.LBB4:
 106              		.loc 1 106 0
 107 0002 2023     		movs	r3, #32
 108              	.LVL8:
 109              	@ 106 "../../../ChibiOS/os/hal/src/rtc.c" 1
 110 0004 83F31188 		msr     BASEPRI, r3
ARM GAS  C:\Users\DNIEL~1\AppData\Local\Temp\cc2k9ybe.s 			page 3


 111              	@ 0 "" 2
 112              	.LVL9:
 113              		.thumb
 114              	.LBE4:
 115              		.loc 1 107 0
 116 0008 FFF7FEFF 		bl	rtc_lld_get_time
 117              	.LVL10:
 118              	.LBB5:
 119              		.loc 1 108 0
 120 000c 0023     		movs	r3, #0
 121              	.LVL11:
 122              	@ 108 "../../../ChibiOS/os/hal/src/rtc.c" 1
 123 000e 83F31188 		msr     BASEPRI, r3
 124              	@ 0 "" 2
 125              	.LVL12:
 126              		.thumb
 127 0012 08BD     		pop	{r3, pc}
 128              	.LBE5:
 129              		.cfi_endproc
 130              	.LFE120:
 131              		.size	rtcGetTime, .-rtcGetTime
 132 0014 AFF30080 		.section	.text.rtcSetAlarm,"ax",%progbits
 132      AFF30080 
 132      AFF30080 
 133              		.align	2
 134              		.p2align 4,,15
 135              		.global	rtcSetAlarm
 136              		.thumb
 137              		.thumb_func
 138              		.type	rtcSetAlarm, %function
 139              	rtcSetAlarm:
 140              	.LFB121:
 141              		.loc 1 123 0
 142              		.cfi_startproc
 143              		@ args = 0, pretend = 0, frame = 0
 144              		@ frame_needed = 0, uses_anonymous_args = 0
 145              	.LVL13:
 146 0000 08B5     		push	{r3, lr}
 147              	.LCFI2:
 148              		.cfi_def_cfa_offset 8
 149              		.cfi_offset 3, -8
 150              		.cfi_offset 14, -4
 151              	.LBB6:
 152              		.loc 1 127 0
 153 0002 2023     		movs	r3, #32
 154              	.LVL14:
 155              	@ 127 "../../../ChibiOS/os/hal/src/rtc.c" 1
 156 0004 83F31188 		msr     BASEPRI, r3
 157              	@ 0 "" 2
 158              	.LVL15:
 159              		.thumb
 160              	.LBE6:
 161              		.loc 1 128 0
 162 0008 FFF7FEFF 		bl	rtc_lld_set_alarm
 163              	.LVL16:
 164              	.LBB7:
 165              		.loc 1 129 0
ARM GAS  C:\Users\DNIEL~1\AppData\Local\Temp\cc2k9ybe.s 			page 4


 166 000c 0023     		movs	r3, #0
 167              	.LVL17:
 168              	@ 129 "../../../ChibiOS/os/hal/src/rtc.c" 1
 169 000e 83F31188 		msr     BASEPRI, r3
 170              	@ 0 "" 2
 171              	.LVL18:
 172              		.thumb
 173 0012 08BD     		pop	{r3, pc}
 174              	.LBE7:
 175              		.cfi_endproc
 176              	.LFE121:
 177              		.size	rtcSetAlarm, .-rtcSetAlarm
 178 0014 AFF30080 		.section	.text.rtcGetAlarm,"ax",%progbits
 178      AFF30080 
 178      AFF30080 
 179              		.align	2
 180              		.p2align 4,,15
 181              		.global	rtcGetAlarm
 182              		.thumb
 183              		.thumb_func
 184              		.type	rtcGetAlarm, %function
 185              	rtcGetAlarm:
 186              	.LFB122:
 187              		.loc 1 145 0
 188              		.cfi_startproc
 189              		@ args = 0, pretend = 0, frame = 0
 190              		@ frame_needed = 0, uses_anonymous_args = 0
 191              	.LVL19:
 192 0000 08B5     		push	{r3, lr}
 193              	.LCFI3:
 194              		.cfi_def_cfa_offset 8
 195              		.cfi_offset 3, -8
 196              		.cfi_offset 14, -4
 197              	.LBB8:
 198              		.loc 1 150 0
 199 0002 2023     		movs	r3, #32
 200              	.LVL20:
 201              	@ 150 "../../../ChibiOS/os/hal/src/rtc.c" 1
 202 0004 83F31188 		msr     BASEPRI, r3
 203              	@ 0 "" 2
 204              	.LVL21:
 205              		.thumb
 206              	.LBE8:
 207              		.loc 1 151 0
 208 0008 FFF7FEFF 		bl	rtc_lld_get_alarm
 209              	.LVL22:
 210              	.LBB9:
 211              		.loc 1 152 0
 212 000c 0023     		movs	r3, #0
 213              	.LVL23:
 214              	@ 152 "../../../ChibiOS/os/hal/src/rtc.c" 1
 215 000e 83F31188 		msr     BASEPRI, r3
 216              	@ 0 "" 2
 217              	.LVL24:
 218              		.thumb
 219 0012 08BD     		pop	{r3, pc}
 220              	.LBE9:
ARM GAS  C:\Users\DNIEL~1\AppData\Local\Temp\cc2k9ybe.s 			page 5


 221              		.cfi_endproc
 222              	.LFE122:
 223              		.size	rtcGetAlarm, .-rtcGetAlarm
 224 0014 AFF30080 		.section	.text.rtcGetTimeFat,"ax",%progbits
 224      AFF30080 
 224      AFF30080 
 225              		.align	2
 226              		.p2align 4,,15
 227              		.global	rtcGetTimeFat
 228              		.thumb
 229              		.thumb_func
 230              		.type	rtcGetTimeFat, %function
 231              	rtcGetTimeFat:
 232              	.LFB123:
 233              		.loc 1 185 0
 234              		.cfi_startproc
 235              		@ args = 0, pretend = 0, frame = 0
 236              		@ frame_needed = 0, uses_anonymous_args = 0
 237              		@ link register save eliminated.
 238              	.LVL25:
 239              		.loc 1 189 0
 240              		.loc 1 188 0
 241 0000 FFF7FEBF 		b	rtc_lld_get_time_fat
 242              	.LVL26:
 243              		.cfi_endproc
 244              	.LFE123:
 245              		.size	rtcGetTimeFat, .-rtcGetTimeFat
 246 0004 AFF30080 		.text
 246      AFF30080 
 246      AFF30080 
 247              	.Letext0:
 248              		.file 2 "c:\\chibistudio\\tools\\gnu tools arm embedded\\4.7 2014q2\\bin\\../lib/gcc/arm-none-eabi
 249              		.file 3 "../../../ChibiOS/os/ports/GCC/ARMCMx/chtypes.h"
 250              		.file 4 "../../../ChibiOS/os/hal/platforms/STM32F4xx/stm32f4xx.h"
 251              		.file 5 "../../../ChibiOS/os/hal/include/rtc.h"
 252              		.file 6 "../../../ChibiOS/os/hal/platforms/STM32/RTCv2/rtc_lld.h"
 253              		.file 7 "../../../ChibiOS/os/ports/common/ARMCMx/CMSIS/include/core_cm4.h"