ARM GAS  C:\Users\DNIEL~1\AppData\Local\Temp\cc2k9ybe.s 			page 1


   1              		.syntax unified
   2              		.cpu cortex-m4
   3              		.fpu softvfp
   4              		.eabi_attribute 20, 1
   5              		.eabi_attribute 21, 1
   6              		.eabi_attribute 23, 3
   7              		.eabi_attribute 24, 1
   8              		.eabi_attribute 25, 1
   9              		.eabi_attribute 26, 1
  10              		.eabi_attribute 30, 2
  11              		.eabi_attribute 34, 1
  12              		.eabi_attribute 18, 4
  13              		.thumb
  14              		.file	"rtc.c"
  15              		.text
  16              	.Ltext0:
  17              		.cfi_sections	.debug_frame
  18              		.section	.text.rtcInit,"ax",%progbits
  19              		.align	2
  20              		.p2align 4,,15
  21              		.global	rtcInit
  22              		.thumb
  23              		.thumb_func
  24              		.type	rtcInit, %function
  25              	rtcInit:
  26              	.LFB118:
  27              		.file 1 "../../../ChibiOS/os/hal/src/rtc.c"
  28              		.loc 1 72 0
  29              		.cfi_startproc
  30              		@ args = 0, pretend = 0, frame = 0
  31              		@ frame_needed = 0, uses_anonymous_args = 0
  32              		@ link register save eliminated.
  33              		.loc 1 75 0
  34              		.loc 1 74 0
  35 0000 FFF7FEBF 		b	rtc_lld_init
  36              	.LVL0:
  37              		.cfi_endproc
  38              	.LFE118:
  39              		.size	rtcInit, .-rtcInit
  40 0004 AFF30080 		.section	.text.rtcSetTime,"ax",%progbits
  40      AFF30080 
  40      AFF30080 
  41              		.align	2
  42              		.p2align 4,,15
  43              		.global	rtcSetTime
  44              		.thumb
  45              		.thumb_func
  46              		.type	rtcSetTime, %function
  47              	rtcSetTime:
  48              	.LFB119:
  49              		.loc 1 85 0
  50              		.cfi_startproc
  51              		@ args = 0, pretend = 0, frame = 0
  52              		@ frame_needed = 0, uses_anonymous_args = 0
  53              	.LVL1:
  54 0000 08B5     		push	{r3, lr}
  55              	.LCFI0:
ARM GAS  C:\Users\DNIEL~1\AppData\Local\Temp\cc2k9ybe.s 			page 2


  56              		.cfi_def_cfa_offset 8
  57              		.cfi_offset 3, -8
  58              		.cfi_offset 14, -4
  59              	.LBB2:
  60              		.loc 1 89 0
  61 0002 2023     		movs	r3, #32
  62              	.LVL2:
  63              	@ 89 "../../../ChibiOS/os/hal/src/rtc.c" 1
  64 0004 83F31188 		msr     BASEPRI, r3
  65              	@ 0 "" 2
  66              	.LVL3:
  67              		.thumb
  68              	.LBE2:
  69              		.loc 1 90 0
  70 0008 FFF7FEFF 		bl	rtc_lld_set_time
  71              	.LVL4:
  72              	.LBB3:
  73              		.loc 1 91 0
  74 000c 0023     		movs	r3, #0
  75              	.LVL5:
  76              	@ 91 "../../../ChibiOS/os/hal/src/rtc.c" 1
  77 000e 83F31188 		msr     BASEPRI, r3
  78              	@ 0 "" 2
  79              	.LVL6:
  80              		.thumb
  81 0012 08BD     		pop	{r3, pc}
  82              	.LBE3:
  83              		.cfi_endproc
  84              	.LFE119:
  85              		.size	rtcSetTime, .-rtcSetTime
  86 0014 AFF30080 		.section	.text.rtcGetTime,"ax",%progbits
  86      AFF30080 
  86      AFF30080 
  87              		.align	2
  88              		.p2align 4,,15
  89              		.global	rtcGetTime
  90              		.thumb
  91              		.thumb_func
  92              		.type	rtcGetTime, %function
  93              	rtcGetTime:
  94              	.LFB120:
  95              		.loc 1 102 0
  96              		.cfi_startproc
  97              		@ args = 0, pretend = 0, frame = 0
  98              		@ frame_needed = 0, uses_anonymous_args = 0
  99              	.LVL7:
 100 0000 08B5     		push	{r3, lr}
 101              	.LCFI1:
 102              		.cfi_def_cfa_offset 8
 103              		.cfi_offset 3, -8
 104              		.cfi_offset 14, -4
 105              	.LBB4:
 106              		.loc 1 106 0
 107 0002 2023     		movs	r3, #32
 108              	.LVL8:
 109              	@ 106 "../../../ChibiOS/os/hal/src/rtc.c" 1
 110 0004 83F31188 		msr     BASEPRI, r3
ARM GAS  C:\Users\DNIEL~1\AppData\Local\Temp\cc2k9ybe.s 			page 3


 111              	@ 0 "" 2
 112              	.LVL9:
 113              		.thumb
 114              	.LBE4:
 115              		.loc 1 107 0
 116 0008 FFF7FEFF 		bl	rtc_lld_get_time
 117              	.LVL10:
 118              	.LBB5:
 119              		.loc 1 108 0
 120 000c 0023     		movs	r3, #0
 121              	.LVL11:
 122              	@ 108 "../../../ChibiOS/os/hal/src/rtc.c" 1
 123 000e 83F31188 		msr     BASEPRI, r3
 124              	@ 0 "" 2
 125              	.LVL12:
 126              		.thumb
 127 0012 08BD     		pop	{r3, pc}
 128              	.LBE5:
 129              		.cfi_endproc
 130              	.LFE120:
 131              		.size	rtcGetTime, .-rtcGetTime
 132 0014 AFF30080 		.section	.text.rtcSetAlarm,"ax",%progbits
 132      AFF30080 
 132      AFF30080 
 133              		.align	2
 134              		.p2align 4,,15
 135              		.global	rtcSetAlarm
 136              		.thumb
 137              		.thumb_func
 138              		.type	rtcSetAlarm, %function
 139              	rtcSetAlarm:
 140              	.LFB121:
 141              		.loc 1 123 0
 142              		.cfi_startproc
 143              		@ args = 0, pretend = 0, frame = 0
 144              		@ frame_needed = 0, uses_anonymous_args = 0
 145              	.LVL13:
 146 0000 08B5     		push	{r3, lr}
 147              	.LCFI2:
 148              		.cfi_def_cfa_offset 8
 149              		.cfi_offset 3, -8
 150              		.cfi_offset 14, -4
 151              	.LBB6:
 152              		.loc 1 127 0
 153 0002 2023     		movs	r3, #32
 154              	.LVL14:
 155              	@ 127 "../../../ChibiOS/os/hal/src/rtc.c" 1
 156 0004 83F31188 		msr     BASEPRI, r3
 157              	@ 0 "" 2
 158              	.LVL15:
 159              		.thumb
 160              	.LBE6:
 161              		.loc 1 128 0
 162 0008 FFF7FEFF 		bl	rtc_lld_set_alarm
 163              	.LVL16:
 164              	.LBB7:
 165              		.loc 1 129 0
ARM GAS  C:\Users\DNIEL~1\AppData\Local\Temp\cc2k9ybe.s 			page 4


 166 000c 0023     		movs	r3, #0
 167              	.LVL17:
 168              	@ 129 "../../../ChibiOS/os/hal/src/rtc.c" 1
 169 000e 83F31188 		msr     BASEPRI, r3
 170              	@ 0 "" 2
 171              	.LVL18:
 172              		.thumb
 173 0012 08BD     		pop	{r3, pc}
 174              	.LBE7:
 175              		.cfi_endproc
 176              	.LFE121:
 177              		.size	rtcSetAlarm, .-rtcSetAlarm
 178 0014 AFF30080 		.section	.text.rtcGetAlarm,"ax",%progbits
 178      AFF30080 
 178      AFF30080 
 179              		.align	2
 180              		.p2align 4,,15
 181              		.global	rtcGetAlarm
 182              		.thumb
 183              		.thumb_func
 184              		.type	rtcGetAlarm, %function
 185              	rtcGetAlarm:
 186              	.LFB122:
 187              		.loc 1 145 0
 188              		.cfi_startproc
 189              		@ args = 0, pretend = 0, frame = 0
 190              		@ frame_needed = 0, uses_anonymous_args = 0
 191              	.LVL19:
 192 0000 08B5     		push	{r3, lr}
 193              	.LCFI3:
 194              		.cfi_def_cfa_offset 8
 195              		.cfi_offset 3, -8
 196              		.cfi_offset 14, -4
 197              	.LBB8:
 198              		.loc 1 150 0
 199 0002 2023     		movs	r3, #32
 200              	.LVL20:
 201              	@ 150 "../../../ChibiOS/os/hal/src/rtc.c" 1
 202 0004 83F31188 		msr     BASEPRI, r3
 203              	@ 0 "" 2
 204              	.LVL21:
 205              		.thumb
 206              	.LBE8:
 207              		.loc 1 151 0
 208 0008 FFF7FEFF 		bl	rtc_lld_get_alarm
 209              	.LVL22:
 210              	.LBB9:
 211              		.loc 1 152 0
 212 000c 0023     		movs	r3, #0
 213              	.LVL23:
 214              	@ 152 "../../../ChibiOS/os/hal/src/rtc.c" 1
 215 000e 83F31188 		msr     BASEPRI, r3
 216              	@ 0 "" 2
 217              	.LVL24:
 218              		.thumb
 219 0012 08BD     		pop	{r3, pc}
 220              	.LBE9:
ARM GAS  C:\Users\DNIEL~1\AppData\Local\Temp\cc2k9ybe.s 			page 5


 221              		.cfi_endproc
 222              	.LFE122:
 223              		.size	rtcGetAlarm, .-rtcGetAlarm
 224 0014 AFF30080 		.section	.text.rtcGetTimeFat,"ax",%progbits
 224      AFF30080 
 224      AFF30080 
 225              		.align	2
 226              		.p2align 4,,15
 227              		.global	rtcGetTimeFat
 228              		.thumb
 229              		.thumb_func
 230              		.type	rtcGetTimeFat, %function
 231              	rtcGetTimeFat:
 232              	.LFB123:
 233              		.loc 1 185 0
 234              		.cfi_startproc
 235              		@ args = 0, pretend = 0, frame = 0
 236              		@ frame_needed = 0, uses_anonymous_args = 0
 237              		@ link register save eliminated.
 238              	.LVL25:
 239              		.loc 1 189 0
 240              		.loc 1 188 0
 241 0000 FFF7FEBF 		b	rtc_lld_get_time_fat
 242              	.LVL26:
 243              		.cfi_endproc
 244              	.LFE123:
 245              		.size	rtcGetTimeFat, .-rtcGetTimeFat
 246 0004 AFF30080 		.text
 246      AFF30080 
 246      AFF30080 
 247              	.Letext0:
 248              		.file 2 "c:\\chibistudio\\tools\\gnu tools arm embedded\\4.7 2014q2\\bin\\../lib/gcc/arm-none-eabi
 249              		.file 3 "../../../ChibiOS/os/ports/GCC/ARMCMx/chtypes.h"
 250              		.file 4 "../../../ChibiOS/os/hal/platforms/STM32F4xx/stm32f4xx.h"
 251              		.file 5 "../../../ChibiOS/os/hal/include/rtc.h"
 252              		.file 6 "../../../ChibiOS/os/hal/platforms/STM32/RTCv2/rtc_lld.h"
 253              		.file 7 "../../../ChibiOS/os/ports/common/ARMCMx/CMSIS/include/core_cm4.h"
 254              		.section	.debug_info,"",%progbits
 255              	.Ldebug_info0:
 256 0000 49070000 		.4byte	0x749
 257 0004 0200     		.2byte	0x2
 258 0006 00000000 		.4byte	.Ldebug_abbrev0
 259 000a 04       		.byte	0x4
 260 000b 01       		.uleb128 0x1
 261 000c 56000000 		.4byte	.LASF73
 262 0010 01       		.byte	0x1
 263 0011 DF020000 		.4byte	.LASF74
 264 0015 12000000 		.4byte	.LASF75
 265 0019 00000000 		.4byte	.Ldebug_ranges0+0
 266 001d 00000000 		.4byte	0
 267 0021 00000000 		.4byte	0
 268 0025 00000000 		.4byte	.Ldebug_line0
 269 0029 02       		.uleb128 0x2
 270 002a 04       		.byte	0x4
 271 002b 05       		.byte	0x5
 272 002c 696E7400 		.ascii	"int\000"
 273 0030 03       		.uleb128 0x3
ARM GAS  C:\Users\DNIEL~1\AppData\Local\Temp\cc2k9ybe.s 			page 6


 274 0031 04       		.byte	0x4
 275 0032 07       		.byte	0x7
 276 0033 D9010000 		.4byte	.LASF0
 277 0037 03       		.uleb128 0x3
 278 0038 01       		.byte	0x1
 279 0039 06       		.byte	0x6
 280 003a A6010000 		.4byte	.LASF1
 281 003e 03       		.uleb128 0x3
 282 003f 01       		.byte	0x1
 283 0040 08       		.byte	0x8
 284 0041 80010000 		.4byte	.LASF2
 285 0045 03       		.uleb128 0x3
 286 0046 02       		.byte	0x2
 287 0047 05       		.byte	0x5
 288 0048 43000000 		.4byte	.LASF3
 289 004c 03       		.uleb128 0x3
 290 004d 02       		.byte	0x2
 291 004e 07       		.byte	0x7
 292 004f F6010000 		.4byte	.LASF4
 293 0053 04       		.uleb128 0x4
 294 0054 14020000 		.4byte	.LASF6
 295 0058 02       		.byte	0x2
 296 0059 4F       		.byte	0x4f
 297 005a 5E000000 		.4byte	0x5e
 298 005e 03       		.uleb128 0x3
 299 005f 04       		.byte	0x4
 300 0060 05       		.byte	0x5
 301 0061 22010000 		.4byte	.LASF5
 302 0065 04       		.uleb128 0x4
 303 0066 C9010000 		.4byte	.LASF7
 304 006a 02       		.byte	0x2
 305 006b 50       		.byte	0x50
 306 006c 70000000 		.4byte	0x70
 307 0070 03       		.uleb128 0x3
 308 0071 04       		.byte	0x4
 309 0072 07       		.byte	0x7
 310 0073 4D020000 		.4byte	.LASF8
 311 0077 03       		.uleb128 0x3
 312 0078 08       		.byte	0x8
 313 0079 05       		.byte	0x5
 314 007a F1000000 		.4byte	.LASF9
 315 007e 03       		.uleb128 0x3
 316 007f 08       		.byte	0x8
 317 0080 07       		.byte	0x7
 318 0081 B2010000 		.4byte	.LASF10
 319 0085 04       		.uleb128 0x4
 320 0086 1C020000 		.4byte	.LASF11
 321 008a 03       		.byte	0x3
 322 008b 2B       		.byte	0x2b
 323 008c 90000000 		.4byte	0x90
 324 0090 03       		.uleb128 0x3
 325 0091 01       		.byte	0x1
 326 0092 02       		.byte	0x2
 327 0093 2C020000 		.4byte	.LASF12
 328 0097 05       		.uleb128 0x5
 329 0098 65000000 		.4byte	0x65
 330 009c 03       		.uleb128 0x3
ARM GAS  C:\Users\DNIEL~1\AppData\Local\Temp\cc2k9ybe.s 			page 7


 331 009d 04       		.byte	0x4
 332 009e 07       		.byte	0x7
 333 009f 4D000000 		.4byte	.LASF13
 334 00a3 03       		.uleb128 0x3
 335 00a4 01       		.byte	0x1
 336 00a5 08       		.byte	0x8
 337 00a6 09020000 		.4byte	.LASF14
 338 00aa 05       		.uleb128 0x5
 339 00ab 53000000 		.4byte	0x53
 340 00af 06       		.uleb128 0x6
 341 00b0 A0       		.byte	0xa0
 342 00b1 04       		.byte	0x4
 343 00b2 8104     		.2byte	0x481
 344 00b4 16030000 		.4byte	0x316
 345 00b8 07       		.uleb128 0x7
 346 00b9 545200   		.ascii	"TR\000"
 347 00bc 04       		.byte	0x4
 348 00bd 8304     		.2byte	0x483
 349 00bf 97000000 		.4byte	0x97
 350 00c3 02       		.byte	0x2
 351 00c4 23       		.byte	0x23
 352 00c5 00       		.uleb128 0
 353 00c6 07       		.uleb128 0x7
 354 00c7 445200   		.ascii	"DR\000"
 355 00ca 04       		.byte	0x4
 356 00cb 8404     		.2byte	0x484
 357 00cd 97000000 		.4byte	0x97
 358 00d1 02       		.byte	0x2
 359 00d2 23       		.byte	0x23
 360 00d3 04       		.uleb128 0x4
 361 00d4 07       		.uleb128 0x7
 362 00d5 435200   		.ascii	"CR\000"
 363 00d8 04       		.byte	0x4
 364 00d9 8504     		.2byte	0x485
 365 00db 97000000 		.4byte	0x97
 366 00df 02       		.byte	0x2
 367 00e0 23       		.byte	0x23
 368 00e1 08       		.uleb128 0x8
 369 00e2 07       		.uleb128 0x7
 370 00e3 49535200 		.ascii	"ISR\000"
 371 00e7 04       		.byte	0x4
 372 00e8 8604     		.2byte	0x486
 373 00ea 97000000 		.4byte	0x97
 374 00ee 02       		.byte	0x2
 375 00ef 23       		.byte	0x23
 376 00f0 0C       		.uleb128 0xc
 377 00f1 08       		.uleb128 0x8
 378 00f2 E6000000 		.4byte	.LASF15
 379 00f6 04       		.byte	0x4
 380 00f7 8704     		.2byte	0x487
 381 00f9 97000000 		.4byte	0x97
 382 00fd 02       		.byte	0x2
 383 00fe 23       		.byte	0x23
 384 00ff 10       		.uleb128 0x10
 385 0100 08       		.uleb128 0x8
 386 0101 A4000000 		.4byte	.LASF16
 387 0105 04       		.byte	0x4
ARM GAS  C:\Users\DNIEL~1\AppData\Local\Temp\cc2k9ybe.s 			page 8


 388 0106 8804     		.2byte	0x488
 389 0108 97000000 		.4byte	0x97
 390 010c 02       		.byte	0x2
 391 010d 23       		.byte	0x23
 392 010e 14       		.uleb128 0x14
 393 010f 08       		.uleb128 0x8
 394 0110 10010000 		.4byte	.LASF17
 395 0114 04       		.byte	0x4
 396 0115 8904     		.2byte	0x489
 397 0117 97000000 		.4byte	0x97
 398 011b 02       		.byte	0x2
 399 011c 23       		.byte	0x23
 400 011d 18       		.uleb128 0x18
 401 011e 08       		.uleb128 0x8
 402 011f D2010000 		.4byte	.LASF18
 403 0123 04       		.byte	0x4
 404 0124 8A04     		.2byte	0x48a
 405 0126 97000000 		.4byte	0x97
 406 012a 02       		.byte	0x2
 407 012b 23       		.byte	0x23
 408 012c 1C       		.uleb128 0x1c
 409 012d 08       		.uleb128 0x8
 410 012e 9B020000 		.4byte	.LASF19
 411 0132 04       		.byte	0x4
 412 0133 8B04     		.2byte	0x48b
 413 0135 97000000 		.4byte	0x97
 414 0139 02       		.byte	0x2
 415 013a 23       		.byte	0x23
 416 013b 20       		.uleb128 0x20
 417 013c 07       		.uleb128 0x7
 418 013d 57505200 		.ascii	"WPR\000"
 419 0141 04       		.byte	0x4
 420 0142 8C04     		.2byte	0x48c
 421 0144 97000000 		.4byte	0x97
 422 0148 02       		.byte	0x2
 423 0149 23       		.byte	0x23
 424 014a 24       		.uleb128 0x24
 425 014b 07       		.uleb128 0x7
 426 014c 53535200 		.ascii	"SSR\000"
 427 0150 04       		.byte	0x4
 428 0151 8D04     		.2byte	0x48d
 429 0153 97000000 		.4byte	0x97
 430 0157 02       		.byte	0x2
 431 0158 23       		.byte	0x23
 432 0159 28       		.uleb128 0x28
 433 015a 08       		.uleb128 0x8
 434 015b 17030000 		.4byte	.LASF20
 435 015f 04       		.byte	0x4
 436 0160 8E04     		.2byte	0x48e
 437 0162 97000000 		.4byte	0x97
 438 0166 02       		.byte	0x2
 439 0167 23       		.byte	0x23
 440 0168 2C       		.uleb128 0x2c
 441 0169 08       		.uleb128 0x8
 442 016a F1010000 		.4byte	.LASF21
 443 016e 04       		.byte	0x4
 444 016f 8F04     		.2byte	0x48f
ARM GAS  C:\Users\DNIEL~1\AppData\Local\Temp\cc2k9ybe.s 			page 9


 445 0171 97000000 		.4byte	0x97
 446 0175 02       		.byte	0x2
 447 0176 23       		.byte	0x23
 448 0177 30       		.uleb128 0x30
 449 0178 08       		.uleb128 0x8
 450 0179 CF000000 		.4byte	.LASF22
 451 017d 04       		.byte	0x4
 452 017e 9004     		.2byte	0x490
 453 0180 97000000 		.4byte	0x97
 454 0184 02       		.byte	0x2
 455 0185 23       		.byte	0x23
 456 0186 34       		.uleb128 0x34
 457 0187 08       		.uleb128 0x8
 458 0188 0A030000 		.4byte	.LASF23
 459 018c 04       		.byte	0x4
 460 018d 9104     		.2byte	0x491
 461 018f 97000000 		.4byte	0x97
 462 0193 02       		.byte	0x2
 463 0194 23       		.byte	0x23
 464 0195 38       		.uleb128 0x38
 465 0196 08       		.uleb128 0x8
 466 0197 9F000000 		.4byte	.LASF24
 467 019b 04       		.byte	0x4
 468 019c 9204     		.2byte	0x492
 469 019e 97000000 		.4byte	0x97
 470 01a2 02       		.byte	0x2
 471 01a3 23       		.byte	0x23
 472 01a4 3C       		.uleb128 0x3c
 473 01a5 08       		.uleb128 0x8
 474 01a6 4E010000 		.4byte	.LASF25
 475 01aa 04       		.byte	0x4
 476 01ab 9304     		.2byte	0x493
 477 01ad 97000000 		.4byte	0x97
 478 01b1 02       		.byte	0x2
 479 01b2 23       		.byte	0x23
 480 01b3 40       		.uleb128 0x40
 481 01b4 08       		.uleb128 0x8
 482 01b5 8E010000 		.4byte	.LASF26
 483 01b9 04       		.byte	0x4
 484 01ba 9404     		.2byte	0x494
 485 01bc 97000000 		.4byte	0x97
 486 01c0 02       		.byte	0x2
 487 01c1 23       		.byte	0x23
 488 01c2 44       		.uleb128 0x44
 489 01c3 08       		.uleb128 0x8
 490 01c4 23020000 		.4byte	.LASF27
 491 01c8 04       		.byte	0x4
 492 01c9 9504     		.2byte	0x495
 493 01cb 97000000 		.4byte	0x97
 494 01cf 02       		.byte	0x2
 495 01d0 23       		.byte	0x23
 496 01d1 48       		.uleb128 0x48
 497 01d2 08       		.uleb128 0x8
 498 01d3 5F020000 		.4byte	.LASF28
 499 01d7 04       		.byte	0x4
 500 01d8 9604     		.2byte	0x496
 501 01da 65000000 		.4byte	0x65
ARM GAS  C:\Users\DNIEL~1\AppData\Local\Temp\cc2k9ybe.s 			page 10


 502 01de 02       		.byte	0x2
 503 01df 23       		.byte	0x23
 504 01e0 4C       		.uleb128 0x4c
 505 01e1 08       		.uleb128 0x8
 506 01e2 95020000 		.4byte	.LASF29
 507 01e6 04       		.byte	0x4
 508 01e7 9704     		.2byte	0x497
 509 01e9 97000000 		.4byte	0x97
 510 01ed 02       		.byte	0x2
 511 01ee 23       		.byte	0x23
 512 01ef 50       		.uleb128 0x50
 513 01f0 08       		.uleb128 0x8
 514 01f1 7A020000 		.4byte	.LASF30
 515 01f5 04       		.byte	0x4
 516 01f6 9804     		.2byte	0x498
 517 01f8 97000000 		.4byte	0x97
 518 01fc 02       		.byte	0x2
 519 01fd 23       		.byte	0x23
 520 01fe 54       		.uleb128 0x54
 521 01ff 08       		.uleb128 0x8
 522 0200 3D000000 		.4byte	.LASF31
 523 0204 04       		.byte	0x4
 524 0205 9904     		.2byte	0x499
 525 0207 97000000 		.4byte	0x97
 526 020b 02       		.byte	0x2
 527 020c 23       		.byte	0x23
 528 020d 58       		.uleb128 0x58
 529 020e 08       		.uleb128 0x8
 530 020f EB000000 		.4byte	.LASF32
 531 0213 04       		.byte	0x4
 532 0214 9A04     		.2byte	0x49a
 533 0216 97000000 		.4byte	0x97
 534 021a 02       		.byte	0x2
 535 021b 23       		.byte	0x23
 536 021c 5C       		.uleb128 0x5c
 537 021d 08       		.uleb128 0x8
 538 021e EB010000 		.4byte	.LASF33
 539 0222 04       		.byte	0x4
 540 0223 9B04     		.2byte	0x49b
 541 0225 97000000 		.4byte	0x97
 542 0229 02       		.byte	0x2
 543 022a 23       		.byte	0x23
 544 022b 60       		.uleb128 0x60
 545 022c 08       		.uleb128 0x8
 546 022d C6020000 		.4byte	.LASF34
 547 0231 04       		.byte	0x4
 548 0232 9C04     		.2byte	0x49c
 549 0234 97000000 		.4byte	0x97
 550 0238 02       		.byte	0x2
 551 0239 23       		.byte	0x23
 552 023a 64       		.uleb128 0x64
 553 023b 08       		.uleb128 0x8
 554 023c 00000000 		.4byte	.LASF35
 555 0240 04       		.byte	0x4
 556 0241 9D04     		.2byte	0x49d
 557 0243 97000000 		.4byte	0x97
 558 0247 02       		.byte	0x2
ARM GAS  C:\Users\DNIEL~1\AppData\Local\Temp\cc2k9ybe.s 			page 11


 559 0248 23       		.byte	0x23
 560 0249 68       		.uleb128 0x68
 561 024a 08       		.uleb128 0x8
 562 024b 32010000 		.4byte	.LASF36
 563 024f 04       		.byte	0x4
 564 0250 9E04     		.2byte	0x49e
 565 0252 97000000 		.4byte	0x97
 566 0256 02       		.byte	0x2
 567 0257 23       		.byte	0x23
 568 0258 6C       		.uleb128 0x6c
 569 0259 08       		.uleb128 0x8
 570 025a 0E020000 		.4byte	.LASF37
 571 025e 04       		.byte	0x4
 572 025f 9F04     		.2byte	0x49f
 573 0261 97000000 		.4byte	0x97
 574 0265 02       		.byte	0x2
 575 0266 23       		.byte	0x23
 576 0267 70       		.uleb128 0x70
 577 0268 08       		.uleb128 0x8
 578 0269 1E030000 		.4byte	.LASF38
 579 026d 04       		.byte	0x4
 580 026e A004     		.2byte	0x4a0
 581 0270 97000000 		.4byte	0x97
 582 0274 02       		.byte	0x2
 583 0275 23       		.byte	0x23
 584 0276 74       		.uleb128 0x74
 585 0277 08       		.uleb128 0x8
 586 0278 2B010000 		.4byte	.LASF39
 587 027c 04       		.byte	0x4
 588 027d A104     		.2byte	0x4a1
 589 027f 97000000 		.4byte	0x97
 590 0283 02       		.byte	0x2
 591 0284 23       		.byte	0x23
 592 0285 78       		.uleb128 0x78
 593 0286 08       		.uleb128 0x8
 594 0287 A2020000 		.4byte	.LASF40
 595 028b 04       		.byte	0x4
 596 028c A204     		.2byte	0x4a2
 597 028e 97000000 		.4byte	0x97
 598 0292 02       		.byte	0x2
 599 0293 23       		.byte	0x23
 600 0294 7C       		.uleb128 0x7c
 601 0295 08       		.uleb128 0x8
 602 0296 10030000 		.4byte	.LASF41
 603 029a 04       		.byte	0x4
 604 029b A304     		.2byte	0x4a3
 605 029d 97000000 		.4byte	0x97
 606 02a1 03       		.byte	0x3
 607 02a2 23       		.byte	0x23
 608 02a3 8001     		.uleb128 0x80
 609 02a5 08       		.uleb128 0x8
 610 02a6 A9000000 		.4byte	.LASF42
 611 02aa 04       		.byte	0x4
 612 02ab A404     		.2byte	0x4a4
 613 02ad 97000000 		.4byte	0x97
 614 02b1 03       		.byte	0x3
 615 02b2 23       		.byte	0x23
ARM GAS  C:\Users\DNIEL~1\AppData\Local\Temp\cc2k9ybe.s 			page 12


 616 02b3 8401     		.uleb128 0x84
 617 02b5 08       		.uleb128 0x8
 618 02b6 41010000 		.4byte	.LASF43
 619 02ba 04       		.byte	0x4
 620 02bb A504     		.2byte	0x4a5
 621 02bd 97000000 		.4byte	0x97
 622 02c1 03       		.byte	0x3
 623 02c2 23       		.byte	0x23
 624 02c3 8801     		.uleb128 0x88
 625 02c5 08       		.uleb128 0x8
 626 02c6 32020000 		.4byte	.LASF44
 627 02ca 04       		.byte	0x4
 628 02cb A604     		.2byte	0x4a6
 629 02cd 97000000 		.4byte	0x97
 630 02d1 03       		.byte	0x3
 631 02d2 23       		.byte	0x23
 632 02d3 8C01     		.uleb128 0x8c
 633 02d5 08       		.uleb128 0x8
 634 02d6 40030000 		.4byte	.LASF45
 635 02da 04       		.byte	0x4
 636 02db A704     		.2byte	0x4a7
 637 02dd 97000000 		.4byte	0x97
 638 02e1 03       		.byte	0x3
 639 02e2 23       		.byte	0x23
 640 02e3 9001     		.uleb128 0x90
 641 02e5 08       		.uleb128 0x8
 642 02e6 C8000000 		.4byte	.LASF46
 643 02ea 04       		.byte	0x4
 644 02eb A804     		.2byte	0x4a8
 645 02ed 97000000 		.4byte	0x97
 646 02f1 03       		.byte	0x3
 647 02f2 23       		.byte	0x23
 648 02f3 9401     		.uleb128 0x94
 649 02f5 08       		.uleb128 0x8
 650 02f6 97010000 		.4byte	.LASF47
 651 02fa 04       		.byte	0x4
 652 02fb A904     		.2byte	0x4a9
 653 02fd 97000000 		.4byte	0x97
 654 0301 03       		.byte	0x3
 655 0302 23       		.byte	0x23
 656 0303 9801     		.uleb128 0x98
 657 0305 08       		.uleb128 0x8
 658 0306 73020000 		.4byte	.LASF48
 659 030a 04       		.byte	0x4
 660 030b AA04     		.2byte	0x4aa
 661 030d 97000000 		.4byte	0x97
 662 0311 03       		.byte	0x3
 663 0312 23       		.byte	0x23
 664 0313 9C01     		.uleb128 0x9c
 665 0315 00       		.byte	0
 666 0316 09       		.uleb128 0x9
 667 0317 39020000 		.4byte	.LASF49
 668 031b 04       		.byte	0x4
 669 031c AB04     		.2byte	0x4ab
 670 031e AF000000 		.4byte	0xaf
 671 0322 04       		.uleb128 0x4
 672 0323 69020000 		.4byte	.LASF50
ARM GAS  C:\Users\DNIEL~1\AppData\Local\Temp\cc2k9ybe.s 			page 13


 673 0327 05       		.byte	0x5
 674 0328 4C       		.byte	0x4c
 675 0329 2D030000 		.4byte	0x32d
 676 032d 0A       		.uleb128 0xa
 677 032e 69020000 		.4byte	.LASF50
 678 0332 04       		.byte	0x4
 679 0333 06       		.byte	0x6
 680 0334 B5       		.byte	0xb5
 681 0335 48030000 		.4byte	0x348
 682 0339 0B       		.uleb128 0xb
 683 033a 31030000 		.4byte	.LASF51
 684 033e 06       		.byte	0x6
 685 033f B9       		.byte	0xb9
 686 0340 C9030000 		.4byte	0x3c9
 687 0344 02       		.byte	0x2
 688 0345 23       		.byte	0x23
 689 0346 00       		.uleb128 0
 690 0347 00       		.byte	0
 691 0348 04       		.uleb128 0x4
 692 0349 47030000 		.4byte	.LASF52
 693 034d 05       		.byte	0x5
 694 034e 51       		.byte	0x51
 695 034f 53030000 		.4byte	0x353
 696 0353 0A       		.uleb128 0xa
 697 0354 47030000 		.4byte	.LASF52
 698 0358 10       		.byte	0x10
 699 0359 06       		.byte	0x6
 700 035a 83       		.byte	0x83
 701 035b 98030000 		.4byte	0x398
 702 035f 0B       		.uleb128 0xb
 703 0360 9E010000 		.4byte	.LASF53
 704 0364 06       		.byte	0x6
 705 0365 87       		.byte	0x87
 706 0366 65000000 		.4byte	0x65
 707 036a 02       		.byte	0x2
 708 036b 23       		.byte	0x23
 709 036c 00       		.uleb128 0
 710 036d 0B       		.uleb128 0xb
 711 036e D7020000 		.4byte	.LASF54
 712 0372 06       		.byte	0x6
 713 0373 8B       		.byte	0x8b
 714 0374 65000000 		.4byte	0x65
 715 0378 02       		.byte	0x2
 716 0379 23       		.byte	0x23
 717 037a 04       		.uleb128 0x4
 718 037b 0C       		.uleb128 0xc
 719 037c 68313200 		.ascii	"h12\000"
 720 0380 06       		.byte	0x6
 721 0381 8F       		.byte	0x8f
 722 0382 85000000 		.4byte	0x85
 723 0386 02       		.byte	0x2
 724 0387 23       		.byte	0x23
 725 0388 08       		.uleb128 0x8
 726 0389 0B       		.uleb128 0xb
 727 038a 45020000 		.4byte	.LASF55
 728 038e 06       		.byte	0x6
 729 038f 94       		.byte	0x94
ARM GAS  C:\Users\DNIEL~1\AppData\Local\Temp\cc2k9ybe.s 			page 14


 730 0390 65000000 		.4byte	0x65
 731 0394 02       		.byte	0x2
 732 0395 23       		.byte	0x23
 733 0396 0C       		.uleb128 0xc
 734 0397 00       		.byte	0
 735 0398 04       		.uleb128 0x4
 736 0399 38010000 		.4byte	.LASF56
 737 039d 06       		.byte	0x6
 738 039e 6E       		.byte	0x6e
 739 039f A3030000 		.4byte	0x3a3
 740 03a3 0A       		.uleb128 0xa
 741 03a4 38010000 		.4byte	.LASF56
 742 03a8 04       		.byte	0x4
 743 03a9 06       		.byte	0x6
 744 03aa 9B       		.byte	0x9b
 745 03ab BE030000 		.4byte	0x3be
 746 03af 0B       		.uleb128 0xb
 747 03b0 B0000000 		.4byte	.LASF57
 748 03b4 06       		.byte	0x6
 749 03b5 9F       		.byte	0x9f
 750 03b6 65000000 		.4byte	0x65
 751 03ba 02       		.byte	0x2
 752 03bb 23       		.byte	0x23
 753 03bc 00       		.uleb128 0
 754 03bd 00       		.byte	0
 755 03be 04       		.uleb128 0x4
 756 03bf 17010000 		.4byte	.LASF58
 757 03c3 06       		.byte	0x6
 758 03c4 7E       		.byte	0x7e
 759 03c5 65000000 		.4byte	0x65
 760 03c9 0D       		.uleb128 0xd
 761 03ca 04       		.byte	0x4
 762 03cb 16030000 		.4byte	0x316
 763 03cf 0E       		.uleb128 0xe
 764 03d0 01       		.byte	0x1
 765 03d1 38030000 		.4byte	.LASF59
 766 03d5 01       		.byte	0x1
 767 03d6 48       		.byte	0x48
 768 03d7 01       		.byte	0x1
 769 03d8 00000000 		.4byte	.LFB118
 770 03dc 04000000 		.4byte	.LFE118
 771 03e0 02       		.byte	0x2
 772 03e1 7D       		.byte	0x7d
 773 03e2 00       		.sleb128 0
 774 03e3 01       		.byte	0x1
 775 03e4 F3030000 		.4byte	0x3f3
 776 03e8 0F       		.uleb128 0xf
 777 03e9 04000000 		.4byte	.LVL0
 778 03ed 01       		.byte	0x1
 779 03ee C0060000 		.4byte	0x6c0
 780 03f2 00       		.byte	0
 781 03f3 10       		.uleb128 0x10
 782 03f4 01       		.byte	0x1
 783 03f5 CC020000 		.4byte	.LASF60
 784 03f9 01       		.byte	0x1
 785 03fa 55       		.byte	0x55
 786 03fb 01       		.byte	0x1
ARM GAS  C:\Users\DNIEL~1\AppData\Local\Temp\cc2k9ybe.s 			page 15


 787 03fc 00000000 		.4byte	.LFB119
 788 0400 14000000 		.4byte	.LFE119
 789 0404 00000000 		.4byte	.LLST0
 790 0408 01       		.byte	0x1
 791 0409 7E040000 		.4byte	0x47e
 792 040d 11       		.uleb128 0x11
 793 040e E6010000 		.4byte	.LASF61
 794 0412 01       		.byte	0x1
 795 0413 55       		.byte	0x55
 796 0414 7E040000 		.4byte	0x47e
 797 0418 20000000 		.4byte	.LLST1
 798 041c 11       		.uleb128 0x11
 799 041d 01030000 		.4byte	.LASF62
 800 0421 01       		.byte	0x1
 801 0422 55       		.byte	0x55
 802 0423 84040000 		.4byte	0x484
 803 0427 41000000 		.4byte	.LLST2
 804 042b 12       		.uleb128 0x12
 805 042c 02000000 		.4byte	.LBB2
 806 0430 08000000 		.4byte	.LBE2
 807 0434 48040000 		.4byte	0x448
 808 0438 13       		.uleb128 0x13
 809 0439 746D7000 		.ascii	"tmp\000"
 810 043d 01       		.byte	0x1
 811 043e 59       		.byte	0x59
 812 043f 65000000 		.4byte	0x65
 813 0443 62000000 		.4byte	.LLST3
 814 0447 00       		.byte	0
 815 0448 12       		.uleb128 0x12
 816 0449 0C000000 		.4byte	.LBB3
 817 044d 14000000 		.4byte	.LBE3
 818 0451 65040000 		.4byte	0x465
 819 0455 13       		.uleb128 0x13
 820 0456 746D7000 		.ascii	"tmp\000"
 821 045a 01       		.byte	0x1
 822 045b 5B       		.byte	0x5b
 823 045c 65000000 		.4byte	0x65
 824 0460 75000000 		.4byte	.LLST4
 825 0464 00       		.byte	0
 826 0465 14       		.uleb128 0x14
 827 0466 0C000000 		.4byte	.LVL4
 828 046a CA060000 		.4byte	0x6ca
 829 046e 15       		.uleb128 0x15
 830 046f 01       		.byte	0x1
 831 0470 51       		.byte	0x51
 832 0471 03       		.byte	0x3
 833 0472 F3       		.byte	0xf3
 834 0473 01       		.uleb128 0x1
 835 0474 51       		.byte	0x51
 836 0475 15       		.uleb128 0x15
 837 0476 01       		.byte	0x1
 838 0477 50       		.byte	0x50
 839 0478 03       		.byte	0x3
 840 0479 F3       		.byte	0xf3
 841 047a 01       		.uleb128 0x1
 842 047b 50       		.byte	0x50
 843 047c 00       		.byte	0
ARM GAS  C:\Users\DNIEL~1\AppData\Local\Temp\cc2k9ybe.s 			page 16


 844 047d 00       		.byte	0
 845 047e 0D       		.uleb128 0xd
 846 047f 04       		.byte	0x4
 847 0480 22030000 		.4byte	0x322
 848 0484 0D       		.uleb128 0xd
 849 0485 04       		.byte	0x4
 850 0486 8A040000 		.4byte	0x48a
 851 048a 16       		.uleb128 0x16
 852 048b 48030000 		.4byte	0x348
 853 048f 10       		.uleb128 0x10
 854 0490 01       		.byte	0x1
 855 0491 A9020000 		.4byte	.LASF63
 856 0495 01       		.byte	0x1
 857 0496 66       		.byte	0x66
 858 0497 01       		.byte	0x1
 859 0498 00000000 		.4byte	.LFB120
 860 049c 14000000 		.4byte	.LFE120
 861 04a0 88000000 		.4byte	.LLST5
 862 04a4 01       		.byte	0x1
 863 04a5 1A050000 		.4byte	0x51a
 864 04a9 11       		.uleb128 0x11
 865 04aa E6010000 		.4byte	.LASF61
 866 04ae 01       		.byte	0x1
 867 04af 66       		.byte	0x66
 868 04b0 7E040000 		.4byte	0x47e
 869 04b4 A8000000 		.4byte	.LLST6
 870 04b8 11       		.uleb128 0x11
 871 04b9 01030000 		.4byte	.LASF62
 872 04bd 01       		.byte	0x1
 873 04be 66       		.byte	0x66
 874 04bf 1A050000 		.4byte	0x51a
 875 04c3 C9000000 		.4byte	.LLST7
 876 04c7 12       		.uleb128 0x12
 877 04c8 02000000 		.4byte	.LBB4
 878 04cc 08000000 		.4byte	.LBE4
 879 04d0 E4040000 		.4byte	0x4e4
 880 04d4 13       		.uleb128 0x13
 881 04d5 746D7000 		.ascii	"tmp\000"
 882 04d9 01       		.byte	0x1
 883 04da 6A       		.byte	0x6a
 884 04db 65000000 		.4byte	0x65
 885 04df EA000000 		.4byte	.LLST8
 886 04e3 00       		.byte	0
 887 04e4 12       		.uleb128 0x12
 888 04e5 0C000000 		.4byte	.LBB5
 889 04e9 14000000 		.4byte	.LBE5
 890 04ed 01050000 		.4byte	0x501
 891 04f1 13       		.uleb128 0x13
 892 04f2 746D7000 		.ascii	"tmp\000"
 893 04f6 01       		.byte	0x1
 894 04f7 6C       		.byte	0x6c
 895 04f8 65000000 		.4byte	0x65
 896 04fc FD000000 		.4byte	.LLST9
 897 0500 00       		.byte	0
 898 0501 14       		.uleb128 0x14
 899 0502 0C000000 		.4byte	.LVL10
 900 0506 E3060000 		.4byte	0x6e3
ARM GAS  C:\Users\DNIEL~1\AppData\Local\Temp\cc2k9ybe.s 			page 17


 901 050a 15       		.uleb128 0x15
 902 050b 01       		.byte	0x1
 903 050c 51       		.byte	0x51
 904 050d 03       		.byte	0x3
 905 050e F3       		.byte	0xf3
 906 050f 01       		.uleb128 0x1
 907 0510 51       		.byte	0x51
 908 0511 15       		.uleb128 0x15
 909 0512 01       		.byte	0x1
 910 0513 50       		.byte	0x50
 911 0514 03       		.byte	0x3
 912 0515 F3       		.byte	0xf3
 913 0516 01       		.uleb128 0x1
 914 0517 50       		.byte	0x50
 915 0518 00       		.byte	0
 916 0519 00       		.byte	0
 917 051a 0D       		.uleb128 0xd
 918 051b 04       		.byte	0x4
 919 051c 48030000 		.4byte	0x348
 920 0520 10       		.uleb128 0x10
 921 0521 01       		.byte	0x1
 922 0522 BC000000 		.4byte	.LASF64
 923 0526 01       		.byte	0x1
 924 0527 79       		.byte	0x79
 925 0528 01       		.byte	0x1
 926 0529 00000000 		.4byte	.LFB121
 927 052d 14000000 		.4byte	.LFE121
 928 0531 10010000 		.4byte	.LLST10
 929 0535 01       		.byte	0x1
 930 0536 C1050000 		.4byte	0x5c1
 931 053a 11       		.uleb128 0x11
 932 053b E6010000 		.4byte	.LASF61
 933 053f 01       		.byte	0x1
 934 0540 79       		.byte	0x79
 935 0541 7E040000 		.4byte	0x47e
 936 0545 30010000 		.4byte	.LLST11
 937 0549 11       		.uleb128 0x11
 938 054a 48010000 		.4byte	.LASF65
 939 054e 01       		.byte	0x1
 940 054f 7A       		.byte	0x7a
 941 0550 BE030000 		.4byte	0x3be
 942 0554 51010000 		.4byte	.LLST12
 943 0558 11       		.uleb128 0x11
 944 0559 4F030000 		.4byte	.LASF66
 945 055d 01       		.byte	0x1
 946 055e 7B       		.byte	0x7b
 947 055f C1050000 		.4byte	0x5c1
 948 0563 72010000 		.4byte	.LLST13
 949 0567 12       		.uleb128 0x12
 950 0568 02000000 		.4byte	.LBB6
 951 056c 08000000 		.4byte	.LBE6
 952 0570 84050000 		.4byte	0x584
 953 0574 13       		.uleb128 0x13
 954 0575 746D7000 		.ascii	"tmp\000"
 955 0579 01       		.byte	0x1
 956 057a 7F       		.byte	0x7f
 957 057b 65000000 		.4byte	0x65
ARM GAS  C:\Users\DNIEL~1\AppData\Local\Temp\cc2k9ybe.s 			page 18


 958 057f 93010000 		.4byte	.LLST14
 959 0583 00       		.byte	0
 960 0584 12       		.uleb128 0x12
 961 0585 0C000000 		.4byte	.LBB7
 962 0589 14000000 		.4byte	.LBE7
 963 058d A1050000 		.4byte	0x5a1
 964 0591 13       		.uleb128 0x13
 965 0592 746D7000 		.ascii	"tmp\000"
 966 0596 01       		.byte	0x1
 967 0597 81       		.byte	0x81
 968 0598 65000000 		.4byte	0x65
 969 059c A6010000 		.4byte	.LLST15
 970 05a0 00       		.byte	0
 971 05a1 14       		.uleb128 0x14
 972 05a2 0C000000 		.4byte	.LVL16
 973 05a6 FC060000 		.4byte	0x6fc
 974 05aa 15       		.uleb128 0x15
 975 05ab 01       		.byte	0x1
 976 05ac 52       		.byte	0x52
 977 05ad 03       		.byte	0x3
 978 05ae F3       		.byte	0xf3
 979 05af 01       		.uleb128 0x1
 980 05b0 52       		.byte	0x52
 981 05b1 15       		.uleb128 0x15
 982 05b2 01       		.byte	0x1
 983 05b3 51       		.byte	0x51
 984 05b4 03       		.byte	0x3
 985 05b5 F3       		.byte	0xf3
 986 05b6 01       		.uleb128 0x1
 987 05b7 51       		.byte	0x51
 988 05b8 15       		.uleb128 0x15
 989 05b9 01       		.byte	0x1
 990 05ba 50       		.byte	0x50
 991 05bb 03       		.byte	0x3
 992 05bc F3       		.byte	0xf3
 993 05bd 01       		.uleb128 0x1
 994 05be 50       		.byte	0x50
 995 05bf 00       		.byte	0
 996 05c0 00       		.byte	0
 997 05c1 0D       		.uleb128 0xd
 998 05c2 04       		.byte	0x4
 999 05c3 C7050000 		.4byte	0x5c7
 1000 05c7 16       		.uleb128 0x16
 1001 05c8 98030000 		.4byte	0x398
 1002 05cc 10       		.uleb128 0x10
 1003 05cd 01       		.byte	0x1
 1004 05ce 06000000 		.4byte	.LASF67
 1005 05d2 01       		.byte	0x1
 1006 05d3 8F       		.byte	0x8f
 1007 05d4 01       		.byte	0x1
 1008 05d5 00000000 		.4byte	.LFB122
 1009 05d9 14000000 		.4byte	.LFE122
 1010 05dd B9010000 		.4byte	.LLST16
 1011 05e1 01       		.byte	0x1
 1012 05e2 6D060000 		.4byte	0x66d
 1013 05e6 11       		.uleb128 0x11
 1014 05e7 E6010000 		.4byte	.LASF61
ARM GAS  C:\Users\DNIEL~1\AppData\Local\Temp\cc2k9ybe.s 			page 19


 1015 05eb 01       		.byte	0x1
 1016 05ec 8F       		.byte	0x8f
 1017 05ed 7E040000 		.4byte	0x47e
 1018 05f1 D9010000 		.4byte	.LLST17
 1019 05f5 11       		.uleb128 0x11
 1020 05f6 48010000 		.4byte	.LASF65
 1021 05fa 01       		.byte	0x1
 1022 05fb 90       		.byte	0x90
 1023 05fc BE030000 		.4byte	0x3be
 1024 0600 FA010000 		.4byte	.LLST18
 1025 0604 11       		.uleb128 0x11
 1026 0605 4F030000 		.4byte	.LASF66
 1027 0609 01       		.byte	0x1
 1028 060a 91       		.byte	0x91
 1029 060b 6D060000 		.4byte	0x66d
 1030 060f 1B020000 		.4byte	.LLST19
 1031 0613 12       		.uleb128 0x12
 1032 0614 02000000 		.4byte	.LBB8
 1033 0618 08000000 		.4byte	.LBE8
 1034 061c 30060000 		.4byte	0x630
 1035 0620 13       		.uleb128 0x13
 1036 0621 746D7000 		.ascii	"tmp\000"
 1037 0625 01       		.byte	0x1
 1038 0626 96       		.byte	0x96
 1039 0627 65000000 		.4byte	0x65
 1040 062b 3C020000 		.4byte	.LLST20
 1041 062f 00       		.byte	0
 1042 0630 12       		.uleb128 0x12
 1043 0631 0C000000 		.4byte	.LBB9
 1044 0635 14000000 		.4byte	.LBE9
 1045 0639 4D060000 		.4byte	0x64d
 1046 063d 13       		.uleb128 0x13
 1047 063e 746D7000 		.ascii	"tmp\000"
 1048 0642 01       		.byte	0x1
 1049 0643 98       		.byte	0x98
 1050 0644 65000000 		.4byte	0x65
 1051 0648 4F020000 		.4byte	.LLST21
 1052 064c 00       		.byte	0
 1053 064d 14       		.uleb128 0x14
 1054 064e 0C000000 		.4byte	.LVL22
 1055 0652 1A070000 		.4byte	0x71a
 1056 0656 15       		.uleb128 0x15
 1057 0657 01       		.byte	0x1
 1058 0658 52       		.byte	0x52
 1059 0659 03       		.byte	0x3
 1060 065a F3       		.byte	0xf3
 1061 065b 01       		.uleb128 0x1
 1062 065c 52       		.byte	0x52
 1063 065d 15       		.uleb128 0x15
 1064 065e 01       		.byte	0x1
 1065 065f 51       		.byte	0x51
 1066 0660 03       		.byte	0x3
 1067 0661 F3       		.byte	0xf3
 1068 0662 01       		.uleb128 0x1
 1069 0663 51       		.byte	0x51
 1070 0664 15       		.uleb128 0x15
 1071 0665 01       		.byte	0x1
ARM GAS  C:\Users\DNIEL~1\AppData\Local\Temp\cc2k9ybe.s 			page 20


 1072 0666 50       		.byte	0x50
 1073 0667 03       		.byte	0x3
 1074 0668 F3       		.byte	0xf3
 1075 0669 01       		.uleb128 0x1
 1076 066a 50       		.byte	0x50
 1077 066b 00       		.byte	0
 1078 066c 00       		.byte	0
 1079 066d 0D       		.uleb128 0xd
 1080 066e 04       		.byte	0x4
 1081 066f 98030000 		.4byte	0x398
 1082 0673 17       		.uleb128 0x17
 1083 0674 01       		.byte	0x1
 1084 0675 72010000 		.4byte	.LASF76
 1085 0679 01       		.byte	0x1
 1086 067a B9       		.byte	0xb9
 1087 067b 01       		.byte	0x1
 1088 067c 65000000 		.4byte	0x65
 1089 0680 00000000 		.4byte	.LFB123
 1090 0684 04000000 		.4byte	.LFE123
 1091 0688 02       		.byte	0x2
 1092 0689 7D       		.byte	0x7d
 1093 068a 00       		.sleb128 0
 1094 068b 01       		.byte	0x1
 1095 068c B2060000 		.4byte	0x6b2
 1096 0690 11       		.uleb128 0x11
 1097 0691 E6010000 		.4byte	.LASF61
 1098 0695 01       		.byte	0x1
 1099 0696 B9       		.byte	0xb9
 1100 0697 7E040000 		.4byte	0x47e
 1101 069b 62020000 		.4byte	.LLST22
 1102 069f 18       		.uleb128 0x18
 1103 06a0 04000000 		.4byte	.LVL26
 1104 06a4 01       		.byte	0x1
 1105 06a5 38070000 		.4byte	0x738
 1106 06a9 15       		.uleb128 0x15
 1107 06aa 01       		.byte	0x1
 1108 06ab 50       		.byte	0x50
 1109 06ac 03       		.byte	0x3
 1110 06ad F3       		.byte	0xf3
 1111 06ae 01       		.uleb128 0x1
 1112 06af 50       		.byte	0x50
 1113 06b0 00       		.byte	0
 1114 06b1 00       		.byte	0
 1115 06b2 19       		.uleb128 0x19
 1116 06b3 24030000 		.4byte	.LASF77
 1117 06b7 07       		.byte	0x7
 1118 06b8 9806     		.2byte	0x698
 1119 06ba AA000000 		.4byte	0xaa
 1120 06be 01       		.byte	0x1
 1121 06bf 01       		.byte	0x1
 1122 06c0 1A       		.uleb128 0x1a
 1123 06c1 01       		.byte	0x1
 1124 06c2 54010000 		.4byte	.LASF78
 1125 06c6 06       		.byte	0x6
 1126 06c7 CB       		.byte	0xcb
 1127 06c8 01       		.byte	0x1
 1128 06c9 01       		.byte	0x1
ARM GAS  C:\Users\DNIEL~1\AppData\Local\Temp\cc2k9ybe.s 			page 21


 1129 06ca 1B       		.uleb128 0x1b
 1130 06cb 01       		.byte	0x1
 1131 06cc 61010000 		.4byte	.LASF68
 1132 06d0 06       		.byte	0x6
 1133 06d1 CC       		.byte	0xcc
 1134 06d2 01       		.byte	0x1
 1135 06d3 01       		.byte	0x1
 1136 06d4 E3060000 		.4byte	0x6e3
 1137 06d8 1C       		.uleb128 0x1c
 1138 06d9 7E040000 		.4byte	0x47e
 1139 06dd 1C       		.uleb128 0x1c
 1140 06de 84040000 		.4byte	0x484
 1141 06e2 00       		.byte	0
 1142 06e3 1B       		.uleb128 0x1b
 1143 06e4 01       		.byte	0x1
 1144 06e5 FF000000 		.4byte	.LASF69
 1145 06e9 06       		.byte	0x6
 1146 06ea CD       		.byte	0xcd
 1147 06eb 01       		.byte	0x1
 1148 06ec 01       		.byte	0x1
 1149 06ed FC060000 		.4byte	0x6fc
 1150 06f1 1C       		.uleb128 0x1c
 1151 06f2 7E040000 		.4byte	0x47e
 1152 06f6 1C       		.uleb128 0x1c
 1153 06f7 1A050000 		.4byte	0x51a
 1154 06fb 00       		.byte	0
 1155 06fc 1B       		.uleb128 0x1b
 1156 06fd 01       		.byte	0x1
 1157 06fe D4000000 		.4byte	.LASF70
 1158 0702 06       		.byte	0x6
 1159 0703 CE       		.byte	0xce
 1160 0704 01       		.byte	0x1
 1161 0705 01       		.byte	0x1
 1162 0706 1A070000 		.4byte	0x71a
 1163 070a 1C       		.uleb128 0x1c
 1164 070b 7E040000 		.4byte	0x47e
 1165 070f 1C       		.uleb128 0x1c
 1166 0710 BE030000 		.4byte	0x3be
 1167 0714 1C       		.uleb128 0x1c
 1168 0715 C1050000 		.4byte	0x5c1
 1169 0719 00       		.byte	0
 1170 071a 1B       		.uleb128 0x1b
 1171 071b 01       		.byte	0x1
 1172 071c B4020000 		.4byte	.LASF71
 1173 0720 06       		.byte	0x6
 1174 0721 D1       		.byte	0xd1
 1175 0722 01       		.byte	0x1
 1176 0723 01       		.byte	0x1
 1177 0724 38070000 		.4byte	0x738
 1178 0728 1C       		.uleb128 0x1c
 1179 0729 7E040000 		.4byte	0x47e
 1180 072d 1C       		.uleb128 0x1c
 1181 072e BE030000 		.4byte	0x3be
 1182 0732 1C       		.uleb128 0x1c
 1183 0733 6D060000 		.4byte	0x66d
 1184 0737 00       		.byte	0
 1185 0738 1D       		.uleb128 0x1d
ARM GAS  C:\Users\DNIEL~1\AppData\Local\Temp\cc2k9ybe.s 			page 22


 1186 0739 01       		.byte	0x1
 1187 073a 80020000 		.4byte	.LASF72
 1188 073e 06       		.byte	0x6
 1189 073f D8       		.byte	0xd8
 1190 0740 01       		.byte	0x1
 1191 0741 65000000 		.4byte	0x65
 1192 0745 01       		.byte	0x1
 1193 0746 1C       		.uleb128 0x1c
 1194 0747 7E040000 		.4byte	0x47e
 1195 074b 00       		.byte	0
 1196 074c 00       		.byte	0
 1197              		.section	.debug_abbrev,"",%progbits
 1198              	.Ldebug_abbrev0:
 1199 0000 01       		.uleb128 0x1
 1200 0001 11       		.uleb128 0x11
 1201 0002 01       		.byte	0x1
 1202 0003 25       		.uleb128 0x25
 1203 0004 0E       		.uleb128 0xe
 1204 0005 13       		.uleb128 0x13
 1205 0006 0B       		.uleb128 0xb
 1206 0007 03       		.uleb128 0x3
 1207 0008 0E       		.uleb128 0xe
 1208 0009 1B       		.uleb128 0x1b
 1209 000a 0E       		.uleb128 0xe
 1210 000b 55       		.uleb128 0x55
 1211 000c 06       		.uleb128 0x6
 1212 000d 11       		.uleb128 0x11
 1213 000e 01       		.uleb128 0x1
 1214 000f 52       		.uleb128 0x52
 1215 0010 01       		.uleb128 0x1
 1216 0011 10       		.uleb128 0x10
 1217 0012 06       		.uleb128 0x6
 1218 0013 00       		.byte	0
 1219 0014 00       		.byte	0
 1220 0015 02       		.uleb128 0x2
 1221 0016 24       		.uleb128 0x24
 1222 0017 00       		.byte	0
 1223 0018 0B       		.uleb128 0xb
 1224 0019 0B       		.uleb128 0xb
 1225 001a 3E       		.uleb128 0x3e
 1226 001b 0B       		.uleb128 0xb
 1227 001c 03       		.uleb128 0x3
 1228 001d 08       		.uleb128 0x8
 1229 001e 00       		.byte	0
 1230 001f 00       		.byte	0
 1231 0020 03       		.uleb128 0x3
 1232 0021 24       		.uleb128 0x24
 1233 0022 00       		.byte	0
 1234 0023 0B       		.uleb128 0xb
 1235 0024 0B       		.uleb128 0xb
 1236 0025 3E       		.uleb128 0x3e
 1237 0026 0B       		.uleb128 0xb
 1238 0027 03       		.uleb128 0x3
 1239 0028 0E       		.uleb128 0xe
 1240 0029 00       		.byte	0
 1241 002a 00       		.byte	0
 1242 002b 04       		.uleb128 0x4
ARM GAS  C:\Users\DNIEL~1\AppData\Local\Temp\cc2k9ybe.s 			page 23


 1243 002c 16       		.uleb128 0x16
 1244 002d 00       		.byte	0
 1245 002e 03       		.uleb128 0x3
 1246 002f 0E       		.uleb128 0xe
 1247 0030 3A       		.uleb128 0x3a
 1248 0031 0B       		.uleb128 0xb
 1249 0032 3B       		.uleb128 0x3b
 1250 0033 0B       		.uleb128 0xb
 1251 0034 49       		.uleb128 0x49
 1252 0035 13       		.uleb128 0x13
 1253 0036 00       		.byte	0
 1254 0037 00       		.byte	0
 1255 0038 05       		.uleb128 0x5
 1256 0039 35       		.uleb128 0x35
 1257 003a 00       		.byte	0
 1258 003b 49       		.uleb128 0x49
 1259 003c 13       		.uleb128 0x13
 1260 003d 00       		.byte	0
 1261 003e 00       		.byte	0
 1262 003f 06       		.uleb128 0x6
 1263 0040 13       		.uleb128 0x13
 1264 0041 01       		.byte	0x1
 1265 0042 0B       		.uleb128 0xb
 1266 0043 0B       		.uleb128 0xb
 1267 0044 3A       		.uleb128 0x3a
 1268 0045 0B       		.uleb128 0xb
 1269 0046 3B       		.uleb128 0x3b
 1270 0047 05       		.uleb128 0x5
 1271 0048 01       		.uleb128 0x1
 1272 0049 13       		.uleb128 0x13
 1273 004a 00       		.byte	0
 1274 004b 00       		.byte	0
 1275 004c 07       		.uleb128 0x7
 1276 004d 0D       		.uleb128 0xd
 1277 004e 00       		.byte	0
 1278 004f 03       		.uleb128 0x3
 1279 0050 08       		.uleb128 0x8
 1280 0051 3A       		.uleb128 0x3a
 1281 0052 0B       		.uleb128 0xb
 1282 0053 3B       		.uleb128 0x3b
 1283 0054 05       		.uleb128 0x5
 1284 0055 49       		.uleb128 0x49
 1285 0056 13       		.uleb128 0x13
 1286 0057 38       		.uleb128 0x38
 1287 0058 0A       		.uleb128 0xa
 1288 0059 00       		.byte	0
 1289 005a 00       		.byte	0
 1290 005b 08       		.uleb128 0x8
 1291 005c 0D       		.uleb128 0xd
 1292 005d 00       		.byte	0
 1293 005e 03       		.uleb128 0x3
 1294 005f 0E       		.uleb128 0xe
 1295 0060 3A       		.uleb128 0x3a
 1296 0061 0B       		.uleb128 0xb
 1297 0062 3B       		.uleb128 0x3b
 1298 0063 05       		.uleb128 0x5
 1299 0064 49       		.uleb128 0x49
ARM GAS  C:\Users\DNIEL~1\AppData\Local\Temp\cc2k9ybe.s 			page 24


 1300 0065 13       		.uleb128 0x13
 1301 0066 38       		.uleb128 0x38
 1302 0067 0A       		.uleb128 0xa
 1303 0068 00       		.byte	0
 1304 0069 00       		.byte	0
 1305 006a 09       		.uleb128 0x9
 1306 006b 16       		.uleb128 0x16
 1307 006c 00       		.byte	0
 1308 006d 03       		.uleb128 0x3
 1309 006e 0E       		.uleb128 0xe
 1310 006f 3A       		.uleb128 0x3a
 1311 0070 0B       		.uleb128 0xb
 1312 0071 3B       		.uleb128 0x3b
 1313 0072 05       		.uleb128 0x5
 1314 0073 49       		.uleb128 0x49
 1315 0074 13       		.uleb128 0x13
 1316 0075 00       		.byte	0
 1317 0076 00       		.byte	0
 1318 0077 0A       		.uleb128 0xa
 1319 0078 13       		.uleb128 0x13
 1320 0079 01       		.byte	0x1
 1321 007a 03       		.uleb128 0x3
 1322 007b 0E       		.uleb128 0xe
 1323 007c 0B       		.uleb128 0xb
 1324 007d 0B       		.uleb128 0xb
 1325 007e 3A       		.uleb128 0x3a
 1326 007f 0B       		.uleb128 0xb
 1327 0080 3B       		.uleb128 0x3b
 1328 0081 0B       		.uleb128 0xb
 1329 0082 01       		.uleb128 0x1
 1330 0083 13       		.uleb128 0x13
 1331 0084 00       		.byte	0
 1332 0085 00       		.byte	0
 1333 0086 0B       		.uleb128 0xb
 1334 0087 0D       		.uleb128 0xd
 1335 0088 00       		.byte	0
 1336 0089 03       		.uleb128 0x3
 1337 008a 0E       		.uleb128 0xe
 1338 008b 3A       		.uleb128 0x3a
 1339 008c 0B       		.uleb128 0xb
 1340 008d 3B       		.uleb128 0x3b
 1341 008e 0B       		.uleb128 0xb
 1342 008f 49       		.uleb128 0x49
 1343 0090 13       		.uleb128 0x13
 1344 0091 38       		.uleb128 0x38
 1345 0092 0A       		.uleb128 0xa
 1346 0093 00       		.byte	0
 1347 0094 00       		.byte	0
 1348 0095 0C       		.uleb128 0xc
 1349 0096 0D       		.uleb128 0xd
 1350 0097 00       		.byte	0
 1351 0098 03       		.uleb128 0x3
 1352 0099 08       		.uleb128 0x8
 1353 009a 3A       		.uleb128 0x3a
 1354 009b 0B       		.uleb128 0xb
 1355 009c 3B       		.uleb128 0x3b
 1356 009d 0B       		.uleb128 0xb
ARM GAS  C:\Users\DNIEL~1\AppData\Local\Temp\cc2k9ybe.s 			page 25


 1357 009e 49       		.uleb128 0x49
 1358 009f 13       		.uleb128 0x13
 1359 00a0 38       		.uleb128 0x38
 1360 00a1 0A       		.uleb128 0xa
 1361 00a2 00       		.byte	0
 1362 00a3 00       		.byte	0
 1363 00a4 0D       		.uleb128 0xd
 1364 00a5 0F       		.uleb128 0xf
 1365 00a6 00       		.byte	0
 1366 00a7 0B       		.uleb128 0xb
 1367 00a8 0B       		.uleb128 0xb
 1368 00a9 49       		.uleb128 0x49
 1369 00aa 13       		.uleb128 0x13
 1370 00ab 00       		.byte	0
 1371 00ac 00       		.byte	0
 1372 00ad 0E       		.uleb128 0xe
 1373 00ae 2E       		.uleb128 0x2e
 1374 00af 01       		.byte	0x1
 1375 00b0 3F       		.uleb128 0x3f
 1376 00b1 0C       		.uleb128 0xc
 1377 00b2 03       		.uleb128 0x3
 1378 00b3 0E       		.uleb128 0xe
 1379 00b4 3A       		.uleb128 0x3a
 1380 00b5 0B       		.uleb128 0xb
 1381 00b6 3B       		.uleb128 0x3b
 1382 00b7 0B       		.uleb128 0xb
 1383 00b8 27       		.uleb128 0x27
 1384 00b9 0C       		.uleb128 0xc
 1385 00ba 11       		.uleb128 0x11
 1386 00bb 01       		.uleb128 0x1
 1387 00bc 12       		.uleb128 0x12
 1388 00bd 01       		.uleb128 0x1
 1389 00be 40       		.uleb128 0x40
 1390 00bf 0A       		.uleb128 0xa
 1391 00c0 9742     		.uleb128 0x2117
 1392 00c2 0C       		.uleb128 0xc
 1393 00c3 01       		.uleb128 0x1
 1394 00c4 13       		.uleb128 0x13
 1395 00c5 00       		.byte	0
 1396 00c6 00       		.byte	0
 1397 00c7 0F       		.uleb128 0xf
 1398 00c8 898201   		.uleb128 0x4109
 1399 00cb 00       		.byte	0
 1400 00cc 11       		.uleb128 0x11
 1401 00cd 01       		.uleb128 0x1
 1402 00ce 9542     		.uleb128 0x2115
 1403 00d0 0C       		.uleb128 0xc
 1404 00d1 31       		.uleb128 0x31
 1405 00d2 13       		.uleb128 0x13
 1406 00d3 00       		.byte	0
 1407 00d4 00       		.byte	0
 1408 00d5 10       		.uleb128 0x10
 1409 00d6 2E       		.uleb128 0x2e
 1410 00d7 01       		.byte	0x1
 1411 00d8 3F       		.uleb128 0x3f
 1412 00d9 0C       		.uleb128 0xc
 1413 00da 03       		.uleb128 0x3
ARM GAS  C:\Users\DNIEL~1\AppData\Local\Temp\cc2k9ybe.s 			page 26


 1414 00db 0E       		.uleb128 0xe
 1415 00dc 3A       		.uleb128 0x3a
 1416 00dd 0B       		.uleb128 0xb
 1417 00de 3B       		.uleb128 0x3b
 1418 00df 0B       		.uleb128 0xb
 1419 00e0 27       		.uleb128 0x27
 1420 00e1 0C       		.uleb128 0xc
 1421 00e2 11       		.uleb128 0x11
 1422 00e3 01       		.uleb128 0x1
 1423 00e4 12       		.uleb128 0x12
 1424 00e5 01       		.uleb128 0x1
 1425 00e6 40       		.uleb128 0x40
 1426 00e7 06       		.uleb128 0x6
 1427 00e8 9742     		.uleb128 0x2117
 1428 00ea 0C       		.uleb128 0xc
 1429 00eb 01       		.uleb128 0x1
 1430 00ec 13       		.uleb128 0x13
 1431 00ed 00       		.byte	0
 1432 00ee 00       		.byte	0
 1433 00ef 11       		.uleb128 0x11
 1434 00f0 05       		.uleb128 0x5
 1435 00f1 00       		.byte	0
 1436 00f2 03       		.uleb128 0x3
 1437 00f3 0E       		.uleb128 0xe
 1438 00f4 3A       		.uleb128 0x3a
 1439 00f5 0B       		.uleb128 0xb
 1440 00f6 3B       		.uleb128 0x3b
 1441 00f7 0B       		.uleb128 0xb
 1442 00f8 49       		.uleb128 0x49
 1443 00f9 13       		.uleb128 0x13
 1444 00fa 02       		.uleb128 0x2
 1445 00fb 06       		.uleb128 0x6
 1446 00fc 00       		.byte	0
 1447 00fd 00       		.byte	0
 1448 00fe 12       		.uleb128 0x12
 1449 00ff 0B       		.uleb128 0xb
 1450 0100 01       		.byte	0x1
 1451 0101 11       		.uleb128 0x11
 1452 0102 01       		.uleb128 0x1
 1453 0103 12       		.uleb128 0x12
 1454 0104 01       		.uleb128 0x1
 1455 0105 01       		.uleb128 0x1
 1456 0106 13       		.uleb128 0x13
 1457 0107 00       		.byte	0
 1458 0108 00       		.byte	0
 1459 0109 13       		.uleb128 0x13
 1460 010a 34       		.uleb128 0x34
 1461 010b 00       		.byte	0
 1462 010c 03       		.uleb128 0x3
 1463 010d 08       		.uleb128 0x8
 1464 010e 3A       		.uleb128 0x3a
 1465 010f 0B       		.uleb128 0xb
 1466 0110 3B       		.uleb128 0x3b
 1467 0111 0B       		.uleb128 0xb
 1468 0112 49       		.uleb128 0x49
 1469 0113 13       		.uleb128 0x13
 1470 0114 02       		.uleb128 0x2
ARM GAS  C:\Users\DNIEL~1\AppData\Local\Temp\cc2k9ybe.s 			page 27


 1471 0115 06       		.uleb128 0x6
 1472 0116 00       		.byte	0
 1473 0117 00       		.byte	0
 1474 0118 14       		.uleb128 0x14
 1475 0119 898201   		.uleb128 0x4109
 1476 011c 01       		.byte	0x1
 1477 011d 11       		.uleb128 0x11
 1478 011e 01       		.uleb128 0x1
 1479 011f 31       		.uleb128 0x31
 1480 0120 13       		.uleb128 0x13
 1481 0121 00       		.byte	0
 1482 0122 00       		.byte	0
 1483 0123 15       		.uleb128 0x15
 1484 0124 8A8201   		.uleb128 0x410a
 1485 0127 00       		.byte	0
 1486 0128 02       		.uleb128 0x2
 1487 0129 0A       		.uleb128 0xa
 1488 012a 9142     		.uleb128 0x2111
 1489 012c 0A       		.uleb128 0xa
 1490 012d 00       		.byte	0
 1491 012e 00       		.byte	0
 1492 012f 16       		.uleb128 0x16
 1493 0130 26       		.uleb128 0x26
 1494 0131 00       		.byte	0
 1495 0132 49       		.uleb128 0x49
 1496 0133 13       		.uleb128 0x13
 1497 0134 00       		.byte	0
 1498 0135 00       		.byte	0
 1499 0136 17       		.uleb128 0x17
 1500 0137 2E       		.uleb128 0x2e
 1501 0138 01       		.byte	0x1
 1502 0139 3F       		.uleb128 0x3f
 1503 013a 0C       		.uleb128 0xc
 1504 013b 03       		.uleb128 0x3
 1505 013c 0E       		.uleb128 0xe
 1506 013d 3A       		.uleb128 0x3a
 1507 013e 0B       		.uleb128 0xb
 1508 013f 3B       		.uleb128 0x3b
 1509 0140 0B       		.uleb128 0xb
 1510 0141 27       		.uleb128 0x27
 1511 0142 0C       		.uleb128 0xc
 1512 0143 49       		.uleb128 0x49
 1513 0144 13       		.uleb128 0x13
 1514 0145 11       		.uleb128 0x11
 1515 0146 01       		.uleb128 0x1
 1516 0147 12       		.uleb128 0x12
 1517 0148 01       		.uleb128 0x1
 1518 0149 40       		.uleb128 0x40
 1519 014a 0A       		.uleb128 0xa
 1520 014b 9742     		.uleb128 0x2117
 1521 014d 0C       		.uleb128 0xc
 1522 014e 01       		.uleb128 0x1
 1523 014f 13       		.uleb128 0x13
 1524 0150 00       		.byte	0
 1525 0151 00       		.byte	0
 1526 0152 18       		.uleb128 0x18
 1527 0153 898201   		.uleb128 0x4109
ARM GAS  C:\Users\DNIEL~1\AppData\Local\Temp\cc2k9ybe.s 			page 28


 1528 0156 01       		.byte	0x1
 1529 0157 11       		.uleb128 0x11
 1530 0158 01       		.uleb128 0x1
 1531 0159 9542     		.uleb128 0x2115
 1532 015b 0C       		.uleb128 0xc
 1533 015c 31       		.uleb128 0x31
 1534 015d 13       		.uleb128 0x13
 1535 015e 00       		.byte	0
 1536 015f 00       		.byte	0
 1537 0160 19       		.uleb128 0x19
 1538 0161 34       		.uleb128 0x34
 1539 0162 00       		.byte	0
 1540 0163 03       		.uleb128 0x3
 1541 0164 0E       		.uleb128 0xe
 1542 0165 3A       		.uleb128 0x3a
 1543 0166 0B       		.uleb128 0xb
 1544 0167 3B       		.uleb128 0x3b
 1545 0168 05       		.uleb128 0x5
 1546 0169 49       		.uleb128 0x49
 1547 016a 13       		.uleb128 0x13
 1548 016b 3F       		.uleb128 0x3f
 1549 016c 0C       		.uleb128 0xc
 1550 016d 3C       		.uleb128 0x3c
 1551 016e 0C       		.uleb128 0xc
 1552 016f 00       		.byte	0
 1553 0170 00       		.byte	0
 1554 0171 1A       		.uleb128 0x1a
 1555 0172 2E       		.uleb128 0x2e
 1556 0173 00       		.byte	0
 1557 0174 3F       		.uleb128 0x3f
 1558 0175 0C       		.uleb128 0xc
 1559 0176 03       		.uleb128 0x3
 1560 0177 0E       		.uleb128 0xe
 1561 0178 3A       		.uleb128 0x3a
 1562 0179 0B       		.uleb128 0xb
 1563 017a 3B       		.uleb128 0x3b
 1564 017b 0B       		.uleb128 0xb
 1565 017c 27       		.uleb128 0x27
 1566 017d 0C       		.uleb128 0xc
 1567 017e 3C       		.uleb128 0x3c
 1568 017f 0C       		.uleb128 0xc
 1569 0180 00       		.byte	0
 1570 0181 00       		.byte	0
 1571 0182 1B       		.uleb128 0x1b
 1572 0183 2E       		.uleb128 0x2e
 1573 0184 01       		.byte	0x1
 1574 0185 3F       		.uleb128 0x3f
 1575 0186 0C       		.uleb128 0xc
 1576 0187 03       		.uleb128 0x3
 1577 0188 0E       		.uleb128 0xe
 1578 0189 3A       		.uleb128 0x3a
 1579 018a 0B       		.uleb128 0xb
 1580 018b 3B       		.uleb128 0x3b
 1581 018c 0B       		.uleb128 0xb
 1582 018d 27       		.uleb128 0x27
 1583 018e 0C       		.uleb128 0xc
 1584 018f 3C       		.uleb128 0x3c
ARM GAS  C:\Users\DNIEL~1\AppData\Local\Temp\cc2k9ybe.s 			page 29


 1585 0190 0C       		.uleb128 0xc
 1586 0191 01       		.uleb128 0x1
 1587 0192 13       		.uleb128 0x13
 1588 0193 00       		.byte	0
 1589 0194 00       		.byte	0
 1590 0195 1C       		.uleb128 0x1c
 1591 0196 05       		.uleb128 0x5
 1592 0197 00       		.byte	0
 1593 0198 49       		.uleb128 0x49
 1594 0199 13       		.uleb128 0x13
 1595 019a 00       		.byte	0
 1596 019b 00       		.byte	0
 1597 019c 1D       		.uleb128 0x1d
 1598 019d 2E       		.uleb128 0x2e
 1599 019e 01       		.byte	0x1
 1600 019f 3F       		.uleb128 0x3f
 1601 01a0 0C       		.uleb128 0xc
 1602 01a1 03       		.uleb128 0x3
 1603 01a2 0E       		.uleb128 0xe
 1604 01a3 3A       		.uleb128 0x3a
 1605 01a4 0B       		.uleb128 0xb
 1606 01a5 3B       		.uleb128 0x3b
 1607 01a6 0B       		.uleb128 0xb
 1608 01a7 27       		.uleb128 0x27
 1609 01a8 0C       		.uleb128 0xc
 1610 01a9 49       		.uleb128 0x49
 1611 01aa 13       		.uleb128 0x13
 1612 01ab 3C       		.uleb128 0x3c
 1613 01ac 0C       		.uleb128 0xc
 1614 01ad 00       		.byte	0
 1615 01ae 00       		.byte	0
 1616 01af 00       		.byte	0
 1617              		.section	.debug_loc,"",%progbits
 1618              	.Ldebug_loc0:
 1619              	.LLST0:
 1620 0000 00000000 		.4byte	.LFB119
 1621 0004 02000000 		.4byte	.LCFI0
 1622 0008 0200     		.2byte	0x2
 1623 000a 7D       		.byte	0x7d
 1624 000b 00       		.sleb128 0
 1625 000c 02000000 		.4byte	.LCFI0
 1626 0010 14000000 		.4byte	.LFE119
 1627 0014 0200     		.2byte	0x2
 1628 0016 7D       		.byte	0x7d
 1629 0017 08       		.sleb128 8
 1630 0018 00000000 		.4byte	0
 1631 001c 00000000 		.4byte	0
 1632              	.LLST1:
 1633 0020 00000000 		.4byte	.LVL1
 1634 0024 0B000000 		.4byte	.LVL4-1
 1635 0028 0100     		.2byte	0x1
 1636 002a 50       		.byte	0x50
 1637 002b 0B000000 		.4byte	.LVL4-1
 1638 002f 14000000 		.4byte	.LFE119
 1639 0033 0400     		.2byte	0x4
 1640 0035 F3       		.byte	0xf3
 1641 0036 01       		.uleb128 0x1
ARM GAS  C:\Users\DNIEL~1\AppData\Local\Temp\cc2k9ybe.s 			page 30


 1642 0037 50       		.byte	0x50
 1643 0038 9F       		.byte	0x9f
 1644 0039 00000000 		.4byte	0
 1645 003d 00000000 		.4byte	0
 1646              	.LLST2:
 1647 0041 00000000 		.4byte	.LVL1
 1648 0045 0B000000 		.4byte	.LVL4-1
 1649 0049 0100     		.2byte	0x1
 1650 004b 51       		.byte	0x51
 1651 004c 0B000000 		.4byte	.LVL4-1
 1652 0050 14000000 		.4byte	.LFE119
 1653 0054 0400     		.2byte	0x4
 1654 0056 F3       		.byte	0xf3
 1655 0057 01       		.uleb128 0x1
 1656 0058 51       		.byte	0x51
 1657 0059 9F       		.byte	0x9f
 1658 005a 00000000 		.4byte	0
 1659 005e 00000000 		.4byte	0
 1660              	.LLST3:
 1661 0062 08000000 		.4byte	.LVL3
 1662 0066 0B000000 		.4byte	.LVL4-1
 1663 006a 0100     		.2byte	0x1
 1664 006c 53       		.byte	0x53
 1665 006d 00000000 		.4byte	0
 1666 0071 00000000 		.4byte	0
 1667              	.LLST4:
 1668 0075 12000000 		.4byte	.LVL6
 1669 0079 14000000 		.4byte	.LFE119
 1670 007d 0100     		.2byte	0x1
 1671 007f 53       		.byte	0x53
 1672 0080 00000000 		.4byte	0
 1673 0084 00000000 		.4byte	0
 1674              	.LLST5:
 1675 0088 00000000 		.4byte	.LFB120
 1676 008c 02000000 		.4byte	.LCFI1
 1677 0090 0200     		.2byte	0x2
 1678 0092 7D       		.byte	0x7d
 1679 0093 00       		.sleb128 0
 1680 0094 02000000 		.4byte	.LCFI1
 1681 0098 14000000 		.4byte	.LFE120
 1682 009c 0200     		.2byte	0x2
 1683 009e 7D       		.byte	0x7d
 1684 009f 08       		.sleb128 8
 1685 00a0 00000000 		.4byte	0
 1686 00a4 00000000 		.4byte	0
 1687              	.LLST6:
 1688 00a8 00000000 		.4byte	.LVL7
 1689 00ac 0B000000 		.4byte	.LVL10-1
 1690 00b0 0100     		.2byte	0x1
 1691 00b2 50       		.byte	0x50
 1692 00b3 0B000000 		.4byte	.LVL10-1
 1693 00b7 14000000 		.4byte	.LFE120
 1694 00bb 0400     		.2byte	0x4
 1695 00bd F3       		.byte	0xf3
 1696 00be 01       		.uleb128 0x1
 1697 00bf 50       		.byte	0x50
 1698 00c0 9F       		.byte	0x9f
ARM GAS  C:\Users\DNIEL~1\AppData\Local\Temp\cc2k9ybe.s 			page 31


 1699 00c1 00000000 		.4byte	0
 1700 00c5 00000000 		.4byte	0
 1701              	.LLST7:
 1702 00c9 00000000 		.4byte	.LVL7
 1703 00cd 0B000000 		.4byte	.LVL10-1
 1704 00d1 0100     		.2byte	0x1
 1705 00d3 51       		.byte	0x51
 1706 00d4 0B000000 		.4byte	.LVL10-1
 1707 00d8 14000000 		.4byte	.LFE120
 1708 00dc 0400     		.2byte	0x4
 1709 00de F3       		.byte	0xf3
 1710 00df 01       		.uleb128 0x1
 1711 00e0 51       		.byte	0x51
 1712 00e1 9F       		.byte	0x9f
 1713 00e2 00000000 		.4byte	0
 1714 00e6 00000000 		.4byte	0
 1715              	.LLST8:
 1716 00ea 08000000 		.4byte	.LVL9
 1717 00ee 0B000000 		.4byte	.LVL10-1
 1718 00f2 0100     		.2byte	0x1
 1719 00f4 53       		.byte	0x53
 1720 00f5 00000000 		.4byte	0
 1721 00f9 00000000 		.4byte	0
 1722              	.LLST9:
 1723 00fd 12000000 		.4byte	.LVL12
 1724 0101 14000000 		.4byte	.LFE120
 1725 0105 0100     		.2byte	0x1
 1726 0107 53       		.byte	0x53
 1727 0108 00000000 		.4byte	0
 1728 010c 00000000 		.4byte	0
 1729              	.LLST10:
 1730 0110 00000000 		.4byte	.LFB121
 1731 0114 02000000 		.4byte	.LCFI2
 1732 0118 0200     		.2byte	0x2
 1733 011a 7D       		.byte	0x7d
 1734 011b 00       		.sleb128 0
 1735 011c 02000000 		.4byte	.LCFI2
 1736 0120 14000000 		.4byte	.LFE121
 1737 0124 0200     		.2byte	0x2
 1738 0126 7D       		.byte	0x7d
 1739 0127 08       		.sleb128 8
 1740 0128 00000000 		.4byte	0
 1741 012c 00000000 		.4byte	0
 1742              	.LLST11:
 1743 0130 00000000 		.4byte	.LVL13
 1744 0134 0B000000 		.4byte	.LVL16-1
 1745 0138 0100     		.2byte	0x1
 1746 013a 50       		.byte	0x50
 1747 013b 0B000000 		.4byte	.LVL16-1
 1748 013f 14000000 		.4byte	.LFE121
 1749 0143 0400     		.2byte	0x4
 1750 0145 F3       		.byte	0xf3
 1751 0146 01       		.uleb128 0x1
 1752 0147 50       		.byte	0x50
 1753 0148 9F       		.byte	0x9f
 1754 0149 00000000 		.4byte	0
 1755 014d 00000000 		.4byte	0
ARM GAS  C:\Users\DNIEL~1\AppData\Local\Temp\cc2k9ybe.s 			page 32


 1756              	.LLST12:
 1757 0151 00000000 		.4byte	.LVL13
 1758 0155 0B000000 		.4byte	.LVL16-1
 1759 0159 0100     		.2byte	0x1
 1760 015b 51       		.byte	0x51
 1761 015c 0B000000 		.4byte	.LVL16-1
 1762 0160 14000000 		.4byte	.LFE121
 1763 0164 0400     		.2byte	0x4
 1764 0166 F3       		.byte	0xf3
 1765 0167 01       		.uleb128 0x1
 1766 0168 51       		.byte	0x51
 1767 0169 9F       		.byte	0x9f
 1768 016a 00000000 		.4byte	0
 1769 016e 00000000 		.4byte	0
 1770              	.LLST13:
 1771 0172 00000000 		.4byte	.LVL13
 1772 0176 0B000000 		.4byte	.LVL16-1
 1773 017a 0100     		.2byte	0x1
 1774 017c 52       		.byte	0x52
 1775 017d 0B000000 		.4byte	.LVL16-1
 1776 0181 14000000 		.4byte	.LFE121
 1777 0185 0400     		.2byte	0x4
 1778 0187 F3       		.byte	0xf3
 1779 0188 01       		.uleb128 0x1
 1780 0189 52       		.byte	0x52
 1781 018a 9F       		.byte	0x9f
 1782 018b 00000000 		.4byte	0
 1783 018f 00000000 		.4byte	0
 1784              	.LLST14:
 1785 0193 08000000 		.4byte	.LVL15
 1786 0197 0B000000 		.4byte	.LVL16-1
 1787 019b 0100     		.2byte	0x1
 1788 019d 53       		.byte	0x53
 1789 019e 00000000 		.4byte	0
 1790 01a2 00000000 		.4byte	0
 1791              	.LLST15:
 1792 01a6 12000000 		.4byte	.LVL18
 1793 01aa 14000000 		.4byte	.LFE121
 1794 01ae 0100     		.2byte	0x1
 1795 01b0 53       		.byte	0x53
 1796 01b1 00000000 		.4byte	0
 1797 01b5 00000000 		.4byte	0
 1798              	.LLST16:
 1799 01b9 00000000 		.4byte	.LFB122
 1800 01bd 02000000 		.4byte	.LCFI3
 1801 01c1 0200     		.2byte	0x2
 1802 01c3 7D       		.byte	0x7d
 1803 01c4 00       		.sleb128 0
 1804 01c5 02000000 		.4byte	.LCFI3
 1805 01c9 14000000 		.4byte	.LFE122
 1806 01cd 0200     		.2byte	0x2
 1807 01cf 7D       		.byte	0x7d
 1808 01d0 08       		.sleb128 8
 1809 01d1 00000000 		.4byte	0
 1810 01d5 00000000 		.4byte	0
 1811              	.LLST17:
 1812 01d9 00000000 		.4byte	.LVL19
ARM GAS  C:\Users\DNIEL~1\AppData\Local\Temp\cc2k9ybe.s 			page 33


 1813 01dd 0B000000 		.4byte	.LVL22-1
 1814 01e1 0100     		.2byte	0x1
 1815 01e3 50       		.byte	0x50
 1816 01e4 0B000000 		.4byte	.LVL22-1
 1817 01e8 14000000 		.4byte	.LFE122
 1818 01ec 0400     		.2byte	0x4
 1819 01ee F3       		.byte	0xf3
 1820 01ef 01       		.uleb128 0x1
 1821 01f0 50       		.byte	0x50
 1822 01f1 9F       		.byte	0x9f
 1823 01f2 00000000 		.4byte	0
 1824 01f6 00000000 		.4byte	0
 1825              	.LLST18:
 1826 01fa 00000000 		.4byte	.LVL19
 1827 01fe 0B000000 		.4byte	.LVL22-1
 1828 0202 0100     		.2byte	0x1
 1829 0204 51       		.byte	0x51
 1830 0205 0B000000 		.4byte	.LVL22-1
 1831 0209 14000000 		.4byte	.LFE122
 1832 020d 0400     		.2byte	0x4
 1833 020f F3       		.byte	0xf3
 1834 0210 01       		.uleb128 0x1
 1835 0211 51       		.byte	0x51
 1836 0212 9F       		.byte	0x9f
 1837 0213 00000000 		.4byte	0
 1838 0217 00000000 		.4byte	0
 1839              	.LLST19:
 1840 021b 00000000 		.4byte	.LVL19
 1841 021f 0B000000 		.4byte	.LVL22-1
 1842 0223 0100     		.2byte	0x1
 1843 0225 52       		.byte	0x52
 1844 0226 0B000000 		.4byte	.LVL22-1
 1845 022a 14000000 		.4byte	.LFE122
 1846 022e 0400     		.2byte	0x4
 1847 0230 F3       		.byte	0xf3
 1848 0231 01       		.uleb128 0x1
 1849 0232 52       		.byte	0x52
 1850 0233 9F       		.byte	0x9f
 1851 0234 00000000 		.4byte	0
 1852 0238 00000000 		.4byte	0
 1853              	.LLST20:
 1854 023c 08000000 		.4byte	.LVL21
 1855 0240 0B000000 		.4byte	.LVL22-1
 1856 0244 0100     		.2byte	0x1
 1857 0246 53       		.byte	0x53
 1858 0247 00000000 		.4byte	0
 1859 024b 00000000 		.4byte	0
 1860              	.LLST21:
 1861 024f 12000000 		.4byte	.LVL24
 1862 0253 14000000 		.4byte	.LFE122
 1863 0257 0100     		.2byte	0x1
 1864 0259 53       		.byte	0x53
 1865 025a 00000000 		.4byte	0
 1866 025e 00000000 		.4byte	0
 1867              	.LLST22:
 1868 0262 00000000 		.4byte	.LVL25
 1869 0266 03000000 		.4byte	.LVL26-1
ARM GAS  C:\Users\DNIEL~1\AppData\Local\Temp\cc2k9ybe.s 			page 34


 1870 026a 0100     		.2byte	0x1
 1871 026c 50       		.byte	0x50
 1872 026d 03000000 		.4byte	.LVL26-1
 1873 0271 04000000 		.4byte	.LFE123
 1874 0275 0400     		.2byte	0x4
 1875 0277 F3       		.byte	0xf3
 1876 0278 01       		.uleb128 0x1
 1877 0279 50       		.byte	0x50
 1878 027a 9F       		.byte	0x9f
 1879 027b 00000000 		.4byte	0
 1880 027f 00000000 		.4byte	0
 1881              		.section	.debug_aranges,"",%progbits
 1882 0000 44000000 		.4byte	0x44
 1883 0004 0200     		.2byte	0x2
 1884 0006 00000000 		.4byte	.Ldebug_info0
 1885 000a 04       		.byte	0x4
 1886 000b 00       		.byte	0
 1887 000c 0000     		.2byte	0
 1888 000e 0000     		.2byte	0
 1889 0010 00000000 		.4byte	.LFB118
 1890 0014 04000000 		.4byte	.LFE118-.LFB118
 1891 0018 00000000 		.4byte	.LFB119
 1892 001c 14000000 		.4byte	.LFE119-.LFB119
 1893 0020 00000000 		.4byte	.LFB120
 1894 0024 14000000 		.4byte	.LFE120-.LFB120
 1895 0028 00000000 		.4byte	.LFB121
 1896 002c 14000000 		.4byte	.LFE121-.LFB121
 1897 0030 00000000 		.4byte	.LFB122
 1898 0034 14000000 		.4byte	.LFE122-.LFB122
 1899 0038 00000000 		.4byte	.LFB123
 1900 003c 04000000 		.4byte	.LFE123-.LFB123
 1901 0040 00000000 		.4byte	0
 1902 0044 00000000 		.4byte	0
 1903              		.section	.debug_ranges,"",%progbits
 1904              	.Ldebug_ranges0:
 1905 0000 00000000 		.4byte	.LFB118
 1906 0004 04000000 		.4byte	.LFE118
 1907 0008 00000000 		.4byte	.LFB119
 1908 000c 14000000 		.4byte	.LFE119
 1909 0010 00000000 		.4byte	.LFB120
 1910 0014 14000000 		.4byte	.LFE120
 1911 0018 00000000 		.4byte	.LFB121
 1912 001c 14000000 		.4byte	.LFE121
 1913 0020 00000000 		.4byte	.LFB122
 1914 0024 14000000 		.4byte	.LFE122
 1915 0028 00000000 		.4byte	.LFB123
 1916 002c 04000000 		.4byte	.LFE123
 1917 0030 00000000 		.4byte	0
 1918 0034 00000000 		.4byte	0
 1919              		.section	.debug_line,"",%progbits
 1920              	.Ldebug_line0:
 1921 0000 4B020000 		.section	.debug_str,"MS",%progbits,1
 1921      0200D501 
 1921      00000201 
 1921      FB0E0D00 
 1921      01010101 
 1922              	.LASF35:
ARM GAS  C:\Users\DNIEL~1\AppData\Local\Temp\cc2k9ybe.s 			page 35


 1923 0000 424B5036 		.ascii	"BKP6R\000"
 1923      5200
 1924              	.LASF67:
 1925 0006 72746347 		.ascii	"rtcGetAlarm\000"
 1925      6574416C 
 1925      61726D00 
 1926              	.LASF75:
 1927 0012 433A5C55 		.ascii	"C:\\Users\\D\341niel\\git\\Smarty\\smarty\\firmware"
 1927      73657273 
 1927      5C44E16E 
 1927      69656C5C 
 1927      6769745C 
 1928 003c 00       		.ascii	"\000"
 1929              	.LASF31:
 1930 003d 424B5032 		.ascii	"BKP2R\000"
 1930      5200
 1931              	.LASF3:
 1932 0043 73686F72 		.ascii	"short int\000"
 1932      7420696E 
 1932      7400
 1933              	.LASF13:
 1934 004d 73697A65 		.ascii	"sizetype\000"
 1934      74797065 
 1934      00
 1935              	.LASF73:
 1936 0056 474E5520 		.ascii	"GNU C 4.7.4 20140401 (release) [ARM/embedded-4_7-br"
 1936      4320342E 
 1936      372E3420 
 1936      32303134 
 1936      30343031 
 1937 0089 616E6368 		.ascii	"anch revision 209195]\000"
 1937      20726576 
 1937      6973696F 
 1937      6E203230 
 1937      39313935 
 1938              	.LASF24:
 1939 009f 43414C52 		.ascii	"CALR\000"
 1939      00
 1940              	.LASF16:
 1941 00a4 57555452 		.ascii	"WUTR\000"
 1941      00
 1942              	.LASF42:
 1943 00a9 424B5031 		.ascii	"BKP13R\000"
 1943      335200
 1944              	.LASF57:
 1945 00b0 74765F64 		.ascii	"tv_datetime\000"
 1945      61746574 
 1945      696D6500 
 1946              	.LASF64:
 1947 00bc 72746353 		.ascii	"rtcSetAlarm\000"
 1947      6574416C 
 1947      61726D00 
 1948              	.LASF46:
 1949 00c8 424B5031 		.ascii	"BKP17R\000"
 1949      375200
 1950              	.LASF22:
 1951 00cf 54534452 		.ascii	"TSDR\000"
ARM GAS  C:\Users\DNIEL~1\AppData\Local\Temp\cc2k9ybe.s 			page 36


 1951      00
 1952              	.LASF70:
 1953 00d4 7274635F 		.ascii	"rtc_lld_set_alarm\000"
 1953      6C6C645F 
 1953      7365745F 
 1953      616C6172 
 1953      6D00
 1954              	.LASF15:
 1955 00e6 50524552 		.ascii	"PRER\000"
 1955      00
 1956              	.LASF32:
 1957 00eb 424B5033 		.ascii	"BKP3R\000"
 1957      5200
 1958              	.LASF9:
 1959 00f1 6C6F6E67 		.ascii	"long long int\000"
 1959      206C6F6E 
 1959      6720696E 
 1959      7400
 1960              	.LASF69:
 1961 00ff 7274635F 		.ascii	"rtc_lld_get_time\000"
 1961      6C6C645F 
 1961      6765745F 
 1961      74696D65 
 1961      00
 1962              	.LASF17:
 1963 0110 43414C49 		.ascii	"CALIBR\000"
 1963      425200
 1964              	.LASF58:
 1965 0117 72746361 		.ascii	"rtcalarm_t\000"
 1965      6C61726D 
 1965      5F7400
 1966              	.LASF5:
 1967 0122 6C6F6E67 		.ascii	"long int\000"
 1967      20696E74 
 1967      00
 1968              	.LASF39:
 1969 012b 424B5031 		.ascii	"BKP10R\000"
 1969      305200
 1970              	.LASF36:
 1971 0132 424B5037 		.ascii	"BKP7R\000"
 1971      5200
 1972              	.LASF56:
 1973 0138 52544341 		.ascii	"RTCAlarm\000"
 1973      6C61726D 
 1973      00
 1974              	.LASF43:
 1975 0141 424B5031 		.ascii	"BKP14R\000"
 1975      345200
 1976              	.LASF65:
 1977 0148 616C6172 		.ascii	"alarm\000"
 1977      6D00
 1978              	.LASF25:
 1979 014e 54414643 		.ascii	"TAFCR\000"
 1979      5200
 1980              	.LASF78:
 1981 0154 7274635F 		.ascii	"rtc_lld_init\000"
 1981      6C6C645F 
ARM GAS  C:\Users\DNIEL~1\AppData\Local\Temp\cc2k9ybe.s 			page 37


 1981      696E6974 
 1981      00
 1982              	.LASF68:
 1983 0161 7274635F 		.ascii	"rtc_lld_set_time\000"
 1983      6C6C645F 
 1983      7365745F 
 1983      74696D65 
 1983      00
 1984              	.LASF76:
 1985 0172 72746347 		.ascii	"rtcGetTimeFat\000"
 1985      65745469 
 1985      6D654661 
 1985      7400
 1986              	.LASF2:
 1987 0180 756E7369 		.ascii	"unsigned char\000"
 1987      676E6564 
 1987      20636861 
 1987      7200
 1988              	.LASF26:
 1989 018e 414C524D 		.ascii	"ALRMASSR\000"
 1989      41535352 
 1989      00
 1990              	.LASF47:
 1991 0197 424B5031 		.ascii	"BKP18R\000"
 1991      385200
 1992              	.LASF53:
 1993 019e 74765F64 		.ascii	"tv_date\000"
 1993      61746500 
 1994              	.LASF1:
 1995 01a6 7369676E 		.ascii	"signed char\000"
 1995      65642063 
 1995      68617200 
 1996              	.LASF10:
 1997 01b2 6C6F6E67 		.ascii	"long long unsigned int\000"
 1997      206C6F6E 
 1997      6720756E 
 1997      7369676E 
 1997      65642069 
 1998              	.LASF7:
 1999 01c9 75696E74 		.ascii	"uint32_t\000"
 1999      33325F74 
 1999      00
 2000              	.LASF18:
 2001 01d2 414C524D 		.ascii	"ALRMAR\000"
 2001      415200
 2002              	.LASF0:
 2003 01d9 756E7369 		.ascii	"unsigned int\000"
 2003      676E6564 
 2003      20696E74 
 2003      00
 2004              	.LASF61:
 2005 01e6 72746370 		.ascii	"rtcp\000"
 2005      00
 2006              	.LASF33:
 2007 01eb 424B5034 		.ascii	"BKP4R\000"
 2007      5200
 2008              	.LASF21:
ARM GAS  C:\Users\DNIEL~1\AppData\Local\Temp\cc2k9ybe.s 			page 38


 2009 01f1 54535452 		.ascii	"TSTR\000"
 2009      00
 2010              	.LASF4:
 2011 01f6 73686F72 		.ascii	"short unsigned int\000"
 2011      7420756E 
 2011      7369676E 
 2011      65642069 
 2011      6E7400
 2012              	.LASF14:
 2013 0209 63686172 		.ascii	"char\000"
 2013      00
 2014              	.LASF37:
 2015 020e 424B5038 		.ascii	"BKP8R\000"
 2015      5200
 2016              	.LASF6:
 2017 0214 696E7433 		.ascii	"int32_t\000"
 2017      325F7400 
 2018              	.LASF11:
 2019 021c 626F6F6C 		.ascii	"bool_t\000"
 2019      5F7400
 2020              	.LASF27:
 2021 0223 414C524D 		.ascii	"ALRMBSSR\000"
 2021      42535352 
 2021      00
 2022              	.LASF12:
 2023 022c 5F426F6F 		.ascii	"_Bool\000"
 2023      6C00
 2024              	.LASF44:
 2025 0232 424B5031 		.ascii	"BKP15R\000"
 2025      355200
 2026              	.LASF49:
 2027 0239 5254435F 		.ascii	"RTC_TypeDef\000"
 2027      54797065 
 2027      44656600 
 2028              	.LASF55:
 2029 0245 74765F6D 		.ascii	"tv_msec\000"
 2029      73656300 
 2030              	.LASF8:
 2031 024d 6C6F6E67 		.ascii	"long unsigned int\000"
 2031      20756E73 
 2031      69676E65 
 2031      6420696E 
 2031      7400
 2032              	.LASF28:
 2033 025f 52455345 		.ascii	"RESERVED7\000"
 2033      52564544 
 2033      3700
 2034              	.LASF50:
 2035 0269 52544344 		.ascii	"RTCDriver\000"
 2035      72697665 
 2035      7200
 2036              	.LASF48:
 2037 0273 424B5031 		.ascii	"BKP19R\000"
 2037      395200
 2038              	.LASF30:
 2039 027a 424B5031 		.ascii	"BKP1R\000"
 2039      5200
ARM GAS  C:\Users\DNIEL~1\AppData\Local\Temp\cc2k9ybe.s 			page 39


 2040              	.LASF72:
 2041 0280 7274635F 		.ascii	"rtc_lld_get_time_fat\000"
 2041      6C6C645F 
 2041      6765745F 
 2041      74696D65 
 2041      5F666174 
 2042              	.LASF29:
 2043 0295 424B5030 		.ascii	"BKP0R\000"
 2043      5200
 2044              	.LASF19:
 2045 029b 414C524D 		.ascii	"ALRMBR\000"
 2045      425200
 2046              	.LASF40:
 2047 02a2 424B5031 		.ascii	"BKP11R\000"
 2047      315200
 2048              	.LASF63:
 2049 02a9 72746347 		.ascii	"rtcGetTime\000"
 2049      65745469 
 2049      6D6500
 2050              	.LASF71:
 2051 02b4 7274635F 		.ascii	"rtc_lld_get_alarm\000"
 2051      6C6C645F 
 2051      6765745F 
 2051      616C6172 
 2051      6D00
 2052              	.LASF34:
 2053 02c6 424B5035 		.ascii	"BKP5R\000"
 2053      5200
 2054              	.LASF60:
 2055 02cc 72746353 		.ascii	"rtcSetTime\000"
 2055      65745469 
 2055      6D6500
 2056              	.LASF54:
 2057 02d7 74765F74 		.ascii	"tv_time\000"
 2057      696D6500 
 2058              	.LASF74:
 2059 02df 2E2E2F2E 		.ascii	"../../../ChibiOS/os/hal/src/rtc.c\000"
 2059      2E2F2E2E 
 2059      2F436869 
 2059      62694F53 
 2059      2F6F732F 
 2060              	.LASF62:
 2061 0301 74696D65 		.ascii	"timespec\000"
 2061      73706563 
 2061      00
 2062              	.LASF23:
 2063 030a 54535353 		.ascii	"TSSSR\000"
 2063      5200
 2064              	.LASF41:
 2065 0310 424B5031 		.ascii	"BKP12R\000"
 2065      325200
 2066              	.LASF20:
 2067 0317 53484946 		.ascii	"SHIFTR\000"
 2067      545200
 2068              	.LASF38:
 2069 031e 424B5039 		.ascii	"BKP9R\000"
 2069      5200
ARM GAS  C:\Users\DNIEL~1\AppData\Local\Temp\cc2k9ybe.s 			page 40


 2070              	.LASF77:
 2071 0324 49544D5F 		.ascii	"ITM_RxBuffer\000"
 2071      52784275 
 2071      66666572 
 2071      00
 2072              	.LASF51:
 2073 0331 69645F72 		.ascii	"id_rtc\000"
 2073      746300
 2074              	.LASF59:
 2075 0338 72746349 		.ascii	"rtcInit\000"
 2075      6E697400 
 2076              	.LASF45:
 2077 0340 424B5031 		.ascii	"BKP16R\000"
 2077      365200
 2078              	.LASF52:
 2079 0347 52544354 		.ascii	"RTCTime\000"
 2079      696D6500 
 2080              	.LASF66:
 2081 034f 616C6172 		.ascii	"alarmspec\000"
 2081      6D737065 
 2081      6300
 2082              		.ident	"GCC: (GNU Tools for ARM Embedded Processors) 4.7.4 20140401 (release) [ARM/embedded-4_7-br
ARM GAS  C:\Users\DNIEL~1\AppData\Local\Temp\cc2k9ybe.s 			page 41


DEFINED SYMBOLS
                            *ABS*:00000000 rtc.c
C:\Users\DNIEL~1\AppData\Local\Temp\cc2k9ybe.s:19     .text.rtcInit:00000000 $t
C:\Users\DNIEL~1\AppData\Local\Temp\cc2k9ybe.s:25     .text.rtcInit:00000000 rtcInit
C:\Users\DNIEL~1\AppData\Local\Temp\cc2k9ybe.s:41     .text.rtcSetTime:00000000 $t
C:\Users\DNIEL~1\AppData\Local\Temp\cc2k9ybe.s:47     .text.rtcSetTime:00000000 rtcSetTime
C:\Users\DNIEL~1\AppData\Local\Temp\cc2k9ybe.s:87     .text.rtcGetTime:00000000 $t
C:\Users\DNIEL~1\AppData\Local\Temp\cc2k9ybe.s:93     .text.rtcGetTime:00000000 rtcGetTime
C:\Users\DNIEL~1\AppData\Local\Temp\cc2k9ybe.s:133    .text.rtcSetAlarm:00000000 $t
C:\Users\DNIEL~1\AppData\Local\Temp\cc2k9ybe.s:139    .text.rtcSetAlarm:00000000 rtcSetAlarm
C:\Users\DNIEL~1\AppData\Local\Temp\cc2k9ybe.s:179    .text.rtcGetAlarm:00000000 $t
C:\Users\DNIEL~1\AppData\Local\Temp\cc2k9ybe.s:185    .text.rtcGetAlarm:00000000 rtcGetAlarm
C:\Users\DNIEL~1\AppData\Local\Temp\cc2k9ybe.s:225    .text.rtcGetTimeFat:00000000 $t
C:\Users\DNIEL~1\AppData\Local\Temp\cc2k9ybe.s:231    .text.rtcGetTimeFat:00000000 rtcGetTimeFat
                     .debug_frame:00000010 $d

UNDEFINED SYMBOLS
rtc_lld_init
rtc_lld_set_time
rtc_lld_get_time
rtc_lld_set_alarm
rtc_lld_get_alarm
rtc_lld_get_time_fat
