ARM GAS  C:\Users\DNIEL~1\AppData\Local\Temp\ccqYFNsc.s 			page 1


   1              		.syntax unified
   2              		.cpu cortex-m4
   3              		.fpu softvfp
   4              		.eabi_attribute 20, 1
   5              		.eabi_attribute 21, 1
   6              		.eabi_attribute 23, 3
   7              		.eabi_attribute 24, 1
   8              		.eabi_attribute 25, 1
   9              		.eabi_attribute 26, 1
  10              		.eabi_attribute 30, 2
  11              		.eabi_attribute 18, 4
  12              		.thumb
  13              		.file	"rtc_lld.c"
  14              		.section	.debug_abbrev,"",%progbits
  15              	.Ldebug_abbrev0:
  16              		.section	.debug_info,"",%progbits
  17              	.Ldebug_info0:
  18              		.section	.debug_line,"",%progbits
  19              	.Ldebug_line0:
  20 0000 08030000 		.text
  20      0200BC01 
  20      00000201 
  20      FB0E0D00 
  20      01010101 
  21              	.Ltext0:
  22              		.cfi_sections	.debug_frame
  23              		.section	.text.rtc_lld_init,"ax",%progbits
  24              		.align	2
  25              		.p2align 4,,15
  26              		.global	rtc_lld_init
  27              		.thumb
  28              		.thumb_func
  29              		.type	rtc_lld_init, %function
  30              	rtc_lld_init:
  31              	.LFB118:
  32              		.file 1 "../../../ChibiOS/os/hal/platforms/STM32/RTCv2/rtc_lld.c"
  33              		.loc 1 93 0
  34              		.cfi_startproc
  35              		@ args = 0, pretend = 0, frame = 0
  36              		@ frame_needed = 0, uses_anonymous_args = 0
  37              		@ link register save eliminated.
  38              		.loc 1 94 0
  39 0000 0D49     		ldr	r1, .L6
  40 0002 0E4A     		ldr	r2, .L6+4
  41              		.loc 1 100 0
  42 0004 CA23     		movs	r3, #202
  43              		.loc 1 101 0
  44 0006 5320     		movs	r0, #83
  45              		.loc 1 100 0
  46 0008 4B62     		str	r3, [r1, #36]
  47              		.loc 1 101 0
  48 000a 4862     		str	r0, [r1, #36]
  49              		.loc 1 104 0
  50 000c CB68     		ldr	r3, [r1, #12]
  51              		.loc 1 94 0
  52 000e 1160     		str	r1, [r2, #0]
  53              	.LVL0:
ARM GAS  C:\Users\DNIEL~1\AppData\Local\Temp\ccqYFNsc.s 			page 2


  54              		.loc 1 104 0
  55 0010 13F0100F 		tst	r3, #16
  56 0014 0FD1     		bne	.L1
  57              		.loc 1 105 0
  58 0016 C868     		ldr	r0, [r1, #12]
  59 0018 40F08002 		orr	r2, r0, #128
  60 001c CA60     		str	r2, [r1, #12]
  61              	.L3:
  62              		.loc 1 105 0 is_stmt 0 discriminator 1
  63 001e CB68     		ldr	r3, [r1, #12]
  64 0020 054A     		ldr	r2, .L6
  65 0022 13F0400F 		tst	r3, #64
  66 0026 FAD0     		beq	.L3
  67              	.LVL1:
  68              		.loc 1 110 0 is_stmt 1
  69 0028 054B     		ldr	r3, .L6+8
  70 002a 1361     		str	r3, [r2, #16]
  71              		.loc 1 111 0
  72 002c 1361     		str	r3, [r2, #16]
  73              		.loc 1 112 0
  74 002e D068     		ldr	r0, [r2, #12]
  75 0030 20F08001 		bic	r1, r0, #128
  76 0034 D160     		str	r1, [r2, #12]
  77              	.LVL2:
  78              	.L1:
  79 0036 7047     		bx	lr
  80              	.L7:
  81              		.align	2
  82              	.L6:
  83 0038 00280040 		.word	1073752064
  84 003c 00000000 		.word	.LANCHOR0
  85 0040 FF007F00 		.word	8323327
  86              		.cfi_endproc
  87              	.LFE118:
  88              		.size	rtc_lld_init, .-rtc_lld_init
  89 0044 AFF30080 		.section	.text.rtc_lld_set_time,"ax",%progbits
  89      AFF30080 
  89      AFF30080 
  90              		.align	2
  91              		.p2align 4,,15
  92              		.global	rtc_lld_set_time
  93              		.thumb
  94              		.thumb_func
  95              		.type	rtc_lld_set_time, %function
  96              	rtc_lld_set_time:
  97              	.LFB119:
  98              		.loc 1 126 0
  99              		.cfi_startproc
 100              		@ args = 0, pretend = 0, frame = 0
 101              		@ frame_needed = 0, uses_anonymous_args = 0
 102              		@ link register save eliminated.
 103              	.LVL3:
 104              		.loc 1 129 0
 105 0000 0E4B     		ldr	r3, .L14
 106 0002 1B68     		ldr	r3, [r3, #0]
 107 0004 D868     		ldr	r0, [r3, #12]
 108              	.LVL4:
ARM GAS  C:\Users\DNIEL~1\AppData\Local\Temp\ccqYFNsc.s 			page 3


 109 0006 40F08002 		orr	r2, r0, #128
 110 000a DA60     		str	r2, [r3, #12]
 111              	.L9:
 112              		.loc 1 129 0 is_stmt 0 discriminator 1
 113 000c DA68     		ldr	r2, [r3, #12]
 114 000e 12F0400F 		tst	r2, #64
 115 0012 FBD0     		beq	.L9
 116              		.loc 1 130 0 is_stmt 1
 117 0014 8868     		ldr	r0, [r1, #8]
 118 0016 60B9     		cbnz	r0, .L13
 119              		.loc 1 133 0
 120 0018 9868     		ldr	r0, [r3, #8]
 121 001a 20F04002 		bic	r2, r0, #64
 122 001e 9A60     		str	r2, [r3, #8]
 123              	.L11:
 124              		.loc 1 134 0
 125 0020 4868     		ldr	r0, [r1, #4]
 126              		.loc 1 135 0
 127 0022 0968     		ldr	r1, [r1, #0]
 128              	.LVL5:
 129              		.loc 1 134 0
 130 0024 1860     		str	r0, [r3, #0]
 131              		.loc 1 135 0
 132 0026 5960     		str	r1, [r3, #4]
 133              		.loc 1 136 0
 134 0028 DA68     		ldr	r2, [r3, #12]
 135 002a 22F08001 		bic	r1, r2, #128
 136 002e D960     		str	r1, [r3, #12]
 137              		.loc 1 137 0
 138 0030 7047     		bx	lr
 139              	.LVL6:
 140              	.L13:
 141              		.loc 1 131 0
 142 0032 9868     		ldr	r0, [r3, #8]
 143 0034 40F04002 		orr	r2, r0, #64
 144 0038 9A60     		str	r2, [r3, #8]
 145 003a F1E7     		b	.L11
 146              	.L15:
 147              		.align	2
 148              	.L14:
 149 003c 00000000 		.word	.LANCHOR0
 150              		.cfi_endproc
 151              	.LFE119:
 152              		.size	rtc_lld_set_time, .-rtc_lld_set_time
 153              		.section	.text.rtc_lld_get_time,"ax",%progbits
 154              		.align	2
 155              		.p2align 4,,15
 156              		.global	rtc_lld_get_time
 157              		.thumb
 158              		.thumb_func
 159              		.type	rtc_lld_get_time, %function
 160              	rtc_lld_get_time:
 161              	.LFB120:
 162              		.loc 1 147 0
 163              		.cfi_startproc
 164              		@ args = 0, pretend = 0, frame = 0
 165              		@ frame_needed = 0, uses_anonymous_args = 0
ARM GAS  C:\Users\DNIEL~1\AppData\Local\Temp\ccqYFNsc.s 			page 4


 166              		@ link register save eliminated.
 167              	.LVL7:
 168 0000 70B4     		push	{r4, r5, r6}
 169              	.LCFI0:
 170              		.cfi_def_cfa_offset 12
 171              		.loc 1 147 0
 172 0002 0E4B     		ldr	r3, .L19
 173 0004 1B68     		ldr	r3, [r3, #0]
 174              	.L17:
 175              		.loc 1 150 0 discriminator 1
 176 0006 DA68     		ldr	r2, [r3, #12]
 177 0008 12F0200F 		tst	r2, #32
 178 000c FBD0     		beq	.L17
 179              		.cfi_offset 6, -4
 180              		.cfi_offset 5, -8
 181              		.cfi_offset 4, -12
 182              		.loc 1 154 0
 183 000e 1A69     		ldr	r2, [r3, #16]
 184 0010 9C6A     		ldr	r4, [r3, #40]
 185              		.loc 1 155 0
 186 0012 1D69     		ldr	r5, [r3, #16]
 187              		.loc 1 157 0
 188 0014 1E68     		ldr	r6, [r3, #0]
 189              		.loc 1 158 0
 190 0016 5868     		ldr	r0, [r3, #4]
 191              	.LVL8:
 192              		.loc 1 157 0
 193 0018 4E60     		str	r6, [r1, #4]
 194              		.loc 1 154 0
 195 001a 5304     		lsls	r3, r2, #17
 196 001c 5A0C     		lsrs	r2, r3, #17
 197              		.loc 1 155 0
 198 001e 6B04     		lsls	r3, r5, #17
 199              		.loc 1 154 0
 200 0020 121B     		subs	r2, r2, r4
 201              		.loc 1 155 0
 202 0022 5B0C     		lsrs	r3, r3, #17
 203              		.loc 1 154 0
 204 0024 4FF47A74 		mov	r4, #1000
 205 0028 04FB02FC 		mul	ip, r4, r2
 206              		.loc 1 155 0
 207 002c 0133     		adds	r3, r3, #1
 208              		.loc 1 154 0
 209 002e BCFBF3F3 		udiv	r3, ip, r3
 210              		.loc 1 153 0
 211 0032 CB60     		str	r3, [r1, #12]
 212              		.loc 1 158 0
 213 0034 0860     		str	r0, [r1, #0]
 214              		.loc 1 159 0
 215 0036 70BC     		pop	{r4, r5, r6}
 216 0038 7047     		bx	lr
 217              	.L20:
 218 003a 00BF     		.align	2
 219              	.L19:
 220 003c 00000000 		.word	.LANCHOR0
 221              		.cfi_endproc
 222              	.LFE120:
ARM GAS  C:\Users\DNIEL~1\AppData\Local\Temp\ccqYFNsc.s 			page 5


 223              		.size	rtc_lld_get_time, .-rtc_lld_get_time
 224              		.section	.text.rtc_lld_set_alarm,"ax",%progbits
 225              		.align	2
 226              		.p2align 4,,15
 227              		.global	rtc_lld_set_alarm
 228              		.thumb
 229              		.thumb_func
 230              		.type	rtc_lld_set_alarm, %function
 231              	rtc_lld_set_alarm:
 232              	.LFB121:
 233              		.loc 1 175 0
 234              		.cfi_startproc
 235              		@ args = 0, pretend = 0, frame = 0
 236              		@ frame_needed = 0, uses_anonymous_args = 0
 237              		@ link register save eliminated.
 238              	.LVL9:
 239              		.loc 1 176 0
 240 0000 0129     		cmp	r1, #1
 241 0002 15D0     		beq	.L30
 242              		.loc 1 191 0
 243 0004 002A     		cmp	r2, #0
 244 0006 28D0     		beq	.L26
 245              		.loc 1 192 0
 246 0008 0168     		ldr	r1, [r0, #0]
 247              	.LVL10:
 248 000a 8868     		ldr	r0, [r1, #8]
 249              	.LVL11:
 250 000c 20F40073 		bic	r3, r0, #512
 251 0010 8B60     		str	r3, [r1, #8]
 252              	.L27:
 253              		.loc 1 193 0 discriminator 1
 254 0012 CB68     		ldr	r3, [r1, #12]
 255 0014 13F0020F 		tst	r3, #2
 256 0018 FBD0     		beq	.L27
 257              		.loc 1 195 0
 258 001a 1068     		ldr	r0, [r2, #0]
 259 001c 0862     		str	r0, [r1, #32]
 260              		.loc 1 196 0
 261 001e 8A68     		ldr	r2, [r1, #8]
 262              	.LVL12:
 263 0020 42F40073 		orr	r3, r2, #512
 264 0024 8B60     		str	r3, [r1, #8]
 265              		.loc 1 197 0
 266 0026 8868     		ldr	r0, [r1, #8]
 267 0028 40F40052 		orr	r2, r0, #8192
 268 002c 8A60     		str	r2, [r1, #8]
 269 002e 7047     		bx	lr
 270              	.LVL13:
 271              	.L30:
 272              		.loc 1 177 0
 273 0030 EAB1     		cbz	r2, .L23
 274              		.loc 1 178 0
 275 0032 0168     		ldr	r1, [r0, #0]
 276              	.LVL14:
 277 0034 8868     		ldr	r0, [r1, #8]
 278              	.LVL15:
 279 0036 20F48073 		bic	r3, r0, #256
ARM GAS  C:\Users\DNIEL~1\AppData\Local\Temp\ccqYFNsc.s 			page 6


 280 003a 8B60     		str	r3, [r1, #8]
 281              	.L24:
 282              		.loc 1 179 0 discriminator 1
 283 003c CB68     		ldr	r3, [r1, #12]
 284 003e 13F0010F 		tst	r3, #1
 285 0042 FBD0     		beq	.L24
 286              		.loc 1 181 0
 287 0044 1068     		ldr	r0, [r2, #0]
 288 0046 C861     		str	r0, [r1, #28]
 289              		.loc 1 182 0
 290 0048 8A68     		ldr	r2, [r1, #8]
 291              	.LVL16:
 292 004a 42F48073 		orr	r3, r2, #256
 293 004e 8B60     		str	r3, [r1, #8]
 294              		.loc 1 183 0
 295 0050 8868     		ldr	r0, [r1, #8]
 296 0052 40F48052 		orr	r2, r0, #4096
 297 0056 8A60     		str	r2, [r1, #8]
 298 0058 7047     		bx	lr
 299              	.LVL17:
 300              	.L26:
 301              		.loc 1 200 0
 302 005a 0368     		ldr	r3, [r0, #0]
 303 005c 9968     		ldr	r1, [r3, #8]
 304              	.LVL18:
 305 005e 21F40050 		bic	r0, r1, #8192
 306              	.LVL19:
 307 0062 9860     		str	r0, [r3, #8]
 308              		.loc 1 201 0
 309 0064 9A68     		ldr	r2, [r3, #8]
 310              	.LVL20:
 311 0066 22F40071 		bic	r1, r2, #512
 312 006a 9960     		str	r1, [r3, #8]
 313 006c 7047     		bx	lr
 314              	.LVL21:
 315              	.L23:
 316              		.loc 1 186 0
 317 006e 0368     		ldr	r3, [r0, #0]
 318 0070 9968     		ldr	r1, [r3, #8]
 319              	.LVL22:
 320 0072 21F48050 		bic	r0, r1, #4096
 321              	.LVL23:
 322 0076 9860     		str	r0, [r3, #8]
 323              		.loc 1 187 0
 324 0078 9A68     		ldr	r2, [r3, #8]
 325              	.LVL24:
 326 007a 22F48071 		bic	r1, r2, #256
 327 007e 9960     		str	r1, [r3, #8]
 328 0080 7047     		bx	lr
 329              		.cfi_endproc
 330              	.LFE121:
 331              		.size	rtc_lld_set_alarm, .-rtc_lld_set_alarm
 332 0082 00BFAFF3 		.section	.text.rtc_lld_get_alarm,"ax",%progbits
 332      0080AFF3 
 332      0080AFF3 
 332      0080
 333              		.align	2
ARM GAS  C:\Users\DNIEL~1\AppData\Local\Temp\ccqYFNsc.s 			page 7


 334              		.p2align 4,,15
 335              		.global	rtc_lld_get_alarm
 336              		.thumb
 337              		.thumb_func
 338              		.type	rtc_lld_get_alarm, %function
 339              	rtc_lld_get_alarm:
 340              	.LFB122:
 341              		.loc 1 217 0
 342              		.cfi_startproc
 343              		@ args = 0, pretend = 0, frame = 0
 344              		@ frame_needed = 0, uses_anonymous_args = 0
 345              		@ link register save eliminated.
 346              	.LVL25:
 347              		.loc 1 219 0
 348 0000 0368     		ldr	r3, [r0, #0]
 349              		.loc 1 218 0
 350 0002 0129     		cmp	r1, #1
 351              		.loc 1 219 0
 352 0004 0CBF     		ite	eq
 353 0006 DB69     		ldreq	r3, [r3, #28]
 354              		.loc 1 221 0
 355 0008 1B6A     		ldrne	r3, [r3, #32]
 356 000a 1360     		str	r3, [r2, #0]
 357 000c 7047     		bx	lr
 358              		.cfi_endproc
 359              	.LFE122:
 360              		.size	rtc_lld_get_alarm, .-rtc_lld_get_alarm
 361 000e 00BF     		.section	.text.rtcSetPeriodicWakeup_v2,"ax",%progbits
 362              		.align	2
 363              		.p2align 4,,15
 364              		.global	rtcSetPeriodicWakeup_v2
 365              		.thumb
 366              		.thumb_func
 367              		.type	rtcSetPeriodicWakeup_v2, %function
 368              	rtcSetPeriodicWakeup_v2:
 369              	.LFB123:
 370              		.loc 1 234 0
 371              		.cfi_startproc
 372              		@ args = 0, pretend = 0, frame = 0
 373              		@ frame_needed = 0, uses_anonymous_args = 0
 374              		@ link register save eliminated.
 375              	.LVL26:
 376              		.loc 1 238 0
 377 0000 B9B1     		cbz	r1, .L35
 378              		.loc 1 239 0
 379 0002 0268     		ldr	r2, [r0, #0]
 380 0004 9068     		ldr	r0, [r2, #8]
 381              	.LVL27:
 382 0006 20F48063 		bic	r3, r0, #1024
 383 000a 9360     		str	r3, [r2, #8]
 384              	.L36:
 385              		.loc 1 240 0 discriminator 1
 386 000c D368     		ldr	r3, [r2, #12]
 387 000e 13F0040F 		tst	r3, #4
 388 0012 FBD0     		beq	.L36
 389              		.loc 1 242 0
 390 0014 0B68     		ldr	r3, [r1, #0]
ARM GAS  C:\Users\DNIEL~1\AppData\Local\Temp\ccqYFNsc.s 			page 8


 391 0016 99B2     		uxth	r1, r3
 392              	.LVL28:
 393              		.loc 1 243 0
 394 0018 C3F30240 		ubfx	r0, r3, #16, #3
 395              		.loc 1 242 0
 396 001c 5161     		str	r1, [r2, #20]
 397              		.loc 1 243 0
 398 001e 9060     		str	r0, [r2, #8]
 399              		.loc 1 244 0
 400 0020 9168     		ldr	r1, [r2, #8]
 401 0022 41F48043 		orr	r3, r1, #16384
 402 0026 9360     		str	r3, [r2, #8]
 403              		.loc 1 245 0
 404 0028 9068     		ldr	r0, [r2, #8]
 405 002a 40F48061 		orr	r1, r0, #1024
 406 002e 9160     		str	r1, [r2, #8]
 407 0030 7047     		bx	lr
 408              	.LVL29:
 409              	.L35:
 410              		.loc 1 248 0
 411 0032 0068     		ldr	r0, [r0, #0]
 412              	.LVL30:
 413 0034 8268     		ldr	r2, [r0, #8]
 414 0036 22F48043 		bic	r3, r2, #16384
 415 003a 8360     		str	r3, [r0, #8]
 416              		.loc 1 249 0
 417 003c 8168     		ldr	r1, [r0, #8]
 418              	.LVL31:
 419 003e 21F48062 		bic	r2, r1, #1024
 420 0042 8260     		str	r2, [r0, #8]
 421 0044 7047     		bx	lr
 422              		.cfi_endproc
 423              	.LFE123:
 424              		.size	rtcSetPeriodicWakeup_v2, .-rtcSetPeriodicWakeup_v2
 425 0046 00BFAFF3 		.section	.text.rtcGetPeriodicWakeup_v2,"ax",%progbits
 425      0080AFF3 
 425      0080
 426              		.align	2
 427              		.p2align 4,,15
 428              		.global	rtcGetPeriodicWakeup_v2
 429              		.thumb
 430              		.thumb_func
 431              		.type	rtcGetPeriodicWakeup_v2, %function
 432              	rtcGetPeriodicWakeup_v2:
 433              	.LFB124:
 434              		.loc 1 263 0
 435              		.cfi_startproc
 436              		@ args = 0, pretend = 0, frame = 0
 437              		@ frame_needed = 0, uses_anonymous_args = 0
 438              		@ link register save eliminated.
 439              	.LVL32:
 440              		.loc 1 265 0
 441 0000 0068     		ldr	r0, [r0, #0]
 442              	.LVL33:
 443 0002 4269     		ldr	r2, [r0, #20]
 444              		.loc 1 266 0
 445 0004 8368     		ldr	r3, [r0, #8]
ARM GAS  C:\Users\DNIEL~1\AppData\Local\Temp\ccqYFNsc.s 			page 9


 446 0006 03F00700 		and	r0, r3, #7
 447 000a 42EA0043 		orr	r3, r2, r0, lsl #16
 448 000e 0B60     		str	r3, [r1, #0]
 449              		.loc 1 267 0
 450 0010 7047     		bx	lr
 451              		.cfi_endproc
 452              	.LFE124:
 453              		.size	rtcGetPeriodicWakeup_v2, .-rtcGetPeriodicWakeup_v2
 454 0012 00BFAFF3 		.section	.text.rtc_lld_get_time_fat,"ax",%progbits
 454      0080AFF3 
 454      0080AFF3 
 454      0080
 455              		.align	2
 456              		.p2align 4,,15
 457              		.global	rtc_lld_get_time_fat
 458              		.thumb
 459              		.thumb_func
 460              		.type	rtc_lld_get_time_fat, %function
 461              	rtc_lld_get_time_fat:
 462              	.LFB125:
 463              		.loc 1 277 0
 464              		.cfi_startproc
 465              		@ args = 0, pretend = 0, frame = 16
 466              		@ frame_needed = 0, uses_anonymous_args = 0
 467              	.LVL34:
 468 0000 2DE9F047 		push	{r4, r5, r6, r7, r8, r9, sl, lr}
 469              	.LCFI1:
 470              		.cfi_def_cfa_offset 32
 471              	.LBB2:
 472              		.loc 1 284 0
 473 0004 2023     		movs	r3, #32
 474              	.LVL35:
 475              	.LBE2:
 476              		.loc 1 277 0
 477 0006 84B0     		sub	sp, sp, #16
 478              	.LCFI2:
 479              		.cfi_def_cfa_offset 48
 480              	.LBB3:
 481              		.loc 1 284 0
 482              	@ 284 "../../../ChibiOS/os/hal/platforms/STM32/RTCv2/rtc_lld.c" 1
 483 0008 83F31188 		msr     BASEPRI, r3
 484              	@ 0 "" 2
 485              	.LVL36:
 486              		.thumb
 487              	.LBE3:
 488              		.loc 1 285 0
 489 000c 6946     		mov	r1, sp
 490              		.cfi_offset 14, -4
 491              		.cfi_offset 10, -8
 492              		.cfi_offset 9, -12
 493              		.cfi_offset 8, -16
 494              		.cfi_offset 7, -20
 495              		.cfi_offset 6, -24
 496              		.cfi_offset 5, -28
 497              		.cfi_offset 4, -32
 498 000e FFF7FEFF 		bl	rtc_lld_get_time
 499              	.LVL37:
ARM GAS  C:\Users\DNIEL~1\AppData\Local\Temp\ccqYFNsc.s 			page 10


 500              	.LBB4:
 501              		.loc 1 286 0
 502 0012 0023     		movs	r3, #0
 503              	.LVL38:
 504              	@ 286 "../../../ChibiOS/os/hal/platforms/STM32/RTCv2/rtc_lld.c" 1
 505 0014 83F31188 		msr     BASEPRI, r3
 506              	@ 0 "" 2
 507              	.LVL39:
 508              		.thumb
 509              	.LBE4:
 510              		.loc 1 288 0
 511 0018 019B     		ldr	r3, [sp, #4]
 512              	.LVL40:
 513              		.loc 1 289 0
 514 001a 009A     		ldr	r2, [sp, #0]
 515              	.LVL41:
 516              		.loc 1 296 0
 517 001c C3F30230 		ubfx	r0, r3, #12, #3
 518              		.loc 1 292 0
 519 0020 C3F30211 		ubfx	r1, r3, #4, #3
 520              		.loc 1 295 0
 521 0024 C3F30329 		ubfx	r9, r3, #8, #4
 522              		.loc 1 296 0
 523 0028 00EB800C 		add	ip, r0, r0, lsl #2
 524              		.loc 1 301 0
 525 002c C3F38054 		ubfx	r4, r3, #22, #1
 526              		.loc 1 309 0
 527 0030 C2F30030 		ubfx	r0, r2, #12, #1
 528              		.loc 1 291 0
 529 0034 03F00F07 		and	r7, r3, #15
 530              		.loc 1 296 0
 531 0038 09EB4C06 		add	r6, r9, ip, lsl #1
 532              		.loc 1 292 0
 533 003c 01EB810A 		add	sl, r1, r1, lsl #2
 534              		.loc 1 305 0
 535 0040 C2F30118 		ubfx	r8, r2, #4, #2
 536              		.loc 1 301 0
 537 0044 6500     		lsls	r5, r4, #1
 538              		.loc 1 292 0
 539 0046 07EB4A0A 		add	sl, r7, sl, lsl #1
 540              	.LVL42:
 541              		.loc 1 304 0
 542 004a 02F00F0C 		and	ip, r2, #15
 543              		.loc 1 309 0
 544 004e 8700     		lsls	r7, r0, #2
 545              		.loc 1 297 0
 546 0050 4FEA4619 		lsl	r9, r6, #5
 547              		.loc 1 305 0
 548 0054 08EB8808 		add	r8, r8, r8, lsl #2
 549              		.loc 1 301 0
 550 0058 2E19     		adds	r6, r5, r4
 551              		.loc 1 305 0
 552 005a 0CEB480C 		add	ip, ip, r8, lsl #1
 553              		.loc 1 309 0
 554 005e 3F18     		adds	r7, r7, r0
 555              		.loc 1 300 0
 556 0060 C3F30151 		ubfx	r1, r3, #20, #2
ARM GAS  C:\Users\DNIEL~1\AppData\Local\Temp\ccqYFNsc.s 			page 11


 557              		.loc 1 308 0
 558 0064 C2F30324 		ubfx	r4, r2, #8, #4
 559              		.loc 1 312 0
 560 0068 C2F30345 		ubfx	r5, r2, #16, #4
 561              		.loc 1 297 0
 562 006c 49EA5A09 		orr	r9, r9, sl, lsr #1
 563              		.loc 1 313 0
 564 0070 C2F30352 		ubfx	r2, r2, #20, #4
 565              		.loc 1 302 0
 566 0074 49EA0C49 		orr	r9, r9, ip, lsl #16
 567              		.loc 1 313 0
 568 0078 02EB8200 		add	r0, r2, r2, lsl #2
 569              		.loc 1 301 0
 570 007c B600     		lsls	r6, r6, #2
 571              		.loc 1 313 0
 572 007e 1435     		adds	r5, r5, #20
 573              		.loc 1 309 0
 574 0080 04EB4704 		add	r4, r4, r7, lsl #1
 575              		.loc 1 300 0
 576 0084 01EB8101 		add	r1, r1, r1, lsl #2
 577              		.loc 1 314 0
 578 0088 05EB400C 		add	ip, r5, r0, lsl #1
 579              		.loc 1 299 0
 580 008c C3F30343 		ubfx	r3, r3, #16, #4
 581              		.loc 1 300 0
 582 0090 06EB4101 		add	r1, r6, r1, lsl #1
 583              	.LVL43:
 584              		.loc 1 306 0
 585 0094 49EA4454 		orr	r4, r9, r4, lsl #21
 586              		.loc 1 310 0
 587 0098 44EA4C62 		orr	r2, r4, ip, lsl #25
 588              	.LVL44:
 589              		.loc 1 301 0
 590 009c C818     		adds	r0, r1, r3
 591              		.loc 1 318 0
 592 009e 42EAC020 		orr	r0, r2, r0, lsl #11
 593 00a2 04B0     		add	sp, sp, #16
 594 00a4 BDE8F087 		pop	{r4, r5, r6, r7, r8, r9, sl, pc}
 595              		.cfi_endproc
 596              	.LFE125:
 597              		.size	rtc_lld_get_time_fat, .-rtc_lld_get_time_fat
 598              		.global	RTCD1
 599 00a8 AFF30080 		.section	.bss.RTCD1,"aw",%nobits
 599      AFF30080 
 600              		.align	2
 601              		.set	.LANCHOR0,. + 0
 602              		.type	RTCD1, %object
 603              		.size	RTCD1, 4
 604              	RTCD1:
 605 0000 00000000 		.space	4
 606              		.text
 607              	.Letext0:
 608              		.section	.debug_loc,"",%progbits
 609              	.Ldebug_loc0:
 610              	.LLST0:
 611 0000 10000000 		.4byte	.LVL0
 612 0004 28000000 		.4byte	.LVL1
ARM GAS  C:\Users\DNIEL~1\AppData\Local\Temp\ccqYFNsc.s 			page 12


 613 0008 0300     		.2byte	0x3
 614 000a 08       		.byte	0x8
 615 000b 7F       		.byte	0x7f
 616 000c 9F       		.byte	0x9f
 617 000d 28000000 		.4byte	.LVL1
 618 0011 36000000 		.4byte	.LVL2
 619 0015 0600     		.2byte	0x6
 620 0017 0C       		.byte	0xc
 621 0018 FF007F00 		.4byte	0x7f00ff
 622 001c 9F       		.byte	0x9f
 623 001d 00000000 		.4byte	0x0
 624 0021 00000000 		.4byte	0x0
 625              	.LLST1:
 626 0025 00000000 		.4byte	.LVL3
 627 0029 06000000 		.4byte	.LVL4
 628 002d 0100     		.2byte	0x1
 629 002f 50       		.byte	0x50
 630 0030 00000000 		.4byte	0x0
 631 0034 00000000 		.4byte	0x0
 632              	.LLST2:
 633 0038 00000000 		.4byte	.LVL3
 634 003c 24000000 		.4byte	.LVL5
 635 0040 0100     		.2byte	0x1
 636 0042 51       		.byte	0x51
 637 0043 32000000 		.4byte	.LVL6
 638 0047 40000000 		.4byte	.LFE119
 639 004b 0100     		.2byte	0x1
 640 004d 51       		.byte	0x51
 641 004e 00000000 		.4byte	0x0
 642 0052 00000000 		.4byte	0x0
 643              	.LLST3:
 644 0056 00000000 		.4byte	.LFB120
 645 005a 02000000 		.4byte	.LCFI0
 646 005e 0200     		.2byte	0x2
 647 0060 7D       		.byte	0x7d
 648 0061 00       		.sleb128 0
 649 0062 02000000 		.4byte	.LCFI0
 650 0066 40000000 		.4byte	.LFE120
 651 006a 0200     		.2byte	0x2
 652 006c 7D       		.byte	0x7d
 653 006d 0C       		.sleb128 12
 654 006e 00000000 		.4byte	0x0
 655 0072 00000000 		.4byte	0x0
 656              	.LLST4:
 657 0076 00000000 		.4byte	.LVL7
 658 007a 18000000 		.4byte	.LVL8
 659 007e 0100     		.2byte	0x1
 660 0080 50       		.byte	0x50
 661 0081 00000000 		.4byte	0x0
 662 0085 00000000 		.4byte	0x0
 663              	.LLST5:
 664 0089 00000000 		.4byte	.LVL9
 665 008d 0C000000 		.4byte	.LVL11
 666 0091 0100     		.2byte	0x1
 667 0093 50       		.byte	0x50
 668 0094 30000000 		.4byte	.LVL13
 669 0098 36000000 		.4byte	.LVL15
ARM GAS  C:\Users\DNIEL~1\AppData\Local\Temp\ccqYFNsc.s 			page 13


 670 009c 0100     		.2byte	0x1
 671 009e 50       		.byte	0x50
 672 009f 5A000000 		.4byte	.LVL17
 673 00a3 62000000 		.4byte	.LVL19
 674 00a7 0100     		.2byte	0x1
 675 00a9 50       		.byte	0x50
 676 00aa 6E000000 		.4byte	.LVL21
 677 00ae 76000000 		.4byte	.LVL23
 678 00b2 0100     		.2byte	0x1
 679 00b4 50       		.byte	0x50
 680 00b5 00000000 		.4byte	0x0
 681 00b9 00000000 		.4byte	0x0
 682              	.LLST6:
 683 00bd 00000000 		.4byte	.LVL9
 684 00c1 0A000000 		.4byte	.LVL10
 685 00c5 0100     		.2byte	0x1
 686 00c7 51       		.byte	0x51
 687 00c8 30000000 		.4byte	.LVL13
 688 00cc 34000000 		.4byte	.LVL14
 689 00d0 0100     		.2byte	0x1
 690 00d2 51       		.byte	0x51
 691 00d3 5A000000 		.4byte	.LVL17
 692 00d7 5E000000 		.4byte	.LVL18
 693 00db 0100     		.2byte	0x1
 694 00dd 51       		.byte	0x51
 695 00de 6E000000 		.4byte	.LVL21
 696 00e2 72000000 		.4byte	.LVL22
 697 00e6 0100     		.2byte	0x1
 698 00e8 51       		.byte	0x51
 699 00e9 00000000 		.4byte	0x0
 700 00ed 00000000 		.4byte	0x0
 701              	.LLST7:
 702 00f1 00000000 		.4byte	.LVL9
 703 00f5 20000000 		.4byte	.LVL12
 704 00f9 0100     		.2byte	0x1
 705 00fb 52       		.byte	0x52
 706 00fc 30000000 		.4byte	.LVL13
 707 0100 4A000000 		.4byte	.LVL16
 708 0104 0100     		.2byte	0x1
 709 0106 52       		.byte	0x52
 710 0107 5A000000 		.4byte	.LVL17
 711 010b 66000000 		.4byte	.LVL20
 712 010f 0100     		.2byte	0x1
 713 0111 52       		.byte	0x52
 714 0112 6E000000 		.4byte	.LVL21
 715 0116 7A000000 		.4byte	.LVL24
 716 011a 0100     		.2byte	0x1
 717 011c 52       		.byte	0x52
 718 011d 00000000 		.4byte	0x0
 719 0121 00000000 		.4byte	0x0
 720              	.LLST8:
 721 0125 00000000 		.4byte	.LVL26
 722 0129 06000000 		.4byte	.LVL27
 723 012d 0100     		.2byte	0x1
 724 012f 50       		.byte	0x50
 725 0130 32000000 		.4byte	.LVL29
 726 0134 34000000 		.4byte	.LVL30
ARM GAS  C:\Users\DNIEL~1\AppData\Local\Temp\ccqYFNsc.s 			page 14


 727 0138 0100     		.2byte	0x1
 728 013a 50       		.byte	0x50
 729 013b 00000000 		.4byte	0x0
 730 013f 00000000 		.4byte	0x0
 731              	.LLST9:
 732 0143 00000000 		.4byte	.LVL26
 733 0147 18000000 		.4byte	.LVL28
 734 014b 0100     		.2byte	0x1
 735 014d 51       		.byte	0x51
 736 014e 32000000 		.4byte	.LVL29
 737 0152 3E000000 		.4byte	.LVL31
 738 0156 0100     		.2byte	0x1
 739 0158 51       		.byte	0x51
 740 0159 00000000 		.4byte	0x0
 741 015d 00000000 		.4byte	0x0
 742              	.LLST10:
 743 0161 00000000 		.4byte	.LVL32
 744 0165 02000000 		.4byte	.LVL33
 745 0169 0100     		.2byte	0x1
 746 016b 50       		.byte	0x50
 747 016c 00000000 		.4byte	0x0
 748 0170 00000000 		.4byte	0x0
 749              	.LLST11:
 750 0174 00000000 		.4byte	.LFB125
 751 0178 04000000 		.4byte	.LCFI1
 752 017c 0200     		.2byte	0x2
 753 017e 7D       		.byte	0x7d
 754 017f 00       		.sleb128 0
 755 0180 04000000 		.4byte	.LCFI1
 756 0184 08000000 		.4byte	.LCFI2
 757 0188 0200     		.2byte	0x2
 758 018a 7D       		.byte	0x7d
 759 018b 20       		.sleb128 32
 760 018c 08000000 		.4byte	.LCFI2
 761 0190 A8000000 		.4byte	.LFE125
 762 0194 0200     		.2byte	0x2
 763 0196 7D       		.byte	0x7d
 764 0197 30       		.sleb128 48
 765 0198 00000000 		.4byte	0x0
 766 019c 00000000 		.4byte	0x0
 767              	.LLST12:
 768 01a0 00000000 		.4byte	.LVL34
 769 01a4 11000000 		.4byte	.LVL37-1
 770 01a8 0100     		.2byte	0x1
 771 01aa 50       		.byte	0x50
 772 01ab 00000000 		.4byte	0x0
 773 01af 00000000 		.4byte	0x0
 774              	.LLST13:
 775 01b3 9C000000 		.4byte	.LVL44
 776 01b7 A8000000 		.4byte	.LFE125
 777 01bb 0B00     		.2byte	0xb
 778 01bd 71       		.byte	0x71
 779 01be 00       		.sleb128 0
 780 01bf 73       		.byte	0x73
 781 01c0 00       		.sleb128 0
 782 01c1 22       		.byte	0x22
 783 01c2 3B       		.byte	0x3b
ARM GAS  C:\Users\DNIEL~1\AppData\Local\Temp\ccqYFNsc.s 			page 15


 784 01c3 24       		.byte	0x24
 785 01c4 72       		.byte	0x72
 786 01c5 00       		.sleb128 0
 787 01c6 21       		.byte	0x21
 788 01c7 9F       		.byte	0x9f
 789 01c8 00000000 		.4byte	0x0
 790 01cc 00000000 		.4byte	0x0
 791              	.LLST14:
 792 01d0 0C000000 		.4byte	.LVL36
 793 01d4 11000000 		.4byte	.LVL37-1
 794 01d8 0100     		.2byte	0x1
 795 01da 53       		.byte	0x53
 796 01db 00000000 		.4byte	0x0
 797 01df 00000000 		.4byte	0x0
 798              	.LLST15:
 799 01e3 18000000 		.4byte	.LVL39
 800 01e7 1A000000 		.4byte	.LVL40
 801 01eb 0100     		.2byte	0x1
 802 01ed 53       		.byte	0x53
 803 01ee 00000000 		.4byte	0x0
 804 01f2 00000000 		.4byte	0x0
 805              		.file 2 "c:\\program files (x86)\\codesourcery\\sourcery g++ lite\\bin\\../lib/gcc/arm-none-eabi/4
 806              		.file 3 "../../../ChibiOS/os/ports/GCC/ARMCMx/chtypes.h"
 807              		.file 4 "../../../ChibiOS/os/hal/platforms/STM32F4xx/stm32f4xx.h"
 808              		.file 5 "../../../ChibiOS/os/hal/include/rtc.h"
 809              		.file 6 "../../../ChibiOS/os/hal/platforms/STM32/RTCv2/rtc_lld.h"
 810              		.file 7 "../../../ChibiOS/os/ports/common/ARMCMx/CMSIS/include/core_cm4.h"
 811              		.section	.debug_info
 812 0000 81060000 		.4byte	0x681
 813 0004 0200     		.2byte	0x2
 814 0006 00000000 		.4byte	.Ldebug_abbrev0
 815 000a 04       		.byte	0x4
 816 000b 01       		.uleb128 0x1
 817 000c 33020000 		.4byte	.LASF75
 818 0010 01       		.byte	0x1
 819 0011 BC020000 		.4byte	.LASF76
 820 0015 6D020000 		.4byte	.LASF77
 821 0019 00000000 		.4byte	0x0
 822 001d 00000000 		.4byte	0x0
 823 0021 18000000 		.4byte	.Ldebug_ranges0+0x18
 824 0025 00000000 		.4byte	.Ldebug_line0
 825 0029 02       		.uleb128 0x2
 826 002a 04       		.byte	0x4
 827 002b 05       		.byte	0x5
 828 002c 696E7400 		.ascii	"int\000"
 829 0030 03       		.uleb128 0x3
 830 0031 04       		.byte	0x4
 831 0032 07       		.byte	0x7
 832 0033 50010000 		.4byte	.LASF0
 833 0037 03       		.uleb128 0x3
 834 0038 01       		.byte	0x1
 835 0039 06       		.byte	0x6
 836 003a 1D010000 		.4byte	.LASF1
 837 003e 03       		.uleb128 0x3
 838 003f 01       		.byte	0x1
 839 0040 08       		.byte	0x8
 840 0041 00010000 		.4byte	.LASF2
ARM GAS  C:\Users\DNIEL~1\AppData\Local\Temp\ccqYFNsc.s 			page 16


 841 0045 03       		.uleb128 0x3
 842 0046 02       		.byte	0x2
 843 0047 05       		.byte	0x5
 844 0048 17000000 		.4byte	.LASF3
 845 004c 03       		.uleb128 0x3
 846 004d 02       		.byte	0x2
 847 004e 07       		.byte	0x7
 848 004f 85010000 		.4byte	.LASF4
 849 0053 04       		.uleb128 0x4
 850 0054 A3010000 		.4byte	.LASF6
 851 0058 02       		.byte	0x2
 852 0059 4F       		.byte	0x4f
 853 005a 5E000000 		.4byte	0x5e
 854 005e 03       		.uleb128 0x3
 855 005f 04       		.byte	0x4
 856 0060 05       		.byte	0x5
 857 0061 B3000000 		.4byte	.LASF5
 858 0065 04       		.uleb128 0x4
 859 0066 40010000 		.4byte	.LASF7
 860 006a 02       		.byte	0x2
 861 006b 50       		.byte	0x50
 862 006c 70000000 		.4byte	0x70
 863 0070 03       		.uleb128 0x3
 864 0071 04       		.byte	0x4
 865 0072 07       		.byte	0x7
 866 0073 E3010000 		.4byte	.LASF8
 867 0077 03       		.uleb128 0x3
 868 0078 08       		.byte	0x8
 869 0079 05       		.byte	0x5
 870 007a 82000000 		.4byte	.LASF9
 871 007e 03       		.uleb128 0x3
 872 007f 08       		.byte	0x8
 873 0080 07       		.byte	0x7
 874 0081 29010000 		.4byte	.LASF10
 875 0085 04       		.uleb128 0x4
 876 0086 AB010000 		.4byte	.LASF11
 877 008a 03       		.byte	0x3
 878 008b 27       		.byte	0x27
 879 008c 53000000 		.4byte	0x53
 880 0090 05       		.uleb128 0x5
 881 0091 65000000 		.4byte	0x65
 882 0095 03       		.uleb128 0x3
 883 0096 01       		.byte	0x1
 884 0097 08       		.byte	0x8
 885 0098 98010000 		.4byte	.LASF12
 886 009c 05       		.uleb128 0x5
 887 009d 53000000 		.4byte	0x53
 888 00a1 06       		.uleb128 0x6
 889 00a2 A0       		.byte	0xa0
 890 00a3 04       		.byte	0x4
 891 00a4 0103     		.2byte	0x301
 892 00a6 08030000 		.4byte	0x308
 893 00aa 07       		.uleb128 0x7
 894 00ab 545200   		.ascii	"TR\000"
 895 00ae 04       		.byte	0x4
 896 00af 0303     		.2byte	0x303
 897 00b1 90000000 		.4byte	0x90
ARM GAS  C:\Users\DNIEL~1\AppData\Local\Temp\ccqYFNsc.s 			page 17


 898 00b5 02       		.byte	0x2
 899 00b6 23       		.byte	0x23
 900 00b7 00       		.uleb128 0x0
 901 00b8 07       		.uleb128 0x7
 902 00b9 445200   		.ascii	"DR\000"
 903 00bc 04       		.byte	0x4
 904 00bd 0403     		.2byte	0x304
 905 00bf 90000000 		.4byte	0x90
 906 00c3 02       		.byte	0x2
 907 00c4 23       		.byte	0x23
 908 00c5 04       		.uleb128 0x4
 909 00c6 07       		.uleb128 0x7
 910 00c7 435200   		.ascii	"CR\000"
 911 00ca 04       		.byte	0x4
 912 00cb 0503     		.2byte	0x305
 913 00cd 90000000 		.4byte	0x90
 914 00d1 02       		.byte	0x2
 915 00d2 23       		.byte	0x23
 916 00d3 08       		.uleb128 0x8
 917 00d4 07       		.uleb128 0x7
 918 00d5 49535200 		.ascii	"ISR\000"
 919 00d9 04       		.byte	0x4
 920 00da 0603     		.2byte	0x306
 921 00dc 90000000 		.4byte	0x90
 922 00e0 02       		.byte	0x2
 923 00e1 23       		.byte	0x23
 924 00e2 0C       		.uleb128 0xc
 925 00e3 08       		.uleb128 0x8
 926 00e4 71000000 		.4byte	.LASF13
 927 00e8 04       		.byte	0x4
 928 00e9 0703     		.2byte	0x307
 929 00eb 90000000 		.4byte	0x90
 930 00ef 02       		.byte	0x2
 931 00f0 23       		.byte	0x23
 932 00f1 10       		.uleb128 0x10
 933 00f2 08       		.uleb128 0x8
 934 00f3 2C000000 		.4byte	.LASF14
 935 00f7 04       		.byte	0x4
 936 00f8 0803     		.2byte	0x308
 937 00fa 90000000 		.4byte	0x90
 938 00fe 02       		.byte	0x2
 939 00ff 23       		.byte	0x23
 940 0100 14       		.uleb128 0x14
 941 0101 08       		.uleb128 0x8
 942 0102 A1000000 		.4byte	.LASF15
 943 0106 04       		.byte	0x4
 944 0107 0903     		.2byte	0x309
 945 0109 90000000 		.4byte	0x90
 946 010d 02       		.byte	0x2
 947 010e 23       		.byte	0x23
 948 010f 18       		.uleb128 0x18
 949 0110 08       		.uleb128 0x8
 950 0111 49010000 		.4byte	.LASF16
 951 0115 04       		.byte	0x4
 952 0116 0A03     		.2byte	0x30a
 953 0118 90000000 		.4byte	0x90
 954 011c 02       		.byte	0x2
ARM GAS  C:\Users\DNIEL~1\AppData\Local\Temp\ccqYFNsc.s 			page 18


 955 011d 23       		.byte	0x23
 956 011e 1C       		.uleb128 0x1c
 957 011f 08       		.uleb128 0x8
 958 0120 3F020000 		.4byte	.LASF17
 959 0124 04       		.byte	0x4
 960 0125 0B03     		.2byte	0x30b
 961 0127 90000000 		.4byte	0x90
 962 012b 02       		.byte	0x2
 963 012c 23       		.byte	0x23
 964 012d 20       		.uleb128 0x20
 965 012e 07       		.uleb128 0x7
 966 012f 57505200 		.ascii	"WPR\000"
 967 0133 04       		.byte	0x4
 968 0134 0C03     		.2byte	0x30c
 969 0136 90000000 		.4byte	0x90
 970 013a 02       		.byte	0x2
 971 013b 23       		.byte	0x23
 972 013c 24       		.uleb128 0x24
 973 013d 07       		.uleb128 0x7
 974 013e 53535200 		.ascii	"SSR\000"
 975 0142 04       		.byte	0x4
 976 0143 0D03     		.2byte	0x30d
 977 0145 90000000 		.4byte	0x90
 978 0149 02       		.byte	0x2
 979 014a 23       		.byte	0x23
 980 014b 28       		.uleb128 0x28
 981 014c 08       		.uleb128 0x8
 982 014d 0A030000 		.4byte	.LASF18
 983 0151 04       		.byte	0x4
 984 0152 0E03     		.2byte	0x30e
 985 0154 90000000 		.4byte	0x90
 986 0158 02       		.byte	0x2
 987 0159 23       		.byte	0x23
 988 015a 2C       		.uleb128 0x2c
 989 015b 08       		.uleb128 0x8
 990 015c 80010000 		.4byte	.LASF19
 991 0160 04       		.byte	0x4
 992 0161 0F03     		.2byte	0x30f
 993 0163 90000000 		.4byte	0x90
 994 0167 02       		.byte	0x2
 995 0168 23       		.byte	0x23
 996 0169 30       		.uleb128 0x30
 997 016a 08       		.uleb128 0x8
 998 016b 5A000000 		.4byte	.LASF20
 999 016f 04       		.byte	0x4
 1000 0170 1003     		.2byte	0x310
 1001 0172 90000000 		.4byte	0x90
 1002 0176 02       		.byte	0x2
 1003 0177 23       		.byte	0x23
 1004 0178 34       		.uleb128 0x34
 1005 0179 08       		.uleb128 0x8
 1006 017a FD020000 		.4byte	.LASF21
 1007 017e 04       		.byte	0x4
 1008 017f 1103     		.2byte	0x311
 1009 0181 90000000 		.4byte	0x90
 1010 0185 02       		.byte	0x2
 1011 0186 23       		.byte	0x23
ARM GAS  C:\Users\DNIEL~1\AppData\Local\Temp\ccqYFNsc.s 			page 19


 1012 0187 38       		.uleb128 0x38
 1013 0188 08       		.uleb128 0x8
 1014 0189 27000000 		.4byte	.LASF22
 1015 018d 04       		.byte	0x4
 1016 018e 1203     		.2byte	0x312
 1017 0190 90000000 		.4byte	0x90
 1018 0194 02       		.byte	0x2
 1019 0195 23       		.byte	0x23
 1020 0196 3C       		.uleb128 0x3c
 1021 0197 08       		.uleb128 0x8
 1022 0198 E2000000 		.4byte	.LASF23
 1023 019c 04       		.byte	0x4
 1024 019d 1303     		.2byte	0x313
 1025 019f 90000000 		.4byte	0x90
 1026 01a3 02       		.byte	0x2
 1027 01a4 23       		.byte	0x23
 1028 01a5 40       		.uleb128 0x40
 1029 01a6 08       		.uleb128 0x8
 1030 01a7 D2000000 		.4byte	.LASF24
 1031 01ab 04       		.byte	0x4
 1032 01ac 1403     		.2byte	0x314
 1033 01ae 90000000 		.4byte	0x90
 1034 01b2 02       		.byte	0x2
 1035 01b3 23       		.byte	0x23
 1036 01b4 44       		.uleb128 0x44
 1037 01b5 08       		.uleb128 0x8
 1038 01b6 B2010000 		.4byte	.LASF25
 1039 01ba 04       		.byte	0x4
 1040 01bb 1503     		.2byte	0x315
 1041 01bd 90000000 		.4byte	0x90
 1042 01c1 02       		.byte	0x2
 1043 01c2 23       		.byte	0x23
 1044 01c3 48       		.uleb128 0x48
 1045 01c4 08       		.uleb128 0x8
 1046 01c5 F5010000 		.4byte	.LASF26
 1047 01c9 04       		.byte	0x4
 1048 01ca 1603     		.2byte	0x316
 1049 01cc 65000000 		.4byte	0x65
 1050 01d0 02       		.byte	0x2
 1051 01d1 23       		.byte	0x23
 1052 01d2 4C       		.uleb128 0x4c
 1053 01d3 08       		.uleb128 0x8
 1054 01d4 2D020000 		.4byte	.LASF27
 1055 01d8 04       		.byte	0x4
 1056 01d9 1703     		.2byte	0x317
 1057 01db 90000000 		.4byte	0x90
 1058 01df 02       		.byte	0x2
 1059 01e0 23       		.byte	0x23
 1060 01e1 50       		.uleb128 0x50
 1061 01e2 08       		.uleb128 0x8
 1062 01e3 7C000000 		.4byte	.LASF28
 1063 01e7 04       		.byte	0x4
 1064 01e8 1803     		.2byte	0x318
 1065 01ea 90000000 		.4byte	0x90
 1066 01ee 02       		.byte	0x2
 1067 01ef 23       		.byte	0x23
 1068 01f0 54       		.uleb128 0x54
ARM GAS  C:\Users\DNIEL~1\AppData\Local\Temp\ccqYFNsc.s 			page 20


 1069 01f1 08       		.uleb128 0x8
 1070 01f2 11000000 		.4byte	.LASF29
 1071 01f6 04       		.byte	0x4
 1072 01f7 1903     		.2byte	0x319
 1073 01f9 90000000 		.4byte	0x90
 1074 01fd 02       		.byte	0x2
 1075 01fe 23       		.byte	0x23
 1076 01ff 58       		.uleb128 0x58
 1077 0200 08       		.uleb128 0x8
 1078 0201 76000000 		.4byte	.LASF30
 1079 0205 04       		.byte	0x4
 1080 0206 1A03     		.2byte	0x31a
 1081 0208 90000000 		.4byte	0x90
 1082 020c 02       		.byte	0x2
 1083 020d 23       		.byte	0x23
 1084 020e 5C       		.uleb128 0x5c
 1085 020f 08       		.uleb128 0x8
 1086 0210 7A010000 		.4byte	.LASF31
 1087 0214 04       		.byte	0x4
 1088 0215 1B03     		.2byte	0x31b
 1089 0217 90000000 		.4byte	0x90
 1090 021b 02       		.byte	0x2
 1091 021c 23       		.byte	0x23
 1092 021d 60       		.uleb128 0x60
 1093 021e 08       		.uleb128 0x8
 1094 021f 5F020000 		.4byte	.LASF32
 1095 0223 04       		.byte	0x4
 1096 0224 1C03     		.2byte	0x31c
 1097 0226 90000000 		.4byte	0x90
 1098 022a 02       		.byte	0x2
 1099 022b 23       		.byte	0x23
 1100 022c 64       		.uleb128 0x64
 1101 022d 08       		.uleb128 0x8
 1102 022e 21000000 		.4byte	.LASF33
 1103 0232 04       		.byte	0x4
 1104 0233 1D03     		.2byte	0x31d
 1105 0235 90000000 		.4byte	0x90
 1106 0239 02       		.byte	0x2
 1107 023a 23       		.byte	0x23
 1108 023b 68       		.uleb128 0x68
 1109 023c 08       		.uleb128 0x8
 1110 023d C3000000 		.4byte	.LASF34
 1111 0241 04       		.byte	0x4
 1112 0242 1E03     		.2byte	0x31e
 1113 0244 90000000 		.4byte	0x90
 1114 0248 02       		.byte	0x2
 1115 0249 23       		.byte	0x23
 1116 024a 6C       		.uleb128 0x6c
 1117 024b 08       		.uleb128 0x8
 1118 024c 9D010000 		.4byte	.LASF35
 1119 0250 04       		.byte	0x4
 1120 0251 1F03     		.2byte	0x31f
 1121 0253 90000000 		.4byte	0x90
 1122 0257 02       		.byte	0x2
 1123 0258 23       		.byte	0x23
 1124 0259 70       		.uleb128 0x70
 1125 025a 08       		.uleb128 0x8
ARM GAS  C:\Users\DNIEL~1\AppData\Local\Temp\ccqYFNsc.s 			page 21


 1126 025b 11030000 		.4byte	.LASF36
 1127 025f 04       		.byte	0x4
 1128 0260 2003     		.2byte	0x320
 1129 0262 90000000 		.4byte	0x90
 1130 0266 02       		.byte	0x2
 1131 0267 23       		.byte	0x23
 1132 0268 74       		.uleb128 0x74
 1133 0269 08       		.uleb128 0x8
 1134 026a BC000000 		.4byte	.LASF37
 1135 026e 04       		.byte	0x4
 1136 026f 2103     		.2byte	0x321
 1137 0271 90000000 		.4byte	0x90
 1138 0275 02       		.byte	0x2
 1139 0276 23       		.byte	0x23
 1140 0277 78       		.uleb128 0x78
 1141 0278 08       		.uleb128 0x8
 1142 0279 46020000 		.4byte	.LASF38
 1143 027d 04       		.byte	0x4
 1144 027e 2203     		.2byte	0x322
 1145 0280 90000000 		.4byte	0x90
 1146 0284 02       		.byte	0x2
 1147 0285 23       		.byte	0x23
 1148 0286 7C       		.uleb128 0x7c
 1149 0287 08       		.uleb128 0x8
 1150 0288 03030000 		.4byte	.LASF39
 1151 028c 04       		.byte	0x4
 1152 028d 2303     		.2byte	0x323
 1153 028f 90000000 		.4byte	0x90
 1154 0293 03       		.byte	0x3
 1155 0294 23       		.byte	0x23
 1156 0295 8001     		.uleb128 0x80
 1157 0297 08       		.uleb128 0x8
 1158 0298 37000000 		.4byte	.LASF40
 1159 029c 04       		.byte	0x4
 1160 029d 2403     		.2byte	0x324
 1161 029f 90000000 		.4byte	0x90
 1162 02a3 03       		.byte	0x3
 1163 02a4 23       		.byte	0x23
 1164 02a5 8401     		.uleb128 0x84
 1165 02a7 08       		.uleb128 0x8
 1166 02a8 DB000000 		.4byte	.LASF41
 1167 02ac 04       		.byte	0x4
 1168 02ad 2503     		.2byte	0x325
 1169 02af 90000000 		.4byte	0x90
 1170 02b3 03       		.byte	0x3
 1171 02b4 23       		.byte	0x23
 1172 02b5 8801     		.uleb128 0x88
 1173 02b7 08       		.uleb128 0x8
 1174 02b8 C1010000 		.4byte	.LASF42
 1175 02bc 04       		.byte	0x4
 1176 02bd 2603     		.2byte	0x326
 1177 02bf 90000000 		.4byte	0x90
 1178 02c3 03       		.byte	0x3
 1179 02c4 23       		.byte	0x23
 1180 02c5 8C01     		.uleb128 0x8c
 1181 02c7 08       		.uleb128 0x8
 1182 02c8 4D030000 		.4byte	.LASF43
ARM GAS  C:\Users\DNIEL~1\AppData\Local\Temp\ccqYFNsc.s 			page 22


 1183 02cc 04       		.byte	0x4
 1184 02cd 2703     		.2byte	0x327
 1185 02cf 90000000 		.4byte	0x90
 1186 02d3 03       		.byte	0x3
 1187 02d4 23       		.byte	0x23
 1188 02d5 9001     		.uleb128 0x90
 1189 02d7 08       		.uleb128 0x8
 1190 02d8 53000000 		.4byte	.LASF44
 1191 02dc 04       		.byte	0x4
 1192 02dd 2803     		.2byte	0x328
 1193 02df 90000000 		.4byte	0x90
 1194 02e3 03       		.byte	0x3
 1195 02e4 23       		.byte	0x23
 1196 02e5 9401     		.uleb128 0x94
 1197 02e7 08       		.uleb128 0x8
 1198 02e8 0E010000 		.4byte	.LASF45
 1199 02ec 04       		.byte	0x4
 1200 02ed 2903     		.2byte	0x329
 1201 02ef 90000000 		.4byte	0x90
 1202 02f3 03       		.byte	0x3
 1203 02f4 23       		.byte	0x23
 1204 02f5 9801     		.uleb128 0x98
 1205 02f7 08       		.uleb128 0x8
 1206 02f8 09020000 		.4byte	.LASF46
 1207 02fc 04       		.byte	0x4
 1208 02fd 2A03     		.2byte	0x32a
 1209 02ff 90000000 		.4byte	0x90
 1210 0303 03       		.byte	0x3
 1211 0304 23       		.byte	0x23
 1212 0305 9C01     		.uleb128 0x9c
 1213 0307 00       		.byte	0x0
 1214 0308 09       		.uleb128 0x9
 1215 0309 C8010000 		.4byte	.LASF47
 1216 030d 04       		.byte	0x4
 1217 030e 2B03     		.2byte	0x32b
 1218 0310 A1000000 		.4byte	0xa1
 1219 0314 04       		.uleb128 0x4
 1220 0315 FF010000 		.4byte	.LASF48
 1221 0319 05       		.byte	0x5
 1222 031a 45       		.byte	0x45
 1223 031b 1F030000 		.4byte	0x31f
 1224 031f 0A       		.uleb128 0xa
 1225 0320 FF010000 		.4byte	.LASF48
 1226 0324 04       		.byte	0x4
 1227 0325 06       		.byte	0x6
 1228 0326 A8       		.byte	0xa8
 1229 0327 3A030000 		.4byte	0x33a
 1230 032b 0B       		.uleb128 0xb
 1231 032c 2E030000 		.4byte	.LASF49
 1232 0330 06       		.byte	0x6
 1233 0331 AC       		.byte	0xac
 1234 0332 E1030000 		.4byte	0x3e1
 1235 0336 02       		.byte	0x2
 1236 0337 23       		.byte	0x23
 1237 0338 00       		.uleb128 0x0
 1238 0339 00       		.byte	0x0
 1239 033a 04       		.uleb128 0x4
ARM GAS  C:\Users\DNIEL~1\AppData\Local\Temp\ccqYFNsc.s 			page 23


 1240 033b 54030000 		.4byte	.LASF50
 1241 033f 05       		.byte	0x5
 1242 0340 4A       		.byte	0x4a
 1243 0341 45030000 		.4byte	0x345
 1244 0345 0A       		.uleb128 0xa
 1245 0346 54030000 		.4byte	.LASF50
 1246 034a 10       		.byte	0x10
 1247 034b 06       		.byte	0x6
 1248 034c 78       		.byte	0x78
 1249 034d 8A030000 		.4byte	0x38a
 1250 0351 0B       		.uleb128 0xb
 1251 0352 15010000 		.4byte	.LASF51
 1252 0356 06       		.byte	0x6
 1253 0357 7C       		.byte	0x7c
 1254 0358 65000000 		.4byte	0x65
 1255 035c 02       		.byte	0x2
 1256 035d 23       		.byte	0x23
 1257 035e 00       		.uleb128 0x0
 1258 035f 0B       		.uleb128 0xb
 1259 0360 65020000 		.4byte	.LASF52
 1260 0364 06       		.byte	0x6
 1261 0365 80       		.byte	0x80
 1262 0366 65000000 		.4byte	0x65
 1263 036a 02       		.byte	0x2
 1264 036b 23       		.byte	0x23
 1265 036c 04       		.uleb128 0x4
 1266 036d 0C       		.uleb128 0xc
 1267 036e 68313200 		.ascii	"h12\000"
 1268 0372 06       		.byte	0x6
 1269 0373 84       		.byte	0x84
 1270 0374 85000000 		.4byte	0x85
 1271 0378 02       		.byte	0x2
 1272 0379 23       		.byte	0x23
 1273 037a 08       		.uleb128 0x8
 1274 037b 0B       		.uleb128 0xb
 1275 037c DB010000 		.4byte	.LASF53
 1276 0380 06       		.byte	0x6
 1277 0381 89       		.byte	0x89
 1278 0382 65000000 		.4byte	0x65
 1279 0386 02       		.byte	0x2
 1280 0387 23       		.byte	0x23
 1281 0388 0C       		.uleb128 0xc
 1282 0389 00       		.byte	0x0
 1283 038a 04       		.uleb128 0x4
 1284 038b C9000000 		.4byte	.LASF54
 1285 038f 06       		.byte	0x6
 1286 0390 63       		.byte	0x63
 1287 0391 95030000 		.4byte	0x395
 1288 0395 0A       		.uleb128 0xa
 1289 0396 C9000000 		.4byte	.LASF54
 1290 039a 04       		.byte	0x4
 1291 039b 06       		.byte	0x6
 1292 039c 90       		.byte	0x90
 1293 039d B0030000 		.4byte	0x3b0
 1294 03a1 0B       		.uleb128 0xb
 1295 03a2 3E000000 		.4byte	.LASF55
 1296 03a6 06       		.byte	0x6
ARM GAS  C:\Users\DNIEL~1\AppData\Local\Temp\ccqYFNsc.s 			page 24


 1297 03a7 94       		.byte	0x94
 1298 03a8 65000000 		.4byte	0x65
 1299 03ac 02       		.byte	0x2
 1300 03ad 23       		.byte	0x23
 1301 03ae 00       		.uleb128 0x0
 1302 03af 00       		.byte	0x0
 1303 03b0 04       		.uleb128 0x4
 1304 03b1 17030000 		.4byte	.LASF56
 1305 03b5 06       		.byte	0x6
 1306 03b6 68       		.byte	0x68
 1307 03b7 BB030000 		.4byte	0x3bb
 1308 03bb 0A       		.uleb128 0xa
 1309 03bc 17030000 		.4byte	.LASF56
 1310 03c0 04       		.byte	0x4
 1311 03c1 06       		.byte	0x6
 1312 03c2 9A       		.byte	0x9a
 1313 03c3 D6030000 		.4byte	0x3d6
 1314 03c7 0B       		.uleb128 0xb
 1315 03c8 D4010000 		.4byte	.LASF57
 1316 03cc 06       		.byte	0x6
 1317 03cd A2       		.byte	0xa2
 1318 03ce 65000000 		.4byte	0x65
 1319 03d2 02       		.byte	0x2
 1320 03d3 23       		.byte	0x23
 1321 03d4 00       		.uleb128 0x0
 1322 03d5 00       		.byte	0x0
 1323 03d6 04       		.uleb128 0x4
 1324 03d7 A8000000 		.4byte	.LASF58
 1325 03db 06       		.byte	0x6
 1326 03dc 73       		.byte	0x73
 1327 03dd 65000000 		.4byte	0x65
 1328 03e1 0D       		.uleb128 0xd
 1329 03e2 04       		.byte	0x4
 1330 03e3 08030000 		.4byte	0x308
 1331 03e7 0E       		.uleb128 0xe
 1332 03e8 01       		.byte	0x1
 1333 03e9 E8000000 		.4byte	.LASF59
 1334 03ed 01       		.byte	0x1
 1335 03ee 5D       		.byte	0x5d
 1336 03ef 01       		.byte	0x1
 1337 03f0 00000000 		.4byte	.LFB118
 1338 03f4 44000000 		.4byte	.LFE118
 1339 03f8 02       		.byte	0x2
 1340 03f9 7D       		.byte	0x7d
 1341 03fa 00       		.sleb128 0
 1342 03fb 0F040000 		.4byte	0x40f
 1343 03ff 0F       		.uleb128 0xf
 1344 0400 4A000000 		.4byte	.LASF71
 1345 0404 01       		.byte	0x1
 1346 0405 61       		.byte	0x61
 1347 0406 65000000 		.4byte	0x65
 1348 040a 00000000 		.4byte	.LLST0
 1349 040e 00       		.byte	0x0
 1350 040f 0E       		.uleb128 0xe
 1351 0410 01       		.byte	0x1
 1352 0411 00000000 		.4byte	.LASF60
 1353 0415 01       		.byte	0x1
ARM GAS  C:\Users\DNIEL~1\AppData\Local\Temp\ccqYFNsc.s 			page 25


 1354 0416 7E       		.byte	0x7e
 1355 0417 01       		.byte	0x1
 1356 0418 00000000 		.4byte	.LFB119
 1357 041c 40000000 		.4byte	.LFE119
 1358 0420 02       		.byte	0x2
 1359 0421 7D       		.byte	0x7d
 1360 0422 00       		.sleb128 0
 1361 0423 46040000 		.4byte	0x446
 1362 0427 10       		.uleb128 0x10
 1363 0428 75010000 		.4byte	.LASF61
 1364 042c 01       		.byte	0x1
 1365 042d 7E       		.byte	0x7e
 1366 042e 46040000 		.4byte	0x446
 1367 0432 25000000 		.4byte	.LLST1
 1368 0436 10       		.uleb128 0x10
 1369 0437 F4020000 		.4byte	.LASF62
 1370 043b 01       		.byte	0x1
 1371 043c 7E       		.byte	0x7e
 1372 043d 4C040000 		.4byte	0x44c
 1373 0441 38000000 		.4byte	.LLST2
 1374 0445 00       		.byte	0x0
 1375 0446 0D       		.uleb128 0xd
 1376 0447 04       		.byte	0x4
 1377 0448 14030000 		.4byte	0x314
 1378 044c 0D       		.uleb128 0xd
 1379 044d 04       		.byte	0x4
 1380 044e 52040000 		.4byte	0x452
 1381 0452 11       		.uleb128 0x11
 1382 0453 3A030000 		.4byte	0x33a
 1383 0457 12       		.uleb128 0x12
 1384 0458 01       		.byte	0x1
 1385 0459 90000000 		.4byte	.LASF63
 1386 045d 01       		.byte	0x1
 1387 045e 93       		.byte	0x93
 1388 045f 01       		.byte	0x1
 1389 0460 00000000 		.4byte	.LFB120
 1390 0464 40000000 		.4byte	.LFE120
 1391 0468 56000000 		.4byte	.LLST3
 1392 046c 8D040000 		.4byte	0x48d
 1393 0470 10       		.uleb128 0x10
 1394 0471 75010000 		.4byte	.LASF61
 1395 0475 01       		.byte	0x1
 1396 0476 93       		.byte	0x93
 1397 0477 46040000 		.4byte	0x446
 1398 047b 76000000 		.4byte	.LLST4
 1399 047f 13       		.uleb128 0x13
 1400 0480 F4020000 		.4byte	.LASF62
 1401 0484 01       		.byte	0x1
 1402 0485 93       		.byte	0x93
 1403 0486 8D040000 		.4byte	0x48d
 1404 048a 01       		.byte	0x1
 1405 048b 51       		.byte	0x51
 1406 048c 00       		.byte	0x0
 1407 048d 0D       		.uleb128 0xd
 1408 048e 04       		.byte	0x4
 1409 048f 3A030000 		.4byte	0x33a
 1410 0493 0E       		.uleb128 0xe
ARM GAS  C:\Users\DNIEL~1\AppData\Local\Temp\ccqYFNsc.s 			page 26


 1411 0494 01       		.byte	0x1
 1412 0495 5F000000 		.4byte	.LASF64
 1413 0499 01       		.byte	0x1
 1414 049a AD       		.byte	0xad
 1415 049b 01       		.byte	0x1
 1416 049c 00000000 		.4byte	.LFB121
 1417 04a0 82000000 		.4byte	.LFE121
 1418 04a4 02       		.byte	0x2
 1419 04a5 7D       		.byte	0x7d
 1420 04a6 00       		.sleb128 0
 1421 04a7 D9040000 		.4byte	0x4d9
 1422 04ab 10       		.uleb128 0x10
 1423 04ac 75010000 		.4byte	.LASF61
 1424 04b0 01       		.byte	0x1
 1425 04b1 AD       		.byte	0xad
 1426 04b2 46040000 		.4byte	0x446
 1427 04b6 89000000 		.4byte	.LLST5
 1428 04ba 10       		.uleb128 0x10
 1429 04bb BB010000 		.4byte	.LASF65
 1430 04bf 01       		.byte	0x1
 1431 04c0 AE       		.byte	0xae
 1432 04c1 D6030000 		.4byte	0x3d6
 1433 04c5 BD000000 		.4byte	.LLST6
 1434 04c9 10       		.uleb128 0x10
 1435 04ca 5C030000 		.4byte	.LASF66
 1436 04ce 01       		.byte	0x1
 1437 04cf AF       		.byte	0xaf
 1438 04d0 D9040000 		.4byte	0x4d9
 1439 04d4 F1000000 		.4byte	.LLST7
 1440 04d8 00       		.byte	0x0
 1441 04d9 0D       		.uleb128 0xd
 1442 04da 04       		.byte	0x4
 1443 04db DF040000 		.4byte	0x4df
 1444 04df 11       		.uleb128 0x11
 1445 04e0 8A030000 		.4byte	0x38a
 1446 04e4 0E       		.uleb128 0xe
 1447 04e5 01       		.byte	0x1
 1448 04e6 4D020000 		.4byte	.LASF67
 1449 04ea 01       		.byte	0x1
 1450 04eb D7       		.byte	0xd7
 1451 04ec 01       		.byte	0x1
 1452 04ed 00000000 		.4byte	.LFB122
 1453 04f1 0E000000 		.4byte	.LFE122
 1454 04f5 02       		.byte	0x2
 1455 04f6 7D       		.byte	0x7d
 1456 04f7 00       		.sleb128 0
 1457 04f8 24050000 		.4byte	0x524
 1458 04fc 13       		.uleb128 0x13
 1459 04fd 75010000 		.4byte	.LASF61
 1460 0501 01       		.byte	0x1
 1461 0502 D7       		.byte	0xd7
 1462 0503 46040000 		.4byte	0x446
 1463 0507 01       		.byte	0x1
 1464 0508 50       		.byte	0x50
 1465 0509 13       		.uleb128 0x13
 1466 050a BB010000 		.4byte	.LASF65
 1467 050e 01       		.byte	0x1
ARM GAS  C:\Users\DNIEL~1\AppData\Local\Temp\ccqYFNsc.s 			page 27


 1468 050f D8       		.byte	0xd8
 1469 0510 D6030000 		.4byte	0x3d6
 1470 0514 01       		.byte	0x1
 1471 0515 51       		.byte	0x51
 1472 0516 13       		.uleb128 0x13
 1473 0517 5C030000 		.4byte	.LASF66
 1474 051b 01       		.byte	0x1
 1475 051c D9       		.byte	0xd9
 1476 051d 24050000 		.4byte	0x524
 1477 0521 01       		.byte	0x1
 1478 0522 52       		.byte	0x52
 1479 0523 00       		.byte	0x0
 1480 0524 0D       		.uleb128 0xd
 1481 0525 04       		.byte	0x4
 1482 0526 8A030000 		.4byte	0x38a
 1483 052a 0E       		.uleb128 0xe
 1484 052b 01       		.byte	0x1
 1485 052c 5D010000 		.4byte	.LASF68
 1486 0530 01       		.byte	0x1
 1487 0531 EA       		.byte	0xea
 1488 0532 01       		.byte	0x1
 1489 0533 00000000 		.4byte	.LFB123
 1490 0537 46000000 		.4byte	.LFE123
 1491 053b 02       		.byte	0x2
 1492 053c 7D       		.byte	0x7d
 1493 053d 00       		.sleb128 0
 1494 053e 61050000 		.4byte	0x561
 1495 0542 10       		.uleb128 0x10
 1496 0543 75010000 		.4byte	.LASF61
 1497 0547 01       		.byte	0x1
 1498 0548 EA       		.byte	0xea
 1499 0549 46040000 		.4byte	0x446
 1500 054d 25010000 		.4byte	.LLST8
 1501 0551 10       		.uleb128 0x10
 1502 0552 F5000000 		.4byte	.LASF69
 1503 0556 01       		.byte	0x1
 1504 0557 EA       		.byte	0xea
 1505 0558 61050000 		.4byte	0x561
 1506 055c 43010000 		.4byte	.LLST9
 1507 0560 00       		.byte	0x0
 1508 0561 0D       		.uleb128 0xd
 1509 0562 04       		.byte	0x4
 1510 0563 B0030000 		.4byte	0x3b0
 1511 0567 14       		.uleb128 0x14
 1512 0568 01       		.byte	0x1
 1513 0569 35030000 		.4byte	.LASF70
 1514 056d 01       		.byte	0x1
 1515 056e 0701     		.2byte	0x107
 1516 0570 01       		.byte	0x1
 1517 0571 00000000 		.4byte	.LFB124
 1518 0575 12000000 		.4byte	.LFE124
 1519 0579 02       		.byte	0x2
 1520 057a 7D       		.byte	0x7d
 1521 057b 00       		.sleb128 0
 1522 057c 9F050000 		.4byte	0x59f
 1523 0580 15       		.uleb128 0x15
 1524 0581 75010000 		.4byte	.LASF61
ARM GAS  C:\Users\DNIEL~1\AppData\Local\Temp\ccqYFNsc.s 			page 28


 1525 0585 01       		.byte	0x1
 1526 0586 0701     		.2byte	0x107
 1527 0588 46040000 		.4byte	0x446
 1528 058c 61010000 		.4byte	.LLST10
 1529 0590 16       		.uleb128 0x16
 1530 0591 F5000000 		.4byte	.LASF69
 1531 0595 01       		.byte	0x1
 1532 0596 0701     		.2byte	0x107
 1533 0598 61050000 		.4byte	0x561
 1534 059c 01       		.byte	0x1
 1535 059d 51       		.byte	0x51
 1536 059e 00       		.byte	0x0
 1537 059f 17       		.uleb128 0x17
 1538 05a0 01       		.byte	0x1
 1539 05a1 18020000 		.4byte	.LASF78
 1540 05a5 01       		.byte	0x1
 1541 05a6 1501     		.2byte	0x115
 1542 05a8 01       		.byte	0x1
 1543 05a9 65000000 		.4byte	0x65
 1544 05ad 00000000 		.4byte	.LFB125
 1545 05b1 A8000000 		.4byte	.LFE125
 1546 05b5 74010000 		.4byte	.LLST11
 1547 05b9 49060000 		.4byte	0x649
 1548 05bd 15       		.uleb128 0x15
 1549 05be 75010000 		.4byte	.LASF61
 1550 05c2 01       		.byte	0x1
 1551 05c3 1501     		.2byte	0x115
 1552 05c5 46040000 		.4byte	0x446
 1553 05c9 A0010000 		.4byte	.LLST12
 1554 05cd 18       		.uleb128 0x18
 1555 05ce 10020000 		.4byte	.LASF72
 1556 05d2 01       		.byte	0x1
 1557 05d3 1601     		.2byte	0x116
 1558 05d5 65000000 		.4byte	0x65
 1559 05d9 B3010000 		.4byte	.LLST13
 1560 05dd 19       		.uleb128 0x19
 1561 05de F4020000 		.4byte	.LASF62
 1562 05e2 01       		.byte	0x1
 1563 05e3 1701     		.2byte	0x117
 1564 05e5 3A030000 		.4byte	0x33a
 1565 05e9 02       		.byte	0x2
 1566 05ea 91       		.byte	0x91
 1567 05eb 50       		.sleb128 -48
 1568 05ec 19       		.uleb128 0x19
 1569 05ed 65020000 		.4byte	.LASF52
 1570 05f1 01       		.byte	0x1
 1571 05f2 1801     		.2byte	0x118
 1572 05f4 65000000 		.4byte	0x65
 1573 05f8 02       		.byte	0x2
 1574 05f9 91       		.byte	0x91
 1575 05fa 54       		.sleb128 -44
 1576 05fb 19       		.uleb128 0x19
 1577 05fc 15010000 		.4byte	.LASF51
 1578 0600 01       		.byte	0x1
 1579 0601 1901     		.2byte	0x119
 1580 0603 65000000 		.4byte	0x65
 1581 0607 02       		.byte	0x2
ARM GAS  C:\Users\DNIEL~1\AppData\Local\Temp\ccqYFNsc.s 			page 29


 1582 0608 7D       		.byte	0x7d
 1583 0609 00       		.sleb128 0
 1584 060a 1A       		.uleb128 0x1a
 1585 060b 7600     		.ascii	"v\000"
 1586 060d 01       		.byte	0x1
 1587 060e 1A01     		.2byte	0x11a
 1588 0610 65000000 		.4byte	0x65
 1589 0614 1B       		.uleb128 0x1b
 1590 0615 00000000 		.4byte	.Ldebug_ranges0+0x0
 1591 0619 2E060000 		.4byte	0x62e
 1592 061d 1C       		.uleb128 0x1c
 1593 061e 746D7000 		.ascii	"tmp\000"
 1594 0622 01       		.byte	0x1
 1595 0623 1C01     		.2byte	0x11c
 1596 0625 65000000 		.4byte	0x65
 1597 0629 D0010000 		.4byte	.LLST14
 1598 062d 00       		.byte	0x0
 1599 062e 1D       		.uleb128 0x1d
 1600 062f 12000000 		.4byte	.LBB4
 1601 0633 18000000 		.4byte	.LBE4
 1602 0637 1C       		.uleb128 0x1c
 1603 0638 746D7000 		.ascii	"tmp\000"
 1604 063c 01       		.byte	0x1
 1605 063d 1E01     		.2byte	0x11e
 1606 063f 65000000 		.4byte	0x65
 1607 0643 E3010000 		.4byte	.LLST15
 1608 0647 00       		.byte	0x0
 1609 0648 00       		.byte	0x0
 1610 0649 1E       		.uleb128 0x1e
 1611 064a 21030000 		.4byte	.LASF73
 1612 064e 07       		.byte	0x7
 1613 064f 9806     		.2byte	0x698
 1614 0651 9C000000 		.4byte	0x9c
 1615 0655 01       		.byte	0x1
 1616 0656 01       		.byte	0x1
 1617 0657 1F       		.uleb128 0x1f
 1618 0658 31000000 		.4byte	.LASF74
 1619 065c 06       		.byte	0x6
 1620 065d B8       		.byte	0xb8
 1621 065e 14030000 		.4byte	0x314
 1622 0662 01       		.byte	0x1
 1623 0663 01       		.byte	0x1
 1624 0664 1E       		.uleb128 0x1e
 1625 0665 21030000 		.4byte	.LASF73
 1626 0669 07       		.byte	0x7
 1627 066a 9806     		.2byte	0x698
 1628 066c 9C000000 		.4byte	0x9c
 1629 0670 01       		.byte	0x1
 1630 0671 01       		.byte	0x1
 1631 0672 20       		.uleb128 0x20
 1632 0673 31000000 		.4byte	.LASF74
 1633 0677 01       		.byte	0x1
 1634 0678 2D       		.byte	0x2d
 1635 0679 14030000 		.4byte	0x314
 1636 067d 01       		.byte	0x1
 1637 067e 05       		.byte	0x5
 1638 067f 03       		.byte	0x3
ARM GAS  C:\Users\DNIEL~1\AppData\Local\Temp\ccqYFNsc.s 			page 30


 1639 0680 00000000 		.4byte	RTCD1
 1640 0684 00       		.byte	0x0
 1641              		.section	.debug_abbrev
 1642 0000 01       		.uleb128 0x1
 1643 0001 11       		.uleb128 0x11
 1644 0002 01       		.byte	0x1
 1645 0003 25       		.uleb128 0x25
 1646 0004 0E       		.uleb128 0xe
 1647 0005 13       		.uleb128 0x13
 1648 0006 0B       		.uleb128 0xb
 1649 0007 03       		.uleb128 0x3
 1650 0008 0E       		.uleb128 0xe
 1651 0009 1B       		.uleb128 0x1b
 1652 000a 0E       		.uleb128 0xe
 1653 000b 11       		.uleb128 0x11
 1654 000c 01       		.uleb128 0x1
 1655 000d 52       		.uleb128 0x52
 1656 000e 01       		.uleb128 0x1
 1657 000f 55       		.uleb128 0x55
 1658 0010 06       		.uleb128 0x6
 1659 0011 10       		.uleb128 0x10
 1660 0012 06       		.uleb128 0x6
 1661 0013 00       		.byte	0x0
 1662 0014 00       		.byte	0x0
 1663 0015 02       		.uleb128 0x2
 1664 0016 24       		.uleb128 0x24
 1665 0017 00       		.byte	0x0
 1666 0018 0B       		.uleb128 0xb
 1667 0019 0B       		.uleb128 0xb
 1668 001a 3E       		.uleb128 0x3e
 1669 001b 0B       		.uleb128 0xb
 1670 001c 03       		.uleb128 0x3
 1671 001d 08       		.uleb128 0x8
 1672 001e 00       		.byte	0x0
 1673 001f 00       		.byte	0x0
 1674 0020 03       		.uleb128 0x3
 1675 0021 24       		.uleb128 0x24
 1676 0022 00       		.byte	0x0
 1677 0023 0B       		.uleb128 0xb
 1678 0024 0B       		.uleb128 0xb
 1679 0025 3E       		.uleb128 0x3e
 1680 0026 0B       		.uleb128 0xb
 1681 0027 03       		.uleb128 0x3
 1682 0028 0E       		.uleb128 0xe
 1683 0029 00       		.byte	0x0
 1684 002a 00       		.byte	0x0
 1685 002b 04       		.uleb128 0x4
 1686 002c 16       		.uleb128 0x16
 1687 002d 00       		.byte	0x0
 1688 002e 03       		.uleb128 0x3
 1689 002f 0E       		.uleb128 0xe
 1690 0030 3A       		.uleb128 0x3a
 1691 0031 0B       		.uleb128 0xb
 1692 0032 3B       		.uleb128 0x3b
 1693 0033 0B       		.uleb128 0xb
 1694 0034 49       		.uleb128 0x49
 1695 0035 13       		.uleb128 0x13
ARM GAS  C:\Users\DNIEL~1\AppData\Local\Temp\ccqYFNsc.s 			page 31


 1696 0036 00       		.byte	0x0
 1697 0037 00       		.byte	0x0
 1698 0038 05       		.uleb128 0x5
 1699 0039 35       		.uleb128 0x35
 1700 003a 00       		.byte	0x0
 1701 003b 49       		.uleb128 0x49
 1702 003c 13       		.uleb128 0x13
 1703 003d 00       		.byte	0x0
 1704 003e 00       		.byte	0x0
 1705 003f 06       		.uleb128 0x6
 1706 0040 13       		.uleb128 0x13
 1707 0041 01       		.byte	0x1
 1708 0042 0B       		.uleb128 0xb
 1709 0043 0B       		.uleb128 0xb
 1710 0044 3A       		.uleb128 0x3a
 1711 0045 0B       		.uleb128 0xb
 1712 0046 3B       		.uleb128 0x3b
 1713 0047 05       		.uleb128 0x5
 1714 0048 01       		.uleb128 0x1
 1715 0049 13       		.uleb128 0x13
 1716 004a 00       		.byte	0x0
 1717 004b 00       		.byte	0x0
 1718 004c 07       		.uleb128 0x7
 1719 004d 0D       		.uleb128 0xd
 1720 004e 00       		.byte	0x0
 1721 004f 03       		.uleb128 0x3
 1722 0050 08       		.uleb128 0x8
 1723 0051 3A       		.uleb128 0x3a
 1724 0052 0B       		.uleb128 0xb
 1725 0053 3B       		.uleb128 0x3b
 1726 0054 05       		.uleb128 0x5
 1727 0055 49       		.uleb128 0x49
 1728 0056 13       		.uleb128 0x13
 1729 0057 38       		.uleb128 0x38
 1730 0058 0A       		.uleb128 0xa
 1731 0059 00       		.byte	0x0
 1732 005a 00       		.byte	0x0
 1733 005b 08       		.uleb128 0x8
 1734 005c 0D       		.uleb128 0xd
 1735 005d 00       		.byte	0x0
 1736 005e 03       		.uleb128 0x3
 1737 005f 0E       		.uleb128 0xe
 1738 0060 3A       		.uleb128 0x3a
 1739 0061 0B       		.uleb128 0xb
 1740 0062 3B       		.uleb128 0x3b
 1741 0063 05       		.uleb128 0x5
 1742 0064 49       		.uleb128 0x49
 1743 0065 13       		.uleb128 0x13
 1744 0066 38       		.uleb128 0x38
 1745 0067 0A       		.uleb128 0xa
 1746 0068 00       		.byte	0x0
 1747 0069 00       		.byte	0x0
 1748 006a 09       		.uleb128 0x9
 1749 006b 16       		.uleb128 0x16
 1750 006c 00       		.byte	0x0
 1751 006d 03       		.uleb128 0x3
 1752 006e 0E       		.uleb128 0xe
ARM GAS  C:\Users\DNIEL~1\AppData\Local\Temp\ccqYFNsc.s 			page 32


 1753 006f 3A       		.uleb128 0x3a
 1754 0070 0B       		.uleb128 0xb
 1755 0071 3B       		.uleb128 0x3b
 1756 0072 05       		.uleb128 0x5
 1757 0073 49       		.uleb128 0x49
 1758 0074 13       		.uleb128 0x13
 1759 0075 00       		.byte	0x0
 1760 0076 00       		.byte	0x0
 1761 0077 0A       		.uleb128 0xa
 1762 0078 13       		.uleb128 0x13
 1763 0079 01       		.byte	0x1
 1764 007a 03       		.uleb128 0x3
 1765 007b 0E       		.uleb128 0xe
 1766 007c 0B       		.uleb128 0xb
 1767 007d 0B       		.uleb128 0xb
 1768 007e 3A       		.uleb128 0x3a
 1769 007f 0B       		.uleb128 0xb
 1770 0080 3B       		.uleb128 0x3b
 1771 0081 0B       		.uleb128 0xb
 1772 0082 01       		.uleb128 0x1
 1773 0083 13       		.uleb128 0x13
 1774 0084 00       		.byte	0x0
 1775 0085 00       		.byte	0x0
 1776 0086 0B       		.uleb128 0xb
 1777 0087 0D       		.uleb128 0xd
 1778 0088 00       		.byte	0x0
 1779 0089 03       		.uleb128 0x3
 1780 008a 0E       		.uleb128 0xe
 1781 008b 3A       		.uleb128 0x3a
 1782 008c 0B       		.uleb128 0xb
 1783 008d 3B       		.uleb128 0x3b
 1784 008e 0B       		.uleb128 0xb
 1785 008f 49       		.uleb128 0x49
 1786 0090 13       		.uleb128 0x13
 1787 0091 38       		.uleb128 0x38
 1788 0092 0A       		.uleb128 0xa
 1789 0093 00       		.byte	0x0
 1790 0094 00       		.byte	0x0
 1791 0095 0C       		.uleb128 0xc
 1792 0096 0D       		.uleb128 0xd
 1793 0097 00       		.byte	0x0
 1794 0098 03       		.uleb128 0x3
 1795 0099 08       		.uleb128 0x8
 1796 009a 3A       		.uleb128 0x3a
 1797 009b 0B       		.uleb128 0xb
 1798 009c 3B       		.uleb128 0x3b
 1799 009d 0B       		.uleb128 0xb
 1800 009e 49       		.uleb128 0x49
 1801 009f 13       		.uleb128 0x13
 1802 00a0 38       		.uleb128 0x38
 1803 00a1 0A       		.uleb128 0xa
 1804 00a2 00       		.byte	0x0
 1805 00a3 00       		.byte	0x0
 1806 00a4 0D       		.uleb128 0xd
 1807 00a5 0F       		.uleb128 0xf
 1808 00a6 00       		.byte	0x0
 1809 00a7 0B       		.uleb128 0xb
ARM GAS  C:\Users\DNIEL~1\AppData\Local\Temp\ccqYFNsc.s 			page 33


 1810 00a8 0B       		.uleb128 0xb
 1811 00a9 49       		.uleb128 0x49
 1812 00aa 13       		.uleb128 0x13
 1813 00ab 00       		.byte	0x0
 1814 00ac 00       		.byte	0x0
 1815 00ad 0E       		.uleb128 0xe
 1816 00ae 2E       		.uleb128 0x2e
 1817 00af 01       		.byte	0x1
 1818 00b0 3F       		.uleb128 0x3f
 1819 00b1 0C       		.uleb128 0xc
 1820 00b2 03       		.uleb128 0x3
 1821 00b3 0E       		.uleb128 0xe
 1822 00b4 3A       		.uleb128 0x3a
 1823 00b5 0B       		.uleb128 0xb
 1824 00b6 3B       		.uleb128 0x3b
 1825 00b7 0B       		.uleb128 0xb
 1826 00b8 27       		.uleb128 0x27
 1827 00b9 0C       		.uleb128 0xc
 1828 00ba 11       		.uleb128 0x11
 1829 00bb 01       		.uleb128 0x1
 1830 00bc 12       		.uleb128 0x12
 1831 00bd 01       		.uleb128 0x1
 1832 00be 40       		.uleb128 0x40
 1833 00bf 0A       		.uleb128 0xa
 1834 00c0 01       		.uleb128 0x1
 1835 00c1 13       		.uleb128 0x13
 1836 00c2 00       		.byte	0x0
 1837 00c3 00       		.byte	0x0
 1838 00c4 0F       		.uleb128 0xf
 1839 00c5 34       		.uleb128 0x34
 1840 00c6 00       		.byte	0x0
 1841 00c7 03       		.uleb128 0x3
 1842 00c8 0E       		.uleb128 0xe
 1843 00c9 3A       		.uleb128 0x3a
 1844 00ca 0B       		.uleb128 0xb
 1845 00cb 3B       		.uleb128 0x3b
 1846 00cc 0B       		.uleb128 0xb
 1847 00cd 49       		.uleb128 0x49
 1848 00ce 13       		.uleb128 0x13
 1849 00cf 02       		.uleb128 0x2
 1850 00d0 06       		.uleb128 0x6
 1851 00d1 00       		.byte	0x0
 1852 00d2 00       		.byte	0x0
 1853 00d3 10       		.uleb128 0x10
 1854 00d4 05       		.uleb128 0x5
 1855 00d5 00       		.byte	0x0
 1856 00d6 03       		.uleb128 0x3
 1857 00d7 0E       		.uleb128 0xe
 1858 00d8 3A       		.uleb128 0x3a
 1859 00d9 0B       		.uleb128 0xb
 1860 00da 3B       		.uleb128 0x3b
 1861 00db 0B       		.uleb128 0xb
 1862 00dc 49       		.uleb128 0x49
 1863 00dd 13       		.uleb128 0x13
 1864 00de 02       		.uleb128 0x2
 1865 00df 06       		.uleb128 0x6
 1866 00e0 00       		.byte	0x0
ARM GAS  C:\Users\DNIEL~1\AppData\Local\Temp\ccqYFNsc.s 			page 34


 1867 00e1 00       		.byte	0x0
 1868 00e2 11       		.uleb128 0x11
 1869 00e3 26       		.uleb128 0x26
 1870 00e4 00       		.byte	0x0
 1871 00e5 49       		.uleb128 0x49
 1872 00e6 13       		.uleb128 0x13
 1873 00e7 00       		.byte	0x0
 1874 00e8 00       		.byte	0x0
 1875 00e9 12       		.uleb128 0x12
 1876 00ea 2E       		.uleb128 0x2e
 1877 00eb 01       		.byte	0x1
 1878 00ec 3F       		.uleb128 0x3f
 1879 00ed 0C       		.uleb128 0xc
 1880 00ee 03       		.uleb128 0x3
 1881 00ef 0E       		.uleb128 0xe
 1882 00f0 3A       		.uleb128 0x3a
 1883 00f1 0B       		.uleb128 0xb
 1884 00f2 3B       		.uleb128 0x3b
 1885 00f3 0B       		.uleb128 0xb
 1886 00f4 27       		.uleb128 0x27
 1887 00f5 0C       		.uleb128 0xc
 1888 00f6 11       		.uleb128 0x11
 1889 00f7 01       		.uleb128 0x1
 1890 00f8 12       		.uleb128 0x12
 1891 00f9 01       		.uleb128 0x1
 1892 00fa 40       		.uleb128 0x40
 1893 00fb 06       		.uleb128 0x6
 1894 00fc 01       		.uleb128 0x1
 1895 00fd 13       		.uleb128 0x13
 1896 00fe 00       		.byte	0x0
 1897 00ff 00       		.byte	0x0
 1898 0100 13       		.uleb128 0x13
 1899 0101 05       		.uleb128 0x5
 1900 0102 00       		.byte	0x0
 1901 0103 03       		.uleb128 0x3
 1902 0104 0E       		.uleb128 0xe
 1903 0105 3A       		.uleb128 0x3a
 1904 0106 0B       		.uleb128 0xb
 1905 0107 3B       		.uleb128 0x3b
 1906 0108 0B       		.uleb128 0xb
 1907 0109 49       		.uleb128 0x49
 1908 010a 13       		.uleb128 0x13
 1909 010b 02       		.uleb128 0x2
 1910 010c 0A       		.uleb128 0xa
 1911 010d 00       		.byte	0x0
 1912 010e 00       		.byte	0x0
 1913 010f 14       		.uleb128 0x14
 1914 0110 2E       		.uleb128 0x2e
 1915 0111 01       		.byte	0x1
 1916 0112 3F       		.uleb128 0x3f
 1917 0113 0C       		.uleb128 0xc
 1918 0114 03       		.uleb128 0x3
 1919 0115 0E       		.uleb128 0xe
 1920 0116 3A       		.uleb128 0x3a
 1921 0117 0B       		.uleb128 0xb
 1922 0118 3B       		.uleb128 0x3b
 1923 0119 05       		.uleb128 0x5
ARM GAS  C:\Users\DNIEL~1\AppData\Local\Temp\ccqYFNsc.s 			page 35


 1924 011a 27       		.uleb128 0x27
 1925 011b 0C       		.uleb128 0xc
 1926 011c 11       		.uleb128 0x11
 1927 011d 01       		.uleb128 0x1
 1928 011e 12       		.uleb128 0x12
 1929 011f 01       		.uleb128 0x1
 1930 0120 40       		.uleb128 0x40
 1931 0121 0A       		.uleb128 0xa
 1932 0122 01       		.uleb128 0x1
 1933 0123 13       		.uleb128 0x13
 1934 0124 00       		.byte	0x0
 1935 0125 00       		.byte	0x0
 1936 0126 15       		.uleb128 0x15
 1937 0127 05       		.uleb128 0x5
 1938 0128 00       		.byte	0x0
 1939 0129 03       		.uleb128 0x3
 1940 012a 0E       		.uleb128 0xe
 1941 012b 3A       		.uleb128 0x3a
 1942 012c 0B       		.uleb128 0xb
 1943 012d 3B       		.uleb128 0x3b
 1944 012e 05       		.uleb128 0x5
 1945 012f 49       		.uleb128 0x49
 1946 0130 13       		.uleb128 0x13
 1947 0131 02       		.uleb128 0x2
 1948 0132 06       		.uleb128 0x6
 1949 0133 00       		.byte	0x0
 1950 0134 00       		.byte	0x0
 1951 0135 16       		.uleb128 0x16
 1952 0136 05       		.uleb128 0x5
 1953 0137 00       		.byte	0x0
 1954 0138 03       		.uleb128 0x3
 1955 0139 0E       		.uleb128 0xe
 1956 013a 3A       		.uleb128 0x3a
 1957 013b 0B       		.uleb128 0xb
 1958 013c 3B       		.uleb128 0x3b
 1959 013d 05       		.uleb128 0x5
 1960 013e 49       		.uleb128 0x49
 1961 013f 13       		.uleb128 0x13
 1962 0140 02       		.uleb128 0x2
 1963 0141 0A       		.uleb128 0xa
 1964 0142 00       		.byte	0x0
 1965 0143 00       		.byte	0x0
 1966 0144 17       		.uleb128 0x17
 1967 0145 2E       		.uleb128 0x2e
 1968 0146 01       		.byte	0x1
 1969 0147 3F       		.uleb128 0x3f
 1970 0148 0C       		.uleb128 0xc
 1971 0149 03       		.uleb128 0x3
 1972 014a 0E       		.uleb128 0xe
 1973 014b 3A       		.uleb128 0x3a
 1974 014c 0B       		.uleb128 0xb
 1975 014d 3B       		.uleb128 0x3b
 1976 014e 05       		.uleb128 0x5
 1977 014f 27       		.uleb128 0x27
 1978 0150 0C       		.uleb128 0xc
 1979 0151 49       		.uleb128 0x49
 1980 0152 13       		.uleb128 0x13
ARM GAS  C:\Users\DNIEL~1\AppData\Local\Temp\ccqYFNsc.s 			page 36


 1981 0153 11       		.uleb128 0x11
 1982 0154 01       		.uleb128 0x1
 1983 0155 12       		.uleb128 0x12
 1984 0156 01       		.uleb128 0x1
 1985 0157 40       		.uleb128 0x40
 1986 0158 06       		.uleb128 0x6
 1987 0159 01       		.uleb128 0x1
 1988 015a 13       		.uleb128 0x13
 1989 015b 00       		.byte	0x0
 1990 015c 00       		.byte	0x0
 1991 015d 18       		.uleb128 0x18
 1992 015e 34       		.uleb128 0x34
 1993 015f 00       		.byte	0x0
 1994 0160 03       		.uleb128 0x3
 1995 0161 0E       		.uleb128 0xe
 1996 0162 3A       		.uleb128 0x3a
 1997 0163 0B       		.uleb128 0xb
 1998 0164 3B       		.uleb128 0x3b
 1999 0165 05       		.uleb128 0x5
 2000 0166 49       		.uleb128 0x49
 2001 0167 13       		.uleb128 0x13
 2002 0168 02       		.uleb128 0x2
 2003 0169 06       		.uleb128 0x6
 2004 016a 00       		.byte	0x0
 2005 016b 00       		.byte	0x0
 2006 016c 19       		.uleb128 0x19
 2007 016d 34       		.uleb128 0x34
 2008 016e 00       		.byte	0x0
 2009 016f 03       		.uleb128 0x3
 2010 0170 0E       		.uleb128 0xe
 2011 0171 3A       		.uleb128 0x3a
 2012 0172 0B       		.uleb128 0xb
 2013 0173 3B       		.uleb128 0x3b
 2014 0174 05       		.uleb128 0x5
 2015 0175 49       		.uleb128 0x49
 2016 0176 13       		.uleb128 0x13
 2017 0177 02       		.uleb128 0x2
 2018 0178 0A       		.uleb128 0xa
 2019 0179 00       		.byte	0x0
 2020 017a 00       		.byte	0x0
 2021 017b 1A       		.uleb128 0x1a
 2022 017c 34       		.uleb128 0x34
 2023 017d 00       		.byte	0x0
 2024 017e 03       		.uleb128 0x3
 2025 017f 08       		.uleb128 0x8
 2026 0180 3A       		.uleb128 0x3a
 2027 0181 0B       		.uleb128 0xb
 2028 0182 3B       		.uleb128 0x3b
 2029 0183 05       		.uleb128 0x5
 2030 0184 49       		.uleb128 0x49
 2031 0185 13       		.uleb128 0x13
 2032 0186 00       		.byte	0x0
 2033 0187 00       		.byte	0x0
 2034 0188 1B       		.uleb128 0x1b
 2035 0189 0B       		.uleb128 0xb
 2036 018a 01       		.byte	0x1
 2037 018b 55       		.uleb128 0x55
ARM GAS  C:\Users\DNIEL~1\AppData\Local\Temp\ccqYFNsc.s 			page 37


 2038 018c 06       		.uleb128 0x6
 2039 018d 01       		.uleb128 0x1
 2040 018e 13       		.uleb128 0x13
 2041 018f 00       		.byte	0x0
 2042 0190 00       		.byte	0x0
 2043 0191 1C       		.uleb128 0x1c
 2044 0192 34       		.uleb128 0x34
 2045 0193 00       		.byte	0x0
 2046 0194 03       		.uleb128 0x3
 2047 0195 08       		.uleb128 0x8
 2048 0196 3A       		.uleb128 0x3a
 2049 0197 0B       		.uleb128 0xb
 2050 0198 3B       		.uleb128 0x3b
 2051 0199 05       		.uleb128 0x5
 2052 019a 49       		.uleb128 0x49
 2053 019b 13       		.uleb128 0x13
 2054 019c 02       		.uleb128 0x2
 2055 019d 06       		.uleb128 0x6
 2056 019e 00       		.byte	0x0
 2057 019f 00       		.byte	0x0
 2058 01a0 1D       		.uleb128 0x1d
 2059 01a1 0B       		.uleb128 0xb
 2060 01a2 01       		.byte	0x1
 2061 01a3 11       		.uleb128 0x11
 2062 01a4 01       		.uleb128 0x1
 2063 01a5 12       		.uleb128 0x12
 2064 01a6 01       		.uleb128 0x1
 2065 01a7 00       		.byte	0x0
 2066 01a8 00       		.byte	0x0
 2067 01a9 1E       		.uleb128 0x1e
 2068 01aa 34       		.uleb128 0x34
 2069 01ab 00       		.byte	0x0
 2070 01ac 03       		.uleb128 0x3
 2071 01ad 0E       		.uleb128 0xe
 2072 01ae 3A       		.uleb128 0x3a
 2073 01af 0B       		.uleb128 0xb
 2074 01b0 3B       		.uleb128 0x3b
 2075 01b1 05       		.uleb128 0x5
 2076 01b2 49       		.uleb128 0x49
 2077 01b3 13       		.uleb128 0x13
 2078 01b4 3F       		.uleb128 0x3f
 2079 01b5 0C       		.uleb128 0xc
 2080 01b6 3C       		.uleb128 0x3c
 2081 01b7 0C       		.uleb128 0xc
 2082 01b8 00       		.byte	0x0
 2083 01b9 00       		.byte	0x0
 2084 01ba 1F       		.uleb128 0x1f
 2085 01bb 34       		.uleb128 0x34
 2086 01bc 00       		.byte	0x0
 2087 01bd 03       		.uleb128 0x3
 2088 01be 0E       		.uleb128 0xe
 2089 01bf 3A       		.uleb128 0x3a
 2090 01c0 0B       		.uleb128 0xb
 2091 01c1 3B       		.uleb128 0x3b
 2092 01c2 0B       		.uleb128 0xb
 2093 01c3 49       		.uleb128 0x49
 2094 01c4 13       		.uleb128 0x13
ARM GAS  C:\Users\DNIEL~1\AppData\Local\Temp\ccqYFNsc.s 			page 38


 2095 01c5 3F       		.uleb128 0x3f
 2096 01c6 0C       		.uleb128 0xc
 2097 01c7 3C       		.uleb128 0x3c
 2098 01c8 0C       		.uleb128 0xc
 2099 01c9 00       		.byte	0x0
 2100 01ca 00       		.byte	0x0
 2101 01cb 20       		.uleb128 0x20
 2102 01cc 34       		.uleb128 0x34
 2103 01cd 00       		.byte	0x0
 2104 01ce 03       		.uleb128 0x3
 2105 01cf 0E       		.uleb128 0xe
 2106 01d0 3A       		.uleb128 0x3a
 2107 01d1 0B       		.uleb128 0xb
 2108 01d2 3B       		.uleb128 0x3b
 2109 01d3 0B       		.uleb128 0xb
 2110 01d4 49       		.uleb128 0x49
 2111 01d5 13       		.uleb128 0x13
 2112 01d6 3F       		.uleb128 0x3f
 2113 01d7 0C       		.uleb128 0xc
 2114 01d8 02       		.uleb128 0x2
 2115 01d9 0A       		.uleb128 0xa
 2116 01da 00       		.byte	0x0
 2117 01db 00       		.byte	0x0
 2118 01dc 00       		.byte	0x0
 2119              		.section	.debug_pubnames,"",%progbits
 2120 0000 D0000000 		.4byte	0xd0
 2121 0004 0200     		.2byte	0x2
 2122 0006 00000000 		.4byte	.Ldebug_info0
 2123 000a 85060000 		.4byte	0x685
 2124 000e E7030000 		.4byte	0x3e7
 2125 0012 7274635F 		.ascii	"rtc_lld_init\000"
 2125      6C6C645F 
 2125      696E6974 
 2125      00
 2126 001f 0F040000 		.4byte	0x40f
 2127 0023 7274635F 		.ascii	"rtc_lld_set_time\000"
 2127      6C6C645F 
 2127      7365745F 
 2127      74696D65 
 2127      00
 2128 0034 57040000 		.4byte	0x457
 2129 0038 7274635F 		.ascii	"rtc_lld_get_time\000"
 2129      6C6C645F 
 2129      6765745F 
 2129      74696D65 
 2129      00
 2130 0049 93040000 		.4byte	0x493
 2131 004d 7274635F 		.ascii	"rtc_lld_set_alarm\000"
 2131      6C6C645F 
 2131      7365745F 
 2131      616C6172 
 2131      6D00
 2132 005f E4040000 		.4byte	0x4e4
 2133 0063 7274635F 		.ascii	"rtc_lld_get_alarm\000"
 2133      6C6C645F 
 2133      6765745F 
 2133      616C6172 
ARM GAS  C:\Users\DNIEL~1\AppData\Local\Temp\ccqYFNsc.s 			page 39


 2133      6D00
 2134 0075 2A050000 		.4byte	0x52a
 2135 0079 72746353 		.ascii	"rtcSetPeriodicWakeup_v2\000"
 2135      65745065 
 2135      72696F64 
 2135      69635761 
 2135      6B657570 
 2136 0091 67050000 		.4byte	0x567
 2137 0095 72746347 		.ascii	"rtcGetPeriodicWakeup_v2\000"
 2137      65745065 
 2137      72696F64 
 2137      69635761 
 2137      6B657570 
 2138 00ad 9F050000 		.4byte	0x59f
 2139 00b1 7274635F 		.ascii	"rtc_lld_get_time_fat\000"
 2139      6C6C645F 
 2139      6765745F 
 2139      74696D65 
 2139      5F666174 
 2140 00c6 72060000 		.4byte	0x672
 2141 00ca 52544344 		.ascii	"RTCD1\000"
 2141      3100
 2142 00d0 00000000 		.4byte	0x0
 2143              		.section	.debug_pubtypes,"",%progbits
 2144 0000 BB000000 		.4byte	0xbb
 2145 0004 0200     		.2byte	0x2
 2146 0006 00000000 		.4byte	.Ldebug_info0
 2147 000a 85060000 		.4byte	0x685
 2148 000e 53000000 		.4byte	0x53
 2149 0012 696E7433 		.ascii	"int32_t\000"
 2149      325F7400 
 2150 001a 65000000 		.4byte	0x65
 2151 001e 75696E74 		.ascii	"uint32_t\000"
 2151      33325F74 
 2151      00
 2152 0027 85000000 		.4byte	0x85
 2153 002b 626F6F6C 		.ascii	"bool_t\000"
 2153      5F7400
 2154 0032 08030000 		.4byte	0x308
 2155 0036 5254435F 		.ascii	"RTC_TypeDef\000"
 2155      54797065 
 2155      44656600 
 2156 0042 14030000 		.4byte	0x314
 2157 0046 52544344 		.ascii	"RTCDriver\000"
 2157      72697665 
 2157      7200
 2158 0050 3A030000 		.4byte	0x33a
 2159 0054 52544354 		.ascii	"RTCTime\000"
 2159      696D6500 
 2160 005c 8A030000 		.4byte	0x38a
 2161 0060 52544341 		.ascii	"RTCAlarm\000"
 2161      6C61726D 
 2161      00
 2162 0069 B0030000 		.4byte	0x3b0
 2163 006d 52544357 		.ascii	"RTCWakeup\000"
 2163      616B6575 
 2163      7000
ARM GAS  C:\Users\DNIEL~1\AppData\Local\Temp\ccqYFNsc.s 			page 40


 2164 0077 D6030000 		.4byte	0x3d6
 2165 007b 72746361 		.ascii	"rtcalarm_t\000"
 2165      6C61726D 
 2165      5F7400
 2166 0086 45030000 		.4byte	0x345
 2167 008a 52544354 		.ascii	"RTCTime\000"
 2167      696D6500 
 2168 0092 95030000 		.4byte	0x395
 2169 0096 52544341 		.ascii	"RTCAlarm\000"
 2169      6C61726D 
 2169      00
 2170 009f BB030000 		.4byte	0x3bb
 2171 00a3 52544357 		.ascii	"RTCWakeup\000"
 2171      616B6575 
 2171      7000
 2172 00ad 1F030000 		.4byte	0x31f
 2173 00b1 52544344 		.ascii	"RTCDriver\000"
 2173      72697665 
 2173      7200
 2174 00bb 00000000 		.4byte	0x0
 2175              		.section	.debug_aranges,"",%progbits
 2176 0000 54000000 		.4byte	0x54
 2177 0004 0200     		.2byte	0x2
 2178 0006 00000000 		.4byte	.Ldebug_info0
 2179 000a 04       		.byte	0x4
 2180 000b 00       		.byte	0x0
 2181 000c 0000     		.2byte	0x0
 2182 000e 0000     		.2byte	0x0
 2183 0010 00000000 		.4byte	.LFB118
 2184 0014 44000000 		.4byte	.LFE118-.LFB118
 2185 0018 00000000 		.4byte	.LFB119
 2186 001c 40000000 		.4byte	.LFE119-.LFB119
 2187 0020 00000000 		.4byte	.LFB120
 2188 0024 40000000 		.4byte	.LFE120-.LFB120
 2189 0028 00000000 		.4byte	.LFB121
 2190 002c 82000000 		.4byte	.LFE121-.LFB121
 2191 0030 00000000 		.4byte	.LFB122
 2192 0034 0E000000 		.4byte	.LFE122-.LFB122
 2193 0038 00000000 		.4byte	.LFB123
 2194 003c 46000000 		.4byte	.LFE123-.LFB123
 2195 0040 00000000 		.4byte	.LFB124
 2196 0044 12000000 		.4byte	.LFE124-.LFB124
 2197 0048 00000000 		.4byte	.LFB125
 2198 004c A8000000 		.4byte	.LFE125-.LFB125
 2199 0050 00000000 		.4byte	0x0
 2200 0054 00000000 		.4byte	0x0
 2201              		.section	.debug_ranges,"",%progbits
 2202              	.Ldebug_ranges0:
 2203 0000 04000000 		.4byte	.LBB2
 2204 0004 06000000 		.4byte	.LBE2
 2205 0008 08000000 		.4byte	.LBB3
 2206 000c 0C000000 		.4byte	.LBE3
 2207 0010 00000000 		.4byte	0x0
 2208 0014 00000000 		.4byte	0x0
 2209 0018 00000000 		.4byte	.LFB118
 2210 001c 44000000 		.4byte	.LFE118
 2211 0020 00000000 		.4byte	.LFB119
ARM GAS  C:\Users\DNIEL~1\AppData\Local\Temp\ccqYFNsc.s 			page 41


 2212 0024 40000000 		.4byte	.LFE119
 2213 0028 00000000 		.4byte	.LFB120
 2214 002c 40000000 		.4byte	.LFE120
 2215 0030 00000000 		.4byte	.LFB121
 2216 0034 82000000 		.4byte	.LFE121
 2217 0038 00000000 		.4byte	.LFB122
 2218 003c 0E000000 		.4byte	.LFE122
 2219 0040 00000000 		.4byte	.LFB123
 2220 0044 46000000 		.4byte	.LFE123
 2221 0048 00000000 		.4byte	.LFB124
 2222 004c 12000000 		.4byte	.LFE124
 2223 0050 00000000 		.4byte	.LFB125
 2224 0054 A8000000 		.4byte	.LFE125
 2225 0058 00000000 		.4byte	0x0
 2226 005c 00000000 		.4byte	0x0
 2227              		.section	.debug_str,"MS",%progbits,1
 2228              	.LASF60:
 2229 0000 7274635F 		.ascii	"rtc_lld_set_time\000"
 2229      6C6C645F 
 2229      7365745F 
 2229      74696D65 
 2229      00
 2230              	.LASF29:
 2231 0011 424B5032 		.ascii	"BKP2R\000"
 2231      5200
 2232              	.LASF3:
 2233 0017 73686F72 		.ascii	"short int\000"
 2233      7420696E 
 2233      7400
 2234              	.LASF33:
 2235 0021 424B5036 		.ascii	"BKP6R\000"
 2235      5200
 2236              	.LASF22:
 2237 0027 43414C52 		.ascii	"CALR\000"
 2237      00
 2238              	.LASF14:
 2239 002c 57555452 		.ascii	"WUTR\000"
 2239      00
 2240              	.LASF74:
 2241 0031 52544344 		.ascii	"RTCD1\000"
 2241      3100
 2242              	.LASF40:
 2243 0037 424B5031 		.ascii	"BKP13R\000"
 2243      335200
 2244              	.LASF55:
 2245 003e 74765F64 		.ascii	"tv_datetime\000"
 2245      61746574 
 2245      696D6500 
 2246              	.LASF71:
 2247 004a 70726564 		.ascii	"prediv_a\000"
 2247      69765F61 
 2247      00
 2248              	.LASF44:
 2249 0053 424B5031 		.ascii	"BKP17R\000"
 2249      375200
 2250              	.LASF20:
 2251 005a 54534452 		.ascii	"TSDR\000"
ARM GAS  C:\Users\DNIEL~1\AppData\Local\Temp\ccqYFNsc.s 			page 42


 2251      00
 2252              	.LASF64:
 2253 005f 7274635F 		.ascii	"rtc_lld_set_alarm\000"
 2253      6C6C645F 
 2253      7365745F 
 2253      616C6172 
 2253      6D00
 2254              	.LASF13:
 2255 0071 50524552 		.ascii	"PRER\000"
 2255      00
 2256              	.LASF30:
 2257 0076 424B5033 		.ascii	"BKP3R\000"
 2257      5200
 2258              	.LASF28:
 2259 007c 424B5031 		.ascii	"BKP1R\000"
 2259      5200
 2260              	.LASF9:
 2261 0082 6C6F6E67 		.ascii	"long long int\000"
 2261      206C6F6E 
 2261      6720696E 
 2261      7400
 2262              	.LASF63:
 2263 0090 7274635F 		.ascii	"rtc_lld_get_time\000"
 2263      6C6C645F 
 2263      6765745F 
 2263      74696D65 
 2263      00
 2264              	.LASF15:
 2265 00a1 43414C49 		.ascii	"CALIBR\000"
 2265      425200
 2266              	.LASF58:
 2267 00a8 72746361 		.ascii	"rtcalarm_t\000"
 2267      6C61726D 
 2267      5F7400
 2268              	.LASF5:
 2269 00b3 6C6F6E67 		.ascii	"long int\000"
 2269      20696E74 
 2269      00
 2270              	.LASF37:
 2271 00bc 424B5031 		.ascii	"BKP10R\000"
 2271      305200
 2272              	.LASF34:
 2273 00c3 424B5037 		.ascii	"BKP7R\000"
 2273      5200
 2274              	.LASF54:
 2275 00c9 52544341 		.ascii	"RTCAlarm\000"
 2275      6C61726D 
 2275      00
 2276              	.LASF24:
 2277 00d2 414C524D 		.ascii	"ALRMASSR\000"
 2277      41535352 
 2277      00
 2278              	.LASF41:
 2279 00db 424B5031 		.ascii	"BKP14R\000"
 2279      345200
 2280              	.LASF23:
 2281 00e2 54414643 		.ascii	"TAFCR\000"
ARM GAS  C:\Users\DNIEL~1\AppData\Local\Temp\ccqYFNsc.s 			page 43


 2281      5200
 2282              	.LASF59:
 2283 00e8 7274635F 		.ascii	"rtc_lld_init\000"
 2283      6C6C645F 
 2283      696E6974 
 2283      00
 2284              	.LASF69:
 2285 00f5 77616B65 		.ascii	"wakeupspec\000"
 2285      75707370 
 2285      656300
 2286              	.LASF2:
 2287 0100 756E7369 		.ascii	"unsigned char\000"
 2287      676E6564 
 2287      20636861 
 2287      7200
 2288              	.LASF45:
 2289 010e 424B5031 		.ascii	"BKP18R\000"
 2289      385200
 2290              	.LASF51:
 2291 0115 74765F64 		.ascii	"tv_date\000"
 2291      61746500 
 2292              	.LASF1:
 2293 011d 7369676E 		.ascii	"signed char\000"
 2293      65642063 
 2293      68617200 
 2294              	.LASF10:
 2295 0129 6C6F6E67 		.ascii	"long long unsigned int\000"
 2295      206C6F6E 
 2295      6720756E 
 2295      7369676E 
 2295      65642069 
 2296              	.LASF7:
 2297 0140 75696E74 		.ascii	"uint32_t\000"
 2297      33325F74 
 2297      00
 2298              	.LASF16:
 2299 0149 414C524D 		.ascii	"ALRMAR\000"
 2299      415200
 2300              	.LASF0:
 2301 0150 756E7369 		.ascii	"unsigned int\000"
 2301      676E6564 
 2301      20696E74 
 2301      00
 2302              	.LASF68:
 2303 015d 72746353 		.ascii	"rtcSetPeriodicWakeup_v2\000"
 2303      65745065 
 2303      72696F64 
 2303      69635761 
 2303      6B657570 
 2304              	.LASF61:
 2305 0175 72746370 		.ascii	"rtcp\000"
 2305      00
 2306              	.LASF31:
 2307 017a 424B5034 		.ascii	"BKP4R\000"
 2307      5200
 2308              	.LASF19:
 2309 0180 54535452 		.ascii	"TSTR\000"
ARM GAS  C:\Users\DNIEL~1\AppData\Local\Temp\ccqYFNsc.s 			page 44


 2309      00
 2310              	.LASF4:
 2311 0185 73686F72 		.ascii	"short unsigned int\000"
 2311      7420756E 
 2311      7369676E 
 2311      65642069 
 2311      6E7400
 2312              	.LASF12:
 2313 0198 63686172 		.ascii	"char\000"
 2313      00
 2314              	.LASF35:
 2315 019d 424B5038 		.ascii	"BKP8R\000"
 2315      5200
 2316              	.LASF6:
 2317 01a3 696E7433 		.ascii	"int32_t\000"
 2317      325F7400 
 2318              	.LASF11:
 2319 01ab 626F6F6C 		.ascii	"bool_t\000"
 2319      5F7400
 2320              	.LASF25:
 2321 01b2 414C524D 		.ascii	"ALRMBSSR\000"
 2321      42535352 
 2321      00
 2322              	.LASF65:
 2323 01bb 616C6172 		.ascii	"alarm\000"
 2323      6D00
 2324              	.LASF42:
 2325 01c1 424B5031 		.ascii	"BKP15R\000"
 2325      355200
 2326              	.LASF47:
 2327 01c8 5254435F 		.ascii	"RTC_TypeDef\000"
 2327      54797065 
 2327      44656600 
 2328              	.LASF57:
 2329 01d4 77616B65 		.ascii	"wakeup\000"
 2329      757000
 2330              	.LASF53:
 2331 01db 74765F6D 		.ascii	"tv_msec\000"
 2331      73656300 
 2332              	.LASF8:
 2333 01e3 6C6F6E67 		.ascii	"long unsigned int\000"
 2333      20756E73 
 2333      69676E65 
 2333      6420696E 
 2333      7400
 2334              	.LASF26:
 2335 01f5 52455345 		.ascii	"RESERVED7\000"
 2335      52564544 
 2335      3700
 2336              	.LASF48:
 2337 01ff 52544344 		.ascii	"RTCDriver\000"
 2337      72697665 
 2337      7200
 2338              	.LASF46:
 2339 0209 424B5031 		.ascii	"BKP19R\000"
 2339      395200
 2340              	.LASF72:
ARM GAS  C:\Users\DNIEL~1\AppData\Local\Temp\ccqYFNsc.s 			page 45


 2341 0210 66617474 		.ascii	"fattime\000"
 2341      696D6500 
 2342              	.LASF78:
 2343 0218 7274635F 		.ascii	"rtc_lld_get_time_fat\000"
 2343      6C6C645F 
 2343      6765745F 
 2343      74696D65 
 2343      5F666174 
 2344              	.LASF27:
 2345 022d 424B5030 		.ascii	"BKP0R\000"
 2345      5200
 2346              	.LASF75:
 2347 0233 474E5520 		.ascii	"GNU C 4.5.2\000"
 2347      4320342E 
 2347      352E3200 
 2348              	.LASF17:
 2349 023f 414C524D 		.ascii	"ALRMBR\000"
 2349      425200
 2350              	.LASF38:
 2351 0246 424B5031 		.ascii	"BKP11R\000"
 2351      315200
 2352              	.LASF67:
 2353 024d 7274635F 		.ascii	"rtc_lld_get_alarm\000"
 2353      6C6C645F 
 2353      6765745F 
 2353      616C6172 
 2353      6D00
 2354              	.LASF32:
 2355 025f 424B5035 		.ascii	"BKP5R\000"
 2355      5200
 2356              	.LASF52:
 2357 0265 74765F74 		.ascii	"tv_time\000"
 2357      696D6500 
 2358              	.LASF77:
 2359 026d 433A5C55 		.ascii	"C:\\Users\\D\341niel\\Dropbox\\Solar Racing\\Szoftv"
 2359      73657273 
 2359      5C44E16E 
 2359      69656C5C 
 2359      44726F70 
 2360 0298 65725C53 		.ascii	"er\\Smarty\\Smarty_v6\\smarty\\firmware\000"
 2360      6D617274 
 2360      795C536D 
 2360      61727479 
 2360      5F76365C 
 2361              	.LASF76:
 2362 02bc 2E2E2F2E 		.ascii	"../../../ChibiOS/os/hal/platforms/STM32/RTCv2/rtc_l"
 2362      2E2F2E2E 
 2362      2F436869 
 2362      62694F53 
 2362      2F6F732F 
 2363 02ef 6C642E63 		.ascii	"ld.c\000"
 2363      00
 2364              	.LASF62:
 2365 02f4 74696D65 		.ascii	"timespec\000"
 2365      73706563 
 2365      00
 2366              	.LASF21:
ARM GAS  C:\Users\DNIEL~1\AppData\Local\Temp\ccqYFNsc.s 			page 46


 2367 02fd 54535353 		.ascii	"TSSSR\000"
 2367      5200
 2368              	.LASF39:
 2369 0303 424B5031 		.ascii	"BKP12R\000"
 2369      325200
 2370              	.LASF18:
 2371 030a 53484946 		.ascii	"SHIFTR\000"
 2371      545200
 2372              	.LASF36:
 2373 0311 424B5039 		.ascii	"BKP9R\000"
 2373      5200
 2374              	.LASF56:
 2375 0317 52544357 		.ascii	"RTCWakeup\000"
 2375      616B6575 
 2375      7000
 2376              	.LASF73:
 2377 0321 49544D5F 		.ascii	"ITM_RxBuffer\000"
 2377      52784275 
 2377      66666572 
 2377      00
 2378              	.LASF49:
 2379 032e 69645F72 		.ascii	"id_rtc\000"
 2379      746300
 2380              	.LASF70:
 2381 0335 72746347 		.ascii	"rtcGetPeriodicWakeup_v2\000"
 2381      65745065 
 2381      72696F64 
 2381      69635761 
 2381      6B657570 
 2382              	.LASF43:
 2383 034d 424B5031 		.ascii	"BKP16R\000"
 2383      365200
 2384              	.LASF50:
 2385 0354 52544354 		.ascii	"RTCTime\000"
 2385      696D6500 
 2386              	.LASF66:
 2387 035c 616C6172 		.ascii	"alarmspec\000"
 2387      6D737065 
 2387      6300
 2388              		.ident	"GCC: (Sourcery G++ Lite 2011.03-42) 4.5.2"
ARM GAS  C:\Users\DNIEL~1\AppData\Local\Temp\ccqYFNsc.s 			page 47


DEFINED SYMBOLS
                            *ABS*:00000000 rtc_lld.c
C:\Users\DNIEL~1\AppData\Local\Temp\ccqYFNsc.s:24     .text.rtc_lld_init:00000000 $t
C:\Users\DNIEL~1\AppData\Local\Temp\ccqYFNsc.s:30     .text.rtc_lld_init:00000000 rtc_lld_init
C:\Users\DNIEL~1\AppData\Local\Temp\ccqYFNsc.s:83     .text.rtc_lld_init:00000038 $d
C:\Users\DNIEL~1\AppData\Local\Temp\ccqYFNsc.s:90     .text.rtc_lld_set_time:00000000 $t
C:\Users\DNIEL~1\AppData\Local\Temp\ccqYFNsc.s:96     .text.rtc_lld_set_time:00000000 rtc_lld_set_time
C:\Users\DNIEL~1\AppData\Local\Temp\ccqYFNsc.s:149    .text.rtc_lld_set_time:0000003c $d
C:\Users\DNIEL~1\AppData\Local\Temp\ccqYFNsc.s:154    .text.rtc_lld_get_time:00000000 $t
C:\Users\DNIEL~1\AppData\Local\Temp\ccqYFNsc.s:160    .text.rtc_lld_get_time:00000000 rtc_lld_get_time
C:\Users\DNIEL~1\AppData\Local\Temp\ccqYFNsc.s:220    .text.rtc_lld_get_time:0000003c $d
C:\Users\DNIEL~1\AppData\Local\Temp\ccqYFNsc.s:225    .text.rtc_lld_set_alarm:00000000 $t
C:\Users\DNIEL~1\AppData\Local\Temp\ccqYFNsc.s:231    .text.rtc_lld_set_alarm:00000000 rtc_lld_set_alarm
C:\Users\DNIEL~1\AppData\Local\Temp\ccqYFNsc.s:333    .text.rtc_lld_get_alarm:00000000 $t
C:\Users\DNIEL~1\AppData\Local\Temp\ccqYFNsc.s:339    .text.rtc_lld_get_alarm:00000000 rtc_lld_get_alarm
C:\Users\DNIEL~1\AppData\Local\Temp\ccqYFNsc.s:362    .text.rtcSetPeriodicWakeup_v2:00000000 $t
C:\Users\DNIEL~1\AppData\Local\Temp\ccqYFNsc.s:368    .text.rtcSetPeriodicWakeup_v2:00000000 rtcSetPeriodicWakeup_v2
C:\Users\DNIEL~1\AppData\Local\Temp\ccqYFNsc.s:426    .text.rtcGetPeriodicWakeup_v2:00000000 $t
C:\Users\DNIEL~1\AppData\Local\Temp\ccqYFNsc.s:432    .text.rtcGetPeriodicWakeup_v2:00000000 rtcGetPeriodicWakeup_v2
C:\Users\DNIEL~1\AppData\Local\Temp\ccqYFNsc.s:455    .text.rtc_lld_get_time_fat:00000000 $t
C:\Users\DNIEL~1\AppData\Local\Temp\ccqYFNsc.s:461    .text.rtc_lld_get_time_fat:00000000 rtc_lld_get_time_fat
C:\Users\DNIEL~1\AppData\Local\Temp\ccqYFNsc.s:604    .bss.RTCD1:00000000 RTCD1
C:\Users\DNIEL~1\AppData\Local\Temp\ccqYFNsc.s:600    .bss.RTCD1:00000000 $d
                     .debug_frame:00000010 $d
C:\Users\DNIEL~1\AppData\Local\Temp\ccqYFNsc.s:89     .text.rtc_lld_init:00000044 $t

NO UNDEFINED SYMBOLS
