ARM GAS  C:\Users\DNIEL~1\AppData\Local\Temp\cchLqhvh.s 			page 1


   1              		.syntax unified
   2              		.cpu cortex-m4
   3              		.fpu softvfp
   4              		.eabi_attribute 20, 1
   5              		.eabi_attribute 21, 1
   6              		.eabi_attribute 23, 3
   7              		.eabi_attribute 24, 1
   8              		.eabi_attribute 25, 1
   9              		.eabi_attribute 26, 1
  10              		.eabi_attribute 30, 2
  11              		.eabi_attribute 34, 1
  12              		.eabi_attribute 18, 4
  13              		.thumb
  14              		.file	"rtc_lld.c"
  15              		.text
  16              	.Ltext0:
  17              		.cfi_sections	.debug_frame
  18              		.section	.text.rtc_lld_init,"ax",%progbits
  19              		.align	2
  20              		.p2align 4,,15
  21              		.global	rtc_lld_init
  22              		.thumb
  23              		.thumb_func
  24              		.type	rtc_lld_init, %function
  25              	rtc_lld_init:
  26              	.LFB118:
  27              		.file 1 "../../../ChibiOS/os/hal/platforms/STM32/RTCv2/rtc_lld.c"
  28              		.loc 1 94 0
  29              		.cfi_startproc
  30              		@ args = 0, pretend = 0, frame = 0
  31              		@ frame_needed = 0, uses_anonymous_args = 0
  32              		@ link register save eliminated.
  33              		.loc 1 95 0
  34 0000 4FF42053 		mov	r3, #10240
  35 0004 C4F20003 		movt	r3, 16384
  36 0008 0F4A     		ldr	r2, .L9
  37              		.loc 1 101 0
  38 000a CA20     		movs	r0, #202
  39              		.loc 1 102 0
  40 000c 5321     		movs	r1, #83
  41              		.loc 1 95 0
  42 000e 1360     		str	r3, [r2, #0]
  43              	.LVL0:
  44              		.loc 1 101 0
  45 0010 5862     		str	r0, [r3, #36]
  46              		.loc 1 102 0
  47 0012 5962     		str	r1, [r3, #36]
  48              		.loc 1 105 0
  49 0014 DA68     		ldr	r2, [r3, #12]
  50 0016 D106     		lsls	r1, r2, #27
  51 0018 14D4     		bmi	.L1
  52              		.loc 1 106 0
  53 001a D868     		ldr	r0, [r3, #12]
  54 001c 40F08001 		orr	r1, r0, #128
  55 0020 D960     		str	r1, [r3, #12]
  56 0022 1846     		mov	r0, r3
  57              	.L3:
ARM GAS  C:\Users\DNIEL~1\AppData\Local\Temp\cchLqhvh.s 			page 2


  58              		.loc 1 106 0 is_stmt 0 discriminator 1
  59 0024 C268     		ldr	r2, [r0, #12]
  60 0026 4FF42053 		mov	r3, #10240
  61 002a 5206     		lsls	r2, r2, #25
  62 002c C4F20003 		movt	r3, 16384
  63 0030 F8D5     		bpl	.L3
  64              	.LVL1:
  65              		.loc 1 111 0 is_stmt 1
  66 0032 FF21     		movs	r1, #255
  67 0034 C0F27F01 		movt	r1, 127
  68 0038 1961     		str	r1, [r3, #16]
  69              		.loc 1 112 0
  70 003a 1961     		str	r1, [r3, #16]
  71              		.loc 1 113 0
  72 003c D868     		ldr	r0, [r3, #12]
  73 003e 20F08002 		bic	r2, r0, #128
  74 0042 DA60     		str	r2, [r3, #12]
  75              	.LVL2:
  76              	.L1:
  77 0044 7047     		bx	lr
  78              	.L10:
  79 0046 00BF     		.align	2
  80              	.L9:
  81 0048 00000000 		.word	.LANCHOR0
  82              		.cfi_endproc
  83              	.LFE118:
  84              		.size	rtc_lld_init, .-rtc_lld_init
  85 004c AFF30080 		.section	.text.rtc_lld_set_time,"ax",%progbits
  86              		.align	2
  87              		.p2align 4,,15
  88              		.global	rtc_lld_set_time
  89              		.thumb
  90              		.thumb_func
  91              		.type	rtc_lld_set_time, %function
  92              	rtc_lld_set_time:
  93              	.LFB119:
  94              		.loc 1 127 0
  95              		.cfi_startproc
  96              		@ args = 0, pretend = 0, frame = 0
  97              		@ frame_needed = 0, uses_anonymous_args = 0
  98              		@ link register save eliminated.
  99              	.LVL3:
 100              		.loc 1 130 0
 101 0000 0E4B     		ldr	r3, .L20
 102 0002 1A68     		ldr	r2, [r3, #0]
 103 0004 D068     		ldr	r0, [r2, #12]
 104              	.LVL4:
 105 0006 40F08003 		orr	r3, r0, #128
 106 000a D360     		str	r3, [r2, #12]
 107              	.L12:
 108              		.loc 1 130 0 is_stmt 0 discriminator 1
 109 000c D068     		ldr	r0, [r2, #12]
 110 000e 4306     		lsls	r3, r0, #25
 111 0010 FCD5     		bpl	.L12
 112              		.loc 1 131 0 is_stmt 1
 113 0012 0B7A     		ldrb	r3, [r1, #8]	@ zero_extendqisi2
 114 0014 63B9     		cbnz	r3, .L19
ARM GAS  C:\Users\DNIEL~1\AppData\Local\Temp\cchLqhvh.s 			page 3


 115              		.loc 1 134 0
 116 0016 9068     		ldr	r0, [r2, #8]
 117 0018 20F04003 		bic	r3, r0, #64
 118 001c 9360     		str	r3, [r2, #8]
 119              	.L14:
 120              		.loc 1 135 0
 121 001e 4868     		ldr	r0, [r1, #4]
 122              		.loc 1 136 0
 123 0020 0968     		ldr	r1, [r1, #0]
 124              	.LVL5:
 125              		.loc 1 135 0
 126 0022 1060     		str	r0, [r2, #0]
 127              		.loc 1 136 0
 128 0024 5160     		str	r1, [r2, #4]
 129              		.loc 1 137 0
 130 0026 D368     		ldr	r3, [r2, #12]
 131 0028 23F08000 		bic	r0, r3, #128
 132 002c D060     		str	r0, [r2, #12]
 133 002e 7047     		bx	lr
 134              	.LVL6:
 135              	.L19:
 136              		.loc 1 132 0
 137 0030 9068     		ldr	r0, [r2, #8]
 138 0032 40F04003 		orr	r3, r0, #64
 139 0036 9360     		str	r3, [r2, #8]
 140 0038 F1E7     		b	.L14
 141              	.L21:
 142 003a 00BF     		.align	2
 143              	.L20:
 144 003c 00000000 		.word	.LANCHOR0
 145              		.cfi_endproc
 146              	.LFE119:
 147              		.size	rtc_lld_set_time, .-rtc_lld_set_time
 148              		.section	.text.rtc_lld_get_time,"ax",%progbits
 149              		.align	2
 150              		.p2align 4,,15
 151              		.global	rtc_lld_get_time
 152              		.thumb
 153              		.thumb_func
 154              		.type	rtc_lld_get_time, %function
 155              	rtc_lld_get_time:
 156              	.LFB120:
 157              		.loc 1 148 0
 158              		.cfi_startproc
 159              		@ args = 0, pretend = 0, frame = 0
 160              		@ frame_needed = 0, uses_anonymous_args = 0
 161              		@ link register save eliminated.
 162              	.LVL7:
 163 0000 10B4     		push	{r4}
 164              	.LCFI0:
 165              		.cfi_def_cfa_offset 4
 166              		.cfi_offset 4, -4
 167 0002 0C4B     		ldr	r3, .L28
 168 0004 1A68     		ldr	r2, [r3, #0]
 169              	.LVL8:
 170              	.L23:
 171              		.loc 1 151 0 discriminator 1
ARM GAS  C:\Users\DNIEL~1\AppData\Local\Temp\cchLqhvh.s 			page 4


 172 0006 D068     		ldr	r0, [r2, #12]
 173 0008 8306     		lsls	r3, r0, #26
 174 000a FCD5     		bpl	.L23
 175              	.LBB2:
 176              		.loc 1 155 0
 177 000c 1369     		ldr	r3, [r2, #16]
 178              		.loc 1 156 0
 179 000e 946A     		ldr	r4, [r2, #40]
 180              	.LBE2:
 181              		.loc 1 160 0
 182 0010 1068     		ldr	r0, [r2, #0]
 183              		.loc 1 161 0
 184 0012 5268     		ldr	r2, [r2, #4]
 185              		.loc 1 160 0
 186 0014 4860     		str	r0, [r1, #4]
 187              	.LBB3:
 188              		.loc 1 155 0
 189 0016 5B04     		lsls	r3, r3, #17
 190 0018 5B0C     		lsrs	r3, r3, #17
 191              	.LVL9:
 192              		.loc 1 157 0
 193 001a 181B     		subs	r0, r3, r4
 194 001c 4FF47A74 		mov	r4, #1000
 195              	.LVL10:
 196 0020 04FB00F0 		mul	r0, r4, r0
 197 0024 0133     		adds	r3, r3, #1
 198              	.LVL11:
 199 0026 B0FBF3F0 		udiv	r0, r0, r3
 200 002a C860     		str	r0, [r1, #12]
 201              	.LBE3:
 202              		.loc 1 161 0
 203 002c 0A60     		str	r2, [r1, #0]
 204              		.loc 1 162 0
 205 002e 10BC     		pop	{r4}
 206 0030 7047     		bx	lr
 207              	.L29:
 208 0032 00BF     		.align	2
 209              	.L28:
 210 0034 00000000 		.word	.LANCHOR0
 211              		.cfi_endproc
 212              	.LFE120:
 213              		.size	rtc_lld_get_time, .-rtc_lld_get_time
 214 0038 AFF30080 		.section	.text.rtc_lld_set_alarm,"ax",%progbits
 214      AFF30080 
 215              		.align	2
 216              		.p2align 4,,15
 217              		.global	rtc_lld_set_alarm
 218              		.thumb
 219              		.thumb_func
 220              		.type	rtc_lld_set_alarm, %function
 221              	rtc_lld_set_alarm:
 222              	.LFB121:
 223              		.loc 1 178 0
 224              		.cfi_startproc
 225              		@ args = 0, pretend = 0, frame = 0
 226              		@ frame_needed = 0, uses_anonymous_args = 0
 227              		@ link register save eliminated.
ARM GAS  C:\Users\DNIEL~1\AppData\Local\Temp\cchLqhvh.s 			page 5


 228              	.LVL12:
 229              		.loc 1 180 0
 230 0000 A1B9     		cbnz	r1, .L31
 231              		.loc 1 181 0
 232 0002 002A     		cmp	r2, #0
 233 0004 30D0     		beq	.L32
 234              		.loc 1 182 0
 235 0006 0168     		ldr	r1, [r0, #0]
 236              	.LVL13:
 237 0008 8868     		ldr	r0, [r1, #8]
 238              	.LVL14:
 239 000a 20F48073 		bic	r3, r0, #256
 240 000e 8B60     		str	r3, [r1, #8]
 241              	.L33:
 242              		.loc 1 183 0 discriminator 1
 243 0010 C868     		ldr	r0, [r1, #12]
 244 0012 C007     		lsls	r0, r0, #31
 245 0014 FCD5     		bpl	.L33
 246              		.loc 1 185 0
 247 0016 1268     		ldr	r2, [r2, #0]
 248              	.LVL15:
 249 0018 CA61     		str	r2, [r1, #28]
 250              		.loc 1 186 0
 251 001a 8B68     		ldr	r3, [r1, #8]
 252 001c 43F48070 		orr	r0, r3, #256
 253 0020 8860     		str	r0, [r1, #8]
 254              		.loc 1 187 0
 255 0022 8A68     		ldr	r2, [r1, #8]
 256 0024 42F48053 		orr	r3, r2, #4096
 257 0028 8B60     		str	r3, [r1, #8]
 258 002a 7047     		bx	lr
 259              	.LVL16:
 260              	.L31:
 261              		.loc 1 196 0
 262 002c 92B1     		cbz	r2, .L35
 263              		.loc 1 197 0
 264 002e 0068     		ldr	r0, [r0, #0]
 265              	.LVL17:
 266 0030 8368     		ldr	r3, [r0, #8]
 267 0032 23F40071 		bic	r1, r3, #512
 268              	.LVL18:
 269 0036 8160     		str	r1, [r0, #8]
 270              	.L36:
 271              		.loc 1 198 0 discriminator 1
 272 0038 C368     		ldr	r3, [r0, #12]
 273 003a 9B07     		lsls	r3, r3, #30
 274 003c FCD5     		bpl	.L36
 275              		.loc 1 200 0
 276 003e 1268     		ldr	r2, [r2, #0]
 277              	.LVL19:
 278 0040 0262     		str	r2, [r0, #32]
 279              		.loc 1 201 0
 280 0042 8168     		ldr	r1, [r0, #8]
 281 0044 41F40073 		orr	r3, r1, #512
 282 0048 8360     		str	r3, [r0, #8]
 283              		.loc 1 202 0
 284 004a 8268     		ldr	r2, [r0, #8]
ARM GAS  C:\Users\DNIEL~1\AppData\Local\Temp\cchLqhvh.s 			page 6


 285 004c 42F40051 		orr	r1, r2, #8192
 286 0050 8160     		str	r1, [r0, #8]
 287 0052 7047     		bx	lr
 288              	.LVL20:
 289              	.L35:
 290              		.loc 1 205 0
 291 0054 0368     		ldr	r3, [r0, #0]
 292 0056 9A68     		ldr	r2, [r3, #8]
 293              	.LVL21:
 294 0058 22F40050 		bic	r0, r2, #8192
 295              	.LVL22:
 296 005c 9860     		str	r0, [r3, #8]
 297              		.loc 1 206 0
 298 005e 9968     		ldr	r1, [r3, #8]
 299              	.LVL23:
 300 0060 21F40072 		bic	r2, r1, #512
 301 0064 9A60     		str	r2, [r3, #8]
 302 0066 7047     		bx	lr
 303              	.LVL24:
 304              	.L32:
 305              		.loc 1 190 0
 306 0068 0068     		ldr	r0, [r0, #0]
 307              	.LVL25:
 308 006a 8368     		ldr	r3, [r0, #8]
 309 006c 23F48052 		bic	r2, r3, #4096
 310              	.LVL26:
 311 0070 8260     		str	r2, [r0, #8]
 312              		.loc 1 191 0
 313 0072 8168     		ldr	r1, [r0, #8]
 314              	.LVL27:
 315 0074 21F48073 		bic	r3, r1, #256
 316 0078 8360     		str	r3, [r0, #8]
 317 007a 7047     		bx	lr
 318              		.cfi_endproc
 319              	.LFE121:
 320              		.size	rtc_lld_set_alarm, .-rtc_lld_set_alarm
 321 007c AFF30080 		.section	.text.rtc_lld_get_alarm,"ax",%progbits
 322              		.align	2
 323              		.p2align 4,,15
 324              		.global	rtc_lld_get_alarm
 325              		.thumb
 326              		.thumb_func
 327              		.type	rtc_lld_get_alarm, %function
 328              	rtc_lld_get_alarm:
 329              	.LFB122:
 330              		.loc 1 223 0
 331              		.cfi_startproc
 332              		@ args = 0, pretend = 0, frame = 0
 333              		@ frame_needed = 0, uses_anonymous_args = 0
 334              		@ link register save eliminated.
 335              	.LVL28:
 336              		.loc 1 226 0
 337 0000 0368     		ldr	r3, [r0, #0]
 338              		.loc 1 225 0
 339 0002 11B1     		cbz	r1, .L48
 340              		.loc 1 229 0
 341 0004 186A     		ldr	r0, [r3, #32]
ARM GAS  C:\Users\DNIEL~1\AppData\Local\Temp\cchLqhvh.s 			page 7


 342              	.LVL29:
 343 0006 1060     		str	r0, [r2, #0]
 344 0008 7047     		bx	lr
 345              	.LVL30:
 346              	.L48:
 347              		.loc 1 226 0
 348 000a D969     		ldr	r1, [r3, #28]
 349              	.LVL31:
 350 000c 1160     		str	r1, [r2, #0]
 351 000e 7047     		bx	lr
 352              		.cfi_endproc
 353              	.LFE122:
 354              		.size	rtc_lld_get_alarm, .-rtc_lld_get_alarm
 355              		.section	.text.rtcSetPeriodicWakeup_v2,"ax",%progbits
 356              		.align	2
 357              		.p2align 4,,15
 358              		.global	rtcSetPeriodicWakeup_v2
 359              		.thumb
 360              		.thumb_func
 361              		.type	rtcSetPeriodicWakeup_v2, %function
 362              	rtcSetPeriodicWakeup_v2:
 363              	.LFB123:
 364              		.loc 1 244 0
 365              		.cfi_startproc
 366              		@ args = 0, pretend = 0, frame = 0
 367              		@ frame_needed = 0, uses_anonymous_args = 0
 368              		@ link register save eliminated.
 369              	.LVL32:
 370              		.loc 1 246 0
 371 0000 B1B1     		cbz	r1, .L50
 372              		.loc 1 250 0
 373 0002 0068     		ldr	r0, [r0, #0]
 374              	.LVL33:
 375 0004 8368     		ldr	r3, [r0, #8]
 376 0006 23F48062 		bic	r2, r3, #1024
 377 000a 8260     		str	r2, [r0, #8]
 378              	.L51:
 379              		.loc 1 251 0 discriminator 1
 380 000c C368     		ldr	r3, [r0, #12]
 381 000e 5B07     		lsls	r3, r3, #29
 382 0010 FCD5     		bpl	.L51
 383              		.loc 1 253 0
 384 0012 0A68     		ldr	r2, [r1, #0]
 385 0014 91B2     		uxth	r1, r2
 386              	.LVL34:
 387              		.loc 1 254 0
 388 0016 C2F30243 		ubfx	r3, r2, #16, #3
 389              		.loc 1 253 0
 390 001a 4161     		str	r1, [r0, #20]
 391              		.loc 1 254 0
 392 001c 8360     		str	r3, [r0, #8]
 393              		.loc 1 255 0
 394 001e 8268     		ldr	r2, [r0, #8]
 395 0020 42F48041 		orr	r1, r2, #16384
 396 0024 8160     		str	r1, [r0, #8]
 397              		.loc 1 256 0
 398 0026 8368     		ldr	r3, [r0, #8]
ARM GAS  C:\Users\DNIEL~1\AppData\Local\Temp\cchLqhvh.s 			page 8


 399 0028 43F48062 		orr	r2, r3, #1024
 400 002c 8260     		str	r2, [r0, #8]
 401 002e 7047     		bx	lr
 402              	.LVL35:
 403              	.L50:
 404              		.loc 1 259 0
 405 0030 0368     		ldr	r3, [r0, #0]
 406 0032 9A68     		ldr	r2, [r3, #8]
 407 0034 22F48040 		bic	r0, r2, #16384
 408              	.LVL36:
 409 0038 9860     		str	r0, [r3, #8]
 410              		.loc 1 260 0
 411 003a 9968     		ldr	r1, [r3, #8]
 412              	.LVL37:
 413 003c 21F48062 		bic	r2, r1, #1024
 414 0040 9A60     		str	r2, [r3, #8]
 415 0042 7047     		bx	lr
 416              		.cfi_endproc
 417              	.LFE123:
 418              		.size	rtcSetPeriodicWakeup_v2, .-rtcSetPeriodicWakeup_v2
 419 0044 AFF30080 		.section	.text.rtcGetPeriodicWakeup_v2,"ax",%progbits
 419      AFF30080 
 419      AFF30080 
 420              		.align	2
 421              		.p2align 4,,15
 422              		.global	rtcGetPeriodicWakeup_v2
 423              		.thumb
 424              		.thumb_func
 425              		.type	rtcGetPeriodicWakeup_v2, %function
 426              	rtcGetPeriodicWakeup_v2:
 427              	.LFB124:
 428              		.loc 1 276 0
 429              		.cfi_startproc
 430              		@ args = 0, pretend = 0, frame = 0
 431              		@ frame_needed = 0, uses_anonymous_args = 0
 432              		@ link register save eliminated.
 433              	.LVL38:
 434              		.loc 1 279 0
 435 0000 0368     		ldr	r3, [r0, #0]
 436 0002 5A69     		ldr	r2, [r3, #20]
 437              		.loc 1 280 0
 438 0004 9868     		ldr	r0, [r3, #8]
 439              	.LVL39:
 440 0006 00F00703 		and	r3, r0, #7
 441 000a 42EA0342 		orr	r2, r2, r3, lsl #16
 442 000e 0A60     		str	r2, [r1, #0]
 443 0010 7047     		bx	lr
 444              		.cfi_endproc
 445              	.LFE124:
 446              		.size	rtcGetPeriodicWakeup_v2, .-rtcGetPeriodicWakeup_v2
 447 0012 00BFAFF3 		.section	.text.rtc_lld_get_time_fat,"ax",%progbits
 447      0080AFF3 
 447      0080AFF3 
 447      0080
 448              		.align	2
 449              		.p2align 4,,15
 450              		.global	rtc_lld_get_time_fat
ARM GAS  C:\Users\DNIEL~1\AppData\Local\Temp\cchLqhvh.s 			page 9


 451              		.thumb
 452              		.thumb_func
 453              		.type	rtc_lld_get_time_fat, %function
 454              	rtc_lld_get_time_fat:
 455              	.LFB125:
 456              		.loc 1 292 0
 457              		.cfi_startproc
 458              		@ args = 0, pretend = 0, frame = 16
 459              		@ frame_needed = 0, uses_anonymous_args = 0
 460              	.LVL40:
 461 0000 2DE9F04F 		push	{r4, r5, r6, r7, r8, r9, sl, fp, lr}
 462              	.LCFI1:
 463              		.cfi_def_cfa_offset 36
 464              		.cfi_offset 4, -36
 465              		.cfi_offset 5, -32
 466              		.cfi_offset 6, -28
 467              		.cfi_offset 7, -24
 468              		.cfi_offset 8, -20
 469              		.cfi_offset 9, -16
 470              		.cfi_offset 10, -12
 471              		.cfi_offset 11, -8
 472              		.cfi_offset 14, -4
 473              	.LBB4:
 474              		.loc 1 299 0
 475 0004 2023     		movs	r3, #32
 476              	.LVL41:
 477              	.LBE4:
 478              		.loc 1 292 0
 479 0006 85B0     		sub	sp, sp, #20
 480              	.LCFI2:
 481              		.cfi_def_cfa_offset 56
 482              	.LBB5:
 483              		.loc 1 299 0
 484              	@ 299 "../../../ChibiOS/os/hal/platforms/STM32/RTCv2/rtc_lld.c" 1
 485 0008 83F31188 		msr     BASEPRI, r3
 486              	@ 0 "" 2
 487              	.LVL42:
 488              		.thumb
 489              	.LBE5:
 490              		.loc 1 300 0
 491 000c 6946     		mov	r1, sp
 492 000e FFF7FEFF 		bl	rtc_lld_get_time
 493              	.LVL43:
 494              	.LBB6:
 495              		.loc 1 301 0
 496 0012 0023     		movs	r3, #0
 497              	.LVL44:
 498              	@ 301 "../../../ChibiOS/os/hal/platforms/STM32/RTCv2/rtc_lld.c" 1
 499 0014 83F31188 		msr     BASEPRI, r3
 500              	@ 0 "" 2
 501              	.LVL45:
 502              		.thumb
 503              	.LBE6:
 504              		.loc 1 304 0
 505 0018 9DE80C00 		ldmia	sp, {r2, r3}
 506              	.LVL46:
 507              		.loc 1 311 0
ARM GAS  C:\Users\DNIEL~1\AppData\Local\Temp\cchLqhvh.s 			page 10


 508 001c C3F30230 		ubfx	r0, r3, #12, #3
 509              		.loc 1 307 0
 510 0020 C3F30211 		ubfx	r1, r3, #4, #3
 511              		.loc 1 310 0
 512 0024 C3F30326 		ubfx	r6, r3, #8, #4
 513              		.loc 1 311 0
 514 0028 00EB8009 		add	r9, r0, r0, lsl #2
 515              		.loc 1 316 0
 516 002c C3F38054 		ubfx	r4, r3, #22, #1
 517              		.loc 1 324 0
 518 0030 C2F30030 		ubfx	r0, r2, #12, #1
 519              		.loc 1 306 0
 520 0034 03F00F05 		and	r5, r3, #15
 521              	.LVL47:
 522              		.loc 1 311 0
 523 0038 06EB4907 		add	r7, r6, r9, lsl #1
 524              		.loc 1 307 0
 525 003c 01EB810A 		add	sl, r1, r1, lsl #2
 526              		.loc 1 320 0
 527 0040 C2F30111 		ubfx	r1, r2, #4, #2
 528              		.loc 1 307 0
 529 0044 05EB4A0A 		add	sl, r5, sl, lsl #1
 530              	.LVL48:
 531              		.loc 1 316 0
 532 0048 6600     		lsls	r6, r4, #1
 533              	.LVL49:
 534              		.loc 1 319 0
 535 004a 02F00F08 		and	r8, r2, #15
 536              		.loc 1 320 0
 537 004e 01EB810B 		add	fp, r1, r1, lsl #2
 538              		.loc 1 312 0
 539 0052 4FEA4719 		lsl	r9, r7, #5
 540              		.loc 1 324 0
 541 0056 4FEA800C 		lsl	ip, r0, #2
 542              		.loc 1 323 0
 543 005a C2F30327 		ubfx	r7, r2, #8, #4
 544              		.loc 1 315 0
 545 005e C3F30151 		ubfx	r1, r3, #20, #2
 546              		.loc 1 316 0
 547 0062 3419     		adds	r4, r6, r4
 548              		.loc 1 327 0
 549 0064 C2F30345 		ubfx	r5, r2, #16, #4
 550              		.loc 1 312 0
 551 0068 49EA5A09 		orr	r9, r9, sl, lsr #1
 552              		.loc 1 320 0
 553 006c 08EB4B06 		add	r6, r8, fp, lsl #1
 554              		.loc 1 324 0
 555 0070 6044     		add	r0, ip, r0
 556              		.loc 1 328 0
 557 0072 C2F30352 		ubfx	r2, r2, #20, #4
 558              	.LVL50:
 559              		.loc 1 324 0
 560 0076 07EB400C 		add	ip, r7, r0, lsl #1
 561              		.loc 1 315 0
 562 007a 01EB8101 		add	r1, r1, r1, lsl #2
 563              		.loc 1 316 0
 564 007e A400     		lsls	r4, r4, #2
ARM GAS  C:\Users\DNIEL~1\AppData\Local\Temp\cchLqhvh.s 			page 11


 565              		.loc 1 328 0
 566 0080 1435     		adds	r5, r5, #20
 567              		.loc 1 317 0
 568 0082 49EA0646 		orr	r6, r9, r6, lsl #16
 569              		.loc 1 328 0
 570 0086 02EB8202 		add	r2, r2, r2, lsl #2
 571              		.loc 1 315 0
 572 008a 04EB4100 		add	r0, r4, r1, lsl #1
 573              		.loc 1 329 0
 574 008e 05EB4202 		add	r2, r5, r2, lsl #1
 575              		.loc 1 321 0
 576 0092 46EA4C51 		orr	r1, r6, ip, lsl #21
 577              		.loc 1 314 0
 578 0096 C3F30343 		ubfx	r3, r3, #16, #4
 579              	.LVL51:
 580              		.loc 1 325 0
 581 009a 41EA4261 		orr	r1, r1, r2, lsl #25
 582              	.LVL52:
 583              		.loc 1 316 0
 584 009e C318     		adds	r3, r0, r3
 585              	.LVL53:
 586              		.loc 1 333 0
 587 00a0 41EAC320 		orr	r0, r1, r3, lsl #11
 588              	.LVL54:
 589 00a4 05B0     		add	sp, sp, #20
 590 00a6 BDE8F08F 		pop	{r4, r5, r6, r7, r8, r9, sl, fp, pc}
 591              		.cfi_endproc
 592              	.LFE125:
 593              		.size	rtc_lld_get_time_fat, .-rtc_lld_get_time_fat
 594              		.global	RTCD1
 595 00aa 00BFAFF3 		.section	.bss.RTCD1,"aw",%nobits
 595      0080
 596              		.align	2
 597              		.set	.LANCHOR0,. + 0
 598              		.type	RTCD1, %object
 599              		.size	RTCD1, 4
 600              	RTCD1:
 601 0000 00000000 		.space	4
 602              		.text
 603              	.Letext0:
 604              		.file 2 "c:\\chibistudio\\tools\\gnu tools arm embedded\\4.7 2014q2\\bin\\../lib/gcc/arm-none-eabi
 605              		.file 3 "../../../ChibiOS/os/ports/GCC/ARMCMx/chtypes.h"
 606              		.file 4 "../../../ChibiOS/os/hal/platforms/STM32F4xx/stm32f4xx.h"
 607              		.file 5 "../../../ChibiOS/os/hal/include/rtc.h"
 608              		.file 6 "../../../ChibiOS/os/hal/platforms/STM32/RTCv2/rtc_lld.h"
 609              		.file 7 "../../../ChibiOS/os/ports/common/ARMCMx/CMSIS/include/core_cm4.h"