ARM GAS  C:\Users\DNIEL~1\AppData\Local\Temp\ccaMx4VR.s 			page 1


   1              		.syntax unified
   2              		.cpu cortex-m4
   3              		.fpu softvfp
   4              		.eabi_attribute 20, 1
   5              		.eabi_attribute 21, 1
   6              		.eabi_attribute 23, 3
   7              		.eabi_attribute 24, 1
   8              		.eabi_attribute 25, 1
   9              		.eabi_attribute 26, 1
  10              		.eabi_attribute 30, 2
  11              		.eabi_attribute 34, 1
  12              		.eabi_attribute 18, 4
  13              		.thumb
  14              		.file	"rtc_lld.c"
  15              		.text
  16              	.Ltext0:
  17              		.cfi_sections	.debug_frame
  18              		.section	.text.rtc_lld_init,"ax",%progbits
  19              		.align	2
  20              		.p2align 4,,15
  21              		.global	rtc_lld_init
  22              		.thumb
  23              		.thumb_func
  24              		.type	rtc_lld_init, %function
  25              	rtc_lld_init:
  26              	.LFB118:
  27              		.file 1 "../../../ChibiOS/os/hal/platforms/STM32/RTCv2/rtc_lld.c"
  28              		.loc 1 93 0
  29              		.cfi_startproc
  30              		@ args = 0, pretend = 0, frame = 0
  31              		@ frame_needed = 0, uses_anonymous_args = 0
  32              		@ link register save eliminated.
  33              		.loc 1 94 0
  34 0000 4FF42053 		mov	r3, #10240
  35 0004 C4F20003 		movt	r3, 16384
  36 0008 0F4A     		ldr	r2, .L9
  37              		.loc 1 100 0
  38 000a CA20     		movs	r0, #202
  39              		.loc 1 101 0
  40 000c 5321     		movs	r1, #83
  41              		.loc 1 94 0
  42 000e 1360     		str	r3, [r2, #0]
  43              	.LVL0:
  44              		.loc 1 100 0
  45 0010 5862     		str	r0, [r3, #36]
  46              		.loc 1 101 0
  47 0012 5962     		str	r1, [r3, #36]
  48              		.loc 1 104 0
  49 0014 DA68     		ldr	r2, [r3, #12]
  50 0016 D106     		lsls	r1, r2, #27
  51 0018 14D4     		bmi	.L1
  52              		.loc 1 105 0
  53 001a D868     		ldr	r0, [r3, #12]
  54 001c 40F08001 		orr	r1, r0, #128
  55 0020 D960     		str	r1, [r3, #12]
  56 0022 1846     		mov	r0, r3
  57              	.L3:
ARM GAS  C:\Users\DNIEL~1\AppData\Local\Temp\ccaMx4VR.s 			page 2


  58              		.loc 1 105 0 is_stmt 0 discriminator 1
  59 0024 C268     		ldr	r2, [r0, #12]
  60 0026 4FF42053 		mov	r3, #10240
  61 002a 5206     		lsls	r2, r2, #25
  62 002c C4F20003 		movt	r3, 16384
  63 0030 F8D5     		bpl	.L3
  64              	.LVL1:
  65              		.loc 1 110 0 is_stmt 1
  66 0032 FF21     		movs	r1, #255
  67 0034 C0F27F01 		movt	r1, 127
  68 0038 1961     		str	r1, [r3, #16]
  69              		.loc 1 111 0
  70 003a 1961     		str	r1, [r3, #16]
  71              		.loc 1 112 0
  72 003c D868     		ldr	r0, [r3, #12]
  73 003e 20F08002 		bic	r2, r0, #128
  74 0042 DA60     		str	r2, [r3, #12]
  75              	.LVL2:
  76              	.L1:
  77 0044 7047     		bx	lr
  78              	.L10:
  79 0046 00BF     		.align	2
  80              	.L9:
  81 0048 00000000 		.word	.LANCHOR0
  82              		.cfi_endproc
  83              	.LFE118:
  84              		.size	rtc_lld_init, .-rtc_lld_init
  85 004c AFF30080 		.section	.text.rtc_lld_set_time,"ax",%progbits
  86              		.align	2
  87              		.p2align 4,,15
  88              		.global	rtc_lld_set_time
  89              		.thumb
  90              		.thumb_func
  91              		.type	rtc_lld_set_time, %function
  92              	rtc_lld_set_time:
  93              	.LFB119:
  94              		.loc 1 126 0
  95              		.cfi_startproc
  96              		@ args = 0, pretend = 0, frame = 0
  97              		@ frame_needed = 0, uses_anonymous_args = 0
  98              		@ link register save eliminated.
  99              	.LVL3:
 100              		.loc 1 129 0
 101 0000 0E4B     		ldr	r3, .L20
 102 0002 1A68     		ldr	r2, [r3, #0]
 103 0004 D068     		ldr	r0, [r2, #12]
 104              	.LVL4:
 105 0006 40F08003 		orr	r3, r0, #128
 106 000a D360     		str	r3, [r2, #12]
 107              	.L12:
 108              		.loc 1 129 0 is_stmt 0 discriminator 1
 109 000c D068     		ldr	r0, [r2, #12]
 110 000e 4306     		lsls	r3, r0, #25
 111 0010 FCD5     		bpl	.L12
 112              		.loc 1 130 0 is_stmt 1
 113 0012 8B68     		ldr	r3, [r1, #8]
 114 0014 63B9     		cbnz	r3, .L19
ARM GAS  C:\Users\DNIEL~1\AppData\Local\Temp\ccaMx4VR.s 			page 3


 115              		.loc 1 133 0
 116 0016 9068     		ldr	r0, [r2, #8]
 117 0018 20F04003 		bic	r3, r0, #64
 118 001c 9360     		str	r3, [r2, #8]
 119              	.L14:
 120              		.loc 1 134 0
 121 001e 4868     		ldr	r0, [r1, #4]
 122              		.loc 1 135 0
 123 0020 0968     		ldr	r1, [r1, #0]
 124              	.LVL5:
 125              		.loc 1 134 0
 126 0022 1060     		str	r0, [r2, #0]
 127              		.loc 1 135 0
 128 0024 5160     		str	r1, [r2, #4]
 129              		.loc 1 136 0
 130 0026 D368     		ldr	r3, [r2, #12]
 131 0028 23F08000 		bic	r0, r3, #128
 132 002c D060     		str	r0, [r2, #12]
 133 002e 7047     		bx	lr
 134              	.LVL6:
 135              	.L19:
 136              		.loc 1 131 0
 137 0030 9068     		ldr	r0, [r2, #8]
 138 0032 40F04003 		orr	r3, r0, #64
 139 0036 9360     		str	r3, [r2, #8]
 140 0038 F1E7     		b	.L14
 141              	.L21:
 142 003a 00BF     		.align	2
 143              	.L20:
 144 003c 00000000 		.word	.LANCHOR0
 145              		.cfi_endproc
 146              	.LFE119:
 147              		.size	rtc_lld_set_time, .-rtc_lld_set_time
 148              		.section	.text.rtc_lld_get_time,"ax",%progbits
 149              		.align	2
 150              		.p2align 4,,15
 151              		.global	rtc_lld_get_time
 152              		.thumb
 153              		.thumb_func
 154              		.type	rtc_lld_get_time, %function
 155              	rtc_lld_get_time:
 156              	.LFB120:
 157              		.loc 1 147 0
 158              		.cfi_startproc
 159              		@ args = 0, pretend = 0, frame = 0
 160              		@ frame_needed = 0, uses_anonymous_args = 0
 161              		@ link register save eliminated.
 162              	.LVL7:
 163 0000 70B4     		push	{r4, r5, r6}
 164              	.LCFI0:
 165              		.cfi_def_cfa_offset 12
 166              		.cfi_offset 4, -12
 167              		.cfi_offset 5, -8
 168              		.cfi_offset 6, -4
 169 0002 0D4B     		ldr	r3, .L28
 170 0004 1A68     		ldr	r2, [r3, #0]
 171              	.LVL8:
ARM GAS  C:\Users\DNIEL~1\AppData\Local\Temp\ccaMx4VR.s 			page 4


 172              	.L23:
 173              		.loc 1 150 0 discriminator 1
 174 0006 D068     		ldr	r0, [r2, #12]
 175 0008 8306     		lsls	r3, r0, #26
 176 000a FCD5     		bpl	.L23
 177              		.loc 1 154 0
 178 000c 1669     		ldr	r6, [r2, #16]
 179 000e 956A     		ldr	r5, [r2, #40]
 180              		.loc 1 155 0
 181 0010 1369     		ldr	r3, [r2, #16]
 182              		.loc 1 157 0
 183 0012 1468     		ldr	r4, [r2, #0]
 184              		.loc 1 158 0
 185 0014 5068     		ldr	r0, [r2, #4]
 186              		.loc 1 157 0
 187 0016 4C60     		str	r4, [r1, #4]
 188              		.loc 1 154 0
 189 0018 7204     		lsls	r2, r6, #17
 190 001a 540C     		lsrs	r4, r2, #17
 191              		.loc 1 155 0
 192 001c 5B04     		lsls	r3, r3, #17
 193              		.loc 1 154 0
 194 001e 621B     		subs	r2, r4, r5
 195              		.loc 1 155 0
 196 0020 5B0C     		lsrs	r3, r3, #17
 197              		.loc 1 154 0
 198 0022 4FF47A74 		mov	r4, #1000
 199 0026 04FB02F2 		mul	r2, r4, r2
 200              		.loc 1 155 0
 201 002a 0133     		adds	r3, r3, #1
 202              		.loc 1 154 0
 203 002c B2FBF3F2 		udiv	r2, r2, r3
 204              		.loc 1 153 0
 205 0030 CA60     		str	r2, [r1, #12]
 206              		.loc 1 158 0
 207 0032 0860     		str	r0, [r1, #0]
 208              		.loc 1 159 0
 209 0034 70BC     		pop	{r4, r5, r6}
 210 0036 7047     		bx	lr
 211              	.L29:
 212              		.align	2
 213              	.L28:
 214 0038 00000000 		.word	.LANCHOR0
 215              		.cfi_endproc
 216              	.LFE120:
 217              		.size	rtc_lld_get_time, .-rtc_lld_get_time
 218 003c AFF30080 		.section	.text.rtc_lld_set_alarm,"ax",%progbits
 219              		.align	2
 220              		.p2align 4,,15
 221              		.global	rtc_lld_set_alarm
 222              		.thumb
 223              		.thumb_func
 224              		.type	rtc_lld_set_alarm, %function
 225              	rtc_lld_set_alarm:
 226              	.LFB121:
 227              		.loc 1 175 0
 228              		.cfi_startproc
ARM GAS  C:\Users\DNIEL~1\AppData\Local\Temp\ccaMx4VR.s 			page 5


 229              		@ args = 0, pretend = 0, frame = 0
 230              		@ frame_needed = 0, uses_anonymous_args = 0
 231              		@ link register save eliminated.
 232              	.LVL9:
 233              		.loc 1 176 0
 234 0000 0129     		cmp	r1, #1
 235 0002 14D0     		beq	.L45
 236              		.loc 1 191 0
 237 0004 002A     		cmp	r2, #0
 238 0006 26D0     		beq	.L35
 239              		.loc 1 192 0
 240 0008 0068     		ldr	r0, [r0, #0]
 241              	.LVL10:
 242 000a 8368     		ldr	r3, [r0, #8]
 243 000c 23F40071 		bic	r1, r3, #512
 244              	.LVL11:
 245 0010 8160     		str	r1, [r0, #8]
 246              	.L36:
 247              		.loc 1 193 0 discriminator 1
 248 0012 C368     		ldr	r3, [r0, #12]
 249 0014 9B07     		lsls	r3, r3, #30
 250 0016 FCD5     		bpl	.L36
 251              		.loc 1 195 0
 252 0018 1268     		ldr	r2, [r2, #0]
 253              	.LVL12:
 254 001a 0262     		str	r2, [r0, #32]
 255              		.loc 1 196 0
 256 001c 8168     		ldr	r1, [r0, #8]
 257 001e 41F40073 		orr	r3, r1, #512
 258 0022 8360     		str	r3, [r0, #8]
 259              		.loc 1 197 0
 260 0024 8268     		ldr	r2, [r0, #8]
 261 0026 42F40051 		orr	r1, r2, #8192
 262 002a 8160     		str	r1, [r0, #8]
 263 002c 7047     		bx	lr
 264              	.LVL13:
 265              	.L45:
 266              		.loc 1 177 0
 267 002e E2B1     		cbz	r2, .L32
 268              		.loc 1 178 0
 269 0030 0168     		ldr	r1, [r0, #0]
 270              	.LVL14:
 271 0032 8868     		ldr	r0, [r1, #8]
 272              	.LVL15:
 273 0034 20F48073 		bic	r3, r0, #256
 274 0038 8B60     		str	r3, [r1, #8]
 275              	.L33:
 276              		.loc 1 179 0 discriminator 1
 277 003a C868     		ldr	r0, [r1, #12]
 278 003c C007     		lsls	r0, r0, #31
 279 003e FCD5     		bpl	.L33
 280              		.loc 1 181 0
 281 0040 1268     		ldr	r2, [r2, #0]
 282              	.LVL16:
 283 0042 CA61     		str	r2, [r1, #28]
 284              		.loc 1 182 0
 285 0044 8B68     		ldr	r3, [r1, #8]
ARM GAS  C:\Users\DNIEL~1\AppData\Local\Temp\ccaMx4VR.s 			page 6


 286 0046 43F48070 		orr	r0, r3, #256
 287 004a 8860     		str	r0, [r1, #8]
 288              		.loc 1 183 0
 289 004c 8A68     		ldr	r2, [r1, #8]
 290 004e 42F48053 		orr	r3, r2, #4096
 291 0052 8B60     		str	r3, [r1, #8]
 292 0054 7047     		bx	lr
 293              	.LVL17:
 294              	.L35:
 295              		.loc 1 200 0
 296 0056 0368     		ldr	r3, [r0, #0]
 297 0058 9A68     		ldr	r2, [r3, #8]
 298              	.LVL18:
 299 005a 22F40050 		bic	r0, r2, #8192
 300              	.LVL19:
 301 005e 9860     		str	r0, [r3, #8]
 302              		.loc 1 201 0
 303 0060 9968     		ldr	r1, [r3, #8]
 304              	.LVL20:
 305 0062 21F40072 		bic	r2, r1, #512
 306 0066 9A60     		str	r2, [r3, #8]
 307 0068 7047     		bx	lr
 308              	.LVL21:
 309              	.L32:
 310              		.loc 1 186 0
 311 006a 0068     		ldr	r0, [r0, #0]
 312              	.LVL22:
 313 006c 8368     		ldr	r3, [r0, #8]
 314 006e 23F48052 		bic	r2, r3, #4096
 315              	.LVL23:
 316 0072 8260     		str	r2, [r0, #8]
 317              		.loc 1 187 0
 318 0074 8168     		ldr	r1, [r0, #8]
 319              	.LVL24:
 320 0076 21F48073 		bic	r3, r1, #256
 321 007a 8360     		str	r3, [r0, #8]
 322 007c 7047     		bx	lr
 323              		.cfi_endproc
 324              	.LFE121:
 325              		.size	rtc_lld_set_alarm, .-rtc_lld_set_alarm
 326 007e 00BF     		.section	.text.rtc_lld_get_alarm,"ax",%progbits
 327              		.align	2
 328              		.p2align 4,,15
 329              		.global	rtc_lld_get_alarm
 330              		.thumb
 331              		.thumb_func
 332              		.type	rtc_lld_get_alarm, %function
 333              	rtc_lld_get_alarm:
 334              	.LFB122:
 335              		.loc 1 217 0
 336              		.cfi_startproc
 337              		@ args = 0, pretend = 0, frame = 0
 338              		@ frame_needed = 0, uses_anonymous_args = 0
 339              		@ link register save eliminated.
 340              	.LVL25:
 341              		.loc 1 219 0
 342 0000 0368     		ldr	r3, [r0, #0]
ARM GAS  C:\Users\DNIEL~1\AppData\Local\Temp\ccaMx4VR.s 			page 7


 343              		.loc 1 218 0
 344 0002 0129     		cmp	r1, #1
 345              		.loc 1 219 0
 346 0004 0CBF     		ite	eq
 347 0006 DB69     		ldreq	r3, [r3, #28]
 348              		.loc 1 221 0
 349 0008 1B6A     		ldrne	r3, [r3, #32]
 350 000a 1360     		str	r3, [r2, #0]
 351 000c 7047     		bx	lr
 352              		.cfi_endproc
 353              	.LFE122:
 354              		.size	rtc_lld_get_alarm, .-rtc_lld_get_alarm
 355 000e 00BF     		.section	.text.rtcSetPeriodicWakeup_v2,"ax",%progbits
 356              		.align	2
 357              		.p2align 4,,15
 358              		.global	rtcSetPeriodicWakeup_v2
 359              		.thumb
 360              		.thumb_func
 361              		.type	rtcSetPeriodicWakeup_v2, %function
 362              	rtcSetPeriodicWakeup_v2:
 363              	.LFB123:
 364              		.loc 1 234 0
 365              		.cfi_startproc
 366              		@ args = 0, pretend = 0, frame = 0
 367              		@ frame_needed = 0, uses_anonymous_args = 0
 368              		@ link register save eliminated.
 369              	.LVL26:
 370              		.loc 1 238 0
 371 0000 B1B1     		cbz	r1, .L50
 372              		.loc 1 239 0
 373 0002 0068     		ldr	r0, [r0, #0]
 374              	.LVL27:
 375 0004 8368     		ldr	r3, [r0, #8]
 376 0006 23F48062 		bic	r2, r3, #1024
 377 000a 8260     		str	r2, [r0, #8]
 378              	.L51:
 379              		.loc 1 240 0 discriminator 1
 380 000c C368     		ldr	r3, [r0, #12]
 381 000e 5B07     		lsls	r3, r3, #29
 382 0010 FCD5     		bpl	.L51
 383              		.loc 1 242 0
 384 0012 0A68     		ldr	r2, [r1, #0]
 385 0014 91B2     		uxth	r1, r2
 386              	.LVL28:
 387              		.loc 1 243 0
 388 0016 C2F30243 		ubfx	r3, r2, #16, #3
 389              		.loc 1 242 0
 390 001a 4161     		str	r1, [r0, #20]
 391              		.loc 1 243 0
 392 001c 8360     		str	r3, [r0, #8]
 393              		.loc 1 244 0
 394 001e 8268     		ldr	r2, [r0, #8]
 395 0020 42F48041 		orr	r1, r2, #16384
 396 0024 8160     		str	r1, [r0, #8]
 397              		.loc 1 245 0
 398 0026 8368     		ldr	r3, [r0, #8]
 399 0028 43F48062 		orr	r2, r3, #1024
ARM GAS  C:\Users\DNIEL~1\AppData\Local\Temp\ccaMx4VR.s 			page 8


 400 002c 8260     		str	r2, [r0, #8]
 401 002e 7047     		bx	lr
 402              	.LVL29:
 403              	.L50:
 404              		.loc 1 248 0
 405 0030 0368     		ldr	r3, [r0, #0]
 406 0032 9A68     		ldr	r2, [r3, #8]
 407 0034 22F48040 		bic	r0, r2, #16384
 408              	.LVL30:
 409 0038 9860     		str	r0, [r3, #8]
 410              		.loc 1 249 0
 411 003a 9968     		ldr	r1, [r3, #8]
 412              	.LVL31:
 413 003c 21F48062 		bic	r2, r1, #1024
 414 0040 9A60     		str	r2, [r3, #8]
 415 0042 7047     		bx	lr
 416              		.cfi_endproc
 417              	.LFE123:
 418              		.size	rtcSetPeriodicWakeup_v2, .-rtcSetPeriodicWakeup_v2
 419 0044 AFF30080 		.section	.text.rtcGetPeriodicWakeup_v2,"ax",%progbits
 419      AFF30080 
 419      AFF30080 
 420              		.align	2
 421              		.p2align 4,,15
 422              		.global	rtcGetPeriodicWakeup_v2
 423              		.thumb
 424              		.thumb_func
 425              		.type	rtcGetPeriodicWakeup_v2, %function
 426              	rtcGetPeriodicWakeup_v2:
 427              	.LFB124:
 428              		.loc 1 263 0
 429              		.cfi_startproc
 430              		@ args = 0, pretend = 0, frame = 0
 431              		@ frame_needed = 0, uses_anonymous_args = 0
 432              		@ link register save eliminated.
 433              	.LVL32:
 434              		.loc 1 265 0
 435 0000 0368     		ldr	r3, [r0, #0]
 436 0002 5A69     		ldr	r2, [r3, #20]
 437              		.loc 1 266 0
 438 0004 9868     		ldr	r0, [r3, #8]
 439              	.LVL33:
 440 0006 00F00703 		and	r3, r0, #7
 441 000a 42EA0342 		orr	r2, r2, r3, lsl #16
 442 000e 0A60     		str	r2, [r1, #0]
 443 0010 7047     		bx	lr
 444              		.cfi_endproc
 445              	.LFE124:
 446              		.size	rtcGetPeriodicWakeup_v2, .-rtcGetPeriodicWakeup_v2
 447 0012 00BFAFF3 		.section	.text.rtc_lld_get_time_fat,"ax",%progbits
 447      0080AFF3 
 447      0080AFF3 
 447      0080
 448              		.align	2
 449              		.p2align 4,,15
 450              		.global	rtc_lld_get_time_fat
 451              		.thumb
ARM GAS  C:\Users\DNIEL~1\AppData\Local\Temp\ccaMx4VR.s 			page 9


 452              		.thumb_func
 453              		.type	rtc_lld_get_time_fat, %function
 454              	rtc_lld_get_time_fat:
 455              	.LFB125:
 456              		.loc 1 277 0
 457              		.cfi_startproc
 458              		@ args = 0, pretend = 0, frame = 16
 459              		@ frame_needed = 0, uses_anonymous_args = 0
 460              	.LVL34:
 461 0000 2DE9F04F 		push	{r4, r5, r6, r7, r8, r9, sl, fp, lr}
 462              	.LCFI1:
 463              		.cfi_def_cfa_offset 36
 464              		.cfi_offset 4, -36
 465              		.cfi_offset 5, -32
 466              		.cfi_offset 6, -28
 467              		.cfi_offset 7, -24
 468              		.cfi_offset 8, -20
 469              		.cfi_offset 9, -16
 470              		.cfi_offset 10, -12
 471              		.cfi_offset 11, -8
 472              		.cfi_offset 14, -4
 473              	.LBB2:
 474              		.loc 1 284 0
 475 0004 2023     		movs	r3, #32
 476              	.LVL35:
 477              	.LBE2:
 478              		.loc 1 277 0
 479 0006 85B0     		sub	sp, sp, #20
 480              	.LCFI2:
 481              		.cfi_def_cfa_offset 56
 482              	.LBB3:
 483              		.loc 1 284 0
 484              	@ 284 "../../../ChibiOS/os/hal/platforms/STM32/RTCv2/rtc_lld.c" 1
 485 0008 83F31188 		msr     BASEPRI, r3
 486              	@ 0 "" 2
 487              	.LVL36:
 488              		.thumb
 489              	.LBE3:
 490              		.loc 1 285 0
 491 000c 6946     		mov	r1, sp
 492 000e FFF7FEFF 		bl	rtc_lld_get_time
 493              	.LVL37:
 494              	.LBB4:
 495              		.loc 1 286 0
 496 0012 0023     		movs	r3, #0
 497              	.LVL38:
 498              	@ 286 "../../../ChibiOS/os/hal/platforms/STM32/RTCv2/rtc_lld.c" 1
 499 0014 83F31188 		msr     BASEPRI, r3
 500              	@ 0 "" 2
 501              	.LVL39:
 502              		.thumb
 503              	.LBE4:
 504              		.loc 1 289 0
 505 0018 9DE80C00 		ldmia	sp, {r2, r3}
 506              	.LVL40:
 507              		.loc 1 296 0
 508 001c C3F30230 		ubfx	r0, r3, #12, #3
ARM GAS  C:\Users\DNIEL~1\AppData\Local\Temp\ccaMx4VR.s 			page 10


 509              		.loc 1 292 0
 510 0020 C3F30211 		ubfx	r1, r3, #4, #3
 511              		.loc 1 295 0
 512 0024 C3F30326 		ubfx	r6, r3, #8, #4
 513              		.loc 1 296 0
 514 0028 00EB8009 		add	r9, r0, r0, lsl #2
 515              		.loc 1 301 0
 516 002c C3F38054 		ubfx	r4, r3, #22, #1
 517              		.loc 1 309 0
 518 0030 C2F30030 		ubfx	r0, r2, #12, #1
 519              		.loc 1 291 0
 520 0034 03F00F05 		and	r5, r3, #15
 521              	.LVL41:
 522              		.loc 1 296 0
 523 0038 06EB4907 		add	r7, r6, r9, lsl #1
 524              		.loc 1 292 0
 525 003c 01EB810A 		add	sl, r1, r1, lsl #2
 526              		.loc 1 305 0
 527 0040 C2F30111 		ubfx	r1, r2, #4, #2
 528              		.loc 1 292 0
 529 0044 05EB4A0A 		add	sl, r5, sl, lsl #1
 530              	.LVL42:
 531              		.loc 1 301 0
 532 0048 6600     		lsls	r6, r4, #1
 533              	.LVL43:
 534              		.loc 1 304 0
 535 004a 02F00F08 		and	r8, r2, #15
 536              		.loc 1 305 0
 537 004e 01EB810B 		add	fp, r1, r1, lsl #2
 538              		.loc 1 297 0
 539 0052 4FEA4719 		lsl	r9, r7, #5
 540              		.loc 1 309 0
 541 0056 4FEA800C 		lsl	ip, r0, #2
 542              		.loc 1 308 0
 543 005a C2F30327 		ubfx	r7, r2, #8, #4
 544              		.loc 1 300 0
 545 005e C3F30151 		ubfx	r1, r3, #20, #2
 546              		.loc 1 301 0
 547 0062 3419     		adds	r4, r6, r4
 548              		.loc 1 312 0
 549 0064 C2F30345 		ubfx	r5, r2, #16, #4
 550              		.loc 1 297 0
 551 0068 49EA5A09 		orr	r9, r9, sl, lsr #1
 552              		.loc 1 305 0
 553 006c 08EB4B06 		add	r6, r8, fp, lsl #1
 554              		.loc 1 309 0
 555 0070 6044     		add	r0, ip, r0
 556              		.loc 1 313 0
 557 0072 C2F30352 		ubfx	r2, r2, #20, #4
 558              	.LVL44:
 559              		.loc 1 309 0
 560 0076 07EB400C 		add	ip, r7, r0, lsl #1
 561              		.loc 1 300 0
 562 007a 01EB8101 		add	r1, r1, r1, lsl #2
 563              		.loc 1 301 0
 564 007e A400     		lsls	r4, r4, #2
 565              		.loc 1 313 0
ARM GAS  C:\Users\DNIEL~1\AppData\Local\Temp\ccaMx4VR.s 			page 11


 566 0080 1435     		adds	r5, r5, #20
 567              		.loc 1 302 0
 568 0082 49EA0646 		orr	r6, r9, r6, lsl #16
 569              		.loc 1 313 0
 570 0086 02EB8202 		add	r2, r2, r2, lsl #2
 571              		.loc 1 300 0
 572 008a 04EB4100 		add	r0, r4, r1, lsl #1
 573              		.loc 1 314 0
 574 008e 05EB4202 		add	r2, r5, r2, lsl #1
 575              		.loc 1 306 0
 576 0092 46EA4C51 		orr	r1, r6, ip, lsl #21
 577              		.loc 1 299 0
 578 0096 C3F30343 		ubfx	r3, r3, #16, #4
 579              	.LVL45:
 580              		.loc 1 310 0
 581 009a 41EA4261 		orr	r1, r1, r2, lsl #25
 582              	.LVL46:
 583              		.loc 1 301 0
 584 009e C318     		adds	r3, r0, r3
 585              	.LVL47:
 586              		.loc 1 318 0
 587 00a0 41EAC320 		orr	r0, r1, r3, lsl #11
 588              	.LVL48:
 589 00a4 05B0     		add	sp, sp, #20
 590 00a6 BDE8F08F 		pop	{r4, r5, r6, r7, r8, r9, sl, fp, pc}
 591              		.cfi_endproc
 592              	.LFE125:
 593              		.size	rtc_lld_get_time_fat, .-rtc_lld_get_time_fat
 594              		.global	RTCD1
 595 00aa 00BFAFF3 		.section	.bss.RTCD1,"aw",%nobits
 595      0080
 596              		.align	2
 597              		.set	.LANCHOR0,. + 0
 598              		.type	RTCD1, %object
 599              		.size	RTCD1, 4
 600              	RTCD1:
 601 0000 00000000 		.space	4
 602              		.text
 603              	.Letext0:
 604              		.file 2 "c:\\chibistudio\\tools\\gnu tools arm embedded\\4.7 2014q2\\bin\\../lib/gcc/arm-none-eabi
 605              		.file 3 "../../../ChibiOS/os/ports/GCC/ARMCMx/chtypes.h"
 606              		.file 4 "../../../ChibiOS/os/hal/platforms/STM32F4xx/stm32f4xx.h"
 607              		.file 5 "../../../ChibiOS/os/hal/include/rtc.h"
 608              		.file 6 "../../../ChibiOS/os/hal/platforms/STM32/RTCv2/rtc_lld.h"
 609              		.file 7 "../../../ChibiOS/os/ports/common/ARMCMx/CMSIS/include/core_cm4.h"
 610              		.section	.debug_info,"",%progbits
 611              	.Ldebug_info0:
 612 0000 94060000 		.4byte	0x694
 613 0004 0200     		.2byte	0x2
 614 0006 00000000 		.4byte	.Ldebug_abbrev0
 615 000a 04       		.byte	0x4
 616 000b 01       		.uleb128 0x1
 617 000c 30000000 		.4byte	.LASF76
 618 0010 01       		.byte	0x1
 619 0011 DE020000 		.4byte	.LASF77
 620 0015 2D010000 		.4byte	.LASF78
 621 0019 18000000 		.4byte	.Ldebug_ranges0+0x18
ARM GAS  C:\Users\DNIEL~1\AppData\Local\Temp\ccaMx4VR.s 			page 12


 622 001d 00000000 		.4byte	0
 623 0021 00000000 		.4byte	0
 624 0025 00000000 		.4byte	.Ldebug_line0
 625 0029 02       		.uleb128 0x2
 626 002a 04       		.byte	0x4
 627 002b 05       		.byte	0x5
 628 002c 696E7400 		.ascii	"int\000"
 629 0030 03       		.uleb128 0x3
 630 0031 04       		.byte	0x4
 631 0032 07       		.byte	0x7
 632 0033 CD010000 		.4byte	.LASF0
 633 0037 03       		.uleb128 0x3
 634 0038 01       		.byte	0x1
 635 0039 06       		.byte	0x6
 636 003a 9A010000 		.4byte	.LASF1
 637 003e 03       		.uleb128 0x3
 638 003f 01       		.byte	0x1
 639 0040 08       		.byte	0x8
 640 0041 7D010000 		.4byte	.LASF2
 641 0045 03       		.uleb128 0x3
 642 0046 02       		.byte	0x2
 643 0047 05       		.byte	0x5
 644 0048 1D000000 		.4byte	.LASF3
 645 004c 03       		.uleb128 0x3
 646 004d 02       		.byte	0x2
 647 004e 07       		.byte	0x7
 648 004f 02020000 		.4byte	.LASF4
 649 0053 04       		.uleb128 0x4
 650 0054 20020000 		.4byte	.LASF6
 651 0058 02       		.byte	0x2
 652 0059 4F       		.byte	0x4f
 653 005a 5E000000 		.4byte	0x5e
 654 005e 03       		.uleb128 0x3
 655 005f 04       		.byte	0x4
 656 0060 05       		.byte	0x5
 657 0061 05010000 		.4byte	.LASF5
 658 0065 04       		.uleb128 0x4
 659 0066 BD010000 		.4byte	.LASF7
 660 006a 02       		.byte	0x2
 661 006b 50       		.byte	0x50
 662 006c 70000000 		.4byte	0x70
 663 0070 03       		.uleb128 0x3
 664 0071 04       		.byte	0x4
 665 0072 07       		.byte	0x7
 666 0073 60020000 		.4byte	.LASF8
 667 0077 03       		.uleb128 0x3
 668 0078 08       		.byte	0x8
 669 0079 05       		.byte	0x5
 670 007a D4000000 		.4byte	.LASF9
 671 007e 03       		.uleb128 0x3
 672 007f 08       		.byte	0x8
 673 0080 07       		.byte	0x7
 674 0081 A6010000 		.4byte	.LASF10
 675 0085 04       		.uleb128 0x4
 676 0086 28020000 		.4byte	.LASF11
 677 008a 03       		.byte	0x3
 678 008b 27       		.byte	0x27
ARM GAS  C:\Users\DNIEL~1\AppData\Local\Temp\ccaMx4VR.s 			page 13


 679 008c 53000000 		.4byte	0x53
 680 0090 05       		.uleb128 0x5
 681 0091 65000000 		.4byte	0x65
 682 0095 03       		.uleb128 0x3
 683 0096 04       		.byte	0x4
 684 0097 07       		.byte	0x7
 685 0098 27000000 		.4byte	.LASF12
 686 009c 03       		.uleb128 0x3
 687 009d 01       		.byte	0x1
 688 009e 08       		.byte	0x8
 689 009f 15020000 		.4byte	.LASF13
 690 00a3 05       		.uleb128 0x5
 691 00a4 53000000 		.4byte	0x53
 692 00a8 06       		.uleb128 0x6
 693 00a9 A0       		.byte	0xa0
 694 00aa 04       		.byte	0x4
 695 00ab 0103     		.2byte	0x301
 696 00ad 0F030000 		.4byte	0x30f
 697 00b1 07       		.uleb128 0x7
 698 00b2 545200   		.ascii	"TR\000"
 699 00b5 04       		.byte	0x4
 700 00b6 0303     		.2byte	0x303
 701 00b8 90000000 		.4byte	0x90
 702 00bc 02       		.byte	0x2
 703 00bd 23       		.byte	0x23
 704 00be 00       		.uleb128 0
 705 00bf 07       		.uleb128 0x7
 706 00c0 445200   		.ascii	"DR\000"
 707 00c3 04       		.byte	0x4
 708 00c4 0403     		.2byte	0x304
 709 00c6 90000000 		.4byte	0x90
 710 00ca 02       		.byte	0x2
 711 00cb 23       		.byte	0x23
 712 00cc 04       		.uleb128 0x4
 713 00cd 07       		.uleb128 0x7
 714 00ce 435200   		.ascii	"CR\000"
 715 00d1 04       		.byte	0x4
 716 00d2 0503     		.2byte	0x305
 717 00d4 90000000 		.4byte	0x90
 718 00d8 02       		.byte	0x2
 719 00d9 23       		.byte	0x23
 720 00da 08       		.uleb128 0x8
 721 00db 07       		.uleb128 0x7
 722 00dc 49535200 		.ascii	"ISR\000"
 723 00e0 04       		.byte	0x4
 724 00e1 0603     		.2byte	0x306
 725 00e3 90000000 		.4byte	0x90
 726 00e7 02       		.byte	0x2
 727 00e8 23       		.byte	0x23
 728 00e9 0C       		.uleb128 0xc
 729 00ea 08       		.uleb128 0x8
 730 00eb C3000000 		.4byte	.LASF14
 731 00ef 04       		.byte	0x4
 732 00f0 0703     		.2byte	0x307
 733 00f2 90000000 		.4byte	0x90
 734 00f6 02       		.byte	0x2
 735 00f7 23       		.byte	0x23
ARM GAS  C:\Users\DNIEL~1\AppData\Local\Temp\ccaMx4VR.s 			page 14


 736 00f8 10       		.uleb128 0x10
 737 00f9 08       		.uleb128 0x8
 738 00fa 7E000000 		.4byte	.LASF15
 739 00fe 04       		.byte	0x4
 740 00ff 0803     		.2byte	0x308
 741 0101 90000000 		.4byte	0x90
 742 0105 02       		.byte	0x2
 743 0106 23       		.byte	0x23
 744 0107 14       		.uleb128 0x14
 745 0108 08       		.uleb128 0x8
 746 0109 F3000000 		.4byte	.LASF16
 747 010d 04       		.byte	0x4
 748 010e 0903     		.2byte	0x309
 749 0110 90000000 		.4byte	0x90
 750 0114 02       		.byte	0x2
 751 0115 23       		.byte	0x23
 752 0116 18       		.uleb128 0x18
 753 0117 08       		.uleb128 0x8
 754 0118 C6010000 		.4byte	.LASF17
 755 011c 04       		.byte	0x4
 756 011d 0A03     		.2byte	0x30a
 757 011f 90000000 		.4byte	0x90
 758 0123 02       		.byte	0x2
 759 0124 23       		.byte	0x23
 760 0125 1C       		.uleb128 0x1c
 761 0126 08       		.uleb128 0x8
 762 0127 B0020000 		.4byte	.LASF18
 763 012b 04       		.byte	0x4
 764 012c 0B03     		.2byte	0x30b
 765 012e 90000000 		.4byte	0x90
 766 0132 02       		.byte	0x2
 767 0133 23       		.byte	0x23
 768 0134 20       		.uleb128 0x20
 769 0135 07       		.uleb128 0x7
 770 0136 57505200 		.ascii	"WPR\000"
 771 013a 04       		.byte	0x4
 772 013b 0C03     		.2byte	0x30c
 773 013d 90000000 		.4byte	0x90
 774 0141 02       		.byte	0x2
 775 0142 23       		.byte	0x23
 776 0143 24       		.uleb128 0x24
 777 0144 07       		.uleb128 0x7
 778 0145 53535200 		.ascii	"SSR\000"
 779 0149 04       		.byte	0x4
 780 014a 0D03     		.2byte	0x30d
 781 014c 90000000 		.4byte	0x90
 782 0150 02       		.byte	0x2
 783 0151 23       		.byte	0x23
 784 0152 28       		.uleb128 0x28
 785 0153 08       		.uleb128 0x8
 786 0154 2C030000 		.4byte	.LASF19
 787 0158 04       		.byte	0x4
 788 0159 0E03     		.2byte	0x30e
 789 015b 90000000 		.4byte	0x90
 790 015f 02       		.byte	0x2
 791 0160 23       		.byte	0x23
 792 0161 2C       		.uleb128 0x2c
ARM GAS  C:\Users\DNIEL~1\AppData\Local\Temp\ccaMx4VR.s 			page 15


 793 0162 08       		.uleb128 0x8
 794 0163 FD010000 		.4byte	.LASF20
 795 0167 04       		.byte	0x4
 796 0168 0F03     		.2byte	0x30f
 797 016a 90000000 		.4byte	0x90
 798 016e 02       		.byte	0x2
 799 016f 23       		.byte	0x23
 800 0170 30       		.uleb128 0x30
 801 0171 08       		.uleb128 0x8
 802 0172 AC000000 		.4byte	.LASF21
 803 0176 04       		.byte	0x4
 804 0177 1003     		.2byte	0x310
 805 0179 90000000 		.4byte	0x90
 806 017d 02       		.byte	0x2
 807 017e 23       		.byte	0x23
 808 017f 34       		.uleb128 0x34
 809 0180 08       		.uleb128 0x8
 810 0181 1F030000 		.4byte	.LASF22
 811 0185 04       		.byte	0x4
 812 0186 1103     		.2byte	0x311
 813 0188 90000000 		.4byte	0x90
 814 018c 02       		.byte	0x2
 815 018d 23       		.byte	0x23
 816 018e 38       		.uleb128 0x38
 817 018f 08       		.uleb128 0x8
 818 0190 79000000 		.4byte	.LASF23
 819 0194 04       		.byte	0x4
 820 0195 1203     		.2byte	0x312
 821 0197 90000000 		.4byte	0x90
 822 019b 02       		.byte	0x2
 823 019c 23       		.byte	0x23
 824 019d 3C       		.uleb128 0x3c
 825 019e 08       		.uleb128 0x8
 826 019f 5F010000 		.4byte	.LASF24
 827 01a3 04       		.byte	0x4
 828 01a4 1303     		.2byte	0x313
 829 01a6 90000000 		.4byte	0x90
 830 01aa 02       		.byte	0x2
 831 01ab 23       		.byte	0x23
 832 01ac 40       		.uleb128 0x40
 833 01ad 08       		.uleb128 0x8
 834 01ae 24010000 		.4byte	.LASF25
 835 01b2 04       		.byte	0x4
 836 01b3 1403     		.2byte	0x314
 837 01b5 90000000 		.4byte	0x90
 838 01b9 02       		.byte	0x2
 839 01ba 23       		.byte	0x23
 840 01bb 44       		.uleb128 0x44
 841 01bc 08       		.uleb128 0x8
 842 01bd 2F020000 		.4byte	.LASF26
 843 01c1 04       		.byte	0x4
 844 01c2 1503     		.2byte	0x315
 845 01c4 90000000 		.4byte	0x90
 846 01c8 02       		.byte	0x2
 847 01c9 23       		.byte	0x23
 848 01ca 48       		.uleb128 0x48
 849 01cb 08       		.uleb128 0x8
ARM GAS  C:\Users\DNIEL~1\AppData\Local\Temp\ccaMx4VR.s 			page 16


 850 01cc 72020000 		.4byte	.LASF27
 851 01d0 04       		.byte	0x4
 852 01d1 1603     		.2byte	0x316
 853 01d3 65000000 		.4byte	0x65
 854 01d7 02       		.byte	0x2
 855 01d8 23       		.byte	0x23
 856 01d9 4C       		.uleb128 0x4c
 857 01da 08       		.uleb128 0x8
 858 01db AA020000 		.4byte	.LASF28
 859 01df 04       		.byte	0x4
 860 01e0 1703     		.2byte	0x317
 861 01e2 90000000 		.4byte	0x90
 862 01e6 02       		.byte	0x2
 863 01e7 23       		.byte	0x23
 864 01e8 50       		.uleb128 0x50
 865 01e9 08       		.uleb128 0x8
 866 01ea CE000000 		.4byte	.LASF29
 867 01ee 04       		.byte	0x4
 868 01ef 1803     		.2byte	0x318
 869 01f1 90000000 		.4byte	0x90
 870 01f5 02       		.byte	0x2
 871 01f6 23       		.byte	0x23
 872 01f7 54       		.uleb128 0x54
 873 01f8 08       		.uleb128 0x8
 874 01f9 17000000 		.4byte	.LASF30
 875 01fd 04       		.byte	0x4
 876 01fe 1903     		.2byte	0x319
 877 0200 90000000 		.4byte	0x90
 878 0204 02       		.byte	0x2
 879 0205 23       		.byte	0x23
 880 0206 58       		.uleb128 0x58
 881 0207 08       		.uleb128 0x8
 882 0208 C8000000 		.4byte	.LASF31
 883 020c 04       		.byte	0x4
 884 020d 1A03     		.2byte	0x31a
 885 020f 90000000 		.4byte	0x90
 886 0213 02       		.byte	0x2
 887 0214 23       		.byte	0x23
 888 0215 5C       		.uleb128 0x5c
 889 0216 08       		.uleb128 0x8
 890 0217 F7010000 		.4byte	.LASF32
 891 021b 04       		.byte	0x4
 892 021c 1B03     		.2byte	0x31b
 893 021e 90000000 		.4byte	0x90
 894 0222 02       		.byte	0x2
 895 0223 23       		.byte	0x23
 896 0224 60       		.uleb128 0x60
 897 0225 08       		.uleb128 0x8
 898 0226 D0020000 		.4byte	.LASF33
 899 022a 04       		.byte	0x4
 900 022b 1C03     		.2byte	0x31c
 901 022d 90000000 		.4byte	0x90
 902 0231 02       		.byte	0x2
 903 0232 23       		.byte	0x23
 904 0233 64       		.uleb128 0x64
 905 0234 08       		.uleb128 0x8
 906 0235 00000000 		.4byte	.LASF34
ARM GAS  C:\Users\DNIEL~1\AppData\Local\Temp\ccaMx4VR.s 			page 17


 907 0239 04       		.byte	0x4
 908 023a 1D03     		.2byte	0x31d
 909 023c 90000000 		.4byte	0x90
 910 0240 02       		.byte	0x2
 911 0241 23       		.byte	0x23
 912 0242 68       		.uleb128 0x68
 913 0243 08       		.uleb128 0x8
 914 0244 15010000 		.4byte	.LASF35
 915 0248 04       		.byte	0x4
 916 0249 1E03     		.2byte	0x31e
 917 024b 90000000 		.4byte	0x90
 918 024f 02       		.byte	0x2
 919 0250 23       		.byte	0x23
 920 0251 6C       		.uleb128 0x6c
 921 0252 08       		.uleb128 0x8
 922 0253 1A020000 		.4byte	.LASF36
 923 0257 04       		.byte	0x4
 924 0258 1F03     		.2byte	0x31f
 925 025a 90000000 		.4byte	0x90
 926 025e 02       		.byte	0x2
 927 025f 23       		.byte	0x23
 928 0260 70       		.uleb128 0x70
 929 0261 08       		.uleb128 0x8
 930 0262 33030000 		.4byte	.LASF37
 931 0266 04       		.byte	0x4
 932 0267 2003     		.2byte	0x320
 933 0269 90000000 		.4byte	0x90
 934 026d 02       		.byte	0x2
 935 026e 23       		.byte	0x23
 936 026f 74       		.uleb128 0x74
 937 0270 08       		.uleb128 0x8
 938 0271 0E010000 		.4byte	.LASF38
 939 0275 04       		.byte	0x4
 940 0276 2103     		.2byte	0x321
 941 0278 90000000 		.4byte	0x90
 942 027c 02       		.byte	0x2
 943 027d 23       		.byte	0x23
 944 027e 78       		.uleb128 0x78
 945 027f 08       		.uleb128 0x8
 946 0280 B7020000 		.4byte	.LASF39
 947 0284 04       		.byte	0x4
 948 0285 2203     		.2byte	0x322
 949 0287 90000000 		.4byte	0x90
 950 028b 02       		.byte	0x2
 951 028c 23       		.byte	0x23
 952 028d 7C       		.uleb128 0x7c
 953 028e 08       		.uleb128 0x8
 954 028f 25030000 		.4byte	.LASF40
 955 0293 04       		.byte	0x4
 956 0294 2303     		.2byte	0x323
 957 0296 90000000 		.4byte	0x90
 958 029a 03       		.byte	0x3
 959 029b 23       		.byte	0x23
 960 029c 8001     		.uleb128 0x80
 961 029e 08       		.uleb128 0x8
 962 029f 89000000 		.4byte	.LASF41
 963 02a3 04       		.byte	0x4
ARM GAS  C:\Users\DNIEL~1\AppData\Local\Temp\ccaMx4VR.s 			page 18


 964 02a4 2403     		.2byte	0x324
 965 02a6 90000000 		.4byte	0x90
 966 02aa 03       		.byte	0x3
 967 02ab 23       		.byte	0x23
 968 02ac 8401     		.uleb128 0x84
 969 02ae 08       		.uleb128 0x8
 970 02af 58010000 		.4byte	.LASF42
 971 02b3 04       		.byte	0x4
 972 02b4 2503     		.2byte	0x325
 973 02b6 90000000 		.4byte	0x90
 974 02ba 03       		.byte	0x3
 975 02bb 23       		.byte	0x23
 976 02bc 8801     		.uleb128 0x88
 977 02be 08       		.uleb128 0x8
 978 02bf 3E020000 		.4byte	.LASF43
 979 02c3 04       		.byte	0x4
 980 02c4 2603     		.2byte	0x326
 981 02c6 90000000 		.4byte	0x90
 982 02ca 03       		.byte	0x3
 983 02cb 23       		.byte	0x23
 984 02cc 8C01     		.uleb128 0x8c
 985 02ce 08       		.uleb128 0x8
 986 02cf 6F030000 		.4byte	.LASF44
 987 02d3 04       		.byte	0x4
 988 02d4 2703     		.2byte	0x327
 989 02d6 90000000 		.4byte	0x90
 990 02da 03       		.byte	0x3
 991 02db 23       		.byte	0x23
 992 02dc 9001     		.uleb128 0x90
 993 02de 08       		.uleb128 0x8
 994 02df A5000000 		.4byte	.LASF45
 995 02e3 04       		.byte	0x4
 996 02e4 2803     		.2byte	0x328
 997 02e6 90000000 		.4byte	0x90
 998 02ea 03       		.byte	0x3
 999 02eb 23       		.byte	0x23
 1000 02ec 9401     		.uleb128 0x94
 1001 02ee 08       		.uleb128 0x8
 1002 02ef 8B010000 		.4byte	.LASF46
 1003 02f3 04       		.byte	0x4
 1004 02f4 2903     		.2byte	0x329
 1005 02f6 90000000 		.4byte	0x90
 1006 02fa 03       		.byte	0x3
 1007 02fb 23       		.byte	0x23
 1008 02fc 9801     		.uleb128 0x98
 1009 02fe 08       		.uleb128 0x8
 1010 02ff 86020000 		.4byte	.LASF47
 1011 0303 04       		.byte	0x4
 1012 0304 2A03     		.2byte	0x32a
 1013 0306 90000000 		.4byte	0x90
 1014 030a 03       		.byte	0x3
 1015 030b 23       		.byte	0x23
 1016 030c 9C01     		.uleb128 0x9c
 1017 030e 00       		.byte	0
 1018 030f 09       		.uleb128 0x9
 1019 0310 45020000 		.4byte	.LASF48
 1020 0314 04       		.byte	0x4
ARM GAS  C:\Users\DNIEL~1\AppData\Local\Temp\ccaMx4VR.s 			page 19


 1021 0315 2B03     		.2byte	0x32b
 1022 0317 A8000000 		.4byte	0xa8
 1023 031b 04       		.uleb128 0x4
 1024 031c 7C020000 		.4byte	.LASF49
 1025 0320 05       		.byte	0x5
 1026 0321 45       		.byte	0x45
 1027 0322 26030000 		.4byte	0x326
 1028 0326 0A       		.uleb128 0xa
 1029 0327 7C020000 		.4byte	.LASF49
 1030 032b 04       		.byte	0x4
 1031 032c 06       		.byte	0x6
 1032 032d A8       		.byte	0xa8
 1033 032e 41030000 		.4byte	0x341
 1034 0332 0B       		.uleb128 0xb
 1035 0333 50030000 		.4byte	.LASF50
 1036 0337 06       		.byte	0x6
 1037 0338 AC       		.byte	0xac
 1038 0339 E8030000 		.4byte	0x3e8
 1039 033d 02       		.byte	0x2
 1040 033e 23       		.byte	0x23
 1041 033f 00       		.uleb128 0
 1042 0340 00       		.byte	0
 1043 0341 04       		.uleb128 0x4
 1044 0342 76030000 		.4byte	.LASF51
 1045 0346 05       		.byte	0x5
 1046 0347 4A       		.byte	0x4a
 1047 0348 4C030000 		.4byte	0x34c
 1048 034c 0A       		.uleb128 0xa
 1049 034d 76030000 		.4byte	.LASF51
 1050 0351 10       		.byte	0x10
 1051 0352 06       		.byte	0x6
 1052 0353 78       		.byte	0x78
 1053 0354 91030000 		.4byte	0x391
 1054 0358 0B       		.uleb128 0xb
 1055 0359 92010000 		.4byte	.LASF52
 1056 035d 06       		.byte	0x6
 1057 035e 7C       		.byte	0x7c
 1058 035f 65000000 		.4byte	0x65
 1059 0363 02       		.byte	0x2
 1060 0364 23       		.byte	0x23
 1061 0365 00       		.uleb128 0
 1062 0366 0B       		.uleb128 0xb
 1063 0367 D6020000 		.4byte	.LASF53
 1064 036b 06       		.byte	0x6
 1065 036c 80       		.byte	0x80
 1066 036d 65000000 		.4byte	0x65
 1067 0371 02       		.byte	0x2
 1068 0372 23       		.byte	0x23
 1069 0373 04       		.uleb128 0x4
 1070 0374 0C       		.uleb128 0xc
 1071 0375 68313200 		.ascii	"h12\000"
 1072 0379 06       		.byte	0x6
 1073 037a 84       		.byte	0x84
 1074 037b 85000000 		.4byte	0x85
 1075 037f 02       		.byte	0x2
 1076 0380 23       		.byte	0x23
 1077 0381 08       		.uleb128 0x8
ARM GAS  C:\Users\DNIEL~1\AppData\Local\Temp\ccaMx4VR.s 			page 20


 1078 0382 0B       		.uleb128 0xb
 1079 0383 58020000 		.4byte	.LASF54
 1080 0387 06       		.byte	0x6
 1081 0388 89       		.byte	0x89
 1082 0389 65000000 		.4byte	0x65
 1083 038d 02       		.byte	0x2
 1084 038e 23       		.byte	0x23
 1085 038f 0C       		.uleb128 0xc
 1086 0390 00       		.byte	0
 1087 0391 04       		.uleb128 0x4
 1088 0392 1B010000 		.4byte	.LASF55
 1089 0396 06       		.byte	0x6
 1090 0397 63       		.byte	0x63
 1091 0398 9C030000 		.4byte	0x39c
 1092 039c 0A       		.uleb128 0xa
 1093 039d 1B010000 		.4byte	.LASF55
 1094 03a1 04       		.byte	0x4
 1095 03a2 06       		.byte	0x6
 1096 03a3 90       		.byte	0x90
 1097 03a4 B7030000 		.4byte	0x3b7
 1098 03a8 0B       		.uleb128 0xb
 1099 03a9 90000000 		.4byte	.LASF56
 1100 03ad 06       		.byte	0x6
 1101 03ae 94       		.byte	0x94
 1102 03af 65000000 		.4byte	0x65
 1103 03b3 02       		.byte	0x2
 1104 03b4 23       		.byte	0x23
 1105 03b5 00       		.uleb128 0
 1106 03b6 00       		.byte	0
 1107 03b7 04       		.uleb128 0x4
 1108 03b8 39030000 		.4byte	.LASF57
 1109 03bc 06       		.byte	0x6
 1110 03bd 68       		.byte	0x68
 1111 03be C2030000 		.4byte	0x3c2
 1112 03c2 0A       		.uleb128 0xa
 1113 03c3 39030000 		.4byte	.LASF57
 1114 03c7 04       		.byte	0x4
 1115 03c8 06       		.byte	0x6
 1116 03c9 9A       		.byte	0x9a
 1117 03ca DD030000 		.4byte	0x3dd
 1118 03ce 0B       		.uleb128 0xb
 1119 03cf 51020000 		.4byte	.LASF58
 1120 03d3 06       		.byte	0x6
 1121 03d4 A2       		.byte	0xa2
 1122 03d5 65000000 		.4byte	0x65
 1123 03d9 02       		.byte	0x2
 1124 03da 23       		.byte	0x23
 1125 03db 00       		.uleb128 0
 1126 03dc 00       		.byte	0
 1127 03dd 04       		.uleb128 0x4
 1128 03de FA000000 		.4byte	.LASF59
 1129 03e2 06       		.byte	0x6
 1130 03e3 73       		.byte	0x73
 1131 03e4 65000000 		.4byte	0x65
 1132 03e8 0D       		.uleb128 0xd
 1133 03e9 04       		.byte	0x4
 1134 03ea 0F030000 		.4byte	0x30f
ARM GAS  C:\Users\DNIEL~1\AppData\Local\Temp\ccaMx4VR.s 			page 21


 1135 03ee 0E       		.uleb128 0xe
 1136 03ef 01       		.byte	0x1
 1137 03f0 65010000 		.4byte	.LASF60
 1138 03f4 01       		.byte	0x1
 1139 03f5 5D       		.byte	0x5d
 1140 03f6 01       		.byte	0x1
 1141 03f7 00000000 		.4byte	.LFB118
 1142 03fb 4C000000 		.4byte	.LFE118
 1143 03ff 02       		.byte	0x2
 1144 0400 7D       		.byte	0x7d
 1145 0401 00       		.sleb128 0
 1146 0402 01       		.byte	0x1
 1147 0403 17040000 		.4byte	0x417
 1148 0407 0F       		.uleb128 0xf
 1149 0408 9C000000 		.4byte	.LASF72
 1150 040c 01       		.byte	0x1
 1151 040d 61       		.byte	0x61
 1152 040e 65000000 		.4byte	0x65
 1153 0412 00000000 		.4byte	.LLST0
 1154 0416 00       		.byte	0
 1155 0417 0E       		.uleb128 0xe
 1156 0418 01       		.byte	0x1
 1157 0419 06000000 		.4byte	.LASF61
 1158 041d 01       		.byte	0x1
 1159 041e 7E       		.byte	0x7e
 1160 041f 01       		.byte	0x1
 1161 0420 00000000 		.4byte	.LFB119
 1162 0424 40000000 		.4byte	.LFE119
 1163 0428 02       		.byte	0x2
 1164 0429 7D       		.byte	0x7d
 1165 042a 00       		.sleb128 0
 1166 042b 01       		.byte	0x1
 1167 042c 4F040000 		.4byte	0x44f
 1168 0430 10       		.uleb128 0x10
 1169 0431 F2010000 		.4byte	.LASF62
 1170 0435 01       		.byte	0x1
 1171 0436 7E       		.byte	0x7e
 1172 0437 4F040000 		.4byte	0x44f
 1173 043b 25000000 		.4byte	.LLST1
 1174 043f 10       		.uleb128 0x10
 1175 0440 16030000 		.4byte	.LASF63
 1176 0444 01       		.byte	0x1
 1177 0445 7E       		.byte	0x7e
 1178 0446 55040000 		.4byte	0x455
 1179 044a 46000000 		.4byte	.LLST2
 1180 044e 00       		.byte	0
 1181 044f 0D       		.uleb128 0xd
 1182 0450 04       		.byte	0x4
 1183 0451 1B030000 		.4byte	0x31b
 1184 0455 0D       		.uleb128 0xd
 1185 0456 04       		.byte	0x4
 1186 0457 5B040000 		.4byte	0x45b
 1187 045b 11       		.uleb128 0x11
 1188 045c 41030000 		.4byte	0x341
 1189 0460 12       		.uleb128 0x12
 1190 0461 01       		.byte	0x1
 1191 0462 E2000000 		.4byte	.LASF64
ARM GAS  C:\Users\DNIEL~1\AppData\Local\Temp\ccaMx4VR.s 			page 22


 1192 0466 01       		.byte	0x1
 1193 0467 93       		.byte	0x93
 1194 0468 01       		.byte	0x1
 1195 0469 00000000 		.4byte	.LFB120
 1196 046d 3C000000 		.4byte	.LFE120
 1197 0471 72000000 		.4byte	.LLST3
 1198 0475 01       		.byte	0x1
 1199 0476 97040000 		.4byte	0x497
 1200 047a 10       		.uleb128 0x10
 1201 047b F2010000 		.4byte	.LASF62
 1202 047f 01       		.byte	0x1
 1203 0480 93       		.byte	0x93
 1204 0481 4F040000 		.4byte	0x44f
 1205 0485 92000000 		.4byte	.LLST4
 1206 0489 13       		.uleb128 0x13
 1207 048a 16030000 		.4byte	.LASF63
 1208 048e 01       		.byte	0x1
 1209 048f 93       		.byte	0x93
 1210 0490 97040000 		.4byte	0x497
 1211 0494 01       		.byte	0x1
 1212 0495 51       		.byte	0x51
 1213 0496 00       		.byte	0
 1214 0497 0D       		.uleb128 0xd
 1215 0498 04       		.byte	0x4
 1216 0499 41030000 		.4byte	0x341
 1217 049d 0E       		.uleb128 0xe
 1218 049e 01       		.byte	0x1
 1219 049f B1000000 		.4byte	.LASF65
 1220 04a3 01       		.byte	0x1
 1221 04a4 AD       		.byte	0xad
 1222 04a5 01       		.byte	0x1
 1223 04a6 00000000 		.4byte	.LFB121
 1224 04aa 7E000000 		.4byte	.LFE121
 1225 04ae 02       		.byte	0x2
 1226 04af 7D       		.byte	0x7d
 1227 04b0 00       		.sleb128 0
 1228 04b1 01       		.byte	0x1
 1229 04b2 E4040000 		.4byte	0x4e4
 1230 04b6 10       		.uleb128 0x10
 1231 04b7 F2010000 		.4byte	.LASF62
 1232 04bb 01       		.byte	0x1
 1233 04bc AD       		.byte	0xad
 1234 04bd 4F040000 		.4byte	0x44f
 1235 04c1 B3000000 		.4byte	.LLST5
 1236 04c5 10       		.uleb128 0x10
 1237 04c6 38020000 		.4byte	.LASF66
 1238 04ca 01       		.byte	0x1
 1239 04cb AE       		.byte	0xae
 1240 04cc DD030000 		.4byte	0x3dd
 1241 04d0 1F010000 		.4byte	.LLST6
 1242 04d4 10       		.uleb128 0x10
 1243 04d5 7E030000 		.4byte	.LASF67
 1244 04d9 01       		.byte	0x1
 1245 04da AF       		.byte	0xaf
 1246 04db E4040000 		.4byte	0x4e4
 1247 04df 8B010000 		.4byte	.LLST7
 1248 04e3 00       		.byte	0
ARM GAS  C:\Users\DNIEL~1\AppData\Local\Temp\ccaMx4VR.s 			page 23


 1249 04e4 0D       		.uleb128 0xd
 1250 04e5 04       		.byte	0x4
 1251 04e6 EA040000 		.4byte	0x4ea
 1252 04ea 11       		.uleb128 0x11
 1253 04eb 91030000 		.4byte	0x391
 1254 04ef 0E       		.uleb128 0xe
 1255 04f0 01       		.byte	0x1
 1256 04f1 BE020000 		.4byte	.LASF68
 1257 04f5 01       		.byte	0x1
 1258 04f6 D7       		.byte	0xd7
 1259 04f7 01       		.byte	0x1
 1260 04f8 00000000 		.4byte	.LFB122
 1261 04fc 0E000000 		.4byte	.LFE122
 1262 0500 02       		.byte	0x2
 1263 0501 7D       		.byte	0x7d
 1264 0502 00       		.sleb128 0
 1265 0503 01       		.byte	0x1
 1266 0504 30050000 		.4byte	0x530
 1267 0508 13       		.uleb128 0x13
 1268 0509 F2010000 		.4byte	.LASF62
 1269 050d 01       		.byte	0x1
 1270 050e D7       		.byte	0xd7
 1271 050f 4F040000 		.4byte	0x44f
 1272 0513 01       		.byte	0x1
 1273 0514 50       		.byte	0x50
 1274 0515 13       		.uleb128 0x13
 1275 0516 38020000 		.4byte	.LASF66
 1276 051a 01       		.byte	0x1
 1277 051b D8       		.byte	0xd8
 1278 051c DD030000 		.4byte	0x3dd
 1279 0520 01       		.byte	0x1
 1280 0521 51       		.byte	0x51
 1281 0522 13       		.uleb128 0x13
 1282 0523 7E030000 		.4byte	.LASF67
 1283 0527 01       		.byte	0x1
 1284 0528 D9       		.byte	0xd9
 1285 0529 30050000 		.4byte	0x530
 1286 052d 01       		.byte	0x1
 1287 052e 52       		.byte	0x52
 1288 052f 00       		.byte	0
 1289 0530 0D       		.uleb128 0xd
 1290 0531 04       		.byte	0x4
 1291 0532 91030000 		.4byte	0x391
 1292 0536 0E       		.uleb128 0xe
 1293 0537 01       		.byte	0x1
 1294 0538 DA010000 		.4byte	.LASF69
 1295 053c 01       		.byte	0x1
 1296 053d EA       		.byte	0xea
 1297 053e 01       		.byte	0x1
 1298 053f 00000000 		.4byte	.LFB123
 1299 0543 44000000 		.4byte	.LFE123
 1300 0547 02       		.byte	0x2
 1301 0548 7D       		.byte	0x7d
 1302 0549 00       		.sleb128 0
 1303 054a 01       		.byte	0x1
 1304 054b 6E050000 		.4byte	0x56e
 1305 054f 10       		.uleb128 0x10
ARM GAS  C:\Users\DNIEL~1\AppData\Local\Temp\ccaMx4VR.s 			page 24


 1306 0550 F2010000 		.4byte	.LASF62
 1307 0554 01       		.byte	0x1
 1308 0555 EA       		.byte	0xea
 1309 0556 4F040000 		.4byte	0x44f
 1310 055a F7010000 		.4byte	.LLST8
 1311 055e 10       		.uleb128 0x10
 1312 055f 72010000 		.4byte	.LASF70
 1313 0563 01       		.byte	0x1
 1314 0564 EA       		.byte	0xea
 1315 0565 6E050000 		.4byte	0x56e
 1316 0569 31020000 		.4byte	.LLST9
 1317 056d 00       		.byte	0
 1318 056e 0D       		.uleb128 0xd
 1319 056f 04       		.byte	0x4
 1320 0570 B7030000 		.4byte	0x3b7
 1321 0574 14       		.uleb128 0x14
 1322 0575 01       		.byte	0x1
 1323 0576 57030000 		.4byte	.LASF71
 1324 057a 01       		.byte	0x1
 1325 057b 0701     		.2byte	0x107
 1326 057d 01       		.byte	0x1
 1327 057e 00000000 		.4byte	.LFB124
 1328 0582 12000000 		.4byte	.LFE124
 1329 0586 02       		.byte	0x2
 1330 0587 7D       		.byte	0x7d
 1331 0588 00       		.sleb128 0
 1332 0589 01       		.byte	0x1
 1333 058a AD050000 		.4byte	0x5ad
 1334 058e 15       		.uleb128 0x15
 1335 058f F2010000 		.4byte	.LASF62
 1336 0593 01       		.byte	0x1
 1337 0594 0701     		.2byte	0x107
 1338 0596 4F040000 		.4byte	0x44f
 1339 059a 6B020000 		.4byte	.LLST10
 1340 059e 16       		.uleb128 0x16
 1341 059f 72010000 		.4byte	.LASF70
 1342 05a3 01       		.byte	0x1
 1343 05a4 0701     		.2byte	0x107
 1344 05a6 6E050000 		.4byte	0x56e
 1345 05aa 01       		.byte	0x1
 1346 05ab 51       		.byte	0x51
 1347 05ac 00       		.byte	0
 1348 05ad 17       		.uleb128 0x17
 1349 05ae 01       		.byte	0x1
 1350 05af 95020000 		.4byte	.LASF79
 1351 05b3 01       		.byte	0x1
 1352 05b4 1501     		.2byte	0x115
 1353 05b6 01       		.byte	0x1
 1354 05b7 65000000 		.4byte	0x65
 1355 05bb 00000000 		.4byte	.LFB125
 1356 05bf AA000000 		.4byte	.LFE125
 1357 05c3 8C020000 		.4byte	.LLST11
 1358 05c7 01       		.byte	0x1
 1359 05c8 77060000 		.4byte	0x677
 1360 05cc 15       		.uleb128 0x15
 1361 05cd F2010000 		.4byte	.LASF62
 1362 05d1 01       		.byte	0x1
ARM GAS  C:\Users\DNIEL~1\AppData\Local\Temp\ccaMx4VR.s 			page 25


 1363 05d2 1501     		.2byte	0x115
 1364 05d4 4F040000 		.4byte	0x44f
 1365 05d8 B8020000 		.4byte	.LLST12
 1366 05dc 18       		.uleb128 0x18
 1367 05dd 8D020000 		.4byte	.LASF73
 1368 05e1 01       		.byte	0x1
 1369 05e2 1601     		.2byte	0x116
 1370 05e4 65000000 		.4byte	0x65
 1371 05e8 D9020000 		.4byte	.LLST13
 1372 05ec 19       		.uleb128 0x19
 1373 05ed 16030000 		.4byte	.LASF63
 1374 05f1 01       		.byte	0x1
 1375 05f2 1701     		.2byte	0x117
 1376 05f4 41030000 		.4byte	0x341
 1377 05f8 02       		.byte	0x2
 1378 05f9 91       		.byte	0x91
 1379 05fa 48       		.sleb128 -56
 1380 05fb 19       		.uleb128 0x19
 1381 05fc D6020000 		.4byte	.LASF53
 1382 0600 01       		.byte	0x1
 1383 0601 1801     		.2byte	0x118
 1384 0603 65000000 		.4byte	0x65
 1385 0607 01       		.byte	0x1
 1386 0608 53       		.byte	0x53
 1387 0609 18       		.uleb128 0x18
 1388 060a 92010000 		.4byte	.LASF52
 1389 060e 01       		.byte	0x1
 1390 060f 1901     		.2byte	0x119
 1391 0611 65000000 		.4byte	0x65
 1392 0615 A8030000 		.4byte	.LLST14
 1393 0619 1A       		.uleb128 0x1a
 1394 061a 7600     		.ascii	"v\000"
 1395 061c 01       		.byte	0x1
 1396 061d 1A01     		.2byte	0x11a
 1397 061f 65000000 		.4byte	0x65
 1398 0623 C7030000 		.4byte	.LLST15
 1399 0627 1B       		.uleb128 0x1b
 1400 0628 00000000 		.4byte	.Ldebug_ranges0+0
 1401 062c 41060000 		.4byte	0x641
 1402 0630 1A       		.uleb128 0x1a
 1403 0631 746D7000 		.ascii	"tmp\000"
 1404 0635 01       		.byte	0x1
 1405 0636 1C01     		.2byte	0x11c
 1406 0638 65000000 		.4byte	0x65
 1407 063c 32040000 		.4byte	.LLST16
 1408 0640 00       		.byte	0
 1409 0641 1C       		.uleb128 0x1c
 1410 0642 12000000 		.4byte	.LBB4
 1411 0646 18000000 		.4byte	.LBE4
 1412 064a 5F060000 		.4byte	0x65f
 1413 064e 1A       		.uleb128 0x1a
 1414 064f 746D7000 		.ascii	"tmp\000"
 1415 0653 01       		.byte	0x1
 1416 0654 1E01     		.2byte	0x11e
 1417 0656 65000000 		.4byte	0x65
 1418 065a 45040000 		.4byte	.LLST17
 1419 065e 00       		.byte	0
ARM GAS  C:\Users\DNIEL~1\AppData\Local\Temp\ccaMx4VR.s 			page 26


 1420 065f 1D       		.uleb128 0x1d
 1421 0660 12000000 		.4byte	.LVL37
 1422 0664 60040000 		.4byte	0x460
 1423 0668 1E       		.uleb128 0x1e
 1424 0669 01       		.byte	0x1
 1425 066a 51       		.byte	0x51
 1426 066b 02       		.byte	0x2
 1427 066c 7D       		.byte	0x7d
 1428 066d 00       		.sleb128 0
 1429 066e 1E       		.uleb128 0x1e
 1430 066f 01       		.byte	0x1
 1431 0670 50       		.byte	0x50
 1432 0671 03       		.byte	0x3
 1433 0672 F3       		.byte	0xf3
 1434 0673 01       		.uleb128 0x1
 1435 0674 50       		.byte	0x50
 1436 0675 00       		.byte	0
 1437 0676 00       		.byte	0
 1438 0677 1F       		.uleb128 0x1f
 1439 0678 43030000 		.4byte	.LASF74
 1440 067c 07       		.byte	0x7
 1441 067d 9806     		.2byte	0x698
 1442 067f A3000000 		.4byte	0xa3
 1443 0683 01       		.byte	0x1
 1444 0684 01       		.byte	0x1
 1445 0685 20       		.uleb128 0x20
 1446 0686 83000000 		.4byte	.LASF75
 1447 068a 01       		.byte	0x1
 1448 068b 2D       		.byte	0x2d
 1449 068c 1B030000 		.4byte	0x31b
 1450 0690 01       		.byte	0x1
 1451 0691 05       		.byte	0x5
 1452 0692 03       		.byte	0x3
 1453 0693 00000000 		.4byte	RTCD1
 1454 0697 00       		.byte	0
 1455              		.section	.debug_abbrev,"",%progbits
 1456              	.Ldebug_abbrev0:
 1457 0000 01       		.uleb128 0x1
 1458 0001 11       		.uleb128 0x11
 1459 0002 01       		.byte	0x1
 1460 0003 25       		.uleb128 0x25
 1461 0004 0E       		.uleb128 0xe
 1462 0005 13       		.uleb128 0x13
 1463 0006 0B       		.uleb128 0xb
 1464 0007 03       		.uleb128 0x3
 1465 0008 0E       		.uleb128 0xe
 1466 0009 1B       		.uleb128 0x1b
 1467 000a 0E       		.uleb128 0xe
 1468 000b 55       		.uleb128 0x55
 1469 000c 06       		.uleb128 0x6
 1470 000d 11       		.uleb128 0x11
 1471 000e 01       		.uleb128 0x1
 1472 000f 52       		.uleb128 0x52
 1473 0010 01       		.uleb128 0x1
 1474 0011 10       		.uleb128 0x10
 1475 0012 06       		.uleb128 0x6
 1476 0013 00       		.byte	0
ARM GAS  C:\Users\DNIEL~1\AppData\Local\Temp\ccaMx4VR.s 			page 27


 1477 0014 00       		.byte	0
 1478 0015 02       		.uleb128 0x2
 1479 0016 24       		.uleb128 0x24
 1480 0017 00       		.byte	0
 1481 0018 0B       		.uleb128 0xb
 1482 0019 0B       		.uleb128 0xb
 1483 001a 3E       		.uleb128 0x3e
 1484 001b 0B       		.uleb128 0xb
 1485 001c 03       		.uleb128 0x3
 1486 001d 08       		.uleb128 0x8
 1487 001e 00       		.byte	0
 1488 001f 00       		.byte	0
 1489 0020 03       		.uleb128 0x3
 1490 0021 24       		.uleb128 0x24
 1491 0022 00       		.byte	0
 1492 0023 0B       		.uleb128 0xb
 1493 0024 0B       		.uleb128 0xb
 1494 0025 3E       		.uleb128 0x3e
 1495 0026 0B       		.uleb128 0xb
 1496 0027 03       		.uleb128 0x3
 1497 0028 0E       		.uleb128 0xe
 1498 0029 00       		.byte	0
 1499 002a 00       		.byte	0
 1500 002b 04       		.uleb128 0x4
 1501 002c 16       		.uleb128 0x16
 1502 002d 00       		.byte	0
 1503 002e 03       		.uleb128 0x3
 1504 002f 0E       		.uleb128 0xe
 1505 0030 3A       		.uleb128 0x3a
 1506 0031 0B       		.uleb128 0xb
 1507 0032 3B       		.uleb128 0x3b
 1508 0033 0B       		.uleb128 0xb
 1509 0034 49       		.uleb128 0x49
 1510 0035 13       		.uleb128 0x13
 1511 0036 00       		.byte	0
 1512 0037 00       		.byte	0
 1513 0038 05       		.uleb128 0x5
 1514 0039 35       		.uleb128 0x35
 1515 003a 00       		.byte	0
 1516 003b 49       		.uleb128 0x49
 1517 003c 13       		.uleb128 0x13
 1518 003d 00       		.byte	0
 1519 003e 00       		.byte	0
 1520 003f 06       		.uleb128 0x6
 1521 0040 13       		.uleb128 0x13
 1522 0041 01       		.byte	0x1
 1523 0042 0B       		.uleb128 0xb
 1524 0043 0B       		.uleb128 0xb
 1525 0044 3A       		.uleb128 0x3a
 1526 0045 0B       		.uleb128 0xb
 1527 0046 3B       		.uleb128 0x3b
 1528 0047 05       		.uleb128 0x5
 1529 0048 01       		.uleb128 0x1
 1530 0049 13       		.uleb128 0x13
 1531 004a 00       		.byte	0
 1532 004b 00       		.byte	0
 1533 004c 07       		.uleb128 0x7
ARM GAS  C:\Users\DNIEL~1\AppData\Local\Temp\ccaMx4VR.s 			page 28


 1534 004d 0D       		.uleb128 0xd
 1535 004e 00       		.byte	0
 1536 004f 03       		.uleb128 0x3
 1537 0050 08       		.uleb128 0x8
 1538 0051 3A       		.uleb128 0x3a
 1539 0052 0B       		.uleb128 0xb
 1540 0053 3B       		.uleb128 0x3b
 1541 0054 05       		.uleb128 0x5
 1542 0055 49       		.uleb128 0x49
 1543 0056 13       		.uleb128 0x13
 1544 0057 38       		.uleb128 0x38
 1545 0058 0A       		.uleb128 0xa
 1546 0059 00       		.byte	0
 1547 005a 00       		.byte	0
 1548 005b 08       		.uleb128 0x8
 1549 005c 0D       		.uleb128 0xd
 1550 005d 00       		.byte	0
 1551 005e 03       		.uleb128 0x3
 1552 005f 0E       		.uleb128 0xe
 1553 0060 3A       		.uleb128 0x3a
 1554 0061 0B       		.uleb128 0xb
 1555 0062 3B       		.uleb128 0x3b
 1556 0063 05       		.uleb128 0x5
 1557 0064 49       		.uleb128 0x49
 1558 0065 13       		.uleb128 0x13
 1559 0066 38       		.uleb128 0x38
 1560 0067 0A       		.uleb128 0xa
 1561 0068 00       		.byte	0
 1562 0069 00       		.byte	0
 1563 006a 09       		.uleb128 0x9
 1564 006b 16       		.uleb128 0x16
 1565 006c 00       		.byte	0
 1566 006d 03       		.uleb128 0x3
 1567 006e 0E       		.uleb128 0xe
 1568 006f 3A       		.uleb128 0x3a
 1569 0070 0B       		.uleb128 0xb
 1570 0071 3B       		.uleb128 0x3b
 1571 0072 05       		.uleb128 0x5
 1572 0073 49       		.uleb128 0x49
 1573 0074 13       		.uleb128 0x13
 1574 0075 00       		.byte	0
 1575 0076 00       		.byte	0
 1576 0077 0A       		.uleb128 0xa
 1577 0078 13       		.uleb128 0x13
 1578 0079 01       		.byte	0x1
 1579 007a 03       		.uleb128 0x3
 1580 007b 0E       		.uleb128 0xe
 1581 007c 0B       		.uleb128 0xb
 1582 007d 0B       		.uleb128 0xb
 1583 007e 3A       		.uleb128 0x3a
 1584 007f 0B       		.uleb128 0xb
 1585 0080 3B       		.uleb128 0x3b
 1586 0081 0B       		.uleb128 0xb
 1587 0082 01       		.uleb128 0x1
 1588 0083 13       		.uleb128 0x13
 1589 0084 00       		.byte	0
 1590 0085 00       		.byte	0
ARM GAS  C:\Users\DNIEL~1\AppData\Local\Temp\ccaMx4VR.s 			page 29


 1591 0086 0B       		.uleb128 0xb
 1592 0087 0D       		.uleb128 0xd
 1593 0088 00       		.byte	0
 1594 0089 03       		.uleb128 0x3
 1595 008a 0E       		.uleb128 0xe
 1596 008b 3A       		.uleb128 0x3a
 1597 008c 0B       		.uleb128 0xb
 1598 008d 3B       		.uleb128 0x3b
 1599 008e 0B       		.uleb128 0xb
 1600 008f 49       		.uleb128 0x49
 1601 0090 13       		.uleb128 0x13
 1602 0091 38       		.uleb128 0x38
 1603 0092 0A       		.uleb128 0xa
 1604 0093 00       		.byte	0
 1605 0094 00       		.byte	0
 1606 0095 0C       		.uleb128 0xc
 1607 0096 0D       		.uleb128 0xd
 1608 0097 00       		.byte	0
 1609 0098 03       		.uleb128 0x3
 1610 0099 08       		.uleb128 0x8
 1611 009a 3A       		.uleb128 0x3a
 1612 009b 0B       		.uleb128 0xb
 1613 009c 3B       		.uleb128 0x3b
 1614 009d 0B       		.uleb128 0xb
 1615 009e 49       		.uleb128 0x49
 1616 009f 13       		.uleb128 0x13
 1617 00a0 38       		.uleb128 0x38
 1618 00a1 0A       		.uleb128 0xa
 1619 00a2 00       		.byte	0
 1620 00a3 00       		.byte	0
 1621 00a4 0D       		.uleb128 0xd
 1622 00a5 0F       		.uleb128 0xf
 1623 00a6 00       		.byte	0
 1624 00a7 0B       		.uleb128 0xb
 1625 00a8 0B       		.uleb128 0xb
 1626 00a9 49       		.uleb128 0x49
 1627 00aa 13       		.uleb128 0x13
 1628 00ab 00       		.byte	0
 1629 00ac 00       		.byte	0
 1630 00ad 0E       		.uleb128 0xe
 1631 00ae 2E       		.uleb128 0x2e
 1632 00af 01       		.byte	0x1
 1633 00b0 3F       		.uleb128 0x3f
 1634 00b1 0C       		.uleb128 0xc
 1635 00b2 03       		.uleb128 0x3
 1636 00b3 0E       		.uleb128 0xe
 1637 00b4 3A       		.uleb128 0x3a
 1638 00b5 0B       		.uleb128 0xb
 1639 00b6 3B       		.uleb128 0x3b
 1640 00b7 0B       		.uleb128 0xb
 1641 00b8 27       		.uleb128 0x27
 1642 00b9 0C       		.uleb128 0xc
 1643 00ba 11       		.uleb128 0x11
 1644 00bb 01       		.uleb128 0x1
 1645 00bc 12       		.uleb128 0x12
 1646 00bd 01       		.uleb128 0x1
 1647 00be 40       		.uleb128 0x40
ARM GAS  C:\Users\DNIEL~1\AppData\Local\Temp\ccaMx4VR.s 			page 30


 1648 00bf 0A       		.uleb128 0xa
 1649 00c0 9742     		.uleb128 0x2117
 1650 00c2 0C       		.uleb128 0xc
 1651 00c3 01       		.uleb128 0x1
 1652 00c4 13       		.uleb128 0x13
 1653 00c5 00       		.byte	0
 1654 00c6 00       		.byte	0
 1655 00c7 0F       		.uleb128 0xf
 1656 00c8 34       		.uleb128 0x34
 1657 00c9 00       		.byte	0
 1658 00ca 03       		.uleb128 0x3
 1659 00cb 0E       		.uleb128 0xe
 1660 00cc 3A       		.uleb128 0x3a
 1661 00cd 0B       		.uleb128 0xb
 1662 00ce 3B       		.uleb128 0x3b
 1663 00cf 0B       		.uleb128 0xb
 1664 00d0 49       		.uleb128 0x49
 1665 00d1 13       		.uleb128 0x13
 1666 00d2 02       		.uleb128 0x2
 1667 00d3 06       		.uleb128 0x6
 1668 00d4 00       		.byte	0
 1669 00d5 00       		.byte	0
 1670 00d6 10       		.uleb128 0x10
 1671 00d7 05       		.uleb128 0x5
 1672 00d8 00       		.byte	0
 1673 00d9 03       		.uleb128 0x3
 1674 00da 0E       		.uleb128 0xe
 1675 00db 3A       		.uleb128 0x3a
 1676 00dc 0B       		.uleb128 0xb
 1677 00dd 3B       		.uleb128 0x3b
 1678 00de 0B       		.uleb128 0xb
 1679 00df 49       		.uleb128 0x49
 1680 00e0 13       		.uleb128 0x13
 1681 00e1 02       		.uleb128 0x2
 1682 00e2 06       		.uleb128 0x6
 1683 00e3 00       		.byte	0
 1684 00e4 00       		.byte	0
 1685 00e5 11       		.uleb128 0x11
 1686 00e6 26       		.uleb128 0x26
 1687 00e7 00       		.byte	0
 1688 00e8 49       		.uleb128 0x49
 1689 00e9 13       		.uleb128 0x13
 1690 00ea 00       		.byte	0
 1691 00eb 00       		.byte	0
 1692 00ec 12       		.uleb128 0x12
 1693 00ed 2E       		.uleb128 0x2e
 1694 00ee 01       		.byte	0x1
 1695 00ef 3F       		.uleb128 0x3f
 1696 00f0 0C       		.uleb128 0xc
 1697 00f1 03       		.uleb128 0x3
 1698 00f2 0E       		.uleb128 0xe
 1699 00f3 3A       		.uleb128 0x3a
 1700 00f4 0B       		.uleb128 0xb
 1701 00f5 3B       		.uleb128 0x3b
 1702 00f6 0B       		.uleb128 0xb
 1703 00f7 27       		.uleb128 0x27
 1704 00f8 0C       		.uleb128 0xc
ARM GAS  C:\Users\DNIEL~1\AppData\Local\Temp\ccaMx4VR.s 			page 31


 1705 00f9 11       		.uleb128 0x11
 1706 00fa 01       		.uleb128 0x1
 1707 00fb 12       		.uleb128 0x12
 1708 00fc 01       		.uleb128 0x1
 1709 00fd 40       		.uleb128 0x40
 1710 00fe 06       		.uleb128 0x6
 1711 00ff 9742     		.uleb128 0x2117
 1712 0101 0C       		.uleb128 0xc
 1713 0102 01       		.uleb128 0x1
 1714 0103 13       		.uleb128 0x13
 1715 0104 00       		.byte	0
 1716 0105 00       		.byte	0
 1717 0106 13       		.uleb128 0x13
 1718 0107 05       		.uleb128 0x5
 1719 0108 00       		.byte	0
 1720 0109 03       		.uleb128 0x3
 1721 010a 0E       		.uleb128 0xe
 1722 010b 3A       		.uleb128 0x3a
 1723 010c 0B       		.uleb128 0xb
 1724 010d 3B       		.uleb128 0x3b
 1725 010e 0B       		.uleb128 0xb
 1726 010f 49       		.uleb128 0x49
 1727 0110 13       		.uleb128 0x13
 1728 0111 02       		.uleb128 0x2
 1729 0112 0A       		.uleb128 0xa
 1730 0113 00       		.byte	0
 1731 0114 00       		.byte	0
 1732 0115 14       		.uleb128 0x14
 1733 0116 2E       		.uleb128 0x2e
 1734 0117 01       		.byte	0x1
 1735 0118 3F       		.uleb128 0x3f
 1736 0119 0C       		.uleb128 0xc
 1737 011a 03       		.uleb128 0x3
 1738 011b 0E       		.uleb128 0xe
 1739 011c 3A       		.uleb128 0x3a
 1740 011d 0B       		.uleb128 0xb
 1741 011e 3B       		.uleb128 0x3b
 1742 011f 05       		.uleb128 0x5
 1743 0120 27       		.uleb128 0x27
 1744 0121 0C       		.uleb128 0xc
 1745 0122 11       		.uleb128 0x11
 1746 0123 01       		.uleb128 0x1
 1747 0124 12       		.uleb128 0x12
 1748 0125 01       		.uleb128 0x1
 1749 0126 40       		.uleb128 0x40
 1750 0127 0A       		.uleb128 0xa
 1751 0128 9742     		.uleb128 0x2117
 1752 012a 0C       		.uleb128 0xc
 1753 012b 01       		.uleb128 0x1
 1754 012c 13       		.uleb128 0x13
 1755 012d 00       		.byte	0
 1756 012e 00       		.byte	0
 1757 012f 15       		.uleb128 0x15
 1758 0130 05       		.uleb128 0x5
 1759 0131 00       		.byte	0
 1760 0132 03       		.uleb128 0x3
 1761 0133 0E       		.uleb128 0xe
ARM GAS  C:\Users\DNIEL~1\AppData\Local\Temp\ccaMx4VR.s 			page 32


 1762 0134 3A       		.uleb128 0x3a
 1763 0135 0B       		.uleb128 0xb
 1764 0136 3B       		.uleb128 0x3b
 1765 0137 05       		.uleb128 0x5
 1766 0138 49       		.uleb128 0x49
 1767 0139 13       		.uleb128 0x13
 1768 013a 02       		.uleb128 0x2
 1769 013b 06       		.uleb128 0x6
 1770 013c 00       		.byte	0
 1771 013d 00       		.byte	0
 1772 013e 16       		.uleb128 0x16
 1773 013f 05       		.uleb128 0x5
 1774 0140 00       		.byte	0
 1775 0141 03       		.uleb128 0x3
 1776 0142 0E       		.uleb128 0xe
 1777 0143 3A       		.uleb128 0x3a
 1778 0144 0B       		.uleb128 0xb
 1779 0145 3B       		.uleb128 0x3b
 1780 0146 05       		.uleb128 0x5
 1781 0147 49       		.uleb128 0x49
 1782 0148 13       		.uleb128 0x13
 1783 0149 02       		.uleb128 0x2
 1784 014a 0A       		.uleb128 0xa
 1785 014b 00       		.byte	0
 1786 014c 00       		.byte	0
 1787 014d 17       		.uleb128 0x17
 1788 014e 2E       		.uleb128 0x2e
 1789 014f 01       		.byte	0x1
 1790 0150 3F       		.uleb128 0x3f
 1791 0151 0C       		.uleb128 0xc
 1792 0152 03       		.uleb128 0x3
 1793 0153 0E       		.uleb128 0xe
 1794 0154 3A       		.uleb128 0x3a
 1795 0155 0B       		.uleb128 0xb
 1796 0156 3B       		.uleb128 0x3b
 1797 0157 05       		.uleb128 0x5
 1798 0158 27       		.uleb128 0x27
 1799 0159 0C       		.uleb128 0xc
 1800 015a 49       		.uleb128 0x49
 1801 015b 13       		.uleb128 0x13
 1802 015c 11       		.uleb128 0x11
 1803 015d 01       		.uleb128 0x1
 1804 015e 12       		.uleb128 0x12
 1805 015f 01       		.uleb128 0x1
 1806 0160 40       		.uleb128 0x40
 1807 0161 06       		.uleb128 0x6
 1808 0162 9742     		.uleb128 0x2117
 1809 0164 0C       		.uleb128 0xc
 1810 0165 01       		.uleb128 0x1
 1811 0166 13       		.uleb128 0x13
 1812 0167 00       		.byte	0
 1813 0168 00       		.byte	0
 1814 0169 18       		.uleb128 0x18
 1815 016a 34       		.uleb128 0x34
 1816 016b 00       		.byte	0
 1817 016c 03       		.uleb128 0x3
 1818 016d 0E       		.uleb128 0xe
ARM GAS  C:\Users\DNIEL~1\AppData\Local\Temp\ccaMx4VR.s 			page 33


 1819 016e 3A       		.uleb128 0x3a
 1820 016f 0B       		.uleb128 0xb
 1821 0170 3B       		.uleb128 0x3b
 1822 0171 05       		.uleb128 0x5
 1823 0172 49       		.uleb128 0x49
 1824 0173 13       		.uleb128 0x13
 1825 0174 02       		.uleb128 0x2
 1826 0175 06       		.uleb128 0x6
 1827 0176 00       		.byte	0
 1828 0177 00       		.byte	0
 1829 0178 19       		.uleb128 0x19
 1830 0179 34       		.uleb128 0x34
 1831 017a 00       		.byte	0
 1832 017b 03       		.uleb128 0x3
 1833 017c 0E       		.uleb128 0xe
 1834 017d 3A       		.uleb128 0x3a
 1835 017e 0B       		.uleb128 0xb
 1836 017f 3B       		.uleb128 0x3b
 1837 0180 05       		.uleb128 0x5
 1838 0181 49       		.uleb128 0x49
 1839 0182 13       		.uleb128 0x13
 1840 0183 02       		.uleb128 0x2
 1841 0184 0A       		.uleb128 0xa
 1842 0185 00       		.byte	0
 1843 0186 00       		.byte	0
 1844 0187 1A       		.uleb128 0x1a
 1845 0188 34       		.uleb128 0x34
 1846 0189 00       		.byte	0
 1847 018a 03       		.uleb128 0x3
 1848 018b 08       		.uleb128 0x8
 1849 018c 3A       		.uleb128 0x3a
 1850 018d 0B       		.uleb128 0xb
 1851 018e 3B       		.uleb128 0x3b
 1852 018f 05       		.uleb128 0x5
 1853 0190 49       		.uleb128 0x49
 1854 0191 13       		.uleb128 0x13
 1855 0192 02       		.uleb128 0x2
 1856 0193 06       		.uleb128 0x6
 1857 0194 00       		.byte	0
 1858 0195 00       		.byte	0
 1859 0196 1B       		.uleb128 0x1b
 1860 0197 0B       		.uleb128 0xb
 1861 0198 01       		.byte	0x1
 1862 0199 55       		.uleb128 0x55
 1863 019a 06       		.uleb128 0x6
 1864 019b 01       		.uleb128 0x1
 1865 019c 13       		.uleb128 0x13
 1866 019d 00       		.byte	0
 1867 019e 00       		.byte	0
 1868 019f 1C       		.uleb128 0x1c
 1869 01a0 0B       		.uleb128 0xb
 1870 01a1 01       		.byte	0x1
 1871 01a2 11       		.uleb128 0x11
 1872 01a3 01       		.uleb128 0x1
 1873 01a4 12       		.uleb128 0x12
 1874 01a5 01       		.uleb128 0x1
 1875 01a6 01       		.uleb128 0x1
ARM GAS  C:\Users\DNIEL~1\AppData\Local\Temp\ccaMx4VR.s 			page 34


 1876 01a7 13       		.uleb128 0x13
 1877 01a8 00       		.byte	0
 1878 01a9 00       		.byte	0
 1879 01aa 1D       		.uleb128 0x1d
 1880 01ab 898201   		.uleb128 0x4109
 1881 01ae 01       		.byte	0x1
 1882 01af 11       		.uleb128 0x11
 1883 01b0 01       		.uleb128 0x1
 1884 01b1 31       		.uleb128 0x31
 1885 01b2 13       		.uleb128 0x13
 1886 01b3 00       		.byte	0
 1887 01b4 00       		.byte	0
 1888 01b5 1E       		.uleb128 0x1e
 1889 01b6 8A8201   		.uleb128 0x410a
 1890 01b9 00       		.byte	0
 1891 01ba 02       		.uleb128 0x2
 1892 01bb 0A       		.uleb128 0xa
 1893 01bc 9142     		.uleb128 0x2111
 1894 01be 0A       		.uleb128 0xa
 1895 01bf 00       		.byte	0
 1896 01c0 00       		.byte	0
 1897 01c1 1F       		.uleb128 0x1f
 1898 01c2 34       		.uleb128 0x34
 1899 01c3 00       		.byte	0
 1900 01c4 03       		.uleb128 0x3
 1901 01c5 0E       		.uleb128 0xe
 1902 01c6 3A       		.uleb128 0x3a
 1903 01c7 0B       		.uleb128 0xb
 1904 01c8 3B       		.uleb128 0x3b
 1905 01c9 05       		.uleb128 0x5
 1906 01ca 49       		.uleb128 0x49
 1907 01cb 13       		.uleb128 0x13
 1908 01cc 3F       		.uleb128 0x3f
 1909 01cd 0C       		.uleb128 0xc
 1910 01ce 3C       		.uleb128 0x3c
 1911 01cf 0C       		.uleb128 0xc
 1912 01d0 00       		.byte	0
 1913 01d1 00       		.byte	0
 1914 01d2 20       		.uleb128 0x20
 1915 01d3 34       		.uleb128 0x34
 1916 01d4 00       		.byte	0
 1917 01d5 03       		.uleb128 0x3
 1918 01d6 0E       		.uleb128 0xe
 1919 01d7 3A       		.uleb128 0x3a
 1920 01d8 0B       		.uleb128 0xb
 1921 01d9 3B       		.uleb128 0x3b
 1922 01da 0B       		.uleb128 0xb
 1923 01db 49       		.uleb128 0x49
 1924 01dc 13       		.uleb128 0x13
 1925 01dd 3F       		.uleb128 0x3f
 1926 01de 0C       		.uleb128 0xc
 1927 01df 02       		.uleb128 0x2
 1928 01e0 0A       		.uleb128 0xa
 1929 01e1 00       		.byte	0
 1930 01e2 00       		.byte	0
 1931 01e3 00       		.byte	0
 1932              		.section	.debug_loc,"",%progbits
ARM GAS  C:\Users\DNIEL~1\AppData\Local\Temp\ccaMx4VR.s 			page 35


 1933              	.Ldebug_loc0:
 1934              	.LLST0:
 1935 0000 10000000 		.4byte	.LVL0
 1936 0004 32000000 		.4byte	.LVL1
 1937 0008 0300     		.2byte	0x3
 1938 000a 08       		.byte	0x8
 1939 000b 7F       		.byte	0x7f
 1940 000c 9F       		.byte	0x9f
 1941 000d 32000000 		.4byte	.LVL1
 1942 0011 44000000 		.4byte	.LVL2
 1943 0015 0600     		.2byte	0x6
 1944 0017 0C       		.byte	0xc
 1945 0018 FF007F00 		.4byte	0x7f00ff
 1946 001c 9F       		.byte	0x9f
 1947 001d 00000000 		.4byte	0
 1948 0021 00000000 		.4byte	0
 1949              	.LLST1:
 1950 0025 00000000 		.4byte	.LVL3
 1951 0029 06000000 		.4byte	.LVL4
 1952 002d 0100     		.2byte	0x1
 1953 002f 50       		.byte	0x50
 1954 0030 06000000 		.4byte	.LVL4
 1955 0034 40000000 		.4byte	.LFE119
 1956 0038 0400     		.2byte	0x4
 1957 003a F3       		.byte	0xf3
 1958 003b 01       		.uleb128 0x1
 1959 003c 50       		.byte	0x50
 1960 003d 9F       		.byte	0x9f
 1961 003e 00000000 		.4byte	0
 1962 0042 00000000 		.4byte	0
 1963              	.LLST2:
 1964 0046 00000000 		.4byte	.LVL3
 1965 004a 22000000 		.4byte	.LVL5
 1966 004e 0100     		.2byte	0x1
 1967 0050 51       		.byte	0x51
 1968 0051 22000000 		.4byte	.LVL5
 1969 0055 30000000 		.4byte	.LVL6
 1970 0059 0400     		.2byte	0x4
 1971 005b F3       		.byte	0xf3
 1972 005c 01       		.uleb128 0x1
 1973 005d 51       		.byte	0x51
 1974 005e 9F       		.byte	0x9f
 1975 005f 30000000 		.4byte	.LVL6
 1976 0063 40000000 		.4byte	.LFE119
 1977 0067 0100     		.2byte	0x1
 1978 0069 51       		.byte	0x51
 1979 006a 00000000 		.4byte	0
 1980 006e 00000000 		.4byte	0
 1981              	.LLST3:
 1982 0072 00000000 		.4byte	.LFB120
 1983 0076 02000000 		.4byte	.LCFI0
 1984 007a 0200     		.2byte	0x2
 1985 007c 7D       		.byte	0x7d
 1986 007d 00       		.sleb128 0
 1987 007e 02000000 		.4byte	.LCFI0
 1988 0082 3C000000 		.4byte	.LFE120
 1989 0086 0200     		.2byte	0x2
ARM GAS  C:\Users\DNIEL~1\AppData\Local\Temp\ccaMx4VR.s 			page 36


 1990 0088 7D       		.byte	0x7d
 1991 0089 0C       		.sleb128 12
 1992 008a 00000000 		.4byte	0
 1993 008e 00000000 		.4byte	0
 1994              	.LLST4:
 1995 0092 00000000 		.4byte	.LVL7
 1996 0096 06000000 		.4byte	.LVL8
 1997 009a 0100     		.2byte	0x1
 1998 009c 50       		.byte	0x50
 1999 009d 06000000 		.4byte	.LVL8
 2000 00a1 3C000000 		.4byte	.LFE120
 2001 00a5 0400     		.2byte	0x4
 2002 00a7 F3       		.byte	0xf3
 2003 00a8 01       		.uleb128 0x1
 2004 00a9 50       		.byte	0x50
 2005 00aa 9F       		.byte	0x9f
 2006 00ab 00000000 		.4byte	0
 2007 00af 00000000 		.4byte	0
 2008              	.LLST5:
 2009 00b3 00000000 		.4byte	.LVL9
 2010 00b7 0A000000 		.4byte	.LVL10
 2011 00bb 0100     		.2byte	0x1
 2012 00bd 50       		.byte	0x50
 2013 00be 0A000000 		.4byte	.LVL10
 2014 00c2 2E000000 		.4byte	.LVL13
 2015 00c6 0400     		.2byte	0x4
 2016 00c8 F3       		.byte	0xf3
 2017 00c9 01       		.uleb128 0x1
 2018 00ca 50       		.byte	0x50
 2019 00cb 9F       		.byte	0x9f
 2020 00cc 2E000000 		.4byte	.LVL13
 2021 00d0 34000000 		.4byte	.LVL15
 2022 00d4 0100     		.2byte	0x1
 2023 00d6 50       		.byte	0x50
 2024 00d7 34000000 		.4byte	.LVL15
 2025 00db 56000000 		.4byte	.LVL17
 2026 00df 0400     		.2byte	0x4
 2027 00e1 F3       		.byte	0xf3
 2028 00e2 01       		.uleb128 0x1
 2029 00e3 50       		.byte	0x50
 2030 00e4 9F       		.byte	0x9f
 2031 00e5 56000000 		.4byte	.LVL17
 2032 00e9 5E000000 		.4byte	.LVL19
 2033 00ed 0100     		.2byte	0x1
 2034 00ef 50       		.byte	0x50
 2035 00f0 5E000000 		.4byte	.LVL19
 2036 00f4 6A000000 		.4byte	.LVL21
 2037 00f8 0400     		.2byte	0x4
 2038 00fa F3       		.byte	0xf3
 2039 00fb 01       		.uleb128 0x1
 2040 00fc 50       		.byte	0x50
 2041 00fd 9F       		.byte	0x9f
 2042 00fe 6A000000 		.4byte	.LVL21
 2043 0102 6C000000 		.4byte	.LVL22
 2044 0106 0100     		.2byte	0x1
 2045 0108 50       		.byte	0x50
 2046 0109 6C000000 		.4byte	.LVL22
ARM GAS  C:\Users\DNIEL~1\AppData\Local\Temp\ccaMx4VR.s 			page 37


 2047 010d 7E000000 		.4byte	.LFE121
 2048 0111 0400     		.2byte	0x4
 2049 0113 F3       		.byte	0xf3
 2050 0114 01       		.uleb128 0x1
 2051 0115 50       		.byte	0x50
 2052 0116 9F       		.byte	0x9f
 2053 0117 00000000 		.4byte	0
 2054 011b 00000000 		.4byte	0
 2055              	.LLST6:
 2056 011f 00000000 		.4byte	.LVL9
 2057 0123 10000000 		.4byte	.LVL11
 2058 0127 0100     		.2byte	0x1
 2059 0129 51       		.byte	0x51
 2060 012a 10000000 		.4byte	.LVL11
 2061 012e 2E000000 		.4byte	.LVL13
 2062 0132 0400     		.2byte	0x4
 2063 0134 F3       		.byte	0xf3
 2064 0135 01       		.uleb128 0x1
 2065 0136 51       		.byte	0x51
 2066 0137 9F       		.byte	0x9f
 2067 0138 2E000000 		.4byte	.LVL13
 2068 013c 32000000 		.4byte	.LVL14
 2069 0140 0100     		.2byte	0x1
 2070 0142 51       		.byte	0x51
 2071 0143 32000000 		.4byte	.LVL14
 2072 0147 56000000 		.4byte	.LVL17
 2073 014b 0400     		.2byte	0x4
 2074 014d F3       		.byte	0xf3
 2075 014e 01       		.uleb128 0x1
 2076 014f 51       		.byte	0x51
 2077 0150 9F       		.byte	0x9f
 2078 0151 56000000 		.4byte	.LVL17
 2079 0155 62000000 		.4byte	.LVL20
 2080 0159 0100     		.2byte	0x1
 2081 015b 51       		.byte	0x51
 2082 015c 62000000 		.4byte	.LVL20
 2083 0160 6A000000 		.4byte	.LVL21
 2084 0164 0400     		.2byte	0x4
 2085 0166 F3       		.byte	0xf3
 2086 0167 01       		.uleb128 0x1
 2087 0168 51       		.byte	0x51
 2088 0169 9F       		.byte	0x9f
 2089 016a 6A000000 		.4byte	.LVL21
 2090 016e 76000000 		.4byte	.LVL24
 2091 0172 0100     		.2byte	0x1
 2092 0174 51       		.byte	0x51
 2093 0175 76000000 		.4byte	.LVL24
 2094 0179 7E000000 		.4byte	.LFE121
 2095 017d 0400     		.2byte	0x4
 2096 017f F3       		.byte	0xf3
 2097 0180 01       		.uleb128 0x1
 2098 0181 51       		.byte	0x51
 2099 0182 9F       		.byte	0x9f
 2100 0183 00000000 		.4byte	0
 2101 0187 00000000 		.4byte	0
 2102              	.LLST7:
 2103 018b 00000000 		.4byte	.LVL9
ARM GAS  C:\Users\DNIEL~1\AppData\Local\Temp\ccaMx4VR.s 			page 38


 2104 018f 1A000000 		.4byte	.LVL12
 2105 0193 0100     		.2byte	0x1
 2106 0195 52       		.byte	0x52
 2107 0196 1A000000 		.4byte	.LVL12
 2108 019a 2E000000 		.4byte	.LVL13
 2109 019e 0400     		.2byte	0x4
 2110 01a0 F3       		.byte	0xf3
 2111 01a1 01       		.uleb128 0x1
 2112 01a2 52       		.byte	0x52
 2113 01a3 9F       		.byte	0x9f
 2114 01a4 2E000000 		.4byte	.LVL13
 2115 01a8 42000000 		.4byte	.LVL16
 2116 01ac 0100     		.2byte	0x1
 2117 01ae 52       		.byte	0x52
 2118 01af 42000000 		.4byte	.LVL16
 2119 01b3 56000000 		.4byte	.LVL17
 2120 01b7 0400     		.2byte	0x4
 2121 01b9 F3       		.byte	0xf3
 2122 01ba 01       		.uleb128 0x1
 2123 01bb 52       		.byte	0x52
 2124 01bc 9F       		.byte	0x9f
 2125 01bd 56000000 		.4byte	.LVL17
 2126 01c1 5A000000 		.4byte	.LVL18
 2127 01c5 0100     		.2byte	0x1
 2128 01c7 52       		.byte	0x52
 2129 01c8 5A000000 		.4byte	.LVL18
 2130 01cc 6A000000 		.4byte	.LVL21
 2131 01d0 0400     		.2byte	0x4
 2132 01d2 F3       		.byte	0xf3
 2133 01d3 01       		.uleb128 0x1
 2134 01d4 52       		.byte	0x52
 2135 01d5 9F       		.byte	0x9f
 2136 01d6 6A000000 		.4byte	.LVL21
 2137 01da 72000000 		.4byte	.LVL23
 2138 01de 0100     		.2byte	0x1
 2139 01e0 52       		.byte	0x52
 2140 01e1 72000000 		.4byte	.LVL23
 2141 01e5 7E000000 		.4byte	.LFE121
 2142 01e9 0400     		.2byte	0x4
 2143 01eb F3       		.byte	0xf3
 2144 01ec 01       		.uleb128 0x1
 2145 01ed 52       		.byte	0x52
 2146 01ee 9F       		.byte	0x9f
 2147 01ef 00000000 		.4byte	0
 2148 01f3 00000000 		.4byte	0
 2149              	.LLST8:
 2150 01f7 00000000 		.4byte	.LVL26
 2151 01fb 04000000 		.4byte	.LVL27
 2152 01ff 0100     		.2byte	0x1
 2153 0201 50       		.byte	0x50
 2154 0202 04000000 		.4byte	.LVL27
 2155 0206 30000000 		.4byte	.LVL29
 2156 020a 0400     		.2byte	0x4
 2157 020c F3       		.byte	0xf3
 2158 020d 01       		.uleb128 0x1
 2159 020e 50       		.byte	0x50
 2160 020f 9F       		.byte	0x9f
ARM GAS  C:\Users\DNIEL~1\AppData\Local\Temp\ccaMx4VR.s 			page 39


 2161 0210 30000000 		.4byte	.LVL29
 2162 0214 38000000 		.4byte	.LVL30
 2163 0218 0100     		.2byte	0x1
 2164 021a 50       		.byte	0x50
 2165 021b 38000000 		.4byte	.LVL30
 2166 021f 44000000 		.4byte	.LFE123
 2167 0223 0400     		.2byte	0x4
 2168 0225 F3       		.byte	0xf3
 2169 0226 01       		.uleb128 0x1
 2170 0227 50       		.byte	0x50
 2171 0228 9F       		.byte	0x9f
 2172 0229 00000000 		.4byte	0
 2173 022d 00000000 		.4byte	0
 2174              	.LLST9:
 2175 0231 00000000 		.4byte	.LVL26
 2176 0235 16000000 		.4byte	.LVL28
 2177 0239 0100     		.2byte	0x1
 2178 023b 51       		.byte	0x51
 2179 023c 16000000 		.4byte	.LVL28
 2180 0240 30000000 		.4byte	.LVL29
 2181 0244 0400     		.2byte	0x4
 2182 0246 F3       		.byte	0xf3
 2183 0247 01       		.uleb128 0x1
 2184 0248 51       		.byte	0x51
 2185 0249 9F       		.byte	0x9f
 2186 024a 30000000 		.4byte	.LVL29
 2187 024e 3C000000 		.4byte	.LVL31
 2188 0252 0100     		.2byte	0x1
 2189 0254 51       		.byte	0x51
 2190 0255 3C000000 		.4byte	.LVL31
 2191 0259 44000000 		.4byte	.LFE123
 2192 025d 0400     		.2byte	0x4
 2193 025f F3       		.byte	0xf3
 2194 0260 01       		.uleb128 0x1
 2195 0261 51       		.byte	0x51
 2196 0262 9F       		.byte	0x9f
 2197 0263 00000000 		.4byte	0
 2198 0267 00000000 		.4byte	0
 2199              	.LLST10:
 2200 026b 00000000 		.4byte	.LVL32
 2201 026f 06000000 		.4byte	.LVL33
 2202 0273 0100     		.2byte	0x1
 2203 0275 50       		.byte	0x50
 2204 0276 06000000 		.4byte	.LVL33
 2205 027a 12000000 		.4byte	.LFE124
 2206 027e 0400     		.2byte	0x4
 2207 0280 F3       		.byte	0xf3
 2208 0281 01       		.uleb128 0x1
 2209 0282 50       		.byte	0x50
 2210 0283 9F       		.byte	0x9f
 2211 0284 00000000 		.4byte	0
 2212 0288 00000000 		.4byte	0
 2213              	.LLST11:
 2214 028c 00000000 		.4byte	.LFB125
 2215 0290 04000000 		.4byte	.LCFI1
 2216 0294 0200     		.2byte	0x2
 2217 0296 7D       		.byte	0x7d
ARM GAS  C:\Users\DNIEL~1\AppData\Local\Temp\ccaMx4VR.s 			page 40


 2218 0297 00       		.sleb128 0
 2219 0298 04000000 		.4byte	.LCFI1
 2220 029c 08000000 		.4byte	.LCFI2
 2221 02a0 0200     		.2byte	0x2
 2222 02a2 7D       		.byte	0x7d
 2223 02a3 24       		.sleb128 36
 2224 02a4 08000000 		.4byte	.LCFI2
 2225 02a8 AA000000 		.4byte	.LFE125
 2226 02ac 0200     		.2byte	0x2
 2227 02ae 7D       		.byte	0x7d
 2228 02af 38       		.sleb128 56
 2229 02b0 00000000 		.4byte	0
 2230 02b4 00000000 		.4byte	0
 2231              	.LLST12:
 2232 02b8 00000000 		.4byte	.LVL34
 2233 02bc 11000000 		.4byte	.LVL37-1
 2234 02c0 0100     		.2byte	0x1
 2235 02c2 50       		.byte	0x50
 2236 02c3 11000000 		.4byte	.LVL37-1
 2237 02c7 AA000000 		.4byte	.LFE125
 2238 02cb 0400     		.2byte	0x4
 2239 02cd F3       		.byte	0xf3
 2240 02ce 01       		.uleb128 0x1
 2241 02cf 50       		.byte	0x50
 2242 02d0 9F       		.byte	0x9f
 2243 02d1 00000000 		.4byte	0
 2244 02d5 00000000 		.4byte	0
 2245              	.LLST13:
 2246 02d9 48000000 		.4byte	.LVL42
 2247 02dd 4A000000 		.4byte	.LVL43
 2248 02e1 1500     		.2byte	0x15
 2249 02e3 73       		.byte	0x73
 2250 02e4 00       		.sleb128 0
 2251 02e5 0A       		.byte	0xa
 2252 02e6 0070     		.2byte	0x7000
 2253 02e8 1A       		.byte	0x1a
 2254 02e9 3C       		.byte	0x3c
 2255 02ea 25       		.byte	0x25
 2256 02eb 3A       		.byte	0x3a
 2257 02ec 1E       		.byte	0x1e
 2258 02ed 76       		.byte	0x76
 2259 02ee 00       		.sleb128 0
 2260 02ef 22       		.byte	0x22
 2261 02f0 35       		.byte	0x35
 2262 02f1 24       		.byte	0x24
 2263 02f2 7A       		.byte	0x7a
 2264 02f3 00       		.sleb128 0
 2265 02f4 31       		.byte	0x31
 2266 02f5 25       		.byte	0x25
 2267 02f6 21       		.byte	0x21
 2268 02f7 9F       		.byte	0x9f
 2269 02f8 4A000000 		.4byte	.LVL43
 2270 02fc 9A000000 		.4byte	.LVL45
 2271 0300 1800     		.2byte	0x18
 2272 0302 73       		.byte	0x73
 2273 0303 00       		.sleb128 0
 2274 0304 0A       		.byte	0xa
ARM GAS  C:\Users\DNIEL~1\AppData\Local\Temp\ccaMx4VR.s 			page 41


 2275 0305 0070     		.2byte	0x7000
 2276 0307 1A       		.byte	0x1a
 2277 0308 3C       		.byte	0x3c
 2278 0309 25       		.byte	0x25
 2279 030a 3A       		.byte	0x3a
 2280 030b 1E       		.byte	0x1e
 2281 030c 73       		.byte	0x73
 2282 030d 00       		.sleb128 0
 2283 030e 09       		.byte	0x9
 2284 030f F8       		.byte	0xf8
 2285 0310 24       		.byte	0x24
 2286 0311 22       		.byte	0x22
 2287 0312 35       		.byte	0x35
 2288 0313 24       		.byte	0x24
 2289 0314 7A       		.byte	0x7a
 2290 0315 00       		.sleb128 0
 2291 0316 31       		.byte	0x31
 2292 0317 25       		.byte	0x25
 2293 0318 21       		.byte	0x21
 2294 0319 9F       		.byte	0x9f
 2295 031a 9A000000 		.4byte	.LVL45
 2296 031e 9E000000 		.4byte	.LVL46
 2297 0322 4300     		.2byte	0x43
 2298 0324 91       		.byte	0x91
 2299 0325 4C       		.sleb128 -52
 2300 0326 06       		.byte	0x6
 2301 0327 0A       		.byte	0xa
 2302 0328 0070     		.2byte	0x7000
 2303 032a 1A       		.byte	0x1a
 2304 032b 3C       		.byte	0x3c
 2305 032c 25       		.byte	0x25
 2306 032d 3A       		.byte	0x3a
 2307 032e 1E       		.byte	0x1e
 2308 032f 91       		.byte	0x91
 2309 0330 4C       		.sleb128 -52
 2310 0331 06       		.byte	0x6
 2311 0332 09       		.byte	0x9
 2312 0333 F8       		.byte	0xf8
 2313 0334 24       		.byte	0x24
 2314 0335 22       		.byte	0x22
 2315 0336 35       		.byte	0x35
 2316 0337 24       		.byte	0x24
 2317 0338 7A       		.byte	0x7a
 2318 0339 00       		.sleb128 0
 2319 033a 31       		.byte	0x31
 2320 033b 25       		.byte	0x25
 2321 033c 21       		.byte	0x21
 2322 033d 7D       		.byte	0x7d
 2323 033e 00       		.sleb128 0
 2324 033f 06       		.byte	0x6
 2325 0340 08       		.byte	0x8
 2326 0341 30       		.byte	0x30
 2327 0342 1A       		.byte	0x1a
 2328 0343 34       		.byte	0x34
 2329 0344 25       		.byte	0x25
 2330 0345 3A       		.byte	0x3a
 2331 0346 1E       		.byte	0x1e
ARM GAS  C:\Users\DNIEL~1\AppData\Local\Temp\ccaMx4VR.s 			page 42


 2332 0347 78       		.byte	0x78
 2333 0348 00       		.sleb128 0
 2334 0349 22       		.byte	0x22
 2335 034a 40       		.byte	0x40
 2336 034b 24       		.byte	0x24
 2337 034c 21       		.byte	0x21
 2338 034d 7D       		.byte	0x7d
 2339 034e 00       		.sleb128 0
 2340 034f 06       		.byte	0x6
 2341 0350 0A       		.byte	0xa
 2342 0351 0010     		.2byte	0x1000
 2343 0353 1A       		.byte	0x1a
 2344 0354 3C       		.byte	0x3c
 2345 0355 25       		.byte	0x25
 2346 0356 3A       		.byte	0x3a
 2347 0357 1E       		.byte	0x1e
 2348 0358 77       		.byte	0x77
 2349 0359 00       		.sleb128 0
 2350 035a 22       		.byte	0x22
 2351 035b 45       		.byte	0x45
 2352 035c 24       		.byte	0x24
 2353 035d 21       		.byte	0x21
 2354 035e 70       		.byte	0x70
 2355 035f 00       		.sleb128 0
 2356 0360 73       		.byte	0x73
 2357 0361 00       		.sleb128 0
 2358 0362 22       		.byte	0x22
 2359 0363 3B       		.byte	0x3b
 2360 0364 24       		.byte	0x24
 2361 0365 21       		.byte	0x21
 2362 0366 9F       		.byte	0x9f
 2363 0367 9E000000 		.4byte	.LVL46
 2364 036b A0000000 		.4byte	.LVL47
 2365 036f 0B00     		.2byte	0xb
 2366 0371 70       		.byte	0x70
 2367 0372 00       		.sleb128 0
 2368 0373 73       		.byte	0x73
 2369 0374 00       		.sleb128 0
 2370 0375 22       		.byte	0x22
 2371 0376 3B       		.byte	0x3b
 2372 0377 24       		.byte	0x24
 2373 0378 71       		.byte	0x71
 2374 0379 00       		.sleb128 0
 2375 037a 21       		.byte	0x21
 2376 037b 9F       		.byte	0x9f
 2377 037c A0000000 		.4byte	.LVL47
 2378 0380 A4000000 		.4byte	.LVL48
 2379 0384 0F00     		.2byte	0xf
 2380 0386 91       		.byte	0x91
 2381 0387 4C       		.sleb128 -52
 2382 0388 06       		.byte	0x6
 2383 0389 09       		.byte	0x9
 2384 038a F0       		.byte	0xf0
 2385 038b 24       		.byte	0x24
 2386 038c 70       		.byte	0x70
 2387 038d 00       		.sleb128 0
 2388 038e 22       		.byte	0x22
ARM GAS  C:\Users\DNIEL~1\AppData\Local\Temp\ccaMx4VR.s 			page 43


 2389 038f 3B       		.byte	0x3b
 2390 0390 24       		.byte	0x24
 2391 0391 71       		.byte	0x71
 2392 0392 00       		.sleb128 0
 2393 0393 21       		.byte	0x21
 2394 0394 9F       		.byte	0x9f
 2395 0395 A4000000 		.4byte	.LVL48
 2396 0399 AA000000 		.4byte	.LFE125
 2397 039d 0100     		.2byte	0x1
 2398 039f 50       		.byte	0x50
 2399 03a0 00000000 		.4byte	0
 2400 03a4 00000000 		.4byte	0
 2401              	.LLST14:
 2402 03a8 1C000000 		.4byte	.LVL40
 2403 03ac 76000000 		.4byte	.LVL44
 2404 03b0 0100     		.2byte	0x1
 2405 03b2 52       		.byte	0x52
 2406 03b3 76000000 		.4byte	.LVL44
 2407 03b7 AA000000 		.4byte	.LFE125
 2408 03bb 0200     		.2byte	0x2
 2409 03bd 7D       		.byte	0x7d
 2410 03be 00       		.sleb128 0
 2411 03bf 00000000 		.4byte	0
 2412 03c3 00000000 		.4byte	0
 2413              	.LLST15:
 2414 03c7 38000000 		.4byte	.LVL41
 2415 03cb 48000000 		.4byte	.LVL42
 2416 03cf 0D00     		.2byte	0xd
 2417 03d1 73       		.byte	0x73
 2418 03d2 00       		.sleb128 0
 2419 03d3 08       		.byte	0x8
 2420 03d4 70       		.byte	0x70
 2421 03d5 1A       		.byte	0x1a
 2422 03d6 34       		.byte	0x34
 2423 03d7 25       		.byte	0x25
 2424 03d8 3A       		.byte	0x3a
 2425 03d9 1E       		.byte	0x1e
 2426 03da 75       		.byte	0x75
 2427 03db 00       		.sleb128 0
 2428 03dc 22       		.byte	0x22
 2429 03dd 9F       		.byte	0x9f
 2430 03de 48000000 		.4byte	.LVL42
 2431 03e2 4A000000 		.4byte	.LVL43
 2432 03e6 0E00     		.2byte	0xe
 2433 03e8 73       		.byte	0x73
 2434 03e9 00       		.sleb128 0
 2435 03ea 0A       		.byte	0xa
 2436 03eb 0070     		.2byte	0x7000
 2437 03ed 1A       		.byte	0x1a
 2438 03ee 3C       		.byte	0x3c
 2439 03ef 25       		.byte	0x25
 2440 03f0 3A       		.byte	0x3a
 2441 03f1 1E       		.byte	0x1e
 2442 03f2 76       		.byte	0x76
 2443 03f3 00       		.sleb128 0
 2444 03f4 22       		.byte	0x22
 2445 03f5 9F       		.byte	0x9f
ARM GAS  C:\Users\DNIEL~1\AppData\Local\Temp\ccaMx4VR.s 			page 44


 2446 03f6 4A000000 		.4byte	.LVL43
 2447 03fa 9A000000 		.4byte	.LVL45
 2448 03fe 1100     		.2byte	0x11
 2449 0400 73       		.byte	0x73
 2450 0401 00       		.sleb128 0
 2451 0402 0A       		.byte	0xa
 2452 0403 0070     		.2byte	0x7000
 2453 0405 1A       		.byte	0x1a
 2454 0406 3C       		.byte	0x3c
 2455 0407 25       		.byte	0x25
 2456 0408 3A       		.byte	0x3a
 2457 0409 1E       		.byte	0x1e
 2458 040a 73       		.byte	0x73
 2459 040b 00       		.sleb128 0
 2460 040c 09       		.byte	0x9
 2461 040d F8       		.byte	0xf8
 2462 040e 24       		.byte	0x24
 2463 040f 22       		.byte	0x22
 2464 0410 9F       		.byte	0x9f
 2465 0411 9A000000 		.4byte	.LVL45
 2466 0415 AA000000 		.4byte	.LFE125
 2467 0419 0F00     		.2byte	0xf
 2468 041b 7D       		.byte	0x7d
 2469 041c 00       		.sleb128 0
 2470 041d 06       		.byte	0x6
 2471 041e 4E       		.byte	0x4e
 2472 041f 43       		.byte	0x43
 2473 0420 24       		.byte	0x24
 2474 0421 1A       		.byte	0x1a
 2475 0422 44       		.byte	0x44
 2476 0423 25       		.byte	0x25
 2477 0424 3A       		.byte	0x3a
 2478 0425 1E       		.byte	0x1e
 2479 0426 75       		.byte	0x75
 2480 0427 00       		.sleb128 0
 2481 0428 22       		.byte	0x22
 2482 0429 9F       		.byte	0x9f
 2483 042a 00000000 		.4byte	0
 2484 042e 00000000 		.4byte	0
 2485              	.LLST16:
 2486 0432 0C000000 		.4byte	.LVL36
 2487 0436 11000000 		.4byte	.LVL37-1
 2488 043a 0100     		.2byte	0x1
 2489 043c 53       		.byte	0x53
 2490 043d 00000000 		.4byte	0
 2491 0441 00000000 		.4byte	0
 2492              	.LLST17:
 2493 0445 18000000 		.4byte	.LVL39
 2494 0449 1C000000 		.4byte	.LVL40
 2495 044d 0100     		.2byte	0x1
 2496 044f 53       		.byte	0x53
 2497 0450 00000000 		.4byte	0
 2498 0454 00000000 		.4byte	0
 2499              		.section	.debug_aranges,"",%progbits
 2500 0000 54000000 		.4byte	0x54
 2501 0004 0200     		.2byte	0x2
 2502 0006 00000000 		.4byte	.Ldebug_info0
ARM GAS  C:\Users\DNIEL~1\AppData\Local\Temp\ccaMx4VR.s 			page 45


 2503 000a 04       		.byte	0x4
 2504 000b 00       		.byte	0
 2505 000c 0000     		.2byte	0
 2506 000e 0000     		.2byte	0
 2507 0010 00000000 		.4byte	.LFB118
 2508 0014 4C000000 		.4byte	.LFE118-.LFB118
 2509 0018 00000000 		.4byte	.LFB119
 2510 001c 40000000 		.4byte	.LFE119-.LFB119
 2511 0020 00000000 		.4byte	.LFB120
 2512 0024 3C000000 		.4byte	.LFE120-.LFB120
 2513 0028 00000000 		.4byte	.LFB121
 2514 002c 7E000000 		.4byte	.LFE121-.LFB121
 2515 0030 00000000 		.4byte	.LFB122
 2516 0034 0E000000 		.4byte	.LFE122-.LFB122
 2517 0038 00000000 		.4byte	.LFB123
 2518 003c 44000000 		.4byte	.LFE123-.LFB123
 2519 0040 00000000 		.4byte	.LFB124
 2520 0044 12000000 		.4byte	.LFE124-.LFB124
 2521 0048 00000000 		.4byte	.LFB125
 2522 004c AA000000 		.4byte	.LFE125-.LFB125
 2523 0050 00000000 		.4byte	0
 2524 0054 00000000 		.4byte	0
 2525              		.section	.debug_ranges,"",%progbits
 2526              	.Ldebug_ranges0:
 2527 0000 04000000 		.4byte	.LBB2
 2528 0004 06000000 		.4byte	.LBE2
 2529 0008 08000000 		.4byte	.LBB3
 2530 000c 0C000000 		.4byte	.LBE3
 2531 0010 00000000 		.4byte	0
 2532 0014 00000000 		.4byte	0
 2533 0018 00000000 		.4byte	.LFB118
 2534 001c 4C000000 		.4byte	.LFE118
 2535 0020 00000000 		.4byte	.LFB119
 2536 0024 40000000 		.4byte	.LFE119
 2537 0028 00000000 		.4byte	.LFB120
 2538 002c 3C000000 		.4byte	.LFE120
 2539 0030 00000000 		.4byte	.LFB121
 2540 0034 7E000000 		.4byte	.LFE121
 2541 0038 00000000 		.4byte	.LFB122
 2542 003c 0E000000 		.4byte	.LFE122
 2543 0040 00000000 		.4byte	.LFB123
 2544 0044 44000000 		.4byte	.LFE123
 2545 0048 00000000 		.4byte	.LFB124
 2546 004c 12000000 		.4byte	.LFE124
 2547 0050 00000000 		.4byte	.LFB125
 2548 0054 AA000000 		.4byte	.LFE125
 2549 0058 00000000 		.4byte	0
 2550 005c 00000000 		.4byte	0
 2551              		.section	.debug_line,"",%progbits
 2552              	.Ldebug_line0:
 2553 0000 06030000 		.section	.debug_str,"MS",%progbits,1
 2553      0200BD01 
 2553      00000201 
 2553      FB0E0D00 
 2553      01010101 
 2554              	.LASF34:
 2555 0000 424B5036 		.ascii	"BKP6R\000"
ARM GAS  C:\Users\DNIEL~1\AppData\Local\Temp\ccaMx4VR.s 			page 46


 2555      5200
 2556              	.LASF61:
 2557 0006 7274635F 		.ascii	"rtc_lld_set_time\000"
 2557      6C6C645F 
 2557      7365745F 
 2557      74696D65 
 2557      00
 2558              	.LASF30:
 2559 0017 424B5032 		.ascii	"BKP2R\000"
 2559      5200
 2560              	.LASF3:
 2561 001d 73686F72 		.ascii	"short int\000"
 2561      7420696E 
 2561      7400
 2562              	.LASF12:
 2563 0027 73697A65 		.ascii	"sizetype\000"
 2563      74797065 
 2563      00
 2564              	.LASF76:
 2565 0030 474E5520 		.ascii	"GNU C 4.7.4 20140401 (release) [ARM/embedded-4_7-br"
 2565      4320342E 
 2565      372E3420 
 2565      32303134 
 2565      30343031 
 2566 0063 616E6368 		.ascii	"anch revision 209195]\000"
 2566      20726576 
 2566      6973696F 
 2566      6E203230 
 2566      39313935 
 2567              	.LASF23:
 2568 0079 43414C52 		.ascii	"CALR\000"
 2568      00
 2569              	.LASF15:
 2570 007e 57555452 		.ascii	"WUTR\000"
 2570      00
 2571              	.LASF75:
 2572 0083 52544344 		.ascii	"RTCD1\000"
 2572      3100
 2573              	.LASF41:
 2574 0089 424B5031 		.ascii	"BKP13R\000"
 2574      335200
 2575              	.LASF56:
 2576 0090 74765F64 		.ascii	"tv_datetime\000"
 2576      61746574 
 2576      696D6500 
 2577              	.LASF72:
 2578 009c 70726564 		.ascii	"prediv_a\000"
 2578      69765F61 
 2578      00
 2579              	.LASF45:
 2580 00a5 424B5031 		.ascii	"BKP17R\000"
 2580      375200
 2581              	.LASF21:
 2582 00ac 54534452 		.ascii	"TSDR\000"
 2582      00
 2583              	.LASF65:
 2584 00b1 7274635F 		.ascii	"rtc_lld_set_alarm\000"
ARM GAS  C:\Users\DNIEL~1\AppData\Local\Temp\ccaMx4VR.s 			page 47


 2584      6C6C645F 
 2584      7365745F 
 2584      616C6172 
 2584      6D00
 2585              	.LASF14:
 2586 00c3 50524552 		.ascii	"PRER\000"
 2586      00
 2587              	.LASF31:
 2588 00c8 424B5033 		.ascii	"BKP3R\000"
 2588      5200
 2589              	.LASF29:
 2590 00ce 424B5031 		.ascii	"BKP1R\000"
 2590      5200
 2591              	.LASF9:
 2592 00d4 6C6F6E67 		.ascii	"long long int\000"
 2592      206C6F6E 
 2592      6720696E 
 2592      7400
 2593              	.LASF64:
 2594 00e2 7274635F 		.ascii	"rtc_lld_get_time\000"
 2594      6C6C645F 
 2594      6765745F 
 2594      74696D65 
 2594      00
 2595              	.LASF16:
 2596 00f3 43414C49 		.ascii	"CALIBR\000"
 2596      425200
 2597              	.LASF59:
 2598 00fa 72746361 		.ascii	"rtcalarm_t\000"
 2598      6C61726D 
 2598      5F7400
 2599              	.LASF5:
 2600 0105 6C6F6E67 		.ascii	"long int\000"
 2600      20696E74 
 2600      00
 2601              	.LASF38:
 2602 010e 424B5031 		.ascii	"BKP10R\000"
 2602      305200
 2603              	.LASF35:
 2604 0115 424B5037 		.ascii	"BKP7R\000"
 2604      5200
 2605              	.LASF55:
 2606 011b 52544341 		.ascii	"RTCAlarm\000"
 2606      6C61726D 
 2606      00
 2607              	.LASF25:
 2608 0124 414C524D 		.ascii	"ALRMASSR\000"
 2608      41535352 
 2608      00
 2609              	.LASF78:
 2610 012d 433A5C55 		.ascii	"C:\\Users\\D\341niel\\git\\Smarty\\smarty\\firmware"
 2610      73657273 
 2610      5C44E16E 
 2610      69656C5C 
 2610      6769745C 
 2611 0157 00       		.ascii	"\000"
 2612              	.LASF42:
ARM GAS  C:\Users\DNIEL~1\AppData\Local\Temp\ccaMx4VR.s 			page 48


 2613 0158 424B5031 		.ascii	"BKP14R\000"
 2613      345200
 2614              	.LASF24:
 2615 015f 54414643 		.ascii	"TAFCR\000"
 2615      5200
 2616              	.LASF60:
 2617 0165 7274635F 		.ascii	"rtc_lld_init\000"
 2617      6C6C645F 
 2617      696E6974 
 2617      00
 2618              	.LASF70:
 2619 0172 77616B65 		.ascii	"wakeupspec\000"
 2619      75707370 
 2619      656300
 2620              	.LASF2:
 2621 017d 756E7369 		.ascii	"unsigned char\000"
 2621      676E6564 
 2621      20636861 
 2621      7200
 2622              	.LASF46:
 2623 018b 424B5031 		.ascii	"BKP18R\000"
 2623      385200
 2624              	.LASF52:
 2625 0192 74765F64 		.ascii	"tv_date\000"
 2625      61746500 
 2626              	.LASF1:
 2627 019a 7369676E 		.ascii	"signed char\000"
 2627      65642063 
 2627      68617200 
 2628              	.LASF10:
 2629 01a6 6C6F6E67 		.ascii	"long long unsigned int\000"
 2629      206C6F6E 
 2629      6720756E 
 2629      7369676E 
 2629      65642069 
 2630              	.LASF7:
 2631 01bd 75696E74 		.ascii	"uint32_t\000"
 2631      33325F74 
 2631      00
 2632              	.LASF17:
 2633 01c6 414C524D 		.ascii	"ALRMAR\000"
 2633      415200
 2634              	.LASF0:
 2635 01cd 756E7369 		.ascii	"unsigned int\000"
 2635      676E6564 
 2635      20696E74 
 2635      00
 2636              	.LASF69:
 2637 01da 72746353 		.ascii	"rtcSetPeriodicWakeup_v2\000"
 2637      65745065 
 2637      72696F64 
 2637      69635761 
 2637      6B657570 
 2638              	.LASF62:
 2639 01f2 72746370 		.ascii	"rtcp\000"
 2639      00
 2640              	.LASF32:
ARM GAS  C:\Users\DNIEL~1\AppData\Local\Temp\ccaMx4VR.s 			page 49


 2641 01f7 424B5034 		.ascii	"BKP4R\000"
 2641      5200
 2642              	.LASF20:
 2643 01fd 54535452 		.ascii	"TSTR\000"
 2643      00
 2644              	.LASF4:
 2645 0202 73686F72 		.ascii	"short unsigned int\000"
 2645      7420756E 
 2645      7369676E 
 2645      65642069 
 2645      6E7400
 2646              	.LASF13:
 2647 0215 63686172 		.ascii	"char\000"
 2647      00
 2648              	.LASF36:
 2649 021a 424B5038 		.ascii	"BKP8R\000"
 2649      5200
 2650              	.LASF6:
 2651 0220 696E7433 		.ascii	"int32_t\000"
 2651      325F7400 
 2652              	.LASF11:
 2653 0228 626F6F6C 		.ascii	"bool_t\000"
 2653      5F7400
 2654              	.LASF26:
 2655 022f 414C524D 		.ascii	"ALRMBSSR\000"
 2655      42535352 
 2655      00
 2656              	.LASF66:
 2657 0238 616C6172 		.ascii	"alarm\000"
 2657      6D00
 2658              	.LASF43:
 2659 023e 424B5031 		.ascii	"BKP15R\000"
 2659      355200
 2660              	.LASF48:
 2661 0245 5254435F 		.ascii	"RTC_TypeDef\000"
 2661      54797065 
 2661      44656600 
 2662              	.LASF58:
 2663 0251 77616B65 		.ascii	"wakeup\000"
 2663      757000
 2664              	.LASF54:
 2665 0258 74765F6D 		.ascii	"tv_msec\000"
 2665      73656300 
 2666              	.LASF8:
 2667 0260 6C6F6E67 		.ascii	"long unsigned int\000"
 2667      20756E73 
 2667      69676E65 
 2667      6420696E 
 2667      7400
 2668              	.LASF27:
 2669 0272 52455345 		.ascii	"RESERVED7\000"
 2669      52564544 
 2669      3700
 2670              	.LASF49:
 2671 027c 52544344 		.ascii	"RTCDriver\000"
 2671      72697665 
 2671      7200
ARM GAS  C:\Users\DNIEL~1\AppData\Local\Temp\ccaMx4VR.s 			page 50


 2672              	.LASF47:
 2673 0286 424B5031 		.ascii	"BKP19R\000"
 2673      395200
 2674              	.LASF73:
 2675 028d 66617474 		.ascii	"fattime\000"
 2675      696D6500 
 2676              	.LASF79:
 2677 0295 7274635F 		.ascii	"rtc_lld_get_time_fat\000"
 2677      6C6C645F 
 2677      6765745F 
 2677      74696D65 
 2677      5F666174 
 2678              	.LASF28:
 2679 02aa 424B5030 		.ascii	"BKP0R\000"
 2679      5200
 2680              	.LASF18:
 2681 02b0 414C524D 		.ascii	"ALRMBR\000"
 2681      425200
 2682              	.LASF39:
 2683 02b7 424B5031 		.ascii	"BKP11R\000"
 2683      315200
 2684              	.LASF68:
 2685 02be 7274635F 		.ascii	"rtc_lld_get_alarm\000"
 2685      6C6C645F 
 2685      6765745F 
 2685      616C6172 
 2685      6D00
 2686              	.LASF33:
 2687 02d0 424B5035 		.ascii	"BKP5R\000"
 2687      5200
 2688              	.LASF53:
 2689 02d6 74765F74 		.ascii	"tv_time\000"
 2689      696D6500 
 2690              	.LASF77:
 2691 02de 2E2E2F2E 		.ascii	"../../../ChibiOS/os/hal/platforms/STM32/RTCv2/rtc_l"
 2691      2E2F2E2E 
 2691      2F436869 
 2691      62694F53 
 2691      2F6F732F 
 2692 0311 6C642E63 		.ascii	"ld.c\000"
 2692      00
 2693              	.LASF63:
 2694 0316 74696D65 		.ascii	"timespec\000"
 2694      73706563 
 2694      00
 2695              	.LASF22:
 2696 031f 54535353 		.ascii	"TSSSR\000"
 2696      5200
 2697              	.LASF40:
 2698 0325 424B5031 		.ascii	"BKP12R\000"
 2698      325200
 2699              	.LASF19:
 2700 032c 53484946 		.ascii	"SHIFTR\000"
 2700      545200
 2701              	.LASF37:
 2702 0333 424B5039 		.ascii	"BKP9R\000"
 2702      5200
ARM GAS  C:\Users\DNIEL~1\AppData\Local\Temp\ccaMx4VR.s 			page 51


 2703              	.LASF57:
 2704 0339 52544357 		.ascii	"RTCWakeup\000"
 2704      616B6575 
 2704      7000
 2705              	.LASF74:
 2706 0343 49544D5F 		.ascii	"ITM_RxBuffer\000"
 2706      52784275 
 2706      66666572 
 2706      00
 2707              	.LASF50:
 2708 0350 69645F72 		.ascii	"id_rtc\000"
 2708      746300
 2709              	.LASF71:
 2710 0357 72746347 		.ascii	"rtcGetPeriodicWakeup_v2\000"
 2710      65745065 
 2710      72696F64 
 2710      69635761 
 2710      6B657570 
 2711              	.LASF44:
 2712 036f 424B5031 		.ascii	"BKP16R\000"
 2712      365200
 2713              	.LASF51:
 2714 0376 52544354 		.ascii	"RTCTime\000"
 2714      696D6500 
 2715              	.LASF67:
 2716 037e 616C6172 		.ascii	"alarmspec\000"
 2716      6D737065 
 2716      6300
 2717              		.ident	"GCC: (GNU Tools for ARM Embedded Processors) 4.7.4 20140401 (release) [ARM/embedded-4_7-br
ARM GAS  C:\Users\DNIEL~1\AppData\Local\Temp\ccaMx4VR.s 			page 52


DEFINED SYMBOLS
                            *ABS*:00000000 rtc_lld.c
C:\Users\DNIEL~1\AppData\Local\Temp\ccaMx4VR.s:19     .text.rtc_lld_init:00000000 $t
C:\Users\DNIEL~1\AppData\Local\Temp\ccaMx4VR.s:25     .text.rtc_lld_init:00000000 rtc_lld_init
C:\Users\DNIEL~1\AppData\Local\Temp\ccaMx4VR.s:81     .text.rtc_lld_init:00000048 $d
C:\Users\DNIEL~1\AppData\Local\Temp\ccaMx4VR.s:86     .text.rtc_lld_set_time:00000000 $t
C:\Users\DNIEL~1\AppData\Local\Temp\ccaMx4VR.s:92     .text.rtc_lld_set_time:00000000 rtc_lld_set_time
C:\Users\DNIEL~1\AppData\Local\Temp\ccaMx4VR.s:144    .text.rtc_lld_set_time:0000003c $d
C:\Users\DNIEL~1\AppData\Local\Temp\ccaMx4VR.s:149    .text.rtc_lld_get_time:00000000 $t
C:\Users\DNIEL~1\AppData\Local\Temp\ccaMx4VR.s:155    .text.rtc_lld_get_time:00000000 rtc_lld_get_time
C:\Users\DNIEL~1\AppData\Local\Temp\ccaMx4VR.s:214    .text.rtc_lld_get_time:00000038 $d
C:\Users\DNIEL~1\AppData\Local\Temp\ccaMx4VR.s:219    .text.rtc_lld_set_alarm:00000000 $t
C:\Users\DNIEL~1\AppData\Local\Temp\ccaMx4VR.s:225    .text.rtc_lld_set_alarm:00000000 rtc_lld_set_alarm
C:\Users\DNIEL~1\AppData\Local\Temp\ccaMx4VR.s:327    .text.rtc_lld_get_alarm:00000000 $t
C:\Users\DNIEL~1\AppData\Local\Temp\ccaMx4VR.s:333    .text.rtc_lld_get_alarm:00000000 rtc_lld_get_alarm
C:\Users\DNIEL~1\AppData\Local\Temp\ccaMx4VR.s:356    .text.rtcSetPeriodicWakeup_v2:00000000 $t
C:\Users\DNIEL~1\AppData\Local\Temp\ccaMx4VR.s:362    .text.rtcSetPeriodicWakeup_v2:00000000 rtcSetPeriodicWakeup_v2
C:\Users\DNIEL~1\AppData\Local\Temp\ccaMx4VR.s:420    .text.rtcGetPeriodicWakeup_v2:00000000 $t
C:\Users\DNIEL~1\AppData\Local\Temp\ccaMx4VR.s:426    .text.rtcGetPeriodicWakeup_v2:00000000 rtcGetPeriodicWakeup_v2
C:\Users\DNIEL~1\AppData\Local\Temp\ccaMx4VR.s:448    .text.rtc_lld_get_time_fat:00000000 $t
C:\Users\DNIEL~1\AppData\Local\Temp\ccaMx4VR.s:454    .text.rtc_lld_get_time_fat:00000000 rtc_lld_get_time_fat
C:\Users\DNIEL~1\AppData\Local\Temp\ccaMx4VR.s:600    .bss.RTCD1:00000000 RTCD1
C:\Users\DNIEL~1\AppData\Local\Temp\ccaMx4VR.s:596    .bss.RTCD1:00000000 $d
                     .debug_frame:00000010 $d
C:\Users\DNIEL~1\AppData\Local\Temp\ccaMx4VR.s:85     .text.rtc_lld_init:0000004c $t
C:\Users\DNIEL~1\AppData\Local\Temp\ccaMx4VR.s:218    .text.rtc_lld_get_time:0000003c $t

NO UNDEFINED SYMBOLS
