ARM GAS  C:\Users\DNIEL~1\AppData\Local\Temp\ccxMtG0a.s 			page 1


   1              		.syntax unified
   2              		.cpu cortex-m4
   3              		.fpu softvfp
   4              		.eabi_attribute 20, 1
   5              		.eabi_attribute 21, 1
   6              		.eabi_attribute 23, 3
   7              		.eabi_attribute 24, 1
   8              		.eabi_attribute 25, 1
   9              		.eabi_attribute 26, 1
  10              		.eabi_attribute 30, 2
  11              		.eabi_attribute 34, 1
  12              		.eabi_attribute 18, 4
  13              		.thumb
  14              		.file	"sdc_lld.c"
  15              		.text
  16              	.Ltext0:
  17              		.cfi_sections	.debug_frame
  18              		.section	.text.sdc_lld_collect_errors,"ax",%progbits
  19              		.align	2
  20              		.p2align 4,,15
  21              		.thumb
  22              		.thumb_func
  23              		.type	sdc_lld_collect_errors, %function
  24              	sdc_lld_collect_errors:
  25              	.LFB121:
  26              		.file 1 "../../../ChibiOS/os/hal/platforms/STM32/sdc_lld.c"
  27              		.loc 1 215 0
  28              		.cfi_startproc
  29              		@ args = 0, pretend = 0, frame = 0
  30              		@ frame_needed = 0, uses_anonymous_args = 0
  31              		@ link register save eliminated.
  32              	.LVL0:
  33              		.loc 1 218 0
  34 0000 01F00103 		and	r3, r1, #1
  35              	.LVL1:
  36              		.loc 1 220 0
  37 0004 8A07     		lsls	r2, r1, #30
  38              		.loc 1 221 0
  39 0006 48BF     		it	mi
  40 0008 43F00203 		orrmi	r3, r3, #2
  41              	.LVL2:
  42              		.loc 1 222 0
  43 000c 4A07     		lsls	r2, r1, #29
  44              		.loc 1 223 0
  45 000e 48BF     		it	mi
  46 0010 43F00803 		orrmi	r3, r3, #8
  47              	.LVL3:
  48              		.loc 1 224 0
  49 0014 0A07     		lsls	r2, r1, #28
  50              		.loc 1 225 0
  51 0016 48BF     		it	mi
  52 0018 43F00403 		orrmi	r3, r3, #4
  53              	.LVL4:
  54              		.loc 1 226 0
  55 001c CA06     		lsls	r2, r1, #27
  56              		.loc 1 227 0
  57 001e 48BF     		it	mi
ARM GAS  C:\Users\DNIEL~1\AppData\Local\Temp\ccxMtG0a.s 			page 2


  58 0020 43F01003 		orrmi	r3, r3, #16
  59              	.LVL5:
  60              		.loc 1 228 0
  61 0024 8A06     		lsls	r2, r1, #26
  62              		.loc 1 229 0
  63 0026 48BF     		it	mi
  64 0028 43F02003 		orrmi	r3, r3, #32
  65              	.LVL6:
  66              		.loc 1 230 0
  67 002c 8A05     		lsls	r2, r1, #22
  68              		.loc 1 233 0
  69 002e 426B     		ldr	r2, [r0, #52]
  70              		.loc 1 231 0
  71 0030 48BF     		it	mi
  72 0032 43F04003 		orrmi	r3, r3, #64
  73              	.LVL7:
  74              		.loc 1 233 0
  75 0036 42EA0301 		orr	r1, r2, r3
  76              	.LVL8:
  77 003a 4163     		str	r1, [r0, #52]
  78 003c 7047     		bx	lr
  79              		.cfi_endproc
  80              	.LFE121:
  81              		.size	sdc_lld_collect_errors, .-sdc_lld_collect_errors
  82 003e 00BF     		.section	.text.Vector104,"ax",%progbits
  83              		.align	2
  84              		.p2align 4,,15
  85              		.global	Vector104
  86              		.thumb
  87              		.thumb_func
  88              		.type	Vector104, %function
  89              	Vector104:
  90              	.LFB123:
  91              		.loc 1 274 0
  92              		.cfi_startproc
  93              		@ args = 0, pretend = 0, frame = 0
  94              		@ frame_needed = 0, uses_anonymous_args = 0
  95 0000 38B5     		push	{r3, r4, r5, lr}
  96              	.LCFI0:
  97              		.cfi_def_cfa_offset 16
  98              		.cfi_offset 3, -16
  99              		.cfi_offset 4, -12
 100              		.cfi_offset 5, -8
 101              		.cfi_offset 14, -4
 102              	.LBB5:
 103              		.loc 1 278 0
 104 0002 2023     		movs	r3, #32
 105              	.LVL9:
 106              	@ 278 "../../../ChibiOS/os/hal/platforms/STM32/sdc_lld.c" 1
 107 0004 83F31188 		msr     BASEPRI, r3
 108              	@ 0 "" 2
 109              	.LVL10:
 110              		.thumb
 111              	.LBE5:
 112              		.loc 1 284 0
 113 0008 094C     		ldr	r4, .L32
 114              		.loc 1 282 0
ARM GAS  C:\Users\DNIEL~1\AppData\Local\Temp\ccxMtG0a.s 			page 3


 115 000a 4FF43053 		mov	r3, #11264
 116              	.LVL11:
 117 000e C4F20103 		movt	r3, 16385
 118              		.loc 1 284 0
 119 0012 E06B     		ldr	r0, [r4, #60]
 120              		.loc 1 282 0
 121 0014 0025     		movs	r5, #0
 122 0016 DD63     		str	r5, [r3, #60]
 123              		.loc 1 284 0
 124 0018 10B1     		cbz	r0, .L27
 125              		.loc 1 285 0
 126 001a FFF7FEFF 		bl	chSchReadyI
 127              	.LVL12:
 128              		.loc 1 286 0
 129 001e E563     		str	r5, [r4, #60]
 130              	.L27:
 131              	.LBB6:
 132              		.loc 1 289 0
 133 0020 0023     		movs	r3, #0
 134              	.LVL13:
 135              	@ 289 "../../../ChibiOS/os/hal/platforms/STM32/sdc_lld.c" 1
 136 0022 83F31188 		msr     BASEPRI, r3
 137              	@ 0 "" 2
 138              	.LVL14:
 139              		.thumb
 140              	.LBE6:
 141              		.loc 1 292 0
 142 0026 BDE83840 		pop	{r3, r4, r5, lr}
 143              		.loc 1 291 0
 144 002a FFF7FEBF 		b	_port_irq_epilogue
 145              	.LVL15:
 146              	.L33:
 147 002e 00BF     		.align	2
 148              	.L32:
 149 0030 00000000 		.word	.LANCHOR0
 150              		.cfi_endproc
 151              	.LFE123:
 152              		.size	Vector104, .-Vector104
 153 0034 AFF30080 		.section	.text.sdc_lld_init,"ax",%progbits
 153      AFF30080 
 153      AFF30080 
 154              		.align	2
 155              		.p2align 4,,15
 156              		.global	sdc_lld_init
 157              		.thumb
 158              		.thumb_func
 159              		.type	sdc_lld_init, %function
 160              	sdc_lld_init:
 161              	.LFB124:
 162              		.loc 1 303 0
 163              		.cfi_startproc
 164              		@ args = 0, pretend = 0, frame = 0
 165              		@ frame_needed = 0, uses_anonymous_args = 0
 166 0000 10B5     		push	{r4, lr}
 167              	.LCFI1:
 168              		.cfi_def_cfa_offset 8
 169              		.cfi_offset 4, -8
ARM GAS  C:\Users\DNIEL~1\AppData\Local\Temp\ccxMtG0a.s 			page 4


 170              		.cfi_offset 14, -4
 171              		.loc 1 305 0
 172 0002 40F20004 		movw	r4, #:lower16:.LANCHOR0
 173 0006 C0F20004 		movt	r4, #:upper16:.LANCHOR0
 174 000a 2046     		mov	r0, r4
 175 000c FFF7FEFF 		bl	sdcObjectInit
 176              	.LVL16:
 177              		.loc 1 307 0
 178 0010 0248     		ldr	r0, .L35
 179              		.loc 1 306 0
 180 0012 0023     		movs	r3, #0
 181 0014 E363     		str	r3, [r4, #60]
 182              		.loc 1 307 0
 183 0016 6064     		str	r0, [r4, #68]
 184 0018 10BD     		pop	{r4, pc}
 185              	.L36:
 186 001a 00BF     		.align	2
 187              	.L35:
 188 001c 84000000 		.word	_stm32_dma_streams+132
 189              		.cfi_endproc
 190              	.LFE124:
 191              		.size	sdc_lld_init, .-sdc_lld_init
 192              		.section	.text.sdc_lld_start,"ax",%progbits
 193              		.align	2
 194              		.p2align 4,,15
 195              		.global	sdc_lld_start
 196              		.thumb
 197              		.thumb_func
 198              		.type	sdc_lld_start, %function
 199              	sdc_lld_start:
 200              	.LFB125:
 201              		.loc 1 320 0
 202              		.cfi_startproc
 203              		@ args = 0, pretend = 0, frame = 0
 204              		@ frame_needed = 0, uses_anonymous_args = 0
 205              	.LVL17:
 206              		.loc 1 334 0
 207 0000 0279     		ldrb	r2, [r0, #4]	@ zero_extendqisi2
 208              		.loc 1 329 0
 209 0002 45F22043 		movw	r3, #21536
 210 0006 C0F6A303 		movt	r3, 2211
 211              		.loc 1 334 0
 212 000a 012A     		cmp	r2, #1
 213              		.loc 1 320 0
 214 000c 10B5     		push	{r4, lr}
 215              	.LCFI2:
 216              		.cfi_def_cfa_offset 8
 217              		.cfi_offset 4, -8
 218              		.cfi_offset 14, -4
 219              		.loc 1 320 0
 220 000e 0446     		mov	r4, r0
 221              		.loc 1 329 0
 222 0010 0364     		str	r3, [r0, #64]
 223              		.loc 1 334 0
 224 0012 09D0     		beq	.L39
 225              	.LVL18:
 226              	.L38:
ARM GAS  C:\Users\DNIEL~1\AppData\Local\Temp\ccxMtG0a.s 			page 5


 227              		.loc 1 349 0
 228 0014 4FF43050 		mov	r0, #11264
 229 0018 C4F20100 		movt	r0, 16385
 230 001c 0022     		movs	r2, #0
 231 001e 0260     		str	r2, [r0, #0]
 232              		.loc 1 350 0
 233 0020 4260     		str	r2, [r0, #4]
 234              		.loc 1 351 0
 235 0022 C262     		str	r2, [r0, #44]
 236              		.loc 1 352 0
 237 0024 4262     		str	r2, [r0, #36]
 238 0026 10BD     		pop	{r4, pc}
 239              	.LVL19:
 240              	.L39:
 241              	.LBB7:
 242              		.loc 1 337 0
 243 0028 0022     		movs	r2, #0
 244 002a 1346     		mov	r3, r2
 245 002c 0921     		movs	r1, #9
 246 002e 406C     		ldr	r0, [r0, #68]
 247              	.LVL20:
 248 0030 FFF7FEFF 		bl	dmaStreamAllocate
 249              	.LVL21:
 250              		.loc 1 339 0
 251 0034 606C     		ldr	r0, [r4, #68]
 252 0036 4FF43251 		mov	r1, #11392
 253 003a 0368     		ldr	r3, [r0, #0]
 254 003c C4F20101 		movt	r1, 16385
 255              		.loc 1 341 0
 256 0040 0722     		movs	r2, #7
 257              		.loc 1 339 0
 258 0042 9960     		str	r1, [r3, #8]
 259              		.loc 1 343 0
 260 0044 3120     		movs	r0, #49
 261              		.loc 1 341 0
 262 0046 5A61     		str	r2, [r3, #20]
 263              		.loc 1 343 0
 264 0048 9021     		movs	r1, #144
 265 004a FFF7FEFF 		bl	nvicEnableVector
 266              	.LVL22:
 267              		.loc 1 345 0
 268 004e 4FF46050 		mov	r0, #14336
 269 0052 C4F20200 		movt	r0, 16386
 270 0056 416C     		ldr	r1, [r0, #68]
 271 0058 41F40063 		orr	r3, r1, #2048
 272 005c 4364     		str	r3, [r0, #68]
 273 005e D9E7     		b	.L38
 274              	.LBE7:
 275              		.cfi_endproc
 276              	.LFE125:
 277              		.size	sdc_lld_start, .-sdc_lld_start
 278              		.section	.text.sdc_lld_stop,"ax",%progbits
 279              		.align	2
 280              		.p2align 4,,15
 281              		.global	sdc_lld_stop
 282              		.thumb
 283              		.thumb_func
ARM GAS  C:\Users\DNIEL~1\AppData\Local\Temp\ccxMtG0a.s 			page 6


 284              		.type	sdc_lld_stop, %function
 285              	sdc_lld_stop:
 286              	.LFB126:
 287              		.loc 1 362 0
 288              		.cfi_startproc
 289              		@ args = 0, pretend = 0, frame = 0
 290              		@ frame_needed = 0, uses_anonymous_args = 0
 291              	.LVL23:
 292              		.loc 1 364 0
 293 0000 0379     		ldrb	r3, [r0, #4]	@ zero_extendqisi2
 294 0002 012B     		cmp	r3, #1
 295              		.loc 1 362 0
 296 0004 10B5     		push	{r4, lr}
 297              	.LCFI3:
 298              		.cfi_def_cfa_offset 8
 299              		.cfi_offset 4, -8
 300              		.cfi_offset 14, -4
 301              		.loc 1 362 0
 302 0006 0446     		mov	r4, r0
 303              		.loc 1 364 0
 304 0008 16D0     		beq	.L40
 305              		.loc 1 367 0
 306 000a 4FF43051 		mov	r1, #11264
 307 000e C4F20101 		movt	r1, 16385
 308 0012 0022     		movs	r2, #0
 309 0014 0A60     		str	r2, [r1, #0]
 310              		.loc 1 373 0
 311 0016 3120     		movs	r0, #49
 312              	.LVL24:
 313              		.loc 1 368 0
 314 0018 4A60     		str	r2, [r1, #4]
 315              		.loc 1 369 0
 316 001a CA62     		str	r2, [r1, #44]
 317              		.loc 1 370 0
 318 001c 4A62     		str	r2, [r1, #36]
 319              		.loc 1 373 0
 320 001e FFF7FEFF 		bl	nvicDisableVector
 321              	.LVL25:
 322              		.loc 1 374 0
 323 0022 606C     		ldr	r0, [r4, #68]
 324 0024 FFF7FEFF 		bl	dmaStreamRelease
 325              	.LVL26:
 326              		.loc 1 375 0
 327 0028 4FF46050 		mov	r0, #14336
 328 002c C4F20200 		movt	r0, 16386
 329 0030 436C     		ldr	r3, [r0, #68]
 330 0032 23F40061 		bic	r1, r3, #2048
 331 0036 4164     		str	r1, [r0, #68]
 332              	.L40:
 333 0038 10BD     		pop	{r4, pc}
 334              		.cfi_endproc
 335              	.LFE126:
 336              		.size	sdc_lld_stop, .-sdc_lld_stop
 337 003a 00BFAFF3 		.section	.text.sdc_lld_start_clk,"ax",%progbits
 337      0080
 338              		.align	2
 339              		.p2align 4,,15
ARM GAS  C:\Users\DNIEL~1\AppData\Local\Temp\ccxMtG0a.s 			page 7


 340              		.global	sdc_lld_start_clk
 341              		.thumb
 342              		.thumb_func
 343              		.type	sdc_lld_start_clk, %function
 344              	sdc_lld_start_clk:
 345              	.LFB127:
 346              		.loc 1 386 0
 347              		.cfi_startproc
 348              		@ args = 0, pretend = 0, frame = 0
 349              		@ frame_needed = 0, uses_anonymous_args = 0
 350              		@ link register save eliminated.
 351              	.LVL27:
 352              		.loc 1 391 0
 353 0000 4FF43053 		mov	r3, #11264
 354 0004 C4F20103 		movt	r3, 16385
 355 0008 7822     		movs	r2, #120
 356 000a 5A60     		str	r2, [r3, #4]
 357              		.loc 1 392 0
 358 000c 1868     		ldr	r0, [r3, #0]
 359              	.LVL28:
 360 000e 40F00301 		orr	r1, r0, #3
 361 0012 1960     		str	r1, [r3, #0]
 362              		.loc 1 393 0
 363 0014 5A68     		ldr	r2, [r3, #4]
 364 0016 42F48070 		orr	r0, r2, #256
 365 001a 5860     		str	r0, [r3, #4]
 366              		.loc 1 396 0
 367 001c 0A20     		movs	r0, #10
 368              		.loc 1 397 0
 369              		.loc 1 396 0
 370 001e FFF7FEBF 		b	chThdSleep
 371              	.LVL29:
 372              		.cfi_endproc
 373              	.LFE127:
 374              		.size	sdc_lld_start_clk, .-sdc_lld_start_clk
 375 0022 00BFAFF3 		.section	.text.sdc_lld_set_data_clk,"ax",%progbits
 375      0080AFF3 
 375      0080AFF3 
 375      0080
 376              		.align	2
 377              		.p2align 4,,15
 378              		.global	sdc_lld_set_data_clk
 379              		.thumb
 380              		.thumb_func
 381              		.type	sdc_lld_set_data_clk, %function
 382              	sdc_lld_set_data_clk:
 383              	.LFB128:
 384              		.loc 1 406 0
 385              		.cfi_startproc
 386              		@ args = 0, pretend = 0, frame = 0
 387              		@ frame_needed = 0, uses_anonymous_args = 0
 388              		@ link register save eliminated.
 389              	.LVL30:
 390              		.loc 1 410 0
 391 0000 4FF43053 		mov	r3, #11264
 392 0004 C4F20103 		movt	r3, 16385
 393 0008 5A68     		ldr	r2, [r3, #4]
ARM GAS  C:\Users\DNIEL~1\AppData\Local\Temp\ccxMtG0a.s 			page 8


 394 000a 22F0FF00 		bic	r0, r2, #255
 395              	.LVL31:
 396 000e 5860     		str	r0, [r3, #4]
 397 0010 7047     		bx	lr
 398              		.cfi_endproc
 399              	.LFE128:
 400              		.size	sdc_lld_set_data_clk, .-sdc_lld_set_data_clk
 401 0012 00BFAFF3 		.section	.text.sdc_lld_stop_clk,"ax",%progbits
 401      0080AFF3 
 401      0080AFF3 
 401      0080
 402              		.align	2
 403              		.p2align 4,,15
 404              		.global	sdc_lld_stop_clk
 405              		.thumb
 406              		.thumb_func
 407              		.type	sdc_lld_stop_clk, %function
 408              	sdc_lld_stop_clk:
 409              	.LFB129:
 410              		.loc 1 420 0
 411              		.cfi_startproc
 412              		@ args = 0, pretend = 0, frame = 0
 413              		@ frame_needed = 0, uses_anonymous_args = 0
 414              		@ link register save eliminated.
 415              	.LVL32:
 416              		.loc 1 424 0
 417 0000 4FF43053 		mov	r3, #11264
 418 0004 C4F20103 		movt	r3, 16385
 419 0008 0022     		movs	r2, #0
 420 000a 5A60     		str	r2, [r3, #4]
 421              		.loc 1 425 0
 422 000c 1A60     		str	r2, [r3, #0]
 423 000e 7047     		bx	lr
 424              		.cfi_endproc
 425              	.LFE129:
 426              		.size	sdc_lld_stop_clk, .-sdc_lld_stop_clk
 427              		.section	.text.sdc_lld_set_bus_mode,"ax",%progbits
 428              		.align	2
 429              		.p2align 4,,15
 430              		.global	sdc_lld_set_bus_mode
 431              		.thumb
 432              		.thumb_func
 433              		.type	sdc_lld_set_bus_mode, %function
 434              	sdc_lld_set_bus_mode:
 435              	.LFB130:
 436              		.loc 1 436 0
 437              		.cfi_startproc
 438              		@ args = 0, pretend = 0, frame = 0
 439              		@ frame_needed = 0, uses_anonymous_args = 0
 440              		@ link register save eliminated.
 441              	.LVL33:
 442              		.loc 1 437 0
 443 0000 4FF43053 		mov	r3, #11264
 444 0004 C4F20103 		movt	r3, 16385
 445              		.loc 1 441 0
 446 0008 0129     		cmp	r1, #1
 447              		.loc 1 437 0
ARM GAS  C:\Users\DNIEL~1\AppData\Local\Temp\ccxMtG0a.s 			page 9


 448 000a 5A68     		ldr	r2, [r3, #4]
 449 000c 22F4C050 		bic	r0, r2, #6144
 450              	.LVL34:
 451              		.loc 1 441 0
 452 0010 07D0     		beq	.L51
 453 0012 01D2     		bcs	.L54
 454              	.LVL35:
 455              	.L53:
 456              		.loc 1 449 0
 457 0014 5860     		str	r0, [r3, #4]
 458              	.L48:
 459 0016 7047     		bx	lr
 460              	.LVL36:
 461              	.L54:
 462              		.loc 1 441 0
 463 0018 0229     		cmp	r1, #2
 464 001a FCD1     		bne	.L48
 465              		.loc 1 449 0
 466 001c 40F48050 		orr	r0, r0, #4096
 467              	.LVL37:
 468 0020 F8E7     		b	.L53
 469              	.LVL38:
 470              	.L51:
 471              		.loc 1 446 0
 472 0022 40F40061 		orr	r1, r0, #2048
 473              	.LVL39:
 474 0026 5960     		str	r1, [r3, #4]
 475              		.loc 1 447 0
 476 0028 7047     		bx	lr
 477              		.cfi_endproc
 478              	.LFE130:
 479              		.size	sdc_lld_set_bus_mode, .-sdc_lld_set_bus_mode
 480 002a 00BFAFF3 		.section	.text.sdc_lld_send_cmd_none,"ax",%progbits
 480      0080
 481              		.align	2
 482              		.p2align 4,,15
 483              		.global	sdc_lld_send_cmd_none
 484              		.thumb
 485              		.thumb_func
 486              		.type	sdc_lld_send_cmd_none, %function
 487              	sdc_lld_send_cmd_none:
 488              	.LFB131:
 489              		.loc 1 463 0
 490              		.cfi_startproc
 491              		@ args = 0, pretend = 0, frame = 0
 492              		@ frame_needed = 0, uses_anonymous_args = 0
 493              		@ link register save eliminated.
 494              	.LVL40:
 495              		.loc 1 467 0
 496 0000 4FF43053 		mov	r3, #11264
 497 0004 C4F20103 		movt	r3, 16385
 498              		.loc 1 468 0
 499 0008 41F48061 		orr	r1, r1, #1024
 500              	.LVL41:
 501              		.loc 1 467 0
 502 000c 9A60     		str	r2, [r3, #8]
 503              		.loc 1 469 0
ARM GAS  C:\Users\DNIEL~1\AppData\Local\Temp\ccxMtG0a.s 			page 10


 504 000e 1846     		mov	r0, r3
 505              	.LVL42:
 506              		.loc 1 468 0
 507 0010 D960     		str	r1, [r3, #12]
 508              	.LVL43:
 509              	.L56:
 510              		.loc 1 469 0 discriminator 1
 511 0012 426B     		ldr	r2, [r0, #52]
 512 0014 4FF43053 		mov	r3, #11264
 513 0018 1206     		lsls	r2, r2, #24
 514 001a C4F20103 		movt	r3, 16385
 515 001e F8D5     		bpl	.L56
 516              		.loc 1 471 0
 517 0020 8021     		movs	r1, #128
 518 0022 9963     		str	r1, [r3, #56]
 519 0024 7047     		bx	lr
 520              		.cfi_endproc
 521              	.LFE131:
 522              		.size	sdc_lld_send_cmd_none, .-sdc_lld_send_cmd_none
 523 0026 00BFAFF3 		.section	.text.sdc_lld_send_cmd_short,"ax",%progbits
 523      0080AFF3 
 523      0080
 524              		.align	2
 525              		.p2align 4,,15
 526              		.global	sdc_lld_send_cmd_short
 527              		.thumb
 528              		.thumb_func
 529              		.type	sdc_lld_send_cmd_short, %function
 530              	sdc_lld_send_cmd_short:
 531              	.LFB132:
 532              		.loc 1 490 0
 533              		.cfi_startproc
 534              		@ args = 0, pretend = 0, frame = 0
 535              		@ frame_needed = 0, uses_anonymous_args = 0
 536              	.LVL44:
 537 0000 38B5     		push	{r3, r4, r5, lr}
 538              	.LCFI4:
 539              		.cfi_def_cfa_offset 16
 540              		.cfi_offset 3, -16
 541              		.cfi_offset 4, -12
 542              		.cfi_offset 5, -8
 543              		.cfi_offset 14, -4
 544              		.loc 1 495 0
 545 0002 4FF43055 		mov	r5, #11264
 546 0006 C4F20105 		movt	r5, 16385
 547              		.loc 1 496 0
 548 000a 41F48861 		orr	r1, r1, #1088
 549              	.LVL45:
 550              		.loc 1 495 0
 551 000e AA60     		str	r2, [r5, #8]
 552              		.loc 1 496 0
 553 0010 E960     		str	r1, [r5, #12]
 554              	.LVL46:
 555              	.L62:
 556              		.loc 1 497 0 discriminator 1
 557 0012 696B     		ldr	r1, [r5, #52]
 558              	.LVL47:
ARM GAS  C:\Users\DNIEL~1\AppData\Local\Temp\ccxMtG0a.s 			page 11


 559 0014 4FF43052 		mov	r2, #11264
 560 0018 11F04504 		ands	r4, r1, #69
 561 001c C4F20102 		movt	r2, 16385
 562 0020 F7D0     		beq	.L62
 563              		.loc 1 500 0
 564 0022 9463     		str	r4, [r2, #56]
 565              		.loc 1 501 0
 566 0024 11F00404 		ands	r4, r1, #4
 567 0028 03D1     		bne	.L69
 568              		.loc 1 505 0
 569 002a 5169     		ldr	r1, [r2, #20]
 570              	.LVL48:
 571              		.loc 1 506 0
 572 002c 2046     		mov	r0, r4
 573              	.LVL49:
 574              		.loc 1 505 0
 575 002e 1960     		str	r1, [r3, #0]
 576              		.loc 1 507 0
 577 0030 38BD     		pop	{r3, r4, r5, pc}
 578              	.LVL50:
 579              	.L69:
 580              		.loc 1 502 0
 581 0032 FFF7FEFF 		bl	sdc_lld_collect_errors
 582              	.LVL51:
 583              		.loc 1 503 0
 584 0036 0120     		movs	r0, #1
 585 0038 38BD     		pop	{r3, r4, r5, pc}
 586              		.cfi_endproc
 587              	.LFE132:
 588              		.size	sdc_lld_send_cmd_short, .-sdc_lld_send_cmd_short
 589 003a 00BFAFF3 		.section	.text.sdc_lld_send_cmd_short_crc,"ax",%progbits
 589      0080
 590              		.align	2
 591              		.p2align 4,,15
 592              		.global	sdc_lld_send_cmd_short_crc
 593              		.thumb
 594              		.thumb_func
 595              		.type	sdc_lld_send_cmd_short_crc, %function
 596              	sdc_lld_send_cmd_short_crc:
 597              	.LFB133:
 598              		.loc 1 524 0
 599              		.cfi_startproc
 600              		@ args = 0, pretend = 0, frame = 0
 601              		@ frame_needed = 0, uses_anonymous_args = 0
 602              	.LVL52:
 603 0000 38B5     		push	{r3, r4, r5, lr}
 604              	.LCFI5:
 605              		.cfi_def_cfa_offset 16
 606              		.cfi_offset 3, -16
 607              		.cfi_offset 4, -12
 608              		.cfi_offset 5, -8
 609              		.cfi_offset 14, -4
 610              		.loc 1 529 0
 611 0002 4FF43055 		mov	r5, #11264
 612 0006 C4F20105 		movt	r5, 16385
 613              		.loc 1 530 0
 614 000a 41F48861 		orr	r1, r1, #1088
ARM GAS  C:\Users\DNIEL~1\AppData\Local\Temp\ccxMtG0a.s 			page 12


 615              	.LVL53:
 616              		.loc 1 529 0
 617 000e AA60     		str	r2, [r5, #8]
 618              		.loc 1 530 0
 619 0010 E960     		str	r1, [r5, #12]
 620              	.LVL54:
 621              	.L71:
 622              		.loc 1 531 0 discriminator 1
 623 0012 696B     		ldr	r1, [r5, #52]
 624              	.LVL55:
 625 0014 4FF43052 		mov	r2, #11264
 626 0018 11F04504 		ands	r4, r1, #69
 627 001c C4F20102 		movt	r2, 16385
 628 0020 F7D0     		beq	.L71
 629              		.loc 1 534 0
 630 0022 9463     		str	r4, [r2, #56]
 631              		.loc 1 535 0
 632 0024 11F00504 		ands	r4, r1, #5
 633 0028 03D1     		bne	.L78
 634              		.loc 1 539 0
 635 002a 5169     		ldr	r1, [r2, #20]
 636              	.LVL56:
 637              		.loc 1 540 0
 638 002c 2046     		mov	r0, r4
 639              	.LVL57:
 640              		.loc 1 539 0
 641 002e 1960     		str	r1, [r3, #0]
 642              		.loc 1 541 0
 643 0030 38BD     		pop	{r3, r4, r5, pc}
 644              	.LVL58:
 645              	.L78:
 646              		.loc 1 536 0
 647 0032 FFF7FEFF 		bl	sdc_lld_collect_errors
 648              	.LVL59:
 649              		.loc 1 537 0
 650 0036 0120     		movs	r0, #1
 651 0038 38BD     		pop	{r3, r4, r5, pc}
 652              		.cfi_endproc
 653              	.LFE133:
 654              		.size	sdc_lld_send_cmd_short_crc, .-sdc_lld_send_cmd_short_crc
 655 003a 00BFAFF3 		.section	.text.sdc_lld_wait_transaction_end,"ax",%progbits
 655      0080
 656              		.align	2
 657              		.p2align 4,,15
 658              		.thumb
 659              		.thumb_func
 660              		.type	sdc_lld_wait_transaction_end, %function
 661              	sdc_lld_wait_transaction_end:
 662              	.LFB120:
 663              		.loc 1 157 0
 664              		.cfi_startproc
 665              		@ args = 0, pretend = 0, frame = 0
 666              		@ frame_needed = 0, uses_anonymous_args = 0
 667              	.LVL60:
 668 0000 2DE9F041 		push	{r4, r5, r6, r7, r8, lr}
 669              	.LCFI6:
 670              		.cfi_def_cfa_offset 24
ARM GAS  C:\Users\DNIEL~1\AppData\Local\Temp\ccxMtG0a.s 			page 13


 671              		.cfi_offset 4, -24
 672              		.cfi_offset 5, -20
 673              		.cfi_offset 6, -16
 674              		.cfi_offset 7, -12
 675              		.cfi_offset 8, -8
 676              		.cfi_offset 14, -4
 677              	.LBB16:
 678              		.loc 1 161 0
 679 0004 2023     		movs	r3, #32
 680              	.LVL61:
 681              	.LBE16:
 682              		.loc 1 157 0
 683 0006 0646     		mov	r6, r0
 684 0008 8846     		mov	r8, r1
 685 000a 1746     		mov	r7, r2
 686              	.LBB17:
 687              		.loc 1 161 0
 688              	@ 161 "../../../ChibiOS/os/hal/platforms/STM32/sdc_lld.c" 1
 689 000c 83F31188 		msr     BASEPRI, r3
 690              	@ 0 "" 2
 691              	.LVL62:
 692              		.thumb
 693              	.LBE17:
 694              		.loc 1 162 0
 695 0010 4FF43054 		mov	r4, #11264
 696 0014 C4F20104 		movt	r4, 16385
 697 0018 E36B     		ldr	r3, [r4, #60]
 698              	.LVL63:
 699 001a 002B     		cmp	r3, #0
 700 001c 33D1     		bne	.L89
 701              	.LVL64:
 702              	.L80:
 703              		.loc 1 170 0
 704 001e 4FF43052 		mov	r2, #11264
 705 0022 C4F20102 		movt	r2, 16385
 706 0026 546B     		ldr	r4, [r2, #52]
 707 0028 14F48073 		ands	r3, r4, #256
 708 002c 26D0     		beq	.L90
 709 002e 736C     		ldr	r3, [r6, #68]
 710 0030 1D68     		ldr	r5, [r3, #0]
 711              	.L83:
 712              		.loc 1 177 0 discriminator 1
 713 0032 2C68     		ldr	r4, [r5, #0]
 714 0034 14F00104 		ands	r4, r4, #1
 715 0038 FBD1     		bne	.L83
 716              		.loc 1 181 0
 717 003a 197A     		ldrb	r1, [r3, #8]	@ zero_extendqisi2
 718 003c 5B68     		ldr	r3, [r3, #4]
 719              		.loc 1 183 0
 720 003e 4FF43055 		mov	r5, #11264
 721 0042 C4F20105 		movt	r5, 16385
 722              		.loc 1 181 0
 723 0046 3D20     		movs	r0, #61
 724              		.loc 1 183 0
 725 0048 40F2FF72 		movw	r2, #2047
 726              		.loc 1 181 0
 727 004c 00FA01F1 		lsl	r1, r0, r1
ARM GAS  C:\Users\DNIEL~1\AppData\Local\Temp\ccxMtG0a.s 			page 14


 728              		.loc 1 183 0
 729 0050 C0F2C002 		movt	r2, 192
 730              		.loc 1 181 0
 731 0054 1960     		str	r1, [r3, #0]
 732              		.loc 1 183 0
 733 0056 AA63     		str	r2, [r5, #56]
 734              	.LBB18:
 735              		.loc 1 185 0
 736 0058 2346     		mov	r3, r4
 737              	.LVL65:
 738              	.LBE18:
 739              		.loc 1 184 0
 740 005a EC62     		str	r4, [r5, #44]
 741              	.LBB19:
 742              		.loc 1 185 0
 743              	@ 185 "../../../ChibiOS/os/hal/platforms/STM32/sdc_lld.c" 1
 744 005c 83F31188 		msr     BASEPRI, r3
 745              	@ 0 "" 2
 746              	.LVL66:
 747              		.thumb
 748              	.LBE19:
 749              		.loc 1 201 0
 750 0060 B8F1010F 		cmp	r8, #1
 751 0064 07D9     		bls	.L84
 752              	.LVL67:
 753              	.LBB20:
 754              	.LBB21:
 755              		.loc 1 202 0
 756 0066 3046     		mov	r0, r6
 757 0068 0C21     		movs	r1, #12
 758 006a 2246     		mov	r2, r4
 759 006c 3B46     		mov	r3, r7
 760              	.LVL68:
 761              	.LBE21:
 762              	.LBE20:
 763              		.loc 1 205 0
 764 006e BDE8F041 		pop	{r4, r5, r6, r7, r8, lr}
 765              	.LBB23:
 766              	.LBB22:
 767              		.loc 1 202 0
 768 0072 FFF7FEBF 		b	sdc_lld_send_cmd_short_crc
 769              	.LVL69:
 770              	.L84:
 771              	.LBE22:
 772              	.LBE23:
 773              		.loc 1 204 0
 774 0076 2046     		mov	r0, r4
 775              		.loc 1 205 0
 776 0078 BDE8F081 		pop	{r4, r5, r6, r7, r8, pc}
 777              	.LVL70:
 778              	.L90:
 779              	.LBB24:
 780              		.loc 1 171 0
 781              	@ 171 "../../../ChibiOS/os/hal/platforms/STM32/sdc_lld.c" 1
 782 007c 83F31188 		msr     BASEPRI, r3
 783              	@ 0 "" 2
 784              	.LVL71:
ARM GAS  C:\Users\DNIEL~1\AppData\Local\Temp\ccxMtG0a.s 			page 15


 785              		.thumb
 786              	.LBE24:
 787              		.loc 1 172 0
 788 0080 0120     		movs	r0, #1
 789 0082 BDE8F081 		pop	{r4, r5, r6, r7, r8, pc}
 790              	.LVL72:
 791              	.L89:
 792              		.loc 1 165 0
 793 0086 0348     		ldr	r0, .L91
 794              	.LVL73:
 795 0088 8169     		ldr	r1, [r0, #24]
 796              	.LVL74:
 797              		.loc 1 166 0
 798 008a 0220     		movs	r0, #2
 799              		.loc 1 165 0
 800 008c F163     		str	r1, [r6, #60]
 801              		.loc 1 166 0
 802 008e FFF7FEFF 		bl	chSchGoSleepS
 803              	.LVL75:
 804 0092 C4E7     		b	.L80
 805              	.L92:
 806              		.align	2
 807              	.L91:
 808 0094 00000000 		.word	rlist
 809              		.cfi_endproc
 810              	.LFE120:
 811              		.size	sdc_lld_wait_transaction_end, .-sdc_lld_wait_transaction_end
 812 0098 AFF30080 		.section	.text.sdc_lld_error_cleanup,"ax",%progbits
 812      AFF30080 
 813              		.align	2
 814              		.p2align 4,,15
 815              		.thumb
 816              		.thumb_func
 817              		.type	sdc_lld_error_cleanup, %function
 818              	sdc_lld_error_cleanup:
 819              	.LFB122:
 820              		.loc 1 247 0
 821              		.cfi_startproc
 822              		@ args = 0, pretend = 0, frame = 0
 823              		@ frame_needed = 0, uses_anonymous_args = 0
 824              	.LVL76:
 825 0000 2DE9F047 		push	{r4, r5, r6, r7, r8, r9, sl, lr}
 826              	.LCFI7:
 827              		.cfi_def_cfa_offset 32
 828              		.cfi_offset 4, -32
 829              		.cfi_offset 5, -28
 830              		.cfi_offset 6, -24
 831              		.cfi_offset 7, -20
 832              		.cfi_offset 8, -16
 833              		.cfi_offset 9, -12
 834              		.cfi_offset 10, -8
 835              		.cfi_offset 14, -4
 836              		.loc 1 250 0
 837 0004 466C     		ldr	r6, [r0, #68]
 838              		.loc 1 248 0
 839 0006 4FF43053 		mov	r3, #11264
 840              		.loc 1 250 0
ARM GAS  C:\Users\DNIEL~1\AppData\Local\Temp\ccxMtG0a.s 			page 16


 841 000a 347A     		ldrb	r4, [r6, #8]	@ zero_extendqisi2
 842              		.loc 1 251 0
 843 000c 3568     		ldr	r5, [r6, #0]
 844              		.loc 1 248 0
 845 000e C4F20103 		movt	r3, 16385
 846              		.loc 1 247 0
 847 0012 0746     		mov	r7, r0
 848              		.loc 1 250 0
 849 0014 4FF03D0E 		mov	lr, #61
 850 0018 7068     		ldr	r0, [r6, #4]
 851              	.LVL77:
 852              		.loc 1 248 0
 853 001a D3F834C0 		ldr	ip, [r3, #52]
 854              	.LVL78:
 855              		.loc 1 250 0
 856 001e 0EFA04F4 		lsl	r4, lr, r4
 857 0022 0460     		str	r4, [r0, #0]
 858              		.loc 1 251 0
 859 0024 2B68     		ldr	r3, [r5, #0]
 860 0026 23F01F04 		bic	r4, r3, #31
 861              		.loc 1 247 0
 862 002a 8946     		mov	r9, r1
 863 002c 9046     		mov	r8, r2
 864              		.loc 1 251 0
 865 002e 2C60     		str	r4, [r5, #0]
 866              	.LVL79:
 867              	.L94:
 868              		.loc 1 251 0 is_stmt 0 discriminator 1
 869 0030 2968     		ldr	r1, [r5, #0]
 870 0032 11F00104 		ands	r4, r1, #1
 871 0036 FBD1     		bne	.L94
 872              		.loc 1 251 0 discriminator 2
 873 0038 327A     		ldrb	r2, [r6, #8]	@ zero_extendqisi2
 874              	.LVL80:
 875              		.loc 1 252 0 is_stmt 1 discriminator 2
 876 003a 4FF43055 		mov	r5, #11264
 877 003e C4F20105 		movt	r5, 16385
 878              		.loc 1 251 0 discriminator 2
 879 0042 3D21     		movs	r1, #61
 880              		.loc 1 252 0 discriminator 2
 881 0044 40F2FF73 		movw	r3, #2047
 882              		.loc 1 251 0 discriminator 2
 883 0048 01FA02F2 		lsl	r2, r1, r2
 884              		.loc 1 252 0 discriminator 2
 885 004c C0F2C003 		movt	r3, 192
 886              		.loc 1 251 0 discriminator 2
 887 0050 0260     		str	r2, [r0, #0]
 888              		.loc 1 255 0 discriminator 2
 889 0052 6146     		mov	r1, ip
 890              		.loc 1 252 0 discriminator 2
 891 0054 AB63     		str	r3, [r5, #56]
 892              		.loc 1 255 0 discriminator 2
 893 0056 3846     		mov	r0, r7
 894              		.loc 1 253 0 discriminator 2
 895 0058 EC63     		str	r4, [r5, #60]
 896              		.loc 1 254 0 discriminator 2
 897 005a EC62     		str	r4, [r5, #44]
ARM GAS  C:\Users\DNIEL~1\AppData\Local\Temp\ccxMtG0a.s 			page 17


 898              		.loc 1 255 0 discriminator 2
 899 005c FFF7FEFF 		bl	sdc_lld_collect_errors
 900              	.LVL81:
 901              		.loc 1 256 0 discriminator 2
 902 0060 B9F1010F 		cmp	r9, #1
 903 0064 07D9     		bls	.L93
 904              	.LVL82:
 905              	.LBB27:
 906              	.LBB28:
 907              		.loc 1 257 0
 908 0066 3846     		mov	r0, r7
 909 0068 0C21     		movs	r1, #12
 910 006a 2246     		mov	r2, r4
 911 006c 4346     		mov	r3, r8
 912              	.LBE28:
 913              	.LBE27:
 914              		.loc 1 258 0
 915 006e BDE8F047 		pop	{r4, r5, r6, r7, r8, r9, sl, lr}
 916              	.LBB30:
 917              	.LBB29:
 918              		.loc 1 257 0
 919 0072 FFF7FEBF 		b	sdc_lld_send_cmd_short_crc
 920              	.LVL83:
 921              	.L93:
 922 0076 BDE8F087 		pop	{r4, r5, r6, r7, r8, r9, sl, pc}
 923              	.LBE29:
 924              	.LBE30:
 925              		.cfi_endproc
 926              	.LFE122:
 927              		.size	sdc_lld_error_cleanup, .-sdc_lld_error_cleanup
 928 007a 00BFAFF3 		.section	.text.sdc_lld_send_cmd_long_crc,"ax",%progbits
 928      0080
 929              		.align	2
 930              		.p2align 4,,15
 931              		.global	sdc_lld_send_cmd_long_crc
 932              		.thumb
 933              		.thumb_func
 934              		.type	sdc_lld_send_cmd_long_crc, %function
 935              	sdc_lld_send_cmd_long_crc:
 936              	.LFB134:
 937              		.loc 1 558 0
 938              		.cfi_startproc
 939              		@ args = 0, pretend = 0, frame = 0
 940              		@ frame_needed = 0, uses_anonymous_args = 0
 941              	.LVL84:
 942 0000 38B5     		push	{r3, r4, r5, lr}
 943              	.LCFI8:
 944              		.cfi_def_cfa_offset 16
 945              		.cfi_offset 3, -16
 946              		.cfi_offset 4, -12
 947              		.cfi_offset 5, -8
 948              		.cfi_offset 14, -4
 949              		.loc 1 563 0
 950 0002 4FF43055 		mov	r5, #11264
 951 0006 C4F20105 		movt	r5, 16385
 952              		.loc 1 564 0
 953 000a 41F49861 		orr	r1, r1, #1216
ARM GAS  C:\Users\DNIEL~1\AppData\Local\Temp\ccxMtG0a.s 			page 18


 954              	.LVL85:
 955              		.loc 1 563 0
 956 000e AA60     		str	r2, [r5, #8]
 957              		.loc 1 564 0
 958 0010 E960     		str	r1, [r5, #12]
 959              	.LVL86:
 960              	.L98:
 961              		.loc 1 566 0 discriminator 1
 962 0012 696B     		ldr	r1, [r5, #52]
 963              	.LVL87:
 964 0014 4FF43052 		mov	r2, #11264
 965 0018 11F04504 		ands	r4, r1, #69
 966 001c C4F20102 		movt	r2, 16385
 967 0020 F7D0     		beq	.L98
 968              		.loc 1 569 0
 969 0022 9463     		str	r4, [r2, #56]
 970              		.loc 1 570 0
 971 0024 11F03F04 		ands	r4, r1, #63
 972 0028 09D1     		bne	.L105
 973              		.loc 1 575 0
 974 002a 106A     		ldr	r0, [r2, #32]
 975              	.LVL88:
 976 002c 1860     		str	r0, [r3, #0]
 977              	.LVL89:
 978              		.loc 1 576 0
 979 002e D169     		ldr	r1, [r2, #28]
 980              	.LVL90:
 981 0030 5960     		str	r1, [r3, #4]
 982              	.LVL91:
 983              		.loc 1 577 0
 984 0032 9069     		ldr	r0, [r2, #24]
 985 0034 9860     		str	r0, [r3, #8]
 986              	.LVL92:
 987              		.loc 1 578 0
 988 0036 5269     		ldr	r2, [r2, #20]
 989              		.loc 1 579 0
 990 0038 2046     		mov	r0, r4
 991              		.loc 1 578 0
 992 003a DA60     		str	r2, [r3, #12]
 993              		.loc 1 580 0
 994 003c 38BD     		pop	{r3, r4, r5, pc}
 995              	.LVL93:
 996              	.L105:
 997              		.loc 1 571 0
 998 003e FFF7FEFF 		bl	sdc_lld_collect_errors
 999              	.LVL94:
 1000              		.loc 1 572 0
 1001 0042 0120     		movs	r0, #1
 1002 0044 38BD     		pop	{r3, r4, r5, pc}
 1003              		.cfi_endproc
 1004              	.LFE134:
 1005              		.size	sdc_lld_send_cmd_long_crc, .-sdc_lld_send_cmd_long_crc
 1006 0046 00BFAFF3 		.section	.text.sdc_lld_read_aligned,"ax",%progbits
 1006      0080AFF3 
 1006      0080
 1007              		.align	2
 1008              		.p2align 4,,15
ARM GAS  C:\Users\DNIEL~1\AppData\Local\Temp\ccxMtG0a.s 			page 19


 1009              		.global	sdc_lld_read_aligned
 1010              		.thumb
 1011              		.thumb_func
 1012              		.type	sdc_lld_read_aligned, %function
 1013              	sdc_lld_read_aligned:
 1014              	.LFB135:
 1015              		.loc 1 597 0
 1016              		.cfi_startproc
 1017              		@ args = 0, pretend = 0, frame = 8
 1018              		@ frame_needed = 0, uses_anonymous_args = 0
 1019              	.LVL95:
 1020 0000 2DE9F041 		push	{r4, r5, r6, r7, r8, lr}
 1021              	.LCFI9:
 1022              		.cfi_def_cfa_offset 24
 1023              		.cfi_offset 4, -24
 1024              		.cfi_offset 5, -20
 1025              		.cfi_offset 6, -16
 1026              		.cfi_offset 7, -12
 1027              		.cfi_offset 8, -8
 1028              		.cfi_offset 14, -4
 1029              		.loc 1 602 0
 1030 0004 4FF43054 		mov	r4, #11264
 1031 0008 C4F20104 		movt	r4, 16385
 1032 000c 4FF41F55 		mov	r5, #10176
 1033 0010 C0F20905 		movt	r5, 9
 1034              		.loc 1 597 0
 1035 0014 82B0     		sub	sp, sp, #8
 1036              	.LCFI10:
 1037              		.cfi_def_cfa_offset 32
 1038              		.loc 1 602 0
 1039 0016 6562     		str	r5, [r4, #36]
 1040              		.loc 1 597 0
 1041 0018 0F46     		mov	r7, r1
 1042 001a 0546     		mov	r5, r0
 1043 001c 9046     		mov	r8, r2
 1044 001e 1E46     		mov	r6, r3
 1045              		.loc 1 605 0
 1046 0020 FFF7FEFF 		bl	_sdc_wait_for_transfer_state
 1047              	.LVL96:
 1048 0024 18B1     		cbz	r0, .L117
 1049              		.loc 1 606 0
 1050 0026 0120     		movs	r0, #1
 1051              	.LVL97:
 1052              	.L115:
 1053              		.loc 1 642 0
 1054 0028 02B0     		add	sp, sp, #8
 1055 002a BDE8F081 		pop	{r4, r5, r6, r7, r8, pc}
 1056              	.LVL98:
 1057              	.L117:
 1058              	.LBB35:
 1059              	.LBB36:
 1060              		.loc 1 609 0
 1061 002e 6B6C     		ldr	r3, [r5, #68]
 1062              		.loc 1 612 0
 1063 0030 2A6C     		ldr	r2, [r5, #64]
 1064              		.loc 1 609 0
 1065 0032 1868     		ldr	r0, [r3, #0]
ARM GAS  C:\Users\DNIEL~1\AppData\Local\Temp\ccxMtG0a.s 			page 20


 1066              		.loc 1 610 0
 1067 0034 7302     		lsls	r3, r6, #9
 1068 0036 9908     		lsrs	r1, r3, #2
 1069              		.loc 1 609 0
 1070 0038 C0F80C80 		str	r8, [r0, #12]
 1071              		.loc 1 610 0
 1072 003c 4160     		str	r1, [r0, #4]
 1073              		.loc 1 612 0
 1074 003e 0260     		str	r2, [r0, #0]
 1075              		.loc 1 613 0
 1076 0040 0168     		ldr	r1, [r0, #0]
 1077              		.loc 1 616 0
 1078 0042 40F2FF72 		movw	r2, #2047
 1079              		.loc 1 613 0
 1080 0046 41F00101 		orr	r1, r1, #1
 1081 004a 0160     		str	r1, [r0, #0]
 1082              		.loc 1 616 0
 1083 004c C0F2C002 		movt	r2, 192
 1084              		.loc 1 617 0
 1085 0050 40F22A30 		movw	r0, #810
 1086              		.loc 1 616 0
 1087 0054 A263     		str	r2, [r4, #56]
 1088              		.loc 1 617 0
 1089 0056 E063     		str	r0, [r4, #60]
 1090              		.loc 1 622 0
 1091 0058 A362     		str	r3, [r4, #40]
 1092              		.loc 1 625 0
 1093 005a 9B23     		movs	r3, #155
 1094 005c E362     		str	r3, [r4, #44]
 1095              	.LVL99:
 1096              	.LBB37:
 1097              	.LBB38:
 1098              		.loc 1 88 0
 1099 005e 2C6B     		ldr	r4, [r5, #48]
 1100 0060 E306     		lsls	r3, r4, #27
 1101              		.loc 1 89 0
 1102 0062 58BF     		it	pl
 1103 0064 7F02     		lslpl	r7, r7, #9
 1104              	.LVL100:
 1105              		.loc 1 91 0
 1106 0066 012E     		cmp	r6, #1
 1107              		.loc 1 632 0
 1108 0068 01AC     		add	r4, sp, #4
 1109              	.LVL101:
 1110              		.loc 1 93 0
 1111 006a 2846     		mov	r0, r5
 1112              		.loc 1 91 0
 1113 006c 1AD9     		bls	.L109
 1114              	.LVL102:
 1115              		.loc 1 93 0
 1116 006e 1221     		movs	r1, #18
 1117 0070 3A46     		mov	r2, r7
 1118 0072 2346     		mov	r3, r4
 1119 0074 FFF7FEFF 		bl	sdc_lld_send_cmd_short_crc
 1120              	.LVL103:
 1121 0078 68B9     		cbnz	r0, .L112
 1122              	.L116:
ARM GAS  C:\Users\DNIEL~1\AppData\Local\Temp\ccxMtG0a.s 			page 21


 1123              		.loc 1 100 0
 1124 007a 4EF20801 		movw	r1, #57352
 1125 007e 019A     		ldr	r2, [sp, #4]
 1126 0080 CFF6FF51 		movt	r1, 65023
 1127 0084 1140     		ands	r1, r1, r2
 1128 0086 31B9     		cbnz	r1, .L112
 1129              	.LBE38:
 1130              	.LBE37:
 1131              		.loc 1 634 0
 1132 0088 2846     		mov	r0, r5
 1133 008a 3146     		mov	r1, r6
 1134 008c 2246     		mov	r2, r4
 1135 008e FFF7FEFF 		bl	sdc_lld_wait_transaction_end
 1136              	.LVL104:
 1137 0092 0028     		cmp	r0, #0
 1138 0094 C8D0     		beq	.L115
 1139              	.L112:
 1140              		.loc 1 640 0
 1141 0096 2846     		mov	r0, r5
 1142 0098 3146     		mov	r1, r6
 1143 009a 2246     		mov	r2, r4
 1144 009c FFF7FEFF 		bl	sdc_lld_error_cleanup
 1145              	.LVL105:
 1146              		.loc 1 641 0
 1147 00a0 0120     		movs	r0, #1
 1148 00a2 C1E7     		b	.L115
 1149              	.LVL106:
 1150              	.L109:
 1151              	.LBB40:
 1152              	.LBB39:
 1153              		.loc 1 99 0
 1154 00a4 1121     		movs	r1, #17
 1155 00a6 3A46     		mov	r2, r7
 1156 00a8 2346     		mov	r3, r4
 1157 00aa FFF7FEFF 		bl	sdc_lld_send_cmd_short_crc
 1158              	.LVL107:
 1159 00ae 0028     		cmp	r0, #0
 1160 00b0 E3D0     		beq	.L116
 1161 00b2 F0E7     		b	.L112
 1162              	.LBE39:
 1163              	.LBE40:
 1164              	.LBE36:
 1165              	.LBE35:
 1166              		.cfi_endproc
 1167              	.LFE135:
 1168              		.size	sdc_lld_read_aligned, .-sdc_lld_read_aligned
 1169 00b4 AFF30080 		.section	.text.sdc_lld_write_aligned,"ax",%progbits
 1169      AFF30080 
 1169      AFF30080 
 1170              		.align	2
 1171              		.p2align 4,,15
 1172              		.global	sdc_lld_write_aligned
 1173              		.thumb
 1174              		.thumb_func
 1175              		.type	sdc_lld_write_aligned, %function
 1176              	sdc_lld_write_aligned:
 1177              	.LFB136:
ARM GAS  C:\Users\DNIEL~1\AppData\Local\Temp\ccxMtG0a.s 			page 22


 1178              		.loc 1 659 0
 1179              		.cfi_startproc
 1180              		@ args = 0, pretend = 0, frame = 8
 1181              		@ frame_needed = 0, uses_anonymous_args = 0
 1182              	.LVL108:
 1183 0000 2DE9F041 		push	{r4, r5, r6, r7, r8, lr}
 1184              	.LCFI11:
 1185              		.cfi_def_cfa_offset 24
 1186              		.cfi_offset 4, -24
 1187              		.cfi_offset 5, -20
 1188              		.cfi_offset 6, -16
 1189              		.cfi_offset 7, -12
 1190              		.cfi_offset 8, -8
 1191              		.cfi_offset 14, -4
 1192              		.loc 1 664 0
 1193 0004 4FF43054 		mov	r4, #11264
 1194 0008 C4F20104 		movt	r4, 16385
 1195 000c 48F68055 		movw	r5, #36224
 1196 0010 C0F25B05 		movt	r5, 91
 1197              		.loc 1 659 0
 1198 0014 82B0     		sub	sp, sp, #8
 1199              	.LCFI12:
 1200              		.cfi_def_cfa_offset 32
 1201              		.loc 1 664 0
 1202 0016 6562     		str	r5, [r4, #36]
 1203              		.loc 1 659 0
 1204 0018 0F46     		mov	r7, r1
 1205 001a 0546     		mov	r5, r0
 1206 001c 9046     		mov	r8, r2
 1207 001e 1E46     		mov	r6, r3
 1208              		.loc 1 667 0
 1209 0020 FFF7FEFF 		bl	_sdc_wait_for_transfer_state
 1210              	.LVL109:
 1211 0024 18B1     		cbz	r0, .L129
 1212              		.loc 1 668 0
 1213 0026 0120     		movs	r0, #1
 1214              	.LVL110:
 1215              	.L127:
 1216              		.loc 1 703 0
 1217 0028 02B0     		add	sp, sp, #8
 1218 002a BDE8F081 		pop	{r4, r5, r6, r7, r8, pc}
 1219              	.LVL111:
 1220              	.L129:
 1221              	.LBB45:
 1222              	.LBB46:
 1223              		.loc 1 671 0
 1224 002e 6B6C     		ldr	r3, [r5, #68]
 1225              		.loc 1 674 0
 1226 0030 2A6C     		ldr	r2, [r5, #64]
 1227              		.loc 1 671 0
 1228 0032 1868     		ldr	r0, [r3, #0]
 1229              		.loc 1 672 0
 1230 0034 7302     		lsls	r3, r6, #9
 1231 0036 9908     		lsrs	r1, r3, #2
 1232              		.loc 1 674 0
 1233 0038 42F04002 		orr	r2, r2, #64
 1234              		.loc 1 671 0
ARM GAS  C:\Users\DNIEL~1\AppData\Local\Temp\ccxMtG0a.s 			page 23


 1235 003c C0F80C80 		str	r8, [r0, #12]
 1236              		.loc 1 672 0
 1237 0040 4160     		str	r1, [r0, #4]
 1238              		.loc 1 674 0
 1239 0042 0260     		str	r2, [r0, #0]
 1240              		.loc 1 675 0
 1241 0044 0168     		ldr	r1, [r0, #0]
 1242              		.loc 1 678 0
 1243 0046 40F2FF72 		movw	r2, #2047
 1244              		.loc 1 675 0
 1245 004a 41F00101 		orr	r1, r1, #1
 1246 004e 0160     		str	r1, [r0, #0]
 1247              		.loc 1 678 0
 1248 0050 C0F2C002 		movt	r2, 192
 1249              		.loc 1 679 0
 1250 0054 40F21A30 		movw	r0, #794
 1251              		.loc 1 678 0
 1252 0058 A263     		str	r2, [r4, #56]
 1253              		.loc 1 679 0
 1254 005a E063     		str	r0, [r4, #60]
 1255              		.loc 1 684 0
 1256 005c A362     		str	r3, [r4, #40]
 1257              	.LVL112:
 1258              	.LBB47:
 1259              	.LBB48:
 1260              		.loc 1 126 0
 1261 005e 2C6B     		ldr	r4, [r5, #48]
 1262 0060 E306     		lsls	r3, r4, #27
 1263              		.loc 1 127 0
 1264 0062 58BF     		it	pl
 1265 0064 7F02     		lslpl	r7, r7, #9
 1266              	.LVL113:
 1267              		.loc 1 129 0
 1268 0066 012E     		cmp	r6, #1
 1269              		.loc 1 687 0
 1270 0068 01AC     		add	r4, sp, #4
 1271              	.LVL114:
 1272              		.loc 1 131 0
 1273 006a 2846     		mov	r0, r5
 1274              		.loc 1 129 0
 1275 006c 20D9     		bls	.L121
 1276              	.LVL115:
 1277              		.loc 1 131 0
 1278 006e 1921     		movs	r1, #25
 1279 0070 3A46     		mov	r2, r7
 1280 0072 2346     		mov	r3, r4
 1281 0074 FFF7FEFF 		bl	sdc_lld_send_cmd_short_crc
 1282              	.LVL116:
 1283 0078 98B9     		cbnz	r0, .L124
 1284              	.L128:
 1285              		.loc 1 138 0
 1286 007a 4EF20803 		movw	r3, #57352
 1287 007e 019A     		ldr	r2, [sp, #4]
 1288 0080 CFF6FF53 		movt	r3, 65023
 1289 0084 1340     		ands	r3, r3, r2
 1290 0086 63B9     		cbnz	r3, .L124
 1291              	.LBE48:
ARM GAS  C:\Users\DNIEL~1\AppData\Local\Temp\ccxMtG0a.s 			page 24


 1292              	.LBE47:
 1293              		.loc 1 691 0
 1294 0088 4FF43051 		mov	r1, #11264
 1295 008c C4F20101 		movt	r1, 16385
 1296 0090 9920     		movs	r0, #153
 1297 0092 C862     		str	r0, [r1, #44]
 1298              		.loc 1 695 0
 1299 0094 2246     		mov	r2, r4
 1300 0096 2846     		mov	r0, r5
 1301 0098 3146     		mov	r1, r6
 1302 009a FFF7FEFF 		bl	sdc_lld_wait_transaction_end
 1303              	.LVL117:
 1304 009e 0028     		cmp	r0, #0
 1305 00a0 C2D0     		beq	.L127
 1306              	.L124:
 1307              		.loc 1 701 0
 1308 00a2 2846     		mov	r0, r5
 1309 00a4 3146     		mov	r1, r6
 1310 00a6 2246     		mov	r2, r4
 1311 00a8 FFF7FEFF 		bl	sdc_lld_error_cleanup
 1312              	.LVL118:
 1313              		.loc 1 702 0
 1314 00ac 0120     		movs	r0, #1
 1315 00ae BBE7     		b	.L127
 1316              	.LVL119:
 1317              	.L121:
 1318              	.LBB50:
 1319              	.LBB49:
 1320              		.loc 1 137 0
 1321 00b0 1821     		movs	r1, #24
 1322 00b2 3A46     		mov	r2, r7
 1323 00b4 2346     		mov	r3, r4
 1324 00b6 FFF7FEFF 		bl	sdc_lld_send_cmd_short_crc
 1325              	.LVL120:
 1326 00ba 0028     		cmp	r0, #0
 1327 00bc DDD0     		beq	.L128
 1328 00be F0E7     		b	.L124
 1329              	.LBE49:
 1330              	.LBE50:
 1331              	.LBE46:
 1332              	.LBE45:
 1333              		.cfi_endproc
 1334              	.LFE136:
 1335              		.size	sdc_lld_write_aligned, .-sdc_lld_write_aligned
 1336              		.section	.text.sdc_lld_read,"ax",%progbits
 1337              		.align	2
 1338              		.p2align 4,,15
 1339              		.global	sdc_lld_read
 1340              		.thumb
 1341              		.thumb_func
 1342              		.type	sdc_lld_read, %function
 1343              	sdc_lld_read:
 1344              	.LFB137:
 1345              		.loc 1 720 0
 1346              		.cfi_startproc
 1347              		@ args = 0, pretend = 0, frame = 0
 1348              		@ frame_needed = 0, uses_anonymous_args = 0
ARM GAS  C:\Users\DNIEL~1\AppData\Local\Temp\ccxMtG0a.s 			page 25


 1349              	.LVL121:
 1350              		.loc 1 723 0
 1351 0000 12F0030F 		tst	r2, #3
 1352              		.loc 1 720 0
 1353 0004 2DE9F047 		push	{r4, r5, r6, r7, r8, r9, sl, lr}
 1354              	.LCFI13:
 1355              		.cfi_def_cfa_offset 32
 1356              		.cfi_offset 4, -32
 1357              		.cfi_offset 5, -28
 1358              		.cfi_offset 6, -24
 1359              		.cfi_offset 7, -20
 1360              		.cfi_offset 8, -16
 1361              		.cfi_offset 9, -12
 1362              		.cfi_offset 10, -8
 1363              		.cfi_offset 14, -4
 1364              		.loc 1 720 0
 1365 0008 1546     		mov	r5, r2
 1366 000a 8046     		mov	r8, r0
 1367 000c 0C46     		mov	r4, r1
 1368 000e 1E46     		mov	r6, r3
 1369              		.loc 1 723 0
 1370 0010 52D0     		beq	.L131
 1371              	.LVL122:
 1372              	.LBB51:
 1373              		.loc 1 725 0 discriminator 1
 1374 0012 002B     		cmp	r3, #0
 1375 0014 4DD0     		beq	.L135
 1376              		.loc 1 719 0
 1377 0016 03EB0109 		add	r9, r3, r1
 1378 001a CE43     		mvns	r6, r1
 1379 001c 4E44     		add	r6, r6, r9
 1380              		.loc 1 726 0
 1381 001e 0123     		movs	r3, #1
 1382              	.LVL123:
 1383 0020 274A     		ldr	r2, .L147
 1384              	.LVL124:
 1385 0022 1E40     		ands	r6, r6, r3
 1386 0024 FFF7FEFF 		bl	sdc_lld_read_aligned
 1387              	.LVL125:
 1388 0028 0028     		cmp	r0, #0
 1389 002a 3FD1     		bne	.L136
 1390              		.loc 1 728 0
 1391 002c 2846     		mov	r0, r5
 1392 002e 2449     		ldr	r1, .L147
 1393 0030 4FF40072 		mov	r2, #512
 1394              		.loc 1 730 0
 1395 0034 0134     		adds	r4, r4, #1
 1396              	.LVL126:
 1397              		.loc 1 728 0
 1398 0036 FFF7FEFF 		bl	memcpy
 1399              	.LVL127:
 1400              		.loc 1 725 0
 1401 003a 4C45     		cmp	r4, r9
 1402              		.loc 1 729 0
 1403 003c 05F50075 		add	r5, r5, #512
 1404              	.LVL128:
 1405              		.loc 1 725 0
ARM GAS  C:\Users\DNIEL~1\AppData\Local\Temp\ccxMtG0a.s 			page 26


 1406 0040 37D0     		beq	.L135
 1407 0042 2EB3     		cbz	r6, .L134
 1408              		.loc 1 726 0
 1409 0044 4046     		mov	r0, r8
 1410 0046 2146     		mov	r1, r4
 1411 0048 1D4A     		ldr	r2, .L147
 1412 004a 0123     		movs	r3, #1
 1413 004c FFF7FEFF 		bl	sdc_lld_read_aligned
 1414              	.LVL129:
 1415 0050 60BB     		cbnz	r0, .L136
 1416              		.loc 1 728 0
 1417 0052 2846     		mov	r0, r5
 1418 0054 1A49     		ldr	r1, .L147
 1419 0056 4FF40072 		mov	r2, #512
 1420              		.loc 1 730 0
 1421 005a 0134     		adds	r4, r4, #1
 1422              	.LVL130:
 1423              		.loc 1 728 0
 1424 005c FFF7FEFF 		bl	memcpy
 1425              	.LVL131:
 1426              		.loc 1 725 0
 1427 0060 4C45     		cmp	r4, r9
 1428              		.loc 1 729 0
 1429 0062 05F50075 		add	r5, r5, #512
 1430              	.LVL132:
 1431              		.loc 1 725 0
 1432 0066 13D1     		bne	.L134
 1433 0068 23E0     		b	.L135
 1434              	.L146:
 1435              		.loc 1 728 0
 1436 006a 2846     		mov	r0, r5
 1437 006c FFF7FEFF 		bl	memcpy
 1438              	.LVL133:
 1439              		.loc 1 726 0
 1440 0070 3146     		mov	r1, r6
 1441 0072 134A     		ldr	r2, .L147
 1442 0074 0123     		movs	r3, #1
 1443 0076 4046     		mov	r0, r8
 1444 0078 FFF7FEFF 		bl	sdc_lld_read_aligned
 1445              	.LVL134:
 1446              		.loc 1 728 0
 1447 007c 4FF40072 		mov	r2, #512
 1448 0080 0F49     		ldr	r1, .L147
 1449              		.loc 1 729 0
 1450 0082 BD18     		adds	r5, r7, r2
 1451              		.loc 1 726 0
 1452 0084 90B9     		cbnz	r0, .L136
 1453              		.loc 1 728 0
 1454 0086 3846     		mov	r0, r7
 1455 0088 FFF7FEFF 		bl	memcpy
 1456              	.LVL135:
 1457              		.loc 1 725 0
 1458 008c 4C45     		cmp	r4, r9
 1459 008e 10D0     		beq	.L135
 1460              	.L134:
 1461              		.loc 1 726 0
 1462 0090 2146     		mov	r1, r4
ARM GAS  C:\Users\DNIEL~1\AppData\Local\Temp\ccxMtG0a.s 			page 27


 1463 0092 0123     		movs	r3, #1
 1464 0094 0A4A     		ldr	r2, .L147
 1465              		.loc 1 730 0
 1466 0096 661C     		adds	r6, r4, #1
 1467              		.loc 1 726 0
 1468 0098 4046     		mov	r0, r8
 1469              		.loc 1 730 0
 1470 009a F418     		adds	r4, r6, r3
 1471              		.loc 1 726 0
 1472 009c FFF7FEFF 		bl	sdc_lld_read_aligned
 1473              	.LVL136:
 1474              		.loc 1 728 0
 1475 00a0 4FF40072 		mov	r2, #512
 1476 00a4 0649     		ldr	r1, .L147
 1477              		.loc 1 729 0
 1478 00a6 AF18     		adds	r7, r5, r2
 1479              		.loc 1 726 0
 1480 00a8 0028     		cmp	r0, #0
 1481 00aa DED0     		beq	.L146
 1482              	.L136:
 1483              		.loc 1 727 0
 1484 00ac 0120     		movs	r0, #1
 1485              	.LBE51:
 1486              		.loc 1 736 0
 1487 00ae BDE8F087 		pop	{r4, r5, r6, r7, r8, r9, sl, pc}
 1488              	.L135:
 1489              	.LBB52:
 1490              		.loc 1 732 0
 1491 00b2 0020     		movs	r0, #0
 1492 00b4 BDE8F087 		pop	{r4, r5, r6, r7, r8, r9, sl, pc}
 1493              	.LVL137:
 1494              	.L131:
 1495              	.LBE52:
 1496              		.loc 1 736 0
 1497 00b8 BDE8F047 		pop	{r4, r5, r6, r7, r8, r9, sl, lr}
 1498              		.loc 1 735 0
 1499 00bc FFF7FEBF 		b	sdc_lld_read_aligned
 1500              	.LVL138:
 1501              	.L148:
 1502              		.align	2
 1503              	.L147:
 1504 00c0 00000000 		.word	.LANCHOR1
 1505              		.cfi_endproc
 1506              	.LFE137:
 1507              		.size	sdc_lld_read, .-sdc_lld_read
 1508 00c4 AFF30080 		.section	.text.sdc_lld_write,"ax",%progbits
 1508      AFF30080 
 1508      AFF30080 
 1509              		.align	2
 1510              		.p2align 4,,15
 1511              		.global	sdc_lld_write
 1512              		.thumb
 1513              		.thumb_func
 1514              		.type	sdc_lld_write, %function
 1515              	sdc_lld_write:
 1516              	.LFB138:
 1517              		.loc 1 753 0
ARM GAS  C:\Users\DNIEL~1\AppData\Local\Temp\ccxMtG0a.s 			page 28


 1518              		.cfi_startproc
 1519              		@ args = 0, pretend = 0, frame = 0
 1520              		@ frame_needed = 0, uses_anonymous_args = 0
 1521              	.LVL139:
 1522              		.loc 1 756 0
 1523 0000 12F0030F 		tst	r2, #3
 1524              		.loc 1 753 0
 1525 0004 2DE9F041 		push	{r4, r5, r6, r7, r8, lr}
 1526              	.LCFI14:
 1527              		.cfi_def_cfa_offset 24
 1528              		.cfi_offset 4, -24
 1529              		.cfi_offset 5, -20
 1530              		.cfi_offset 6, -16
 1531              		.cfi_offset 7, -12
 1532              		.cfi_offset 8, -8
 1533              		.cfi_offset 14, -4
 1534              		.loc 1 753 0
 1535 0008 1546     		mov	r5, r2
 1536 000a 0746     		mov	r7, r0
 1537 000c 0C46     		mov	r4, r1
 1538 000e 1E46     		mov	r6, r3
 1539              		.loc 1 756 0
 1540 0010 57D0     		beq	.L150
 1541              	.LVL140:
 1542              	.LBB53:
 1543              		.loc 1 758 0 discriminator 1
 1544 0012 002B     		cmp	r3, #0
 1545 0014 52D0     		beq	.L154
 1546              		.loc 1 752 0
 1547 0016 03EB0108 		add	r8, r3, r1
 1548              		.loc 1 759 0
 1549 001a 2C48     		ldr	r0, .L166
 1550              	.LVL141:
 1551 001c CB43     		mvns	r3, r1
 1552              	.LVL142:
 1553 001e 1146     		mov	r1, r2
 1554              	.LVL143:
 1555 0020 4FF40072 		mov	r2, #512
 1556              	.LVL144:
 1557 0024 03EB0806 		add	r6, r3, r8
 1558              	.LVL145:
 1559 0028 FFF7FEFF 		bl	memcpy
 1560              	.LVL146:
 1561              		.loc 1 761 0
 1562 002c 3846     		mov	r0, r7
 1563 002e 2146     		mov	r1, r4
 1564 0030 264A     		ldr	r2, .L166
 1565 0032 0123     		movs	r3, #1
 1566 0034 06F00106 		and	r6, r6, #1
 1567              		.loc 1 760 0
 1568 0038 05F50075 		add	r5, r5, #512
 1569              	.LVL147:
 1570              		.loc 1 761 0
 1571 003c FFF7FEFF 		bl	sdc_lld_write_aligned
 1572              	.LVL148:
 1573 0040 0028     		cmp	r0, #0
 1574 0042 38D1     		bne	.L155
ARM GAS  C:\Users\DNIEL~1\AppData\Local\Temp\ccxMtG0a.s 			page 29


 1575              		.loc 1 763 0
 1576 0044 0134     		adds	r4, r4, #1
 1577              	.LVL149:
 1578              		.loc 1 758 0
 1579 0046 4445     		cmp	r4, r8
 1580 0048 38D0     		beq	.L154
 1581 004a F6B1     		cbz	r6, .L153
 1582              		.loc 1 759 0
 1583 004c 2946     		mov	r1, r5
 1584 004e 4FF40072 		mov	r2, #512
 1585 0052 1E48     		ldr	r0, .L166
 1586 0054 FFF7FEFF 		bl	memcpy
 1587              	.LVL150:
 1588              		.loc 1 761 0
 1589 0058 3846     		mov	r0, r7
 1590 005a 2146     		mov	r1, r4
 1591 005c 1B4A     		ldr	r2, .L166
 1592 005e 0123     		movs	r3, #1
 1593              		.loc 1 760 0
 1594 0060 05F50075 		add	r5, r5, #512
 1595              		.loc 1 761 0
 1596 0064 FFF7FEFF 		bl	sdc_lld_write_aligned
 1597              	.LVL151:
 1598 0068 28BB     		cbnz	r0, .L155
 1599              		.loc 1 763 0
 1600 006a 0134     		adds	r4, r4, #1
 1601              	.LVL152:
 1602              		.loc 1 758 0
 1603 006c 4445     		cmp	r4, r8
 1604 006e 0CD1     		bne	.L153
 1605 0070 24E0     		b	.L154
 1606              	.L165:
 1607              		.loc 1 759 0
 1608 0072 1648     		ldr	r0, .L166
 1609 0074 FFF7FEFF 		bl	memcpy
 1610              	.LVL153:
 1611              		.loc 1 761 0
 1612 0078 3846     		mov	r0, r7
 1613 007a 3146     		mov	r1, r6
 1614 007c 134A     		ldr	r2, .L166
 1615 007e 0123     		movs	r3, #1
 1616 0080 FFF7FEFF 		bl	sdc_lld_write_aligned
 1617              	.LVL154:
 1618 0084 B8B9     		cbnz	r0, .L155
 1619              		.loc 1 758 0
 1620 0086 4445     		cmp	r4, r8
 1621 0088 18D0     		beq	.L154
 1622              	.L153:
 1623              		.loc 1 759 0
 1624 008a 2946     		mov	r1, r5
 1625 008c 4FF40072 		mov	r2, #512
 1626 0090 0E48     		ldr	r0, .L166
 1627 0092 FFF7FEFF 		bl	memcpy
 1628              	.LVL155:
 1629              		.loc 1 763 0
 1630 0096 661C     		adds	r6, r4, #1
 1631              		.loc 1 761 0
ARM GAS  C:\Users\DNIEL~1\AppData\Local\Temp\ccxMtG0a.s 			page 30


 1632 0098 2146     		mov	r1, r4
 1633 009a 0123     		movs	r3, #1
 1634 009c 0B4A     		ldr	r2, .L166
 1635 009e 3846     		mov	r0, r7
 1636              		.loc 1 763 0
 1637 00a0 F418     		adds	r4, r6, r3
 1638              		.loc 1 761 0
 1639 00a2 FFF7FEFF 		bl	sdc_lld_write_aligned
 1640              	.LVL156:
 1641              		.loc 1 760 0
 1642 00a6 05F50075 		add	r5, r5, #512
 1643              		.loc 1 759 0
 1644 00aa 4FF40072 		mov	r2, #512
 1645 00ae 2946     		mov	r1, r5
 1646              		.loc 1 760 0
 1647 00b0 AD18     		adds	r5, r5, r2
 1648              		.loc 1 761 0
 1649 00b2 0028     		cmp	r0, #0
 1650 00b4 DDD0     		beq	.L165
 1651              	.L155:
 1652              		.loc 1 762 0
 1653 00b6 0120     		movs	r0, #1
 1654              	.LBE53:
 1655              		.loc 1 769 0
 1656 00b8 BDE8F081 		pop	{r4, r5, r6, r7, r8, pc}
 1657              	.L154:
 1658              	.LBB54:
 1659              		.loc 1 765 0
 1660 00bc 0020     		movs	r0, #0
 1661 00be BDE8F081 		pop	{r4, r5, r6, r7, r8, pc}
 1662              	.LVL157:
 1663              	.L150:
 1664              	.LBE54:
 1665              		.loc 1 769 0
 1666 00c2 BDE8F041 		pop	{r4, r5, r6, r7, r8, lr}
 1667              		.loc 1 768 0
 1668 00c6 FFF7FEBF 		b	sdc_lld_write_aligned
 1669              	.LVL158:
 1670              	.L167:
 1671 00ca 00BF     		.align	2
 1672              	.L166:
 1673 00cc 00000000 		.word	.LANCHOR1
 1674              		.cfi_endproc
 1675              	.LFE138:
 1676              		.size	sdc_lld_write, .-sdc_lld_write
 1677              		.section	.text.sdc_lld_sync,"ax",%progbits
 1678              		.align	2
 1679              		.p2align 4,,15
 1680              		.global	sdc_lld_sync
 1681              		.thumb
 1682              		.thumb_func
 1683              		.type	sdc_lld_sync, %function
 1684              	sdc_lld_sync:
 1685              	.LFB139:
 1686              		.loc 1 782 0
 1687              		.cfi_startproc
 1688              		@ args = 0, pretend = 0, frame = 0
ARM GAS  C:\Users\DNIEL~1\AppData\Local\Temp\ccxMtG0a.s 			page 31


 1689              		@ frame_needed = 0, uses_anonymous_args = 0
 1690              		@ link register save eliminated.
 1691              	.LVL159:
 1692              		.loc 1 787 0
 1693 0000 0020     		movs	r0, #0
 1694              	.LVL160:
 1695 0002 7047     		bx	lr
 1696              		.cfi_endproc
 1697              	.LFE139:
 1698              		.size	sdc_lld_sync, .-sdc_lld_sync
 1699              		.global	SDCD1
 1700 0004 AFF30080 		.section	.bss.SDCD1,"aw",%nobits
 1700      AFF30080 
 1700      AFF30080 
 1701              		.align	2
 1702              		.set	.LANCHOR0,. + 0
 1703              		.type	SDCD1, %object
 1704              		.size	SDCD1, 72
 1705              	SDCD1:
 1706 0000 00000000 		.space	72
 1706      00000000 
 1706      00000000 
 1706      00000000 
 1706      00000000 
 1707              		.section	.bss.u,"aw",%nobits
 1708              		.align	2
 1709              		.set	.LANCHOR1,. + 0
 1710              		.type	u, %object
 1711              		.size	u, 512
 1712              	u:
 1713 0000 00000000 		.space	512
 1713      00000000 
 1713      00000000 
 1713      00000000 
 1713      00000000 
 1714              		.text
 1715              	.Letext0:
 1716              		.file 2 "c:\\chibistudio\\tools\\gnu tools arm embedded\\4.7 2014q2\\bin\\../lib/gcc/arm-none-eabi
 1717              		.file 3 "../../../ChibiOS/os/ports/GCC/ARMCMx/chtypes.h"
 1718              		.file 4 "../../../ChibiOS/os/kernel/include/chlists.h"
 1719              		.file 5 "../../../ChibiOS/os/kernel/include/chthreads.h"
 1720              		.file 6 "../../../ChibiOS/os/ports/GCC/ARMCMx/chcore_v7m.h"
 1721              		.file 7 "../../../ChibiOS/os/kernel/include/chschd.h"
 1722              		.file 8 "../../../ChibiOS/os/kernel/include/chmtx.h"
 1723              		.file 9 "../../../ChibiOS/os/hal/platforms/STM32F4xx/stm32f4xx.h"
 1724              		.file 10 "../../../ChibiOS/os/hal/platforms/STM32F4xx/stm32_dma.h"
 1725              		.file 11 "../../../ChibiOS/os/hal/include/io_block.h"
 1726              		.file 12 "../../../ChibiOS/os/hal/platforms/STM32/sdc_lld.h"
 1727              		.file 13 "../../../ChibiOS/os/ports/common/ARMCMx/CMSIS/include/core_cm4.h"
 1728              		.file 14 "../../../ChibiOS/os/hal/include/sdc.h"
 1729              		.file 15 "../../../ChibiOS/os/ports/common/ARMCMx/nvic.h"