ARM GAS  C:\Users\DNIEL~1\AppData\Local\Temp\ccm7a9MI.s 			page 1


   1              		.syntax unified
   2              		.cpu cortex-m4
   3              		.fpu softvfp
   4              		.eabi_attribute 20, 1
   5              		.eabi_attribute 21, 1
   6              		.eabi_attribute 23, 3
   7              		.eabi_attribute 24, 1
   8              		.eabi_attribute 25, 1
   9              		.eabi_attribute 26, 1
  10              		.eabi_attribute 30, 2
  11              		.eabi_attribute 18, 4
  12              		.thumb
  13              		.file	"sdcard.c"
  20 0000 1D060000 		.text
  20      0200F502 
  20      00000201 
  20      FB0E0D00 
  20      01010101 
  21              	.Ltext0:
  22              		.cfi_sections	.debug_frame
  23              		.section	.text.scan_files.clone.0,"ax",%progbits
  24              		.align	2
  25              		.p2align 4,,15
  26              		.thumb
  27              		.thumb_func
  28              		.type	scan_files.clone.0, %function
  29              	scan_files.clone.0:
  30              	.LFB133:
  31              		.file 1 "src/sdcard.c"
  32              		.loc 1 80 0
  33              		.cfi_startproc
  34              		@ args = 0, pretend = 0, frame = 72
  35              		@ frame_needed = 0, uses_anonymous_args = 0
  36              	.LVL0:
  37 0000 2DE9F041 		push	{r4, r5, r6, r7, r8, lr}
  38              	.LCFI0:
  39              		.cfi_def_cfa_offset 24
  40              		.loc 1 192 0
  41 0004 214D     		ldr	r5, .L13
  42              		.cfi_offset 14, -4
  43              		.cfi_offset 8, -8
  44              		.cfi_offset 7, -12
  45              		.cfi_offset 6, -16
  46              		.cfi_offset 5, -20
  47              		.cfi_offset 4, -24
  48              		.loc 1 88 0
  49 0006 224A     		ldr	r2, .L13+4
  50              		.loc 1 80 0
  51 0008 92B0     		sub	sp, sp, #72
  52              	.LCFI1:
  53              		.cfi_def_cfa_offset 96
ARM GAS  C:\Users\DNIEL~1\AppData\Local\Temp\ccm7a9MI.s 			page 2


  54              		.loc 1 80 0
  55 000a 0646     		mov	r6, r0
  56              		.loc 1 89 0
  57 000c 4FF48073 		mov	r3, #256
  58              		.loc 1 92 0
  59 0010 01A8     		add	r0, sp, #4
  60              	.LVL1:
  61 0012 2946     		mov	r1, r5
  62              		.loc 1 88 0
  63 0014 1092     		str	r2, [sp, #64]
  64              		.loc 1 89 0
  65 0016 1193     		str	r3, [sp, #68]
  66              		.loc 1 92 0
  67 0018 FFF7FEFF 		bl	f_opendir
  68              	.LVL2:
  69              		.loc 1 93 0
  70 001c 60BB     		cbnz	r0, .L2
  71              		.loc 1 94 0
  72 001e 2846     		mov	r0, r5
  73              	.LVL3:
  74 0020 FFF7FEFF 		bl	strlen
  75              		.loc 1 115 0
  76 0024 A846     		mov	r8, r5
  77              		.loc 1 94 0
  78 0026 0446     		mov	r4, r0
  79              	.LVL4:
  80              		.loc 1 107 0
  81 0028 2F27     		movs	r7, #47
  82              	.LVL5:
  83              	.L10:
  84              		.loc 1 96 0
  85 002a 01A8     		add	r0, sp, #4
  86 002c 0AA9     		add	r1, sp, #40
  87 002e FFF7FEFF 		bl	f_readdir
  88              	.LVL6:
  89              		.loc 1 97 0
  90 0032 08BB     		cbnz	r0, .L2
  91              	.L12:
  92 0034 9DF83130 		ldrb	r3, [sp, #49]	@ zero_extendqisi2
  93 0038 F3B1     		cbz	r3, .L2
  94              		.loc 1 99 0
  95 003a 2E2B     		cmp	r3, #46
  96 003c F5D0     		beq	.L10
  97              		.loc 1 102 0
  98 003e 109B     		ldr	r3, [sp, #64]
  99 0040 1878     		ldrb	r0, [r3, #0]	@ zero_extendqisi2
 100              	.LVL7:
 101 0042 10B9     		cbnz	r0, .L5
 102 0044 0AA9     		add	r1, sp, #40
 103 0046 01F10903 		add	r3, r1, #9
 104              	.L5:
 105              	.LVL8:
 106              		.loc 1 106 0
 107 004a 9DF830C0 		ldrb	ip, [sp, #48]	@ zero_extendqisi2
 108 004e 1CF0100F 		tst	ip, #16
 109 0052 14D0     		beq	.L6
 110              		.loc 1 107 0
ARM GAS  C:\Users\DNIEL~1\AppData\Local\Temp\ccm7a9MI.s 			page 3


 111 0054 2F55     		strb	r7, [r5, r4]
 112 0056 0134     		adds	r4, r4, #1
 113              	.LVL9:
 114              		.loc 1 108 0
 115 0058 1946     		mov	r1, r3
 116 005a 2819     		adds	r0, r5, r4
 117 005c FFF7FEFF 		bl	strcpy
 118              	.LVL10:
 119              		.loc 1 109 0
 120 0060 3046     		mov	r0, r6
 121 0062 FFF7CDFF 		bl	scan_files.clone.0
 122              	.LVL11:
 123              		.loc 1 110 0
 124 0066 38B9     		cbnz	r0, .L2
 125              		.loc 1 112 0
 126 0068 08F80400 		strb	r0, [r8, r4]
 127              		.loc 1 96 0
 128 006c 0AA9     		add	r1, sp, #40
 129 006e 01A8     		add	r0, sp, #4
 130              	.LVL12:
 131 0070 FFF7FEFF 		bl	f_readdir
 132              	.LVL13:
 133              		.loc 1 97 0
 134 0074 0028     		cmp	r0, #0
 135 0076 DDD0     		beq	.L12
 136              	.LVL14:
 137              	.L2:
 138              		.loc 1 120 0
 139 0078 12B0     		add	sp, sp, #72
 140 007a BDE8F081 		pop	{r4, r5, r6, r7, r8, pc}
 141              	.LVL15:
 142              	.L6:
 143              		.loc 1 115 0
 144 007e 3046     		mov	r0, r6
 145 0080 0449     		ldr	r1, .L13+8
 146 0082 024A     		ldr	r2, .L13
 147 0084 FFF7FEFF 		bl	chprintf
 148              	.LVL16:
 149 0088 CFE7     		b	.L10
 150              	.L14:
 151 008a 00BF     		.align	2
 152              	.L13:
 153 008c 00000000 		.word	.LANCHOR1
 154 0090 00000000 		.word	.LANCHOR0
 155 0094 00000000 		.word	.LC0
 156              		.cfi_endproc
 157              	.LFE133:
 158              		.size	scan_files.clone.0, .-scan_files.clone.0
 159 0098 AFF30080 		.section	.text.sdc_lld_is_card_inserted,"ax",%progbits
 159      AFF30080 
 160              		.align	2
 161              		.p2align 4,,15
 162              		.global	sdc_lld_is_card_inserted
 163              		.thumb
 164              		.thumb_func
 165              		.type	sdc_lld_is_card_inserted, %function
 166              	sdc_lld_is_card_inserted:
ARM GAS  C:\Users\DNIEL~1\AppData\Local\Temp\ccm7a9MI.s 			page 4


 167              	.LFB118:
 168              		.loc 1 44 0
 169              		.cfi_startproc
 170              		@ args = 0, pretend = 0, frame = 0
 171              		@ frame_needed = 0, uses_anonymous_args = 0
 172              		@ link register save eliminated.
 173              	.LVL17:
 174              		.loc 1 48 0
 175 0000 0120     		movs	r0, #1
 176              	.LVL18:
 177 0002 7047     		bx	lr
 178              		.cfi_endproc
 179              	.LFE118:
 180              		.size	sdc_lld_is_card_inserted, .-sdc_lld_is_card_inserted
 181 0004 AFF30080 		.section	.text.sdc_lld_is_write_protected,"ax",%progbits
 181      AFF30080 
 181      AFF30080 
 182              		.align	2
 183              		.p2align 4,,15
 184              		.global	sdc_lld_is_write_protected
 185              		.thumb
 186              		.thumb_func
 187              		.type	sdc_lld_is_write_protected, %function
 188              	sdc_lld_is_write_protected:
 189              	.LFB119:
 190              		.loc 1 58 0
 191              		.cfi_startproc
 192              		@ args = 0, pretend = 0, frame = 0
 193              		@ frame_needed = 0, uses_anonymous_args = 0
 194              		@ link register save eliminated.
 195              	.LVL19:
 196              		.loc 1 62 0
 197 0000 0020     		movs	r0, #0
 198              	.LVL20:
 199 0002 7047     		bx	lr
 200              		.cfi_endproc
 201              	.LFE119:
 202              		.size	sdc_lld_is_write_protected, .-sdc_lld_is_write_protected
 203 0004 AFF30080 		.section	.text.fillbuffer,"ax",%progbits
 203      AFF30080 
 203      AFF30080 
 204              		.align	2
 205              		.p2align 4,,15
 206              		.global	fillbuffer
 207              		.thumb
 208              		.thumb_func
 209              		.type	fillbuffer, %function
 210              	fillbuffer:
 211              	.LFB120:
 212              		.loc 1 69 0
 213              		.cfi_startproc
 214              		@ args = 0, pretend = 0, frame = 0
 215              		@ frame_needed = 0, uses_anonymous_args = 0
 216              		@ link register save eliminated.
 217              	.LVL21:
 218              		.loc 1 71 0
 219 0000 0023     		movs	r3, #0
ARM GAS  C:\Users\DNIEL~1\AppData\Local\Temp\ccm7a9MI.s 			page 5


 220              	.LVL22:
 221              	.L18:
 222              		.loc 1 71 0 is_stmt 0 discriminator 2
 223 0002 5A1C     		adds	r2, r3, #1
 224              		.loc 1 72 0 is_stmt 1 discriminator 2
 225 0004 C854     		strb	r0, [r1, r3]
 226              		.loc 1 71 0 discriminator 2
 227 0006 0233     		adds	r3, r3, #2
 228              	.LVL23:
 229 0008 B3F5805F 		cmp	r3, #4096
 230              		.loc 1 72 0 discriminator 2
 231 000c 8854     		strb	r0, [r1, r2]
 232              		.loc 1 71 0 discriminator 2
 233 000e F8D1     		bne	.L18
 234              		.loc 1 73 0
 235 0010 7047     		bx	lr
 236              		.cfi_endproc
 237              	.LFE120:
 238              		.size	fillbuffer, .-fillbuffer
 239 0012 00BFAFF3 		.section	.text.fillbuffers,"ax",%progbits
 239      0080AFF3 
 239      0080AFF3 
 239      0080
 240              		.align	2
 241              		.p2align 4,,15
 242              		.global	fillbuffers
 243              		.thumb
 244              		.thumb_func
 245              		.type	fillbuffers, %function
 246              	fillbuffers:
 247              	.LFB121:
 248              		.loc 1 75 0
 249              		.cfi_startproc
 250              		@ args = 0, pretend = 0, frame = 0
 251              		@ frame_needed = 0, uses_anonymous_args = 0
 252              		@ link register save eliminated.
 253              	.LVL24:
 254              		.loc 1 75 0
 255 0000 094B     		ldr	r3, .L28
 256              	.LVL25:
 257 0002 03F58051 		add	r1, r3, #4096
 258              	.LVL26:
 259              	.L22:
 260 0006 5A1C     		adds	r2, r3, #1
 261              	.LBB19:
 262              	.LBB21:
 263              		.loc 1 72 0
 264 0008 5870     		strb	r0, [r3, #1]
 265              	.LBE21:
 266              	.LBE19:
 267              		.loc 1 75 0
 268 000a 0233     		adds	r3, r3, #2
 269              	.LBB23:
 270              	.LBB20:
 271              		.loc 1 71 0
 272 000c 8B42     		cmp	r3, r1
 273              		.loc 1 72 0
ARM GAS  C:\Users\DNIEL~1\AppData\Local\Temp\ccm7a9MI.s 			page 6


 274 000e 5070     		strb	r0, [r2, #1]
 275              		.loc 1 71 0
 276 0010 F9D1     		bne	.L22
 277 0012 064B     		ldr	r3, .L28+4
 278              		.loc 1 75 0
 279 0014 03F58051 		add	r1, r3, #4096
 280              	.L23:
 281 0018 5A1C     		adds	r2, r3, #1
 282              	.LBE20:
 283              	.LBE23:
 284              	.LBB24:
 285              	.LBB25:
 286              		.loc 1 72 0
 287 001a 5870     		strb	r0, [r3, #1]
 288              	.LBE25:
 289              	.LBE24:
 290              	.LBB27:
 291              	.LBB22:
 292              		.loc 1 75 0
 293 001c 0233     		adds	r3, r3, #2
 294              	.LBE22:
 295              	.LBE27:
 296              	.LBB28:
 297              	.LBB26:
 298              		.loc 1 71 0
 299 001e 8B42     		cmp	r3, r1
 300              		.loc 1 72 0
 301 0020 5070     		strb	r0, [r2, #1]
 302              	.LVL27:
 303              		.loc 1 71 0
 304 0022 F9D1     		bne	.L23
 305              	.LBE26:
 306              	.LBE28:
 307              		.loc 1 78 0
 308 0024 7047     		bx	lr
 309              	.L29:
 310 0026 00BF     		.align	2
 311              	.L28:
 312 0028 FFFFFFFF 		.word	.LANCHOR2-1
 313 002c FFFFFFFF 		.word	.LANCHOR3-1
 314              		.cfi_endproc
 315              	.LFE121:
 316              		.size	fillbuffers, .-fillbuffers
 317              		.section	.text.sdcardInit,"ax",%progbits
 318              		.align	2
 319              		.p2align 4,,15
 320              		.global	sdcardInit
 321              		.thumb
 322              		.thumb_func
 323              		.type	sdcardInit, %function
 324              	sdcardInit:
 325              	.LFB123:
 326              		.loc 1 122 0
 327              		.cfi_startproc
 328              		@ args = 0, pretend = 0, frame = 0
 329              		@ frame_needed = 0, uses_anonymous_args = 0
 330 0000 08B5     		push	{r3, lr}
ARM GAS  C:\Users\DNIEL~1\AppData\Local\Temp\ccm7a9MI.s 			page 7


 331              	.LCFI2:
 332              		.cfi_def_cfa_offset 8
 333              		.loc 1 126 0
 334 0002 0448     		ldr	r0, .L31
 335 0004 0449     		ldr	r1, .L31+4
 336              		.cfi_offset 14, -4
 337              		.cfi_offset 3, -8
 338 0006 FFF7FEFF 		bl	sdcStart
 339              		.loc 1 128 0
 340 000a 044B     		ldr	r3, .L31+8
 341 000c 0022     		movs	r2, #0
 342 000e 1A60     		str	r2, [r3, #0]
 343              		.loc 1 129 0
 344 0010 08BD     		pop	{r3, pc}
 345              	.L32:
 346 0012 00BF     		.align	2
 347              	.L31:
 348 0014 00000000 		.word	SDCD1
 349 0018 00000000 		.word	.LANCHOR4
 350 001c 00000000 		.word	.LANCHOR5
 351              		.cfi_endproc
 352              	.LFE123:
 353              		.size	sdcardInit, .-sdcardInit
 354              		.section	.text.sdcardMount,"ax",%progbits
 355              		.align	2
 356              		.p2align 4,,15
 357              		.global	sdcardMount
 358              		.thumb
 359              		.thumb_func
 360              		.type	sdcardMount, %function
 361              	sdcardMount:
 362              	.LFB124:
 363              		.loc 1 131 0
 364              		.cfi_startproc
 365              		@ args = 0, pretend = 0, frame = 8
 366              		@ frame_needed = 0, uses_anonymous_args = 0
 367 0000 10B5     		push	{r4, lr}
 368              	.LCFI3:
 369              		.cfi_def_cfa_offset 8
 370              		.loc 1 139 0
 371 0002 1348     		ldr	r0, .L41
 372              		.loc 1 131 0
 373 0004 82B0     		sub	sp, sp, #8
 374              	.LCFI4:
 375              		.cfi_def_cfa_offset 16
 376              		.loc 1 139 0
 377              		.cfi_offset 14, -4
 378              		.cfi_offset 4, -8
 379 0006 FFF7FEFF 		bl	sdcConnect
 380 000a 18B1     		cbz	r0, .L38
 381              		.loc 1 140 0
 382 000c FF20     		movs	r0, #255
 383              	.L34:
 384              		.loc 1 155 0
 385 000e 40B2     		sxtb	r0, r0
 386 0010 02B0     		add	sp, sp, #8
 387 0012 10BD     		pop	{r4, pc}
ARM GAS  C:\Users\DNIEL~1\AppData\Local\Temp\ccm7a9MI.s 			page 8


 388              	.L38:
 389              		.loc 1 142 0
 390 0014 0F49     		ldr	r1, .L41+4
 391 0016 FFF7FEFF 		bl	f_mount
 392              	.LVL28:
 393              		.loc 1 143 0
 394 001a 0446     		mov	r4, r0
 395 001c 48B9     		cbnz	r0, .L39
 396              		.loc 1 147 0
 397 001e 0E48     		ldr	r0, .L41+8
 398              	.LVL29:
 399 0020 01A9     		add	r1, sp, #4
 400 0022 6A46     		mov	r2, sp
 401 0024 FFF7FEFF 		bl	f_getfree
 402              	.LVL30:
 403              		.loc 1 148 0
 404 0028 40B9     		cbnz	r0, .L40
 405              		.loc 1 153 0
 406 002a 0C4B     		ldr	r3, .L41+12
 407 002c 0122     		movs	r2, #1
 408 002e 1A60     		str	r2, [r3, #0]
 409              		.loc 1 154 0
 410 0030 EDE7     		b	.L34
 411              	.L39:
 412              		.loc 1 144 0
 413 0032 0748     		ldr	r0, .L41
 414              	.LVL31:
 415 0034 FFF7FEFF 		bl	sdcDisconnect
 416              		.loc 1 145 0
 417 0038 FE20     		movs	r0, #254
 418 003a E8E7     		b	.L34
 419              	.LVL32:
 420              	.L40:
 421              		.loc 1 149 0
 422 003c 2146     		mov	r1, r4
 423 003e 2046     		mov	r0, r4
 424              	.LVL33:
 425 0040 FFF7FEFF 		bl	f_mount
 426              		.loc 1 150 0
 427 0044 0248     		ldr	r0, .L41
 428 0046 FFF7FEFF 		bl	sdcDisconnect
 429              		.loc 1 151 0
 430 004a FD20     		movs	r0, #253
 431 004c DFE7     		b	.L34
 432              	.L42:
 433 004e 00BF     		.align	2
 434              	.L41:
 435 0050 00000000 		.word	SDCD1
 436 0054 00000000 		.word	.LANCHOR6
 437 0058 08000000 		.word	.LC1
 438 005c 00000000 		.word	.LANCHOR5
 439              		.cfi_endproc
 440              	.LFE124:
 441              		.size	sdcardMount, .-sdcardMount
 442              		.section	.text.sdcardUMount,"ax",%progbits
 443              		.align	2
 444              		.p2align 4,,15
ARM GAS  C:\Users\DNIEL~1\AppData\Local\Temp\ccm7a9MI.s 			page 9


 445              		.global	sdcardUMount
 446              		.thumb
 447              		.thumb_func
 448              		.type	sdcardUMount, %function
 449              	sdcardUMount:
 450              	.LFB125:
 451              		.loc 1 157 0
 452              		.cfi_startproc
 453              		@ args = 0, pretend = 0, frame = 0
 454              		@ frame_needed = 0, uses_anonymous_args = 0
 455              		.loc 1 158 0
 456 0000 064B     		ldr	r3, .L44
 457              		.loc 1 157 0
 458 0002 10B5     		push	{r4, lr}
 459              	.LCFI5:
 460              		.cfi_def_cfa_offset 8
 461              		.loc 1 158 0
 462 0004 0024     		movs	r4, #0
 463              		.cfi_offset 14, -4
 464              		.cfi_offset 4, -8
 465              		.loc 1 159 0
 466 0006 2146     		mov	r1, r4
 467              		.loc 1 158 0
 468 0008 1C60     		str	r4, [r3, #0]
 469              		.loc 1 159 0
 470 000a 2046     		mov	r0, r4
 471 000c FFF7FEFF 		bl	f_mount
 472              		.loc 1 160 0
 473 0010 0348     		ldr	r0, .L44+4
 474 0012 FFF7FEFF 		bl	sdcDisconnect
 475              		.loc 1 162 0
 476 0016 2046     		mov	r0, r4
 477 0018 10BD     		pop	{r4, pc}
 478              	.L45:
 479 001a 00BF     		.align	2
 480              	.L44:
 481 001c 00000000 		.word	.LANCHOR5
 482 0020 00000000 		.word	SDCD1
 483              		.cfi_endproc
 484              	.LFE125:
 485              		.size	sdcardUMount, .-sdcardUMount
 486 0024 AFF30080 		.section	.text.sdcardIsMounted,"ax",%progbits
 486      AFF30080 
 486      AFF30080 
 487              		.align	2
 488              		.p2align 4,,15
 489              		.global	sdcardIsMounted
 490              		.thumb
 491              		.thumb_func
 492              		.type	sdcardIsMounted, %function
 493              	sdcardIsMounted:
 494              	.LFB126:
 495              		.loc 1 164 0
 496              		.cfi_startproc
 497              		@ args = 0, pretend = 0, frame = 0
 498              		@ frame_needed = 0, uses_anonymous_args = 0
 499              		@ link register save eliminated.
ARM GAS  C:\Users\DNIEL~1\AppData\Local\Temp\ccm7a9MI.s 			page 10


 500              		.loc 1 164 0
 501 0000 014B     		ldr	r3, .L47
 502              		.loc 1 166 0
 503 0002 1868     		ldr	r0, [r3, #0]
 504 0004 7047     		bx	lr
 505              	.L48:
 506 0006 00BF     		.align	2
 507              	.L47:
 508 0008 00000000 		.word	.LANCHOR5
 509              		.cfi_endproc
 510              	.LFE126:
 511              		.size	sdcardIsMounted, .-sdcardIsMounted
 512 000c AFF30080 		.section	.text.cmd_tree,"ax",%progbits
 513              		.align	2
 514              		.p2align 4,,15
 515              		.global	cmd_tree
 516              		.thumb
 517              		.thumb_func
 518              		.type	cmd_tree, %function
 519              	cmd_tree:
 520              	.LFB127:
 521              		.loc 1 168 0
 522              		.cfi_startproc
 523              		@ args = 0, pretend = 0, frame = 8
 524              		@ frame_needed = 0, uses_anonymous_args = 0
 525              	.LVL34:
 526 0000 70B5     		push	{r4, r5, r6, lr}
 527              	.LCFI6:
 528              		.cfi_def_cfa_offset 16
 529              		.loc 1 174 0
 530 0002 0029     		cmp	r1, #0
 531              		.loc 1 168 0
 532 0004 84B0     		sub	sp, sp, #16
 533              	.LCFI7:
 534              		.cfi_def_cfa_offset 32
 535              		.loc 1 168 0
 536 0006 0446     		mov	r4, r0
 537              		.cfi_offset 14, -4
 538              		.cfi_offset 6, -8
 539              		.cfi_offset 5, -12
 540              		.cfi_offset 4, -16
 541              		.loc 1 174 0
 542 0008 1FDC     		bgt	.L54
 543              		.loc 1 178 0
 544 000a 1449     		ldr	r1, .L57
 545              	.LVL35:
 546 000c 0B68     		ldr	r3, [r1, #0]
 547 000e C3B1     		cbz	r3, .L55
 548              		.loc 1 182 0
 549 0010 1348     		ldr	r0, .L57+4
 550              	.LVL36:
 551 0012 03A9     		add	r1, sp, #12
 552 0014 02AA     		add	r2, sp, #8
 553              	.LVL37:
 554 0016 FFF7FEFF 		bl	f_getfree
 555              	.LVL38:
 556              		.loc 1 183 0
ARM GAS  C:\Users\DNIEL~1\AppData\Local\Temp\ccm7a9MI.s 			page 11


 557 001a 0546     		mov	r5, r0
 558 001c C8B9     		cbnz	r0, .L56
 559              		.loc 1 190 0
 560 001e 1148     		ldr	r0, .L57+8
 561              	.LVL39:
 562 0020 039A     		ldr	r2, [sp, #12]
 563 0022 8378     		ldrb	r3, [r0, #2]	@ zero_extendqisi2
 564              		.loc 1 187 0
 565 0024 1049     		ldr	r1, .L57+12
 566              		.loc 1 190 0
 567 0026 5602     		lsls	r6, r2, #9
 568              		.loc 1 187 0
 569 0028 03FB06F6 		mul	r6, r3, r6
 570 002c 2046     		mov	r0, r4
 571 002e 0096     		str	r6, [sp, #0]
 572 0030 FFF7FEFF 		bl	chprintf
 573              		.loc 1 191 0
 574 0034 0D4A     		ldr	r2, .L57+16
 575              		.loc 1 192 0
 576 0036 2046     		mov	r0, r4
 577              		.loc 1 191 0
 578 0038 1570     		strb	r5, [r2, #0]
 579              		.loc 1 192 0
 580 003a FFF7FEFF 		bl	scan_files.clone.0
 581              	.L49:
 582              		.loc 1 193 0
 583 003e 04B0     		add	sp, sp, #16
 584 0040 70BD     		pop	{r4, r5, r6, pc}
 585              	.LVL40:
 586              	.L55:
 587              		.loc 1 179 0
 588 0042 0B49     		ldr	r1, .L57+20
 589 0044 FFF7FEFF 		bl	chprintf
 590              	.LVL41:
 591              		.loc 1 180 0
 592 0048 F9E7     		b	.L49
 593              	.LVL42:
 594              	.L54:
 595              		.loc 1 175 0
 596 004a 0A49     		ldr	r1, .L57+24
 597              	.LVL43:
 598 004c FFF7FEFF 		bl	chprintf
 599              	.LVL44:
 600              		.loc 1 176 0
 601 0050 F5E7     		b	.L49
 602              	.LVL45:
 603              	.L56:
 604              		.loc 1 184 0
 605 0052 2046     		mov	r0, r4
 606              	.LVL46:
 607 0054 0849     		ldr	r1, .L57+28
 608 0056 FFF7FEFF 		bl	chprintf
 609              		.loc 1 185 0
 610 005a F0E7     		b	.L49
 611              	.L58:
 612              		.align	2
 613              	.L57:
ARM GAS  C:\Users\DNIEL~1\AppData\Local\Temp\ccm7a9MI.s 			page 12


 614 005c 00000000 		.word	.LANCHOR5
 615 0060 08000000 		.word	.LC1
 616 0064 00000000 		.word	.LANCHOR6
 617 0068 54000000 		.word	.LC5
 618 006c 00000000 		.word	.LANCHOR1
 619 0070 1C000000 		.word	.LC3
 620 0074 0C000000 		.word	.LC2
 621 0078 38000000 		.word	.LC4
 622              		.cfi_endproc
 623              	.LFE127:
 624              		.size	cmd_tree, .-cmd_tree
 625 007c AFF30080 		.section	.text.cmd_mountsd,"ax",%progbits
 626              		.align	2
 627              		.p2align 4,,15
 628              		.global	cmd_mountsd
 629              		.thumb
 630              		.thumb_func
 631              		.type	cmd_mountsd, %function
 632              	cmd_mountsd:
 633              	.LFB128:
 634              		.loc 1 195 0
 635              		.cfi_startproc
 636              		@ args = 0, pretend = 0, frame = 0
 637              		@ frame_needed = 0, uses_anonymous_args = 0
 638              	.LVL47:
 639              		.loc 1 199 0
 640 0000 0029     		cmp	r1, #0
 641              		.loc 1 195 0
 642 0002 10B5     		push	{r4, lr}
 643              	.LCFI8:
 644              		.cfi_def_cfa_offset 8
 645              		.loc 1 195 0
 646 0004 0446     		mov	r4, r0
 647              		.cfi_offset 14, -4
 648              		.cfi_offset 4, -8
 649              		.loc 1 199 0
 650 0006 04DD     		ble	.L60
 651              		.loc 1 200 0
 652 0008 1549     		ldr	r1, .L67
 653              	.LVL48:
 654              		.loc 1 222 0
 655 000a BDE81040 		pop	{r4, lr}
 656              		.loc 1 200 0
 657 000e FFF7FEBF 		b	chprintf
 658              	.LVL49:
 659              	.L60:
 660              		.loc 1 204 0
 661 0012 FFF7FEFF 		bl	sdcardMount
 662              	.LVL50:
 663              		.loc 1 205 0
 664 0016 0330     		adds	r0, r0, #3
 665              	.LVL51:
 666 0018 0328     		cmp	r0, #3
 667 001a 1BD8     		bhi	.L61
 668 001c DFE800F0 		tbb	[pc, r0]
 669              	.L66:
 670 0020 14       		.byte	(.L62-.L66)/2
ARM GAS  C:\Users\DNIEL~1\AppData\Local\Temp\ccm7a9MI.s 			page 13


 671 0021 0E       		.byte	(.L63-.L66)/2
 672 0022 08       		.byte	(.L64-.L66)/2
 673 0023 02       		.byte	(.L65-.L66)/2
 674              		.align	1
 675              	.L65:
 676              		.loc 1 216 0
 677 0024 0F49     		ldr	r1, .L67+4
 678 0026 2046     		mov	r0, r4
 679              		.loc 1 222 0
 680 0028 BDE81040 		pop	{r4, lr}
 681              		.loc 1 216 0
 682 002c FFF7FEBF 		b	chprintf
 683              	.L64:
 684              		.loc 1 207 0
 685 0030 0D49     		ldr	r1, .L67+8
 686 0032 2046     		mov	r0, r4
 687              		.loc 1 222 0
 688 0034 BDE81040 		pop	{r4, lr}
 689              		.loc 1 207 0
 690 0038 FFF7FEBF 		b	chprintf
 691              	.L63:
 692              		.loc 1 210 0
 693 003c 0B49     		ldr	r1, .L67+12
 694 003e 2046     		mov	r0, r4
 695              		.loc 1 222 0
 696 0040 BDE81040 		pop	{r4, lr}
 697              		.loc 1 210 0
 698 0044 FFF7FEBF 		b	chprintf
 699              	.L62:
 700              		.loc 1 213 0
 701 0048 0949     		ldr	r1, .L67+16
 702 004a 2046     		mov	r0, r4
 703              		.loc 1 222 0
 704 004c BDE81040 		pop	{r4, lr}
 705              		.loc 1 213 0
 706 0050 FFF7FEBF 		b	chprintf
 707              	.L61:
 708              		.loc 1 219 0
 709 0054 0749     		ldr	r1, .L67+20
 710 0056 2046     		mov	r0, r4
 711              		.loc 1 222 0
 712 0058 BDE81040 		pop	{r4, lr}
 713              		.loc 1 219 0
 714 005c FFF7FEBF 		b	chprintf
 715              	.L68:
 716              		.align	2
 717              	.L67:
 718 0060 98000000 		.word	.LC6
 719 0064 E0000000 		.word	.LC9
 720 0068 AC000000 		.word	.LC7
 721 006c C8000000 		.word	.LC8
 722 0070 38000000 		.word	.LC4
 723 0074 F4000000 		.word	.LC10
 724              		.cfi_endproc
 725              	.LFE128:
 726              		.size	cmd_mountsd, .-cmd_mountsd
 727 0078 AFF30080 		.section	.text.cmd_umountsd,"ax",%progbits
ARM GAS  C:\Users\DNIEL~1\AppData\Local\Temp\ccm7a9MI.s 			page 14


 727      AFF30080 
 728              		.align	2
 729              		.p2align 4,,15
 730              		.global	cmd_umountsd
 731              		.thumb
 732              		.thumb_func
 733              		.type	cmd_umountsd, %function
 734              	cmd_umountsd:
 735              	.LFB129:
 736              		.loc 1 224 0
 737              		.cfi_startproc
 738              		@ args = 0, pretend = 0, frame = 0
 739              		@ frame_needed = 0, uses_anonymous_args = 0
 740              	.LVL52:
 741              		.loc 1 228 0
 742 0000 0029     		cmp	r1, #0
 743              		.loc 1 224 0
 744 0002 10B5     		push	{r4, lr}
 745              	.LCFI9:
 746              		.cfi_def_cfa_offset 8
 747              		.loc 1 224 0
 748 0004 0446     		mov	r4, r0
 749              		.cfi_offset 14, -4
 750              		.cfi_offset 4, -8
 751              		.loc 1 228 0
 752 0006 04DD     		ble	.L70
 753              		.loc 1 229 0
 754 0008 0949     		ldr	r1, .L73
 755              	.LVL53:
 756              		.loc 1 240 0
 757 000a BDE81040 		pop	{r4, lr}
 758              		.loc 1 229 0
 759 000e FFF7FEBF 		b	chprintf
 760              	.LVL54:
 761              	.L70:
 762              		.loc 1 233 0
 763 0012 FFF7FEFF 		bl	sdcardUMount
 764              	.LVL55:
 765              		.loc 1 234 0
 766 0016 28B1     		cbz	r0, .L72
 767              		.loc 1 238 0
 768 0018 0649     		ldr	r1, .L73+4
 769 001a 2046     		mov	r0, r4
 770              	.LVL56:
 771              		.loc 1 240 0
 772 001c BDE81040 		pop	{r4, lr}
 773              		.loc 1 238 0
 774 0020 FFF7FEBF 		b	chprintf
 775              	.LVL57:
 776              	.L72:
 777              		.loc 1 235 0
 778 0024 0449     		ldr	r1, .L73+8
 779 0026 2046     		mov	r0, r4
 780              	.LVL58:
 781              		.loc 1 240 0
 782 0028 BDE81040 		pop	{r4, lr}
 783              		.loc 1 235 0
ARM GAS  C:\Users\DNIEL~1\AppData\Local\Temp\ccm7a9MI.s 			page 15


 784 002c FFF7FEBF 		b	chprintf
 785              	.L74:
 786              		.align	2
 787              	.L73:
 788 0030 04010000 		.word	.LC11
 789 0034 2C010000 		.word	.LC13
 790 0038 18010000 		.word	.LC12
 791              		.cfi_endproc
 792              	.LFE129:
 793              		.size	cmd_umountsd, .-cmd_umountsd
 794 003c AFF30080 		.section	.text.cmd_cat,"ax",%progbits
 795              		.align	2
 796              		.p2align 4,,15
 797              		.global	cmd_cat
 798              		.thumb
 799              		.thumb_func
 800              		.type	cmd_cat, %function
 801              	cmd_cat:
 802              	.LFB130:
 803              		.loc 1 242 0
 804              		.cfi_startproc
 805              		@ args = 0, pretend = 0, frame = 632
 806              		@ frame_needed = 0, uses_anonymous_args = 0
 807              	.LVL59:
 808 0000 10B5     		push	{r4, lr}
 809              	.LCFI10:
 810              		.cfi_def_cfa_offset 8
 811              		.loc 1 248 0
 812 0002 0129     		cmp	r1, #1
 813              		.loc 1 242 0
 814 0004 ADF51E7D 		sub	sp, sp, #632
 815              	.LCFI11:
 816              		.cfi_def_cfa_offset 640
 817              		.loc 1 242 0
 818 0008 0B46     		mov	r3, r1
 819 000a 0446     		mov	r4, r0
 820              		.cfi_offset 14, -4
 821              		.cfi_offset 4, -8
 822              		.loc 1 248 0
 823 000c 24D1     		bne	.L84
 824              		.loc 1 252 0
 825 000e 1749     		ldr	r1, .L89
 826              	.LVL60:
 827 0010 0968     		ldr	r1, [r1, #0]
 828 0012 D9B1     		cbz	r1, .L85
 829              		.loc 1 256 0
 830 0014 1168     		ldr	r1, [r2, #0]
 831 0016 01A8     		add	r0, sp, #4
 832              	.LVL61:
 833 0018 1A46     		mov	r2, r3
 834              	.LVL62:
 835 001a FFF7FEFF 		bl	f_open
 836              	.LVL63:
 837              		.loc 1 257 0
 838 001e 28B1     		cbz	r0, .L79
 839 0020 1EE0     		b	.L88
 840              	.LVL64:
ARM GAS  C:\Users\DNIEL~1\AppData\Local\Temp\ccm7a9MI.s 			page 16


 841              	.L87:
 842              		.loc 1 263 0
 843 0022 1349     		ldr	r1, .L89+4
 844 0024 8AAA     		add	r2, sp, #552
 845 0026 2046     		mov	r0, r4
 846              	.LVL65:
 847 0028 FFF7FEFF 		bl	chprintf
 848              	.L79:
 849              		.loc 1 261 0
 850 002c 8AA8     		add	r0, sp, #552
 851 002e 5021     		movs	r1, #80
 852 0030 01AA     		add	r2, sp, #4
 853 0032 FFF7FEFF 		bl	f_gets
 854              	.LVL66:
 855              		.loc 1 262 0
 856 0036 0028     		cmp	r0, #0
 857 0038 F3D1     		bne	.L87
 858              		.loc 1 266 0
 859 003a 01A8     		add	r0, sp, #4
 860              	.LVL67:
 861 003c FFF7FEFF 		bl	f_close
 862              	.LVL68:
 863              		.loc 1 267 0
 864 0040 38B1     		cbz	r0, .L75
 865              		.loc 1 268 0
 866 0042 2046     		mov	r0, r4
 867              	.LVL69:
 868 0044 0B49     		ldr	r1, .L89+8
 869 0046 FFF7FEFF 		bl	chprintf
 870 004a 02E0     		b	.L75
 871              	.LVL70:
 872              	.L85:
 873              		.loc 1 253 0
 874 004c 0A49     		ldr	r1, .L89+12
 875 004e FFF7FEFF 		bl	chprintf
 876              	.LVL71:
 877              	.L75:
 878              		.loc 1 271 0
 879 0052 0DF51E7D 		add	sp, sp, #632
 880 0056 10BD     		pop	{r4, pc}
 881              	.LVL72:
 882              	.L84:
 883              		.loc 1 249 0
 884 0058 0849     		ldr	r1, .L89+16
 885              	.LVL73:
 886 005a FFF7FEFF 		bl	chprintf
 887              	.LVL74:
 888              		.loc 1 250 0
 889 005e F8E7     		b	.L75
 890              	.LVL75:
 891              	.L88:
 892              		.loc 1 258 0
 893 0060 2046     		mov	r0, r4
 894              	.LVL76:
 895 0062 0749     		ldr	r1, .L89+20
 896 0064 FFF7FEFF 		bl	chprintf
 897              		.loc 1 259 0
ARM GAS  C:\Users\DNIEL~1\AppData\Local\Temp\ccm7a9MI.s 			page 17


 898 0068 F3E7     		b	.L75
 899              	.L90:
 900 006a 00BF     		.align	2
 901              	.L89:
 902 006c 00000000 		.word	.LANCHOR5
 903 0070 74010000 		.word	.LC16
 904 0074 78010000 		.word	.LC17
 905 0078 1C000000 		.word	.LC3
 906 007c 48010000 		.word	.LC14
 907 0080 5C010000 		.word	.LC15
 908              		.cfi_endproc
 909              	.LFE130:
 910              		.size	cmd_cat, .-cmd_cat
 911 0084 AFF30080 		.section	.text.cmd_sdiotest,"ax",%progbits
 911      AFF30080 
 911      AFF30080 
 912              		.align	2
 913              		.p2align 4,,15
 914              		.global	cmd_sdiotest
 915              		.thumb
 916              		.thumb_func
 917              		.type	cmd_sdiotest, %function
 918              	cmd_sdiotest:
 919              	.LFB131:
 920              		.loc 1 273 0
 921              		.cfi_startproc
 922              		@ args = 0, pretend = 0, frame = 640
 923              		@ frame_needed = 0, uses_anonymous_args = 0
 924              	.LVL77:
 925 0000 2DE9F041 		push	{r4, r5, r6, r7, r8, lr}
 926              	.LCFI12:
 927              		.cfi_def_cfa_offset 24
 928              		.loc 1 278 0
 929 0004 8249     		ldr	r1, .L176
 930              	.LVL78:
 931              		.loc 1 281 0
 932 0006 834C     		ldr	r4, .L176+4
 933              		.cfi_offset 14, -4
 934              		.cfi_offset 8, -8
 935              		.cfi_offset 7, -12
 936              		.cfi_offset 6, -16
 937              		.cfi_offset 5, -20
 938              		.cfi_offset 4, -24
 939              		.loc 1 273 0
 940 0008 ADF5227D 		sub	sp, sp, #648
 941              	.LCFI13:
 942              		.cfi_def_cfa_offset 672
 943              		.loc 1 273 0
 944 000c 0746     		mov	r7, r0
 945              		.loc 1 278 0
 946 000e FFF7FEFF 		bl	chprintf
 947              	.LVL79:
 948              		.loc 1 279 0
 949 0012 6420     		movs	r0, #100
 950 0014 FFF7FEFF 		bl	chThdSleep
 951              		.loc 1 281 0
 952 0018 2046     		mov	r0, r4
ARM GAS  C:\Users\DNIEL~1\AppData\Local\Temp\ccm7a9MI.s 			page 18


 953 001a FFF7FEFF 		bl	sdcConnect
 954 001e 0546     		mov	r5, r0
 955 0020 0028     		cmp	r0, #0
 956 0022 40F02982 		bne	.L92
 957              	.LBB29:
 958              		.loc 1 283 0
 959 0026 7C49     		ldr	r1, .L176+8
 960 0028 3846     		mov	r0, r7
 961 002a FFF7FEFF 		bl	chprintf
 962              		.loc 1 284 0
 963 002e 3846     		mov	r0, r7
 964 0030 7A49     		ldr	r1, .L176+12
 965 0032 FFF7FEFF 		bl	chprintf
 966              		.loc 1 285 0
 967 0036 E069     		ldr	r0, [r4, #28]
 968 0038 A669     		ldr	r6, [r4, #24]
 969 003a 626A     		ldr	r2, [r4, #36]
 970 003c 236A     		ldr	r3, [r4, #32]
 971 003e 7849     		ldr	r1, .L176+16
 972 0040 0090     		str	r0, [sp, #0]
 973 0042 3846     		mov	r0, r7
 974 0044 0196     		str	r6, [sp, #4]
 975 0046 FFF7FEFF 		bl	chprintf
 976              		.loc 1 288 0
 977 004a 7649     		ldr	r1, .L176+20
 978 004c 3846     		mov	r0, r7
 979 004e FFF7FEFF 		bl	chprintf
 980              		.loc 1 289 0
 981 0052 6420     		movs	r0, #100
 982 0054 FFF7FEFF 		bl	chThdSleep
 983              		.loc 1 290 0
 984 0058 2046     		mov	r0, r4
 985 005a 2946     		mov	r1, r5
 986 005c 724A     		ldr	r2, .L176+24
 987 005e 0123     		movs	r3, #1
 988 0060 FFF7FEFF 		bl	sdcRead
 989 0064 0028     		cmp	r0, #0
 990 0066 40F01F82 		bne	.L157
 991              	.L93:
 992              		.loc 1 292 0
 993 006a 7049     		ldr	r1, .L176+28
 994 006c 3846     		mov	r0, r7
 995 006e FFF7FEFF 		bl	chprintf
 996              		.loc 1 293 0
 997 0072 6420     		movs	r0, #100
 998 0074 FFF7FEFF 		bl	chThdSleep
 999              		.loc 1 296 0
 1000 0078 6D49     		ldr	r1, .L176+32
 1001 007a 3846     		mov	r0, r7
 1002 007c FFF7FEFF 		bl	chprintf
 1003              		.loc 1 297 0
 1004 0080 6420     		movs	r0, #100
 1005 0082 FFF7FEFF 		bl	chThdSleep
 1006              		.loc 1 298 0
 1007 0086 6348     		ldr	r0, .L176+4
 1008 0088 6A4A     		ldr	r2, .L176+36
 1009 008a 0021     		movs	r1, #0
ARM GAS  C:\Users\DNIEL~1\AppData\Local\Temp\ccm7a9MI.s 			page 19


 1010 008c 0123     		movs	r3, #1
 1011 008e FFF7FEFF 		bl	sdcRead
 1012 0092 0028     		cmp	r0, #0
 1013 0094 40F00B82 		bne	.L158
 1014              		.loc 1 300 0
 1015 0098 5E48     		ldr	r0, .L176+4
 1016 009a 674A     		ldr	r2, .L176+40
 1017 009c 0021     		movs	r1, #0
 1018 009e 0123     		movs	r3, #1
 1019 00a0 FFF7FEFF 		bl	sdcRead
 1020 00a4 0028     		cmp	r0, #0
 1021 00a6 40F00D82 		bne	.L159
 1022              	.L95:
 1023              		.loc 1 302 0
 1024 00aa 5A48     		ldr	r0, .L176+4
 1025 00ac 634A     		ldr	r2, .L176+44
 1026 00ae 0021     		movs	r1, #0
 1027 00b0 0123     		movs	r3, #1
 1028 00b2 FFF7FEFF 		bl	sdcRead
 1029 00b6 0028     		cmp	r0, #0
 1030 00b8 40F00F82 		bne	.L160
 1031              	.L96:
 1032              		.loc 1 304 0
 1033 00bc 5B49     		ldr	r1, .L176+28
 1034 00be 3846     		mov	r0, r7
 1035 00c0 FFF7FEFF 		bl	chprintf
 1036              		.loc 1 305 0
 1037 00c4 6420     		movs	r0, #100
 1038 00c6 FFF7FEFF 		bl	chThdSleep
 1039              		.loc 1 308 0
 1040 00ca 5D49     		ldr	r1, .L176+48
 1041 00cc 3846     		mov	r0, r7
 1042 00ce FFF7FEFF 		bl	chprintf
 1043              		.loc 1 309 0
 1044 00d2 6420     		movs	r0, #100
 1045 00d4 FFF7FEFF 		bl	chThdSleep
 1046              	.LVL80:
 1047 00d8 5A4B     		ldr	r3, .L176+52
 1048              	.LBB31:
 1049              	.LBB38:
 1050              	.LBB41:
 1051              		.loc 1 72 0
 1052 00da 5521     		movs	r1, #85
 1053              	.LBE41:
 1054              	.LBE38:
 1055              	.LBE31:
 1056              		.loc 1 273 0
 1057 00dc 03F58056 		add	r6, r3, #4096
 1058              	.LVL81:
 1059              	.L97:
 1060 00e0 5A1C     		adds	r2, r3, #1
 1061              	.LBB50:
 1062              	.LBB45:
 1063              	.LBB42:
 1064              		.loc 1 72 0
 1065 00e2 5970     		strb	r1, [r3, #1]
 1066              	.LBE42:
ARM GAS  C:\Users\DNIEL~1\AppData\Local\Temp\ccm7a9MI.s 			page 20


 1067              	.LBE45:
 1068              	.LBE50:
 1069              		.loc 1 273 0
 1070 00e4 0233     		adds	r3, r3, #2
 1071              	.LBB51:
 1072              	.LBB37:
 1073              	.LBB40:
 1074              		.loc 1 71 0
 1075 00e6 B342     		cmp	r3, r6
 1076              		.loc 1 72 0
 1077 00e8 5170     		strb	r1, [r2, #1]
 1078              		.loc 1 71 0
 1079 00ea F9D1     		bne	.L97
 1080 00ec DFF86081 		ldr	r8, .L176+64
 1081              	.LBE40:
 1082              	.LBE37:
 1083              	.LBB33:
 1084              	.LBB35:
 1085              		.loc 1 72 0
 1086 00f0 5521     		movs	r1, #85
 1087              	.LBE35:
 1088              	.LBE33:
 1089              	.LBB32:
 1090              	.LBB43:
 1091              		.loc 1 273 0
 1092 00f2 08F58055 		add	r5, r8, #4096
 1093              	.LBE43:
 1094              	.LBE32:
 1095              	.LBE51:
 1096              	.LBE29:
 1097 00f6 4346     		mov	r3, r8
 1098              	.L98:
 1099              	.LBB71:
 1100              	.LBB30:
 1101              	.LBB46:
 1102              	.LBB39:
 1103 00f8 5C1C     		adds	r4, r3, #1
 1104              	.LBE39:
 1105              	.LBE46:
 1106              	.LBB47:
 1107              	.LBB34:
 1108              		.loc 1 72 0
 1109 00fa 5970     		strb	r1, [r3, #1]
 1110              	.LBE34:
 1111              	.LBE47:
 1112              	.LBB48:
 1113              	.LBB44:
 1114              		.loc 1 273 0
 1115 00fc 0233     		adds	r3, r3, #2
 1116              	.LBE44:
 1117              	.LBE48:
 1118              	.LBB49:
 1119              	.LBB36:
 1120              		.loc 1 71 0
 1121 00fe AB42     		cmp	r3, r5
 1122              		.loc 1 72 0
 1123 0100 6170     		strb	r1, [r4, #1]
ARM GAS  C:\Users\DNIEL~1\AppData\Local\Temp\ccm7a9MI.s 			page 21


 1124              	.LVL82:
 1125              		.loc 1 71 0
 1126 0102 F9D1     		bne	.L98
 1127              	.LBE36:
 1128              	.LBE49:
 1129              	.LBE30:
 1130              		.loc 1 312 0
 1131 0104 4348     		ldr	r0, .L176+4
 1132 0106 484A     		ldr	r2, .L176+24
 1133 0108 0021     		movs	r1, #0
 1134 010a 0823     		movs	r3, #8
 1135 010c FFF7FEFF 		bl	sdcRead
 1136 0110 0028     		cmp	r0, #0
 1137 0112 40F0E581 		bne	.L161
 1138              	.L99:
 1139              	.LBE71:
 1140              		.loc 1 273 0 discriminator 1
 1141 0116 4FF47A74 		mov	r4, #1000
 1142 011a 17E0     		b	.L102
 1143              	.LVL83:
 1144              	.L100:
 1145              	.LBB72:
 1146              		.loc 1 317 0
 1147 011c 4248     		ldr	r0, .L176+24
 1148 011e 4A49     		ldr	r1, .L176+56
 1149 0120 4FF48052 		mov	r2, #4096
 1150 0124 FFF7FEFF 		bl	memcmp
 1151 0128 10BB     		cbnz	r0, .L162
 1152              	.L101:
 1153              		.loc 1 315 0
 1154 012a 3A48     		ldr	r0, .L176+4
 1155 012c 464A     		ldr	r2, .L176+56
 1156 012e 0021     		movs	r1, #0
 1157 0130 0823     		movs	r3, #8
 1158              		.loc 1 318 0
 1159 0132 013C     		subs	r4, r4, #1
 1160              		.loc 1 315 0
 1161 0134 FFF7FEFF 		bl	sdcRead
 1162 0138 28BB     		cbnz	r0, .L163
 1163              	.L144:
 1164              		.loc 1 317 0
 1165 013a 3B48     		ldr	r0, .L176+24
 1166 013c 4249     		ldr	r1, .L176+56
 1167 013e 4FF48052 		mov	r2, #4096
 1168 0142 FFF7FEFF 		bl	memcmp
 1169 0146 40BB     		cbnz	r0, .L164
 1170              	.L145:
 1171              		.loc 1 314 0
 1172 0148 013C     		subs	r4, r4, #1
 1173 014a 2AD0     		beq	.L165
 1174              	.L102:
 1175              		.loc 1 315 0
 1176 014c 3148     		ldr	r0, .L176+4
 1177 014e 3E4A     		ldr	r2, .L176+56
 1178 0150 0021     		movs	r1, #0
 1179 0152 0823     		movs	r3, #8
 1180 0154 FFF7FEFF 		bl	sdcRead
ARM GAS  C:\Users\DNIEL~1\AppData\Local\Temp\ccm7a9MI.s 			page 22


 1181 0158 0028     		cmp	r0, #0
 1182 015a DFD0     		beq	.L100
 1183              		.loc 1 316 0
 1184 015c FFF7FEFF 		bl	port_halt
 1185              		.loc 1 317 0
 1186 0160 3148     		ldr	r0, .L176+24
 1187 0162 3949     		ldr	r1, .L176+56
 1188 0164 4FF48052 		mov	r2, #4096
 1189 0168 FFF7FEFF 		bl	memcmp
 1190 016c 0028     		cmp	r0, #0
 1191 016e DCD0     		beq	.L101
 1192              	.L162:
 1193              		.loc 1 318 0
 1194 0170 FFF7FEFF 		bl	port_halt
 1195              		.loc 1 315 0
 1196 0174 2748     		ldr	r0, .L176+4
 1197 0176 344A     		ldr	r2, .L176+56
 1198 0178 0021     		movs	r1, #0
 1199 017a 0823     		movs	r3, #8
 1200              		.loc 1 318 0
 1201 017c 013C     		subs	r4, r4, #1
 1202              		.loc 1 315 0
 1203 017e FFF7FEFF 		bl	sdcRead
 1204 0182 0028     		cmp	r0, #0
 1205 0184 D9D0     		beq	.L144
 1206              	.L163:
 1207              		.loc 1 316 0
 1208 0186 FFF7FEFF 		bl	port_halt
 1209              		.loc 1 317 0
 1210 018a 2748     		ldr	r0, .L176+24
 1211 018c 2E49     		ldr	r1, .L176+56
 1212 018e 4FF48052 		mov	r2, #4096
 1213 0192 FFF7FEFF 		bl	memcmp
 1214 0196 0028     		cmp	r0, #0
 1215 0198 D6D0     		beq	.L145
 1216              	.L164:
 1217              		.loc 1 318 0
 1218 019a FFF7FEFF 		bl	port_halt
 1219              		.loc 1 314 0
 1220 019e 013C     		subs	r4, r4, #1
 1221 01a0 D4D1     		bne	.L102
 1222              	.L165:
 1223              		.loc 1 320 0
 1224 01a2 2249     		ldr	r1, .L176+28
 1225 01a4 3846     		mov	r0, r7
 1226 01a6 FFF7FEFF 		bl	chprintf
 1227              		.loc 1 321 0
 1228 01aa 6420     		movs	r0, #100
 1229 01ac FFF7FEFF 		bl	chThdSleep
 1230              		.loc 1 324 0
 1231 01b0 2649     		ldr	r1, .L176+60
 1232 01b2 3846     		mov	r0, r7
 1233 01b4 FFF7FEFF 		bl	chprintf
 1234              		.loc 1 325 0
 1235 01b8 6420     		movs	r0, #100
 1236 01ba FFF7FEFF 		bl	chThdSleep
 1237              	.LVL84:
ARM GAS  C:\Users\DNIEL~1\AppData\Local\Temp\ccm7a9MI.s 			page 23


 1238 01be 1A4B     		ldr	r3, .L176+24
 1239              	.LBB52:
 1240              	.LBB54:
 1241              	.LBB57:
 1242              		.loc 1 72 0
 1243 01c0 5521     		movs	r1, #85
 1244 01c2 1970     		strb	r1, [r3, #0]
 1245              	.LVL85:
 1246 01c4 03F8011F 		strb	r1, [r3, #1]!
 1247              	.L103:
 1248              	.LBE57:
 1249              	.LBE54:
 1250              	.LBE52:
 1251              		.loc 1 325 0
 1252 01c8 581C     		adds	r0, r3, #1
 1253              	.LBB69:
 1254              	.LBB53:
 1255              	.LBB56:
 1256              		.loc 1 72 0
 1257 01ca 5970     		strb	r1, [r3, #1]
 1258              	.LBE56:
 1259              	.LBE53:
 1260              	.LBE69:
 1261              		.loc 1 325 0
 1262 01cc 0233     		adds	r3, r3, #2
 1263              	.LBB70:
 1264              	.LBB60:
 1265              	.LBB58:
 1266              		.loc 1 71 0
 1267 01ce 9E42     		cmp	r6, r3
 1268              		.loc 1 72 0
 1269 01d0 4170     		strb	r1, [r0, #1]
 1270              		.loc 1 71 0
 1271 01d2 F9D1     		bne	.L103
 1272 01d4 6FEA0801 		mvn	r1, r8
 1273 01d8 05EB010C 		add	ip, r5, r1
 1274 01dc 1A4B     		ldr	r3, .L176+56
 1275              	.LBE58:
 1276              	.LBE60:
 1277              	.LBB61:
 1278              	.LBB63:
 1279              		.loc 1 72 0
 1280 01de 5521     		movs	r1, #85
 1281 01e0 0CF00106 		and	r6, ip, #1
 1282 01e4 1970     		strb	r1, [r3, #0]
 1283 01e6 0EB1     		cbz	r6, .L126
 1284 01e8 03F8011F 		strb	r1, [r3, #1]!
 1285              	.LVL86:
 1286              	.L126:
 1287              	.LBE63:
 1288              	.LBE61:
 1289              	.LBB65:
 1290              	.LBB55:
 1291              		.loc 1 71 0
 1292 01ec 5A1C     		adds	r2, r3, #1
 1293              	.LBE55:
 1294              	.LBE65:
ARM GAS  C:\Users\DNIEL~1\AppData\Local\Temp\ccm7a9MI.s 			page 24


 1295              	.LBB66:
 1296              	.LBB62:
 1297              		.loc 1 72 0
 1298 01ee 5970     		strb	r1, [r3, #1]
 1299              	.LBE62:
 1300              	.LBE66:
 1301              	.LBB67:
 1302              	.LBB59:
 1303              		.loc 1 71 0
 1304 01f0 0233     		adds	r3, r3, #2
 1305              	.LBE59:
 1306              	.LBE67:
 1307              	.LBB68:
 1308              	.LBB64:
 1309 01f2 AB42     		cmp	r3, r5
 1310              		.loc 1 72 0
 1311 01f4 5170     		strb	r1, [r2, #1]
 1312              		.loc 1 71 0
 1313 01f6 F9D1     		bne	.L126
 1314              	.LBE64:
 1315              	.LBE68:
 1316              	.LBE70:
 1317              		.loc 1 328 0
 1318 01f8 0648     		ldr	r0, .L176+4
 1319 01fa 0E4A     		ldr	r2, .L176+36
 1320 01fc 0021     		movs	r1, #0
 1321 01fe 0823     		movs	r3, #8
 1322 0200 FFF7FEFF 		bl	sdcRead
 1323 0204 0028     		cmp	r0, #0
 1324 0206 40F0A181 		bne	.L166
 1325              	.L105:
 1326              	.LVL87:
 1327              	.LBE72:
 1328              		.loc 1 273 0 discriminator 1
 1329 020a 4FF47A74 		mov	r4, #1000
 1330 020e 39E0     		b	.L108
 1331              	.L177:
 1332              		.align	2
 1333              	.L176:
 1334 0210 90010000 		.word	.LC18
 1335 0214 00000000 		.word	SDCD1
 1336 0218 AC010000 		.word	.LC19
 1337 021c B4010000 		.word	.LC20
 1338 0220 D0010000 		.word	.LC21
 1339 0224 E0010000 		.word	.LC22
 1340 0228 00000000 		.word	.LANCHOR2
 1341 022c F8010000 		.word	.LC23
 1342 0230 00020000 		.word	.LC24
 1343 0234 01000000 		.word	.LANCHOR2+1
 1344 0238 02000000 		.word	.LANCHOR2+2
 1345 023c 03000000 		.word	.LANCHOR2+3
 1346 0240 1C020000 		.word	.LC25
 1347 0244 FFFFFFFF 		.word	.LANCHOR2-1
 1348 0248 00000000 		.word	.LANCHOR3
 1349 024c 38020000 		.word	.LC26
 1350 0250 FFFFFFFF 		.word	.LANCHOR3-1
 1351              	.LVL88:
ARM GAS  C:\Users\DNIEL~1\AppData\Local\Temp\ccm7a9MI.s 			page 25


 1352              	.L106:
 1353              	.LBB73:
 1354              		.loc 1 333 0
 1355 0254 A448     		ldr	r0, .L178
 1356 0256 A549     		ldr	r1, .L178+4
 1357 0258 4FF48052 		mov	r2, #4096
 1358 025c FFF7FEFF 		bl	memcmp
 1359 0260 10BB     		cbnz	r0, .L167
 1360              	.L107:
 1361              		.loc 1 331 0
 1362 0262 A348     		ldr	r0, .L178+8
 1363 0264 A34A     		ldr	r2, .L178+12
 1364 0266 0021     		movs	r1, #0
 1365 0268 0823     		movs	r3, #8
 1366              		.loc 1 334 0
 1367 026a 013C     		subs	r4, r4, #1
 1368              		.loc 1 331 0
 1369 026c FFF7FEFF 		bl	sdcRead
 1370 0270 28BB     		cbnz	r0, .L168
 1371              	.L133:
 1372              		.loc 1 333 0
 1373 0272 9D48     		ldr	r0, .L178
 1374 0274 9D49     		ldr	r1, .L178+4
 1375 0276 4FF48052 		mov	r2, #4096
 1376 027a FFF7FEFF 		bl	memcmp
 1377 027e 40BB     		cbnz	r0, .L169
 1378              	.L134:
 1379              		.loc 1 330 0
 1380 0280 013C     		subs	r4, r4, #1
 1381 0282 2AD0     		beq	.L170
 1382              	.L108:
 1383              		.loc 1 331 0
 1384 0284 9A48     		ldr	r0, .L178+8
 1385 0286 9B4A     		ldr	r2, .L178+12
 1386 0288 0021     		movs	r1, #0
 1387 028a 0823     		movs	r3, #8
 1388 028c FFF7FEFF 		bl	sdcRead
 1389 0290 0028     		cmp	r0, #0
 1390 0292 DFD0     		beq	.L106
 1391              		.loc 1 332 0
 1392 0294 FFF7FEFF 		bl	port_halt
 1393              		.loc 1 333 0
 1394 0298 9348     		ldr	r0, .L178
 1395 029a 9449     		ldr	r1, .L178+4
 1396 029c 4FF48052 		mov	r2, #4096
 1397 02a0 FFF7FEFF 		bl	memcmp
 1398 02a4 0028     		cmp	r0, #0
 1399 02a6 DCD0     		beq	.L107
 1400              	.L167:
 1401              		.loc 1 334 0
 1402 02a8 FFF7FEFF 		bl	port_halt
 1403              		.loc 1 331 0
 1404 02ac 9048     		ldr	r0, .L178+8
 1405 02ae 914A     		ldr	r2, .L178+12
 1406 02b0 0021     		movs	r1, #0
 1407 02b2 0823     		movs	r3, #8
 1408              		.loc 1 334 0
ARM GAS  C:\Users\DNIEL~1\AppData\Local\Temp\ccm7a9MI.s 			page 26


 1409 02b4 013C     		subs	r4, r4, #1
 1410              		.loc 1 331 0
 1411 02b6 FFF7FEFF 		bl	sdcRead
 1412 02ba 0028     		cmp	r0, #0
 1413 02bc D9D0     		beq	.L133
 1414              	.L168:
 1415              		.loc 1 332 0
 1416 02be FFF7FEFF 		bl	port_halt
 1417              		.loc 1 333 0
 1418 02c2 8948     		ldr	r0, .L178
 1419 02c4 8949     		ldr	r1, .L178+4
 1420 02c6 4FF48052 		mov	r2, #4096
 1421 02ca FFF7FEFF 		bl	memcmp
 1422 02ce 0028     		cmp	r0, #0
 1423 02d0 D6D0     		beq	.L134
 1424              	.L169:
 1425              		.loc 1 334 0
 1426 02d2 FFF7FEFF 		bl	port_halt
 1427              		.loc 1 330 0
 1428 02d6 013C     		subs	r4, r4, #1
 1429 02d8 D4D1     		bne	.L108
 1430              	.L170:
 1431              		.loc 1 336 0
 1432 02da 8749     		ldr	r1, .L178+16
 1433              		.loc 1 350 0
 1434 02dc 874E     		ldr	r6, .L178+20
 1435              		.loc 1 336 0
 1436 02de 3846     		mov	r0, r7
 1437 02e0 FFF7FEFF 		bl	chprintf
 1438              		.loc 1 337 0
 1439 02e4 6420     		movs	r0, #100
 1440 02e6 FFF7FEFF 		bl	chThdSleep
 1441              		.loc 1 350 0
 1442 02ea 0FCE     		ldmia	r6!, {r0, r1, r2, r3}
 1443 02ec 99AD     		add	r5, sp, #612
 1444 02ee AE46     		mov	lr, r5
 1445 02f0 AEE80F00 		stmia	lr!, {r0, r1, r2, r3}
 1446 02f4 3368     		ldr	r3, [r6, #0]
 1447              		.loc 1 352 0
 1448 02f6 8249     		ldr	r1, .L178+24
 1449              		.loc 1 350 0
 1450 02f8 CEF80030 		str	r3, [lr, #0]
 1451              		.loc 1 352 0
 1452 02fc 3846     		mov	r0, r7
 1453 02fe FFF7FEFF 		bl	chprintf
 1454              		.loc 1 353 0
 1455 0302 6420     		movs	r0, #100
 1456 0304 FFF7FEFF 		bl	chThdSleep
 1457              		.loc 1 354 0
 1458 0308 2046     		mov	r0, r4
 1459 030a 7E49     		ldr	r1, .L178+28
 1460 030c FFF7FEFF 		bl	f_mount
 1461              	.LVL89:
 1462              		.loc 1 355 0
 1463 0310 0028     		cmp	r0, #0
 1464 0312 40F0B780 		bne	.L171
 1465              		.loc 1 359 0
ARM GAS  C:\Users\DNIEL~1\AppData\Local\Temp\ccm7a9MI.s 			page 27


 1466 0316 7C4A     		ldr	r2, .L178+32
 1467              		.loc 1 360 0
 1468 0318 7C49     		ldr	r1, .L178+36
 1469              		.loc 1 359 0
 1470 031a 0124     		movs	r4, #1
 1471              		.loc 1 360 0
 1472 031c 3846     		mov	r0, r7
 1473              	.LVL90:
 1474              		.loc 1 359 0
 1475 031e 1460     		str	r4, [r2, #0]
 1476              		.loc 1 360 0
 1477 0320 FFF7FEFF 		bl	chprintf
 1478              	.L110:
 1479              		.loc 1 363 0
 1480 0324 7A49     		ldr	r1, .L178+40
 1481 0326 3846     		mov	r0, r7
 1482 0328 FFF7FEFF 		bl	chprintf
 1483              		.loc 1 364 0
 1484 032c 6420     		movs	r0, #100
 1485 032e FFF7FEFF 		bl	chThdSleep
 1486              		.loc 1 365 0
 1487 0332 7848     		ldr	r0, .L178+44
 1488 0334 A1A9     		add	r1, sp, #644
 1489 0336 A0AA     		add	r2, sp, #640
 1490 0338 FFF7FEFF 		bl	f_getfree
 1491              	.LVL91:
 1492              		.loc 1 366 0
 1493 033c 0028     		cmp	r0, #0
 1494 033e 40F01381 		bne	.L172
 1495              	.LVL92:
 1496              	.L111:
 1497              		.loc 1 369 0
 1498 0342 3846     		mov	r0, r7
 1499 0344 7149     		ldr	r1, .L178+36
 1500 0346 FFF7FEFF 		bl	chprintf
 1501              		.loc 1 373 0
 1502 034a 6E49     		ldr	r1, .L178+28
 1503              	.LVL93:
 1504 034c A19A     		ldr	r2, [sp, #644]
 1505 034e 8878     		ldrb	r0, [r1, #2]	@ zero_extendqisi2
 1506              		.loc 1 370 0
 1507 0350 7149     		ldr	r1, .L178+48
 1508              		.loc 1 373 0
 1509 0352 5402     		lsls	r4, r2, #9
 1510              		.loc 1 370 0
 1511 0354 0346     		mov	r3, r0
 1512 0356 00FB04F4 		mul	r4, r0, r4
 1513 035a 3846     		mov	r0, r7
 1514 035c 0094     		str	r4, [sp, #0]
 1515 035e FFF7FEFF 		bl	chprintf
 1516              		.loc 1 376 0
 1517 0362 6E49     		ldr	r1, .L178+52
 1518 0364 3846     		mov	r0, r7
 1519 0366 FFF7FEFF 		bl	chprintf
 1520              		.loc 1 377 0
 1521 036a 6420     		movs	r0, #100
 1522 036c FFF7FEFF 		bl	chThdSleep
ARM GAS  C:\Users\DNIEL~1\AppData\Local\Temp\ccm7a9MI.s 			page 28


 1523              		.loc 1 378 0
 1524 0370 03A8     		add	r0, sp, #12
 1525 0372 6B49     		ldr	r1, .L178+56
 1526 0374 1222     		movs	r2, #18
 1527 0376 FFF7FEFF 		bl	f_open
 1528              	.LVL94:
 1529              		.loc 1 379 0
 1530 037a 0028     		cmp	r0, #0
 1531 037c 40F0F180 		bne	.L173
 1532              	.LVL95:
 1533              	.L112:
 1534              		.loc 1 382 0
 1535 0380 6249     		ldr	r1, .L178+36
 1536 0382 3846     		mov	r0, r7
 1537 0384 FFF7FEFF 		bl	chprintf
 1538              		.loc 1 383 0
 1539 0388 6649     		ldr	r1, .L178+60
 1540 038a 3846     		mov	r0, r7
 1541 038c FFF7FEFF 		bl	chprintf
 1542              		.loc 1 384 0
 1543 0390 6420     		movs	r0, #100
 1544 0392 FFF7FEFF 		bl	chThdSleep
 1545              		.loc 1 385 0
 1546 0396 03A8     		add	r0, sp, #12
 1547 0398 2946     		mov	r1, r5
 1548 039a 1422     		movs	r2, #20
 1549 039c 9FAB     		add	r3, sp, #636
 1550 039e FFF7FEFF 		bl	f_write
 1551              	.LVL96:
 1552              		.loc 1 386 0
 1553 03a2 0028     		cmp	r0, #0
 1554 03a4 76D0     		beq	.L113
 1555              		.loc 1 387 0
 1556 03a6 FFF7FEFF 		bl	port_halt
 1557              	.LVL97:
 1558              	.L114:
 1559              		.loc 1 392 0
 1560 03aa 3846     		mov	r0, r7
 1561 03ac 5E49     		ldr	r1, .L178+64
 1562 03ae FFF7FEFF 		bl	chprintf
 1563              		.loc 1 393 0
 1564 03b2 03A8     		add	r0, sp, #12
 1565 03b4 FFF7FEFF 		bl	f_close
 1566              	.LVL98:
 1567              		.loc 1 394 0
 1568 03b8 0028     		cmp	r0, #0
 1569 03ba 66D0     		beq	.L115
 1570              		.loc 1 395 0
 1571 03bc FFF7FEFF 		bl	port_halt
 1572              	.LVL99:
 1573              	.L116:
 1574              		.loc 1 400 0
 1575 03c0 3846     		mov	r0, r7
 1576 03c2 5A49     		ldr	r1, .L178+68
 1577 03c4 FFF7FEFF 		bl	chprintf
 1578              		.loc 1 401 0
 1579 03c8 5548     		ldr	r0, .L178+56
ARM GAS  C:\Users\DNIEL~1\AppData\Local\Temp\ccm7a9MI.s 			page 29


 1580 03ca 8CA9     		add	r1, sp, #560
 1581 03cc FFF7FEFF 		bl	f_stat
 1582 03d0 0446     		mov	r4, r0
 1583              	.LVL100:
 1584              		.loc 1 402 0
 1585 03d2 6420     		movs	r0, #100
 1586              	.LVL101:
 1587 03d4 FFF7FEFF 		bl	chThdSleep
 1588              		.loc 1 403 0
 1589 03d8 1CB9     		cbnz	r4, .L119
 1590              		.loc 1 407 0
 1591 03da 8C9B     		ldr	r3, [sp, #560]
 1592 03dc 142B     		cmp	r3, #20
 1593 03de 00F0B880 		beq	.L174
 1594              	.L119:
 1595              		.loc 1 410 0
 1596 03e2 FFF7FEFF 		bl	port_halt
 1597              	.L118:
 1598              		.loc 1 413 0
 1599 03e6 5249     		ldr	r1, .L178+72
 1600 03e8 3846     		mov	r0, r7
 1601 03ea FFF7FEFF 		bl	chprintf
 1602              		.loc 1 414 0
 1603 03ee 03A8     		add	r0, sp, #12
 1604 03f0 4B49     		ldr	r1, .L178+56
 1605 03f2 0122     		movs	r2, #1
 1606 03f4 FFF7FEFF 		bl	f_open
 1607 03f8 0446     		mov	r4, r0
 1608              	.LVL102:
 1609              		.loc 1 415 0
 1610 03fa 6420     		movs	r0, #100
 1611              	.LVL103:
 1612 03fc FFF7FEFF 		bl	chThdSleep
 1613              		.loc 1 416 0
 1614 0400 002C     		cmp	r4, #0
 1615 0402 40F0AB80 		bne	.L175
 1616              	.L120:
 1617              		.loc 1 420 0
 1618 0406 03A8     		add	r0, sp, #12
 1619 0408 94A9     		add	r1, sp, #592
 1620 040a 1422     		movs	r2, #20
 1621 040c 9EAB     		add	r3, sp, #632
 1622 040e FFF7FEFF 		bl	f_read
 1623              	.LVL104:
 1624              		.loc 1 421 0
 1625 0412 30B9     		cbnz	r0, .L156
 1626              		.loc 1 425 0
 1627 0414 2846     		mov	r0, r5
 1628              	.LVL105:
 1629 0416 94A9     		add	r1, sp, #592
 1630 0418 1422     		movs	r2, #20
 1631 041a FFF7FEFF 		bl	memcmp
 1632 041e 0028     		cmp	r0, #0
 1633 0420 3DD0     		beq	.L123
 1634              	.L156:
 1635              		.loc 1 426 0
 1636 0422 FFF7FEFF 		bl	port_halt
ARM GAS  C:\Users\DNIEL~1\AppData\Local\Temp\ccm7a9MI.s 			page 30


 1637              	.L122:
 1638              		.loc 1 433 0
 1639 0426 3846     		mov	r0, r7
 1640 0428 4249     		ldr	r1, .L178+76
 1641 042a FFF7FEFF 		bl	chprintf
 1642              		.loc 1 434 0
 1643 042e 0020     		movs	r0, #0
 1644 0430 0146     		mov	r1, r0
 1645 0432 FFF7FEFF 		bl	f_mount
 1646              		.loc 1 435 0
 1647 0436 3846     		mov	r0, r7
 1648 0438 3449     		ldr	r1, .L178+36
 1649 043a FFF7FEFF 		bl	chprintf
 1650              		.loc 1 437 0
 1651 043e 3846     		mov	r0, r7
 1652 0440 3D49     		ldr	r1, .L178+80
 1653 0442 FFF7FEFF 		bl	chprintf
 1654              		.loc 1 438 0
 1655 0446 6420     		movs	r0, #100
 1656 0448 FFF7FEFF 		bl	chThdSleep
 1657              		.loc 1 439 0
 1658 044c 2848     		ldr	r0, .L178+8
 1659 044e FFF7FEFF 		bl	sdcDisconnect
 1660 0452 08B1     		cbz	r0, .L124
 1661              		.loc 1 440 0
 1662 0454 FFF7FEFF 		bl	port_halt
 1663              	.L124:
 1664              		.loc 1 441 0
 1665 0458 3846     		mov	r0, r7
 1666 045a 2749     		ldr	r1, .L178+16
 1667 045c FFF7FEFF 		bl	chprintf
 1668              		.loc 1 442 0
 1669 0460 3846     		mov	r0, r7
 1670 0462 3649     		ldr	r1, .L178+84
 1671 0464 FFF7FEFF 		bl	chprintf
 1672              		.loc 1 443 0
 1673 0468 3846     		mov	r0, r7
 1674 046a 3549     		ldr	r1, .L178+88
 1675 046c FFF7FEFF 		bl	chprintf
 1676              		.loc 1 444 0
 1677 0470 6420     		movs	r0, #100
 1678 0472 FFF7FEFF 		bl	chThdSleep
 1679 0476 01E0     		b	.L91
 1680              	.LVL106:
 1681              	.L92:
 1682              	.LBE73:
 1683              		.loc 1 447 0
 1684 0478 FFF7FEFF 		bl	port_halt
 1685              	.LVL107:
 1686              	.L91:
 1687              		.loc 1 449 0
 1688 047c 0DF5227D 		add	sp, sp, #648
 1689 0480 BDE8F081 		pop	{r4, r5, r6, r7, r8, pc}
 1690              	.LVL108:
 1691              	.L171:
 1692              	.LBB74:
 1693              		.loc 1 356 0
ARM GAS  C:\Users\DNIEL~1\AppData\Local\Temp\ccm7a9MI.s 			page 31


 1694 0484 FFF7FEFF 		bl	port_halt
 1695              	.LVL109:
 1696 0488 4CE7     		b	.L110
 1697              	.LVL110:
 1698              	.L115:
 1699              		.loc 1 398 0
 1700 048a 3846     		mov	r0, r7
 1701              	.LVL111:
 1702 048c 1F49     		ldr	r1, .L178+36
 1703 048e FFF7FEFF 		bl	chprintf
 1704 0492 95E7     		b	.L116
 1705              	.LVL112:
 1706              	.L113:
 1707              		.loc 1 390 0
 1708 0494 3846     		mov	r0, r7
 1709              	.LVL113:
 1710 0496 1D49     		ldr	r1, .L178+36
 1711 0498 FFF7FEFF 		bl	chprintf
 1712 049c 85E7     		b	.L114
 1713              	.L123:
 1714              		.loc 1 429 0
 1715 049e 3846     		mov	r0, r7
 1716 04a0 1A49     		ldr	r1, .L178+36
 1717 04a2 FFF7FEFF 		bl	chprintf
 1718 04a6 BEE7     		b	.L122
 1719              	.LVL114:
 1720              	.L157:
 1721              		.loc 1 291 0
 1722 04a8 FFF7FEFF 		bl	port_halt
 1723 04ac DDE5     		b	.L93
 1724              	.L158:
 1725              		.loc 1 299 0
 1726 04ae FFF7FEFF 		bl	port_halt
 1727              		.loc 1 300 0
 1728 04b2 0F48     		ldr	r0, .L178+8
 1729 04b4 234A     		ldr	r2, .L178+92
 1730 04b6 0021     		movs	r1, #0
 1731 04b8 0123     		movs	r3, #1
 1732 04ba FFF7FEFF 		bl	sdcRead
 1733 04be 0028     		cmp	r0, #0
 1734 04c0 3FF4F3AD 		beq	.L95
 1735              	.L159:
 1736              		.loc 1 301 0
 1737 04c4 FFF7FEFF 		bl	port_halt
 1738              		.loc 1 302 0
 1739 04c8 0948     		ldr	r0, .L178+8
 1740 04ca 1F4A     		ldr	r2, .L178+96
 1741 04cc 0021     		movs	r1, #0
 1742 04ce 0123     		movs	r3, #1
 1743 04d0 FFF7FEFF 		bl	sdcRead
 1744 04d4 0028     		cmp	r0, #0
 1745 04d6 3FF4F1AD 		beq	.L96
 1746              	.L160:
 1747              		.loc 1 303 0
 1748 04da FFF7FEFF 		bl	port_halt
 1749 04de EDE5     		b	.L96
 1750              	.LVL115:
ARM GAS  C:\Users\DNIEL~1\AppData\Local\Temp\ccm7a9MI.s 			page 32


 1751              	.L161:
 1752              		.loc 1 313 0
 1753 04e0 FFF7FEFF 		bl	port_halt
 1754 04e4 17E6     		b	.L99
 1755              	.L179:
 1756 04e6 00BF     		.align	2
 1757              	.L178:
 1758 04e8 00000000 		.word	.LANCHOR2
 1759 04ec 00000000 		.word	.LANCHOR3
 1760 04f0 00000000 		.word	SDCD1
 1761 04f4 01000000 		.word	.LANCHOR3+1
 1762 04f8 F8010000 		.word	.LC23
 1763 04fc DC030000 		.word	.LC27
 1764 0500 54020000 		.word	.LC28
 1765 0504 00000000 		.word	.LANCHOR6
 1766 0508 00000000 		.word	.LANCHOR5
 1767 050c AC010000 		.word	.LC19
 1768 0510 80020000 		.word	.LC29
 1769 0514 08000000 		.word	.LC1
 1770 0518 54000000 		.word	.LC5
 1771 051c 98020000 		.word	.LC30
 1772 0520 B8020000 		.word	.LC31
 1773 0524 C8020000 		.word	.LC32
 1774 0528 E4020000 		.word	.LC33
 1775 052c 00030000 		.word	.LC34
 1776 0530 24030000 		.word	.LC35
 1777 0534 48030000 		.word	.LC36
 1778 0538 60030000 		.word	.LC37
 1779 053c 7C030000 		.word	.LC38
 1780 0540 B8030000 		.word	.LC39
 1781 0544 02000000 		.word	.LANCHOR2+2
 1782 0548 03000000 		.word	.LANCHOR2+3
 1783              	.LVL116:
 1784              	.L166:
 1785              		.loc 1 329 0
 1786 054c FFF7FEFF 		bl	port_halt
 1787 0550 5BE6     		b	.L105
 1788              	.LVL117:
 1789              	.L174:
 1790              		.loc 1 408 0
 1791 0552 3846     		mov	r0, r7
 1792 0554 0649     		ldr	r1, .L180
 1793 0556 FFF7FEFF 		bl	chprintf
 1794 055a 44E7     		b	.L118
 1795              	.L175:
 1796              		.loc 1 417 0
 1797 055c FFF7FEFF 		bl	port_halt
 1798 0560 51E7     		b	.L120
 1799              	.LVL118:
 1800              	.L173:
 1801              		.loc 1 380 0
 1802 0562 FFF7FEFF 		bl	port_halt
 1803              	.LVL119:
 1804 0566 0BE7     		b	.L112
 1805              	.LVL120:
 1806              	.L172:
 1807              		.loc 1 367 0
ARM GAS  C:\Users\DNIEL~1\AppData\Local\Temp\ccm7a9MI.s 			page 33


 1808 0568 FFF7FEFF 		bl	port_halt
 1809              	.LVL121:
 1810 056c E9E6     		b	.L111
 1811              	.L181:
 1812 056e 00BF     		.align	2
 1813              	.L180:
 1814 0570 AC010000 		.word	.LC19
 1815              	.LBE74:
 1816              		.cfi_endproc
 1817              	.LFE131:
 1818              		.size	cmd_sdiotest, .-cmd_sdiotest
 1819 0574 AFF30080 		.section	.text.cmd_debug,"ax",%progbits
 1819      AFF30080 
 1819      AFF30080 
 1820              		.align	2
 1821              		.p2align 4,,15
 1822              		.global	cmd_debug
 1823              		.thumb
 1824              		.thumb_func
 1825              		.type	cmd_debug, %function
 1826              	cmd_debug:
 1827              	.LFB132:
 1828              		.loc 1 451 0
 1829              		.cfi_startproc
 1830              		@ args = 0, pretend = 0, frame = 584
 1831              		@ frame_needed = 0, uses_anonymous_args = 0
 1832              	.LVL122:
 1833 0000 F0B5     		push	{r4, r5, r6, r7, lr}
 1834              	.LCFI14:
 1835              		.cfi_def_cfa_offset 20
 1836              		.loc 1 456 0
 1837 0002 334F     		ldr	r7, .L197
 1838              		.cfi_offset 14, -4
 1839              		.cfi_offset 7, -8
 1840              		.cfi_offset 6, -12
 1841              		.cfi_offset 5, -16
 1842              		.cfi_offset 4, -20
 1843              		.loc 1 451 0
 1844 0004 0646     		mov	r6, r0
 1845 0006 8E46     		mov	lr, r1
 1846              		.loc 1 456 0
 1847 0008 0FCF     		ldmia	r7!, {r0, r1, r2, r3}
 1848              	.LVL123:
 1849              		.loc 1 451 0
 1850 000a ADF5137D 		sub	sp, sp, #588
 1851              	.LCFI15:
 1852              		.cfi_def_cfa_offset 608
 1853              		.loc 1 456 0
 1854 000e 89AC     		add	r4, sp, #548
 1855 0010 2546     		mov	r5, r4
 1856 0012 0FC5     		stmia	r5!, {r0, r1, r2, r3}
 1857 0014 97E80F00 		ldmia	r7, {r0, r1, r2, r3}
 1858 0018 85E80F00 		stmia	r5, {r0, r1, r2, r3}
 1859              		.loc 1 459 0
 1860 001c BEF1000F 		cmp	lr, #0
 1861 0020 4CD1     		bne	.L194
 1862              		.loc 1 463 0
ARM GAS  C:\Users\DNIEL~1\AppData\Local\Temp\ccm7a9MI.s 			page 34


 1863 0022 2C48     		ldr	r0, .L197+4
 1864 0024 0368     		ldr	r3, [r0, #0]
 1865 0026 002B     		cmp	r3, #0
 1866 0028 41D0     		beq	.L195
 1867              		.loc 1 467 0
 1868 002a 2B4F     		ldr	r7, .L197+8
 1869 002c 2B49     		ldr	r1, .L197+12
 1870 002e FA68     		ldr	r2, [r7, #12]
 1871 0030 3046     		mov	r0, r6
 1872 0032 FFF7FEFF 		bl	chprintf
 1873              	.LVL124:
 1874              		.loc 1 468 0
 1875 0036 6420     		movs	r0, #100
 1876 0038 FFF7FEFF 		bl	chThdSleep
 1877              		.loc 1 469 0
 1878 003c 6846     		mov	r0, sp
 1879 003e 2849     		ldr	r1, .L197+16
 1880 0040 1222     		movs	r2, #18
 1881 0042 FFF7FEFF 		bl	f_open
 1882              	.LVL125:
 1883              		.loc 1 470 0
 1884 0046 0028     		cmp	r0, #0
 1885 0048 3DD1     		bne	.L196
 1886              	.LVL126:
 1887              	.L186:
 1888              		.loc 1 473 0
 1889 004a 2649     		ldr	r1, .L197+20
 1890 004c 3046     		mov	r0, r6
 1891 004e FFF7FEFF 		bl	chprintf
 1892              		.loc 1 474 0
 1893 0052 6420     		movs	r0, #100
 1894 0054 FFF7FEFF 		bl	chThdSleep
 1895              		.loc 1 475 0
 1896 0058 FA68     		ldr	r2, [r7, #12]
 1897 005a 2349     		ldr	r1, .L197+24
 1898 005c 3046     		mov	r0, r6
 1899 005e FFF7FEFF 		bl	chprintf
 1900              	.LVL127:
 1901 0062 6425     		movs	r5, #100
 1902 0064 09E0     		b	.L189
 1903              	.LVL128:
 1904              	.L187:
 1905              		.loc 1 478 0
 1906 0066 6846     		mov	r0, sp
 1907              	.LVL129:
 1908 0068 2146     		mov	r1, r4
 1909 006a 2022     		movs	r2, #32
 1910 006c 91AB     		add	r3, sp, #580
 1911              		.loc 1 482 0
 1912 006e 013D     		subs	r5, r5, #1
 1913              		.loc 1 478 0
 1914 0070 FFF7FEFF 		bl	f_write
 1915              		.loc 1 479 0
 1916 0074 48B9     		cbnz	r0, .L193
 1917              		.loc 1 476 0
 1918 0076 013D     		subs	r5, r5, #1
 1919 0078 0BD0     		beq	.L188
ARM GAS  C:\Users\DNIEL~1\AppData\Local\Temp\ccm7a9MI.s 			page 35


 1920              	.L189:
 1921              		.loc 1 478 0
 1922 007a 6846     		mov	r0, sp
 1923 007c 2146     		mov	r1, r4
 1924 007e 2022     		movs	r2, #32
 1925 0080 91AB     		add	r3, sp, #580
 1926 0082 FFF7FEFF 		bl	f_write
 1927              	.LVL130:
 1928              		.loc 1 479 0
 1929 0086 0028     		cmp	r0, #0
 1930 0088 EDD0     		beq	.L187
 1931              	.LVL131:
 1932              	.L193:
 1933              		.loc 1 481 0
 1934 008a 3046     		mov	r0, r6
 1935 008c 1749     		ldr	r1, .L197+28
 1936 008e FFF7FEFF 		bl	chprintf
 1937              	.L188:
 1938              		.loc 1 485 0
 1939 0092 3046     		mov	r0, r6
 1940 0094 FA68     		ldr	r2, [r7, #12]
 1941 0096 1649     		ldr	r1, .L197+32
 1942 0098 FFF7FEFF 		bl	chprintf
 1943              		.loc 1 486 0
 1944 009c 6846     		mov	r0, sp
 1945 009e FFF7FEFF 		bl	f_close
 1946              	.LVL132:
 1947              		.loc 1 487 0
 1948 00a2 40B1     		cbz	r0, .L182
 1949              		.loc 1 488 0
 1950 00a4 3046     		mov	r0, r6
 1951              	.LVL133:
 1952 00a6 1349     		ldr	r1, .L197+36
 1953 00a8 FFF7FEFF 		bl	chprintf
 1954 00ac 03E0     		b	.L182
 1955              	.LVL134:
 1956              	.L195:
 1957              		.loc 1 464 0
 1958 00ae 3046     		mov	r0, r6
 1959 00b0 1149     		ldr	r1, .L197+40
 1960 00b2 FFF7FEFF 		bl	chprintf
 1961              	.LVL135:
 1962              	.L182:
 1963              		.loc 1 491 0
 1964 00b6 0DF5137D 		add	sp, sp, #588
 1965 00ba F0BD     		pop	{r4, r5, r6, r7, pc}
 1966              	.LVL136:
 1967              	.L194:
 1968              		.loc 1 460 0
 1969 00bc 3046     		mov	r0, r6
 1970 00be 0F49     		ldr	r1, .L197+44
 1971 00c0 FFF7FEFF 		bl	chprintf
 1972              	.LVL137:
 1973              		.loc 1 461 0
 1974 00c4 F7E7     		b	.L182
 1975              	.LVL138:
 1976              	.L196:
ARM GAS  C:\Users\DNIEL~1\AppData\Local\Temp\ccm7a9MI.s 			page 36


 1977              		.loc 1 471 0
 1978 00c6 3046     		mov	r0, r6
 1979              	.LVL139:
 1980 00c8 0D49     		ldr	r1, .L197+48
 1981 00ca FFF7FEFF 		bl	chprintf
 1982 00ce BCE7     		b	.L186
 1983              	.L198:
 1984              		.align	2
 1985              	.L197:
 1986 00d0 84040000 		.word	.LC40
 1987 00d4 00000000 		.word	.LANCHOR5
 1988 00d8 00000000 		.word	vtlist
 1989 00dc 00040000 		.word	.LC42
 1990 00e0 18040000 		.word	.LC43
 1991 00e4 AC010000 		.word	.LC19
 1992 00e8 44040000 		.word	.LC45
 1993 00ec 64040000 		.word	.LC46
 1994 00f0 78040000 		.word	.LC47
 1995 00f4 78010000 		.word	.LC17
 1996 00f8 1C000000 		.word	.LC3
 1997 00fc F0030000 		.word	.LC41
 1998 0100 28040000 		.word	.LC44
 1999              		.cfi_endproc
 2000              	.LFE132:
 2001              		.size	cmd_debug, .-cmd_debug
 2002              		.global	sdcard_fbuff
 2003 0104 AFF30080 		.section	.bss.sdcard_fbuff,"aw",%nobits
 2003      AFF30080 
 2003      AFF30080 
 2004              		.align	2
 2005              		.set	.LANCHOR1,. + 0
 2006              		.type	sdcard_fbuff, %object
 2007              		.size	sdcard_fbuff, 1024
 2008              	sdcard_fbuff:
 2009 0000 00000000 		.space	1024
 2009      00000000 
 2009      00000000 
 2009      00000000 
 2009      00000000 
 2010              		.section	.bss.lfn.8746,"aw",%nobits
 2011              		.align	2
 2012              		.set	.LANCHOR0,. + 0
 2013              		.type	lfn.8746, %object
 2014              		.size	lfn.8746, 256
 2015              	lfn.8746:
 2016 0000 00000000 		.space	256
 2016      00000000 
 2016      00000000 
 2016      00000000 
 2016      00000000 
 2017              		.section	.bss.sdcard_fs_ready,"aw",%nobits
 2018              		.align	2
 2019              		.set	.LANCHOR5,. + 0
 2020              		.type	sdcard_fs_ready, %object
 2021              		.size	sdcard_fs_ready, 4
 2022              	sdcard_fs_ready:
 2023 0000 00000000 		.space	4
ARM GAS  C:\Users\DNIEL~1\AppData\Local\Temp\ccm7a9MI.s 			page 37


 2024              		.section	.rodata.sdccfg,"a",%progbits
 2025              		.align	2
 2026              		.set	.LANCHOR4,. + 0
 2027              		.type	sdccfg, %object
 2028              		.size	sdccfg, 4
 2029              	sdccfg:
 2030 0000 00000000 		.space	4
 2031              		.section	.bss.sdcard_filesystem,"aw",%nobits
 2032              		.align	2
 2033              		.set	.LANCHOR6,. + 0
 2034              		.type	sdcard_filesystem, %object
 2035              		.size	sdcard_filesystem, 560
 2036              	sdcard_filesystem:
 2037 0000 00000000 		.space	560
 2037      00000000 
 2037      00000000 
 2037      00000000 
 2037      00000000 
 2038              		.section	.rodata.str1.4,"aMS",%progbits,1
 2039              		.align	2
 2040              	.LC0:
 2041 0000 25732F25 		.ascii	"%s/%s\015\012\000"
 2041      730D0A00 
 2042              	.LC1:
 2043 0008 2F00     		.ascii	"/\000"
 2044 000a 0000     		.space	2
 2045              	.LC2:
 2046 000c 55736167 		.ascii	"Usage: tree\015\012\000"
 2046      653A2074 
 2046      7265650D 
 2046      0A00
 2047 001a 0000     		.space	2
 2048              	.LC3:
 2049 001c 46696C65 		.ascii	"File System not mounted\015\012\000"
 2049      20537973 
 2049      74656D20 
 2049      6E6F7420 
 2049      6D6F756E 
 2050 0036 0000     		.space	2
 2051              	.LC4:
 2052 0038 46533A20 		.ascii	"FS: f_getfree() failed\015\012\000"
 2052      665F6765 
 2052      74667265 
 2052      65282920 
 2052      6661696C 
 2053 0051 000000   		.space	3
 2054              	.LC5:
 2055 0054 46533A20 		.ascii	"FS: %lu free clusters, %lu sectors per cluster, %lu"
 2055      256C7520 
 2055      66726565 
 2055      20636C75 
 2055      73746572 
 2056 0087 20627974 		.ascii	" bytes free\015\012\000"
 2056      65732066 
 2056      7265650D 
 2056      0A00
 2057 0095 000000   		.space	3
ARM GAS  C:\Users\DNIEL~1\AppData\Local\Temp\ccm7a9MI.s 			page 38


 2058              	.LC6:
 2059 0098 55736167 		.ascii	"Usage: mountsd\015\012\000"
 2059      653A206D 
 2059      6F756E74 
 2059      73640D0A 
 2059      00
 2060 00a9 000000   		.space	3
 2061              	.LC7:
 2062 00ac 5344433A 		.ascii	"SDC: sdcConnect() failed\015\012\000"
 2062      20736463 
 2062      436F6E6E 
 2062      65637428 
 2062      29206661 
 2063 00c7 00       		.space	1
 2064              	.LC8:
 2065 00c8 46533A20 		.ascii	"FS: f_mount() failed\015\012\000"
 2065      665F6D6F 
 2065      756E7428 
 2065      29206661 
 2065      696C6564 
 2066 00df 00       		.space	1
 2067              	.LC9:
 2068 00e0 53442063 		.ascii	"SD card mounted\015\012\000"
 2068      61726420 
 2068      6D6F756E 
 2068      7465640D 
 2068      0A00
 2069 00f2 0000     		.space	2
 2070              	.LC10:
 2071 00f4 556E6B6E 		.ascii	"Unknown Error\015\012\000"
 2071      6F776E20 
 2071      4572726F 
 2071      720D0A00 
 2072              	.LC11:
 2073 0104 55736167 		.ascii	"Usage: umountsd\015\012\000"
 2073      653A2075 
 2073      6D6F756E 
 2073      7473640D 
 2073      0A00
 2074 0116 0000     		.space	2
 2075              	.LC12:
 2076 0118 53442063 		.ascii	"SD card unmounted\015\012\000"
 2076      61726420 
 2076      756E6D6F 
 2076      756E7465 
 2076      640D0A00 
 2077              	.LC13:
 2078 012c 53442063 		.ascii	"SD card unmount failed\015\012\000"
 2078      61726420 
 2078      756E6D6F 
 2078      756E7420 
 2078      6661696C 
 2079 0145 000000   		.space	3
 2080              	.LC14:
 2081 0148 55736167 		.ascii	"Usage: cat FILE\015\012\000"
 2081      653A2063 
 2081      61742046 
ARM GAS  C:\Users\DNIEL~1\AppData\Local\Temp\ccm7a9MI.s 			page 39


 2081      494C450D 
 2081      0A00
 2082 015a 0000     		.space	2
 2083              	.LC15:
 2084 015c 46533A20 		.ascii	"FS: f_open() failed\015\012\000"
 2084      665F6F70 
 2084      656E2829 
 2084      20666169 
 2084      6C65640D 
 2085 0172 0000     		.space	2
 2086              	.LC16:
 2087 0174 257300   		.ascii	"%s\000"
 2088 0177 00       		.space	1
 2089              	.LC17:
 2090 0178 46533A20 		.ascii	"FS: f_close() failed\015\012\000"
 2090      665F636C 
 2090      6F736528 
 2090      29206661 
 2090      696C6564 
 2091 018f 00       		.space	1
 2092              	.LC18:
 2093 0190 54727969 		.ascii	"Trying to connect SDIO... \000"
 2093      6E672074 
 2093      6F20636F 
 2093      6E6E6563 
 2093      74205344 
 2094 01ab 00       		.space	1
 2095              	.LC19:
 2096 01ac 4F4B0D0A 		.ascii	"OK\015\012\000"
 2096      00
 2097 01b1 000000   		.space	3
 2098              	.LC20:
 2099 01b4 2A2A2A20 		.ascii	"*** Card CSD content is: \000"
 2099      43617264 
 2099      20435344 
 2099      20636F6E 
 2099      74656E74 
 2100 01ce 0000     		.space	2
 2101              	.LC21:
 2102 01d0 25582025 		.ascii	"%X %X %X %X \015\012\000"
 2102      58202558 
 2102      20255820 
 2102      0D0A00
 2103 01df 00       		.space	1
 2104              	.LC22:
 2105 01e0 53696E67 		.ascii	"Single aligned read...\000"
 2105      6C652061 
 2105      6C69676E 
 2105      65642072 
 2105      6561642E 
 2106 01f7 00       		.space	1
 2107              	.LC23:
 2108 01f8 204F4B0D 		.ascii	" OK\015\012\000"
 2108      0A00
 2109 01fe 0000     		.space	2
 2110              	.LC24:
 2111 0200 53696E67 		.ascii	"Single unaligned read...\000"
ARM GAS  C:\Users\DNIEL~1\AppData\Local\Temp\ccm7a9MI.s 			page 40


 2111      6C652075 
 2111      6E616C69 
 2111      676E6564 
 2111      20726561 
 2112 0219 000000   		.space	3
 2113              	.LC25:
 2114 021c 4D756C74 		.ascii	"Multiple aligned reads...\000"
 2114      69706C65 
 2114      20616C69 
 2114      676E6564 
 2114      20726561 
 2115 0236 0000     		.space	2
 2116              	.LC26:
 2117 0238 4D756C74 		.ascii	"Multiple unaligned reads...\000"
 2117      69706C65 
 2117      20756E61 
 2117      6C69676E 
 2117      65642072 
 2118              	.LC28:
 2119 0254 52656769 		.ascii	"Register working area for filesystem... \000"
 2119      73746572 
 2119      20776F72 
 2119      6B696E67 
 2119      20617265 
 2120 027d 000000   		.space	3
 2121              	.LC29:
 2122 0280 4D6F756E 		.ascii	"Mount filesystem... \000"
 2122      74206669 
 2122      6C657379 
 2122      7374656D 
 2122      2E2E2E20 
 2123 0295 000000   		.space	3
 2124              	.LC30:
 2125 0298 43726561 		.ascii	"Create file \"chtest.txt\"... \000"
 2125      74652066 
 2125      696C6520 
 2125      22636874 
 2125      6573742E 
 2126 02b5 000000   		.space	3
 2127              	.LC31:
 2128 02b8 303A6368 		.ascii	"0:chtest.txt\000"
 2128      74657374 
 2128      2E747874 
 2128      00
 2129 02c5 000000   		.space	3
 2130              	.LC32:
 2131 02c8 57726974 		.ascii	"Write some data in it... \000"
 2131      6520736F 
 2131      6D652064 
 2131      61746120 
 2131      696E2069 
 2132 02e2 0000     		.space	2
 2133              	.LC33:
 2134 02e4 436C6F73 		.ascii	"Close file \"chtest.txt\"... \000"
 2134      65206669 
 2134      6C652022 
 2134      63687465 
ARM GAS  C:\Users\DNIEL~1\AppData\Local\Temp\ccm7a9MI.s 			page 41


 2134      73742E74 
 2135              	.LC34:
 2136 0300 43686563 		.ascii	"Check file size \"chtest.txt\"... \000"
 2136      6B206669 
 2136      6C652073 
 2136      697A6520 
 2136      22636874 
 2137 0321 000000   		.space	3
 2138              	.LC35:
 2139 0324 43686563 		.ascii	"Check file content \"chtest.txt\"... \000"
 2139      6B206669 
 2139      6C652063 
 2139      6F6E7465 
 2139      6E742022 
 2140              	.LC36:
 2141 0348 556D6F75 		.ascii	"Umount filesystem... \000"
 2141      6E742066 
 2141      696C6573 
 2141      79737465 
 2141      6D2E2E2E 
 2142 035e 0000     		.space	2
 2143              	.LC37:
 2144 0360 44697363 		.ascii	"Disconnecting from SDIO...\000"
 2144      6F6E6E65 
 2144      6374696E 
 2144      67206672 
 2144      6F6D2053 
 2145 037b 00       		.space	1
 2146              	.LC38:
 2147 037c 2D2D2D2D 		.ascii	"---------------------------------------------------"
 2147      2D2D2D2D 
 2147      2D2D2D2D 
 2147      2D2D2D2D 
 2147      2D2D2D2D 
 2148 03af 2D2D2D0D 		.ascii	"---\015\012\000"
 2148      0A00
 2149 03b5 000000   		.space	3
 2150              	.LC39:
 2151 03b8 416C6C20 		.ascii	"All tests passed successfully.\015\012\000"
 2151      74657374 
 2151      73207061 
 2151      73736564 
 2151      20737563 
 2152 03d9 000000   		.space	3
 2153              	.LC27:
 2154 03dc 54686973 		.ascii	"This is test file\015\012\000"
 2154      20697320 
 2154      74657374 
 2154      2066696C 
 2154      650D0A00 
 2155              	.LC41:
 2156 03f0 55736167 		.ascii	"Usage: debug\015\012\000"
 2156      653A2064 
 2156      65627567 
 2156      0D0A00
 2157 03ff 00       		.space	1
 2158              	.LC42:
ARM GAS  C:\Users\DNIEL~1\AppData\Local\Temp\ccm7a9MI.s 			page 42


 2159 0400 4F70656E 		.ascii	"Open test file (%u)...\000"
 2159      20746573 
 2159      74206669 
 2159      6C652028 
 2159      2575292E 
 2160 0417 00       		.space	1
 2161              	.LC43:
 2162 0418 303A6C6F 		.ascii	"0:logtest.txt\000"
 2162      67746573 
 2162      742E7478 
 2162      7400
 2163 0426 0000     		.space	2
 2164              	.LC44:
 2165 0428 46533A20 		.ascii	"FS: File creation error\015\012\000"
 2165      46696C65 
 2165      20637265 
 2165      6174696F 
 2165      6E206572 
 2166 0442 0000     		.space	2
 2167              	.LC45:
 2168 0444 53746172 		.ascii	"Start writing test file (%u)...\000"
 2168      74207772 
 2168      6974696E 
 2168      67207465 
 2168      73742066 
 2169              	.LC46:
 2170 0464 46533A20 		.ascii	"FS: Write error\015\012\000"
 2170      57726974 
 2170      65206572 
 2170      726F720D 
 2170      0A00
 2171 0476 0000     		.space	2
 2172              	.LC47:
 2173 0478 4F4B2028 		.ascii	"OK (%u)\015\012\000"
 2173      2575290D 
 2173      0A00
 2174 0482 0000     		.space	2
 2175              	.LC40:
 2176 0484 36353533 		.ascii	"65536 65535 65534 65533 65532\015\012\000"
 2176      36203635 
 2176      35333520 
 2176      36353533 
 2176      34203635 
 2177              		.section	.bss.inbuf,"aw",%nobits
 2178              		.align	2
 2179              		.set	.LANCHOR2,. + 0
 2180              		.type	inbuf, %object
 2181              		.size	inbuf, 4097
 2182              	inbuf:
 2183 0000 00000000 		.space	4097
 2183      00000000 
 2183      00000000 
 2183      00000000 
 2183      00000000 
 2184 1001 000000   		.section	.bss.outbuf,"aw",%nobits
 2185              		.align	2
 2186              		.set	.LANCHOR3,. + 0
ARM GAS  C:\Users\DNIEL~1\AppData\Local\Temp\ccm7a9MI.s 			page 43


 2187              		.type	outbuf, %object
 2188              		.size	outbuf, 4097
 2189              	outbuf:
 2190 0000 00000000 		.space	4097
 2190      00000000 
 2190      00000000 
 2190      00000000 
 2190      00000000 
 2191 1001 000000   		.text
 2192              	.Letext0: