ARM GAS  C:\Users\DNIEL~1\AppData\Local\Temp\ccUB9Fz8.s 			page 1


   1              		.syntax unified
   2              		.cpu cortex-m4
   3              		.fpu softvfp
   4              		.eabi_attribute 20, 1
   5              		.eabi_attribute 21, 1
   6              		.eabi_attribute 23, 3
   7              		.eabi_attribute 24, 1
   8              		.eabi_attribute 25, 1
   9              		.eabi_attribute 26, 1
  10              		.eabi_attribute 30, 2
  11              		.eabi_attribute 34, 1
  12              		.eabi_attribute 18, 4
  13              		.thumb
  14              		.file	"serial_lld.c"
  15              		.text
  16              	.Ltext0:
  17              		.cfi_sections	.debug_frame
  18              		.section	.text.notify1,"ax",%progbits
  19              		.align	2
  20              		.p2align 4,,15
  21              		.thumb
  22              		.thumb_func
  23              		.type	notify1, %function
  24              	notify1:
  25              	.LFB122:
  26              		.file 1 "../../../ChibiOS/os/hal/platforms/STM32/USARTv1/serial_lld.c"
  27              		.loc 1 204 0
  28              		.cfi_startproc
  29              		@ args = 0, pretend = 0, frame = 0
  30              		@ frame_needed = 0, uses_anonymous_args = 0
  31              		@ link register save eliminated.
  32              	.LVL0:
  33              		.loc 1 207 0
  34 0000 4FF48053 		mov	r3, #4096
  35 0004 C4F20103 		movt	r3, 16385
  36 0008 9A89     		ldrh	r2, [r3, #12]
  37 000a 90B2     		uxth	r0, r2
  38              	.LVL1:
  39 000c 40F08001 		orr	r1, r0, #128
  40 0010 9981     		strh	r1, [r3, #12]	@ movhi
  41 0012 7047     		bx	lr
  42              		.cfi_endproc
  43              	.LFE122:
  44              		.size	notify1, .-notify1
  45 0014 AFF30080 		.section	.text.notify2,"ax",%progbits
  45      AFF30080 
  45      AFF30080 
  46              		.align	2
  47              		.p2align 4,,15
  48              		.thumb
  49              		.thumb_func
  50              		.type	notify2, %function
  51              	notify2:
  52              	.LFB123:
  53              		.loc 1 212 0
  54              		.cfi_startproc
  55              		@ args = 0, pretend = 0, frame = 0
ARM GAS  C:\Users\DNIEL~1\AppData\Local\Temp\ccUB9Fz8.s 			page 2


  56              		@ frame_needed = 0, uses_anonymous_args = 0
  57              		@ link register save eliminated.
  58              	.LVL2:
  59              		.loc 1 215 0
  60 0000 4FF48843 		mov	r3, #17408
  61 0004 C4F20003 		movt	r3, 16384
  62 0008 9A89     		ldrh	r2, [r3, #12]
  63 000a 90B2     		uxth	r0, r2
  64              	.LVL3:
  65 000c 40F08001 		orr	r1, r0, #128
  66 0010 9981     		strh	r1, [r3, #12]	@ movhi
  67 0012 7047     		bx	lr
  68              		.cfi_endproc
  69              	.LFE123:
  70              		.size	notify2, .-notify2
  71 0014 AFF30080 		.section	.text.serve_interrupt,"ax",%progbits
  71      AFF30080 
  71      AFF30080 
  72              		.align	2
  73              		.p2align 4,,15
  74              		.thumb
  75              		.thumb_func
  76              		.type	serve_interrupt, %function
  77              	serve_interrupt:
  78              	.LFB121:
  79              		.loc 1 154 0
  80              		.cfi_startproc
  81              		@ args = 0, pretend = 0, frame = 0
  82              		@ frame_needed = 0, uses_anonymous_args = 0
  83              	.LVL4:
  84 0000 2DE9F041 		push	{r4, r5, r6, r7, r8, lr}
  85              	.LCFI0:
  86              		.cfi_def_cfa_offset 24
  87              		.cfi_offset 4, -24
  88              		.cfi_offset 5, -20
  89              		.cfi_offset 6, -16
  90              		.cfi_offset 7, -12
  91              		.cfi_offset 8, -8
  92              		.cfi_offset 14, -4
  93              		.loc 1 155 0
  94 0004 456F     		ldr	r5, [r0, #116]
  95              	.LVL5:
  96              		.loc 1 156 0
  97 0006 B5F80C80 		ldrh	r8, [r5, #12]
  98              		.loc 1 157 0
  99 000a 2C88     		ldrh	r4, [r5, #0]
 100 000c A4B2     		uxth	r4, r4
 101              		.loc 1 160 0
 102 000e 04F48073 		and	r3, r4, #256
 103              		.loc 1 154 0
 104 0012 0646     		mov	r6, r0
 105              		.loc 1 160 0
 106 0014 98B2     		uxth	r0, r3
 107              	.LVL6:
 108              		.loc 1 156 0
 109 0016 1FFA88F8 		uxth	r8, r8
 110              	.LVL7:
ARM GAS  C:\Users\DNIEL~1\AppData\Local\Temp\ccUB9Fz8.s 			page 3


 111              		.loc 1 160 0
 112 001a 0028     		cmp	r0, #0
 113 001c 55D1     		bne	.L49
 114              	.LVL8:
 115              	.L4:
 116              	.LBB15:
 117              		.loc 1 168 0
 118 001e 2023     		movs	r3, #32
 119              	.LVL9:
 120              	@ 168 "../../../ChibiOS/os/hal/platforms/STM32/USARTv1/serial_lld.c" 1
 121 0020 83F31188 		msr     BASEPRI, r3
 122              	@ 0 "" 2
 123              	.LVL10:
 124              		.thumb
 125              	.LBE15:
 126              		.loc 1 169 0
 127 0024 2340     		ands	r3, r3, r4
 128              	.LVL11:
 129 0026 9AB2     		uxth	r2, r3
 130 0028 52B3     		cbz	r2, .L5
 131              	.LBB16:
 132              	.LBB17:
 133              		.loc 1 146 0
 134 002a 371D     		adds	r7, r6, #4
 135 002c 0AE0     		b	.L37
 136              	.LVL12:
 137              	.L6:
 138              	.LBE17:
 139              	.LBE16:
 140              		.loc 1 173 0
 141 002e A988     		ldrh	r1, [r5, #4]
 142 0030 3046     		mov	r0, r6
 143 0032 C9B2     		uxtb	r1, r1
 144 0034 FFF7FEFF 		bl	sdIncomingDataI
 145              	.LVL13:
 146              		.loc 1 174 0
 147 0038 2888     		ldrh	r0, [r5, #0]
 148 003a 84B2     		uxth	r4, r0
 149              	.LVL14:
 150              		.loc 1 169 0
 151 003c 04F02003 		and	r3, r4, #32
 152 0040 9AB2     		uxth	r2, r3
 153 0042 EAB1     		cbz	r2, .L5
 154              	.LVL15:
 155              	.L37:
 156              		.loc 1 171 0
 157 0044 2307     		lsls	r3, r4, #28
 158 0046 F2D0     		beq	.L6
 159              	.LVL16:
 160              	.LBB19:
 161              	.LBB18:
 162              		.loc 1 138 0
 163 0048 04F00803 		and	r3, r4, #8
 164 004c 98B2     		uxth	r0, r3
 165              		.loc 1 142 0
 166 004e 04F00202 		and	r2, r4, #2
 167              		.loc 1 139 0
ARM GAS  C:\Users\DNIEL~1\AppData\Local\Temp\ccUB9Fz8.s 			page 4


 168 0052 0028     		cmp	r0, #0
 169 0054 14BF     		ite	ne
 170 0056 8021     		movne	r1, #128
 171 0058 0021     		moveq	r1, #0
 172              	.LVL17:
 173              		.loc 1 142 0
 174 005a 93B2     		uxth	r3, r2
 175              		.loc 1 140 0
 176 005c 14F0010F 		tst	r4, #1
 177              		.loc 1 144 0
 178 0060 04F00404 		and	r4, r4, #4
 179              	.LVL18:
 180              		.loc 1 146 0
 181 0064 3846     		mov	r0, r7
 182              		.loc 1 141 0
 183 0066 18BF     		it	ne
 184 0068 41F02001 		orrne	r1, r1, #32
 185              	.LVL19:
 186              		.loc 1 144 0
 187 006c A2B2     		uxth	r2, r4
 188              		.loc 1 142 0
 189 006e 0BB1     		cbz	r3, .L9
 190              		.loc 1 143 0
 191 0070 41F04001 		orr	r1, r1, #64
 192              	.LVL20:
 193              	.L9:
 194              		.loc 1 144 0
 195 0074 0AB1     		cbz	r2, .L10
 196              		.loc 1 145 0
 197 0076 41F48071 		orr	r1, r1, #256
 198              	.LVL21:
 199              	.L10:
 200              		.loc 1 146 0
 201 007a FFF7FEFF 		bl	chEvtBroadcastFlagsI
 202              	.LVL22:
 203 007e D6E7     		b	.L6
 204              	.L5:
 205              	.LBE18:
 206              	.LBE19:
 207              	.LBB20:
 208              		.loc 1 176 0
 209 0080 0023     		movs	r3, #0
 210              	.LVL23:
 211              	@ 176 "../../../ChibiOS/os/hal/platforms/STM32/USARTv1/serial_lld.c" 1
 212 0082 83F31188 		msr     BASEPRI, r3
 213              	@ 0 "" 2
 214              	.LVL24:
 215              		.thumb
 216              	.LBE20:
 217              		.loc 1 179 0
 218 0086 08F08001 		and	r1, r8, #128
 219 008a 88B2     		uxth	r0, r1
 220 008c 18B1     		cbz	r0, .L12
 221              		.loc 1 179 0 is_stmt 0 discriminator 1
 222 008e 04F08003 		and	r3, r4, #128
 223              	.LVL25:
 224 0092 9AB2     		uxth	r2, r3
ARM GAS  C:\Users\DNIEL~1\AppData\Local\Temp\ccUB9Fz8.s 			page 5


 225 0094 42BB     		cbnz	r2, .L50
 226              	.LVL26:
 227              	.L12:
 228              		.loc 1 193 0 is_stmt 1
 229 0096 04F04004 		and	r4, r4, #64
 230 009a A4B2     		uxth	r4, r4
 231 009c 9CB1     		cbz	r4, .L3
 232              	.LBB21:
 233              		.loc 1 194 0
 234 009e 2023     		movs	r3, #32
 235              	.LVL27:
 236              	@ 194 "../../../ChibiOS/os/hal/platforms/STM32/USARTv1/serial_lld.c" 1
 237 00a0 83F31188 		msr     BASEPRI, r3
 238              	@ 0 "" 2
 239              	.LVL28:
 240              		.thumb
 241              	.LBE21:
 242              		.loc 1 195 0
 243 00a4 726C     		ldr	r2, [r6, #68]
 244 00a6 B16C     		ldr	r1, [r6, #72]
 245 00a8 8A42     		cmp	r2, r1
 246 00aa 2CD0     		beq	.L51
 247              	.L16:
 248              		.loc 1 197 0
 249 00ac 4FF6BF73 		movw	r3, #65471
 250              	.LVL29:
 251 00b0 08EA0302 		and	r2, r8, r3
 252              		.loc 1 198 0
 253 00b4 4FF6BF71 		movw	r1, #65471
 254              		.loc 1 197 0
 255 00b8 AA81     		strh	r2, [r5, #12]	@ movhi
 256              	.LBB22:
 257              		.loc 1 199 0
 258 00ba 0023     		movs	r3, #0
 259              	.LVL30:
 260              	.LBE22:
 261              		.loc 1 198 0
 262 00bc 2980     		strh	r1, [r5, #0]	@ movhi
 263              	.LBB23:
 264              		.loc 1 199 0
 265              	@ 199 "../../../ChibiOS/os/hal/platforms/STM32/USARTv1/serial_lld.c" 1
 266 00be 83F31188 		msr     BASEPRI, r3
 267              	@ 0 "" 2
 268              	.LVL31:
 269              		.thumb
 270 00c2 BDE8F081 		pop	{r4, r5, r6, r7, r8, pc}
 271              	.LVL32:
 272              	.L3:
 273 00c6 BDE8F081 		pop	{r4, r5, r6, r7, r8, pc}
 274              	.LVL33:
 275              	.L49:
 276              	.LBE23:
 277              	.LBB24:
 278              		.loc 1 161 0
 279 00ca 2023     		movs	r3, #32
 280              	.LVL34:
 281              	@ 161 "../../../ChibiOS/os/hal/platforms/STM32/USARTv1/serial_lld.c" 1
ARM GAS  C:\Users\DNIEL~1\AppData\Local\Temp\ccUB9Fz8.s 			page 6


 282 00cc 83F31188 		msr     BASEPRI, r3
 283              	@ 0 "" 2
 284              	.LVL35:
 285              		.thumb
 286              	.LBE24:
 287              		.loc 1 162 0
 288 00d0 4FF40071 		mov	r1, #512
 289 00d4 301D     		adds	r0, r6, #4
 290 00d6 FFF7FEFF 		bl	chEvtBroadcastFlagsI
 291              	.LVL36:
 292              	.LBB25:
 293              		.loc 1 163 0
 294 00da 0023     		movs	r3, #0
 295              	@ 163 "../../../ChibiOS/os/hal/platforms/STM32/USARTv1/serial_lld.c" 1
 296 00dc 83F31188 		msr     BASEPRI, r3
 297              	@ 0 "" 2
 298              	.LVL37:
 299              		.thumb
 300              	.LBE25:
 301              		.loc 1 164 0
 302 00e0 4FF6FF61 		movw	r1, #65279
 303 00e4 2980     		strh	r1, [r5, #0]	@ movhi
 304 00e6 9AE7     		b	.L4
 305              	.LVL38:
 306              	.L50:
 307              	.LBB26:
 308              	.LBB27:
 309              		.loc 1 181 0
 310 00e8 2023     		movs	r3, #32
 311              	.LVL39:
 312              	@ 181 "../../../ChibiOS/os/hal/platforms/STM32/USARTv1/serial_lld.c" 1
 313 00ea 83F31188 		msr     BASEPRI, r3
 314              	@ 0 "" 2
 315              	.LVL40:
 316              		.thumb
 317              	.LBE27:
 318              		.loc 1 182 0
 319 00ee 06F13000 		add	r0, r6, #48
 320 00f2 FFF7FEFF 		bl	chOQGetI
 321              	.LVL41:
 322              		.loc 1 183 0
 323 00f6 0028     		cmp	r0, #0
 324 00f8 0DDB     		blt	.L52
 325              		.loc 1 188 0
 326 00fa 81B2     		uxth	r1, r0
 327 00fc A980     		strh	r1, [r5, #4]	@ movhi
 328              	.LVL42:
 329              	.L14:
 330              	.LBB28:
 331              		.loc 1 189 0
 332 00fe 0023     		movs	r3, #0
 333              	@ 189 "../../../ChibiOS/os/hal/platforms/STM32/USARTv1/serial_lld.c" 1
 334 0100 83F31188 		msr     BASEPRI, r3
 335              	@ 0 "" 2
 336              	.LVL43:
 337              		.thumb
 338 0104 C7E7     		b	.L12
ARM GAS  C:\Users\DNIEL~1\AppData\Local\Temp\ccUB9Fz8.s 			page 7


 339              	.LVL44:
 340              	.L51:
 341              	.LBE28:
 342              	.LBE26:
 343              		.loc 1 195 0 discriminator 1
 344 0106 B06B     		ldr	r0, [r6, #56]
 345 0108 0028     		cmp	r0, #0
 346 010a CFD0     		beq	.L16
 347              		.loc 1 196 0
 348 010c 301D     		adds	r0, r6, #4
 349 010e 1021     		movs	r1, #16
 350 0110 FFF7FEFF 		bl	chEvtBroadcastFlagsI
 351              	.LVL45:
 352 0114 CAE7     		b	.L16
 353              	.LVL46:
 354              	.L52:
 355              	.LBB29:
 356              		.loc 1 184 0
 357 0116 301D     		adds	r0, r6, #4
 358              	.LVL47:
 359 0118 0821     		movs	r1, #8
 360 011a FFF7FEFF 		bl	chEvtBroadcastFlagsI
 361              	.LVL48:
 362              		.loc 1 185 0
 363 011e 28F0C000 		bic	r0, r8, #192
 364 0122 40F04003 		orr	r3, r0, #64
 365 0126 AB81     		strh	r3, [r5, #12]	@ movhi
 366 0128 E9E7     		b	.L14
 367              	.LBE29:
 368              		.cfi_endproc
 369              	.LFE121:
 370              		.size	serve_interrupt, .-serve_interrupt
 371 012a 00BFAFF3 		.section	.text.VectorD4,"ax",%progbits
 371      0080
 372              		.align	2
 373              		.p2align 4,,15
 374              		.global	VectorD4
 375              		.thumb
 376              		.thumb_func
 377              		.type	VectorD4, %function
 378              	VectorD4:
 379              	.LFB124:
 380              		.loc 1 264 0
 381              		.cfi_startproc
 382              		@ args = 0, pretend = 0, frame = 0
 383              		@ frame_needed = 0, uses_anonymous_args = 0
 384 0000 08B5     		push	{r3, lr}
 385              	.LCFI1:
 386              		.cfi_def_cfa_offset 8
 387              		.cfi_offset 3, -8
 388              		.cfi_offset 14, -4
 389              		.loc 1 268 0
 390 0002 40F20000 		movw	r0, #:lower16:.LANCHOR0
 391 0006 C0F20000 		movt	r0, #:upper16:.LANCHOR0
 392 000a FFF7FEFF 		bl	serve_interrupt
 393              	.LVL49:
 394              		.loc 1 271 0
ARM GAS  C:\Users\DNIEL~1\AppData\Local\Temp\ccUB9Fz8.s 			page 8


 395 000e BDE80840 		pop	{r3, lr}
 396              		.loc 1 270 0
 397 0012 FFF7FEBF 		b	_port_irq_epilogue
 398              	.LVL50:
 399              		.cfi_endproc
 400              	.LFE124:
 401              		.size	VectorD4, .-VectorD4
 402 0016 00BFAFF3 		.section	.text.VectorD8,"ax",%progbits
 402      0080AFF3 
 402      0080
 403              		.align	2
 404              		.p2align 4,,15
 405              		.global	VectorD8
 406              		.thumb
 407              		.thumb_func
 408              		.type	VectorD8, %function
 409              	VectorD8:
 410              	.LFB125:
 411              		.loc 1 283 0
 412              		.cfi_startproc
 413              		@ args = 0, pretend = 0, frame = 0
 414              		@ frame_needed = 0, uses_anonymous_args = 0
 415 0000 08B5     		push	{r3, lr}
 416              	.LCFI2:
 417              		.cfi_def_cfa_offset 8
 418              		.cfi_offset 3, -8
 419              		.cfi_offset 14, -4
 420              		.loc 1 287 0
 421 0002 40F20000 		movw	r0, #:lower16:.LANCHOR1
 422 0006 C0F20000 		movt	r0, #:upper16:.LANCHOR1
 423 000a FFF7FEFF 		bl	serve_interrupt
 424              	.LVL51:
 425              		.loc 1 290 0
 426 000e BDE80840 		pop	{r3, lr}
 427              		.loc 1 289 0
 428 0012 FFF7FEBF 		b	_port_irq_epilogue
 429              	.LVL52:
 430              		.cfi_endproc
 431              	.LFE125:
 432              		.size	VectorD8, .-VectorD8
 433 0016 00BFAFF3 		.section	.text.sd_lld_init,"ax",%progbits
 433      0080AFF3 
 433      0080
 434              		.align	2
 435              		.p2align 4,,15
 436              		.global	sd_lld_init
 437              		.thumb
 438              		.thumb_func
 439              		.type	sd_lld_init, %function
 440              	sd_lld_init:
 441              	.LFB126:
 442              		.loc 1 378 0
 443              		.cfi_startproc
 444              		@ args = 0, pretend = 0, frame = 0
 445              		@ frame_needed = 0, uses_anonymous_args = 0
 446 0000 38B5     		push	{r3, r4, r5, lr}
 447              	.LCFI3:
ARM GAS  C:\Users\DNIEL~1\AppData\Local\Temp\ccUB9Fz8.s 			page 9


 448              		.cfi_def_cfa_offset 16
 449              		.cfi_offset 3, -16
 450              		.cfi_offset 4, -12
 451              		.cfi_offset 5, -8
 452              		.cfi_offset 14, -4
 453              		.loc 1 381 0
 454 0002 40F20005 		movw	r5, #:lower16:.LANCHOR0
 455 0006 C0F20005 		movt	r5, #:upper16:.LANCHOR0
 456 000a 40F20002 		movw	r2, #:lower16:notify1
 457 000e 2846     		mov	r0, r5
 458 0010 0021     		movs	r1, #0
 459 0012 C0F20002 		movt	r2, #:upper16:notify1
 460              		.loc 1 386 0
 461 0016 40F20004 		movw	r4, #:lower16:.LANCHOR1
 462              		.loc 1 381 0
 463 001a FFF7FEFF 		bl	sdObjectInit
 464              	.LVL53:
 465              		.loc 1 386 0
 466 001e C0F20004 		movt	r4, #:upper16:.LANCHOR1
 467              		.loc 1 382 0
 468 0022 4FF48053 		mov	r3, #4096
 469              		.loc 1 386 0
 470 0026 40F20002 		movw	r2, #:lower16:notify2
 471              		.loc 1 382 0
 472 002a C4F20103 		movt	r3, 16385
 473              		.loc 1 386 0
 474 002e 2046     		mov	r0, r4
 475 0030 0021     		movs	r1, #0
 476 0032 C0F20002 		movt	r2, #:upper16:notify2
 477              		.loc 1 382 0
 478 0036 6B67     		str	r3, [r5, #116]
 479              		.loc 1 386 0
 480 0038 FFF7FEFF 		bl	sdObjectInit
 481              	.LVL54:
 482              		.loc 1 387 0
 483 003c 4FF48840 		mov	r0, #17408
 484 0040 C4F20000 		movt	r0, 16384
 485 0044 6067     		str	r0, [r4, #116]
 486 0046 38BD     		pop	{r3, r4, r5, pc}
 487              		.cfi_endproc
 488              	.LFE126:
 489              		.size	sd_lld_init, .-sd_lld_init
 490 0048 AFF30080 		.section	.text.sd_lld_start,"ax",%progbits
 490      AFF30080 
 491              		.align	2
 492              		.p2align 4,,15
 493              		.global	sd_lld_start
 494              		.thumb
 495              		.thumb_func
 496              		.type	sd_lld_start, %function
 497              	sd_lld_start:
 498              	.LFB127:
 499              		.loc 1 421 0
 500              		.cfi_startproc
 501              		@ args = 0, pretend = 0, frame = 0
 502              		@ frame_needed = 0, uses_anonymous_args = 0
 503              	.LVL55:
ARM GAS  C:\Users\DNIEL~1\AppData\Local\Temp\ccUB9Fz8.s 			page 10


 504 0000 38B5     		push	{r3, r4, r5, lr}
 505              	.LCFI4:
 506              		.cfi_def_cfa_offset 16
 507              		.cfi_offset 3, -16
 508              		.cfi_offset 4, -12
 509              		.cfi_offset 5, -8
 510              		.cfi_offset 14, -4
 511              		.loc 1 426 0
 512 0002 037A     		ldrb	r3, [r0, #8]	@ zero_extendqisi2
 513              		.loc 1 424 0
 514 0004 2D4C     		ldr	r4, .L66
 515 0006 0029     		cmp	r1, #0
 516 0008 18BF     		it	ne
 517 000a 0C46     		movne	r4, r1
 518              		.loc 1 426 0
 519 000c 012B     		cmp	r3, #1
 520              		.loc 1 421 0
 521 000e 0546     		mov	r5, r0
 522              		.loc 1 426 0
 523 0010 2BD0     		beq	.L64
 524              	.LVL56:
 525              	.L58:
 526              	.LBB32:
 527              	.LBB33:
 528              		.loc 1 97 0
 529 0012 4FF48050 		mov	r0, #4096
 530              		.loc 1 93 0
 531 0016 6B6F     		ldr	r3, [r5, #116]
 532              	.LVL57:
 533              		.loc 1 101 0
 534 0018 2168     		ldr	r1, [r4, #0]
 535              		.loc 1 97 0
 536 001a C4F20100 		movt	r0, 16385
 537 001e 8342     		cmp	r3, r0
 538 0020 36D0     		beq	.L60
 539 0022 4FF4A052 		mov	r2, #5120
 540 0026 C4F20102 		movt	r2, 16385
 541 002a 9342     		cmp	r3, r2
 542 002c 30D0     		beq	.L60
 543              		.loc 1 103 0
 544 002e 4DF68060 		movw	r0, #56960
 545 0032 C0F28020 		movt	r0, 640
 546 0036 B0FBF1F1 		udiv	r1, r0, r1
 547 003a 8AB2     		uxth	r2, r1
 548 003c 1A81     		strh	r2, [r3, #8]	@ movhi
 549              	.L62:
 550              		.loc 1 108 0
 551 003e A288     		ldrh	r2, [r4, #4]
 552              		.loc 1 106 0
 553 0040 E088     		ldrh	r0, [r4, #6]
 554              		.loc 1 107 0
 555 0042 2189     		ldrh	r1, [r4, #8]
 556              		.loc 1 108 0
 557 0044 42F40452 		orr	r2, r2, #8448
 558              		.loc 1 106 0
 559 0048 40F04000 		orr	r0, r0, #64
 560 004c 80B2     		uxth	r0, r0
ARM GAS  C:\Users\DNIEL~1\AppData\Local\Temp\ccUB9Fz8.s 			page 11


 561              		.loc 1 107 0
 562 004e 41F00101 		orr	r1, r1, #1
 563              		.loc 1 108 0
 564 0052 42F02C02 		orr	r2, r2, #44
 565              		.loc 1 106 0
 566 0056 1882     		strh	r0, [r3, #16]	@ movhi
 567              		.loc 1 108 0
 568 0058 92B2     		uxth	r2, r2
 569              		.loc 1 107 0
 570 005a 89B2     		uxth	r1, r1
 571              		.loc 1 111 0
 572 005c 0020     		movs	r0, #0
 573              		.loc 1 107 0
 574 005e 9982     		strh	r1, [r3, #20]	@ movhi
 575              		.loc 1 108 0
 576 0060 9A81     		strh	r2, [r3, #12]	@ movhi
 577              		.loc 1 111 0
 578 0062 1880     		strh	r0, [r3, #0]	@ movhi
 579              		.loc 1 112 0
 580 0064 1A88     		ldrh	r2, [r3, #0]
 581              		.loc 1 113 0
 582 0066 9B88     		ldrh	r3, [r3, #4]
 583              	.LVL58:
 584 0068 38BD     		pop	{r3, r4, r5, pc}
 585              	.LVL59:
 586              	.L64:
 587              	.LBE33:
 588              	.LBE32:
 589              		.loc 1 428 0
 590 006a 1548     		ldr	r0, .L66+4
 591              	.LVL60:
 592 006c 8542     		cmp	r5, r0
 593 006e 18D0     		beq	.L65
 594              		.loc 1 435 0
 595 0070 1449     		ldr	r1, .L66+8
 596              	.LVL61:
 597 0072 8D42     		cmp	r5, r1
 598 0074 CDD1     		bne	.L58
 599              		.loc 1 436 0
 600 0076 4FF46053 		mov	r3, #14336
 601 007a C4F20203 		movt	r3, 16386
 602              		.loc 1 437 0
 603 007e 2620     		movs	r0, #38
 604              		.loc 1 436 0
 605 0080 1A6C     		ldr	r2, [r3, #64]
 606 0082 42F40031 		orr	r1, r2, #131072
 607 0086 1964     		str	r1, [r3, #64]
 608              		.loc 1 437 0
 609 0088 C021     		movs	r1, #192
 610 008a FFF7FEFF 		bl	nvicEnableVector
 611              	.LVL62:
 612 008e C0E7     		b	.L58
 613              	.LVL63:
 614              	.L60:
 615              	.LBB35:
 616              	.LBB34:
 617              		.loc 1 101 0
ARM GAS  C:\Users\DNIEL~1\AppData\Local\Temp\ccUB9Fz8.s 			page 12


 618 0090 4FF43D40 		mov	r0, #48384
 619 0094 C0F20150 		movt	r0, 1281
 620 0098 B0FBF1F1 		udiv	r1, r0, r1
 621 009c 8AB2     		uxth	r2, r1
 622 009e 1A81     		strh	r2, [r3, #8]	@ movhi
 623 00a0 CDE7     		b	.L62
 624              	.LVL64:
 625              	.L65:
 626              	.LBE34:
 627              	.LBE35:
 628              		.loc 1 429 0
 629 00a2 4FF46053 		mov	r3, #14336
 630 00a6 C4F20203 		movt	r3, 16386
 631              		.loc 1 430 0
 632 00aa 2520     		movs	r0, #37
 633              		.loc 1 429 0
 634 00ac 5A6C     		ldr	r2, [r3, #68]
 635 00ae 42F01001 		orr	r1, r2, #16
 636              	.LVL65:
 637 00b2 5964     		str	r1, [r3, #68]
 638              		.loc 1 430 0
 639 00b4 C021     		movs	r1, #192
 640 00b6 FFF7FEFF 		bl	nvicEnableVector
 641              	.LVL66:
 642 00ba AAE7     		b	.L58
 643              	.L67:
 644              		.align	2
 645              	.L66:
 646 00bc 00000000 		.word	.LANCHOR2
 647 00c0 00000000 		.word	.LANCHOR0
 648 00c4 00000000 		.word	.LANCHOR1
 649              		.cfi_endproc
 650              	.LFE127:
 651              		.size	sd_lld_start, .-sd_lld_start
 652 00c8 AFF30080 		.section	.text.sd_lld_stop,"ax",%progbits
 652      AFF30080 
 653              		.align	2
 654              		.p2align 4,,15
 655              		.global	sd_lld_stop
 656              		.thumb
 657              		.thumb_func
 658              		.type	sd_lld_stop, %function
 659              	sd_lld_stop:
 660              	.LFB128:
 661              		.loc 1 482 0
 662              		.cfi_startproc
 663              		@ args = 0, pretend = 0, frame = 0
 664              		@ frame_needed = 0, uses_anonymous_args = 0
 665              		@ link register save eliminated.
 666              	.LVL67:
 667              		.loc 1 484 0
 668 0000 037A     		ldrb	r3, [r0, #8]	@ zero_extendqisi2
 669 0002 022B     		cmp	r3, #2
 670 0004 00D0     		beq	.L73
 671              	.L68:
 672 0006 7047     		bx	lr
 673              	.L73:
ARM GAS  C:\Users\DNIEL~1\AppData\Local\Temp\ccUB9Fz8.s 			page 13


 674              		.loc 1 487 0
 675 0008 104B     		ldr	r3, .L75
 676              		.loc 1 485 0
 677 000a 416F     		ldr	r1, [r0, #116]
 678              	.LVL68:
 679              	.LBB36:
 680              	.LBB37:
 681              		.loc 1 124 0
 682 000c 0022     		movs	r2, #0
 683              	.LBE37:
 684              	.LBE36:
 685              		.loc 1 487 0
 686 000e 9842     		cmp	r0, r3
 687              	.LBB39:
 688              	.LBB38:
 689              		.loc 1 124 0
 690 0010 8A81     		strh	r2, [r1, #12]	@ movhi
 691              		.loc 1 125 0
 692 0012 0A82     		strh	r2, [r1, #16]	@ movhi
 693              		.loc 1 126 0
 694 0014 8A82     		strh	r2, [r1, #20]	@ movhi
 695              	.LBE38:
 696              	.LBE39:
 697              		.loc 1 487 0
 698 0016 0DD0     		beq	.L74
 699              		.loc 1 494 0
 700 0018 0D49     		ldr	r1, .L75+4
 701              	.LVL69:
 702 001a 8842     		cmp	r0, r1
 703 001c F3D1     		bne	.L68
 704              		.loc 1 495 0
 705 001e 4FF46053 		mov	r3, #14336
 706 0022 C4F20203 		movt	r3, 16386
 707              		.loc 1 496 0
 708 0026 2620     		movs	r0, #38
 709              	.LVL70:
 710              		.loc 1 495 0
 711 0028 1A6C     		ldr	r2, [r3, #64]
 712 002a 22F40031 		bic	r1, r2, #131072
 713 002e 1964     		str	r1, [r3, #64]
 714              		.loc 1 529 0
 715              		.loc 1 496 0
 716 0030 FFF7FEBF 		b	nvicDisableVector
 717              	.LVL71:
 718              	.L74:
 719              		.loc 1 488 0
 720 0034 4FF46053 		mov	r3, #14336
 721 0038 C4F20203 		movt	r3, 16386
 722              		.loc 1 489 0
 723 003c 2520     		movs	r0, #37
 724              	.LVL72:
 725              		.loc 1 488 0
 726 003e 5A6C     		ldr	r2, [r3, #68]
 727 0040 22F01001 		bic	r1, r2, #16
 728              	.LVL73:
 729 0044 5964     		str	r1, [r3, #68]
 730              		.loc 1 529 0
ARM GAS  C:\Users\DNIEL~1\AppData\Local\Temp\ccUB9Fz8.s 			page 14


 731              		.loc 1 489 0
 732 0046 FFF7FEBF 		b	nvicDisableVector
 733              	.LVL74:
 734              	.L76:
 735 004a 00BF     		.align	2
 736              	.L75:
 737 004c 00000000 		.word	.LANCHOR0
 738 0050 00000000 		.word	.LANCHOR1
 739              		.cfi_endproc
 740              	.LFE128:
 741              		.size	sd_lld_stop, .-sd_lld_stop
 742              		.global	SD2
 743              		.global	SD1
 744 0054 AFF30080 		.section	.rodata.default_config,"a",%progbits
 744      AFF30080 
 744      AFF30080 
 745              		.align	2
 746              		.set	.LANCHOR2,. + 0
 747              		.type	default_config, %object
 748              		.size	default_config, 12
 749              	default_config:
 750 0000 00960000 		.word	38400
 751 0004 0000     		.short	0
 752 0006 0040     		.short	16384
 753 0008 0000     		.short	0
 754 000a 0000     		.space	2
 755              		.section	.bss.SD1,"aw",%nobits
 756              		.align	2
 757              		.set	.LANCHOR0,. + 0
 758              		.type	SD1, %object
 759              		.size	SD1, 120
 760              	SD1:
 761 0000 00000000 		.space	120
 761      00000000 
 761      00000000 
 761      00000000 
 761      00000000 
 762              		.section	.bss.SD2,"aw",%nobits
 763              		.align	2
 764              		.set	.LANCHOR1,. + 0
 765              		.type	SD2, %object
 766              		.size	SD2, 120
 767              	SD2:
 768 0000 00000000 		.space	120
 768      00000000 
 768      00000000 
 768      00000000 
 768      00000000 
 769              		.text
 770              	.Letext0:
 771              		.file 2 "c:\\chibistudio\\tools\\gnu tools arm embedded\\4.7 2014q2\\bin\\../lib/gcc/arm-none-eabi
 772              		.file 3 "c:\\chibistudio\\tools\\gnu tools arm embedded\\4.7 2014q2\\bin\\../lib/gcc/arm-none-eabi
 773              		.file 4 "../../../ChibiOS/os/ports/GCC/ARMCMx/chtypes.h"
 774              		.file 5 "../../../ChibiOS/os/kernel/include/chlists.h"
 775              		.file 6 "../../../ChibiOS/os/kernel/include/chthreads.h"
 776              		.file 7 "../../../ChibiOS/os/ports/GCC/ARMCMx/chcore_v7m.h"
 777              		.file 8 "../../../ChibiOS/os/kernel/include/chmtx.h"
ARM GAS  C:\Users\DNIEL~1\AppData\Local\Temp\ccUB9Fz8.s 			page 15


 778              		.file 9 "../../../ChibiOS/os/kernel/include/chevents.h"
 779              		.file 10 "../../../ChibiOS/os/kernel/include/chqueues.h"
 780              		.file 11 "../../../ChibiOS/os/hal/platforms/STM32F4xx/stm32f4xx.h"
 781              		.file 12 "../../../ChibiOS/os/hal/include/serial.h"
 782              		.file 13 "../../../ChibiOS/os/hal/platforms/STM32/USARTv1/serial_lld.h"
 783              		.file 14 "../../../ChibiOS/os/ports/common/ARMCMx/nvic.h"
 784              		.file 15 "../../../ChibiOS/os/ports/common/ARMCMx/CMSIS/include/core_cm4.h"