ARM GAS  C:\Users\DNIEL~1\AppData\Local\Temp\ccLOcjg8.s 			page 1


   1              		.syntax unified
   2              		.cpu cortex-m4
   3              		.fpu softvfp
   4              		.eabi_attribute 20, 1
   5              		.eabi_attribute 21, 1
   6              		.eabi_attribute 23, 3
   7              		.eabi_attribute 24, 1
   8              		.eabi_attribute 25, 1
   9              		.eabi_attribute 26, 1
  10              		.eabi_attribute 30, 2
  11              		.eabi_attribute 18, 4
  12              		.thumb
  13              		.file	"serial_lld.c"
  14              		.section	.debug_abbrev,"",%progbits
  15              	.Ldebug_abbrev0:
  16              		.section	.debug_info,"",%progbits
  17              	.Ldebug_info0:
  18              		.section	.debug_line,"",%progbits
  19              	.Ldebug_line0:
  20 0000 8E030000 		.text
  20      0200A202 
  20      00000201 
  20      FB0E0D00 
  20      01010101 
  21              	.Ltext0:
  22              		.cfi_sections	.debug_frame
  23              		.section	.text.notify1,"ax",%progbits
  24              		.align	2
  25              		.p2align 4,,15
  26              		.thumb
  27              		.thumb_func
  28              		.type	notify1, %function
  29              	notify1:
  30              	.LFB122:
  31              		.file 1 "../../../ChibiOS/os/hal/platforms/STM32/serial_lld.c"
  32              		.loc 1 323 0
  33              		.cfi_startproc
  34              		@ args = 0, pretend = 0, frame = 0
  35              		@ frame_needed = 0, uses_anonymous_args = 0
  36              		@ link register save eliminated.
  37              	.LVL0:
  38              		.loc 1 326 0
  39 0000 034B     		ldr	r3, .L2
  40 0002 9989     		ldrh	r1, [r3, #12]
  41 0004 88B2     		uxth	r0, r1
  42              	.LVL1:
  43 0006 40F08002 		orr	r2, r0, #128
  44 000a 9A81     		strh	r2, [r3, #12]	@ movhi
  45              		.loc 1 327 0
  46 000c 7047     		bx	lr
  47              	.L3:
  48 000e 00BF     		.align	2
  49              	.L2:
  50 0010 00100140 		.word	1073811456
  51              		.cfi_endproc
  52              	.LFE122:
  53              		.size	notify1, .-notify1
ARM GAS  C:\Users\DNIEL~1\AppData\Local\Temp\ccLOcjg8.s 			page 2


  54 0014 AFF30080 		.section	.text.VectorD4,"ax",%progbits
  54      AFF30080 
  54      AFF30080 
  55              		.align	2
  56              		.p2align 4,,15
  57              		.global	VectorD4
  58              		.thumb
  59              		.thumb_func
  60              		.type	VectorD4, %function
  61              	VectorD4:
  62              	.LFB123:
  63              		.loc 1 383 0
  64              		.cfi_startproc
  65              		@ args = 0, pretend = 0, frame = 0
  66              		@ frame_needed = 0, uses_anonymous_args = 0
  67              	.LVL2:
  68              	.LBB60:
  69              	.LBB62:
  70              		.loc 1 276 0
  71 0000 424B     		ldr	r3, .L22
  72              	.LBE62:
  73              	.LBE60:
  74              		.loc 1 383 0
  75 0002 2DE9F041 		push	{r4, r5, r6, r7, r8, lr}
  76              	.LCFI0:
  77              		.cfi_def_cfa_offset 24
  78              	.LBB77:
  79              	.LBB61:
  80              		.loc 1 276 0
  81 0006 5D6F     		ldr	r5, [r3, #116]
  82              		.cfi_offset 14, -4
  83              		.cfi_offset 8, -8
  84              		.cfi_offset 7, -12
  85              		.cfi_offset 6, -16
  86              		.cfi_offset 5, -20
  87              		.cfi_offset 4, -24
  88              	.LVL3:
  89              		.loc 1 277 0
  90 0008 AE89     		ldrh	r6, [r5, #12]
  91              		.loc 1 278 0
  92 000a 2C88     		ldrh	r4, [r5, #0]
  93              		.loc 1 279 0
  94 000c AF88     		ldrh	r7, [r5, #4]
  95              		.loc 1 278 0
  96 000e A4B2     		uxth	r4, r4
  97              		.loc 1 282 0
  98 0010 14F00F0F 		tst	r4, #15
  99              		.loc 1 277 0
 100 0014 B6B2     		uxth	r6, r6
 101              	.LVL4:
 102              		.loc 1 282 0
 103 0016 1BD0     		beq	.L5
 104              	.LVL5:
 105              	.LBB65:
 106              	.LBB66:
 107              		.loc 1 257 0
 108 0018 14F00801 		ands	r1, r4, #8
ARM GAS  C:\Users\DNIEL~1\AppData\Local\Temp\ccLOcjg8.s 			page 3


 109              		.loc 1 258 0
 110 001c 18BF     		it	ne
 111 001e 8021     		movne	r1, #128
 112              	.LVL6:
 113              		.loc 1 259 0
 114 0020 14F0010F 		tst	r4, #1
 115              		.loc 1 260 0
 116 0024 18BF     		it	ne
 117 0026 41F02001 		orrne	r1, r1, #32
 118              	.LVL7:
 119              		.loc 1 261 0
 120 002a 14F0020F 		tst	r4, #2
 121              		.loc 1 262 0
 122 002e 18BF     		it	ne
 123 0030 41F04001 		orrne	r1, r1, #64
 124              	.LVL8:
 125              		.loc 1 263 0
 126 0034 14F0040F 		tst	r4, #4
 127              		.loc 1 264 0
 128 0038 18BF     		it	ne
 129 003a 41F48071 		orrne	r1, r1, #256
 130              	.LVL9:
 131              	.LBB67:
 132              		.loc 1 265 0
 133 003e 2023     		movs	r3, #32
 134              	.LVL10:
 135              	@ 265 "../../../ChibiOS/os/hal/platforms/STM32/serial_lld.c" 1
 136 0040 83F31188 		msr     BASEPRI, r3
 137              	@ 0 "" 2
 138              	.LVL11:
 139              		.thumb
 140              	.LBE67:
 141              		.loc 1 266 0
 142 0044 3248     		ldr	r0, .L22+4
 143 0046 FFF7FEFF 		bl	chEvtBroadcastFlagsI
 144              	.LVL12:
 145              	.LBB68:
 146              		.loc 1 267 0
 147 004a 0023     		movs	r3, #0
 148              	.LVL13:
 149              	@ 267 "../../../ChibiOS/os/hal/platforms/STM32/serial_lld.c" 1
 150 004c 83F31188 		msr     BASEPRI, r3
 151              	@ 0 "" 2
 152              	.LVL14:
 153              		.thumb
 154              	.L5:
 155              	.LBE68:
 156              	.LBE66:
 157              	.LBE65:
 158              		.loc 1 285 0
 159 0050 14F4807F 		tst	r4, #256
 160 0054 30D1     		bne	.L18
 161              	.LVL15:
 162              	.L10:
 163              		.loc 1 292 0
 164 0056 14F0200F 		tst	r4, #32
 165 005a 22D1     		bne	.L19
ARM GAS  C:\Users\DNIEL~1\AppData\Local\Temp\ccLOcjg8.s 			page 4


 166              	.LVL16:
 167              	.L11:
 168              		.loc 1 298 0
 169 005c 16F0800F 		tst	r6, #128
 170 0060 02D0     		beq	.L12
 171 0062 14F0800F 		tst	r4, #128
 172 0066 3AD1     		bne	.L20
 173              	.LVL17:
 174              	.L12:
 175              		.loc 1 311 0
 176 0068 14F0400F 		tst	r4, #64
 177 006c 15D0     		beq	.L15
 178              	.LBB64:
 179              		.loc 1 312 0
 180 006e 2023     		movs	r3, #32
 181              	.LVL18:
 182              	@ 312 "../../../ChibiOS/os/hal/platforms/STM32/serial_lld.c" 1
 183 0070 83F31188 		msr     BASEPRI, r3
 184              	@ 0 "" 2
 185              	.LVL19:
 186              		.thumb
 187              	.LBE64:
 188              		.loc 1 313 0
 189 0074 2648     		ldr	r0, .L22+4
 190 0076 1021     		movs	r1, #16
 191 0078 FFF7FEFF 		bl	chEvtBroadcastFlagsI
 192              	.LVL20:
 193              	.LBB63:
 194              		.loc 1 314 0
 195 007c 0023     		movs	r3, #0
 196              	.LVL21:
 197              	@ 314 "../../../ChibiOS/os/hal/platforms/STM32/serial_lld.c" 1
 198 007e 83F31188 		msr     BASEPRI, r3
 199              	@ 0 "" 2
 200              	.LVL22:
 201              		.thumb
 202              	.LBE63:
 203              		.loc 1 315 0
 204 0082 4FF6BF71 		movw	r1, #65471
 205 0086 06EA0100 		and	r0, r6, r1
 206 008a A881     		strh	r0, [r5, #12]	@ movhi
 207              		.loc 1 316 0
 208 008c B5F800C0 		ldrh	ip, [r5, #0]
 209 0090 2CF04003 		bic	r3, ip, #64
 210              	.LVL23:
 211 0094 1A04     		lsls	r2, r3, #16
 212 0096 110C     		lsrs	r1, r2, #16
 213 0098 2980     		strh	r1, [r5, #0]	@ movhi
 214              	.LVL24:
 215              	.L15:
 216              	.LBE61:
 217              	.LBE77:
 218              		.loc 1 390 0
 219 009a BDE8F041 		pop	{r4, r5, r6, r7, r8, lr}
 220              		.loc 1 389 0
 221 009e FFF7FEBF 		b	_port_irq_epilogue
 222              	.LVL25:
ARM GAS  C:\Users\DNIEL~1\AppData\Local\Temp\ccLOcjg8.s 			page 5


 223              	.L19:
 224              	.LBB78:
 225              	.LBB76:
 226              	.LBB69:
 227              		.loc 1 293 0
 228 00a2 2023     		movs	r3, #32
 229              	.LVL26:
 230              	@ 293 "../../../ChibiOS/os/hal/platforms/STM32/serial_lld.c" 1
 231 00a4 83F31188 		msr     BASEPRI, r3
 232              	@ 0 "" 2
 233              	.LVL27:
 234              		.thumb
 235              	.LBE69:
 236              		.loc 1 294 0
 237 00a8 1848     		ldr	r0, .L22
 238 00aa F9B2     		uxtb	r1, r7
 239 00ac FFF7FEFF 		bl	sdIncomingDataI
 240              	.LVL28:
 241              	.LBB70:
 242              		.loc 1 295 0
 243 00b0 0023     		movs	r3, #0
 244              	@ 295 "../../../ChibiOS/os/hal/platforms/STM32/serial_lld.c" 1
 245 00b2 83F31188 		msr     BASEPRI, r3
 246              	@ 0 "" 2
 247              	.LVL29:
 248              		.thumb
 249 00b6 D1E7     		b	.L11
 250              	.LVL30:
 251              	.L18:
 252              	.LBE70:
 253              	.LBB71:
 254              		.loc 1 286 0
 255 00b8 2023     		movs	r3, #32
 256              	.LVL31:
 257              	@ 286 "../../../ChibiOS/os/hal/platforms/STM32/serial_lld.c" 1
 258 00ba 83F31188 		msr     BASEPRI, r3
 259              	@ 0 "" 2
 260              	.LVL32:
 261              		.thumb
 262              	.LBE71:
 263              		.loc 1 287 0
 264 00be 1448     		ldr	r0, .L22+4
 265 00c0 4FF40071 		mov	r1, #512
 266 00c4 FFF7FEFF 		bl	chEvtBroadcastFlagsI
 267              	.LVL33:
 268              	.LBB72:
 269              		.loc 1 288 0
 270 00c8 0023     		movs	r3, #0
 271              	@ 288 "../../../ChibiOS/os/hal/platforms/STM32/serial_lld.c" 1
 272 00ca 83F31188 		msr     BASEPRI, r3
 273              	@ 0 "" 2
 274              	.LVL34:
 275              		.thumb
 276              	.LBE72:
 277              		.loc 1 289 0
 278 00ce B5F800C0 		ldrh	ip, [r5, #0]
 279 00d2 2CF48072 		bic	r2, ip, #256
ARM GAS  C:\Users\DNIEL~1\AppData\Local\Temp\ccLOcjg8.s 			page 6


 280 00d6 1104     		lsls	r1, r2, #16
 281 00d8 080C     		lsrs	r0, r1, #16
 282 00da 2880     		strh	r0, [r5, #0]	@ movhi
 283 00dc BBE7     		b	.L10
 284              	.LVL35:
 285              	.L20:
 286              	.LBB73:
 287              	.LBB74:
 288              		.loc 1 300 0
 289 00de 2023     		movs	r3, #32
 290              	.LVL36:
 291              	@ 300 "../../../ChibiOS/os/hal/platforms/STM32/serial_lld.c" 1
 292 00e0 83F31188 		msr     BASEPRI, r3
 293              	@ 0 "" 2
 294              	.LVL37:
 295              		.thumb
 296              	.LBE74:
 297              		.loc 1 301 0
 298 00e4 0B48     		ldr	r0, .L22+8
 299 00e6 FFF7FEFF 		bl	chOQGetI
 300              	.LVL38:
 301              		.loc 1 302 0
 302 00ea 0028     		cmp	r0, #0
 303 00ec 04DB     		blt	.L21
 304              		.loc 1 307 0
 305 00ee A880     		strh	r0, [r5, #4]	@ movhi
 306              	.LVL39:
 307              	.L14:
 308              	.LBB75:
 309              		.loc 1 308 0
 310 00f0 0023     		movs	r3, #0
 311              	@ 308 "../../../ChibiOS/os/hal/platforms/STM32/serial_lld.c" 1
 312 00f2 83F31188 		msr     BASEPRI, r3
 313              	@ 0 "" 2
 314              	.LVL40:
 315              		.thumb
 316 00f6 B7E7     		b	.L12
 317              	.LVL41:
 318              	.L21:
 319              	.LBE75:
 320              		.loc 1 303 0
 321 00f8 0548     		ldr	r0, .L22+4
 322              	.LVL42:
 323 00fa 0821     		movs	r1, #8
 324 00fc FFF7FEFF 		bl	chEvtBroadcastFlagsI
 325              		.loc 1 304 0
 326 0100 26F0C000 		bic	r0, r6, #192
 327 0104 40F04003 		orr	r3, r0, #64
 328 0108 AB81     		strh	r3, [r5, #12]	@ movhi
 329 010a F1E7     		b	.L14
 330              	.L23:
 331              		.align	2
 332              	.L22:
 333 010c 00000000 		.word	.LANCHOR0
 334 0110 04000000 		.word	.LANCHOR0+4
 335 0114 30000000 		.word	.LANCHOR0+48
 336              	.LBE73:
ARM GAS  C:\Users\DNIEL~1\AppData\Local\Temp\ccLOcjg8.s 			page 7


 337              	.LBE76:
 338              	.LBE78:
 339              		.cfi_endproc
 340              	.LFE123:
 341              		.size	VectorD4, .-VectorD4
 342 0118 AFF30080 		.section	.text.sd_lld_init,"ax",%progbits
 342      AFF30080 
 343              		.align	2
 344              		.p2align 4,,15
 345              		.global	sd_lld_init
 346              		.thumb
 347              		.thumb_func
 348              		.type	sd_lld_init, %function
 349              	sd_lld_init:
 350              	.LFB124:
 351              		.loc 1 497 0
 352              		.cfi_startproc
 353              		@ args = 0, pretend = 0, frame = 0
 354              		@ frame_needed = 0, uses_anonymous_args = 0
 355 0000 10B5     		push	{r4, lr}
 356              	.LCFI1:
 357              		.cfi_def_cfa_offset 8
 358              		.loc 1 500 0
 359 0002 044C     		ldr	r4, .L25
 360              		.cfi_offset 14, -4
 361              		.cfi_offset 4, -8
 362 0004 044A     		ldr	r2, .L25+4
 363 0006 2046     		mov	r0, r4
 364 0008 0021     		movs	r1, #0
 365 000a FFF7FEFF 		bl	sdObjectInit
 366              		.loc 1 501 0
 367 000e 034B     		ldr	r3, .L25+8
 368 0010 6367     		str	r3, [r4, #116]
 369              		.loc 1 528 0
 370 0012 10BD     		pop	{r4, pc}
 371              	.L26:
 372              		.align	2
 373              	.L25:
 374 0014 00000000 		.word	.LANCHOR0
 375 0018 00000000 		.word	notify1
 376 001c 00100140 		.word	1073811456
 377              		.cfi_endproc
 378              	.LFE124:
 379              		.size	sd_lld_init, .-sd_lld_init
 380              		.section	.text.sd_lld_start,"ax",%progbits
 381              		.align	2
 382              		.p2align 4,,15
 383              		.global	sd_lld_start
 384              		.thumb
 385              		.thumb_func
 386              		.type	sd_lld_start, %function
 387              	sd_lld_start:
 388              	.LFB125:
 389              		.loc 1 540 0
 390              		.cfi_startproc
 391              		@ args = 0, pretend = 0, frame = 0
 392              		@ frame_needed = 0, uses_anonymous_args = 0
ARM GAS  C:\Users\DNIEL~1\AppData\Local\Temp\ccLOcjg8.s 			page 8


 393              	.LVL43:
 394 0000 38B5     		push	{r3, r4, r5, lr}
 395              	.LCFI2:
 396              		.cfi_def_cfa_offset 16
 397              		.loc 1 545 0
 398 0002 037A     		ldrb	r3, [r0, #8]	@ zero_extendqisi2
 399              		.cfi_offset 14, -4
 400              		.cfi_offset 5, -8
 401              		.cfi_offset 4, -12
 402              		.cfi_offset 3, -16
 403              		.loc 1 543 0
 404 0004 1E4C     		ldr	r4, .L35
 405 0006 0029     		cmp	r1, #0
 406 0008 18BF     		it	ne
 407 000a 0C46     		movne	r4, r1
 408              	.LVL44:
 409              		.loc 1 545 0
 410 000c 012B     		cmp	r3, #1
 411              		.loc 1 540 0
 412 000e 0546     		mov	r5, r0
 413              		.loc 1 545 0
 414 0010 21D0     		beq	.L34
 415              	.LVL45:
 416              	.L29:
 417              		.loc 1 648 0
 418 0012 6B6F     		ldr	r3, [r5, #116]
 419              	.LVL46:
 420              	.LBB79:
 421              	.LBB80:
 422              		.loc 1 216 0
 423 0014 1B4A     		ldr	r2, .L35+4
 424 0016 9342     		cmp	r3, r2
 425 0018 2AD0     		beq	.L30
 426 001a 02F58060 		add	r0, r2, #1024
 427 001e 8342     		cmp	r3, r0
 428 0020 26D0     		beq	.L30
 429              		.loc 1 222 0
 430 0022 2268     		ldr	r2, [r4, #0]
 431 0024 1849     		ldr	r1, .L35+8
 432 0026 B1FBF2F0 		udiv	r0, r1, r2
 433 002a 1881     		strh	r0, [r3, #8]	@ movhi
 434              	.L32:
 435              		.loc 1 225 0
 436 002c A288     		ldrh	r2, [r4, #4]
 437              		.loc 1 228 0
 438 002e B4F806C0 		ldrh	ip, [r4, #6]
 439              		.loc 1 229 0
 440 0032 2189     		ldrh	r1, [r4, #8]
 441              		.loc 1 225 0
 442 0034 42F40450 		orr	r0, r2, #8448
 443 0038 40F02C02 		orr	r2, r0, #44
 444              		.loc 1 228 0
 445 003c 4CF04000 		orr	r0, ip, #64
 446              		.loc 1 225 0
 447 0040 9A81     		strh	r2, [r3, #12]	@ movhi
 448              		.loc 1 229 0
 449 0042 41F0010C 		orr	ip, r1, #1
ARM GAS  C:\Users\DNIEL~1\AppData\Local\Temp\ccLOcjg8.s 			page 9


 450              		.loc 1 228 0
 451 0046 1882     		strh	r0, [r3, #16]	@ movhi
 452              		.loc 1 230 0
 453 0048 0020     		movs	r0, #0
 454              		.loc 1 229 0
 455 004a A3F814C0 		strh	ip, [r3, #20]	@ movhi
 456              		.loc 1 230 0
 457 004e 1880     		strh	r0, [r3, #0]	@ movhi
 458              		.loc 1 231 0
 459 0050 1A88     		ldrh	r2, [r3, #0]
 460              		.loc 1 232 0
 461 0052 9B88     		ldrh	r3, [r3, #4]
 462              	.LBE80:
 463              	.LBE79:
 464              		.loc 1 590 0
 465 0054 38BD     		pop	{r3, r4, r5, pc}
 466              	.LVL47:
 467              	.L34:
 468              		.loc 1 547 0
 469 0056 0D49     		ldr	r1, .L35+12
 470 0058 8842     		cmp	r0, r1
 471 005a DAD1     		bne	.L29
 472              		.loc 1 548 0
 473 005c 0C4B     		ldr	r3, .L35+16
 474 005e 596C     		ldr	r1, [r3, #68]
 475 0060 41F01002 		orr	r2, r1, #16
 476              		.loc 1 549 0
 477 0064 2520     		movs	r0, #37
 478 0066 C021     		movs	r1, #192
 479              		.loc 1 548 0
 480 0068 5A64     		str	r2, [r3, #68]
 481              		.loc 1 549 0
 482 006a FFF7FEFF 		bl	nvicEnableVector
 483 006e D0E7     		b	.L29
 484              	.LVL48:
 485              	.L30:
 486              	.LBB82:
 487              	.LBB81:
 488              		.loc 1 220 0
 489 0070 2268     		ldr	r2, [r4, #0]
 490 0072 0849     		ldr	r1, .L35+20
 491 0074 B1FBF2FC 		udiv	ip, r1, r2
 492 0078 A3F808C0 		strh	ip, [r3, #8]	@ movhi
 493 007c D6E7     		b	.L32
 494              	.L36:
 495 007e 00BF     		.align	2
 496              	.L35:
 497 0080 00000000 		.word	.LANCHOR1
 498 0084 00100140 		.word	1073811456
 499 0088 80DE8002 		.word	42000000
 500 008c 00000000 		.word	.LANCHOR0
 501 0090 00380240 		.word	1073887232
 502 0094 00BD0105 		.word	84000000
 503              	.LBE81:
 504              	.LBE82:
 505              		.cfi_endproc
 506              	.LFE125:
ARM GAS  C:\Users\DNIEL~1\AppData\Local\Temp\ccLOcjg8.s 			page 10


 507              		.size	sd_lld_start, .-sd_lld_start
 508 0098 AFF30080 		.section	.text.sd_lld_stop,"ax",%progbits
 508      AFF30080 
 509              		.align	2
 510              		.p2align 4,,15
 511              		.global	sd_lld_stop
 512              		.thumb
 513              		.thumb_func
 514              		.type	sd_lld_stop, %function
 515              	sd_lld_stop:
 516              	.LFB126:
 517              		.loc 1 601 0
 518              		.cfi_startproc
 519              		@ args = 0, pretend = 0, frame = 0
 520              		@ frame_needed = 0, uses_anonymous_args = 0
 521              		@ link register save eliminated.
 522              	.LVL49:
 523              		.loc 1 603 0
 524 0000 037A     		ldrb	r3, [r0, #8]	@ zero_extendqisi2
 525 0002 022B     		cmp	r3, #2
 526 0004 00D0     		beq	.L39
 527              	.L37:
 528 0006 7047     		bx	lr
 529              	.LVL50:
 530              	.L39:
 531              		.loc 1 606 0
 532 0008 0749     		ldr	r1, .L40
 533              	.LVL51:
 534              		.loc 1 604 0
 535 000a 436F     		ldr	r3, [r0, #116]
 536              	.LVL52:
 537              	.LBB83:
 538              	.LBB84:
 539              		.loc 1 243 0
 540 000c 0022     		movs	r2, #0
 541              	.LBE84:
 542              	.LBE83:
 543              		.loc 1 606 0
 544 000e 8842     		cmp	r0, r1
 545              	.LBB86:
 546              	.LBB85:
 547              		.loc 1 243 0
 548 0010 9A81     		strh	r2, [r3, #12]	@ movhi
 549              		.loc 1 244 0
 550 0012 1A82     		strh	r2, [r3, #16]	@ movhi
 551              		.loc 1 245 0
 552 0014 9A82     		strh	r2, [r3, #20]	@ movhi
 553              	.LBE85:
 554              	.LBE86:
 555              		.loc 1 606 0
 556 0016 F6D1     		bne	.L37
 557              		.loc 1 607 0
 558 0018 044B     		ldr	r3, .L40+4
 559 001a 5A6C     		ldr	r2, [r3, #68]
 560              		.loc 1 608 0
 561 001c 2520     		movs	r0, #37
 562              	.LVL53:
ARM GAS  C:\Users\DNIEL~1\AppData\Local\Temp\ccLOcjg8.s 			page 11


 563              		.loc 1 607 0
 564 001e 22F01001 		bic	r1, r2, #16
 565 0022 5964     		str	r1, [r3, #68]
 566              		.loc 1 648 0
 567              		.loc 1 608 0
 568 0024 FFF7FEBF 		b	nvicDisableVector
 569              	.L41:
 570              		.align	2
 571              	.L40:
 572 0028 00000000 		.word	.LANCHOR0
 573 002c 00380240 		.word	1073887232
 574              		.cfi_endproc
 575              	.LFE126:
 576              		.size	sd_lld_stop, .-sd_lld_stop
 577              		.global	SD1
 578              		.section	.rodata.default_config,"a",%progbits
 579              		.align	2
 580              		.set	.LANCHOR1,. + 0
 581              		.type	default_config, %object
 582              		.size	default_config, 12
 583              	default_config:
 584 0000 00960000 		.word	38400
 585 0004 0000     		.short	0
 586 0006 0040     		.short	16384
 587 0008 0000     		.short	0
 588 000a 0000     		.space	2
 589              		.section	.bss.SD1,"aw",%nobits
 590              		.align	2
 591              		.set	.LANCHOR0,. + 0
 592              		.type	SD1, %object
 593              		.size	SD1, 120
 594              	SD1:
 595 0000 00000000 		.space	120
 595      00000000 
 595      00000000 
 595      00000000 
 595      00000000 
 596              		.text
 597              	.Letext0:
 598              		.section	.debug_loc,"",%progbits
 599              	.Ldebug_loc0:
 600              	.LLST0:
 601 0000 00000000 		.4byte	.LVL0
 602 0004 06000000 		.4byte	.LVL1
 603 0008 0100     		.2byte	0x1
 604 000a 50       		.byte	0x50
 605 000b 00000000 		.4byte	0x0
 606 000f 00000000 		.4byte	0x0
 607              	.LLST1:
 608 0013 00000000 		.4byte	.LFB123
 609 0017 06000000 		.4byte	.LCFI0
 610 001b 0200     		.2byte	0x2
 611 001d 7D       		.byte	0x7d
 612 001e 00       		.sleb128 0
 613 001f 06000000 		.4byte	.LCFI0
 614 0023 18010000 		.4byte	.LFE123
 615 0027 0200     		.2byte	0x2
ARM GAS  C:\Users\DNIEL~1\AppData\Local\Temp\ccLOcjg8.s 			page 12


 616 0029 7D       		.byte	0x7d
 617 002a 18       		.sleb128 24
 618 002b 00000000 		.4byte	0x0
 619 002f 00000000 		.4byte	0x0
 620              	.LLST2:
 621 0033 08000000 		.4byte	.LVL3
 622 0037 49000000 		.4byte	.LVL12-1
 623 003b 0500     		.2byte	0x5
 624 003d 03       		.byte	0x3
 625 003e 74000000 		.4byte	SD1+116
 626 0042 49000000 		.4byte	.LVL12-1
 627 0046 18010000 		.4byte	.LFE123
 628 004a 0100     		.2byte	0x1
 629 004c 55       		.byte	0x55
 630 004d 00000000 		.4byte	0x0
 631 0051 00000000 		.4byte	0x0
 632              	.LLST3:
 633 0055 82000000 		.4byte	.LVL22
 634 0059 94000000 		.4byte	.LVL23
 635 005d 0100     		.2byte	0x1
 636 005f 53       		.byte	0x53
 637 0060 00000000 		.4byte	0x0
 638 0064 00000000 		.4byte	0x0
 639              	.LLST4:
 640 0068 74000000 		.4byte	.LVL19
 641 006c 7B000000 		.4byte	.LVL20-1
 642 0070 0100     		.2byte	0x1
 643 0072 53       		.byte	0x53
 644 0073 00000000 		.4byte	0x0
 645 0077 00000000 		.4byte	0x0
 646              	.LLST5:
 647 007b 18000000 		.4byte	.LVL5
 648 007f 50000000 		.4byte	.LVL14
 649 0083 0600     		.2byte	0x6
 650 0085 03       		.byte	0x3
 651 0086 00000000 		.4byte	SD1
 652 008a 9F       		.byte	0x9f
 653 008b 00000000 		.4byte	0x0
 654 008f 00000000 		.4byte	0x0
 655              	.LLST6:
 656 0093 18000000 		.4byte	.LVL5
 657 0097 50000000 		.4byte	.LVL14
 658 009b 0100     		.2byte	0x1
 659 009d 54       		.byte	0x54
 660 009e 00000000 		.4byte	0x0
 661 00a2 00000000 		.4byte	0x0
 662              	.LLST7:
 663 00a6 18000000 		.4byte	.LVL5
 664 00aa 20000000 		.4byte	.LVL6
 665 00ae 0200     		.2byte	0x2
 666 00b0 30       		.byte	0x30
 667 00b1 9F       		.byte	0x9f
 668 00b2 20000000 		.4byte	.LVL6
 669 00b6 2A000000 		.4byte	.LVL7
 670 00ba 0100     		.2byte	0x1
 671 00bc 51       		.byte	0x51
 672 00bd 2A000000 		.4byte	.LVL7
ARM GAS  C:\Users\DNIEL~1\AppData\Local\Temp\ccLOcjg8.s 			page 13


 673 00c1 34000000 		.4byte	.LVL8
 674 00c5 0100     		.2byte	0x1
 675 00c7 51       		.byte	0x51
 676 00c8 34000000 		.4byte	.LVL8
 677 00cc 3E000000 		.4byte	.LVL9
 678 00d0 0100     		.2byte	0x1
 679 00d2 51       		.byte	0x51
 680 00d3 3E000000 		.4byte	.LVL9
 681 00d7 49000000 		.4byte	.LVL12-1
 682 00db 0100     		.2byte	0x1
 683 00dd 51       		.byte	0x51
 684 00de 00000000 		.4byte	0x0
 685 00e2 00000000 		.4byte	0x0
 686              	.LLST8:
 687 00e6 44000000 		.4byte	.LVL11
 688 00ea 49000000 		.4byte	.LVL12-1
 689 00ee 0100     		.2byte	0x1
 690 00f0 53       		.byte	0x53
 691 00f1 00000000 		.4byte	0x0
 692 00f5 00000000 		.4byte	0x0
 693              	.LLST9:
 694 00f9 50000000 		.4byte	.LVL14
 695 00fd 70000000 		.4byte	.LVL18
 696 0101 0100     		.2byte	0x1
 697 0103 53       		.byte	0x53
 698 0104 9A000000 		.4byte	.LVL24
 699 0108 A1000000 		.4byte	.LVL25-1
 700 010c 0100     		.2byte	0x1
 701 010e 53       		.byte	0x53
 702 010f A2000000 		.4byte	.LVL25
 703 0113 A4000000 		.4byte	.LVL26
 704 0117 0100     		.2byte	0x1
 705 0119 53       		.byte	0x53
 706 011a B8000000 		.4byte	.LVL30
 707 011e BA000000 		.4byte	.LVL31
 708 0122 0100     		.2byte	0x1
 709 0124 53       		.byte	0x53
 710 0125 DE000000 		.4byte	.LVL35
 711 0129 E0000000 		.4byte	.LVL36
 712 012d 0100     		.2byte	0x1
 713 012f 53       		.byte	0x53
 714 0130 00000000 		.4byte	0x0
 715 0134 00000000 		.4byte	0x0
 716              	.LLST10:
 717 0138 A8000000 		.4byte	.LVL27
 718 013c AF000000 		.4byte	.LVL28-1
 719 0140 0100     		.2byte	0x1
 720 0142 53       		.byte	0x53
 721 0143 00000000 		.4byte	0x0
 722 0147 00000000 		.4byte	0x0
 723              	.LLST11:
 724 014b 5C000000 		.4byte	.LVL16
 725 014f 70000000 		.4byte	.LVL18
 726 0153 0100     		.2byte	0x1
 727 0155 53       		.byte	0x53
 728 0156 9A000000 		.4byte	.LVL24
 729 015a A1000000 		.4byte	.LVL25-1
ARM GAS  C:\Users\DNIEL~1\AppData\Local\Temp\ccLOcjg8.s 			page 14


 730 015e 0100     		.2byte	0x1
 731 0160 53       		.byte	0x53
 732 0161 B6000000 		.4byte	.LVL29
 733 0165 B8000000 		.4byte	.LVL30
 734 0169 0100     		.2byte	0x1
 735 016b 53       		.byte	0x53
 736 016c DE000000 		.4byte	.LVL35
 737 0170 E0000000 		.4byte	.LVL36
 738 0174 0100     		.2byte	0x1
 739 0176 53       		.byte	0x53
 740 0177 00000000 		.4byte	0x0
 741 017b 00000000 		.4byte	0x0
 742              	.LLST12:
 743 017f BE000000 		.4byte	.LVL32
 744 0183 C7000000 		.4byte	.LVL33-1
 745 0187 0100     		.2byte	0x1
 746 0189 53       		.byte	0x53
 747 018a 00000000 		.4byte	0x0
 748 018e 00000000 		.4byte	0x0
 749              	.LLST13:
 750 0192 56000000 		.4byte	.LVL15
 751 0196 70000000 		.4byte	.LVL18
 752 019a 0100     		.2byte	0x1
 753 019c 53       		.byte	0x53
 754 019d 9A000000 		.4byte	.LVL24
 755 01a1 A1000000 		.4byte	.LVL25-1
 756 01a5 0100     		.2byte	0x1
 757 01a7 53       		.byte	0x53
 758 01a8 A2000000 		.4byte	.LVL25
 759 01ac A4000000 		.4byte	.LVL26
 760 01b0 0100     		.2byte	0x1
 761 01b2 53       		.byte	0x53
 762 01b3 CE000000 		.4byte	.LVL34
 763 01b7 E0000000 		.4byte	.LVL36
 764 01bb 0100     		.2byte	0x1
 765 01bd 53       		.byte	0x53
 766 01be 00000000 		.4byte	0x0
 767 01c2 00000000 		.4byte	0x0
 768              	.LLST14:
 769 01c6 EA000000 		.4byte	.LVL38
 770 01ca F0000000 		.4byte	.LVL39
 771 01ce 0100     		.2byte	0x1
 772 01d0 50       		.byte	0x50
 773 01d1 F8000000 		.4byte	.LVL41
 774 01d5 FA000000 		.4byte	.LVL42
 775 01d9 0100     		.2byte	0x1
 776 01db 50       		.byte	0x50
 777 01dc 00000000 		.4byte	0x0
 778 01e0 00000000 		.4byte	0x0
 779              	.LLST15:
 780 01e4 E4000000 		.4byte	.LVL37
 781 01e8 E9000000 		.4byte	.LVL38-1
 782 01ec 0100     		.2byte	0x1
 783 01ee 53       		.byte	0x53
 784 01ef 00000000 		.4byte	0x0
 785 01f3 00000000 		.4byte	0x0
 786              	.LLST16:
ARM GAS  C:\Users\DNIEL~1\AppData\Local\Temp\ccLOcjg8.s 			page 15


 787 01f7 68000000 		.4byte	.LVL17
 788 01fb 70000000 		.4byte	.LVL18
 789 01ff 0100     		.2byte	0x1
 790 0201 53       		.byte	0x53
 791 0202 9A000000 		.4byte	.LVL24
 792 0206 A1000000 		.4byte	.LVL25-1
 793 020a 0100     		.2byte	0x1
 794 020c 53       		.byte	0x53
 795 020d F6000000 		.4byte	.LVL40
 796 0211 F8000000 		.4byte	.LVL41
 797 0215 0100     		.2byte	0x1
 798 0217 53       		.byte	0x53
 799 0218 00000000 		.4byte	0x0
 800 021c 00000000 		.4byte	0x0
 801              	.LLST17:
 802 0220 00000000 		.4byte	.LFB124
 803 0224 02000000 		.4byte	.LCFI1
 804 0228 0200     		.2byte	0x2
 805 022a 7D       		.byte	0x7d
 806 022b 00       		.sleb128 0
 807 022c 02000000 		.4byte	.LCFI1
 808 0230 20000000 		.4byte	.LFE124
 809 0234 0200     		.2byte	0x2
 810 0236 7D       		.byte	0x7d
 811 0237 08       		.sleb128 8
 812 0238 00000000 		.4byte	0x0
 813 023c 00000000 		.4byte	0x0
 814              	.LLST18:
 815 0240 00000000 		.4byte	.LFB125
 816 0244 02000000 		.4byte	.LCFI2
 817 0248 0200     		.2byte	0x2
 818 024a 7D       		.byte	0x7d
 819 024b 00       		.sleb128 0
 820 024c 02000000 		.4byte	.LCFI2
 821 0250 98000000 		.4byte	.LFE125
 822 0254 0200     		.2byte	0x2
 823 0256 7D       		.byte	0x7d
 824 0257 10       		.sleb128 16
 825 0258 00000000 		.4byte	0x0
 826 025c 00000000 		.4byte	0x0
 827              	.LLST19:
 828 0260 00000000 		.4byte	.LVL43
 829 0264 12000000 		.4byte	.LVL45
 830 0268 0100     		.2byte	0x1
 831 026a 50       		.byte	0x50
 832 026b 12000000 		.4byte	.LVL45
 833 026f 98000000 		.4byte	.LFE125
 834 0273 0100     		.2byte	0x1
 835 0275 55       		.byte	0x55
 836 0276 00000000 		.4byte	0x0
 837 027a 00000000 		.4byte	0x0
 838              	.LLST20:
 839 027e 00000000 		.4byte	.LVL43
 840 0282 0C000000 		.4byte	.LVL44
 841 0286 0100     		.2byte	0x1
 842 0288 51       		.byte	0x51
 843 0289 00000000 		.4byte	0x0
ARM GAS  C:\Users\DNIEL~1\AppData\Local\Temp\ccLOcjg8.s 			page 16


 844 028d 00000000 		.4byte	0x0
 845              	.LLST21:
 846 0291 14000000 		.4byte	.LVL46
 847 0295 56000000 		.4byte	.LVL47
 848 0299 0300     		.2byte	0x3
 849 029b 75       		.byte	0x75
 850 029c F400     		.sleb128 116
 851 029e 70000000 		.4byte	.LVL48
 852 02a2 98000000 		.4byte	.LFE125
 853 02a6 0100     		.2byte	0x1
 854 02a8 53       		.byte	0x53
 855 02a9 00000000 		.4byte	0x0
 856 02ad 00000000 		.4byte	0x0
 857              	.LLST22:
 858 02b1 00000000 		.4byte	.LVL49
 859 02b5 08000000 		.4byte	.LVL50
 860 02b9 0100     		.2byte	0x1
 861 02bb 50       		.byte	0x50
 862 02bc 0A000000 		.4byte	.LVL51
 863 02c0 1E000000 		.4byte	.LVL53
 864 02c4 0100     		.2byte	0x1
 865 02c6 50       		.byte	0x50
 866 02c7 00000000 		.4byte	0x0
 867 02cb 00000000 		.4byte	0x0
 868              	.LLST23:
 869 02cf 0C000000 		.4byte	.LVL52
 870 02d3 1E000000 		.4byte	.LVL53
 871 02d7 0300     		.2byte	0x3
 872 02d9 70       		.byte	0x70
 873 02da F400     		.sleb128 116
 874 02dc 00000000 		.4byte	0x0
 875 02e0 00000000 		.4byte	0x0
 876              		.file 2 "c:\\program files (x86)\\codesourcery\\sourcery g++ lite\\bin\\../lib/gcc/arm-none-eabi/4
 877              		.file 3 "c:\\program files (x86)\\codesourcery\\sourcery g++ lite\\bin\\../lib/gcc/arm-none-eabi/4
 878              		.file 4 "../../../ChibiOS/os/ports/GCC/ARMCMx/chtypes.h"
 879              		.file 5 "../../../ChibiOS/os/kernel/include/chlists.h"
 880              		.file 6 "../../../ChibiOS/os/kernel/include/chthreads.h"
 881              		.file 7 "../../../ChibiOS/os/ports/GCC/ARMCMx/chcore_v7m.h"
 882              		.file 8 "../../../ChibiOS/os/kernel/include/chmtx.h"
 883              		.file 9 "../../../ChibiOS/os/kernel/include/chevents.h"
 884              		.file 10 "../../../ChibiOS/os/kernel/include/chqueues.h"
 885              		.file 11 "../../../ChibiOS/os/hal/platforms/STM32F4xx/stm32f4xx.h"
 886              		.file 12 "../../../ChibiOS/os/hal/include/serial.h"
 887              		.file 13 "../../../ChibiOS/os/hal/platforms/STM32/serial_lld.h"
 888              		.file 14 "../../../ChibiOS/os/ports/common/ARMCMx/CMSIS/include/core_cm4.h"
 889              		.section	.debug_info
 890 0000 11110000 		.4byte	0x1111
 891 0004 0200     		.2byte	0x2
 892 0006 00000000 		.4byte	.Ldebug_abbrev0
 893 000a 04       		.byte	0x4
 894 000b 01       		.uleb128 0x1
 895 000c AD070000 		.4byte	.LASF227
 896 0010 01       		.byte	0x1
 897 0011 69000000 		.4byte	.LASF228
 898 0015 F3050000 		.4byte	.LASF229
 899 0019 00000000 		.4byte	0x0
 900 001d 00000000 		.4byte	0x0
ARM GAS  C:\Users\DNIEL~1\AppData\Local\Temp\ccLOcjg8.s 			page 17


 901 0021 88000000 		.4byte	.Ldebug_ranges0+0x88
 902 0025 00000000 		.4byte	.Ldebug_line0
 903 0029 02       		.uleb128 0x2
 904 002a 04       		.byte	0x4
 905 002b 05       		.byte	0x5
 906 002c 696E7400 		.ascii	"int\000"
 907 0030 03       		.uleb128 0x3
 908 0031 00000000 		.4byte	.LASF2
 909 0035 02       		.byte	0x2
 910 0036 D3       		.byte	0xd3
 911 0037 3B000000 		.4byte	0x3b
 912 003b 04       		.uleb128 0x4
 913 003c 04       		.byte	0x4
 914 003d 07       		.byte	0x7
 915 003e 82060000 		.4byte	.LASF0
 916 0042 04       		.uleb128 0x4
 917 0043 01       		.byte	0x1
 918 0044 06       		.byte	0x6
 919 0045 54020000 		.4byte	.LASF1
 920 0049 03       		.uleb128 0x3
 921 004a 6A020000 		.4byte	.LASF3
 922 004e 03       		.byte	0x3
 923 004f 2A       		.byte	0x2a
 924 0050 54000000 		.4byte	0x54
 925 0054 04       		.uleb128 0x4
 926 0055 01       		.byte	0x1
 927 0056 08       		.byte	0x8
 928 0057 AC020000 		.4byte	.LASF4
 929 005b 04       		.uleb128 0x4
 930 005c 02       		.byte	0x2
 931 005d 05       		.byte	0x5
 932 005e F9080000 		.4byte	.LASF5
 933 0062 03       		.uleb128 0x3
 934 0063 D8070000 		.4byte	.LASF6
 935 0067 03       		.byte	0x3
 936 0068 36       		.byte	0x36
 937 0069 6D000000 		.4byte	0x6d
 938 006d 04       		.uleb128 0x4
 939 006e 02       		.byte	0x2
 940 006f 07       		.byte	0x7
 941 0070 D0090000 		.4byte	.LASF7
 942 0074 03       		.uleb128 0x3
 943 0075 48000000 		.4byte	.LASF8
 944 0079 03       		.byte	0x3
 945 007a 4F       		.byte	0x4f
 946 007b 7F000000 		.4byte	0x7f
 947 007f 04       		.uleb128 0x4
 948 0080 04       		.byte	0x4
 949 0081 05       		.byte	0x5
 950 0082 A8010000 		.4byte	.LASF9
 951 0086 03       		.uleb128 0x3
 952 0087 84090000 		.4byte	.LASF10
 953 008b 03       		.byte	0x3
 954 008c 50       		.byte	0x50
 955 008d 91000000 		.4byte	0x91
 956 0091 04       		.uleb128 0x4
 957 0092 04       		.byte	0x4
ARM GAS  C:\Users\DNIEL~1\AppData\Local\Temp\ccLOcjg8.s 			page 18


 958 0093 07       		.byte	0x7
 959 0094 87040000 		.4byte	.LASF11
 960 0098 04       		.uleb128 0x4
 961 0099 08       		.byte	0x8
 962 009a 05       		.byte	0x5
 963 009b 6C050000 		.4byte	.LASF12
 964 009f 04       		.uleb128 0x4
 965 00a0 08       		.byte	0x8
 966 00a1 07       		.byte	0x7
 967 00a2 B9070000 		.4byte	.LASF13
 968 00a6 03       		.uleb128 0x3
 969 00a7 6D080000 		.4byte	.LASF14
 970 00ab 04       		.byte	0x4
 971 00ac 28       		.byte	0x28
 972 00ad 49000000 		.4byte	0x49
 973 00b1 03       		.uleb128 0x3
 974 00b2 E8010000 		.4byte	.LASF15
 975 00b6 04       		.byte	0x4
 976 00b7 29       		.byte	0x29
 977 00b8 49000000 		.4byte	0x49
 978 00bc 03       		.uleb128 0x3
 979 00bd 4C090000 		.4byte	.LASF16
 980 00c1 04       		.byte	0x4
 981 00c2 2A       		.byte	0x2a
 982 00c3 49000000 		.4byte	0x49
 983 00c7 03       		.uleb128 0x3
 984 00c8 0C080000 		.4byte	.LASF17
 985 00cc 04       		.byte	0x4
 986 00cd 2B       		.byte	0x2b
 987 00ce 49000000 		.4byte	0x49
 988 00d2 03       		.uleb128 0x3
 989 00d3 35000000 		.4byte	.LASF18
 990 00d7 04       		.byte	0x4
 991 00d8 2C       		.byte	0x2c
 992 00d9 86000000 		.4byte	0x86
 993 00dd 03       		.uleb128 0x3
 994 00de E1070000 		.4byte	.LASF19
 995 00e2 04       		.byte	0x4
 996 00e3 2D       		.byte	0x2d
 997 00e4 74000000 		.4byte	0x74
 998 00e8 03       		.uleb128 0x3
 999 00e9 72020000 		.4byte	.LASF20
 1000 00ed 04       		.byte	0x4
 1001 00ee 2F       		.byte	0x2f
 1002 00ef 86000000 		.4byte	0x86
 1003 00f3 03       		.uleb128 0x3
 1004 00f4 EA060000 		.4byte	.LASF21
 1005 00f8 04       		.byte	0x4
 1006 00f9 30       		.byte	0x30
 1007 00fa 86000000 		.4byte	0x86
 1008 00fe 03       		.uleb128 0x3
 1009 00ff 1A000000 		.4byte	.LASF22
 1010 0103 04       		.byte	0x4
 1011 0104 31       		.byte	0x31
 1012 0105 86000000 		.4byte	0x86
 1013 0109 03       		.uleb128 0x3
 1014 010a 25090000 		.4byte	.LASF23
ARM GAS  C:\Users\DNIEL~1\AppData\Local\Temp\ccLOcjg8.s 			page 19


 1015 010e 05       		.byte	0x5
 1016 010f 23       		.byte	0x23
 1017 0110 14010000 		.4byte	0x114
 1018 0114 05       		.uleb128 0x5
 1019 0115 25090000 		.4byte	.LASF23
 1020 0119 48       		.byte	0x48
 1021 011a 06       		.byte	0x6
 1022 011b 57       		.byte	0x57
 1023 011c 39020000 		.4byte	0x239
 1024 0120 06       		.uleb128 0x6
 1025 0121 B1010000 		.4byte	.LASF24
 1026 0125 06       		.byte	0x6
 1027 0126 58       		.byte	0x58
 1028 0127 5E020000 		.4byte	0x25e
 1029 012b 02       		.byte	0x2
 1030 012c 23       		.byte	0x23
 1031 012d 00       		.uleb128 0x0
 1032 012e 06       		.uleb128 0x6
 1033 012f C0010000 		.4byte	.LASF25
 1034 0133 06       		.byte	0x6
 1035 0134 5A       		.byte	0x5a
 1036 0135 5E020000 		.4byte	0x25e
 1037 0139 02       		.byte	0x2
 1038 013a 23       		.byte	0x23
 1039 013b 04       		.uleb128 0x4
 1040 013c 06       		.uleb128 0x6
 1041 013d 49030000 		.4byte	.LASF26
 1042 0141 06       		.byte	0x6
 1043 0142 5C       		.byte	0x5c
 1044 0143 D2000000 		.4byte	0xd2
 1045 0147 02       		.byte	0x2
 1046 0148 23       		.byte	0x23
 1047 0149 08       		.uleb128 0x8
 1048 014a 06       		.uleb128 0x6
 1049 014b 2F000000 		.4byte	.LASF27
 1050 014f 06       		.byte	0x6
 1051 0150 5D       		.byte	0x5d
 1052 0151 2C030000 		.4byte	0x32c
 1053 0155 02       		.byte	0x2
 1054 0156 23       		.byte	0x23
 1055 0157 0C       		.uleb128 0xc
 1056 0158 06       		.uleb128 0x6
 1057 0159 A0010000 		.4byte	.LASF28
 1058 015d 06       		.byte	0x6
 1059 015e 5F       		.byte	0x5f
 1060 015f 5E020000 		.4byte	0x25e
 1061 0163 02       		.byte	0x2
 1062 0164 23       		.byte	0x23
 1063 0165 10       		.uleb128 0x10
 1064 0166 06       		.uleb128 0x6
 1065 0167 D0070000 		.4byte	.LASF29
 1066 016b 06       		.byte	0x6
 1067 016c 60       		.byte	0x60
 1068 016d 5E020000 		.4byte	0x25e
 1069 0171 02       		.byte	0x2
 1070 0172 23       		.byte	0x23
 1071 0173 14       		.uleb128 0x14
ARM GAS  C:\Users\DNIEL~1\AppData\Local\Temp\ccLOcjg8.s 			page 20


 1072 0174 06       		.uleb128 0x6
 1073 0175 660A0000 		.4byte	.LASF30
 1074 0179 06       		.byte	0x6
 1075 017a 67       		.byte	0x67
 1076 017b 52040000 		.4byte	0x452
 1077 017f 02       		.byte	0x2
 1078 0180 23       		.byte	0x23
 1079 0181 18       		.uleb128 0x18
 1080 0182 06       		.uleb128 0x6
 1081 0183 A00A0000 		.4byte	.LASF31
 1082 0187 06       		.byte	0x6
 1083 0188 72       		.byte	0x72
 1084 0189 B1000000 		.4byte	0xb1
 1085 018d 02       		.byte	0x2
 1086 018e 23       		.byte	0x23
 1087 018f 1C       		.uleb128 0x1c
 1088 0190 06       		.uleb128 0x6
 1089 0191 75060000 		.4byte	.LASF32
 1090 0195 06       		.byte	0x6
 1091 0196 76       		.byte	0x76
 1092 0197 A6000000 		.4byte	0xa6
 1093 019b 02       		.byte	0x2
 1094 019c 23       		.byte	0x23
 1095 019d 1D       		.uleb128 0x1d
 1096 019e 06       		.uleb128 0x6
 1097 019f B2060000 		.4byte	.LASF33
 1098 01a3 06       		.byte	0x6
 1099 01a4 7B       		.byte	0x7b
 1100 01a5 BC000000 		.4byte	0xbc
 1101 01a9 02       		.byte	0x2
 1102 01aa 23       		.byte	0x23
 1103 01ab 1E       		.uleb128 0x1e
 1104 01ac 06       		.uleb128 0x6
 1105 01ad 60020000 		.4byte	.LASF34
 1106 01b1 06       		.byte	0x6
 1107 01b2 81       		.byte	0x81
 1108 01b3 C7000000 		.4byte	0xc7
 1109 01b7 02       		.byte	0x2
 1110 01b8 23       		.byte	0x23
 1111 01b9 1F       		.uleb128 0x1f
 1112 01ba 06       		.uleb128 0x6
 1113 01bb 15070000 		.4byte	.LASF35
 1114 01bf 06       		.byte	0x6
 1115 01c0 88       		.byte	0x88
 1116 01c1 54030000 		.4byte	0x354
 1117 01c5 02       		.byte	0x2
 1118 01c6 23       		.byte	0x23
 1119 01c7 20       		.uleb128 0x20
 1120 01c8 07       		.uleb128 0x7
 1121 01c9 705F7500 		.ascii	"p_u\000"
 1122 01cd 06       		.byte	0x6
 1123 01ce AD       		.byte	0xad
 1124 01cf 1D040000 		.4byte	0x41d
 1125 01d3 02       		.byte	0x2
 1126 01d4 23       		.byte	0x23
 1127 01d5 24       		.uleb128 0x24
 1128 01d6 06       		.uleb128 0x6
ARM GAS  C:\Users\DNIEL~1\AppData\Local\Temp\ccLOcjg8.s 			page 21


 1129 01d7 42060000 		.4byte	.LASF36
 1130 01db 06       		.byte	0x6
 1131 01dc B2       		.byte	0xb2
 1132 01dd 86020000 		.4byte	0x286
 1133 01e1 02       		.byte	0x2
 1134 01e2 23       		.byte	0x23
 1135 01e3 28       		.uleb128 0x28
 1136 01e4 06       		.uleb128 0x6
 1137 01e5 3D000000 		.4byte	.LASF37
 1138 01e9 06       		.byte	0x6
 1139 01ea B8       		.byte	0xb8
 1140 01eb 64020000 		.4byte	0x264
 1141 01ef 02       		.byte	0x2
 1142 01f0 23       		.byte	0x23
 1143 01f1 2C       		.uleb128 0x2c
 1144 01f2 06       		.uleb128 0x6
 1145 01f3 8E0A0000 		.4byte	.LASF38
 1146 01f7 06       		.byte	0x6
 1147 01f8 BC       		.byte	0xbc
 1148 01f9 DD000000 		.4byte	0xdd
 1149 01fd 02       		.byte	0x2
 1150 01fe 23       		.byte	0x23
 1151 01ff 34       		.uleb128 0x34
 1152 0200 06       		.uleb128 0x6
 1153 0201 C8030000 		.4byte	.LASF39
 1154 0205 06       		.byte	0x6
 1155 0206 C2       		.byte	0xc2
 1156 0207 E8000000 		.4byte	0xe8
 1157 020b 02       		.byte	0x2
 1158 020c 23       		.byte	0x23
 1159 020d 38       		.uleb128 0x38
 1160 020e 06       		.uleb128 0x6
 1161 020f F1010000 		.4byte	.LASF40
 1162 0213 06       		.byte	0x6
 1163 0214 C9       		.byte	0xc9
 1164 0215 64040000 		.4byte	0x464
 1165 0219 02       		.byte	0x2
 1166 021a 23       		.byte	0x23
 1167 021b 3C       		.uleb128 0x3c
 1168 021c 06       		.uleb128 0x6
 1169 021d 3C070000 		.4byte	.LASF41
 1170 0221 06       		.byte	0x6
 1171 0222 CD       		.byte	0xcd
 1172 0223 D2000000 		.4byte	0xd2
 1173 0227 02       		.byte	0x2
 1174 0228 23       		.byte	0x23
 1175 0229 40       		.uleb128 0x40
 1176 022a 06       		.uleb128 0x6
 1177 022b 9D060000 		.4byte	.LASF42
 1178 022f 06       		.byte	0x6
 1179 0230 D3       		.byte	0xd3
 1180 0231 9C020000 		.4byte	0x29c
 1181 0235 02       		.byte	0x2
 1182 0236 23       		.byte	0x23
 1183 0237 44       		.uleb128 0x44
 1184 0238 00       		.byte	0x0
 1185 0239 08       		.uleb128 0x8
ARM GAS  C:\Users\DNIEL~1\AppData\Local\Temp\ccLOcjg8.s 			page 22


 1186 023a 08       		.byte	0x8
 1187 023b 05       		.byte	0x5
 1188 023c 5A       		.byte	0x5a
 1189 023d 5E020000 		.4byte	0x25e
 1190 0241 06       		.uleb128 0x6
 1191 0242 B1010000 		.4byte	.LASF24
 1192 0246 05       		.byte	0x5
 1193 0247 5B       		.byte	0x5b
 1194 0248 5E020000 		.4byte	0x25e
 1195 024c 02       		.byte	0x2
 1196 024d 23       		.byte	0x23
 1197 024e 00       		.uleb128 0x0
 1198 024f 06       		.uleb128 0x6
 1199 0250 C0010000 		.4byte	.LASF25
 1200 0254 05       		.byte	0x5
 1201 0255 5D       		.byte	0x5d
 1202 0256 5E020000 		.4byte	0x25e
 1203 025a 02       		.byte	0x2
 1204 025b 23       		.byte	0x23
 1205 025c 04       		.uleb128 0x4
 1206 025d 00       		.byte	0x0
 1207 025e 09       		.uleb128 0x9
 1208 025f 04       		.byte	0x4
 1209 0260 09010000 		.4byte	0x109
 1210 0264 03       		.uleb128 0x3
 1211 0265 A4090000 		.4byte	.LASF43
 1212 0269 05       		.byte	0x5
 1213 026a 5F       		.byte	0x5f
 1214 026b 39020000 		.4byte	0x239
 1215 026f 08       		.uleb128 0x8
 1216 0270 04       		.byte	0x4
 1217 0271 05       		.byte	0x5
 1218 0272 64       		.byte	0x64
 1219 0273 86020000 		.4byte	0x286
 1220 0277 06       		.uleb128 0x6
 1221 0278 B1010000 		.4byte	.LASF24
 1222 027c 05       		.byte	0x5
 1223 027d 66       		.byte	0x66
 1224 027e 5E020000 		.4byte	0x25e
 1225 0282 02       		.byte	0x2
 1226 0283 23       		.byte	0x23
 1227 0284 00       		.uleb128 0x0
 1228 0285 00       		.byte	0x0
 1229 0286 03       		.uleb128 0x3
 1230 0287 C2060000 		.4byte	.LASF44
 1231 028b 05       		.byte	0x5
 1232 028c 69       		.byte	0x69
 1233 028d 6F020000 		.4byte	0x26f
 1234 0291 03       		.uleb128 0x3
 1235 0292 1A020000 		.4byte	.LASF45
 1236 0296 07       		.byte	0x7
 1237 0297 DE       		.byte	0xde
 1238 0298 9C020000 		.4byte	0x29c
 1239 029c 0A       		.uleb128 0xa
 1240 029d 04       		.byte	0x4
 1241 029e 0B       		.uleb128 0xb
 1242 029f C1030000 		.4byte	.LASF46
ARM GAS  C:\Users\DNIEL~1\AppData\Local\Temp\ccLOcjg8.s 			page 23


 1243 02a3 24       		.byte	0x24
 1244 02a4 07       		.byte	0x7
 1245 02a5 0501     		.2byte	0x105
 1246 02a7 2C030000 		.4byte	0x32c
 1247 02ab 0C       		.uleb128 0xc
 1248 02ac 723400   		.ascii	"r4\000"
 1249 02af 07       		.byte	0x7
 1250 02b0 1801     		.2byte	0x118
 1251 02b2 91020000 		.4byte	0x291
 1252 02b6 02       		.byte	0x2
 1253 02b7 23       		.byte	0x23
 1254 02b8 00       		.uleb128 0x0
 1255 02b9 0C       		.uleb128 0xc
 1256 02ba 723500   		.ascii	"r5\000"
 1257 02bd 07       		.byte	0x7
 1258 02be 1901     		.2byte	0x119
 1259 02c0 91020000 		.4byte	0x291
 1260 02c4 02       		.byte	0x2
 1261 02c5 23       		.byte	0x23
 1262 02c6 04       		.uleb128 0x4
 1263 02c7 0C       		.uleb128 0xc
 1264 02c8 723600   		.ascii	"r6\000"
 1265 02cb 07       		.byte	0x7
 1266 02cc 1A01     		.2byte	0x11a
 1267 02ce 91020000 		.4byte	0x291
 1268 02d2 02       		.byte	0x2
 1269 02d3 23       		.byte	0x23
 1270 02d4 08       		.uleb128 0x8
 1271 02d5 0C       		.uleb128 0xc
 1272 02d6 723700   		.ascii	"r7\000"
 1273 02d9 07       		.byte	0x7
 1274 02da 1B01     		.2byte	0x11b
 1275 02dc 91020000 		.4byte	0x291
 1276 02e0 02       		.byte	0x2
 1277 02e1 23       		.byte	0x23
 1278 02e2 0C       		.uleb128 0xc
 1279 02e3 0C       		.uleb128 0xc
 1280 02e4 723800   		.ascii	"r8\000"
 1281 02e7 07       		.byte	0x7
 1282 02e8 1C01     		.2byte	0x11c
 1283 02ea 91020000 		.4byte	0x291
 1284 02ee 02       		.byte	0x2
 1285 02ef 23       		.byte	0x23
 1286 02f0 10       		.uleb128 0x10
 1287 02f1 0C       		.uleb128 0xc
 1288 02f2 723900   		.ascii	"r9\000"
 1289 02f5 07       		.byte	0x7
 1290 02f6 1D01     		.2byte	0x11d
 1291 02f8 91020000 		.4byte	0x291
 1292 02fc 02       		.byte	0x2
 1293 02fd 23       		.byte	0x23
 1294 02fe 14       		.uleb128 0x14
 1295 02ff 0C       		.uleb128 0xc
 1296 0300 72313000 		.ascii	"r10\000"
 1297 0304 07       		.byte	0x7
 1298 0305 1E01     		.2byte	0x11e
 1299 0307 91020000 		.4byte	0x291
ARM GAS  C:\Users\DNIEL~1\AppData\Local\Temp\ccLOcjg8.s 			page 24


 1300 030b 02       		.byte	0x2
 1301 030c 23       		.byte	0x23
 1302 030d 18       		.uleb128 0x18
 1303 030e 0C       		.uleb128 0xc
 1304 030f 72313100 		.ascii	"r11\000"
 1305 0313 07       		.byte	0x7
 1306 0314 1F01     		.2byte	0x11f
 1307 0316 91020000 		.4byte	0x291
 1308 031a 02       		.byte	0x2
 1309 031b 23       		.byte	0x23
 1310 031c 1C       		.uleb128 0x1c
 1311 031d 0C       		.uleb128 0xc
 1312 031e 6C7200   		.ascii	"lr\000"
 1313 0321 07       		.byte	0x7
 1314 0322 2001     		.2byte	0x120
 1315 0324 91020000 		.4byte	0x291
 1316 0328 02       		.byte	0x2
 1317 0329 23       		.byte	0x23
 1318 032a 20       		.uleb128 0x20
 1319 032b 00       		.byte	0x0
 1320 032c 0B       		.uleb128 0xb
 1321 032d 7E020000 		.4byte	.LASF47
 1322 0331 04       		.byte	0x4
 1323 0332 07       		.byte	0x7
 1324 0333 2A01     		.2byte	0x12a
 1325 0335 49030000 		.4byte	0x349
 1326 0339 0C       		.uleb128 0xc
 1327 033a 72313300 		.ascii	"r13\000"
 1328 033e 07       		.byte	0x7
 1329 033f 2B01     		.2byte	0x12b
 1330 0341 49030000 		.4byte	0x349
 1331 0345 02       		.byte	0x2
 1332 0346 23       		.byte	0x23
 1333 0347 00       		.uleb128 0x0
 1334 0348 00       		.byte	0x0
 1335 0349 09       		.uleb128 0x9
 1336 034a 04       		.byte	0x4
 1337 034b 9E020000 		.4byte	0x29e
 1338 034f 0D       		.uleb128 0xd
 1339 0350 86000000 		.4byte	0x86
 1340 0354 0D       		.uleb128 0xd
 1341 0355 FE000000 		.4byte	0xfe
 1342 0359 05       		.uleb128 0x5
 1343 035a 5C050000 		.4byte	.LASF48
 1344 035e 10       		.byte	0x10
 1345 035f 08       		.byte	0x8
 1346 0360 25       		.byte	0x25
 1347 0361 90030000 		.4byte	0x390
 1348 0365 06       		.uleb128 0x6
 1349 0366 9E050000 		.4byte	.LASF49
 1350 036a 08       		.byte	0x8
 1351 036b 26       		.byte	0x26
 1352 036c 64020000 		.4byte	0x264
 1353 0370 02       		.byte	0x2
 1354 0371 23       		.byte	0x23
 1355 0372 00       		.uleb128 0x0
 1356 0373 06       		.uleb128 0x6
ARM GAS  C:\Users\DNIEL~1\AppData\Local\Temp\ccLOcjg8.s 			page 25


 1357 0374 2E010000 		.4byte	.LASF50
 1358 0378 08       		.byte	0x8
 1359 0379 28       		.byte	0x28
 1360 037a 5E020000 		.4byte	0x25e
 1361 037e 02       		.byte	0x2
 1362 037f 23       		.byte	0x23
 1363 0380 08       		.uleb128 0x8
 1364 0381 06       		.uleb128 0x6
 1365 0382 6D0A0000 		.4byte	.LASF51
 1366 0386 08       		.byte	0x8
 1367 0387 2A       		.byte	0x2a
 1368 0388 90030000 		.4byte	0x390
 1369 038c 02       		.byte	0x2
 1370 038d 23       		.byte	0x23
 1371 038e 0C       		.uleb128 0xc
 1372 038f 00       		.byte	0x0
 1373 0390 09       		.uleb128 0x9
 1374 0391 04       		.byte	0x4
 1375 0392 59030000 		.4byte	0x359
 1376 0396 03       		.uleb128 0x3
 1377 0397 5C050000 		.4byte	.LASF48
 1378 039b 08       		.byte	0x8
 1379 039c 2C       		.byte	0x2c
 1380 039d 59030000 		.4byte	0x359
 1381 03a1 03       		.uleb128 0x3
 1382 03a2 76090000 		.4byte	.LASF52
 1383 03a6 09       		.byte	0x9
 1384 03a7 25       		.byte	0x25
 1385 03a8 AC030000 		.4byte	0x3ac
 1386 03ac 05       		.uleb128 0x5
 1387 03ad 76090000 		.4byte	.LASF52
 1388 03b1 10       		.byte	0x10
 1389 03b2 09       		.byte	0x9
 1390 03b3 2A       		.byte	0x2a
 1391 03b4 F1030000 		.4byte	0x3f1
 1392 03b8 06       		.uleb128 0x6
 1393 03b9 CD040000 		.4byte	.LASF53
 1394 03bd 09       		.byte	0x9
 1395 03be 2B       		.byte	0x2b
 1396 03bf F1030000 		.4byte	0x3f1
 1397 03c3 02       		.byte	0x2
 1398 03c4 23       		.byte	0x23
 1399 03c5 00       		.uleb128 0x0
 1400 03c6 06       		.uleb128 0x6
 1401 03c7 940A0000 		.4byte	.LASF54
 1402 03cb 09       		.byte	0x9
 1403 03cc 2E       		.byte	0x2e
 1404 03cd 5E020000 		.4byte	0x25e
 1405 03d1 02       		.byte	0x2
 1406 03d2 23       		.byte	0x23
 1407 03d3 04       		.uleb128 0x4
 1408 03d4 06       		.uleb128 0x6
 1409 03d5 5E0A0000 		.4byte	.LASF55
 1410 03d9 09       		.byte	0x9
 1411 03da 30       		.byte	0x30
 1412 03db E8000000 		.4byte	0xe8
 1413 03df 02       		.byte	0x2
ARM GAS  C:\Users\DNIEL~1\AppData\Local\Temp\ccLOcjg8.s 			page 26


 1414 03e0 23       		.byte	0x23
 1415 03e1 08       		.uleb128 0x8
 1416 03e2 06       		.uleb128 0x6
 1417 03e3 D5000000 		.4byte	.LASF56
 1418 03e7 09       		.byte	0x9
 1419 03e8 33       		.byte	0x33
 1420 03e9 F3000000 		.4byte	0xf3
 1421 03ed 02       		.byte	0x2
 1422 03ee 23       		.byte	0x23
 1423 03ef 0C       		.uleb128 0xc
 1424 03f0 00       		.byte	0x0
 1425 03f1 09       		.uleb128 0x9
 1426 03f2 04       		.byte	0x4
 1427 03f3 A1030000 		.4byte	0x3a1
 1428 03f7 05       		.uleb128 0x5
 1429 03f8 71040000 		.4byte	.LASF57
 1430 03fc 04       		.byte	0x4
 1431 03fd 09       		.byte	0x9
 1432 03fe 3A       		.byte	0x3a
 1433 03ff 12040000 		.4byte	0x412
 1434 0403 06       		.uleb128 0x6
 1435 0404 35040000 		.4byte	.LASF58
 1436 0408 09       		.byte	0x9
 1437 0409 3B       		.byte	0x3b
 1438 040a F1030000 		.4byte	0x3f1
 1439 040e 02       		.byte	0x2
 1440 040f 23       		.byte	0x23
 1441 0410 00       		.uleb128 0x0
 1442 0411 00       		.byte	0x0
 1443 0412 03       		.uleb128 0x3
 1444 0413 71040000 		.4byte	.LASF57
 1445 0417 09       		.byte	0x9
 1446 0418 3E       		.byte	0x3e
 1447 0419 F7030000 		.4byte	0x3f7
 1448 041d 0E       		.uleb128 0xe
 1449 041e 04       		.byte	0x4
 1450 041f 06       		.byte	0x6
 1451 0420 8F       		.byte	0x8f
 1452 0421 52040000 		.4byte	0x452
 1453 0425 0F       		.uleb128 0xf
 1454 0426 BE090000 		.4byte	.LASF59
 1455 042a 06       		.byte	0x6
 1456 042b 96       		.byte	0x96
 1457 042c DD000000 		.4byte	0xdd
 1458 0430 0F       		.uleb128 0xf
 1459 0431 36010000 		.4byte	.LASF60
 1460 0435 06       		.byte	0x6
 1461 0436 9D       		.byte	0x9d
 1462 0437 DD000000 		.4byte	0xdd
 1463 043b 0F       		.uleb128 0xf
 1464 043c 65030000 		.4byte	.LASF61
 1465 0440 06       		.byte	0x6
 1466 0441 A4       		.byte	0xa4
 1467 0442 9C020000 		.4byte	0x29c
 1468 0446 0F       		.uleb128 0xf
 1469 0447 56010000 		.4byte	.LASF62
 1470 044b 06       		.byte	0x6
ARM GAS  C:\Users\DNIEL~1\AppData\Local\Temp\ccLOcjg8.s 			page 27


 1471 044c AB       		.byte	0xab
 1472 044d E8000000 		.4byte	0xe8
 1473 0451 00       		.byte	0x0
 1474 0452 09       		.uleb128 0x9
 1475 0453 04       		.byte	0x4
 1476 0454 58040000 		.4byte	0x458
 1477 0458 10       		.uleb128 0x10
 1478 0459 5D040000 		.4byte	0x45d
 1479 045d 04       		.uleb128 0x4
 1480 045e 01       		.byte	0x1
 1481 045f 08       		.byte	0x8
 1482 0460 44030000 		.4byte	.LASF63
 1483 0464 09       		.uleb128 0x9
 1484 0465 04       		.byte	0x4
 1485 0466 96030000 		.4byte	0x396
 1486 046a 09       		.uleb128 0x9
 1487 046b 04       		.byte	0x4
 1488 046c 70040000 		.4byte	0x470
 1489 0470 11       		.uleb128 0x11
 1490 0471 01       		.byte	0x1
 1491 0472 DD000000 		.4byte	0xdd
 1492 0476 80040000 		.4byte	0x480
 1493 047a 12       		.uleb128 0x12
 1494 047b 9C020000 		.4byte	0x29c
 1495 047f 00       		.byte	0x0
 1496 0480 03       		.uleb128 0x3
 1497 0481 58030000 		.4byte	.LASF64
 1498 0485 0A       		.byte	0xa
 1499 0486 30       		.byte	0x30
 1500 0487 8B040000 		.4byte	0x48b
 1501 048b 05       		.uleb128 0x5
 1502 048c 58030000 		.4byte	.LASF64
 1503 0490 24       		.byte	0x24
 1504 0491 0A       		.byte	0xa
 1505 0492 3E       		.byte	0x3e
 1506 0493 08050000 		.4byte	0x508
 1507 0497 06       		.uleb128 0x6
 1508 0498 58080000 		.4byte	.LASF65
 1509 049c 0A       		.byte	0xa
 1510 049d 3F       		.byte	0x3f
 1511 049e 64020000 		.4byte	0x264
 1512 04a2 02       		.byte	0x2
 1513 04a3 23       		.byte	0x23
 1514 04a4 00       		.uleb128 0x0
 1515 04a5 06       		.uleb128 0x6
 1516 04a6 3D040000 		.4byte	.LASF66
 1517 04aa 0A       		.byte	0xa
 1518 04ab 40       		.byte	0x40
 1519 04ac 30000000 		.4byte	0x30
 1520 04b0 02       		.byte	0x2
 1521 04b1 23       		.byte	0x23
 1522 04b2 08       		.uleb128 0x8
 1523 04b3 06       		.uleb128 0x6
 1524 04b4 8E010000 		.4byte	.LASF67
 1525 04b8 0A       		.byte	0xa
 1526 04b9 41       		.byte	0x41
 1527 04ba 2B050000 		.4byte	0x52b
ARM GAS  C:\Users\DNIEL~1\AppData\Local\Temp\ccLOcjg8.s 			page 28


 1528 04be 02       		.byte	0x2
 1529 04bf 23       		.byte	0x23
 1530 04c0 0C       		.uleb128 0xc
 1531 04c1 06       		.uleb128 0x6
 1532 04c2 50010000 		.4byte	.LASF68
 1533 04c6 0A       		.byte	0xa
 1534 04c7 42       		.byte	0x42
 1535 04c8 2B050000 		.4byte	0x52b
 1536 04cc 02       		.byte	0x2
 1537 04cd 23       		.byte	0x23
 1538 04ce 10       		.uleb128 0x10
 1539 04cf 06       		.uleb128 0x6
 1540 04d0 D5040000 		.4byte	.LASF69
 1541 04d4 0A       		.byte	0xa
 1542 04d5 44       		.byte	0x44
 1543 04d6 2B050000 		.4byte	0x52b
 1544 04da 02       		.byte	0x2
 1545 04db 23       		.byte	0x23
 1546 04dc 14       		.uleb128 0x14
 1547 04dd 06       		.uleb128 0x6
 1548 04de B8010000 		.4byte	.LASF70
 1549 04e2 0A       		.byte	0xa
 1550 04e3 45       		.byte	0x45
 1551 04e4 2B050000 		.4byte	0x52b
 1552 04e8 02       		.byte	0x2
 1553 04e9 23       		.byte	0x23
 1554 04ea 18       		.uleb128 0x18
 1555 04eb 06       		.uleb128 0x6
 1556 04ec 97010000 		.4byte	.LASF71
 1557 04f0 0A       		.byte	0xa
 1558 04f1 46       		.byte	0x46
 1559 04f2 08050000 		.4byte	0x508
 1560 04f6 02       		.byte	0x2
 1561 04f7 23       		.byte	0x23
 1562 04f8 1C       		.uleb128 0x1c
 1563 04f9 06       		.uleb128 0x6
 1564 04fa D6020000 		.4byte	.LASF72
 1565 04fe 0A       		.byte	0xa
 1566 04ff 47       		.byte	0x47
 1567 0500 9C020000 		.4byte	0x29c
 1568 0504 02       		.byte	0x2
 1569 0505 23       		.byte	0x23
 1570 0506 20       		.uleb128 0x20
 1571 0507 00       		.byte	0x0
 1572 0508 03       		.uleb128 0x3
 1573 0509 E9050000 		.4byte	.LASF73
 1574 050d 0A       		.byte	0xa
 1575 050e 33       		.byte	0x33
 1576 050f 13050000 		.4byte	0x513
 1577 0513 09       		.uleb128 0x9
 1578 0514 04       		.byte	0x4
 1579 0515 19050000 		.4byte	0x519
 1580 0519 13       		.uleb128 0x13
 1581 051a 01       		.byte	0x1
 1582 051b 25050000 		.4byte	0x525
 1583 051f 12       		.uleb128 0x12
 1584 0520 25050000 		.4byte	0x525
ARM GAS  C:\Users\DNIEL~1\AppData\Local\Temp\ccLOcjg8.s 			page 29


 1585 0524 00       		.byte	0x0
 1586 0525 09       		.uleb128 0x9
 1587 0526 04       		.byte	0x4
 1588 0527 80040000 		.4byte	0x480
 1589 052b 09       		.uleb128 0x9
 1590 052c 04       		.byte	0x4
 1591 052d 49000000 		.4byte	0x49
 1592 0531 03       		.uleb128 0x3
 1593 0532 060A0000 		.4byte	.LASF74
 1594 0536 0A       		.byte	0xa
 1595 0537 7B       		.byte	0x7b
 1596 0538 80040000 		.4byte	0x480
 1597 053c 03       		.uleb128 0x3
 1598 053d 8D030000 		.4byte	.LASF75
 1599 0541 0A       		.byte	0xa
 1600 0542 EE       		.byte	0xee
 1601 0543 80040000 		.4byte	0x480
 1602 0547 11       		.uleb128 0x11
 1603 0548 01       		.byte	0x1
 1604 0549 30000000 		.4byte	0x30
 1605 054d 61050000 		.4byte	0x561
 1606 0551 12       		.uleb128 0x12
 1607 0552 9C020000 		.4byte	0x29c
 1608 0556 12       		.uleb128 0x12
 1609 0557 61050000 		.4byte	0x561
 1610 055b 12       		.uleb128 0x12
 1611 055c 30000000 		.4byte	0x30
 1612 0560 00       		.byte	0x0
 1613 0561 09       		.uleb128 0x9
 1614 0562 04       		.byte	0x4
 1615 0563 67050000 		.4byte	0x567
 1616 0567 10       		.uleb128 0x10
 1617 0568 49000000 		.4byte	0x49
 1618 056c 09       		.uleb128 0x9
 1619 056d 04       		.byte	0x4
 1620 056e 47050000 		.4byte	0x547
 1621 0572 11       		.uleb128 0x11
 1622 0573 01       		.byte	0x1
 1623 0574 30000000 		.4byte	0x30
 1624 0578 8C050000 		.4byte	0x58c
 1625 057c 12       		.uleb128 0x12
 1626 057d 9C020000 		.4byte	0x29c
 1627 0581 12       		.uleb128 0x12
 1628 0582 2B050000 		.4byte	0x52b
 1629 0586 12       		.uleb128 0x12
 1630 0587 30000000 		.4byte	0x30
 1631 058b 00       		.byte	0x0
 1632 058c 09       		.uleb128 0x9
 1633 058d 04       		.byte	0x4
 1634 058e 72050000 		.4byte	0x572
 1635 0592 11       		.uleb128 0x11
 1636 0593 01       		.byte	0x1
 1637 0594 DD000000 		.4byte	0xdd
 1638 0598 A7050000 		.4byte	0x5a7
 1639 059c 12       		.uleb128 0x12
 1640 059d 9C020000 		.4byte	0x29c
 1641 05a1 12       		.uleb128 0x12
ARM GAS  C:\Users\DNIEL~1\AppData\Local\Temp\ccLOcjg8.s 			page 30


 1642 05a2 49000000 		.4byte	0x49
 1643 05a6 00       		.byte	0x0
 1644 05a7 09       		.uleb128 0x9
 1645 05a8 04       		.byte	0x4
 1646 05a9 92050000 		.4byte	0x592
 1647 05ad 14       		.uleb128 0x14
 1648 05ae 1C070000 		.4byte	.LASF230
 1649 05b2 01       		.byte	0x1
 1650 05b3 0B       		.byte	0xb
 1651 05b4 8C       		.byte	0x8c
 1652 05b5 E8070000 		.4byte	0x7e8
 1653 05b9 15       		.uleb128 0x15
 1654 05ba 53040000 		.4byte	.LASF76
 1655 05be 72       		.sleb128 -14
 1656 05bf 15       		.uleb128 0x15
 1657 05c0 99040000 		.4byte	.LASF77
 1658 05c4 74       		.sleb128 -12
 1659 05c5 15       		.uleb128 0x15
 1660 05c6 07050000 		.4byte	.LASF78
 1661 05ca 75       		.sleb128 -11
 1662 05cb 15       		.uleb128 0x15
 1663 05cc 34030000 		.4byte	.LASF79
 1664 05d0 76       		.sleb128 -10
 1665 05d1 15       		.uleb128 0x15
 1666 05d2 B6050000 		.4byte	.LASF80
 1667 05d6 7B       		.sleb128 -5
 1668 05d7 15       		.uleb128 0x15
 1669 05d8 AB080000 		.4byte	.LASF81
 1670 05dc 7C       		.sleb128 -4
 1671 05dd 15       		.uleb128 0x15
 1672 05de 1C0A0000 		.4byte	.LASF82
 1673 05e2 7E       		.sleb128 -2
 1674 05e3 15       		.uleb128 0x15
 1675 05e4 35020000 		.4byte	.LASF83
 1676 05e8 7F       		.sleb128 -1
 1677 05e9 15       		.uleb128 0x15
 1678 05ea 7D040000 		.4byte	.LASF84
 1679 05ee 00       		.sleb128 0
 1680 05ef 15       		.uleb128 0x15
 1681 05f0 42080000 		.4byte	.LASF85
 1682 05f4 01       		.sleb128 1
 1683 05f5 15       		.uleb128 0x15
 1684 05f6 AF040000 		.4byte	.LASF86
 1685 05fa 02       		.sleb128 2
 1686 05fb 15       		.uleb128 0x15
 1687 05fc 68090000 		.4byte	.LASF87
 1688 0600 03       		.sleb128 3
 1689 0601 15       		.uleb128 0x15
 1690 0602 C0000000 		.4byte	.LASF88
 1691 0606 04       		.sleb128 4
 1692 0607 15       		.uleb128 0x15
 1693 0608 03090000 		.4byte	.LASF89
 1694 060c 05       		.sleb128 5
 1695 060d 15       		.uleb128 0x15
 1696 060e 62080000 		.4byte	.LASF90
 1697 0612 06       		.sleb128 6
 1698 0613 15       		.uleb128 0x15
ARM GAS  C:\Users\DNIEL~1\AppData\Local\Temp\ccLOcjg8.s 			page 31


 1699 0614 F3030000 		.4byte	.LASF91
 1700 0618 07       		.sleb128 7
 1701 0619 15       		.uleb128 0x15
 1702 061a 16080000 		.4byte	.LASF92
 1703 061e 08       		.sleb128 8
 1704 061f 15       		.uleb128 0x15
 1705 0620 110A0000 		.4byte	.LASF93
 1706 0624 09       		.sleb128 9
 1707 0625 15       		.uleb128 0x15
 1708 0626 C5090000 		.4byte	.LASF94
 1709 062a 0A       		.sleb128 10
 1710 062b 15       		.uleb128 0x15
 1711 062c 59070000 		.4byte	.LASF95
 1712 0630 0B       		.sleb128 11
 1713 0631 15       		.uleb128 0x15
 1714 0632 D8060000 		.4byte	.LASF96
 1715 0636 0C       		.sleb128 12
 1716 0637 15       		.uleb128 0x15
 1717 0638 86020000 		.4byte	.LASF97
 1718 063c 0D       		.sleb128 13
 1719 063d 15       		.uleb128 0x15
 1720 063e 13090000 		.4byte	.LASF98
 1721 0642 0E       		.sleb128 14
 1722 0643 15       		.uleb128 0x15
 1723 0644 75080000 		.4byte	.LASF99
 1724 0648 0F       		.sleb128 15
 1725 0649 15       		.uleb128 0x15
 1726 064a 0B040000 		.4byte	.LASF100
 1727 064e 10       		.sleb128 16
 1728 064f 15       		.uleb128 0x15
 1729 0650 21070000 		.4byte	.LASF101
 1730 0654 11       		.sleb128 17
 1731 0655 15       		.uleb128 0x15
 1732 0656 2F080000 		.4byte	.LASF102
 1733 065a 12       		.sleb128 18
 1734 065b 15       		.uleb128 0x15
 1735 065c FE030000 		.4byte	.LASF103
 1736 0660 13       		.sleb128 19
 1737 0661 15       		.uleb128 0x15
 1738 0662 6C030000 		.4byte	.LASF104
 1739 0666 14       		.sleb128 20
 1740 0667 15       		.uleb128 0x15
 1741 0668 96090000 		.4byte	.LASF105
 1742 066c 15       		.sleb128 21
 1743 066d 15       		.uleb128 0x15
 1744 066e BF040000 		.4byte	.LASF106
 1745 0672 16       		.sleb128 22
 1746 0673 15       		.uleb128 0x15
 1747 0674 B1090000 		.4byte	.LASF107
 1748 0678 17       		.sleb128 23
 1749 0679 15       		.uleb128 0x15
 1750 067a 34050000 		.4byte	.LASF108
 1751 067e 18       		.sleb128 24
 1752 067f 15       		.uleb128 0x15
 1753 0680 2C090000 		.4byte	.LASF109
 1754 0684 19       		.sleb128 25
 1755 0685 15       		.uleb128 0x15
ARM GAS  C:\Users\DNIEL~1\AppData\Local\Temp\ccLOcjg8.s 			page 32


 1756 0686 FB010000 		.4byte	.LASF110
 1757 068a 1A       		.sleb128 26
 1758 068b 15       		.uleb128 0x15
 1759 068c D8030000 		.4byte	.LASF111
 1760 0690 1B       		.sleb128 27
 1761 0691 15       		.uleb128 0x15
 1762 0692 F0000000 		.4byte	.LASF112
 1763 0696 1C       		.sleb128 28
 1764 0697 15       		.uleb128 0x15
 1765 0698 F6070000 		.4byte	.LASF113
 1766 069c 1D       		.sleb128 29
 1767 069d 15       		.uleb128 0x15
 1768 069e 99030000 		.4byte	.LASF114
 1769 06a2 1E       		.sleb128 30
 1770 06a3 15       		.uleb128 0x15
 1771 06a4 B4030000 		.4byte	.LASF115
 1772 06a8 1F       		.sleb128 31
 1773 06a9 15       		.uleb128 0x15
 1774 06aa E7020000 		.4byte	.LASF116
 1775 06ae 20       		.sleb128 32
 1776 06af 15       		.uleb128 0x15
 1777 06b0 A5060000 		.4byte	.LASF117
 1778 06b4 21       		.sleb128 33
 1779 06b5 15       		.uleb128 0x15
 1780 06b6 FA040000 		.4byte	.LASF118
 1781 06ba 22       		.sleb128 34
 1782 06bb 15       		.uleb128 0x15
 1783 06bc AC050000 		.4byte	.LASF119
 1784 06c0 23       		.sleb128 35
 1785 06c1 15       		.uleb128 0x15
 1786 06c2 88050000 		.4byte	.LASF120
 1787 06c6 24       		.sleb128 36
 1788 06c7 15       		.uleb128 0x15
 1789 06c8 00080000 		.4byte	.LASF121
 1790 06cc 25       		.sleb128 37
 1791 06cd 15       		.uleb128 0x15
 1792 06ce A3030000 		.4byte	.LASF122
 1793 06d2 26       		.sleb128 38
 1794 06d3 15       		.uleb128 0x15
 1795 06d4 42020000 		.4byte	.LASF123
 1796 06d8 27       		.sleb128 39
 1797 06d9 15       		.uleb128 0x15
 1798 06da E7070000 		.4byte	.LASF124
 1799 06de 28       		.sleb128 40
 1800 06df 15       		.uleb128 0x15
 1801 06e0 7F070000 		.4byte	.LASF125
 1802 06e4 29       		.sleb128 41
 1803 06e5 15       		.uleb128 0x15
 1804 06e6 64060000 		.4byte	.LASF126
 1805 06ea 2A       		.sleb128 42
 1806 06eb 15       		.uleb128 0x15
 1807 06ec 5D010000 		.4byte	.LASF127
 1808 06f0 2B       		.sleb128 43
 1809 06f1 15       		.uleb128 0x15
 1810 06f2 07000000 		.4byte	.LASF128
 1811 06f6 2C       		.sleb128 44
 1812 06f7 15       		.uleb128 0x15
ARM GAS  C:\Users\DNIEL~1\AppData\Local\Temp\ccLOcjg8.s 			page 33


 1813 06f8 1D040000 		.4byte	.LASF129
 1814 06fc 2D       		.sleb128 45
 1815 06fd 15       		.uleb128 0x15
 1816 06fe EF090000 		.4byte	.LASF130
 1817 0702 2E       		.sleb128 46
 1818 0703 15       		.uleb128 0x15
 1819 0704 3B0A0000 		.4byte	.LASF131
 1820 0708 2F       		.sleb128 47
 1821 0709 15       		.uleb128 0x15
 1822 070a 67040000 		.4byte	.LASF132
 1823 070e 30       		.sleb128 48
 1824 070f 15       		.uleb128 0x15
 1825 0710 FC090000 		.4byte	.LASF133
 1826 0714 31       		.sleb128 49
 1827 0715 15       		.uleb128 0x15
 1828 0716 20030000 		.4byte	.LASF134
 1829 071a 32       		.sleb128 50
 1830 071b 15       		.uleb128 0x15
 1831 071c B6000000 		.4byte	.LASF135
 1832 0720 33       		.sleb128 51
 1833 0721 15       		.uleb128 0x15
 1834 0722 D4050000 		.4byte	.LASF136
 1835 0726 34       		.sleb128 52
 1836 0727 15       		.uleb128 0x15
 1837 0728 29050000 		.4byte	.LASF137
 1838 072c 35       		.sleb128 53
 1839 072d 15       		.uleb128 0x15
 1840 072e 8F060000 		.4byte	.LASF138
 1841 0732 36       		.sleb128 54
 1842 0733 15       		.uleb128 0x15
 1843 0734 62050000 		.4byte	.LASF139
 1844 0738 37       		.sleb128 55
 1845 0739 15       		.uleb128 0x15
 1846 073a 4C060000 		.4byte	.LASF140
 1847 073e 38       		.sleb128 56
 1848 073f 15       		.uleb128 0x15
 1849 0740 A4000000 		.4byte	.LASF141
 1850 0744 39       		.sleb128 57
 1851 0745 15       		.uleb128 0x15
 1852 0746 7C0A0000 		.4byte	.LASF142
 1853 074a 3A       		.sleb128 58
 1854 074b 15       		.uleb128 0x15
 1855 074c F6060000 		.4byte	.LASF143
 1856 0750 3B       		.sleb128 59
 1857 0751 15       		.uleb128 0x15
 1858 0752 BA020000 		.4byte	.LASF144
 1859 0756 3C       		.sleb128 60
 1860 0757 15       		.uleb128 0x15
 1861 0758 DC080000 		.4byte	.LASF145
 1862 075c 3D       		.sleb128 61
 1863 075d 15       		.uleb128 0x15
 1864 075e 7A050000 		.4byte	.LASF146
 1865 0762 3E       		.sleb128 62
 1866 0763 15       		.uleb128 0x15
 1867 0764 08070000 		.4byte	.LASF147
 1868 0768 3F       		.sleb128 63
 1869 0769 15       		.uleb128 0x15
ARM GAS  C:\Users\DNIEL~1\AppData\Local\Temp\ccLOcjg8.s 			page 34


 1870 076a 14010000 		.4byte	.LASF148
 1871 076e C000     		.sleb128 64
 1872 0770 15       		.uleb128 0x15
 1873 0771 21080000 		.4byte	.LASF149
 1874 0775 C100     		.sleb128 65
 1875 0777 15       		.uleb128 0x15
 1876 0778 F4020000 		.4byte	.LASF150
 1877 077c C200     		.sleb128 66
 1878 077e 15       		.uleb128 0x15
 1879 077f 47040000 		.4byte	.LASF151
 1880 0783 C300     		.sleb128 67
 1881 0785 15       		.uleb128 0x15
 1882 0786 D6010000 		.4byte	.LASF152
 1883 078a C400     		.sleb128 68
 1884 078c 15       		.uleb128 0x15
 1885 078d 91080000 		.4byte	.LASF153
 1886 0791 C500     		.sleb128 69
 1887 0793 15       		.uleb128 0x15
 1888 0794 47070000 		.4byte	.LASF154
 1889 0798 C600     		.sleb128 70
 1890 079a 15       		.uleb128 0x15
 1891 079b 22010000 		.4byte	.LASF155
 1892 079f C700     		.sleb128 71
 1893 07a1 15       		.uleb128 0x15
 1894 07a2 C6080000 		.4byte	.LASF156
 1895 07a6 C800     		.sleb128 72
 1896 07a8 15       		.uleb128 0x15
 1897 07a9 96070000 		.4byte	.LASF157
 1898 07ad C900     		.sleb128 73
 1899 07af 15       		.uleb128 0x15
 1900 07b0 54090000 		.4byte	.LASF158
 1901 07b4 CA00     		.sleb128 74
 1902 07b6 15       		.uleb128 0x15
 1903 07b7 280A0000 		.4byte	.LASF159
 1904 07bb CB00     		.sleb128 75
 1905 07bd 15       		.uleb128 0x15
 1906 07be 3F010000 		.4byte	.LASF160
 1907 07c2 CC00     		.sleb128 76
 1908 07c4 15       		.uleb128 0x15
 1909 07c5 92050000 		.4byte	.LASF161
 1910 07c9 CD00     		.sleb128 77
 1911 07cb 15       		.uleb128 0x15
 1912 07cc CB000000 		.4byte	.LASF162
 1913 07d0 CE00     		.sleb128 78
 1914 07d2 15       		.uleb128 0x15
 1915 07d3 A3070000 		.4byte	.LASF163
 1916 07d7 CF00     		.sleb128 79
 1917 07d9 15       		.uleb128 0x15
 1918 07da E5030000 		.4byte	.LASF164
 1919 07de D000     		.sleb128 80
 1920 07e0 15       		.uleb128 0x15
 1921 07e1 CB050000 		.4byte	.LASF165
 1922 07e5 D100     		.sleb128 81
 1923 07e7 00       		.byte	0x0
 1924 07e8 16       		.uleb128 0x16
 1925 07e9 86000000 		.4byte	0x86
 1926 07ed F8070000 		.4byte	0x7f8
ARM GAS  C:\Users\DNIEL~1\AppData\Local\Temp\ccLOcjg8.s 			page 35


 1927 07f1 17       		.uleb128 0x17
 1928 07f2 3B000000 		.4byte	0x3b
 1929 07f6 01       		.byte	0x1
 1930 07f7 00       		.byte	0x0
 1931 07f8 0D       		.uleb128 0xd
 1932 07f9 62000000 		.4byte	0x62
 1933 07fd 0D       		.uleb128 0xd
 1934 07fe 74000000 		.4byte	0x74
 1935 0802 18       		.uleb128 0x18
 1936 0803 88       		.byte	0x88
 1937 0804 0B       		.byte	0xb
 1938 0805 DB02     		.2byte	0x2db
 1939 0807 CF090000 		.4byte	0x9cf
 1940 080b 0C       		.uleb128 0xc
 1941 080c 435200   		.ascii	"CR\000"
 1942 080f 0B       		.byte	0xb
 1943 0810 DD02     		.2byte	0x2dd
 1944 0812 4F030000 		.4byte	0x34f
 1945 0816 02       		.byte	0x2
 1946 0817 23       		.byte	0x23
 1947 0818 00       		.uleb128 0x0
 1948 0819 19       		.uleb128 0x19
 1949 081a 21050000 		.4byte	.LASF166
 1950 081e 0B       		.byte	0xb
 1951 081f DE02     		.2byte	0x2de
 1952 0821 4F030000 		.4byte	0x34f
 1953 0825 02       		.byte	0x2
 1954 0826 23       		.byte	0x23
 1955 0827 04       		.uleb128 0x4
 1956 0828 19       		.uleb128 0x19
 1957 0829 D3030000 		.4byte	.LASF167
 1958 082d 0B       		.byte	0xb
 1959 082e DF02     		.2byte	0x2df
 1960 0830 4F030000 		.4byte	0x34f
 1961 0834 02       		.byte	0x2
 1962 0835 23       		.byte	0x23
 1963 0836 08       		.uleb128 0x8
 1964 0837 0C       		.uleb128 0xc
 1965 0838 43495200 		.ascii	"CIR\000"
 1966 083c 0B       		.byte	0xb
 1967 083d E002     		.2byte	0x2e0
 1968 083f 4F030000 		.4byte	0x34f
 1969 0843 02       		.byte	0x2
 1970 0844 23       		.byte	0x23
 1971 0845 0C       		.uleb128 0xc
 1972 0846 19       		.uleb128 0x19
 1973 0847 4D0A0000 		.4byte	.LASF168
 1974 084b 0B       		.byte	0xb
 1975 084c E102     		.2byte	0x2e1
 1976 084e 4F030000 		.4byte	0x34f
 1977 0852 02       		.byte	0x2
 1978 0853 23       		.byte	0x23
 1979 0854 10       		.uleb128 0x10
 1980 0855 19       		.uleb128 0x19
 1981 0856 D3080000 		.4byte	.LASF169
 1982 085a 0B       		.byte	0xb
 1983 085b E202     		.2byte	0x2e2
ARM GAS  C:\Users\DNIEL~1\AppData\Local\Temp\ccLOcjg8.s 			page 36


 1984 085d 4F030000 		.4byte	0x34f
 1985 0861 02       		.byte	0x2
 1986 0862 23       		.byte	0x23
 1987 0863 14       		.uleb128 0x14
 1988 0864 19       		.uleb128 0x19
 1989 0865 33070000 		.4byte	.LASF170
 1990 0869 0B       		.byte	0xb
 1991 086a E302     		.2byte	0x2e3
 1992 086c 4F030000 		.4byte	0x34f
 1993 0870 02       		.byte	0x2
 1994 0871 23       		.byte	0x23
 1995 0872 18       		.uleb128 0x18
 1996 0873 19       		.uleb128 0x19
 1997 0874 98020000 		.4byte	.LASF171
 1998 0878 0B       		.byte	0xb
 1999 0879 E402     		.2byte	0x2e4
 2000 087b 86000000 		.4byte	0x86
 2001 087f 02       		.byte	0x2
 2002 0880 23       		.byte	0x23
 2003 0881 1C       		.uleb128 0x1c
 2004 0882 19       		.uleb128 0x19
 2005 0883 6B070000 		.4byte	.LASF172
 2006 0887 0B       		.byte	0xb
 2007 0888 E502     		.2byte	0x2e5
 2008 088a 4F030000 		.4byte	0x34f
 2009 088e 02       		.byte	0x2
 2010 088f 23       		.byte	0x23
 2011 0890 20       		.uleb128 0x20
 2012 0891 19       		.uleb128 0x19
 2013 0892 C2050000 		.4byte	.LASF173
 2014 0896 0B       		.byte	0xb
 2015 0897 E602     		.2byte	0x2e6
 2016 0899 4F030000 		.4byte	0x34f
 2017 089d 02       		.byte	0x2
 2018 089e 23       		.byte	0x23
 2019 089f 24       		.uleb128 0x24
 2020 08a0 19       		.uleb128 0x19
 2021 08a1 A2020000 		.4byte	.LASF174
 2022 08a5 0B       		.byte	0xb
 2023 08a6 E702     		.2byte	0x2e7
 2024 08a8 E8070000 		.4byte	0x7e8
 2025 08ac 02       		.byte	0x2
 2026 08ad 23       		.byte	0x23
 2027 08ae 28       		.uleb128 0x28
 2028 08af 19       		.uleb128 0x19
 2029 08b0 A3080000 		.4byte	.LASF175
 2030 08b4 0B       		.byte	0xb
 2031 08b5 E802     		.2byte	0x2e8
 2032 08b7 4F030000 		.4byte	0x34f
 2033 08bb 02       		.byte	0x2
 2034 08bc 23       		.byte	0x23
 2035 08bd 30       		.uleb128 0x30
 2036 08be 19       		.uleb128 0x19
 2037 08bf 50030000 		.4byte	.LASF176
 2038 08c3 0B       		.byte	0xb
 2039 08c4 E902     		.2byte	0x2e9
 2040 08c6 4F030000 		.4byte	0x34f
ARM GAS  C:\Users\DNIEL~1\AppData\Local\Temp\ccLOcjg8.s 			page 37


 2041 08ca 02       		.byte	0x2
 2042 08cb 23       		.byte	0x23
 2043 08cc 34       		.uleb128 0x34
 2044 08cd 19       		.uleb128 0x19
 2045 08ce 740A0000 		.4byte	.LASF177
 2046 08d2 0B       		.byte	0xb
 2047 08d3 EA02     		.2byte	0x2ea
 2048 08d5 4F030000 		.4byte	0x34f
 2049 08d9 02       		.byte	0x2
 2050 08da 23       		.byte	0x23
 2051 08db 38       		.uleb128 0x38
 2052 08dc 19       		.uleb128 0x19
 2053 08dd 0C030000 		.4byte	.LASF178
 2054 08e1 0B       		.byte	0xb
 2055 08e2 EB02     		.2byte	0x2eb
 2056 08e4 86000000 		.4byte	0x86
 2057 08e8 02       		.byte	0x2
 2058 08e9 23       		.byte	0x23
 2059 08ea 3C       		.uleb128 0x3c
 2060 08eb 19       		.uleb128 0x19
 2061 08ec 8E070000 		.4byte	.LASF179
 2062 08f0 0B       		.byte	0xb
 2063 08f1 EC02     		.2byte	0x2ec
 2064 08f3 4F030000 		.4byte	0x34f
 2065 08f7 02       		.byte	0x2
 2066 08f8 23       		.byte	0x23
 2067 08f9 40       		.uleb128 0x40
 2068 08fa 19       		.uleb128 0x19
 2069 08fb 23020000 		.4byte	.LASF180
 2070 08ff 0B       		.byte	0xb
 2071 0900 ED02     		.2byte	0x2ed
 2072 0902 4F030000 		.4byte	0x34f
 2073 0906 02       		.byte	0x2
 2074 0907 23       		.byte	0x23
 2075 0908 44       		.uleb128 0x44
 2076 0909 19       		.uleb128 0x19
 2077 090a 16030000 		.4byte	.LASF181
 2078 090e 0B       		.byte	0xb
 2079 090f EE02     		.2byte	0x2ee
 2080 0911 E8070000 		.4byte	0x7e8
 2081 0915 02       		.byte	0x2
 2082 0916 23       		.byte	0x23
 2083 0917 48       		.uleb128 0x48
 2084 0918 19       		.uleb128 0x19
 2085 0919 2B020000 		.4byte	.LASF182
 2086 091d 0B       		.byte	0xb
 2087 091e EF02     		.2byte	0x2ef
 2088 0920 4F030000 		.4byte	0x34f
 2089 0924 02       		.byte	0x2
 2090 0925 23       		.byte	0x23
 2091 0926 50       		.uleb128 0x50
 2092 0927 19       		.uleb128 0x19
 2093 0928 71010000 		.4byte	.LASF183
 2094 092c 0B       		.byte	0xb
 2095 092d F002     		.2byte	0x2f0
 2096 092f 4F030000 		.4byte	0x34f
 2097 0933 02       		.byte	0x2
ARM GAS  C:\Users\DNIEL~1\AppData\Local\Temp\ccLOcjg8.s 			page 38


 2098 0934 23       		.byte	0x23
 2099 0935 54       		.uleb128 0x54
 2100 0936 19       		.uleb128 0x19
 2101 0937 38080000 		.4byte	.LASF184
 2102 093b 0B       		.byte	0xb
 2103 093c F102     		.2byte	0x2f1
 2104 093e 4F030000 		.4byte	0x34f
 2105 0942 02       		.byte	0x2
 2106 0943 23       		.byte	0x23
 2107 0944 58       		.uleb128 0x58
 2108 0945 19       		.uleb128 0x19
 2109 0946 CC020000 		.4byte	.LASF185
 2110 094a 0B       		.byte	0xb
 2111 094b F202     		.2byte	0x2f2
 2112 094d 86000000 		.4byte	0x86
 2113 0951 02       		.byte	0x2
 2114 0952 23       		.byte	0x23
 2115 0953 5C       		.uleb128 0x5c
 2116 0954 19       		.uleb128 0x19
 2117 0955 CE060000 		.4byte	.LASF186
 2118 0959 0B       		.byte	0xb
 2119 095a F302     		.2byte	0x2f3
 2120 095c 4F030000 		.4byte	0x34f
 2121 0960 02       		.byte	0x2
 2122 0961 23       		.byte	0x23
 2123 0962 60       		.uleb128 0x60
 2124 0963 19       		.uleb128 0x19
 2125 0964 DF050000 		.4byte	.LASF187
 2126 0968 0B       		.byte	0xb
 2127 0969 F402     		.2byte	0x2f4
 2128 096b 4F030000 		.4byte	0x34f
 2129 096f 02       		.byte	0x2
 2130 0970 23       		.byte	0x23
 2131 0971 64       		.uleb128 0x64
 2132 0972 19       		.uleb128 0x19
 2133 0973 2A030000 		.4byte	.LASF188
 2134 0977 0B       		.byte	0xb
 2135 0978 F502     		.2byte	0x2f5
 2136 097a E8070000 		.4byte	0x7e8
 2137 097e 02       		.byte	0x2
 2138 097f 23       		.byte	0x23
 2139 0980 68       		.uleb128 0x68
 2140 0981 19       		.uleb128 0x19
 2141 0982 AF030000 		.4byte	.LASF189
 2142 0986 0B       		.byte	0xb
 2143 0987 F602     		.2byte	0x2f6
 2144 0989 4F030000 		.4byte	0x34f
 2145 098d 02       		.byte	0x2
 2146 098e 23       		.byte	0x23
 2147 098f 70       		.uleb128 0x70
 2148 0990 0C       		.uleb128 0xc
 2149 0991 43535200 		.ascii	"CSR\000"
 2150 0995 0B       		.byte	0xb
 2151 0996 F702     		.2byte	0x2f7
 2152 0998 4F030000 		.4byte	0x34f
 2153 099c 02       		.byte	0x2
 2154 099d 23       		.byte	0x23
ARM GAS  C:\Users\DNIEL~1\AppData\Local\Temp\ccLOcjg8.s 			page 39


 2155 099e 74       		.uleb128 0x74
 2156 099f 19       		.uleb128 0x19
 2157 09a0 DD020000 		.4byte	.LASF190
 2158 09a4 0B       		.byte	0xb
 2159 09a5 F802     		.2byte	0x2f8
 2160 09a7 E8070000 		.4byte	0x7e8
 2161 09ab 02       		.byte	0x2
 2162 09ac 23       		.byte	0x23
 2163 09ad 78       		.uleb128 0x78
 2164 09ae 19       		.uleb128 0x19
 2165 09af A6050000 		.4byte	.LASF191
 2166 09b3 0B       		.byte	0xb
 2167 09b4 F902     		.2byte	0x2f9
 2168 09b6 4F030000 		.4byte	0x34f
 2169 09ba 03       		.byte	0x3
 2170 09bb 23       		.byte	0x23
 2171 09bc 8001     		.uleb128 0x80
 2172 09be 19       		.uleb128 0x19
 2173 09bf 24000000 		.4byte	.LASF192
 2174 09c3 0B       		.byte	0xb
 2175 09c4 FA02     		.2byte	0x2fa
 2176 09c6 4F030000 		.4byte	0x34f
 2177 09ca 03       		.byte	0x3
 2178 09cb 23       		.byte	0x23
 2179 09cc 8401     		.uleb128 0x84
 2180 09ce 00       		.byte	0x0
 2181 09cf 1A       		.uleb128 0x1a
 2182 09d0 ED080000 		.4byte	.LASF193
 2183 09d4 0B       		.byte	0xb
 2184 09d5 FB02     		.2byte	0x2fb
 2185 09d7 02080000 		.4byte	0x802
 2186 09db 18       		.uleb128 0x18
 2187 09dc 1C       		.byte	0x1c
 2188 09dd 0B       		.byte	0xb
 2189 09de 9303     		.2byte	0x393
 2190 09e0 B50A0000 		.4byte	0xab5
 2191 09e4 0C       		.uleb128 0xc
 2192 09e5 535200   		.ascii	"SR\000"
 2193 09e8 0B       		.byte	0xb
 2194 09e9 9503     		.2byte	0x395
 2195 09eb F8070000 		.4byte	0x7f8
 2196 09ef 02       		.byte	0x2
 2197 09f0 23       		.byte	0x23
 2198 09f1 00       		.uleb128 0x0
 2199 09f2 19       		.uleb128 0x19
 2200 09f3 98020000 		.4byte	.LASF171
 2201 09f7 0B       		.byte	0xb
 2202 09f8 9603     		.2byte	0x396
 2203 09fa 62000000 		.4byte	0x62
 2204 09fe 02       		.byte	0x2
 2205 09ff 23       		.byte	0x23
 2206 0a00 02       		.uleb128 0x2
 2207 0a01 0C       		.uleb128 0xc
 2208 0a02 445200   		.ascii	"DR\000"
 2209 0a05 0B       		.byte	0xb
 2210 0a06 9703     		.2byte	0x397
 2211 0a08 F8070000 		.4byte	0x7f8
ARM GAS  C:\Users\DNIEL~1\AppData\Local\Temp\ccLOcjg8.s 			page 40


 2212 0a0c 02       		.byte	0x2
 2213 0a0d 23       		.byte	0x23
 2214 0a0e 04       		.uleb128 0x4
 2215 0a0f 19       		.uleb128 0x19
 2216 0a10 A2020000 		.4byte	.LASF174
 2217 0a14 0B       		.byte	0xb
 2218 0a15 9803     		.2byte	0x398
 2219 0a17 62000000 		.4byte	0x62
 2220 0a1b 02       		.byte	0x2
 2221 0a1c 23       		.byte	0x23
 2222 0a1d 06       		.uleb128 0x6
 2223 0a1e 0C       		.uleb128 0xc
 2224 0a1f 42525200 		.ascii	"BRR\000"
 2225 0a23 0B       		.byte	0xb
 2226 0a24 9903     		.2byte	0x399
 2227 0a26 F8070000 		.4byte	0x7f8
 2228 0a2a 02       		.byte	0x2
 2229 0a2b 23       		.byte	0x23
 2230 0a2c 08       		.uleb128 0x8
 2231 0a2d 19       		.uleb128 0x19
 2232 0a2e 0C030000 		.4byte	.LASF178
 2233 0a32 0B       		.byte	0xb
 2234 0a33 9A03     		.2byte	0x39a
 2235 0a35 62000000 		.4byte	0x62
 2236 0a39 02       		.byte	0x2
 2237 0a3a 23       		.byte	0x23
 2238 0a3b 0A       		.uleb128 0xa
 2239 0a3c 0C       		.uleb128 0xc
 2240 0a3d 43523100 		.ascii	"CR1\000"
 2241 0a41 0B       		.byte	0xb
 2242 0a42 9B03     		.2byte	0x39b
 2243 0a44 F8070000 		.4byte	0x7f8
 2244 0a48 02       		.byte	0x2
 2245 0a49 23       		.byte	0x23
 2246 0a4a 0C       		.uleb128 0xc
 2247 0a4b 19       		.uleb128 0x19
 2248 0a4c 16030000 		.4byte	.LASF181
 2249 0a50 0B       		.byte	0xb
 2250 0a51 9C03     		.2byte	0x39c
 2251 0a53 62000000 		.4byte	0x62
 2252 0a57 02       		.byte	0x2
 2253 0a58 23       		.byte	0x23
 2254 0a59 0E       		.uleb128 0xe
 2255 0a5a 0C       		.uleb128 0xc
 2256 0a5b 43523200 		.ascii	"CR2\000"
 2257 0a5f 0B       		.byte	0xb
 2258 0a60 9D03     		.2byte	0x39d
 2259 0a62 F8070000 		.4byte	0x7f8
 2260 0a66 02       		.byte	0x2
 2261 0a67 23       		.byte	0x23
 2262 0a68 10       		.uleb128 0x10
 2263 0a69 19       		.uleb128 0x19
 2264 0a6a CC020000 		.4byte	.LASF185
 2265 0a6e 0B       		.byte	0xb
 2266 0a6f 9E03     		.2byte	0x39e
 2267 0a71 62000000 		.4byte	0x62
 2268 0a75 02       		.byte	0x2
ARM GAS  C:\Users\DNIEL~1\AppData\Local\Temp\ccLOcjg8.s 			page 41


 2269 0a76 23       		.byte	0x23
 2270 0a77 12       		.uleb128 0x12
 2271 0a78 0C       		.uleb128 0xc
 2272 0a79 43523300 		.ascii	"CR3\000"
 2273 0a7d 0B       		.byte	0xb
 2274 0a7e 9F03     		.2byte	0x39f
 2275 0a80 F8070000 		.4byte	0x7f8
 2276 0a84 02       		.byte	0x2
 2277 0a85 23       		.byte	0x23
 2278 0a86 14       		.uleb128 0x14
 2279 0a87 19       		.uleb128 0x19
 2280 0a88 2A030000 		.4byte	.LASF188
 2281 0a8c 0B       		.byte	0xb
 2282 0a8d A003     		.2byte	0x3a0
 2283 0a8f 62000000 		.4byte	0x62
 2284 0a93 02       		.byte	0x2
 2285 0a94 23       		.byte	0x23
 2286 0a95 16       		.uleb128 0x16
 2287 0a96 19       		.uleb128 0x19
 2288 0a97 64000000 		.4byte	.LASF194
 2289 0a9b 0B       		.byte	0xb
 2290 0a9c A103     		.2byte	0x3a1
 2291 0a9e F8070000 		.4byte	0x7f8
 2292 0aa2 02       		.byte	0x2
 2293 0aa3 23       		.byte	0x23
 2294 0aa4 18       		.uleb128 0x18
 2295 0aa5 19       		.uleb128 0x19
 2296 0aa6 DD020000 		.4byte	.LASF190
 2297 0aaa 0B       		.byte	0xb
 2298 0aab A203     		.2byte	0x3a2
 2299 0aad 62000000 		.4byte	0x62
 2300 0ab1 02       		.byte	0x2
 2301 0ab2 23       		.byte	0x23
 2302 0ab3 1A       		.uleb128 0x1a
 2303 0ab4 00       		.byte	0x0
 2304 0ab5 1A       		.uleb128 0x1a
 2305 0ab6 7F030000 		.4byte	.LASF195
 2306 0aba 0B       		.byte	0xb
 2307 0abb A303     		.2byte	0x3a3
 2308 0abd DB090000 		.4byte	0x9db
 2309 0ac1 11       		.uleb128 0x11
 2310 0ac2 01       		.byte	0x1
 2311 0ac3 DD000000 		.4byte	0xdd
 2312 0ac7 DB0A0000 		.4byte	0xadb
 2313 0acb 12       		.uleb128 0x12
 2314 0acc 9C020000 		.4byte	0x29c
 2315 0ad0 12       		.uleb128 0x12
 2316 0ad1 49000000 		.4byte	0x49
 2317 0ad5 12       		.uleb128 0x12
 2318 0ad6 FE000000 		.4byte	0xfe
 2319 0ada 00       		.byte	0x0
 2320 0adb 09       		.uleb128 0x9
 2321 0adc 04       		.byte	0x4
 2322 0add C10A0000 		.4byte	0xac1
 2323 0ae1 11       		.uleb128 0x11
 2324 0ae2 01       		.byte	0x1
 2325 0ae3 DD000000 		.4byte	0xdd
ARM GAS  C:\Users\DNIEL~1\AppData\Local\Temp\ccLOcjg8.s 			page 42


 2326 0ae7 F60A0000 		.4byte	0xaf6
 2327 0aeb 12       		.uleb128 0x12
 2328 0aec 9C020000 		.4byte	0x29c
 2329 0af0 12       		.uleb128 0x12
 2330 0af1 FE000000 		.4byte	0xfe
 2331 0af5 00       		.byte	0x0
 2332 0af6 09       		.uleb128 0x9
 2333 0af7 04       		.byte	0x4
 2334 0af8 E10A0000 		.4byte	0xae1
 2335 0afc 11       		.uleb128 0x11
 2336 0afd 01       		.byte	0x1
 2337 0afe 30000000 		.4byte	0x30
 2338 0b02 1B0B0000 		.4byte	0xb1b
 2339 0b06 12       		.uleb128 0x12
 2340 0b07 9C020000 		.4byte	0x29c
 2341 0b0b 12       		.uleb128 0x12
 2342 0b0c 61050000 		.4byte	0x561
 2343 0b10 12       		.uleb128 0x12
 2344 0b11 30000000 		.4byte	0x30
 2345 0b15 12       		.uleb128 0x12
 2346 0b16 FE000000 		.4byte	0xfe
 2347 0b1a 00       		.byte	0x0
 2348 0b1b 09       		.uleb128 0x9
 2349 0b1c 04       		.byte	0x4
 2350 0b1d FC0A0000 		.4byte	0xafc
 2351 0b21 11       		.uleb128 0x11
 2352 0b22 01       		.byte	0x1
 2353 0b23 30000000 		.4byte	0x30
 2354 0b27 400B0000 		.4byte	0xb40
 2355 0b2b 12       		.uleb128 0x12
 2356 0b2c 9C020000 		.4byte	0x29c
 2357 0b30 12       		.uleb128 0x12
 2358 0b31 2B050000 		.4byte	0x52b
 2359 0b35 12       		.uleb128 0x12
 2360 0b36 30000000 		.4byte	0x30
 2361 0b3a 12       		.uleb128 0x12
 2362 0b3b FE000000 		.4byte	0xfe
 2363 0b3f 00       		.byte	0x0
 2364 0b40 09       		.uleb128 0x9
 2365 0b41 04       		.byte	0x4
 2366 0b42 210B0000 		.4byte	0xb21
 2367 0b46 1B       		.uleb128 0x1b
 2368 0b47 01       		.byte	0x1
 2369 0b48 0C       		.byte	0xc
 2370 0b49 5D       		.byte	0x5d
 2371 0b4a 610B0000 		.4byte	0xb61
 2372 0b4e 15       		.uleb128 0x15
 2373 0b4f 02030000 		.4byte	.LASF196
 2374 0b53 00       		.sleb128 0
 2375 0b54 15       		.uleb128 0x15
 2376 0b55 560A0000 		.4byte	.LASF197
 2377 0b59 01       		.sleb128 1
 2378 0b5a 15       		.uleb128 0x15
 2379 0b5b BD080000 		.4byte	.LASF198
 2380 0b5f 02       		.sleb128 2
 2381 0b60 00       		.byte	0x0
 2382 0b61 03       		.uleb128 0x3
ARM GAS  C:\Users\DNIEL~1\AppData\Local\Temp\ccLOcjg8.s 			page 43


 2383 0b62 87080000 		.4byte	.LASF199
 2384 0b66 0C       		.byte	0xc
 2385 0b67 61       		.byte	0x61
 2386 0b68 460B0000 		.4byte	0xb46
 2387 0b6c 03       		.uleb128 0x3
 2388 0b6d 4B080000 		.4byte	.LASF200
 2389 0b71 0C       		.byte	0xc
 2390 0b72 66       		.byte	0x66
 2391 0b73 770B0000 		.4byte	0xb77
 2392 0b77 05       		.uleb128 0x5
 2393 0b78 4B080000 		.4byte	.LASF200
 2394 0b7c 78       		.byte	0x78
 2395 0b7d 0C       		.byte	0xc
 2396 0b7e 80       		.byte	0x80
 2397 0b7f F20B0000 		.4byte	0xbf2
 2398 0b83 07       		.uleb128 0x7
 2399 0b84 766D7400 		.ascii	"vmt\000"
 2400 0b88 0C       		.byte	0xc
 2401 0b89 82       		.byte	0x82
 2402 0b8a BB0C0000 		.4byte	0xcbb
 2403 0b8e 02       		.byte	0x2
 2404 0b8f 23       		.byte	0x23
 2405 0b90 00       		.uleb128 0x0
 2406 0b91 06       		.uleb128 0x6
 2407 0b92 5E060000 		.4byte	.LASF201
 2408 0b96 0C       		.byte	0xc
 2409 0b97 83       		.byte	0x83
 2410 0b98 12040000 		.4byte	0x412
 2411 0b9c 02       		.byte	0x2
 2412 0b9d 23       		.byte	0x23
 2413 0b9e 04       		.uleb128 0x4
 2414 0b9f 06       		.uleb128 0x6
 2415 0ba0 E5000000 		.4byte	.LASF202
 2416 0ba4 0C       		.byte	0xc
 2417 0ba5 83       		.byte	0x83
 2418 0ba6 610B0000 		.4byte	0xb61
 2419 0baa 02       		.byte	0x2
 2420 0bab 23       		.byte	0x23
 2421 0bac 08       		.uleb128 0x8
 2422 0bad 06       		.uleb128 0x6
 2423 0bae 0C090000 		.4byte	.LASF203
 2424 0bb2 0C       		.byte	0xc
 2425 0bb3 83       		.byte	0x83
 2426 0bb4 31050000 		.4byte	0x531
 2427 0bb8 02       		.byte	0x2
 2428 0bb9 23       		.byte	0x23
 2429 0bba 0C       		.uleb128 0xc
 2430 0bbb 06       		.uleb128 0x6
 2431 0bbc 13020000 		.4byte	.LASF204
 2432 0bc0 0C       		.byte	0xc
 2433 0bc1 83       		.byte	0x83
 2434 0bc2 3C050000 		.4byte	0x53c
 2435 0bc6 02       		.byte	0x2
 2436 0bc7 23       		.byte	0x23
 2437 0bc8 30       		.uleb128 0x30
 2438 0bc9 07       		.uleb128 0x7
 2439 0bca 696200   		.ascii	"ib\000"
ARM GAS  C:\Users\DNIEL~1\AppData\Local\Temp\ccLOcjg8.s 			page 44


 2440 0bcd 0C       		.byte	0xc
 2441 0bce 83       		.byte	0x83
 2442 0bcf C60C0000 		.4byte	0xcc6
 2443 0bd3 02       		.byte	0x2
 2444 0bd4 23       		.byte	0x23
 2445 0bd5 54       		.uleb128 0x54
 2446 0bd6 07       		.uleb128 0x7
 2447 0bd7 6F6200   		.ascii	"ob\000"
 2448 0bda 0C       		.byte	0xc
 2449 0bdb 83       		.byte	0x83
 2450 0bdc C60C0000 		.4byte	0xcc6
 2451 0be0 02       		.byte	0x2
 2452 0be1 23       		.byte	0x23
 2453 0be2 64       		.uleb128 0x64
 2454 0be3 06       		.uleb128 0x6
 2455 0be4 4E020000 		.4byte	.LASF205
 2456 0be8 0C       		.byte	0xc
 2457 0be9 83       		.byte	0x83
 2458 0bea D60C0000 		.4byte	0xcd6
 2459 0bee 02       		.byte	0x2
 2460 0bef 23       		.byte	0x23
 2461 0bf0 74       		.uleb128 0x74
 2462 0bf1 00       		.byte	0x0
 2463 0bf2 08       		.uleb128 0x8
 2464 0bf3 0C       		.byte	0xc
 2465 0bf4 0D       		.byte	0xd
 2466 0bf5 DB       		.byte	0xdb
 2467 0bf6 330C0000 		.4byte	0xc33
 2468 0bfa 06       		.uleb128 0x6
 2469 0bfb B9060000 		.4byte	.LASF206
 2470 0bff 0D       		.byte	0xd
 2471 0c00 DF       		.byte	0xdf
 2472 0c01 86000000 		.4byte	0x86
 2473 0c05 02       		.byte	0x2
 2474 0c06 23       		.byte	0x23
 2475 0c07 00       		.uleb128 0x0
 2476 0c08 06       		.uleb128 0x6
 2477 0c09 47050000 		.4byte	.LASF207
 2478 0c0d 0D       		.byte	0xd
 2479 0c0e E3       		.byte	0xe3
 2480 0c0f 62000000 		.4byte	0x62
 2481 0c13 02       		.byte	0x2
 2482 0c14 23       		.byte	0x23
 2483 0c15 04       		.uleb128 0x4
 2484 0c16 06       		.uleb128 0x6
 2485 0c17 4E050000 		.4byte	.LASF208
 2486 0c1b 0D       		.byte	0xd
 2487 0c1c E7       		.byte	0xe7
 2488 0c1d 62000000 		.4byte	0x62
 2489 0c21 02       		.byte	0x2
 2490 0c22 23       		.byte	0x23
 2491 0c23 06       		.uleb128 0x6
 2492 0c24 06       		.uleb128 0x6
 2493 0c25 55050000 		.4byte	.LASF209
 2494 0c29 0D       		.byte	0xd
 2495 0c2a EB       		.byte	0xeb
 2496 0c2b 62000000 		.4byte	0x62
ARM GAS  C:\Users\DNIEL~1\AppData\Local\Temp\ccLOcjg8.s 			page 45


 2497 0c2f 02       		.byte	0x2
 2498 0c30 23       		.byte	0x23
 2499 0c31 08       		.uleb128 0x8
 2500 0c32 00       		.byte	0x0
 2501 0c33 03       		.uleb128 0x3
 2502 0c34 50000000 		.4byte	.LASF210
 2503 0c38 0D       		.byte	0xd
 2504 0c39 EC       		.byte	0xec
 2505 0c3a F20B0000 		.4byte	0xbf2
 2506 0c3e 05       		.uleb128 0x5
 2507 0c3f DD040000 		.4byte	.LASF211
 2508 0c43 20       		.byte	0x20
 2509 0c44 0C       		.byte	0xc
 2510 0c45 75       		.byte	0x75
 2511 0c46 BB0C0000 		.4byte	0xcbb
 2512 0c4a 06       		.uleb128 0x6
 2513 0c4b 9E000000 		.4byte	.LASF212
 2514 0c4f 0C       		.byte	0xc
 2515 0c50 76       		.byte	0x76
 2516 0c51 6C050000 		.4byte	0x56c
 2517 0c55 02       		.byte	0x2
 2518 0c56 23       		.byte	0x23
 2519 0c57 00       		.uleb128 0x0
 2520 0c58 06       		.uleb128 0x6
 2521 0c59 7D060000 		.4byte	.LASF213
 2522 0c5d 0C       		.byte	0xc
 2523 0c5e 76       		.byte	0x76
 2524 0c5f 8C050000 		.4byte	0x58c
 2525 0c63 02       		.byte	0x2
 2526 0c64 23       		.byte	0x23
 2527 0c65 04       		.uleb128 0x4
 2528 0c66 07       		.uleb128 0x7
 2529 0c67 70757400 		.ascii	"put\000"
 2530 0c6b 0C       		.byte	0xc
 2531 0c6c 76       		.byte	0x76
 2532 0c6d A7050000 		.4byte	0x5a7
 2533 0c71 02       		.byte	0x2
 2534 0c72 23       		.byte	0x23
 2535 0c73 08       		.uleb128 0x8
 2536 0c74 07       		.uleb128 0x7
 2537 0c75 67657400 		.ascii	"get\000"
 2538 0c79 0C       		.byte	0xc
 2539 0c7a 76       		.byte	0x76
 2540 0c7b 6A040000 		.4byte	0x46a
 2541 0c7f 02       		.byte	0x2
 2542 0c80 23       		.byte	0x23
 2543 0c81 0C       		.uleb128 0xc
 2544 0c82 06       		.uleb128 0x6
 2545 0c83 EB000000 		.4byte	.LASF214
 2546 0c87 0C       		.byte	0xc
 2547 0c88 76       		.byte	0x76
 2548 0c89 DB0A0000 		.4byte	0xadb
 2549 0c8d 02       		.byte	0x2
 2550 0c8e 23       		.byte	0x23
 2551 0c8f 10       		.uleb128 0x10
 2552 0c90 06       		.uleb128 0x6
 2553 0c91 7A030000 		.4byte	.LASF215
ARM GAS  C:\Users\DNIEL~1\AppData\Local\Temp\ccLOcjg8.s 			page 46


 2554 0c95 0C       		.byte	0xc
 2555 0c96 76       		.byte	0x76
 2556 0c97 F60A0000 		.4byte	0xaf6
 2557 0c9b 02       		.byte	0x2
 2558 0c9c 23       		.byte	0x23
 2559 0c9d 14       		.uleb128 0x14
 2560 0c9e 06       		.uleb128 0x6
 2561 0c9f 5D000000 		.4byte	.LASF216
 2562 0ca3 0C       		.byte	0xc
 2563 0ca4 76       		.byte	0x76
 2564 0ca5 1B0B0000 		.4byte	0xb1b
 2565 0ca9 02       		.byte	0x2
 2566 0caa 23       		.byte	0x23
 2567 0cab 18       		.uleb128 0x18
 2568 0cac 06       		.uleb128 0x6
 2569 0cad 7B010000 		.4byte	.LASF217
 2570 0cb1 0C       		.byte	0xc
 2571 0cb2 76       		.byte	0x76
 2572 0cb3 400B0000 		.4byte	0xb40
 2573 0cb7 02       		.byte	0x2
 2574 0cb8 23       		.byte	0x23
 2575 0cb9 1C       		.uleb128 0x1c
 2576 0cba 00       		.byte	0x0
 2577 0cbb 09       		.uleb128 0x9
 2578 0cbc 04       		.byte	0x4
 2579 0cbd C10C0000 		.4byte	0xcc1
 2580 0cc1 10       		.uleb128 0x10
 2581 0cc2 3E0C0000 		.4byte	0xc3e
 2582 0cc6 16       		.uleb128 0x16
 2583 0cc7 49000000 		.4byte	0x49
 2584 0ccb D60C0000 		.4byte	0xcd6
 2585 0ccf 17       		.uleb128 0x17
 2586 0cd0 3B000000 		.4byte	0x3b
 2587 0cd4 0F       		.byte	0xf
 2588 0cd5 00       		.byte	0x0
 2589 0cd6 09       		.uleb128 0x9
 2590 0cd7 04       		.byte	0x4
 2591 0cd8 B50A0000 		.4byte	0xab5
 2592 0cdc 1C       		.uleb128 0x1c
 2593 0cdd 74070000 		.4byte	.LASF219
 2594 0ce1 01       		.byte	0x1
 2595 0ce2 D3       		.byte	0xd3
 2596 0ce3 01       		.byte	0x1
 2597 0ce4 01       		.byte	0x1
 2598 0ce5 090D0000 		.4byte	0xd09
 2599 0ce9 1D       		.uleb128 0x1d
 2600 0cea 73647000 		.ascii	"sdp\000"
 2601 0cee 01       		.byte	0x1
 2602 0cef D3       		.byte	0xd3
 2603 0cf0 090D0000 		.4byte	0xd09
 2604 0cf4 1E       		.uleb128 0x1e
 2605 0cf5 DE000000 		.4byte	.LASF218
 2606 0cf9 01       		.byte	0x1
 2607 0cfa D3       		.byte	0xd3
 2608 0cfb 0F0D0000 		.4byte	0xd0f
 2609 0cff 1F       		.uleb128 0x1f
 2610 0d00 7500     		.ascii	"u\000"
ARM GAS  C:\Users\DNIEL~1\AppData\Local\Temp\ccLOcjg8.s 			page 47


 2611 0d02 01       		.byte	0x1
 2612 0d03 D4       		.byte	0xd4
 2613 0d04 D60C0000 		.4byte	0xcd6
 2614 0d08 00       		.byte	0x0
 2615 0d09 09       		.uleb128 0x9
 2616 0d0a 04       		.byte	0x4
 2617 0d0b 6C0B0000 		.4byte	0xb6c
 2618 0d0f 09       		.uleb128 0x9
 2619 0d10 04       		.byte	0x4
 2620 0d11 150D0000 		.4byte	0xd15
 2621 0d15 10       		.uleb128 0x10
 2622 0d16 330C0000 		.4byte	0xc33
 2623 0d1a 1C       		.uleb128 0x1c
 2624 0d1b 0A010000 		.4byte	.LASF220
 2625 0d1f 01       		.byte	0x1
 2626 0d20 FE       		.byte	0xfe
 2627 0d21 01       		.byte	0x1
 2628 0d22 01       		.byte	0x1
 2629 0d23 680D0000 		.4byte	0xd68
 2630 0d27 1D       		.uleb128 0x1d
 2631 0d28 73647000 		.ascii	"sdp\000"
 2632 0d2c 01       		.byte	0x1
 2633 0d2d FE       		.byte	0xfe
 2634 0d2e 090D0000 		.4byte	0xd09
 2635 0d32 1D       		.uleb128 0x1d
 2636 0d33 737200   		.ascii	"sr\000"
 2637 0d36 01       		.byte	0x1
 2638 0d37 FE       		.byte	0xfe
 2639 0d38 62000000 		.4byte	0x62
 2640 0d3c 1F       		.uleb128 0x1f
 2641 0d3d 73747300 		.ascii	"sts\000"
 2642 0d41 01       		.byte	0x1
 2643 0d42 FF       		.byte	0xff
 2644 0d43 F3000000 		.4byte	0xf3
 2645 0d47 20       		.uleb128 0x20
 2646 0d48 590D0000 		.4byte	0xd59
 2647 0d4c 21       		.uleb128 0x21
 2648 0d4d 746D7000 		.ascii	"tmp\000"
 2649 0d51 01       		.byte	0x1
 2650 0d52 0901     		.2byte	0x109
 2651 0d54 86000000 		.4byte	0x86
 2652 0d58 00       		.byte	0x0
 2653 0d59 22       		.uleb128 0x22
 2654 0d5a 21       		.uleb128 0x21
 2655 0d5b 746D7000 		.ascii	"tmp\000"
 2656 0d5f 01       		.byte	0x1
 2657 0d60 0B01     		.2byte	0x10b
 2658 0d62 86000000 		.4byte	0x86
 2659 0d66 00       		.byte	0x0
 2660 0d67 00       		.byte	0x0
 2661 0d68 1C       		.uleb128 0x1c
 2662 0d69 ED040000 		.4byte	.LASF221
 2663 0d6d 01       		.byte	0x1
 2664 0d6e F1       		.byte	0xf1
 2665 0d6f 01       		.byte	0x1
 2666 0d70 01       		.byte	0x1
 2667 0d71 7F0D0000 		.4byte	0xd7f
ARM GAS  C:\Users\DNIEL~1\AppData\Local\Temp\ccLOcjg8.s 			page 48


 2668 0d75 1D       		.uleb128 0x1d
 2669 0d76 7500     		.ascii	"u\000"
 2670 0d78 01       		.byte	0x1
 2671 0d79 F1       		.byte	0xf1
 2672 0d7a D60C0000 		.4byte	0xcd6
 2673 0d7e 00       		.byte	0x0
 2674 0d7f 23       		.uleb128 0x23
 2675 0d80 FA000000 		.4byte	.LASF222
 2676 0d84 01       		.byte	0x1
 2677 0d85 1301     		.2byte	0x113
 2678 0d87 01       		.byte	0x1
 2679 0d88 01       		.byte	0x1
 2680 0d89 5E0E0000 		.4byte	0xe5e
 2681 0d8d 24       		.uleb128 0x24
 2682 0d8e 73647000 		.ascii	"sdp\000"
 2683 0d92 01       		.byte	0x1
 2684 0d93 1301     		.2byte	0x113
 2685 0d95 090D0000 		.4byte	0xd09
 2686 0d99 21       		.uleb128 0x21
 2687 0d9a 7500     		.ascii	"u\000"
 2688 0d9c 01       		.byte	0x1
 2689 0d9d 1401     		.2byte	0x114
 2690 0d9f D60C0000 		.4byte	0xcd6
 2691 0da3 21       		.uleb128 0x21
 2692 0da4 63723100 		.ascii	"cr1\000"
 2693 0da8 01       		.byte	0x1
 2694 0da9 1501     		.2byte	0x115
 2695 0dab 62000000 		.4byte	0x62
 2696 0daf 21       		.uleb128 0x21
 2697 0db0 737200   		.ascii	"sr\000"
 2698 0db3 01       		.byte	0x1
 2699 0db4 1601     		.2byte	0x116
 2700 0db6 62000000 		.4byte	0x62
 2701 0dba 21       		.uleb128 0x21
 2702 0dbb 647200   		.ascii	"dr\000"
 2703 0dbe 01       		.byte	0x1
 2704 0dbf 1701     		.2byte	0x117
 2705 0dc1 62000000 		.4byte	0x62
 2706 0dc5 20       		.uleb128 0x20
 2707 0dc6 D70D0000 		.4byte	0xdd7
 2708 0dca 21       		.uleb128 0x21
 2709 0dcb 746D7000 		.ascii	"tmp\000"
 2710 0dcf 01       		.byte	0x1
 2711 0dd0 1E01     		.2byte	0x11e
 2712 0dd2 86000000 		.4byte	0x86
 2713 0dd6 00       		.byte	0x0
 2714 0dd7 20       		.uleb128 0x20
 2715 0dd8 E90D0000 		.4byte	0xde9
 2716 0ddc 21       		.uleb128 0x21
 2717 0ddd 746D7000 		.ascii	"tmp\000"
 2718 0de1 01       		.byte	0x1
 2719 0de2 2001     		.2byte	0x120
 2720 0de4 86000000 		.4byte	0x86
 2721 0de8 00       		.byte	0x0
 2722 0de9 20       		.uleb128 0x20
 2723 0dea FB0D0000 		.4byte	0xdfb
 2724 0dee 21       		.uleb128 0x21
ARM GAS  C:\Users\DNIEL~1\AppData\Local\Temp\ccLOcjg8.s 			page 49


 2725 0def 746D7000 		.ascii	"tmp\000"
 2726 0df3 01       		.byte	0x1
 2727 0df4 2501     		.2byte	0x125
 2728 0df6 86000000 		.4byte	0x86
 2729 0dfa 00       		.byte	0x0
 2730 0dfb 20       		.uleb128 0x20
 2731 0dfc 0D0E0000 		.4byte	0xe0d
 2732 0e00 21       		.uleb128 0x21
 2733 0e01 746D7000 		.ascii	"tmp\000"
 2734 0e05 01       		.byte	0x1
 2735 0e06 2701     		.2byte	0x127
 2736 0e08 86000000 		.4byte	0x86
 2737 0e0c 00       		.byte	0x0
 2738 0e0d 20       		.uleb128 0x20
 2739 0e0e 3D0E0000 		.4byte	0xe3d
 2740 0e12 21       		.uleb128 0x21
 2741 0e13 6200     		.ascii	"b\000"
 2742 0e15 01       		.byte	0x1
 2743 0e16 2B01     		.2byte	0x12b
 2744 0e18 DD000000 		.4byte	0xdd
 2745 0e1c 20       		.uleb128 0x20
 2746 0e1d 2E0E0000 		.4byte	0xe2e
 2747 0e21 21       		.uleb128 0x21
 2748 0e22 746D7000 		.ascii	"tmp\000"
 2749 0e26 01       		.byte	0x1
 2750 0e27 2C01     		.2byte	0x12c
 2751 0e29 86000000 		.4byte	0x86
 2752 0e2d 00       		.byte	0x0
 2753 0e2e 22       		.uleb128 0x22
 2754 0e2f 21       		.uleb128 0x21
 2755 0e30 746D7000 		.ascii	"tmp\000"
 2756 0e34 01       		.byte	0x1
 2757 0e35 3401     		.2byte	0x134
 2758 0e37 86000000 		.4byte	0x86
 2759 0e3b 00       		.byte	0x0
 2760 0e3c 00       		.byte	0x0
 2761 0e3d 20       		.uleb128 0x20
 2762 0e3e 4F0E0000 		.4byte	0xe4f
 2763 0e42 21       		.uleb128 0x21
 2764 0e43 746D7000 		.ascii	"tmp\000"
 2765 0e47 01       		.byte	0x1
 2766 0e48 3801     		.2byte	0x138
 2767 0e4a 86000000 		.4byte	0x86
 2768 0e4e 00       		.byte	0x0
 2769 0e4f 22       		.uleb128 0x22
 2770 0e50 21       		.uleb128 0x21
 2771 0e51 746D7000 		.ascii	"tmp\000"
 2772 0e55 01       		.byte	0x1
 2773 0e56 3A01     		.2byte	0x13a
 2774 0e58 86000000 		.4byte	0x86
 2775 0e5c 00       		.byte	0x0
 2776 0e5d 00       		.byte	0x0
 2777 0e5e 25       		.uleb128 0x25
 2778 0e5f E5080000 		.4byte	.LASF231
 2779 0e63 01       		.byte	0x1
 2780 0e64 4301     		.2byte	0x143
 2781 0e66 01       		.byte	0x1
ARM GAS  C:\Users\DNIEL~1\AppData\Local\Temp\ccLOcjg8.s 			page 50


 2782 0e67 00000000 		.4byte	.LFB122
 2783 0e6b 14000000 		.4byte	.LFE122
 2784 0e6f 02       		.byte	0x2
 2785 0e70 7D       		.byte	0x7d
 2786 0e71 00       		.sleb128 0
 2787 0e72 860E0000 		.4byte	0xe86
 2788 0e76 26       		.uleb128 0x26
 2789 0e77 717000   		.ascii	"qp\000"
 2790 0e7a 01       		.byte	0x1
 2791 0e7b 4301     		.2byte	0x143
 2792 0e7d 25050000 		.4byte	0x525
 2793 0e81 00000000 		.4byte	.LLST0
 2794 0e85 00       		.byte	0x0
 2795 0e86 27       		.uleb128 0x27
 2796 0e87 01       		.byte	0x1
 2797 0e88 8D090000 		.4byte	.LASF223
 2798 0e8c 01       		.byte	0x1
 2799 0e8d 7F01     		.2byte	0x17f
 2800 0e8f 01       		.byte	0x1
 2801 0e90 00000000 		.4byte	.LFB123
 2802 0e94 18010000 		.4byte	.LFE123
 2803 0e98 13000000 		.4byte	.LLST1
 2804 0e9c 0D100000 		.4byte	0x100d
 2805 0ea0 28       		.uleb128 0x28
 2806 0ea1 7F0D0000 		.4byte	0xd7f
 2807 0ea5 00000000 		.4byte	.LBB60
 2808 0ea9 00000000 		.4byte	.Ldebug_ranges0+0x0
 2809 0ead 01       		.byte	0x1
 2810 0eae 8301     		.2byte	0x183
 2811 0eb0 29       		.uleb128 0x29
 2812 0eb1 20000000 		.4byte	.Ldebug_ranges0+0x20
 2813 0eb5 2A       		.uleb128 0x2a
 2814 0eb6 990D0000 		.4byte	0xd99
 2815 0eba 33000000 		.4byte	.LLST2
 2816 0ebe 2B       		.uleb128 0x2b
 2817 0ebf A30D0000 		.4byte	0xda3
 2818 0ec3 01       		.byte	0x1
 2819 0ec4 56       		.byte	0x56
 2820 0ec5 2B       		.uleb128 0x2b
 2821 0ec6 AF0D0000 		.4byte	0xdaf
 2822 0eca 01       		.byte	0x1
 2823 0ecb 54       		.byte	0x54
 2824 0ecc 2B       		.uleb128 0x2b
 2825 0ecd BA0D0000 		.4byte	0xdba
 2826 0ed1 01       		.byte	0x1
 2827 0ed2 57       		.byte	0x57
 2828 0ed3 2C       		.uleb128 0x2c
 2829 0ed4 8D0D0000 		.4byte	0xd8d
 2830 0ed8 06       		.byte	0x6
 2831 0ed9 03       		.byte	0x3
 2832 0eda 00000000 		.4byte	SD1
 2833 0ede 9F       		.byte	0x9f
 2834 0edf 2D       		.uleb128 0x2d
 2835 0ee0 7C000000 		.4byte	.LBB63
 2836 0ee4 82000000 		.4byte	.LBE63
 2837 0ee8 F60E0000 		.4byte	0xef6
 2838 0eec 2A       		.uleb128 0x2a
ARM GAS  C:\Users\DNIEL~1\AppData\Local\Temp\ccLOcjg8.s 			page 51


 2839 0eed 500E0000 		.4byte	0xe50
 2840 0ef1 55000000 		.4byte	.LLST3
 2841 0ef5 00       		.byte	0x0
 2842 0ef6 2D       		.uleb128 0x2d
 2843 0ef7 6E000000 		.4byte	.LBB64
 2844 0efb 74000000 		.4byte	.LBE64
 2845 0eff 0D0F0000 		.4byte	0xf0d
 2846 0f03 2A       		.uleb128 0x2a
 2847 0f04 420E0000 		.4byte	0xe42
 2848 0f08 68000000 		.4byte	.LLST4
 2849 0f0c 00       		.byte	0x0
 2850 0f0d 2E       		.uleb128 0x2e
 2851 0f0e 1A0D0000 		.4byte	0xd1a
 2852 0f12 18000000 		.4byte	.LBB65
 2853 0f16 50000000 		.4byte	.LBE65
 2854 0f1a 01       		.byte	0x1
 2855 0f1b 1B01     		.2byte	0x11b
 2856 0f1d 710F0000 		.4byte	0xf71
 2857 0f21 2F       		.uleb128 0x2f
 2858 0f22 270D0000 		.4byte	0xd27
 2859 0f26 7B000000 		.4byte	.LLST5
 2860 0f2a 2F       		.uleb128 0x2f
 2861 0f2b 320D0000 		.4byte	0xd32
 2862 0f2f 93000000 		.4byte	.LLST6
 2863 0f33 30       		.uleb128 0x30
 2864 0f34 18000000 		.4byte	.LBB66
 2865 0f38 50000000 		.4byte	.LBE66
 2866 0f3c 2A       		.uleb128 0x2a
 2867 0f3d 3C0D0000 		.4byte	0xd3c
 2868 0f41 A6000000 		.4byte	.LLST7
 2869 0f45 2D       		.uleb128 0x2d
 2870 0f46 3E000000 		.4byte	.LBB67
 2871 0f4a 44000000 		.4byte	.LBE67
 2872 0f4e 5C0F0000 		.4byte	0xf5c
 2873 0f52 2A       		.uleb128 0x2a
 2874 0f53 4C0D0000 		.4byte	0xd4c
 2875 0f57 E6000000 		.4byte	.LLST8
 2876 0f5b 00       		.byte	0x0
 2877 0f5c 30       		.uleb128 0x30
 2878 0f5d 4A000000 		.4byte	.LBB68
 2879 0f61 50000000 		.4byte	.LBE68
 2880 0f65 2A       		.uleb128 0x2a
 2881 0f66 5A0D0000 		.4byte	0xd5a
 2882 0f6a F9000000 		.4byte	.LLST9
 2883 0f6e 00       		.byte	0x0
 2884 0f6f 00       		.byte	0x0
 2885 0f70 00       		.byte	0x0
 2886 0f71 2D       		.uleb128 0x2d
 2887 0f72 A2000000 		.4byte	.LBB69
 2888 0f76 A8000000 		.4byte	.LBE69
 2889 0f7a 880F0000 		.4byte	0xf88
 2890 0f7e 2A       		.uleb128 0x2a
 2891 0f7f EE0D0000 		.4byte	0xdee
 2892 0f83 38010000 		.4byte	.LLST10
 2893 0f87 00       		.byte	0x0
 2894 0f88 2D       		.uleb128 0x2d
 2895 0f89 B0000000 		.4byte	.LBB70
ARM GAS  C:\Users\DNIEL~1\AppData\Local\Temp\ccLOcjg8.s 			page 52


 2896 0f8d B8000000 		.4byte	.LBE70
 2897 0f91 9F0F0000 		.4byte	0xf9f
 2898 0f95 2A       		.uleb128 0x2a
 2899 0f96 000E0000 		.4byte	0xe00
 2900 0f9a 4B010000 		.4byte	.LLST11
 2901 0f9e 00       		.byte	0x0
 2902 0f9f 2D       		.uleb128 0x2d
 2903 0fa0 B8000000 		.4byte	.LBB71
 2904 0fa4 BE000000 		.4byte	.LBE71
 2905 0fa8 B60F0000 		.4byte	0xfb6
 2906 0fac 2A       		.uleb128 0x2a
 2907 0fad CA0D0000 		.4byte	0xdca
 2908 0fb1 7F010000 		.4byte	.LLST12
 2909 0fb5 00       		.byte	0x0
 2910 0fb6 2D       		.uleb128 0x2d
 2911 0fb7 C8000000 		.4byte	.LBB72
 2912 0fbb CE000000 		.4byte	.LBE72
 2913 0fbf CD0F0000 		.4byte	0xfcd
 2914 0fc3 2A       		.uleb128 0x2a
 2915 0fc4 DC0D0000 		.4byte	0xddc
 2916 0fc8 92010000 		.4byte	.LLST13
 2917 0fcc 00       		.byte	0x0
 2918 0fcd 30       		.uleb128 0x30
 2919 0fce DE000000 		.4byte	.LBB73
 2920 0fd2 18010000 		.4byte	.LBE73
 2921 0fd6 2A       		.uleb128 0x2a
 2922 0fd7 120E0000 		.4byte	0xe12
 2923 0fdb C6010000 		.4byte	.LLST14
 2924 0fdf 2D       		.uleb128 0x2d
 2925 0fe0 DE000000 		.4byte	.LBB74
 2926 0fe4 E4000000 		.4byte	.LBE74
 2927 0fe8 F60F0000 		.4byte	0xff6
 2928 0fec 2A       		.uleb128 0x2a
 2929 0fed 210E0000 		.4byte	0xe21
 2930 0ff1 E4010000 		.4byte	.LLST15
 2931 0ff5 00       		.byte	0x0
 2932 0ff6 30       		.uleb128 0x30
 2933 0ff7 F0000000 		.4byte	.LBB75
 2934 0ffb F8000000 		.4byte	.LBE75
 2935 0fff 2A       		.uleb128 0x2a
 2936 1000 2F0E0000 		.4byte	0xe2f
 2937 1004 F7010000 		.4byte	.LLST16
 2938 1008 00       		.byte	0x0
 2939 1009 00       		.byte	0x0
 2940 100a 00       		.byte	0x0
 2941 100b 00       		.byte	0x0
 2942 100c 00       		.byte	0x0
 2943 100d 31       		.uleb128 0x31
 2944 100e 01       		.byte	0x1
 2945 100f 15050000 		.4byte	.LASF232
 2946 1013 01       		.byte	0x1
 2947 1014 F101     		.2byte	0x1f1
 2948 1016 01       		.byte	0x1
 2949 1017 00000000 		.4byte	.LFB124
 2950 101b 20000000 		.4byte	.LFE124
 2951 101f 20020000 		.4byte	.LLST17
 2952 1023 27       		.uleb128 0x27
ARM GAS  C:\Users\DNIEL~1\AppData\Local\Temp\ccLOcjg8.s 			page 53


 2953 1024 01       		.byte	0x1
 2954 1025 81010000 		.4byte	.LASF224
 2955 1029 01       		.byte	0x1
 2956 102a 1C02     		.2byte	0x21c
 2957 102c 01       		.byte	0x1
 2958 102d 00000000 		.4byte	.LFB125
 2959 1031 98000000 		.4byte	.LFE125
 2960 1035 40020000 		.4byte	.LLST18
 2961 1039 83100000 		.4byte	0x1083
 2962 103d 26       		.uleb128 0x26
 2963 103e 73647000 		.ascii	"sdp\000"
 2964 1042 01       		.byte	0x1
 2965 1043 1C02     		.2byte	0x21c
 2966 1045 090D0000 		.4byte	0xd09
 2967 1049 60020000 		.4byte	.LLST19
 2968 104d 32       		.uleb128 0x32
 2969 104e DE000000 		.4byte	.LASF218
 2970 1052 01       		.byte	0x1
 2971 1053 1C02     		.2byte	0x21c
 2972 1055 0F0D0000 		.4byte	0xd0f
 2973 1059 7E020000 		.4byte	.LLST20
 2974 105d 28       		.uleb128 0x28
 2975 105e DC0C0000 		.4byte	0xcdc
 2976 1062 14000000 		.4byte	.LBB79
 2977 1066 40000000 		.4byte	.Ldebug_ranges0+0x40
 2978 106a 01       		.byte	0x1
 2979 106b 4D02     		.2byte	0x24d
 2980 106d 33       		.uleb128 0x33
 2981 106e F40C0000 		.4byte	0xcf4
 2982 1072 29       		.uleb128 0x29
 2983 1073 58000000 		.4byte	.Ldebug_ranges0+0x58
 2984 1077 2A       		.uleb128 0x2a
 2985 1078 FF0C0000 		.4byte	0xcff
 2986 107c 91020000 		.4byte	.LLST21
 2987 1080 00       		.byte	0x0
 2988 1081 00       		.byte	0x0
 2989 1082 00       		.byte	0x0
 2990 1083 34       		.uleb128 0x34
 2991 1084 01       		.byte	0x1
 2992 1085 E3090000 		.4byte	.LASF225
 2993 1089 01       		.byte	0x1
 2994 108a 5902     		.2byte	0x259
 2995 108c 01       		.byte	0x1
 2996 108d 00000000 		.4byte	.LFB126
 2997 1091 30000000 		.4byte	.LFE126
 2998 1095 02       		.byte	0x2
 2999 1096 7D       		.byte	0x7d
 3000 1097 00       		.sleb128 0
 3001 1098 C7100000 		.4byte	0x10c7
 3002 109c 26       		.uleb128 0x26
 3003 109d 73647000 		.ascii	"sdp\000"
 3004 10a1 01       		.byte	0x1
 3005 10a2 5902     		.2byte	0x259
 3006 10a4 090D0000 		.4byte	0xd09
 3007 10a8 B1020000 		.4byte	.LLST22
 3008 10ac 28       		.uleb128 0x28
 3009 10ad 680D0000 		.4byte	0xd68
ARM GAS  C:\Users\DNIEL~1\AppData\Local\Temp\ccLOcjg8.s 			page 54


 3010 10b1 0C000000 		.4byte	.LBB83
 3011 10b5 70000000 		.4byte	.Ldebug_ranges0+0x70
 3012 10b9 01       		.byte	0x1
 3013 10ba 5C02     		.2byte	0x25c
 3014 10bc 2F       		.uleb128 0x2f
 3015 10bd 750D0000 		.4byte	0xd75
 3016 10c1 CF020000 		.4byte	.LLST23
 3017 10c5 00       		.byte	0x0
 3018 10c6 00       		.byte	0x0
 3019 10c7 35       		.uleb128 0x35
 3020 10c8 3F090000 		.4byte	.LASF226
 3021 10cc 0E       		.byte	0xe
 3022 10cd 9806     		.2byte	0x698
 3023 10cf FD070000 		.4byte	0x7fd
 3024 10d3 01       		.byte	0x1
 3025 10d4 01       		.byte	0x1
 3026 10d5 36       		.uleb128 0x36
 3027 10d6 53443100 		.ascii	"SD1\000"
 3028 10da 0D       		.byte	0xd
 3029 10db 1201     		.2byte	0x112
 3030 10dd 6C0B0000 		.4byte	0xb6c
 3031 10e1 01       		.byte	0x1
 3032 10e2 01       		.byte	0x1
 3033 10e3 37       		.uleb128 0x37
 3034 10e4 C7010000 		.4byte	.LASF233
 3035 10e8 01       		.byte	0x1
 3036 10e9 49       		.byte	0x49
 3037 10ea 150D0000 		.4byte	0xd15
 3038 10ee 05       		.byte	0x5
 3039 10ef 03       		.byte	0x3
 3040 10f0 00000000 		.4byte	default_config
 3041 10f4 35       		.uleb128 0x35
 3042 10f5 3F090000 		.4byte	.LASF226
 3043 10f9 0E       		.byte	0xe
 3044 10fa 9806     		.2byte	0x698
 3045 10fc FD070000 		.4byte	0x7fd
 3046 1100 01       		.byte	0x1
 3047 1101 01       		.byte	0x1
 3048 1102 38       		.uleb128 0x38
 3049 1103 53443100 		.ascii	"SD1\000"
 3050 1107 01       		.byte	0x1
 3051 1108 28       		.byte	0x28
 3052 1109 6C0B0000 		.4byte	0xb6c
 3053 110d 01       		.byte	0x1
 3054 110e 05       		.byte	0x5
 3055 110f 03       		.byte	0x3
 3056 1110 00000000 		.4byte	SD1
 3057 1114 00       		.byte	0x0
 3058              		.section	.debug_abbrev
 3059 0000 01       		.uleb128 0x1
 3060 0001 11       		.uleb128 0x11
 3061 0002 01       		.byte	0x1
 3062 0003 25       		.uleb128 0x25
 3063 0004 0E       		.uleb128 0xe
 3064 0005 13       		.uleb128 0x13
 3065 0006 0B       		.uleb128 0xb
 3066 0007 03       		.uleb128 0x3
ARM GAS  C:\Users\DNIEL~1\AppData\Local\Temp\ccLOcjg8.s 			page 55


 3067 0008 0E       		.uleb128 0xe
 3068 0009 1B       		.uleb128 0x1b
 3069 000a 0E       		.uleb128 0xe
 3070 000b 11       		.uleb128 0x11
 3071 000c 01       		.uleb128 0x1
 3072 000d 52       		.uleb128 0x52
 3073 000e 01       		.uleb128 0x1
 3074 000f 55       		.uleb128 0x55
 3075 0010 06       		.uleb128 0x6
 3076 0011 10       		.uleb128 0x10
 3077 0012 06       		.uleb128 0x6
 3078 0013 00       		.byte	0x0
 3079 0014 00       		.byte	0x0
 3080 0015 02       		.uleb128 0x2
 3081 0016 24       		.uleb128 0x24
 3082 0017 00       		.byte	0x0
 3083 0018 0B       		.uleb128 0xb
 3084 0019 0B       		.uleb128 0xb
 3085 001a 3E       		.uleb128 0x3e
 3086 001b 0B       		.uleb128 0xb
 3087 001c 03       		.uleb128 0x3
 3088 001d 08       		.uleb128 0x8
 3089 001e 00       		.byte	0x0
 3090 001f 00       		.byte	0x0
 3091 0020 03       		.uleb128 0x3
 3092 0021 16       		.uleb128 0x16
 3093 0022 00       		.byte	0x0
 3094 0023 03       		.uleb128 0x3
 3095 0024 0E       		.uleb128 0xe
 3096 0025 3A       		.uleb128 0x3a
 3097 0026 0B       		.uleb128 0xb
 3098 0027 3B       		.uleb128 0x3b
 3099 0028 0B       		.uleb128 0xb
 3100 0029 49       		.uleb128 0x49
 3101 002a 13       		.uleb128 0x13
 3102 002b 00       		.byte	0x0
 3103 002c 00       		.byte	0x0
 3104 002d 04       		.uleb128 0x4
 3105 002e 24       		.uleb128 0x24
 3106 002f 00       		.byte	0x0
 3107 0030 0B       		.uleb128 0xb
 3108 0031 0B       		.uleb128 0xb
 3109 0032 3E       		.uleb128 0x3e
 3110 0033 0B       		.uleb128 0xb
 3111 0034 03       		.uleb128 0x3
 3112 0035 0E       		.uleb128 0xe
 3113 0036 00       		.byte	0x0
 3114 0037 00       		.byte	0x0
 3115 0038 05       		.uleb128 0x5
 3116 0039 13       		.uleb128 0x13
 3117 003a 01       		.byte	0x1
 3118 003b 03       		.uleb128 0x3
 3119 003c 0E       		.uleb128 0xe
 3120 003d 0B       		.uleb128 0xb
 3121 003e 0B       		.uleb128 0xb
 3122 003f 3A       		.uleb128 0x3a
 3123 0040 0B       		.uleb128 0xb
ARM GAS  C:\Users\DNIEL~1\AppData\Local\Temp\ccLOcjg8.s 			page 56


 3124 0041 3B       		.uleb128 0x3b
 3125 0042 0B       		.uleb128 0xb
 3126 0043 01       		.uleb128 0x1
 3127 0044 13       		.uleb128 0x13
 3128 0045 00       		.byte	0x0
 3129 0046 00       		.byte	0x0
 3130 0047 06       		.uleb128 0x6
 3131 0048 0D       		.uleb128 0xd
 3132 0049 00       		.byte	0x0
 3133 004a 03       		.uleb128 0x3
 3134 004b 0E       		.uleb128 0xe
 3135 004c 3A       		.uleb128 0x3a
 3136 004d 0B       		.uleb128 0xb
 3137 004e 3B       		.uleb128 0x3b
 3138 004f 0B       		.uleb128 0xb
 3139 0050 49       		.uleb128 0x49
 3140 0051 13       		.uleb128 0x13
 3141 0052 38       		.uleb128 0x38
 3142 0053 0A       		.uleb128 0xa
 3143 0054 00       		.byte	0x0
 3144 0055 00       		.byte	0x0
 3145 0056 07       		.uleb128 0x7
 3146 0057 0D       		.uleb128 0xd
 3147 0058 00       		.byte	0x0
 3148 0059 03       		.uleb128 0x3
 3149 005a 08       		.uleb128 0x8
 3150 005b 3A       		.uleb128 0x3a
 3151 005c 0B       		.uleb128 0xb
 3152 005d 3B       		.uleb128 0x3b
 3153 005e 0B       		.uleb128 0xb
 3154 005f 49       		.uleb128 0x49
 3155 0060 13       		.uleb128 0x13
 3156 0061 38       		.uleb128 0x38
 3157 0062 0A       		.uleb128 0xa
 3158 0063 00       		.byte	0x0
 3159 0064 00       		.byte	0x0
 3160 0065 08       		.uleb128 0x8
 3161 0066 13       		.uleb128 0x13
 3162 0067 01       		.byte	0x1
 3163 0068 0B       		.uleb128 0xb
 3164 0069 0B       		.uleb128 0xb
 3165 006a 3A       		.uleb128 0x3a
 3166 006b 0B       		.uleb128 0xb
 3167 006c 3B       		.uleb128 0x3b
 3168 006d 0B       		.uleb128 0xb
 3169 006e 01       		.uleb128 0x1
 3170 006f 13       		.uleb128 0x13
 3171 0070 00       		.byte	0x0
 3172 0071 00       		.byte	0x0
 3173 0072 09       		.uleb128 0x9
 3174 0073 0F       		.uleb128 0xf
 3175 0074 00       		.byte	0x0
 3176 0075 0B       		.uleb128 0xb
 3177 0076 0B       		.uleb128 0xb
 3178 0077 49       		.uleb128 0x49
 3179 0078 13       		.uleb128 0x13
 3180 0079 00       		.byte	0x0
ARM GAS  C:\Users\DNIEL~1\AppData\Local\Temp\ccLOcjg8.s 			page 57


 3181 007a 00       		.byte	0x0
 3182 007b 0A       		.uleb128 0xa
 3183 007c 0F       		.uleb128 0xf
 3184 007d 00       		.byte	0x0
 3185 007e 0B       		.uleb128 0xb
 3186 007f 0B       		.uleb128 0xb
 3187 0080 00       		.byte	0x0
 3188 0081 00       		.byte	0x0
 3189 0082 0B       		.uleb128 0xb
 3190 0083 13       		.uleb128 0x13
 3191 0084 01       		.byte	0x1
 3192 0085 03       		.uleb128 0x3
 3193 0086 0E       		.uleb128 0xe
 3194 0087 0B       		.uleb128 0xb
 3195 0088 0B       		.uleb128 0xb
 3196 0089 3A       		.uleb128 0x3a
 3197 008a 0B       		.uleb128 0xb
 3198 008b 3B       		.uleb128 0x3b
 3199 008c 05       		.uleb128 0x5
 3200 008d 01       		.uleb128 0x1
 3201 008e 13       		.uleb128 0x13
 3202 008f 00       		.byte	0x0
 3203 0090 00       		.byte	0x0
 3204 0091 0C       		.uleb128 0xc
 3205 0092 0D       		.uleb128 0xd
 3206 0093 00       		.byte	0x0
 3207 0094 03       		.uleb128 0x3
 3208 0095 08       		.uleb128 0x8
 3209 0096 3A       		.uleb128 0x3a
 3210 0097 0B       		.uleb128 0xb
 3211 0098 3B       		.uleb128 0x3b
 3212 0099 05       		.uleb128 0x5
 3213 009a 49       		.uleb128 0x49
 3214 009b 13       		.uleb128 0x13
 3215 009c 38       		.uleb128 0x38
 3216 009d 0A       		.uleb128 0xa
 3217 009e 00       		.byte	0x0
 3218 009f 00       		.byte	0x0
 3219 00a0 0D       		.uleb128 0xd
 3220 00a1 35       		.uleb128 0x35
 3221 00a2 00       		.byte	0x0
 3222 00a3 49       		.uleb128 0x49
 3223 00a4 13       		.uleb128 0x13
 3224 00a5 00       		.byte	0x0
 3225 00a6 00       		.byte	0x0
 3226 00a7 0E       		.uleb128 0xe
 3227 00a8 17       		.uleb128 0x17
 3228 00a9 01       		.byte	0x1
 3229 00aa 0B       		.uleb128 0xb
 3230 00ab 0B       		.uleb128 0xb
 3231 00ac 3A       		.uleb128 0x3a
 3232 00ad 0B       		.uleb128 0xb
 3233 00ae 3B       		.uleb128 0x3b
 3234 00af 0B       		.uleb128 0xb
 3235 00b0 01       		.uleb128 0x1
 3236 00b1 13       		.uleb128 0x13
 3237 00b2 00       		.byte	0x0
ARM GAS  C:\Users\DNIEL~1\AppData\Local\Temp\ccLOcjg8.s 			page 58


 3238 00b3 00       		.byte	0x0
 3239 00b4 0F       		.uleb128 0xf
 3240 00b5 0D       		.uleb128 0xd
 3241 00b6 00       		.byte	0x0
 3242 00b7 03       		.uleb128 0x3
 3243 00b8 0E       		.uleb128 0xe
 3244 00b9 3A       		.uleb128 0x3a
 3245 00ba 0B       		.uleb128 0xb
 3246 00bb 3B       		.uleb128 0x3b
 3247 00bc 0B       		.uleb128 0xb
 3248 00bd 49       		.uleb128 0x49
 3249 00be 13       		.uleb128 0x13
 3250 00bf 00       		.byte	0x0
 3251 00c0 00       		.byte	0x0
 3252 00c1 10       		.uleb128 0x10
 3253 00c2 26       		.uleb128 0x26
 3254 00c3 00       		.byte	0x0
 3255 00c4 49       		.uleb128 0x49
 3256 00c5 13       		.uleb128 0x13
 3257 00c6 00       		.byte	0x0
 3258 00c7 00       		.byte	0x0
 3259 00c8 11       		.uleb128 0x11
 3260 00c9 15       		.uleb128 0x15
 3261 00ca 01       		.byte	0x1
 3262 00cb 27       		.uleb128 0x27
 3263 00cc 0C       		.uleb128 0xc
 3264 00cd 49       		.uleb128 0x49
 3265 00ce 13       		.uleb128 0x13
 3266 00cf 01       		.uleb128 0x1
 3267 00d0 13       		.uleb128 0x13
 3268 00d1 00       		.byte	0x0
 3269 00d2 00       		.byte	0x0
 3270 00d3 12       		.uleb128 0x12
 3271 00d4 05       		.uleb128 0x5
 3272 00d5 00       		.byte	0x0
 3273 00d6 49       		.uleb128 0x49
 3274 00d7 13       		.uleb128 0x13
 3275 00d8 00       		.byte	0x0
 3276 00d9 00       		.byte	0x0
 3277 00da 13       		.uleb128 0x13
 3278 00db 15       		.uleb128 0x15
 3279 00dc 01       		.byte	0x1
 3280 00dd 27       		.uleb128 0x27
 3281 00de 0C       		.uleb128 0xc
 3282 00df 01       		.uleb128 0x1
 3283 00e0 13       		.uleb128 0x13
 3284 00e1 00       		.byte	0x0
 3285 00e2 00       		.byte	0x0
 3286 00e3 14       		.uleb128 0x14
 3287 00e4 04       		.uleb128 0x4
 3288 00e5 01       		.byte	0x1
 3289 00e6 03       		.uleb128 0x3
 3290 00e7 0E       		.uleb128 0xe
 3291 00e8 0B       		.uleb128 0xb
 3292 00e9 0B       		.uleb128 0xb
 3293 00ea 3A       		.uleb128 0x3a
 3294 00eb 0B       		.uleb128 0xb
ARM GAS  C:\Users\DNIEL~1\AppData\Local\Temp\ccLOcjg8.s 			page 59


 3295 00ec 3B       		.uleb128 0x3b
 3296 00ed 0B       		.uleb128 0xb
 3297 00ee 01       		.uleb128 0x1
 3298 00ef 13       		.uleb128 0x13
 3299 00f0 00       		.byte	0x0
 3300 00f1 00       		.byte	0x0
 3301 00f2 15       		.uleb128 0x15
 3302 00f3 28       		.uleb128 0x28
 3303 00f4 00       		.byte	0x0
 3304 00f5 03       		.uleb128 0x3
 3305 00f6 0E       		.uleb128 0xe
 3306 00f7 1C       		.uleb128 0x1c
 3307 00f8 0D       		.uleb128 0xd
 3308 00f9 00       		.byte	0x0
 3309 00fa 00       		.byte	0x0
 3310 00fb 16       		.uleb128 0x16
 3311 00fc 01       		.uleb128 0x1
 3312 00fd 01       		.byte	0x1
 3313 00fe 49       		.uleb128 0x49
 3314 00ff 13       		.uleb128 0x13
 3315 0100 01       		.uleb128 0x1
 3316 0101 13       		.uleb128 0x13
 3317 0102 00       		.byte	0x0
 3318 0103 00       		.byte	0x0
 3319 0104 17       		.uleb128 0x17
 3320 0105 21       		.uleb128 0x21
 3321 0106 00       		.byte	0x0
 3322 0107 49       		.uleb128 0x49
 3323 0108 13       		.uleb128 0x13
 3324 0109 2F       		.uleb128 0x2f
 3325 010a 0B       		.uleb128 0xb
 3326 010b 00       		.byte	0x0
 3327 010c 00       		.byte	0x0
 3328 010d 18       		.uleb128 0x18
 3329 010e 13       		.uleb128 0x13
 3330 010f 01       		.byte	0x1
 3331 0110 0B       		.uleb128 0xb
 3332 0111 0B       		.uleb128 0xb
 3333 0112 3A       		.uleb128 0x3a
 3334 0113 0B       		.uleb128 0xb
 3335 0114 3B       		.uleb128 0x3b
 3336 0115 05       		.uleb128 0x5
 3337 0116 01       		.uleb128 0x1
 3338 0117 13       		.uleb128 0x13
 3339 0118 00       		.byte	0x0
 3340 0119 00       		.byte	0x0
 3341 011a 19       		.uleb128 0x19
 3342 011b 0D       		.uleb128 0xd
 3343 011c 00       		.byte	0x0
 3344 011d 03       		.uleb128 0x3
 3345 011e 0E       		.uleb128 0xe
 3346 011f 3A       		.uleb128 0x3a
 3347 0120 0B       		.uleb128 0xb
 3348 0121 3B       		.uleb128 0x3b
 3349 0122 05       		.uleb128 0x5
 3350 0123 49       		.uleb128 0x49
 3351 0124 13       		.uleb128 0x13
ARM GAS  C:\Users\DNIEL~1\AppData\Local\Temp\ccLOcjg8.s 			page 60


 3352 0125 38       		.uleb128 0x38
 3353 0126 0A       		.uleb128 0xa
 3354 0127 00       		.byte	0x0
 3355 0128 00       		.byte	0x0
 3356 0129 1A       		.uleb128 0x1a
 3357 012a 16       		.uleb128 0x16
 3358 012b 00       		.byte	0x0
 3359 012c 03       		.uleb128 0x3
 3360 012d 0E       		.uleb128 0xe
 3361 012e 3A       		.uleb128 0x3a
 3362 012f 0B       		.uleb128 0xb
 3363 0130 3B       		.uleb128 0x3b
 3364 0131 05       		.uleb128 0x5
 3365 0132 49       		.uleb128 0x49
 3366 0133 13       		.uleb128 0x13
 3367 0134 00       		.byte	0x0
 3368 0135 00       		.byte	0x0
 3369 0136 1B       		.uleb128 0x1b
 3370 0137 04       		.uleb128 0x4
 3371 0138 01       		.byte	0x1
 3372 0139 0B       		.uleb128 0xb
 3373 013a 0B       		.uleb128 0xb
 3374 013b 3A       		.uleb128 0x3a
 3375 013c 0B       		.uleb128 0xb
 3376 013d 3B       		.uleb128 0x3b
 3377 013e 0B       		.uleb128 0xb
 3378 013f 01       		.uleb128 0x1
 3379 0140 13       		.uleb128 0x13
 3380 0141 00       		.byte	0x0
 3381 0142 00       		.byte	0x0
 3382 0143 1C       		.uleb128 0x1c
 3383 0144 2E       		.uleb128 0x2e
 3384 0145 01       		.byte	0x1
 3385 0146 03       		.uleb128 0x3
 3386 0147 0E       		.uleb128 0xe
 3387 0148 3A       		.uleb128 0x3a
 3388 0149 0B       		.uleb128 0xb
 3389 014a 3B       		.uleb128 0x3b
 3390 014b 0B       		.uleb128 0xb
 3391 014c 27       		.uleb128 0x27
 3392 014d 0C       		.uleb128 0xc
 3393 014e 20       		.uleb128 0x20
 3394 014f 0B       		.uleb128 0xb
 3395 0150 01       		.uleb128 0x1
 3396 0151 13       		.uleb128 0x13
 3397 0152 00       		.byte	0x0
 3398 0153 00       		.byte	0x0
 3399 0154 1D       		.uleb128 0x1d
 3400 0155 05       		.uleb128 0x5
 3401 0156 00       		.byte	0x0
 3402 0157 03       		.uleb128 0x3
 3403 0158 08       		.uleb128 0x8
 3404 0159 3A       		.uleb128 0x3a
 3405 015a 0B       		.uleb128 0xb
 3406 015b 3B       		.uleb128 0x3b
 3407 015c 0B       		.uleb128 0xb
 3408 015d 49       		.uleb128 0x49
ARM GAS  C:\Users\DNIEL~1\AppData\Local\Temp\ccLOcjg8.s 			page 61


 3409 015e 13       		.uleb128 0x13
 3410 015f 00       		.byte	0x0
 3411 0160 00       		.byte	0x0
 3412 0161 1E       		.uleb128 0x1e
 3413 0162 05       		.uleb128 0x5
 3414 0163 00       		.byte	0x0
 3415 0164 03       		.uleb128 0x3
 3416 0165 0E       		.uleb128 0xe
 3417 0166 3A       		.uleb128 0x3a
 3418 0167 0B       		.uleb128 0xb
 3419 0168 3B       		.uleb128 0x3b
 3420 0169 0B       		.uleb128 0xb
 3421 016a 49       		.uleb128 0x49
 3422 016b 13       		.uleb128 0x13
 3423 016c 00       		.byte	0x0
 3424 016d 00       		.byte	0x0
 3425 016e 1F       		.uleb128 0x1f
 3426 016f 34       		.uleb128 0x34
 3427 0170 00       		.byte	0x0
 3428 0171 03       		.uleb128 0x3
 3429 0172 08       		.uleb128 0x8
 3430 0173 3A       		.uleb128 0x3a
 3431 0174 0B       		.uleb128 0xb
 3432 0175 3B       		.uleb128 0x3b
 3433 0176 0B       		.uleb128 0xb
 3434 0177 49       		.uleb128 0x49
 3435 0178 13       		.uleb128 0x13
 3436 0179 00       		.byte	0x0
 3437 017a 00       		.byte	0x0
 3438 017b 20       		.uleb128 0x20
 3439 017c 0B       		.uleb128 0xb
 3440 017d 01       		.byte	0x1
 3441 017e 01       		.uleb128 0x1
 3442 017f 13       		.uleb128 0x13
 3443 0180 00       		.byte	0x0
 3444 0181 00       		.byte	0x0
 3445 0182 21       		.uleb128 0x21
 3446 0183 34       		.uleb128 0x34
 3447 0184 00       		.byte	0x0
 3448 0185 03       		.uleb128 0x3
 3449 0186 08       		.uleb128 0x8
 3450 0187 3A       		.uleb128 0x3a
 3451 0188 0B       		.uleb128 0xb
 3452 0189 3B       		.uleb128 0x3b
 3453 018a 05       		.uleb128 0x5
 3454 018b 49       		.uleb128 0x49
 3455 018c 13       		.uleb128 0x13
 3456 018d 00       		.byte	0x0
 3457 018e 00       		.byte	0x0
 3458 018f 22       		.uleb128 0x22
 3459 0190 0B       		.uleb128 0xb
 3460 0191 01       		.byte	0x1
 3461 0192 00       		.byte	0x0
 3462 0193 00       		.byte	0x0
 3463 0194 23       		.uleb128 0x23
 3464 0195 2E       		.uleb128 0x2e
 3465 0196 01       		.byte	0x1
ARM GAS  C:\Users\DNIEL~1\AppData\Local\Temp\ccLOcjg8.s 			page 62


 3466 0197 03       		.uleb128 0x3
 3467 0198 0E       		.uleb128 0xe
 3468 0199 3A       		.uleb128 0x3a
 3469 019a 0B       		.uleb128 0xb
 3470 019b 3B       		.uleb128 0x3b
 3471 019c 05       		.uleb128 0x5
 3472 019d 27       		.uleb128 0x27
 3473 019e 0C       		.uleb128 0xc
 3474 019f 20       		.uleb128 0x20
 3475 01a0 0B       		.uleb128 0xb
 3476 01a1 01       		.uleb128 0x1
 3477 01a2 13       		.uleb128 0x13
 3478 01a3 00       		.byte	0x0
 3479 01a4 00       		.byte	0x0
 3480 01a5 24       		.uleb128 0x24
 3481 01a6 05       		.uleb128 0x5
 3482 01a7 00       		.byte	0x0
 3483 01a8 03       		.uleb128 0x3
 3484 01a9 08       		.uleb128 0x8
 3485 01aa 3A       		.uleb128 0x3a
 3486 01ab 0B       		.uleb128 0xb
 3487 01ac 3B       		.uleb128 0x3b
 3488 01ad 05       		.uleb128 0x5
 3489 01ae 49       		.uleb128 0x49
 3490 01af 13       		.uleb128 0x13
 3491 01b0 00       		.byte	0x0
 3492 01b1 00       		.byte	0x0
 3493 01b2 25       		.uleb128 0x25
 3494 01b3 2E       		.uleb128 0x2e
 3495 01b4 01       		.byte	0x1
 3496 01b5 03       		.uleb128 0x3
 3497 01b6 0E       		.uleb128 0xe
 3498 01b7 3A       		.uleb128 0x3a
 3499 01b8 0B       		.uleb128 0xb
 3500 01b9 3B       		.uleb128 0x3b
 3501 01ba 05       		.uleb128 0x5
 3502 01bb 27       		.uleb128 0x27
 3503 01bc 0C       		.uleb128 0xc
 3504 01bd 11       		.uleb128 0x11
 3505 01be 01       		.uleb128 0x1
 3506 01bf 12       		.uleb128 0x12
 3507 01c0 01       		.uleb128 0x1
 3508 01c1 40       		.uleb128 0x40
 3509 01c2 0A       		.uleb128 0xa
 3510 01c3 01       		.uleb128 0x1
 3511 01c4 13       		.uleb128 0x13
 3512 01c5 00       		.byte	0x0
 3513 01c6 00       		.byte	0x0
 3514 01c7 26       		.uleb128 0x26
 3515 01c8 05       		.uleb128 0x5
 3516 01c9 00       		.byte	0x0
 3517 01ca 03       		.uleb128 0x3
 3518 01cb 08       		.uleb128 0x8
 3519 01cc 3A       		.uleb128 0x3a
 3520 01cd 0B       		.uleb128 0xb
 3521 01ce 3B       		.uleb128 0x3b
 3522 01cf 05       		.uleb128 0x5
ARM GAS  C:\Users\DNIEL~1\AppData\Local\Temp\ccLOcjg8.s 			page 63


 3523 01d0 49       		.uleb128 0x49
 3524 01d1 13       		.uleb128 0x13
 3525 01d2 02       		.uleb128 0x2
 3526 01d3 06       		.uleb128 0x6
 3527 01d4 00       		.byte	0x0
 3528 01d5 00       		.byte	0x0
 3529 01d6 27       		.uleb128 0x27
 3530 01d7 2E       		.uleb128 0x2e
 3531 01d8 01       		.byte	0x1
 3532 01d9 3F       		.uleb128 0x3f
 3533 01da 0C       		.uleb128 0xc
 3534 01db 03       		.uleb128 0x3
 3535 01dc 0E       		.uleb128 0xe
 3536 01dd 3A       		.uleb128 0x3a
 3537 01de 0B       		.uleb128 0xb
 3538 01df 3B       		.uleb128 0x3b
 3539 01e0 05       		.uleb128 0x5
 3540 01e1 27       		.uleb128 0x27
 3541 01e2 0C       		.uleb128 0xc
 3542 01e3 11       		.uleb128 0x11
 3543 01e4 01       		.uleb128 0x1
 3544 01e5 12       		.uleb128 0x12
 3545 01e6 01       		.uleb128 0x1
 3546 01e7 40       		.uleb128 0x40
 3547 01e8 06       		.uleb128 0x6
 3548 01e9 01       		.uleb128 0x1
 3549 01ea 13       		.uleb128 0x13
 3550 01eb 00       		.byte	0x0
 3551 01ec 00       		.byte	0x0
 3552 01ed 28       		.uleb128 0x28
 3553 01ee 1D       		.uleb128 0x1d
 3554 01ef 01       		.byte	0x1
 3555 01f0 31       		.uleb128 0x31
 3556 01f1 13       		.uleb128 0x13
 3557 01f2 52       		.uleb128 0x52
 3558 01f3 01       		.uleb128 0x1
 3559 01f4 55       		.uleb128 0x55
 3560 01f5 06       		.uleb128 0x6
 3561 01f6 58       		.uleb128 0x58
 3562 01f7 0B       		.uleb128 0xb
 3563 01f8 59       		.uleb128 0x59
 3564 01f9 05       		.uleb128 0x5
 3565 01fa 00       		.byte	0x0
 3566 01fb 00       		.byte	0x0
 3567 01fc 29       		.uleb128 0x29
 3568 01fd 0B       		.uleb128 0xb
 3569 01fe 01       		.byte	0x1
 3570 01ff 55       		.uleb128 0x55
 3571 0200 06       		.uleb128 0x6
 3572 0201 00       		.byte	0x0
 3573 0202 00       		.byte	0x0
 3574 0203 2A       		.uleb128 0x2a
 3575 0204 34       		.uleb128 0x34
 3576 0205 00       		.byte	0x0
 3577 0206 31       		.uleb128 0x31
 3578 0207 13       		.uleb128 0x13
 3579 0208 02       		.uleb128 0x2
ARM GAS  C:\Users\DNIEL~1\AppData\Local\Temp\ccLOcjg8.s 			page 64


 3580 0209 06       		.uleb128 0x6
 3581 020a 00       		.byte	0x0
 3582 020b 00       		.byte	0x0
 3583 020c 2B       		.uleb128 0x2b
 3584 020d 34       		.uleb128 0x34
 3585 020e 00       		.byte	0x0
 3586 020f 31       		.uleb128 0x31
 3587 0210 13       		.uleb128 0x13
 3588 0211 02       		.uleb128 0x2
 3589 0212 0A       		.uleb128 0xa
 3590 0213 00       		.byte	0x0
 3591 0214 00       		.byte	0x0
 3592 0215 2C       		.uleb128 0x2c
 3593 0216 05       		.uleb128 0x5
 3594 0217 00       		.byte	0x0
 3595 0218 31       		.uleb128 0x31
 3596 0219 13       		.uleb128 0x13
 3597 021a 02       		.uleb128 0x2
 3598 021b 0A       		.uleb128 0xa
 3599 021c 00       		.byte	0x0
 3600 021d 00       		.byte	0x0
 3601 021e 2D       		.uleb128 0x2d
 3602 021f 0B       		.uleb128 0xb
 3603 0220 01       		.byte	0x1
 3604 0221 11       		.uleb128 0x11
 3605 0222 01       		.uleb128 0x1
 3606 0223 12       		.uleb128 0x12
 3607 0224 01       		.uleb128 0x1
 3608 0225 01       		.uleb128 0x1
 3609 0226 13       		.uleb128 0x13
 3610 0227 00       		.byte	0x0
 3611 0228 00       		.byte	0x0
 3612 0229 2E       		.uleb128 0x2e
 3613 022a 1D       		.uleb128 0x1d
 3614 022b 01       		.byte	0x1
 3615 022c 31       		.uleb128 0x31
 3616 022d 13       		.uleb128 0x13
 3617 022e 11       		.uleb128 0x11
 3618 022f 01       		.uleb128 0x1
 3619 0230 12       		.uleb128 0x12
 3620 0231 01       		.uleb128 0x1
 3621 0232 58       		.uleb128 0x58
 3622 0233 0B       		.uleb128 0xb
 3623 0234 59       		.uleb128 0x59
 3624 0235 05       		.uleb128 0x5
 3625 0236 01       		.uleb128 0x1
 3626 0237 13       		.uleb128 0x13
 3627 0238 00       		.byte	0x0
 3628 0239 00       		.byte	0x0
 3629 023a 2F       		.uleb128 0x2f
 3630 023b 05       		.uleb128 0x5
 3631 023c 00       		.byte	0x0
 3632 023d 31       		.uleb128 0x31
 3633 023e 13       		.uleb128 0x13
 3634 023f 02       		.uleb128 0x2
 3635 0240 06       		.uleb128 0x6
 3636 0241 00       		.byte	0x0
ARM GAS  C:\Users\DNIEL~1\AppData\Local\Temp\ccLOcjg8.s 			page 65


 3637 0242 00       		.byte	0x0
 3638 0243 30       		.uleb128 0x30
 3639 0244 0B       		.uleb128 0xb
 3640 0245 01       		.byte	0x1
 3641 0246 11       		.uleb128 0x11
 3642 0247 01       		.uleb128 0x1
 3643 0248 12       		.uleb128 0x12
 3644 0249 01       		.uleb128 0x1
 3645 024a 00       		.byte	0x0
 3646 024b 00       		.byte	0x0
 3647 024c 31       		.uleb128 0x31
 3648 024d 2E       		.uleb128 0x2e
 3649 024e 00       		.byte	0x0
 3650 024f 3F       		.uleb128 0x3f
 3651 0250 0C       		.uleb128 0xc
 3652 0251 03       		.uleb128 0x3
 3653 0252 0E       		.uleb128 0xe
 3654 0253 3A       		.uleb128 0x3a
 3655 0254 0B       		.uleb128 0xb
 3656 0255 3B       		.uleb128 0x3b
 3657 0256 05       		.uleb128 0x5
 3658 0257 27       		.uleb128 0x27
 3659 0258 0C       		.uleb128 0xc
 3660 0259 11       		.uleb128 0x11
 3661 025a 01       		.uleb128 0x1
 3662 025b 12       		.uleb128 0x12
 3663 025c 01       		.uleb128 0x1
 3664 025d 40       		.uleb128 0x40
 3665 025e 06       		.uleb128 0x6
 3666 025f 00       		.byte	0x0
 3667 0260 00       		.byte	0x0
 3668 0261 32       		.uleb128 0x32
 3669 0262 05       		.uleb128 0x5
 3670 0263 00       		.byte	0x0
 3671 0264 03       		.uleb128 0x3
 3672 0265 0E       		.uleb128 0xe
 3673 0266 3A       		.uleb128 0x3a
 3674 0267 0B       		.uleb128 0xb
 3675 0268 3B       		.uleb128 0x3b
 3676 0269 05       		.uleb128 0x5
 3677 026a 49       		.uleb128 0x49
 3678 026b 13       		.uleb128 0x13
 3679 026c 02       		.uleb128 0x2
 3680 026d 06       		.uleb128 0x6
 3681 026e 00       		.byte	0x0
 3682 026f 00       		.byte	0x0
 3683 0270 33       		.uleb128 0x33
 3684 0271 05       		.uleb128 0x5
 3685 0272 00       		.byte	0x0
 3686 0273 31       		.uleb128 0x31
 3687 0274 13       		.uleb128 0x13
 3688 0275 00       		.byte	0x0
 3689 0276 00       		.byte	0x0
 3690 0277 34       		.uleb128 0x34
 3691 0278 2E       		.uleb128 0x2e
 3692 0279 01       		.byte	0x1
 3693 027a 3F       		.uleb128 0x3f
ARM GAS  C:\Users\DNIEL~1\AppData\Local\Temp\ccLOcjg8.s 			page 66


 3694 027b 0C       		.uleb128 0xc
 3695 027c 03       		.uleb128 0x3
 3696 027d 0E       		.uleb128 0xe
 3697 027e 3A       		.uleb128 0x3a
 3698 027f 0B       		.uleb128 0xb
 3699 0280 3B       		.uleb128 0x3b
 3700 0281 05       		.uleb128 0x5
 3701 0282 27       		.uleb128 0x27
 3702 0283 0C       		.uleb128 0xc
 3703 0284 11       		.uleb128 0x11
 3704 0285 01       		.uleb128 0x1
 3705 0286 12       		.uleb128 0x12
 3706 0287 01       		.uleb128 0x1
 3707 0288 40       		.uleb128 0x40
 3708 0289 0A       		.uleb128 0xa
 3709 028a 01       		.uleb128 0x1
 3710 028b 13       		.uleb128 0x13
 3711 028c 00       		.byte	0x0
 3712 028d 00       		.byte	0x0
 3713 028e 35       		.uleb128 0x35
 3714 028f 34       		.uleb128 0x34
 3715 0290 00       		.byte	0x0
 3716 0291 03       		.uleb128 0x3
 3717 0292 0E       		.uleb128 0xe
 3718 0293 3A       		.uleb128 0x3a
 3719 0294 0B       		.uleb128 0xb
 3720 0295 3B       		.uleb128 0x3b
 3721 0296 05       		.uleb128 0x5
 3722 0297 49       		.uleb128 0x49
 3723 0298 13       		.uleb128 0x13
 3724 0299 3F       		.uleb128 0x3f
 3725 029a 0C       		.uleb128 0xc
 3726 029b 3C       		.uleb128 0x3c
 3727 029c 0C       		.uleb128 0xc
 3728 029d 00       		.byte	0x0
 3729 029e 00       		.byte	0x0
 3730 029f 36       		.uleb128 0x36
 3731 02a0 34       		.uleb128 0x34
 3732 02a1 00       		.byte	0x0
 3733 02a2 03       		.uleb128 0x3
 3734 02a3 08       		.uleb128 0x8
 3735 02a4 3A       		.uleb128 0x3a
 3736 02a5 0B       		.uleb128 0xb
 3737 02a6 3B       		.uleb128 0x3b
 3738 02a7 05       		.uleb128 0x5
 3739 02a8 49       		.uleb128 0x49
 3740 02a9 13       		.uleb128 0x13
 3741 02aa 3F       		.uleb128 0x3f
 3742 02ab 0C       		.uleb128 0xc
 3743 02ac 3C       		.uleb128 0x3c
 3744 02ad 0C       		.uleb128 0xc
 3745 02ae 00       		.byte	0x0
 3746 02af 00       		.byte	0x0
 3747 02b0 37       		.uleb128 0x37
 3748 02b1 34       		.uleb128 0x34
 3749 02b2 00       		.byte	0x0
 3750 02b3 03       		.uleb128 0x3
ARM GAS  C:\Users\DNIEL~1\AppData\Local\Temp\ccLOcjg8.s 			page 67


 3751 02b4 0E       		.uleb128 0xe
 3752 02b5 3A       		.uleb128 0x3a
 3753 02b6 0B       		.uleb128 0xb
 3754 02b7 3B       		.uleb128 0x3b
 3755 02b8 0B       		.uleb128 0xb
 3756 02b9 49       		.uleb128 0x49
 3757 02ba 13       		.uleb128 0x13
 3758 02bb 02       		.uleb128 0x2
 3759 02bc 0A       		.uleb128 0xa
 3760 02bd 00       		.byte	0x0
 3761 02be 00       		.byte	0x0
 3762 02bf 38       		.uleb128 0x38
 3763 02c0 34       		.uleb128 0x34
 3764 02c1 00       		.byte	0x0
 3765 02c2 03       		.uleb128 0x3
 3766 02c3 08       		.uleb128 0x8
 3767 02c4 3A       		.uleb128 0x3a
 3768 02c5 0B       		.uleb128 0xb
 3769 02c6 3B       		.uleb128 0x3b
 3770 02c7 0B       		.uleb128 0xb
 3771 02c8 49       		.uleb128 0x49
 3772 02c9 13       		.uleb128 0x13
 3773 02ca 3F       		.uleb128 0x3f
 3774 02cb 0C       		.uleb128 0xc
 3775 02cc 02       		.uleb128 0x2
 3776 02cd 0A       		.uleb128 0xa
 3777 02ce 00       		.byte	0x0
 3778 02cf 00       		.byte	0x0
 3779 02d0 00       		.byte	0x0
 3780              		.section	.debug_pubnames,"",%progbits
 3781 0000 54000000 		.4byte	0x54
 3782 0004 0200     		.2byte	0x2
 3783 0006 00000000 		.4byte	.Ldebug_info0
 3784 000a 15110000 		.4byte	0x1115
 3785 000e 860E0000 		.4byte	0xe86
 3786 0012 56656374 		.ascii	"VectorD4\000"
 3786      6F724434 
 3786      00
 3787 001b 0D100000 		.4byte	0x100d
 3788 001f 73645F6C 		.ascii	"sd_lld_init\000"
 3788      6C645F69 
 3788      6E697400 
 3789 002b 23100000 		.4byte	0x1023
 3790 002f 73645F6C 		.ascii	"sd_lld_start\000"
 3790      6C645F73 
 3790      74617274 
 3790      00
 3791 003c 83100000 		.4byte	0x1083
 3792 0040 73645F6C 		.ascii	"sd_lld_stop\000"
 3792      6C645F73 
 3792      746F7000 
 3793 004c 02110000 		.4byte	0x1102
 3794 0050 53443100 		.ascii	"SD1\000"
 3795 0054 00000000 		.4byte	0x0
 3796              		.section	.debug_pubtypes,"",%progbits
 3797 0000 44020000 		.4byte	0x244
 3798 0004 0200     		.2byte	0x2
ARM GAS  C:\Users\DNIEL~1\AppData\Local\Temp\ccLOcjg8.s 			page 68


 3799 0006 00000000 		.4byte	.Ldebug_info0
 3800 000a 15110000 		.4byte	0x1115
 3801 000e 30000000 		.4byte	0x30
 3802 0012 73697A65 		.ascii	"size_t\000"
 3802      5F7400
 3803 0019 49000000 		.4byte	0x49
 3804 001d 75696E74 		.ascii	"uint8_t\000"
 3804      385F7400 
 3805 0025 62000000 		.4byte	0x62
 3806 0029 75696E74 		.ascii	"uint16_t\000"
 3806      31365F74 
 3806      00
 3807 0032 74000000 		.4byte	0x74
 3808 0036 696E7433 		.ascii	"int32_t\000"
 3808      325F7400 
 3809 003e 86000000 		.4byte	0x86
 3810 0042 75696E74 		.ascii	"uint32_t\000"
 3810      33325F74 
 3810      00
 3811 004b A6000000 		.4byte	0xa6
 3812 004f 746D6F64 		.ascii	"tmode_t\000"
 3812      655F7400 
 3813 0057 B1000000 		.4byte	0xb1
 3814 005b 74737461 		.ascii	"tstate_t\000"
 3814      74655F74 
 3814      00
 3815 0064 BC000000 		.4byte	0xbc
 3816 0068 74726566 		.ascii	"trefs_t\000"
 3816      735F7400 
 3817 0070 C7000000 		.4byte	0xc7
 3818 0074 74736C69 		.ascii	"tslices_t\000"
 3818      6365735F 
 3818      7400
 3819 007e D2000000 		.4byte	0xd2
 3820 0082 74707269 		.ascii	"tprio_t\000"
 3820      6F5F7400 
 3821 008a DD000000 		.4byte	0xdd
 3822 008e 6D73675F 		.ascii	"msg_t\000"
 3822      7400
 3823 0094 E8000000 		.4byte	0xe8
 3824 0098 6576656E 		.ascii	"eventmask_t\000"
 3824      746D6173 
 3824      6B5F7400 
 3825 00a4 F3000000 		.4byte	0xf3
 3826 00a8 666C6167 		.ascii	"flagsmask_t\000"
 3826      736D6173 
 3826      6B5F7400 
 3827 00b4 FE000000 		.4byte	0xfe
 3828 00b8 73797374 		.ascii	"systime_t\000"
 3828      696D655F 
 3828      7400
 3829 00c2 09010000 		.4byte	0x109
 3830 00c6 54687265 		.ascii	"Thread\000"
 3830      616400
 3831 00cd 64020000 		.4byte	0x264
 3832 00d1 54687265 		.ascii	"ThreadsQueue\000"
 3832      61647351 
ARM GAS  C:\Users\DNIEL~1\AppData\Local\Temp\ccLOcjg8.s 			page 69


 3832      75657565 
 3832      00
 3833 00de 86020000 		.4byte	0x286
 3834 00e2 54687265 		.ascii	"ThreadsList\000"
 3834      6164734C 
 3834      69737400 
 3835 00ee 91020000 		.4byte	0x291
 3836 00f2 72656761 		.ascii	"regarm_t\000"
 3836      726D5F74 
 3836      00
 3837 00fb 9E020000 		.4byte	0x29e
 3838 00ff 696E7463 		.ascii	"intctx\000"
 3838      747800
 3839 0106 2C030000 		.4byte	0x32c
 3840 010a 636F6E74 		.ascii	"context\000"
 3840      65787400 
 3841 0112 59030000 		.4byte	0x359
 3842 0116 4D757465 		.ascii	"Mutex\000"
 3842      7800
 3843 011c 96030000 		.4byte	0x396
 3844 0120 4D757465 		.ascii	"Mutex\000"
 3844      7800
 3845 0126 A1030000 		.4byte	0x3a1
 3846 012a 4576656E 		.ascii	"EventListener\000"
 3846      744C6973 
 3846      74656E65 
 3846      7200
 3847 0138 AC030000 		.4byte	0x3ac
 3848 013c 4576656E 		.ascii	"EventListener\000"
 3848      744C6973 
 3848      74656E65 
 3848      7200
 3849 014a F7030000 		.4byte	0x3f7
 3850 014e 4576656E 		.ascii	"EventSource\000"
 3850      74536F75 
 3850      72636500 
 3851 015a 12040000 		.4byte	0x412
 3852 015e 4576656E 		.ascii	"EventSource\000"
 3852      74536F75 
 3852      72636500 
 3853 016a 14010000 		.4byte	0x114
 3854 016e 54687265 		.ascii	"Thread\000"
 3854      616400
 3855 0175 80040000 		.4byte	0x480
 3856 0179 47656E65 		.ascii	"GenericQueue\000"
 3856      72696351 
 3856      75657565 
 3856      00
 3857 0186 08050000 		.4byte	0x508
 3858 018a 716E6F74 		.ascii	"qnotify_t\000"
 3858      6966795F 
 3858      7400
 3859 0194 8B040000 		.4byte	0x48b
 3860 0198 47656E65 		.ascii	"GenericQueue\000"
 3860      72696351 
 3860      75657565 
 3860      00
ARM GAS  C:\Users\DNIEL~1\AppData\Local\Temp\ccLOcjg8.s 			page 70


 3861 01a5 31050000 		.4byte	0x531
 3862 01a9 496E7075 		.ascii	"InputQueue\000"
 3862      74517565 
 3862      756500
 3863 01b4 3C050000 		.4byte	0x53c
 3864 01b8 4F757470 		.ascii	"OutputQueue\000"
 3864      75745175 
 3864      65756500 
 3865 01c4 AD050000 		.4byte	0x5ad
 3866 01c8 4952516E 		.ascii	"IRQn\000"
 3866      00
 3867 01cd CF090000 		.4byte	0x9cf
 3868 01d1 5243435F 		.ascii	"RCC_TypeDef\000"
 3868      54797065 
 3868      44656600 
 3869 01dd B50A0000 		.4byte	0xab5
 3870 01e1 55534152 		.ascii	"USART_TypeDef\000"
 3870      545F5479 
 3870      70654465 
 3870      6600
 3871 01ef 610B0000 		.4byte	0xb61
 3872 01f3 73647374 		.ascii	"sdstate_t\000"
 3872      6174655F 
 3872      7400
 3873 01fd 6C0B0000 		.4byte	0xb6c
 3874 0201 53657269 		.ascii	"SerialDriver\000"
 3874      616C4472 
 3874      69766572 
 3874      00
 3875 020e 330C0000 		.4byte	0xc33
 3876 0212 53657269 		.ascii	"SerialConfig\000"
 3876      616C436F 
 3876      6E666967 
 3876      00
 3877 021f 3E0C0000 		.4byte	0xc3e
 3878 0223 53657269 		.ascii	"SerialDriverVMT\000"
 3878      616C4472 
 3878      69766572 
 3878      564D5400 
 3879 0233 770B0000 		.4byte	0xb77
 3880 0237 53657269 		.ascii	"SerialDriver\000"
 3880      616C4472 
 3880      69766572 
 3880      00
 3881 0244 00000000 		.4byte	0x0
 3882              		.section	.debug_aranges,"",%progbits
 3883 0000 3C000000 		.4byte	0x3c
 3884 0004 0200     		.2byte	0x2
 3885 0006 00000000 		.4byte	.Ldebug_info0
 3886 000a 04       		.byte	0x4
 3887 000b 00       		.byte	0x0
 3888 000c 0000     		.2byte	0x0
 3889 000e 0000     		.2byte	0x0
 3890 0010 00000000 		.4byte	.LFB122
 3891 0014 14000000 		.4byte	.LFE122-.LFB122
 3892 0018 00000000 		.4byte	.LFB123
 3893 001c 18010000 		.4byte	.LFE123-.LFB123
ARM GAS  C:\Users\DNIEL~1\AppData\Local\Temp\ccLOcjg8.s 			page 71


 3894 0020 00000000 		.4byte	.LFB124
 3895 0024 20000000 		.4byte	.LFE124-.LFB124
 3896 0028 00000000 		.4byte	.LFB125
 3897 002c 98000000 		.4byte	.LFE125-.LFB125
 3898 0030 00000000 		.4byte	.LFB126
 3899 0034 30000000 		.4byte	.LFE126-.LFB126
 3900 0038 00000000 		.4byte	0x0
 3901 003c 00000000 		.4byte	0x0
 3902              		.section	.debug_ranges,"",%progbits
 3903              	.Ldebug_ranges0:
 3904 0000 00000000 		.4byte	.LBB60
 3905 0004 02000000 		.4byte	.LBE60
 3906 0008 A2000000 		.4byte	.LBB78
 3907 000c 18010000 		.4byte	.LBE78
 3908 0010 06000000 		.4byte	.LBB77
 3909 0014 9A000000 		.4byte	.LBE77
 3910 0018 00000000 		.4byte	0x0
 3911 001c 00000000 		.4byte	0x0
 3912 0020 00000000 		.4byte	.LBB62
 3913 0024 02000000 		.4byte	.LBE62
 3914 0028 A2000000 		.4byte	.LBB76
 3915 002c 18010000 		.4byte	.LBE76
 3916 0030 06000000 		.4byte	.LBB61
 3917 0034 9A000000 		.4byte	.LBE61
 3918 0038 00000000 		.4byte	0x0
 3919 003c 00000000 		.4byte	0x0
 3920 0040 14000000 		.4byte	.LBB79
 3921 0044 54000000 		.4byte	.LBE79
 3922 0048 70000000 		.4byte	.LBB82
 3923 004c 98000000 		.4byte	.LBE82
 3924 0050 00000000 		.4byte	0x0
 3925 0054 00000000 		.4byte	0x0
 3926 0058 14000000 		.4byte	.LBB80
 3927 005c 54000000 		.4byte	.LBE80
 3928 0060 70000000 		.4byte	.LBB81
 3929 0064 98000000 		.4byte	.LBE81
 3930 0068 00000000 		.4byte	0x0
 3931 006c 00000000 		.4byte	0x0
 3932 0070 0C000000 		.4byte	.LBB83
 3933 0074 0E000000 		.4byte	.LBE83
 3934 0078 10000000 		.4byte	.LBB86
 3935 007c 16000000 		.4byte	.LBE86
 3936 0080 00000000 		.4byte	0x0
 3937 0084 00000000 		.4byte	0x0
 3938 0088 00000000 		.4byte	.LFB122
 3939 008c 14000000 		.4byte	.LFE122
 3940 0090 00000000 		.4byte	.LFB123
 3941 0094 18010000 		.4byte	.LFE123
 3942 0098 00000000 		.4byte	.LFB124
 3943 009c 20000000 		.4byte	.LFE124
 3944 00a0 00000000 		.4byte	.LFB125
 3945 00a4 98000000 		.4byte	.LFE125
 3946 00a8 00000000 		.4byte	.LFB126
 3947 00ac 30000000 		.4byte	.LFE126
 3948 00b0 00000000 		.4byte	0x0
 3949 00b4 00000000 		.4byte	0x0
 3950              		.section	.debug_str,"MS",%progbits,1
ARM GAS  C:\Users\DNIEL~1\AppData\Local\Temp\ccLOcjg8.s 			page 72


 3951              	.LASF2:
 3952 0000 73697A65 		.ascii	"size_t\000"
 3952      5F7400
 3953              	.LASF128:
 3954 0007 54494D38 		.ascii	"TIM8_UP_TIM13_IRQn\000"
 3954      5F55505F 
 3954      54494D31 
 3954      335F4952 
 3954      516E00
 3955              	.LASF22:
 3956 001a 73797374 		.ascii	"systime_t\000"
 3956      696D655F 
 3956      7400
 3957              	.LASF192:
 3958 0024 504C4C49 		.ascii	"PLLI2SCFGR\000"
 3958      32534346 
 3958      475200
 3959              	.LASF27:
 3960 002f 705F6374 		.ascii	"p_ctx\000"
 3960      7800
 3961              	.LASF18:
 3962 0035 74707269 		.ascii	"tprio_t\000"
 3962      6F5F7400 
 3963              	.LASF37:
 3964 003d 705F6D73 		.ascii	"p_msgqueue\000"
 3964      67717565 
 3964      756500
 3965              	.LASF8:
 3966 0048 696E7433 		.ascii	"int32_t\000"
 3966      325F7400 
 3967              	.LASF210:
 3968 0050 53657269 		.ascii	"SerialConfig\000"
 3968      616C436F 
 3968      6E666967 
 3968      00
 3969              	.LASF216:
 3970 005d 77726974 		.ascii	"writet\000"
 3970      657400
 3971              	.LASF194:
 3972 0064 47545052 		.ascii	"GTPR\000"
 3972      00
 3973              	.LASF228:
 3974 0069 2E2E2F2E 		.ascii	"../../../ChibiOS/os/hal/platforms/STM32/serial_lld."
 3974      2E2F2E2E 
 3974      2F436869 
 3974      62694F53 
 3974      2F6F732F 
 3975 009c 6300     		.ascii	"c\000"
 3976              	.LASF212:
 3977 009e 77726974 		.ascii	"write\000"
 3977      6500
 3978              	.LASF141:
 3979 00a4 444D4132 		.ascii	"DMA2_Stream1_IRQn\000"
 3979      5F537472 
 3979      65616D31 
 3979      5F495251 
 3979      6E00
ARM GAS  C:\Users\DNIEL~1\AppData\Local\Temp\ccLOcjg8.s 			page 73


 3980              	.LASF135:
 3981 00b6 53504933 		.ascii	"SPI3_IRQn\000"
 3981      5F495251 
 3981      6E00
 3982              	.LASF88:
 3983 00c0 464C4153 		.ascii	"FLASH_IRQn\000"
 3983      485F4952 
 3983      516E00
 3984              	.LASF162:
 3985 00cb 44434D49 		.ascii	"DCMI_IRQn\000"
 3985      5F495251 
 3985      6E00
 3986              	.LASF56:
 3987 00d5 656C5F66 		.ascii	"el_flags\000"
 3987      6C616773 
 3987      00
 3988              	.LASF218:
 3989 00de 636F6E66 		.ascii	"config\000"
 3989      696700
 3990              	.LASF202:
 3991 00e5 73746174 		.ascii	"state\000"
 3991      6500
 3992              	.LASF214:
 3993 00eb 70757474 		.ascii	"putt\000"
 3993      00
 3994              	.LASF112:
 3995 00f0 54494D32 		.ascii	"TIM2_IRQn\000"
 3995      5F495251 
 3995      6E00
 3996              	.LASF222:
 3997 00fa 73657276 		.ascii	"serve_interrupt\000"
 3997      655F696E 
 3997      74657272 
 3997      75707400 
 3998              	.LASF220:
 3999 010a 7365745F 		.ascii	"set_error\000"
 3999      6572726F 
 3999      7200
 4000              	.LASF148:
 4001 0114 43414E32 		.ascii	"CAN2_RX0_IRQn\000"
 4001      5F525830 
 4001      5F495251 
 4001      6E00
 4002              	.LASF155:
 4003 0122 55534152 		.ascii	"USART6_IRQn\000"
 4003      54365F49 
 4003      52516E00 
 4004              	.LASF50:
 4005 012e 6D5F6F77 		.ascii	"m_owner\000"
 4005      6E657200 
 4006              	.LASF60:
 4007 0136 65786974 		.ascii	"exitcode\000"
 4007      636F6465 
 4007      00
 4008              	.LASF160:
 4009 013f 4F54475F 		.ascii	"OTG_HS_WKUP_IRQn\000"
 4009      48535F57 
ARM GAS  C:\Users\DNIEL~1\AppData\Local\Temp\ccLOcjg8.s 			page 74


 4009      4B55505F 
 4009      4952516E 
 4009      00
 4010              	.LASF68:
 4011 0150 715F746F 		.ascii	"q_top\000"
 4011      7000
 4012              	.LASF62:
 4013 0156 65776D61 		.ascii	"ewmask\000"
 4013      736B00
 4014              	.LASF127:
 4015 015d 54494D38 		.ascii	"TIM8_BRK_TIM12_IRQn\000"
 4015      5F42524B 
 4015      5F54494D 
 4015      31325F49 
 4015      52516E00 
 4016              	.LASF183:
 4017 0171 41484232 		.ascii	"AHB2LPENR\000"
 4017      4C50454E 
 4017      5200
 4018              	.LASF217:
 4019 017b 72656164 		.ascii	"readt\000"
 4019      7400
 4020              	.LASF224:
 4021 0181 73645F6C 		.ascii	"sd_lld_start\000"
 4021      6C645F73 
 4021      74617274 
 4021      00
 4022              	.LASF67:
 4023 018e 715F6275 		.ascii	"q_buffer\000"
 4023      66666572 
 4023      00
 4024              	.LASF71:
 4025 0197 715F6E6F 		.ascii	"q_notify\000"
 4025      74696679 
 4025      00
 4026              	.LASF28:
 4027 01a0 705F6E65 		.ascii	"p_newer\000"
 4027      77657200 
 4028              	.LASF9:
 4029 01a8 6C6F6E67 		.ascii	"long int\000"
 4029      20696E74 
 4029      00
 4030              	.LASF24:
 4031 01b1 705F6E65 		.ascii	"p_next\000"
 4031      787400
 4032              	.LASF70:
 4033 01b8 715F7264 		.ascii	"q_rdptr\000"
 4033      70747200 
 4034              	.LASF25:
 4035 01c0 705F7072 		.ascii	"p_prev\000"
 4035      657600
 4036              	.LASF233:
 4037 01c7 64656661 		.ascii	"default_config\000"
 4037      756C745F 
 4037      636F6E66 
 4037      696700
 4038              	.LASF152:
ARM GAS  C:\Users\DNIEL~1\AppData\Local\Temp\ccLOcjg8.s 			page 75


 4039 01d6 444D4132 		.ascii	"DMA2_Stream5_IRQn\000"
 4039      5F537472 
 4039      65616D35 
 4039      5F495251 
 4039      6E00
 4040              	.LASF15:
 4041 01e8 74737461 		.ascii	"tstate_t\000"
 4041      74655F74 
 4041      00
 4042              	.LASF40:
 4043 01f1 705F6D74 		.ascii	"p_mtxlist\000"
 4043      786C6973 
 4043      7400
 4044              	.LASF110:
 4045 01fb 54494D31 		.ascii	"TIM1_TRG_COM_TIM11_IRQn\000"
 4045      5F545247 
 4045      5F434F4D 
 4045      5F54494D 
 4045      31315F49 
 4046              	.LASF204:
 4047 0213 6F717565 		.ascii	"oqueue\000"
 4047      756500
 4048              	.LASF45:
 4049 021a 72656761 		.ascii	"regarm_t\000"
 4049      726D5F74 
 4049      00
 4050              	.LASF180:
 4051 0223 41504232 		.ascii	"APB2ENR\000"
 4051      454E5200 
 4052              	.LASF182:
 4053 022b 41484231 		.ascii	"AHB1LPENR\000"
 4053      4C50454E 
 4053      5200
 4054              	.LASF83:
 4055 0235 53797354 		.ascii	"SysTick_IRQn\000"
 4055      69636B5F 
 4055      4952516E 
 4055      00
 4056              	.LASF123:
 4057 0242 55534152 		.ascii	"USART3_IRQn\000"
 4057      54335F49 
 4057      52516E00 
 4058              	.LASF205:
 4059 024e 75736172 		.ascii	"usart\000"
 4059      7400
 4060              	.LASF1:
 4061 0254 7369676E 		.ascii	"signed char\000"
 4061      65642063 
 4061      68617200 
 4062              	.LASF34:
 4063 0260 705F7072 		.ascii	"p_preempt\000"
 4063      65656D70 
 4063      7400
 4064              	.LASF3:
 4065 026a 75696E74 		.ascii	"uint8_t\000"
 4065      385F7400 
 4066              	.LASF20:
ARM GAS  C:\Users\DNIEL~1\AppData\Local\Temp\ccLOcjg8.s 			page 76


 4067 0272 6576656E 		.ascii	"eventmask_t\000"
 4067      746D6173 
 4067      6B5F7400 
 4068              	.LASF47:
 4069 027e 636F6E74 		.ascii	"context\000"
 4069      65787400 
 4070              	.LASF97:
 4071 0286 444D4131 		.ascii	"DMA1_Stream2_IRQn\000"
 4071      5F537472 
 4071      65616D32 
 4071      5F495251 
 4071      6E00
 4072              	.LASF171:
 4073 0298 52455345 		.ascii	"RESERVED0\000"
 4073      52564544 
 4073      3000
 4074              	.LASF174:
 4075 02a2 52455345 		.ascii	"RESERVED1\000"
 4075      52564544 
 4075      3100
 4076              	.LASF4:
 4077 02ac 756E7369 		.ascii	"unsigned char\000"
 4077      676E6564 
 4077      20636861 
 4077      7200
 4078              	.LASF144:
 4079 02ba 444D4132 		.ascii	"DMA2_Stream4_IRQn\000"
 4079      5F537472 
 4079      65616D34 
 4079      5F495251 
 4079      6E00
 4080              	.LASF185:
 4081 02cc 52455345 		.ascii	"RESERVED4\000"
 4081      52564544 
 4081      3400
 4082              	.LASF72:
 4083 02d6 715F6C69 		.ascii	"q_link\000"
 4083      6E6B00
 4084              	.LASF190:
 4085 02dd 52455345 		.ascii	"RESERVED6\000"
 4085      52564544 
 4085      3600
 4086              	.LASF116:
 4087 02e7 49324331 		.ascii	"I2C1_ER_IRQn\000"
 4087      5F45525F 
 4087      4952516E 
 4087      00
 4088              	.LASF150:
 4089 02f4 43414E32 		.ascii	"CAN2_SCE_IRQn\000"
 4089      5F534345 
 4089      5F495251 
 4089      6E00
 4090              	.LASF196:
 4091 0302 53445F55 		.ascii	"SD_UNINIT\000"
 4091      4E494E49 
 4091      5400
 4092              	.LASF178:
ARM GAS  C:\Users\DNIEL~1\AppData\Local\Temp\ccLOcjg8.s 			page 77


 4093 030c 52455345 		.ascii	"RESERVED2\000"
 4093      52564544 
 4093      3200
 4094              	.LASF181:
 4095 0316 52455345 		.ascii	"RESERVED3\000"
 4095      52564544 
 4095      3300
 4096              	.LASF134:
 4097 0320 54494D35 		.ascii	"TIM5_IRQn\000"
 4097      5F495251 
 4097      6E00
 4098              	.LASF188:
 4099 032a 52455345 		.ascii	"RESERVED5\000"
 4099      52564544 
 4099      3500
 4100              	.LASF79:
 4101 0334 55736167 		.ascii	"UsageFault_IRQn\000"
 4101      65466175 
 4101      6C745F49 
 4101      52516E00 
 4102              	.LASF63:
 4103 0344 63686172 		.ascii	"char\000"
 4103      00
 4104              	.LASF26:
 4105 0349 705F7072 		.ascii	"p_prio\000"
 4105      696F00
 4106              	.LASF176:
 4107 0350 41484232 		.ascii	"AHB2ENR\000"
 4107      454E5200 
 4108              	.LASF64:
 4109 0358 47656E65 		.ascii	"GenericQueue\000"
 4109      72696351 
 4109      75657565 
 4109      00
 4110              	.LASF61:
 4111 0365 77746F62 		.ascii	"wtobjp\000"
 4111      6A7000
 4112              	.LASF104:
 4113 036c 43414E31 		.ascii	"CAN1_RX0_IRQn\000"
 4113      5F525830 
 4113      5F495251 
 4113      6E00
 4114              	.LASF215:
 4115 037a 67657474 		.ascii	"gett\000"
 4115      00
 4116              	.LASF195:
 4117 037f 55534152 		.ascii	"USART_TypeDef\000"
 4117      545F5479 
 4117      70654465 
 4117      6600
 4118              	.LASF75:
 4119 038d 4F757470 		.ascii	"OutputQueue\000"
 4119      75745175 
 4119      65756500 
 4120              	.LASF114:
 4121 0399 54494D34 		.ascii	"TIM4_IRQn\000"
 4121      5F495251 
ARM GAS  C:\Users\DNIEL~1\AppData\Local\Temp\ccLOcjg8.s 			page 78


 4121      6E00
 4122              	.LASF122:
 4123 03a3 55534152 		.ascii	"USART2_IRQn\000"
 4123      54325F49 
 4123      52516E00 
 4124              	.LASF189:
 4125 03af 42444352 		.ascii	"BDCR\000"
 4125      00
 4126              	.LASF115:
 4127 03b4 49324331 		.ascii	"I2C1_EV_IRQn\000"
 4127      5F45565F 
 4127      4952516E 
 4127      00
 4128              	.LASF46:
 4129 03c1 696E7463 		.ascii	"intctx\000"
 4129      747800
 4130              	.LASF39:
 4131 03c8 705F6570 		.ascii	"p_epending\000"
 4131      656E6469 
 4131      6E6700
 4132              	.LASF167:
 4133 03d3 43464752 		.ascii	"CFGR\000"
 4133      00
 4134              	.LASF111:
 4135 03d8 54494D31 		.ascii	"TIM1_CC_IRQn\000"
 4135      5F43435F 
 4135      4952516E 
 4135      00
 4136              	.LASF164:
 4137 03e5 48415348 		.ascii	"HASH_RNG_IRQn\000"
 4137      5F524E47 
 4137      5F495251 
 4137      6E00
 4138              	.LASF91:
 4139 03f3 45585449 		.ascii	"EXTI1_IRQn\000"
 4139      315F4952 
 4139      516E00
 4140              	.LASF103:
 4141 03fe 43414E31 		.ascii	"CAN1_TX_IRQn\000"
 4141      5F54585F 
 4141      4952516E 
 4141      00
 4142              	.LASF100:
 4143 040b 444D4131 		.ascii	"DMA1_Stream5_IRQn\000"
 4143      5F537472 
 4143      65616D35 
 4143      5F495251 
 4143      6E00
 4144              	.LASF129:
 4145 041d 54494D38 		.ascii	"TIM8_TRG_COM_TIM14_IRQn\000"
 4145      5F545247 
 4145      5F434F4D 
 4145      5F54494D 
 4145      31345F49 
 4146              	.LASF58:
 4147 0435 65735F6E 		.ascii	"es_next\000"
 4147      65787400 
ARM GAS  C:\Users\DNIEL~1\AppData\Local\Temp\ccLOcjg8.s 			page 79


 4148              	.LASF66:
 4149 043d 715F636F 		.ascii	"q_counter\000"
 4149      756E7465 
 4149      7200
 4150              	.LASF151:
 4151 0447 4F54475F 		.ascii	"OTG_FS_IRQn\000"
 4151      46535F49 
 4151      52516E00 
 4152              	.LASF76:
 4153 0453 4E6F6E4D 		.ascii	"NonMaskableInt_IRQn\000"
 4153      61736B61 
 4153      626C6549 
 4153      6E745F49 
 4153      52516E00 
 4154              	.LASF132:
 4155 0467 46534D43 		.ascii	"FSMC_IRQn\000"
 4155      5F495251 
 4155      6E00
 4156              	.LASF57:
 4157 0471 4576656E 		.ascii	"EventSource\000"
 4157      74536F75 
 4157      72636500 
 4158              	.LASF84:
 4159 047d 57574447 		.ascii	"WWDG_IRQn\000"
 4159      5F495251 
 4159      6E00
 4160              	.LASF11:
 4161 0487 6C6F6E67 		.ascii	"long unsigned int\000"
 4161      20756E73 
 4161      69676E65 
 4161      6420696E 
 4161      7400
 4162              	.LASF77:
 4163 0499 4D656D6F 		.ascii	"MemoryManagement_IRQn\000"
 4163      72794D61 
 4163      6E616765 
 4163      6D656E74 
 4163      5F495251 
 4164              	.LASF86:
 4165 04af 54414D50 		.ascii	"TAMP_STAMP_IRQn\000"
 4165      5F535441 
 4165      4D505F49 
 4165      52516E00 
 4166              	.LASF106:
 4167 04bf 43414E31 		.ascii	"CAN1_SCE_IRQn\000"
 4167      5F534345 
 4167      5F495251 
 4167      6E00
 4168              	.LASF53:
 4169 04cd 656C5F6E 		.ascii	"el_next\000"
 4169      65787400 
 4170              	.LASF69:
 4171 04d5 715F7772 		.ascii	"q_wrptr\000"
 4171      70747200 
 4172              	.LASF211:
 4173 04dd 53657269 		.ascii	"SerialDriverVMT\000"
 4173      616C4472 
ARM GAS  C:\Users\DNIEL~1\AppData\Local\Temp\ccLOcjg8.s 			page 80


 4173      69766572 
 4173      564D5400 
 4174              	.LASF221:
 4175 04ed 75736172 		.ascii	"usart_deinit\000"
 4175      745F6465 
 4175      696E6974 
 4175      00
 4176              	.LASF118:
 4177 04fa 49324332 		.ascii	"I2C2_ER_IRQn\000"
 4177      5F45525F 
 4177      4952516E 
 4177      00
 4178              	.LASF78:
 4179 0507 42757346 		.ascii	"BusFault_IRQn\000"
 4179      61756C74 
 4179      5F495251 
 4179      6E00
 4180              	.LASF232:
 4181 0515 73645F6C 		.ascii	"sd_lld_init\000"
 4181      6C645F69 
 4181      6E697400 
 4182              	.LASF166:
 4183 0521 504C4C43 		.ascii	"PLLCFGR\000"
 4183      46475200 
 4184              	.LASF137:
 4185 0529 55415254 		.ascii	"UART5_IRQn\000"
 4185      355F4952 
 4185      516E00
 4186              	.LASF108:
 4187 0534 54494D31 		.ascii	"TIM1_BRK_TIM9_IRQn\000"
 4187      5F42524B 
 4187      5F54494D 
 4187      395F4952 
 4187      516E00
 4188              	.LASF207:
 4189 0547 73635F63 		.ascii	"sc_cr1\000"
 4189      723100
 4190              	.LASF208:
 4191 054e 73635F63 		.ascii	"sc_cr2\000"
 4191      723200
 4192              	.LASF209:
 4193 0555 73635F63 		.ascii	"sc_cr3\000"
 4193      723300
 4194              	.LASF48:
 4195 055c 4D757465 		.ascii	"Mutex\000"
 4195      7800
 4196              	.LASF139:
 4197 0562 54494D37 		.ascii	"TIM7_IRQn\000"
 4197      5F495251 
 4197      6E00
 4198              	.LASF12:
 4199 056c 6C6F6E67 		.ascii	"long long int\000"
 4199      206C6F6E 
 4199      6720696E 
 4199      7400
 4200              	.LASF146:
 4201 057a 4554485F 		.ascii	"ETH_WKUP_IRQn\000"
ARM GAS  C:\Users\DNIEL~1\AppData\Local\Temp\ccLOcjg8.s 			page 81


 4201      574B5550 
 4201      5F495251 
 4201      6E00
 4202              	.LASF120:
 4203 0588 53504932 		.ascii	"SPI2_IRQn\000"
 4203      5F495251 
 4203      6E00
 4204              	.LASF161:
 4205 0592 4F54475F 		.ascii	"OTG_HS_IRQn\000"
 4205      48535F49 
 4205      52516E00 
 4206              	.LASF49:
 4207 059e 6D5F7175 		.ascii	"m_queue\000"
 4207      65756500 
 4208              	.LASF191:
 4209 05a6 53534347 		.ascii	"SSCGR\000"
 4209      5200
 4210              	.LASF119:
 4211 05ac 53504931 		.ascii	"SPI1_IRQn\000"
 4211      5F495251 
 4211      6E00
 4212              	.LASF80:
 4213 05b6 53564361 		.ascii	"SVCall_IRQn\000"
 4213      6C6C5F49 
 4213      52516E00 
 4214              	.LASF173:
 4215 05c2 41504232 		.ascii	"APB2RSTR\000"
 4215      52535452 
 4215      00
 4216              	.LASF165:
 4217 05cb 4650555F 		.ascii	"FPU_IRQn\000"
 4217      4952516E 
 4217      00
 4218              	.LASF136:
 4219 05d4 55415254 		.ascii	"UART4_IRQn\000"
 4219      345F4952 
 4219      516E00
 4220              	.LASF187:
 4221 05df 41504232 		.ascii	"APB2LPENR\000"
 4221      4C50454E 
 4221      5200
 4222              	.LASF73:
 4223 05e9 716E6F74 		.ascii	"qnotify_t\000"
 4223      6966795F 
 4223      7400
 4224              	.LASF229:
 4225 05f3 433A5C55 		.ascii	"C:\\Users\\D\341niel\\Dropbox\\Solar Racing\\Szoftv"
 4225      73657273 
 4225      5C44E16E 
 4225      69656C5C 
 4225      44726F70 
 4226 061e 65725C53 		.ascii	"er\\Smarty\\Smarty_v6\\smarty\\firmware\000"
 4226      6D617274 
 4226      795C536D 
 4226      61727479 
 4226      5F76365C 
 4227              	.LASF36:
ARM GAS  C:\Users\DNIEL~1\AppData\Local\Temp\ccLOcjg8.s 			page 82


 4228 0642 705F7761 		.ascii	"p_waiting\000"
 4228      6974696E 
 4228      6700
 4229              	.LASF140:
 4230 064c 444D4132 		.ascii	"DMA2_Stream0_IRQn\000"
 4230      5F537472 
 4230      65616D30 
 4230      5F495251 
 4230      6E00
 4231              	.LASF201:
 4232 065e 6576656E 		.ascii	"event\000"
 4232      7400
 4233              	.LASF126:
 4234 0664 4F54475F 		.ascii	"OTG_FS_WKUP_IRQn\000"
 4234      46535F57 
 4234      4B55505F 
 4234      4952516E 
 4234      00
 4235              	.LASF32:
 4236 0675 705F666C 		.ascii	"p_flags\000"
 4236      61677300 
 4237              	.LASF213:
 4238 067d 72656164 		.ascii	"read\000"
 4238      00
 4239              	.LASF0:
 4240 0682 756E7369 		.ascii	"unsigned int\000"
 4240      676E6564 
 4240      20696E74 
 4240      00
 4241              	.LASF138:
 4242 068f 54494D36 		.ascii	"TIM6_DAC_IRQn\000"
 4242      5F444143 
 4242      5F495251 
 4242      6E00
 4243              	.LASF42:
 4244 069d 705F6D70 		.ascii	"p_mpool\000"
 4244      6F6F6C00 
 4245              	.LASF117:
 4246 06a5 49324332 		.ascii	"I2C2_EV_IRQn\000"
 4246      5F45565F 
 4246      4952516E 
 4246      00
 4247              	.LASF33:
 4248 06b2 705F7265 		.ascii	"p_refs\000"
 4248      667300
 4249              	.LASF206:
 4250 06b9 73635F73 		.ascii	"sc_speed\000"
 4250      70656564 
 4250      00
 4251              	.LASF44:
 4252 06c2 54687265 		.ascii	"ThreadsList\000"
 4252      6164734C 
 4252      69737400 
 4253              	.LASF186:
 4254 06ce 41504231 		.ascii	"APB1LPENR\000"
 4254      4C50454E 
 4254      5200
ARM GAS  C:\Users\DNIEL~1\AppData\Local\Temp\ccLOcjg8.s 			page 83


 4255              	.LASF96:
 4256 06d8 444D4131 		.ascii	"DMA1_Stream1_IRQn\000"
 4256      5F537472 
 4256      65616D31 
 4256      5F495251 
 4256      6E00
 4257              	.LASF21:
 4258 06ea 666C6167 		.ascii	"flagsmask_t\000"
 4258      736D6173 
 4258      6B5F7400 
 4259              	.LASF143:
 4260 06f6 444D4132 		.ascii	"DMA2_Stream3_IRQn\000"
 4260      5F537472 
 4260      65616D33 
 4260      5F495251 
 4260      6E00
 4261              	.LASF147:
 4262 0708 43414E32 		.ascii	"CAN2_TX_IRQn\000"
 4262      5F54585F 
 4262      4952516E 
 4262      00
 4263              	.LASF35:
 4264 0715 705F7469 		.ascii	"p_time\000"
 4264      6D6500
 4265              	.LASF230:
 4266 071c 4952516E 		.ascii	"IRQn\000"
 4266      00
 4267              	.LASF101:
 4268 0721 444D4131 		.ascii	"DMA1_Stream6_IRQn\000"
 4268      5F537472 
 4268      65616D36 
 4268      5F495251 
 4268      6E00
 4269              	.LASF170:
 4270 0733 41484233 		.ascii	"AHB3RSTR\000"
 4270      52535452 
 4270      00
 4271              	.LASF41:
 4272 073c 705F7265 		.ascii	"p_realprio\000"
 4272      616C7072 
 4272      696F00
 4273              	.LASF154:
 4274 0747 444D4132 		.ascii	"DMA2_Stream7_IRQn\000"
 4274      5F537472 
 4274      65616D37 
 4274      5F495251 
 4274      6E00
 4275              	.LASF95:
 4276 0759 444D4131 		.ascii	"DMA1_Stream0_IRQn\000"
 4276      5F537472 
 4276      65616D30 
 4276      5F495251 
 4276      6E00
 4277              	.LASF172:
 4278 076b 41504231 		.ascii	"APB1RSTR\000"
 4278      52535452 
 4278      00
ARM GAS  C:\Users\DNIEL~1\AppData\Local\Temp\ccLOcjg8.s 			page 84


 4279              	.LASF219:
 4280 0774 75736172 		.ascii	"usart_init\000"
 4280      745F696E 
 4280      697400
 4281              	.LASF125:
 4282 077f 5254435F 		.ascii	"RTC_Alarm_IRQn\000"
 4282      416C6172 
 4282      6D5F4952 
 4282      516E00
 4283              	.LASF179:
 4284 078e 41504231 		.ascii	"APB1ENR\000"
 4284      454E5200 
 4285              	.LASF157:
 4286 0796 49324333 		.ascii	"I2C3_ER_IRQn\000"
 4286      5F45525F 
 4286      4952516E 
 4286      00
 4287              	.LASF163:
 4288 07a3 43525950 		.ascii	"CRYP_IRQn\000"
 4288      5F495251 
 4288      6E00
 4289              	.LASF227:
 4290 07ad 474E5520 		.ascii	"GNU C 4.5.2\000"
 4290      4320342E 
 4290      352E3200 
 4291              	.LASF13:
 4292 07b9 6C6F6E67 		.ascii	"long long unsigned int\000"
 4292      206C6F6E 
 4292      6720756E 
 4292      7369676E 
 4292      65642069 
 4293              	.LASF29:
 4294 07d0 705F6F6C 		.ascii	"p_older\000"
 4294      64657200 
 4295              	.LASF6:
 4296 07d8 75696E74 		.ascii	"uint16_t\000"
 4296      31365F74 
 4296      00
 4297              	.LASF19:
 4298 07e1 6D73675F 		.ascii	"msg_t\000"
 4298      7400
 4299              	.LASF124:
 4300 07e7 45585449 		.ascii	"EXTI15_10_IRQn\000"
 4300      31355F31 
 4300      305F4952 
 4300      516E00
 4301              	.LASF113:
 4302 07f6 54494D33 		.ascii	"TIM3_IRQn\000"
 4302      5F495251 
 4302      6E00
 4303              	.LASF121:
 4304 0800 55534152 		.ascii	"USART1_IRQn\000"
 4304      54315F49 
 4304      52516E00 
 4305              	.LASF17:
 4306 080c 74736C69 		.ascii	"tslices_t\000"
 4306      6365735F 
ARM GAS  C:\Users\DNIEL~1\AppData\Local\Temp\ccLOcjg8.s 			page 85


 4306      7400
 4307              	.LASF92:
 4308 0816 45585449 		.ascii	"EXTI2_IRQn\000"
 4308      325F4952 
 4308      516E00
 4309              	.LASF149:
 4310 0821 43414E32 		.ascii	"CAN2_RX1_IRQn\000"
 4310      5F525831 
 4310      5F495251 
 4310      6E00
 4311              	.LASF102:
 4312 082f 4144435F 		.ascii	"ADC_IRQn\000"
 4312      4952516E 
 4312      00
 4313              	.LASF184:
 4314 0838 41484233 		.ascii	"AHB3LPENR\000"
 4314      4C50454E 
 4314      5200
 4315              	.LASF85:
 4316 0842 5056445F 		.ascii	"PVD_IRQn\000"
 4316      4952516E 
 4316      00
 4317              	.LASF200:
 4318 084b 53657269 		.ascii	"SerialDriver\000"
 4318      616C4472 
 4318      69766572 
 4318      00
 4319              	.LASF65:
 4320 0858 715F7761 		.ascii	"q_waiting\000"
 4320      6974696E 
 4320      6700
 4321              	.LASF90:
 4322 0862 45585449 		.ascii	"EXTI0_IRQn\000"
 4322      305F4952 
 4322      516E00
 4323              	.LASF14:
 4324 086d 746D6F64 		.ascii	"tmode_t\000"
 4324      655F7400 
 4325              	.LASF99:
 4326 0875 444D4131 		.ascii	"DMA1_Stream4_IRQn\000"
 4326      5F537472 
 4326      65616D34 
 4326      5F495251 
 4326      6E00
 4327              	.LASF199:
 4328 0887 73647374 		.ascii	"sdstate_t\000"
 4328      6174655F 
 4328      7400
 4329              	.LASF153:
 4330 0891 444D4132 		.ascii	"DMA2_Stream6_IRQn\000"
 4330      5F537472 
 4330      65616D36 
 4330      5F495251 
 4330      6E00
 4331              	.LASF175:
 4332 08a3 41484231 		.ascii	"AHB1ENR\000"
 4332      454E5200 
ARM GAS  C:\Users\DNIEL~1\AppData\Local\Temp\ccLOcjg8.s 			page 86


 4333              	.LASF81:
 4334 08ab 44656275 		.ascii	"DebugMonitor_IRQn\000"
 4334      674D6F6E 
 4334      69746F72 
 4334      5F495251 
 4334      6E00
 4335              	.LASF198:
 4336 08bd 53445F52 		.ascii	"SD_READY\000"
 4336      45414459 
 4336      00
 4337              	.LASF156:
 4338 08c6 49324333 		.ascii	"I2C3_EV_IRQn\000"
 4338      5F45565F 
 4338      4952516E 
 4338      00
 4339              	.LASF169:
 4340 08d3 41484232 		.ascii	"AHB2RSTR\000"
 4340      52535452 
 4340      00
 4341              	.LASF145:
 4342 08dc 4554485F 		.ascii	"ETH_IRQn\000"
 4342      4952516E 
 4342      00
 4343              	.LASF231:
 4344 08e5 6E6F7469 		.ascii	"notify1\000"
 4344      66793100 
 4345              	.LASF193:
 4346 08ed 5243435F 		.ascii	"RCC_TypeDef\000"
 4346      54797065 
 4346      44656600 
 4347              	.LASF5:
 4348 08f9 73686F72 		.ascii	"short int\000"
 4348      7420696E 
 4348      7400
 4349              	.LASF89:
 4350 0903 5243435F 		.ascii	"RCC_IRQn\000"
 4350      4952516E 
 4350      00
 4351              	.LASF203:
 4352 090c 69717565 		.ascii	"iqueue\000"
 4352      756500
 4353              	.LASF98:
 4354 0913 444D4131 		.ascii	"DMA1_Stream3_IRQn\000"
 4354      5F537472 
 4354      65616D33 
 4354      5F495251 
 4354      6E00
 4355              	.LASF23:
 4356 0925 54687265 		.ascii	"Thread\000"
 4356      616400
 4357              	.LASF109:
 4358 092c 54494D31 		.ascii	"TIM1_UP_TIM10_IRQn\000"
 4358      5F55505F 
 4358      54494D31 
 4358      305F4952 
 4358      516E00
 4359              	.LASF226:
ARM GAS  C:\Users\DNIEL~1\AppData\Local\Temp\ccLOcjg8.s 			page 87


 4360 093f 49544D5F 		.ascii	"ITM_RxBuffer\000"
 4360      52784275 
 4360      66666572 
 4360      00
 4361              	.LASF16:
 4362 094c 74726566 		.ascii	"trefs_t\000"
 4362      735F7400 
 4363              	.LASF158:
 4364 0954 4F54475F 		.ascii	"OTG_HS_EP1_OUT_IRQn\000"
 4364      48535F45 
 4364      50315F4F 
 4364      55545F49 
 4364      52516E00 
 4365              	.LASF87:
 4366 0968 5254435F 		.ascii	"RTC_WKUP_IRQn\000"
 4366      574B5550 
 4366      5F495251 
 4366      6E00
 4367              	.LASF52:
 4368 0976 4576656E 		.ascii	"EventListener\000"
 4368      744C6973 
 4368      74656E65 
 4368      7200
 4369              	.LASF10:
 4370 0984 75696E74 		.ascii	"uint32_t\000"
 4370      33325F74 
 4370      00
 4371              	.LASF223:
 4372 098d 56656374 		.ascii	"VectorD4\000"
 4372      6F724434 
 4372      00
 4373              	.LASF105:
 4374 0996 43414E31 		.ascii	"CAN1_RX1_IRQn\000"
 4374      5F525831 
 4374      5F495251 
 4374      6E00
 4375              	.LASF43:
 4376 09a4 54687265 		.ascii	"ThreadsQueue\000"
 4376      61647351 
 4376      75657565 
 4376      00
 4377              	.LASF107:
 4378 09b1 45585449 		.ascii	"EXTI9_5_IRQn\000"
 4378      395F355F 
 4378      4952516E 
 4378      00
 4379              	.LASF59:
 4380 09be 7264796D 		.ascii	"rdymsg\000"
 4380      736700
 4381              	.LASF94:
 4382 09c5 45585449 		.ascii	"EXTI4_IRQn\000"
 4382      345F4952 
 4382      516E00
 4383              	.LASF7:
 4384 09d0 73686F72 		.ascii	"short unsigned int\000"
 4384      7420756E 
 4384      7369676E 
ARM GAS  C:\Users\DNIEL~1\AppData\Local\Temp\ccLOcjg8.s 			page 88


 4384      65642069 
 4384      6E7400
 4385              	.LASF225:
 4386 09e3 73645F6C 		.ascii	"sd_lld_stop\000"
 4386      6C645F73 
 4386      746F7000 
 4387              	.LASF130:
 4388 09ef 54494D38 		.ascii	"TIM8_CC_IRQn\000"
 4388      5F43435F 
 4388      4952516E 
 4388      00
 4389              	.LASF133:
 4390 09fc 5344494F 		.ascii	"SDIO_IRQn\000"
 4390      5F495251 
 4390      6E00
 4391              	.LASF74:
 4392 0a06 496E7075 		.ascii	"InputQueue\000"
 4392      74517565 
 4392      756500
 4393              	.LASF93:
 4394 0a11 45585449 		.ascii	"EXTI3_IRQn\000"
 4394      335F4952 
 4394      516E00
 4395              	.LASF82:
 4396 0a1c 50656E64 		.ascii	"PendSV_IRQn\000"
 4396      53565F49 
 4396      52516E00 
 4397              	.LASF159:
 4398 0a28 4F54475F 		.ascii	"OTG_HS_EP1_IN_IRQn\000"
 4398      48535F45 
 4398      50315F49 
 4398      4E5F4952 
 4398      516E00
 4399              	.LASF131:
 4400 0a3b 444D4131 		.ascii	"DMA1_Stream7_IRQn\000"
 4400      5F537472 
 4400      65616D37 
 4400      5F495251 
 4400      6E00
 4401              	.LASF168:
 4402 0a4d 41484231 		.ascii	"AHB1RSTR\000"
 4402      52535452 
 4402      00
 4403              	.LASF197:
 4404 0a56 53445F53 		.ascii	"SD_STOP\000"
 4404      544F5000 
 4405              	.LASF55:
 4406 0a5e 656C5F6D 		.ascii	"el_mask\000"
 4406      61736B00 
 4407              	.LASF30:
 4408 0a66 705F6E61 		.ascii	"p_name\000"
 4408      6D6500
 4409              	.LASF51:
 4410 0a6d 6D5F6E65 		.ascii	"m_next\000"
 4410      787400
 4411              	.LASF177:
 4412 0a74 41484233 		.ascii	"AHB3ENR\000"
ARM GAS  C:\Users\DNIEL~1\AppData\Local\Temp\ccLOcjg8.s 			page 89


 4412      454E5200 
 4413              	.LASF142:
 4414 0a7c 444D4132 		.ascii	"DMA2_Stream2_IRQn\000"
 4414      5F537472 
 4414      65616D32 
 4414      5F495251 
 4414      6E00
 4415              	.LASF38:
 4416 0a8e 705F6D73 		.ascii	"p_msg\000"
 4416      6700
 4417              	.LASF54:
 4418 0a94 656C5F6C 		.ascii	"el_listener\000"
 4418      69737465 
 4418      6E657200 
 4419              	.LASF31:
 4420 0aa0 705F7374 		.ascii	"p_state\000"
 4420      61746500 
 4421              		.ident	"GCC: (Sourcery G++ Lite 2011.03-42) 4.5.2"
ARM GAS  C:\Users\DNIEL~1\AppData\Local\Temp\ccLOcjg8.s 			page 90


DEFINED SYMBOLS
                            *ABS*:00000000 serial_lld.c
C:\Users\DNIEL~1\AppData\Local\Temp\ccLOcjg8.s:24     .text.notify1:00000000 $t
C:\Users\DNIEL~1\AppData\Local\Temp\ccLOcjg8.s:29     .text.notify1:00000000 notify1
C:\Users\DNIEL~1\AppData\Local\Temp\ccLOcjg8.s:50     .text.notify1:00000010 $d
C:\Users\DNIEL~1\AppData\Local\Temp\ccLOcjg8.s:55     .text.VectorD4:00000000 $t
C:\Users\DNIEL~1\AppData\Local\Temp\ccLOcjg8.s:61     .text.VectorD4:00000000 VectorD4
C:\Users\DNIEL~1\AppData\Local\Temp\ccLOcjg8.s:333    .text.VectorD4:0000010c $d
C:\Users\DNIEL~1\AppData\Local\Temp\ccLOcjg8.s:343    .text.sd_lld_init:00000000 $t
C:\Users\DNIEL~1\AppData\Local\Temp\ccLOcjg8.s:349    .text.sd_lld_init:00000000 sd_lld_init
C:\Users\DNIEL~1\AppData\Local\Temp\ccLOcjg8.s:374    .text.sd_lld_init:00000014 $d
C:\Users\DNIEL~1\AppData\Local\Temp\ccLOcjg8.s:381    .text.sd_lld_start:00000000 $t
C:\Users\DNIEL~1\AppData\Local\Temp\ccLOcjg8.s:387    .text.sd_lld_start:00000000 sd_lld_start
C:\Users\DNIEL~1\AppData\Local\Temp\ccLOcjg8.s:497    .text.sd_lld_start:00000080 $d
C:\Users\DNIEL~1\AppData\Local\Temp\ccLOcjg8.s:509    .text.sd_lld_stop:00000000 $t
C:\Users\DNIEL~1\AppData\Local\Temp\ccLOcjg8.s:515    .text.sd_lld_stop:00000000 sd_lld_stop
C:\Users\DNIEL~1\AppData\Local\Temp\ccLOcjg8.s:572    .text.sd_lld_stop:00000028 $d
C:\Users\DNIEL~1\AppData\Local\Temp\ccLOcjg8.s:594    .bss.SD1:00000000 SD1
C:\Users\DNIEL~1\AppData\Local\Temp\ccLOcjg8.s:579    .rodata.default_config:00000000 $d
C:\Users\DNIEL~1\AppData\Local\Temp\ccLOcjg8.s:583    .rodata.default_config:00000000 default_config
C:\Users\DNIEL~1\AppData\Local\Temp\ccLOcjg8.s:590    .bss.SD1:00000000 $d
                     .debug_frame:00000010 $d
C:\Users\DNIEL~1\AppData\Local\Temp\ccLOcjg8.s:54     .text.notify1:00000014 $t
C:\Users\DNIEL~1\AppData\Local\Temp\ccLOcjg8.s:342    .text.VectorD4:00000118 $t
C:\Users\DNIEL~1\AppData\Local\Temp\ccLOcjg8.s:508    .text.sd_lld_start:00000098 $t

UNDEFINED SYMBOLS
chEvtBroadcastFlagsI
_port_irq_epilogue
sdIncomingDataI
chOQGetI
sdObjectInit
nvicEnableVector
nvicDisableVector
