ARM GAS  C:\Users\DNIEL~1\AppData\Local\Temp\ccoAgWPg.s 			page 1


   1              		.syntax unified
   2              		.cpu cortex-m4
   3              		.fpu softvfp
   4              		.eabi_attribute 20, 1
   5              		.eabi_attribute 21, 1
   6              		.eabi_attribute 23, 3
   7              		.eabi_attribute 24, 1
   8              		.eabi_attribute 25, 1
   9              		.eabi_attribute 26, 1
  10              		.eabi_attribute 30, 2
  11              		.eabi_attribute 34, 1
  12              		.eabi_attribute 18, 4
  13              		.thumb
  14              		.file	"serial_usb.c"
  15              		.text
  16              	.Ltext0:
  17              		.cfi_sections	.debug_frame
  18              		.section	.text.inotify,"ax",%progbits
  19              		.align	2
  20              		.p2align 4,,15
  21              		.thumb
  22              		.thumb_func
  23              		.type	inotify, %function
  24              	inotify:
  25              	.LFB126:
  26              		.file 1 "../../../ChibiOS/os/hal/src/serial_usb.c"
  27              		.loc 1 114 0
  28              		.cfi_startproc
  29              		@ args = 0, pretend = 0, frame = 0
  30              		@ frame_needed = 0, uses_anonymous_args = 0
  31              	.LVL0:
  32 0000 38B5     		push	{r3, r4, r5, lr}
  33              	.LCFI0:
  34              		.cfi_def_cfa_offset 16
  35              		.cfi_offset 3, -16
  36              		.cfi_offset 4, -12
  37              		.cfi_offset 5, -8
  38              		.cfi_offset 14, -4
  39              		.loc 1 116 0
  40 0002 046A     		ldr	r4, [r0, #32]
  41              	.LVL1:
  42              		.loc 1 120 0
  43 0004 D4F85432 		ldr	r3, [r4, #596]
  44 0008 1A68     		ldr	r2, [r3, #0]
  45 000a 1078     		ldrb	r0, [r2, #0]	@ zero_extendqisi2
  46              	.LVL2:
  47 000c 0428     		cmp	r0, #4
  48 000e 00D0     		beq	.L4
  49              	.L1:
  50 0010 38BD     		pop	{r3, r4, r5, pc}
  51              	.L4:
  52              		.loc 1 127 0
  53 0012 D189     		ldrh	r1, [r2, #14]
  54              		.loc 1 126 0
  55 0014 5269     		ldr	r2, [r2, #20]
  56              		.loc 1 127 0
  57 0016 01F00203 		and	r3, r1, #2
ARM GAS  C:\Users\DNIEL~1\AppData\Local\Temp\ccoAgWPg.s 			page 2


  58 001a 9BB2     		uxth	r3, r3
  59              		.loc 1 126 0
  60 001c 528A     		ldrh	r2, [r2, #18]
  61              	.LVL3:
  62              		.loc 1 127 0
  63 001e 002B     		cmp	r3, #0
  64 0020 F6D1     		bne	.L1
  65              		.loc 1 128 0 discriminator 1
  66 0022 04F11405 		add	r5, r4, #20
  67 0026 23CD     		ldmia	r5, {r0, r1, r5}
  68 0028 691A     		subs	r1, r5, r1
  69 002a 091A     		subs	r1, r1, r0
  70              	.LVL4:
  71              		.loc 1 127 0 discriminator 1
  72 002c 8A42     		cmp	r2, r1
  73 002e EFD8     		bhi	.L1
  74              	.LBB2:
  75              		.loc 1 129 0
  76              	@ 129 "../../../ChibiOS/os/hal/src/serial_usb.c" 1
  77 0030 83F31188 		msr     BASEPRI, r3
  78              	@ 0 "" 2
  79              	.LVL5:
  80              		.thumb
  81              	.LBE2:
  82              		.loc 1 132 0
  83 0034 D4F85402 		ldr	r0, [r4, #596]
  84              		.loc 1 131 0
  85 0038 B1FBF2F3 		udiv	r3, r1, r2
  86              	.LVL6:
  87              		.loc 1 132 0
  88 003c 02FB03F3 		mul	r3, r2, r3
  89              	.LVL7:
  90 0040 0068     		ldr	r0, [r0, #0]
  91 0042 0121     		movs	r1, #1
  92 0044 04F10C02 		add	r2, r4, #12
  93              	.LVL8:
  94 0048 FFF7FEFF 		bl	usbPrepareQueuedReceive
  95              	.LVL9:
  96              	.LBB3:
  97              		.loc 1 136 0
  98 004c 2023     		movs	r3, #32
  99              	.LVL10:
 100              	@ 136 "../../../ChibiOS/os/hal/src/serial_usb.c" 1
 101 004e 83F31188 		msr     BASEPRI, r3
 102              	@ 0 "" 2
 103              	.LVL11:
 104              		.thumb
 105              	.LBE3:
 106              		.loc 1 137 0
 107 0052 D4F85432 		ldr	r3, [r4, #596]
 108              	.LVL12:
 109 0056 1868     		ldr	r0, [r3, #0]
 110 0058 0121     		movs	r1, #1
 111              		.loc 1 139 0
 112 005a BDE83840 		pop	{r3, r4, r5, lr}
 113              		.loc 1 137 0
 114 005e FFF7FEBF 		b	usbStartReceiveI
ARM GAS  C:\Users\DNIEL~1\AppData\Local\Temp\ccoAgWPg.s 			page 3


 115              	.LVL13:
 116              		.cfi_endproc
 117              	.LFE126:
 118              		.size	inotify, .-inotify
 119 0062 00BFAFF3 		.section	.text.onotify,"ax",%progbits
 119      0080AFF3 
 119      0080AFF3 
 119      0080
 120              		.align	2
 121              		.p2align 4,,15
 122              		.thumb
 123              		.thumb_func
 124              		.type	onotify, %function
 125              	onotify:
 126              	.LFB127:
 127              		.loc 1 144 0
 128              		.cfi_startproc
 129              		@ args = 0, pretend = 0, frame = 0
 130              		@ frame_needed = 0, uses_anonymous_args = 0
 131              	.LVL14:
 132 0000 10B5     		push	{r4, lr}
 133              	.LCFI1:
 134              		.cfi_def_cfa_offset 8
 135              		.cfi_offset 4, -8
 136              		.cfi_offset 14, -4
 137              		.loc 1 146 0
 138 0002 046A     		ldr	r4, [r0, #32]
 139              	.LVL15:
 140              		.loc 1 150 0
 141 0004 D4F85432 		ldr	r3, [r4, #596]
 142 0008 1868     		ldr	r0, [r3, #0]
 143              	.LVL16:
 144 000a 0278     		ldrb	r2, [r0, #0]	@ zero_extendqisi2
 145 000c 042A     		cmp	r2, #4
 146 000e 00D0     		beq	.L10
 147              	.L5:
 148 0010 10BD     		pop	{r4, pc}
 149              	.L10:
 150              		.loc 1 155 0
 151 0012 8189     		ldrh	r1, [r0, #12]
 152 0014 01F00203 		and	r3, r1, #2
 153 0018 9BB2     		uxth	r3, r3
 154 001a 002B     		cmp	r3, #0
 155 001c F8D1     		bne	.L5
 156              		.loc 1 156 0 discriminator 1
 157 001e E16B     		ldr	r1, [r4, #60]
 158 0020 206C     		ldr	r0, [r4, #64]
 159 0022 A26B     		ldr	r2, [r4, #56]
 160 0024 401A     		subs	r0, r0, r1
 161              	.LVL17:
 162              		.loc 1 155 0 discriminator 1
 163 0026 811A     		subs	r1, r0, r2
 164              	.LVL18:
 165 0028 F2D0     		beq	.L5
 166              	.LBB4:
 167              		.loc 1 157 0
 168              	@ 157 "../../../ChibiOS/os/hal/src/serial_usb.c" 1
ARM GAS  C:\Users\DNIEL~1\AppData\Local\Temp\ccoAgWPg.s 			page 4


 169 002a 83F31188 		msr     BASEPRI, r3
 170              	@ 0 "" 2
 171              	.LVL19:
 172              		.thumb
 173              	.LBE4:
 174              		.loc 1 159 0
 175 002e D4F85422 		ldr	r2, [r4, #596]
 176 0032 0B46     		mov	r3, r1
 177              	.LVL20:
 178 0034 1068     		ldr	r0, [r2, #0]
 179 0036 0121     		movs	r1, #1
 180              	.LVL21:
 181 0038 04F13002 		add	r2, r4, #48
 182 003c FFF7FEFF 		bl	usbPrepareQueuedTransmit
 183              	.LVL22:
 184              	.LBB5:
 185              		.loc 1 163 0
 186 0040 2023     		movs	r3, #32
 187              	.LVL23:
 188              	@ 163 "../../../ChibiOS/os/hal/src/serial_usb.c" 1
 189 0042 83F31188 		msr     BASEPRI, r3
 190              	@ 0 "" 2
 191              	.LVL24:
 192              		.thumb
 193              	.LBE5:
 194              		.loc 1 164 0
 195 0046 D4F85432 		ldr	r3, [r4, #596]
 196              	.LVL25:
 197 004a 1868     		ldr	r0, [r3, #0]
 198 004c 0121     		movs	r1, #1
 199              		.loc 1 166 0
 200 004e BDE81040 		pop	{r4, lr}
 201              		.loc 1 164 0
 202 0052 FFF7FEBF 		b	usbStartTransmitI
 203              	.LVL26:
 204              		.cfi_endproc
 205              	.LFE127:
 206              		.size	onotify, .-onotify
 207 0056 00BFAFF3 		.section	.text.readt,"ax",%progbits
 207      0080AFF3 
 207      0080
 208              		.align	2
 209              		.p2align 4,,15
 210              		.thumb
 211              		.thumb_func
 212              		.type	readt, %function
 213              	readt:
 214              	.LFB125:
 215              		.loc 1 101 0
 216              		.cfi_startproc
 217              		@ args = 0, pretend = 0, frame = 0
 218              		@ frame_needed = 0, uses_anonymous_args = 0
 219              		@ link register save eliminated.
 220              	.LVL27:
 221              		.loc 1 103 0
 222 0000 0C30     		adds	r0, r0, #12
 223              	.LVL28:
ARM GAS  C:\Users\DNIEL~1\AppData\Local\Temp\ccoAgWPg.s 			page 5


 224              		.loc 1 104 0
 225              		.loc 1 103 0
 226 0002 FFF7FEBF 		b	chIQReadTimeout
 227              	.LVL29:
 228              		.cfi_endproc
 229              	.LFE125:
 230              		.size	readt, .-readt
 231 0006 00BFAFF3 		.section	.text.read,"ax",%progbits
 231      0080AFF3 
 231      0080
 232              		.align	2
 233              		.p2align 4,,15
 234              		.thumb
 235              		.thumb_func
 236              		.type	read, %function
 237              	read:
 238              	.LFB119:
 239              		.loc 1 70 0
 240              		.cfi_startproc
 241              		@ args = 0, pretend = 0, frame = 0
 242              		@ frame_needed = 0, uses_anonymous_args = 0
 243              		@ link register save eliminated.
 244              	.LVL30:
 245              		.loc 1 72 0
 246 0000 0C30     		adds	r0, r0, #12
 247              	.LVL31:
 248 0002 4FF0FF33 		mov	r3, #-1
 249              		.loc 1 74 0
 250              		.loc 1 72 0
 251 0006 FFF7FEBF 		b	chIQReadTimeout
 252              	.LVL32:
 253              		.cfi_endproc
 254              	.LFE119:
 255              		.size	read, .-read
 256 000a 00BFAFF3 		.section	.text.writet,"ax",%progbits
 256      0080
 257              		.align	2
 258              		.p2align 4,,15
 259              		.thumb
 260              		.thumb_func
 261              		.type	writet, %function
 262              	writet:
 263              	.LFB124:
 264              		.loc 1 96 0
 265              		.cfi_startproc
 266              		@ args = 0, pretend = 0, frame = 0
 267              		@ frame_needed = 0, uses_anonymous_args = 0
 268              		@ link register save eliminated.
 269              	.LVL33:
 270              		.loc 1 98 0
 271 0000 3030     		adds	r0, r0, #48
 272              	.LVL34:
 273              		.loc 1 99 0
 274              		.loc 1 98 0
 275 0002 FFF7FEBF 		b	chOQWriteTimeout
 276              	.LVL35:
 277              		.cfi_endproc
ARM GAS  C:\Users\DNIEL~1\AppData\Local\Temp\ccoAgWPg.s 			page 6


 278              	.LFE124:
 279              		.size	writet, .-writet
 280 0006 00BFAFF3 		.section	.text.write,"ax",%progbits
 280      0080AFF3 
 280      0080
 281              		.align	2
 282              		.p2align 4,,15
 283              		.thumb
 284              		.thumb_func
 285              		.type	write, %function
 286              	write:
 287              	.LFB118:
 288              		.loc 1 64 0
 289              		.cfi_startproc
 290              		@ args = 0, pretend = 0, frame = 0
 291              		@ frame_needed = 0, uses_anonymous_args = 0
 292              		@ link register save eliminated.
 293              	.LVL36:
 294              		.loc 1 66 0
 295 0000 3030     		adds	r0, r0, #48
 296              	.LVL37:
 297 0002 4FF0FF33 		mov	r3, #-1
 298              		.loc 1 68 0
 299              		.loc 1 66 0
 300 0006 FFF7FEBF 		b	chOQWriteTimeout
 301              	.LVL38:
 302              		.cfi_endproc
 303              	.LFE118:
 304              		.size	write, .-write
 305 000a 00BFAFF3 		.section	.text.gett,"ax",%progbits
 305      0080
 306              		.align	2
 307              		.p2align 4,,15
 308              		.thumb
 309              		.thumb_func
 310              		.type	gett, %function
 311              	gett:
 312              	.LFB123:
 313              		.loc 1 91 0
 314              		.cfi_startproc
 315              		@ args = 0, pretend = 0, frame = 0
 316              		@ frame_needed = 0, uses_anonymous_args = 0
 317              		@ link register save eliminated.
 318              	.LVL39:
 319              		.loc 1 93 0
 320 0000 0C30     		adds	r0, r0, #12
 321              	.LVL40:
 322              		.loc 1 94 0
 323              		.loc 1 93 0
 324 0002 FFF7FEBF 		b	chIQGetTimeout
 325              	.LVL41:
 326              		.cfi_endproc
 327              	.LFE123:
 328              		.size	gett, .-gett
 329 0006 00BFAFF3 		.section	.text.get,"ax",%progbits
 329      0080AFF3 
 329      0080
ARM GAS  C:\Users\DNIEL~1\AppData\Local\Temp\ccoAgWPg.s 			page 7


 330              		.align	2
 331              		.p2align 4,,15
 332              		.thumb
 333              		.thumb_func
 334              		.type	get, %function
 335              	get:
 336              	.LFB121:
 337              		.loc 1 81 0
 338              		.cfi_startproc
 339              		@ args = 0, pretend = 0, frame = 0
 340              		@ frame_needed = 0, uses_anonymous_args = 0
 341              		@ link register save eliminated.
 342              	.LVL42:
 343              		.loc 1 83 0
 344 0000 0C30     		adds	r0, r0, #12
 345              	.LVL43:
 346 0002 4FF0FF31 		mov	r1, #-1
 347              		.loc 1 84 0
 348              		.loc 1 83 0
 349 0006 FFF7FEBF 		b	chIQGetTimeout
 350              	.LVL44:
 351              		.cfi_endproc
 352              	.LFE121:
 353              		.size	get, .-get
 354 000a 00BFAFF3 		.section	.text.putt,"ax",%progbits
 354      0080
 355              		.align	2
 356              		.p2align 4,,15
 357              		.thumb
 358              		.thumb_func
 359              		.type	putt, %function
 360              	putt:
 361              	.LFB122:
 362              		.loc 1 86 0
 363              		.cfi_startproc
 364              		@ args = 0, pretend = 0, frame = 0
 365              		@ frame_needed = 0, uses_anonymous_args = 0
 366              		@ link register save eliminated.
 367              	.LVL45:
 368              		.loc 1 88 0
 369 0000 3030     		adds	r0, r0, #48
 370              	.LVL46:
 371              		.loc 1 89 0
 372              		.loc 1 88 0
 373 0002 FFF7FEBF 		b	chOQPutTimeout
 374              	.LVL47:
 375              		.cfi_endproc
 376              	.LFE122:
 377              		.size	putt, .-putt
 378 0006 00BFAFF3 		.section	.text.put,"ax",%progbits
 378      0080AFF3 
 378      0080
 379              		.align	2
 380              		.p2align 4,,15
 381              		.thumb
 382              		.thumb_func
 383              		.type	put, %function
ARM GAS  C:\Users\DNIEL~1\AppData\Local\Temp\ccoAgWPg.s 			page 8


 384              	put:
 385              	.LFB120:
 386              		.loc 1 76 0
 387              		.cfi_startproc
 388              		@ args = 0, pretend = 0, frame = 0
 389              		@ frame_needed = 0, uses_anonymous_args = 0
 390              		@ link register save eliminated.
 391              	.LVL48:
 392              		.loc 1 78 0
 393 0000 3030     		adds	r0, r0, #48
 394              	.LVL49:
 395 0002 4FF0FF32 		mov	r2, #-1
 396              		.loc 1 79 0
 397              		.loc 1 78 0
 398 0006 FFF7FEBF 		b	chOQPutTimeout
 399              	.LVL50:
 400              		.cfi_endproc
 401              	.LFE120:
 402              		.size	put, .-put
 403 000a 00BFAFF3 		.section	.text.sduInit,"ax",%progbits
 403      0080
 404              		.align	2
 405              		.p2align 4,,15
 406              		.global	sduInit
 407              		.thumb
 408              		.thumb_func
 409              		.type	sduInit, %function
 410              	sduInit:
 411              	.LFB128:
 412              		.loc 1 179 0
 413              		.cfi_startproc
 414              		@ args = 0, pretend = 0, frame = 0
 415              		@ frame_needed = 0, uses_anonymous_args = 0
 416              		@ link register save eliminated.
 417 0000 7047     		bx	lr
 418              		.cfi_endproc
 419              	.LFE128:
 420              		.size	sduInit, .-sduInit
 421 0002 00BFAFF3 		.section	.text.sduObjectInit,"ax",%progbits
 421      0080AFF3 
 421      0080AFF3 
 421      0080
 422              		.align	2
 423              		.p2align 4,,15
 424              		.global	sduObjectInit
 425              		.thumb
 426              		.thumb_func
 427              		.type	sduObjectInit, %function
 428              	sduObjectInit:
 429              	.LFB129:
 430              		.loc 1 191 0
 431              		.cfi_startproc
 432              		@ args = 0, pretend = 0, frame = 0
 433              		@ frame_needed = 0, uses_anonymous_args = 0
 434              	.LVL51:
 435              		.loc 1 191 0
 436 0000 30B5     		push	{r4, r5, lr}
ARM GAS  C:\Users\DNIEL~1\AppData\Local\Temp\ccoAgWPg.s 			page 9


 437              	.LCFI2:
 438              		.cfi_def_cfa_offset 12
 439              		.cfi_offset 4, -12
 440              		.cfi_offset 5, -8
 441              		.cfi_offset 14, -4
 442              		.loc 1 193 0
 443 0002 40F20003 		movw	r3, #:lower16:.LANCHOR0
 444 0006 0546     		mov	r5, r0
 445 0008 C0F20003 		movt	r3, #:upper16:.LANCHOR0
 446              		.loc 1 191 0
 447 000c 0446     		mov	r4, r0
 448              		.loc 1 193 0
 449 000e 45F8043B 		str	r3, [r5], #4
 450              		.loc 1 191 0
 451 0012 83B0     		sub	sp, sp, #12
 452              	.LCFI3:
 453              		.cfi_def_cfa_offset 24
 454              		.loc 1 194 0
 455 0014 6560     		str	r5, [r4, #4]
 456              		.loc 1 196 0
 457 0016 40F20003 		movw	r3, #:lower16:inotify
 458              		.loc 1 195 0
 459 001a 0125     		movs	r5, #1
 460              		.loc 1 196 0
 461 001c 04F15401 		add	r1, r4, #84
 462              		.loc 1 195 0
 463 0020 2572     		strb	r5, [r4, #8]
 464              		.loc 1 196 0
 465 0022 00F10C00 		add	r0, r0, #12
 466              	.LVL52:
 467 0026 4FF48072 		mov	r2, #256
 468 002a C0F20003 		movt	r3, #:upper16:inotify
 469 002e 0094     		str	r4, [sp, #0]
 470 0030 FFF7FEFF 		bl	chIQInit
 471              	.LVL53:
 472              		.loc 1 197 0
 473 0034 40F20003 		movw	r3, #:lower16:onotify
 474 0038 0094     		str	r4, [sp, #0]
 475 003a 04F13000 		add	r0, r4, #48
 476 003e 04F5AA71 		add	r1, r4, #340
 477 0042 4FF48072 		mov	r2, #256
 478 0046 C0F20003 		movt	r3, #:upper16:onotify
 479 004a FFF7FEFF 		bl	chOQInit
 480              	.LVL54:
 481              		.loc 1 198 0
 482 004e 03B0     		add	sp, sp, #12
 483 0050 30BD     		pop	{r4, r5, pc}
 484              		.cfi_endproc
 485              	.LFE129:
 486              		.size	sduObjectInit, .-sduObjectInit
 487 0052 00BFAFF3 		.section	.text.sduStart,"ax",%progbits
 487      0080AFF3 
 487      0080AFF3 
 487      0080
 488              		.align	2
 489              		.p2align 4,,15
 490              		.global	sduStart
ARM GAS  C:\Users\DNIEL~1\AppData\Local\Temp\ccoAgWPg.s 			page 10


 491              		.thumb
 492              		.thumb_func
 493              		.type	sduStart, %function
 494              	sduStart:
 495              	.LFB130:
 496              		.loc 1 208 0
 497              		.cfi_startproc
 498              		@ args = 0, pretend = 0, frame = 0
 499              		@ frame_needed = 0, uses_anonymous_args = 0
 500              		@ link register save eliminated.
 501              	.LVL55:
 502              	.LBB6:
 503              		.loc 1 212 0
 504 0000 2023     		movs	r3, #32
 505              	.LVL56:
 506              	@ 212 "../../../ChibiOS/os/hal/src/serial_usb.c" 1
 507 0002 83F31188 		msr     BASEPRI, r3
 508              	@ 0 "" 2
 509              	.LVL57:
 510              		.thumb
 511              	.LBE6:
 512              		.loc 1 217 0
 513 0006 0B68     		ldr	r3, [r1, #0]
 514              	.LVL58:
 515              		.loc 1 216 0
 516 0008 C0F85412 		str	r1, [r0, #596]
 517              		.loc 1 218 0
 518 000c 0222     		movs	r2, #2
 519              		.loc 1 217 0
 520 000e 9860     		str	r0, [r3, #8]
 521              	.LBB7:
 522              		.loc 1 219 0
 523 0010 0023     		movs	r3, #0
 524              	.LVL59:
 525              	.LBE7:
 526              		.loc 1 218 0
 527 0012 0272     		strb	r2, [r0, #8]
 528              	.LBB8:
 529              		.loc 1 219 0
 530              	@ 219 "../../../ChibiOS/os/hal/src/serial_usb.c" 1
 531 0014 83F31188 		msr     BASEPRI, r3
 532              	@ 0 "" 2
 533              	.LVL60:
 534              		.thumb
 535 0018 7047     		bx	lr
 536              	.LBE8:
 537              		.cfi_endproc
 538              	.LFE130:
 539              		.size	sduStart, .-sduStart
 540 001a 00BFAFF3 		.section	.text.sduStop,"ax",%progbits
 540      0080
 541              		.align	2
 542              		.p2align 4,,15
 543              		.global	sduStop
 544              		.thumb
 545              		.thumb_func
 546              		.type	sduStop, %function
ARM GAS  C:\Users\DNIEL~1\AppData\Local\Temp\ccoAgWPg.s 			page 11


 547              	sduStop:
 548              	.LFB131:
 549              		.loc 1 231 0
 550              		.cfi_startproc
 551              		@ args = 0, pretend = 0, frame = 0
 552              		@ frame_needed = 0, uses_anonymous_args = 0
 553              		@ link register save eliminated.
 554              	.LVL61:
 555              	.LBB9:
 556              		.loc 1 235 0
 557 0000 2023     		movs	r3, #32
 558              	.LVL62:
 559              	@ 235 "../../../ChibiOS/os/hal/src/serial_usb.c" 1
 560 0002 83F31188 		msr     BASEPRI, r3
 561              	@ 0 "" 2
 562              	.LVL63:
 563              		.thumb
 564              	.LBE9:
 565              		.loc 1 239 0
 566 0006 0123     		movs	r3, #1
 567              	.LVL64:
 568 0008 0372     		strb	r3, [r0, #8]
 569              	.LBB10:
 570              		.loc 1 240 0
 571 000a 0023     		movs	r3, #0
 572              	.LVL65:
 573              	@ 240 "../../../ChibiOS/os/hal/src/serial_usb.c" 1
 574 000c 83F31188 		msr     BASEPRI, r3
 575              	@ 0 "" 2
 576              	.LVL66:
 577              		.thumb
 578 0010 7047     		bx	lr
 579              	.LBE10:
 580              		.cfi_endproc
 581              	.LFE131:
 582              		.size	sduStop, .-sduStop
 583 0012 00BFAFF3 		.section	.text.sduConfigureHookI,"ax",%progbits
 583      0080AFF3 
 583      0080AFF3 
 583      0080
 584              		.align	2
 585              		.p2align 4,,15
 586              		.global	sduConfigureHookI
 587              		.thumb
 588              		.thumb_func
 589              		.type	sduConfigureHookI, %function
 590              	sduConfigureHookI:
 591              	.LFB132:
 592              		.loc 1 250 0
 593              		.cfi_startproc
 594              		@ args = 0, pretend = 0, frame = 0
 595              		@ frame_needed = 0, uses_anonymous_args = 0
 596              	.LVL67:
 597 0000 70B5     		push	{r4, r5, r6, lr}
 598              	.LCFI4:
 599              		.cfi_def_cfa_offset 16
 600              		.cfi_offset 4, -16
ARM GAS  C:\Users\DNIEL~1\AppData\Local\Temp\ccoAgWPg.s 			page 12


 601              		.cfi_offset 5, -12
 602              		.cfi_offset 6, -8
 603              		.cfi_offset 14, -4
 604              		.loc 1 251 0
 605 0002 8568     		ldr	r5, [r0, #8]
 606              	.LVL68:
 607              		.loc 1 253 0
 608 0004 05F10C06 		add	r6, r5, #12
 609              		.loc 1 250 0
 610 0008 0446     		mov	r4, r0
 611              		.loc 1 253 0
 612 000a 3046     		mov	r0, r6
 613              	.LVL69:
 614 000c FFF7FEFF 		bl	chIQResetI
 615              	.LVL70:
 616              		.loc 1 254 0
 617 0010 05F13000 		add	r0, r5, #48
 618 0014 FFF7FEFF 		bl	chOQResetI
 619              	.LVL71:
 620              		.loc 1 255 0
 621 0018 281D     		adds	r0, r5, #4
 622 001a 0121     		movs	r1, #1
 623 001c FFF7FEFF 		bl	chEvtBroadcastFlagsI
 624              	.LVL72:
 625              		.loc 1 259 0
 626 0020 6369     		ldr	r3, [r4, #20]
 627              		.loc 1 258 0
 628 0022 0121     		movs	r1, #1
 629 0024 2046     		mov	r0, r4
 630 0026 3246     		mov	r2, r6
 631 0028 5B8A     		ldrh	r3, [r3, #18]
 632 002a FFF7FEFF 		bl	usbPrepareQueuedReceive
 633              	.LVL73:
 634              		.loc 1 260 0
 635 002e 2046     		mov	r0, r4
 636 0030 0121     		movs	r1, #1
 637              		.loc 1 261 0
 638 0032 BDE87040 		pop	{r4, r5, r6, lr}
 639              		.loc 1 260 0
 640 0036 FFF7FEBF 		b	usbStartReceiveI
 641              	.LVL74:
 642              		.cfi_endproc
 643              	.LFE132:
 644              		.size	sduConfigureHookI, .-sduConfigureHookI
 645 003a 00BFAFF3 		.section	.text.sduRequestsHook,"ax",%progbits
 645      0080
 646              		.align	2
 647              		.p2align 4,,15
 648              		.global	sduRequestsHook
 649              		.thumb
 650              		.thumb_func
 651              		.type	sduRequestsHook, %function
 652              	sduRequestsHook:
 653              	.LFB133:
 654              		.loc 1 278 0
 655              		.cfi_startproc
 656              		@ args = 0, pretend = 0, frame = 0
ARM GAS  C:\Users\DNIEL~1\AppData\Local\Temp\ccoAgWPg.s 			page 13


 657              		@ frame_needed = 0, uses_anonymous_args = 0
 658              		@ link register save eliminated.
 659              	.LVL75:
 660              		.loc 1 280 0
 661 0000 90F83030 		ldrb	r3, [r0, #48]	@ zero_extendqisi2
 662 0004 03F06001 		and	r1, r3, #96
 663 0008 2029     		cmp	r1, #32
 664 000a 01D0     		beq	.L32
 665              	.L31:
 666              		.loc 1 293 0
 667 000c 0020     		movs	r0, #0
 668              	.LVL76:
 669              		.loc 1 297 0
 670 000e 7047     		bx	lr
 671              	.LVL77:
 672              	.L32:
 673              		.loc 1 281 0
 674 0010 90F83120 		ldrb	r2, [r0, #49]	@ zero_extendqisi2
 675 0014 212A     		cmp	r2, #33
 676 0016 03D0     		beq	.L26
 677 0018 222A     		cmp	r2, #34
 678 001a 09D0     		beq	.L28
 679 001c 202A     		cmp	r2, #32
 680 001e F5D1     		bne	.L31
 681              	.L26:
 682              		.loc 1 286 0
 683 0020 0649     		ldr	r1, .L33
 684 0022 0722     		movs	r2, #7
 685 0024 0023     		movs	r3, #0
 686 0026 4162     		str	r1, [r0, #36]
 687 0028 8262     		str	r2, [r0, #40]
 688 002a C362     		str	r3, [r0, #44]
 689              		.loc 1 287 0
 690 002c 0120     		movs	r0, #1
 691              	.LVL78:
 692 002e 7047     		bx	lr
 693              	.LVL79:
 694              	.L28:
 695              		.loc 1 290 0
 696 0030 0023     		movs	r3, #0
 697 0032 4362     		str	r3, [r0, #36]
 698 0034 8362     		str	r3, [r0, #40]
 699 0036 C362     		str	r3, [r0, #44]
 700              		.loc 1 291 0
 701 0038 0120     		movs	r0, #1
 702              	.LVL80:
 703 003a 7047     		bx	lr
 704              	.L34:
 705              		.align	2
 706              	.L33:
 707 003c 00000000 		.word	.LANCHOR1
 708              		.cfi_endproc
 709              	.LFE133:
 710              		.size	sduRequestsHook, .-sduRequestsHook
 711              		.section	.text.sduDataTransmitted,"ax",%progbits
 712              		.align	2
 713              		.p2align 4,,15
ARM GAS  C:\Users\DNIEL~1\AppData\Local\Temp\ccoAgWPg.s 			page 14


 714              		.global	sduDataTransmitted
 715              		.thumb
 716              		.thumb_func
 717              		.type	sduDataTransmitted, %function
 718              	sduDataTransmitted:
 719              	.LFB134:
 720              		.loc 1 307 0
 721              		.cfi_startproc
 722              		@ args = 0, pretend = 0, frame = 0
 723              		@ frame_needed = 0, uses_anonymous_args = 0
 724              	.LVL81:
 725 0000 70B5     		push	{r4, r5, r6, lr}
 726              	.LCFI5:
 727              		.cfi_def_cfa_offset 16
 728              		.cfi_offset 4, -16
 729              		.cfi_offset 5, -12
 730              		.cfi_offset 6, -8
 731              		.cfi_offset 14, -4
 732              	.LBB11:
 733              		.loc 1 313 0
 734 0002 2023     		movs	r3, #32
 735              	.LVL82:
 736              	.LBE11:
 737              		.loc 1 307 0
 738 0004 0546     		mov	r5, r0
 739 0006 0E46     		mov	r6, r1
 740              		.loc 1 309 0
 741 0008 8468     		ldr	r4, [r0, #8]
 742              	.LVL83:
 743              	.LBB12:
 744              		.loc 1 313 0
 745              	@ 313 "../../../ChibiOS/os/hal/src/serial_usb.c" 1
 746 000a 83F31188 		msr     BASEPRI, r3
 747              	@ 0 "" 2
 748              	.LVL84:
 749              		.thumb
 750              	.LBE12:
 751              		.loc 1 314 0
 752 000e 0821     		movs	r1, #8
 753              	.LVL85:
 754 0010 201D     		adds	r0, r4, #4
 755              	.LVL86:
 756 0012 FFF7FEFF 		bl	chEvtBroadcastFlagsI
 757              	.LVL87:
 758              		.loc 1 316 0
 759 0016 216C     		ldr	r1, [r4, #64]
 760 0018 E26B     		ldr	r2, [r4, #60]
 761 001a A36B     		ldr	r3, [r4, #56]
 762 001c 881A     		subs	r0, r1, r2
 763              	.LVL88:
 764 001e C11A     		subs	r1, r0, r3
 765              	.LVL89:
 766 0020 1CD1     		bne	.L39
 767              		.loc 1 326 0
 768 0022 321D     		adds	r2, r6, #4
 769 0024 55F82230 		ldr	r3, [r5, r2, lsl #2]
 770 0028 5869     		ldr	r0, [r3, #20]
ARM GAS  C:\Users\DNIEL~1\AppData\Local\Temp\ccoAgWPg.s 			page 15


 771              		.loc 1 327 0
 772 002a 198A     		ldrh	r1, [r3, #16]
 773              	.LVL90:
 774              		.loc 1 326 0
 775 002c 4368     		ldr	r3, [r0, #4]
 776              		.loc 1 327 0
 777 002e 4A1E     		subs	r2, r1, #1
 778              		.loc 1 326 0
 779 0030 1340     		ands	r3, r2, r3
 780 0032 03D0     		beq	.L40
 781              	.LVL91:
 782              	.L37:
 783              	.LBB13:
 784              		.loc 1 340 0
 785 0034 0023     		movs	r3, #0
 786              	.LVL92:
 787              	@ 340 "../../../ChibiOS/os/hal/src/serial_usb.c" 1
 788 0036 83F31188 		msr     BASEPRI, r3
 789              	@ 0 "" 2
 790              	.LVL93:
 791              		.thumb
 792 003a 70BD     		pop	{r4, r5, r6, pc}
 793              	.LVL94:
 794              	.L40:
 795              	.LBE13:
 796              	.LBB14:
 797              		.loc 1 332 0
 798              	@ 332 "../../../ChibiOS/os/hal/src/serial_usb.c" 1
 799 003c 83F31188 		msr     BASEPRI, r3
 800              	@ 0 "" 2
 801              	.LVL95:
 802              		.thumb
 803              	.L38:
 804              	.LBE14:
 805              		.loc 1 334 0
 806 0040 2846     		mov	r0, r5
 807 0042 3146     		mov	r1, r6
 808 0044 04F13002 		add	r2, r4, #48
 809 0048 FFF7FEFF 		bl	usbPrepareQueuedTransmit
 810              	.LVL96:
 811              	.LBB15:
 812              		.loc 1 336 0
 813 004c 2023     		movs	r3, #32
 814              	.LVL97:
 815              	@ 336 "../../../ChibiOS/os/hal/src/serial_usb.c" 1
 816 004e 83F31188 		msr     BASEPRI, r3
 817              	@ 0 "" 2
 818              	.LVL98:
 819              		.thumb
 820              	.LBE15:
 821              		.loc 1 337 0
 822 0052 2846     		mov	r0, r5
 823 0054 3146     		mov	r1, r6
 824 0056 FFF7FEFF 		bl	usbStartTransmitI
 825              	.LVL99:
 826 005a EBE7     		b	.L37
 827              	.LVL100:
ARM GAS  C:\Users\DNIEL~1\AppData\Local\Temp\ccoAgWPg.s 			page 16


 828              	.L39:
 829              	.LBB16:
 830              		.loc 1 319 0
 831 005c 0023     		movs	r3, #0
 832              	.LVL101:
 833              	@ 319 "../../../ChibiOS/os/hal/src/serial_usb.c" 1
 834 005e 83F31188 		msr     BASEPRI, r3
 835              	@ 0 "" 2
 836              	.LVL102:
 837              		.thumb
 838              	.LBE16:
 839              		.loc 1 321 0
 840 0062 0B46     		mov	r3, r1
 841              	.LVL103:
 842 0064 ECE7     		b	.L38
 843              		.cfi_endproc
 844              	.LFE134:
 845              		.size	sduDataTransmitted, .-sduDataTransmitted
 846 0066 00BFAFF3 		.section	.text.sduDataReceived,"ax",%progbits
 846      0080AFF3 
 846      0080
 847              		.align	2
 848              		.p2align 4,,15
 849              		.global	sduDataReceived
 850              		.thumb
 851              		.thumb_func
 852              		.type	sduDataReceived, %function
 853              	sduDataReceived:
 854              	.LFB135:
 855              		.loc 1 351 0
 856              		.cfi_startproc
 857              		@ args = 0, pretend = 0, frame = 0
 858              		@ frame_needed = 0, uses_anonymous_args = 0
 859              	.LVL104:
 860 0000 F8B5     		push	{r3, r4, r5, r6, r7, lr}
 861              	.LCFI6:
 862              		.cfi_def_cfa_offset 24
 863              		.cfi_offset 3, -24
 864              		.cfi_offset 4, -20
 865              		.cfi_offset 5, -16
 866              		.cfi_offset 6, -12
 867              		.cfi_offset 7, -8
 868              		.cfi_offset 14, -4
 869              		.loc 1 351 0
 870 0002 0546     		mov	r5, r0
 871 0004 0F46     		mov	r7, r1
 872              		.loc 1 353 0
 873 0006 8468     		ldr	r4, [r0, #8]
 874              	.LVL105:
 875              	.LBB17:
 876              		.loc 1 357 0
 877 0008 2023     		movs	r3, #32
 878              	.LVL106:
 879              	@ 357 "../../../ChibiOS/os/hal/src/serial_usb.c" 1
 880 000a 83F31188 		msr     BASEPRI, r3
 881              	@ 0 "" 2
 882              	.LVL107:
ARM GAS  C:\Users\DNIEL~1\AppData\Local\Temp\ccoAgWPg.s 			page 17


 883              		.thumb
 884              	.LBE17:
 885              		.loc 1 358 0
 886 000e 0421     		movs	r1, #4
 887              	.LVL108:
 888 0010 6018     		adds	r0, r4, r1
 889              	.LVL109:
 890 0012 FFF7FEFF 		bl	chEvtBroadcastFlagsI
 891              	.LVL110:
 892              		.loc 1 362 0
 893 0016 6A69     		ldr	r2, [r5, #20]
 894              		.loc 1 363 0
 895 0018 A069     		ldr	r0, [r4, #24]
 896 001a E669     		ldr	r6, [r4, #28]
 897 001c 6369     		ldr	r3, [r4, #20]
 898              		.loc 1 362 0
 899 001e 518A     		ldrh	r1, [r2, #18]
 900              	.LVL111:
 901              		.loc 1 363 0
 902 0020 321A     		subs	r2, r6, r0
 903 0022 D01A     		subs	r0, r2, r3
 904              	.LVL112:
 905 0024 8142     		cmp	r1, r0
 906 0026 13D8     		bhi	.L42
 907              	.LBB18:
 908              		.loc 1 366 0
 909 0028 0023     		movs	r3, #0
 910              	.LVL113:
 911              	@ 366 "../../../ChibiOS/os/hal/src/serial_usb.c" 1
 912 002a 83F31188 		msr     BASEPRI, r3
 913              	@ 0 "" 2
 914              	.LVL114:
 915              		.thumb
 916              	.LBE18:
 917              		.loc 1 368 0
 918 002e B0FBF1F3 		udiv	r3, r0, r1
 919              	.LVL115:
 920              		.loc 1 369 0
 921 0032 01FB03F3 		mul	r3, r1, r3
 922              	.LVL116:
 923 0036 2846     		mov	r0, r5
 924 0038 3946     		mov	r1, r7
 925              	.LVL117:
 926 003a 04F10C02 		add	r2, r4, #12
 927 003e FFF7FEFF 		bl	usbPrepareQueuedReceive
 928              	.LVL118:
 929              	.LBB19:
 930              		.loc 1 371 0
 931 0042 2023     		movs	r3, #32
 932              	.LVL119:
 933              	@ 371 "../../../ChibiOS/os/hal/src/serial_usb.c" 1
 934 0044 83F31188 		msr     BASEPRI, r3
 935              	@ 0 "" 2
 936              	.LVL120:
 937              		.thumb
 938              	.LBE19:
 939              		.loc 1 372 0
ARM GAS  C:\Users\DNIEL~1\AppData\Local\Temp\ccoAgWPg.s 			page 18


 940 0048 2846     		mov	r0, r5
 941 004a 3946     		mov	r1, r7
 942 004c FFF7FEFF 		bl	usbStartReceiveI
 943              	.LVL121:
 944              	.L42:
 945              	.LBB20:
 946              		.loc 1 375 0
 947 0050 0023     		movs	r3, #0
 948              	.LVL122:
 949              	@ 375 "../../../ChibiOS/os/hal/src/serial_usb.c" 1
 950 0052 83F31188 		msr     BASEPRI, r3
 951              	@ 0 "" 2
 952              	.LVL123:
 953              		.thumb
 954 0056 F8BD     		pop	{r3, r4, r5, r6, r7, pc}
 955              	.LBE20:
 956              		.cfi_endproc
 957              	.LFE135:
 958              		.size	sduDataReceived, .-sduDataReceived
 959 0058 AFF30080 		.section	.text.sduInterruptTransmitted,"ax",%progbits
 959      AFF30080 
 960              		.align	2
 961              		.p2align 4,,15
 962              		.global	sduInterruptTransmitted
 963              		.thumb
 964              		.thumb_func
 965              		.type	sduInterruptTransmitted, %function
 966              	sduInterruptTransmitted:
 967              	.LFB136:
 968              		.loc 1 386 0
 969              		.cfi_startproc
 970              		@ args = 0, pretend = 0, frame = 0
 971              		@ frame_needed = 0, uses_anonymous_args = 0
 972              		@ link register save eliminated.
 973              	.LVL124:
 974 0000 7047     		bx	lr
 975              		.cfi_endproc
 976              	.LFE136:
 977              		.size	sduInterruptTransmitted, .-sduInterruptTransmitted
 978 0002 00BFAFF3 		.section	.rodata.vmt,"a",%progbits
 978      0080AFF3 
 978      0080AFF3 
 978      0080
 979              		.align	2
 980              		.set	.LANCHOR0,. + 0
 981              		.type	vmt, %object
 982              		.size	vmt, 32
 983              	vmt:
 984 0000 00000000 		.word	write
 985 0004 00000000 		.word	read
 986 0008 00000000 		.word	put
 987 000c 00000000 		.word	get
 988 0010 00000000 		.word	putt
 989 0014 00000000 		.word	gett
 990 0018 00000000 		.word	writet
 991 001c 00000000 		.word	readt
 992              		.section	.data.linecoding,"aw",%progbits
ARM GAS  C:\Users\DNIEL~1\AppData\Local\Temp\ccoAgWPg.s 			page 19


 993              		.align	2
 994              		.set	.LANCHOR1,. + 0
 995              		.type	linecoding, %object
 996              		.size	linecoding, 7
 997              	linecoding:
 998 0000 00       		.byte	0
 999 0001 96       		.byte	-106
 1000 0002 00       		.byte	0
 1001 0003 00       		.byte	0
 1002 0004 00       		.byte	0
 1003 0005 00       		.byte	0
 1004 0006 08       		.byte	8
 1005 0007 00       		.text
 1006              	.Letext0:
 1007              		.file 2 "c:\\chibistudio\\tools\\gnu tools arm embedded\\4.7 2014q2\\bin\\../lib/gcc/arm-none-eabi
 1008              		.file 3 "c:\\chibistudio\\tools\\gnu tools arm embedded\\4.7 2014q2\\bin\\../lib/gcc/arm-none-eabi
 1009              		.file 4 "../../../ChibiOS/os/ports/GCC/ARMCMx/chtypes.h"
 1010              		.file 5 "../../../ChibiOS/os/kernel/include/chlists.h"
 1011              		.file 6 "../../../ChibiOS/os/kernel/include/chthreads.h"
 1012              		.file 7 "../../../ChibiOS/os/ports/GCC/ARMCMx/chcore_v7m.h"
 1013              		.file 8 "../../../ChibiOS/os/kernel/include/chmtx.h"
 1014              		.file 9 "../../../ChibiOS/os/kernel/include/chevents.h"
 1015              		.file 10 "../../../ChibiOS/os/kernel/include/chqueues.h"
 1016              		.file 11 "../../../ChibiOS/os/hal/include/usb.h"
 1017              		.file 12 "../../../ChibiOS/os/hal/platforms/STM32/OTGv1/usb_lld.h"
 1018              		.file 13 "../../../ChibiOS/os/hal/platforms/STM32/OTGv1/stm32_otg.h"
 1019              		.file 14 "../../../ChibiOS/os/hal/include/serial_usb.h"
 1020              		.file 15 "../../../ChibiOS/os/hal/include/usb_cdc.h"
 1021              		.file 16 "../../../ChibiOS/os/ports/common/ARMCMx/CMSIS/include/core_cm4.h"