ARM GAS  C:\Users\DNIEL~1\AppData\Local\Temp\ccSeIRNy.s 			page 1


   1              		.syntax unified
   2              		.cpu cortex-m4
   3              		.fpu softvfp
   4              		.eabi_attribute 20, 1
   5              		.eabi_attribute 21, 1
   6              		.eabi_attribute 23, 3
   7              		.eabi_attribute 24, 1
   8              		.eabi_attribute 25, 1
   9              		.eabi_attribute 26, 1
  10              		.eabi_attribute 30, 2
  11              		.eabi_attribute 18, 4
  12              		.thumb
  13              		.file	"serial_lld.c"
  14              		.section	.debug_abbrev,"",%progbits
  15              	.Ldebug_abbrev0:
  16              		.section	.debug_info,"",%progbits
  17              	.Ldebug_info0:
  18              		.section	.debug_line,"",%progbits
  19              	.Ldebug_line0:
  20 0000 90030000 		.text
  20      0200AA02 
  20      00000201 
  20      FB0E0D00 
  20      01010101 
  21              	.Ltext0:
  22              		.cfi_sections	.debug_frame
  23              		.section	.text.notify1,"ax",%progbits
  24              		.align	2
  25              		.p2align 4,,15
  26              		.thumb
  27              		.thumb_func
  28              		.type	notify1, %function
  29              	notify1:
  30              	.LFB122:
  31              		.file 1 "../../../ChibiOS/os/hal/platforms/STM32/USARTv1/serial_lld.c"
  32              		.loc 1 204 0
  33              		.cfi_startproc
  34              		@ args = 0, pretend = 0, frame = 0
  35              		@ frame_needed = 0, uses_anonymous_args = 0
  36              		@ link register save eliminated.
  37              	.LVL0:
  38              		.loc 1 207 0
  39 0000 034B     		ldr	r3, .L2
  40 0002 9989     		ldrh	r1, [r3, #12]
  41 0004 88B2     		uxth	r0, r1
  42              	.LVL1:
  43 0006 40F08002 		orr	r2, r0, #128
  44 000a 9A81     		strh	r2, [r3, #12]	@ movhi
  45              		.loc 1 208 0
  46 000c 7047     		bx	lr
  47              	.L3:
  48 000e 00BF     		.align	2
  49              	.L2:
  50 0010 00100140 		.word	1073811456
  51              		.cfi_endproc
  52              	.LFE122:
  53              		.size	notify1, .-notify1
ARM GAS  C:\Users\DNIEL~1\AppData\Local\Temp\ccSeIRNy.s 			page 2


  54 0014 AFF30080 		.section	.text.VectorD4,"ax",%progbits
  54      AFF30080 
  54      AFF30080 
  55              		.align	2
  56              		.p2align 4,,15
  57              		.global	VectorD4
  58              		.thumb
  59              		.thumb_func
  60              		.type	VectorD4, %function
  61              	VectorD4:
  62              	.LFB123:
  63              		.loc 1 264 0
  64              		.cfi_startproc
  65              		@ args = 0, pretend = 0, frame = 0
  66              		@ frame_needed = 0, uses_anonymous_args = 0
  67              	.LVL2:
  68 0000 2DE9F041 		push	{r4, r5, r6, r7, r8, lr}
  69              	.LCFI0:
  70              		.cfi_def_cfa_offset 24
  71              	.LBB52:
  72              	.LBB53:
  73              		.loc 1 155 0
  74 0004 414E     		ldr	r6, .L26
  75              		.cfi_offset 14, -4
  76              		.cfi_offset 8, -8
  77              		.cfi_offset 7, -12
  78              		.cfi_offset 6, -16
  79              		.cfi_offset 5, -20
  80              		.cfi_offset 4, -24
  81 0006 756F     		ldr	r5, [r6, #116]
  82              	.LVL3:
  83              		.loc 1 156 0
  84 0008 AF89     		ldrh	r7, [r5, #12]
  85              		.loc 1 157 0
  86 000a 2C88     		ldrh	r4, [r5, #0]
  87 000c A4B2     		uxth	r4, r4
  88              		.loc 1 160 0
  89 000e 14F4807F 		tst	r4, #256
  90              		.loc 1 156 0
  91 0012 BFB2     		uxth	r7, r7
  92              	.LVL4:
  93              		.loc 1 160 0
  94 0014 4CD1     		bne	.L22
  95              	.LVL5:
  96              	.L5:
  97              	.LBB60:
  98              		.loc 1 168 0
  99 0016 2023     		movs	r3, #32
 100              	.LVL6:
 101              	@ 168 "../../../ChibiOS/os/hal/platforms/STM32/USARTv1/serial_lld.c" 1
 102 0018 83F31188 		msr     BASEPRI, r3
 103              	@ 0 "" 2
 104              	.LVL7:
 105              		.thumb
 106              	.LBE60:
 107              		.loc 1 169 0
 108 001c 14F0200F 		tst	r4, #32
ARM GAS  C:\Users\DNIEL~1\AppData\Local\Temp\ccSeIRNy.s 			page 3


 109 0020 22D0     		beq	.L6
 110              	.L19:
 111              		.loc 1 171 0
 112 0022 14F00F0F 		tst	r4, #15
 113 0026 15D0     		beq	.L7
 114              	.LVL8:
 115              	.LBB58:
 116              	.LBB59:
 117              		.loc 1 139 0
 118 0028 14F00801 		ands	r1, r4, #8
 119 002c 18BF     		it	ne
 120 002e 8021     		movne	r1, #128
 121              	.LVL9:
 122              		.loc 1 140 0
 123 0030 14F0010F 		tst	r4, #1
 124              		.loc 1 141 0
 125 0034 18BF     		it	ne
 126 0036 41F02001 		orrne	r1, r1, #32
 127              	.LVL10:
 128              		.loc 1 142 0
 129 003a 14F0020F 		tst	r4, #2
 130              		.loc 1 143 0
 131 003e 18BF     		it	ne
 132 0040 41F04001 		orrne	r1, r1, #64
 133              	.LVL11:
 134              		.loc 1 144 0
 135 0044 14F0040F 		tst	r4, #4
 136              		.loc 1 145 0
 137 0048 18BF     		it	ne
 138 004a 41F48071 		orrne	r1, r1, #256
 139              	.LVL12:
 140              		.loc 1 146 0
 141 004e 3048     		ldr	r0, .L26+4
 142 0050 FFF7FEFF 		bl	chEvtBroadcastFlagsI
 143              	.LVL13:
 144              	.L7:
 145              	.LBE59:
 146              	.LBE58:
 147              		.loc 1 173 0
 148 0054 A988     		ldrh	r1, [r5, #4]
 149 0056 2D48     		ldr	r0, .L26
 150 0058 C9B2     		uxtb	r1, r1
 151 005a FFF7FEFF 		bl	sdIncomingDataI
 152              	.LVL14:
 153              		.loc 1 174 0
 154 005e 2888     		ldrh	r0, [r5, #0]
 155 0060 84B2     		uxth	r4, r0
 156              		.loc 1 169 0
 157 0062 14F0200F 		tst	r4, #32
 158 0066 DCD1     		bne	.L19
 159              	.LVL15:
 160              	.L6:
 161              	.LBB57:
 162              		.loc 1 176 0
 163 0068 0023     		movs	r3, #0
 164              	.LVL16:
 165              	@ 176 "../../../ChibiOS/os/hal/platforms/STM32/USARTv1/serial_lld.c" 1
ARM GAS  C:\Users\DNIEL~1\AppData\Local\Temp\ccSeIRNy.s 			page 4


 166 006a 83F31188 		msr     BASEPRI, r3
 167              	@ 0 "" 2
 168              	.LVL17:
 169              		.thumb
 170              	.LBE57:
 171              		.loc 1 179 0
 172 006e 17F0800F 		tst	r7, #128
 173 0072 02D0     		beq	.L13
 174 0074 14F0800F 		tst	r4, #128
 175 0078 29D1     		bne	.L23
 176              	.LVL18:
 177              	.L13:
 178              		.loc 1 193 0
 179 007a 14F0400F 		tst	r4, #64
 180 007e 13D0     		beq	.L16
 181              	.LBB56:
 182              		.loc 1 194 0
 183 0080 2023     		movs	r3, #32
 184              	.LVL19:
 185              	@ 194 "../../../ChibiOS/os/hal/platforms/STM32/USARTv1/serial_lld.c" 1
 186 0082 83F31188 		msr     BASEPRI, r3
 187              	@ 0 "" 2
 188              	.LVL20:
 189              		.thumb
 190              	.LBE56:
 191              		.loc 1 195 0
 192 0086 726C     		ldr	r2, [r6, #68]
 193 0088 B16C     		ldr	r1, [r6, #72]
 194 008a 2048     		ldr	r0, .L26
 195 008c 8A42     		cmp	r2, r1
 196 008e 2BD0     		beq	.L24
 197              	.L17:
 198              		.loc 1 197 0
 199 0090 4FF6BF72 		movw	r2, #65471
 200 0094 07EA020C 		and	ip, r7, r2
 201              		.loc 1 198 0
 202 0098 4FF6BF70 		movw	r0, 65471	@ movhi
 203              		.loc 1 197 0
 204 009c A5F80CC0 		strh	ip, [r5, #12]	@ movhi
 205              	.LBB55:
 206              		.loc 1 199 0
 207 00a0 0023     		movs	r3, #0
 208              	.LVL21:
 209              	.LBE55:
 210              		.loc 1 198 0
 211 00a2 2880     		strh	r0, [r5, #0]	@ movhi
 212              	.LBB54:
 213              		.loc 1 199 0
 214              	@ 199 "../../../ChibiOS/os/hal/platforms/STM32/USARTv1/serial_lld.c" 1
 215 00a4 83F31188 		msr     BASEPRI, r3
 216              	@ 0 "" 2
 217              	.LVL22:
 218              		.thumb
 219              	.L16:
 220              	.LBE54:
 221              	.LBE53:
 222              	.LBE52:
ARM GAS  C:\Users\DNIEL~1\AppData\Local\Temp\ccSeIRNy.s 			page 5


 223              		.loc 1 271 0
 224 00a8 BDE8F041 		pop	{r4, r5, r6, r7, r8, lr}
 225              		.loc 1 270 0
 226 00ac FFF7FEBF 		b	_port_irq_epilogue
 227              	.LVL23:
 228              	.L22:
 229              	.LBB68:
 230              	.LBB67:
 231              	.LBB61:
 232              		.loc 1 161 0
 233 00b0 2023     		movs	r3, #32
 234              	.LVL24:
 235              	@ 161 "../../../ChibiOS/os/hal/platforms/STM32/USARTv1/serial_lld.c" 1
 236 00b2 83F31188 		msr     BASEPRI, r3
 237              	@ 0 "" 2
 238              	.LVL25:
 239              		.thumb
 240              	.LBE61:
 241              		.loc 1 162 0
 242 00b6 4FF40071 		mov	r1, #512
 243 00ba 301D     		adds	r0, r6, #4
 244 00bc FFF7FEFF 		bl	chEvtBroadcastFlagsI
 245              	.LVL26:
 246              	.LBB62:
 247              		.loc 1 163 0
 248 00c0 0023     		movs	r3, #0
 249              	@ 163 "../../../ChibiOS/os/hal/platforms/STM32/USARTv1/serial_lld.c" 1
 250 00c2 83F31188 		msr     BASEPRI, r3
 251              	@ 0 "" 2
 252              	.LVL27:
 253              		.thumb
 254              	.LBE62:
 255              		.loc 1 164 0
 256 00c6 4FF6FF62 		movw	r2, 65279	@ movhi
 257 00ca 2A80     		strh	r2, [r5, #0]	@ movhi
 258 00cc A3E7     		b	.L5
 259              	.LVL28:
 260              	.L23:
 261              	.LBB63:
 262              	.LBB65:
 263              		.loc 1 181 0
 264 00ce 2023     		movs	r3, #32
 265              	.LVL29:
 266              	@ 181 "../../../ChibiOS/os/hal/platforms/STM32/USARTv1/serial_lld.c" 1
 267 00d0 83F31188 		msr     BASEPRI, r3
 268              	@ 0 "" 2
 269              	.LVL30:
 270              		.thumb
 271              	.LBE65:
 272              		.loc 1 182 0
 273 00d4 0F48     		ldr	r0, .L26+8
 274 00d6 FFF7FEFF 		bl	chOQGetI
 275              	.LVL31:
 276              		.loc 1 183 0
 277 00da 0028     		cmp	r0, #0
 278 00dc 0CDB     		blt	.L25
 279              		.loc 1 188 0
ARM GAS  C:\Users\DNIEL~1\AppData\Local\Temp\ccSeIRNy.s 			page 6


 280 00de A880     		strh	r0, [r5, #4]	@ movhi
 281              	.LVL32:
 282              	.L15:
 283              	.LBB64:
 284              		.loc 1 189 0
 285 00e0 0023     		movs	r3, #0
 286              	@ 189 "../../../ChibiOS/os/hal/platforms/STM32/USARTv1/serial_lld.c" 1
 287 00e2 83F31188 		msr     BASEPRI, r3
 288              	@ 0 "" 2
 289              	.LVL33:
 290              		.thumb
 291 00e6 C8E7     		b	.L13
 292              	.LVL34:
 293              	.L24:
 294              	.LBE64:
 295              	.LBE63:
 296              		.loc 1 195 0
 297 00e8 836B     		ldr	r3, [r0, #56]
 298              	.LVL35:
 299 00ea 002B     		cmp	r3, #0
 300 00ec D0D0     		beq	.L17
 301              		.loc 1 196 0
 302 00ee 0430     		adds	r0, r0, #4
 303 00f0 1021     		movs	r1, #16
 304 00f2 FFF7FEFF 		bl	chEvtBroadcastFlagsI
 305 00f6 CBE7     		b	.L17
 306              	.LVL36:
 307              	.L25:
 308              	.LBB66:
 309              		.loc 1 184 0
 310 00f8 0548     		ldr	r0, .L26+4
 311              	.LVL37:
 312 00fa 0821     		movs	r1, #8
 313 00fc FFF7FEFF 		bl	chEvtBroadcastFlagsI
 314              		.loc 1 185 0
 315 0100 27F0C00C 		bic	ip, r7, #192
 316 0104 4CF04003 		orr	r3, ip, #64
 317 0108 AB81     		strh	r3, [r5, #12]	@ movhi
 318 010a E9E7     		b	.L15
 319              	.L27:
 320              		.align	2
 321              	.L26:
 322 010c 00000000 		.word	.LANCHOR0
 323 0110 04000000 		.word	.LANCHOR0+4
 324 0114 30000000 		.word	.LANCHOR0+48
 325              	.LBE66:
 326              	.LBE67:
 327              	.LBE68:
 328              		.cfi_endproc
 329              	.LFE123:
 330              		.size	VectorD4, .-VectorD4
 331 0118 AFF30080 		.section	.text.sd_lld_init,"ax",%progbits
 331      AFF30080 
 332              		.align	2
 333              		.p2align 4,,15
 334              		.global	sd_lld_init
 335              		.thumb
ARM GAS  C:\Users\DNIEL~1\AppData\Local\Temp\ccSeIRNy.s 			page 7


 336              		.thumb_func
 337              		.type	sd_lld_init, %function
 338              	sd_lld_init:
 339              	.LFB124:
 340              		.loc 1 378 0
 341              		.cfi_startproc
 342              		@ args = 0, pretend = 0, frame = 0
 343              		@ frame_needed = 0, uses_anonymous_args = 0
 344 0000 10B5     		push	{r4, lr}
 345              	.LCFI1:
 346              		.cfi_def_cfa_offset 8
 347              		.loc 1 381 0
 348 0002 044C     		ldr	r4, .L29
 349              		.cfi_offset 14, -4
 350              		.cfi_offset 4, -8
 351 0004 044A     		ldr	r2, .L29+4
 352 0006 2046     		mov	r0, r4
 353 0008 0021     		movs	r1, #0
 354 000a FFF7FEFF 		bl	sdObjectInit
 355              		.loc 1 382 0
 356 000e 034B     		ldr	r3, .L29+8
 357 0010 6367     		str	r3, [r4, #116]
 358              		.loc 1 409 0
 359 0012 10BD     		pop	{r4, pc}
 360              	.L30:
 361              		.align	2
 362              	.L29:
 363 0014 00000000 		.word	.LANCHOR0
 364 0018 00000000 		.word	notify1
 365 001c 00100140 		.word	1073811456
 366              		.cfi_endproc
 367              	.LFE124:
 368              		.size	sd_lld_init, .-sd_lld_init
 369              		.section	.text.sd_lld_start,"ax",%progbits
 370              		.align	2
 371              		.p2align 4,,15
 372              		.global	sd_lld_start
 373              		.thumb
 374              		.thumb_func
 375              		.type	sd_lld_start, %function
 376              	sd_lld_start:
 377              	.LFB125:
 378              		.loc 1 421 0
 379              		.cfi_startproc
 380              		@ args = 0, pretend = 0, frame = 0
 381              		@ frame_needed = 0, uses_anonymous_args = 0
 382              	.LVL38:
 383 0000 38B5     		push	{r3, r4, r5, lr}
 384              	.LCFI2:
 385              		.cfi_def_cfa_offset 16
 386              		.loc 1 426 0
 387 0002 037A     		ldrb	r3, [r0, #8]	@ zero_extendqisi2
 388              		.cfi_offset 14, -4
 389              		.cfi_offset 5, -8
 390              		.cfi_offset 4, -12
 391              		.cfi_offset 3, -16
 392              		.loc 1 424 0
ARM GAS  C:\Users\DNIEL~1\AppData\Local\Temp\ccSeIRNy.s 			page 8


 393 0004 1E4C     		ldr	r4, .L39
 394 0006 0029     		cmp	r1, #0
 395 0008 18BF     		it	ne
 396 000a 0C46     		movne	r4, r1
 397              	.LVL39:
 398              		.loc 1 426 0
 399 000c 012B     		cmp	r3, #1
 400              		.loc 1 421 0
 401 000e 0546     		mov	r5, r0
 402              		.loc 1 426 0
 403 0010 21D0     		beq	.L38
 404              	.LVL40:
 405              	.L33:
 406              		.loc 1 529 0
 407 0012 6B6F     		ldr	r3, [r5, #116]
 408              	.LVL41:
 409              	.LBB69:
 410              	.LBB70:
 411              		.loc 1 97 0
 412 0014 1B4A     		ldr	r2, .L39+4
 413 0016 9342     		cmp	r3, r2
 414 0018 2AD0     		beq	.L34
 415 001a 02F58060 		add	r0, r2, #1024
 416 001e 8342     		cmp	r3, r0
 417 0020 26D0     		beq	.L34
 418              		.loc 1 103 0
 419 0022 2268     		ldr	r2, [r4, #0]
 420 0024 1849     		ldr	r1, .L39+8
 421 0026 B1FBF2F0 		udiv	r0, r1, r2
 422 002a 1881     		strh	r0, [r3, #8]	@ movhi
 423              	.L36:
 424              		.loc 1 108 0
 425 002c A088     		ldrh	r0, [r4, #4]
 426              		.loc 1 106 0
 427 002e E188     		ldrh	r1, [r4, #6]
 428              		.loc 1 107 0
 429 0030 B4F808C0 		ldrh	ip, [r4, #8]
 430              		.loc 1 108 0
 431 0034 40F40452 		orr	r2, r0, #8448
 432              		.loc 1 106 0
 433 0038 41F04000 		orr	r0, r1, #64
 434 003c 1882     		strh	r0, [r3, #16]	@ movhi
 435              		.loc 1 107 0
 436 003e 4CF00101 		orr	r1, ip, #1
 437              		.loc 1 111 0
 438 0042 0020     		movs	r0, #0
 439              		.loc 1 108 0
 440 0044 42F02C0C 		orr	ip, r2, #44
 441              		.loc 1 107 0
 442 0048 9982     		strh	r1, [r3, #20]	@ movhi
 443              		.loc 1 108 0
 444 004a A3F80CC0 		strh	ip, [r3, #12]	@ movhi
 445              		.loc 1 111 0
 446 004e 1880     		strh	r0, [r3, #0]	@ movhi
 447              		.loc 1 112 0
 448 0050 1A88     		ldrh	r2, [r3, #0]
 449              		.loc 1 113 0
ARM GAS  C:\Users\DNIEL~1\AppData\Local\Temp\ccSeIRNy.s 			page 9


 450 0052 9B88     		ldrh	r3, [r3, #4]
 451              	.LBE70:
 452              	.LBE69:
 453              		.loc 1 471 0
 454 0054 38BD     		pop	{r3, r4, r5, pc}
 455              	.LVL42:
 456              	.L38:
 457              		.loc 1 428 0
 458 0056 0D49     		ldr	r1, .L39+12
 459 0058 8842     		cmp	r0, r1
 460 005a DAD1     		bne	.L33
 461              		.loc 1 429 0
 462 005c 0C4B     		ldr	r3, .L39+16
 463 005e 596C     		ldr	r1, [r3, #68]
 464 0060 41F01002 		orr	r2, r1, #16
 465              		.loc 1 430 0
 466 0064 2520     		movs	r0, #37
 467 0066 C021     		movs	r1, #192
 468              		.loc 1 429 0
 469 0068 5A64     		str	r2, [r3, #68]
 470              		.loc 1 430 0
 471 006a FFF7FEFF 		bl	nvicEnableVector
 472 006e D0E7     		b	.L33
 473              	.LVL43:
 474              	.L34:
 475              	.LBB72:
 476              	.LBB71:
 477              		.loc 1 101 0
 478 0070 2268     		ldr	r2, [r4, #0]
 479 0072 0849     		ldr	r1, .L39+20
 480 0074 B1FBF2FC 		udiv	ip, r1, r2
 481 0078 A3F808C0 		strh	ip, [r3, #8]	@ movhi
 482 007c D6E7     		b	.L36
 483              	.L40:
 484 007e 00BF     		.align	2
 485              	.L39:
 486 0080 00000000 		.word	.LANCHOR1
 487 0084 00100140 		.word	1073811456
 488 0088 80DE8002 		.word	42000000
 489 008c 00000000 		.word	.LANCHOR0
 490 0090 00380240 		.word	1073887232
 491 0094 00BD0105 		.word	84000000
 492              	.LBE71:
 493              	.LBE72:
 494              		.cfi_endproc
 495              	.LFE125:
 496              		.size	sd_lld_start, .-sd_lld_start
 497 0098 AFF30080 		.section	.text.sd_lld_stop,"ax",%progbits
 497      AFF30080 
 498              		.align	2
 499              		.p2align 4,,15
 500              		.global	sd_lld_stop
 501              		.thumb
 502              		.thumb_func
 503              		.type	sd_lld_stop, %function
 504              	sd_lld_stop:
 505              	.LFB126:
ARM GAS  C:\Users\DNIEL~1\AppData\Local\Temp\ccSeIRNy.s 			page 10


 506              		.loc 1 482 0
 507              		.cfi_startproc
 508              		@ args = 0, pretend = 0, frame = 0
 509              		@ frame_needed = 0, uses_anonymous_args = 0
 510              		@ link register save eliminated.
 511              	.LVL44:
 512              		.loc 1 484 0
 513 0000 037A     		ldrb	r3, [r0, #8]	@ zero_extendqisi2
 514 0002 022B     		cmp	r3, #2
 515 0004 00D0     		beq	.L43
 516              	.L41:
 517 0006 7047     		bx	lr
 518              	.LVL45:
 519              	.L43:
 520              		.loc 1 487 0
 521 0008 0749     		ldr	r1, .L44
 522              	.LVL46:
 523              		.loc 1 485 0
 524 000a 436F     		ldr	r3, [r0, #116]
 525              	.LVL47:
 526              	.LBB73:
 527              	.LBB74:
 528              		.loc 1 124 0
 529 000c 0022     		movs	r2, #0
 530              	.LBE74:
 531              	.LBE73:
 532              		.loc 1 487 0
 533 000e 8842     		cmp	r0, r1
 534              	.LBB76:
 535              	.LBB75:
 536              		.loc 1 124 0
 537 0010 9A81     		strh	r2, [r3, #12]	@ movhi
 538              		.loc 1 125 0
 539 0012 1A82     		strh	r2, [r3, #16]	@ movhi
 540              		.loc 1 126 0
 541 0014 9A82     		strh	r2, [r3, #20]	@ movhi
 542              	.LBE75:
 543              	.LBE76:
 544              		.loc 1 487 0
 545 0016 F6D1     		bne	.L41
 546              		.loc 1 488 0
 547 0018 044B     		ldr	r3, .L44+4
 548 001a 5A6C     		ldr	r2, [r3, #68]
 549              		.loc 1 489 0
 550 001c 2520     		movs	r0, #37
 551              	.LVL48:
 552              		.loc 1 488 0
 553 001e 22F01001 		bic	r1, r2, #16
 554 0022 5964     		str	r1, [r3, #68]
 555              		.loc 1 529 0
 556              		.loc 1 489 0
 557 0024 FFF7FEBF 		b	nvicDisableVector
 558              	.L45:
 559              		.align	2
 560              	.L44:
 561 0028 00000000 		.word	.LANCHOR0
 562 002c 00380240 		.word	1073887232
ARM GAS  C:\Users\DNIEL~1\AppData\Local\Temp\ccSeIRNy.s 			page 11


 563              		.cfi_endproc
 564              	.LFE126:
 565              		.size	sd_lld_stop, .-sd_lld_stop
 566              		.global	SD1
 567              		.section	.rodata.default_config,"a",%progbits
 568              		.align	2
 569              		.set	.LANCHOR1,. + 0
 570              		.type	default_config, %object
 571              		.size	default_config, 12
 572              	default_config:
 573 0000 00960000 		.word	38400
 574 0004 0000     		.short	0
 575 0006 0040     		.short	16384
 576 0008 0000     		.short	0
 577 000a 0000     		.space	2
 578              		.section	.bss.SD1,"aw",%nobits
 579              		.align	2
 580              		.set	.LANCHOR0,. + 0
 581              		.type	SD1, %object
 582              		.size	SD1, 120
 583              	SD1:
 584 0000 00000000 		.space	120
 584      00000000 
 584      00000000 
 584      00000000 
 584      00000000 
 585              		.text
 586              	.Letext0:
 587              		.section	.debug_loc,"",%progbits
 588              	.Ldebug_loc0:
 589              	.LLST0:
 590 0000 00000000 		.4byte	.LVL0
 591 0004 06000000 		.4byte	.LVL1
 592 0008 0100     		.2byte	0x1
 593 000a 50       		.byte	0x50
 594 000b 00000000 		.4byte	0x0
 595 000f 00000000 		.4byte	0x0
 596              	.LLST1:
 597 0013 00000000 		.4byte	.LFB123
 598 0017 04000000 		.4byte	.LCFI0
 599 001b 0200     		.2byte	0x2
 600 001d 7D       		.byte	0x7d
 601 001e 00       		.sleb128 0
 602 001f 04000000 		.4byte	.LCFI0
 603 0023 18010000 		.4byte	.LFE123
 604 0027 0200     		.2byte	0x2
 605 0029 7D       		.byte	0x7d
 606 002a 18       		.sleb128 24
 607 002b 00000000 		.4byte	0x0
 608 002f 00000000 		.4byte	0x0
 609              	.LLST2:
 610 0033 08000000 		.4byte	.LVL3
 611 0037 16000000 		.4byte	.LVL5
 612 003b 0500     		.2byte	0x5
 613 003d 03       		.byte	0x3
 614 003e 74000000 		.4byte	SD1+116
 615 0042 16000000 		.4byte	.LVL5
ARM GAS  C:\Users\DNIEL~1\AppData\Local\Temp\ccSeIRNy.s 			page 12


 616 0046 18010000 		.4byte	.LFE123
 617 004a 0100     		.2byte	0x1
 618 004c 55       		.byte	0x55
 619 004d 00000000 		.4byte	0x0
 620 0051 00000000 		.4byte	0x0
 621              	.LLST3:
 622 0055 A8000000 		.4byte	.LVL22
 623 0059 AF000000 		.4byte	.LVL23-1
 624 005d 0100     		.2byte	0x1
 625 005f 53       		.byte	0x53
 626 0060 00000000 		.4byte	0x0
 627 0064 00000000 		.4byte	0x0
 628              	.LLST4:
 629 0068 86000000 		.4byte	.LVL20
 630 006c A2000000 		.4byte	.LVL21
 631 0070 0100     		.2byte	0x1
 632 0072 53       		.byte	0x53
 633 0073 E8000000 		.4byte	.LVL34
 634 0077 EA000000 		.4byte	.LVL35
 635 007b 0100     		.2byte	0x1
 636 007d 53       		.byte	0x53
 637 007e 00000000 		.4byte	0x0
 638 0082 00000000 		.4byte	0x0
 639              	.LLST5:
 640 0086 6E000000 		.4byte	.LVL17
 641 008a 82000000 		.4byte	.LVL19
 642 008e 0100     		.2byte	0x1
 643 0090 53       		.byte	0x53
 644 0091 A8000000 		.4byte	.LVL22
 645 0095 AF000000 		.4byte	.LVL23-1
 646 0099 0100     		.2byte	0x1
 647 009b 53       		.byte	0x53
 648 009c CE000000 		.4byte	.LVL28
 649 00a0 D0000000 		.4byte	.LVL29
 650 00a4 0100     		.2byte	0x1
 651 00a6 53       		.byte	0x53
 652 00a7 00000000 		.4byte	0x0
 653 00ab 00000000 		.4byte	0x0
 654              	.LLST6:
 655 00af 28000000 		.4byte	.LVL8
 656 00b3 54000000 		.4byte	.LVL13
 657 00b7 0600     		.2byte	0x6
 658 00b9 03       		.byte	0x3
 659 00ba 00000000 		.4byte	SD1
 660 00be 9F       		.byte	0x9f
 661 00bf 00000000 		.4byte	0x0
 662 00c3 00000000 		.4byte	0x0
 663              	.LLST7:
 664 00c7 28000000 		.4byte	.LVL8
 665 00cb 30000000 		.4byte	.LVL9
 666 00cf 0200     		.2byte	0x2
 667 00d1 30       		.byte	0x30
 668 00d2 9F       		.byte	0x9f
 669 00d3 30000000 		.4byte	.LVL9
 670 00d7 3A000000 		.4byte	.LVL10
 671 00db 0100     		.2byte	0x1
 672 00dd 51       		.byte	0x51
ARM GAS  C:\Users\DNIEL~1\AppData\Local\Temp\ccSeIRNy.s 			page 13


 673 00de 3A000000 		.4byte	.LVL10
 674 00e2 44000000 		.4byte	.LVL11
 675 00e6 0100     		.2byte	0x1
 676 00e8 51       		.byte	0x51
 677 00e9 44000000 		.4byte	.LVL11
 678 00ed 4E000000 		.4byte	.LVL12
 679 00f1 0100     		.2byte	0x1
 680 00f3 51       		.byte	0x51
 681 00f4 4E000000 		.4byte	.LVL12
 682 00f8 53000000 		.4byte	.LVL13-1
 683 00fc 0100     		.2byte	0x1
 684 00fe 51       		.byte	0x51
 685 00ff 00000000 		.4byte	0x0
 686 0103 00000000 		.4byte	0x0
 687              	.LLST8:
 688 0107 1C000000 		.4byte	.LVL7
 689 010b 53000000 		.4byte	.LVL13-1
 690 010f 0100     		.2byte	0x1
 691 0111 53       		.byte	0x53
 692 0112 54000000 		.4byte	.LVL13
 693 0116 5D000000 		.4byte	.LVL14-1
 694 011a 0100     		.2byte	0x1
 695 011c 53       		.byte	0x53
 696 011d 68000000 		.4byte	.LVL15
 697 0121 6A000000 		.4byte	.LVL16
 698 0125 0100     		.2byte	0x1
 699 0127 53       		.byte	0x53
 700 0128 00000000 		.4byte	0x0
 701 012c 00000000 		.4byte	0x0
 702              	.LLST9:
 703 0130 B6000000 		.4byte	.LVL25
 704 0134 BF000000 		.4byte	.LVL26-1
 705 0138 0100     		.2byte	0x1
 706 013a 53       		.byte	0x53
 707 013b 00000000 		.4byte	0x0
 708 013f 00000000 		.4byte	0x0
 709              	.LLST10:
 710 0143 16000000 		.4byte	.LVL5
 711 0147 18000000 		.4byte	.LVL6
 712 014b 0100     		.2byte	0x1
 713 014d 53       		.byte	0x53
 714 014e C6000000 		.4byte	.LVL27
 715 0152 CE000000 		.4byte	.LVL28
 716 0156 0100     		.2byte	0x1
 717 0158 53       		.byte	0x53
 718 0159 00000000 		.4byte	0x0
 719 015d 00000000 		.4byte	0x0
 720              	.LLST11:
 721 0161 DA000000 		.4byte	.LVL31
 722 0165 E0000000 		.4byte	.LVL32
 723 0169 0100     		.2byte	0x1
 724 016b 50       		.byte	0x50
 725 016c F8000000 		.4byte	.LVL36
 726 0170 FA000000 		.4byte	.LVL37
 727 0174 0100     		.2byte	0x1
 728 0176 50       		.byte	0x50
 729 0177 00000000 		.4byte	0x0
ARM GAS  C:\Users\DNIEL~1\AppData\Local\Temp\ccSeIRNy.s 			page 14


 730 017b 00000000 		.4byte	0x0
 731              	.LLST12:
 732 017f 7A000000 		.4byte	.LVL18
 733 0183 82000000 		.4byte	.LVL19
 734 0187 0100     		.2byte	0x1
 735 0189 53       		.byte	0x53
 736 018a A8000000 		.4byte	.LVL22
 737 018e AF000000 		.4byte	.LVL23-1
 738 0192 0100     		.2byte	0x1
 739 0194 53       		.byte	0x53
 740 0195 E6000000 		.4byte	.LVL33
 741 0199 E8000000 		.4byte	.LVL34
 742 019d 0100     		.2byte	0x1
 743 019f 53       		.byte	0x53
 744 01a0 00000000 		.4byte	0x0
 745 01a4 00000000 		.4byte	0x0
 746              	.LLST13:
 747 01a8 D4000000 		.4byte	.LVL30
 748 01ac D9000000 		.4byte	.LVL31-1
 749 01b0 0100     		.2byte	0x1
 750 01b2 53       		.byte	0x53
 751 01b3 00000000 		.4byte	0x0
 752 01b7 00000000 		.4byte	0x0
 753              	.LLST14:
 754 01bb 00000000 		.4byte	.LFB124
 755 01bf 02000000 		.4byte	.LCFI1
 756 01c3 0200     		.2byte	0x2
 757 01c5 7D       		.byte	0x7d
 758 01c6 00       		.sleb128 0
 759 01c7 02000000 		.4byte	.LCFI1
 760 01cb 20000000 		.4byte	.LFE124
 761 01cf 0200     		.2byte	0x2
 762 01d1 7D       		.byte	0x7d
 763 01d2 08       		.sleb128 8
 764 01d3 00000000 		.4byte	0x0
 765 01d7 00000000 		.4byte	0x0
 766              	.LLST15:
 767 01db 00000000 		.4byte	.LFB125
 768 01df 02000000 		.4byte	.LCFI2
 769 01e3 0200     		.2byte	0x2
 770 01e5 7D       		.byte	0x7d
 771 01e6 00       		.sleb128 0
 772 01e7 02000000 		.4byte	.LCFI2
 773 01eb 98000000 		.4byte	.LFE125
 774 01ef 0200     		.2byte	0x2
 775 01f1 7D       		.byte	0x7d
 776 01f2 10       		.sleb128 16
 777 01f3 00000000 		.4byte	0x0
 778 01f7 00000000 		.4byte	0x0
 779              	.LLST16:
 780 01fb 00000000 		.4byte	.LVL38
 781 01ff 12000000 		.4byte	.LVL40
 782 0203 0100     		.2byte	0x1
 783 0205 50       		.byte	0x50
 784 0206 12000000 		.4byte	.LVL40
 785 020a 98000000 		.4byte	.LFE125
 786 020e 0100     		.2byte	0x1
ARM GAS  C:\Users\DNIEL~1\AppData\Local\Temp\ccSeIRNy.s 			page 15


 787 0210 55       		.byte	0x55
 788 0211 00000000 		.4byte	0x0
 789 0215 00000000 		.4byte	0x0
 790              	.LLST17:
 791 0219 00000000 		.4byte	.LVL38
 792 021d 0C000000 		.4byte	.LVL39
 793 0221 0100     		.2byte	0x1
 794 0223 51       		.byte	0x51
 795 0224 00000000 		.4byte	0x0
 796 0228 00000000 		.4byte	0x0
 797              	.LLST18:
 798 022c 14000000 		.4byte	.LVL41
 799 0230 56000000 		.4byte	.LVL42
 800 0234 0300     		.2byte	0x3
 801 0236 75       		.byte	0x75
 802 0237 F400     		.sleb128 116
 803 0239 70000000 		.4byte	.LVL43
 804 023d 98000000 		.4byte	.LFE125
 805 0241 0100     		.2byte	0x1
 806 0243 53       		.byte	0x53
 807 0244 00000000 		.4byte	0x0
 808 0248 00000000 		.4byte	0x0
 809              	.LLST19:
 810 024c 00000000 		.4byte	.LVL44
 811 0250 08000000 		.4byte	.LVL45
 812 0254 0100     		.2byte	0x1
 813 0256 50       		.byte	0x50
 814 0257 0A000000 		.4byte	.LVL46
 815 025b 1E000000 		.4byte	.LVL48
 816 025f 0100     		.2byte	0x1
 817 0261 50       		.byte	0x50
 818 0262 00000000 		.4byte	0x0
 819 0266 00000000 		.4byte	0x0
 820              	.LLST20:
 821 026a 0C000000 		.4byte	.LVL47
 822 026e 1E000000 		.4byte	.LVL48
 823 0272 0300     		.2byte	0x3
 824 0274 70       		.byte	0x70
 825 0275 F400     		.sleb128 116
 826 0277 00000000 		.4byte	0x0
 827 027b 00000000 		.4byte	0x0
 828              		.file 2 "c:\\program files (x86)\\codesourcery\\sourcery g++ lite\\bin\\../lib/gcc/arm-none-eabi/4
 829              		.file 3 "c:\\program files (x86)\\codesourcery\\sourcery g++ lite\\bin\\../lib/gcc/arm-none-eabi/4
 830              		.file 4 "../../../ChibiOS/os/ports/GCC/ARMCMx/chtypes.h"
 831              		.file 5 "../../../ChibiOS/os/kernel/include/chlists.h"
 832              		.file 6 "../../../ChibiOS/os/kernel/include/chthreads.h"
 833              		.file 7 "../../../ChibiOS/os/ports/GCC/ARMCMx/chcore_v7m.h"
 834              		.file 8 "../../../ChibiOS/os/kernel/include/chmtx.h"
 835              		.file 9 "../../../ChibiOS/os/kernel/include/chevents.h"
 836              		.file 10 "../../../ChibiOS/os/kernel/include/chqueues.h"
 837              		.file 11 "../../../ChibiOS/os/hal/platforms/STM32F4xx/stm32f4xx.h"
 838              		.file 12 "../../../ChibiOS/os/hal/include/serial.h"
 839              		.file 13 "../../../ChibiOS/os/hal/platforms/STM32/USARTv1/serial_lld.h"
 840              		.file 14 "../../../ChibiOS/os/ports/common/ARMCMx/CMSIS/include/core_cm4.h"
 841              		.section	.debug_info
 842 0000 8D0E0000 		.4byte	0xe8d
 843 0004 0200     		.2byte	0x2
ARM GAS  C:\Users\DNIEL~1\AppData\Local\Temp\ccSeIRNy.s 			page 16


 844 0006 00000000 		.4byte	.Ldebug_abbrev0
 845 000a 04       		.byte	0x4
 846 000b 01       		.uleb128 0x1
 847 000c B9000000 		.4byte	.LASF138
 848 0010 01       		.byte	0x1
 849 0011 9F020000 		.4byte	.LASF139
 850 0015 84030000 		.4byte	.LASF140
 851 0019 00000000 		.4byte	0x0
 852 001d 00000000 		.4byte	0x0
 853 0021 A8000000 		.4byte	.Ldebug_ranges0+0xa8
 854 0025 00000000 		.4byte	.Ldebug_line0
 855 0029 02       		.uleb128 0x2
 856 002a 04       		.byte	0x4
 857 002b 05       		.byte	0x5
 858 002c 696E7400 		.ascii	"int\000"
 859 0030 03       		.uleb128 0x3
 860 0031 00000000 		.4byte	.LASF2
 861 0035 02       		.byte	0x2
 862 0036 D3       		.byte	0xd3
 863 0037 3B000000 		.4byte	0x3b
 864 003b 04       		.uleb128 0x4
 865 003c 04       		.byte	0x4
 866 003d 07       		.byte	0x7
 867 003e 6C010000 		.4byte	.LASF0
 868 0042 04       		.uleb128 0x4
 869 0043 01       		.byte	0x1
 870 0044 06       		.byte	0x6
 871 0045 88000000 		.4byte	.LASF1
 872 0049 03       		.uleb128 0x3
 873 004a 34050000 		.4byte	.LASF3
 874 004e 03       		.byte	0x3
 875 004f 2A       		.byte	0x2a
 876 0050 54000000 		.4byte	0x54
 877 0054 04       		.uleb128 0x4
 878 0055 01       		.byte	0x1
 879 0056 08       		.byte	0x8
 880 0057 76030000 		.4byte	.LASF4
 881 005b 04       		.uleb128 0x4
 882 005c 02       		.byte	0x2
 883 005d 05       		.byte	0x5
 884 005e EB030000 		.4byte	.LASF5
 885 0062 03       		.uleb128 0x3
 886 0063 79010000 		.4byte	.LASF6
 887 0067 03       		.byte	0x3
 888 0068 36       		.byte	0x36
 889 0069 6D000000 		.4byte	0x6d
 890 006d 04       		.uleb128 0x4
 891 006e 02       		.byte	0x2
 892 006f 07       		.byte	0x7
 893 0070 BB010000 		.4byte	.LASF7
 894 0074 03       		.uleb128 0x3
 895 0075 6E030000 		.4byte	.LASF8
 896 0079 03       		.byte	0x3
 897 007a 4F       		.byte	0x4f
 898 007b 7F000000 		.4byte	0x7f
 899 007f 04       		.uleb128 0x4
 900 0080 04       		.byte	0x4
ARM GAS  C:\Users\DNIEL~1\AppData\Local\Temp\ccSeIRNy.s 			page 17


 901 0081 05       		.byte	0x5
 902 0082 F0000000 		.4byte	.LASF9
 903 0086 03       		.uleb128 0x3
 904 0087 6F040000 		.4byte	.LASF10
 905 008b 03       		.byte	0x3
 906 008c 50       		.byte	0x50
 907 008d 91000000 		.4byte	0x91
 908 0091 04       		.uleb128 0x4
 909 0092 04       		.byte	0x4
 910 0093 07       		.byte	0x7
 911 0094 8F040000 		.4byte	.LASF11
 912 0098 04       		.uleb128 0x4
 913 0099 08       		.byte	0x8
 914 009a 05       		.byte	0x5
 915 009b 7A000000 		.4byte	.LASF12
 916 009f 04       		.uleb128 0x4
 917 00a0 08       		.byte	0x8
 918 00a1 07       		.byte	0x7
 919 00a2 24000000 		.4byte	.LASF13
 920 00a6 03       		.uleb128 0x3
 921 00a7 AA000000 		.4byte	.LASF14
 922 00ab 04       		.byte	0x4
 923 00ac 2B       		.byte	0x2b
 924 00ad B1000000 		.4byte	0xb1
 925 00b1 04       		.uleb128 0x4
 926 00b2 01       		.byte	0x1
 927 00b3 02       		.byte	0x2
 928 00b4 68030000 		.4byte	.LASF15
 929 00b8 03       		.uleb128 0x3
 930 00b9 FB010000 		.4byte	.LASF16
 931 00bd 04       		.byte	0x4
 932 00be 2C       		.byte	0x2c
 933 00bf 49000000 		.4byte	0x49
 934 00c3 03       		.uleb128 0x3
 935 00c4 0C010000 		.4byte	.LASF17
 936 00c8 04       		.byte	0x4
 937 00c9 2D       		.byte	0x2d
 938 00ca 49000000 		.4byte	0x49
 939 00ce 03       		.uleb128 0x3
 940 00cf 0D030000 		.4byte	.LASF18
 941 00d3 04       		.byte	0x4
 942 00d4 2E       		.byte	0x2e
 943 00d5 49000000 		.4byte	0x49
 944 00d9 03       		.uleb128 0x3
 945 00da C5000000 		.4byte	.LASF19
 946 00de 04       		.byte	0x4
 947 00df 2F       		.byte	0x2f
 948 00e0 49000000 		.4byte	0x49
 949 00e4 03       		.uleb128 0x3
 950 00e5 58030000 		.4byte	.LASF20
 951 00e9 04       		.byte	0x4
 952 00ea 30       		.byte	0x30
 953 00eb 86000000 		.4byte	0x86
 954 00ef 03       		.uleb128 0x3
 955 00f0 D9010000 		.4byte	.LASF21
 956 00f4 04       		.byte	0x4
 957 00f5 31       		.byte	0x31
ARM GAS  C:\Users\DNIEL~1\AppData\Local\Temp\ccSeIRNy.s 			page 18


 958 00f6 74000000 		.4byte	0x74
 959 00fa 03       		.uleb128 0x3
 960 00fb 19020000 		.4byte	.LASF22
 961 00ff 04       		.byte	0x4
 962 0100 33       		.byte	0x33
 963 0101 86000000 		.4byte	0x86
 964 0105 03       		.uleb128 0x3
 965 0106 FF040000 		.4byte	.LASF23
 966 010a 04       		.byte	0x4
 967 010b 34       		.byte	0x34
 968 010c 86000000 		.4byte	0x86
 969 0110 03       		.uleb128 0x3
 970 0111 C2040000 		.4byte	.LASF24
 971 0115 04       		.byte	0x4
 972 0116 35       		.byte	0x35
 973 0117 86000000 		.4byte	0x86
 974 011b 03       		.uleb128 0x3
 975 011c 39040000 		.4byte	.LASF25
 976 0120 05       		.byte	0x5
 977 0121 2A       		.byte	0x2a
 978 0122 26010000 		.4byte	0x126
 979 0126 05       		.uleb128 0x5
 980 0127 39040000 		.4byte	.LASF25
 981 012b 48       		.byte	0x48
 982 012c 06       		.byte	0x6
 983 012d 5E       		.byte	0x5e
 984 012e 4B020000 		.4byte	0x24b
 985 0132 06       		.uleb128 0x6
 986 0133 71020000 		.4byte	.LASF26
 987 0137 06       		.byte	0x6
 988 0138 5F       		.byte	0x5f
 989 0139 70020000 		.4byte	0x270
 990 013d 02       		.byte	0x2
 991 013e 23       		.byte	0x23
 992 013f 00       		.uleb128 0x0
 993 0140 06       		.uleb128 0x6
 994 0141 47030000 		.4byte	.LASF27
 995 0145 06       		.byte	0x6
 996 0146 61       		.byte	0x61
 997 0147 70020000 		.4byte	0x270
 998 014b 02       		.byte	0x2
 999 014c 23       		.byte	0x23
 1000 014d 04       		.uleb128 0x4
 1001 014e 06       		.uleb128 0x6
 1002 014f 5B000000 		.4byte	.LASF28
 1003 0153 06       		.byte	0x6
 1004 0154 63       		.byte	0x63
 1005 0155 E4000000 		.4byte	0xe4
 1006 0159 02       		.byte	0x2
 1007 015a 23       		.byte	0x23
 1008 015b 08       		.uleb128 0x8
 1009 015c 06       		.uleb128 0x6
 1010 015d 8A050000 		.4byte	.LASF29
 1011 0161 06       		.byte	0x6
 1012 0162 64       		.byte	0x64
 1013 0163 3E030000 		.4byte	0x33e
 1014 0167 02       		.byte	0x2
ARM GAS  C:\Users\DNIEL~1\AppData\Local\Temp\ccSeIRNy.s 			page 19


 1015 0168 23       		.byte	0x23
 1016 0169 0C       		.uleb128 0xc
 1017 016a 06       		.uleb128 0x6
 1018 016b 34010000 		.4byte	.LASF30
 1019 016f 06       		.byte	0x6
 1020 0170 66       		.byte	0x66
 1021 0171 70020000 		.4byte	0x270
 1022 0175 02       		.byte	0x2
 1023 0176 23       		.byte	0x23
 1024 0177 10       		.uleb128 0x10
 1025 0178 06       		.uleb128 0x6
 1026 0179 80020000 		.4byte	.LASF31
 1027 017d 06       		.byte	0x6
 1028 017e 67       		.byte	0x67
 1029 017f 70020000 		.4byte	0x270
 1030 0183 02       		.byte	0x2
 1031 0184 23       		.byte	0x23
 1032 0185 14       		.uleb128 0x14
 1033 0186 06       		.uleb128 0x6
 1034 0187 17050000 		.4byte	.LASF32
 1035 018b 06       		.byte	0x6
 1036 018c 6E       		.byte	0x6e
 1037 018d 64040000 		.4byte	0x464
 1038 0191 02       		.byte	0x2
 1039 0192 23       		.byte	0x23
 1040 0193 18       		.uleb128 0x18
 1041 0194 06       		.uleb128 0x6
 1042 0195 D9030000 		.4byte	.LASF33
 1043 0199 06       		.byte	0x6
 1044 019a 79       		.byte	0x79
 1045 019b C3000000 		.4byte	0xc3
 1046 019f 02       		.byte	0x2
 1047 01a0 23       		.byte	0x23
 1048 01a1 1C       		.uleb128 0x1c
 1049 01a2 06       		.uleb128 0x6
 1050 01a3 10040000 		.4byte	.LASF34
 1051 01a7 06       		.byte	0x6
 1052 01a8 7D       		.byte	0x7d
 1053 01a9 B8000000 		.4byte	0xb8
 1054 01ad 02       		.byte	0x2
 1055 01ae 23       		.byte	0x23
 1056 01af 1D       		.uleb128 0x1d
 1057 01b0 06       		.uleb128 0x6
 1058 01b1 15010000 		.4byte	.LASF35
 1059 01b5 06       		.byte	0x6
 1060 01b6 82       		.byte	0x82
 1061 01b7 CE000000 		.4byte	0xce
 1062 01bb 02       		.byte	0x2
 1063 01bc 23       		.byte	0x23
 1064 01bd 1E       		.uleb128 0x1e
 1065 01be 06       		.uleb128 0x6
 1066 01bf F5030000 		.4byte	.LASF36
 1067 01c3 06       		.byte	0x6
 1068 01c4 88       		.byte	0x88
 1069 01c5 D9000000 		.4byte	0xd9
 1070 01c9 02       		.byte	0x2
 1071 01ca 23       		.byte	0x23
ARM GAS  C:\Users\DNIEL~1\AppData\Local\Temp\ccSeIRNy.s 			page 20


 1072 01cb 1F       		.uleb128 0x1f
 1073 01cc 06       		.uleb128 0x6
 1074 01cd 2D010000 		.4byte	.LASF37
 1075 01d1 06       		.byte	0x6
 1076 01d2 8F       		.byte	0x8f
 1077 01d3 66030000 		.4byte	0x366
 1078 01d7 02       		.byte	0x2
 1079 01d8 23       		.byte	0x23
 1080 01d9 20       		.uleb128 0x20
 1081 01da 07       		.uleb128 0x7
 1082 01db 705F7500 		.ascii	"p_u\000"
 1083 01df 06       		.byte	0x6
 1084 01e0 B4       		.byte	0xb4
 1085 01e1 2F040000 		.4byte	0x42f
 1086 01e5 02       		.byte	0x2
 1087 01e6 23       		.byte	0x23
 1088 01e7 24       		.uleb128 0x24
 1089 01e8 06       		.uleb128 0x6
 1090 01e9 90050000 		.4byte	.LASF38
 1091 01ed 06       		.byte	0x6
 1092 01ee B9       		.byte	0xb9
 1093 01ef 98020000 		.4byte	0x298
 1094 01f3 02       		.byte	0x2
 1095 01f4 23       		.byte	0x23
 1096 01f5 28       		.uleb128 0x28
 1097 01f6 06       		.uleb128 0x6
 1098 01f7 99010000 		.4byte	.LASF39
 1099 01fb 06       		.byte	0x6
 1100 01fc BF       		.byte	0xbf
 1101 01fd 76020000 		.4byte	0x276
 1102 0201 02       		.byte	0x2
 1103 0202 23       		.byte	0x23
 1104 0203 2C       		.uleb128 0x2c
 1105 0204 06       		.uleb128 0x6
 1106 0205 69050000 		.4byte	.LASF40
 1107 0209 06       		.byte	0x6
 1108 020a C3       		.byte	0xc3
 1109 020b EF000000 		.4byte	0xef
 1110 020f 02       		.byte	0x2
 1111 0210 23       		.byte	0x23
 1112 0211 34       		.uleb128 0x34
 1113 0212 06       		.uleb128 0x6
 1114 0213 50040000 		.4byte	.LASF41
 1115 0217 06       		.byte	0x6
 1116 0218 C9       		.byte	0xc9
 1117 0219 FA000000 		.4byte	0xfa
 1118 021d 02       		.byte	0x2
 1119 021e 23       		.byte	0x23
 1120 021f 38       		.uleb128 0x38
 1121 0220 06       		.uleb128 0x6
 1122 0221 E1030000 		.4byte	.LASF42
 1123 0225 06       		.byte	0x6
 1124 0226 D0       		.byte	0xd0
 1125 0227 76040000 		.4byte	0x476
 1126 022b 02       		.byte	0x2
 1127 022c 23       		.byte	0x23
 1128 022d 3C       		.uleb128 0x3c
ARM GAS  C:\Users\DNIEL~1\AppData\Local\Temp\ccSeIRNy.s 			page 21


 1129 022e 06       		.uleb128 0x6
 1130 022f CC040000 		.4byte	.LASF43
 1131 0233 06       		.byte	0x6
 1132 0234 D4       		.byte	0xd4
 1133 0235 E4000000 		.4byte	0xe4
 1134 0239 02       		.byte	0x2
 1135 023a 23       		.byte	0x23
 1136 023b 40       		.uleb128 0x40
 1137 023c 06       		.uleb128 0x6
 1138 023d A2000000 		.4byte	.LASF44
 1139 0241 06       		.byte	0x6
 1140 0242 DA       		.byte	0xda
 1141 0243 AE020000 		.4byte	0x2ae
 1142 0247 02       		.byte	0x2
 1143 0248 23       		.byte	0x23
 1144 0249 44       		.uleb128 0x44
 1145 024a 00       		.byte	0x0
 1146 024b 08       		.uleb128 0x8
 1147 024c 08       		.byte	0x8
 1148 024d 05       		.byte	0x5
 1149 024e 61       		.byte	0x61
 1150 024f 70020000 		.4byte	0x270
 1151 0253 06       		.uleb128 0x6
 1152 0254 71020000 		.4byte	.LASF26
 1153 0258 05       		.byte	0x5
 1154 0259 62       		.byte	0x62
 1155 025a 70020000 		.4byte	0x270
 1156 025e 02       		.byte	0x2
 1157 025f 23       		.byte	0x23
 1158 0260 00       		.uleb128 0x0
 1159 0261 06       		.uleb128 0x6
 1160 0262 47030000 		.4byte	.LASF27
 1161 0266 05       		.byte	0x5
 1162 0267 64       		.byte	0x64
 1163 0268 70020000 		.4byte	0x270
 1164 026c 02       		.byte	0x2
 1165 026d 23       		.byte	0x23
 1166 026e 04       		.uleb128 0x4
 1167 026f 00       		.byte	0x0
 1168 0270 09       		.uleb128 0x9
 1169 0271 04       		.byte	0x4
 1170 0272 1B010000 		.4byte	0x11b
 1171 0276 03       		.uleb128 0x3
 1172 0277 88020000 		.4byte	.LASF45
 1173 027b 05       		.byte	0x5
 1174 027c 66       		.byte	0x66
 1175 027d 4B020000 		.4byte	0x24b
 1176 0281 08       		.uleb128 0x8
 1177 0282 04       		.byte	0x4
 1178 0283 05       		.byte	0x5
 1179 0284 6B       		.byte	0x6b
 1180 0285 98020000 		.4byte	0x298
 1181 0289 06       		.uleb128 0x6
 1182 028a 71020000 		.4byte	.LASF26
 1183 028e 05       		.byte	0x5
 1184 028f 6D       		.byte	0x6d
 1185 0290 70020000 		.4byte	0x270
ARM GAS  C:\Users\DNIEL~1\AppData\Local\Temp\ccSeIRNy.s 			page 22


 1186 0294 02       		.byte	0x2
 1187 0295 23       		.byte	0x23
 1188 0296 00       		.uleb128 0x0
 1189 0297 00       		.byte	0x0
 1190 0298 03       		.uleb128 0x3
 1191 0299 0D020000 		.4byte	.LASF46
 1192 029d 05       		.byte	0x5
 1193 029e 70       		.byte	0x70
 1194 029f 81020000 		.4byte	0x281
 1195 02a3 03       		.uleb128 0x3
 1196 02a4 44010000 		.4byte	.LASF47
 1197 02a8 07       		.byte	0x7
 1198 02a9 E5       		.byte	0xe5
 1199 02aa AE020000 		.4byte	0x2ae
 1200 02ae 0A       		.uleb128 0xa
 1201 02af 04       		.byte	0x4
 1202 02b0 0B       		.uleb128 0xb
 1203 02b1 EF040000 		.4byte	.LASF48
 1204 02b5 24       		.byte	0x24
 1205 02b6 07       		.byte	0x7
 1206 02b7 0C01     		.2byte	0x10c
 1207 02b9 3E030000 		.4byte	0x33e
 1208 02bd 0C       		.uleb128 0xc
 1209 02be 723400   		.ascii	"r4\000"
 1210 02c1 07       		.byte	0x7
 1211 02c2 1F01     		.2byte	0x11f
 1212 02c4 A3020000 		.4byte	0x2a3
 1213 02c8 02       		.byte	0x2
 1214 02c9 23       		.byte	0x23
 1215 02ca 00       		.uleb128 0x0
 1216 02cb 0C       		.uleb128 0xc
 1217 02cc 723500   		.ascii	"r5\000"
 1218 02cf 07       		.byte	0x7
 1219 02d0 2001     		.2byte	0x120
 1220 02d2 A3020000 		.4byte	0x2a3
 1221 02d6 02       		.byte	0x2
 1222 02d7 23       		.byte	0x23
 1223 02d8 04       		.uleb128 0x4
 1224 02d9 0C       		.uleb128 0xc
 1225 02da 723600   		.ascii	"r6\000"
 1226 02dd 07       		.byte	0x7
 1227 02de 2101     		.2byte	0x121
 1228 02e0 A3020000 		.4byte	0x2a3
 1229 02e4 02       		.byte	0x2
 1230 02e5 23       		.byte	0x23
 1231 02e6 08       		.uleb128 0x8
 1232 02e7 0C       		.uleb128 0xc
 1233 02e8 723700   		.ascii	"r7\000"
 1234 02eb 07       		.byte	0x7
 1235 02ec 2201     		.2byte	0x122
 1236 02ee A3020000 		.4byte	0x2a3
 1237 02f2 02       		.byte	0x2
 1238 02f3 23       		.byte	0x23
 1239 02f4 0C       		.uleb128 0xc
 1240 02f5 0C       		.uleb128 0xc
 1241 02f6 723800   		.ascii	"r8\000"
 1242 02f9 07       		.byte	0x7
ARM GAS  C:\Users\DNIEL~1\AppData\Local\Temp\ccSeIRNy.s 			page 23


 1243 02fa 2301     		.2byte	0x123
 1244 02fc A3020000 		.4byte	0x2a3
 1245 0300 02       		.byte	0x2
 1246 0301 23       		.byte	0x23
 1247 0302 10       		.uleb128 0x10
 1248 0303 0C       		.uleb128 0xc
 1249 0304 723900   		.ascii	"r9\000"
 1250 0307 07       		.byte	0x7
 1251 0308 2401     		.2byte	0x124
 1252 030a A3020000 		.4byte	0x2a3
 1253 030e 02       		.byte	0x2
 1254 030f 23       		.byte	0x23
 1255 0310 14       		.uleb128 0x14
 1256 0311 0C       		.uleb128 0xc
 1257 0312 72313000 		.ascii	"r10\000"
 1258 0316 07       		.byte	0x7
 1259 0317 2501     		.2byte	0x125
 1260 0319 A3020000 		.4byte	0x2a3
 1261 031d 02       		.byte	0x2
 1262 031e 23       		.byte	0x23
 1263 031f 18       		.uleb128 0x18
 1264 0320 0C       		.uleb128 0xc
 1265 0321 72313100 		.ascii	"r11\000"
 1266 0325 07       		.byte	0x7
 1267 0326 2601     		.2byte	0x126
 1268 0328 A3020000 		.4byte	0x2a3
 1269 032c 02       		.byte	0x2
 1270 032d 23       		.byte	0x23
 1271 032e 1C       		.uleb128 0x1c
 1272 032f 0C       		.uleb128 0xc
 1273 0330 6C7200   		.ascii	"lr\000"
 1274 0333 07       		.byte	0x7
 1275 0334 2701     		.2byte	0x127
 1276 0336 A3020000 		.4byte	0x2a3
 1277 033a 02       		.byte	0x2
 1278 033b 23       		.byte	0x23
 1279 033c 20       		.uleb128 0x20
 1280 033d 00       		.byte	0x0
 1281 033e 0B       		.uleb128 0xb
 1282 033f E7040000 		.4byte	.LASF49
 1283 0343 04       		.byte	0x4
 1284 0344 07       		.byte	0x7
 1285 0345 3101     		.2byte	0x131
 1286 0347 5B030000 		.4byte	0x35b
 1287 034b 0C       		.uleb128 0xc
 1288 034c 72313300 		.ascii	"r13\000"
 1289 0350 07       		.byte	0x7
 1290 0351 3201     		.2byte	0x132
 1291 0353 5B030000 		.4byte	0x35b
 1292 0357 02       		.byte	0x2
 1293 0358 23       		.byte	0x23
 1294 0359 00       		.uleb128 0x0
 1295 035a 00       		.byte	0x0
 1296 035b 09       		.uleb128 0x9
 1297 035c 04       		.byte	0x4
 1298 035d B0020000 		.4byte	0x2b0
 1299 0361 0D       		.uleb128 0xd
ARM GAS  C:\Users\DNIEL~1\AppData\Local\Temp\ccSeIRNy.s 			page 24


 1300 0362 86000000 		.4byte	0x86
 1301 0366 0D       		.uleb128 0xd
 1302 0367 10010000 		.4byte	0x110
 1303 036b 05       		.uleb128 0x5
 1304 036c 6B020000 		.4byte	.LASF50
 1305 0370 10       		.byte	0x10
 1306 0371 08       		.byte	0x8
 1307 0372 2C       		.byte	0x2c
 1308 0373 A2030000 		.4byte	0x3a2
 1309 0377 06       		.uleb128 0x6
 1310 0378 B1000000 		.4byte	.LASF51
 1311 037c 08       		.byte	0x8
 1312 037d 2D       		.byte	0x2d
 1313 037e 76020000 		.4byte	0x276
 1314 0382 02       		.byte	0x2
 1315 0383 23       		.byte	0x23
 1316 0384 00       		.uleb128 0x0
 1317 0385 06       		.uleb128 0x6
 1318 0386 82050000 		.4byte	.LASF52
 1319 038a 08       		.byte	0x8
 1320 038b 2F       		.byte	0x2f
 1321 038c 70020000 		.4byte	0x270
 1322 0390 02       		.byte	0x2
 1323 0391 23       		.byte	0x23
 1324 0392 08       		.uleb128 0x8
 1325 0393 06       		.uleb128 0x6
 1326 0394 BB040000 		.4byte	.LASF53
 1327 0398 08       		.byte	0x8
 1328 0399 31       		.byte	0x31
 1329 039a A2030000 		.4byte	0x3a2
 1330 039e 02       		.byte	0x2
 1331 039f 23       		.byte	0x23
 1332 03a0 0C       		.uleb128 0xc
 1333 03a1 00       		.byte	0x0
 1334 03a2 09       		.uleb128 0x9
 1335 03a3 04       		.byte	0x4
 1336 03a4 6B030000 		.4byte	0x36b
 1337 03a8 03       		.uleb128 0x3
 1338 03a9 6B020000 		.4byte	.LASF50
 1339 03ad 08       		.byte	0x8
 1340 03ae 33       		.byte	0x33
 1341 03af 6B030000 		.4byte	0x36b
 1342 03b3 03       		.uleb128 0x3
 1343 03b4 47050000 		.4byte	.LASF54
 1344 03b8 09       		.byte	0x9
 1345 03b9 2C       		.byte	0x2c
 1346 03ba BE030000 		.4byte	0x3be
 1347 03be 05       		.uleb128 0x5
 1348 03bf 47050000 		.4byte	.LASF54
 1349 03c3 10       		.byte	0x10
 1350 03c4 09       		.byte	0x9
 1351 03c5 31       		.byte	0x31
 1352 03c6 03040000 		.4byte	0x403
 1353 03ca 06       		.uleb128 0x6
 1354 03cb 18040000 		.4byte	.LASF55
 1355 03cf 09       		.byte	0x9
 1356 03d0 32       		.byte	0x32
ARM GAS  C:\Users\DNIEL~1\AppData\Local\Temp\ccSeIRNy.s 			page 25


 1357 03d1 03040000 		.4byte	0x403
 1358 03d5 02       		.byte	0x2
 1359 03d6 23       		.byte	0x23
 1360 03d7 00       		.uleb128 0x0
 1361 03d8 06       		.uleb128 0x6
 1362 03d9 C4030000 		.4byte	.LASF56
 1363 03dd 09       		.byte	0x9
 1364 03de 35       		.byte	0x35
 1365 03df 70020000 		.4byte	0x270
 1366 03e3 02       		.byte	0x2
 1367 03e4 23       		.byte	0x23
 1368 03e5 04       		.uleb128 0x4
 1369 03e6 06       		.uleb128 0x6
 1370 03e7 E5020000 		.4byte	.LASF57
 1371 03eb 09       		.byte	0x9
 1372 03ec 37       		.byte	0x37
 1373 03ed FA000000 		.4byte	0xfa
 1374 03f1 02       		.byte	0x2
 1375 03f2 23       		.byte	0x23
 1376 03f3 08       		.uleb128 0x8
 1377 03f4 06       		.uleb128 0x6
 1378 03f5 D0030000 		.4byte	.LASF58
 1379 03f9 09       		.byte	0x9
 1380 03fa 3A       		.byte	0x3a
 1381 03fb 05010000 		.4byte	0x105
 1382 03ff 02       		.byte	0x2
 1383 0400 23       		.byte	0x23
 1384 0401 0C       		.uleb128 0xc
 1385 0402 00       		.byte	0x0
 1386 0403 09       		.uleb128 0x9
 1387 0404 04       		.byte	0x4
 1388 0405 B3030000 		.4byte	0x3b3
 1389 0409 05       		.uleb128 0x5
 1390 040a 5A010000 		.4byte	.LASF59
 1391 040e 04       		.byte	0x4
 1392 040f 09       		.byte	0x9
 1393 0410 41       		.byte	0x41
 1394 0411 24040000 		.4byte	0x424
 1395 0415 06       		.uleb128 0x6
 1396 0416 1E050000 		.4byte	.LASF60
 1397 041a 09       		.byte	0x9
 1398 041b 42       		.byte	0x42
 1399 041c 03040000 		.4byte	0x403
 1400 0420 02       		.byte	0x2
 1401 0421 23       		.byte	0x23
 1402 0422 00       		.uleb128 0x0
 1403 0423 00       		.byte	0x0
 1404 0424 03       		.uleb128 0x3
 1405 0425 5A010000 		.4byte	.LASF59
 1406 0429 09       		.byte	0x9
 1407 042a 45       		.byte	0x45
 1408 042b 09040000 		.4byte	0x409
 1409 042f 0E       		.uleb128 0xe
 1410 0430 04       		.byte	0x4
 1411 0431 06       		.byte	0x6
 1412 0432 96       		.byte	0x96
 1413 0433 64040000 		.4byte	0x464
ARM GAS  C:\Users\DNIEL~1\AppData\Local\Temp\ccSeIRNy.s 			page 26


 1414 0437 0F       		.uleb128 0xf
 1415 0438 07000000 		.4byte	.LASF61
 1416 043c 06       		.byte	0x6
 1417 043d 9D       		.byte	0x9d
 1418 043e EF000000 		.4byte	0xef
 1419 0442 0F       		.uleb128 0xf
 1420 0443 3B000000 		.4byte	.LASF62
 1421 0447 06       		.byte	0x6
 1422 0448 A4       		.byte	0xa4
 1423 0449 EF000000 		.4byte	0xef
 1424 044d 0F       		.uleb128 0xf
 1425 044e 55050000 		.4byte	.LASF63
 1426 0452 06       		.byte	0x6
 1427 0453 AB       		.byte	0xab
 1428 0454 AE020000 		.4byte	0x2ae
 1429 0458 0F       		.uleb128 0xf
 1430 0459 09040000 		.4byte	.LASF64
 1431 045d 06       		.byte	0x6
 1432 045e B2       		.byte	0xb2
 1433 045f FA000000 		.4byte	0xfa
 1434 0463 00       		.byte	0x0
 1435 0464 09       		.uleb128 0x9
 1436 0465 04       		.byte	0x4
 1437 0466 6A040000 		.4byte	0x46a
 1438 046a 10       		.uleb128 0x10
 1439 046b 6F040000 		.4byte	0x46f
 1440 046f 04       		.uleb128 0x4
 1441 0470 01       		.byte	0x1
 1442 0471 08       		.byte	0x8
 1443 0472 A6040000 		.4byte	.LASF65
 1444 0476 09       		.uleb128 0x9
 1445 0477 04       		.byte	0x4
 1446 0478 A8030000 		.4byte	0x3a8
 1447 047c 09       		.uleb128 0x9
 1448 047d 04       		.byte	0x4
 1449 047e 82040000 		.4byte	0x482
 1450 0482 11       		.uleb128 0x11
 1451 0483 01       		.byte	0x1
 1452 0484 EF000000 		.4byte	0xef
 1453 0488 92040000 		.4byte	0x492
 1454 048c 12       		.uleb128 0x12
 1455 048d AE020000 		.4byte	0x2ae
 1456 0491 00       		.byte	0x0
 1457 0492 03       		.uleb128 0x3
 1458 0493 3E020000 		.4byte	.LASF66
 1459 0497 0A       		.byte	0xa
 1460 0498 37       		.byte	0x37
 1461 0499 9D040000 		.4byte	0x49d
 1462 049d 05       		.uleb128 0x5
 1463 049e 3E020000 		.4byte	.LASF66
 1464 04a2 24       		.byte	0x24
 1465 04a3 0A       		.byte	0xa
 1466 04a4 45       		.byte	0x45
 1467 04a5 1A050000 		.4byte	0x51a
 1468 04a9 06       		.uleb128 0x6
 1469 04aa 68000000 		.4byte	.LASF67
 1470 04ae 0A       		.byte	0xa
ARM GAS  C:\Users\DNIEL~1\AppData\Local\Temp\ccSeIRNy.s 			page 27


 1471 04af 46       		.byte	0x46
 1472 04b0 76020000 		.4byte	0x276
 1473 04b4 02       		.byte	0x2
 1474 04b5 23       		.byte	0x23
 1475 04b6 00       		.uleb128 0x0
 1476 04b7 06       		.uleb128 0x6
 1477 04b8 61020000 		.4byte	.LASF68
 1478 04bc 0A       		.byte	0xa
 1479 04bd 47       		.byte	0x47
 1480 04be 30000000 		.4byte	0x30
 1481 04c2 02       		.byte	0x2
 1482 04c3 23       		.byte	0x23
 1483 04c4 08       		.uleb128 0x8
 1484 04c5 06       		.uleb128 0x6
 1485 04c6 1C010000 		.4byte	.LASF69
 1486 04ca 0A       		.byte	0xa
 1487 04cb 48       		.byte	0x48
 1488 04cc 3D050000 		.4byte	0x53d
 1489 04d0 02       		.byte	0x2
 1490 04d1 23       		.byte	0x23
 1491 04d2 0C       		.uleb128 0xc
 1492 04d3 06       		.uleb128 0x6
 1493 04d4 11050000 		.4byte	.LASF70
 1494 04d8 0A       		.byte	0xa
 1495 04d9 49       		.byte	0x49
 1496 04da 3D050000 		.4byte	0x53d
 1497 04de 02       		.byte	0x2
 1498 04df 23       		.byte	0x23
 1499 04e0 10       		.uleb128 0x10
 1500 04e1 06       		.uleb128 0x6
 1501 04e2 25010000 		.4byte	.LASF71
 1502 04e6 0A       		.byte	0xa
 1503 04e7 4B       		.byte	0x4b
 1504 04e8 3D050000 		.4byte	0x53d
 1505 04ec 02       		.byte	0x2
 1506 04ed 23       		.byte	0x23
 1507 04ee 14       		.uleb128 0x14
 1508 04ef 06       		.uleb128 0x6
 1509 04f0 60030000 		.4byte	.LASF72
 1510 04f4 0A       		.byte	0xa
 1511 04f5 4C       		.byte	0x4c
 1512 04f6 3D050000 		.4byte	0x53d
 1513 04fa 02       		.byte	0x2
 1514 04fb 23       		.byte	0x23
 1515 04fc 18       		.uleb128 0x18
 1516 04fd 06       		.uleb128 0x6
 1517 04fe 2B050000 		.4byte	.LASF73
 1518 0502 0A       		.byte	0xa
 1519 0503 4D       		.byte	0x4d
 1520 0504 1A050000 		.4byte	0x51a
 1521 0508 02       		.byte	0x2
 1522 0509 23       		.byte	0x23
 1523 050a 1C       		.uleb128 0x1c
 1524 050b 06       		.uleb128 0x6
 1525 050c 7B050000 		.4byte	.LASF74
 1526 0510 0A       		.byte	0xa
 1527 0511 4E       		.byte	0x4e
ARM GAS  C:\Users\DNIEL~1\AppData\Local\Temp\ccSeIRNy.s 			page 28


 1528 0512 AE020000 		.4byte	0x2ae
 1529 0516 02       		.byte	0x2
 1530 0517 23       		.byte	0x23
 1531 0518 20       		.uleb128 0x20
 1532 0519 00       		.byte	0x0
 1533 051a 03       		.uleb128 0x3
 1534 051b 34020000 		.4byte	.LASF75
 1535 051f 0A       		.byte	0xa
 1536 0520 3A       		.byte	0x3a
 1537 0521 25050000 		.4byte	0x525
 1538 0525 09       		.uleb128 0x9
 1539 0526 04       		.byte	0x4
 1540 0527 2B050000 		.4byte	0x52b
 1541 052b 13       		.uleb128 0x13
 1542 052c 01       		.byte	0x1
 1543 052d 37050000 		.4byte	0x537
 1544 0531 12       		.uleb128 0x12
 1545 0532 37050000 		.4byte	0x537
 1546 0536 00       		.byte	0x0
 1547 0537 09       		.uleb128 0x9
 1548 0538 04       		.byte	0x4
 1549 0539 92040000 		.4byte	0x492
 1550 053d 09       		.uleb128 0x9
 1551 053e 04       		.byte	0x4
 1552 053f 49000000 		.4byte	0x49
 1553 0543 03       		.uleb128 0x3
 1554 0544 3C050000 		.4byte	.LASF76
 1555 0548 0A       		.byte	0xa
 1556 0549 82       		.byte	0x82
 1557 054a 92040000 		.4byte	0x492
 1558 054e 03       		.uleb128 0x3
 1559 054f 0E000000 		.4byte	.LASF77
 1560 0553 0A       		.byte	0xa
 1561 0554 F5       		.byte	0xf5
 1562 0555 92040000 		.4byte	0x492
 1563 0559 11       		.uleb128 0x11
 1564 055a 01       		.byte	0x1
 1565 055b 30000000 		.4byte	0x30
 1566 055f 73050000 		.4byte	0x573
 1567 0563 12       		.uleb128 0x12
 1568 0564 AE020000 		.4byte	0x2ae
 1569 0568 12       		.uleb128 0x12
 1570 0569 73050000 		.4byte	0x573
 1571 056d 12       		.uleb128 0x12
 1572 056e 30000000 		.4byte	0x30
 1573 0572 00       		.byte	0x0
 1574 0573 09       		.uleb128 0x9
 1575 0574 04       		.byte	0x4
 1576 0575 79050000 		.4byte	0x579
 1577 0579 10       		.uleb128 0x10
 1578 057a 49000000 		.4byte	0x49
 1579 057e 09       		.uleb128 0x9
 1580 057f 04       		.byte	0x4
 1581 0580 59050000 		.4byte	0x559
 1582 0584 11       		.uleb128 0x11
 1583 0585 01       		.byte	0x1
 1584 0586 30000000 		.4byte	0x30
ARM GAS  C:\Users\DNIEL~1\AppData\Local\Temp\ccSeIRNy.s 			page 29


 1585 058a 9E050000 		.4byte	0x59e
 1586 058e 12       		.uleb128 0x12
 1587 058f AE020000 		.4byte	0x2ae
 1588 0593 12       		.uleb128 0x12
 1589 0594 3D050000 		.4byte	0x53d
 1590 0598 12       		.uleb128 0x12
 1591 0599 30000000 		.4byte	0x30
 1592 059d 00       		.byte	0x0
 1593 059e 09       		.uleb128 0x9
 1594 059f 04       		.byte	0x4
 1595 05a0 84050000 		.4byte	0x584
 1596 05a4 11       		.uleb128 0x11
 1597 05a5 01       		.byte	0x1
 1598 05a6 EF000000 		.4byte	0xef
 1599 05aa B9050000 		.4byte	0x5b9
 1600 05ae 12       		.uleb128 0x12
 1601 05af AE020000 		.4byte	0x2ae
 1602 05b3 12       		.uleb128 0x12
 1603 05b4 49000000 		.4byte	0x49
 1604 05b8 00       		.byte	0x0
 1605 05b9 09       		.uleb128 0x9
 1606 05ba 04       		.byte	0x4
 1607 05bb A4050000 		.4byte	0x5a4
 1608 05bf 14       		.uleb128 0x14
 1609 05c0 86000000 		.4byte	0x86
 1610 05c4 CF050000 		.4byte	0x5cf
 1611 05c8 15       		.uleb128 0x15
 1612 05c9 3B000000 		.4byte	0x3b
 1613 05cd 01       		.byte	0x1
 1614 05ce 00       		.byte	0x0
 1615 05cf 0D       		.uleb128 0xd
 1616 05d0 62000000 		.4byte	0x62
 1617 05d4 0D       		.uleb128 0xd
 1618 05d5 74000000 		.4byte	0x74
 1619 05d9 16       		.uleb128 0x16
 1620 05da 90       		.byte	0x90
 1621 05db 0B       		.byte	0xb
 1622 05dc 5804     		.2byte	0x458
 1623 05de C6070000 		.4byte	0x7c6
 1624 05e2 0C       		.uleb128 0xc
 1625 05e3 435200   		.ascii	"CR\000"
 1626 05e6 0B       		.byte	0xb
 1627 05e7 5A04     		.2byte	0x45a
 1628 05e9 61030000 		.4byte	0x361
 1629 05ed 02       		.byte	0x2
 1630 05ee 23       		.byte	0x23
 1631 05ef 00       		.uleb128 0x0
 1632 05f0 17       		.uleb128 0x17
 1633 05f1 3C010000 		.4byte	.LASF78
 1634 05f5 0B       		.byte	0xb
 1635 05f6 5B04     		.2byte	0x45b
 1636 05f8 61030000 		.4byte	0x361
 1637 05fc 02       		.byte	0x2
 1638 05fd 23       		.byte	0x23
 1639 05fe 04       		.uleb128 0x4
 1640 05ff 17       		.uleb128 0x17
 1641 0600 64050000 		.4byte	.LASF79
ARM GAS  C:\Users\DNIEL~1\AppData\Local\Temp\ccSeIRNy.s 			page 30


 1642 0604 0B       		.byte	0xb
 1643 0605 5C04     		.2byte	0x45c
 1644 0607 61030000 		.4byte	0x361
 1645 060b 02       		.byte	0x2
 1646 060c 23       		.byte	0x23
 1647 060d 08       		.uleb128 0x8
 1648 060e 0C       		.uleb128 0xc
 1649 060f 43495200 		.ascii	"CIR\000"
 1650 0613 0B       		.byte	0xb
 1651 0614 5D04     		.2byte	0x45d
 1652 0616 61030000 		.4byte	0x361
 1653 061a 02       		.byte	0x2
 1654 061b 23       		.byte	0x23
 1655 061c 0C       		.uleb128 0xc
 1656 061d 17       		.uleb128 0x17
 1657 061e 94000000 		.4byte	.LASF80
 1658 0622 0B       		.byte	0xb
 1659 0623 5E04     		.2byte	0x45e
 1660 0625 61030000 		.4byte	0x361
 1661 0629 02       		.byte	0x2
 1662 062a 23       		.byte	0x23
 1663 062b 10       		.uleb128 0x10
 1664 062c 17       		.uleb128 0x17
 1665 062d B2040000 		.4byte	.LASF81
 1666 0631 0B       		.byte	0xb
 1667 0632 5F04     		.2byte	0x45f
 1668 0634 61030000 		.4byte	0x361
 1669 0638 02       		.byte	0x2
 1670 0639 23       		.byte	0x23
 1671 063a 14       		.uleb128 0x14
 1672 063b 17       		.uleb128 0x17
 1673 063c 30040000 		.4byte	.LASF82
 1674 0640 0B       		.byte	0xb
 1675 0641 6004     		.2byte	0x460
 1676 0643 61030000 		.4byte	0x361
 1677 0647 02       		.byte	0x2
 1678 0648 23       		.byte	0x23
 1679 0649 18       		.uleb128 0x18
 1680 064a 17       		.uleb128 0x17
 1681 064b 15030000 		.4byte	.LASF83
 1682 064f 0B       		.byte	0xb
 1683 0650 6104     		.2byte	0x461
 1684 0652 86000000 		.4byte	0x86
 1685 0656 02       		.byte	0x2
 1686 0657 23       		.byte	0x23
 1687 0658 1C       		.uleb128 0x1c
 1688 0659 17       		.uleb128 0x17
 1689 065a DC020000 		.4byte	.LASF84
 1690 065e 0B       		.byte	0xb
 1691 065f 6204     		.2byte	0x462
 1692 0661 61030000 		.4byte	0x361
 1693 0665 02       		.byte	0x2
 1694 0666 23       		.byte	0x23
 1695 0667 20       		.uleb128 0x20
 1696 0668 17       		.uleb128 0x17
 1697 0669 F9000000 		.4byte	.LASF85
 1698 066d 0B       		.byte	0xb
ARM GAS  C:\Users\DNIEL~1\AppData\Local\Temp\ccSeIRNy.s 			page 31


 1699 066e 6304     		.2byte	0x463
 1700 0670 61030000 		.4byte	0x361
 1701 0674 02       		.byte	0x2
 1702 0675 23       		.byte	0x23
 1703 0676 24       		.uleb128 0x24
 1704 0677 17       		.uleb128 0x17
 1705 0678 1F030000 		.4byte	.LASF86
 1706 067c 0B       		.byte	0xb
 1707 067d 6404     		.2byte	0x464
 1708 067f BF050000 		.4byte	0x5bf
 1709 0683 02       		.byte	0x2
 1710 0684 23       		.byte	0x23
 1711 0685 28       		.uleb128 0x28
 1712 0686 17       		.uleb128 0x17
 1713 0687 5C050000 		.4byte	.LASF87
 1714 068b 0B       		.byte	0xb
 1715 068c 6504     		.2byte	0x465
 1716 068e 61030000 		.4byte	0x361
 1717 0692 02       		.byte	0x2
 1718 0693 23       		.byte	0x23
 1719 0694 30       		.uleb128 0x30
 1720 0695 17       		.uleb128 0x17
 1721 0696 DF040000 		.4byte	.LASF88
 1722 069a 0B       		.byte	0xb
 1723 069b 6604     		.2byte	0x466
 1724 069d 61030000 		.4byte	0x361
 1725 06a1 02       		.byte	0x2
 1726 06a2 23       		.byte	0x23
 1727 06a3 34       		.uleb128 0x34
 1728 06a4 17       		.uleb128 0x17
 1729 06a5 78020000 		.4byte	.LASF89
 1730 06a9 0B       		.byte	0xb
 1731 06aa 6704     		.2byte	0x467
 1732 06ac 61030000 		.4byte	0x361
 1733 06b0 02       		.byte	0x2
 1734 06b1 23       		.byte	0x23
 1735 06b2 38       		.uleb128 0x38
 1736 06b3 17       		.uleb128 0x17
 1737 06b4 29030000 		.4byte	.LASF90
 1738 06b8 0B       		.byte	0xb
 1739 06b9 6804     		.2byte	0x468
 1740 06bb 86000000 		.4byte	0x86
 1741 06bf 02       		.byte	0x2
 1742 06c0 23       		.byte	0x23
 1743 06c1 3C       		.uleb128 0x3c
 1744 06c2 17       		.uleb128 0x17
 1745 06c3 D7040000 		.4byte	.LASF91
 1746 06c7 0B       		.byte	0xb
 1747 06c8 6904     		.2byte	0x469
 1748 06ca 61030000 		.4byte	0x361
 1749 06ce 02       		.byte	0x2
 1750 06cf 23       		.byte	0x23
 1751 06d0 40       		.uleb128 0x40
 1752 06d1 17       		.uleb128 0x17
 1753 06d2 28040000 		.4byte	.LASF92
 1754 06d6 0B       		.byte	0xb
 1755 06d7 6A04     		.2byte	0x46a
ARM GAS  C:\Users\DNIEL~1\AppData\Local\Temp\ccSeIRNy.s 			page 32


 1756 06d9 61030000 		.4byte	0x361
 1757 06dd 02       		.byte	0x2
 1758 06de 23       		.byte	0x23
 1759 06df 44       		.uleb128 0x44
 1760 06e0 17       		.uleb128 0x17
 1761 06e1 33030000 		.4byte	.LASF93
 1762 06e5 0B       		.byte	0xb
 1763 06e6 6B04     		.2byte	0x46b
 1764 06e8 BF050000 		.4byte	0x5bf
 1765 06ec 02       		.byte	0x2
 1766 06ed 23       		.byte	0x23
 1767 06ee 48       		.uleb128 0x48
 1768 06ef 17       		.uleb128 0x17
 1769 06f0 51000000 		.4byte	.LASF94
 1770 06f4 0B       		.byte	0xb
 1771 06f5 6C04     		.2byte	0x46c
 1772 06f7 61030000 		.4byte	0x361
 1773 06fb 02       		.byte	0x2
 1774 06fc 23       		.byte	0x23
 1775 06fd 50       		.uleb128 0x50
 1776 06fe 17       		.uleb128 0x17
 1777 06ff 95020000 		.4byte	.LASF95
 1778 0703 0B       		.byte	0xb
 1779 0704 6D04     		.2byte	0x46d
 1780 0706 61030000 		.4byte	0x361
 1781 070a 02       		.byte	0x2
 1782 070b 23       		.byte	0x23
 1783 070c 54       		.uleb128 0x54
 1784 070d 17       		.uleb128 0x17
 1785 070e FF030000 		.4byte	.LASF96
 1786 0712 0B       		.byte	0xb
 1787 0713 6E04     		.2byte	0x46e
 1788 0715 61030000 		.4byte	0x361
 1789 0719 02       		.byte	0x2
 1790 071a 23       		.byte	0x23
 1791 071b 58       		.uleb128 0x58
 1792 071c 17       		.uleb128 0x17
 1793 071d 3D030000 		.4byte	.LASF97
 1794 0721 0B       		.byte	0xb
 1795 0722 6F04     		.2byte	0x46f
 1796 0724 86000000 		.4byte	0x86
 1797 0728 02       		.byte	0x2
 1798 0729 23       		.byte	0x23
 1799 072a 5C       		.uleb128 0x5c
 1800 072b 17       		.uleb128 0x17
 1801 072c 02010000 		.4byte	.LASF98
 1802 0730 0B       		.byte	0xb
 1803 0731 7004     		.2byte	0x470
 1804 0733 61030000 		.4byte	0x361
 1805 0737 02       		.byte	0x2
 1806 0738 23       		.byte	0x23
 1807 0739 60       		.uleb128 0x60
 1808 073a 17       		.uleb128 0x17
 1809 073b 03020000 		.4byte	.LASF99
 1810 073f 0B       		.byte	0xb
 1811 0740 7104     		.2byte	0x471
 1812 0742 61030000 		.4byte	0x361
ARM GAS  C:\Users\DNIEL~1\AppData\Local\Temp\ccSeIRNy.s 			page 33


 1813 0746 02       		.byte	0x2
 1814 0747 23       		.byte	0x23
 1815 0748 64       		.uleb128 0x64
 1816 0749 17       		.uleb128 0x17
 1817 074a 65040000 		.4byte	.LASF100
 1818 074e 0B       		.byte	0xb
 1819 074f 7204     		.2byte	0x472
 1820 0751 BF050000 		.4byte	0x5bf
 1821 0755 02       		.byte	0x2
 1822 0756 23       		.byte	0x23
 1823 0757 68       		.uleb128 0x68
 1824 0758 17       		.uleb128 0x17
 1825 0759 26050000 		.4byte	.LASF101
 1826 075d 0B       		.byte	0xb
 1827 075e 7304     		.2byte	0x473
 1828 0760 61030000 		.4byte	0x361
 1829 0764 02       		.byte	0x2
 1830 0765 23       		.byte	0x23
 1831 0766 70       		.uleb128 0x70
 1832 0767 0C       		.uleb128 0xc
 1833 0768 43535200 		.ascii	"CSR\000"
 1834 076c 0B       		.byte	0xb
 1835 076d 7404     		.2byte	0x474
 1836 076f 61030000 		.4byte	0x361
 1837 0773 02       		.byte	0x2
 1838 0774 23       		.byte	0x23
 1839 0775 74       		.uleb128 0x74
 1840 0776 17       		.uleb128 0x17
 1841 0777 4E030000 		.4byte	.LASF102
 1842 077b 0B       		.byte	0xb
 1843 077c 7504     		.2byte	0x475
 1844 077e BF050000 		.4byte	0x5bf
 1845 0782 02       		.byte	0x2
 1846 0783 23       		.byte	0x23
 1847 0784 78       		.uleb128 0x78
 1848 0785 17       		.uleb128 0x17
 1849 0786 0B050000 		.4byte	.LASF103
 1850 078a 0B       		.byte	0xb
 1851 078b 7604     		.2byte	0x476
 1852 078d 61030000 		.4byte	0x361
 1853 0791 03       		.byte	0x3
 1854 0792 23       		.byte	0x23
 1855 0793 8001     		.uleb128 0x80
 1856 0795 17       		.uleb128 0x17
 1857 0796 CE010000 		.4byte	.LASF104
 1858 079a 0B       		.byte	0xb
 1859 079b 7704     		.2byte	0x477
 1860 079d 61030000 		.4byte	0x361
 1861 07a1 03       		.byte	0x3
 1862 07a2 23       		.byte	0x23
 1863 07a3 8401     		.uleb128 0x84
 1864 07a5 17       		.uleb128 0x17
 1865 07a6 02030000 		.4byte	.LASF105
 1866 07aa 0B       		.byte	0xb
 1867 07ab 7804     		.2byte	0x478
 1868 07ad 61030000 		.4byte	0x361
 1869 07b1 03       		.byte	0x3
ARM GAS  C:\Users\DNIEL~1\AppData\Local\Temp\ccSeIRNy.s 			page 34


 1870 07b2 23       		.byte	0x23
 1871 07b3 8801     		.uleb128 0x88
 1872 07b5 17       		.uleb128 0x17
 1873 07b6 72000000 		.4byte	.LASF106
 1874 07ba 0B       		.byte	0xb
 1875 07bb 7904     		.2byte	0x479
 1876 07bd 61030000 		.4byte	0x361
 1877 07c1 03       		.byte	0x3
 1878 07c2 23       		.byte	0x23
 1879 07c3 8C01     		.uleb128 0x8c
 1880 07c5 00       		.byte	0x0
 1881 07c6 18       		.uleb128 0x18
 1882 07c7 CF000000 		.4byte	.LASF107
 1883 07cb 0B       		.byte	0xb
 1884 07cc 7B04     		.2byte	0x47b
 1885 07ce D9050000 		.4byte	0x5d9
 1886 07d2 16       		.uleb128 0x16
 1887 07d3 1C       		.byte	0x1c
 1888 07d4 0B       		.byte	0xb
 1889 07d5 2905     		.2byte	0x529
 1890 07d7 AC080000 		.4byte	0x8ac
 1891 07db 0C       		.uleb128 0xc
 1892 07dc 535200   		.ascii	"SR\000"
 1893 07df 0B       		.byte	0xb
 1894 07e0 2B05     		.2byte	0x52b
 1895 07e2 CF050000 		.4byte	0x5cf
 1896 07e6 02       		.byte	0x2
 1897 07e7 23       		.byte	0x23
 1898 07e8 00       		.uleb128 0x0
 1899 07e9 17       		.uleb128 0x17
 1900 07ea 15030000 		.4byte	.LASF83
 1901 07ee 0B       		.byte	0xb
 1902 07ef 2C05     		.2byte	0x52c
 1903 07f1 62000000 		.4byte	0x62
 1904 07f5 02       		.byte	0x2
 1905 07f6 23       		.byte	0x23
 1906 07f7 02       		.uleb128 0x2
 1907 07f8 0C       		.uleb128 0xc
 1908 07f9 445200   		.ascii	"DR\000"
 1909 07fc 0B       		.byte	0xb
 1910 07fd 2D05     		.2byte	0x52d
 1911 07ff CF050000 		.4byte	0x5cf
 1912 0803 02       		.byte	0x2
 1913 0804 23       		.byte	0x23
 1914 0805 04       		.uleb128 0x4
 1915 0806 17       		.uleb128 0x17
 1916 0807 1F030000 		.4byte	.LASF86
 1917 080b 0B       		.byte	0xb
 1918 080c 2E05     		.2byte	0x52e
 1919 080e 62000000 		.4byte	0x62
 1920 0812 02       		.byte	0x2
 1921 0813 23       		.byte	0x23
 1922 0814 06       		.uleb128 0x6
 1923 0815 0C       		.uleb128 0xc
 1924 0816 42525200 		.ascii	"BRR\000"
 1925 081a 0B       		.byte	0xb
 1926 081b 2F05     		.2byte	0x52f
ARM GAS  C:\Users\DNIEL~1\AppData\Local\Temp\ccSeIRNy.s 			page 35


 1927 081d CF050000 		.4byte	0x5cf
 1928 0821 02       		.byte	0x2
 1929 0822 23       		.byte	0x23
 1930 0823 08       		.uleb128 0x8
 1931 0824 17       		.uleb128 0x17
 1932 0825 29030000 		.4byte	.LASF90
 1933 0829 0B       		.byte	0xb
 1934 082a 3005     		.2byte	0x530
 1935 082c 62000000 		.4byte	0x62
 1936 0830 02       		.byte	0x2
 1937 0831 23       		.byte	0x23
 1938 0832 0A       		.uleb128 0xa
 1939 0833 0C       		.uleb128 0xc
 1940 0834 43523100 		.ascii	"CR1\000"
 1941 0838 0B       		.byte	0xb
 1942 0839 3105     		.2byte	0x531
 1943 083b CF050000 		.4byte	0x5cf
 1944 083f 02       		.byte	0x2
 1945 0840 23       		.byte	0x23
 1946 0841 0C       		.uleb128 0xc
 1947 0842 17       		.uleb128 0x17
 1948 0843 33030000 		.4byte	.LASF93
 1949 0847 0B       		.byte	0xb
 1950 0848 3205     		.2byte	0x532
 1951 084a 62000000 		.4byte	0x62
 1952 084e 02       		.byte	0x2
 1953 084f 23       		.byte	0x23
 1954 0850 0E       		.uleb128 0xe
 1955 0851 0C       		.uleb128 0xc
 1956 0852 43523200 		.ascii	"CR2\000"
 1957 0856 0B       		.byte	0xb
 1958 0857 3305     		.2byte	0x533
 1959 0859 CF050000 		.4byte	0x5cf
 1960 085d 02       		.byte	0x2
 1961 085e 23       		.byte	0x23
 1962 085f 10       		.uleb128 0x10
 1963 0860 17       		.uleb128 0x17
 1964 0861 3D030000 		.4byte	.LASF97
 1965 0865 0B       		.byte	0xb
 1966 0866 3405     		.2byte	0x534
 1967 0868 62000000 		.4byte	0x62
 1968 086c 02       		.byte	0x2
 1969 086d 23       		.byte	0x23
 1970 086e 12       		.uleb128 0x12
 1971 086f 0C       		.uleb128 0xc
 1972 0870 43523300 		.ascii	"CR3\000"
 1973 0874 0B       		.byte	0xb
 1974 0875 3505     		.2byte	0x535
 1975 0877 CF050000 		.4byte	0x5cf
 1976 087b 02       		.byte	0x2
 1977 087c 23       		.byte	0x23
 1978 087d 14       		.uleb128 0x14
 1979 087e 17       		.uleb128 0x17
 1980 087f 65040000 		.4byte	.LASF100
 1981 0883 0B       		.byte	0xb
 1982 0884 3605     		.2byte	0x536
 1983 0886 62000000 		.4byte	0x62
ARM GAS  C:\Users\DNIEL~1\AppData\Local\Temp\ccSeIRNy.s 			page 36


 1984 088a 02       		.byte	0x2
 1985 088b 23       		.byte	0x23
 1986 088c 16       		.uleb128 0x16
 1987 088d 17       		.uleb128 0x17
 1988 088e 9D000000 		.4byte	.LASF108
 1989 0892 0B       		.byte	0xb
 1990 0893 3705     		.2byte	0x537
 1991 0895 CF050000 		.4byte	0x5cf
 1992 0899 02       		.byte	0x2
 1993 089a 23       		.byte	0x23
 1994 089b 18       		.uleb128 0x18
 1995 089c 17       		.uleb128 0x17
 1996 089d 4E030000 		.4byte	.LASF102
 1997 08a1 0B       		.byte	0xb
 1998 08a2 3805     		.2byte	0x538
 1999 08a4 62000000 		.4byte	0x62
 2000 08a8 02       		.byte	0x2
 2001 08a9 23       		.byte	0x23
 2002 08aa 1A       		.uleb128 0x1a
 2003 08ab 00       		.byte	0x0
 2004 08ac 18       		.uleb128 0x18
 2005 08ad E6010000 		.4byte	.LASF109
 2006 08b1 0B       		.byte	0xb
 2007 08b2 3905     		.2byte	0x539
 2008 08b4 D2070000 		.4byte	0x7d2
 2009 08b8 11       		.uleb128 0x11
 2010 08b9 01       		.byte	0x1
 2011 08ba EF000000 		.4byte	0xef
 2012 08be D2080000 		.4byte	0x8d2
 2013 08c2 12       		.uleb128 0x12
 2014 08c3 AE020000 		.4byte	0x2ae
 2015 08c7 12       		.uleb128 0x12
 2016 08c8 49000000 		.4byte	0x49
 2017 08cc 12       		.uleb128 0x12
 2018 08cd 10010000 		.4byte	0x110
 2019 08d1 00       		.byte	0x0
 2020 08d2 09       		.uleb128 0x9
 2021 08d3 04       		.byte	0x4
 2022 08d4 B8080000 		.4byte	0x8b8
 2023 08d8 11       		.uleb128 0x11
 2024 08d9 01       		.byte	0x1
 2025 08da EF000000 		.4byte	0xef
 2026 08de ED080000 		.4byte	0x8ed
 2027 08e2 12       		.uleb128 0x12
 2028 08e3 AE020000 		.4byte	0x2ae
 2029 08e7 12       		.uleb128 0x12
 2030 08e8 10010000 		.4byte	0x110
 2031 08ec 00       		.byte	0x0
 2032 08ed 09       		.uleb128 0x9
 2033 08ee 04       		.byte	0x4
 2034 08ef D8080000 		.4byte	0x8d8
 2035 08f3 11       		.uleb128 0x11
 2036 08f4 01       		.byte	0x1
 2037 08f5 30000000 		.4byte	0x30
 2038 08f9 12090000 		.4byte	0x912
 2039 08fd 12       		.uleb128 0x12
 2040 08fe AE020000 		.4byte	0x2ae
ARM GAS  C:\Users\DNIEL~1\AppData\Local\Temp\ccSeIRNy.s 			page 37


 2041 0902 12       		.uleb128 0x12
 2042 0903 73050000 		.4byte	0x573
 2043 0907 12       		.uleb128 0x12
 2044 0908 30000000 		.4byte	0x30
 2045 090c 12       		.uleb128 0x12
 2046 090d 10010000 		.4byte	0x110
 2047 0911 00       		.byte	0x0
 2048 0912 09       		.uleb128 0x9
 2049 0913 04       		.byte	0x4
 2050 0914 F3080000 		.4byte	0x8f3
 2051 0918 11       		.uleb128 0x11
 2052 0919 01       		.byte	0x1
 2053 091a 30000000 		.4byte	0x30
 2054 091e 37090000 		.4byte	0x937
 2055 0922 12       		.uleb128 0x12
 2056 0923 AE020000 		.4byte	0x2ae
 2057 0927 12       		.uleb128 0x12
 2058 0928 3D050000 		.4byte	0x53d
 2059 092c 12       		.uleb128 0x12
 2060 092d 30000000 		.4byte	0x30
 2061 0931 12       		.uleb128 0x12
 2062 0932 10010000 		.4byte	0x110
 2063 0936 00       		.byte	0x0
 2064 0937 09       		.uleb128 0x9
 2065 0938 04       		.byte	0x4
 2066 0939 18090000 		.4byte	0x918
 2067 093d 19       		.uleb128 0x19
 2068 093e 01       		.byte	0x1
 2069 093f 0C       		.byte	0xc
 2070 0940 64       		.byte	0x64
 2071 0941 58090000 		.4byte	0x958
 2072 0945 1A       		.uleb128 0x1a
 2073 0946 5B040000 		.4byte	.LASF110
 2074 094a 00       		.sleb128 0
 2075 094b 1A       		.uleb128 0x1a
 2076 094c 20040000 		.4byte	.LASF111
 2077 0950 01       		.sleb128 1
 2078 0951 1A       		.uleb128 0x1a
 2079 0952 F6040000 		.4byte	.LASF112
 2080 0956 02       		.sleb128 2
 2081 0957 00       		.byte	0x0
 2082 0958 03       		.uleb128 0x3
 2083 0959 78040000 		.4byte	.LASF113
 2084 095d 0C       		.byte	0xc
 2085 095e 68       		.byte	0x68
 2086 095f 3D090000 		.4byte	0x93d
 2087 0963 03       		.uleb128 0x3
 2088 0964 82040000 		.4byte	.LASF114
 2089 0968 0C       		.byte	0xc
 2090 0969 6D       		.byte	0x6d
 2091 096a 6E090000 		.4byte	0x96e
 2092 096e 05       		.uleb128 0x5
 2093 096f 82040000 		.4byte	.LASF114
 2094 0973 78       		.byte	0x78
 2095 0974 0C       		.byte	0xc
 2096 0975 87       		.byte	0x87
 2097 0976 E9090000 		.4byte	0x9e9
ARM GAS  C:\Users\DNIEL~1\AppData\Local\Temp\ccSeIRNy.s 			page 38


 2098 097a 07       		.uleb128 0x7
 2099 097b 766D7400 		.ascii	"vmt\000"
 2100 097f 0C       		.byte	0xc
 2101 0980 89       		.byte	0x89
 2102 0981 B20A0000 		.4byte	0xab2
 2103 0985 02       		.byte	0x2
 2104 0986 23       		.byte	0x23
 2105 0987 00       		.uleb128 0x0
 2106 0988 06       		.uleb128 0x6
 2107 0989 B5010000 		.4byte	.LASF115
 2108 098d 0C       		.byte	0xc
 2109 098e 8A       		.byte	0x8a
 2110 098f 24040000 		.4byte	0x424
 2111 0993 02       		.byte	0x2
 2112 0994 23       		.byte	0x23
 2113 0995 04       		.uleb128 0x4
 2114 0996 06       		.uleb128 0x6
 2115 0997 EA000000 		.4byte	.LASF116
 2116 099b 0C       		.byte	0xc
 2117 099c 8A       		.byte	0x8a
 2118 099d 58090000 		.4byte	0x958
 2119 09a1 02       		.byte	0x2
 2120 09a2 23       		.byte	0x23
 2121 09a3 08       		.uleb128 0x8
 2122 09a4 06       		.uleb128 0x6
 2123 09a5 92010000 		.4byte	.LASF117
 2124 09a9 0C       		.byte	0xc
 2125 09aa 8A       		.byte	0x8a
 2126 09ab 43050000 		.4byte	0x543
 2127 09af 02       		.byte	0x2
 2128 09b0 23       		.byte	0x23
 2129 09b1 0C       		.uleb128 0xc
 2130 09b2 06       		.uleb128 0x6
 2131 09b3 DF010000 		.4byte	.LASF118
 2132 09b7 0C       		.byte	0xc
 2133 09b8 8A       		.byte	0x8a
 2134 09b9 4E050000 		.4byte	0x54e
 2135 09bd 02       		.byte	0x2
 2136 09be 23       		.byte	0x23
 2137 09bf 30       		.uleb128 0x30
 2138 09c0 07       		.uleb128 0x7
 2139 09c1 696200   		.ascii	"ib\000"
 2140 09c4 0C       		.byte	0xc
 2141 09c5 8A       		.byte	0x8a
 2142 09c6 BD0A0000 		.4byte	0xabd
 2143 09ca 02       		.byte	0x2
 2144 09cb 23       		.byte	0x23
 2145 09cc 54       		.uleb128 0x54
 2146 09cd 07       		.uleb128 0x7
 2147 09ce 6F6200   		.ascii	"ob\000"
 2148 09d1 0C       		.byte	0xc
 2149 09d2 8A       		.byte	0x8a
 2150 09d3 BD0A0000 		.4byte	0xabd
 2151 09d7 02       		.byte	0x2
 2152 09d8 23       		.byte	0x23
 2153 09d9 64       		.uleb128 0x64
 2154 09da 06       		.uleb128 0x6
ARM GAS  C:\Users\DNIEL~1\AppData\Local\Temp\ccSeIRNy.s 			page 39


 2155 09db 66010000 		.4byte	.LASF119
 2156 09df 0C       		.byte	0xc
 2157 09e0 8A       		.byte	0x8a
 2158 09e1 CD0A0000 		.4byte	0xacd
 2159 09e5 02       		.byte	0x2
 2160 09e6 23       		.byte	0x23
 2161 09e7 74       		.uleb128 0x74
 2162 09e8 00       		.byte	0x0
 2163 09e9 08       		.uleb128 0x8
 2164 09ea 0C       		.byte	0xc
 2165 09eb 0D       		.byte	0xd
 2166 09ec D7       		.byte	0xd7
 2167 09ed 2A0A0000 		.4byte	0xa2a
 2168 09f1 06       		.uleb128 0x6
 2169 09f2 2E020000 		.4byte	.LASF120
 2170 09f6 0D       		.byte	0xd
 2171 09f7 DB       		.byte	0xdb
 2172 09f8 86000000 		.4byte	0x86
 2173 09fc 02       		.byte	0x2
 2174 09fd 23       		.byte	0x23
 2175 09fe 00       		.uleb128 0x0
 2176 09ff 07       		.uleb128 0x7
 2177 0a00 63723100 		.ascii	"cr1\000"
 2178 0a04 0D       		.byte	0xd
 2179 0a05 E0       		.byte	0xe0
 2180 0a06 62000000 		.4byte	0x62
 2181 0a0a 02       		.byte	0x2
 2182 0a0b 23       		.byte	0x23
 2183 0a0c 04       		.uleb128 0x4
 2184 0a0d 07       		.uleb128 0x7
 2185 0a0e 63723200 		.ascii	"cr2\000"
 2186 0a12 0D       		.byte	0xd
 2187 0a13 E4       		.byte	0xe4
 2188 0a14 62000000 		.4byte	0x62
 2189 0a18 02       		.byte	0x2
 2190 0a19 23       		.byte	0x23
 2191 0a1a 06       		.uleb128 0x6
 2192 0a1b 07       		.uleb128 0x7
 2193 0a1c 63723300 		.ascii	"cr3\000"
 2194 0a20 0D       		.byte	0xd
 2195 0a21 E8       		.byte	0xe8
 2196 0a22 62000000 		.4byte	0x62
 2197 0a26 02       		.byte	0x2
 2198 0a27 23       		.byte	0x23
 2199 0a28 08       		.uleb128 0x8
 2200 0a29 00       		.byte	0x0
 2201 0a2a 03       		.uleb128 0x3
 2202 0a2b ED020000 		.4byte	.LASF121
 2203 0a2f 0D       		.byte	0xd
 2204 0a30 E9       		.byte	0xe9
 2205 0a31 E9090000 		.4byte	0x9e9
 2206 0a35 05       		.uleb128 0x5
 2207 0a36 82010000 		.4byte	.LASF122
 2208 0a3a 20       		.byte	0x20
 2209 0a3b 0C       		.byte	0xc
 2210 0a3c 7C       		.byte	0x7c
 2211 0a3d B20A0000 		.4byte	0xab2
ARM GAS  C:\Users\DNIEL~1\AppData\Local\Temp\ccSeIRNy.s 			page 40


 2212 0a41 06       		.uleb128 0x6
 2213 0a42 4B020000 		.4byte	.LASF123
 2214 0a46 0C       		.byte	0xc
 2215 0a47 7D       		.byte	0x7d
 2216 0a48 7E050000 		.4byte	0x57e
 2217 0a4c 02       		.byte	0x2
 2218 0a4d 23       		.byte	0x23
 2219 0a4e 00       		.uleb128 0x0
 2220 0a4f 06       		.uleb128 0x6
 2221 0a50 A1040000 		.4byte	.LASF124
 2222 0a54 0C       		.byte	0xc
 2223 0a55 7D       		.byte	0x7d
 2224 0a56 9E050000 		.4byte	0x59e
 2225 0a5a 02       		.byte	0x2
 2226 0a5b 23       		.byte	0x23
 2227 0a5c 04       		.uleb128 0x4
 2228 0a5d 07       		.uleb128 0x7
 2229 0a5e 70757400 		.ascii	"put\000"
 2230 0a62 0C       		.byte	0xc
 2231 0a63 7D       		.byte	0x7d
 2232 0a64 B9050000 		.4byte	0x5b9
 2233 0a68 02       		.byte	0x2
 2234 0a69 23       		.byte	0x23
 2235 0a6a 08       		.uleb128 0x8
 2236 0a6b 07       		.uleb128 0x7
 2237 0a6c 67657400 		.ascii	"get\000"
 2238 0a70 0C       		.byte	0xc
 2239 0a71 7D       		.byte	0x7d
 2240 0a72 7C040000 		.4byte	0x47c
 2241 0a76 02       		.byte	0x2
 2242 0a77 23       		.byte	0x23
 2243 0a78 0C       		.uleb128 0xc
 2244 0a79 06       		.uleb128 0x6
 2245 0a7a 51020000 		.4byte	.LASF125
 2246 0a7e 0C       		.byte	0xc
 2247 0a7f 7D       		.byte	0x7d
 2248 0a80 D2080000 		.4byte	0x8d2
 2249 0a84 02       		.byte	0x2
 2250 0a85 23       		.byte	0x23
 2251 0a86 10       		.uleb128 0x10
 2252 0a87 06       		.uleb128 0x6
 2253 0a88 B0010000 		.4byte	.LASF126
 2254 0a8c 0C       		.byte	0xc
 2255 0a8d 7D       		.byte	0x7d
 2256 0a8e ED080000 		.4byte	0x8ed
 2257 0a92 02       		.byte	0x2
 2258 0a93 23       		.byte	0x23
 2259 0a94 14       		.uleb128 0x14
 2260 0a95 06       		.uleb128 0x6
 2261 0a96 F4010000 		.4byte	.LASF127
 2262 0a9a 0C       		.byte	0xc
 2263 0a9b 7D       		.byte	0x7d
 2264 0a9c 12090000 		.4byte	0x912
 2265 0aa0 02       		.byte	0x2
 2266 0aa1 23       		.byte	0x23
 2267 0aa2 18       		.uleb128 0x18
 2268 0aa3 06       		.uleb128 0x6
ARM GAS  C:\Users\DNIEL~1\AppData\Local\Temp\ccSeIRNy.s 			page 41


 2269 0aa4 62000000 		.4byte	.LASF128
 2270 0aa8 0C       		.byte	0xc
 2271 0aa9 7D       		.byte	0x7d
 2272 0aaa 37090000 		.4byte	0x937
 2273 0aae 02       		.byte	0x2
 2274 0aaf 23       		.byte	0x23
 2275 0ab0 1C       		.uleb128 0x1c
 2276 0ab1 00       		.byte	0x0
 2277 0ab2 09       		.uleb128 0x9
 2278 0ab3 04       		.byte	0x4
 2279 0ab4 B80A0000 		.4byte	0xab8
 2280 0ab8 10       		.uleb128 0x10
 2281 0ab9 350A0000 		.4byte	0xa35
 2282 0abd 14       		.uleb128 0x14
 2283 0abe 49000000 		.4byte	0x49
 2284 0ac2 CD0A0000 		.4byte	0xacd
 2285 0ac6 15       		.uleb128 0x15
 2286 0ac7 3B000000 		.4byte	0x3b
 2287 0acb 0F       		.byte	0xf
 2288 0acc 00       		.byte	0x0
 2289 0acd 09       		.uleb128 0x9
 2290 0ace 04       		.byte	0x4
 2291 0acf AC080000 		.4byte	0x8ac
 2292 0ad3 1B       		.uleb128 0x1b
 2293 0ad4 56020000 		.4byte	.LASF130
 2294 0ad8 01       		.byte	0x1
 2295 0ad9 5C       		.byte	0x5c
 2296 0ada 01       		.byte	0x1
 2297 0adb 01       		.byte	0x1
 2298 0adc 000B0000 		.4byte	0xb00
 2299 0ae0 1C       		.uleb128 0x1c
 2300 0ae1 73647000 		.ascii	"sdp\000"
 2301 0ae5 01       		.byte	0x1
 2302 0ae6 5C       		.byte	0x5c
 2303 0ae7 000B0000 		.4byte	0xb00
 2304 0aeb 1D       		.uleb128 0x1d
 2305 0aec AB040000 		.4byte	.LASF129
 2306 0af0 01       		.byte	0x1
 2307 0af1 5C       		.byte	0x5c
 2308 0af2 060B0000 		.4byte	0xb06
 2309 0af6 1E       		.uleb128 0x1e
 2310 0af7 7500     		.ascii	"u\000"
 2311 0af9 01       		.byte	0x1
 2312 0afa 5D       		.byte	0x5d
 2313 0afb CD0A0000 		.4byte	0xacd
 2314 0aff 00       		.byte	0x0
 2315 0b00 09       		.uleb128 0x9
 2316 0b01 04       		.byte	0x4
 2317 0b02 63090000 		.4byte	0x963
 2318 0b06 09       		.uleb128 0x9
 2319 0b07 04       		.byte	0x4
 2320 0b08 0C0B0000 		.4byte	0xb0c
 2321 0b0c 10       		.uleb128 0x10
 2322 0b0d 2A0A0000 		.4byte	0xa2a
 2323 0b11 1B       		.uleb128 0x1b
 2324 0b12 1A000000 		.4byte	.LASF131
 2325 0b16 01       		.byte	0x1
ARM GAS  C:\Users\DNIEL~1\AppData\Local\Temp\ccSeIRNy.s 			page 42


 2326 0b17 87       		.byte	0x87
 2327 0b18 01       		.byte	0x1
 2328 0b19 01       		.byte	0x1
 2329 0b1a 3F0B0000 		.4byte	0xb3f
 2330 0b1e 1C       		.uleb128 0x1c
 2331 0b1f 73647000 		.ascii	"sdp\000"
 2332 0b23 01       		.byte	0x1
 2333 0b24 87       		.byte	0x87
 2334 0b25 000B0000 		.4byte	0xb00
 2335 0b29 1C       		.uleb128 0x1c
 2336 0b2a 737200   		.ascii	"sr\000"
 2337 0b2d 01       		.byte	0x1
 2338 0b2e 87       		.byte	0x87
 2339 0b2f 62000000 		.4byte	0x62
 2340 0b33 1E       		.uleb128 0x1e
 2341 0b34 73747300 		.ascii	"sts\000"
 2342 0b38 01       		.byte	0x1
 2343 0b39 88       		.byte	0x88
 2344 0b3a 05010000 		.4byte	0x105
 2345 0b3e 00       		.byte	0x0
 2346 0b3f 1B       		.uleb128 0x1b
 2347 0b40 4D010000 		.4byte	.LASF132
 2348 0b44 01       		.byte	0x1
 2349 0b45 7A       		.byte	0x7a
 2350 0b46 01       		.byte	0x1
 2351 0b47 01       		.byte	0x1
 2352 0b48 560B0000 		.4byte	0xb56
 2353 0b4c 1C       		.uleb128 0x1c
 2354 0b4d 7500     		.ascii	"u\000"
 2355 0b4f 01       		.byte	0x1
 2356 0b50 7A       		.byte	0x7a
 2357 0b51 CD0A0000 		.4byte	0xacd
 2358 0b55 00       		.byte	0x0
 2359 0b56 1B       		.uleb128 0x1b
 2360 0b57 40040000 		.4byte	.LASF133
 2361 0b5b 01       		.byte	0x1
 2362 0b5c 9A       		.byte	0x9a
 2363 0b5d 01       		.byte	0x1
 2364 0b5e 01       		.byte	0x1
 2365 0b5f 1C0C0000 		.4byte	0xc1c
 2366 0b63 1C       		.uleb128 0x1c
 2367 0b64 73647000 		.ascii	"sdp\000"
 2368 0b68 01       		.byte	0x1
 2369 0b69 9A       		.byte	0x9a
 2370 0b6a 000B0000 		.4byte	0xb00
 2371 0b6e 1E       		.uleb128 0x1e
 2372 0b6f 7500     		.ascii	"u\000"
 2373 0b71 01       		.byte	0x1
 2374 0b72 9B       		.byte	0x9b
 2375 0b73 CD0A0000 		.4byte	0xacd
 2376 0b77 1E       		.uleb128 0x1e
 2377 0b78 63723100 		.ascii	"cr1\000"
 2378 0b7c 01       		.byte	0x1
 2379 0b7d 9C       		.byte	0x9c
 2380 0b7e 62000000 		.4byte	0x62
 2381 0b82 1E       		.uleb128 0x1e
 2382 0b83 737200   		.ascii	"sr\000"
ARM GAS  C:\Users\DNIEL~1\AppData\Local\Temp\ccSeIRNy.s 			page 43


 2383 0b86 01       		.byte	0x1
 2384 0b87 9D       		.byte	0x9d
 2385 0b88 62000000 		.4byte	0x62
 2386 0b8c 1F       		.uleb128 0x1f
 2387 0b8d 9D0B0000 		.4byte	0xb9d
 2388 0b91 1E       		.uleb128 0x1e
 2389 0b92 746D7000 		.ascii	"tmp\000"
 2390 0b96 01       		.byte	0x1
 2391 0b97 A1       		.byte	0xa1
 2392 0b98 86000000 		.4byte	0x86
 2393 0b9c 00       		.byte	0x0
 2394 0b9d 1F       		.uleb128 0x1f
 2395 0b9e AE0B0000 		.4byte	0xbae
 2396 0ba2 1E       		.uleb128 0x1e
 2397 0ba3 746D7000 		.ascii	"tmp\000"
 2398 0ba7 01       		.byte	0x1
 2399 0ba8 A3       		.byte	0xa3
 2400 0ba9 86000000 		.4byte	0x86
 2401 0bad 00       		.byte	0x0
 2402 0bae 1F       		.uleb128 0x1f
 2403 0baf BF0B0000 		.4byte	0xbbf
 2404 0bb3 1E       		.uleb128 0x1e
 2405 0bb4 746D7000 		.ascii	"tmp\000"
 2406 0bb8 01       		.byte	0x1
 2407 0bb9 A8       		.byte	0xa8
 2408 0bba 86000000 		.4byte	0x86
 2409 0bbe 00       		.byte	0x0
 2410 0bbf 1F       		.uleb128 0x1f
 2411 0bc0 D00B0000 		.4byte	0xbd0
 2412 0bc4 1E       		.uleb128 0x1e
 2413 0bc5 746D7000 		.ascii	"tmp\000"
 2414 0bc9 01       		.byte	0x1
 2415 0bca B0       		.byte	0xb0
 2416 0bcb 86000000 		.4byte	0x86
 2417 0bcf 00       		.byte	0x0
 2418 0bd0 1F       		.uleb128 0x1f
 2419 0bd1 FD0B0000 		.4byte	0xbfd
 2420 0bd5 1E       		.uleb128 0x1e
 2421 0bd6 6200     		.ascii	"b\000"
 2422 0bd8 01       		.byte	0x1
 2423 0bd9 B4       		.byte	0xb4
 2424 0bda EF000000 		.4byte	0xef
 2425 0bde 1F       		.uleb128 0x1f
 2426 0bdf EF0B0000 		.4byte	0xbef
 2427 0be3 1E       		.uleb128 0x1e
 2428 0be4 746D7000 		.ascii	"tmp\000"
 2429 0be8 01       		.byte	0x1
 2430 0be9 B5       		.byte	0xb5
 2431 0bea 86000000 		.4byte	0x86
 2432 0bee 00       		.byte	0x0
 2433 0bef 20       		.uleb128 0x20
 2434 0bf0 1E       		.uleb128 0x1e
 2435 0bf1 746D7000 		.ascii	"tmp\000"
 2436 0bf5 01       		.byte	0x1
 2437 0bf6 BD       		.byte	0xbd
 2438 0bf7 86000000 		.4byte	0x86
 2439 0bfb 00       		.byte	0x0
ARM GAS  C:\Users\DNIEL~1\AppData\Local\Temp\ccSeIRNy.s 			page 44


 2440 0bfc 00       		.byte	0x0
 2441 0bfd 1F       		.uleb128 0x1f
 2442 0bfe 0E0C0000 		.4byte	0xc0e
 2443 0c02 1E       		.uleb128 0x1e
 2444 0c03 746D7000 		.ascii	"tmp\000"
 2445 0c07 01       		.byte	0x1
 2446 0c08 C2       		.byte	0xc2
 2447 0c09 86000000 		.4byte	0x86
 2448 0c0d 00       		.byte	0x0
 2449 0c0e 20       		.uleb128 0x20
 2450 0c0f 1E       		.uleb128 0x1e
 2451 0c10 746D7000 		.ascii	"tmp\000"
 2452 0c14 01       		.byte	0x1
 2453 0c15 C7       		.byte	0xc7
 2454 0c16 86000000 		.4byte	0x86
 2455 0c1a 00       		.byte	0x0
 2456 0c1b 00       		.byte	0x0
 2457 0c1c 21       		.uleb128 0x21
 2458 0c1d FA020000 		.4byte	.LASF141
 2459 0c21 01       		.byte	0x1
 2460 0c22 CC       		.byte	0xcc
 2461 0c23 01       		.byte	0x1
 2462 0c24 00000000 		.4byte	.LFB122
 2463 0c28 14000000 		.4byte	.LFE122
 2464 0c2c 02       		.byte	0x2
 2465 0c2d 7D       		.byte	0x7d
 2466 0c2e 00       		.sleb128 0
 2467 0c2f 420C0000 		.4byte	0xc42
 2468 0c33 22       		.uleb128 0x22
 2469 0c34 717000   		.ascii	"qp\000"
 2470 0c37 01       		.byte	0x1
 2471 0c38 CC       		.byte	0xcc
 2472 0c39 37050000 		.4byte	0x537
 2473 0c3d 00000000 		.4byte	.LLST0
 2474 0c41 00       		.byte	0x0
 2475 0c42 23       		.uleb128 0x23
 2476 0c43 01       		.byte	0x1
 2477 0c44 25020000 		.4byte	.LASF134
 2478 0c48 01       		.byte	0x1
 2479 0c49 0801     		.2byte	0x108
 2480 0c4b 01       		.byte	0x1
 2481 0c4c 00000000 		.4byte	.LFB123
 2482 0c50 18010000 		.4byte	.LFE123
 2483 0c54 13000000 		.4byte	.LLST1
 2484 0c58 890D0000 		.4byte	0xd89
 2485 0c5c 24       		.uleb128 0x24
 2486 0c5d 560B0000 		.4byte	0xb56
 2487 0c61 04000000 		.4byte	.LBB52
 2488 0c65 00000000 		.4byte	.Ldebug_ranges0+0x0
 2489 0c69 01       		.byte	0x1
 2490 0c6a 0C01     		.2byte	0x10c
 2491 0c6c 25       		.uleb128 0x25
 2492 0c6d 18000000 		.4byte	.Ldebug_ranges0+0x18
 2493 0c71 26       		.uleb128 0x26
 2494 0c72 6E0B0000 		.4byte	0xb6e
 2495 0c76 33000000 		.4byte	.LLST2
 2496 0c7a 27       		.uleb128 0x27
ARM GAS  C:\Users\DNIEL~1\AppData\Local\Temp\ccSeIRNy.s 			page 45


 2497 0c7b 770B0000 		.4byte	0xb77
 2498 0c7f 01       		.byte	0x1
 2499 0c80 57       		.byte	0x57
 2500 0c81 28       		.uleb128 0x28
 2501 0c82 820B0000 		.4byte	0xb82
 2502 0c86 29       		.uleb128 0x29
 2503 0c87 630B0000 		.4byte	0xb63
 2504 0c8b 06       		.byte	0x6
 2505 0c8c 03       		.byte	0x3
 2506 0c8d 00000000 		.4byte	SD1
 2507 0c91 9F       		.byte	0x9f
 2508 0c92 2A       		.uleb128 0x2a
 2509 0c93 30000000 		.4byte	.Ldebug_ranges0+0x30
 2510 0c97 A50C0000 		.4byte	0xca5
 2511 0c9b 26       		.uleb128 0x26
 2512 0c9c 0F0C0000 		.4byte	0xc0f
 2513 0ca0 55000000 		.4byte	.LLST3
 2514 0ca4 00       		.byte	0x0
 2515 0ca5 2B       		.uleb128 0x2b
 2516 0ca6 80000000 		.4byte	.LBB56
 2517 0caa 86000000 		.4byte	.LBE56
 2518 0cae BC0C0000 		.4byte	0xcbc
 2519 0cb2 26       		.uleb128 0x26
 2520 0cb3 020C0000 		.4byte	0xc02
 2521 0cb7 68000000 		.4byte	.LLST4
 2522 0cbb 00       		.byte	0x0
 2523 0cbc 2B       		.uleb128 0x2b
 2524 0cbd 68000000 		.4byte	.LBB57
 2525 0cc1 6E000000 		.4byte	.LBE57
 2526 0cc5 D30C0000 		.4byte	0xcd3
 2527 0cc9 26       		.uleb128 0x26
 2528 0cca C40B0000 		.4byte	0xbc4
 2529 0cce 86000000 		.4byte	.LLST5
 2530 0cd2 00       		.byte	0x0
 2531 0cd3 2C       		.uleb128 0x2c
 2532 0cd4 110B0000 		.4byte	0xb11
 2533 0cd8 28000000 		.4byte	.LBB58
 2534 0cdc 54000000 		.4byte	.LBE58
 2535 0ce0 01       		.byte	0x1
 2536 0ce1 AC       		.byte	0xac
 2537 0ce2 080D0000 		.4byte	0xd08
 2538 0ce6 2D       		.uleb128 0x2d
 2539 0ce7 1E0B0000 		.4byte	0xb1e
 2540 0ceb AF000000 		.4byte	.LLST6
 2541 0cef 2E       		.uleb128 0x2e
 2542 0cf0 290B0000 		.4byte	0xb29
 2543 0cf4 2F       		.uleb128 0x2f
 2544 0cf5 28000000 		.4byte	.LBB59
 2545 0cf9 54000000 		.4byte	.LBE59
 2546 0cfd 26       		.uleb128 0x26
 2547 0cfe 330B0000 		.4byte	0xb33
 2548 0d02 C7000000 		.4byte	.LLST7
 2549 0d06 00       		.byte	0x0
 2550 0d07 00       		.byte	0x0
 2551 0d08 2B       		.uleb128 0x2b
 2552 0d09 16000000 		.4byte	.LBB60
 2553 0d0d 1C000000 		.4byte	.LBE60
ARM GAS  C:\Users\DNIEL~1\AppData\Local\Temp\ccSeIRNy.s 			page 46


 2554 0d11 1F0D0000 		.4byte	0xd1f
 2555 0d15 26       		.uleb128 0x26
 2556 0d16 B30B0000 		.4byte	0xbb3
 2557 0d1a 07010000 		.4byte	.LLST8
 2558 0d1e 00       		.byte	0x0
 2559 0d1f 2B       		.uleb128 0x2b
 2560 0d20 B0000000 		.4byte	.LBB61
 2561 0d24 B6000000 		.4byte	.LBE61
 2562 0d28 360D0000 		.4byte	0xd36
 2563 0d2c 26       		.uleb128 0x26
 2564 0d2d 910B0000 		.4byte	0xb91
 2565 0d31 30010000 		.4byte	.LLST9
 2566 0d35 00       		.byte	0x0
 2567 0d36 2B       		.uleb128 0x2b
 2568 0d37 C0000000 		.4byte	.LBB62
 2569 0d3b C6000000 		.4byte	.LBE62
 2570 0d3f 4D0D0000 		.4byte	0xd4d
 2571 0d43 26       		.uleb128 0x26
 2572 0d44 A20B0000 		.4byte	0xba2
 2573 0d48 43010000 		.4byte	.LLST10
 2574 0d4c 00       		.byte	0x0
 2575 0d4d 25       		.uleb128 0x25
 2576 0d4e 48000000 		.4byte	.Ldebug_ranges0+0x48
 2577 0d52 26       		.uleb128 0x26
 2578 0d53 D50B0000 		.4byte	0xbd5
 2579 0d57 61010000 		.4byte	.LLST11
 2580 0d5b 2B       		.uleb128 0x2b
 2581 0d5c E0000000 		.4byte	.LBB64
 2582 0d60 E8000000 		.4byte	.LBE64
 2583 0d64 720D0000 		.4byte	0xd72
 2584 0d68 26       		.uleb128 0x26
 2585 0d69 F00B0000 		.4byte	0xbf0
 2586 0d6d 7F010000 		.4byte	.LLST12
 2587 0d71 00       		.byte	0x0
 2588 0d72 2F       		.uleb128 0x2f
 2589 0d73 CE000000 		.4byte	.LBB65
 2590 0d77 D4000000 		.4byte	.LBE65
 2591 0d7b 26       		.uleb128 0x26
 2592 0d7c E30B0000 		.4byte	0xbe3
 2593 0d80 A8010000 		.4byte	.LLST13
 2594 0d84 00       		.byte	0x0
 2595 0d85 00       		.byte	0x0
 2596 0d86 00       		.byte	0x0
 2597 0d87 00       		.byte	0x0
 2598 0d88 00       		.byte	0x0
 2599 0d89 30       		.uleb128 0x30
 2600 0d8a 01       		.byte	0x1
 2601 0d8b A4010000 		.4byte	.LASF142
 2602 0d8f 01       		.byte	0x1
 2603 0d90 7A01     		.2byte	0x17a
 2604 0d92 01       		.byte	0x1
 2605 0d93 00000000 		.4byte	.LFB124
 2606 0d97 20000000 		.4byte	.LFE124
 2607 0d9b BB010000 		.4byte	.LLST14
 2608 0d9f 23       		.uleb128 0x23
 2609 0da0 01       		.byte	0x1
 2610 0da1 B7030000 		.4byte	.LASF135
ARM GAS  C:\Users\DNIEL~1\AppData\Local\Temp\ccSeIRNy.s 			page 47


 2611 0da5 01       		.byte	0x1
 2612 0da6 A501     		.2byte	0x1a5
 2613 0da8 01       		.byte	0x1
 2614 0da9 00000000 		.4byte	.LFB125
 2615 0dad 98000000 		.4byte	.LFE125
 2616 0db1 DB010000 		.4byte	.LLST15
 2617 0db5 FF0D0000 		.4byte	0xdff
 2618 0db9 31       		.uleb128 0x31
 2619 0dba 73647000 		.ascii	"sdp\000"
 2620 0dbe 01       		.byte	0x1
 2621 0dbf A501     		.2byte	0x1a5
 2622 0dc1 000B0000 		.4byte	0xb00
 2623 0dc5 FB010000 		.4byte	.LLST16
 2624 0dc9 32       		.uleb128 0x32
 2625 0dca AB040000 		.4byte	.LASF129
 2626 0dce 01       		.byte	0x1
 2627 0dcf A501     		.2byte	0x1a5
 2628 0dd1 060B0000 		.4byte	0xb06
 2629 0dd5 19020000 		.4byte	.LLST17
 2630 0dd9 24       		.uleb128 0x24
 2631 0dda D30A0000 		.4byte	0xad3
 2632 0dde 14000000 		.4byte	.LBB69
 2633 0de2 60000000 		.4byte	.Ldebug_ranges0+0x60
 2634 0de6 01       		.byte	0x1
 2635 0de7 D601     		.2byte	0x1d6
 2636 0de9 2E       		.uleb128 0x2e
 2637 0dea EB0A0000 		.4byte	0xaeb
 2638 0dee 25       		.uleb128 0x25
 2639 0def 78000000 		.4byte	.Ldebug_ranges0+0x78
 2640 0df3 26       		.uleb128 0x26
 2641 0df4 F60A0000 		.4byte	0xaf6
 2642 0df8 2C020000 		.4byte	.LLST18
 2643 0dfc 00       		.byte	0x0
 2644 0dfd 00       		.byte	0x0
 2645 0dfe 00       		.byte	0x0
 2646 0dff 33       		.uleb128 0x33
 2647 0e00 01       		.byte	0x1
 2648 0e01 6F050000 		.4byte	.LASF136
 2649 0e05 01       		.byte	0x1
 2650 0e06 E201     		.2byte	0x1e2
 2651 0e08 01       		.byte	0x1
 2652 0e09 00000000 		.4byte	.LFB126
 2653 0e0d 30000000 		.4byte	.LFE126
 2654 0e11 02       		.byte	0x2
 2655 0e12 7D       		.byte	0x7d
 2656 0e13 00       		.sleb128 0
 2657 0e14 430E0000 		.4byte	0xe43
 2658 0e18 31       		.uleb128 0x31
 2659 0e19 73647000 		.ascii	"sdp\000"
 2660 0e1d 01       		.byte	0x1
 2661 0e1e E201     		.2byte	0x1e2
 2662 0e20 000B0000 		.4byte	0xb00
 2663 0e24 4C020000 		.4byte	.LLST19
 2664 0e28 24       		.uleb128 0x24
 2665 0e29 3F0B0000 		.4byte	0xb3f
 2666 0e2d 0C000000 		.4byte	.LBB73
 2667 0e31 90000000 		.4byte	.Ldebug_ranges0+0x90
ARM GAS  C:\Users\DNIEL~1\AppData\Local\Temp\ccSeIRNy.s 			page 48


 2668 0e35 01       		.byte	0x1
 2669 0e36 E501     		.2byte	0x1e5
 2670 0e38 2D       		.uleb128 0x2d
 2671 0e39 4C0B0000 		.4byte	0xb4c
 2672 0e3d 6A020000 		.4byte	.LLST20
 2673 0e41 00       		.byte	0x0
 2674 0e42 00       		.byte	0x0
 2675 0e43 34       		.uleb128 0x34
 2676 0e44 44000000 		.4byte	.LASF137
 2677 0e48 0E       		.byte	0xe
 2678 0e49 9806     		.2byte	0x698
 2679 0e4b D4050000 		.4byte	0x5d4
 2680 0e4f 01       		.byte	0x1
 2681 0e50 01       		.byte	0x1
 2682 0e51 35       		.uleb128 0x35
 2683 0e52 53443100 		.ascii	"SD1\000"
 2684 0e56 0D       		.byte	0xd
 2685 0e57 0F01     		.2byte	0x10f
 2686 0e59 63090000 		.4byte	0x963
 2687 0e5d 01       		.byte	0x1
 2688 0e5e 01       		.byte	0x1
 2689 0e5f 36       		.uleb128 0x36
 2690 0e60 DB000000 		.4byte	.LASF143
 2691 0e64 01       		.byte	0x1
 2692 0e65 49       		.byte	0x49
 2693 0e66 0C0B0000 		.4byte	0xb0c
 2694 0e6a 05       		.byte	0x5
 2695 0e6b 03       		.byte	0x3
 2696 0e6c 00000000 		.4byte	default_config
 2697 0e70 34       		.uleb128 0x34
 2698 0e71 44000000 		.4byte	.LASF137
 2699 0e75 0E       		.byte	0xe
 2700 0e76 9806     		.2byte	0x698
 2701 0e78 D4050000 		.4byte	0x5d4
 2702 0e7c 01       		.byte	0x1
 2703 0e7d 01       		.byte	0x1
 2704 0e7e 37       		.uleb128 0x37
 2705 0e7f 53443100 		.ascii	"SD1\000"
 2706 0e83 01       		.byte	0x1
 2707 0e84 28       		.byte	0x28
 2708 0e85 63090000 		.4byte	0x963
 2709 0e89 01       		.byte	0x1
 2710 0e8a 05       		.byte	0x5
 2711 0e8b 03       		.byte	0x3
 2712 0e8c 00000000 		.4byte	SD1
 2713 0e90 00       		.byte	0x0
 2714              		.section	.debug_abbrev
 2715 0000 01       		.uleb128 0x1
 2716 0001 11       		.uleb128 0x11
 2717 0002 01       		.byte	0x1
 2718 0003 25       		.uleb128 0x25
 2719 0004 0E       		.uleb128 0xe
 2720 0005 13       		.uleb128 0x13
 2721 0006 0B       		.uleb128 0xb
 2722 0007 03       		.uleb128 0x3
 2723 0008 0E       		.uleb128 0xe
 2724 0009 1B       		.uleb128 0x1b
ARM GAS  C:\Users\DNIEL~1\AppData\Local\Temp\ccSeIRNy.s 			page 49


 2725 000a 0E       		.uleb128 0xe
 2726 000b 11       		.uleb128 0x11
 2727 000c 01       		.uleb128 0x1
 2728 000d 52       		.uleb128 0x52
 2729 000e 01       		.uleb128 0x1
 2730 000f 55       		.uleb128 0x55
 2731 0010 06       		.uleb128 0x6
 2732 0011 10       		.uleb128 0x10
 2733 0012 06       		.uleb128 0x6
 2734 0013 00       		.byte	0x0
 2735 0014 00       		.byte	0x0
 2736 0015 02       		.uleb128 0x2
 2737 0016 24       		.uleb128 0x24
 2738 0017 00       		.byte	0x0
 2739 0018 0B       		.uleb128 0xb
 2740 0019 0B       		.uleb128 0xb
 2741 001a 3E       		.uleb128 0x3e
 2742 001b 0B       		.uleb128 0xb
 2743 001c 03       		.uleb128 0x3
 2744 001d 08       		.uleb128 0x8
 2745 001e 00       		.byte	0x0
 2746 001f 00       		.byte	0x0
 2747 0020 03       		.uleb128 0x3
 2748 0021 16       		.uleb128 0x16
 2749 0022 00       		.byte	0x0
 2750 0023 03       		.uleb128 0x3
 2751 0024 0E       		.uleb128 0xe
 2752 0025 3A       		.uleb128 0x3a
 2753 0026 0B       		.uleb128 0xb
 2754 0027 3B       		.uleb128 0x3b
 2755 0028 0B       		.uleb128 0xb
 2756 0029 49       		.uleb128 0x49
 2757 002a 13       		.uleb128 0x13
 2758 002b 00       		.byte	0x0
 2759 002c 00       		.byte	0x0
 2760 002d 04       		.uleb128 0x4
 2761 002e 24       		.uleb128 0x24
 2762 002f 00       		.byte	0x0
 2763 0030 0B       		.uleb128 0xb
 2764 0031 0B       		.uleb128 0xb
 2765 0032 3E       		.uleb128 0x3e
 2766 0033 0B       		.uleb128 0xb
 2767 0034 03       		.uleb128 0x3
 2768 0035 0E       		.uleb128 0xe
 2769 0036 00       		.byte	0x0
 2770 0037 00       		.byte	0x0
 2771 0038 05       		.uleb128 0x5
 2772 0039 13       		.uleb128 0x13
 2773 003a 01       		.byte	0x1
 2774 003b 03       		.uleb128 0x3
 2775 003c 0E       		.uleb128 0xe
 2776 003d 0B       		.uleb128 0xb
 2777 003e 0B       		.uleb128 0xb
 2778 003f 3A       		.uleb128 0x3a
 2779 0040 0B       		.uleb128 0xb
 2780 0041 3B       		.uleb128 0x3b
 2781 0042 0B       		.uleb128 0xb
ARM GAS  C:\Users\DNIEL~1\AppData\Local\Temp\ccSeIRNy.s 			page 50


 2782 0043 01       		.uleb128 0x1
 2783 0044 13       		.uleb128 0x13
 2784 0045 00       		.byte	0x0
 2785 0046 00       		.byte	0x0
 2786 0047 06       		.uleb128 0x6
 2787 0048 0D       		.uleb128 0xd
 2788 0049 00       		.byte	0x0
 2789 004a 03       		.uleb128 0x3
 2790 004b 0E       		.uleb128 0xe
 2791 004c 3A       		.uleb128 0x3a
 2792 004d 0B       		.uleb128 0xb
 2793 004e 3B       		.uleb128 0x3b
 2794 004f 0B       		.uleb128 0xb
 2795 0050 49       		.uleb128 0x49
 2796 0051 13       		.uleb128 0x13
 2797 0052 38       		.uleb128 0x38
 2798 0053 0A       		.uleb128 0xa
 2799 0054 00       		.byte	0x0
 2800 0055 00       		.byte	0x0
 2801 0056 07       		.uleb128 0x7
 2802 0057 0D       		.uleb128 0xd
 2803 0058 00       		.byte	0x0
 2804 0059 03       		.uleb128 0x3
 2805 005a 08       		.uleb128 0x8
 2806 005b 3A       		.uleb128 0x3a
 2807 005c 0B       		.uleb128 0xb
 2808 005d 3B       		.uleb128 0x3b
 2809 005e 0B       		.uleb128 0xb
 2810 005f 49       		.uleb128 0x49
 2811 0060 13       		.uleb128 0x13
 2812 0061 38       		.uleb128 0x38
 2813 0062 0A       		.uleb128 0xa
 2814 0063 00       		.byte	0x0
 2815 0064 00       		.byte	0x0
 2816 0065 08       		.uleb128 0x8
 2817 0066 13       		.uleb128 0x13
 2818 0067 01       		.byte	0x1
 2819 0068 0B       		.uleb128 0xb
 2820 0069 0B       		.uleb128 0xb
 2821 006a 3A       		.uleb128 0x3a
 2822 006b 0B       		.uleb128 0xb
 2823 006c 3B       		.uleb128 0x3b
 2824 006d 0B       		.uleb128 0xb
 2825 006e 01       		.uleb128 0x1
 2826 006f 13       		.uleb128 0x13
 2827 0070 00       		.byte	0x0
 2828 0071 00       		.byte	0x0
 2829 0072 09       		.uleb128 0x9
 2830 0073 0F       		.uleb128 0xf
 2831 0074 00       		.byte	0x0
 2832 0075 0B       		.uleb128 0xb
 2833 0076 0B       		.uleb128 0xb
 2834 0077 49       		.uleb128 0x49
 2835 0078 13       		.uleb128 0x13
 2836 0079 00       		.byte	0x0
 2837 007a 00       		.byte	0x0
 2838 007b 0A       		.uleb128 0xa
ARM GAS  C:\Users\DNIEL~1\AppData\Local\Temp\ccSeIRNy.s 			page 51


 2839 007c 0F       		.uleb128 0xf
 2840 007d 00       		.byte	0x0
 2841 007e 0B       		.uleb128 0xb
 2842 007f 0B       		.uleb128 0xb
 2843 0080 00       		.byte	0x0
 2844 0081 00       		.byte	0x0
 2845 0082 0B       		.uleb128 0xb
 2846 0083 13       		.uleb128 0x13
 2847 0084 01       		.byte	0x1
 2848 0085 03       		.uleb128 0x3
 2849 0086 0E       		.uleb128 0xe
 2850 0087 0B       		.uleb128 0xb
 2851 0088 0B       		.uleb128 0xb
 2852 0089 3A       		.uleb128 0x3a
 2853 008a 0B       		.uleb128 0xb
 2854 008b 3B       		.uleb128 0x3b
 2855 008c 05       		.uleb128 0x5
 2856 008d 01       		.uleb128 0x1
 2857 008e 13       		.uleb128 0x13
 2858 008f 00       		.byte	0x0
 2859 0090 00       		.byte	0x0
 2860 0091 0C       		.uleb128 0xc
 2861 0092 0D       		.uleb128 0xd
 2862 0093 00       		.byte	0x0
 2863 0094 03       		.uleb128 0x3
 2864 0095 08       		.uleb128 0x8
 2865 0096 3A       		.uleb128 0x3a
 2866 0097 0B       		.uleb128 0xb
 2867 0098 3B       		.uleb128 0x3b
 2868 0099 05       		.uleb128 0x5
 2869 009a 49       		.uleb128 0x49
 2870 009b 13       		.uleb128 0x13
 2871 009c 38       		.uleb128 0x38
 2872 009d 0A       		.uleb128 0xa
 2873 009e 00       		.byte	0x0
 2874 009f 00       		.byte	0x0
 2875 00a0 0D       		.uleb128 0xd
 2876 00a1 35       		.uleb128 0x35
 2877 00a2 00       		.byte	0x0
 2878 00a3 49       		.uleb128 0x49
 2879 00a4 13       		.uleb128 0x13
 2880 00a5 00       		.byte	0x0
 2881 00a6 00       		.byte	0x0
 2882 00a7 0E       		.uleb128 0xe
 2883 00a8 17       		.uleb128 0x17
 2884 00a9 01       		.byte	0x1
 2885 00aa 0B       		.uleb128 0xb
 2886 00ab 0B       		.uleb128 0xb
 2887 00ac 3A       		.uleb128 0x3a
 2888 00ad 0B       		.uleb128 0xb
 2889 00ae 3B       		.uleb128 0x3b
 2890 00af 0B       		.uleb128 0xb
 2891 00b0 01       		.uleb128 0x1
 2892 00b1 13       		.uleb128 0x13
 2893 00b2 00       		.byte	0x0
 2894 00b3 00       		.byte	0x0
 2895 00b4 0F       		.uleb128 0xf
ARM GAS  C:\Users\DNIEL~1\AppData\Local\Temp\ccSeIRNy.s 			page 52


 2896 00b5 0D       		.uleb128 0xd
 2897 00b6 00       		.byte	0x0
 2898 00b7 03       		.uleb128 0x3
 2899 00b8 0E       		.uleb128 0xe
 2900 00b9 3A       		.uleb128 0x3a
 2901 00ba 0B       		.uleb128 0xb
 2902 00bb 3B       		.uleb128 0x3b
 2903 00bc 0B       		.uleb128 0xb
 2904 00bd 49       		.uleb128 0x49
 2905 00be 13       		.uleb128 0x13
 2906 00bf 00       		.byte	0x0
 2907 00c0 00       		.byte	0x0
 2908 00c1 10       		.uleb128 0x10
 2909 00c2 26       		.uleb128 0x26
 2910 00c3 00       		.byte	0x0
 2911 00c4 49       		.uleb128 0x49
 2912 00c5 13       		.uleb128 0x13
 2913 00c6 00       		.byte	0x0
 2914 00c7 00       		.byte	0x0
 2915 00c8 11       		.uleb128 0x11
 2916 00c9 15       		.uleb128 0x15
 2917 00ca 01       		.byte	0x1
 2918 00cb 27       		.uleb128 0x27
 2919 00cc 0C       		.uleb128 0xc
 2920 00cd 49       		.uleb128 0x49
 2921 00ce 13       		.uleb128 0x13
 2922 00cf 01       		.uleb128 0x1
 2923 00d0 13       		.uleb128 0x13
 2924 00d1 00       		.byte	0x0
 2925 00d2 00       		.byte	0x0
 2926 00d3 12       		.uleb128 0x12
 2927 00d4 05       		.uleb128 0x5
 2928 00d5 00       		.byte	0x0
 2929 00d6 49       		.uleb128 0x49
 2930 00d7 13       		.uleb128 0x13
 2931 00d8 00       		.byte	0x0
 2932 00d9 00       		.byte	0x0
 2933 00da 13       		.uleb128 0x13
 2934 00db 15       		.uleb128 0x15
 2935 00dc 01       		.byte	0x1
 2936 00dd 27       		.uleb128 0x27
 2937 00de 0C       		.uleb128 0xc
 2938 00df 01       		.uleb128 0x1
 2939 00e0 13       		.uleb128 0x13
 2940 00e1 00       		.byte	0x0
 2941 00e2 00       		.byte	0x0
 2942 00e3 14       		.uleb128 0x14
 2943 00e4 01       		.uleb128 0x1
 2944 00e5 01       		.byte	0x1
 2945 00e6 49       		.uleb128 0x49
 2946 00e7 13       		.uleb128 0x13
 2947 00e8 01       		.uleb128 0x1
 2948 00e9 13       		.uleb128 0x13
 2949 00ea 00       		.byte	0x0
 2950 00eb 00       		.byte	0x0
 2951 00ec 15       		.uleb128 0x15
 2952 00ed 21       		.uleb128 0x21
ARM GAS  C:\Users\DNIEL~1\AppData\Local\Temp\ccSeIRNy.s 			page 53


 2953 00ee 00       		.byte	0x0
 2954 00ef 49       		.uleb128 0x49
 2955 00f0 13       		.uleb128 0x13
 2956 00f1 2F       		.uleb128 0x2f
 2957 00f2 0B       		.uleb128 0xb
 2958 00f3 00       		.byte	0x0
 2959 00f4 00       		.byte	0x0
 2960 00f5 16       		.uleb128 0x16
 2961 00f6 13       		.uleb128 0x13
 2962 00f7 01       		.byte	0x1
 2963 00f8 0B       		.uleb128 0xb
 2964 00f9 0B       		.uleb128 0xb
 2965 00fa 3A       		.uleb128 0x3a
 2966 00fb 0B       		.uleb128 0xb
 2967 00fc 3B       		.uleb128 0x3b
 2968 00fd 05       		.uleb128 0x5
 2969 00fe 01       		.uleb128 0x1
 2970 00ff 13       		.uleb128 0x13
 2971 0100 00       		.byte	0x0
 2972 0101 00       		.byte	0x0
 2973 0102 17       		.uleb128 0x17
 2974 0103 0D       		.uleb128 0xd
 2975 0104 00       		.byte	0x0
 2976 0105 03       		.uleb128 0x3
 2977 0106 0E       		.uleb128 0xe
 2978 0107 3A       		.uleb128 0x3a
 2979 0108 0B       		.uleb128 0xb
 2980 0109 3B       		.uleb128 0x3b
 2981 010a 05       		.uleb128 0x5
 2982 010b 49       		.uleb128 0x49
 2983 010c 13       		.uleb128 0x13
 2984 010d 38       		.uleb128 0x38
 2985 010e 0A       		.uleb128 0xa
 2986 010f 00       		.byte	0x0
 2987 0110 00       		.byte	0x0
 2988 0111 18       		.uleb128 0x18
 2989 0112 16       		.uleb128 0x16
 2990 0113 00       		.byte	0x0
 2991 0114 03       		.uleb128 0x3
 2992 0115 0E       		.uleb128 0xe
 2993 0116 3A       		.uleb128 0x3a
 2994 0117 0B       		.uleb128 0xb
 2995 0118 3B       		.uleb128 0x3b
 2996 0119 05       		.uleb128 0x5
 2997 011a 49       		.uleb128 0x49
 2998 011b 13       		.uleb128 0x13
 2999 011c 00       		.byte	0x0
 3000 011d 00       		.byte	0x0
 3001 011e 19       		.uleb128 0x19
 3002 011f 04       		.uleb128 0x4
 3003 0120 01       		.byte	0x1
 3004 0121 0B       		.uleb128 0xb
 3005 0122 0B       		.uleb128 0xb
 3006 0123 3A       		.uleb128 0x3a
 3007 0124 0B       		.uleb128 0xb
 3008 0125 3B       		.uleb128 0x3b
 3009 0126 0B       		.uleb128 0xb
ARM GAS  C:\Users\DNIEL~1\AppData\Local\Temp\ccSeIRNy.s 			page 54


 3010 0127 01       		.uleb128 0x1
 3011 0128 13       		.uleb128 0x13
 3012 0129 00       		.byte	0x0
 3013 012a 00       		.byte	0x0
 3014 012b 1A       		.uleb128 0x1a
 3015 012c 28       		.uleb128 0x28
 3016 012d 00       		.byte	0x0
 3017 012e 03       		.uleb128 0x3
 3018 012f 0E       		.uleb128 0xe
 3019 0130 1C       		.uleb128 0x1c
 3020 0131 0D       		.uleb128 0xd
 3021 0132 00       		.byte	0x0
 3022 0133 00       		.byte	0x0
 3023 0134 1B       		.uleb128 0x1b
 3024 0135 2E       		.uleb128 0x2e
 3025 0136 01       		.byte	0x1
 3026 0137 03       		.uleb128 0x3
 3027 0138 0E       		.uleb128 0xe
 3028 0139 3A       		.uleb128 0x3a
 3029 013a 0B       		.uleb128 0xb
 3030 013b 3B       		.uleb128 0x3b
 3031 013c 0B       		.uleb128 0xb
 3032 013d 27       		.uleb128 0x27
 3033 013e 0C       		.uleb128 0xc
 3034 013f 20       		.uleb128 0x20
 3035 0140 0B       		.uleb128 0xb
 3036 0141 01       		.uleb128 0x1
 3037 0142 13       		.uleb128 0x13
 3038 0143 00       		.byte	0x0
 3039 0144 00       		.byte	0x0
 3040 0145 1C       		.uleb128 0x1c
 3041 0146 05       		.uleb128 0x5
 3042 0147 00       		.byte	0x0
 3043 0148 03       		.uleb128 0x3
 3044 0149 08       		.uleb128 0x8
 3045 014a 3A       		.uleb128 0x3a
 3046 014b 0B       		.uleb128 0xb
 3047 014c 3B       		.uleb128 0x3b
 3048 014d 0B       		.uleb128 0xb
 3049 014e 49       		.uleb128 0x49
 3050 014f 13       		.uleb128 0x13
 3051 0150 00       		.byte	0x0
 3052 0151 00       		.byte	0x0
 3053 0152 1D       		.uleb128 0x1d
 3054 0153 05       		.uleb128 0x5
 3055 0154 00       		.byte	0x0
 3056 0155 03       		.uleb128 0x3
 3057 0156 0E       		.uleb128 0xe
 3058 0157 3A       		.uleb128 0x3a
 3059 0158 0B       		.uleb128 0xb
 3060 0159 3B       		.uleb128 0x3b
 3061 015a 0B       		.uleb128 0xb
 3062 015b 49       		.uleb128 0x49
 3063 015c 13       		.uleb128 0x13
 3064 015d 00       		.byte	0x0
 3065 015e 00       		.byte	0x0
 3066 015f 1E       		.uleb128 0x1e
ARM GAS  C:\Users\DNIEL~1\AppData\Local\Temp\ccSeIRNy.s 			page 55


 3067 0160 34       		.uleb128 0x34
 3068 0161 00       		.byte	0x0
 3069 0162 03       		.uleb128 0x3
 3070 0163 08       		.uleb128 0x8
 3071 0164 3A       		.uleb128 0x3a
 3072 0165 0B       		.uleb128 0xb
 3073 0166 3B       		.uleb128 0x3b
 3074 0167 0B       		.uleb128 0xb
 3075 0168 49       		.uleb128 0x49
 3076 0169 13       		.uleb128 0x13
 3077 016a 00       		.byte	0x0
 3078 016b 00       		.byte	0x0
 3079 016c 1F       		.uleb128 0x1f
 3080 016d 0B       		.uleb128 0xb
 3081 016e 01       		.byte	0x1
 3082 016f 01       		.uleb128 0x1
 3083 0170 13       		.uleb128 0x13
 3084 0171 00       		.byte	0x0
 3085 0172 00       		.byte	0x0
 3086 0173 20       		.uleb128 0x20
 3087 0174 0B       		.uleb128 0xb
 3088 0175 01       		.byte	0x1
 3089 0176 00       		.byte	0x0
 3090 0177 00       		.byte	0x0
 3091 0178 21       		.uleb128 0x21
 3092 0179 2E       		.uleb128 0x2e
 3093 017a 01       		.byte	0x1
 3094 017b 03       		.uleb128 0x3
 3095 017c 0E       		.uleb128 0xe
 3096 017d 3A       		.uleb128 0x3a
 3097 017e 0B       		.uleb128 0xb
 3098 017f 3B       		.uleb128 0x3b
 3099 0180 0B       		.uleb128 0xb
 3100 0181 27       		.uleb128 0x27
 3101 0182 0C       		.uleb128 0xc
 3102 0183 11       		.uleb128 0x11
 3103 0184 01       		.uleb128 0x1
 3104 0185 12       		.uleb128 0x12
 3105 0186 01       		.uleb128 0x1
 3106 0187 40       		.uleb128 0x40
 3107 0188 0A       		.uleb128 0xa
 3108 0189 01       		.uleb128 0x1
 3109 018a 13       		.uleb128 0x13
 3110 018b 00       		.byte	0x0
 3111 018c 00       		.byte	0x0
 3112 018d 22       		.uleb128 0x22
 3113 018e 05       		.uleb128 0x5
 3114 018f 00       		.byte	0x0
 3115 0190 03       		.uleb128 0x3
 3116 0191 08       		.uleb128 0x8
 3117 0192 3A       		.uleb128 0x3a
 3118 0193 0B       		.uleb128 0xb
 3119 0194 3B       		.uleb128 0x3b
 3120 0195 0B       		.uleb128 0xb
 3121 0196 49       		.uleb128 0x49
 3122 0197 13       		.uleb128 0x13
 3123 0198 02       		.uleb128 0x2
ARM GAS  C:\Users\DNIEL~1\AppData\Local\Temp\ccSeIRNy.s 			page 56


 3124 0199 06       		.uleb128 0x6
 3125 019a 00       		.byte	0x0
 3126 019b 00       		.byte	0x0
 3127 019c 23       		.uleb128 0x23
 3128 019d 2E       		.uleb128 0x2e
 3129 019e 01       		.byte	0x1
 3130 019f 3F       		.uleb128 0x3f
 3131 01a0 0C       		.uleb128 0xc
 3132 01a1 03       		.uleb128 0x3
 3133 01a2 0E       		.uleb128 0xe
 3134 01a3 3A       		.uleb128 0x3a
 3135 01a4 0B       		.uleb128 0xb
 3136 01a5 3B       		.uleb128 0x3b
 3137 01a6 05       		.uleb128 0x5
 3138 01a7 27       		.uleb128 0x27
 3139 01a8 0C       		.uleb128 0xc
 3140 01a9 11       		.uleb128 0x11
 3141 01aa 01       		.uleb128 0x1
 3142 01ab 12       		.uleb128 0x12
 3143 01ac 01       		.uleb128 0x1
 3144 01ad 40       		.uleb128 0x40
 3145 01ae 06       		.uleb128 0x6
 3146 01af 01       		.uleb128 0x1
 3147 01b0 13       		.uleb128 0x13
 3148 01b1 00       		.byte	0x0
 3149 01b2 00       		.byte	0x0
 3150 01b3 24       		.uleb128 0x24
 3151 01b4 1D       		.uleb128 0x1d
 3152 01b5 01       		.byte	0x1
 3153 01b6 31       		.uleb128 0x31
 3154 01b7 13       		.uleb128 0x13
 3155 01b8 52       		.uleb128 0x52
 3156 01b9 01       		.uleb128 0x1
 3157 01ba 55       		.uleb128 0x55
 3158 01bb 06       		.uleb128 0x6
 3159 01bc 58       		.uleb128 0x58
 3160 01bd 0B       		.uleb128 0xb
 3161 01be 59       		.uleb128 0x59
 3162 01bf 05       		.uleb128 0x5
 3163 01c0 00       		.byte	0x0
 3164 01c1 00       		.byte	0x0
 3165 01c2 25       		.uleb128 0x25
 3166 01c3 0B       		.uleb128 0xb
 3167 01c4 01       		.byte	0x1
 3168 01c5 55       		.uleb128 0x55
 3169 01c6 06       		.uleb128 0x6
 3170 01c7 00       		.byte	0x0
 3171 01c8 00       		.byte	0x0
 3172 01c9 26       		.uleb128 0x26
 3173 01ca 34       		.uleb128 0x34
 3174 01cb 00       		.byte	0x0
 3175 01cc 31       		.uleb128 0x31
 3176 01cd 13       		.uleb128 0x13
 3177 01ce 02       		.uleb128 0x2
 3178 01cf 06       		.uleb128 0x6
 3179 01d0 00       		.byte	0x0
 3180 01d1 00       		.byte	0x0
ARM GAS  C:\Users\DNIEL~1\AppData\Local\Temp\ccSeIRNy.s 			page 57


 3181 01d2 27       		.uleb128 0x27
 3182 01d3 34       		.uleb128 0x34
 3183 01d4 00       		.byte	0x0
 3184 01d5 31       		.uleb128 0x31
 3185 01d6 13       		.uleb128 0x13
 3186 01d7 02       		.uleb128 0x2
 3187 01d8 0A       		.uleb128 0xa
 3188 01d9 00       		.byte	0x0
 3189 01da 00       		.byte	0x0
 3190 01db 28       		.uleb128 0x28
 3191 01dc 34       		.uleb128 0x34
 3192 01dd 00       		.byte	0x0
 3193 01de 31       		.uleb128 0x31
 3194 01df 13       		.uleb128 0x13
 3195 01e0 00       		.byte	0x0
 3196 01e1 00       		.byte	0x0
 3197 01e2 29       		.uleb128 0x29
 3198 01e3 05       		.uleb128 0x5
 3199 01e4 00       		.byte	0x0
 3200 01e5 31       		.uleb128 0x31
 3201 01e6 13       		.uleb128 0x13
 3202 01e7 02       		.uleb128 0x2
 3203 01e8 0A       		.uleb128 0xa
 3204 01e9 00       		.byte	0x0
 3205 01ea 00       		.byte	0x0
 3206 01eb 2A       		.uleb128 0x2a
 3207 01ec 0B       		.uleb128 0xb
 3208 01ed 01       		.byte	0x1
 3209 01ee 55       		.uleb128 0x55
 3210 01ef 06       		.uleb128 0x6
 3211 01f0 01       		.uleb128 0x1
 3212 01f1 13       		.uleb128 0x13
 3213 01f2 00       		.byte	0x0
 3214 01f3 00       		.byte	0x0
 3215 01f4 2B       		.uleb128 0x2b
 3216 01f5 0B       		.uleb128 0xb
 3217 01f6 01       		.byte	0x1
 3218 01f7 11       		.uleb128 0x11
 3219 01f8 01       		.uleb128 0x1
 3220 01f9 12       		.uleb128 0x12
 3221 01fa 01       		.uleb128 0x1
 3222 01fb 01       		.uleb128 0x1
 3223 01fc 13       		.uleb128 0x13
 3224 01fd 00       		.byte	0x0
 3225 01fe 00       		.byte	0x0
 3226 01ff 2C       		.uleb128 0x2c
 3227 0200 1D       		.uleb128 0x1d
 3228 0201 01       		.byte	0x1
 3229 0202 31       		.uleb128 0x31
 3230 0203 13       		.uleb128 0x13
 3231 0204 11       		.uleb128 0x11
 3232 0205 01       		.uleb128 0x1
 3233 0206 12       		.uleb128 0x12
 3234 0207 01       		.uleb128 0x1
 3235 0208 58       		.uleb128 0x58
 3236 0209 0B       		.uleb128 0xb
 3237 020a 59       		.uleb128 0x59
ARM GAS  C:\Users\DNIEL~1\AppData\Local\Temp\ccSeIRNy.s 			page 58


 3238 020b 0B       		.uleb128 0xb
 3239 020c 01       		.uleb128 0x1
 3240 020d 13       		.uleb128 0x13
 3241 020e 00       		.byte	0x0
 3242 020f 00       		.byte	0x0
 3243 0210 2D       		.uleb128 0x2d
 3244 0211 05       		.uleb128 0x5
 3245 0212 00       		.byte	0x0
 3246 0213 31       		.uleb128 0x31
 3247 0214 13       		.uleb128 0x13
 3248 0215 02       		.uleb128 0x2
 3249 0216 06       		.uleb128 0x6
 3250 0217 00       		.byte	0x0
 3251 0218 00       		.byte	0x0
 3252 0219 2E       		.uleb128 0x2e
 3253 021a 05       		.uleb128 0x5
 3254 021b 00       		.byte	0x0
 3255 021c 31       		.uleb128 0x31
 3256 021d 13       		.uleb128 0x13
 3257 021e 00       		.byte	0x0
 3258 021f 00       		.byte	0x0
 3259 0220 2F       		.uleb128 0x2f
 3260 0221 0B       		.uleb128 0xb
 3261 0222 01       		.byte	0x1
 3262 0223 11       		.uleb128 0x11
 3263 0224 01       		.uleb128 0x1
 3264 0225 12       		.uleb128 0x12
 3265 0226 01       		.uleb128 0x1
 3266 0227 00       		.byte	0x0
 3267 0228 00       		.byte	0x0
 3268 0229 30       		.uleb128 0x30
 3269 022a 2E       		.uleb128 0x2e
 3270 022b 00       		.byte	0x0
 3271 022c 3F       		.uleb128 0x3f
 3272 022d 0C       		.uleb128 0xc
 3273 022e 03       		.uleb128 0x3
 3274 022f 0E       		.uleb128 0xe
 3275 0230 3A       		.uleb128 0x3a
 3276 0231 0B       		.uleb128 0xb
 3277 0232 3B       		.uleb128 0x3b
 3278 0233 05       		.uleb128 0x5
 3279 0234 27       		.uleb128 0x27
 3280 0235 0C       		.uleb128 0xc
 3281 0236 11       		.uleb128 0x11
 3282 0237 01       		.uleb128 0x1
 3283 0238 12       		.uleb128 0x12
 3284 0239 01       		.uleb128 0x1
 3285 023a 40       		.uleb128 0x40
 3286 023b 06       		.uleb128 0x6
 3287 023c 00       		.byte	0x0
 3288 023d 00       		.byte	0x0
 3289 023e 31       		.uleb128 0x31
 3290 023f 05       		.uleb128 0x5
 3291 0240 00       		.byte	0x0
 3292 0241 03       		.uleb128 0x3
 3293 0242 08       		.uleb128 0x8
 3294 0243 3A       		.uleb128 0x3a
ARM GAS  C:\Users\DNIEL~1\AppData\Local\Temp\ccSeIRNy.s 			page 59


 3295 0244 0B       		.uleb128 0xb
 3296 0245 3B       		.uleb128 0x3b
 3297 0246 05       		.uleb128 0x5
 3298 0247 49       		.uleb128 0x49
 3299 0248 13       		.uleb128 0x13
 3300 0249 02       		.uleb128 0x2
 3301 024a 06       		.uleb128 0x6
 3302 024b 00       		.byte	0x0
 3303 024c 00       		.byte	0x0
 3304 024d 32       		.uleb128 0x32
 3305 024e 05       		.uleb128 0x5
 3306 024f 00       		.byte	0x0
 3307 0250 03       		.uleb128 0x3
 3308 0251 0E       		.uleb128 0xe
 3309 0252 3A       		.uleb128 0x3a
 3310 0253 0B       		.uleb128 0xb
 3311 0254 3B       		.uleb128 0x3b
 3312 0255 05       		.uleb128 0x5
 3313 0256 49       		.uleb128 0x49
 3314 0257 13       		.uleb128 0x13
 3315 0258 02       		.uleb128 0x2
 3316 0259 06       		.uleb128 0x6
 3317 025a 00       		.byte	0x0
 3318 025b 00       		.byte	0x0
 3319 025c 33       		.uleb128 0x33
 3320 025d 2E       		.uleb128 0x2e
 3321 025e 01       		.byte	0x1
 3322 025f 3F       		.uleb128 0x3f
 3323 0260 0C       		.uleb128 0xc
 3324 0261 03       		.uleb128 0x3
 3325 0262 0E       		.uleb128 0xe
 3326 0263 3A       		.uleb128 0x3a
 3327 0264 0B       		.uleb128 0xb
 3328 0265 3B       		.uleb128 0x3b
 3329 0266 05       		.uleb128 0x5
 3330 0267 27       		.uleb128 0x27
 3331 0268 0C       		.uleb128 0xc
 3332 0269 11       		.uleb128 0x11
 3333 026a 01       		.uleb128 0x1
 3334 026b 12       		.uleb128 0x12
 3335 026c 01       		.uleb128 0x1
 3336 026d 40       		.uleb128 0x40
 3337 026e 0A       		.uleb128 0xa
 3338 026f 01       		.uleb128 0x1
 3339 0270 13       		.uleb128 0x13
 3340 0271 00       		.byte	0x0
 3341 0272 00       		.byte	0x0
 3342 0273 34       		.uleb128 0x34
 3343 0274 34       		.uleb128 0x34
 3344 0275 00       		.byte	0x0
 3345 0276 03       		.uleb128 0x3
 3346 0277 0E       		.uleb128 0xe
 3347 0278 3A       		.uleb128 0x3a
 3348 0279 0B       		.uleb128 0xb
 3349 027a 3B       		.uleb128 0x3b
 3350 027b 05       		.uleb128 0x5
 3351 027c 49       		.uleb128 0x49
ARM GAS  C:\Users\DNIEL~1\AppData\Local\Temp\ccSeIRNy.s 			page 60


 3352 027d 13       		.uleb128 0x13
 3353 027e 3F       		.uleb128 0x3f
 3354 027f 0C       		.uleb128 0xc
 3355 0280 3C       		.uleb128 0x3c
 3356 0281 0C       		.uleb128 0xc
 3357 0282 00       		.byte	0x0
 3358 0283 00       		.byte	0x0
 3359 0284 35       		.uleb128 0x35
 3360 0285 34       		.uleb128 0x34
 3361 0286 00       		.byte	0x0
 3362 0287 03       		.uleb128 0x3
 3363 0288 08       		.uleb128 0x8
 3364 0289 3A       		.uleb128 0x3a
 3365 028a 0B       		.uleb128 0xb
 3366 028b 3B       		.uleb128 0x3b
 3367 028c 05       		.uleb128 0x5
 3368 028d 49       		.uleb128 0x49
 3369 028e 13       		.uleb128 0x13
 3370 028f 3F       		.uleb128 0x3f
 3371 0290 0C       		.uleb128 0xc
 3372 0291 3C       		.uleb128 0x3c
 3373 0292 0C       		.uleb128 0xc
 3374 0293 00       		.byte	0x0
 3375 0294 00       		.byte	0x0
 3376 0295 36       		.uleb128 0x36
 3377 0296 34       		.uleb128 0x34
 3378 0297 00       		.byte	0x0
 3379 0298 03       		.uleb128 0x3
 3380 0299 0E       		.uleb128 0xe
 3381 029a 3A       		.uleb128 0x3a
 3382 029b 0B       		.uleb128 0xb
 3383 029c 3B       		.uleb128 0x3b
 3384 029d 0B       		.uleb128 0xb
 3385 029e 49       		.uleb128 0x49
 3386 029f 13       		.uleb128 0x13
 3387 02a0 02       		.uleb128 0x2
 3388 02a1 0A       		.uleb128 0xa
 3389 02a2 00       		.byte	0x0
 3390 02a3 00       		.byte	0x0
 3391 02a4 37       		.uleb128 0x37
 3392 02a5 34       		.uleb128 0x34
 3393 02a6 00       		.byte	0x0
 3394 02a7 03       		.uleb128 0x3
 3395 02a8 08       		.uleb128 0x8
 3396 02a9 3A       		.uleb128 0x3a
 3397 02aa 0B       		.uleb128 0xb
 3398 02ab 3B       		.uleb128 0x3b
 3399 02ac 0B       		.uleb128 0xb
 3400 02ad 49       		.uleb128 0x49
 3401 02ae 13       		.uleb128 0x13
 3402 02af 3F       		.uleb128 0x3f
 3403 02b0 0C       		.uleb128 0xc
 3404 02b1 02       		.uleb128 0x2
 3405 02b2 0A       		.uleb128 0xa
 3406 02b3 00       		.byte	0x0
 3407 02b4 00       		.byte	0x0
 3408 02b5 00       		.byte	0x0
ARM GAS  C:\Users\DNIEL~1\AppData\Local\Temp\ccSeIRNy.s 			page 61


 3409              		.section	.debug_pubnames,"",%progbits
 3410 0000 54000000 		.4byte	0x54
 3411 0004 0200     		.2byte	0x2
 3412 0006 00000000 		.4byte	.Ldebug_info0
 3413 000a 910E0000 		.4byte	0xe91
 3414 000e 420C0000 		.4byte	0xc42
 3415 0012 56656374 		.ascii	"VectorD4\000"
 3415      6F724434 
 3415      00
 3416 001b 890D0000 		.4byte	0xd89
 3417 001f 73645F6C 		.ascii	"sd_lld_init\000"
 3417      6C645F69 
 3417      6E697400 
 3418 002b 9F0D0000 		.4byte	0xd9f
 3419 002f 73645F6C 		.ascii	"sd_lld_start\000"
 3419      6C645F73 
 3419      74617274 
 3419      00
 3420 003c FF0D0000 		.4byte	0xdff
 3421 0040 73645F6C 		.ascii	"sd_lld_stop\000"
 3421      6C645F73 
 3421      746F7000 
 3422 004c 7E0E0000 		.4byte	0xe7e
 3423 0050 53443100 		.ascii	"SD1\000"
 3424 0054 00000000 		.4byte	0x0
 3425              		.section	.debug_pubtypes,"",%progbits
 3426 0000 46020000 		.4byte	0x246
 3427 0004 0200     		.2byte	0x2
 3428 0006 00000000 		.4byte	.Ldebug_info0
 3429 000a 910E0000 		.4byte	0xe91
 3430 000e 30000000 		.4byte	0x30
 3431 0012 73697A65 		.ascii	"size_t\000"
 3431      5F7400
 3432 0019 49000000 		.4byte	0x49
 3433 001d 75696E74 		.ascii	"uint8_t\000"
 3433      385F7400 
 3434 0025 62000000 		.4byte	0x62
 3435 0029 75696E74 		.ascii	"uint16_t\000"
 3435      31365F74 
 3435      00
 3436 0032 74000000 		.4byte	0x74
 3437 0036 696E7433 		.ascii	"int32_t\000"
 3437      325F7400 
 3438 003e 86000000 		.4byte	0x86
 3439 0042 75696E74 		.ascii	"uint32_t\000"
 3439      33325F74 
 3439      00
 3440 004b A6000000 		.4byte	0xa6
 3441 004f 626F6F6C 		.ascii	"bool_t\000"
 3441      5F7400
 3442 0056 B8000000 		.4byte	0xb8
 3443 005a 746D6F64 		.ascii	"tmode_t\000"
 3443      655F7400 
 3444 0062 C3000000 		.4byte	0xc3
 3445 0066 74737461 		.ascii	"tstate_t\000"
 3445      74655F74 
 3445      00
ARM GAS  C:\Users\DNIEL~1\AppData\Local\Temp\ccSeIRNy.s 			page 62


 3446 006f CE000000 		.4byte	0xce
 3447 0073 74726566 		.ascii	"trefs_t\000"
 3447      735F7400 
 3448 007b D9000000 		.4byte	0xd9
 3449 007f 74736C69 		.ascii	"tslices_t\000"
 3449      6365735F 
 3449      7400
 3450 0089 E4000000 		.4byte	0xe4
 3451 008d 74707269 		.ascii	"tprio_t\000"
 3451      6F5F7400 
 3452 0095 EF000000 		.4byte	0xef
 3453 0099 6D73675F 		.ascii	"msg_t\000"
 3453      7400
 3454 009f FA000000 		.4byte	0xfa
 3455 00a3 6576656E 		.ascii	"eventmask_t\000"
 3455      746D6173 
 3455      6B5F7400 
 3456 00af 05010000 		.4byte	0x105
 3457 00b3 666C6167 		.ascii	"flagsmask_t\000"
 3457      736D6173 
 3457      6B5F7400 
 3458 00bf 10010000 		.4byte	0x110
 3459 00c3 73797374 		.ascii	"systime_t\000"
 3459      696D655F 
 3459      7400
 3460 00cd 1B010000 		.4byte	0x11b
 3461 00d1 54687265 		.ascii	"Thread\000"
 3461      616400
 3462 00d8 76020000 		.4byte	0x276
 3463 00dc 54687265 		.ascii	"ThreadsQueue\000"
 3463      61647351 
 3463      75657565 
 3463      00
 3464 00e9 98020000 		.4byte	0x298
 3465 00ed 54687265 		.ascii	"ThreadsList\000"
 3465      6164734C 
 3465      69737400 
 3466 00f9 A3020000 		.4byte	0x2a3
 3467 00fd 72656761 		.ascii	"regarm_t\000"
 3467      726D5F74 
 3467      00
 3468 0106 B0020000 		.4byte	0x2b0
 3469 010a 696E7463 		.ascii	"intctx\000"
 3469      747800
 3470 0111 3E030000 		.4byte	0x33e
 3471 0115 636F6E74 		.ascii	"context\000"
 3471      65787400 
 3472 011d 6B030000 		.4byte	0x36b
 3473 0121 4D757465 		.ascii	"Mutex\000"
 3473      7800
 3474 0127 A8030000 		.4byte	0x3a8
 3475 012b 4D757465 		.ascii	"Mutex\000"
 3475      7800
 3476 0131 B3030000 		.4byte	0x3b3
 3477 0135 4576656E 		.ascii	"EventListener\000"
 3477      744C6973 
 3477      74656E65 
ARM GAS  C:\Users\DNIEL~1\AppData\Local\Temp\ccSeIRNy.s 			page 63


 3477      7200
 3478 0143 BE030000 		.4byte	0x3be
 3479 0147 4576656E 		.ascii	"EventListener\000"
 3479      744C6973 
 3479      74656E65 
 3479      7200
 3480 0155 09040000 		.4byte	0x409
 3481 0159 4576656E 		.ascii	"EventSource\000"
 3481      74536F75 
 3481      72636500 
 3482 0165 24040000 		.4byte	0x424
 3483 0169 4576656E 		.ascii	"EventSource\000"
 3483      74536F75 
 3483      72636500 
 3484 0175 26010000 		.4byte	0x126
 3485 0179 54687265 		.ascii	"Thread\000"
 3485      616400
 3486 0180 92040000 		.4byte	0x492
 3487 0184 47656E65 		.ascii	"GenericQueue\000"
 3487      72696351 
 3487      75657565 
 3487      00
 3488 0191 1A050000 		.4byte	0x51a
 3489 0195 716E6F74 		.ascii	"qnotify_t\000"
 3489      6966795F 
 3489      7400
 3490 019f 9D040000 		.4byte	0x49d
 3491 01a3 47656E65 		.ascii	"GenericQueue\000"
 3491      72696351 
 3491      75657565 
 3491      00
 3492 01b0 43050000 		.4byte	0x543
 3493 01b4 496E7075 		.ascii	"InputQueue\000"
 3493      74517565 
 3493      756500
 3494 01bf 4E050000 		.4byte	0x54e
 3495 01c3 4F757470 		.ascii	"OutputQueue\000"
 3495      75745175 
 3495      65756500 
 3496 01cf C6070000 		.4byte	0x7c6
 3497 01d3 5243435F 		.ascii	"RCC_TypeDef\000"
 3497      54797065 
 3497      44656600 
 3498 01df AC080000 		.4byte	0x8ac
 3499 01e3 55534152 		.ascii	"USART_TypeDef\000"
 3499      545F5479 
 3499      70654465 
 3499      6600
 3500 01f1 58090000 		.4byte	0x958
 3501 01f5 73647374 		.ascii	"sdstate_t\000"
 3501      6174655F 
 3501      7400
 3502 01ff 63090000 		.4byte	0x963
 3503 0203 53657269 		.ascii	"SerialDriver\000"
 3503      616C4472 
 3503      69766572 
 3503      00
ARM GAS  C:\Users\DNIEL~1\AppData\Local\Temp\ccSeIRNy.s 			page 64


 3504 0210 2A0A0000 		.4byte	0xa2a
 3505 0214 53657269 		.ascii	"SerialConfig\000"
 3505      616C436F 
 3505      6E666967 
 3505      00
 3506 0221 350A0000 		.4byte	0xa35
 3507 0225 53657269 		.ascii	"SerialDriverVMT\000"
 3507      616C4472 
 3507      69766572 
 3507      564D5400 
 3508 0235 6E090000 		.4byte	0x96e
 3509 0239 53657269 		.ascii	"SerialDriver\000"
 3509      616C4472 
 3509      69766572 
 3509      00
 3510 0246 00000000 		.4byte	0x0
 3511              		.section	.debug_aranges,"",%progbits
 3512 0000 3C000000 		.4byte	0x3c
 3513 0004 0200     		.2byte	0x2
 3514 0006 00000000 		.4byte	.Ldebug_info0
 3515 000a 04       		.byte	0x4
 3516 000b 00       		.byte	0x0
 3517 000c 0000     		.2byte	0x0
 3518 000e 0000     		.2byte	0x0
 3519 0010 00000000 		.4byte	.LFB122
 3520 0014 14000000 		.4byte	.LFE122-.LFB122
 3521 0018 00000000 		.4byte	.LFB123
 3522 001c 18010000 		.4byte	.LFE123-.LFB123
 3523 0020 00000000 		.4byte	.LFB124
 3524 0024 20000000 		.4byte	.LFE124-.LFB124
 3525 0028 00000000 		.4byte	.LFB125
 3526 002c 98000000 		.4byte	.LFE125-.LFB125
 3527 0030 00000000 		.4byte	.LFB126
 3528 0034 30000000 		.4byte	.LFE126-.LFB126
 3529 0038 00000000 		.4byte	0x0
 3530 003c 00000000 		.4byte	0x0
 3531              		.section	.debug_ranges,"",%progbits
 3532              	.Ldebug_ranges0:
 3533 0000 04000000 		.4byte	.LBB52
 3534 0004 A8000000 		.4byte	.LBE52
 3535 0008 B0000000 		.4byte	.LBB68
 3536 000c 18010000 		.4byte	.LBE68
 3537 0010 00000000 		.4byte	0x0
 3538 0014 00000000 		.4byte	0x0
 3539 0018 04000000 		.4byte	.LBB53
 3540 001c A8000000 		.4byte	.LBE53
 3541 0020 B0000000 		.4byte	.LBB67
 3542 0024 18010000 		.4byte	.LBE67
 3543 0028 00000000 		.4byte	0x0
 3544 002c 00000000 		.4byte	0x0
 3545 0030 A0000000 		.4byte	.LBB55
 3546 0034 A2000000 		.4byte	.LBE55
 3547 0038 A4000000 		.4byte	.LBB54
 3548 003c A8000000 		.4byte	.LBE54
 3549 0040 00000000 		.4byte	0x0
 3550 0044 00000000 		.4byte	0x0
 3551 0048 CE000000 		.4byte	.LBB63
ARM GAS  C:\Users\DNIEL~1\AppData\Local\Temp\ccSeIRNy.s 			page 65


 3552 004c E8000000 		.4byte	.LBE63
 3553 0050 F8000000 		.4byte	.LBB66
 3554 0054 18010000 		.4byte	.LBE66
 3555 0058 00000000 		.4byte	0x0
 3556 005c 00000000 		.4byte	0x0
 3557 0060 14000000 		.4byte	.LBB69
 3558 0064 54000000 		.4byte	.LBE69
 3559 0068 70000000 		.4byte	.LBB72
 3560 006c 98000000 		.4byte	.LBE72
 3561 0070 00000000 		.4byte	0x0
 3562 0074 00000000 		.4byte	0x0
 3563 0078 14000000 		.4byte	.LBB70
 3564 007c 54000000 		.4byte	.LBE70
 3565 0080 70000000 		.4byte	.LBB71
 3566 0084 98000000 		.4byte	.LBE71
 3567 0088 00000000 		.4byte	0x0
 3568 008c 00000000 		.4byte	0x0
 3569 0090 0C000000 		.4byte	.LBB73
 3570 0094 0E000000 		.4byte	.LBE73
 3571 0098 10000000 		.4byte	.LBB76
 3572 009c 16000000 		.4byte	.LBE76
 3573 00a0 00000000 		.4byte	0x0
 3574 00a4 00000000 		.4byte	0x0
 3575 00a8 00000000 		.4byte	.LFB122
 3576 00ac 14000000 		.4byte	.LFE122
 3577 00b0 00000000 		.4byte	.LFB123
 3578 00b4 18010000 		.4byte	.LFE123
 3579 00b8 00000000 		.4byte	.LFB124
 3580 00bc 20000000 		.4byte	.LFE124
 3581 00c0 00000000 		.4byte	.LFB125
 3582 00c4 98000000 		.4byte	.LFE125
 3583 00c8 00000000 		.4byte	.LFB126
 3584 00cc 30000000 		.4byte	.LFE126
 3585 00d0 00000000 		.4byte	0x0
 3586 00d4 00000000 		.4byte	0x0
 3587              		.section	.debug_str,"MS",%progbits,1
 3588              	.LASF2:
 3589 0000 73697A65 		.ascii	"size_t\000"
 3589      5F7400
 3590              	.LASF61:
 3591 0007 7264796D 		.ascii	"rdymsg\000"
 3591      736700
 3592              	.LASF77:
 3593 000e 4F757470 		.ascii	"OutputQueue\000"
 3593      75745175 
 3593      65756500 
 3594              	.LASF131:
 3595 001a 7365745F 		.ascii	"set_error\000"
 3595      6572726F 
 3595      7200
 3596              	.LASF13:
 3597 0024 6C6F6E67 		.ascii	"long long unsigned int\000"
 3597      206C6F6E 
 3597      6720756E 
 3597      7369676E 
 3597      65642069 
 3598              	.LASF62:
ARM GAS  C:\Users\DNIEL~1\AppData\Local\Temp\ccSeIRNy.s 			page 66


 3599 003b 65786974 		.ascii	"exitcode\000"
 3599      636F6465 
 3599      00
 3600              	.LASF137:
 3601 0044 49544D5F 		.ascii	"ITM_RxBuffer\000"
 3601      52784275 
 3601      66666572 
 3601      00
 3602              	.LASF94:
 3603 0051 41484231 		.ascii	"AHB1LPENR\000"
 3603      4C50454E 
 3603      5200
 3604              	.LASF28:
 3605 005b 705F7072 		.ascii	"p_prio\000"
 3605      696F00
 3606              	.LASF128:
 3607 0062 72656164 		.ascii	"readt\000"
 3607      7400
 3608              	.LASF67:
 3609 0068 715F7761 		.ascii	"q_waiting\000"
 3609      6974696E 
 3609      6700
 3610              	.LASF106:
 3611 0072 44434B43 		.ascii	"DCKCFGR\000"
 3611      46475200 
 3612              	.LASF12:
 3613 007a 6C6F6E67 		.ascii	"long long int\000"
 3613      206C6F6E 
 3613      6720696E 
 3613      7400
 3614              	.LASF1:
 3615 0088 7369676E 		.ascii	"signed char\000"
 3615      65642063 
 3615      68617200 
 3616              	.LASF80:
 3617 0094 41484231 		.ascii	"AHB1RSTR\000"
 3617      52535452 
 3617      00
 3618              	.LASF108:
 3619 009d 47545052 		.ascii	"GTPR\000"
 3619      00
 3620              	.LASF44:
 3621 00a2 705F6D70 		.ascii	"p_mpool\000"
 3621      6F6F6C00 
 3622              	.LASF14:
 3623 00aa 626F6F6C 		.ascii	"bool_t\000"
 3623      5F7400
 3624              	.LASF51:
 3625 00b1 6D5F7175 		.ascii	"m_queue\000"
 3625      65756500 
 3626              	.LASF138:
 3627 00b9 474E5520 		.ascii	"GNU C 4.5.2\000"
 3627      4320342E 
 3627      352E3200 
 3628              	.LASF19:
 3629 00c5 74736C69 		.ascii	"tslices_t\000"
 3629      6365735F 
ARM GAS  C:\Users\DNIEL~1\AppData\Local\Temp\ccSeIRNy.s 			page 67


 3629      7400
 3630              	.LASF107:
 3631 00cf 5243435F 		.ascii	"RCC_TypeDef\000"
 3631      54797065 
 3631      44656600 
 3632              	.LASF143:
 3633 00db 64656661 		.ascii	"default_config\000"
 3633      756C745F 
 3633      636F6E66 
 3633      696700
 3634              	.LASF116:
 3635 00ea 73746174 		.ascii	"state\000"
 3635      6500
 3636              	.LASF9:
 3637 00f0 6C6F6E67 		.ascii	"long int\000"
 3637      20696E74 
 3637      00
 3638              	.LASF85:
 3639 00f9 41504232 		.ascii	"APB2RSTR\000"
 3639      52535452 
 3639      00
 3640              	.LASF98:
 3641 0102 41504231 		.ascii	"APB1LPENR\000"
 3641      4C50454E 
 3641      5200
 3642              	.LASF17:
 3643 010c 74737461 		.ascii	"tstate_t\000"
 3643      74655F74 
 3643      00
 3644              	.LASF35:
 3645 0115 705F7265 		.ascii	"p_refs\000"
 3645      667300
 3646              	.LASF69:
 3647 011c 715F6275 		.ascii	"q_buffer\000"
 3647      66666572 
 3647      00
 3648              	.LASF71:
 3649 0125 715F7772 		.ascii	"q_wrptr\000"
 3649      70747200 
 3650              	.LASF37:
 3651 012d 705F7469 		.ascii	"p_time\000"
 3651      6D6500
 3652              	.LASF30:
 3653 0134 705F6E65 		.ascii	"p_newer\000"
 3653      77657200 
 3654              	.LASF78:
 3655 013c 504C4C43 		.ascii	"PLLCFGR\000"
 3655      46475200 
 3656              	.LASF47:
 3657 0144 72656761 		.ascii	"regarm_t\000"
 3657      726D5F74 
 3657      00
 3658              	.LASF132:
 3659 014d 75736172 		.ascii	"usart_deinit\000"
 3659      745F6465 
 3659      696E6974 
 3659      00
ARM GAS  C:\Users\DNIEL~1\AppData\Local\Temp\ccSeIRNy.s 			page 68


 3660              	.LASF59:
 3661 015a 4576656E 		.ascii	"EventSource\000"
 3661      74536F75 
 3661      72636500 
 3662              	.LASF119:
 3663 0166 75736172 		.ascii	"usart\000"
 3663      7400
 3664              	.LASF0:
 3665 016c 756E7369 		.ascii	"unsigned int\000"
 3665      676E6564 
 3665      20696E74 
 3665      00
 3666              	.LASF6:
 3667 0179 75696E74 		.ascii	"uint16_t\000"
 3667      31365F74 
 3667      00
 3668              	.LASF122:
 3669 0182 53657269 		.ascii	"SerialDriverVMT\000"
 3669      616C4472 
 3669      69766572 
 3669      564D5400 
 3670              	.LASF117:
 3671 0192 69717565 		.ascii	"iqueue\000"
 3671      756500
 3672              	.LASF39:
 3673 0199 705F6D73 		.ascii	"p_msgqueue\000"
 3673      67717565 
 3673      756500
 3674              	.LASF142:
 3675 01a4 73645F6C 		.ascii	"sd_lld_init\000"
 3675      6C645F69 
 3675      6E697400 
 3676              	.LASF126:
 3677 01b0 67657474 		.ascii	"gett\000"
 3677      00
 3678              	.LASF115:
 3679 01b5 6576656E 		.ascii	"event\000"
 3679      7400
 3680              	.LASF7:
 3681 01bb 73686F72 		.ascii	"short unsigned int\000"
 3681      7420756E 
 3681      7369676E 
 3681      65642069 
 3681      6E7400
 3682              	.LASF104:
 3683 01ce 504C4C49 		.ascii	"PLLI2SCFGR\000"
 3683      32534346 
 3683      475200
 3684              	.LASF21:
 3685 01d9 6D73675F 		.ascii	"msg_t\000"
 3685      7400
 3686              	.LASF118:
 3687 01df 6F717565 		.ascii	"oqueue\000"
 3687      756500
 3688              	.LASF109:
 3689 01e6 55534152 		.ascii	"USART_TypeDef\000"
 3689      545F5479 
ARM GAS  C:\Users\DNIEL~1\AppData\Local\Temp\ccSeIRNy.s 			page 69


 3689      70654465 
 3689      6600
 3690              	.LASF127:
 3691 01f4 77726974 		.ascii	"writet\000"
 3691      657400
 3692              	.LASF16:
 3693 01fb 746D6F64 		.ascii	"tmode_t\000"
 3693      655F7400 
 3694              	.LASF99:
 3695 0203 41504232 		.ascii	"APB2LPENR\000"
 3695      4C50454E 
 3695      5200
 3696              	.LASF46:
 3697 020d 54687265 		.ascii	"ThreadsList\000"
 3697      6164734C 
 3697      69737400 
 3698              	.LASF22:
 3699 0219 6576656E 		.ascii	"eventmask_t\000"
 3699      746D6173 
 3699      6B5F7400 
 3700              	.LASF134:
 3701 0225 56656374 		.ascii	"VectorD4\000"
 3701      6F724434 
 3701      00
 3702              	.LASF120:
 3703 022e 73706565 		.ascii	"speed\000"
 3703      6400
 3704              	.LASF75:
 3705 0234 716E6F74 		.ascii	"qnotify_t\000"
 3705      6966795F 
 3705      7400
 3706              	.LASF66:
 3707 023e 47656E65 		.ascii	"GenericQueue\000"
 3707      72696351 
 3707      75657565 
 3707      00
 3708              	.LASF123:
 3709 024b 77726974 		.ascii	"write\000"
 3709      6500
 3710              	.LASF125:
 3711 0251 70757474 		.ascii	"putt\000"
 3711      00
 3712              	.LASF130:
 3713 0256 75736172 		.ascii	"usart_init\000"
 3713      745F696E 
 3713      697400
 3714              	.LASF68:
 3715 0261 715F636F 		.ascii	"q_counter\000"
 3715      756E7465 
 3715      7200
 3716              	.LASF50:
 3717 026b 4D757465 		.ascii	"Mutex\000"
 3717      7800
 3718              	.LASF26:
 3719 0271 705F6E65 		.ascii	"p_next\000"
 3719      787400
 3720              	.LASF89:
ARM GAS  C:\Users\DNIEL~1\AppData\Local\Temp\ccSeIRNy.s 			page 70


 3721 0278 41484233 		.ascii	"AHB3ENR\000"
 3721      454E5200 
 3722              	.LASF31:
 3723 0280 705F6F6C 		.ascii	"p_older\000"
 3723      64657200 
 3724              	.LASF45:
 3725 0288 54687265 		.ascii	"ThreadsQueue\000"
 3725      61647351 
 3725      75657565 
 3725      00
 3726              	.LASF95:
 3727 0295 41484232 		.ascii	"AHB2LPENR\000"
 3727      4C50454E 
 3727      5200
 3728              	.LASF139:
 3729 029f 2E2E2F2E 		.ascii	"../../../ChibiOS/os/hal/platforms/STM32/USARTv1/ser"
 3729      2E2F2E2E 
 3729      2F436869 
 3729      62694F53 
 3729      2F6F732F 
 3730 02d2 69616C5F 		.ascii	"ial_lld.c\000"
 3730      6C6C642E 
 3730      6300
 3731              	.LASF84:
 3732 02dc 41504231 		.ascii	"APB1RSTR\000"
 3732      52535452 
 3732      00
 3733              	.LASF57:
 3734 02e5 656C5F6D 		.ascii	"el_mask\000"
 3734      61736B00 
 3735              	.LASF121:
 3736 02ed 53657269 		.ascii	"SerialConfig\000"
 3736      616C436F 
 3736      6E666967 
 3736      00
 3737              	.LASF141:
 3738 02fa 6E6F7469 		.ascii	"notify1\000"
 3738      66793100 
 3739              	.LASF105:
 3740 0302 504C4C53 		.ascii	"PLLSAICFGR\000"
 3740      41494346 
 3740      475200
 3741              	.LASF18:
 3742 030d 74726566 		.ascii	"trefs_t\000"
 3742      735F7400 
 3743              	.LASF83:
 3744 0315 52455345 		.ascii	"RESERVED0\000"
 3744      52564544 
 3744      3000
 3745              	.LASF86:
 3746 031f 52455345 		.ascii	"RESERVED1\000"
 3746      52564544 
 3746      3100
 3747              	.LASF90:
 3748 0329 52455345 		.ascii	"RESERVED2\000"
 3748      52564544 
 3748      3200
ARM GAS  C:\Users\DNIEL~1\AppData\Local\Temp\ccSeIRNy.s 			page 71


 3749              	.LASF93:
 3750 0333 52455345 		.ascii	"RESERVED3\000"
 3750      52564544 
 3750      3300
 3751              	.LASF97:
 3752 033d 52455345 		.ascii	"RESERVED4\000"
 3752      52564544 
 3752      3400
 3753              	.LASF27:
 3754 0347 705F7072 		.ascii	"p_prev\000"
 3754      657600
 3755              	.LASF102:
 3756 034e 52455345 		.ascii	"RESERVED6\000"
 3756      52564544 
 3756      3600
 3757              	.LASF20:
 3758 0358 74707269 		.ascii	"tprio_t\000"
 3758      6F5F7400 
 3759              	.LASF72:
 3760 0360 715F7264 		.ascii	"q_rdptr\000"
 3760      70747200 
 3761              	.LASF15:
 3762 0368 5F426F6F 		.ascii	"_Bool\000"
 3762      6C00
 3763              	.LASF8:
 3764 036e 696E7433 		.ascii	"int32_t\000"
 3764      325F7400 
 3765              	.LASF4:
 3766 0376 756E7369 		.ascii	"unsigned char\000"
 3766      676E6564 
 3766      20636861 
 3766      7200
 3767              	.LASF140:
 3768 0384 433A5C44 		.ascii	"C:\\Dani\\MegaLux\\Repo\\Smarty\\Smarty\\smarty\\fi"
 3768      616E695C 
 3768      4D656761 
 3768      4C75785C 
 3768      5265706F 
 3769 03b0 726D7761 		.ascii	"rmware\000"
 3769      726500
 3770              	.LASF135:
 3771 03b7 73645F6C 		.ascii	"sd_lld_start\000"
 3771      6C645F73 
 3771      74617274 
 3771      00
 3772              	.LASF56:
 3773 03c4 656C5F6C 		.ascii	"el_listener\000"
 3773      69737465 
 3773      6E657200 
 3774              	.LASF58:
 3775 03d0 656C5F66 		.ascii	"el_flags\000"
 3775      6C616773 
 3775      00
 3776              	.LASF33:
 3777 03d9 705F7374 		.ascii	"p_state\000"
 3777      61746500 
 3778              	.LASF42:
ARM GAS  C:\Users\DNIEL~1\AppData\Local\Temp\ccSeIRNy.s 			page 72


 3779 03e1 705F6D74 		.ascii	"p_mtxlist\000"
 3779      786C6973 
 3779      7400
 3780              	.LASF5:
 3781 03eb 73686F72 		.ascii	"short int\000"
 3781      7420696E 
 3781      7400
 3782              	.LASF36:
 3783 03f5 705F7072 		.ascii	"p_preempt\000"
 3783      65656D70 
 3783      7400
 3784              	.LASF96:
 3785 03ff 41484233 		.ascii	"AHB3LPENR\000"
 3785      4C50454E 
 3785      5200
 3786              	.LASF64:
 3787 0409 65776D61 		.ascii	"ewmask\000"
 3787      736B00
 3788              	.LASF34:
 3789 0410 705F666C 		.ascii	"p_flags\000"
 3789      61677300 
 3790              	.LASF55:
 3791 0418 656C5F6E 		.ascii	"el_next\000"
 3791      65787400 
 3792              	.LASF111:
 3793 0420 53445F53 		.ascii	"SD_STOP\000"
 3793      544F5000 
 3794              	.LASF92:
 3795 0428 41504232 		.ascii	"APB2ENR\000"
 3795      454E5200 
 3796              	.LASF82:
 3797 0430 41484233 		.ascii	"AHB3RSTR\000"
 3797      52535452 
 3797      00
 3798              	.LASF25:
 3799 0439 54687265 		.ascii	"Thread\000"
 3799      616400
 3800              	.LASF133:
 3801 0440 73657276 		.ascii	"serve_interrupt\000"
 3801      655F696E 
 3801      74657272 
 3801      75707400 
 3802              	.LASF41:
 3803 0450 705F6570 		.ascii	"p_epending\000"
 3803      656E6469 
 3803      6E6700
 3804              	.LASF110:
 3805 045b 53445F55 		.ascii	"SD_UNINIT\000"
 3805      4E494E49 
 3805      5400
 3806              	.LASF100:
 3807 0465 52455345 		.ascii	"RESERVED5\000"
 3807      52564544 
 3807      3500
 3808              	.LASF10:
 3809 046f 75696E74 		.ascii	"uint32_t\000"
 3809      33325F74 
ARM GAS  C:\Users\DNIEL~1\AppData\Local\Temp\ccSeIRNy.s 			page 73


 3809      00
 3810              	.LASF113:
 3811 0478 73647374 		.ascii	"sdstate_t\000"
 3811      6174655F 
 3811      7400
 3812              	.LASF114:
 3813 0482 53657269 		.ascii	"SerialDriver\000"
 3813      616C4472 
 3813      69766572 
 3813      00
 3814              	.LASF11:
 3815 048f 6C6F6E67 		.ascii	"long unsigned int\000"
 3815      20756E73 
 3815      69676E65 
 3815      6420696E 
 3815      7400
 3816              	.LASF124:
 3817 04a1 72656164 		.ascii	"read\000"
 3817      00
 3818              	.LASF65:
 3819 04a6 63686172 		.ascii	"char\000"
 3819      00
 3820              	.LASF129:
 3821 04ab 636F6E66 		.ascii	"config\000"
 3821      696700
 3822              	.LASF81:
 3823 04b2 41484232 		.ascii	"AHB2RSTR\000"
 3823      52535452 
 3823      00
 3824              	.LASF53:
 3825 04bb 6D5F6E65 		.ascii	"m_next\000"
 3825      787400
 3826              	.LASF24:
 3827 04c2 73797374 		.ascii	"systime_t\000"
 3827      696D655F 
 3827      7400
 3828              	.LASF43:
 3829 04cc 705F7265 		.ascii	"p_realprio\000"
 3829      616C7072 
 3829      696F00
 3830              	.LASF91:
 3831 04d7 41504231 		.ascii	"APB1ENR\000"
 3831      454E5200 
 3832              	.LASF88:
 3833 04df 41484232 		.ascii	"AHB2ENR\000"
 3833      454E5200 
 3834              	.LASF49:
 3835 04e7 636F6E74 		.ascii	"context\000"
 3835      65787400 
 3836              	.LASF48:
 3837 04ef 696E7463 		.ascii	"intctx\000"
 3837      747800
 3838              	.LASF112:
 3839 04f6 53445F52 		.ascii	"SD_READY\000"
 3839      45414459 
 3839      00
 3840              	.LASF23:
ARM GAS  C:\Users\DNIEL~1\AppData\Local\Temp\ccSeIRNy.s 			page 74


 3841 04ff 666C6167 		.ascii	"flagsmask_t\000"
 3841      736D6173 
 3841      6B5F7400 
 3842              	.LASF103:
 3843 050b 53534347 		.ascii	"SSCGR\000"
 3843      5200
 3844              	.LASF70:
 3845 0511 715F746F 		.ascii	"q_top\000"
 3845      7000
 3846              	.LASF32:
 3847 0517 705F6E61 		.ascii	"p_name\000"
 3847      6D6500
 3848              	.LASF60:
 3849 051e 65735F6E 		.ascii	"es_next\000"
 3849      65787400 
 3850              	.LASF101:
 3851 0526 42444352 		.ascii	"BDCR\000"
 3851      00
 3852              	.LASF73:
 3853 052b 715F6E6F 		.ascii	"q_notify\000"
 3853      74696679 
 3853      00
 3854              	.LASF3:
 3855 0534 75696E74 		.ascii	"uint8_t\000"
 3855      385F7400 
 3856              	.LASF76:
 3857 053c 496E7075 		.ascii	"InputQueue\000"
 3857      74517565 
 3857      756500
 3858              	.LASF54:
 3859 0547 4576656E 		.ascii	"EventListener\000"
 3859      744C6973 
 3859      74656E65 
 3859      7200
 3860              	.LASF63:
 3861 0555 77746F62 		.ascii	"wtobjp\000"
 3861      6A7000
 3862              	.LASF87:
 3863 055c 41484231 		.ascii	"AHB1ENR\000"
 3863      454E5200 
 3864              	.LASF79:
 3865 0564 43464752 		.ascii	"CFGR\000"
 3865      00
 3866              	.LASF40:
 3867 0569 705F6D73 		.ascii	"p_msg\000"
 3867      6700
 3868              	.LASF136:
 3869 056f 73645F6C 		.ascii	"sd_lld_stop\000"
 3869      6C645F73 
 3869      746F7000 
 3870              	.LASF74:
 3871 057b 715F6C69 		.ascii	"q_link\000"
 3871      6E6B00
 3872              	.LASF52:
 3873 0582 6D5F6F77 		.ascii	"m_owner\000"
 3873      6E657200 
 3874              	.LASF29:
ARM GAS  C:\Users\DNIEL~1\AppData\Local\Temp\ccSeIRNy.s 			page 75


 3875 058a 705F6374 		.ascii	"p_ctx\000"
 3875      7800
 3876              	.LASF38:
 3877 0590 705F7761 		.ascii	"p_waiting\000"
 3877      6974696E 
 3877      6700
 3878              		.ident	"GCC: (Sourcery G++ Lite 2011.03-42) 4.5.2"
ARM GAS  C:\Users\DNIEL~1\AppData\Local\Temp\ccSeIRNy.s 			page 76


DEFINED SYMBOLS
                            *ABS*:00000000 serial_lld.c
C:\Users\DNIEL~1\AppData\Local\Temp\ccSeIRNy.s:24     .text.notify1:00000000 $t
C:\Users\DNIEL~1\AppData\Local\Temp\ccSeIRNy.s:29     .text.notify1:00000000 notify1
C:\Users\DNIEL~1\AppData\Local\Temp\ccSeIRNy.s:50     .text.notify1:00000010 $d
C:\Users\DNIEL~1\AppData\Local\Temp\ccSeIRNy.s:55     .text.VectorD4:00000000 $t
C:\Users\DNIEL~1\AppData\Local\Temp\ccSeIRNy.s:61     .text.VectorD4:00000000 VectorD4
C:\Users\DNIEL~1\AppData\Local\Temp\ccSeIRNy.s:322    .text.VectorD4:0000010c $d
C:\Users\DNIEL~1\AppData\Local\Temp\ccSeIRNy.s:332    .text.sd_lld_init:00000000 $t
C:\Users\DNIEL~1\AppData\Local\Temp\ccSeIRNy.s:338    .text.sd_lld_init:00000000 sd_lld_init
C:\Users\DNIEL~1\AppData\Local\Temp\ccSeIRNy.s:363    .text.sd_lld_init:00000014 $d
C:\Users\DNIEL~1\AppData\Local\Temp\ccSeIRNy.s:370    .text.sd_lld_start:00000000 $t
C:\Users\DNIEL~1\AppData\Local\Temp\ccSeIRNy.s:376    .text.sd_lld_start:00000000 sd_lld_start
C:\Users\DNIEL~1\AppData\Local\Temp\ccSeIRNy.s:486    .text.sd_lld_start:00000080 $d
C:\Users\DNIEL~1\AppData\Local\Temp\ccSeIRNy.s:498    .text.sd_lld_stop:00000000 $t
C:\Users\DNIEL~1\AppData\Local\Temp\ccSeIRNy.s:504    .text.sd_lld_stop:00000000 sd_lld_stop
C:\Users\DNIEL~1\AppData\Local\Temp\ccSeIRNy.s:561    .text.sd_lld_stop:00000028 $d
C:\Users\DNIEL~1\AppData\Local\Temp\ccSeIRNy.s:583    .bss.SD1:00000000 SD1
C:\Users\DNIEL~1\AppData\Local\Temp\ccSeIRNy.s:568    .rodata.default_config:00000000 $d
C:\Users\DNIEL~1\AppData\Local\Temp\ccSeIRNy.s:572    .rodata.default_config:00000000 default_config
C:\Users\DNIEL~1\AppData\Local\Temp\ccSeIRNy.s:579    .bss.SD1:00000000 $d
                     .debug_frame:00000010 $d
C:\Users\DNIEL~1\AppData\Local\Temp\ccSeIRNy.s:54     .text.notify1:00000014 $t
C:\Users\DNIEL~1\AppData\Local\Temp\ccSeIRNy.s:331    .text.VectorD4:00000118 $t
C:\Users\DNIEL~1\AppData\Local\Temp\ccSeIRNy.s:497    .text.sd_lld_start:00000098 $t

UNDEFINED SYMBOLS
chEvtBroadcastFlagsI
sdIncomingDataI
_port_irq_epilogue
chOQGetI
sdObjectInit
nvicEnableVector
nvicDisableVector
