ARM GAS  C:\Users\DNIEL~1\AppData\Local\Temp\cc4acLj8.s 			page 1


   1              		.syntax unified
   2              		.cpu cortex-m4
   3              		.fpu softvfp
   4              		.eabi_attribute 20, 1
   5              		.eabi_attribute 21, 1
   6              		.eabi_attribute 23, 3
   7              		.eabi_attribute 24, 1
   8              		.eabi_attribute 25, 1
   9              		.eabi_attribute 26, 1
  10              		.eabi_attribute 30, 2
  11              		.eabi_attribute 34, 1
  12              		.eabi_attribute 18, 4
  13              		.thumb
  14              		.file	"shell.c"
  15              		.text
  16              	.Ltext0:
  17              		.cfi_sections	.debug_frame
  18              		.section	.text.cmd_systime,"ax",%progbits
  19              		.align	2
  20              		.p2align 4,,15
  21              		.thumb
  22              		.thumb_func
  23              		.type	cmd_systime, %function
  24              	cmd_systime:
  25              	.LFB122:
  26              		.file 1 "../../../ChibiOS/os/various/shell.c"
  27              		.loc 1 103 0
  28              		.cfi_startproc
  29              		@ args = 0, pretend = 0, frame = 0
  30              		@ frame_needed = 0, uses_anonymous_args = 0
  31              		@ link register save eliminated.
  32              	.LVL0:
  33              		.loc 1 106 0
  34 0000 0029     		cmp	r1, #0
  35 0002 03DD     		ble	.L2
  36              	.LVL1:
  37              	.LBB6:
  38              	.LBB7:
  39              		.loc 1 60 0
  40 0004 0449     		ldr	r1, .L4
  41              	.LVL2:
  42 0006 054A     		ldr	r2, .L4+4
  43              	.LVL3:
  44              	.LBE7:
  45              	.LBE6:
  46              		.loc 1 111 0
  47              	.LBB9:
  48              	.LBB8:
  49              		.loc 1 60 0
  50 0008 FFF7FEBF 		b	chprintf
  51              	.LVL4:
  52              	.L2:
  53              	.LBE8:
  54              	.LBE9:
  55              	.LBB10:
  56              	.LBB11:
  57              		.loc 1 110 0
ARM GAS  C:\Users\DNIEL~1\AppData\Local\Temp\cc4acLj8.s 			page 2


  58 000c 044B     		ldr	r3, .L4+8
  59 000e 0549     		ldr	r1, .L4+12
  60              	.LVL5:
  61 0010 DA68     		ldr	r2, [r3, #12]
  62              	.LVL6:
  63              	.LBE11:
  64              	.LBE10:
  65              		.loc 1 111 0
  66              	.LBB13:
  67              	.LBB12:
  68              		.loc 1 110 0
  69 0012 FFF7FEBF 		b	chprintf
  70              	.LVL7:
  71              	.L5:
  72 0016 00BF     		.align	2
  73              	.L4:
  74 0018 00000000 		.word	.LC0
  75 001c 0C000000 		.word	.LC1
  76 0020 00000000 		.word	vtlist
  77 0024 14000000 		.word	.LC2
  78              	.LBE12:
  79              	.LBE13:
  80              		.cfi_endproc
  81              	.LFE122:
  82              		.size	cmd_systime, .-cmd_systime
  83 0028 AFF30080 		.section	.text.cmd_info,"ax",%progbits
  83      AFF30080 
  84              		.align	2
  85              		.p2align 4,,15
  86              		.thumb
  87              		.thumb_func
  88              		.type	cmd_info, %function
  89              	cmd_info:
  90              	.LFB121:
  91              		.loc 1 71 0
  92              		.cfi_startproc
  93              		@ args = 0, pretend = 0, frame = 0
  94              		@ frame_needed = 0, uses_anonymous_args = 0
  95              	.LVL8:
  96 0000 10B5     		push	{r4, lr}
  97              	.LCFI0:
  98              		.cfi_def_cfa_offset 8
  99              		.cfi_offset 4, -8
 100              		.cfi_offset 14, -4
 101              		.loc 1 74 0
 102 0002 0029     		cmp	r1, #0
 103              		.loc 1 71 0
 104 0004 82B0     		sub	sp, sp, #8
 105              	.LCFI1:
 106              		.cfi_def_cfa_offset 16
 107              		.loc 1 71 0
 108 0006 0446     		mov	r4, r0
 109              		.loc 1 74 0
 110 0008 06DD     		ble	.L7
 111              	.LVL9:
 112              	.LBB18:
 113              	.LBB19:
ARM GAS  C:\Users\DNIEL~1\AppData\Local\Temp\cc4acLj8.s 			page 3


 114              		.loc 1 60 0
 115 000a 1949     		ldr	r1, .L8
 116              	.LVL10:
 117 000c 194A     		ldr	r2, .L8+4
 118              	.LVL11:
 119              	.LBE19:
 120              	.LBE18:
 121              		.loc 1 101 0
 122 000e 02B0     		add	sp, sp, #8
 123 0010 BDE81040 		pop	{r4, lr}
 124              	.LBB21:
 125              	.LBB20:
 126              		.loc 1 60 0
 127 0014 FFF7FEBF 		b	chprintf
 128              	.LVL12:
 129              	.L7:
 130              	.LBE20:
 131              	.LBE21:
 132              	.LBB22:
 133              	.LBB23:
 134              		.loc 1 79 0
 135 0018 1749     		ldr	r1, .L8+8
 136              	.LVL13:
 137 001a 184A     		ldr	r2, .L8+12
 138              	.LVL14:
 139 001c FFF7FEFF 		bl	chprintf
 140              	.LVL15:
 141              		.loc 1 81 0
 142 0020 2046     		mov	r0, r4
 143 0022 1749     		ldr	r1, .L8+16
 144 0024 174A     		ldr	r2, .L8+20
 145 0026 FFF7FEFF 		bl	chprintf
 146              	.LVL16:
 147              		.loc 1 83 0
 148 002a 2046     		mov	r0, r4
 149 002c 1649     		ldr	r1, .L8+24
 150 002e 174A     		ldr	r2, .L8+28
 151 0030 FFF7FEFF 		bl	chprintf
 152              	.LVL17:
 153              		.loc 1 85 0
 154 0034 2046     		mov	r0, r4
 155 0036 1649     		ldr	r1, .L8+32
 156 0038 164A     		ldr	r2, .L8+36
 157 003a FFF7FEFF 		bl	chprintf
 158              	.LVL18:
 159              		.loc 1 88 0
 160 003e 2046     		mov	r0, r4
 161 0040 1549     		ldr	r1, .L8+40
 162 0042 164A     		ldr	r2, .L8+44
 163 0044 FFF7FEFF 		bl	chprintf
 164              	.LVL19:
 165              		.loc 1 91 0
 166 0048 2046     		mov	r0, r4
 167 004a 1549     		ldr	r1, .L8+48
 168 004c 154A     		ldr	r2, .L8+52
 169 004e FFF7FEFF 		bl	chprintf
 170              	.LVL20:
ARM GAS  C:\Users\DNIEL~1\AppData\Local\Temp\cc4acLj8.s 			page 4


 171              		.loc 1 94 0
 172 0052 2046     		mov	r0, r4
 173 0054 1449     		ldr	r1, .L8+56
 174 0056 154A     		ldr	r2, .L8+60
 175 0058 FFF7FEFF 		bl	chprintf
 176              	.LVL21:
 177              		.loc 1 98 0
 178 005c 144B     		ldr	r3, .L8+64
 179 005e 1549     		ldr	r1, .L8+68
 180 0060 0093     		str	r3, [sp, #0]
 181 0062 2046     		mov	r0, r4
 182 0064 144A     		ldr	r2, .L8+72
 183 0066 154B     		ldr	r3, .L8+76
 184 0068 FFF7FEFF 		bl	chprintf
 185              	.LVL22:
 186              	.LBE23:
 187              	.LBE22:
 188              		.loc 1 101 0
 189 006c 02B0     		add	sp, sp, #8
 190 006e 10BD     		pop	{r4, pc}
 191              	.L9:
 192              		.align	2
 193              	.L8:
 194 0070 00000000 		.word	.LC0
 195 0074 1C000000 		.word	.LC3
 196 0078 24000000 		.word	.LC4
 197 007c 38000000 		.word	.LC5
 198 0080 48000000 		.word	.LC6
 199 0084 5C000000 		.word	.LC7
 200 0088 A4000000 		.word	.LC8
 201 008c B8000000 		.word	.LC9
 202 0090 C4000000 		.word	.LC10
 203 0094 D8000000 		.word	.LC11
 204 0098 E4000000 		.word	.LC12
 205 009c F8000000 		.word	.LC13
 206 00a0 10010000 		.word	.LC14
 207 00a4 24010000 		.word	.LC15
 208 00a8 40010000 		.word	.LC16
 209 00ac 54010000 		.word	.LC17
 210 00b0 84010000 		.word	.LC21
 211 00b4 5C010000 		.word	.LC18
 212 00b8 74010000 		.word	.LC19
 213 00bc 80010000 		.word	.LC20
 214              		.cfi_endproc
 215              	.LFE121:
 216              		.size	cmd_info, .-cmd_info
 217              		.section	.text._strtok.constprop.2,"ax",%progbits
 218              		.align	2
 219              		.p2align 4,,15
 220              		.thumb
 221              		.thumb_func
 222              		.type	_strtok.constprop.2, %function
 223              	_strtok.constprop.2:
 224              	.LFB131:
 225              		.loc 1 41 0
 226              		.cfi_startproc
 227              		@ args = 0, pretend = 0, frame = 0
ARM GAS  C:\Users\DNIEL~1\AppData\Local\Temp\cc4acLj8.s 			page 5


 228              		@ frame_needed = 0, uses_anonymous_args = 0
 229              	.LVL23:
 230 0000 38B5     		push	{r3, r4, r5, lr}
 231              	.LCFI2:
 232              		.cfi_def_cfa_offset 16
 233              		.cfi_offset 3, -16
 234              		.cfi_offset 4, -12
 235              		.cfi_offset 5, -8
 236              		.cfi_offset 14, -4
 237              		.loc 1 43 0
 238 0002 0446     		mov	r4, r0
 239              		.loc 1 41 0
 240 0004 0D46     		mov	r5, r1
 241              		.loc 1 43 0
 242 0006 98B1     		cbz	r0, .L11
 243              		.loc 1 44 0
 244 0008 2860     		str	r0, [r5, #0]
 245              	.LVL24:
 246              	.L12:
 247              		.loc 1 50 0
 248 000a 0C49     		ldr	r1, .L22
 249              	.LVL25:
 250 000c 2046     		mov	r0, r4
 251              	.LVL26:
 252 000e FFF7FEFF 		bl	strspn
 253              	.LVL27:
 254 0012 2418     		adds	r4, r4, r0
 255              	.LVL28:
 256              		.loc 1 51 0
 257 0014 2046     		mov	r0, r4
 258 0016 2021     		movs	r1, #32
 259 0018 FFF7FEFF 		bl	strchr
 260              	.LVL29:
 261 001c 2860     		str	r0, [r5, #0]
 262              		.loc 1 52 0
 263 001e 18B1     		cbz	r0, .L14
 264              		.loc 1 53 0
 265 0020 0023     		movs	r3, #0
 266 0022 00F8013B 		strb	r3, [r0], #1
 267 0026 2860     		str	r0, [r5, #0]
 268              	.L14:
 269              		.loc 1 55 0
 270 0028 2078     		ldrb	r0, [r4, #0]	@ zero_extendqisi2
 271 002a 20B1     		cbz	r0, .L15
 272              		.loc 1 56 0
 273 002c 2046     		mov	r0, r4
 274 002e 38BD     		pop	{r3, r4, r5, pc}
 275              	.LVL30:
 276              	.L11:
 277              		.loc 1 45 0
 278 0030 0C68     		ldr	r4, [r1, #0]
 279              	.LVL31:
 280              		.loc 1 47 0
 281 0032 002C     		cmp	r4, #0
 282 0034 E9D1     		bne	.L12
 283              	.LVL32:
 284              	.L15:
ARM GAS  C:\Users\DNIEL~1\AppData\Local\Temp\cc4acLj8.s 			page 6


 285              		.loc 1 48 0
 286 0036 0024     		movs	r4, #0
 287              	.LVL33:
 288              		.loc 1 56 0
 289 0038 2046     		mov	r0, r4
 290 003a 38BD     		pop	{r3, r4, r5, pc}
 291              	.L23:
 292              		.align	2
 293              	.L22:
 294 003c 00000000 		.word	.LANCHOR0
 295              		.cfi_endproc
 296              	.LFE131:
 297              		.size	_strtok.constprop.2, .-_strtok.constprop.2
 298              		.section	.text.shellInit,"ax",%progbits
 299              		.align	2
 300              		.p2align 4,,15
 301              		.global	shellInit
 302              		.thumb
 303              		.thumb_func
 304              		.type	shellInit, %function
 305              	shellInit:
 306              	.LFB125:
 307              		.loc 1 208 0
 308              		.cfi_startproc
 309              		@ args = 0, pretend = 0, frame = 0
 310              		@ frame_needed = 0, uses_anonymous_args = 0
 311              		@ link register save eliminated.
 312              		.loc 1 210 0
 313 0000 40F20003 		movw	r3, #:lower16:.LANCHOR1
 314 0004 C0F20003 		movt	r3, #:upper16:.LANCHOR1
 315 0008 1B60     		str	r3, [r3, #0]
 316 000a 7047     		bx	lr
 317              		.cfi_endproc
 318              	.LFE125:
 319              		.size	shellInit, .-shellInit
 320 000c AFF30080 		.section	.text.shellCreate,"ax",%progbits
 321              		.align	2
 322              		.p2align 4,,15
 323              		.global	shellCreate
 324              		.thumb
 325              		.thumb_func
 326              		.type	shellCreate, %function
 327              	shellCreate:
 328              	.LFB126:
 329              		.loc 1 224 0
 330              		.cfi_startproc
 331              		@ args = 0, pretend = 0, frame = 0
 332              		@ frame_needed = 0, uses_anonymous_args = 0
 333              	.LVL34:
 334 0000 00B5     		push	{lr}
 335              	.LCFI3:
 336              		.cfi_def_cfa_offset 4
 337              		.cfi_offset 14, -4
 338 0002 83B0     		sub	sp, sp, #12
 339              	.LCFI4:
 340              		.cfi_def_cfa_offset 16
 341              		.loc 1 226 0
ARM GAS  C:\Users\DNIEL~1\AppData\Local\Temp\cc4acLj8.s 			page 7


 342 0004 40F20003 		movw	r3, #:lower16:shell_thread
 343 0008 0090     		str	r0, [sp, #0]
 344 000a C0F20003 		movt	r3, #:upper16:shell_thread
 345 000e 0020     		movs	r0, #0
 346              	.LVL35:
 347 0010 FFF7FEFF 		bl	chThdCreateFromHeap
 348              	.LVL36:
 349              		.loc 1 227 0
 350 0014 03B0     		add	sp, sp, #12
 351 0016 00BD     		pop	{pc}
 352              		.cfi_endproc
 353              	.LFE126:
 354              		.size	shellCreate, .-shellCreate
 355 0018 AFF30080 		.section	.text.shellCreateStatic,"ax",%progbits
 355      AFF30080 
 356              		.align	2
 357              		.p2align 4,,15
 358              		.global	shellCreateStatic
 359              		.thumb
 360              		.thumb_func
 361              		.type	shellCreateStatic, %function
 362              	shellCreateStatic:
 363              	.LFB127:
 364              		.loc 1 240 0
 365              		.cfi_startproc
 366              		@ args = 0, pretend = 0, frame = 0
 367              		@ frame_needed = 0, uses_anonymous_args = 0
 368              	.LVL37:
 369 0000 00B5     		push	{lr}
 370              	.LCFI5:
 371              		.cfi_def_cfa_offset 4
 372              		.cfi_offset 14, -4
 373 0002 83B0     		sub	sp, sp, #12
 374              	.LCFI6:
 375              		.cfi_def_cfa_offset 16
 376              		.loc 1 242 0
 377 0004 0090     		str	r0, [sp, #0]
 378 0006 0846     		mov	r0, r1
 379              	.LVL38:
 380 0008 1146     		mov	r1, r2
 381              	.LVL39:
 382 000a 1A46     		mov	r2, r3
 383              	.LVL40:
 384 000c 40F20003 		movw	r3, #:lower16:shell_thread
 385              	.LVL41:
 386 0010 C0F20003 		movt	r3, #:upper16:shell_thread
 387 0014 FFF7FEFF 		bl	chThdCreateStatic
 388              	.LVL42:
 389              		.loc 1 243 0
 390 0018 03B0     		add	sp, sp, #12
 391 001a 00BD     		pop	{pc}
 392              		.cfi_endproc
 393              	.LFE127:
 394              		.size	shellCreateStatic, .-shellCreateStatic
 395 001c AFF30080 		.section	.text.shellGetLine,"ax",%progbits
 396              		.align	2
 397              		.p2align 4,,15
ARM GAS  C:\Users\DNIEL~1\AppData\Local\Temp\cc4acLj8.s 			page 8


 398              		.global	shellGetLine
 399              		.thumb
 400              		.thumb_func
 401              		.type	shellGetLine, %function
 402              	shellGetLine:
 403              	.LFB128:
 404              		.loc 1 255 0
 405              		.cfi_startproc
 406              		@ args = 0, pretend = 0, frame = 8
 407              		@ frame_needed = 0, uses_anonymous_args = 0
 408              	.LVL43:
 409 0000 F0B5     		push	{r4, r5, r6, r7, lr}
 410              	.LCFI7:
 411              		.cfi_def_cfa_offset 20
 412              		.cfi_offset 4, -20
 413              		.cfi_offset 5, -16
 414              		.cfi_offset 6, -12
 415              		.cfi_offset 7, -8
 416              		.cfi_offset 14, -4
 417              	.LBB24:
 418              		.loc 1 283 0
 419 0002 013A     		subs	r2, r2, #1
 420              	.LVL44:
 421              	.LBE24:
 422              		.loc 1 255 0
 423 0004 83B0     		sub	sp, sp, #12
 424              	.LCFI8:
 425              		.cfi_def_cfa_offset 32
 426              		.loc 1 255 0
 427 0006 0E46     		mov	r6, r1
 428              	.LVL45:
 429 0008 0446     		mov	r4, r0
 430              		.loc 1 256 0
 431 000a 0D46     		mov	r5, r1
 432              	.LBB25:
 433              		.loc 1 283 0
 434 000c 8F18     		adds	r7, r1, r2
 435              	.LVL46:
 436              	.L39:
 437              		.loc 1 261 0
 438 000e 2368     		ldr	r3, [r4, #0]
 439 0010 0122     		movs	r2, #1
 440 0012 0DF10701 		add	r1, sp, #7
 441 0016 5B68     		ldr	r3, [r3, #4]
 442 0018 2046     		mov	r0, r4
 443 001a 9847     		blx	r3
 444              	.LVL47:
 445 001c 38B3     		cbz	r0, .L36
 446              		.loc 1 263 0
 447 001e 9DF80710 		ldrb	r1, [sp, #7]	@ zero_extendqisi2
 448 0022 0429     		cmp	r1, #4
 449 0024 26D0     		beq	.L40
 450              		.loc 1 267 0
 451 0026 0829     		cmp	r1, #8
 452 0028 0ED0     		beq	.L41
 453              		.loc 1 276 0
 454 002a 0D29     		cmp	r1, #13
ARM GAS  C:\Users\DNIEL~1\AppData\Local\Temp\cc4acLj8.s 			page 9


 455 002c 28D0     		beq	.L42
 456              		.loc 1 281 0
 457 002e 1F29     		cmp	r1, #31
 458 0030 EDD9     		bls	.L39
 459              		.loc 1 283 0
 460 0032 BD42     		cmp	r5, r7
 461 0034 EBD2     		bcs	.L39
 462              		.loc 1 284 0
 463 0036 2268     		ldr	r2, [r4, #0]
 464 0038 2046     		mov	r0, r4
 465 003a 9368     		ldr	r3, [r2, #8]
 466 003c 9847     		blx	r3
 467              	.LVL48:
 468              		.loc 1 285 0
 469 003e 9DF80700 		ldrb	r0, [sp, #7]	@ zero_extendqisi2
 470              	.LVL49:
 471 0042 05F8010B 		strb	r0, [r5], #1
 472              	.LVL50:
 473 0046 E2E7     		b	.L39
 474              	.LVL51:
 475              	.L41:
 476              		.loc 1 268 0
 477 0048 B542     		cmp	r5, r6
 478              		.loc 1 269 0
 479 004a 2046     		mov	r0, r4
 480              		.loc 1 268 0
 481 004c DFD0     		beq	.L39
 482              	.LVL52:
 483              		.loc 1 269 0
 484 004e 2268     		ldr	r2, [r4, #0]
 485 0050 9368     		ldr	r3, [r2, #8]
 486 0052 9847     		blx	r3
 487              	.LVL53:
 488              		.loc 1 270 0
 489 0054 2068     		ldr	r0, [r4, #0]
 490 0056 2021     		movs	r1, #32
 491 0058 8268     		ldr	r2, [r0, #8]
 492 005a 2046     		mov	r0, r4
 493 005c 9047     		blx	r2
 494              	.LVL54:
 495              		.loc 1 271 0
 496 005e 2368     		ldr	r3, [r4, #0]
 497 0060 9DF80710 		ldrb	r1, [sp, #7]	@ zero_extendqisi2
 498 0064 9A68     		ldr	r2, [r3, #8]
 499 0066 2046     		mov	r0, r4
 500 0068 9047     		blx	r2
 501              	.LVL55:
 502              		.loc 1 272 0
 503 006a 013D     		subs	r5, r5, #1
 504              	.LVL56:
 505 006c CFE7     		b	.L39
 506              	.L36:
 507              		.loc 1 262 0
 508 006e 0120     		movs	r0, #1
 509              	.L29:
 510              	.LBE25:
 511              		.loc 1 288 0
ARM GAS  C:\Users\DNIEL~1\AppData\Local\Temp\cc4acLj8.s 			page 10


 512 0070 03B0     		add	sp, sp, #12
 513 0072 F0BD     		pop	{r4, r5, r6, r7, pc}
 514              	.L40:
 515              	.LBB26:
 516              		.loc 1 264 0
 517 0074 2046     		mov	r0, r4
 518 0076 0649     		ldr	r1, .L43
 519 0078 FFF7FEFF 		bl	chprintf
 520              	.LVL57:
 521              		.loc 1 265 0
 522 007c 0120     		movs	r0, #1
 523 007e F7E7     		b	.L29
 524              	.L42:
 525              		.loc 1 277 0
 526 0080 2046     		mov	r0, r4
 527 0082 0449     		ldr	r1, .L43+4
 528 0084 FFF7FEFF 		bl	chprintf
 529              	.LVL58:
 530              		.loc 1 278 0
 531 0088 0020     		movs	r0, #0
 532 008a 2870     		strb	r0, [r5, #0]
 533 008c F0E7     		b	.L29
 534              	.L44:
 535 008e 00BF     		.align	2
 536              	.L43:
 537 0090 90010000 		.word	.LC23
 538 0094 94010000 		.word	.LC24
 539              	.LBE26:
 540              		.cfi_endproc
 541              	.LFE128:
 542              		.size	shellGetLine, .-shellGetLine
 543 0098 AFF30080 		.section	.text.shell_thread,"ax",%progbits
 543      AFF30080 
 544              		.align	2
 545              		.p2align 4,,15
 546              		.thumb
 547              		.thumb_func
 548              		.type	shell_thread, %function
 549              	shell_thread:
 550              	.LFB124:
 551              		.loc 1 143 0
 552              		.cfi_startproc
 553              		@ args = 0, pretend = 0, frame = 88
 554              		@ frame_needed = 0, uses_anonymous_args = 0
 555              	.LVL59:
 556 0000 2DE9F043 		push	{r4, r5, r6, r7, r8, r9, lr}
 557              	.LCFI9:
 558              		.cfi_def_cfa_offset 28
 559              		.cfi_offset 4, -28
 560              		.cfi_offset 5, -24
 561              		.cfi_offset 6, -20
 562              		.cfi_offset 7, -16
 563              		.cfi_offset 8, -12
 564              		.cfi_offset 9, -8
 565              		.cfi_offset 14, -4
 566              		.loc 1 151 0
 567 0004 6A4B     		ldr	r3, .L99
ARM GAS  C:\Users\DNIEL~1\AppData\Local\Temp\cc4acLj8.s 			page 11


 568              		.loc 1 146 0
 569 0006 0568     		ldr	r5, [r0, #0]
 570              	.LVL60:
 571              		.loc 1 151 0
 572 0008 9C69     		ldr	r4, [r3, #24]
 573 000a 6A4A     		ldr	r2, .L99+4
 574              		.loc 1 147 0
 575 000c 4768     		ldr	r7, [r0, #4]
 576              	.LVL61:
 577              		.loc 1 152 0
 578 000e 6A49     		ldr	r1, .L99+8
 579              		.loc 1 151 0
 580 0010 A261     		str	r2, [r4, #24]
 581              		.loc 1 143 0
 582 0012 97B0     		sub	sp, sp, #92
 583              	.LCFI10:
 584              		.cfi_def_cfa_offset 120
 585              		.loc 1 152 0
 586 0014 2846     		mov	r0, r5
 587              	.LVL62:
 588 0016 FFF7FEFF 		bl	chprintf
 589              	.LVL63:
 590              	.LBB40:
 591              	.LBB41:
 592              		.loc 1 65 0
 593 001a DFF8C081 		ldr	r8, .L99+44
 594              	.L94:
 595              	.LBE41:
 596              	.LBE40:
 597              		.loc 1 154 0
 598 001e 2846     		mov	r0, r5
 599 0020 6649     		ldr	r1, .L99+12
 600 0022 FFF7FEFF 		bl	chprintf
 601              	.LVL64:
 602              		.loc 1 155 0
 603 0026 2846     		mov	r0, r5
 604 0028 06A9     		add	r1, sp, #24
 605 002a 4022     		movs	r2, #64
 606 002c FFF7FEFF 		bl	shellGetLine
 607              	.LVL65:
 608 0030 0446     		mov	r4, r0
 609 0032 0028     		cmp	r0, #0
 610 0034 30D1     		bne	.L97
 611              		.loc 1 159 0
 612 0036 6946     		mov	r1, sp
 613 0038 06A8     		add	r0, sp, #24
 614 003a FFF7FEFF 		bl	_strtok.constprop.2
 615              	.LVL66:
 616              		.loc 1 162 0
 617 003e 6946     		mov	r1, sp
 618              		.loc 1 159 0
 619 0040 0646     		mov	r6, r0
 620              	.LVL67:
 621              		.loc 1 162 0
 622 0042 2046     		mov	r0, r4
 623              	.LVL68:
 624 0044 FFF7FEFF 		bl	_strtok.constprop.2
ARM GAS  C:\Users\DNIEL~1\AppData\Local\Temp\cc4acLj8.s 			page 12


 625              	.LVL69:
 626 0048 0346     		mov	r3, r0
 627 004a 0028     		cmp	r0, #0
 628 004c 36D0     		beq	.L68
 629 004e 2046     		mov	r0, r4
 630              	.LVL70:
 631 0050 6946     		mov	r1, sp
 632              		.loc 1 168 0
 633 0052 0193     		str	r3, [sp, #4]
 634              	.LVL71:
 635              		.loc 1 162 0
 636 0054 FFF7FEFF 		bl	_strtok.constprop.2
 637              	.LVL72:
 638 0058 0246     		mov	r2, r0
 639 005a 0028     		cmp	r0, #0
 640 005c 50D0     		beq	.L69
 641 005e 2046     		mov	r0, r4
 642              	.LVL73:
 643 0060 6946     		mov	r1, sp
 644              		.loc 1 168 0
 645 0062 0292     		str	r2, [sp, #8]
 646              	.LVL74:
 647              		.loc 1 162 0
 648 0064 FFF7FEFF 		bl	_strtok.constprop.2
 649              	.LVL75:
 650 0068 0346     		mov	r3, r0
 651 006a 0028     		cmp	r0, #0
 652 006c 4AD0     		beq	.L70
 653 006e 2046     		mov	r0, r4
 654              	.LVL76:
 655 0070 6946     		mov	r1, sp
 656              		.loc 1 168 0
 657 0072 0393     		str	r3, [sp, #12]
 658              	.LVL77:
 659              		.loc 1 162 0
 660 0074 FFF7FEFF 		bl	_strtok.constprop.2
 661              	.LVL78:
 662 0078 0246     		mov	r2, r0
 663 007a 0028     		cmp	r0, #0
 664 007c 44D0     		beq	.L71
 665 007e 2046     		mov	r0, r4
 666              	.LVL79:
 667 0080 6946     		mov	r1, sp
 668              		.loc 1 168 0
 669 0082 0492     		str	r2, [sp, #16]
 670              	.LVL80:
 671              		.loc 1 162 0
 672 0084 FFF7FEFF 		bl	_strtok.constprop.2
 673              	.LVL81:
 674 0088 0028     		cmp	r0, #0
 675 008a 3FD0     		beq	.L72
 676              		.loc 1 164 0
 677 008c 2846     		mov	r0, r5
 678              	.LVL82:
 679 008e 4C49     		ldr	r1, .L99+16
 680 0090 FFF7FEFF 		bl	chprintf
 681              	.LVL83:
ARM GAS  C:\Users\DNIEL~1\AppData\Local\Temp\cc4acLj8.s 			page 13


 682              		.loc 1 170 0
 683 0094 0594     		str	r4, [sp, #20]
 684 0096 C2E7     		b	.L94
 685              	.LVL84:
 686              	.L97:
 687              		.loc 1 156 0
 688 0098 2846     		mov	r0, r5
 689 009a 4A49     		ldr	r1, .L99+20
 690 009c FFF7FEFF 		bl	chprintf
 691              	.LVL85:
 692              	.L48:
 693              	.LBB43:
 694              		.loc 1 199 0
 695 00a0 2023     		movs	r3, #32
 696              	.LVL86:
 697              	@ 199 "../../../ChibiOS/os/various/shell.c" 1
 698 00a2 83F31188 		msr     BASEPRI, r3
 699              	@ 0 "" 2
 700              	.LVL87:
 701              		.thumb
 702              	.LBE43:
 703              		.loc 1 200 0
 704 00a6 0021     		movs	r1, #0
 705 00a8 4748     		ldr	r0, .L99+24
 706 00aa FFF7FEFF 		bl	chEvtBroadcastFlagsI
 707              	.LVL88:
 708              		.loc 1 201 0
 709 00ae 0020     		movs	r0, #0
 710 00b0 FFF7FEFF 		bl	chThdExitS
 711              	.LVL89:
 712              		.loc 1 203 0
 713 00b4 0020     		movs	r0, #0
 714 00b6 17B0     		add	sp, sp, #92
 715 00b8 BDE8F083 		pop	{r4, r5, r6, r7, r8, r9, pc}
 716              	.LVL90:
 717              	.L68:
 718              		.loc 1 161 0
 719 00bc 0446     		mov	r4, r0
 720              	.LVL91:
 721              	.L49:
 722              		.loc 1 170 0
 723 00be 16A8     		add	r0, sp, #88
 724              	.LVL92:
 725 00c0 00EB8401 		add	r1, r0, r4, lsl #2
 726 00c4 0023     		movs	r3, #0
 727 00c6 41F8543C 		str	r3, [r1, #-84]
 728              		.loc 1 171 0
 729 00ca 002E     		cmp	r6, #0
 730 00cc A7D0     		beq	.L94
 731              		.loc 1 172 0
 732 00ce 3046     		mov	r0, r6
 733 00d0 3E49     		ldr	r1, .L99+28
 734 00d2 FFF7FEFF 		bl	strcasecmp
 735              	.LVL93:
 736 00d6 38B9     		cbnz	r0, .L51
 737              		.loc 1 173 0
 738 00d8 002C     		cmp	r4, #0
ARM GAS  C:\Users\DNIEL~1\AppData\Local\Temp\cc4acLj8.s 			page 14


 739 00da E1D0     		beq	.L48
 740              	.LVL94:
 741              	.LBB44:
 742              	.LBB45:
 743              		.loc 1 60 0
 744 00dc 2846     		mov	r0, r5
 745 00de 3C49     		ldr	r1, .L99+32
 746 00e0 3A4A     		ldr	r2, .L99+28
 747 00e2 FFF7FEFF 		bl	chprintf
 748              	.LVL95:
 749              	.LBE45:
 750              	.LBE44:
 751              		.loc 1 175 0
 752 00e6 9AE7     		b	.L94
 753              	.LVL96:
 754              	.L51:
 755              		.loc 1 179 0
 756 00e8 3046     		mov	r0, r6
 757 00ea 3A49     		ldr	r1, .L99+36
 758 00ec FFF7FEFF 		bl	strcasecmp
 759              	.LVL97:
 760 00f0 70B9     		cbnz	r0, .L98
 761              	.LBB46:
 762              	.LBB47:
 763              		.loc 1 60 0
 764 00f2 2846     		mov	r0, r5
 765              	.LBE47:
 766              	.LBE46:
 767              		.loc 1 180 0
 768 00f4 1CB3     		cbz	r4, .L56
 769              	.LVL98:
 770              	.LBB49:
 771              	.LBB48:
 772              		.loc 1 60 0
 773 00f6 3649     		ldr	r1, .L99+32
 774 00f8 364A     		ldr	r2, .L99+36
 775 00fa FFF7FEFF 		bl	chprintf
 776              	.LVL99:
 777              	.LBE48:
 778              	.LBE49:
 779              		.loc 1 182 0
 780 00fe 8EE7     		b	.L94
 781              	.LVL100:
 782              	.L69:
 783              		.loc 1 168 0
 784 0100 0124     		movs	r4, #1
 785 0102 DCE7     		b	.L49
 786              	.LVL101:
 787              	.L70:
 788 0104 0224     		movs	r4, #2
 789 0106 DAE7     		b	.L49
 790              	.LVL102:
 791              	.L71:
 792 0108 0324     		movs	r4, #3
 793 010a D8E7     		b	.L49
 794              	.LVL103:
 795              	.L72:
ARM GAS  C:\Users\DNIEL~1\AppData\Local\Temp\cc4acLj8.s 			page 15


 796              		.loc 1 162 0
 797 010c 0424     		movs	r4, #4
 798 010e D6E7     		b	.L49
 799              	.LVL104:
 800              	.L98:
 801              	.LBB50:
 802              	.LBB51:
 803              		.loc 1 125 0
 804 0110 D8F80000 		ldr	r0, [r8, #0]
 805 0114 0028     		cmp	r0, #0
 806 0116 32D0     		beq	.L55
 807 0118 DFF8C090 		ldr	r9, .L99+44
 808 011c 03E0     		b	.L64
 809              	.LVL105:
 810              	.L63:
 811 011e 59F8080F 		ldr	r0, [r9, #8]!
 812              	.LVL106:
 813 0122 0028     		cmp	r0, #0
 814 0124 2BD0     		beq	.L55
 815              	.LVL107:
 816              	.L64:
 817              		.loc 1 126 0
 818 0126 3146     		mov	r1, r6
 819 0128 FFF7FEFF 		bl	strcasecmp
 820              	.LVL108:
 821 012c 0028     		cmp	r0, #0
 822 012e F6D1     		bne	.L63
 823              	.LVL109:
 824              	.L96:
 825              	.LBE51:
 826              	.LBE50:
 827              	.LBB52:
 828              	.LBB53:
 829              		.loc 1 127 0
 830 0130 D9F80430 		ldr	r3, [r9, #4]
 831 0134 2846     		mov	r0, r5
 832 0136 2146     		mov	r1, r4
 833 0138 01AA     		add	r2, sp, #4
 834 013a 9847     		blx	r3
 835              	.LVL110:
 836 013c 6FE7     		b	.L94
 837              	.LVL111:
 838              	.L56:
 839              	.LBE53:
 840              	.LBE52:
 841              		.loc 1 184 0
 842 013e 2649     		ldr	r1, .L99+40
 843 0140 FFF7FEFF 		bl	chprintf
 844              	.LVL112:
 845              	.LBB55:
 846              	.LBB42:
 847              		.loc 1 65 0
 848 0144 D8F80020 		ldr	r2, [r8, #0]
 849 0148 42B1     		cbz	r2, .L61
 850 014a 244C     		ldr	r4, .L99+44
 851              	.LVL113:
 852              	.L60:
ARM GAS  C:\Users\DNIEL~1\AppData\Local\Temp\cc4acLj8.s 			page 16


 853              		.loc 1 66 0
 854 014c 2846     		mov	r0, r5
 855 014e 2449     		ldr	r1, .L99+48
 856 0150 FFF7FEFF 		bl	chprintf
 857              	.LVL114:
 858              		.loc 1 65 0
 859 0154 54F8082F 		ldr	r2, [r4, #8]!
 860 0158 002A     		cmp	r2, #0
 861 015a F7D1     		bne	.L60
 862              	.L61:
 863              	.LBE42:
 864              	.LBE55:
 865              		.loc 1 186 0
 866 015c 57B1     		cbz	r7, .L59
 867              	.LVL115:
 868              	.LBB56:
 869              	.LBB57:
 870              		.loc 1 65 0
 871 015e 3A68     		ldr	r2, [r7, #0]
 872 0160 42B1     		cbz	r2, .L59
 873 0162 3C46     		mov	r4, r7
 874              	.LVL116:
 875              	.L62:
 876              		.loc 1 66 0
 877 0164 2846     		mov	r0, r5
 878 0166 1E49     		ldr	r1, .L99+48
 879 0168 FFF7FEFF 		bl	chprintf
 880              	.LVL117:
 881              		.loc 1 65 0
 882 016c 54F8082F 		ldr	r2, [r4, #8]!
 883 0170 002A     		cmp	r2, #0
 884 0172 F7D1     		bne	.L62
 885              	.L59:
 886              	.LBE57:
 887              	.LBE56:
 888              		.loc 1 188 0
 889 0174 2846     		mov	r0, r5
 890 0176 1B49     		ldr	r1, .L99+52
 891 0178 FFF7FEFF 		bl	chprintf
 892              	.LVL118:
 893 017c 4FE7     		b	.L94
 894              	.LVL119:
 895              	.L55:
 896              		.loc 1 190 0
 897 017e 67B1     		cbz	r7, .L67
 898              	.LVL120:
 899              	.LBB58:
 900              	.LBB54:
 901              		.loc 1 125 0
 902 0180 3868     		ldr	r0, [r7, #0]
 903 0182 50B1     		cbz	r0, .L67
 904 0184 B946     		mov	r9, r7
 905 0186 02E0     		b	.L66
 906              	.LVL121:
 907              	.L65:
 908 0188 59F8080F 		ldr	r0, [r9, #8]!
 909              	.LVL122:
ARM GAS  C:\Users\DNIEL~1\AppData\Local\Temp\cc4acLj8.s 			page 17


 910 018c 28B1     		cbz	r0, .L67
 911              	.LVL123:
 912              	.L66:
 913              		.loc 1 126 0
 914 018e 3146     		mov	r1, r6
 915 0190 FFF7FEFF 		bl	strcasecmp
 916              	.LVL124:
 917 0194 0028     		cmp	r0, #0
 918 0196 F7D1     		bne	.L65
 919 0198 CAE7     		b	.L96
 920              	.LVL125:
 921              	.L67:
 922              	.LBE54:
 923              	.LBE58:
 924              		.loc 1 192 0
 925 019a 2846     		mov	r0, r5
 926 019c 1249     		ldr	r1, .L99+56
 927 019e 3246     		mov	r2, r6
 928 01a0 FFF7FEFF 		bl	chprintf
 929              	.LVL126:
 930              		.loc 1 193 0
 931 01a4 2846     		mov	r0, r5
 932 01a6 1149     		ldr	r1, .L99+60
 933 01a8 FFF7FEFF 		bl	chprintf
 934              	.LVL127:
 935 01ac 37E7     		b	.L94
 936              	.L100:
 937 01ae 00BF     		.align	2
 938              	.L99:
 939 01b0 00000000 		.word	rlist
 940 01b4 98010000 		.word	.LC25
 941 01b8 A0010000 		.word	.LC26
 942 01bc B8010000 		.word	.LC27
 943 01c0 CC010000 		.word	.LC29
 944 01c4 C0010000 		.word	.LC28
 945 01c8 00000000 		.word	.LANCHOR1
 946 01cc E4010000 		.word	.LC30
 947 01d0 00000000 		.word	.LC0
 948 01d4 EC010000 		.word	.LC31
 949 01d8 F4010000 		.word	.LC32
 950 01dc 00000000 		.word	.LANCHOR2
 951 01e0 0C020000 		.word	.LC33
 952 01e4 94010000 		.word	.LC24
 953 01e8 10020000 		.word	.LC34
 954 01ec 14020000 		.word	.LC35
 955              		.cfi_endproc
 956              	.LFE124:
 957              		.size	shell_thread, .-shell_thread
 958              		.global	shell_terminated
 959              		.section	.rodata
 960              		.align	2
 961              		.set	.LANCHOR0,. + 0
 962              	.LC22:
 963 0000 20003900 		.ascii	" \0009\000"
 964              		.section	.data.local_commands,"aw",%progbits
 965              		.align	2
 966              		.set	.LANCHOR2,. + 0
ARM GAS  C:\Users\DNIEL~1\AppData\Local\Temp\cc4acLj8.s 			page 18


 967              		.type	local_commands, %object
 968              		.size	local_commands, 24
 969              	local_commands:
 970 0000 1C000000 		.word	.LC3
 971 0004 00000000 		.word	cmd_info
 972 0008 0C000000 		.word	.LC1
 973 000c 00000000 		.word	cmd_systime
 974 0010 00000000 		.word	0
 975 0014 00000000 		.word	0
 976              		.section	.rodata.str1.4,"aMS",%progbits,1
 977              		.align	2
 978              	.LC0:
 979 0000 55736167 		.ascii	"Usage: %s\015\012\000"
 979      653A2025 
 979      730D0A00 
 980              	.LC1:
 981 000c 73797374 		.ascii	"systime\000"
 981      696D6500 
 982              	.LC2:
 983 0014 256C750D 		.ascii	"%lu\015\012\000"
 983      0A00
 984 001a 0000     		.space	2
 985              	.LC3:
 986 001c 696E666F 		.ascii	"info\000"
 986      00
 987 0021 000000   		.space	3
 988              	.LC4:
 989 0024 4B65726E 		.ascii	"Kernel:       %s\015\012\000"
 989      656C3A20 
 989      20202020 
 989      20202573 
 989      0D0A00
 990 0037 00       		.space	1
 991              	.LC5:
 992 0038 322E352E 		.ascii	"2.5.1unstable\000"
 992      31756E73 
 992      7461626C 
 992      6500
 993 0046 0000     		.space	2
 994              	.LC6:
 995 0048 436F6D70 		.ascii	"Compiler:     %s\015\012\000"
 995      696C6572 
 995      3A202020 
 995      20202573 
 995      0D0A00
 996 005b 00       		.space	1
 997              	.LC7:
 998 005c 47434320 		.ascii	"GCC 4.7.4 20140401 (release) [ARM/embedded-4_7-bran"
 998      342E372E 
 998      34203230 
 998      31343034 
 998      30312028 
 999 008f 63682072 		.ascii	"ch revision 209195]\000"
 999      65766973 
 999      696F6E20 
 999      32303931 
 999      39355D00 
ARM GAS  C:\Users\DNIEL~1\AppData\Local\Temp\cc4acLj8.s 			page 19


 1000 00a3 00       		.space	1
 1001              	.LC8:
 1002 00a4 41726368 		.ascii	"Architecture: %s\015\012\000"
 1002      69746563 
 1002      74757265 
 1002      3A202573 
 1002      0D0A00
 1003 00b7 00       		.space	1
 1004              	.LC9:
 1005 00b8 41524D76 		.ascii	"ARMv7-ME\000"
 1005      372D4D45 
 1005      00
 1006 00c1 000000   		.space	3
 1007              	.LC10:
 1008 00c4 436F7265 		.ascii	"Core Variant: %s\015\012\000"
 1008      20566172 
 1008      69616E74 
 1008      3A202573 
 1008      0D0A00
 1009 00d7 00       		.space	1
 1010              	.LC11:
 1011 00d8 436F7274 		.ascii	"Cortex-M4\000"
 1011      65782D4D 
 1011      3400
 1012 00e2 0000     		.space	2
 1013              	.LC12:
 1014 00e4 506F7274 		.ascii	"Port Info:    %s\015\012\000"
 1014      20496E66 
 1014      6F3A2020 
 1014      20202573 
 1014      0D0A00
 1015 00f7 00       		.space	1
 1016              	.LC13:
 1017 00f8 41647661 		.ascii	"Advanced kernel mode\000"
 1017      6E636564 
 1017      206B6572 
 1017      6E656C20 
 1017      6D6F6465 
 1018 010d 000000   		.space	3
 1019              	.LC14:
 1020 0110 506C6174 		.ascii	"Platform:     %s\015\012\000"
 1020      666F726D 
 1020      3A202020 
 1020      20202573 
 1020      0D0A00
 1021 0123 00       		.space	1
 1022              	.LC15:
 1023 0124 53544D33 		.ascii	"STM32F4xx High Performance\000"
 1023      32463478 
 1023      78204869 
 1023      67682050 
 1023      6572666F 
 1024 013f 00       		.space	1
 1025              	.LC16:
 1026 0140 426F6172 		.ascii	"Board:        %s\015\012\000"
 1026      643A2020 
 1026      20202020 
ARM GAS  C:\Users\DNIEL~1\AppData\Local\Temp\cc4acLj8.s 			page 20


 1026      20202573 
 1026      0D0A00
 1027 0153 00       		.space	1
 1028              	.LC17:
 1029 0154 536D6172 		.ascii	"Smarty\000"
 1029      747900
 1030 015b 00       		.space	1
 1031              	.LC18:
 1032 015c 4275696C 		.ascii	"Build time:   %s%s%s\015\012\000"
 1032      64207469 
 1032      6D653A20 
 1032      20202573 
 1032      25732573 
 1033 0173 00       		.space	1
 1034              	.LC19:
 1035 0174 4D617220 		.ascii	"Mar 18 2015\000"
 1035      31382032 
 1035      30313500 
 1036              	.LC20:
 1037 0180 202D2000 		.ascii	" - \000"
 1038              	.LC21:
 1039 0184 31363A34 		.ascii	"16:41:57\000"
 1039      313A3537 
 1039      00
 1040 018d 000000   		.space	3
 1041              	.LC23:
 1042 0190 5E4400   		.ascii	"^D\000"
 1043 0193 00       		.space	1
 1044              	.LC24:
 1045 0194 0D0A00   		.ascii	"\015\012\000"
 1046 0197 00       		.space	1
 1047              	.LC25:
 1048 0198 7368656C 		.ascii	"shell\000"
 1048      6C00
 1049 019e 0000     		.space	2
 1050              	.LC26:
 1051 01a0 0D0A4368 		.ascii	"\015\012ChibiOS/RT Shell\015\012\000"
 1051      6962694F 
 1051      532F5254 
 1051      20536865 
 1051      6C6C0D0A 
 1052 01b5 000000   		.space	3
 1053              	.LC27:
 1054 01b8 63683E20 		.ascii	"ch> \000"
 1054      00
 1055 01bd 000000   		.space	3
 1056              	.LC28:
 1057 01c0 0D0A6C6F 		.ascii	"\015\012logout\000"
 1057      676F7574 
 1057      00
 1058 01c9 000000   		.space	3
 1059              	.LC29:
 1060 01cc 746F6F20 		.ascii	"too many arguments\015\012\000"
 1060      6D616E79 
 1060      20617267 
 1060      756D656E 
 1060      74730D0A 
ARM GAS  C:\Users\DNIEL~1\AppData\Local\Temp\cc4acLj8.s 			page 21


 1061 01e1 000000   		.space	3
 1062              	.LC30:
 1063 01e4 65786974 		.ascii	"exit\000"
 1063      00
 1064 01e9 000000   		.space	3
 1065              	.LC31:
 1066 01ec 68656C70 		.ascii	"help\000"
 1066      00
 1067 01f1 000000   		.space	3
 1068              	.LC32:
 1069 01f4 436F6D6D 		.ascii	"Commands: help exit \000"
 1069      616E6473 
 1069      3A206865 
 1069      6C702065 
 1069      78697420 
 1070 0209 000000   		.space	3
 1071              	.LC33:
 1072 020c 25732000 		.ascii	"%s \000"
 1073              	.LC34:
 1074 0210 257300   		.ascii	"%s\000"
 1075 0213 00       		.space	1
 1076              	.LC35:
 1077 0214 203F0D0A 		.ascii	" ?\015\012\000"
 1077      00
 1078 0219 000000   		.section	.bss.shell_terminated,"aw",%nobits
 1079              		.align	2
 1080              		.set	.LANCHOR1,. + 0
 1081              		.type	shell_terminated, %object
 1082              		.size	shell_terminated, 4
 1083              	shell_terminated:
 1084 0000 00000000 		.space	4
 1085              		.text
 1086              	.Letext0:
 1087              		.file 2 "c:\\chibistudio\\tools\\gnu tools arm embedded\\4.7 2014q2\\bin\\../lib/gcc/arm-none-eabi
 1088              		.file 3 "c:\\chibistudio\\tools\\gnu tools arm embedded\\4.7 2014q2\\bin\\../lib/gcc/arm-none-eabi
 1089              		.file 4 "../../../ChibiOS/os/ports/GCC/ARMCMx/chtypes.h"
 1090              		.file 5 "../../../ChibiOS/os/kernel/include/chlists.h"
 1091              		.file 6 "../../../ChibiOS/os/kernel/include/chthreads.h"
 1092              		.file 7 "../../../ChibiOS/os/ports/GCC/ARMCMx/chcore_v7m.h"
 1093              		.file 8 "../../../ChibiOS/os/kernel/include/chvt.h"
 1094              		.file 9 "../../../ChibiOS/os/kernel/include/chschd.h"
 1095              		.file 10 "../../../ChibiOS/os/kernel/include/chmtx.h"
 1096              		.file 11 "../../../ChibiOS/os/kernel/include/chevents.h"
 1097              		.file 12 "../../../ChibiOS/os/kernel/include/chmemcore.h"
 1098              		.file 13 "../../../ChibiOS/os/kernel/include/chheap.h"
 1099              		.file 14 "../../../ChibiOS/os/kernel/include/chstreams.h"
 1100              		.file 15 "../../../ChibiOS/os/various/shell.h"
 1101              		.file 16 "../../../ChibiOS/os/ports/common/ARMCMx/CMSIS/include/core_cm4.h"
 1102              		.file 17 "c:\\chibistudio\\tools\\gnu tools arm embedded\\4.7 2014q2\\bin\\../lib/gcc/arm-none-eab
 1103              		.file 18 "../../../ChibiOS/os/kernel/include/chdynamic.h"
 1104              		.file 19 "../../../ChibiOS/os/various/chprintf.h"
 1105              		.file 20 "<built-in>"