ARM GAS  C:\Users\DNIEL~1\AppData\Local\Temp\ccDJyHwx.s 			page 1


   1              		.syntax unified
   2              		.cpu cortex-m4
   3              		.fpu softvfp
   4              		.eabi_attribute 20, 1
   5              		.eabi_attribute 21, 1
   6              		.eabi_attribute 23, 3
   7              		.eabi_attribute 24, 1
   8              		.eabi_attribute 25, 1
   9              		.eabi_attribute 26, 1
  10              		.eabi_attribute 30, 2
  11              		.eabi_attribute 34, 1
  12              		.eabi_attribute 18, 4
  13              		.thumb
  14              		.file	"speed.c"
  15              		.text
  16              	.Ltext0:
  17              		.cfi_sections	.debug_frame
  18              		.section	.text.speedWheelPeriodCb,"ax",%progbits
  19              		.align	2
  20              		.p2align 4,,15
  21              		.thumb
  22              		.thumb_func
  23              		.type	speedWheelPeriodCb, %function
  24              	speedWheelPeriodCb:
  25              	.LFB118:
  26              		.file 1 "src/speed.c"
  27              		.loc 1 37 0
  28              		.cfi_startproc
  29              		@ args = 0, pretend = 0, frame = 0
  30              		@ frame_needed = 0, uses_anonymous_args = 0
  31              		@ link register save eliminated.
  32              	.LVL0:
  33              		.loc 1 38 0
  34 0000 4269     		ldr	r2, [r0, #20]
  35 0002 40F20003 		movw	r3, #:lower16:.LANCHOR0
  36 0006 1068     		ldr	r0, [r2, #0]
  37              	.LVL1:
  38 0008 C0F20003 		movt	r3, #:upper16:.LANCHOR0
  39 000c 411C     		adds	r1, r0, #1
  40 000e 1960     		str	r1, [r3, #0]
  41 0010 7047     		bx	lr
  42              		.cfi_endproc
  43              	.LFE118:
  44              		.size	speedWheelPeriodCb, .-speedWheelPeriodCb
  45 0012 00BFAFF3 		.section	.text.speedWheelPeriodNumber,"ax",%progbits
  45      0080AFF3 
  45      0080AFF3 
  45      0080
  46              		.align	2
  47              		.p2align 4,,15
  48              		.thumb
  49              		.thumb_func
  50              		.type	speedWheelPeriodNumber, %function
  51              	speedWheelPeriodNumber:
  52              	.LFB119:
  53              		.loc 1 41 0
  54              		.cfi_startproc
ARM GAS  C:\Users\DNIEL~1\AppData\Local\Temp\ccDJyHwx.s 			page 2


  55              		@ args = 0, pretend = 0, frame = 0
  56              		@ frame_needed = 0, uses_anonymous_args = 0
  57              		@ link register save eliminated.
  58              	.LVL2:
  59              		.loc 1 43 0
  60 0000 40F20003 		movw	r3, #:lower16:.LANCHOR1
  61 0004 C0F20003 		movt	r3, #:upper16:.LANCHOR1
  62 0008 1A68     		ldr	r2, [r3, #0]
  63 000a 501C     		adds	r0, r2, #1
  64              	.LVL3:
  65 000c 1860     		str	r0, [r3, #0]
  66 000e 7047     		bx	lr
  67              		.cfi_endproc
  68              	.LFE119:
  69              		.size	speedWheelPeriodNumber, .-speedWheelPeriodNumber
  70              		.section	.text.speedInit,"ax",%progbits
  71              		.align	2
  72              		.p2align 4,,15
  73              		.global	speedInit
  74              		.thumb
  75              		.thumb_func
  76              		.type	speedInit, %function
  77              	speedInit:
  78              	.LFB120:
  79              		.loc 1 46 0
  80              		.cfi_startproc
  81              		@ args = 0, pretend = 0, frame = 0
  82              		@ frame_needed = 0, uses_anonymous_args = 0
  83 0000 10B5     		push	{r4, lr}
  84              	.LCFI0:
  85              		.cfi_def_cfa_offset 8
  86              		.cfi_offset 4, -8
  87              		.cfi_offset 14, -4
  88              		.loc 1 51 0
  89 0002 40F20004 		movw	r4, #:lower16:ICUD1
  90 0006 C0F20004 		movt	r4, #:upper16:ICUD1
  91 000a 40F20001 		movw	r1, #:lower16:.LANCHOR2
  92 000e C0F20001 		movt	r1, #:upper16:.LANCHOR2
  93 0012 2046     		mov	r0, r4
  94 0014 FFF7FEFF 		bl	icuStart
  95              	.LVL4:
  96              		.loc 1 52 0
  97 0018 2046     		mov	r0, r4
  98 001a FFF7FEFF 		bl	icuEnable
  99              	.LVL5:
 100              		.loc 1 54 0
 101 001e 40F20003 		movw	r3, #:lower16:.LANCHOR1
 102 0022 C0F20003 		movt	r3, #:upper16:.LANCHOR1
 103 0026 0022     		movs	r2, #0
 104 0028 1A60     		str	r2, [r3, #0]
 105 002a 10BD     		pop	{r4, pc}
 106              		.cfi_endproc
 107              	.LFE120:
 108              		.size	speedInit, .-speedInit
 109              		.global	__aeabi_ui2d
 110              		.global	__aeabi_dadd
 111              		.global	__aeabi_ddiv
ARM GAS  C:\Users\DNIEL~1\AppData\Local\Temp\ccDJyHwx.s 			page 3


 112              		.global	__aeabi_dcmplt
 113 002c AFF30080 		.section	.text.speedCalc,"ax",%progbits
 114              		.align	2
 115              		.p2align 4,,15
 116              		.global	speedCalc
 117              		.thumb
 118              		.thumb_func
 119              		.type	speedCalc, %function
 120              	speedCalc:
 121              	.LFB121:
 122              		.loc 1 57 0
 123              		.cfi_startproc
 124              		@ args = 0, pretend = 0, frame = 0
 125              		@ frame_needed = 0, uses_anonymous_args = 0
 126 0000 2DE9F843 		push	{r3, r4, r5, r6, r7, r8, r9, lr}
 127              	.LCFI1:
 128              		.cfi_def_cfa_offset 32
 129              		.cfi_offset 3, -32
 130              		.cfi_offset 4, -28
 131              		.cfi_offset 5, -24
 132              		.cfi_offset 6, -20
 133              		.cfi_offset 7, -16
 134              		.cfi_offset 8, -12
 135              		.cfi_offset 9, -8
 136              		.cfi_offset 14, -4
 137              		.loc 1 61 0
 138 0004 244B     		ldr	r3, .L14
 139              		.loc 1 63 0
 140 0006 254D     		ldr	r5, .L14+4
 141              		.loc 1 61 0
 142 0008 1A68     		ldr	r2, [r3, #0]
 143 000a 254E     		ldr	r6, .L14+8
 144 000c 02EB4200 		add	r0, r2, r2, lsl #1
 145 0010 4FF40741 		mov	r1, #34560
 146 0014 0401     		lsls	r4, r0, #4
 147 0016 C0F29331 		movt	r1, 915
 148 001a B1FBF4F0 		udiv	r0, r1, r4
 149 001e FFF7FEFF 		bl	__aeabi_ui2d
 150              	.LVL6:
 151              		.loc 1 63 0
 152 0022 2F68     		ldr	r7, [r5, #0]
 153              		.loc 1 67 0
 154 0024 1F4B     		ldr	r3, .L14+12
 155              		.loc 1 63 0
 156 0026 7A1C     		adds	r2, r7, #1
 157              		.loc 1 64 0
 158 0028 2F2A     		cmp	r2, #47
 159              		.loc 1 65 0
 160 002a C8BF     		it	gt
 161 002c 0022     		movgt	r2, #0
 162              		.loc 1 61 0
 163 002e C6E90001 		strd	r0, [r6]
 164              		.loc 1 67 0
 165 0032 03EBC204 		add	r4, r3, r2, lsl #3
 166              		.loc 1 65 0
 167 0036 2A60     		str	r2, [r5, #0]
 168              		.loc 1 67 0
ARM GAS  C:\Users\DNIEL~1\AppData\Local\Temp\ccDJyHwx.s 			page 4


 169 0038 C4E90001 		strd	r0, [r4]
 170              	.LVL7:
 171 003c A3F10807 		sub	r7, r3, #8
 172              		.loc 1 57 0
 173 0040 03F5BC79 		add	r9, r3, #376
 174              		.loc 1 68 0
 175 0044 0024     		movs	r4, #0
 176 0046 0025     		movs	r5, #0
 177              	.LVL8:
 178              	.L7:
 179              		.loc 1 70 0 discriminator 2
 180 0048 D7E90223 		ldrd	r2, [r7, #8]
 181 004c 07F10808 		add	r8, r7, #8
 182 0050 2046     		mov	r0, r4
 183 0052 2946     		mov	r1, r5
 184 0054 FFF7FEFF 		bl	__aeabi_dadd
 185              	.LVL9:
 186 0058 D8E90223 		ldrd	r2, [r8, #8]
 187 005c FFF7FEFF 		bl	__aeabi_dadd
 188              	.LVL10:
 189 0060 1037     		adds	r7, r7, #16
 190              		.loc 1 69 0 discriminator 2
 191 0062 4F45     		cmp	r7, r9
 192              		.loc 1 70 0 discriminator 2
 193 0064 0446     		mov	r4, r0
 194              	.LVL11:
 195 0066 0D46     		mov	r5, r1
 196              	.LVL12:
 197              		.loc 1 69 0 discriminator 2
 198 0068 EED1     		bne	.L7
 199              		.loc 1 72 0
 200 006a 0023     		movs	r3, #0
 201 006c 0022     		movs	r2, #0
 202 006e C4F24803 		movt	r3, 16456
 203 0072 FFF7FEFF 		bl	__aeabi_ddiv
 204              	.LVL13:
 205              		.loc 1 73 0
 206 0076 0024     		movs	r4, #0
 207              	.LVL14:
 208 0078 0025     		movs	r5, #0
 209 007a 2246     		mov	r2, r4
 210 007c 2B46     		mov	r3, r5
 211              		.loc 1 72 0
 212 007e 8046     		mov	r8, r0
 213 0080 8946     		mov	r9, r1
 214              		.loc 1 73 0
 215 0082 FFF7FEFF 		bl	__aeabi_dcmplt
 216              	.LVL15:
 217 0086 18B9     		cbnz	r0, .L8
 218              		.loc 1 72 0
 219 0088 C6E90089 		strd	r8, [r6]
 220 008c BDE8F883 		pop	{r3, r4, r5, r6, r7, r8, r9, pc}
 221              	.L8:
 222              		.loc 1 74 0
 223 0090 C6E90045 		strd	r4, [r6]
 224 0094 BDE8F883 		pop	{r3, r4, r5, r6, r7, r8, r9, pc}
 225              	.L15:
ARM GAS  C:\Users\DNIEL~1\AppData\Local\Temp\ccDJyHwx.s 			page 5


 226              		.align	2
 227              	.L14:
 228 0098 00000000 		.word	.LANCHOR0
 229 009c 00000000 		.word	.LANCHOR4
 230 00a0 00000000 		.word	.LANCHOR3
 231 00a4 00000000 		.word	.LANCHOR5
 232              		.cfi_endproc
 233              	.LFE121:
 234              		.size	speedCalc, .-speedCalc
 235 00a8 AFF30080 		.section	.text.speedGetLastPeriod,"ax",%progbits
 235      AFF30080 
 236              		.align	2
 237              		.p2align 4,,15
 238              		.global	speedGetLastPeriod
 239              		.thumb
 240              		.thumb_func
 241              		.type	speedGetLastPeriod, %function
 242              	speedGetLastPeriod:
 243              	.LFB122:
 244              		.loc 1 85 0
 245              		.cfi_startproc
 246              		@ args = 0, pretend = 0, frame = 0
 247              		@ frame_needed = 0, uses_anonymous_args = 0
 248              		@ link register save eliminated.
 249              	.LBB2:
 250              		.loc 1 88 0
 251 0000 2023     		movs	r3, #32
 252              	.LVL16:
 253              	@ 88 "src/speed.c" 1
 254 0002 83F31188 		msr     BASEPRI, r3
 255              	@ 0 "" 2
 256              	.LVL17:
 257              		.thumb
 258              	.LBE2:
 259              		.loc 1 89 0
 260 0006 40F20002 		movw	r2, #:lower16:.LANCHOR0
 261 000a C0F20002 		movt	r2, #:upper16:.LANCHOR0
 262              	.LBB3:
 263              		.loc 1 90 0
 264 000e 0023     		movs	r3, #0
 265              	.LVL18:
 266              	.LBE3:
 267              		.loc 1 89 0
 268 0010 1068     		ldr	r0, [r2, #0]
 269              	.LVL19:
 270              	.LBB4:
 271              		.loc 1 90 0
 272              	@ 90 "src/speed.c" 1
 273 0012 83F31188 		msr     BASEPRI, r3
 274              	@ 0 "" 2
 275              	.LVL20:
 276              		.thumb
 277              	.LBE4:
 278              		.loc 1 92 0
 279 0016 7047     		bx	lr
 280              		.cfi_endproc
 281              	.LFE122:
ARM GAS  C:\Users\DNIEL~1\AppData\Local\Temp\ccDJyHwx.s 			page 6


 282              		.size	speedGetLastPeriod, .-speedGetLastPeriod
 283              		.section	.text.speedGetPeriodNumber,"ax",%progbits
 284              		.align	2
 285              		.p2align 4,,15
 286              		.global	speedGetPeriodNumber
 287              		.thumb
 288              		.thumb_func
 289              		.type	speedGetPeriodNumber, %function
 290              	speedGetPeriodNumber:
 291              	.LFB123:
 292              		.loc 1 94 0
 293              		.cfi_startproc
 294              		@ args = 0, pretend = 0, frame = 0
 295              		@ frame_needed = 0, uses_anonymous_args = 0
 296              		@ link register save eliminated.
 297              	.LBB5:
 298              		.loc 1 97 0
 299 0000 2023     		movs	r3, #32
 300              	.LVL21:
 301              	@ 97 "src/speed.c" 1
 302 0002 83F31188 		msr     BASEPRI, r3
 303              	@ 0 "" 2
 304              	.LVL22:
 305              		.thumb
 306              	.LBE5:
 307              		.loc 1 98 0
 308 0006 40F20002 		movw	r2, #:lower16:.LANCHOR1
 309 000a C0F20002 		movt	r2, #:upper16:.LANCHOR1
 310              	.LBB6:
 311              		.loc 1 99 0
 312 000e 0023     		movs	r3, #0
 313              	.LVL23:
 314              	.LBE6:
 315              		.loc 1 98 0
 316 0010 1068     		ldr	r0, [r2, #0]
 317              	.LVL24:
 318              	.LBB7:
 319              		.loc 1 99 0
 320              	@ 99 "src/speed.c" 1
 321 0012 83F31188 		msr     BASEPRI, r3
 322              	@ 0 "" 2
 323              	.LVL25:
 324              		.thumb
 325              	.LBE7:
 326              		.loc 1 101 0
 327 0016 7047     		bx	lr
 328              		.cfi_endproc
 329              	.LFE123:
 330              		.size	speedGetPeriodNumber, .-speedGetPeriodNumber
 331              		.global	__aeabi_d2uiz
 332 0018 AFF30080 		.section	.text.speedGetRpm,"ax",%progbits
 332      AFF30080 
 333              		.align	2
 334              		.p2align 4,,15
 335              		.global	speedGetRpm
 336              		.thumb
 337              		.thumb_func
ARM GAS  C:\Users\DNIEL~1\AppData\Local\Temp\ccDJyHwx.s 			page 7


 338              		.type	speedGetRpm, %function
 339              	speedGetRpm:
 340              	.LFB124:
 341              		.loc 1 103 0
 342              		.cfi_startproc
 343              		@ args = 0, pretend = 0, frame = 0
 344              		@ frame_needed = 0, uses_anonymous_args = 0
 345 0000 08B5     		push	{r3, lr}
 346              	.LCFI2:
 347              		.cfi_def_cfa_offset 8
 348              		.cfi_offset 3, -8
 349              		.cfi_offset 14, -4
 350              	.LBB8:
 351              		.loc 1 106 0
 352 0002 2023     		movs	r3, #32
 353              	.LVL26:
 354              	@ 106 "src/speed.c" 1
 355 0004 83F31188 		msr     BASEPRI, r3
 356              	@ 0 "" 2
 357              	.LVL27:
 358              		.thumb
 359              	.LBE8:
 360              		.loc 1 107 0
 361 0008 40F20003 		movw	r3, #:lower16:.LANCHOR3
 362              	.LVL28:
 363 000c C0F20003 		movt	r3, #:upper16:.LANCHOR3
 364 0010 D3E90001 		ldrd	r0, [r3]
 365 0014 FFF7FEFF 		bl	__aeabi_d2uiz
 366              	.LVL29:
 367              	.LBB9:
 368              		.loc 1 108 0
 369 0018 0023     		movs	r3, #0
 370              	.LVL30:
 371              	@ 108 "src/speed.c" 1
 372 001a 83F31188 		msr     BASEPRI, r3
 373              	@ 0 "" 2
 374              	.LVL31:
 375              		.thumb
 376              	.LBE9:
 377              		.loc 1 110 0
 378 001e 08BD     		pop	{r3, pc}
 379              		.cfi_endproc
 380              	.LFE124:
 381              		.size	speedGetRpm, .-speedGetRpm
 382              		.section	.text.cmd_speedvalues,"ax",%progbits
 383              		.align	2
 384              		.p2align 4,,15
 385              		.global	cmd_speedvalues
 386              		.thumb
 387              		.thumb_func
 388              		.type	cmd_speedvalues, %function
 389              	cmd_speedvalues:
 390              	.LFB125:
 391              		.loc 1 112 0
 392              		.cfi_startproc
 393              		@ args = 0, pretend = 0, frame = 0
 394              		@ frame_needed = 0, uses_anonymous_args = 0
ARM GAS  C:\Users\DNIEL~1\AppData\Local\Temp\ccDJyHwx.s 			page 8


 395              	.LVL32:
 396 0000 F8B5     		push	{r3, r4, r5, r6, r7, lr}
 397              	.LCFI3:
 398              		.cfi_def_cfa_offset 24
 399              		.cfi_offset 3, -24
 400              		.cfi_offset 4, -20
 401              		.cfi_offset 5, -16
 402              		.cfi_offset 6, -12
 403              		.cfi_offset 7, -8
 404              		.cfi_offset 14, -4
 405              		.loc 1 116 0
 406 0002 1749     		ldr	r1, .L22
 407              	.LVL33:
 408              		.loc 1 121 0
 409 0004 174F     		ldr	r7, .L22+4
 410              		.loc 1 122 0
 411 0006 184E     		ldr	r6, .L22+8
 412              		.loc 1 123 0
 413 0008 184D     		ldr	r5, .L22+12
 414              		.loc 1 112 0
 415 000a 0446     		mov	r4, r0
 416              		.loc 1 116 0
 417 000c FFF7FEFF 		bl	chprintf
 418              	.LVL34:
 419              		.loc 1 117 0
 420 0010 2046     		mov	r0, r4
 421 0012 1749     		ldr	r1, .L22+16
 422 0014 FFF7FEFF 		bl	chprintf
 423              	.LVL35:
 424              		.loc 1 118 0
 425 0018 15E0     		b	.L20
 426              	.LVL36:
 427              	.L21:
 428              		.loc 1 119 0
 429 001a FFF7FEFF 		bl	chprintf
 430              	.LVL37:
 431              		.loc 1 121 0
 432 001e 2046     		mov	r0, r4
 433 0020 1449     		ldr	r1, .L22+20
 434 0022 3A68     		ldr	r2, [r7, #0]
 435 0024 FFF7FEFF 		bl	chprintf
 436              	.LVL38:
 437              		.loc 1 122 0
 438 0028 2046     		mov	r0, r4
 439 002a 1349     		ldr	r1, .L22+24
 440 002c 3268     		ldr	r2, [r6, #0]
 441 002e FFF7FEFF 		bl	chprintf
 442              	.LVL39:
 443              		.loc 1 123 0
 444 0032 2046     		mov	r0, r4
 445 0034 1149     		ldr	r1, .L22+28
 446 0036 D5E90023 		ldrd	r2, [r5]
 447 003a FFF7FEFF 		bl	chprintf
 448              	.LVL40:
 449              		.loc 1 124 0
 450 003e 4FF47A70 		mov	r0, #1000
 451 0042 FFF7FEFF 		bl	chThdSleep
ARM GAS  C:\Users\DNIEL~1\AppData\Local\Temp\ccDJyHwx.s 			page 9


 452              	.LVL41:
 453              	.L20:
 454              		.loc 1 118 0 discriminator 1
 455 0046 2368     		ldr	r3, [r4, #0]
 456 0048 0021     		movs	r1, #0
 457 004a 5A69     		ldr	r2, [r3, #20]
 458 004c 2046     		mov	r0, r4
 459 004e 9047     		blx	r2
 460              	.LVL42:
 461              		.loc 1 119 0 discriminator 1
 462 0050 0022     		movs	r2, #0
 463              		.loc 1 118 0 discriminator 1
 464 0052 0130     		adds	r0, r0, #1
 465              		.loc 1 119 0 discriminator 1
 466 0054 1346     		mov	r3, r2
 467 0056 0A49     		ldr	r1, .L22+32
 468 0058 2046     		mov	r0, r4
 469              		.loc 1 118 0 discriminator 1
 470 005a DED0     		beq	.L21
 471              	.LVL43:
 472              		.loc 1 126 0
 473 005c F8BD     		pop	{r3, r4, r5, r6, r7, pc}
 474              	.L23:
 475 005e 00BF     		.align	2
 476              	.L22:
 477 0060 00000000 		.word	.LC0
 478 0064 00000000 		.word	.LANCHOR0
 479 0068 00000000 		.word	.LANCHOR1
 480 006c 00000000 		.word	.LANCHOR3
 481 0070 04000000 		.word	.LC1
 482 0074 18000000 		.word	.LC3
 483 0078 34000000 		.word	.LC4
 484 007c 4C000000 		.word	.LC5
 485 0080 0C000000 		.word	.LC2
 486              		.cfi_endproc
 487              	.LFE125:
 488              		.size	cmd_speedvalues, .-cmd_speedvalues
 489 0084 AFF30080 		.section	.bss.speed_last_period,"aw",%nobits
 489      AFF30080 
 489      AFF30080 
 490              		.align	2
 491              		.set	.LANCHOR0,. + 0
 492              		.type	speed_last_period, %object
 493              		.size	speed_last_period, 4
 494              	speed_last_period:
 495 0000 00000000 		.space	4
 496              		.section	.bss.rotation,"aw",%nobits
 497              		.align	3
 498              		.set	.LANCHOR3,. + 0
 499              		.type	rotation, %object
 500              		.size	rotation, 8
 501              	rotation:
 502 0000 00000000 		.space	8
 502      00000000 
 503              		.section	.rodata.str1.4,"aMS",%progbits,1
 504              		.align	2
 505              	.LC0:
ARM GAS  C:\Users\DNIEL~1\AppData\Local\Temp\ccDJyHwx.s 			page 10


 506 0000 1B6300   		.ascii	"\033c\000"
 507 0003 00       		.space	1
 508              	.LC1:
 509 0004 1B5B324A 		.ascii	"\033[2J\000"
 509      00
 510 0009 000000   		.space	3
 511              	.LC2:
 512 000c 1B5B2564 		.ascii	"\033[%d;%dH\000"
 512      3B256448 
 512      00
 513 0015 000000   		.space	3
 514              	.LC3:
 515 0018 73706565 		.ascii	"speed_last_period: %5d\015\012\000"
 515      645F6C61 
 515      73745F70 
 515      6572696F 
 515      643A2025 
 516 0031 000000   		.space	3
 517              	.LC4:
 518 0034 73706565 		.ascii	"speed_period_num: %5d\015\012\000"
 518      645F7065 
 518      72696F64 
 518      5F6E756D 
 518      3A202535 
 519              	.LC5:
 520 004c 72706D3A 		.ascii	"rpm: %5d\015\012\000"
 520      20253564 
 520      0D0A00
 521 0057 00       		.section	.bss.rpm_index,"aw",%nobits
 522              		.align	2
 523              		.set	.LANCHOR4,. + 0
 524              		.type	rpm_index, %object
 525              		.size	rpm_index, 4
 526              	rpm_index:
 527 0000 00000000 		.space	4
 528              		.section	.bss.rpm_buff,"aw",%nobits
 529              		.align	3
 530              		.set	.LANCHOR5,. + 0
 531              		.type	rpm_buff, %object
 532              		.size	rpm_buff, 384
 533              	rpm_buff:
 534 0000 00000000 		.space	384
 534      00000000 
 534      00000000 
 534      00000000 
 534      00000000 
 535              		.section	.bss.speed_period_num,"aw",%nobits
 536              		.align	2
 537              		.set	.LANCHOR1,. + 0
 538              		.type	speed_period_num, %object
 539              		.size	speed_period_num, 4
 540              	speed_period_num:
 541 0000 00000000 		.space	4
 542              		.section	.data.icucfg,"aw",%progbits
 543              		.align	2
 544              		.set	.LANCHOR2,. + 0
 545              		.type	icucfg, %object
ARM GAS  C:\Users\DNIEL~1\AppData\Local\Temp\ccDJyHwx.s 			page 11


 546              		.size	icucfg, 24
 547              	icucfg:
 548 0000 00       		.byte	0
 549 0001 000000   		.space	3
 550 0004 40420F00 		.word	1000000
 551 0008 00000000 		.word	speedWheelPeriodNumber
 552 000c 00000000 		.word	speedWheelPeriodCb
 553 0010 00000000 		.word	0
 554 0014 00       		.byte	0
 555 0015 000000   		.space	3
 556              		.text
 557              	.Letext0:
 558              		.file 2 "c:\\chibistudio\\tools\\gnu tools arm embedded\\4.7 2014q2\\bin\\../lib/gcc/arm-none-eabi
 559              		.file 3 "c:\\chibistudio\\tools\\gnu tools arm embedded\\4.7 2014q2\\bin\\../lib/gcc/arm-none-eabi
 560              		.file 4 "../../../ChibiOS/os/ports/GCC/ARMCMx/chtypes.h"
 561              		.file 5 "../../../ChibiOS/os/kernel/include/chstreams.h"
 562              		.file 6 "../../../ChibiOS/os/hal/platforms/STM32/stm32.h"
 563              		.file 7 "../../../ChibiOS/os/hal/include/io_channel.h"
 564              		.file 8 "../../../ChibiOS/os/hal/include/icu.h"
 565              		.file 9 "../../../ChibiOS/os/hal/platforms/STM32/icu_lld.h"
 566              		.file 10 "../../../ChibiOS/os/ports/common/ARMCMx/CMSIS/include/core_cm4.h"
 567              		.file 11 "../../../ChibiOS/os/various/chprintf.h"
 568              		.file 12 "../../../ChibiOS/os/kernel/include/chthreads.h"
 569              		.section	.debug_info,"",%progbits
 570              	.Ldebug_info0:
 571 0000 8D0A0000 		.4byte	0xa8d
 572 0004 0200     		.2byte	0x2
 573 0006 00000000 		.4byte	.Ldebug_abbrev0
 574 000a 04       		.byte	0x4
 575 000b 01       		.uleb128 0x1
 576 000c 6E020000 		.4byte	.LASF104
 577 0010 01       		.byte	0x1
 578 0011 B7020000 		.4byte	.LASF105
 579 0015 34040000 		.4byte	.LASF106
 580 0019 30000000 		.4byte	.Ldebug_ranges0+0x30
 581 001d 00000000 		.4byte	0
 582 0021 00000000 		.4byte	0
 583 0025 00000000 		.4byte	.Ldebug_line0
 584 0029 02       		.uleb128 0x2
 585 002a 04       		.byte	0x4
 586 002b 05       		.byte	0x5
 587 002c 696E7400 		.ascii	"int\000"
 588 0030 03       		.uleb128 0x3
 589 0031 3D000000 		.4byte	.LASF2
 590 0035 02       		.byte	0x2
 591 0036 D5       		.byte	0xd5
 592 0037 3B000000 		.4byte	0x3b
 593 003b 04       		.uleb128 0x4
 594 003c 04       		.byte	0x4
 595 003d 07       		.byte	0x7
 596 003e C8010000 		.4byte	.LASF0
 597 0042 04       		.uleb128 0x4
 598 0043 01       		.byte	0x1
 599 0044 06       		.byte	0x6
 600 0045 26010000 		.4byte	.LASF1
 601 0049 03       		.uleb128 0x3
 602 004a 20040000 		.4byte	.LASF3
ARM GAS  C:\Users\DNIEL~1\AppData\Local\Temp\ccDJyHwx.s 			page 12


 603 004e 03       		.byte	0x3
 604 004f 2A       		.byte	0x2a
 605 0050 54000000 		.4byte	0x54
 606 0054 04       		.uleb128 0x4
 607 0055 01       		.byte	0x1
 608 0056 08       		.byte	0x8
 609 0057 18030000 		.4byte	.LASF4
 610 005b 04       		.uleb128 0x4
 611 005c 02       		.byte	0x2
 612 005d 05       		.byte	0x5
 613 005e 26030000 		.4byte	.LASF5
 614 0062 03       		.uleb128 0x3
 615 0063 32020000 		.4byte	.LASF6
 616 0067 03       		.byte	0x3
 617 0068 36       		.byte	0x36
 618 0069 6D000000 		.4byte	0x6d
 619 006d 04       		.uleb128 0x4
 620 006e 02       		.byte	0x2
 621 006f 07       		.byte	0x7
 622 0070 AB030000 		.4byte	.LASF7
 623 0074 03       		.uleb128 0x3
 624 0075 10030000 		.4byte	.LASF8
 625 0079 03       		.byte	0x3
 626 007a 4F       		.byte	0x4f
 627 007b 7F000000 		.4byte	0x7f
 628 007f 04       		.uleb128 0x4
 629 0080 04       		.byte	0x4
 630 0081 05       		.byte	0x5
 631 0082 73010000 		.4byte	.LASF9
 632 0086 03       		.uleb128 0x3
 633 0087 67030000 		.4byte	.LASF10
 634 008b 03       		.byte	0x3
 635 008c 50       		.byte	0x50
 636 008d 91000000 		.4byte	0x91
 637 0091 04       		.uleb128 0x4
 638 0092 04       		.byte	0x4
 639 0093 07       		.byte	0x7
 640 0094 DB010000 		.4byte	.LASF11
 641 0098 04       		.uleb128 0x4
 642 0099 08       		.byte	0x8
 643 009a 05       		.byte	0x5
 644 009b 18010000 		.4byte	.LASF12
 645 009f 04       		.uleb128 0x4
 646 00a0 08       		.byte	0x8
 647 00a1 07       		.byte	0x7
 648 00a2 B4000000 		.4byte	.LASF13
 649 00a6 03       		.uleb128 0x3
 650 00a7 0F020000 		.4byte	.LASF14
 651 00ab 04       		.byte	0x4
 652 00ac 2D       		.byte	0x2d
 653 00ad 74000000 		.4byte	0x74
 654 00b1 03       		.uleb128 0x3
 655 00b2 8E030000 		.4byte	.LASF15
 656 00b6 04       		.byte	0x4
 657 00b7 31       		.byte	0x31
 658 00b8 86000000 		.4byte	0x86
 659 00bc 05       		.uleb128 0x5
ARM GAS  C:\Users\DNIEL~1\AppData\Local\Temp\ccDJyHwx.s 			page 13


 660 00bd 04       		.byte	0x4
 661 00be 06       		.uleb128 0x6
 662 00bf 86000000 		.4byte	0x86
 663 00c3 04       		.uleb128 0x4
 664 00c4 04       		.byte	0x4
 665 00c5 07       		.byte	0x7
 666 00c6 5C020000 		.4byte	.LASF16
 667 00ca 07       		.uleb128 0x7
 668 00cb 04       		.byte	0x4
 669 00cc D0000000 		.4byte	0xd0
 670 00d0 08       		.uleb128 0x8
 671 00d1 D5000000 		.4byte	0xd5
 672 00d5 04       		.uleb128 0x4
 673 00d6 01       		.byte	0x1
 674 00d7 08       		.byte	0x8
 675 00d8 78030000 		.4byte	.LASF17
 676 00dc 07       		.uleb128 0x7
 677 00dd 04       		.byte	0x4
 678 00de E2000000 		.4byte	0xe2
 679 00e2 09       		.uleb128 0x9
 680 00e3 01       		.byte	0x1
 681 00e4 A6000000 		.4byte	0xa6
 682 00e8 F2000000 		.4byte	0xf2
 683 00ec 0A       		.uleb128 0xa
 684 00ed BC000000 		.4byte	0xbc
 685 00f1 00       		.byte	0
 686 00f2 07       		.uleb128 0x7
 687 00f3 04       		.byte	0x4
 688 00f4 49000000 		.4byte	0x49
 689 00f8 0B       		.uleb128 0xb
 690 00f9 3A030000 		.4byte	.LASF44
 691 00fd 10       		.byte	0x10
 692 00fe 05       		.byte	0x5
 693 00ff 41       		.byte	0x41
 694 0100 3D010000 		.4byte	0x13d
 695 0104 0C       		.uleb128 0xc
 696 0105 51020000 		.4byte	.LASF18
 697 0109 05       		.byte	0x5
 698 010a 42       		.byte	0x42
 699 010b 62010000 		.4byte	0x162
 700 010f 02       		.byte	0x2
 701 0110 23       		.byte	0x23
 702 0111 00       		.uleb128 0
 703 0112 0C       		.uleb128 0xc
 704 0113 67040000 		.4byte	.LASF19
 705 0117 05       		.byte	0x5
 706 0118 42       		.byte	0x42
 707 0119 82010000 		.4byte	0x182
 708 011d 02       		.byte	0x2
 709 011e 23       		.byte	0x23
 710 011f 04       		.uleb128 0x4
 711 0120 0D       		.uleb128 0xd
 712 0121 70757400 		.ascii	"put\000"
 713 0125 05       		.byte	0x5
 714 0126 42       		.byte	0x42
 715 0127 9D010000 		.4byte	0x19d
 716 012b 02       		.byte	0x2
ARM GAS  C:\Users\DNIEL~1\AppData\Local\Temp\ccDJyHwx.s 			page 14


 717 012c 23       		.byte	0x23
 718 012d 08       		.uleb128 0x8
 719 012e 0D       		.uleb128 0xd
 720 012f 67657400 		.ascii	"get\000"
 721 0133 05       		.byte	0x5
 722 0134 42       		.byte	0x42
 723 0135 DC000000 		.4byte	0xdc
 724 0139 02       		.byte	0x2
 725 013a 23       		.byte	0x23
 726 013b 0C       		.uleb128 0xc
 727 013c 00       		.byte	0
 728 013d 09       		.uleb128 0x9
 729 013e 01       		.byte	0x1
 730 013f 30000000 		.4byte	0x30
 731 0143 57010000 		.4byte	0x157
 732 0147 0A       		.uleb128 0xa
 733 0148 BC000000 		.4byte	0xbc
 734 014c 0A       		.uleb128 0xa
 735 014d 57010000 		.4byte	0x157
 736 0151 0A       		.uleb128 0xa
 737 0152 30000000 		.4byte	0x30
 738 0156 00       		.byte	0
 739 0157 07       		.uleb128 0x7
 740 0158 04       		.byte	0x4
 741 0159 5D010000 		.4byte	0x15d
 742 015d 08       		.uleb128 0x8
 743 015e 49000000 		.4byte	0x49
 744 0162 07       		.uleb128 0x7
 745 0163 04       		.byte	0x4
 746 0164 3D010000 		.4byte	0x13d
 747 0168 09       		.uleb128 0x9
 748 0169 01       		.byte	0x1
 749 016a 30000000 		.4byte	0x30
 750 016e 82010000 		.4byte	0x182
 751 0172 0A       		.uleb128 0xa
 752 0173 BC000000 		.4byte	0xbc
 753 0177 0A       		.uleb128 0xa
 754 0178 F2000000 		.4byte	0xf2
 755 017c 0A       		.uleb128 0xa
 756 017d 30000000 		.4byte	0x30
 757 0181 00       		.byte	0
 758 0182 07       		.uleb128 0x7
 759 0183 04       		.byte	0x4
 760 0184 68010000 		.4byte	0x168
 761 0188 09       		.uleb128 0x9
 762 0189 01       		.byte	0x1
 763 018a A6000000 		.4byte	0xa6
 764 018e 9D010000 		.4byte	0x19d
 765 0192 0A       		.uleb128 0xa
 766 0193 BC000000 		.4byte	0xbc
 767 0197 0A       		.uleb128 0xa
 768 0198 49000000 		.4byte	0x49
 769 019c 00       		.byte	0
 770 019d 07       		.uleb128 0x7
 771 019e 04       		.byte	0x4
 772 019f 88010000 		.4byte	0x188
 773 01a3 0E       		.uleb128 0xe
ARM GAS  C:\Users\DNIEL~1\AppData\Local\Temp\ccDJyHwx.s 			page 15


 774 01a4 04       		.byte	0x4
 775 01a5 05       		.byte	0x5
 776 01a6 4A       		.byte	0x4a
 777 01a7 BA010000 		.4byte	0x1ba
 778 01ab 0D       		.uleb128 0xd
 779 01ac 766D7400 		.ascii	"vmt\000"
 780 01b0 05       		.byte	0x5
 781 01b1 4C       		.byte	0x4c
 782 01b2 BA010000 		.4byte	0x1ba
 783 01b6 02       		.byte	0x2
 784 01b7 23       		.byte	0x23
 785 01b8 00       		.uleb128 0
 786 01b9 00       		.byte	0
 787 01ba 07       		.uleb128 0x7
 788 01bb 04       		.byte	0x4
 789 01bc C0010000 		.4byte	0x1c0
 790 01c0 08       		.uleb128 0x8
 791 01c1 F8000000 		.4byte	0xf8
 792 01c5 03       		.uleb128 0x3
 793 01c6 B3010000 		.4byte	.LASF20
 794 01ca 05       		.byte	0x5
 795 01cb 4E       		.byte	0x4e
 796 01cc A3010000 		.4byte	0x1a3
 797 01d0 0F       		.uleb128 0xf
 798 01d1 86000000 		.4byte	0x86
 799 01d5 E0010000 		.4byte	0x1e0
 800 01d9 10       		.uleb128 0x10
 801 01da C3000000 		.4byte	0xc3
 802 01de 03       		.byte	0x3
 803 01df 00       		.byte	0
 804 01e0 06       		.uleb128 0x6
 805 01e1 62000000 		.4byte	0x62
 806 01e5 06       		.uleb128 0x6
 807 01e6 74000000 		.4byte	0x74
 808 01ea 0E       		.uleb128 0xe
 809 01eb 54       		.byte	0x54
 810 01ec 06       		.byte	0x6
 811 01ed 60       		.byte	0x60
 812 01ee BF030000 		.4byte	0x3bf
 813 01f2 0D       		.uleb128 0xd
 814 01f3 43523100 		.ascii	"CR1\000"
 815 01f7 06       		.byte	0x6
 816 01f8 61       		.byte	0x61
 817 01f9 E0010000 		.4byte	0x1e0
 818 01fd 02       		.byte	0x2
 819 01fe 23       		.byte	0x23
 820 01ff 00       		.uleb128 0
 821 0200 0C       		.uleb128 0xc
 822 0201 44000000 		.4byte	.LASF21
 823 0205 06       		.byte	0x6
 824 0206 62       		.byte	0x62
 825 0207 62000000 		.4byte	0x62
 826 020b 02       		.byte	0x2
 827 020c 23       		.byte	0x23
 828 020d 02       		.uleb128 0x2
 829 020e 0D       		.uleb128 0xd
 830 020f 43523200 		.ascii	"CR2\000"
ARM GAS  C:\Users\DNIEL~1\AppData\Local\Temp\ccDJyHwx.s 			page 16


 831 0213 06       		.byte	0x6
 832 0214 63       		.byte	0x63
 833 0215 E0010000 		.4byte	0x1e0
 834 0219 02       		.byte	0x2
 835 021a 23       		.byte	0x23
 836 021b 04       		.uleb128 0x4
 837 021c 0C       		.uleb128 0xc
 838 021d 4C000000 		.4byte	.LASF22
 839 0221 06       		.byte	0x6
 840 0222 64       		.byte	0x64
 841 0223 62000000 		.4byte	0x62
 842 0227 02       		.byte	0x2
 843 0228 23       		.byte	0x23
 844 0229 06       		.uleb128 0x6
 845 022a 0C       		.uleb128 0xc
 846 022b 0A020000 		.4byte	.LASF23
 847 022f 06       		.byte	0x6
 848 0230 65       		.byte	0x65
 849 0231 E0010000 		.4byte	0x1e0
 850 0235 02       		.byte	0x2
 851 0236 23       		.byte	0x23
 852 0237 08       		.uleb128 0x8
 853 0238 0C       		.uleb128 0xc
 854 0239 70030000 		.4byte	.LASF24
 855 023d 06       		.byte	0x6
 856 023e 66       		.byte	0x66
 857 023f 62000000 		.4byte	0x62
 858 0243 02       		.byte	0x2
 859 0244 23       		.byte	0x23
 860 0245 0A       		.uleb128 0xa
 861 0246 0C       		.uleb128 0xc
 862 0247 38000000 		.4byte	.LASF25
 863 024b 06       		.byte	0x6
 864 024c 67       		.byte	0x67
 865 024d E0010000 		.4byte	0x1e0
 866 0251 02       		.byte	0x2
 867 0252 23       		.byte	0x23
 868 0253 0C       		.uleb128 0xc
 869 0254 0C       		.uleb128 0xc
 870 0255 5F000000 		.4byte	.LASF26
 871 0259 06       		.byte	0x6
 872 025a 68       		.byte	0x68
 873 025b 62000000 		.4byte	0x62
 874 025f 02       		.byte	0x2
 875 0260 23       		.byte	0x23
 876 0261 0E       		.uleb128 0xe
 877 0262 0D       		.uleb128 0xd
 878 0263 535200   		.ascii	"SR\000"
 879 0266 06       		.byte	0x6
 880 0267 69       		.byte	0x69
 881 0268 E0010000 		.4byte	0x1e0
 882 026c 02       		.byte	0x2
 883 026d 23       		.byte	0x23
 884 026e 10       		.uleb128 0x10
 885 026f 0C       		.uleb128 0xc
 886 0270 67000000 		.4byte	.LASF27
 887 0274 06       		.byte	0x6
ARM GAS  C:\Users\DNIEL~1\AppData\Local\Temp\ccDJyHwx.s 			page 17


 888 0275 6A       		.byte	0x6a
 889 0276 62000000 		.4byte	0x62
 890 027a 02       		.byte	0x2
 891 027b 23       		.byte	0x23
 892 027c 12       		.uleb128 0x12
 893 027d 0D       		.uleb128 0xd
 894 027e 45475200 		.ascii	"EGR\000"
 895 0282 06       		.byte	0x6
 896 0283 6B       		.byte	0x6b
 897 0284 E0010000 		.4byte	0x1e0
 898 0288 02       		.byte	0x2
 899 0289 23       		.byte	0x23
 900 028a 14       		.uleb128 0x14
 901 028b 0C       		.uleb128 0xc
 902 028c 6F000000 		.4byte	.LASF28
 903 0290 06       		.byte	0x6
 904 0291 6C       		.byte	0x6c
 905 0292 62000000 		.4byte	0x62
 906 0296 02       		.byte	0x2
 907 0297 23       		.byte	0x23
 908 0298 16       		.uleb128 0x16
 909 0299 0C       		.uleb128 0xc
 910 029a 0C010000 		.4byte	.LASF29
 911 029e 06       		.byte	0x6
 912 029f 6D       		.byte	0x6d
 913 02a0 E0010000 		.4byte	0x1e0
 914 02a4 02       		.byte	0x2
 915 02a5 23       		.byte	0x23
 916 02a6 18       		.uleb128 0x18
 917 02a7 0C       		.uleb128 0xc
 918 02a8 77000000 		.4byte	.LASF30
 919 02ac 06       		.byte	0x6
 920 02ad 6E       		.byte	0x6e
 921 02ae 62000000 		.4byte	0x62
 922 02b2 02       		.byte	0x2
 923 02b3 23       		.byte	0x23
 924 02b4 1A       		.uleb128 0x1a
 925 02b5 0C       		.uleb128 0xc
 926 02b6 12010000 		.4byte	.LASF31
 927 02ba 06       		.byte	0x6
 928 02bb 6F       		.byte	0x6f
 929 02bc E0010000 		.4byte	0x1e0
 930 02c0 02       		.byte	0x2
 931 02c1 23       		.byte	0x23
 932 02c2 1C       		.uleb128 0x1c
 933 02c3 0C       		.uleb128 0xc
 934 02c4 7F000000 		.4byte	.LASF32
 935 02c8 06       		.byte	0x6
 936 02c9 70       		.byte	0x70
 937 02ca 62000000 		.4byte	0x62
 938 02ce 02       		.byte	0x2
 939 02cf 23       		.byte	0x23
 940 02d0 1E       		.uleb128 0x1e
 941 02d1 0C       		.uleb128 0xc
 942 02d2 85010000 		.4byte	.LASF33
 943 02d6 06       		.byte	0x6
 944 02d7 71       		.byte	0x71
ARM GAS  C:\Users\DNIEL~1\AppData\Local\Temp\ccDJyHwx.s 			page 18


 945 02d8 E0010000 		.4byte	0x1e0
 946 02dc 02       		.byte	0x2
 947 02dd 23       		.byte	0x23
 948 02de 20       		.uleb128 0x20
 949 02df 0C       		.uleb128 0xc
 950 02e0 87000000 		.4byte	.LASF34
 951 02e4 06       		.byte	0x6
 952 02e5 72       		.byte	0x72
 953 02e6 62000000 		.4byte	0x62
 954 02ea 02       		.byte	0x2
 955 02eb 23       		.byte	0x23
 956 02ec 22       		.uleb128 0x22
 957 02ed 0D       		.uleb128 0xd
 958 02ee 434E5400 		.ascii	"CNT\000"
 959 02f2 06       		.byte	0x6
 960 02f3 73       		.byte	0x73
 961 02f4 BE000000 		.4byte	0xbe
 962 02f8 02       		.byte	0x2
 963 02f9 23       		.byte	0x23
 964 02fa 24       		.uleb128 0x24
 965 02fb 0D       		.uleb128 0xd
 966 02fc 50534300 		.ascii	"PSC\000"
 967 0300 06       		.byte	0x6
 968 0301 74       		.byte	0x74
 969 0302 E0010000 		.4byte	0x1e0
 970 0306 02       		.byte	0x2
 971 0307 23       		.byte	0x23
 972 0308 28       		.uleb128 0x28
 973 0309 0C       		.uleb128 0xc
 974 030a 8F000000 		.4byte	.LASF35
 975 030e 06       		.byte	0x6
 976 030f 75       		.byte	0x75
 977 0310 62000000 		.4byte	0x62
 978 0314 02       		.byte	0x2
 979 0315 23       		.byte	0x23
 980 0316 2A       		.uleb128 0x2a
 981 0317 0D       		.uleb128 0xd
 982 0318 41525200 		.ascii	"ARR\000"
 983 031c 06       		.byte	0x6
 984 031d 76       		.byte	0x76
 985 031e BE000000 		.4byte	0xbe
 986 0322 02       		.byte	0x2
 987 0323 23       		.byte	0x23
 988 0324 2C       		.uleb128 0x2c
 989 0325 0D       		.uleb128 0xd
 990 0326 52435200 		.ascii	"RCR\000"
 991 032a 06       		.byte	0x6
 992 032b 77       		.byte	0x77
 993 032c E0010000 		.4byte	0x1e0
 994 0330 02       		.byte	0x2
 995 0331 23       		.byte	0x23
 996 0332 30       		.uleb128 0x30
 997 0333 0C       		.uleb128 0xc
 998 0334 5B010000 		.4byte	.LASF36
 999 0338 06       		.byte	0x6
 1000 0339 78       		.byte	0x78
 1001 033a 62000000 		.4byte	0x62
ARM GAS  C:\Users\DNIEL~1\AppData\Local\Temp\ccDJyHwx.s 			page 19


 1002 033e 02       		.byte	0x2
 1003 033f 23       		.byte	0x23
 1004 0340 32       		.uleb128 0x32
 1005 0341 0D       		.uleb128 0xd
 1006 0342 43435200 		.ascii	"CCR\000"
 1007 0346 06       		.byte	0x6
 1008 0347 79       		.byte	0x79
 1009 0348 BF030000 		.4byte	0x3bf
 1010 034c 02       		.byte	0x2
 1011 034d 23       		.byte	0x23
 1012 034e 34       		.uleb128 0x34
 1013 034f 0C       		.uleb128 0xc
 1014 0350 E9000000 		.4byte	.LASF37
 1015 0354 06       		.byte	0x6
 1016 0355 7A       		.byte	0x7a
 1017 0356 E0010000 		.4byte	0x1e0
 1018 035a 02       		.byte	0x2
 1019 035b 23       		.byte	0x23
 1020 035c 44       		.uleb128 0x44
 1021 035d 0C       		.uleb128 0xc
 1022 035e 97000000 		.4byte	.LASF38
 1023 0362 06       		.byte	0x6
 1024 0363 7B       		.byte	0x7b
 1025 0364 62000000 		.4byte	0x62
 1026 0368 02       		.byte	0x2
 1027 0369 23       		.byte	0x23
 1028 036a 46       		.uleb128 0x46
 1029 036b 0D       		.uleb128 0xd
 1030 036c 44435200 		.ascii	"DCR\000"
 1031 0370 06       		.byte	0x6
 1032 0371 7C       		.byte	0x7c
 1033 0372 E0010000 		.4byte	0x1e0
 1034 0376 02       		.byte	0x2
 1035 0377 23       		.byte	0x23
 1036 0378 48       		.uleb128 0x48
 1037 0379 0C       		.uleb128 0xc
 1038 037a 6A010000 		.4byte	.LASF39
 1039 037e 06       		.byte	0x6
 1040 037f 7D       		.byte	0x7d
 1041 0380 62000000 		.4byte	0x62
 1042 0384 02       		.byte	0x2
 1043 0385 23       		.byte	0x23
 1044 0386 4A       		.uleb128 0x4a
 1045 0387 0C       		.uleb128 0xc
 1046 0388 89030000 		.4byte	.LASF40
 1047 038c 06       		.byte	0x6
 1048 038d 7E       		.byte	0x7e
 1049 038e E0010000 		.4byte	0x1e0
 1050 0392 02       		.byte	0x2
 1051 0393 23       		.byte	0x23
 1052 0394 4C       		.uleb128 0x4c
 1053 0395 0C       		.uleb128 0xc
 1054 0396 AB000000 		.4byte	.LASF41
 1055 039a 06       		.byte	0x6
 1056 039b 7F       		.byte	0x7f
 1057 039c 62000000 		.4byte	0x62
 1058 03a0 02       		.byte	0x2
ARM GAS  C:\Users\DNIEL~1\AppData\Local\Temp\ccDJyHwx.s 			page 20


 1059 03a1 23       		.byte	0x23
 1060 03a2 4E       		.uleb128 0x4e
 1061 03a3 0D       		.uleb128 0xd
 1062 03a4 4F5200   		.ascii	"OR\000"
 1063 03a7 06       		.byte	0x6
 1064 03a8 80       		.byte	0x80
 1065 03a9 E0010000 		.4byte	0x1e0
 1066 03ad 02       		.byte	0x2
 1067 03ae 23       		.byte	0x23
 1068 03af 50       		.uleb128 0x50
 1069 03b0 0C       		.uleb128 0xc
 1070 03b1 7C010000 		.4byte	.LASF42
 1071 03b5 06       		.byte	0x6
 1072 03b6 81       		.byte	0x81
 1073 03b7 62000000 		.4byte	0x62
 1074 03bb 02       		.byte	0x2
 1075 03bc 23       		.byte	0x23
 1076 03bd 52       		.uleb128 0x52
 1077 03be 00       		.byte	0
 1078 03bf 06       		.uleb128 0x6
 1079 03c0 D0010000 		.4byte	0x1d0
 1080 03c4 03       		.uleb128 0x3
 1081 03c5 26020000 		.4byte	.LASF43
 1082 03c9 06       		.byte	0x6
 1083 03ca 82       		.byte	0x82
 1084 03cb EA010000 		.4byte	0x1ea
 1085 03cf 07       		.uleb128 0x7
 1086 03d0 04       		.byte	0x4
 1087 03d1 BE000000 		.4byte	0xbe
 1088 03d5 0B       		.uleb128 0xb
 1089 03d6 C8030000 		.4byte	.LASF45
 1090 03da 20       		.byte	0x20
 1091 03db 07       		.byte	0x7
 1092 03dc 46       		.byte	0x46
 1093 03dd 52040000 		.4byte	0x452
 1094 03e1 0C       		.uleb128 0xc
 1095 03e2 51020000 		.4byte	.LASF18
 1096 03e6 07       		.byte	0x7
 1097 03e7 47       		.byte	0x47
 1098 03e8 62010000 		.4byte	0x162
 1099 03ec 02       		.byte	0x2
 1100 03ed 23       		.byte	0x23
 1101 03ee 00       		.uleb128 0
 1102 03ef 0C       		.uleb128 0xc
 1103 03f0 67040000 		.4byte	.LASF19
 1104 03f4 07       		.byte	0x7
 1105 03f5 47       		.byte	0x47
 1106 03f6 82010000 		.4byte	0x182
 1107 03fa 02       		.byte	0x2
 1108 03fb 23       		.byte	0x23
 1109 03fc 04       		.uleb128 0x4
 1110 03fd 0D       		.uleb128 0xd
 1111 03fe 70757400 		.ascii	"put\000"
 1112 0402 07       		.byte	0x7
 1113 0403 47       		.byte	0x47
 1114 0404 9D010000 		.4byte	0x19d
 1115 0408 02       		.byte	0x2
ARM GAS  C:\Users\DNIEL~1\AppData\Local\Temp\ccDJyHwx.s 			page 21


 1116 0409 23       		.byte	0x23
 1117 040a 08       		.uleb128 0x8
 1118 040b 0D       		.uleb128 0xd
 1119 040c 67657400 		.ascii	"get\000"
 1120 0410 07       		.byte	0x7
 1121 0411 47       		.byte	0x47
 1122 0412 DC000000 		.4byte	0xdc
 1123 0416 02       		.byte	0x2
 1124 0417 23       		.byte	0x23
 1125 0418 0C       		.uleb128 0xc
 1126 0419 0C       		.uleb128 0xc
 1127 041a 57020000 		.4byte	.LASF46
 1128 041e 07       		.byte	0x7
 1129 041f 47       		.byte	0x47
 1130 0420 6C040000 		.4byte	0x46c
 1131 0424 02       		.byte	0x2
 1132 0425 23       		.byte	0x23
 1133 0426 10       		.uleb128 0x10
 1134 0427 0C       		.uleb128 0xc
 1135 0428 05020000 		.4byte	.LASF47
 1136 042c 07       		.byte	0x7
 1137 042d 47       		.byte	0x47
 1138 042e 87040000 		.4byte	0x487
 1139 0432 02       		.byte	0x2
 1140 0433 23       		.byte	0x23
 1141 0434 14       		.uleb128 0x14
 1142 0435 0C       		.uleb128 0xc
 1143 0436 1F020000 		.4byte	.LASF48
 1144 043a 07       		.byte	0x7
 1145 043b 47       		.byte	0x47
 1146 043c AC040000 		.4byte	0x4ac
 1147 0440 02       		.byte	0x2
 1148 0441 23       		.byte	0x23
 1149 0442 18       		.uleb128 0x18
 1150 0443 0C       		.uleb128 0xc
 1151 0444 01010000 		.4byte	.LASF49
 1152 0448 07       		.byte	0x7
 1153 0449 47       		.byte	0x47
 1154 044a D1040000 		.4byte	0x4d1
 1155 044e 02       		.byte	0x2
 1156 044f 23       		.byte	0x23
 1157 0450 1C       		.uleb128 0x1c
 1158 0451 00       		.byte	0
 1159 0452 09       		.uleb128 0x9
 1160 0453 01       		.byte	0x1
 1161 0454 A6000000 		.4byte	0xa6
 1162 0458 6C040000 		.4byte	0x46c
 1163 045c 0A       		.uleb128 0xa
 1164 045d BC000000 		.4byte	0xbc
 1165 0461 0A       		.uleb128 0xa
 1166 0462 49000000 		.4byte	0x49
 1167 0466 0A       		.uleb128 0xa
 1168 0467 B1000000 		.4byte	0xb1
 1169 046b 00       		.byte	0
 1170 046c 07       		.uleb128 0x7
 1171 046d 04       		.byte	0x4
 1172 046e 52040000 		.4byte	0x452
ARM GAS  C:\Users\DNIEL~1\AppData\Local\Temp\ccDJyHwx.s 			page 22


 1173 0472 09       		.uleb128 0x9
 1174 0473 01       		.byte	0x1
 1175 0474 A6000000 		.4byte	0xa6
 1176 0478 87040000 		.4byte	0x487
 1177 047c 0A       		.uleb128 0xa
 1178 047d BC000000 		.4byte	0xbc
 1179 0481 0A       		.uleb128 0xa
 1180 0482 B1000000 		.4byte	0xb1
 1181 0486 00       		.byte	0
 1182 0487 07       		.uleb128 0x7
 1183 0488 04       		.byte	0x4
 1184 0489 72040000 		.4byte	0x472
 1185 048d 09       		.uleb128 0x9
 1186 048e 01       		.byte	0x1
 1187 048f 30000000 		.4byte	0x30
 1188 0493 AC040000 		.4byte	0x4ac
 1189 0497 0A       		.uleb128 0xa
 1190 0498 BC000000 		.4byte	0xbc
 1191 049c 0A       		.uleb128 0xa
 1192 049d 57010000 		.4byte	0x157
 1193 04a1 0A       		.uleb128 0xa
 1194 04a2 30000000 		.4byte	0x30
 1195 04a6 0A       		.uleb128 0xa
 1196 04a7 B1000000 		.4byte	0xb1
 1197 04ab 00       		.byte	0
 1198 04ac 07       		.uleb128 0x7
 1199 04ad 04       		.byte	0x4
 1200 04ae 8D040000 		.4byte	0x48d
 1201 04b2 09       		.uleb128 0x9
 1202 04b3 01       		.byte	0x1
 1203 04b4 30000000 		.4byte	0x30
 1204 04b8 D1040000 		.4byte	0x4d1
 1205 04bc 0A       		.uleb128 0xa
 1206 04bd BC000000 		.4byte	0xbc
 1207 04c1 0A       		.uleb128 0xa
 1208 04c2 F2000000 		.4byte	0xf2
 1209 04c6 0A       		.uleb128 0xa
 1210 04c7 30000000 		.4byte	0x30
 1211 04cb 0A       		.uleb128 0xa
 1212 04cc B1000000 		.4byte	0xb1
 1213 04d0 00       		.byte	0
 1214 04d1 07       		.uleb128 0x7
 1215 04d2 04       		.byte	0x4
 1216 04d3 B2040000 		.4byte	0x4b2
 1217 04d7 0E       		.uleb128 0xe
 1218 04d8 04       		.byte	0x4
 1219 04d9 07       		.byte	0x7
 1220 04da 51       		.byte	0x51
 1221 04db EE040000 		.4byte	0x4ee
 1222 04df 0D       		.uleb128 0xd
 1223 04e0 766D7400 		.ascii	"vmt\000"
 1224 04e4 07       		.byte	0x7
 1225 04e5 53       		.byte	0x53
 1226 04e6 EE040000 		.4byte	0x4ee
 1227 04ea 02       		.byte	0x2
 1228 04eb 23       		.byte	0x23
 1229 04ec 00       		.uleb128 0
ARM GAS  C:\Users\DNIEL~1\AppData\Local\Temp\ccDJyHwx.s 			page 23


 1230 04ed 00       		.byte	0
 1231 04ee 07       		.uleb128 0x7
 1232 04ef 04       		.byte	0x4
 1233 04f0 F4040000 		.4byte	0x4f4
 1234 04f4 08       		.uleb128 0x8
 1235 04f5 D5030000 		.4byte	0x3d5
 1236 04f9 03       		.uleb128 0x3
 1237 04fa 28040000 		.4byte	.LASF50
 1238 04fe 07       		.byte	0x7
 1239 04ff 55       		.byte	0x55
 1240 0500 D7040000 		.4byte	0x4d7
 1241 0504 11       		.uleb128 0x11
 1242 0505 01       		.byte	0x1
 1243 0506 08       		.byte	0x8
 1244 0507 35       		.byte	0x35
 1245 0508 31050000 		.4byte	0x531
 1246 050c 12       		.uleb128 0x12
 1247 050d 2D000000 		.4byte	.LASF51
 1248 0511 00       		.sleb128 0
 1249 0512 12       		.uleb128 0x12
 1250 0513 C3020000 		.4byte	.LASF52
 1251 0517 01       		.sleb128 1
 1252 0518 12       		.uleb128 0x12
 1253 0519 47020000 		.4byte	.LASF53
 1254 051d 02       		.sleb128 2
 1255 051e 12       		.uleb128 0x12
 1256 051f 3B020000 		.4byte	.LASF54
 1257 0523 03       		.sleb128 3
 1258 0524 12       		.uleb128 0x12
 1259 0525 54000000 		.4byte	.LASF55
 1260 0529 04       		.sleb128 4
 1261 052a 12       		.uleb128 0x12
 1262 052b F8000000 		.4byte	.LASF56
 1263 052f 05       		.sleb128 5
 1264 0530 00       		.byte	0
 1265 0531 03       		.uleb128 0x3
 1266 0532 A0000000 		.4byte	.LASF57
 1267 0536 08       		.byte	0x8
 1268 0537 3C       		.byte	0x3c
 1269 0538 04050000 		.4byte	0x504
 1270 053c 03       		.uleb128 0x3
 1271 053d 15020000 		.4byte	.LASF58
 1272 0541 08       		.byte	0x8
 1273 0542 41       		.byte	0x41
 1274 0543 47050000 		.4byte	0x547
 1275 0547 13       		.uleb128 0x13
 1276 0548 15020000 		.4byte	.LASF58
 1277 054c 18       		.byte	0x18
 1278 054d 09       		.byte	0x9
 1279 054e 1301     		.2byte	0x113
 1280 0550 AF050000 		.4byte	0x5af
 1281 0554 14       		.uleb128 0x14
 1282 0555 64010000 		.4byte	.LASF59
 1283 0559 09       		.byte	0x9
 1284 055a 1701     		.2byte	0x117
 1285 055c 31050000 		.4byte	0x531
 1286 0560 02       		.byte	0x2
ARM GAS  C:\Users\DNIEL~1\AppData\Local\Temp\ccDJyHwx.s 			page 24


 1287 0561 23       		.byte	0x23
 1288 0562 00       		.uleb128 0
 1289 0563 14       		.uleb128 0x14
 1290 0564 82030000 		.4byte	.LASF60
 1291 0568 09       		.byte	0x9
 1292 0569 1B01     		.2byte	0x11b
 1293 056b 89060000 		.4byte	0x689
 1294 056f 02       		.byte	0x2
 1295 0570 23       		.byte	0x23
 1296 0571 04       		.uleb128 0x4
 1297 0572 14       		.uleb128 0x14
 1298 0573 8A040000 		.4byte	.LASF61
 1299 0577 09       		.byte	0x9
 1300 0578 2301     		.2byte	0x123
 1301 057a 86000000 		.4byte	0x86
 1302 057e 02       		.byte	0x2
 1303 057f 23       		.byte	0x23
 1304 0580 08       		.uleb128 0x8
 1305 0581 15       		.uleb128 0x15
 1306 0582 74696D00 		.ascii	"tim\000"
 1307 0586 09       		.byte	0x9
 1308 0587 2701     		.2byte	0x127
 1309 0589 94060000 		.4byte	0x694
 1310 058d 02       		.byte	0x2
 1311 058e 23       		.byte	0x23
 1312 058f 0C       		.uleb128 0xc
 1313 0590 14       		.uleb128 0x14
 1314 0591 95040000 		.4byte	.LASF62
 1315 0595 09       		.byte	0x9
 1316 0596 2B01     		.2byte	0x12b
 1317 0598 CF030000 		.4byte	0x3cf
 1318 059c 02       		.byte	0x2
 1319 059d 23       		.byte	0x23
 1320 059e 10       		.uleb128 0x10
 1321 059f 14       		.uleb128 0x14
 1322 05a0 AD010000 		.4byte	.LASF63
 1323 05a4 09       		.byte	0x9
 1324 05a5 2F01     		.2byte	0x12f
 1325 05a7 CF030000 		.4byte	0x3cf
 1326 05ab 02       		.byte	0x2
 1327 05ac 23       		.byte	0x23
 1328 05ad 14       		.uleb128 0x14
 1329 05ae 00       		.byte	0
 1330 05af 03       		.uleb128 0x3
 1331 05b0 ED010000 		.4byte	.LASF64
 1332 05b4 08       		.byte	0x8
 1333 05b5 48       		.byte	0x48
 1334 05b6 BA050000 		.4byte	0x5ba
 1335 05ba 07       		.uleb128 0x7
 1336 05bb 04       		.byte	0x4
 1337 05bc C0050000 		.4byte	0x5c0
 1338 05c0 16       		.uleb128 0x16
 1339 05c1 01       		.byte	0x1
 1340 05c2 CC050000 		.4byte	0x5cc
 1341 05c6 0A       		.uleb128 0xa
 1342 05c7 CC050000 		.4byte	0x5cc
 1343 05cb 00       		.byte	0
ARM GAS  C:\Users\DNIEL~1\AppData\Local\Temp\ccDJyHwx.s 			page 25


 1344 05cc 07       		.uleb128 0x7
 1345 05cd 04       		.byte	0x4
 1346 05ce 3C050000 		.4byte	0x53c
 1347 05d2 11       		.uleb128 0x11
 1348 05d3 01       		.byte	0x1
 1349 05d4 09       		.byte	0x9
 1350 05d5 D6       		.byte	0xd6
 1351 05d6 E7050000 		.4byte	0x5e7
 1352 05da 12       		.uleb128 0x12
 1353 05db 00000000 		.4byte	.LASF65
 1354 05df 00       		.sleb128 0
 1355 05e0 12       		.uleb128 0x12
 1356 05e1 CC020000 		.4byte	.LASF66
 1357 05e5 01       		.sleb128 1
 1358 05e6 00       		.byte	0
 1359 05e7 03       		.uleb128 0x3
 1360 05e8 30030000 		.4byte	.LASF67
 1361 05ec 09       		.byte	0x9
 1362 05ed D9       		.byte	0xd9
 1363 05ee D2050000 		.4byte	0x5d2
 1364 05f2 03       		.uleb128 0x3
 1365 05f3 BE030000 		.4byte	.LASF68
 1366 05f7 09       		.byte	0x9
 1367 05f8 DE       		.byte	0xde
 1368 05f9 86000000 		.4byte	0x86
 1369 05fd 11       		.uleb128 0x11
 1370 05fe 01       		.byte	0x1
 1371 05ff 09       		.byte	0x9
 1372 0600 E3       		.byte	0xe3
 1373 0601 12060000 		.4byte	0x612
 1374 0605 12       		.uleb128 0x12
 1375 0606 04040000 		.4byte	.LASF69
 1376 060a 00       		.sleb128 0
 1377 060b 12       		.uleb128 0x12
 1378 060c 12040000 		.4byte	.LASF70
 1379 0610 01       		.sleb128 1
 1380 0611 00       		.byte	0
 1381 0612 03       		.uleb128 0x3
 1382 0613 52030000 		.4byte	.LASF71
 1383 0617 09       		.byte	0x9
 1384 0618 E6       		.byte	0xe6
 1385 0619 FD050000 		.4byte	0x5fd
 1386 061d 0E       		.uleb128 0xe
 1387 061e 18       		.byte	0x18
 1388 061f 09       		.byte	0x9
 1389 0620 F1       		.byte	0xf1
 1390 0621 7D060000 		.4byte	0x67d
 1391 0625 0C       		.uleb128 0xc
 1392 0626 7D030000 		.4byte	.LASF72
 1393 062a 09       		.byte	0x9
 1394 062b F5       		.byte	0xf5
 1395 062c E7050000 		.4byte	0x5e7
 1396 0630 02       		.byte	0x2
 1397 0631 23       		.byte	0x23
 1398 0632 00       		.uleb128 0
 1399 0633 0C       		.uleb128 0xc
 1400 0634 EE000000 		.4byte	.LASF73
ARM GAS  C:\Users\DNIEL~1\AppData\Local\Temp\ccDJyHwx.s 			page 26


 1401 0638 09       		.byte	0x9
 1402 0639 FB       		.byte	0xfb
 1403 063a F2050000 		.4byte	0x5f2
 1404 063e 02       		.byte	0x2
 1405 063f 23       		.byte	0x23
 1406 0640 04       		.uleb128 0x4
 1407 0641 0C       		.uleb128 0xc
 1408 0642 65020000 		.4byte	.LASF74
 1409 0646 09       		.byte	0x9
 1410 0647 FF       		.byte	0xff
 1411 0648 AF050000 		.4byte	0x5af
 1412 064c 02       		.byte	0x2
 1413 064d 23       		.byte	0x23
 1414 064e 08       		.uleb128 0x8
 1415 064f 14       		.uleb128 0x14
 1416 0650 FB010000 		.4byte	.LASF75
 1417 0654 09       		.byte	0x9
 1418 0655 0301     		.2byte	0x103
 1419 0657 AF050000 		.4byte	0x5af
 1420 065b 02       		.byte	0x2
 1421 065c 23       		.byte	0x23
 1422 065d 0C       		.uleb128 0xc
 1423 065e 14       		.uleb128 0x14
 1424 065f 16000000 		.4byte	.LASF76
 1425 0663 09       		.byte	0x9
 1426 0664 0701     		.2byte	0x107
 1427 0666 AF050000 		.4byte	0x5af
 1428 066a 02       		.byte	0x2
 1429 066b 23       		.byte	0x23
 1430 066c 10       		.uleb128 0x10
 1431 066d 14       		.uleb128 0x14
 1432 066e 5F030000 		.4byte	.LASF77
 1433 0672 09       		.byte	0x9
 1434 0673 0D01     		.2byte	0x10d
 1435 0675 12060000 		.4byte	0x612
 1436 0679 02       		.byte	0x2
 1437 067a 23       		.byte	0x23
 1438 067b 14       		.uleb128 0x14
 1439 067c 00       		.byte	0
 1440 067d 17       		.uleb128 0x17
 1441 067e A3010000 		.4byte	.LASF78
 1442 0682 09       		.byte	0x9
 1443 0683 0E01     		.2byte	0x10e
 1444 0685 1D060000 		.4byte	0x61d
 1445 0689 07       		.uleb128 0x7
 1446 068a 04       		.byte	0x4
 1447 068b 8F060000 		.4byte	0x68f
 1448 068f 08       		.uleb128 0x8
 1449 0690 7D060000 		.4byte	0x67d
 1450 0694 07       		.uleb128 0x7
 1451 0695 04       		.byte	0x4
 1452 0696 C4030000 		.4byte	0x3c4
 1453 069a 18       		.uleb128 0x18
 1454 069b D7030000 		.4byte	.LASF79
 1455 069f 01       		.byte	0x1
 1456 06a0 25       		.byte	0x25
 1457 06a1 01       		.byte	0x1
ARM GAS  C:\Users\DNIEL~1\AppData\Local\Temp\ccDJyHwx.s 			page 27


 1458 06a2 00000000 		.4byte	.LFB118
 1459 06a6 12000000 		.4byte	.LFE118
 1460 06aa 02       		.byte	0x2
 1461 06ab 7D       		.byte	0x7d
 1462 06ac 00       		.sleb128 0
 1463 06ad 01       		.byte	0x1
 1464 06ae C2060000 		.4byte	0x6c2
 1465 06b2 19       		.uleb128 0x19
 1466 06b3 0B030000 		.4byte	.LASF81
 1467 06b7 01       		.byte	0x1
 1468 06b8 25       		.byte	0x25
 1469 06b9 CC050000 		.4byte	0x5cc
 1470 06bd 00000000 		.4byte	.LLST0
 1471 06c1 00       		.byte	0
 1472 06c2 18       		.uleb128 0x18
 1473 06c3 E1020000 		.4byte	.LASF80
 1474 06c7 01       		.byte	0x1
 1475 06c8 29       		.byte	0x29
 1476 06c9 01       		.byte	0x1
 1477 06ca 00000000 		.4byte	.LFB119
 1478 06ce 10000000 		.4byte	.LFE119
 1479 06d2 02       		.byte	0x2
 1480 06d3 7D       		.byte	0x7d
 1481 06d4 00       		.sleb128 0
 1482 06d5 01       		.byte	0x1
 1483 06d6 EA060000 		.4byte	0x6ea
 1484 06da 19       		.uleb128 0x19
 1485 06db 0B030000 		.4byte	.LASF81
 1486 06df 01       		.byte	0x1
 1487 06e0 29       		.byte	0x29
 1488 06e1 CC050000 		.4byte	0x5cc
 1489 06e5 21000000 		.4byte	.LLST1
 1490 06e9 00       		.byte	0
 1491 06ea 1A       		.uleb128 0x1a
 1492 06eb 01       		.byte	0x1
 1493 06ec 3C010000 		.4byte	.LASF82
 1494 06f0 01       		.byte	0x1
 1495 06f1 2E       		.byte	0x2e
 1496 06f2 01       		.byte	0x1
 1497 06f3 00000000 		.4byte	.LFB120
 1498 06f7 2C000000 		.4byte	.LFE120
 1499 06fb 42000000 		.4byte	.LLST2
 1500 06ff 01       		.byte	0x1
 1501 0700 32070000 		.4byte	0x732
 1502 0704 1B       		.uleb128 0x1b
 1503 0705 18000000 		.4byte	.LVL4
 1504 0709 380A0000 		.4byte	0xa38
 1505 070d 21070000 		.4byte	0x721
 1506 0711 1C       		.uleb128 0x1c
 1507 0712 01       		.byte	0x1
 1508 0713 51       		.byte	0x51
 1509 0714 05       		.byte	0x5
 1510 0715 03       		.byte	0x3
 1511 0716 00000000 		.4byte	.LANCHOR2
 1512 071a 1C       		.uleb128 0x1c
 1513 071b 01       		.byte	0x1
 1514 071c 50       		.byte	0x50
ARM GAS  C:\Users\DNIEL~1\AppData\Local\Temp\ccDJyHwx.s 			page 28


 1515 071d 02       		.byte	0x2
 1516 071e 74       		.byte	0x74
 1517 071f 00       		.sleb128 0
 1518 0720 00       		.byte	0
 1519 0721 1D       		.uleb128 0x1d
 1520 0722 1E000000 		.4byte	.LVL5
 1521 0726 510A0000 		.4byte	0xa51
 1522 072a 1C       		.uleb128 0x1c
 1523 072b 01       		.byte	0x1
 1524 072c 50       		.byte	0x50
 1525 072d 02       		.byte	0x2
 1526 072e 74       		.byte	0x74
 1527 072f 00       		.sleb128 0
 1528 0730 00       		.byte	0
 1529 0731 00       		.byte	0
 1530 0732 1E       		.uleb128 0x1e
 1531 0733 01       		.byte	0x1
 1532 0734 EA030000 		.4byte	.LASF83
 1533 0738 01       		.byte	0x1
 1534 0739 39       		.byte	0x39
 1535 073a 01       		.byte	0x1
 1536 073b 00000000 		.4byte	.LFB121
 1537 073f A8000000 		.4byte	.LFE121
 1538 0743 62000000 		.4byte	.LLST3
 1539 0747 01       		.byte	0x1
 1540 0748 69070000 		.4byte	0x769
 1541 074c 1F       		.uleb128 0x1f
 1542 074d 6900     		.ascii	"i\000"
 1543 074f 01       		.byte	0x1
 1544 0750 3A       		.byte	0x3a
 1545 0751 29000000 		.4byte	0x29
 1546 0755 82000000 		.4byte	.LLST4
 1547 0759 20       		.uleb128 0x20
 1548 075a 5F040000 		.4byte	.LASF84
 1549 075e 01       		.byte	0x1
 1550 075f 3B       		.byte	0x3b
 1551 0760 69070000 		.4byte	0x769
 1552 0764 96000000 		.4byte	.LLST5
 1553 0768 00       		.byte	0
 1554 0769 04       		.uleb128 0x4
 1555 076a 08       		.byte	0x8
 1556 076b 04       		.byte	0x4
 1557 076c 93010000 		.4byte	.LASF85
 1558 0770 21       		.uleb128 0x21
 1559 0771 01       		.byte	0x1
 1560 0772 F8020000 		.4byte	.LASF86
 1561 0776 01       		.byte	0x1
 1562 0777 55       		.byte	0x55
 1563 0778 01       		.byte	0x1
 1564 0779 86000000 		.4byte	0x86
 1565 077d 00000000 		.4byte	.LFB122
 1566 0781 18000000 		.4byte	.LFE122
 1567 0785 02       		.byte	0x2
 1568 0786 7D       		.byte	0x7d
 1569 0787 00       		.sleb128 0
 1570 0788 01       		.byte	0x1
 1571 0789 CD070000 		.4byte	0x7cd
ARM GAS  C:\Users\DNIEL~1\AppData\Local\Temp\ccDJyHwx.s 			page 29


 1572 078d 22       		.uleb128 0x22
 1573 078e 746D7000 		.ascii	"tmp\000"
 1574 0792 01       		.byte	0x1
 1575 0793 56       		.byte	0x56
 1576 0794 86000000 		.4byte	0x86
 1577 0798 01       		.byte	0x1
 1578 0799 50       		.byte	0x50
 1579 079a 23       		.uleb128 0x23
 1580 079b 00000000 		.4byte	.LBB2
 1581 079f 06000000 		.4byte	.LBE2
 1582 07a3 B7070000 		.4byte	0x7b7
 1583 07a7 1F       		.uleb128 0x1f
 1584 07a8 746D7000 		.ascii	"tmp\000"
 1585 07ac 01       		.byte	0x1
 1586 07ad 58       		.byte	0x58
 1587 07ae 86000000 		.4byte	0x86
 1588 07b2 D2000000 		.4byte	.LLST6
 1589 07b6 00       		.byte	0
 1590 07b7 24       		.uleb128 0x24
 1591 07b8 00000000 		.4byte	.Ldebug_ranges0+0
 1592 07bc 1F       		.uleb128 0x1f
 1593 07bd 746D7000 		.ascii	"tmp\000"
 1594 07c1 01       		.byte	0x1
 1595 07c2 5A       		.byte	0x5a
 1596 07c3 86000000 		.4byte	0x86
 1597 07c7 E5000000 		.4byte	.LLST7
 1598 07cb 00       		.byte	0
 1599 07cc 00       		.byte	0
 1600 07cd 21       		.uleb128 0x21
 1601 07ce 01       		.byte	0x1
 1602 07cf 46010000 		.4byte	.LASF87
 1603 07d3 01       		.byte	0x1
 1604 07d4 5E       		.byte	0x5e
 1605 07d5 01       		.byte	0x1
 1606 07d6 86000000 		.4byte	0x86
 1607 07da 00000000 		.4byte	.LFB123
 1608 07de 18000000 		.4byte	.LFE123
 1609 07e2 02       		.byte	0x2
 1610 07e3 7D       		.byte	0x7d
 1611 07e4 00       		.sleb128 0
 1612 07e5 01       		.byte	0x1
 1613 07e6 2A080000 		.4byte	0x82a
 1614 07ea 25       		.uleb128 0x25
 1615 07eb 07010000 		.4byte	.LASF88
 1616 07ef 01       		.byte	0x1
 1617 07f0 5F       		.byte	0x5f
 1618 07f1 86000000 		.4byte	0x86
 1619 07f5 01       		.byte	0x1
 1620 07f6 50       		.byte	0x50
 1621 07f7 23       		.uleb128 0x23
 1622 07f8 00000000 		.4byte	.LBB5
 1623 07fc 06000000 		.4byte	.LBE5
 1624 0800 14080000 		.4byte	0x814
 1625 0804 1F       		.uleb128 0x1f
 1626 0805 746D7000 		.ascii	"tmp\000"
 1627 0809 01       		.byte	0x1
 1628 080a 61       		.byte	0x61
ARM GAS  C:\Users\DNIEL~1\AppData\Local\Temp\ccDJyHwx.s 			page 30


 1629 080b 86000000 		.4byte	0x86
 1630 080f F8000000 		.4byte	.LLST8
 1631 0813 00       		.byte	0
 1632 0814 24       		.uleb128 0x24
 1633 0815 18000000 		.4byte	.Ldebug_ranges0+0x18
 1634 0819 1F       		.uleb128 0x1f
 1635 081a 746D7000 		.ascii	"tmp\000"
 1636 081e 01       		.byte	0x1
 1637 081f 63       		.byte	0x63
 1638 0820 86000000 		.4byte	0x86
 1639 0824 0B010000 		.4byte	.LLST9
 1640 0828 00       		.byte	0
 1641 0829 00       		.byte	0
 1642 082a 26       		.uleb128 0x26
 1643 082b 01       		.byte	0x1
 1644 082c 9B040000 		.4byte	.LASF89
 1645 0830 01       		.byte	0x1
 1646 0831 67       		.byte	0x67
 1647 0832 01       		.byte	0x1
 1648 0833 86000000 		.4byte	0x86
 1649 0837 00000000 		.4byte	.LFB124
 1650 083b 20000000 		.4byte	.LFE124
 1651 083f 1E010000 		.4byte	.LLST10
 1652 0843 01       		.byte	0x1
 1653 0844 8C080000 		.4byte	0x88c
 1654 0848 22       		.uleb128 0x22
 1655 0849 746D7000 		.ascii	"tmp\000"
 1656 084d 01       		.byte	0x1
 1657 084e 68       		.byte	0x68
 1658 084f 86000000 		.4byte	0x86
 1659 0853 01       		.byte	0x1
 1660 0854 50       		.byte	0x50
 1661 0855 23       		.uleb128 0x23
 1662 0856 02000000 		.4byte	.LBB8
 1663 085a 08000000 		.4byte	.LBE8
 1664 085e 72080000 		.4byte	0x872
 1665 0862 1F       		.uleb128 0x1f
 1666 0863 746D7000 		.ascii	"tmp\000"
 1667 0867 01       		.byte	0x1
 1668 0868 6A       		.byte	0x6a
 1669 0869 86000000 		.4byte	0x86
 1670 086d 3E010000 		.4byte	.LLST11
 1671 0871 00       		.byte	0
 1672 0872 27       		.uleb128 0x27
 1673 0873 18000000 		.4byte	.LBB9
 1674 0877 1E000000 		.4byte	.LBE9
 1675 087b 1F       		.uleb128 0x1f
 1676 087c 746D7000 		.ascii	"tmp\000"
 1677 0880 01       		.byte	0x1
 1678 0881 6C       		.byte	0x6c
 1679 0882 86000000 		.4byte	0x86
 1680 0886 51010000 		.4byte	.LLST12
 1681 088a 00       		.byte	0
 1682 088b 00       		.byte	0
 1683 088c 1A       		.uleb128 0x1a
 1684 088d 01       		.byte	0x1
 1685 088e F4030000 		.4byte	.LASF90
ARM GAS  C:\Users\DNIEL~1\AppData\Local\Temp\ccDJyHwx.s 			page 31


 1686 0892 01       		.byte	0x1
 1687 0893 70       		.byte	0x70
 1688 0894 01       		.byte	0x1
 1689 0895 00000000 		.4byte	.LFB125
 1690 0899 84000000 		.4byte	.LFE125
 1691 089d 64010000 		.4byte	.LLST13
 1692 08a1 01       		.byte	0x1
 1693 08a2 94090000 		.4byte	0x994
 1694 08a6 28       		.uleb128 0x28
 1695 08a7 63687000 		.ascii	"chp\000"
 1696 08ab 01       		.byte	0x1
 1697 08ac 70       		.byte	0x70
 1698 08ad 94090000 		.4byte	0x994
 1699 08b1 84010000 		.4byte	.LLST14
 1700 08b5 19       		.uleb128 0x19
 1701 08b6 6C040000 		.4byte	.LASF91
 1702 08ba 01       		.byte	0x1
 1703 08bb 70       		.byte	0x70
 1704 08bc 29000000 		.4byte	0x29
 1705 08c0 C3010000 		.4byte	.LLST15
 1706 08c4 19       		.uleb128 0x19
 1707 08c5 90040000 		.4byte	.LASF92
 1708 08c9 01       		.byte	0x1
 1709 08ca 70       		.byte	0x70
 1710 08cb 9A090000 		.4byte	0x99a
 1711 08cf E4010000 		.4byte	.LLST16
 1712 08d3 1B       		.uleb128 0x1b
 1713 08d4 10000000 		.4byte	.LVL34
 1714 08d8 650A0000 		.4byte	0xa65
 1715 08dc F0080000 		.4byte	0x8f0
 1716 08e0 1C       		.uleb128 0x1c
 1717 08e1 01       		.byte	0x1
 1718 08e2 51       		.byte	0x51
 1719 08e3 05       		.byte	0x5
 1720 08e4 03       		.byte	0x3
 1721 08e5 00000000 		.4byte	.LC0
 1722 08e9 1C       		.uleb128 0x1c
 1723 08ea 01       		.byte	0x1
 1724 08eb 50       		.byte	0x50
 1725 08ec 02       		.byte	0x2
 1726 08ed 74       		.byte	0x74
 1727 08ee 00       		.sleb128 0
 1728 08ef 00       		.byte	0
 1729 08f0 1B       		.uleb128 0x1b
 1730 08f1 18000000 		.4byte	.LVL35
 1731 08f5 650A0000 		.4byte	0xa65
 1732 08f9 0D090000 		.4byte	0x90d
 1733 08fd 1C       		.uleb128 0x1c
 1734 08fe 01       		.byte	0x1
 1735 08ff 51       		.byte	0x51
 1736 0900 05       		.byte	0x5
 1737 0901 03       		.byte	0x3
 1738 0902 04000000 		.4byte	.LC1
 1739 0906 1C       		.uleb128 0x1c
 1740 0907 01       		.byte	0x1
 1741 0908 50       		.byte	0x50
 1742 0909 02       		.byte	0x2
ARM GAS  C:\Users\DNIEL~1\AppData\Local\Temp\ccDJyHwx.s 			page 32


 1743 090a 74       		.byte	0x74
 1744 090b 00       		.sleb128 0
 1745 090c 00       		.byte	0
 1746 090d 29       		.uleb128 0x29
 1747 090e 1E000000 		.4byte	.LVL37
 1748 0912 650A0000 		.4byte	0xa65
 1749 0916 1B       		.uleb128 0x1b
 1750 0917 28000000 		.4byte	.LVL38
 1751 091b 650A0000 		.4byte	0xa65
 1752 091f 33090000 		.4byte	0x933
 1753 0923 1C       		.uleb128 0x1c
 1754 0924 01       		.byte	0x1
 1755 0925 51       		.byte	0x51
 1756 0926 05       		.byte	0x5
 1757 0927 03       		.byte	0x3
 1758 0928 18000000 		.4byte	.LC3
 1759 092c 1C       		.uleb128 0x1c
 1760 092d 01       		.byte	0x1
 1761 092e 50       		.byte	0x50
 1762 092f 02       		.byte	0x2
 1763 0930 74       		.byte	0x74
 1764 0931 00       		.sleb128 0
 1765 0932 00       		.byte	0
 1766 0933 1B       		.uleb128 0x1b
 1767 0934 32000000 		.4byte	.LVL39
 1768 0938 650A0000 		.4byte	0xa65
 1769 093c 50090000 		.4byte	0x950
 1770 0940 1C       		.uleb128 0x1c
 1771 0941 01       		.byte	0x1
 1772 0942 51       		.byte	0x51
 1773 0943 05       		.byte	0x5
 1774 0944 03       		.byte	0x3
 1775 0945 34000000 		.4byte	.LC4
 1776 0949 1C       		.uleb128 0x1c
 1777 094a 01       		.byte	0x1
 1778 094b 50       		.byte	0x50
 1779 094c 02       		.byte	0x2
 1780 094d 74       		.byte	0x74
 1781 094e 00       		.sleb128 0
 1782 094f 00       		.byte	0
 1783 0950 1B       		.uleb128 0x1b
 1784 0951 3E000000 		.4byte	.LVL40
 1785 0955 650A0000 		.4byte	0xa65
 1786 0959 6D090000 		.4byte	0x96d
 1787 095d 1C       		.uleb128 0x1c
 1788 095e 01       		.byte	0x1
 1789 095f 51       		.byte	0x51
 1790 0960 05       		.byte	0x5
 1791 0961 03       		.byte	0x3
 1792 0962 4C000000 		.4byte	.LC5
 1793 0966 1C       		.uleb128 0x1c
 1794 0967 01       		.byte	0x1
 1795 0968 50       		.byte	0x50
 1796 0969 02       		.byte	0x2
 1797 096a 74       		.byte	0x74
 1798 096b 00       		.sleb128 0
 1799 096c 00       		.byte	0
ARM GAS  C:\Users\DNIEL~1\AppData\Local\Temp\ccDJyHwx.s 			page 33


 1800 096d 1B       		.uleb128 0x1b
 1801 096e 46000000 		.4byte	.LVL41
 1802 0972 7F0A0000 		.4byte	0xa7f
 1803 0976 82090000 		.4byte	0x982
 1804 097a 1C       		.uleb128 0x1c
 1805 097b 01       		.byte	0x1
 1806 097c 50       		.byte	0x50
 1807 097d 03       		.byte	0x3
 1808 097e 0A       		.byte	0xa
 1809 097f E803     		.2byte	0x3e8
 1810 0981 00       		.byte	0
 1811 0982 2A       		.uleb128 0x2a
 1812 0983 50000000 		.4byte	.LVL42
 1813 0987 1C       		.uleb128 0x1c
 1814 0988 01       		.byte	0x1
 1815 0989 51       		.byte	0x51
 1816 098a 01       		.byte	0x1
 1817 098b 30       		.byte	0x30
 1818 098c 1C       		.uleb128 0x1c
 1819 098d 01       		.byte	0x1
 1820 098e 50       		.byte	0x50
 1821 098f 02       		.byte	0x2
 1822 0990 74       		.byte	0x74
 1823 0991 00       		.sleb128 0
 1824 0992 00       		.byte	0
 1825 0993 00       		.byte	0
 1826 0994 07       		.uleb128 0x7
 1827 0995 04       		.byte	0x4
 1828 0996 C5010000 		.4byte	0x1c5
 1829 099a 07       		.uleb128 0x7
 1830 099b 04       		.byte	0x4
 1831 099c A0090000 		.4byte	0x9a0
 1832 09a0 07       		.uleb128 0x7
 1833 09a1 04       		.byte	0x4
 1834 09a2 D5000000 		.4byte	0xd5
 1835 09a6 0F       		.uleb128 0xf
 1836 09a7 69070000 		.4byte	0x769
 1837 09ab B6090000 		.4byte	0x9b6
 1838 09af 10       		.uleb128 0x10
 1839 09b0 C3000000 		.4byte	0xc3
 1840 09b4 2F       		.byte	0x2f
 1841 09b5 00       		.byte	0
 1842 09b6 25       		.uleb128 0x25
 1843 09b7 8A010000 		.4byte	.LASF93
 1844 09bb 01       		.byte	0x1
 1845 09bc 10       		.byte	0x10
 1846 09bd A6090000 		.4byte	0x9a6
 1847 09c1 05       		.byte	0x5
 1848 09c2 03       		.byte	0x3
 1849 09c3 00000000 		.4byte	rpm_buff
 1850 09c7 25       		.uleb128 0x25
 1851 09c8 32010000 		.4byte	.LASF94
 1852 09cc 01       		.byte	0x1
 1853 09cd 12       		.byte	0x12
 1854 09ce 29000000 		.4byte	0x29
 1855 09d2 05       		.byte	0x5
 1856 09d3 03       		.byte	0x3
ARM GAS  C:\Users\DNIEL~1\AppData\Local\Temp\ccDJyHwx.s 			page 34


 1857 09d4 00000000 		.4byte	rpm_index
 1858 09d8 25       		.uleb128 0x25
 1859 09d9 83040000 		.4byte	.LASF95
 1860 09dd 01       		.byte	0x1
 1861 09de 17       		.byte	0x17
 1862 09df 7D060000 		.4byte	0x67d
 1863 09e3 05       		.byte	0x5
 1864 09e4 03       		.byte	0x3
 1865 09e5 00000000 		.4byte	icucfg
 1866 09e9 25       		.uleb128 0x25
 1867 09ea 71040000 		.4byte	.LASF96
 1868 09ee 01       		.byte	0x1
 1869 09ef 20       		.byte	0x20
 1870 09f0 86000000 		.4byte	0x86
 1871 09f4 05       		.byte	0x5
 1872 09f5 03       		.byte	0x3
 1873 09f6 00000000 		.4byte	speed_last_period
 1874 09fa 25       		.uleb128 0x25
 1875 09fb CB000000 		.4byte	.LASF97
 1876 09ff 01       		.byte	0x1
 1877 0a00 21       		.byte	0x21
 1878 0a01 86000000 		.4byte	0x86
 1879 0a05 05       		.byte	0x5
 1880 0a06 03       		.byte	0x3
 1881 0a07 00000000 		.4byte	speed_period_num
 1882 0a0b 25       		.uleb128 0x25
 1883 0a0c A2030000 		.4byte	.LASF98
 1884 0a10 01       		.byte	0x1
 1885 0a11 23       		.byte	0x23
 1886 0a12 69070000 		.4byte	0x769
 1887 0a16 05       		.byte	0x5
 1888 0a17 03       		.byte	0x3
 1889 0a18 00000000 		.4byte	rotation
 1890 0a1c 2B       		.uleb128 0x2b
 1891 0a1d DC000000 		.4byte	.LASF99
 1892 0a21 0A       		.byte	0xa
 1893 0a22 9806     		.2byte	0x698
 1894 0a24 E5010000 		.4byte	0x1e5
 1895 0a28 01       		.byte	0x1
 1896 0a29 01       		.byte	0x1
 1897 0a2a 2B       		.uleb128 0x2b
 1898 0a2b D5010000 		.4byte	.LASF100
 1899 0a2f 09       		.byte	0x9
 1900 0a30 5301     		.2byte	0x153
 1901 0a32 3C050000 		.4byte	0x53c
 1902 0a36 01       		.byte	0x1
 1903 0a37 01       		.byte	0x1
 1904 0a38 2C       		.uleb128 0x2c
 1905 0a39 01       		.byte	0x1
 1906 0a3a 9A010000 		.4byte	.LASF101
 1907 0a3e 08       		.byte	0x8
 1908 0a3f B6       		.byte	0xb6
 1909 0a40 01       		.byte	0x1
 1910 0a41 01       		.byte	0x1
 1911 0a42 510A0000 		.4byte	0xa51
 1912 0a46 0A       		.uleb128 0xa
 1913 0a47 CC050000 		.4byte	0x5cc
ARM GAS  C:\Users\DNIEL~1\AppData\Local\Temp\ccDJyHwx.s 			page 35


 1914 0a4b 0A       		.uleb128 0xa
 1915 0a4c 89060000 		.4byte	0x689
 1916 0a50 00       		.byte	0
 1917 0a51 2C       		.uleb128 0x2c
 1918 0a52 01       		.byte	0x1
 1919 0a53 98030000 		.4byte	.LASF102
 1920 0a57 08       		.byte	0x8
 1921 0a58 B8       		.byte	0xb8
 1922 0a59 01       		.byte	0x1
 1923 0a5a 01       		.byte	0x1
 1924 0a5b 650A0000 		.4byte	0xa65
 1925 0a5f 0A       		.uleb128 0xa
 1926 0a60 CC050000 		.4byte	0x5cc
 1927 0a64 00       		.byte	0
 1928 0a65 2C       		.uleb128 0x2c
 1929 0a66 01       		.byte	0x1
 1930 0a67 A7040000 		.4byte	.LASF103
 1931 0a6b 0B       		.byte	0xb
 1932 0a6c 2A       		.byte	0x2a
 1933 0a6d 01       		.byte	0x1
 1934 0a6e 01       		.byte	0x1
 1935 0a6f 7F0A0000 		.4byte	0xa7f
 1936 0a73 0A       		.uleb128 0xa
 1937 0a74 94090000 		.4byte	0x994
 1938 0a78 0A       		.uleb128 0xa
 1939 0a79 CA000000 		.4byte	0xca
 1940 0a7d 2D       		.uleb128 0x2d
 1941 0a7e 00       		.byte	0
 1942 0a7f 2E       		.uleb128 0x2e
 1943 0a80 01       		.byte	0x1
 1944 0a81 22000000 		.4byte	.LASF107
 1945 0a85 0C       		.byte	0xc
 1946 0a86 6901     		.2byte	0x169
 1947 0a88 01       		.byte	0x1
 1948 0a89 01       		.byte	0x1
 1949 0a8a 0A       		.uleb128 0xa
 1950 0a8b B1000000 		.4byte	0xb1
 1951 0a8f 00       		.byte	0
 1952 0a90 00       		.byte	0
 1953              		.section	.debug_abbrev,"",%progbits
 1954              	.Ldebug_abbrev0:
 1955 0000 01       		.uleb128 0x1
 1956 0001 11       		.uleb128 0x11
 1957 0002 01       		.byte	0x1
 1958 0003 25       		.uleb128 0x25
 1959 0004 0E       		.uleb128 0xe
 1960 0005 13       		.uleb128 0x13
 1961 0006 0B       		.uleb128 0xb
 1962 0007 03       		.uleb128 0x3
 1963 0008 0E       		.uleb128 0xe
 1964 0009 1B       		.uleb128 0x1b
 1965 000a 0E       		.uleb128 0xe
 1966 000b 55       		.uleb128 0x55
 1967 000c 06       		.uleb128 0x6
 1968 000d 11       		.uleb128 0x11
 1969 000e 01       		.uleb128 0x1
 1970 000f 52       		.uleb128 0x52
ARM GAS  C:\Users\DNIEL~1\AppData\Local\Temp\ccDJyHwx.s 			page 36


 1971 0010 01       		.uleb128 0x1
 1972 0011 10       		.uleb128 0x10
 1973 0012 06       		.uleb128 0x6
 1974 0013 00       		.byte	0
 1975 0014 00       		.byte	0
 1976 0015 02       		.uleb128 0x2
 1977 0016 24       		.uleb128 0x24
 1978 0017 00       		.byte	0
 1979 0018 0B       		.uleb128 0xb
 1980 0019 0B       		.uleb128 0xb
 1981 001a 3E       		.uleb128 0x3e
 1982 001b 0B       		.uleb128 0xb
 1983 001c 03       		.uleb128 0x3
 1984 001d 08       		.uleb128 0x8
 1985 001e 00       		.byte	0
 1986 001f 00       		.byte	0
 1987 0020 03       		.uleb128 0x3
 1988 0021 16       		.uleb128 0x16
 1989 0022 00       		.byte	0
 1990 0023 03       		.uleb128 0x3
 1991 0024 0E       		.uleb128 0xe
 1992 0025 3A       		.uleb128 0x3a
 1993 0026 0B       		.uleb128 0xb
 1994 0027 3B       		.uleb128 0x3b
 1995 0028 0B       		.uleb128 0xb
 1996 0029 49       		.uleb128 0x49
 1997 002a 13       		.uleb128 0x13
 1998 002b 00       		.byte	0
 1999 002c 00       		.byte	0
 2000 002d 04       		.uleb128 0x4
 2001 002e 24       		.uleb128 0x24
 2002 002f 00       		.byte	0
 2003 0030 0B       		.uleb128 0xb
 2004 0031 0B       		.uleb128 0xb
 2005 0032 3E       		.uleb128 0x3e
 2006 0033 0B       		.uleb128 0xb
 2007 0034 03       		.uleb128 0x3
 2008 0035 0E       		.uleb128 0xe
 2009 0036 00       		.byte	0
 2010 0037 00       		.byte	0
 2011 0038 05       		.uleb128 0x5
 2012 0039 0F       		.uleb128 0xf
 2013 003a 00       		.byte	0
 2014 003b 0B       		.uleb128 0xb
 2015 003c 0B       		.uleb128 0xb
 2016 003d 00       		.byte	0
 2017 003e 00       		.byte	0
 2018 003f 06       		.uleb128 0x6
 2019 0040 35       		.uleb128 0x35
 2020 0041 00       		.byte	0
 2021 0042 49       		.uleb128 0x49
 2022 0043 13       		.uleb128 0x13
 2023 0044 00       		.byte	0
 2024 0045 00       		.byte	0
 2025 0046 07       		.uleb128 0x7
 2026 0047 0F       		.uleb128 0xf
 2027 0048 00       		.byte	0
ARM GAS  C:\Users\DNIEL~1\AppData\Local\Temp\ccDJyHwx.s 			page 37


 2028 0049 0B       		.uleb128 0xb
 2029 004a 0B       		.uleb128 0xb
 2030 004b 49       		.uleb128 0x49
 2031 004c 13       		.uleb128 0x13
 2032 004d 00       		.byte	0
 2033 004e 00       		.byte	0
 2034 004f 08       		.uleb128 0x8
 2035 0050 26       		.uleb128 0x26
 2036 0051 00       		.byte	0
 2037 0052 49       		.uleb128 0x49
 2038 0053 13       		.uleb128 0x13
 2039 0054 00       		.byte	0
 2040 0055 00       		.byte	0
 2041 0056 09       		.uleb128 0x9
 2042 0057 15       		.uleb128 0x15
 2043 0058 01       		.byte	0x1
 2044 0059 27       		.uleb128 0x27
 2045 005a 0C       		.uleb128 0xc
 2046 005b 49       		.uleb128 0x49
 2047 005c 13       		.uleb128 0x13
 2048 005d 01       		.uleb128 0x1
 2049 005e 13       		.uleb128 0x13
 2050 005f 00       		.byte	0
 2051 0060 00       		.byte	0
 2052 0061 0A       		.uleb128 0xa
 2053 0062 05       		.uleb128 0x5
 2054 0063 00       		.byte	0
 2055 0064 49       		.uleb128 0x49
 2056 0065 13       		.uleb128 0x13
 2057 0066 00       		.byte	0
 2058 0067 00       		.byte	0
 2059 0068 0B       		.uleb128 0xb
 2060 0069 13       		.uleb128 0x13
 2061 006a 01       		.byte	0x1
 2062 006b 03       		.uleb128 0x3
 2063 006c 0E       		.uleb128 0xe
 2064 006d 0B       		.uleb128 0xb
 2065 006e 0B       		.uleb128 0xb
 2066 006f 3A       		.uleb128 0x3a
 2067 0070 0B       		.uleb128 0xb
 2068 0071 3B       		.uleb128 0x3b
 2069 0072 0B       		.uleb128 0xb
 2070 0073 01       		.uleb128 0x1
 2071 0074 13       		.uleb128 0x13
 2072 0075 00       		.byte	0
 2073 0076 00       		.byte	0
 2074 0077 0C       		.uleb128 0xc
 2075 0078 0D       		.uleb128 0xd
 2076 0079 00       		.byte	0
 2077 007a 03       		.uleb128 0x3
 2078 007b 0E       		.uleb128 0xe
 2079 007c 3A       		.uleb128 0x3a
 2080 007d 0B       		.uleb128 0xb
 2081 007e 3B       		.uleb128 0x3b
 2082 007f 0B       		.uleb128 0xb
 2083 0080 49       		.uleb128 0x49
 2084 0081 13       		.uleb128 0x13
ARM GAS  C:\Users\DNIEL~1\AppData\Local\Temp\ccDJyHwx.s 			page 38


 2085 0082 38       		.uleb128 0x38
 2086 0083 0A       		.uleb128 0xa
 2087 0084 00       		.byte	0
 2088 0085 00       		.byte	0
 2089 0086 0D       		.uleb128 0xd
 2090 0087 0D       		.uleb128 0xd
 2091 0088 00       		.byte	0
 2092 0089 03       		.uleb128 0x3
 2093 008a 08       		.uleb128 0x8
 2094 008b 3A       		.uleb128 0x3a
 2095 008c 0B       		.uleb128 0xb
 2096 008d 3B       		.uleb128 0x3b
 2097 008e 0B       		.uleb128 0xb
 2098 008f 49       		.uleb128 0x49
 2099 0090 13       		.uleb128 0x13
 2100 0091 38       		.uleb128 0x38
 2101 0092 0A       		.uleb128 0xa
 2102 0093 00       		.byte	0
 2103 0094 00       		.byte	0
 2104 0095 0E       		.uleb128 0xe
 2105 0096 13       		.uleb128 0x13
 2106 0097 01       		.byte	0x1
 2107 0098 0B       		.uleb128 0xb
 2108 0099 0B       		.uleb128 0xb
 2109 009a 3A       		.uleb128 0x3a
 2110 009b 0B       		.uleb128 0xb
 2111 009c 3B       		.uleb128 0x3b
 2112 009d 0B       		.uleb128 0xb
 2113 009e 01       		.uleb128 0x1
 2114 009f 13       		.uleb128 0x13
 2115 00a0 00       		.byte	0
 2116 00a1 00       		.byte	0
 2117 00a2 0F       		.uleb128 0xf
 2118 00a3 01       		.uleb128 0x1
 2119 00a4 01       		.byte	0x1
 2120 00a5 49       		.uleb128 0x49
 2121 00a6 13       		.uleb128 0x13
 2122 00a7 01       		.uleb128 0x1
 2123 00a8 13       		.uleb128 0x13
 2124 00a9 00       		.byte	0
 2125 00aa 00       		.byte	0
 2126 00ab 10       		.uleb128 0x10
 2127 00ac 21       		.uleb128 0x21
 2128 00ad 00       		.byte	0
 2129 00ae 49       		.uleb128 0x49
 2130 00af 13       		.uleb128 0x13
 2131 00b0 2F       		.uleb128 0x2f
 2132 00b1 0B       		.uleb128 0xb
 2133 00b2 00       		.byte	0
 2134 00b3 00       		.byte	0
 2135 00b4 11       		.uleb128 0x11
 2136 00b5 04       		.uleb128 0x4
 2137 00b6 01       		.byte	0x1
 2138 00b7 0B       		.uleb128 0xb
 2139 00b8 0B       		.uleb128 0xb
 2140 00b9 3A       		.uleb128 0x3a
 2141 00ba 0B       		.uleb128 0xb
ARM GAS  C:\Users\DNIEL~1\AppData\Local\Temp\ccDJyHwx.s 			page 39


 2142 00bb 3B       		.uleb128 0x3b
 2143 00bc 0B       		.uleb128 0xb
 2144 00bd 01       		.uleb128 0x1
 2145 00be 13       		.uleb128 0x13
 2146 00bf 00       		.byte	0
 2147 00c0 00       		.byte	0
 2148 00c1 12       		.uleb128 0x12
 2149 00c2 28       		.uleb128 0x28
 2150 00c3 00       		.byte	0
 2151 00c4 03       		.uleb128 0x3
 2152 00c5 0E       		.uleb128 0xe
 2153 00c6 1C       		.uleb128 0x1c
 2154 00c7 0D       		.uleb128 0xd
 2155 00c8 00       		.byte	0
 2156 00c9 00       		.byte	0
 2157 00ca 13       		.uleb128 0x13
 2158 00cb 13       		.uleb128 0x13
 2159 00cc 01       		.byte	0x1
 2160 00cd 03       		.uleb128 0x3
 2161 00ce 0E       		.uleb128 0xe
 2162 00cf 0B       		.uleb128 0xb
 2163 00d0 0B       		.uleb128 0xb
 2164 00d1 3A       		.uleb128 0x3a
 2165 00d2 0B       		.uleb128 0xb
 2166 00d3 3B       		.uleb128 0x3b
 2167 00d4 05       		.uleb128 0x5
 2168 00d5 01       		.uleb128 0x1
 2169 00d6 13       		.uleb128 0x13
 2170 00d7 00       		.byte	0
 2171 00d8 00       		.byte	0
 2172 00d9 14       		.uleb128 0x14
 2173 00da 0D       		.uleb128 0xd
 2174 00db 00       		.byte	0
 2175 00dc 03       		.uleb128 0x3
 2176 00dd 0E       		.uleb128 0xe
 2177 00de 3A       		.uleb128 0x3a
 2178 00df 0B       		.uleb128 0xb
 2179 00e0 3B       		.uleb128 0x3b
 2180 00e1 05       		.uleb128 0x5
 2181 00e2 49       		.uleb128 0x49
 2182 00e3 13       		.uleb128 0x13
 2183 00e4 38       		.uleb128 0x38
 2184 00e5 0A       		.uleb128 0xa
 2185 00e6 00       		.byte	0
 2186 00e7 00       		.byte	0
 2187 00e8 15       		.uleb128 0x15
 2188 00e9 0D       		.uleb128 0xd
 2189 00ea 00       		.byte	0
 2190 00eb 03       		.uleb128 0x3
 2191 00ec 08       		.uleb128 0x8
 2192 00ed 3A       		.uleb128 0x3a
 2193 00ee 0B       		.uleb128 0xb
 2194 00ef 3B       		.uleb128 0x3b
 2195 00f0 05       		.uleb128 0x5
 2196 00f1 49       		.uleb128 0x49
 2197 00f2 13       		.uleb128 0x13
 2198 00f3 38       		.uleb128 0x38
ARM GAS  C:\Users\DNIEL~1\AppData\Local\Temp\ccDJyHwx.s 			page 40


 2199 00f4 0A       		.uleb128 0xa
 2200 00f5 00       		.byte	0
 2201 00f6 00       		.byte	0
 2202 00f7 16       		.uleb128 0x16
 2203 00f8 15       		.uleb128 0x15
 2204 00f9 01       		.byte	0x1
 2205 00fa 27       		.uleb128 0x27
 2206 00fb 0C       		.uleb128 0xc
 2207 00fc 01       		.uleb128 0x1
 2208 00fd 13       		.uleb128 0x13
 2209 00fe 00       		.byte	0
 2210 00ff 00       		.byte	0
 2211 0100 17       		.uleb128 0x17
 2212 0101 16       		.uleb128 0x16
 2213 0102 00       		.byte	0
 2214 0103 03       		.uleb128 0x3
 2215 0104 0E       		.uleb128 0xe
 2216 0105 3A       		.uleb128 0x3a
 2217 0106 0B       		.uleb128 0xb
 2218 0107 3B       		.uleb128 0x3b
 2219 0108 05       		.uleb128 0x5
 2220 0109 49       		.uleb128 0x49
 2221 010a 13       		.uleb128 0x13
 2222 010b 00       		.byte	0
 2223 010c 00       		.byte	0
 2224 010d 18       		.uleb128 0x18
 2225 010e 2E       		.uleb128 0x2e
 2226 010f 01       		.byte	0x1
 2227 0110 03       		.uleb128 0x3
 2228 0111 0E       		.uleb128 0xe
 2229 0112 3A       		.uleb128 0x3a
 2230 0113 0B       		.uleb128 0xb
 2231 0114 3B       		.uleb128 0x3b
 2232 0115 0B       		.uleb128 0xb
 2233 0116 27       		.uleb128 0x27
 2234 0117 0C       		.uleb128 0xc
 2235 0118 11       		.uleb128 0x11
 2236 0119 01       		.uleb128 0x1
 2237 011a 12       		.uleb128 0x12
 2238 011b 01       		.uleb128 0x1
 2239 011c 40       		.uleb128 0x40
 2240 011d 0A       		.uleb128 0xa
 2241 011e 9742     		.uleb128 0x2117
 2242 0120 0C       		.uleb128 0xc
 2243 0121 01       		.uleb128 0x1
 2244 0122 13       		.uleb128 0x13
 2245 0123 00       		.byte	0
 2246 0124 00       		.byte	0
 2247 0125 19       		.uleb128 0x19
 2248 0126 05       		.uleb128 0x5
 2249 0127 00       		.byte	0
 2250 0128 03       		.uleb128 0x3
 2251 0129 0E       		.uleb128 0xe
 2252 012a 3A       		.uleb128 0x3a
 2253 012b 0B       		.uleb128 0xb
 2254 012c 3B       		.uleb128 0x3b
 2255 012d 0B       		.uleb128 0xb
ARM GAS  C:\Users\DNIEL~1\AppData\Local\Temp\ccDJyHwx.s 			page 41


 2256 012e 49       		.uleb128 0x49
 2257 012f 13       		.uleb128 0x13
 2258 0130 02       		.uleb128 0x2
 2259 0131 06       		.uleb128 0x6
 2260 0132 00       		.byte	0
 2261 0133 00       		.byte	0
 2262 0134 1A       		.uleb128 0x1a
 2263 0135 2E       		.uleb128 0x2e
 2264 0136 01       		.byte	0x1
 2265 0137 3F       		.uleb128 0x3f
 2266 0138 0C       		.uleb128 0xc
 2267 0139 03       		.uleb128 0x3
 2268 013a 0E       		.uleb128 0xe
 2269 013b 3A       		.uleb128 0x3a
 2270 013c 0B       		.uleb128 0xb
 2271 013d 3B       		.uleb128 0x3b
 2272 013e 0B       		.uleb128 0xb
 2273 013f 27       		.uleb128 0x27
 2274 0140 0C       		.uleb128 0xc
 2275 0141 11       		.uleb128 0x11
 2276 0142 01       		.uleb128 0x1
 2277 0143 12       		.uleb128 0x12
 2278 0144 01       		.uleb128 0x1
 2279 0145 40       		.uleb128 0x40
 2280 0146 06       		.uleb128 0x6
 2281 0147 9742     		.uleb128 0x2117
 2282 0149 0C       		.uleb128 0xc
 2283 014a 01       		.uleb128 0x1
 2284 014b 13       		.uleb128 0x13
 2285 014c 00       		.byte	0
 2286 014d 00       		.byte	0
 2287 014e 1B       		.uleb128 0x1b
 2288 014f 898201   		.uleb128 0x4109
 2289 0152 01       		.byte	0x1
 2290 0153 11       		.uleb128 0x11
 2291 0154 01       		.uleb128 0x1
 2292 0155 31       		.uleb128 0x31
 2293 0156 13       		.uleb128 0x13
 2294 0157 01       		.uleb128 0x1
 2295 0158 13       		.uleb128 0x13
 2296 0159 00       		.byte	0
 2297 015a 00       		.byte	0
 2298 015b 1C       		.uleb128 0x1c
 2299 015c 8A8201   		.uleb128 0x410a
 2300 015f 00       		.byte	0
 2301 0160 02       		.uleb128 0x2
 2302 0161 0A       		.uleb128 0xa
 2303 0162 9142     		.uleb128 0x2111
 2304 0164 0A       		.uleb128 0xa
 2305 0165 00       		.byte	0
 2306 0166 00       		.byte	0
 2307 0167 1D       		.uleb128 0x1d
 2308 0168 898201   		.uleb128 0x4109
 2309 016b 01       		.byte	0x1
 2310 016c 11       		.uleb128 0x11
 2311 016d 01       		.uleb128 0x1
 2312 016e 31       		.uleb128 0x31
ARM GAS  C:\Users\DNIEL~1\AppData\Local\Temp\ccDJyHwx.s 			page 42


 2313 016f 13       		.uleb128 0x13
 2314 0170 00       		.byte	0
 2315 0171 00       		.byte	0
 2316 0172 1E       		.uleb128 0x1e
 2317 0173 2E       		.uleb128 0x2e
 2318 0174 01       		.byte	0x1
 2319 0175 3F       		.uleb128 0x3f
 2320 0176 0C       		.uleb128 0xc
 2321 0177 03       		.uleb128 0x3
 2322 0178 0E       		.uleb128 0xe
 2323 0179 3A       		.uleb128 0x3a
 2324 017a 0B       		.uleb128 0xb
 2325 017b 3B       		.uleb128 0x3b
 2326 017c 0B       		.uleb128 0xb
 2327 017d 27       		.uleb128 0x27
 2328 017e 0C       		.uleb128 0xc
 2329 017f 11       		.uleb128 0x11
 2330 0180 01       		.uleb128 0x1
 2331 0181 12       		.uleb128 0x12
 2332 0182 01       		.uleb128 0x1
 2333 0183 40       		.uleb128 0x40
 2334 0184 06       		.uleb128 0x6
 2335 0185 9642     		.uleb128 0x2116
 2336 0187 0C       		.uleb128 0xc
 2337 0188 01       		.uleb128 0x1
 2338 0189 13       		.uleb128 0x13
 2339 018a 00       		.byte	0
 2340 018b 00       		.byte	0
 2341 018c 1F       		.uleb128 0x1f
 2342 018d 34       		.uleb128 0x34
 2343 018e 00       		.byte	0
 2344 018f 03       		.uleb128 0x3
 2345 0190 08       		.uleb128 0x8
 2346 0191 3A       		.uleb128 0x3a
 2347 0192 0B       		.uleb128 0xb
 2348 0193 3B       		.uleb128 0x3b
 2349 0194 0B       		.uleb128 0xb
 2350 0195 49       		.uleb128 0x49
 2351 0196 13       		.uleb128 0x13
 2352 0197 02       		.uleb128 0x2
 2353 0198 06       		.uleb128 0x6
 2354 0199 00       		.byte	0
 2355 019a 00       		.byte	0
 2356 019b 20       		.uleb128 0x20
 2357 019c 34       		.uleb128 0x34
 2358 019d 00       		.byte	0
 2359 019e 03       		.uleb128 0x3
 2360 019f 0E       		.uleb128 0xe
 2361 01a0 3A       		.uleb128 0x3a
 2362 01a1 0B       		.uleb128 0xb
 2363 01a2 3B       		.uleb128 0x3b
 2364 01a3 0B       		.uleb128 0xb
 2365 01a4 49       		.uleb128 0x49
 2366 01a5 13       		.uleb128 0x13
 2367 01a6 02       		.uleb128 0x2
 2368 01a7 06       		.uleb128 0x6
 2369 01a8 00       		.byte	0
ARM GAS  C:\Users\DNIEL~1\AppData\Local\Temp\ccDJyHwx.s 			page 43


 2370 01a9 00       		.byte	0
 2371 01aa 21       		.uleb128 0x21
 2372 01ab 2E       		.uleb128 0x2e
 2373 01ac 01       		.byte	0x1
 2374 01ad 3F       		.uleb128 0x3f
 2375 01ae 0C       		.uleb128 0xc
 2376 01af 03       		.uleb128 0x3
 2377 01b0 0E       		.uleb128 0xe
 2378 01b1 3A       		.uleb128 0x3a
 2379 01b2 0B       		.uleb128 0xb
 2380 01b3 3B       		.uleb128 0x3b
 2381 01b4 0B       		.uleb128 0xb
 2382 01b5 27       		.uleb128 0x27
 2383 01b6 0C       		.uleb128 0xc
 2384 01b7 49       		.uleb128 0x49
 2385 01b8 13       		.uleb128 0x13
 2386 01b9 11       		.uleb128 0x11
 2387 01ba 01       		.uleb128 0x1
 2388 01bb 12       		.uleb128 0x12
 2389 01bc 01       		.uleb128 0x1
 2390 01bd 40       		.uleb128 0x40
 2391 01be 0A       		.uleb128 0xa
 2392 01bf 9742     		.uleb128 0x2117
 2393 01c1 0C       		.uleb128 0xc
 2394 01c2 01       		.uleb128 0x1
 2395 01c3 13       		.uleb128 0x13
 2396 01c4 00       		.byte	0
 2397 01c5 00       		.byte	0
 2398 01c6 22       		.uleb128 0x22
 2399 01c7 34       		.uleb128 0x34
 2400 01c8 00       		.byte	0
 2401 01c9 03       		.uleb128 0x3
 2402 01ca 08       		.uleb128 0x8
 2403 01cb 3A       		.uleb128 0x3a
 2404 01cc 0B       		.uleb128 0xb
 2405 01cd 3B       		.uleb128 0x3b
 2406 01ce 0B       		.uleb128 0xb
 2407 01cf 49       		.uleb128 0x49
 2408 01d0 13       		.uleb128 0x13
 2409 01d1 02       		.uleb128 0x2
 2410 01d2 0A       		.uleb128 0xa
 2411 01d3 00       		.byte	0
 2412 01d4 00       		.byte	0
 2413 01d5 23       		.uleb128 0x23
 2414 01d6 0B       		.uleb128 0xb
 2415 01d7 01       		.byte	0x1
 2416 01d8 11       		.uleb128 0x11
 2417 01d9 01       		.uleb128 0x1
 2418 01da 12       		.uleb128 0x12
 2419 01db 01       		.uleb128 0x1
 2420 01dc 01       		.uleb128 0x1
 2421 01dd 13       		.uleb128 0x13
 2422 01de 00       		.byte	0
 2423 01df 00       		.byte	0
 2424 01e0 24       		.uleb128 0x24
 2425 01e1 0B       		.uleb128 0xb
 2426 01e2 01       		.byte	0x1
ARM GAS  C:\Users\DNIEL~1\AppData\Local\Temp\ccDJyHwx.s 			page 44


 2427 01e3 55       		.uleb128 0x55
 2428 01e4 06       		.uleb128 0x6
 2429 01e5 00       		.byte	0
 2430 01e6 00       		.byte	0
 2431 01e7 25       		.uleb128 0x25
 2432 01e8 34       		.uleb128 0x34
 2433 01e9 00       		.byte	0
 2434 01ea 03       		.uleb128 0x3
 2435 01eb 0E       		.uleb128 0xe
 2436 01ec 3A       		.uleb128 0x3a
 2437 01ed 0B       		.uleb128 0xb
 2438 01ee 3B       		.uleb128 0x3b
 2439 01ef 0B       		.uleb128 0xb
 2440 01f0 49       		.uleb128 0x49
 2441 01f1 13       		.uleb128 0x13
 2442 01f2 02       		.uleb128 0x2
 2443 01f3 0A       		.uleb128 0xa
 2444 01f4 00       		.byte	0
 2445 01f5 00       		.byte	0
 2446 01f6 26       		.uleb128 0x26
 2447 01f7 2E       		.uleb128 0x2e
 2448 01f8 01       		.byte	0x1
 2449 01f9 3F       		.uleb128 0x3f
 2450 01fa 0C       		.uleb128 0xc
 2451 01fb 03       		.uleb128 0x3
 2452 01fc 0E       		.uleb128 0xe
 2453 01fd 3A       		.uleb128 0x3a
 2454 01fe 0B       		.uleb128 0xb
 2455 01ff 3B       		.uleb128 0x3b
 2456 0200 0B       		.uleb128 0xb
 2457 0201 27       		.uleb128 0x27
 2458 0202 0C       		.uleb128 0xc
 2459 0203 49       		.uleb128 0x49
 2460 0204 13       		.uleb128 0x13
 2461 0205 11       		.uleb128 0x11
 2462 0206 01       		.uleb128 0x1
 2463 0207 12       		.uleb128 0x12
 2464 0208 01       		.uleb128 0x1
 2465 0209 40       		.uleb128 0x40
 2466 020a 06       		.uleb128 0x6
 2467 020b 9642     		.uleb128 0x2116
 2468 020d 0C       		.uleb128 0xc
 2469 020e 01       		.uleb128 0x1
 2470 020f 13       		.uleb128 0x13
 2471 0210 00       		.byte	0
 2472 0211 00       		.byte	0
 2473 0212 27       		.uleb128 0x27
 2474 0213 0B       		.uleb128 0xb
 2475 0214 01       		.byte	0x1
 2476 0215 11       		.uleb128 0x11
 2477 0216 01       		.uleb128 0x1
 2478 0217 12       		.uleb128 0x12
 2479 0218 01       		.uleb128 0x1
 2480 0219 00       		.byte	0
 2481 021a 00       		.byte	0
 2482 021b 28       		.uleb128 0x28
 2483 021c 05       		.uleb128 0x5
ARM GAS  C:\Users\DNIEL~1\AppData\Local\Temp\ccDJyHwx.s 			page 45


 2484 021d 00       		.byte	0
 2485 021e 03       		.uleb128 0x3
 2486 021f 08       		.uleb128 0x8
 2487 0220 3A       		.uleb128 0x3a
 2488 0221 0B       		.uleb128 0xb
 2489 0222 3B       		.uleb128 0x3b
 2490 0223 0B       		.uleb128 0xb
 2491 0224 49       		.uleb128 0x49
 2492 0225 13       		.uleb128 0x13
 2493 0226 02       		.uleb128 0x2
 2494 0227 06       		.uleb128 0x6
 2495 0228 00       		.byte	0
 2496 0229 00       		.byte	0
 2497 022a 29       		.uleb128 0x29
 2498 022b 898201   		.uleb128 0x4109
 2499 022e 00       		.byte	0
 2500 022f 11       		.uleb128 0x11
 2501 0230 01       		.uleb128 0x1
 2502 0231 31       		.uleb128 0x31
 2503 0232 13       		.uleb128 0x13
 2504 0233 00       		.byte	0
 2505 0234 00       		.byte	0
 2506 0235 2A       		.uleb128 0x2a
 2507 0236 898201   		.uleb128 0x4109
 2508 0239 01       		.byte	0x1
 2509 023a 11       		.uleb128 0x11
 2510 023b 01       		.uleb128 0x1
 2511 023c 00       		.byte	0
 2512 023d 00       		.byte	0
 2513 023e 2B       		.uleb128 0x2b
 2514 023f 34       		.uleb128 0x34
 2515 0240 00       		.byte	0
 2516 0241 03       		.uleb128 0x3
 2517 0242 0E       		.uleb128 0xe
 2518 0243 3A       		.uleb128 0x3a
 2519 0244 0B       		.uleb128 0xb
 2520 0245 3B       		.uleb128 0x3b
 2521 0246 05       		.uleb128 0x5
 2522 0247 49       		.uleb128 0x49
 2523 0248 13       		.uleb128 0x13
 2524 0249 3F       		.uleb128 0x3f
 2525 024a 0C       		.uleb128 0xc
 2526 024b 3C       		.uleb128 0x3c
 2527 024c 0C       		.uleb128 0xc
 2528 024d 00       		.byte	0
 2529 024e 00       		.byte	0
 2530 024f 2C       		.uleb128 0x2c
 2531 0250 2E       		.uleb128 0x2e
 2532 0251 01       		.byte	0x1
 2533 0252 3F       		.uleb128 0x3f
 2534 0253 0C       		.uleb128 0xc
 2535 0254 03       		.uleb128 0x3
 2536 0255 0E       		.uleb128 0xe
 2537 0256 3A       		.uleb128 0x3a
 2538 0257 0B       		.uleb128 0xb
 2539 0258 3B       		.uleb128 0x3b
 2540 0259 0B       		.uleb128 0xb
ARM GAS  C:\Users\DNIEL~1\AppData\Local\Temp\ccDJyHwx.s 			page 46


 2541 025a 27       		.uleb128 0x27
 2542 025b 0C       		.uleb128 0xc
 2543 025c 3C       		.uleb128 0x3c
 2544 025d 0C       		.uleb128 0xc
 2545 025e 01       		.uleb128 0x1
 2546 025f 13       		.uleb128 0x13
 2547 0260 00       		.byte	0
 2548 0261 00       		.byte	0
 2549 0262 2D       		.uleb128 0x2d
 2550 0263 18       		.uleb128 0x18
 2551 0264 00       		.byte	0
 2552 0265 00       		.byte	0
 2553 0266 00       		.byte	0
 2554 0267 2E       		.uleb128 0x2e
 2555 0268 2E       		.uleb128 0x2e
 2556 0269 01       		.byte	0x1
 2557 026a 3F       		.uleb128 0x3f
 2558 026b 0C       		.uleb128 0xc
 2559 026c 03       		.uleb128 0x3
 2560 026d 0E       		.uleb128 0xe
 2561 026e 3A       		.uleb128 0x3a
 2562 026f 0B       		.uleb128 0xb
 2563 0270 3B       		.uleb128 0x3b
 2564 0271 05       		.uleb128 0x5
 2565 0272 27       		.uleb128 0x27
 2566 0273 0C       		.uleb128 0xc
 2567 0274 3C       		.uleb128 0x3c
 2568 0275 0C       		.uleb128 0xc
 2569 0276 00       		.byte	0
 2570 0277 00       		.byte	0
 2571 0278 00       		.byte	0
 2572              		.section	.debug_loc,"",%progbits
 2573              	.Ldebug_loc0:
 2574              	.LLST0:
 2575 0000 00000000 		.4byte	.LVL0
 2576 0004 08000000 		.4byte	.LVL1
 2577 0008 0100     		.2byte	0x1
 2578 000a 50       		.byte	0x50
 2579 000b 08000000 		.4byte	.LVL1
 2580 000f 12000000 		.4byte	.LFE118
 2581 0013 0400     		.2byte	0x4
 2582 0015 F3       		.byte	0xf3
 2583 0016 01       		.uleb128 0x1
 2584 0017 50       		.byte	0x50
 2585 0018 9F       		.byte	0x9f
 2586 0019 00000000 		.4byte	0
 2587 001d 00000000 		.4byte	0
 2588              	.LLST1:
 2589 0021 00000000 		.4byte	.LVL2
 2590 0025 0C000000 		.4byte	.LVL3
 2591 0029 0100     		.2byte	0x1
 2592 002b 50       		.byte	0x50
 2593 002c 0C000000 		.4byte	.LVL3
 2594 0030 10000000 		.4byte	.LFE119
 2595 0034 0400     		.2byte	0x4
 2596 0036 F3       		.byte	0xf3
 2597 0037 01       		.uleb128 0x1
ARM GAS  C:\Users\DNIEL~1\AppData\Local\Temp\ccDJyHwx.s 			page 47


 2598 0038 50       		.byte	0x50
 2599 0039 9F       		.byte	0x9f
 2600 003a 00000000 		.4byte	0
 2601 003e 00000000 		.4byte	0
 2602              	.LLST2:
 2603 0042 00000000 		.4byte	.LFB120
 2604 0046 02000000 		.4byte	.LCFI0
 2605 004a 0200     		.2byte	0x2
 2606 004c 7D       		.byte	0x7d
 2607 004d 00       		.sleb128 0
 2608 004e 02000000 		.4byte	.LCFI0
 2609 0052 2C000000 		.4byte	.LFE120
 2610 0056 0200     		.2byte	0x2
 2611 0058 7D       		.byte	0x7d
 2612 0059 08       		.sleb128 8
 2613 005a 00000000 		.4byte	0
 2614 005e 00000000 		.4byte	0
 2615              	.LLST3:
 2616 0062 00000000 		.4byte	.LFB121
 2617 0066 04000000 		.4byte	.LCFI1
 2618 006a 0200     		.2byte	0x2
 2619 006c 7D       		.byte	0x7d
 2620 006d 00       		.sleb128 0
 2621 006e 04000000 		.4byte	.LCFI1
 2622 0072 A8000000 		.4byte	.LFE121
 2623 0076 0200     		.2byte	0x2
 2624 0078 7D       		.byte	0x7d
 2625 0079 20       		.sleb128 32
 2626 007a 00000000 		.4byte	0
 2627 007e 00000000 		.4byte	0
 2628              	.LLST4:
 2629 0082 3C000000 		.4byte	.LVL7
 2630 0086 48000000 		.4byte	.LVL8
 2631 008a 0200     		.2byte	0x2
 2632 008c 30       		.byte	0x30
 2633 008d 9F       		.byte	0x9f
 2634 008e 00000000 		.4byte	0
 2635 0092 00000000 		.4byte	0
 2636              	.LLST5:
 2637 0096 3C000000 		.4byte	.LVL7
 2638 009a 48000000 		.4byte	.LVL8
 2639 009e 0A00     		.2byte	0xa
 2640 00a0 9E       		.byte	0x9e
 2641 00a1 08       		.uleb128 0x8
 2642 00a2 00000000 		.4byte	0
 2643 00a6 00000000 		.4byte	0
 2644 00aa 58000000 		.4byte	.LVL9
 2645 00ae 66000000 		.4byte	.LVL11
 2646 00b2 0600     		.2byte	0x6
 2647 00b4 54       		.byte	0x54
 2648 00b5 93       		.byte	0x93
 2649 00b6 04       		.uleb128 0x4
 2650 00b7 55       		.byte	0x55
 2651 00b8 93       		.byte	0x93
 2652 00b9 04       		.uleb128 0x4
 2653 00ba 68000000 		.4byte	.LVL12
 2654 00be 78000000 		.4byte	.LVL14
ARM GAS  C:\Users\DNIEL~1\AppData\Local\Temp\ccDJyHwx.s 			page 48


 2655 00c2 0600     		.2byte	0x6
 2656 00c4 54       		.byte	0x54
 2657 00c5 93       		.byte	0x93
 2658 00c6 04       		.uleb128 0x4
 2659 00c7 55       		.byte	0x55
 2660 00c8 93       		.byte	0x93
 2661 00c9 04       		.uleb128 0x4
 2662 00ca 00000000 		.4byte	0
 2663 00ce 00000000 		.4byte	0
 2664              	.LLST6:
 2665 00d2 06000000 		.4byte	.LVL17
 2666 00d6 10000000 		.4byte	.LVL18
 2667 00da 0100     		.2byte	0x1
 2668 00dc 53       		.byte	0x53
 2669 00dd 00000000 		.4byte	0
 2670 00e1 00000000 		.4byte	0
 2671              	.LLST7:
 2672 00e5 16000000 		.4byte	.LVL20
 2673 00e9 18000000 		.4byte	.LFE122
 2674 00ed 0100     		.2byte	0x1
 2675 00ef 53       		.byte	0x53
 2676 00f0 00000000 		.4byte	0
 2677 00f4 00000000 		.4byte	0
 2678              	.LLST8:
 2679 00f8 06000000 		.4byte	.LVL22
 2680 00fc 10000000 		.4byte	.LVL23
 2681 0100 0100     		.2byte	0x1
 2682 0102 53       		.byte	0x53
 2683 0103 00000000 		.4byte	0
 2684 0107 00000000 		.4byte	0
 2685              	.LLST9:
 2686 010b 16000000 		.4byte	.LVL25
 2687 010f 18000000 		.4byte	.LFE123
 2688 0113 0100     		.2byte	0x1
 2689 0115 53       		.byte	0x53
 2690 0116 00000000 		.4byte	0
 2691 011a 00000000 		.4byte	0
 2692              	.LLST10:
 2693 011e 00000000 		.4byte	.LFB124
 2694 0122 02000000 		.4byte	.LCFI2
 2695 0126 0200     		.2byte	0x2
 2696 0128 7D       		.byte	0x7d
 2697 0129 00       		.sleb128 0
 2698 012a 02000000 		.4byte	.LCFI2
 2699 012e 20000000 		.4byte	.LFE124
 2700 0132 0200     		.2byte	0x2
 2701 0134 7D       		.byte	0x7d
 2702 0135 08       		.sleb128 8
 2703 0136 00000000 		.4byte	0
 2704 013a 00000000 		.4byte	0
 2705              	.LLST11:
 2706 013e 08000000 		.4byte	.LVL27
 2707 0142 0C000000 		.4byte	.LVL28
 2708 0146 0100     		.2byte	0x1
 2709 0148 53       		.byte	0x53
 2710 0149 00000000 		.4byte	0
 2711 014d 00000000 		.4byte	0
ARM GAS  C:\Users\DNIEL~1\AppData\Local\Temp\ccDJyHwx.s 			page 49


 2712              	.LLST12:
 2713 0151 1E000000 		.4byte	.LVL31
 2714 0155 20000000 		.4byte	.LFE124
 2715 0159 0100     		.2byte	0x1
 2716 015b 53       		.byte	0x53
 2717 015c 00000000 		.4byte	0
 2718 0160 00000000 		.4byte	0
 2719              	.LLST13:
 2720 0164 00000000 		.4byte	.LFB125
 2721 0168 02000000 		.4byte	.LCFI3
 2722 016c 0200     		.2byte	0x2
 2723 016e 7D       		.byte	0x7d
 2724 016f 00       		.sleb128 0
 2725 0170 02000000 		.4byte	.LCFI3
 2726 0174 84000000 		.4byte	.LFE125
 2727 0178 0200     		.2byte	0x2
 2728 017a 7D       		.byte	0x7d
 2729 017b 18       		.sleb128 24
 2730 017c 00000000 		.4byte	0
 2731 0180 00000000 		.4byte	0
 2732              	.LLST14:
 2733 0184 00000000 		.4byte	.LVL32
 2734 0188 0F000000 		.4byte	.LVL34-1
 2735 018c 0100     		.2byte	0x1
 2736 018e 50       		.byte	0x50
 2737 018f 0F000000 		.4byte	.LVL34-1
 2738 0193 1A000000 		.4byte	.LVL36
 2739 0197 0100     		.2byte	0x1
 2740 0199 54       		.byte	0x54
 2741 019a 1A000000 		.4byte	.LVL36
 2742 019e 1D000000 		.4byte	.LVL37-1
 2743 01a2 0100     		.2byte	0x1
 2744 01a4 50       		.byte	0x50
 2745 01a5 1D000000 		.4byte	.LVL37-1
 2746 01a9 5C000000 		.4byte	.LVL43
 2747 01ad 0100     		.2byte	0x1
 2748 01af 54       		.byte	0x54
 2749 01b0 5C000000 		.4byte	.LVL43
 2750 01b4 84000000 		.4byte	.LFE125
 2751 01b8 0100     		.2byte	0x1
 2752 01ba 50       		.byte	0x50
 2753 01bb 00000000 		.4byte	0
 2754 01bf 00000000 		.4byte	0
 2755              	.LLST15:
 2756 01c3 00000000 		.4byte	.LVL32
 2757 01c7 04000000 		.4byte	.LVL33
 2758 01cb 0100     		.2byte	0x1
 2759 01cd 51       		.byte	0x51
 2760 01ce 04000000 		.4byte	.LVL33
 2761 01d2 84000000 		.4byte	.LFE125
 2762 01d6 0400     		.2byte	0x4
 2763 01d8 F3       		.byte	0xf3
 2764 01d9 01       		.uleb128 0x1
 2765 01da 51       		.byte	0x51
 2766 01db 9F       		.byte	0x9f
 2767 01dc 00000000 		.4byte	0
 2768 01e0 00000000 		.4byte	0
ARM GAS  C:\Users\DNIEL~1\AppData\Local\Temp\ccDJyHwx.s 			page 50


 2769              	.LLST16:
 2770 01e4 00000000 		.4byte	.LVL32
 2771 01e8 0F000000 		.4byte	.LVL34-1
 2772 01ec 0100     		.2byte	0x1
 2773 01ee 52       		.byte	0x52
 2774 01ef 0F000000 		.4byte	.LVL34-1
 2775 01f3 84000000 		.4byte	.LFE125
 2776 01f7 0400     		.2byte	0x4
 2777 01f9 F3       		.byte	0xf3
 2778 01fa 01       		.uleb128 0x1
 2779 01fb 52       		.byte	0x52
 2780 01fc 9F       		.byte	0x9f
 2781 01fd 00000000 		.4byte	0
 2782 0201 00000000 		.4byte	0
 2783              		.section	.debug_aranges,"",%progbits
 2784 0000 54000000 		.4byte	0x54
 2785 0004 0200     		.2byte	0x2
 2786 0006 00000000 		.4byte	.Ldebug_info0
 2787 000a 04       		.byte	0x4
 2788 000b 00       		.byte	0
 2789 000c 0000     		.2byte	0
 2790 000e 0000     		.2byte	0
 2791 0010 00000000 		.4byte	.LFB118
 2792 0014 12000000 		.4byte	.LFE118-.LFB118
 2793 0018 00000000 		.4byte	.LFB119
 2794 001c 10000000 		.4byte	.LFE119-.LFB119
 2795 0020 00000000 		.4byte	.LFB120
 2796 0024 2C000000 		.4byte	.LFE120-.LFB120
 2797 0028 00000000 		.4byte	.LFB121
 2798 002c A8000000 		.4byte	.LFE121-.LFB121
 2799 0030 00000000 		.4byte	.LFB122
 2800 0034 18000000 		.4byte	.LFE122-.LFB122
 2801 0038 00000000 		.4byte	.LFB123
 2802 003c 18000000 		.4byte	.LFE123-.LFB123
 2803 0040 00000000 		.4byte	.LFB124
 2804 0044 20000000 		.4byte	.LFE124-.LFB124
 2805 0048 00000000 		.4byte	.LFB125
 2806 004c 84000000 		.4byte	.LFE125-.LFB125
 2807 0050 00000000 		.4byte	0
 2808 0054 00000000 		.4byte	0
 2809              		.section	.debug_ranges,"",%progbits
 2810              	.Ldebug_ranges0:
 2811 0000 0E000000 		.4byte	.LBB3
 2812 0004 10000000 		.4byte	.LBE3
 2813 0008 12000000 		.4byte	.LBB4
 2814 000c 16000000 		.4byte	.LBE4
 2815 0010 00000000 		.4byte	0
 2816 0014 00000000 		.4byte	0
 2817 0018 0E000000 		.4byte	.LBB6
 2818 001c 10000000 		.4byte	.LBE6
 2819 0020 12000000 		.4byte	.LBB7
 2820 0024 16000000 		.4byte	.LBE7
 2821 0028 00000000 		.4byte	0
 2822 002c 00000000 		.4byte	0
 2823 0030 00000000 		.4byte	.LFB118
 2824 0034 12000000 		.4byte	.LFE118
 2825 0038 00000000 		.4byte	.LFB119
ARM GAS  C:\Users\DNIEL~1\AppData\Local\Temp\ccDJyHwx.s 			page 51


 2826 003c 10000000 		.4byte	.LFE119
 2827 0040 00000000 		.4byte	.LFB120
 2828 0044 2C000000 		.4byte	.LFE120
 2829 0048 00000000 		.4byte	.LFB121
 2830 004c A8000000 		.4byte	.LFE121
 2831 0050 00000000 		.4byte	.LFB122
 2832 0054 18000000 		.4byte	.LFE122
 2833 0058 00000000 		.4byte	.LFB123
 2834 005c 18000000 		.4byte	.LFE123
 2835 0060 00000000 		.4byte	.LFB124
 2836 0064 20000000 		.4byte	.LFE124
 2837 0068 00000000 		.4byte	.LFB125
 2838 006c 84000000 		.4byte	.LFE125
 2839 0070 00000000 		.4byte	0
 2840 0074 00000000 		.4byte	0
 2841              		.section	.debug_line,"",%progbits
 2842              	.Ldebug_line0:
 2843 0000 60030000 		.section	.debug_str,"MS",%progbits,1
 2843      02007202 
 2843      00000201 
 2843      FB0E0D00 
 2843      01010101 
 2844              	.LASF65:
 2845 0000 4943555F 		.ascii	"ICU_INPUT_ACTIVE_HIGH\000"
 2845      494E5055 
 2845      545F4143 
 2845      54495645 
 2845      5F484947 
 2846              	.LASF76:
 2847 0016 6F766572 		.ascii	"overflow_cb\000"
 2847      666C6F77 
 2847      5F636200 
 2848              	.LASF107:
 2849 0022 63685468 		.ascii	"chThdSleep\000"
 2849      64536C65 
 2849      657000
 2850              	.LASF51:
 2851 002d 4943555F 		.ascii	"ICU_UNINIT\000"
 2851      554E494E 
 2851      495400
 2852              	.LASF25:
 2853 0038 44494552 		.ascii	"DIER\000"
 2853      00
 2854              	.LASF2:
 2855 003d 73697A65 		.ascii	"size_t\000"
 2855      5F7400
 2856              	.LASF21:
 2857 0044 5F726573 		.ascii	"_resvd0\000"
 2857      76643000 
 2858              	.LASF22:
 2859 004c 5F726573 		.ascii	"_resvd1\000"
 2859      76643100 
 2860              	.LASF55:
 2861 0054 4943555F 		.ascii	"ICU_ACTIVE\000"
 2861      41435449 
 2861      564500
 2862              	.LASF26:
ARM GAS  C:\Users\DNIEL~1\AppData\Local\Temp\ccDJyHwx.s 			page 52


 2863 005f 5F726573 		.ascii	"_resvd3\000"
 2863      76643300 
 2864              	.LASF27:
 2865 0067 5F726573 		.ascii	"_resvd4\000"
 2865      76643400 
 2866              	.LASF28:
 2867 006f 5F726573 		.ascii	"_resvd5\000"
 2867      76643500 
 2868              	.LASF30:
 2869 0077 5F726573 		.ascii	"_resvd6\000"
 2869      76643600 
 2870              	.LASF32:
 2871 007f 5F726573 		.ascii	"_resvd7\000"
 2871      76643700 
 2872              	.LASF34:
 2873 0087 5F726573 		.ascii	"_resvd8\000"
 2873      76643800 
 2874              	.LASF35:
 2875 008f 5F726573 		.ascii	"_resvd9\000"
 2875      76643900 
 2876              	.LASF38:
 2877 0097 5F726573 		.ascii	"_resvd11\000"
 2877      76643131 
 2877      00
 2878              	.LASF57:
 2879 00a0 69637573 		.ascii	"icustate_t\000"
 2879      74617465 
 2879      5F7400
 2880              	.LASF41:
 2881 00ab 5F726573 		.ascii	"_resvd13\000"
 2881      76643133 
 2881      00
 2882              	.LASF13:
 2883 00b4 6C6F6E67 		.ascii	"long long unsigned int\000"
 2883      206C6F6E 
 2883      6720756E 
 2883      7369676E 
 2883      65642069 
 2884              	.LASF97:
 2885 00cb 73706565 		.ascii	"speed_period_num\000"
 2885      645F7065 
 2885      72696F64 
 2885      5F6E756D 
 2885      00
 2886              	.LASF99:
 2887 00dc 49544D5F 		.ascii	"ITM_RxBuffer\000"
 2887      52784275 
 2887      66666572 
 2887      00
 2888              	.LASF37:
 2889 00e9 42445452 		.ascii	"BDTR\000"
 2889      00
 2890              	.LASF73:
 2891 00ee 66726571 		.ascii	"frequency\000"
 2891      75656E63 
 2891      7900
 2892              	.LASF56:
ARM GAS  C:\Users\DNIEL~1\AppData\Local\Temp\ccDJyHwx.s 			page 53


 2893 00f8 4943555F 		.ascii	"ICU_IDLE\000"
 2893      49444C45 
 2893      00
 2894              	.LASF49:
 2895 0101 72656164 		.ascii	"readt\000"
 2895      7400
 2896              	.LASF88:
 2897 0107 746D7032 		.ascii	"tmp2\000"
 2897      00
 2898              	.LASF29:
 2899 010c 43434D52 		.ascii	"CCMR1\000"
 2899      3100
 2900              	.LASF31:
 2901 0112 43434D52 		.ascii	"CCMR2\000"
 2901      3200
 2902              	.LASF12:
 2903 0118 6C6F6E67 		.ascii	"long long int\000"
 2903      206C6F6E 
 2903      6720696E 
 2903      7400
 2904              	.LASF1:
 2905 0126 7369676E 		.ascii	"signed char\000"
 2905      65642063 
 2905      68617200 
 2906              	.LASF94:
 2907 0132 72706D5F 		.ascii	"rpm_index\000"
 2907      696E6465 
 2907      7800
 2908              	.LASF82:
 2909 013c 73706565 		.ascii	"speedInit\000"
 2909      64496E69 
 2909      7400
 2910              	.LASF87:
 2911 0146 73706565 		.ascii	"speedGetPeriodNumber\000"
 2911      64476574 
 2911      50657269 
 2911      6F644E75 
 2911      6D626572 
 2912              	.LASF36:
 2913 015b 5F726573 		.ascii	"_resvd10\000"
 2913      76643130 
 2913      00
 2914              	.LASF59:
 2915 0164 73746174 		.ascii	"state\000"
 2915      6500
 2916              	.LASF39:
 2917 016a 5F726573 		.ascii	"_resvd12\000"
 2917      76643132 
 2917      00
 2918              	.LASF9:
 2919 0173 6C6F6E67 		.ascii	"long int\000"
 2919      20696E74 
 2919      00
 2920              	.LASF42:
 2921 017c 5F726573 		.ascii	"_resvd14\000"
 2921      76643134 
 2921      00
ARM GAS  C:\Users\DNIEL~1\AppData\Local\Temp\ccDJyHwx.s 			page 54


 2922              	.LASF33:
 2923 0185 43434552 		.ascii	"CCER\000"
 2923      00
 2924              	.LASF93:
 2925 018a 72706D5F 		.ascii	"rpm_buff\000"
 2925      62756666 
 2925      00
 2926              	.LASF85:
 2927 0193 646F7562 		.ascii	"double\000"
 2927      6C6500
 2928              	.LASF101:
 2929 019a 69637553 		.ascii	"icuStart\000"
 2929      74617274 
 2929      00
 2930              	.LASF78:
 2931 01a3 49435543 		.ascii	"ICUConfig\000"
 2931      6F6E6669 
 2931      6700
 2932              	.LASF63:
 2933 01ad 70636372 		.ascii	"pccrp\000"
 2933      7000
 2934              	.LASF20:
 2935 01b3 42617365 		.ascii	"BaseSequentialStream\000"
 2935      53657175 
 2935      656E7469 
 2935      616C5374 
 2935      7265616D 
 2936              	.LASF0:
 2937 01c8 756E7369 		.ascii	"unsigned int\000"
 2937      676E6564 
 2937      20696E74 
 2937      00
 2938              	.LASF100:
 2939 01d5 49435544 		.ascii	"ICUD1\000"
 2939      3100
 2940              	.LASF11:
 2941 01db 6C6F6E67 		.ascii	"long unsigned int\000"
 2941      20756E73 
 2941      69676E65 
 2941      6420696E 
 2941      7400
 2942              	.LASF64:
 2943 01ed 69637563 		.ascii	"icucallback_t\000"
 2943      616C6C62 
 2943      61636B5F 
 2943      7400
 2944              	.LASF75:
 2945 01fb 70657269 		.ascii	"period_cb\000"
 2945      6F645F63 
 2945      6200
 2946              	.LASF47:
 2947 0205 67657474 		.ascii	"gett\000"
 2947      00
 2948              	.LASF23:
 2949 020a 534D4352 		.ascii	"SMCR\000"
 2949      00
 2950              	.LASF14:
ARM GAS  C:\Users\DNIEL~1\AppData\Local\Temp\ccDJyHwx.s 			page 55


 2951 020f 6D73675F 		.ascii	"msg_t\000"
 2951      7400
 2952              	.LASF58:
 2953 0215 49435544 		.ascii	"ICUDriver\000"
 2953      72697665 
 2953      7200
 2954              	.LASF48:
 2955 021f 77726974 		.ascii	"writet\000"
 2955      657400
 2956              	.LASF43:
 2957 0226 73746D33 		.ascii	"stm32_tim_t\000"
 2957      325F7469 
 2957      6D5F7400 
 2958              	.LASF6:
 2959 0232 75696E74 		.ascii	"uint16_t\000"
 2959      31365F74 
 2959      00
 2960              	.LASF54:
 2961 023b 4943555F 		.ascii	"ICU_WAITING\000"
 2961      57414954 
 2961      494E4700 
 2962              	.LASF53:
 2963 0247 4943555F 		.ascii	"ICU_READY\000"
 2963      52454144 
 2963      5900
 2964              	.LASF18:
 2965 0251 77726974 		.ascii	"write\000"
 2965      6500
 2966              	.LASF46:
 2967 0257 70757474 		.ascii	"putt\000"
 2967      00
 2968              	.LASF16:
 2969 025c 73697A65 		.ascii	"sizetype\000"
 2969      74797065 
 2969      00
 2970              	.LASF74:
 2971 0265 77696474 		.ascii	"width_cb\000"
 2971      685F6362 
 2971      00
 2972              	.LASF104:
 2973 026e 474E5520 		.ascii	"GNU C 4.7.4 20140401 (release) [ARM/embedded-4_7-br"
 2973      4320342E 
 2973      372E3420 
 2973      32303134 
 2973      30343031 
 2974 02a1 616E6368 		.ascii	"anch revision 209195]\000"
 2974      20726576 
 2974      6973696F 
 2974      6E203230 
 2974      39313935 
 2975              	.LASF105:
 2976 02b7 7372632F 		.ascii	"src/speed.c\000"
 2976      73706565 
 2976      642E6300 
 2977              	.LASF52:
 2978 02c3 4943555F 		.ascii	"ICU_STOP\000"
 2978      53544F50 
ARM GAS  C:\Users\DNIEL~1\AppData\Local\Temp\ccDJyHwx.s 			page 56


 2978      00
 2979              	.LASF66:
 2980 02cc 4943555F 		.ascii	"ICU_INPUT_ACTIVE_LOW\000"
 2980      494E5055 
 2980      545F4143 
 2980      54495645 
 2980      5F4C4F57 
 2981              	.LASF80:
 2982 02e1 73706565 		.ascii	"speedWheelPeriodNumber\000"
 2982      64576865 
 2982      656C5065 
 2982      72696F64 
 2982      4E756D62 
 2983              	.LASF86:
 2984 02f8 73706565 		.ascii	"speedGetLastPeriod\000"
 2984      64476574 
 2984      4C617374 
 2984      50657269 
 2984      6F6400
 2985              	.LASF81:
 2986 030b 69637570 		.ascii	"icup\000"
 2986      00
 2987              	.LASF8:
 2988 0310 696E7433 		.ascii	"int32_t\000"
 2988      325F7400 
 2989              	.LASF4:
 2990 0318 756E7369 		.ascii	"unsigned char\000"
 2990      676E6564 
 2990      20636861 
 2990      7200
 2991              	.LASF5:
 2992 0326 73686F72 		.ascii	"short int\000"
 2992      7420696E 
 2992      7400
 2993              	.LASF67:
 2994 0330 6963756D 		.ascii	"icumode_t\000"
 2994      6F64655F 
 2994      7400
 2995              	.LASF44:
 2996 033a 42617365 		.ascii	"BaseSequentialStreamVMT\000"
 2996      53657175 
 2996      656E7469 
 2996      616C5374 
 2996      7265616D 
 2997              	.LASF71:
 2998 0352 69637563 		.ascii	"icuchannel_t\000"
 2998      68616E6E 
 2998      656C5F74 
 2998      00
 2999              	.LASF77:
 3000 035f 6368616E 		.ascii	"channel\000"
 3000      6E656C00 
 3001              	.LASF10:
 3002 0367 75696E74 		.ascii	"uint32_t\000"
 3002      33325F74 
 3002      00
 3003              	.LASF24:
ARM GAS  C:\Users\DNIEL~1\AppData\Local\Temp\ccDJyHwx.s 			page 57


 3004 0370 5F726573 		.ascii	"_resvd2\000"
 3004      76643200 
 3005              	.LASF17:
 3006 0378 63686172 		.ascii	"char\000"
 3006      00
 3007              	.LASF72:
 3008 037d 6D6F6465 		.ascii	"mode\000"
 3008      00
 3009              	.LASF60:
 3010 0382 636F6E66 		.ascii	"config\000"
 3010      696700
 3011              	.LASF40:
 3012 0389 444D4152 		.ascii	"DMAR\000"
 3012      00
 3013              	.LASF15:
 3014 038e 73797374 		.ascii	"systime_t\000"
 3014      696D655F 
 3014      7400
 3015              	.LASF102:
 3016 0398 69637545 		.ascii	"icuEnable\000"
 3016      6E61626C 
 3016      6500
 3017              	.LASF98:
 3018 03a2 726F7461 		.ascii	"rotation\000"
 3018      74696F6E 
 3018      00
 3019              	.LASF7:
 3020 03ab 73686F72 		.ascii	"short unsigned int\000"
 3020      7420756E 
 3020      7369676E 
 3020      65642069 
 3020      6E7400
 3021              	.LASF68:
 3022 03be 69637566 		.ascii	"icufreq_t\000"
 3022      7265715F 
 3022      7400
 3023              	.LASF45:
 3024 03c8 42617365 		.ascii	"BaseChannelVMT\000"
 3024      4368616E 
 3024      6E656C56 
 3024      4D5400
 3025              	.LASF79:
 3026 03d7 73706565 		.ascii	"speedWheelPeriodCb\000"
 3026      64576865 
 3026      656C5065 
 3026      72696F64 
 3026      436200
 3027              	.LASF83:
 3028 03ea 73706565 		.ascii	"speedCalc\000"
 3028      6443616C 
 3028      6300
 3029              	.LASF90:
 3030 03f4 636D645F 		.ascii	"cmd_speedvalues\000"
 3030      73706565 
 3030      6476616C 
 3030      75657300 
 3031              	.LASF69:
ARM GAS  C:\Users\DNIEL~1\AppData\Local\Temp\ccDJyHwx.s 			page 58


 3032 0404 4943555F 		.ascii	"ICU_CHANNEL_1\000"
 3032      4348414E 
 3032      4E454C5F 
 3032      3100
 3033              	.LASF70:
 3034 0412 4943555F 		.ascii	"ICU_CHANNEL_2\000"
 3034      4348414E 
 3034      4E454C5F 
 3034      3200
 3035              	.LASF3:
 3036 0420 75696E74 		.ascii	"uint8_t\000"
 3036      385F7400 
 3037              	.LASF50:
 3038 0428 42617365 		.ascii	"BaseChannel\000"
 3038      4368616E 
 3038      6E656C00 
 3039              	.LASF106:
 3040 0434 433A5C55 		.ascii	"C:\\Users\\D\341niel\\git\\Smarty\\smarty\\firmware"
 3040      73657273 
 3040      5C44E16E 
 3040      69656C5C 
 3040      6769745C 
 3041 045e 00       		.ascii	"\000"
 3042              	.LASF84:
 3043 045f 72706D61 		.ascii	"rpmasis\000"
 3043      73697300 
 3044              	.LASF19:
 3045 0467 72656164 		.ascii	"read\000"
 3045      00
 3046              	.LASF91:
 3047 046c 61726763 		.ascii	"argc\000"
 3047      00
 3048              	.LASF96:
 3049 0471 73706565 		.ascii	"speed_last_period\000"
 3049      645F6C61 
 3049      73745F70 
 3049      6572696F 
 3049      6400
 3050              	.LASF95:
 3051 0483 69637563 		.ascii	"icucfg\000"
 3051      666700
 3052              	.LASF61:
 3053 048a 636C6F63 		.ascii	"clock\000"
 3053      6B00
 3054              	.LASF92:
 3055 0490 61726776 		.ascii	"argv\000"
 3055      00
 3056              	.LASF62:
 3057 0495 77636372 		.ascii	"wccrp\000"
 3057      7000
 3058              	.LASF89:
 3059 049b 73706565 		.ascii	"speedGetRpm\000"
 3059      64476574 
 3059      52706D00 
 3060              	.LASF103:
 3061 04a7 63687072 		.ascii	"chprintf\000"
 3061      696E7466 
ARM GAS  C:\Users\DNIEL~1\AppData\Local\Temp\ccDJyHwx.s 			page 59


 3061      00
 3062              		.ident	"GCC: (GNU Tools for ARM Embedded Processors) 4.7.4 20140401 (release) [ARM/embedded-4_7-br
ARM GAS  C:\Users\DNIEL~1\AppData\Local\Temp\ccDJyHwx.s 			page 60


DEFINED SYMBOLS
                            *ABS*:00000000 speed.c
C:\Users\DNIEL~1\AppData\Local\Temp\ccDJyHwx.s:19     .text.speedWheelPeriodCb:00000000 $t
C:\Users\DNIEL~1\AppData\Local\Temp\ccDJyHwx.s:24     .text.speedWheelPeriodCb:00000000 speedWheelPeriodCb
C:\Users\DNIEL~1\AppData\Local\Temp\ccDJyHwx.s:491    .bss.speed_last_period:00000000 .LANCHOR0
C:\Users\DNIEL~1\AppData\Local\Temp\ccDJyHwx.s:46     .text.speedWheelPeriodNumber:00000000 $t
C:\Users\DNIEL~1\AppData\Local\Temp\ccDJyHwx.s:51     .text.speedWheelPeriodNumber:00000000 speedWheelPeriodNumber
C:\Users\DNIEL~1\AppData\Local\Temp\ccDJyHwx.s:537    .bss.speed_period_num:00000000 .LANCHOR1
C:\Users\DNIEL~1\AppData\Local\Temp\ccDJyHwx.s:71     .text.speedInit:00000000 $t
C:\Users\DNIEL~1\AppData\Local\Temp\ccDJyHwx.s:77     .text.speedInit:00000000 speedInit
C:\Users\DNIEL~1\AppData\Local\Temp\ccDJyHwx.s:544    .data.icucfg:00000000 .LANCHOR2
C:\Users\DNIEL~1\AppData\Local\Temp\ccDJyHwx.s:114    .text.speedCalc:00000000 $t
C:\Users\DNIEL~1\AppData\Local\Temp\ccDJyHwx.s:120    .text.speedCalc:00000000 speedCalc
C:\Users\DNIEL~1\AppData\Local\Temp\ccDJyHwx.s:228    .text.speedCalc:00000098 $d
C:\Users\DNIEL~1\AppData\Local\Temp\ccDJyHwx.s:236    .text.speedGetLastPeriod:00000000 $t
C:\Users\DNIEL~1\AppData\Local\Temp\ccDJyHwx.s:242    .text.speedGetLastPeriod:00000000 speedGetLastPeriod
C:\Users\DNIEL~1\AppData\Local\Temp\ccDJyHwx.s:284    .text.speedGetPeriodNumber:00000000 $t
C:\Users\DNIEL~1\AppData\Local\Temp\ccDJyHwx.s:290    .text.speedGetPeriodNumber:00000000 speedGetPeriodNumber
C:\Users\DNIEL~1\AppData\Local\Temp\ccDJyHwx.s:333    .text.speedGetRpm:00000000 $t
C:\Users\DNIEL~1\AppData\Local\Temp\ccDJyHwx.s:339    .text.speedGetRpm:00000000 speedGetRpm
C:\Users\DNIEL~1\AppData\Local\Temp\ccDJyHwx.s:498    .bss.rotation:00000000 .LANCHOR3
C:\Users\DNIEL~1\AppData\Local\Temp\ccDJyHwx.s:383    .text.cmd_speedvalues:00000000 $t
C:\Users\DNIEL~1\AppData\Local\Temp\ccDJyHwx.s:389    .text.cmd_speedvalues:00000000 cmd_speedvalues
C:\Users\DNIEL~1\AppData\Local\Temp\ccDJyHwx.s:477    .text.cmd_speedvalues:00000060 $d
C:\Users\DNIEL~1\AppData\Local\Temp\ccDJyHwx.s:490    .bss.speed_last_period:00000000 $d
C:\Users\DNIEL~1\AppData\Local\Temp\ccDJyHwx.s:494    .bss.speed_last_period:00000000 speed_last_period
C:\Users\DNIEL~1\AppData\Local\Temp\ccDJyHwx.s:497    .bss.rotation:00000000 $d
C:\Users\DNIEL~1\AppData\Local\Temp\ccDJyHwx.s:501    .bss.rotation:00000000 rotation
C:\Users\DNIEL~1\AppData\Local\Temp\ccDJyHwx.s:504    .rodata.str1.4:00000000 $d
C:\Users\DNIEL~1\AppData\Local\Temp\ccDJyHwx.s:522    .bss.rpm_index:00000000 $d
C:\Users\DNIEL~1\AppData\Local\Temp\ccDJyHwx.s:526    .bss.rpm_index:00000000 rpm_index
C:\Users\DNIEL~1\AppData\Local\Temp\ccDJyHwx.s:529    .bss.rpm_buff:00000000 $d
C:\Users\DNIEL~1\AppData\Local\Temp\ccDJyHwx.s:533    .bss.rpm_buff:00000000 rpm_buff
C:\Users\DNIEL~1\AppData\Local\Temp\ccDJyHwx.s:536    .bss.speed_period_num:00000000 $d
C:\Users\DNIEL~1\AppData\Local\Temp\ccDJyHwx.s:540    .bss.speed_period_num:00000000 speed_period_num
C:\Users\DNIEL~1\AppData\Local\Temp\ccDJyHwx.s:543    .data.icucfg:00000000 $d
C:\Users\DNIEL~1\AppData\Local\Temp\ccDJyHwx.s:547    .data.icucfg:00000000 icucfg
                     .debug_frame:00000010 $d
C:\Users\DNIEL~1\AppData\Local\Temp\ccDJyHwx.s:235    .text.speedCalc:000000a8 $t
C:\Users\DNIEL~1\AppData\Local\Temp\ccDJyHwx.s:489    .text.cmd_speedvalues:00000084 $t

UNDEFINED SYMBOLS
ICUD1
icuStart
icuEnable
__aeabi_ui2d
__aeabi_dadd
__aeabi_ddiv
__aeabi_dcmplt
__aeabi_d2uiz
chprintf
chThdSleep
