ARM GAS  C:\Users\DNIEL~1\AppData\Local\Temp\ccYKK2eE.s 			page 1


   1              		.syntax unified
   2              		.cpu cortex-m4
   3              		.fpu softvfp
   4              		.eabi_attribute 20, 1
   5              		.eabi_attribute 21, 1
   6              		.eabi_attribute 23, 3
   7              		.eabi_attribute 24, 1
   8              		.eabi_attribute 25, 1
   9              		.eabi_attribute 26, 1
  10              		.eabi_attribute 30, 2
  11              		.eabi_attribute 34, 1
  12              		.eabi_attribute 18, 4
  13              		.thumb
  14              		.file	"speed.c"
  15              		.text
  16              	.Ltext0:
  17              		.cfi_sections	.debug_frame
  18              		.section	.text.speedWheelPeriodCb,"ax",%progbits
  19              		.align	2
  20              		.p2align 4,,15
  21              		.thumb
  22              		.thumb_func
  23              		.type	speedWheelPeriodCb, %function
  24              	speedWheelPeriodCb:
  25              	.LFB119:
  26              		.file 1 "src/speed.c"
  27              		.loc 1 38 0
  28              		.cfi_startproc
  29              		@ args = 0, pretend = 0, frame = 0
  30              		@ frame_needed = 0, uses_anonymous_args = 0
  31              		@ link register save eliminated.
  32              	.LVL0:
  33              		.loc 1 39 0
  34 0000 4269     		ldr	r2, [r0, #20]
  35 0002 40F20003 		movw	r3, #:lower16:.LANCHOR0
  36 0006 1068     		ldr	r0, [r2, #0]
  37              	.LVL1:
  38 0008 C0F20003 		movt	r3, #:upper16:.LANCHOR0
  39 000c 411C     		adds	r1, r0, #1
  40 000e 1960     		str	r1, [r3, #0]
  41 0010 7047     		bx	lr
  42              		.cfi_endproc
  43              	.LFE119:
  44              		.size	speedWheelPeriodCb, .-speedWheelPeriodCb
  45 0012 00BFAFF3 		.section	.text.speedWheelPeriodNumber,"ax",%progbits
  45      0080AFF3 
  45      0080AFF3 
  45      0080
  46              		.align	2
  47              		.p2align 4,,15
  48              		.thumb
  49              		.thumb_func
  50              		.type	speedWheelPeriodNumber, %function
  51              	speedWheelPeriodNumber:
  52              	.LFB120:
  53              		.loc 1 42 0
  54              		.cfi_startproc
ARM GAS  C:\Users\DNIEL~1\AppData\Local\Temp\ccYKK2eE.s 			page 2


  55              		@ args = 0, pretend = 0, frame = 0
  56              		@ frame_needed = 0, uses_anonymous_args = 0
  57              		@ link register save eliminated.
  58              	.LVL2:
  59              		.loc 1 44 0
  60 0000 40F20003 		movw	r3, #:lower16:.LANCHOR1
  61 0004 C0F20003 		movt	r3, #:upper16:.LANCHOR1
  62 0008 1A68     		ldr	r2, [r3, #0]
  63 000a 501C     		adds	r0, r2, #1
  64              	.LVL3:
  65 000c 1860     		str	r0, [r3, #0]
  66 000e 7047     		bx	lr
  67              		.cfi_endproc
  68              	.LFE120:
  69              		.size	speedWheelPeriodNumber, .-speedWheelPeriodNumber
  70              		.section	.text.chprintf,"ax",%progbits
  71              		.align	2
  72              		.p2align 4,,15
  73              		.thumb
  74              		.thumb_func
  75              		.type	chprintf, %function
  76              	chprintf:
  77              	.LFB118:
  78              		.file 2 "../../../ChibiOS/os/various/chprintf.h"
  79              		.loc 2 69 0
  80              		.cfi_startproc
  81              		@ args = 4, pretend = 12, frame = 8
  82              		@ frame_needed = 0, uses_anonymous_args = 1
  83              	.LVL4:
  84 0000 0EB4     		push	{r1, r2, r3}
  85              	.LCFI0:
  86              		.cfi_def_cfa_offset 12
  87              		.cfi_offset 1, -12
  88              		.cfi_offset 2, -8
  89              		.cfi_offset 3, -4
  90 0002 00B5     		push	{lr}
  91              	.LCFI1:
  92              		.cfi_def_cfa_offset 16
  93              		.cfi_offset 14, -16
  94 0004 82B0     		sub	sp, sp, #8
  95              	.LCFI2:
  96              		.cfi_def_cfa_offset 24
  97              		.loc 2 69 0
  98 0006 03AB     		add	r3, sp, #12
  99 0008 53F8041B 		ldr	r1, [r3], #4
 100              		.loc 2 73 0
 101 000c 1A46     		mov	r2, r3
 102              		.loc 2 72 0
 103 000e 0193     		str	r3, [sp, #4]
 104              		.loc 2 73 0
 105 0010 FFF7FEFF 		bl	chvprintf
 106              	.LVL5:
 107              		.loc 2 75 0
 108 0014 02B0     		add	sp, sp, #8
 109 0016 5DF804EB 		pop	{lr}
 110 001a 03B0     		add	sp, sp, #12
 111 001c 7047     		bx	lr
ARM GAS  C:\Users\DNIEL~1\AppData\Local\Temp\ccYKK2eE.s 			page 3


 112              		.cfi_endproc
 113              	.LFE118:
 114              		.size	chprintf, .-chprintf
 115 001e 00BF     		.section	.text.speedInit,"ax",%progbits
 116              		.align	2
 117              		.p2align 4,,15
 118              		.global	speedInit
 119              		.thumb
 120              		.thumb_func
 121              		.type	speedInit, %function
 122              	speedInit:
 123              	.LFB121:
 124              		.loc 1 47 0
 125              		.cfi_startproc
 126              		@ args = 0, pretend = 0, frame = 0
 127              		@ frame_needed = 0, uses_anonymous_args = 0
 128 0000 10B5     		push	{r4, lr}
 129              	.LCFI3:
 130              		.cfi_def_cfa_offset 8
 131              		.cfi_offset 4, -8
 132              		.cfi_offset 14, -4
 133              		.loc 1 52 0
 134 0002 40F20004 		movw	r4, #:lower16:ICUD1
 135 0006 C0F20004 		movt	r4, #:upper16:ICUD1
 136 000a 40F20001 		movw	r1, #:lower16:.LANCHOR2
 137 000e C0F20001 		movt	r1, #:upper16:.LANCHOR2
 138 0012 2046     		mov	r0, r4
 139 0014 FFF7FEFF 		bl	icuStart
 140              	.LVL6:
 141              		.loc 1 53 0
 142 0018 2046     		mov	r0, r4
 143 001a FFF7FEFF 		bl	icuEnable
 144              	.LVL7:
 145              		.loc 1 55 0
 146 001e 40F20003 		movw	r3, #:lower16:.LANCHOR1
 147 0022 C0F20003 		movt	r3, #:upper16:.LANCHOR1
 148 0026 0022     		movs	r2, #0
 149 0028 1A60     		str	r2, [r3, #0]
 150 002a 10BD     		pop	{r4, pc}
 151              		.cfi_endproc
 152              	.LFE121:
 153              		.size	speedInit, .-speedInit
 154              		.global	__aeabi_ui2d
 155              		.global	__aeabi_dadd
 156              		.global	__aeabi_ddiv
 157              		.global	__aeabi_dcmplt
 158 002c AFF30080 		.section	.text.speedCalc,"ax",%progbits
 159              		.align	2
 160              		.p2align 4,,15
 161              		.global	speedCalc
 162              		.thumb
 163              		.thumb_func
 164              		.type	speedCalc, %function
 165              	speedCalc:
 166              	.LFB122:
 167              		.loc 1 58 0
 168              		.cfi_startproc
ARM GAS  C:\Users\DNIEL~1\AppData\Local\Temp\ccYKK2eE.s 			page 4


 169              		@ args = 0, pretend = 0, frame = 0
 170              		@ frame_needed = 0, uses_anonymous_args = 0
 171 0000 2DE9F843 		push	{r3, r4, r5, r6, r7, r8, r9, lr}
 172              	.LCFI4:
 173              		.cfi_def_cfa_offset 32
 174              		.cfi_offset 3, -32
 175              		.cfi_offset 4, -28
 176              		.cfi_offset 5, -24
 177              		.cfi_offset 6, -20
 178              		.cfi_offset 7, -16
 179              		.cfi_offset 8, -12
 180              		.cfi_offset 9, -8
 181              		.cfi_offset 14, -4
 182              		.loc 1 62 0
 183 0004 244B     		ldr	r3, .L15
 184              		.loc 1 64 0
 185 0006 254D     		ldr	r5, .L15+4
 186              		.loc 1 62 0
 187 0008 1A68     		ldr	r2, [r3, #0]
 188 000a 254E     		ldr	r6, .L15+8
 189 000c 02EB4200 		add	r0, r2, r2, lsl #1
 190 0010 4FF40741 		mov	r1, #34560
 191 0014 0401     		lsls	r4, r0, #4
 192 0016 C0F29331 		movt	r1, 915
 193 001a B1FBF4F0 		udiv	r0, r1, r4
 194 001e FFF7FEFF 		bl	__aeabi_ui2d
 195              	.LVL8:
 196              		.loc 1 64 0
 197 0022 2F68     		ldr	r7, [r5, #0]
 198              		.loc 1 68 0
 199 0024 1F4B     		ldr	r3, .L15+12
 200              		.loc 1 64 0
 201 0026 7A1C     		adds	r2, r7, #1
 202              		.loc 1 65 0
 203 0028 2F2A     		cmp	r2, #47
 204              		.loc 1 66 0
 205 002a C8BF     		it	gt
 206 002c 0022     		movgt	r2, #0
 207              		.loc 1 62 0
 208 002e C6E90001 		strd	r0, [r6]
 209              		.loc 1 68 0
 210 0032 03EBC204 		add	r4, r3, r2, lsl #3
 211              		.loc 1 66 0
 212 0036 2A60     		str	r2, [r5, #0]
 213              		.loc 1 68 0
 214 0038 C4E90001 		strd	r0, [r4]
 215              	.LVL9:
 216 003c A3F10807 		sub	r7, r3, #8
 217              		.loc 1 58 0
 218 0040 03F5BC79 		add	r9, r3, #376
 219              		.loc 1 69 0
 220 0044 0024     		movs	r4, #0
 221 0046 0025     		movs	r5, #0
 222              	.LVL10:
 223              	.L8:
 224              		.loc 1 71 0 discriminator 2
 225 0048 D7E90223 		ldrd	r2, [r7, #8]
ARM GAS  C:\Users\DNIEL~1\AppData\Local\Temp\ccYKK2eE.s 			page 5


 226 004c 07F10808 		add	r8, r7, #8
 227 0050 2046     		mov	r0, r4
 228 0052 2946     		mov	r1, r5
 229 0054 FFF7FEFF 		bl	__aeabi_dadd
 230              	.LVL11:
 231 0058 D8E90223 		ldrd	r2, [r8, #8]
 232 005c FFF7FEFF 		bl	__aeabi_dadd
 233              	.LVL12:
 234 0060 1037     		adds	r7, r7, #16
 235              		.loc 1 70 0 discriminator 2
 236 0062 4F45     		cmp	r7, r9
 237              		.loc 1 71 0 discriminator 2
 238 0064 0446     		mov	r4, r0
 239              	.LVL13:
 240 0066 0D46     		mov	r5, r1
 241              	.LVL14:
 242              		.loc 1 70 0 discriminator 2
 243 0068 EED1     		bne	.L8
 244              		.loc 1 73 0
 245 006a 0023     		movs	r3, #0
 246 006c 0022     		movs	r2, #0
 247 006e C4F24803 		movt	r3, 16456
 248 0072 FFF7FEFF 		bl	__aeabi_ddiv
 249              	.LVL15:
 250              		.loc 1 74 0
 251 0076 0024     		movs	r4, #0
 252              	.LVL16:
 253 0078 0025     		movs	r5, #0
 254 007a 2246     		mov	r2, r4
 255 007c 2B46     		mov	r3, r5
 256              		.loc 1 73 0
 257 007e 8046     		mov	r8, r0
 258 0080 8946     		mov	r9, r1
 259              		.loc 1 74 0
 260 0082 FFF7FEFF 		bl	__aeabi_dcmplt
 261              	.LVL17:
 262 0086 18B9     		cbnz	r0, .L9
 263              		.loc 1 73 0
 264 0088 C6E90089 		strd	r8, [r6]
 265 008c BDE8F883 		pop	{r3, r4, r5, r6, r7, r8, r9, pc}
 266              	.L9:
 267              		.loc 1 75 0
 268 0090 C6E90045 		strd	r4, [r6]
 269 0094 BDE8F883 		pop	{r3, r4, r5, r6, r7, r8, r9, pc}
 270              	.L16:
 271              		.align	2
 272              	.L15:
 273 0098 00000000 		.word	.LANCHOR0
 274 009c 00000000 		.word	.LANCHOR4
 275 00a0 00000000 		.word	.LANCHOR3
 276 00a4 00000000 		.word	.LANCHOR5
 277              		.cfi_endproc
 278              	.LFE122:
 279              		.size	speedCalc, .-speedCalc
 280 00a8 AFF30080 		.section	.text.speedGetLastPeriod,"ax",%progbits
 280      AFF30080 
 281              		.align	2
ARM GAS  C:\Users\DNIEL~1\AppData\Local\Temp\ccYKK2eE.s 			page 6


 282              		.p2align 4,,15
 283              		.global	speedGetLastPeriod
 284              		.thumb
 285              		.thumb_func
 286              		.type	speedGetLastPeriod, %function
 287              	speedGetLastPeriod:
 288              	.LFB123:
 289              		.loc 1 86 0
 290              		.cfi_startproc
 291              		@ args = 0, pretend = 0, frame = 0
 292              		@ frame_needed = 0, uses_anonymous_args = 0
 293              		@ link register save eliminated.
 294              	.LBB2:
 295              		.loc 1 89 0
 296 0000 2023     		movs	r3, #32
 297              	.LVL18:
 298              	@ 89 "src/speed.c" 1
 299 0002 83F31188 		msr     BASEPRI, r3
 300              	@ 0 "" 2
 301              	.LVL19:
 302              		.thumb
 303              	.LBE2:
 304              		.loc 1 90 0
 305 0006 40F20002 		movw	r2, #:lower16:.LANCHOR0
 306 000a C0F20002 		movt	r2, #:upper16:.LANCHOR0
 307              	.LBB3:
 308              		.loc 1 91 0
 309 000e 0023     		movs	r3, #0
 310              	.LVL20:
 311              	.LBE3:
 312              		.loc 1 90 0
 313 0010 1068     		ldr	r0, [r2, #0]
 314              	.LVL21:
 315              	.LBB4:
 316              		.loc 1 91 0
 317              	@ 91 "src/speed.c" 1
 318 0012 83F31188 		msr     BASEPRI, r3
 319              	@ 0 "" 2
 320              	.LVL22:
 321              		.thumb
 322              	.LBE4:
 323              		.loc 1 93 0
 324 0016 7047     		bx	lr
 325              		.cfi_endproc
 326              	.LFE123:
 327              		.size	speedGetLastPeriod, .-speedGetLastPeriod
 328              		.section	.text.speedGetPeriodNumber,"ax",%progbits
 329              		.align	2
 330              		.p2align 4,,15
 331              		.global	speedGetPeriodNumber
 332              		.thumb
 333              		.thumb_func
 334              		.type	speedGetPeriodNumber, %function
 335              	speedGetPeriodNumber:
 336              	.LFB124:
 337              		.loc 1 95 0
 338              		.cfi_startproc
ARM GAS  C:\Users\DNIEL~1\AppData\Local\Temp\ccYKK2eE.s 			page 7


 339              		@ args = 0, pretend = 0, frame = 0
 340              		@ frame_needed = 0, uses_anonymous_args = 0
 341              		@ link register save eliminated.
 342              	.LBB5:
 343              		.loc 1 98 0
 344 0000 2023     		movs	r3, #32
 345              	.LVL23:
 346              	@ 98 "src/speed.c" 1
 347 0002 83F31188 		msr     BASEPRI, r3
 348              	@ 0 "" 2
 349              	.LVL24:
 350              		.thumb
 351              	.LBE5:
 352              		.loc 1 99 0
 353 0006 40F20002 		movw	r2, #:lower16:.LANCHOR1
 354 000a C0F20002 		movt	r2, #:upper16:.LANCHOR1
 355              	.LBB6:
 356              		.loc 1 100 0
 357 000e 0023     		movs	r3, #0
 358              	.LVL25:
 359              	.LBE6:
 360              		.loc 1 99 0
 361 0010 1068     		ldr	r0, [r2, #0]
 362              	.LVL26:
 363              	.LBB7:
 364              		.loc 1 100 0
 365              	@ 100 "src/speed.c" 1
 366 0012 83F31188 		msr     BASEPRI, r3
 367              	@ 0 "" 2
 368              	.LVL27:
 369              		.thumb
 370              	.LBE7:
 371              		.loc 1 102 0
 372 0016 7047     		bx	lr
 373              		.cfi_endproc
 374              	.LFE124:
 375              		.size	speedGetPeriodNumber, .-speedGetPeriodNumber
 376              		.global	__aeabi_d2uiz
 377 0018 AFF30080 		.section	.text.speedGetRpm,"ax",%progbits
 377      AFF30080 
 378              		.align	2
 379              		.p2align 4,,15
 380              		.global	speedGetRpm
 381              		.thumb
 382              		.thumb_func
 383              		.type	speedGetRpm, %function
 384              	speedGetRpm:
 385              	.LFB125:
 386              		.loc 1 104 0
 387              		.cfi_startproc
 388              		@ args = 0, pretend = 0, frame = 0
 389              		@ frame_needed = 0, uses_anonymous_args = 0
 390 0000 08B5     		push	{r3, lr}
 391              	.LCFI5:
 392              		.cfi_def_cfa_offset 8
 393              		.cfi_offset 3, -8
 394              		.cfi_offset 14, -4
ARM GAS  C:\Users\DNIEL~1\AppData\Local\Temp\ccYKK2eE.s 			page 8


 395              	.LBB8:
 396              		.loc 1 107 0
 397 0002 2023     		movs	r3, #32
 398              	.LVL28:
 399              	@ 107 "src/speed.c" 1
 400 0004 83F31188 		msr     BASEPRI, r3
 401              	@ 0 "" 2
 402              	.LVL29:
 403              		.thumb
 404              	.LBE8:
 405              		.loc 1 108 0
 406 0008 40F20003 		movw	r3, #:lower16:.LANCHOR3
 407              	.LVL30:
 408 000c C0F20003 		movt	r3, #:upper16:.LANCHOR3
 409 0010 D3E90001 		ldrd	r0, [r3]
 410 0014 FFF7FEFF 		bl	__aeabi_d2uiz
 411              	.LVL31:
 412              	.LBB9:
 413              		.loc 1 109 0
 414 0018 0023     		movs	r3, #0
 415              	.LVL32:
 416              	@ 109 "src/speed.c" 1
 417 001a 83F31188 		msr     BASEPRI, r3
 418              	@ 0 "" 2
 419              	.LVL33:
 420              		.thumb
 421              	.LBE9:
 422              		.loc 1 111 0
 423 001e 08BD     		pop	{r3, pc}
 424              		.cfi_endproc
 425              	.LFE125:
 426              		.size	speedGetRpm, .-speedGetRpm
 427              		.section	.text.cmd_speedvalues,"ax",%progbits
 428              		.align	2
 429              		.p2align 4,,15
 430              		.global	cmd_speedvalues
 431              		.thumb
 432              		.thumb_func
 433              		.type	cmd_speedvalues, %function
 434              	cmd_speedvalues:
 435              	.LFB126:
 436              		.loc 1 113 0
 437              		.cfi_startproc
 438              		@ args = 0, pretend = 0, frame = 0
 439              		@ frame_needed = 0, uses_anonymous_args = 0
 440              	.LVL34:
 441 0000 F8B5     		push	{r3, r4, r5, r6, r7, lr}
 442              	.LCFI6:
 443              		.cfi_def_cfa_offset 24
 444              		.cfi_offset 3, -24
 445              		.cfi_offset 4, -20
 446              		.cfi_offset 5, -16
 447              		.cfi_offset 6, -12
 448              		.cfi_offset 7, -8
 449              		.cfi_offset 14, -4
 450              		.loc 1 117 0
 451 0002 1749     		ldr	r1, .L23
ARM GAS  C:\Users\DNIEL~1\AppData\Local\Temp\ccYKK2eE.s 			page 9


 452              	.LVL35:
 453              		.loc 1 122 0
 454 0004 174F     		ldr	r7, .L23+4
 455              		.loc 1 123 0
 456 0006 184E     		ldr	r6, .L23+8
 457              		.loc 1 124 0
 458 0008 184D     		ldr	r5, .L23+12
 459              		.loc 1 113 0
 460 000a 0446     		mov	r4, r0
 461              		.loc 1 117 0
 462 000c FFF7FEFF 		bl	chprintf
 463              	.LVL36:
 464              		.loc 1 118 0
 465 0010 2046     		mov	r0, r4
 466 0012 1749     		ldr	r1, .L23+16
 467 0014 FFF7FEFF 		bl	chprintf
 468              	.LVL37:
 469              		.loc 1 119 0
 470 0018 15E0     		b	.L21
 471              	.LVL38:
 472              	.L22:
 473              		.loc 1 120 0
 474 001a FFF7FEFF 		bl	chprintf
 475              	.LVL39:
 476              		.loc 1 122 0
 477 001e 2046     		mov	r0, r4
 478 0020 1449     		ldr	r1, .L23+20
 479 0022 3A68     		ldr	r2, [r7, #0]
 480 0024 FFF7FEFF 		bl	chprintf
 481              	.LVL40:
 482              		.loc 1 123 0
 483 0028 2046     		mov	r0, r4
 484 002a 1349     		ldr	r1, .L23+24
 485 002c 3268     		ldr	r2, [r6, #0]
 486 002e FFF7FEFF 		bl	chprintf
 487              	.LVL41:
 488              		.loc 1 124 0
 489 0032 2046     		mov	r0, r4
 490 0034 1149     		ldr	r1, .L23+28
 491 0036 D5E90023 		ldrd	r2, [r5]
 492 003a FFF7FEFF 		bl	chprintf
 493              	.LVL42:
 494              		.loc 1 125 0
 495 003e 4FF47A70 		mov	r0, #1000
 496 0042 FFF7FEFF 		bl	chThdSleep
 497              	.LVL43:
 498              	.L21:
 499              		.loc 1 119 0 discriminator 1
 500 0046 2368     		ldr	r3, [r4, #0]
 501 0048 0021     		movs	r1, #0
 502 004a 5A69     		ldr	r2, [r3, #20]
 503 004c 2046     		mov	r0, r4
 504 004e 9047     		blx	r2
 505              	.LVL44:
 506              		.loc 1 120 0 discriminator 1
 507 0050 0022     		movs	r2, #0
 508              		.loc 1 119 0 discriminator 1
ARM GAS  C:\Users\DNIEL~1\AppData\Local\Temp\ccYKK2eE.s 			page 10


 509 0052 0130     		adds	r0, r0, #1
 510              		.loc 1 120 0 discriminator 1
 511 0054 1346     		mov	r3, r2
 512 0056 0A49     		ldr	r1, .L23+32
 513 0058 2046     		mov	r0, r4
 514              		.loc 1 119 0 discriminator 1
 515 005a DED0     		beq	.L22
 516              	.LVL45:
 517              		.loc 1 127 0
 518 005c F8BD     		pop	{r3, r4, r5, r6, r7, pc}
 519              	.L24:
 520 005e 00BF     		.align	2
 521              	.L23:
 522 0060 00000000 		.word	.LC0
 523 0064 00000000 		.word	.LANCHOR0
 524 0068 00000000 		.word	.LANCHOR1
 525 006c 00000000 		.word	.LANCHOR3
 526 0070 04000000 		.word	.LC1
 527 0074 18000000 		.word	.LC3
 528 0078 34000000 		.word	.LC4
 529 007c 4C000000 		.word	.LC5
 530 0080 0C000000 		.word	.LC2
 531              		.cfi_endproc
 532              	.LFE126:
 533              		.size	cmd_speedvalues, .-cmd_speedvalues
 534 0084 AFF30080 		.section	.bss.speed_last_period,"aw",%nobits
 534      AFF30080 
 534      AFF30080 
 535              		.align	2
 536              		.set	.LANCHOR0,. + 0
 537              		.type	speed_last_period, %object
 538              		.size	speed_last_period, 4
 539              	speed_last_period:
 540 0000 00000000 		.space	4
 541              		.section	.bss.rotation,"aw",%nobits
 542              		.align	3
 543              		.set	.LANCHOR3,. + 0
 544              		.type	rotation, %object
 545              		.size	rotation, 8
 546              	rotation:
 547 0000 00000000 		.space	8
 547      00000000 
 548              		.section	.rodata.str1.4,"aMS",%progbits,1
 549              		.align	2
 550              	.LC0:
 551 0000 1B6300   		.ascii	"\033c\000"
 552 0003 00       		.space	1
 553              	.LC1:
 554 0004 1B5B324A 		.ascii	"\033[2J\000"
 554      00
 555 0009 000000   		.space	3
 556              	.LC2:
 557 000c 1B5B2564 		.ascii	"\033[%d;%dH\000"
 557      3B256448 
 557      00
 558 0015 000000   		.space	3
 559              	.LC3:
ARM GAS  C:\Users\DNIEL~1\AppData\Local\Temp\ccYKK2eE.s 			page 11


 560 0018 73706565 		.ascii	"speed_last_period: %5d\015\012\000"
 560      645F6C61 
 560      73745F70 
 560      6572696F 
 560      643A2025 
 561 0031 000000   		.space	3
 562              	.LC4:
 563 0034 73706565 		.ascii	"speed_period_num: %5d\015\012\000"
 563      645F7065 
 563      72696F64 
 563      5F6E756D 
 563      3A202535 
 564              	.LC5:
 565 004c 72706D3A 		.ascii	"rpm: %5d\015\012\000"
 565      20253564 
 565      0D0A00
 566 0057 00       		.section	.bss.rpm_index,"aw",%nobits
 567              		.align	2
 568              		.set	.LANCHOR4,. + 0
 569              		.type	rpm_index, %object
 570              		.size	rpm_index, 4
 571              	rpm_index:
 572 0000 00000000 		.space	4
 573              		.section	.bss.rpm_buff,"aw",%nobits
 574              		.align	3
 575              		.set	.LANCHOR5,. + 0
 576              		.type	rpm_buff, %object
 577              		.size	rpm_buff, 384
 578              	rpm_buff:
 579 0000 00000000 		.space	384
 579      00000000 
 579      00000000 
 579      00000000 
 579      00000000 
 580              		.section	.bss.speed_period_num,"aw",%nobits
 581              		.align	2
 582              		.set	.LANCHOR1,. + 0
 583              		.type	speed_period_num, %object
 584              		.size	speed_period_num, 4
 585              	speed_period_num:
 586 0000 00000000 		.space	4
 587              		.section	.data.icucfg,"aw",%progbits
 588              		.align	2
 589              		.set	.LANCHOR2,. + 0
 590              		.type	icucfg, %object
 591              		.size	icucfg, 28
 592              	icucfg:
 593 0000 00       		.byte	0
 594 0001 000000   		.space	3
 595 0004 40420F00 		.word	1000000
 596 0008 00000000 		.word	speedWheelPeriodNumber
 597 000c 00000000 		.word	speedWheelPeriodCb
 598 0010 00000000 		.word	0
 599 0014 00       		.byte	0
 600 0015 000000   		.space	3
 601 0018 00000000 		.word	0
 602              		.text
ARM GAS  C:\Users\DNIEL~1\AppData\Local\Temp\ccYKK2eE.s 			page 12


 603              	.Letext0:
 604              		.file 3 "c:\\chibistudio\\tools\\gnu tools arm embedded\\4.7 2014q2\\bin\\../lib/gcc/arm-none-eabi
 605              		.file 4 "c:\\chibistudio\\tools\\gnu tools arm embedded\\4.7 2014q2\\bin\\../lib/gcc/arm-none-eabi
 606              		.file 5 "../../../ChibiOS/os/ports/GCC/ARMCMx/chtypes.h"
 607              		.file 6 "../../../ChibiOS/os/kernel/include/chstreams.h"
 608              		.file 7 "../../../ChibiOS/os/hal/include/io_channel.h"
 609              		.file 8 "../../../ChibiOS/os/hal/include/icu.h"
 610              		.file 9 "../../../ChibiOS/os/hal/platforms/STM32/TIMv1/icu_lld.h"
 611              		.file 10 "../../../ChibiOS/os/hal/platforms/STM32/TIMv1/stm32_tim.h"
 612              		.file 11 "c:\\chibistudio\\tools\\gnu tools arm embedded\\4.7 2014q2\\bin\\../lib/gcc/arm-none-eab
 613              		.file 12 "<built-in>"
 614              		.file 13 "../../../ChibiOS/os/ports/common/ARMCMx/CMSIS/include/core_cm4.h"
 615              		.file 14 "../../../ChibiOS/os/kernel/include/chthreads.h"
 616              		.section	.debug_info,"",%progbits
 617              	.Ldebug_info0:
 618 0000 9D0A0000 		.4byte	0xa9d
 619 0004 0200     		.2byte	0x2
 620 0006 00000000 		.4byte	.Ldebug_abbrev0
 621 000a 04       		.byte	0x4
 622 000b 01       		.uleb128 0x1
 623 000c 6E000000 		.4byte	.LASF97
 624 0010 01       		.byte	0x1
 625 0011 C1000000 		.4byte	.LASF98
 626 0015 80030000 		.4byte	.LASF99
 627 0019 30000000 		.4byte	.Ldebug_ranges0+0x30
 628 001d 00000000 		.4byte	0
 629 0021 00000000 		.4byte	0
 630 0025 00000000 		.4byte	.Ldebug_line0
 631 0029 02       		.uleb128 0x2
 632 002a 04       		.byte	0x4
 633 002b 05       		.byte	0x5
 634 002c 696E7400 		.ascii	"int\000"
 635 0030 03       		.uleb128 0x3
 636 0031 54000000 		.4byte	.LASF2
 637 0035 03       		.byte	0x3
 638 0036 D5       		.byte	0xd5
 639 0037 3B000000 		.4byte	0x3b
 640 003b 04       		.uleb128 0x4
 641 003c 04       		.byte	0x4
 642 003d 07       		.byte	0x7
 643 003e 9C020000 		.4byte	.LASF0
 644 0042 04       		.uleb128 0x4
 645 0043 01       		.byte	0x1
 646 0044 06       		.byte	0x6
 647 0045 5B020000 		.4byte	.LASF1
 648 0049 03       		.uleb128 0x3
 649 004a 4E010000 		.4byte	.LASF3
 650 004e 04       		.byte	0x4
 651 004f 2A       		.byte	0x2a
 652 0050 54000000 		.4byte	0x54
 653 0054 04       		.uleb128 0x4
 654 0055 01       		.byte	0x1
 655 0056 08       		.byte	0x8
 656 0057 17020000 		.4byte	.LASF4
 657 005b 04       		.uleb128 0x4
 658 005c 02       		.byte	0x2
 659 005d 05       		.byte	0x5
ARM GAS  C:\Users\DNIEL~1\AppData\Local\Temp\ccYKK2eE.s 			page 13


 660 005e 4A000000 		.4byte	.LASF5
 661 0062 04       		.uleb128 0x4
 662 0063 02       		.byte	0x2
 663 0064 07       		.byte	0x7
 664 0065 D1020000 		.4byte	.LASF6
 665 0069 03       		.uleb128 0x3
 666 006a 22030000 		.4byte	.LASF7
 667 006e 04       		.byte	0x4
 668 006f 4F       		.byte	0x4f
 669 0070 74000000 		.4byte	0x74
 670 0074 04       		.uleb128 0x4
 671 0075 04       		.byte	0x4
 672 0076 05       		.byte	0x5
 673 0077 C6010000 		.4byte	.LASF8
 674 007b 03       		.uleb128 0x3
 675 007c 93020000 		.4byte	.LASF9
 676 0080 04       		.byte	0x4
 677 0081 50       		.byte	0x50
 678 0082 86000000 		.4byte	0x86
 679 0086 04       		.uleb128 0x4
 680 0087 04       		.byte	0x4
 681 0088 07       		.byte	0x7
 682 0089 AB030000 		.4byte	.LASF10
 683 008d 04       		.uleb128 0x4
 684 008e 08       		.byte	0x8
 685 008f 05       		.byte	0x5
 686 0090 A3010000 		.4byte	.LASF11
 687 0094 04       		.uleb128 0x4
 688 0095 08       		.byte	0x8
 689 0096 07       		.byte	0x7
 690 0097 7C020000 		.4byte	.LASF12
 691 009b 04       		.uleb128 0x4
 692 009c 01       		.byte	0x1
 693 009d 02       		.byte	0x2
 694 009e CB020000 		.4byte	.LASF13
 695 00a2 03       		.uleb128 0x3
 696 00a3 36040000 		.4byte	.LASF14
 697 00a7 05       		.byte	0x5
 698 00a8 31       		.byte	0x31
 699 00a9 69000000 		.4byte	0x69
 700 00ad 03       		.uleb128 0x3
 701 00ae E4020000 		.4byte	.LASF15
 702 00b2 05       		.byte	0x5
 703 00b3 35       		.byte	0x35
 704 00b4 7B000000 		.4byte	0x7b
 705 00b8 05       		.uleb128 0x5
 706 00b9 04       		.byte	0x4
 707 00ba 06       		.uleb128 0x6
 708 00bb 7B000000 		.4byte	0x7b
 709 00bf 04       		.uleb128 0x4
 710 00c0 04       		.byte	0x4
 711 00c1 07       		.byte	0x7
 712 00c2 65000000 		.4byte	.LASF16
 713 00c6 07       		.uleb128 0x7
 714 00c7 04       		.byte	0x4
 715 00c8 CC000000 		.4byte	0xcc
 716 00cc 08       		.uleb128 0x8
ARM GAS  C:\Users\DNIEL~1\AppData\Local\Temp\ccYKK2eE.s 			page 14


 717 00cd D1000000 		.4byte	0xd1
 718 00d1 04       		.uleb128 0x4
 719 00d2 01       		.byte	0x1
 720 00d3 08       		.byte	0x8
 721 00d4 F4020000 		.4byte	.LASF17
 722 00d8 07       		.uleb128 0x7
 723 00d9 04       		.byte	0x4
 724 00da DE000000 		.4byte	0xde
 725 00de 09       		.uleb128 0x9
 726 00df 01       		.byte	0x1
 727 00e0 A2000000 		.4byte	0xa2
 728 00e4 EE000000 		.4byte	0xee
 729 00e8 0A       		.uleb128 0xa
 730 00e9 B8000000 		.4byte	0xb8
 731 00ed 00       		.byte	0
 732 00ee 07       		.uleb128 0x7
 733 00ef 04       		.byte	0x4
 734 00f0 49000000 		.4byte	0x49
 735 00f4 0B       		.uleb128 0xb
 736 00f5 47040000 		.4byte	.LASF21
 737 00f9 10       		.byte	0x10
 738 00fa 06       		.byte	0x6
 739 00fb 48       		.byte	0x48
 740 00fc 39010000 		.4byte	0x139
 741 0100 0C       		.uleb128 0xc
 742 0101 05000000 		.4byte	.LASF18
 743 0105 06       		.byte	0x6
 744 0106 49       		.byte	0x49
 745 0107 5E010000 		.4byte	0x15e
 746 010b 02       		.byte	0x2
 747 010c 23       		.byte	0x23
 748 010d 00       		.uleb128 0
 749 010e 0C       		.uleb128 0xc
 750 010f 9E010000 		.4byte	.LASF19
 751 0113 06       		.byte	0x6
 752 0114 49       		.byte	0x49
 753 0115 7E010000 		.4byte	0x17e
 754 0119 02       		.byte	0x2
 755 011a 23       		.byte	0x23
 756 011b 04       		.uleb128 0x4
 757 011c 0D       		.uleb128 0xd
 758 011d 70757400 		.ascii	"put\000"
 759 0121 06       		.byte	0x6
 760 0122 49       		.byte	0x49
 761 0123 99010000 		.4byte	0x199
 762 0127 02       		.byte	0x2
 763 0128 23       		.byte	0x23
 764 0129 08       		.uleb128 0x8
 765 012a 0D       		.uleb128 0xd
 766 012b 67657400 		.ascii	"get\000"
 767 012f 06       		.byte	0x6
 768 0130 49       		.byte	0x49
 769 0131 D8000000 		.4byte	0xd8
 770 0135 02       		.byte	0x2
 771 0136 23       		.byte	0x23
 772 0137 0C       		.uleb128 0xc
 773 0138 00       		.byte	0
ARM GAS  C:\Users\DNIEL~1\AppData\Local\Temp\ccYKK2eE.s 			page 15


 774 0139 09       		.uleb128 0x9
 775 013a 01       		.byte	0x1
 776 013b 30000000 		.4byte	0x30
 777 013f 53010000 		.4byte	0x153
 778 0143 0A       		.uleb128 0xa
 779 0144 B8000000 		.4byte	0xb8
 780 0148 0A       		.uleb128 0xa
 781 0149 53010000 		.4byte	0x153
 782 014d 0A       		.uleb128 0xa
 783 014e 30000000 		.4byte	0x30
 784 0152 00       		.byte	0
 785 0153 07       		.uleb128 0x7
 786 0154 04       		.byte	0x4
 787 0155 59010000 		.4byte	0x159
 788 0159 08       		.uleb128 0x8
 789 015a 49000000 		.4byte	0x49
 790 015e 07       		.uleb128 0x7
 791 015f 04       		.byte	0x4
 792 0160 39010000 		.4byte	0x139
 793 0164 09       		.uleb128 0x9
 794 0165 01       		.byte	0x1
 795 0166 30000000 		.4byte	0x30
 796 016a 7E010000 		.4byte	0x17e
 797 016e 0A       		.uleb128 0xa
 798 016f B8000000 		.4byte	0xb8
 799 0173 0A       		.uleb128 0xa
 800 0174 EE000000 		.4byte	0xee
 801 0178 0A       		.uleb128 0xa
 802 0179 30000000 		.4byte	0x30
 803 017d 00       		.byte	0
 804 017e 07       		.uleb128 0x7
 805 017f 04       		.byte	0x4
 806 0180 64010000 		.4byte	0x164
 807 0184 09       		.uleb128 0x9
 808 0185 01       		.byte	0x1
 809 0186 A2000000 		.4byte	0xa2
 810 018a 99010000 		.4byte	0x199
 811 018e 0A       		.uleb128 0xa
 812 018f B8000000 		.4byte	0xb8
 813 0193 0A       		.uleb128 0xa
 814 0194 49000000 		.4byte	0x49
 815 0198 00       		.byte	0
 816 0199 07       		.uleb128 0x7
 817 019a 04       		.byte	0x4
 818 019b 84010000 		.4byte	0x184
 819 019f 0E       		.uleb128 0xe
 820 01a0 04       		.byte	0x4
 821 01a1 06       		.byte	0x6
 822 01a2 51       		.byte	0x51
 823 01a3 B6010000 		.4byte	0x1b6
 824 01a7 0D       		.uleb128 0xd
 825 01a8 766D7400 		.ascii	"vmt\000"
 826 01ac 06       		.byte	0x6
 827 01ad 53       		.byte	0x53
 828 01ae B6010000 		.4byte	0x1b6
 829 01b2 02       		.byte	0x2
 830 01b3 23       		.byte	0x23
ARM GAS  C:\Users\DNIEL~1\AppData\Local\Temp\ccYKK2eE.s 			page 16


 831 01b4 00       		.uleb128 0
 832 01b5 00       		.byte	0
 833 01b6 07       		.uleb128 0x7
 834 01b7 04       		.byte	0x4
 835 01b8 BC010000 		.4byte	0x1bc
 836 01bc 08       		.uleb128 0x8
 837 01bd F4000000 		.4byte	0xf4
 838 01c1 03       		.uleb128 0x3
 839 01c2 DE000000 		.4byte	.LASF20
 840 01c6 06       		.byte	0x6
 841 01c7 55       		.byte	0x55
 842 01c8 9F010000 		.4byte	0x19f
 843 01cc 0F       		.uleb128 0xf
 844 01cd 7B000000 		.4byte	0x7b
 845 01d1 DC010000 		.4byte	0x1dc
 846 01d5 10       		.uleb128 0x10
 847 01d6 BF000000 		.4byte	0xbf
 848 01da 03       		.byte	0x3
 849 01db 00       		.byte	0
 850 01dc 06       		.uleb128 0x6
 851 01dd 69000000 		.4byte	0x69
 852 01e1 07       		.uleb128 0x7
 853 01e2 04       		.byte	0x4
 854 01e3 BA000000 		.4byte	0xba
 855 01e7 0B       		.uleb128 0xb
 856 01e8 72010000 		.4byte	.LASF22
 857 01ec 20       		.byte	0x20
 858 01ed 07       		.byte	0x7
 859 01ee 4E       		.byte	0x4e
 860 01ef 64020000 		.4byte	0x264
 861 01f3 0C       		.uleb128 0xc
 862 01f4 05000000 		.4byte	.LASF18
 863 01f8 07       		.byte	0x7
 864 01f9 4F       		.byte	0x4f
 865 01fa 5E010000 		.4byte	0x15e
 866 01fe 02       		.byte	0x2
 867 01ff 23       		.byte	0x23
 868 0200 00       		.uleb128 0
 869 0201 0C       		.uleb128 0xc
 870 0202 9E010000 		.4byte	.LASF19
 871 0206 07       		.byte	0x7
 872 0207 4F       		.byte	0x4f
 873 0208 7E010000 		.4byte	0x17e
 874 020c 02       		.byte	0x2
 875 020d 23       		.byte	0x23
 876 020e 04       		.uleb128 0x4
 877 020f 0D       		.uleb128 0xd
 878 0210 70757400 		.ascii	"put\000"
 879 0214 07       		.byte	0x7
 880 0215 4F       		.byte	0x4f
 881 0216 99010000 		.4byte	0x199
 882 021a 02       		.byte	0x2
 883 021b 23       		.byte	0x23
 884 021c 08       		.uleb128 0x8
 885 021d 0D       		.uleb128 0xd
 886 021e 67657400 		.ascii	"get\000"
 887 0222 07       		.byte	0x7
ARM GAS  C:\Users\DNIEL~1\AppData\Local\Temp\ccYKK2eE.s 			page 17


 888 0223 4F       		.byte	0x4f
 889 0224 D8000000 		.4byte	0xd8
 890 0228 02       		.byte	0x2
 891 0229 23       		.byte	0x23
 892 022a 0C       		.uleb128 0xc
 893 022b 0C       		.uleb128 0xc
 894 022c B7020000 		.4byte	.LASF23
 895 0230 07       		.byte	0x7
 896 0231 4F       		.byte	0x4f
 897 0232 7E020000 		.4byte	0x27e
 898 0236 02       		.byte	0x2
 899 0237 23       		.byte	0x23
 900 0238 10       		.uleb128 0x10
 901 0239 0C       		.uleb128 0xc
 902 023a D9010000 		.4byte	.LASF24
 903 023e 07       		.byte	0x7
 904 023f 4F       		.byte	0x4f
 905 0240 99020000 		.4byte	0x299
 906 0244 02       		.byte	0x2
 907 0245 23       		.byte	0x23
 908 0246 14       		.uleb128 0x14
 909 0247 0C       		.uleb128 0xc
 910 0248 0C010000 		.4byte	.LASF25
 911 024c 07       		.byte	0x7
 912 024d 4F       		.byte	0x4f
 913 024e BE020000 		.4byte	0x2be
 914 0252 02       		.byte	0x2
 915 0253 23       		.byte	0x23
 916 0254 18       		.uleb128 0x18
 917 0255 0C       		.uleb128 0xc
 918 0256 EE020000 		.4byte	.LASF26
 919 025a 07       		.byte	0x7
 920 025b 4F       		.byte	0x4f
 921 025c E3020000 		.4byte	0x2e3
 922 0260 02       		.byte	0x2
 923 0261 23       		.byte	0x23
 924 0262 1C       		.uleb128 0x1c
 925 0263 00       		.byte	0
 926 0264 09       		.uleb128 0x9
 927 0265 01       		.byte	0x1
 928 0266 A2000000 		.4byte	0xa2
 929 026a 7E020000 		.4byte	0x27e
 930 026e 0A       		.uleb128 0xa
 931 026f B8000000 		.4byte	0xb8
 932 0273 0A       		.uleb128 0xa
 933 0274 49000000 		.4byte	0x49
 934 0278 0A       		.uleb128 0xa
 935 0279 AD000000 		.4byte	0xad
 936 027d 00       		.byte	0
 937 027e 07       		.uleb128 0x7
 938 027f 04       		.byte	0x4
 939 0280 64020000 		.4byte	0x264
 940 0284 09       		.uleb128 0x9
 941 0285 01       		.byte	0x1
 942 0286 A2000000 		.4byte	0xa2
 943 028a 99020000 		.4byte	0x299
 944 028e 0A       		.uleb128 0xa
ARM GAS  C:\Users\DNIEL~1\AppData\Local\Temp\ccYKK2eE.s 			page 18


 945 028f B8000000 		.4byte	0xb8
 946 0293 0A       		.uleb128 0xa
 947 0294 AD000000 		.4byte	0xad
 948 0298 00       		.byte	0
 949 0299 07       		.uleb128 0x7
 950 029a 04       		.byte	0x4
 951 029b 84020000 		.4byte	0x284
 952 029f 09       		.uleb128 0x9
 953 02a0 01       		.byte	0x1
 954 02a1 30000000 		.4byte	0x30
 955 02a5 BE020000 		.4byte	0x2be
 956 02a9 0A       		.uleb128 0xa
 957 02aa B8000000 		.4byte	0xb8
 958 02ae 0A       		.uleb128 0xa
 959 02af 53010000 		.4byte	0x153
 960 02b3 0A       		.uleb128 0xa
 961 02b4 30000000 		.4byte	0x30
 962 02b8 0A       		.uleb128 0xa
 963 02b9 AD000000 		.4byte	0xad
 964 02bd 00       		.byte	0
 965 02be 07       		.uleb128 0x7
 966 02bf 04       		.byte	0x4
 967 02c0 9F020000 		.4byte	0x29f
 968 02c4 09       		.uleb128 0x9
 969 02c5 01       		.byte	0x1
 970 02c6 30000000 		.4byte	0x30
 971 02ca E3020000 		.4byte	0x2e3
 972 02ce 0A       		.uleb128 0xa
 973 02cf B8000000 		.4byte	0xb8
 974 02d3 0A       		.uleb128 0xa
 975 02d4 EE000000 		.4byte	0xee
 976 02d8 0A       		.uleb128 0xa
 977 02d9 30000000 		.4byte	0x30
 978 02dd 0A       		.uleb128 0xa
 979 02de AD000000 		.4byte	0xad
 980 02e2 00       		.byte	0
 981 02e3 07       		.uleb128 0x7
 982 02e4 04       		.byte	0x4
 983 02e5 C4020000 		.4byte	0x2c4
 984 02e9 0E       		.uleb128 0xe
 985 02ea 04       		.byte	0x4
 986 02eb 07       		.byte	0x7
 987 02ec 59       		.byte	0x59
 988 02ed 00030000 		.4byte	0x300
 989 02f1 0D       		.uleb128 0xd
 990 02f2 766D7400 		.ascii	"vmt\000"
 991 02f6 07       		.byte	0x7
 992 02f7 5B       		.byte	0x5b
 993 02f8 00030000 		.4byte	0x300
 994 02fc 02       		.byte	0x2
 995 02fd 23       		.byte	0x23
 996 02fe 00       		.uleb128 0
 997 02ff 00       		.byte	0
 998 0300 07       		.uleb128 0x7
 999 0301 04       		.byte	0x4
 1000 0302 06030000 		.4byte	0x306
 1001 0306 08       		.uleb128 0x8
ARM GAS  C:\Users\DNIEL~1\AppData\Local\Temp\ccYKK2eE.s 			page 19


 1002 0307 E7010000 		.4byte	0x1e7
 1003 030b 03       		.uleb128 0x3
 1004 030c 1D040000 		.4byte	.LASF27
 1005 0310 07       		.byte	0x7
 1006 0311 5D       		.byte	0x5d
 1007 0312 E9020000 		.4byte	0x2e9
 1008 0316 11       		.uleb128 0x11
 1009 0317 01       		.byte	0x1
 1010 0318 08       		.byte	0x8
 1011 0319 3C       		.byte	0x3c
 1012 031a 43030000 		.4byte	0x343
 1013 031e 12       		.uleb128 0x12
 1014 031f 50030000 		.4byte	.LASF28
 1015 0323 00       		.sleb128 0
 1016 0324 12       		.uleb128 0x12
 1017 0325 0B000000 		.4byte	.LASF29
 1018 0329 01       		.sleb128 1
 1019 032a 12       		.uleb128 0x12
 1020 032b 13040000 		.4byte	.LASF30
 1021 032f 02       		.sleb128 2
 1022 0330 12       		.uleb128 0x12
 1023 0331 5F040000 		.4byte	.LASF31
 1024 0335 03       		.sleb128 3
 1025 0336 12       		.uleb128 0x12
 1026 0337 CA030000 		.4byte	.LASF32
 1027 033b 04       		.sleb128 4
 1028 033c 12       		.uleb128 0x12
 1029 033d 2D010000 		.4byte	.LASF33
 1030 0341 05       		.sleb128 5
 1031 0342 00       		.byte	0
 1032 0343 03       		.uleb128 0x3
 1033 0344 3C040000 		.4byte	.LASF34
 1034 0348 08       		.byte	0x8
 1035 0349 43       		.byte	0x43
 1036 034a 16030000 		.4byte	0x316
 1037 034e 03       		.uleb128 0x3
 1038 034f F0030000 		.4byte	.LASF35
 1039 0353 08       		.byte	0x8
 1040 0354 48       		.byte	0x48
 1041 0355 59030000 		.4byte	0x359
 1042 0359 13       		.uleb128 0x13
 1043 035a F0030000 		.4byte	.LASF35
 1044 035e 18       		.byte	0x18
 1045 035f 09       		.byte	0x9
 1046 0360 3101     		.2byte	0x131
 1047 0362 C1030000 		.4byte	0x3c1
 1048 0366 14       		.uleb128 0x14
 1049 0367 38000000 		.4byte	.LASF36
 1050 036b 09       		.byte	0x9
 1051 036c 3501     		.2byte	0x135
 1052 036e 43030000 		.4byte	0x343
 1053 0372 02       		.byte	0x2
 1054 0373 23       		.byte	0x23
 1055 0374 00       		.uleb128 0
 1056 0375 14       		.uleb128 0x14
 1057 0376 13010000 		.4byte	.LASF37
 1058 037a 09       		.byte	0x9
ARM GAS  C:\Users\DNIEL~1\AppData\Local\Temp\ccYKK2eE.s 			page 20


 1059 037b 3901     		.2byte	0x139
 1060 037d 02060000 		.4byte	0x602
 1061 0381 02       		.byte	0x2
 1062 0382 23       		.byte	0x23
 1063 0383 04       		.uleb128 0x4
 1064 0384 14       		.uleb128 0x14
 1065 0385 BD030000 		.4byte	.LASF38
 1066 0389 09       		.byte	0x9
 1067 038a 4101     		.2byte	0x141
 1068 038c 7B000000 		.4byte	0x7b
 1069 0390 02       		.byte	0x2
 1070 0391 23       		.byte	0x23
 1071 0392 08       		.uleb128 0x8
 1072 0393 15       		.uleb128 0x15
 1073 0394 74696D00 		.ascii	"tim\000"
 1074 0398 09       		.byte	0x9
 1075 0399 4501     		.2byte	0x145
 1076 039b 0D060000 		.4byte	0x60d
 1077 039f 02       		.byte	0x2
 1078 03a0 23       		.byte	0x23
 1079 03a1 0C       		.uleb128 0xc
 1080 03a2 14       		.uleb128 0x14
 1081 03a3 C0010000 		.4byte	.LASF39
 1082 03a7 09       		.byte	0x9
 1083 03a8 4901     		.2byte	0x149
 1084 03aa E1010000 		.4byte	0x1e1
 1085 03ae 02       		.byte	0x2
 1086 03af 23       		.byte	0x23
 1087 03b0 10       		.uleb128 0x10
 1088 03b1 14       		.uleb128 0x14
 1089 03b2 DE010000 		.4byte	.LASF40
 1090 03b6 09       		.byte	0x9
 1091 03b7 4D01     		.2byte	0x14d
 1092 03b9 E1010000 		.4byte	0x1e1
 1093 03bd 02       		.byte	0x2
 1094 03be 23       		.byte	0x23
 1095 03bf 14       		.uleb128 0x14
 1096 03c0 00       		.byte	0
 1097 03c1 03       		.uleb128 0x3
 1098 03c2 F9020000 		.4byte	.LASF41
 1099 03c6 08       		.byte	0x8
 1100 03c7 4F       		.byte	0x4f
 1101 03c8 CC030000 		.4byte	0x3cc
 1102 03cc 07       		.uleb128 0x7
 1103 03cd 04       		.byte	0x4
 1104 03ce D2030000 		.4byte	0x3d2
 1105 03d2 16       		.uleb128 0x16
 1106 03d3 01       		.byte	0x1
 1107 03d4 DE030000 		.4byte	0x3de
 1108 03d8 0A       		.uleb128 0xa
 1109 03d9 DE030000 		.4byte	0x3de
 1110 03dd 00       		.byte	0
 1111 03de 07       		.uleb128 0x7
 1112 03df 04       		.byte	0x4
 1113 03e0 4E030000 		.4byte	0x34e
 1114 03e4 17       		.uleb128 0x17
 1115 03e5 60       		.byte	0x60
ARM GAS  C:\Users\DNIEL~1\AppData\Local\Temp\ccYKK2eE.s 			page 21


 1116 03e6 0A       		.byte	0xa
 1117 03e7 9E01     		.2byte	0x19e
 1118 03e9 27050000 		.4byte	0x527
 1119 03ed 15       		.uleb128 0x15
 1120 03ee 43523100 		.ascii	"CR1\000"
 1121 03f2 0A       		.byte	0xa
 1122 03f3 9F01     		.2byte	0x19f
 1123 03f5 BA000000 		.4byte	0xba
 1124 03f9 02       		.byte	0x2
 1125 03fa 23       		.byte	0x23
 1126 03fb 00       		.uleb128 0
 1127 03fc 15       		.uleb128 0x15
 1128 03fd 43523200 		.ascii	"CR2\000"
 1129 0401 0A       		.byte	0xa
 1130 0402 A001     		.2byte	0x1a0
 1131 0404 BA000000 		.4byte	0xba
 1132 0408 02       		.byte	0x2
 1133 0409 23       		.byte	0x23
 1134 040a 04       		.uleb128 0x4
 1135 040b 14       		.uleb128 0x14
 1136 040c 12020000 		.4byte	.LASF42
 1137 0410 0A       		.byte	0xa
 1138 0411 A101     		.2byte	0x1a1
 1139 0413 BA000000 		.4byte	0xba
 1140 0417 02       		.byte	0x2
 1141 0418 23       		.byte	0x23
 1142 0419 08       		.uleb128 0x8
 1143 041a 14       		.uleb128 0x14
 1144 041b BC020000 		.4byte	.LASF43
 1145 041f 0A       		.byte	0xa
 1146 0420 A201     		.2byte	0x1a2
 1147 0422 BA000000 		.4byte	0xba
 1148 0426 02       		.byte	0x2
 1149 0427 23       		.byte	0x23
 1150 0428 0C       		.uleb128 0xc
 1151 0429 15       		.uleb128 0x15
 1152 042a 535200   		.ascii	"SR\000"
 1153 042d 0A       		.byte	0xa
 1154 042e A301     		.2byte	0x1a3
 1155 0430 BA000000 		.4byte	0xba
 1156 0434 02       		.byte	0x2
 1157 0435 23       		.byte	0x23
 1158 0436 10       		.uleb128 0x10
 1159 0437 15       		.uleb128 0x15
 1160 0438 45475200 		.ascii	"EGR\000"
 1161 043c 0A       		.byte	0xa
 1162 043d A401     		.2byte	0x1a4
 1163 043f BA000000 		.4byte	0xba
 1164 0443 02       		.byte	0x2
 1165 0444 23       		.byte	0x23
 1166 0445 14       		.uleb128 0x14
 1167 0446 14       		.uleb128 0x14
 1168 0447 E4010000 		.4byte	.LASF44
 1169 044b 0A       		.byte	0xa
 1170 044c A501     		.2byte	0x1a5
 1171 044e BA000000 		.4byte	0xba
 1172 0452 02       		.byte	0x2
ARM GAS  C:\Users\DNIEL~1\AppData\Local\Temp\ccYKK2eE.s 			page 22


 1173 0453 23       		.byte	0x23
 1174 0454 18       		.uleb128 0x18
 1175 0455 14       		.uleb128 0x14
 1176 0456 3E000000 		.4byte	.LASF45
 1177 045a 0A       		.byte	0xa
 1178 045b A601     		.2byte	0x1a6
 1179 045d BA000000 		.4byte	0xba
 1180 0461 02       		.byte	0x2
 1181 0462 23       		.byte	0x23
 1182 0463 1C       		.uleb128 0x1c
 1183 0464 14       		.uleb128 0x14
 1184 0465 00000000 		.4byte	.LASF46
 1185 0469 0A       		.byte	0xa
 1186 046a A701     		.2byte	0x1a7
 1187 046c BA000000 		.4byte	0xba
 1188 0470 02       		.byte	0x2
 1189 0471 23       		.byte	0x23
 1190 0472 20       		.uleb128 0x20
 1191 0473 15       		.uleb128 0x15
 1192 0474 434E5400 		.ascii	"CNT\000"
 1193 0478 0A       		.byte	0xa
 1194 0479 A801     		.2byte	0x1a8
 1195 047b BA000000 		.4byte	0xba
 1196 047f 02       		.byte	0x2
 1197 0480 23       		.byte	0x23
 1198 0481 24       		.uleb128 0x24
 1199 0482 15       		.uleb128 0x15
 1200 0483 50534300 		.ascii	"PSC\000"
 1201 0487 0A       		.byte	0xa
 1202 0488 A901     		.2byte	0x1a9
 1203 048a BA000000 		.4byte	0xba
 1204 048e 02       		.byte	0x2
 1205 048f 23       		.byte	0x23
 1206 0490 28       		.uleb128 0x28
 1207 0491 15       		.uleb128 0x15
 1208 0492 41525200 		.ascii	"ARR\000"
 1209 0496 0A       		.byte	0xa
 1210 0497 AA01     		.2byte	0x1aa
 1211 0499 BA000000 		.4byte	0xba
 1212 049d 02       		.byte	0x2
 1213 049e 23       		.byte	0x23
 1214 049f 2C       		.uleb128 0x2c
 1215 04a0 15       		.uleb128 0x15
 1216 04a1 52435200 		.ascii	"RCR\000"
 1217 04a5 0A       		.byte	0xa
 1218 04a6 AB01     		.2byte	0x1ab
 1219 04a8 BA000000 		.4byte	0xba
 1220 04ac 02       		.byte	0x2
 1221 04ad 23       		.byte	0x23
 1222 04ae 30       		.uleb128 0x30
 1223 04af 15       		.uleb128 0x15
 1224 04b0 43435200 		.ascii	"CCR\000"
 1225 04b4 0A       		.byte	0xa
 1226 04b5 AC01     		.2byte	0x1ac
 1227 04b7 27050000 		.4byte	0x527
 1228 04bb 02       		.byte	0x2
 1229 04bc 23       		.byte	0x23
ARM GAS  C:\Users\DNIEL~1\AppData\Local\Temp\ccYKK2eE.s 			page 23


 1230 04bd 34       		.uleb128 0x34
 1231 04be 14       		.uleb128 0x14
 1232 04bf 1D030000 		.4byte	.LASF47
 1233 04c3 0A       		.byte	0xa
 1234 04c4 AD01     		.2byte	0x1ad
 1235 04c6 BA000000 		.4byte	0xba
 1236 04ca 02       		.byte	0x2
 1237 04cb 23       		.byte	0x23
 1238 04cc 44       		.uleb128 0x44
 1239 04cd 15       		.uleb128 0x15
 1240 04ce 44435200 		.ascii	"DCR\000"
 1241 04d2 0A       		.byte	0xa
 1242 04d3 AE01     		.2byte	0x1ae
 1243 04d5 BA000000 		.4byte	0xba
 1244 04d9 02       		.byte	0x2
 1245 04da 23       		.byte	0x23
 1246 04db 48       		.uleb128 0x48
 1247 04dc 14       		.uleb128 0x14
 1248 04dd 21000000 		.4byte	.LASF48
 1249 04e1 0A       		.byte	0xa
 1250 04e2 AF01     		.2byte	0x1af
 1251 04e4 BA000000 		.4byte	0xba
 1252 04e8 02       		.byte	0x2
 1253 04e9 23       		.byte	0x23
 1254 04ea 4C       		.uleb128 0x4c
 1255 04eb 15       		.uleb128 0x15
 1256 04ec 4F5200   		.ascii	"OR\000"
 1257 04ef 0A       		.byte	0xa
 1258 04f0 B001     		.2byte	0x1b0
 1259 04f2 BA000000 		.4byte	0xba
 1260 04f6 02       		.byte	0x2
 1261 04f7 23       		.byte	0x23
 1262 04f8 50       		.uleb128 0x50
 1263 04f9 14       		.uleb128 0x14
 1264 04fa 44000000 		.4byte	.LASF49
 1265 04fe 0A       		.byte	0xa
 1266 04ff B101     		.2byte	0x1b1
 1267 0501 BA000000 		.4byte	0xba
 1268 0505 02       		.byte	0x2
 1269 0506 23       		.byte	0x23
 1270 0507 54       		.uleb128 0x54
 1271 0508 14       		.uleb128 0x14
 1272 0509 CF010000 		.4byte	.LASF50
 1273 050d 0A       		.byte	0xa
 1274 050e B201     		.2byte	0x1b2
 1275 0510 BA000000 		.4byte	0xba
 1276 0514 02       		.byte	0x2
 1277 0515 23       		.byte	0x23
 1278 0516 58       		.uleb128 0x58
 1279 0517 14       		.uleb128 0x14
 1280 0518 D4010000 		.4byte	.LASF51
 1281 051c 0A       		.byte	0xa
 1282 051d B301     		.2byte	0x1b3
 1283 051f BA000000 		.4byte	0xba
 1284 0523 02       		.byte	0x2
 1285 0524 23       		.byte	0x23
 1286 0525 5C       		.uleb128 0x5c
ARM GAS  C:\Users\DNIEL~1\AppData\Local\Temp\ccYKK2eE.s 			page 24


 1287 0526 00       		.byte	0
 1288 0527 06       		.uleb128 0x6
 1289 0528 CC010000 		.4byte	0x1cc
 1290 052c 18       		.uleb128 0x18
 1291 052d 07030000 		.4byte	.LASF52
 1292 0531 0A       		.byte	0xa
 1293 0532 B401     		.2byte	0x1b4
 1294 0534 E4030000 		.4byte	0x3e4
 1295 0538 11       		.uleb128 0x11
 1296 0539 01       		.byte	0x1
 1297 053a 09       		.byte	0x9
 1298 053b EE       		.byte	0xee
 1299 053c 4D050000 		.4byte	0x54d
 1300 0540 12       		.uleb128 0x12
 1301 0541 6A030000 		.4byte	.LASF53
 1302 0545 00       		.sleb128 0
 1303 0546 12       		.uleb128 0x12
 1304 0547 2A030000 		.4byte	.LASF54
 1305 054b 01       		.sleb128 1
 1306 054c 00       		.byte	0
 1307 054d 03       		.uleb128 0x3
 1308 054e B7000000 		.4byte	.LASF55
 1309 0552 09       		.byte	0x9
 1310 0553 F1       		.byte	0xf1
 1311 0554 38050000 		.4byte	0x538
 1312 0558 03       		.uleb128 0x3
 1313 0559 C1020000 		.4byte	.LASF56
 1314 055d 09       		.byte	0x9
 1315 055e F6       		.byte	0xf6
 1316 055f 7B000000 		.4byte	0x7b
 1317 0563 11       		.uleb128 0x11
 1318 0564 01       		.byte	0x1
 1319 0565 09       		.byte	0x9
 1320 0566 FB       		.byte	0xfb
 1321 0567 78050000 		.4byte	0x578
 1322 056b 12       		.uleb128 0x12
 1323 056c 56010000 		.4byte	.LASF57
 1324 0570 00       		.sleb128 0
 1325 0571 12       		.uleb128 0x12
 1326 0572 64010000 		.4byte	.LASF58
 1327 0576 01       		.sleb128 1
 1328 0577 00       		.byte	0
 1329 0578 03       		.uleb128 0x3
 1330 0579 14000000 		.4byte	.LASF59
 1331 057d 09       		.byte	0x9
 1332 057e FE       		.byte	0xfe
 1333 057f 63050000 		.4byte	0x563
 1334 0583 17       		.uleb128 0x17
 1335 0584 1C       		.byte	0x1c
 1336 0585 09       		.byte	0x9
 1337 0586 0901     		.2byte	0x109
 1338 0588 F6050000 		.4byte	0x5f6
 1339 058c 14       		.uleb128 0x14
 1340 058d FE000000 		.4byte	.LASF60
 1341 0591 09       		.byte	0x9
 1342 0592 0D01     		.2byte	0x10d
 1343 0594 4D050000 		.4byte	0x54d
ARM GAS  C:\Users\DNIEL~1\AppData\Local\Temp\ccYKK2eE.s 			page 25


 1344 0598 02       		.byte	0x2
 1345 0599 23       		.byte	0x23
 1346 059a 00       		.uleb128 0
 1347 059b 14       		.uleb128 0x14
 1348 059c 5B030000 		.4byte	.LASF61
 1349 05a0 09       		.byte	0x9
 1350 05a1 1301     		.2byte	0x113
 1351 05a3 58050000 		.4byte	0x558
 1352 05a7 02       		.byte	0x2
 1353 05a8 23       		.byte	0x23
 1354 05a9 04       		.uleb128 0x4
 1355 05aa 14       		.uleb128 0x14
 1356 05ab 8E010000 		.4byte	.LASF62
 1357 05af 09       		.byte	0x9
 1358 05b0 1701     		.2byte	0x117
 1359 05b2 C1030000 		.4byte	0x3c1
 1360 05b6 02       		.byte	0x2
 1361 05b7 23       		.byte	0x23
 1362 05b8 08       		.uleb128 0x8
 1363 05b9 14       		.uleb128 0x14
 1364 05ba 13030000 		.4byte	.LASF63
 1365 05be 09       		.byte	0x9
 1366 05bf 1B01     		.2byte	0x11b
 1367 05c1 C1030000 		.4byte	0x3c1
 1368 05c5 02       		.byte	0x2
 1369 05c6 23       		.byte	0x23
 1370 05c7 0C       		.uleb128 0xc
 1371 05c8 14       		.uleb128 0x14
 1372 05c9 DF030000 		.4byte	.LASF64
 1373 05cd 09       		.byte	0x9
 1374 05ce 1F01     		.2byte	0x11f
 1375 05d0 C1030000 		.4byte	0x3c1
 1376 05d4 02       		.byte	0x2
 1377 05d5 23       		.byte	0x23
 1378 05d6 10       		.uleb128 0x10
 1379 05d7 14       		.uleb128 0x14
 1380 05d8 48030000 		.4byte	.LASF65
 1381 05dc 09       		.byte	0x9
 1382 05dd 2501     		.2byte	0x125
 1383 05df 78050000 		.4byte	0x578
 1384 05e3 02       		.byte	0x2
 1385 05e4 23       		.byte	0x23
 1386 05e5 14       		.uleb128 0x14
 1387 05e6 14       		.uleb128 0x14
 1388 05e7 EB030000 		.4byte	.LASF66
 1389 05eb 09       		.byte	0x9
 1390 05ec 2B01     		.2byte	0x12b
 1391 05ee 7B000000 		.4byte	0x7b
 1392 05f2 02       		.byte	0x2
 1393 05f3 23       		.byte	0x23
 1394 05f4 18       		.uleb128 0x18
 1395 05f5 00       		.byte	0
 1396 05f6 18       		.uleb128 0x18
 1397 05f7 25020000 		.4byte	.LASF67
 1398 05fb 09       		.byte	0x9
 1399 05fc 2C01     		.2byte	0x12c
 1400 05fe 83050000 		.4byte	0x583
ARM GAS  C:\Users\DNIEL~1\AppData\Local\Temp\ccYKK2eE.s 			page 26


 1401 0602 07       		.uleb128 0x7
 1402 0603 04       		.byte	0x4
 1403 0604 08060000 		.4byte	0x608
 1404 0608 08       		.uleb128 0x8
 1405 0609 F6050000 		.4byte	0x5f6
 1406 060d 07       		.uleb128 0x7
 1407 060e 04       		.byte	0x4
 1408 060f 2C050000 		.4byte	0x52c
 1409 0613 03       		.uleb128 0x3
 1410 0614 FA030000 		.4byte	.LASF68
 1411 0618 0B       		.byte	0xb
 1412 0619 28       		.byte	0x28
 1413 061a 1E060000 		.4byte	0x61e
 1414 061e 0B       		.uleb128 0xb
 1415 061f B1010000 		.4byte	.LASF69
 1416 0623 04       		.byte	0x4
 1417 0624 0C       		.byte	0xc
 1418 0625 00       		.byte	0
 1419 0626 38060000 		.4byte	0x638
 1420 062a 19       		.uleb128 0x19
 1421 062b A9020000 		.4byte	.LASF100
 1422 062f B8000000 		.4byte	0xb8
 1423 0633 02       		.byte	0x2
 1424 0634 23       		.byte	0x23
 1425 0635 00       		.uleb128 0
 1426 0636 01       		.byte	0x1
 1427 0637 00       		.byte	0
 1428 0638 03       		.uleb128 0x3
 1429 0639 36010000 		.4byte	.LASF70
 1430 063d 0B       		.byte	0xb
 1431 063e 66       		.byte	0x66
 1432 063f 13060000 		.4byte	0x613
 1433 0643 1A       		.uleb128 0x1a
 1434 0644 35020000 		.4byte	.LASF71
 1435 0648 01       		.byte	0x1
 1436 0649 26       		.byte	0x26
 1437 064a 01       		.byte	0x1
 1438 064b 00000000 		.4byte	.LFB119
 1439 064f 12000000 		.4byte	.LFE119
 1440 0653 02       		.byte	0x2
 1441 0654 7D       		.byte	0x7d
 1442 0655 00       		.sleb128 0
 1443 0656 01       		.byte	0x1
 1444 0657 6B060000 		.4byte	0x66b
 1445 065b 1B       		.uleb128 0x1b
 1446 065c BB010000 		.4byte	.LASF73
 1447 0660 01       		.byte	0x1
 1448 0661 26       		.byte	0x26
 1449 0662 DE030000 		.4byte	0x3de
 1450 0666 00000000 		.4byte	.LLST0
 1451 066a 00       		.byte	0
 1452 066b 1A       		.uleb128 0x1a
 1453 066c EA010000 		.4byte	.LASF72
 1454 0670 01       		.byte	0x1
 1455 0671 2A       		.byte	0x2a
 1456 0672 01       		.byte	0x1
 1457 0673 00000000 		.4byte	.LFB120
ARM GAS  C:\Users\DNIEL~1\AppData\Local\Temp\ccYKK2eE.s 			page 27


 1458 0677 10000000 		.4byte	.LFE120
 1459 067b 02       		.byte	0x2
 1460 067c 7D       		.byte	0x7d
 1461 067d 00       		.sleb128 0
 1462 067e 01       		.byte	0x1
 1463 067f 93060000 		.4byte	0x693
 1464 0683 1B       		.uleb128 0x1b
 1465 0684 BB010000 		.4byte	.LASF73
 1466 0688 01       		.byte	0x1
 1467 0689 2A       		.byte	0x2a
 1468 068a DE030000 		.4byte	0x3de
 1469 068e 21000000 		.4byte	.LLST1
 1470 0692 00       		.byte	0
 1471 0693 1C       		.uleb128 0x1c
 1472 0694 3F030000 		.4byte	.LASF74
 1473 0698 02       		.byte	0x2
 1474 0699 45       		.byte	0x45
 1475 069a 01       		.byte	0x1
 1476 069b 00000000 		.4byte	.LFB118
 1477 069f 1E000000 		.4byte	.LFE118
 1478 06a3 42000000 		.4byte	.LLST2
 1479 06a7 01       		.byte	0x1
 1480 06a8 F6060000 		.4byte	0x6f6
 1481 06ac 1D       		.uleb128 0x1d
 1482 06ad 63687000 		.ascii	"chp\000"
 1483 06b1 02       		.byte	0x2
 1484 06b2 45       		.byte	0x45
 1485 06b3 F6060000 		.4byte	0x6f6
 1486 06b7 7A000000 		.4byte	.LLST3
 1487 06bb 1E       		.uleb128 0x1e
 1488 06bc 666D7400 		.ascii	"fmt\000"
 1489 06c0 02       		.byte	0x2
 1490 06c1 45       		.byte	0x45
 1491 06c2 C6000000 		.4byte	0xc6
 1492 06c6 02       		.byte	0x2
 1493 06c7 91       		.byte	0x91
 1494 06c8 74       		.sleb128 -12
 1495 06c9 1F       		.uleb128 0x1f
 1496 06ca 20       		.uleb128 0x20
 1497 06cb 617000   		.ascii	"ap\000"
 1498 06ce 02       		.byte	0x2
 1499 06cf 46       		.byte	0x46
 1500 06d0 38060000 		.4byte	0x638
 1501 06d4 02       		.byte	0x2
 1502 06d5 91       		.byte	0x91
 1503 06d6 6C       		.sleb128 -20
 1504 06d7 21       		.uleb128 0x21
 1505 06d8 14000000 		.4byte	.LVL5
 1506 06dc 440A0000 		.4byte	0xa44
 1507 06e0 22       		.uleb128 0x22
 1508 06e1 01       		.byte	0x1
 1509 06e2 52       		.byte	0x52
 1510 06e3 02       		.byte	0x2
 1511 06e4 91       		.byte	0x91
 1512 06e5 60       		.sleb128 -32
 1513 06e6 22       		.uleb128 0x22
 1514 06e7 01       		.byte	0x1
ARM GAS  C:\Users\DNIEL~1\AppData\Local\Temp\ccYKK2eE.s 			page 28


 1515 06e8 51       		.byte	0x51
 1516 06e9 03       		.byte	0x3
 1517 06ea 91       		.byte	0x91
 1518 06eb 5C       		.sleb128 -36
 1519 06ec 06       		.byte	0x6
 1520 06ed 22       		.uleb128 0x22
 1521 06ee 01       		.byte	0x1
 1522 06ef 50       		.byte	0x50
 1523 06f0 03       		.byte	0x3
 1524 06f1 F3       		.byte	0xf3
 1525 06f2 01       		.uleb128 0x1
 1526 06f3 50       		.byte	0x50
 1527 06f4 00       		.byte	0
 1528 06f5 00       		.byte	0
 1529 06f6 07       		.uleb128 0x7
 1530 06f7 04       		.byte	0x4
 1531 06f8 C1010000 		.4byte	0x1c1
 1532 06fc 23       		.uleb128 0x23
 1533 06fd 01       		.byte	0x1
 1534 06fe 5B000000 		.4byte	.LASF75
 1535 0702 01       		.byte	0x1
 1536 0703 2F       		.byte	0x2f
 1537 0704 01       		.byte	0x1
 1538 0705 00000000 		.4byte	.LFB121
 1539 0709 2C000000 		.4byte	.LFE121
 1540 070d 9B000000 		.4byte	.LLST4
 1541 0711 01       		.byte	0x1
 1542 0712 44070000 		.4byte	0x744
 1543 0716 24       		.uleb128 0x24
 1544 0717 18000000 		.4byte	.LVL6
 1545 071b 620A0000 		.4byte	0xa62
 1546 071f 33070000 		.4byte	0x733
 1547 0723 22       		.uleb128 0x22
 1548 0724 01       		.byte	0x1
 1549 0725 51       		.byte	0x51
 1550 0726 05       		.byte	0x5
 1551 0727 03       		.byte	0x3
 1552 0728 00000000 		.4byte	.LANCHOR2
 1553 072c 22       		.uleb128 0x22
 1554 072d 01       		.byte	0x1
 1555 072e 50       		.byte	0x50
 1556 072f 02       		.byte	0x2
 1557 0730 74       		.byte	0x74
 1558 0731 00       		.sleb128 0
 1559 0732 00       		.byte	0
 1560 0733 21       		.uleb128 0x21
 1561 0734 1E000000 		.4byte	.LVL7
 1562 0738 7B0A0000 		.4byte	0xa7b
 1563 073c 22       		.uleb128 0x22
 1564 073d 01       		.byte	0x1
 1565 073e 50       		.byte	0x50
 1566 073f 02       		.byte	0x2
 1567 0740 74       		.byte	0x74
 1568 0741 00       		.sleb128 0
 1569 0742 00       		.byte	0
 1570 0743 00       		.byte	0
 1571 0744 25       		.uleb128 0x25
ARM GAS  C:\Users\DNIEL~1\AppData\Local\Temp\ccYKK2eE.s 			page 29


 1572 0745 01       		.byte	0x1
 1573 0746 D5030000 		.4byte	.LASF76
 1574 074a 01       		.byte	0x1
 1575 074b 3A       		.byte	0x3a
 1576 074c 01       		.byte	0x1
 1577 074d 00000000 		.4byte	.LFB122
 1578 0751 A8000000 		.4byte	.LFE122
 1579 0755 BB000000 		.4byte	.LLST5
 1580 0759 01       		.byte	0x1
 1581 075a 7B070000 		.4byte	0x77b
 1582 075e 26       		.uleb128 0x26
 1583 075f 6900     		.ascii	"i\000"
 1584 0761 01       		.byte	0x1
 1585 0762 3B       		.byte	0x3b
 1586 0763 29000000 		.4byte	0x29
 1587 0767 DB000000 		.4byte	.LLST6
 1588 076b 27       		.uleb128 0x27
 1589 076c 86010000 		.4byte	.LASF77
 1590 0770 01       		.byte	0x1
 1591 0771 3C       		.byte	0x3c
 1592 0772 7B070000 		.4byte	0x77b
 1593 0776 EF000000 		.4byte	.LLST7
 1594 077a 00       		.byte	0
 1595 077b 04       		.uleb128 0x4
 1596 077c 08       		.byte	0x8
 1597 077d 04       		.byte	0x4
 1598 077e C3030000 		.4byte	.LASF78
 1599 0782 28       		.uleb128 0x28
 1600 0783 01       		.byte	0x1
 1601 0784 1A010000 		.4byte	.LASF79
 1602 0788 01       		.byte	0x1
 1603 0789 56       		.byte	0x56
 1604 078a 01       		.byte	0x1
 1605 078b 7B000000 		.4byte	0x7b
 1606 078f 00000000 		.4byte	.LFB123
 1607 0793 18000000 		.4byte	.LFE123
 1608 0797 02       		.byte	0x2
 1609 0798 7D       		.byte	0x7d
 1610 0799 00       		.sleb128 0
 1611 079a 01       		.byte	0x1
 1612 079b DF070000 		.4byte	0x7df
 1613 079f 20       		.uleb128 0x20
 1614 07a0 746D7000 		.ascii	"tmp\000"
 1615 07a4 01       		.byte	0x1
 1616 07a5 57       		.byte	0x57
 1617 07a6 7B000000 		.4byte	0x7b
 1618 07aa 01       		.byte	0x1
 1619 07ab 50       		.byte	0x50
 1620 07ac 29       		.uleb128 0x29
 1621 07ad 00000000 		.4byte	.LBB2
 1622 07b1 06000000 		.4byte	.LBE2
 1623 07b5 C9070000 		.4byte	0x7c9
 1624 07b9 26       		.uleb128 0x26
 1625 07ba 746D7000 		.ascii	"tmp\000"
 1626 07be 01       		.byte	0x1
 1627 07bf 59       		.byte	0x59
 1628 07c0 7B000000 		.4byte	0x7b
ARM GAS  C:\Users\DNIEL~1\AppData\Local\Temp\ccYKK2eE.s 			page 30


 1629 07c4 2B010000 		.4byte	.LLST8
 1630 07c8 00       		.byte	0
 1631 07c9 2A       		.uleb128 0x2a
 1632 07ca 00000000 		.4byte	.Ldebug_ranges0+0
 1633 07ce 26       		.uleb128 0x26
 1634 07cf 746D7000 		.ascii	"tmp\000"
 1635 07d3 01       		.byte	0x1
 1636 07d4 5B       		.byte	0x5b
 1637 07d5 7B000000 		.4byte	0x7b
 1638 07d9 3E010000 		.4byte	.LLST9
 1639 07dd 00       		.byte	0
 1640 07de 00       		.byte	0
 1641 07df 28       		.uleb128 0x28
 1642 07e0 01       		.byte	0x1
 1643 07e1 67020000 		.4byte	.LASF80
 1644 07e5 01       		.byte	0x1
 1645 07e6 5F       		.byte	0x5f
 1646 07e7 01       		.byte	0x1
 1647 07e8 7B000000 		.4byte	0x7b
 1648 07ec 00000000 		.4byte	.LFB124
 1649 07f0 18000000 		.4byte	.LFE124
 1650 07f4 02       		.byte	0x2
 1651 07f5 7D       		.byte	0x7d
 1652 07f6 00       		.sleb128 0
 1653 07f7 01       		.byte	0x1
 1654 07f8 3C080000 		.4byte	0x83c
 1655 07fc 2B       		.uleb128 0x2b
 1656 07fd 65030000 		.4byte	.LASF81
 1657 0801 01       		.byte	0x1
 1658 0802 60       		.byte	0x60
 1659 0803 7B000000 		.4byte	0x7b
 1660 0807 01       		.byte	0x1
 1661 0808 50       		.byte	0x50
 1662 0809 29       		.uleb128 0x29
 1663 080a 00000000 		.4byte	.LBB5
 1664 080e 06000000 		.4byte	.LBE5
 1665 0812 26080000 		.4byte	0x826
 1666 0816 26       		.uleb128 0x26
 1667 0817 746D7000 		.ascii	"tmp\000"
 1668 081b 01       		.byte	0x1
 1669 081c 62       		.byte	0x62
 1670 081d 7B000000 		.4byte	0x7b
 1671 0821 51010000 		.4byte	.LLST10
 1672 0825 00       		.byte	0
 1673 0826 2A       		.uleb128 0x2a
 1674 0827 18000000 		.4byte	.Ldebug_ranges0+0x18
 1675 082b 26       		.uleb128 0x26
 1676 082c 746D7000 		.ascii	"tmp\000"
 1677 0830 01       		.byte	0x1
 1678 0831 64       		.byte	0x64
 1679 0832 7B000000 		.4byte	0x7b
 1680 0836 64010000 		.4byte	.LLST11
 1681 083a 00       		.byte	0
 1682 083b 00       		.byte	0
 1683 083c 2C       		.uleb128 0x2c
 1684 083d 01       		.byte	0x1
 1685 083e 06020000 		.4byte	.LASF82
ARM GAS  C:\Users\DNIEL~1\AppData\Local\Temp\ccYKK2eE.s 			page 31


 1686 0842 01       		.byte	0x1
 1687 0843 68       		.byte	0x68
 1688 0844 01       		.byte	0x1
 1689 0845 7B000000 		.4byte	0x7b
 1690 0849 00000000 		.4byte	.LFB125
 1691 084d 20000000 		.4byte	.LFE125
 1692 0851 77010000 		.4byte	.LLST12
 1693 0855 01       		.byte	0x1
 1694 0856 9E080000 		.4byte	0x89e
 1695 085a 20       		.uleb128 0x20
 1696 085b 746D7000 		.ascii	"tmp\000"
 1697 085f 01       		.byte	0x1
 1698 0860 69       		.byte	0x69
 1699 0861 7B000000 		.4byte	0x7b
 1700 0865 01       		.byte	0x1
 1701 0866 50       		.byte	0x50
 1702 0867 29       		.uleb128 0x29
 1703 0868 02000000 		.4byte	.LBB8
 1704 086c 08000000 		.4byte	.LBE8
 1705 0870 84080000 		.4byte	0x884
 1706 0874 26       		.uleb128 0x26
 1707 0875 746D7000 		.ascii	"tmp\000"
 1708 0879 01       		.byte	0x1
 1709 087a 6B       		.byte	0x6b
 1710 087b 7B000000 		.4byte	0x7b
 1711 087f 97010000 		.4byte	.LLST13
 1712 0883 00       		.byte	0
 1713 0884 2D       		.uleb128 0x2d
 1714 0885 18000000 		.4byte	.LBB9
 1715 0889 1E000000 		.4byte	.LBE9
 1716 088d 26       		.uleb128 0x26
 1717 088e 746D7000 		.ascii	"tmp\000"
 1718 0892 01       		.byte	0x1
 1719 0893 6D       		.byte	0x6d
 1720 0894 7B000000 		.4byte	0x7b
 1721 0898 AA010000 		.4byte	.LLST14
 1722 089c 00       		.byte	0
 1723 089d 00       		.byte	0
 1724 089e 23       		.uleb128 0x23
 1725 089f 01       		.byte	0x1
 1726 08a0 3E010000 		.4byte	.LASF83
 1727 08a4 01       		.byte	0x1
 1728 08a5 71       		.byte	0x71
 1729 08a6 01       		.byte	0x1
 1730 08a7 00000000 		.4byte	.LFB126
 1731 08ab 84000000 		.4byte	.LFE126
 1732 08af BD010000 		.4byte	.LLST15
 1733 08b3 01       		.byte	0x1
 1734 08b4 A6090000 		.4byte	0x9a6
 1735 08b8 1D       		.uleb128 0x1d
 1736 08b9 63687000 		.ascii	"chp\000"
 1737 08bd 01       		.byte	0x1
 1738 08be 71       		.byte	0x71
 1739 08bf F6060000 		.4byte	0x6f6
 1740 08c3 DD010000 		.4byte	.LLST16
 1741 08c7 1B       		.uleb128 0x1b
 1742 08c8 81010000 		.4byte	.LASF84
ARM GAS  C:\Users\DNIEL~1\AppData\Local\Temp\ccYKK2eE.s 			page 32


 1743 08cc 01       		.byte	0x1
 1744 08cd 71       		.byte	0x71
 1745 08ce 29000000 		.4byte	0x29
 1746 08d2 1C020000 		.4byte	.LLST17
 1747 08d6 1B       		.uleb128 0x1b
 1748 08d7 01020000 		.4byte	.LASF85
 1749 08db 01       		.byte	0x1
 1750 08dc 71       		.byte	0x71
 1751 08dd A6090000 		.4byte	0x9a6
 1752 08e1 3D020000 		.4byte	.LLST18
 1753 08e5 24       		.uleb128 0x24
 1754 08e6 10000000 		.4byte	.LVL36
 1755 08ea 93060000 		.4byte	0x693
 1756 08ee 02090000 		.4byte	0x902
 1757 08f2 22       		.uleb128 0x22
 1758 08f3 01       		.byte	0x1
 1759 08f4 51       		.byte	0x51
 1760 08f5 05       		.byte	0x5
 1761 08f6 03       		.byte	0x3
 1762 08f7 00000000 		.4byte	.LC0
 1763 08fb 22       		.uleb128 0x22
 1764 08fc 01       		.byte	0x1
 1765 08fd 50       		.byte	0x50
 1766 08fe 02       		.byte	0x2
 1767 08ff 74       		.byte	0x74
 1768 0900 00       		.sleb128 0
 1769 0901 00       		.byte	0
 1770 0902 24       		.uleb128 0x24
 1771 0903 18000000 		.4byte	.LVL37
 1772 0907 93060000 		.4byte	0x693
 1773 090b 1F090000 		.4byte	0x91f
 1774 090f 22       		.uleb128 0x22
 1775 0910 01       		.byte	0x1
 1776 0911 51       		.byte	0x51
 1777 0912 05       		.byte	0x5
 1778 0913 03       		.byte	0x3
 1779 0914 04000000 		.4byte	.LC1
 1780 0918 22       		.uleb128 0x22
 1781 0919 01       		.byte	0x1
 1782 091a 50       		.byte	0x50
 1783 091b 02       		.byte	0x2
 1784 091c 74       		.byte	0x74
 1785 091d 00       		.sleb128 0
 1786 091e 00       		.byte	0
 1787 091f 2E       		.uleb128 0x2e
 1788 0920 1E000000 		.4byte	.LVL39
 1789 0924 93060000 		.4byte	0x693
 1790 0928 24       		.uleb128 0x24
 1791 0929 28000000 		.4byte	.LVL40
 1792 092d 93060000 		.4byte	0x693
 1793 0931 45090000 		.4byte	0x945
 1794 0935 22       		.uleb128 0x22
 1795 0936 01       		.byte	0x1
 1796 0937 51       		.byte	0x51
 1797 0938 05       		.byte	0x5
 1798 0939 03       		.byte	0x3
 1799 093a 18000000 		.4byte	.LC3
ARM GAS  C:\Users\DNIEL~1\AppData\Local\Temp\ccYKK2eE.s 			page 33


 1800 093e 22       		.uleb128 0x22
 1801 093f 01       		.byte	0x1
 1802 0940 50       		.byte	0x50
 1803 0941 02       		.byte	0x2
 1804 0942 74       		.byte	0x74
 1805 0943 00       		.sleb128 0
 1806 0944 00       		.byte	0
 1807 0945 24       		.uleb128 0x24
 1808 0946 32000000 		.4byte	.LVL41
 1809 094a 93060000 		.4byte	0x693
 1810 094e 62090000 		.4byte	0x962
 1811 0952 22       		.uleb128 0x22
 1812 0953 01       		.byte	0x1
 1813 0954 51       		.byte	0x51
 1814 0955 05       		.byte	0x5
 1815 0956 03       		.byte	0x3
 1816 0957 34000000 		.4byte	.LC4
 1817 095b 22       		.uleb128 0x22
 1818 095c 01       		.byte	0x1
 1819 095d 50       		.byte	0x50
 1820 095e 02       		.byte	0x2
 1821 095f 74       		.byte	0x74
 1822 0960 00       		.sleb128 0
 1823 0961 00       		.byte	0
 1824 0962 24       		.uleb128 0x24
 1825 0963 3E000000 		.4byte	.LVL42
 1826 0967 93060000 		.4byte	0x693
 1827 096b 7F090000 		.4byte	0x97f
 1828 096f 22       		.uleb128 0x22
 1829 0970 01       		.byte	0x1
 1830 0971 51       		.byte	0x51
 1831 0972 05       		.byte	0x5
 1832 0973 03       		.byte	0x3
 1833 0974 4C000000 		.4byte	.LC5
 1834 0978 22       		.uleb128 0x22
 1835 0979 01       		.byte	0x1
 1836 097a 50       		.byte	0x50
 1837 097b 02       		.byte	0x2
 1838 097c 74       		.byte	0x74
 1839 097d 00       		.sleb128 0
 1840 097e 00       		.byte	0
 1841 097f 24       		.uleb128 0x24
 1842 0980 46000000 		.4byte	.LVL43
 1843 0984 8F0A0000 		.4byte	0xa8f
 1844 0988 94090000 		.4byte	0x994
 1845 098c 22       		.uleb128 0x22
 1846 098d 01       		.byte	0x1
 1847 098e 50       		.byte	0x50
 1848 098f 03       		.byte	0x3
 1849 0990 0A       		.byte	0xa
 1850 0991 E803     		.2byte	0x3e8
 1851 0993 00       		.byte	0
 1852 0994 2F       		.uleb128 0x2f
 1853 0995 50000000 		.4byte	.LVL44
 1854 0999 22       		.uleb128 0x22
 1855 099a 01       		.byte	0x1
 1856 099b 51       		.byte	0x51
ARM GAS  C:\Users\DNIEL~1\AppData\Local\Temp\ccYKK2eE.s 			page 34


 1857 099c 01       		.byte	0x1
 1858 099d 30       		.byte	0x30
 1859 099e 22       		.uleb128 0x22
 1860 099f 01       		.byte	0x1
 1861 09a0 50       		.byte	0x50
 1862 09a1 02       		.byte	0x2
 1863 09a2 74       		.byte	0x74
 1864 09a3 00       		.sleb128 0
 1865 09a4 00       		.byte	0
 1866 09a5 00       		.byte	0
 1867 09a6 07       		.uleb128 0x7
 1868 09a7 04       		.byte	0x4
 1869 09a8 AC090000 		.4byte	0x9ac
 1870 09ac 07       		.uleb128 0x7
 1871 09ad 04       		.byte	0x4
 1872 09ae D1000000 		.4byte	0xd1
 1873 09b2 0F       		.uleb128 0xf
 1874 09b3 7B070000 		.4byte	0x77b
 1875 09b7 C2090000 		.4byte	0x9c2
 1876 09bb 10       		.uleb128 0x10
 1877 09bc BF000000 		.4byte	0xbf
 1878 09c0 2F       		.byte	0x2f
 1879 09c1 00       		.byte	0
 1880 09c2 2B       		.uleb128 0x2b
 1881 09c3 03010000 		.4byte	.LASF86
 1882 09c7 01       		.byte	0x1
 1883 09c8 10       		.byte	0x10
 1884 09c9 B2090000 		.4byte	0x9b2
 1885 09cd 05       		.byte	0x5
 1886 09ce 03       		.byte	0x3
 1887 09cf 00000000 		.4byte	rpm_buff
 1888 09d3 2B       		.uleb128 0x2b
 1889 09d4 09040000 		.4byte	.LASF87
 1890 09d8 01       		.byte	0x1
 1891 09d9 12       		.byte	0x12
 1892 09da 29000000 		.4byte	0x29
 1893 09de 05       		.byte	0x5
 1894 09df 03       		.byte	0x3
 1895 09e0 00000000 		.4byte	rpm_index
 1896 09e4 2B       		.uleb128 0x2b
 1897 09e5 97010000 		.4byte	.LASF88
 1898 09e9 01       		.byte	0x1
 1899 09ea 17       		.byte	0x17
 1900 09eb F6050000 		.4byte	0x5f6
 1901 09ef 05       		.byte	0x5
 1902 09f0 03       		.byte	0x3
 1903 09f1 00000000 		.4byte	icucfg
 1904 09f5 2B       		.uleb128 0x2b
 1905 09f6 26000000 		.4byte	.LASF89
 1906 09fa 01       		.byte	0x1
 1907 09fb 21       		.byte	0x21
 1908 09fc 7B000000 		.4byte	0x7b
 1909 0a00 05       		.byte	0x5
 1910 0a01 03       		.byte	0x3
 1911 0a02 00000000 		.4byte	speed_last_period
 1912 0a06 2B       		.uleb128 0x2b
 1913 0a07 CD000000 		.4byte	.LASF90
ARM GAS  C:\Users\DNIEL~1\AppData\Local\Temp\ccYKK2eE.s 			page 35


 1914 0a0b 01       		.byte	0x1
 1915 0a0c 22       		.byte	0x22
 1916 0a0d 7B000000 		.4byte	0x7b
 1917 0a11 05       		.byte	0x5
 1918 0a12 03       		.byte	0x3
 1919 0a13 00000000 		.4byte	speed_period_num
 1920 0a17 2B       		.uleb128 0x2b
 1921 0a18 AE020000 		.4byte	.LASF91
 1922 0a1c 01       		.byte	0x1
 1923 0a1d 24       		.byte	0x24
 1924 0a1e 7B070000 		.4byte	0x77b
 1925 0a22 05       		.byte	0x5
 1926 0a23 03       		.byte	0x3
 1927 0a24 00000000 		.4byte	rotation
 1928 0a28 30       		.uleb128 0x30
 1929 0a29 29040000 		.4byte	.LASF92
 1930 0a2d 0D       		.byte	0xd
 1931 0a2e 9806     		.2byte	0x698
 1932 0a30 DC010000 		.4byte	0x1dc
 1933 0a34 01       		.byte	0x1
 1934 0a35 01       		.byte	0x1
 1935 0a36 30       		.uleb128 0x30
 1936 0a37 2F020000 		.4byte	.LASF93
 1937 0a3b 09       		.byte	0x9
 1938 0a3c 7101     		.2byte	0x171
 1939 0a3e 4E030000 		.4byte	0x34e
 1940 0a42 01       		.byte	0x1
 1941 0a43 01       		.byte	0x1
 1942 0a44 31       		.uleb128 0x31
 1943 0a45 01       		.byte	0x1
 1944 0a46 6B040000 		.4byte	.LASF94
 1945 0a4a 02       		.byte	0x2
 1946 0a4b 28       		.byte	0x28
 1947 0a4c 01       		.byte	0x1
 1948 0a4d 01       		.byte	0x1
 1949 0a4e 620A0000 		.4byte	0xa62
 1950 0a52 0A       		.uleb128 0xa
 1951 0a53 F6060000 		.4byte	0x6f6
 1952 0a57 0A       		.uleb128 0xa
 1953 0a58 C6000000 		.4byte	0xc6
 1954 0a5c 0A       		.uleb128 0xa
 1955 0a5d 38060000 		.4byte	0x638
 1956 0a61 00       		.byte	0
 1957 0a62 31       		.uleb128 0x31
 1958 0a63 01       		.byte	0x1
 1959 0a64 48020000 		.4byte	.LASF95
 1960 0a68 08       		.byte	0x8
 1961 0a69 BF       		.byte	0xbf
 1962 0a6a 01       		.byte	0x1
 1963 0a6b 01       		.byte	0x1
 1964 0a6c 7B0A0000 		.4byte	0xa7b
 1965 0a70 0A       		.uleb128 0xa
 1966 0a71 DE030000 		.4byte	0x3de
 1967 0a75 0A       		.uleb128 0xa
 1968 0a76 02060000 		.4byte	0x602
 1969 0a7a 00       		.byte	0
 1970 0a7b 31       		.uleb128 0x31
ARM GAS  C:\Users\DNIEL~1\AppData\Local\Temp\ccYKK2eE.s 			page 36


 1971 0a7c 01       		.byte	0x1
 1972 0a7d 51020000 		.4byte	.LASF96
 1973 0a81 08       		.byte	0x8
 1974 0a82 C1       		.byte	0xc1
 1975 0a83 01       		.byte	0x1
 1976 0a84 01       		.byte	0x1
 1977 0a85 8F0A0000 		.4byte	0xa8f
 1978 0a89 0A       		.uleb128 0xa
 1979 0a8a DE030000 		.4byte	0x3de
 1980 0a8e 00       		.byte	0
 1981 0a8f 32       		.uleb128 0x32
 1982 0a90 01       		.byte	0x1
 1983 0a91 F3000000 		.4byte	.LASF101
 1984 0a95 0E       		.byte	0xe
 1985 0a96 7501     		.2byte	0x175
 1986 0a98 01       		.byte	0x1
 1987 0a99 01       		.byte	0x1
 1988 0a9a 0A       		.uleb128 0xa
 1989 0a9b AD000000 		.4byte	0xad
 1990 0a9f 00       		.byte	0
 1991 0aa0 00       		.byte	0
 1992              		.section	.debug_abbrev,"",%progbits
 1993              	.Ldebug_abbrev0:
 1994 0000 01       		.uleb128 0x1
 1995 0001 11       		.uleb128 0x11
 1996 0002 01       		.byte	0x1
 1997 0003 25       		.uleb128 0x25
 1998 0004 0E       		.uleb128 0xe
 1999 0005 13       		.uleb128 0x13
 2000 0006 0B       		.uleb128 0xb
 2001 0007 03       		.uleb128 0x3
 2002 0008 0E       		.uleb128 0xe
 2003 0009 1B       		.uleb128 0x1b
 2004 000a 0E       		.uleb128 0xe
 2005 000b 55       		.uleb128 0x55
 2006 000c 06       		.uleb128 0x6
 2007 000d 11       		.uleb128 0x11
 2008 000e 01       		.uleb128 0x1
 2009 000f 52       		.uleb128 0x52
 2010 0010 01       		.uleb128 0x1
 2011 0011 10       		.uleb128 0x10
 2012 0012 06       		.uleb128 0x6
 2013 0013 00       		.byte	0
 2014 0014 00       		.byte	0
 2015 0015 02       		.uleb128 0x2
 2016 0016 24       		.uleb128 0x24
 2017 0017 00       		.byte	0
 2018 0018 0B       		.uleb128 0xb
 2019 0019 0B       		.uleb128 0xb
 2020 001a 3E       		.uleb128 0x3e
 2021 001b 0B       		.uleb128 0xb
 2022 001c 03       		.uleb128 0x3
 2023 001d 08       		.uleb128 0x8
 2024 001e 00       		.byte	0
 2025 001f 00       		.byte	0
 2026 0020 03       		.uleb128 0x3
 2027 0021 16       		.uleb128 0x16
ARM GAS  C:\Users\DNIEL~1\AppData\Local\Temp\ccYKK2eE.s 			page 37


 2028 0022 00       		.byte	0
 2029 0023 03       		.uleb128 0x3
 2030 0024 0E       		.uleb128 0xe
 2031 0025 3A       		.uleb128 0x3a
 2032 0026 0B       		.uleb128 0xb
 2033 0027 3B       		.uleb128 0x3b
 2034 0028 0B       		.uleb128 0xb
 2035 0029 49       		.uleb128 0x49
 2036 002a 13       		.uleb128 0x13
 2037 002b 00       		.byte	0
 2038 002c 00       		.byte	0
 2039 002d 04       		.uleb128 0x4
 2040 002e 24       		.uleb128 0x24
 2041 002f 00       		.byte	0
 2042 0030 0B       		.uleb128 0xb
 2043 0031 0B       		.uleb128 0xb
 2044 0032 3E       		.uleb128 0x3e
 2045 0033 0B       		.uleb128 0xb
 2046 0034 03       		.uleb128 0x3
 2047 0035 0E       		.uleb128 0xe
 2048 0036 00       		.byte	0
 2049 0037 00       		.byte	0
 2050 0038 05       		.uleb128 0x5
 2051 0039 0F       		.uleb128 0xf
 2052 003a 00       		.byte	0
 2053 003b 0B       		.uleb128 0xb
 2054 003c 0B       		.uleb128 0xb
 2055 003d 00       		.byte	0
 2056 003e 00       		.byte	0
 2057 003f 06       		.uleb128 0x6
 2058 0040 35       		.uleb128 0x35
 2059 0041 00       		.byte	0
 2060 0042 49       		.uleb128 0x49
 2061 0043 13       		.uleb128 0x13
 2062 0044 00       		.byte	0
 2063 0045 00       		.byte	0
 2064 0046 07       		.uleb128 0x7
 2065 0047 0F       		.uleb128 0xf
 2066 0048 00       		.byte	0
 2067 0049 0B       		.uleb128 0xb
 2068 004a 0B       		.uleb128 0xb
 2069 004b 49       		.uleb128 0x49
 2070 004c 13       		.uleb128 0x13
 2071 004d 00       		.byte	0
 2072 004e 00       		.byte	0
 2073 004f 08       		.uleb128 0x8
 2074 0050 26       		.uleb128 0x26
 2075 0051 00       		.byte	0
 2076 0052 49       		.uleb128 0x49
 2077 0053 13       		.uleb128 0x13
 2078 0054 00       		.byte	0
 2079 0055 00       		.byte	0
 2080 0056 09       		.uleb128 0x9
 2081 0057 15       		.uleb128 0x15
 2082 0058 01       		.byte	0x1
 2083 0059 27       		.uleb128 0x27
 2084 005a 0C       		.uleb128 0xc
ARM GAS  C:\Users\DNIEL~1\AppData\Local\Temp\ccYKK2eE.s 			page 38


 2085 005b 49       		.uleb128 0x49
 2086 005c 13       		.uleb128 0x13
 2087 005d 01       		.uleb128 0x1
 2088 005e 13       		.uleb128 0x13
 2089 005f 00       		.byte	0
 2090 0060 00       		.byte	0
 2091 0061 0A       		.uleb128 0xa
 2092 0062 05       		.uleb128 0x5
 2093 0063 00       		.byte	0
 2094 0064 49       		.uleb128 0x49
 2095 0065 13       		.uleb128 0x13
 2096 0066 00       		.byte	0
 2097 0067 00       		.byte	0
 2098 0068 0B       		.uleb128 0xb
 2099 0069 13       		.uleb128 0x13
 2100 006a 01       		.byte	0x1
 2101 006b 03       		.uleb128 0x3
 2102 006c 0E       		.uleb128 0xe
 2103 006d 0B       		.uleb128 0xb
 2104 006e 0B       		.uleb128 0xb
 2105 006f 3A       		.uleb128 0x3a
 2106 0070 0B       		.uleb128 0xb
 2107 0071 3B       		.uleb128 0x3b
 2108 0072 0B       		.uleb128 0xb
 2109 0073 01       		.uleb128 0x1
 2110 0074 13       		.uleb128 0x13
 2111 0075 00       		.byte	0
 2112 0076 00       		.byte	0
 2113 0077 0C       		.uleb128 0xc
 2114 0078 0D       		.uleb128 0xd
 2115 0079 00       		.byte	0
 2116 007a 03       		.uleb128 0x3
 2117 007b 0E       		.uleb128 0xe
 2118 007c 3A       		.uleb128 0x3a
 2119 007d 0B       		.uleb128 0xb
 2120 007e 3B       		.uleb128 0x3b
 2121 007f 0B       		.uleb128 0xb
 2122 0080 49       		.uleb128 0x49
 2123 0081 13       		.uleb128 0x13
 2124 0082 38       		.uleb128 0x38
 2125 0083 0A       		.uleb128 0xa
 2126 0084 00       		.byte	0
 2127 0085 00       		.byte	0
 2128 0086 0D       		.uleb128 0xd
 2129 0087 0D       		.uleb128 0xd
 2130 0088 00       		.byte	0
 2131 0089 03       		.uleb128 0x3
 2132 008a 08       		.uleb128 0x8
 2133 008b 3A       		.uleb128 0x3a
 2134 008c 0B       		.uleb128 0xb
 2135 008d 3B       		.uleb128 0x3b
 2136 008e 0B       		.uleb128 0xb
 2137 008f 49       		.uleb128 0x49
 2138 0090 13       		.uleb128 0x13
 2139 0091 38       		.uleb128 0x38
 2140 0092 0A       		.uleb128 0xa
 2141 0093 00       		.byte	0
ARM GAS  C:\Users\DNIEL~1\AppData\Local\Temp\ccYKK2eE.s 			page 39


 2142 0094 00       		.byte	0
 2143 0095 0E       		.uleb128 0xe
 2144 0096 13       		.uleb128 0x13
 2145 0097 01       		.byte	0x1
 2146 0098 0B       		.uleb128 0xb
 2147 0099 0B       		.uleb128 0xb
 2148 009a 3A       		.uleb128 0x3a
 2149 009b 0B       		.uleb128 0xb
 2150 009c 3B       		.uleb128 0x3b
 2151 009d 0B       		.uleb128 0xb
 2152 009e 01       		.uleb128 0x1
 2153 009f 13       		.uleb128 0x13
 2154 00a0 00       		.byte	0
 2155 00a1 00       		.byte	0
 2156 00a2 0F       		.uleb128 0xf
 2157 00a3 01       		.uleb128 0x1
 2158 00a4 01       		.byte	0x1
 2159 00a5 49       		.uleb128 0x49
 2160 00a6 13       		.uleb128 0x13
 2161 00a7 01       		.uleb128 0x1
 2162 00a8 13       		.uleb128 0x13
 2163 00a9 00       		.byte	0
 2164 00aa 00       		.byte	0
 2165 00ab 10       		.uleb128 0x10
 2166 00ac 21       		.uleb128 0x21
 2167 00ad 00       		.byte	0
 2168 00ae 49       		.uleb128 0x49
 2169 00af 13       		.uleb128 0x13
 2170 00b0 2F       		.uleb128 0x2f
 2171 00b1 0B       		.uleb128 0xb
 2172 00b2 00       		.byte	0
 2173 00b3 00       		.byte	0
 2174 00b4 11       		.uleb128 0x11
 2175 00b5 04       		.uleb128 0x4
 2176 00b6 01       		.byte	0x1
 2177 00b7 0B       		.uleb128 0xb
 2178 00b8 0B       		.uleb128 0xb
 2179 00b9 3A       		.uleb128 0x3a
 2180 00ba 0B       		.uleb128 0xb
 2181 00bb 3B       		.uleb128 0x3b
 2182 00bc 0B       		.uleb128 0xb
 2183 00bd 01       		.uleb128 0x1
 2184 00be 13       		.uleb128 0x13
 2185 00bf 00       		.byte	0
 2186 00c0 00       		.byte	0
 2187 00c1 12       		.uleb128 0x12
 2188 00c2 28       		.uleb128 0x28
 2189 00c3 00       		.byte	0
 2190 00c4 03       		.uleb128 0x3
 2191 00c5 0E       		.uleb128 0xe
 2192 00c6 1C       		.uleb128 0x1c
 2193 00c7 0D       		.uleb128 0xd
 2194 00c8 00       		.byte	0
 2195 00c9 00       		.byte	0
 2196 00ca 13       		.uleb128 0x13
 2197 00cb 13       		.uleb128 0x13
 2198 00cc 01       		.byte	0x1
ARM GAS  C:\Users\DNIEL~1\AppData\Local\Temp\ccYKK2eE.s 			page 40


 2199 00cd 03       		.uleb128 0x3
 2200 00ce 0E       		.uleb128 0xe
 2201 00cf 0B       		.uleb128 0xb
 2202 00d0 0B       		.uleb128 0xb
 2203 00d1 3A       		.uleb128 0x3a
 2204 00d2 0B       		.uleb128 0xb
 2205 00d3 3B       		.uleb128 0x3b
 2206 00d4 05       		.uleb128 0x5
 2207 00d5 01       		.uleb128 0x1
 2208 00d6 13       		.uleb128 0x13
 2209 00d7 00       		.byte	0
 2210 00d8 00       		.byte	0
 2211 00d9 14       		.uleb128 0x14
 2212 00da 0D       		.uleb128 0xd
 2213 00db 00       		.byte	0
 2214 00dc 03       		.uleb128 0x3
 2215 00dd 0E       		.uleb128 0xe
 2216 00de 3A       		.uleb128 0x3a
 2217 00df 0B       		.uleb128 0xb
 2218 00e0 3B       		.uleb128 0x3b
 2219 00e1 05       		.uleb128 0x5
 2220 00e2 49       		.uleb128 0x49
 2221 00e3 13       		.uleb128 0x13
 2222 00e4 38       		.uleb128 0x38
 2223 00e5 0A       		.uleb128 0xa
 2224 00e6 00       		.byte	0
 2225 00e7 00       		.byte	0
 2226 00e8 15       		.uleb128 0x15
 2227 00e9 0D       		.uleb128 0xd
 2228 00ea 00       		.byte	0
 2229 00eb 03       		.uleb128 0x3
 2230 00ec 08       		.uleb128 0x8
 2231 00ed 3A       		.uleb128 0x3a
 2232 00ee 0B       		.uleb128 0xb
 2233 00ef 3B       		.uleb128 0x3b
 2234 00f0 05       		.uleb128 0x5
 2235 00f1 49       		.uleb128 0x49
 2236 00f2 13       		.uleb128 0x13
 2237 00f3 38       		.uleb128 0x38
 2238 00f4 0A       		.uleb128 0xa
 2239 00f5 00       		.byte	0
 2240 00f6 00       		.byte	0
 2241 00f7 16       		.uleb128 0x16
 2242 00f8 15       		.uleb128 0x15
 2243 00f9 01       		.byte	0x1
 2244 00fa 27       		.uleb128 0x27
 2245 00fb 0C       		.uleb128 0xc
 2246 00fc 01       		.uleb128 0x1
 2247 00fd 13       		.uleb128 0x13
 2248 00fe 00       		.byte	0
 2249 00ff 00       		.byte	0
 2250 0100 17       		.uleb128 0x17
 2251 0101 13       		.uleb128 0x13
 2252 0102 01       		.byte	0x1
 2253 0103 0B       		.uleb128 0xb
 2254 0104 0B       		.uleb128 0xb
 2255 0105 3A       		.uleb128 0x3a
ARM GAS  C:\Users\DNIEL~1\AppData\Local\Temp\ccYKK2eE.s 			page 41


 2256 0106 0B       		.uleb128 0xb
 2257 0107 3B       		.uleb128 0x3b
 2258 0108 05       		.uleb128 0x5
 2259 0109 01       		.uleb128 0x1
 2260 010a 13       		.uleb128 0x13
 2261 010b 00       		.byte	0
 2262 010c 00       		.byte	0
 2263 010d 18       		.uleb128 0x18
 2264 010e 16       		.uleb128 0x16
 2265 010f 00       		.byte	0
 2266 0110 03       		.uleb128 0x3
 2267 0111 0E       		.uleb128 0xe
 2268 0112 3A       		.uleb128 0x3a
 2269 0113 0B       		.uleb128 0xb
 2270 0114 3B       		.uleb128 0x3b
 2271 0115 05       		.uleb128 0x5
 2272 0116 49       		.uleb128 0x49
 2273 0117 13       		.uleb128 0x13
 2274 0118 00       		.byte	0
 2275 0119 00       		.byte	0
 2276 011a 19       		.uleb128 0x19
 2277 011b 0D       		.uleb128 0xd
 2278 011c 00       		.byte	0
 2279 011d 03       		.uleb128 0x3
 2280 011e 0E       		.uleb128 0xe
 2281 011f 49       		.uleb128 0x49
 2282 0120 13       		.uleb128 0x13
 2283 0121 38       		.uleb128 0x38
 2284 0122 0A       		.uleb128 0xa
 2285 0123 34       		.uleb128 0x34
 2286 0124 0C       		.uleb128 0xc
 2287 0125 00       		.byte	0
 2288 0126 00       		.byte	0
 2289 0127 1A       		.uleb128 0x1a
 2290 0128 2E       		.uleb128 0x2e
 2291 0129 01       		.byte	0x1
 2292 012a 03       		.uleb128 0x3
 2293 012b 0E       		.uleb128 0xe
 2294 012c 3A       		.uleb128 0x3a
 2295 012d 0B       		.uleb128 0xb
 2296 012e 3B       		.uleb128 0x3b
 2297 012f 0B       		.uleb128 0xb
 2298 0130 27       		.uleb128 0x27
 2299 0131 0C       		.uleb128 0xc
 2300 0132 11       		.uleb128 0x11
 2301 0133 01       		.uleb128 0x1
 2302 0134 12       		.uleb128 0x12
 2303 0135 01       		.uleb128 0x1
 2304 0136 40       		.uleb128 0x40
 2305 0137 0A       		.uleb128 0xa
 2306 0138 9742     		.uleb128 0x2117
 2307 013a 0C       		.uleb128 0xc
 2308 013b 01       		.uleb128 0x1
 2309 013c 13       		.uleb128 0x13
 2310 013d 00       		.byte	0
 2311 013e 00       		.byte	0
 2312 013f 1B       		.uleb128 0x1b
ARM GAS  C:\Users\DNIEL~1\AppData\Local\Temp\ccYKK2eE.s 			page 42


 2313 0140 05       		.uleb128 0x5
 2314 0141 00       		.byte	0
 2315 0142 03       		.uleb128 0x3
 2316 0143 0E       		.uleb128 0xe
 2317 0144 3A       		.uleb128 0x3a
 2318 0145 0B       		.uleb128 0xb
 2319 0146 3B       		.uleb128 0x3b
 2320 0147 0B       		.uleb128 0xb
 2321 0148 49       		.uleb128 0x49
 2322 0149 13       		.uleb128 0x13
 2323 014a 02       		.uleb128 0x2
 2324 014b 06       		.uleb128 0x6
 2325 014c 00       		.byte	0
 2326 014d 00       		.byte	0
 2327 014e 1C       		.uleb128 0x1c
 2328 014f 2E       		.uleb128 0x2e
 2329 0150 01       		.byte	0x1
 2330 0151 03       		.uleb128 0x3
 2331 0152 0E       		.uleb128 0xe
 2332 0153 3A       		.uleb128 0x3a
 2333 0154 0B       		.uleb128 0xb
 2334 0155 3B       		.uleb128 0x3b
 2335 0156 0B       		.uleb128 0xb
 2336 0157 27       		.uleb128 0x27
 2337 0158 0C       		.uleb128 0xc
 2338 0159 11       		.uleb128 0x11
 2339 015a 01       		.uleb128 0x1
 2340 015b 12       		.uleb128 0x12
 2341 015c 01       		.uleb128 0x1
 2342 015d 40       		.uleb128 0x40
 2343 015e 06       		.uleb128 0x6
 2344 015f 9742     		.uleb128 0x2117
 2345 0161 0C       		.uleb128 0xc
 2346 0162 01       		.uleb128 0x1
 2347 0163 13       		.uleb128 0x13
 2348 0164 00       		.byte	0
 2349 0165 00       		.byte	0
 2350 0166 1D       		.uleb128 0x1d
 2351 0167 05       		.uleb128 0x5
 2352 0168 00       		.byte	0
 2353 0169 03       		.uleb128 0x3
 2354 016a 08       		.uleb128 0x8
 2355 016b 3A       		.uleb128 0x3a
 2356 016c 0B       		.uleb128 0xb
 2357 016d 3B       		.uleb128 0x3b
 2358 016e 0B       		.uleb128 0xb
 2359 016f 49       		.uleb128 0x49
 2360 0170 13       		.uleb128 0x13
 2361 0171 02       		.uleb128 0x2
 2362 0172 06       		.uleb128 0x6
 2363 0173 00       		.byte	0
 2364 0174 00       		.byte	0
 2365 0175 1E       		.uleb128 0x1e
 2366 0176 05       		.uleb128 0x5
 2367 0177 00       		.byte	0
 2368 0178 03       		.uleb128 0x3
 2369 0179 08       		.uleb128 0x8
ARM GAS  C:\Users\DNIEL~1\AppData\Local\Temp\ccYKK2eE.s 			page 43


 2370 017a 3A       		.uleb128 0x3a
 2371 017b 0B       		.uleb128 0xb
 2372 017c 3B       		.uleb128 0x3b
 2373 017d 0B       		.uleb128 0xb
 2374 017e 49       		.uleb128 0x49
 2375 017f 13       		.uleb128 0x13
 2376 0180 02       		.uleb128 0x2
 2377 0181 0A       		.uleb128 0xa
 2378 0182 00       		.byte	0
 2379 0183 00       		.byte	0
 2380 0184 1F       		.uleb128 0x1f
 2381 0185 18       		.uleb128 0x18
 2382 0186 00       		.byte	0
 2383 0187 00       		.byte	0
 2384 0188 00       		.byte	0
 2385 0189 20       		.uleb128 0x20
 2386 018a 34       		.uleb128 0x34
 2387 018b 00       		.byte	0
 2388 018c 03       		.uleb128 0x3
 2389 018d 08       		.uleb128 0x8
 2390 018e 3A       		.uleb128 0x3a
 2391 018f 0B       		.uleb128 0xb
 2392 0190 3B       		.uleb128 0x3b
 2393 0191 0B       		.uleb128 0xb
 2394 0192 49       		.uleb128 0x49
 2395 0193 13       		.uleb128 0x13
 2396 0194 02       		.uleb128 0x2
 2397 0195 0A       		.uleb128 0xa
 2398 0196 00       		.byte	0
 2399 0197 00       		.byte	0
 2400 0198 21       		.uleb128 0x21
 2401 0199 898201   		.uleb128 0x4109
 2402 019c 01       		.byte	0x1
 2403 019d 11       		.uleb128 0x11
 2404 019e 01       		.uleb128 0x1
 2405 019f 31       		.uleb128 0x31
 2406 01a0 13       		.uleb128 0x13
 2407 01a1 00       		.byte	0
 2408 01a2 00       		.byte	0
 2409 01a3 22       		.uleb128 0x22
 2410 01a4 8A8201   		.uleb128 0x410a
 2411 01a7 00       		.byte	0
 2412 01a8 02       		.uleb128 0x2
 2413 01a9 0A       		.uleb128 0xa
 2414 01aa 9142     		.uleb128 0x2111
 2415 01ac 0A       		.uleb128 0xa
 2416 01ad 00       		.byte	0
 2417 01ae 00       		.byte	0
 2418 01af 23       		.uleb128 0x23
 2419 01b0 2E       		.uleb128 0x2e
 2420 01b1 01       		.byte	0x1
 2421 01b2 3F       		.uleb128 0x3f
 2422 01b3 0C       		.uleb128 0xc
 2423 01b4 03       		.uleb128 0x3
 2424 01b5 0E       		.uleb128 0xe
 2425 01b6 3A       		.uleb128 0x3a
 2426 01b7 0B       		.uleb128 0xb
ARM GAS  C:\Users\DNIEL~1\AppData\Local\Temp\ccYKK2eE.s 			page 44


 2427 01b8 3B       		.uleb128 0x3b
 2428 01b9 0B       		.uleb128 0xb
 2429 01ba 27       		.uleb128 0x27
 2430 01bb 0C       		.uleb128 0xc
 2431 01bc 11       		.uleb128 0x11
 2432 01bd 01       		.uleb128 0x1
 2433 01be 12       		.uleb128 0x12
 2434 01bf 01       		.uleb128 0x1
 2435 01c0 40       		.uleb128 0x40
 2436 01c1 06       		.uleb128 0x6
 2437 01c2 9742     		.uleb128 0x2117
 2438 01c4 0C       		.uleb128 0xc
 2439 01c5 01       		.uleb128 0x1
 2440 01c6 13       		.uleb128 0x13
 2441 01c7 00       		.byte	0
 2442 01c8 00       		.byte	0
 2443 01c9 24       		.uleb128 0x24
 2444 01ca 898201   		.uleb128 0x4109
 2445 01cd 01       		.byte	0x1
 2446 01ce 11       		.uleb128 0x11
 2447 01cf 01       		.uleb128 0x1
 2448 01d0 31       		.uleb128 0x31
 2449 01d1 13       		.uleb128 0x13
 2450 01d2 01       		.uleb128 0x1
 2451 01d3 13       		.uleb128 0x13
 2452 01d4 00       		.byte	0
 2453 01d5 00       		.byte	0
 2454 01d6 25       		.uleb128 0x25
 2455 01d7 2E       		.uleb128 0x2e
 2456 01d8 01       		.byte	0x1
 2457 01d9 3F       		.uleb128 0x3f
 2458 01da 0C       		.uleb128 0xc
 2459 01db 03       		.uleb128 0x3
 2460 01dc 0E       		.uleb128 0xe
 2461 01dd 3A       		.uleb128 0x3a
 2462 01de 0B       		.uleb128 0xb
 2463 01df 3B       		.uleb128 0x3b
 2464 01e0 0B       		.uleb128 0xb
 2465 01e1 27       		.uleb128 0x27
 2466 01e2 0C       		.uleb128 0xc
 2467 01e3 11       		.uleb128 0x11
 2468 01e4 01       		.uleb128 0x1
 2469 01e5 12       		.uleb128 0x12
 2470 01e6 01       		.uleb128 0x1
 2471 01e7 40       		.uleb128 0x40
 2472 01e8 06       		.uleb128 0x6
 2473 01e9 9642     		.uleb128 0x2116
 2474 01eb 0C       		.uleb128 0xc
 2475 01ec 01       		.uleb128 0x1
 2476 01ed 13       		.uleb128 0x13
 2477 01ee 00       		.byte	0
 2478 01ef 00       		.byte	0
 2479 01f0 26       		.uleb128 0x26
 2480 01f1 34       		.uleb128 0x34
 2481 01f2 00       		.byte	0
 2482 01f3 03       		.uleb128 0x3
 2483 01f4 08       		.uleb128 0x8
ARM GAS  C:\Users\DNIEL~1\AppData\Local\Temp\ccYKK2eE.s 			page 45


 2484 01f5 3A       		.uleb128 0x3a
 2485 01f6 0B       		.uleb128 0xb
 2486 01f7 3B       		.uleb128 0x3b
 2487 01f8 0B       		.uleb128 0xb
 2488 01f9 49       		.uleb128 0x49
 2489 01fa 13       		.uleb128 0x13
 2490 01fb 02       		.uleb128 0x2
 2491 01fc 06       		.uleb128 0x6
 2492 01fd 00       		.byte	0
 2493 01fe 00       		.byte	0
 2494 01ff 27       		.uleb128 0x27
 2495 0200 34       		.uleb128 0x34
 2496 0201 00       		.byte	0
 2497 0202 03       		.uleb128 0x3
 2498 0203 0E       		.uleb128 0xe
 2499 0204 3A       		.uleb128 0x3a
 2500 0205 0B       		.uleb128 0xb
 2501 0206 3B       		.uleb128 0x3b
 2502 0207 0B       		.uleb128 0xb
 2503 0208 49       		.uleb128 0x49
 2504 0209 13       		.uleb128 0x13
 2505 020a 02       		.uleb128 0x2
 2506 020b 06       		.uleb128 0x6
 2507 020c 00       		.byte	0
 2508 020d 00       		.byte	0
 2509 020e 28       		.uleb128 0x28
 2510 020f 2E       		.uleb128 0x2e
 2511 0210 01       		.byte	0x1
 2512 0211 3F       		.uleb128 0x3f
 2513 0212 0C       		.uleb128 0xc
 2514 0213 03       		.uleb128 0x3
 2515 0214 0E       		.uleb128 0xe
 2516 0215 3A       		.uleb128 0x3a
 2517 0216 0B       		.uleb128 0xb
 2518 0217 3B       		.uleb128 0x3b
 2519 0218 0B       		.uleb128 0xb
 2520 0219 27       		.uleb128 0x27
 2521 021a 0C       		.uleb128 0xc
 2522 021b 49       		.uleb128 0x49
 2523 021c 13       		.uleb128 0x13
 2524 021d 11       		.uleb128 0x11
 2525 021e 01       		.uleb128 0x1
 2526 021f 12       		.uleb128 0x12
 2527 0220 01       		.uleb128 0x1
 2528 0221 40       		.uleb128 0x40
 2529 0222 0A       		.uleb128 0xa
 2530 0223 9742     		.uleb128 0x2117
 2531 0225 0C       		.uleb128 0xc
 2532 0226 01       		.uleb128 0x1
 2533 0227 13       		.uleb128 0x13
 2534 0228 00       		.byte	0
 2535 0229 00       		.byte	0
 2536 022a 29       		.uleb128 0x29
 2537 022b 0B       		.uleb128 0xb
 2538 022c 01       		.byte	0x1
 2539 022d 11       		.uleb128 0x11
 2540 022e 01       		.uleb128 0x1
ARM GAS  C:\Users\DNIEL~1\AppData\Local\Temp\ccYKK2eE.s 			page 46


 2541 022f 12       		.uleb128 0x12
 2542 0230 01       		.uleb128 0x1
 2543 0231 01       		.uleb128 0x1
 2544 0232 13       		.uleb128 0x13
 2545 0233 00       		.byte	0
 2546 0234 00       		.byte	0
 2547 0235 2A       		.uleb128 0x2a
 2548 0236 0B       		.uleb128 0xb
 2549 0237 01       		.byte	0x1
 2550 0238 55       		.uleb128 0x55
 2551 0239 06       		.uleb128 0x6
 2552 023a 00       		.byte	0
 2553 023b 00       		.byte	0
 2554 023c 2B       		.uleb128 0x2b
 2555 023d 34       		.uleb128 0x34
 2556 023e 00       		.byte	0
 2557 023f 03       		.uleb128 0x3
 2558 0240 0E       		.uleb128 0xe
 2559 0241 3A       		.uleb128 0x3a
 2560 0242 0B       		.uleb128 0xb
 2561 0243 3B       		.uleb128 0x3b
 2562 0244 0B       		.uleb128 0xb
 2563 0245 49       		.uleb128 0x49
 2564 0246 13       		.uleb128 0x13
 2565 0247 02       		.uleb128 0x2
 2566 0248 0A       		.uleb128 0xa
 2567 0249 00       		.byte	0
 2568 024a 00       		.byte	0
 2569 024b 2C       		.uleb128 0x2c
 2570 024c 2E       		.uleb128 0x2e
 2571 024d 01       		.byte	0x1
 2572 024e 3F       		.uleb128 0x3f
 2573 024f 0C       		.uleb128 0xc
 2574 0250 03       		.uleb128 0x3
 2575 0251 0E       		.uleb128 0xe
 2576 0252 3A       		.uleb128 0x3a
 2577 0253 0B       		.uleb128 0xb
 2578 0254 3B       		.uleb128 0x3b
 2579 0255 0B       		.uleb128 0xb
 2580 0256 27       		.uleb128 0x27
 2581 0257 0C       		.uleb128 0xc
 2582 0258 49       		.uleb128 0x49
 2583 0259 13       		.uleb128 0x13
 2584 025a 11       		.uleb128 0x11
 2585 025b 01       		.uleb128 0x1
 2586 025c 12       		.uleb128 0x12
 2587 025d 01       		.uleb128 0x1
 2588 025e 40       		.uleb128 0x40
 2589 025f 06       		.uleb128 0x6
 2590 0260 9642     		.uleb128 0x2116
 2591 0262 0C       		.uleb128 0xc
 2592 0263 01       		.uleb128 0x1
 2593 0264 13       		.uleb128 0x13
 2594 0265 00       		.byte	0
 2595 0266 00       		.byte	0
 2596 0267 2D       		.uleb128 0x2d
 2597 0268 0B       		.uleb128 0xb
ARM GAS  C:\Users\DNIEL~1\AppData\Local\Temp\ccYKK2eE.s 			page 47


 2598 0269 01       		.byte	0x1
 2599 026a 11       		.uleb128 0x11
 2600 026b 01       		.uleb128 0x1
 2601 026c 12       		.uleb128 0x12
 2602 026d 01       		.uleb128 0x1
 2603 026e 00       		.byte	0
 2604 026f 00       		.byte	0
 2605 0270 2E       		.uleb128 0x2e
 2606 0271 898201   		.uleb128 0x4109
 2607 0274 00       		.byte	0
 2608 0275 11       		.uleb128 0x11
 2609 0276 01       		.uleb128 0x1
 2610 0277 31       		.uleb128 0x31
 2611 0278 13       		.uleb128 0x13
 2612 0279 00       		.byte	0
 2613 027a 00       		.byte	0
 2614 027b 2F       		.uleb128 0x2f
 2615 027c 898201   		.uleb128 0x4109
 2616 027f 01       		.byte	0x1
 2617 0280 11       		.uleb128 0x11
 2618 0281 01       		.uleb128 0x1
 2619 0282 00       		.byte	0
 2620 0283 00       		.byte	0
 2621 0284 30       		.uleb128 0x30
 2622 0285 34       		.uleb128 0x34
 2623 0286 00       		.byte	0
 2624 0287 03       		.uleb128 0x3
 2625 0288 0E       		.uleb128 0xe
 2626 0289 3A       		.uleb128 0x3a
 2627 028a 0B       		.uleb128 0xb
 2628 028b 3B       		.uleb128 0x3b
 2629 028c 05       		.uleb128 0x5
 2630 028d 49       		.uleb128 0x49
 2631 028e 13       		.uleb128 0x13
 2632 028f 3F       		.uleb128 0x3f
 2633 0290 0C       		.uleb128 0xc
 2634 0291 3C       		.uleb128 0x3c
 2635 0292 0C       		.uleb128 0xc
 2636 0293 00       		.byte	0
 2637 0294 00       		.byte	0
 2638 0295 31       		.uleb128 0x31
 2639 0296 2E       		.uleb128 0x2e
 2640 0297 01       		.byte	0x1
 2641 0298 3F       		.uleb128 0x3f
 2642 0299 0C       		.uleb128 0xc
 2643 029a 03       		.uleb128 0x3
 2644 029b 0E       		.uleb128 0xe
 2645 029c 3A       		.uleb128 0x3a
 2646 029d 0B       		.uleb128 0xb
 2647 029e 3B       		.uleb128 0x3b
 2648 029f 0B       		.uleb128 0xb
 2649 02a0 27       		.uleb128 0x27
 2650 02a1 0C       		.uleb128 0xc
 2651 02a2 3C       		.uleb128 0x3c
 2652 02a3 0C       		.uleb128 0xc
 2653 02a4 01       		.uleb128 0x1
 2654 02a5 13       		.uleb128 0x13
ARM GAS  C:\Users\DNIEL~1\AppData\Local\Temp\ccYKK2eE.s 			page 48


 2655 02a6 00       		.byte	0
 2656 02a7 00       		.byte	0
 2657 02a8 32       		.uleb128 0x32
 2658 02a9 2E       		.uleb128 0x2e
 2659 02aa 01       		.byte	0x1
 2660 02ab 3F       		.uleb128 0x3f
 2661 02ac 0C       		.uleb128 0xc
 2662 02ad 03       		.uleb128 0x3
 2663 02ae 0E       		.uleb128 0xe
 2664 02af 3A       		.uleb128 0x3a
 2665 02b0 0B       		.uleb128 0xb
 2666 02b1 3B       		.uleb128 0x3b
 2667 02b2 05       		.uleb128 0x5
 2668 02b3 27       		.uleb128 0x27
 2669 02b4 0C       		.uleb128 0xc
 2670 02b5 3C       		.uleb128 0x3c
 2671 02b6 0C       		.uleb128 0xc
 2672 02b7 00       		.byte	0
 2673 02b8 00       		.byte	0
 2674 02b9 00       		.byte	0
 2675              		.section	.debug_loc,"",%progbits
 2676              	.Ldebug_loc0:
 2677              	.LLST0:
 2678 0000 00000000 		.4byte	.LVL0
 2679 0004 08000000 		.4byte	.LVL1
 2680 0008 0100     		.2byte	0x1
 2681 000a 50       		.byte	0x50
 2682 000b 08000000 		.4byte	.LVL1
 2683 000f 12000000 		.4byte	.LFE119
 2684 0013 0400     		.2byte	0x4
 2685 0015 F3       		.byte	0xf3
 2686 0016 01       		.uleb128 0x1
 2687 0017 50       		.byte	0x50
 2688 0018 9F       		.byte	0x9f
 2689 0019 00000000 		.4byte	0
 2690 001d 00000000 		.4byte	0
 2691              	.LLST1:
 2692 0021 00000000 		.4byte	.LVL2
 2693 0025 0C000000 		.4byte	.LVL3
 2694 0029 0100     		.2byte	0x1
 2695 002b 50       		.byte	0x50
 2696 002c 0C000000 		.4byte	.LVL3
 2697 0030 10000000 		.4byte	.LFE120
 2698 0034 0400     		.2byte	0x4
 2699 0036 F3       		.byte	0xf3
 2700 0037 01       		.uleb128 0x1
 2701 0038 50       		.byte	0x50
 2702 0039 9F       		.byte	0x9f
 2703 003a 00000000 		.4byte	0
 2704 003e 00000000 		.4byte	0
 2705              	.LLST2:
 2706 0042 00000000 		.4byte	.LFB118
 2707 0046 02000000 		.4byte	.LCFI0
 2708 004a 0200     		.2byte	0x2
 2709 004c 7D       		.byte	0x7d
 2710 004d 00       		.sleb128 0
 2711 004e 02000000 		.4byte	.LCFI0
ARM GAS  C:\Users\DNIEL~1\AppData\Local\Temp\ccYKK2eE.s 			page 49


 2712 0052 04000000 		.4byte	.LCFI1
 2713 0056 0200     		.2byte	0x2
 2714 0058 7D       		.byte	0x7d
 2715 0059 0C       		.sleb128 12
 2716 005a 04000000 		.4byte	.LCFI1
 2717 005e 06000000 		.4byte	.LCFI2
 2718 0062 0200     		.2byte	0x2
 2719 0064 7D       		.byte	0x7d
 2720 0065 10       		.sleb128 16
 2721 0066 06000000 		.4byte	.LCFI2
 2722 006a 1E000000 		.4byte	.LFE118
 2723 006e 0200     		.2byte	0x2
 2724 0070 7D       		.byte	0x7d
 2725 0071 18       		.sleb128 24
 2726 0072 00000000 		.4byte	0
 2727 0076 00000000 		.4byte	0
 2728              	.LLST3:
 2729 007a 00000000 		.4byte	.LVL4
 2730 007e 13000000 		.4byte	.LVL5-1
 2731 0082 0100     		.2byte	0x1
 2732 0084 50       		.byte	0x50
 2733 0085 13000000 		.4byte	.LVL5-1
 2734 0089 1E000000 		.4byte	.LFE118
 2735 008d 0400     		.2byte	0x4
 2736 008f F3       		.byte	0xf3
 2737 0090 01       		.uleb128 0x1
 2738 0091 50       		.byte	0x50
 2739 0092 9F       		.byte	0x9f
 2740 0093 00000000 		.4byte	0
 2741 0097 00000000 		.4byte	0
 2742              	.LLST4:
 2743 009b 00000000 		.4byte	.LFB121
 2744 009f 02000000 		.4byte	.LCFI3
 2745 00a3 0200     		.2byte	0x2
 2746 00a5 7D       		.byte	0x7d
 2747 00a6 00       		.sleb128 0
 2748 00a7 02000000 		.4byte	.LCFI3
 2749 00ab 2C000000 		.4byte	.LFE121
 2750 00af 0200     		.2byte	0x2
 2751 00b1 7D       		.byte	0x7d
 2752 00b2 08       		.sleb128 8
 2753 00b3 00000000 		.4byte	0
 2754 00b7 00000000 		.4byte	0
 2755              	.LLST5:
 2756 00bb 00000000 		.4byte	.LFB122
 2757 00bf 04000000 		.4byte	.LCFI4
 2758 00c3 0200     		.2byte	0x2
 2759 00c5 7D       		.byte	0x7d
 2760 00c6 00       		.sleb128 0
 2761 00c7 04000000 		.4byte	.LCFI4
 2762 00cb A8000000 		.4byte	.LFE122
 2763 00cf 0200     		.2byte	0x2
 2764 00d1 7D       		.byte	0x7d
 2765 00d2 20       		.sleb128 32
 2766 00d3 00000000 		.4byte	0
 2767 00d7 00000000 		.4byte	0
 2768              	.LLST6:
ARM GAS  C:\Users\DNIEL~1\AppData\Local\Temp\ccYKK2eE.s 			page 50


 2769 00db 3C000000 		.4byte	.LVL9
 2770 00df 48000000 		.4byte	.LVL10
 2771 00e3 0200     		.2byte	0x2
 2772 00e5 30       		.byte	0x30
 2773 00e6 9F       		.byte	0x9f
 2774 00e7 00000000 		.4byte	0
 2775 00eb 00000000 		.4byte	0
 2776              	.LLST7:
 2777 00ef 3C000000 		.4byte	.LVL9
 2778 00f3 48000000 		.4byte	.LVL10
 2779 00f7 0A00     		.2byte	0xa
 2780 00f9 9E       		.byte	0x9e
 2781 00fa 08       		.uleb128 0x8
 2782 00fb 00000000 		.4byte	0
 2783 00ff 00000000 		.4byte	0
 2784 0103 58000000 		.4byte	.LVL11
 2785 0107 66000000 		.4byte	.LVL13
 2786 010b 0600     		.2byte	0x6
 2787 010d 54       		.byte	0x54
 2788 010e 93       		.byte	0x93
 2789 010f 04       		.uleb128 0x4
 2790 0110 55       		.byte	0x55
 2791 0111 93       		.byte	0x93
 2792 0112 04       		.uleb128 0x4
 2793 0113 68000000 		.4byte	.LVL14
 2794 0117 78000000 		.4byte	.LVL16
 2795 011b 0600     		.2byte	0x6
 2796 011d 54       		.byte	0x54
 2797 011e 93       		.byte	0x93
 2798 011f 04       		.uleb128 0x4
 2799 0120 55       		.byte	0x55
 2800 0121 93       		.byte	0x93
 2801 0122 04       		.uleb128 0x4
 2802 0123 00000000 		.4byte	0
 2803 0127 00000000 		.4byte	0
 2804              	.LLST8:
 2805 012b 06000000 		.4byte	.LVL19
 2806 012f 10000000 		.4byte	.LVL20
 2807 0133 0100     		.2byte	0x1
 2808 0135 53       		.byte	0x53
 2809 0136 00000000 		.4byte	0
 2810 013a 00000000 		.4byte	0
 2811              	.LLST9:
 2812 013e 16000000 		.4byte	.LVL22
 2813 0142 18000000 		.4byte	.LFE123
 2814 0146 0100     		.2byte	0x1
 2815 0148 53       		.byte	0x53
 2816 0149 00000000 		.4byte	0
 2817 014d 00000000 		.4byte	0
 2818              	.LLST10:
 2819 0151 06000000 		.4byte	.LVL24
 2820 0155 10000000 		.4byte	.LVL25
 2821 0159 0100     		.2byte	0x1
 2822 015b 53       		.byte	0x53
 2823 015c 00000000 		.4byte	0
 2824 0160 00000000 		.4byte	0
 2825              	.LLST11:
ARM GAS  C:\Users\DNIEL~1\AppData\Local\Temp\ccYKK2eE.s 			page 51


 2826 0164 16000000 		.4byte	.LVL27
 2827 0168 18000000 		.4byte	.LFE124
 2828 016c 0100     		.2byte	0x1
 2829 016e 53       		.byte	0x53
 2830 016f 00000000 		.4byte	0
 2831 0173 00000000 		.4byte	0
 2832              	.LLST12:
 2833 0177 00000000 		.4byte	.LFB125
 2834 017b 02000000 		.4byte	.LCFI5
 2835 017f 0200     		.2byte	0x2
 2836 0181 7D       		.byte	0x7d
 2837 0182 00       		.sleb128 0
 2838 0183 02000000 		.4byte	.LCFI5
 2839 0187 20000000 		.4byte	.LFE125
 2840 018b 0200     		.2byte	0x2
 2841 018d 7D       		.byte	0x7d
 2842 018e 08       		.sleb128 8
 2843 018f 00000000 		.4byte	0
 2844 0193 00000000 		.4byte	0
 2845              	.LLST13:
 2846 0197 08000000 		.4byte	.LVL29
 2847 019b 0C000000 		.4byte	.LVL30
 2848 019f 0100     		.2byte	0x1
 2849 01a1 53       		.byte	0x53
 2850 01a2 00000000 		.4byte	0
 2851 01a6 00000000 		.4byte	0
 2852              	.LLST14:
 2853 01aa 1E000000 		.4byte	.LVL33
 2854 01ae 20000000 		.4byte	.LFE125
 2855 01b2 0100     		.2byte	0x1
 2856 01b4 53       		.byte	0x53
 2857 01b5 00000000 		.4byte	0
 2858 01b9 00000000 		.4byte	0
 2859              	.LLST15:
 2860 01bd 00000000 		.4byte	.LFB126
 2861 01c1 02000000 		.4byte	.LCFI6
 2862 01c5 0200     		.2byte	0x2
 2863 01c7 7D       		.byte	0x7d
 2864 01c8 00       		.sleb128 0
 2865 01c9 02000000 		.4byte	.LCFI6
 2866 01cd 84000000 		.4byte	.LFE126
 2867 01d1 0200     		.2byte	0x2
 2868 01d3 7D       		.byte	0x7d
 2869 01d4 18       		.sleb128 24
 2870 01d5 00000000 		.4byte	0
 2871 01d9 00000000 		.4byte	0
 2872              	.LLST16:
 2873 01dd 00000000 		.4byte	.LVL34
 2874 01e1 0F000000 		.4byte	.LVL36-1
 2875 01e5 0100     		.2byte	0x1
 2876 01e7 50       		.byte	0x50
 2877 01e8 0F000000 		.4byte	.LVL36-1
 2878 01ec 1A000000 		.4byte	.LVL38
 2879 01f0 0100     		.2byte	0x1
 2880 01f2 54       		.byte	0x54
 2881 01f3 1A000000 		.4byte	.LVL38
 2882 01f7 1D000000 		.4byte	.LVL39-1
ARM GAS  C:\Users\DNIEL~1\AppData\Local\Temp\ccYKK2eE.s 			page 52


 2883 01fb 0100     		.2byte	0x1
 2884 01fd 50       		.byte	0x50
 2885 01fe 1D000000 		.4byte	.LVL39-1
 2886 0202 5C000000 		.4byte	.LVL45
 2887 0206 0100     		.2byte	0x1
 2888 0208 54       		.byte	0x54
 2889 0209 5C000000 		.4byte	.LVL45
 2890 020d 84000000 		.4byte	.LFE126
 2891 0211 0100     		.2byte	0x1
 2892 0213 50       		.byte	0x50
 2893 0214 00000000 		.4byte	0
 2894 0218 00000000 		.4byte	0
 2895              	.LLST17:
 2896 021c 00000000 		.4byte	.LVL34
 2897 0220 04000000 		.4byte	.LVL35
 2898 0224 0100     		.2byte	0x1
 2899 0226 51       		.byte	0x51
 2900 0227 04000000 		.4byte	.LVL35
 2901 022b 84000000 		.4byte	.LFE126
 2902 022f 0400     		.2byte	0x4
 2903 0231 F3       		.byte	0xf3
 2904 0232 01       		.uleb128 0x1
 2905 0233 51       		.byte	0x51
 2906 0234 9F       		.byte	0x9f
 2907 0235 00000000 		.4byte	0
 2908 0239 00000000 		.4byte	0
 2909              	.LLST18:
 2910 023d 00000000 		.4byte	.LVL34
 2911 0241 0F000000 		.4byte	.LVL36-1
 2912 0245 0100     		.2byte	0x1
 2913 0247 52       		.byte	0x52
 2914 0248 0F000000 		.4byte	.LVL36-1
 2915 024c 84000000 		.4byte	.LFE126
 2916 0250 0400     		.2byte	0x4
 2917 0252 F3       		.byte	0xf3
 2918 0253 01       		.uleb128 0x1
 2919 0254 52       		.byte	0x52
 2920 0255 9F       		.byte	0x9f
 2921 0256 00000000 		.4byte	0
 2922 025a 00000000 		.4byte	0
 2923              		.section	.debug_aranges,"",%progbits
 2924 0000 5C000000 		.4byte	0x5c
 2925 0004 0200     		.2byte	0x2
 2926 0006 00000000 		.4byte	.Ldebug_info0
 2927 000a 04       		.byte	0x4
 2928 000b 00       		.byte	0
 2929 000c 0000     		.2byte	0
 2930 000e 0000     		.2byte	0
 2931 0010 00000000 		.4byte	.LFB119
 2932 0014 12000000 		.4byte	.LFE119-.LFB119
 2933 0018 00000000 		.4byte	.LFB120
 2934 001c 10000000 		.4byte	.LFE120-.LFB120
 2935 0020 00000000 		.4byte	.LFB118
 2936 0024 1E000000 		.4byte	.LFE118-.LFB118
 2937 0028 00000000 		.4byte	.LFB121
 2938 002c 2C000000 		.4byte	.LFE121-.LFB121
 2939 0030 00000000 		.4byte	.LFB122
ARM GAS  C:\Users\DNIEL~1\AppData\Local\Temp\ccYKK2eE.s 			page 53


 2940 0034 A8000000 		.4byte	.LFE122-.LFB122
 2941 0038 00000000 		.4byte	.LFB123
 2942 003c 18000000 		.4byte	.LFE123-.LFB123
 2943 0040 00000000 		.4byte	.LFB124
 2944 0044 18000000 		.4byte	.LFE124-.LFB124
 2945 0048 00000000 		.4byte	.LFB125
 2946 004c 20000000 		.4byte	.LFE125-.LFB125
 2947 0050 00000000 		.4byte	.LFB126
 2948 0054 84000000 		.4byte	.LFE126-.LFB126
 2949 0058 00000000 		.4byte	0
 2950 005c 00000000 		.4byte	0
 2951              		.section	.debug_ranges,"",%progbits
 2952              	.Ldebug_ranges0:
 2953 0000 0E000000 		.4byte	.LBB3
 2954 0004 10000000 		.4byte	.LBE3
 2955 0008 12000000 		.4byte	.LBB4
 2956 000c 16000000 		.4byte	.LBE4
 2957 0010 00000000 		.4byte	0
 2958 0014 00000000 		.4byte	0
 2959 0018 0E000000 		.4byte	.LBB6
 2960 001c 10000000 		.4byte	.LBE6
 2961 0020 12000000 		.4byte	.LBB7
 2962 0024 16000000 		.4byte	.LBE7
 2963 0028 00000000 		.4byte	0
 2964 002c 00000000 		.4byte	0
 2965 0030 00000000 		.4byte	.LFB119
 2966 0034 12000000 		.4byte	.LFE119
 2967 0038 00000000 		.4byte	.LFB120
 2968 003c 10000000 		.4byte	.LFE120
 2969 0040 00000000 		.4byte	.LFB118
 2970 0044 1E000000 		.4byte	.LFE118
 2971 0048 00000000 		.4byte	.LFB121
 2972 004c 2C000000 		.4byte	.LFE121
 2973 0050 00000000 		.4byte	.LFB122
 2974 0054 A8000000 		.4byte	.LFE122
 2975 0058 00000000 		.4byte	.LFB123
 2976 005c 18000000 		.4byte	.LFE123
 2977 0060 00000000 		.4byte	.LFB124
 2978 0064 18000000 		.4byte	.LFE124
 2979 0068 00000000 		.4byte	.LFB125
 2980 006c 20000000 		.4byte	.LFE125
 2981 0070 00000000 		.4byte	.LFB126
 2982 0074 84000000 		.4byte	.LFE126
 2983 0078 00000000 		.4byte	0
 2984 007c 00000000 		.4byte	0
 2985              		.section	.debug_line,"",%progbits
 2986              	.Ldebug_line0:
 2987 0000 9B030000 		.section	.debug_str,"MS",%progbits,1
 2987      02009602 
 2987      00000201 
 2987      FB0E0D00 
 2987      01010101 
 2988              	.LASF46:
 2989 0000 43434552 		.ascii	"CCER\000"
 2989      00
 2990              	.LASF18:
 2991 0005 77726974 		.ascii	"write\000"
ARM GAS  C:\Users\DNIEL~1\AppData\Local\Temp\ccYKK2eE.s 			page 54


 2991      6500
 2992              	.LASF29:
 2993 000b 4943555F 		.ascii	"ICU_STOP\000"
 2993      53544F50 
 2993      00
 2994              	.LASF59:
 2995 0014 69637563 		.ascii	"icuchannel_t\000"
 2995      68616E6E 
 2995      656C5F74 
 2995      00
 2996              	.LASF48:
 2997 0021 444D4152 		.ascii	"DMAR\000"
 2997      00
 2998              	.LASF89:
 2999 0026 73706565 		.ascii	"speed_last_period\000"
 2999      645F6C61 
 2999      73745F70 
 2999      6572696F 
 2999      6400
 3000              	.LASF36:
 3001 0038 73746174 		.ascii	"state\000"
 3001      6500
 3002              	.LASF45:
 3003 003e 43434D52 		.ascii	"CCMR2\000"
 3003      3200
 3004              	.LASF49:
 3005 0044 43434D52 		.ascii	"CCMR3\000"
 3005      3300
 3006              	.LASF5:
 3007 004a 73686F72 		.ascii	"short int\000"
 3007      7420696E 
 3007      7400
 3008              	.LASF2:
 3009 0054 73697A65 		.ascii	"size_t\000"
 3009      5F7400
 3010              	.LASF75:
 3011 005b 73706565 		.ascii	"speedInit\000"
 3011      64496E69 
 3011      7400
 3012              	.LASF16:
 3013 0065 73697A65 		.ascii	"sizetype\000"
 3013      74797065 
 3013      00
 3014              	.LASF97:
 3015 006e 474E5520 		.ascii	"GNU C 4.7.4 20140401 (release) [ARM/embedded-4_7-br"
 3015      4320342E 
 3015      372E3420 
 3015      32303134 
 3015      30343031 
 3016 00a1 616E6368 		.ascii	"anch revision 209195]\000"
 3016      20726576 
 3016      6973696F 
 3016      6E203230 
 3016      39313935 
 3017              	.LASF55:
 3018 00b7 6963756D 		.ascii	"icumode_t\000"
 3018      6F64655F 
ARM GAS  C:\Users\DNIEL~1\AppData\Local\Temp\ccYKK2eE.s 			page 55


 3018      7400
 3019              	.LASF98:
 3020 00c1 7372632F 		.ascii	"src/speed.c\000"
 3020      73706565 
 3020      642E6300 
 3021              	.LASF90:
 3022 00cd 73706565 		.ascii	"speed_period_num\000"
 3022      645F7065 
 3022      72696F64 
 3022      5F6E756D 
 3022      00
 3023              	.LASF20:
 3024 00de 42617365 		.ascii	"BaseSequentialStream\000"
 3024      53657175 
 3024      656E7469 
 3024      616C5374 
 3024      7265616D 
 3025              	.LASF101:
 3026 00f3 63685468 		.ascii	"chThdSleep\000"
 3026      64536C65 
 3026      657000
 3027              	.LASF60:
 3028 00fe 6D6F6465 		.ascii	"mode\000"
 3028      00
 3029              	.LASF86:
 3030 0103 72706D5F 		.ascii	"rpm_buff\000"
 3030      62756666 
 3030      00
 3031              	.LASF25:
 3032 010c 77726974 		.ascii	"writet\000"
 3032      657400
 3033              	.LASF37:
 3034 0113 636F6E66 		.ascii	"config\000"
 3034      696700
 3035              	.LASF79:
 3036 011a 73706565 		.ascii	"speedGetLastPeriod\000"
 3036      64476574 
 3036      4C617374 
 3036      50657269 
 3036      6F6400
 3037              	.LASF33:
 3038 012d 4943555F 		.ascii	"ICU_IDLE\000"
 3038      49444C45 
 3038      00
 3039              	.LASF70:
 3040 0136 76615F6C 		.ascii	"va_list\000"
 3040      69737400 
 3041              	.LASF83:
 3042 013e 636D645F 		.ascii	"cmd_speedvalues\000"
 3042      73706565 
 3042      6476616C 
 3042      75657300 
 3043              	.LASF3:
 3044 014e 75696E74 		.ascii	"uint8_t\000"
 3044      385F7400 
 3045              	.LASF57:
 3046 0156 4943555F 		.ascii	"ICU_CHANNEL_1\000"
ARM GAS  C:\Users\DNIEL~1\AppData\Local\Temp\ccYKK2eE.s 			page 56


 3046      4348414E 
 3046      4E454C5F 
 3046      3100
 3047              	.LASF58:
 3048 0164 4943555F 		.ascii	"ICU_CHANNEL_2\000"
 3048      4348414E 
 3048      4E454C5F 
 3048      3200
 3049              	.LASF22:
 3050 0172 42617365 		.ascii	"BaseChannelVMT\000"
 3050      4368616E 
 3050      6E656C56 
 3050      4D5400
 3051              	.LASF84:
 3052 0181 61726763 		.ascii	"argc\000"
 3052      00
 3053              	.LASF77:
 3054 0186 72706D61 		.ascii	"rpmasis\000"
 3054      73697300 
 3055              	.LASF62:
 3056 018e 77696474 		.ascii	"width_cb\000"
 3056      685F6362 
 3056      00
 3057              	.LASF88:
 3058 0197 69637563 		.ascii	"icucfg\000"
 3058      666700
 3059              	.LASF19:
 3060 019e 72656164 		.ascii	"read\000"
 3060      00
 3061              	.LASF11:
 3062 01a3 6C6F6E67 		.ascii	"long long int\000"
 3062      206C6F6E 
 3062      6720696E 
 3062      7400
 3063              	.LASF69:
 3064 01b1 5F5F7661 		.ascii	"__va_list\000"
 3064      5F6C6973 
 3064      7400
 3065              	.LASF73:
 3066 01bb 69637570 		.ascii	"icup\000"
 3066      00
 3067              	.LASF39:
 3068 01c0 77636372 		.ascii	"wccrp\000"
 3068      7000
 3069              	.LASF8:
 3070 01c6 6C6F6E67 		.ascii	"long int\000"
 3070      20696E74 
 3070      00
 3071              	.LASF50:
 3072 01cf 43435235 		.ascii	"CCR5\000"
 3072      00
 3073              	.LASF51:
 3074 01d4 43435236 		.ascii	"CCR6\000"
 3074      00
 3075              	.LASF24:
 3076 01d9 67657474 		.ascii	"gett\000"
 3076      00
ARM GAS  C:\Users\DNIEL~1\AppData\Local\Temp\ccYKK2eE.s 			page 57


 3077              	.LASF40:
 3078 01de 70636372 		.ascii	"pccrp\000"
 3078      7000
 3079              	.LASF44:
 3080 01e4 43434D52 		.ascii	"CCMR1\000"
 3080      3100
 3081              	.LASF72:
 3082 01ea 73706565 		.ascii	"speedWheelPeriodNumber\000"
 3082      64576865 
 3082      656C5065 
 3082      72696F64 
 3082      4E756D62 
 3083              	.LASF85:
 3084 0201 61726776 		.ascii	"argv\000"
 3084      00
 3085              	.LASF82:
 3086 0206 73706565 		.ascii	"speedGetRpm\000"
 3086      64476574 
 3086      52706D00 
 3087              	.LASF42:
 3088 0212 534D4352 		.ascii	"SMCR\000"
 3088      00
 3089              	.LASF4:
 3090 0217 756E7369 		.ascii	"unsigned char\000"
 3090      676E6564 
 3090      20636861 
 3090      7200
 3091              	.LASF67:
 3092 0225 49435543 		.ascii	"ICUConfig\000"
 3092      6F6E6669 
 3092      6700
 3093              	.LASF93:
 3094 022f 49435544 		.ascii	"ICUD1\000"
 3094      3100
 3095              	.LASF71:
 3096 0235 73706565 		.ascii	"speedWheelPeriodCb\000"
 3096      64576865 
 3096      656C5065 
 3096      72696F64 
 3096      436200
 3097              	.LASF95:
 3098 0248 69637553 		.ascii	"icuStart\000"
 3098      74617274 
 3098      00
 3099              	.LASF96:
 3100 0251 69637545 		.ascii	"icuEnable\000"
 3100      6E61626C 
 3100      6500
 3101              	.LASF1:
 3102 025b 7369676E 		.ascii	"signed char\000"
 3102      65642063 
 3102      68617200 
 3103              	.LASF80:
 3104 0267 73706565 		.ascii	"speedGetPeriodNumber\000"
 3104      64476574 
 3104      50657269 
 3104      6F644E75 
ARM GAS  C:\Users\DNIEL~1\AppData\Local\Temp\ccYKK2eE.s 			page 58


 3104      6D626572 
 3105              	.LASF12:
 3106 027c 6C6F6E67 		.ascii	"long long unsigned int\000"
 3106      206C6F6E 
 3106      6720756E 
 3106      7369676E 
 3106      65642069 
 3107              	.LASF9:
 3108 0293 75696E74 		.ascii	"uint32_t\000"
 3108      33325F74 
 3108      00
 3109              	.LASF0:
 3110 029c 756E7369 		.ascii	"unsigned int\000"
 3110      676E6564 
 3110      20696E74 
 3110      00
 3111              	.LASF100:
 3112 02a9 5F5F6170 		.ascii	"__ap\000"
 3112      00
 3113              	.LASF91:
 3114 02ae 726F7461 		.ascii	"rotation\000"
 3114      74696F6E 
 3114      00
 3115              	.LASF23:
 3116 02b7 70757474 		.ascii	"putt\000"
 3116      00
 3117              	.LASF43:
 3118 02bc 44494552 		.ascii	"DIER\000"
 3118      00
 3119              	.LASF56:
 3120 02c1 69637566 		.ascii	"icufreq_t\000"
 3120      7265715F 
 3120      7400
 3121              	.LASF13:
 3122 02cb 5F426F6F 		.ascii	"_Bool\000"
 3122      6C00
 3123              	.LASF6:
 3124 02d1 73686F72 		.ascii	"short unsigned int\000"
 3124      7420756E 
 3124      7369676E 
 3124      65642069 
 3124      6E7400
 3125              	.LASF15:
 3126 02e4 73797374 		.ascii	"systime_t\000"
 3126      696D655F 
 3126      7400
 3127              	.LASF26:
 3128 02ee 72656164 		.ascii	"readt\000"
 3128      7400
 3129              	.LASF17:
 3130 02f4 63686172 		.ascii	"char\000"
 3130      00
 3131              	.LASF41:
 3132 02f9 69637563 		.ascii	"icucallback_t\000"
 3132      616C6C62 
 3132      61636B5F 
 3132      7400
ARM GAS  C:\Users\DNIEL~1\AppData\Local\Temp\ccYKK2eE.s 			page 59


 3133              	.LASF52:
 3134 0307 73746D33 		.ascii	"stm32_tim_t\000"
 3134      325F7469 
 3134      6D5F7400 
 3135              	.LASF63:
 3136 0313 70657269 		.ascii	"period_cb\000"
 3136      6F645F63 
 3136      6200
 3137              	.LASF47:
 3138 031d 42445452 		.ascii	"BDTR\000"
 3138      00
 3139              	.LASF7:
 3140 0322 696E7433 		.ascii	"int32_t\000"
 3140      325F7400 
 3141              	.LASF54:
 3142 032a 4943555F 		.ascii	"ICU_INPUT_ACTIVE_LOW\000"
 3142      494E5055 
 3142      545F4143 
 3142      54495645 
 3142      5F4C4F57 
 3143              	.LASF74:
 3144 033f 63687072 		.ascii	"chprintf\000"
 3144      696E7466 
 3144      00
 3145              	.LASF65:
 3146 0348 6368616E 		.ascii	"channel\000"
 3146      6E656C00 
 3147              	.LASF28:
 3148 0350 4943555F 		.ascii	"ICU_UNINIT\000"
 3148      554E494E 
 3148      495400
 3149              	.LASF61:
 3150 035b 66726571 		.ascii	"frequency\000"
 3150      75656E63 
 3150      7900
 3151              	.LASF81:
 3152 0365 746D7032 		.ascii	"tmp2\000"
 3152      00
 3153              	.LASF53:
 3154 036a 4943555F 		.ascii	"ICU_INPUT_ACTIVE_HIGH\000"
 3154      494E5055 
 3154      545F4143 
 3154      54495645 
 3154      5F484947 
 3155              	.LASF99:
 3156 0380 433A5C55 		.ascii	"C:\\Users\\D\341niel\\git\\Smarty\\smarty\\firmware"
 3156      73657273 
 3156      5C44E16E 
 3156      69656C5C 
 3156      6769745C 
 3157 03aa 00       		.ascii	"\000"
 3158              	.LASF10:
 3159 03ab 6C6F6E67 		.ascii	"long unsigned int\000"
 3159      20756E73 
 3159      69676E65 
 3159      6420696E 
 3159      7400
ARM GAS  C:\Users\DNIEL~1\AppData\Local\Temp\ccYKK2eE.s 			page 60


 3160              	.LASF38:
 3161 03bd 636C6F63 		.ascii	"clock\000"
 3161      6B00
 3162              	.LASF78:
 3163 03c3 646F7562 		.ascii	"double\000"
 3163      6C6500
 3164              	.LASF32:
 3165 03ca 4943555F 		.ascii	"ICU_ACTIVE\000"
 3165      41435449 
 3165      564500
 3166              	.LASF76:
 3167 03d5 73706565 		.ascii	"speedCalc\000"
 3167      6443616C 
 3167      6300
 3168              	.LASF64:
 3169 03df 6F766572 		.ascii	"overflow_cb\000"
 3169      666C6F77 
 3169      5F636200 
 3170              	.LASF66:
 3171 03eb 64696572 		.ascii	"dier\000"
 3171      00
 3172              	.LASF35:
 3173 03f0 49435544 		.ascii	"ICUDriver\000"
 3173      72697665 
 3173      7200
 3174              	.LASF68:
 3175 03fa 5F5F676E 		.ascii	"__gnuc_va_list\000"
 3175      75635F76 
 3175      615F6C69 
 3175      737400
 3176              	.LASF87:
 3177 0409 72706D5F 		.ascii	"rpm_index\000"
 3177      696E6465 
 3177      7800
 3178              	.LASF30:
 3179 0413 4943555F 		.ascii	"ICU_READY\000"
 3179      52454144 
 3179      5900
 3180              	.LASF27:
 3181 041d 42617365 		.ascii	"BaseChannel\000"
 3181      4368616E 
 3181      6E656C00 
 3182              	.LASF92:
 3183 0429 49544D5F 		.ascii	"ITM_RxBuffer\000"
 3183      52784275 
 3183      66666572 
 3183      00
 3184              	.LASF14:
 3185 0436 6D73675F 		.ascii	"msg_t\000"
 3185      7400
 3186              	.LASF34:
 3187 043c 69637573 		.ascii	"icustate_t\000"
 3187      74617465 
 3187      5F7400
 3188              	.LASF21:
 3189 0447 42617365 		.ascii	"BaseSequentialStreamVMT\000"
 3189      53657175 
ARM GAS  C:\Users\DNIEL~1\AppData\Local\Temp\ccYKK2eE.s 			page 61


 3189      656E7469 
 3189      616C5374 
 3189      7265616D 
 3190              	.LASF31:
 3191 045f 4943555F 		.ascii	"ICU_WAITING\000"
 3191      57414954 
 3191      494E4700 
 3192              	.LASF94:
 3193 046b 63687670 		.ascii	"chvprintf\000"
 3193      72696E74 
 3193      6600
 3194              		.ident	"GCC: (GNU Tools for ARM Embedded Processors) 4.7.4 20140401 (release) [ARM/embedded-4_7-br
ARM GAS  C:\Users\DNIEL~1\AppData\Local\Temp\ccYKK2eE.s 			page 62


DEFINED SYMBOLS
                            *ABS*:00000000 speed.c
C:\Users\DNIEL~1\AppData\Local\Temp\ccYKK2eE.s:19     .text.speedWheelPeriodCb:00000000 $t
C:\Users\DNIEL~1\AppData\Local\Temp\ccYKK2eE.s:24     .text.speedWheelPeriodCb:00000000 speedWheelPeriodCb
C:\Users\DNIEL~1\AppData\Local\Temp\ccYKK2eE.s:536    .bss.speed_last_period:00000000 .LANCHOR0
C:\Users\DNIEL~1\AppData\Local\Temp\ccYKK2eE.s:46     .text.speedWheelPeriodNumber:00000000 $t
C:\Users\DNIEL~1\AppData\Local\Temp\ccYKK2eE.s:51     .text.speedWheelPeriodNumber:00000000 speedWheelPeriodNumber
C:\Users\DNIEL~1\AppData\Local\Temp\ccYKK2eE.s:582    .bss.speed_period_num:00000000 .LANCHOR1
C:\Users\DNIEL~1\AppData\Local\Temp\ccYKK2eE.s:71     .text.chprintf:00000000 $t
C:\Users\DNIEL~1\AppData\Local\Temp\ccYKK2eE.s:76     .text.chprintf:00000000 chprintf
C:\Users\DNIEL~1\AppData\Local\Temp\ccYKK2eE.s:116    .text.speedInit:00000000 $t
C:\Users\DNIEL~1\AppData\Local\Temp\ccYKK2eE.s:122    .text.speedInit:00000000 speedInit
C:\Users\DNIEL~1\AppData\Local\Temp\ccYKK2eE.s:589    .data.icucfg:00000000 .LANCHOR2
C:\Users\DNIEL~1\AppData\Local\Temp\ccYKK2eE.s:159    .text.speedCalc:00000000 $t
C:\Users\DNIEL~1\AppData\Local\Temp\ccYKK2eE.s:165    .text.speedCalc:00000000 speedCalc
C:\Users\DNIEL~1\AppData\Local\Temp\ccYKK2eE.s:273    .text.speedCalc:00000098 $d
C:\Users\DNIEL~1\AppData\Local\Temp\ccYKK2eE.s:281    .text.speedGetLastPeriod:00000000 $t
C:\Users\DNIEL~1\AppData\Local\Temp\ccYKK2eE.s:287    .text.speedGetLastPeriod:00000000 speedGetLastPeriod
C:\Users\DNIEL~1\AppData\Local\Temp\ccYKK2eE.s:329    .text.speedGetPeriodNumber:00000000 $t
C:\Users\DNIEL~1\AppData\Local\Temp\ccYKK2eE.s:335    .text.speedGetPeriodNumber:00000000 speedGetPeriodNumber
C:\Users\DNIEL~1\AppData\Local\Temp\ccYKK2eE.s:378    .text.speedGetRpm:00000000 $t
C:\Users\DNIEL~1\AppData\Local\Temp\ccYKK2eE.s:384    .text.speedGetRpm:00000000 speedGetRpm
C:\Users\DNIEL~1\AppData\Local\Temp\ccYKK2eE.s:543    .bss.rotation:00000000 .LANCHOR3
C:\Users\DNIEL~1\AppData\Local\Temp\ccYKK2eE.s:428    .text.cmd_speedvalues:00000000 $t
C:\Users\DNIEL~1\AppData\Local\Temp\ccYKK2eE.s:434    .text.cmd_speedvalues:00000000 cmd_speedvalues
C:\Users\DNIEL~1\AppData\Local\Temp\ccYKK2eE.s:522    .text.cmd_speedvalues:00000060 $d
C:\Users\DNIEL~1\AppData\Local\Temp\ccYKK2eE.s:535    .bss.speed_last_period:00000000 $d
C:\Users\DNIEL~1\AppData\Local\Temp\ccYKK2eE.s:539    .bss.speed_last_period:00000000 speed_last_period
C:\Users\DNIEL~1\AppData\Local\Temp\ccYKK2eE.s:542    .bss.rotation:00000000 $d
C:\Users\DNIEL~1\AppData\Local\Temp\ccYKK2eE.s:546    .bss.rotation:00000000 rotation
C:\Users\DNIEL~1\AppData\Local\Temp\ccYKK2eE.s:549    .rodata.str1.4:00000000 $d
C:\Users\DNIEL~1\AppData\Local\Temp\ccYKK2eE.s:567    .bss.rpm_index:00000000 $d
C:\Users\DNIEL~1\AppData\Local\Temp\ccYKK2eE.s:571    .bss.rpm_index:00000000 rpm_index
C:\Users\DNIEL~1\AppData\Local\Temp\ccYKK2eE.s:574    .bss.rpm_buff:00000000 $d
C:\Users\DNIEL~1\AppData\Local\Temp\ccYKK2eE.s:578    .bss.rpm_buff:00000000 rpm_buff
C:\Users\DNIEL~1\AppData\Local\Temp\ccYKK2eE.s:581    .bss.speed_period_num:00000000 $d
C:\Users\DNIEL~1\AppData\Local\Temp\ccYKK2eE.s:585    .bss.speed_period_num:00000000 speed_period_num
C:\Users\DNIEL~1\AppData\Local\Temp\ccYKK2eE.s:588    .data.icucfg:00000000 $d
C:\Users\DNIEL~1\AppData\Local\Temp\ccYKK2eE.s:592    .data.icucfg:00000000 icucfg
                     .debug_frame:00000010 $d
C:\Users\DNIEL~1\AppData\Local\Temp\ccYKK2eE.s:280    .text.speedCalc:000000a8 $t
C:\Users\DNIEL~1\AppData\Local\Temp\ccYKK2eE.s:534    .text.cmd_speedvalues:00000084 $t

UNDEFINED SYMBOLS
chvprintf
ICUD1
icuStart
icuEnable
__aeabi_ui2d
__aeabi_dadd
__aeabi_ddiv
__aeabi_dcmplt
__aeabi_d2uiz
chThdSleep
