ARM GAS  C:\Users\DNIEL~1\AppData\Local\Temp\ccBGxBoR.s 			page 1


   1              		.syntax unified
   2              		.cpu cortex-m4
   3              		.fpu softvfp
   4              		.eabi_attribute 20, 1
   5              		.eabi_attribute 21, 1
   6              		.eabi_attribute 23, 3
   7              		.eabi_attribute 24, 1
   8              		.eabi_attribute 25, 1
   9              		.eabi_attribute 26, 1
  10              		.eabi_attribute 30, 2
  11              		.eabi_attribute 18, 4
  12              		.thumb
  13              		.file	"speed.c"
  14              		.section	.debug_abbrev,"",%progbits
  15              	.Ldebug_abbrev0:
  16              		.section	.debug_info,"",%progbits
  17              	.Ldebug_info0:
  18              		.section	.debug_line,"",%progbits
  19              	.Ldebug_line0:
  20 0000 26030000 		.text
  20      02003702 
  20      00000201 
  20      FB0E0D00 
  20      01010101 
  21              	.Ltext0:
  22              		.cfi_sections	.debug_frame
  23              		.section	.text.speedWheelPeriodCb,"ax",%progbits
  24              		.align	2
  25              		.p2align 4,,15
  26              		.thumb
  27              		.thumb_func
  28              		.type	speedWheelPeriodCb, %function
  29              	speedWheelPeriodCb:
  30              	.LFB118:
  31              		.file 1 "src/speed.c"
  32              		.loc 1 37 0
  33              		.cfi_startproc
  34              		@ args = 0, pretend = 0, frame = 0
  35              		@ frame_needed = 0, uses_anonymous_args = 0
  36              		@ link register save eliminated.
  37              	.LVL0:
  38              		.loc 1 38 0
  39 0000 4169     		ldr	r1, [r0, #20]
  40 0002 024B     		ldr	r3, .L2
  41 0004 0868     		ldr	r0, [r1, #0]
  42              	.LVL1:
  43 0006 421C     		adds	r2, r0, #1
  44 0008 1A60     		str	r2, [r3, #0]
  45              		.loc 1 39 0
  46 000a 7047     		bx	lr
  47              	.L3:
  48              		.align	2
  49              	.L2:
  50 000c 00000000 		.word	.LANCHOR0
  51              		.cfi_endproc
  52              	.LFE118:
  53              		.size	speedWheelPeriodCb, .-speedWheelPeriodCb
ARM GAS  C:\Users\DNIEL~1\AppData\Local\Temp\ccBGxBoR.s 			page 2


  54              		.section	.text.speedWheelPeriodNumber,"ax",%progbits
  55              		.align	2
  56              		.p2align 4,,15
  57              		.thumb
  58              		.thumb_func
  59              		.type	speedWheelPeriodNumber, %function
  60              	speedWheelPeriodNumber:
  61              	.LFB119:
  62              		.loc 1 41 0
  63              		.cfi_startproc
  64              		@ args = 0, pretend = 0, frame = 0
  65              		@ frame_needed = 0, uses_anonymous_args = 0
  66              		@ link register save eliminated.
  67              	.LVL2:
  68              		.loc 1 43 0
  69 0000 024B     		ldr	r3, .L5
  70 0002 1868     		ldr	r0, [r3, #0]
  71              	.LVL3:
  72 0004 421C     		adds	r2, r0, #1
  73 0006 1A60     		str	r2, [r3, #0]
  74              		.loc 1 44 0
  75 0008 7047     		bx	lr
  76              	.L6:
  77 000a 00BF     		.align	2
  78              	.L5:
  79 000c 00000000 		.word	.LANCHOR1
  80              		.cfi_endproc
  81              	.LFE119:
  82              		.size	speedWheelPeriodNumber, .-speedWheelPeriodNumber
  83              		.section	.text.speedInit,"ax",%progbits
  84              		.align	2
  85              		.p2align 4,,15
  86              		.global	speedInit
  87              		.thumb
  88              		.thumb_func
  89              		.type	speedInit, %function
  90              	speedInit:
  91              	.LFB120:
  92              		.loc 1 46 0
  93              		.cfi_startproc
  94              		@ args = 0, pretend = 0, frame = 0
  95              		@ frame_needed = 0, uses_anonymous_args = 0
  96 0000 10B5     		push	{r4, lr}
  97              	.LCFI0:
  98              		.cfi_def_cfa_offset 8
  99              		.loc 1 51 0
 100 0002 064C     		ldr	r4, .L8
 101              		.cfi_offset 14, -4
 102              		.cfi_offset 4, -8
 103 0004 0649     		ldr	r1, .L8+4
 104 0006 2046     		mov	r0, r4
 105 0008 FFF7FEFF 		bl	icuStart
 106              		.loc 1 52 0
 107 000c 2046     		mov	r0, r4
 108 000e FFF7FEFF 		bl	icuEnable
 109              		.loc 1 54 0
 110 0012 044B     		ldr	r3, .L8+8
ARM GAS  C:\Users\DNIEL~1\AppData\Local\Temp\ccBGxBoR.s 			page 3


 111 0014 0022     		movs	r2, #0
 112 0016 1A60     		str	r2, [r3, #0]
 113              		.loc 1 55 0
 114 0018 10BD     		pop	{r4, pc}
 115              	.L9:
 116 001a 00BF     		.align	2
 117              	.L8:
 118 001c 00000000 		.word	ICUD1
 119 0020 00000000 		.word	.LANCHOR2
 120 0024 00000000 		.word	.LANCHOR1
 121              		.cfi_endproc
 122              	.LFE120:
 123              		.size	speedInit, .-speedInit
 124              		.global	__aeabi_ui2d
 125              		.global	__aeabi_dadd
 126              		.global	__aeabi_ddiv
 127              		.global	__aeabi_dcmplt
 128 0028 AFF30080 		.section	.text.speedCalc,"ax",%progbits
 128      AFF30080 
 129              		.align	2
 130              		.p2align 4,,15
 131              		.global	speedCalc
 132              		.thumb
 133              		.thumb_func
 134              		.type	speedCalc, %function
 135              	speedCalc:
 136              	.LFB121:
 137              		.loc 1 57 0
 138              		.cfi_startproc
 139              		@ args = 0, pretend = 0, frame = 0
 140              		@ frame_needed = 0, uses_anonymous_args = 0
 141 0000 2DE9F843 		push	{r3, r4, r5, r6, r7, r8, r9, lr}
 142              	.LCFI1:
 143              		.cfi_def_cfa_offset 32
 144              		.loc 1 61 0
 145 0004 214D     		ldr	r5, .L19
 146              		.cfi_offset 14, -4
 147              		.cfi_offset 9, -8
 148              		.cfi_offset 8, -12
 149              		.cfi_offset 7, -16
 150              		.cfi_offset 6, -20
 151              		.cfi_offset 5, -24
 152              		.cfi_offset 4, -28
 153              		.cfi_offset 3, -32
 154 0006 2248     		ldr	r0, .L19+4
 155 0008 2C68     		ldr	r4, [r5, #0]
 156 000a DFF89490 		ldr	r9, .L19+20
 157 000e 04EB4402 		add	r2, r4, r4, lsl #1
 158 0012 1101     		lsls	r1, r2, #4
 159 0014 B0FBF1F0 		udiv	r0, r0, r1
 160 0018 FFF7FEFF 		bl	__aeabi_ui2d
 161              		.loc 1 63 0
 162 001c 1D4A     		ldr	r2, .L19+8
 163 001e 1368     		ldr	r3, [r2, #0]
 164 0020 0133     		adds	r3, r3, #1
 165              		.loc 1 64 0
 166 0022 2F2B     		cmp	r3, #47
ARM GAS  C:\Users\DNIEL~1\AppData\Local\Temp\ccBGxBoR.s 			page 4


 167              		.loc 1 61 0
 168 0024 C9E90001 		strd	r0, [r9]
 169              		.loc 1 63 0
 170 0028 1360     		str	r3, [r2, #0]
 171              		.loc 1 64 0
 172 002a 01DD     		ble	.L11
 173              		.loc 1 65 0
 174 002c 0023     		movs	r3, #0
 175 002e 1360     		str	r3, [r2, #0]
 176              	.L11:
 177              		.loc 1 67 0
 178 0030 194F     		ldr	r7, .L19+12
 179 0032 07EBC306 		add	r6, r7, r3, lsl #3
 180 0036 C6E90001 		strd	r0, [r6]
 181              	.LVL4:
 182              		.loc 1 57 0
 183 003a 07F5BC78 		add	r8, r7, #376
 184              		.loc 1 67 0
 185 003e A7F10806 		sub	r6, r7, #8
 186              		.loc 1 68 0
 187 0042 0024     		movs	r4, #0
 188 0044 0025     		movs	r5, #0
 189              	.LVL5:
 190              	.L12:
 191              		.loc 1 70 0 discriminator 2
 192 0046 D6E90223 		ldrd	r2, [r6, #8]
 193              		.loc 1 57 0 discriminator 2
 194 004a 06F10807 		add	r7, r6, #8
 195              		.loc 1 70 0 discriminator 2
 196 004e 2046     		mov	r0, r4
 197 0050 2946     		mov	r1, r5
 198 0052 FFF7FEFF 		bl	__aeabi_dadd
 199 0056 D7E90223 		ldrd	r2, [r7, #8]
 200 005a FFF7FEFF 		bl	__aeabi_dadd
 201              		.loc 1 57 0 discriminator 2
 202 005e 1036     		adds	r6, r6, #16
 203              		.loc 1 69 0 discriminator 2
 204 0060 4645     		cmp	r6, r8
 205              		.loc 1 70 0 discriminator 2
 206 0062 0446     		mov	r4, r0
 207 0064 0D46     		mov	r5, r1
 208              	.LVL6:
 209              		.loc 1 69 0 discriminator 2
 210 0066 EED1     		bne	.L12
 211              		.loc 1 72 0
 212 0068 0022     		movs	r2, #0
 213 006a 0C4B     		ldr	r3, .L19+16
 214 006c FFF7FEFF 		bl	__aeabi_ddiv
 215              		.loc 1 73 0
 216 0070 0024     		movs	r4, #0
 217              	.LVL7:
 218 0072 0025     		movs	r5, #0
 219 0074 2246     		mov	r2, r4
 220 0076 2B46     		mov	r3, r5
 221              		.loc 1 72 0
 222 0078 C9E90001 		strd	r0, [r9]
 223              		.loc 1 73 0
ARM GAS  C:\Users\DNIEL~1\AppData\Local\Temp\ccBGxBoR.s 			page 5


 224 007c FFF7FEFF 		bl	__aeabi_dcmplt
 225 0080 10B1     		cbz	r0, .L10
 226              		.loc 1 74 0
 227 0082 074B     		ldr	r3, .L19+20
 228 0084 C3E90045 		strd	r4, [r3]
 229              	.L10:
 230 0088 BDE8F883 		pop	{r3, r4, r5, r6, r7, r8, r9, pc}
 231              	.L20:
 232              		.align	2
 233              	.L19:
 234 008c 00000000 		.word	.LANCHOR0
 235 0090 00879303 		.word	60000000
 236 0094 00000000 		.word	.LANCHOR4
 237 0098 00000000 		.word	.LANCHOR5
 238 009c 00004840 		.word	1078460416
 239 00a0 00000000 		.word	.LANCHOR3
 240              		.cfi_endproc
 241              	.LFE121:
 242              		.size	speedCalc, .-speedCalc
 243 00a4 AFF30080 		.section	.text.speedGetLastPeriod,"ax",%progbits
 243      AFF30080 
 243      AFF30080 
 244              		.align	2
 245              		.p2align 4,,15
 246              		.global	speedGetLastPeriod
 247              		.thumb
 248              		.thumb_func
 249              		.type	speedGetLastPeriod, %function
 250              	speedGetLastPeriod:
 251              	.LFB122:
 252              		.loc 1 85 0
 253              		.cfi_startproc
 254              		@ args = 0, pretend = 0, frame = 0
 255              		@ frame_needed = 0, uses_anonymous_args = 0
 256              		@ link register save eliminated.
 257              	.LBB2:
 258              		.loc 1 88 0
 259 0000 2023     		movs	r3, #32
 260              	.LVL8:
 261              	@ 88 "src/speed.c" 1
 262 0002 83F31188 		msr     BASEPRI, r3
 263              	@ 0 "" 2
 264              	.LVL9:
 265              		.thumb
 266              	.LBE2:
 267              		.loc 1 89 0
 268 0006 034A     		ldr	r2, .L22
 269              	.LBB3:
 270              		.loc 1 90 0
 271 0008 0023     		movs	r3, #0
 272              	.LVL10:
 273              	.LBE3:
 274              		.loc 1 89 0
 275 000a 1068     		ldr	r0, [r2, #0]
 276              	.LVL11:
 277              	.LBB4:
 278              		.loc 1 90 0
ARM GAS  C:\Users\DNIEL~1\AppData\Local\Temp\ccBGxBoR.s 			page 6


 279              	@ 90 "src/speed.c" 1
 280 000c 83F31188 		msr     BASEPRI, r3
 281              	@ 0 "" 2
 282              	.LVL12:
 283              		.thumb
 284              	.LBE4:
 285              		.loc 1 92 0
 286 0010 7047     		bx	lr
 287              	.L23:
 288 0012 00BF     		.align	2
 289              	.L22:
 290 0014 00000000 		.word	.LANCHOR0
 291              		.cfi_endproc
 292              	.LFE122:
 293              		.size	speedGetLastPeriod, .-speedGetLastPeriod
 294 0018 AFF30080 		.section	.text.speedGetPeriodNumber,"ax",%progbits
 294      AFF30080 
 295              		.align	2
 296              		.p2align 4,,15
 297              		.global	speedGetPeriodNumber
 298              		.thumb
 299              		.thumb_func
 300              		.type	speedGetPeriodNumber, %function
 301              	speedGetPeriodNumber:
 302              	.LFB123:
 303              		.loc 1 94 0
 304              		.cfi_startproc
 305              		@ args = 0, pretend = 0, frame = 0
 306              		@ frame_needed = 0, uses_anonymous_args = 0
 307              		@ link register save eliminated.
 308              	.LBB5:
 309              		.loc 1 97 0
 310 0000 2023     		movs	r3, #32
 311              	.LVL13:
 312              	@ 97 "src/speed.c" 1
 313 0002 83F31188 		msr     BASEPRI, r3
 314              	@ 0 "" 2
 315              	.LVL14:
 316              		.thumb
 317              	.LBE5:
 318              		.loc 1 98 0
 319 0006 034A     		ldr	r2, .L25
 320              	.LBB6:
 321              		.loc 1 99 0
 322 0008 0023     		movs	r3, #0
 323              	.LVL15:
 324              	.LBE6:
 325              		.loc 1 98 0
 326 000a 1068     		ldr	r0, [r2, #0]
 327              	.LVL16:
 328              	.LBB7:
 329              		.loc 1 99 0
 330              	@ 99 "src/speed.c" 1
 331 000c 83F31188 		msr     BASEPRI, r3
 332              	@ 0 "" 2
 333              	.LVL17:
 334              		.thumb
ARM GAS  C:\Users\DNIEL~1\AppData\Local\Temp\ccBGxBoR.s 			page 7


 335              	.LBE7:
 336              		.loc 1 101 0
 337 0010 7047     		bx	lr
 338              	.L26:
 339 0012 00BF     		.align	2
 340              	.L25:
 341 0014 00000000 		.word	.LANCHOR1
 342              		.cfi_endproc
 343              	.LFE123:
 344              		.size	speedGetPeriodNumber, .-speedGetPeriodNumber
 345              		.global	__aeabi_d2uiz
 346 0018 AFF30080 		.section	.text.speedGetRpm,"ax",%progbits
 346      AFF30080 
 347              		.align	2
 348              		.p2align 4,,15
 349              		.global	speedGetRpm
 350              		.thumb
 351              		.thumb_func
 352              		.type	speedGetRpm, %function
 353              	speedGetRpm:
 354              	.LFB124:
 355              		.loc 1 103 0
 356              		.cfi_startproc
 357              		@ args = 0, pretend = 0, frame = 0
 358              		@ frame_needed = 0, uses_anonymous_args = 0
 359 0000 08B5     		push	{r3, lr}
 360              	.LCFI2:
 361              		.cfi_def_cfa_offset 8
 362              	.LBB8:
 363              		.loc 1 106 0
 364 0002 2023     		movs	r3, #32
 365              		.cfi_offset 14, -4
 366              		.cfi_offset 3, -8
 367              	.LVL18:
 368              	@ 106 "src/speed.c" 1
 369 0004 83F31188 		msr     BASEPRI, r3
 370              	@ 0 "" 2
 371              	.LVL19:
 372              		.thumb
 373              	.LBE8:
 374              		.loc 1 107 0
 375 0008 044B     		ldr	r3, .L28
 376              	.LVL20:
 377 000a D3E90001 		ldrd	r0, [r3]
 378 000e FFF7FEFF 		bl	__aeabi_d2uiz
 379              	.LBB9:
 380              		.loc 1 108 0
 381 0012 0023     		movs	r3, #0
 382              	.LVL21:
 383              	@ 108 "src/speed.c" 1
 384 0014 83F31188 		msr     BASEPRI, r3
 385              	@ 0 "" 2
 386              	.LVL22:
 387              		.thumb
 388              	.LBE9:
 389              		.loc 1 110 0
 390 0018 08BD     		pop	{r3, pc}
ARM GAS  C:\Users\DNIEL~1\AppData\Local\Temp\ccBGxBoR.s 			page 8


 391              	.L29:
 392 001a 00BF     		.align	2
 393              	.L28:
 394 001c 00000000 		.word	.LANCHOR3
 395              		.cfi_endproc
 396              	.LFE124:
 397              		.size	speedGetRpm, .-speedGetRpm
 398              		.section	.text.cmd_speedvalues,"ax",%progbits
 399              		.align	2
 400              		.p2align 4,,15
 401              		.global	cmd_speedvalues
 402              		.thumb
 403              		.thumb_func
 404              		.type	cmd_speedvalues, %function
 405              	cmd_speedvalues:
 406              	.LFB125:
 407              		.loc 1 112 0
 408              		.cfi_startproc
 409              		@ args = 0, pretend = 0, frame = 0
 410              		@ frame_needed = 0, uses_anonymous_args = 0
 411              	.LVL23:
 412 0000 F8B5     		push	{r3, r4, r5, r6, r7, lr}
 413              	.LCFI3:
 414              		.cfi_def_cfa_offset 24
 415              		.loc 1 116 0
 416 0002 1749     		ldr	r1, .L33
 417              	.LVL24:
 418              		.loc 1 121 0
 419 0004 174F     		ldr	r7, .L33+4
 420              		.cfi_offset 14, -4
 421              		.cfi_offset 7, -8
 422              		.cfi_offset 6, -12
 423              		.cfi_offset 5, -16
 424              		.cfi_offset 4, -20
 425              		.cfi_offset 3, -24
 426              		.loc 1 122 0
 427 0006 184E     		ldr	r6, .L33+8
 428              		.loc 1 123 0
 429 0008 184D     		ldr	r5, .L33+12
 430              		.loc 1 112 0
 431 000a 0446     		mov	r4, r0
 432              		.loc 1 116 0
 433 000c FFF7FEFF 		bl	chprintf
 434              	.LVL25:
 435              		.loc 1 117 0
 436 0010 2046     		mov	r0, r4
 437 0012 1749     		ldr	r1, .L33+16
 438 0014 FFF7FEFF 		bl	chprintf
 439              		.loc 1 118 0
 440 0018 19E0     		b	.L31
 441              	.L32:
 442              		.loc 1 119 0
 443 001a 0022     		movs	r2, #0
 444 001c 1346     		mov	r3, r2
 445 001e 1549     		ldr	r1, .L33+20
 446 0020 2046     		mov	r0, r4
 447 0022 FFF7FEFF 		bl	chprintf
ARM GAS  C:\Users\DNIEL~1\AppData\Local\Temp\ccBGxBoR.s 			page 9


 448              		.loc 1 121 0
 449 0026 2046     		mov	r0, r4
 450 0028 1349     		ldr	r1, .L33+24
 451 002a 3A68     		ldr	r2, [r7, #0]
 452 002c FFF7FEFF 		bl	chprintf
 453              		.loc 1 122 0
 454 0030 2046     		mov	r0, r4
 455 0032 1249     		ldr	r1, .L33+28
 456 0034 3268     		ldr	r2, [r6, #0]
 457 0036 FFF7FEFF 		bl	chprintf
 458              		.loc 1 123 0
 459 003a 2046     		mov	r0, r4
 460 003c 1049     		ldr	r1, .L33+32
 461 003e D5E90023 		ldrd	r2, [r5]
 462 0042 FFF7FEFF 		bl	chprintf
 463              		.loc 1 124 0
 464 0046 4FF47A70 		mov	r0, #1000
 465 004a FFF7FEFF 		bl	chThdSleep
 466              	.L31:
 467              		.loc 1 118 0 discriminator 1
 468 004e 2168     		ldr	r1, [r4, #0]
 469 0050 2046     		mov	r0, r4
 470 0052 4B69     		ldr	r3, [r1, #20]
 471 0054 0021     		movs	r1, #0
 472 0056 9847     		blx	r3
 473 0058 B0F1FF3F 		cmp	r0, #-1
 474 005c DDD0     		beq	.L32
 475              		.loc 1 126 0
 476 005e F8BD     		pop	{r3, r4, r5, r6, r7, pc}
 477              	.L34:
 478              		.align	2
 479              	.L33:
 480 0060 00000000 		.word	.LC0
 481 0064 00000000 		.word	.LANCHOR0
 482 0068 00000000 		.word	.LANCHOR1
 483 006c 00000000 		.word	.LANCHOR3
 484 0070 04000000 		.word	.LC1
 485 0074 0C000000 		.word	.LC2
 486 0078 18000000 		.word	.LC3
 487 007c 34000000 		.word	.LC4
 488 0080 4C000000 		.word	.LC5
 489              		.cfi_endproc
 490              	.LFE125:
 491              		.size	cmd_speedvalues, .-cmd_speedvalues
 492 0084 AFF30080 		.section	.bss.speed_last_period,"aw",%nobits
 492      AFF30080 
 492      AFF30080 
 493              		.align	2
 494              		.set	.LANCHOR0,. + 0
 495              		.type	speed_last_period, %object
 496              		.size	speed_last_period, 4
 497              	speed_last_period:
 498 0000 00000000 		.space	4
 499              		.section	.bss.rotation,"aw",%nobits
 500              		.align	3
 501              		.set	.LANCHOR3,. + 0
 502              		.type	rotation, %object
ARM GAS  C:\Users\DNIEL~1\AppData\Local\Temp\ccBGxBoR.s 			page 10


 503              		.size	rotation, 8
 504              	rotation:
 505 0000 00000000 		.space	8
 505      00000000 
 506              		.section	.rodata.str1.4,"aMS",%progbits,1
 507              		.align	2
 508              	.LC0:
 509 0000 1B6300   		.ascii	"\033c\000"
 510 0003 00       		.space	1
 511              	.LC1:
 512 0004 1B5B324A 		.ascii	"\033[2J\000"
 512      00
 513 0009 000000   		.space	3
 514              	.LC2:
 515 000c 1B5B2564 		.ascii	"\033[%d;%dH\000"
 515      3B256448 
 515      00
 516 0015 000000   		.space	3
 517              	.LC3:
 518 0018 73706565 		.ascii	"speed_last_period: %5d\015\012\000"
 518      645F6C61 
 518      73745F70 
 518      6572696F 
 518      643A2025 
 519 0031 000000   		.space	3
 520              	.LC4:
 521 0034 73706565 		.ascii	"speed_period_num: %5d\015\012\000"
 521      645F7065 
 521      72696F64 
 521      5F6E756D 
 521      3A202535 
 522              	.LC5:
 523 004c 72706D3A 		.ascii	"rpm: %5d\015\012\000"
 523      20253564 
 523      0D0A00
 524 0057 00       		.section	.bss.rpm_index,"aw",%nobits
 525              		.align	2
 526              		.set	.LANCHOR4,. + 0
 527              		.type	rpm_index, %object
 528              		.size	rpm_index, 4
 529              	rpm_index:
 530 0000 00000000 		.space	4
 531              		.section	.bss.rpm_buff,"aw",%nobits
 532              		.align	3
 533              		.set	.LANCHOR5,. + 0
 534              		.type	rpm_buff, %object
 535              		.size	rpm_buff, 384
 536              	rpm_buff:
 537 0000 00000000 		.space	384
 537      00000000 
 537      00000000 
 537      00000000 
 537      00000000 
 538              		.section	.bss.speed_period_num,"aw",%nobits
 539              		.align	2
 540              		.set	.LANCHOR1,. + 0
 541              		.type	speed_period_num, %object
ARM GAS  C:\Users\DNIEL~1\AppData\Local\Temp\ccBGxBoR.s 			page 11


 542              		.size	speed_period_num, 4
 543              	speed_period_num:
 544 0000 00000000 		.space	4
 545              		.section	.data.icucfg,"aw",%progbits
 546              		.align	2
 547              		.set	.LANCHOR2,. + 0
 548              		.type	icucfg, %object
 549              		.size	icucfg, 24
 550              	icucfg:
 551 0000 00       		.byte	0
 552 0001 000000   		.space	3
 553 0004 40420F00 		.word	1000000
 554 0008 00000000 		.word	speedWheelPeriodNumber
 555 000c 00000000 		.word	speedWheelPeriodCb
 556 0010 00000000 		.word	0
 557 0014 00       		.byte	0
 558 0015 000000   		.space	3
 559              		.text
 560              	.Letext0:
 561              		.section	.debug_loc,"",%progbits
 562              	.Ldebug_loc0:
 563              	.LLST0:
 564 0000 00000000 		.4byte	.LVL0
 565 0004 06000000 		.4byte	.LVL1
 566 0008 0100     		.2byte	0x1
 567 000a 50       		.byte	0x50
 568 000b 00000000 		.4byte	0x0
 569 000f 00000000 		.4byte	0x0
 570              	.LLST1:
 571 0013 00000000 		.4byte	.LVL2
 572 0017 04000000 		.4byte	.LVL3
 573 001b 0100     		.2byte	0x1
 574 001d 50       		.byte	0x50
 575 001e 00000000 		.4byte	0x0
 576 0022 00000000 		.4byte	0x0
 577              	.LLST2:
 578 0026 00000000 		.4byte	.LFB120
 579 002a 02000000 		.4byte	.LCFI0
 580 002e 0200     		.2byte	0x2
 581 0030 7D       		.byte	0x7d
 582 0031 00       		.sleb128 0
 583 0032 02000000 		.4byte	.LCFI0
 584 0036 28000000 		.4byte	.LFE120
 585 003a 0200     		.2byte	0x2
 586 003c 7D       		.byte	0x7d
 587 003d 08       		.sleb128 8
 588 003e 00000000 		.4byte	0x0
 589 0042 00000000 		.4byte	0x0
 590              	.LLST3:
 591 0046 00000000 		.4byte	.LFB121
 592 004a 04000000 		.4byte	.LCFI1
 593 004e 0200     		.2byte	0x2
 594 0050 7D       		.byte	0x7d
 595 0051 00       		.sleb128 0
 596 0052 04000000 		.4byte	.LCFI1
 597 0056 A4000000 		.4byte	.LFE121
 598 005a 0200     		.2byte	0x2
ARM GAS  C:\Users\DNIEL~1\AppData\Local\Temp\ccBGxBoR.s 			page 12


 599 005c 7D       		.byte	0x7d
 600 005d 20       		.sleb128 32
 601 005e 00000000 		.4byte	0x0
 602 0062 00000000 		.4byte	0x0
 603              	.LLST4:
 604 0066 3A000000 		.4byte	.LVL4
 605 006a 46000000 		.4byte	.LVL5
 606 006e 0200     		.2byte	0x2
 607 0070 30       		.byte	0x30
 608 0071 9F       		.byte	0x9f
 609 0072 00000000 		.4byte	0x0
 610 0076 00000000 		.4byte	0x0
 611              	.LLST5:
 612 007a 3A000000 		.4byte	.LVL4
 613 007e 46000000 		.4byte	.LVL5
 614 0082 0A00     		.2byte	0xa
 615 0084 9E       		.byte	0x9e
 616 0085 08       		.uleb128 0x8
 617 0086 00000000 		.4byte	0x0
 618 008a 00000000 		.4byte	0x0
 619 008e 66000000 		.4byte	.LVL6
 620 0092 72000000 		.4byte	.LVL7
 621 0096 0600     		.2byte	0x6
 622 0098 54       		.byte	0x54
 623 0099 93       		.byte	0x93
 624 009a 04       		.uleb128 0x4
 625 009b 55       		.byte	0x55
 626 009c 93       		.byte	0x93
 627 009d 04       		.uleb128 0x4
 628 009e 00000000 		.4byte	0x0
 629 00a2 00000000 		.4byte	0x0
 630              	.LLST6:
 631 00a6 06000000 		.4byte	.LVL9
 632 00aa 0A000000 		.4byte	.LVL10
 633 00ae 0100     		.2byte	0x1
 634 00b0 53       		.byte	0x53
 635 00b1 00000000 		.4byte	0x0
 636 00b5 00000000 		.4byte	0x0
 637              	.LLST7:
 638 00b9 10000000 		.4byte	.LVL12
 639 00bd 18000000 		.4byte	.LFE122
 640 00c1 0100     		.2byte	0x1
 641 00c3 53       		.byte	0x53
 642 00c4 00000000 		.4byte	0x0
 643 00c8 00000000 		.4byte	0x0
 644              	.LLST8:
 645 00cc 06000000 		.4byte	.LVL14
 646 00d0 0A000000 		.4byte	.LVL15
 647 00d4 0100     		.2byte	0x1
 648 00d6 53       		.byte	0x53
 649 00d7 00000000 		.4byte	0x0
 650 00db 00000000 		.4byte	0x0
 651              	.LLST9:
 652 00df 10000000 		.4byte	.LVL17
 653 00e3 18000000 		.4byte	.LFE123
 654 00e7 0100     		.2byte	0x1
 655 00e9 53       		.byte	0x53
ARM GAS  C:\Users\DNIEL~1\AppData\Local\Temp\ccBGxBoR.s 			page 13


 656 00ea 00000000 		.4byte	0x0
 657 00ee 00000000 		.4byte	0x0
 658              	.LLST10:
 659 00f2 00000000 		.4byte	.LFB124
 660 00f6 02000000 		.4byte	.LCFI2
 661 00fa 0200     		.2byte	0x2
 662 00fc 7D       		.byte	0x7d
 663 00fd 00       		.sleb128 0
 664 00fe 02000000 		.4byte	.LCFI2
 665 0102 20000000 		.4byte	.LFE124
 666 0106 0200     		.2byte	0x2
 667 0108 7D       		.byte	0x7d
 668 0109 08       		.sleb128 8
 669 010a 00000000 		.4byte	0x0
 670 010e 00000000 		.4byte	0x0
 671              	.LLST11:
 672 0112 08000000 		.4byte	.LVL19
 673 0116 0A000000 		.4byte	.LVL20
 674 011a 0100     		.2byte	0x1
 675 011c 53       		.byte	0x53
 676 011d 00000000 		.4byte	0x0
 677 0121 00000000 		.4byte	0x0
 678              	.LLST12:
 679 0125 18000000 		.4byte	.LVL22
 680 0129 20000000 		.4byte	.LFE124
 681 012d 0100     		.2byte	0x1
 682 012f 53       		.byte	0x53
 683 0130 00000000 		.4byte	0x0
 684 0134 00000000 		.4byte	0x0
 685              	.LLST13:
 686 0138 00000000 		.4byte	.LFB125
 687 013c 02000000 		.4byte	.LCFI3
 688 0140 0200     		.2byte	0x2
 689 0142 7D       		.byte	0x7d
 690 0143 00       		.sleb128 0
 691 0144 02000000 		.4byte	.LCFI3
 692 0148 84000000 		.4byte	.LFE125
 693 014c 0200     		.2byte	0x2
 694 014e 7D       		.byte	0x7d
 695 014f 18       		.sleb128 24
 696 0150 00000000 		.4byte	0x0
 697 0154 00000000 		.4byte	0x0
 698              	.LLST14:
 699 0158 00000000 		.4byte	.LVL23
 700 015c 0F000000 		.4byte	.LVL25-1
 701 0160 0100     		.2byte	0x1
 702 0162 50       		.byte	0x50
 703 0163 0F000000 		.4byte	.LVL25-1
 704 0167 84000000 		.4byte	.LFE125
 705 016b 0100     		.2byte	0x1
 706 016d 54       		.byte	0x54
 707 016e 00000000 		.4byte	0x0
 708 0172 00000000 		.4byte	0x0
 709              	.LLST15:
 710 0176 00000000 		.4byte	.LVL23
 711 017a 04000000 		.4byte	.LVL24
 712 017e 0100     		.2byte	0x1
ARM GAS  C:\Users\DNIEL~1\AppData\Local\Temp\ccBGxBoR.s 			page 14


 713 0180 51       		.byte	0x51
 714 0181 00000000 		.4byte	0x0
 715 0185 00000000 		.4byte	0x0
 716              	.LLST16:
 717 0189 00000000 		.4byte	.LVL23
 718 018d 0F000000 		.4byte	.LVL25-1
 719 0191 0100     		.2byte	0x1
 720 0193 52       		.byte	0x52
 721 0194 00000000 		.4byte	0x0
 722 0198 00000000 		.4byte	0x0
 723              		.file 2 "c:\\program files (x86)\\codesourcery\\sourcery g++ lite\\bin\\../lib/gcc/arm-none-eabi/4
 724              		.file 3 "c:\\program files (x86)\\codesourcery\\sourcery g++ lite\\bin\\../lib/gcc/arm-none-eabi/4
 725              		.file 4 "../../../ChibiOS/os/ports/GCC/ARMCMx/chtypes.h"
 726              		.file 5 "../../../ChibiOS/os/kernel/include/chstreams.h"
 727              		.file 6 "../../../ChibiOS/os/hal/platforms/STM32/stm32.h"
 728              		.file 7 "../../../ChibiOS/os/hal/include/io_channel.h"
 729              		.file 8 "../../../ChibiOS/os/hal/include/icu.h"
 730              		.file 9 "../../../ChibiOS/os/hal/platforms/STM32/icu_lld.h"
 731              		.file 10 "../../../ChibiOS/os/ports/common/ARMCMx/CMSIS/include/core_cm4.h"
 732              		.section	.debug_info
 733 0000 4B090000 		.4byte	0x94b
 734 0004 0200     		.2byte	0x2
 735 0006 00000000 		.4byte	.Ldebug_abbrev0
 736 000a 04       		.byte	0x4
 737 000b 01       		.uleb128 0x1
 738 000c 54030000 		.4byte	.LASF99
 739 0010 01       		.byte	0x1
 740 0011 7E030000 		.4byte	.LASF100
 741 0015 8A030000 		.4byte	.LASF101
 742 0019 00000000 		.4byte	0x0
 743 001d 00000000 		.4byte	0x0
 744 0021 30000000 		.4byte	.Ldebug_ranges0+0x30
 745 0025 00000000 		.4byte	.Ldebug_line0
 746 0029 02       		.uleb128 0x2
 747 002a 04       		.byte	0x4
 748 002b 05       		.byte	0x5
 749 002c 696E7400 		.ascii	"int\000"
 750 0030 03       		.uleb128 0x3
 751 0031 63000000 		.4byte	.LASF2
 752 0035 02       		.byte	0x2
 753 0036 D3       		.byte	0xd3
 754 0037 3B000000 		.4byte	0x3b
 755 003b 04       		.uleb128 0x4
 756 003c 04       		.byte	0x4
 757 003d 07       		.byte	0x7
 758 003e 3F020000 		.4byte	.LASF0
 759 0042 04       		.uleb128 0x4
 760 0043 01       		.byte	0x1
 761 0044 06       		.byte	0x6
 762 0045 FE010000 		.4byte	.LASF1
 763 0049 03       		.uleb128 0x3
 764 004a EC000000 		.4byte	.LASF3
 765 004e 03       		.byte	0x3
 766 004f 2A       		.byte	0x2a
 767 0050 54000000 		.4byte	0x54
 768 0054 04       		.uleb128 0x4
 769 0055 01       		.byte	0x1
ARM GAS  C:\Users\DNIEL~1\AppData\Local\Temp\ccBGxBoR.s 			page 15


 770 0056 08       		.byte	0x8
 771 0057 CD010000 		.4byte	.LASF4
 772 005b 04       		.uleb128 0x4
 773 005c 02       		.byte	0x2
 774 005d 05       		.byte	0x5
 775 005e 59000000 		.4byte	.LASF5
 776 0062 03       		.uleb128 0x3
 777 0063 4C020000 		.4byte	.LASF6
 778 0067 03       		.byte	0x3
 779 0068 36       		.byte	0x36
 780 0069 6D000000 		.4byte	0x6d
 781 006d 04       		.uleb128 0x4
 782 006e 02       		.byte	0x2
 783 006f 07       		.byte	0x7
 784 0070 84020000 		.4byte	.LASF7
 785 0074 03       		.uleb128 0x3
 786 0075 D5020000 		.4byte	.LASF8
 787 0079 03       		.byte	0x3
 788 007a 4F       		.byte	0x4f
 789 007b 7F000000 		.4byte	0x7f
 790 007f 04       		.uleb128 0x4
 791 0080 04       		.byte	0x4
 792 0081 05       		.byte	0x5
 793 0082 86010000 		.4byte	.LASF9
 794 0086 03       		.uleb128 0x3
 795 0087 36020000 		.4byte	.LASF10
 796 008b 03       		.byte	0x3
 797 008c 50       		.byte	0x50
 798 008d 91000000 		.4byte	0x91
 799 0091 04       		.uleb128 0x4
 800 0092 04       		.byte	0x4
 801 0093 07       		.byte	0x7
 802 0094 20030000 		.4byte	.LASF11
 803 0098 04       		.uleb128 0x4
 804 0099 08       		.byte	0x8
 805 009a 05       		.byte	0x5
 806 009b 6D010000 		.4byte	.LASF12
 807 009f 04       		.uleb128 0x4
 808 00a0 08       		.byte	0x8
 809 00a1 07       		.byte	0x7
 810 00a2 1F020000 		.4byte	.LASF13
 811 00a6 03       		.uleb128 0x3
 812 00a7 32040000 		.4byte	.LASF14
 813 00ab 04       		.byte	0x4
 814 00ac 2D       		.byte	0x2d
 815 00ad 74000000 		.4byte	0x74
 816 00b1 03       		.uleb128 0x3
 817 00b2 97020000 		.4byte	.LASF15
 818 00b6 04       		.byte	0x4
 819 00b7 31       		.byte	0x31
 820 00b8 86000000 		.4byte	0x86
 821 00bc 05       		.uleb128 0x5
 822 00bd 04       		.byte	0x4
 823 00be 06       		.uleb128 0x6
 824 00bf 86000000 		.4byte	0x86
 825 00c3 04       		.uleb128 0x4
 826 00c4 01       		.byte	0x1
ARM GAS  C:\Users\DNIEL~1\AppData\Local\Temp\ccBGxBoR.s 			page 16


 827 00c5 08       		.byte	0x8
 828 00c6 A7020000 		.4byte	.LASF16
 829 00ca 07       		.uleb128 0x7
 830 00cb 04       		.byte	0x4
 831 00cc D0000000 		.4byte	0xd0
 832 00d0 08       		.uleb128 0x8
 833 00d1 01       		.byte	0x1
 834 00d2 A6000000 		.4byte	0xa6
 835 00d6 E0000000 		.4byte	0xe0
 836 00da 09       		.uleb128 0x9
 837 00db BC000000 		.4byte	0xbc
 838 00df 00       		.byte	0x0
 839 00e0 07       		.uleb128 0x7
 840 00e1 04       		.byte	0x4
 841 00e2 49000000 		.4byte	0x49
 842 00e6 0A       		.uleb128 0xa
 843 00e7 43040000 		.4byte	.LASF43
 844 00eb 10       		.byte	0x10
 845 00ec 05       		.byte	0x5
 846 00ed 41       		.byte	0x41
 847 00ee 2B010000 		.4byte	0x12b
 848 00f2 0B       		.uleb128 0xb
 849 00f3 15000000 		.4byte	.LASF17
 850 00f7 05       		.byte	0x5
 851 00f8 42       		.byte	0x42
 852 00f9 50010000 		.4byte	0x150
 853 00fd 02       		.byte	0x2
 854 00fe 23       		.byte	0x23
 855 00ff 00       		.uleb128 0x0
 856 0100 0B       		.uleb128 0xb
 857 0101 68010000 		.4byte	.LASF18
 858 0105 05       		.byte	0x5
 859 0106 42       		.byte	0x42
 860 0107 70010000 		.4byte	0x170
 861 010b 02       		.byte	0x2
 862 010c 23       		.byte	0x23
 863 010d 04       		.uleb128 0x4
 864 010e 0C       		.uleb128 0xc
 865 010f 70757400 		.ascii	"put\000"
 866 0113 05       		.byte	0x5
 867 0114 42       		.byte	0x42
 868 0115 8B010000 		.4byte	0x18b
 869 0119 02       		.byte	0x2
 870 011a 23       		.byte	0x23
 871 011b 08       		.uleb128 0x8
 872 011c 0C       		.uleb128 0xc
 873 011d 67657400 		.ascii	"get\000"
 874 0121 05       		.byte	0x5
 875 0122 42       		.byte	0x42
 876 0123 CA000000 		.4byte	0xca
 877 0127 02       		.byte	0x2
 878 0128 23       		.byte	0x23
 879 0129 0C       		.uleb128 0xc
 880 012a 00       		.byte	0x0
 881 012b 08       		.uleb128 0x8
 882 012c 01       		.byte	0x1
 883 012d 30000000 		.4byte	0x30
ARM GAS  C:\Users\DNIEL~1\AppData\Local\Temp\ccBGxBoR.s 			page 17


 884 0131 45010000 		.4byte	0x145
 885 0135 09       		.uleb128 0x9
 886 0136 BC000000 		.4byte	0xbc
 887 013a 09       		.uleb128 0x9
 888 013b 45010000 		.4byte	0x145
 889 013f 09       		.uleb128 0x9
 890 0140 30000000 		.4byte	0x30
 891 0144 00       		.byte	0x0
 892 0145 07       		.uleb128 0x7
 893 0146 04       		.byte	0x4
 894 0147 4B010000 		.4byte	0x14b
 895 014b 0D       		.uleb128 0xd
 896 014c 49000000 		.4byte	0x49
 897 0150 07       		.uleb128 0x7
 898 0151 04       		.byte	0x4
 899 0152 2B010000 		.4byte	0x12b
 900 0156 08       		.uleb128 0x8
 901 0157 01       		.byte	0x1
 902 0158 30000000 		.4byte	0x30
 903 015c 70010000 		.4byte	0x170
 904 0160 09       		.uleb128 0x9
 905 0161 BC000000 		.4byte	0xbc
 906 0165 09       		.uleb128 0x9
 907 0166 E0000000 		.4byte	0xe0
 908 016a 09       		.uleb128 0x9
 909 016b 30000000 		.4byte	0x30
 910 016f 00       		.byte	0x0
 911 0170 07       		.uleb128 0x7
 912 0171 04       		.byte	0x4
 913 0172 56010000 		.4byte	0x156
 914 0176 08       		.uleb128 0x8
 915 0177 01       		.byte	0x1
 916 0178 A6000000 		.4byte	0xa6
 917 017c 8B010000 		.4byte	0x18b
 918 0180 09       		.uleb128 0x9
 919 0181 BC000000 		.4byte	0xbc
 920 0185 09       		.uleb128 0x9
 921 0186 49000000 		.4byte	0x49
 922 018a 00       		.byte	0x0
 923 018b 07       		.uleb128 0x7
 924 018c 04       		.byte	0x4
 925 018d 76010000 		.4byte	0x176
 926 0191 0E       		.uleb128 0xe
 927 0192 04       		.byte	0x4
 928 0193 05       		.byte	0x5
 929 0194 4A       		.byte	0x4a
 930 0195 A8010000 		.4byte	0x1a8
 931 0199 0C       		.uleb128 0xc
 932 019a 766D7400 		.ascii	"vmt\000"
 933 019e 05       		.byte	0x5
 934 019f 4C       		.byte	0x4c
 935 01a0 A8010000 		.4byte	0x1a8
 936 01a4 02       		.byte	0x2
 937 01a5 23       		.byte	0x23
 938 01a6 00       		.uleb128 0x0
 939 01a7 00       		.byte	0x0
 940 01a8 07       		.uleb128 0x7
ARM GAS  C:\Users\DNIEL~1\AppData\Local\Temp\ccBGxBoR.s 			page 18


 941 01a9 04       		.byte	0x4
 942 01aa AE010000 		.4byte	0x1ae
 943 01ae 0D       		.uleb128 0xd
 944 01af E6000000 		.4byte	0xe6
 945 01b3 03       		.uleb128 0x3
 946 01b4 8F000000 		.4byte	.LASF19
 947 01b8 05       		.byte	0x5
 948 01b9 4E       		.byte	0x4e
 949 01ba 91010000 		.4byte	0x191
 950 01be 0F       		.uleb128 0xf
 951 01bf 86000000 		.4byte	0x86
 952 01c3 CE010000 		.4byte	0x1ce
 953 01c7 10       		.uleb128 0x10
 954 01c8 3B000000 		.4byte	0x3b
 955 01cc 03       		.byte	0x3
 956 01cd 00       		.byte	0x0
 957 01ce 06       		.uleb128 0x6
 958 01cf 62000000 		.4byte	0x62
 959 01d3 06       		.uleb128 0x6
 960 01d4 74000000 		.4byte	0x74
 961 01d8 0E       		.uleb128 0xe
 962 01d9 54       		.byte	0x54
 963 01da 06       		.byte	0x6
 964 01db 60       		.byte	0x60
 965 01dc AD030000 		.4byte	0x3ad
 966 01e0 0C       		.uleb128 0xc
 967 01e1 43523100 		.ascii	"CR1\000"
 968 01e5 06       		.byte	0x6
 969 01e6 61       		.byte	0x61
 970 01e7 CE010000 		.4byte	0x1ce
 971 01eb 02       		.byte	0x2
 972 01ec 23       		.byte	0x23
 973 01ed 00       		.uleb128 0x0
 974 01ee 0B       		.uleb128 0xb
 975 01ef 1A040000 		.4byte	.LASF20
 976 01f3 06       		.byte	0x6
 977 01f4 62       		.byte	0x62
 978 01f5 62000000 		.4byte	0x62
 979 01f9 02       		.byte	0x2
 980 01fa 23       		.byte	0x23
 981 01fb 02       		.uleb128 0x2
 982 01fc 0C       		.uleb128 0xc
 983 01fd 43523200 		.ascii	"CR2\000"
 984 0201 06       		.byte	0x6
 985 0202 63       		.byte	0x63
 986 0203 CE010000 		.4byte	0x1ce
 987 0207 02       		.byte	0x2
 988 0208 23       		.byte	0x23
 989 0209 04       		.uleb128 0x4
 990 020a 0B       		.uleb128 0xb
 991 020b 22040000 		.4byte	.LASF21
 992 020f 06       		.byte	0x6
 993 0210 64       		.byte	0x64
 994 0211 62000000 		.4byte	0x62
 995 0215 02       		.byte	0x2
 996 0216 23       		.byte	0x23
 997 0217 06       		.uleb128 0x6
ARM GAS  C:\Users\DNIEL~1\AppData\Local\Temp\ccBGxBoR.s 			page 19


 998 0218 0B       		.uleb128 0xb
 999 0219 C8010000 		.4byte	.LASF22
 1000 021d 06       		.byte	0x6
 1001 021e 65       		.byte	0x65
 1002 021f CE010000 		.4byte	0x1ce
 1003 0223 02       		.byte	0x2
 1004 0224 23       		.byte	0x23
 1005 0225 08       		.uleb128 0x8
 1006 0226 0B       		.uleb128 0xb
 1007 0227 2A040000 		.4byte	.LASF23
 1008 022b 06       		.byte	0x6
 1009 022c 66       		.byte	0x66
 1010 022d 62000000 		.4byte	0x62
 1011 0231 02       		.byte	0x2
 1012 0232 23       		.byte	0x23
 1013 0233 0A       		.uleb128 0xa
 1014 0234 0B       		.uleb128 0xb
 1015 0235 63020000 		.4byte	.LASF24
 1016 0239 06       		.byte	0x6
 1017 023a 67       		.byte	0x67
 1018 023b CE010000 		.4byte	0x1ce
 1019 023f 02       		.byte	0x2
 1020 0240 23       		.byte	0x23
 1021 0241 0C       		.uleb128 0xc
 1022 0242 0B       		.uleb128 0xb
 1023 0243 FD000000 		.4byte	.LASF25
 1024 0247 06       		.byte	0x6
 1025 0248 68       		.byte	0x68
 1026 0249 62000000 		.4byte	0x62
 1027 024d 02       		.byte	0x2
 1028 024e 23       		.byte	0x23
 1029 024f 0E       		.uleb128 0xe
 1030 0250 0C       		.uleb128 0xc
 1031 0251 535200   		.ascii	"SR\000"
 1032 0254 06       		.byte	0x6
 1033 0255 69       		.byte	0x69
 1034 0256 CE010000 		.4byte	0x1ce
 1035 025a 02       		.byte	0x2
 1036 025b 23       		.byte	0x23
 1037 025c 10       		.uleb128 0x10
 1038 025d 0B       		.uleb128 0xb
 1039 025e 05010000 		.4byte	.LASF26
 1040 0262 06       		.byte	0x6
 1041 0263 6A       		.byte	0x6a
 1042 0264 62000000 		.4byte	0x62
 1043 0268 02       		.byte	0x2
 1044 0269 23       		.byte	0x23
 1045 026a 12       		.uleb128 0x12
 1046 026b 0C       		.uleb128 0xc
 1047 026c 45475200 		.ascii	"EGR\000"
 1048 0270 06       		.byte	0x6
 1049 0271 6B       		.byte	0x6b
 1050 0272 CE010000 		.4byte	0x1ce
 1051 0276 02       		.byte	0x2
 1052 0277 23       		.byte	0x23
 1053 0278 14       		.uleb128 0x14
 1054 0279 0B       		.uleb128 0xb
ARM GAS  C:\Users\DNIEL~1\AppData\Local\Temp\ccBGxBoR.s 			page 20


 1055 027a 0D010000 		.4byte	.LASF27
 1056 027e 06       		.byte	0x6
 1057 027f 6C       		.byte	0x6c
 1058 0280 62000000 		.4byte	0x62
 1059 0284 02       		.byte	0x2
 1060 0285 23       		.byte	0x23
 1061 0286 16       		.uleb128 0x16
 1062 0287 0B       		.uleb128 0xb
 1063 0288 9A010000 		.4byte	.LASF28
 1064 028c 06       		.byte	0x6
 1065 028d 6D       		.byte	0x6d
 1066 028e CE010000 		.4byte	0x1ce
 1067 0292 02       		.byte	0x2
 1068 0293 23       		.byte	0x23
 1069 0294 18       		.uleb128 0x18
 1070 0295 0B       		.uleb128 0xb
 1071 0296 15010000 		.4byte	.LASF29
 1072 029a 06       		.byte	0x6
 1073 029b 6E       		.byte	0x6e
 1074 029c 62000000 		.4byte	0x62
 1075 02a0 02       		.byte	0x2
 1076 02a1 23       		.byte	0x23
 1077 02a2 1A       		.uleb128 0x1a
 1078 02a3 0B       		.uleb128 0xb
 1079 02a4 53000000 		.4byte	.LASF30
 1080 02a8 06       		.byte	0x6
 1081 02a9 6F       		.byte	0x6f
 1082 02aa CE010000 		.4byte	0x1ce
 1083 02ae 02       		.byte	0x2
 1084 02af 23       		.byte	0x23
 1085 02b0 1C       		.uleb128 0x1c
 1086 02b1 0B       		.uleb128 0xb
 1087 02b2 1D010000 		.4byte	.LASF31
 1088 02b6 06       		.byte	0x6
 1089 02b7 70       		.byte	0x70
 1090 02b8 62000000 		.4byte	0x62
 1091 02bc 02       		.byte	0x2
 1092 02bd 23       		.byte	0x23
 1093 02be 1E       		.uleb128 0x1e
 1094 02bf 0B       		.uleb128 0xb
 1095 02c0 10000000 		.4byte	.LASF32
 1096 02c4 06       		.byte	0x6
 1097 02c5 71       		.byte	0x71
 1098 02c6 CE010000 		.4byte	0x1ce
 1099 02ca 02       		.byte	0x2
 1100 02cb 23       		.byte	0x23
 1101 02cc 20       		.uleb128 0x20
 1102 02cd 0B       		.uleb128 0xb
 1103 02ce 00000000 		.4byte	.LASF33
 1104 02d2 06       		.byte	0x6
 1105 02d3 72       		.byte	0x72
 1106 02d4 62000000 		.4byte	0x62
 1107 02d8 02       		.byte	0x2
 1108 02d9 23       		.byte	0x23
 1109 02da 22       		.uleb128 0x22
 1110 02db 0C       		.uleb128 0xc
 1111 02dc 434E5400 		.ascii	"CNT\000"
ARM GAS  C:\Users\DNIEL~1\AppData\Local\Temp\ccBGxBoR.s 			page 21


 1112 02e0 06       		.byte	0x6
 1113 02e1 73       		.byte	0x73
 1114 02e2 BE000000 		.4byte	0xbe
 1115 02e6 02       		.byte	0x2
 1116 02e7 23       		.byte	0x23
 1117 02e8 24       		.uleb128 0x24
 1118 02e9 0C       		.uleb128 0xc
 1119 02ea 50534300 		.ascii	"PSC\000"
 1120 02ee 06       		.byte	0x6
 1121 02ef 74       		.byte	0x74
 1122 02f0 CE010000 		.4byte	0x1ce
 1123 02f4 02       		.byte	0x2
 1124 02f5 23       		.byte	0x23
 1125 02f6 28       		.uleb128 0x28
 1126 02f7 0B       		.uleb128 0xb
 1127 02f8 08000000 		.4byte	.LASF34
 1128 02fc 06       		.byte	0x6
 1129 02fd 75       		.byte	0x75
 1130 02fe 62000000 		.4byte	0x62
 1131 0302 02       		.byte	0x2
 1132 0303 23       		.byte	0x23
 1133 0304 2A       		.uleb128 0x2a
 1134 0305 0C       		.uleb128 0xc
 1135 0306 41525200 		.ascii	"ARR\000"
 1136 030a 06       		.byte	0x6
 1137 030b 76       		.byte	0x76
 1138 030c BE000000 		.4byte	0xbe
 1139 0310 02       		.byte	0x2
 1140 0311 23       		.byte	0x23
 1141 0312 2C       		.uleb128 0x2c
 1142 0313 0C       		.uleb128 0xc
 1143 0314 52435200 		.ascii	"RCR\000"
 1144 0318 06       		.byte	0x6
 1145 0319 77       		.byte	0x77
 1146 031a CE010000 		.4byte	0x1ce
 1147 031e 02       		.byte	0x2
 1148 031f 23       		.byte	0x23
 1149 0320 30       		.uleb128 0x30
 1150 0321 0B       		.uleb128 0xb
 1151 0322 60030000 		.4byte	.LASF35
 1152 0326 06       		.byte	0x6
 1153 0327 78       		.byte	0x78
 1154 0328 62000000 		.4byte	0x62
 1155 032c 02       		.byte	0x2
 1156 032d 23       		.byte	0x23
 1157 032e 32       		.uleb128 0x32
 1158 032f 0C       		.uleb128 0xc
 1159 0330 43435200 		.ascii	"CCR\000"
 1160 0334 06       		.byte	0x6
 1161 0335 79       		.byte	0x79
 1162 0336 AD030000 		.4byte	0x3ad
 1163 033a 02       		.byte	0x2
 1164 033b 23       		.byte	0x23
 1165 033c 34       		.uleb128 0x34
 1166 033d 0B       		.uleb128 0xb
 1167 033e D0020000 		.4byte	.LASF36
 1168 0342 06       		.byte	0x6
ARM GAS  C:\Users\DNIEL~1\AppData\Local\Temp\ccBGxBoR.s 			page 22


 1169 0343 7A       		.byte	0x7a
 1170 0344 CE010000 		.4byte	0x1ce
 1171 0348 02       		.byte	0x2
 1172 0349 23       		.byte	0x23
 1173 034a 44       		.uleb128 0x44
 1174 034b 0B       		.uleb128 0xb
 1175 034c F4000000 		.4byte	.LASF37
 1176 0350 06       		.byte	0x6
 1177 0351 7B       		.byte	0x7b
 1178 0352 62000000 		.4byte	0x62
 1179 0356 02       		.byte	0x2
 1180 0357 23       		.byte	0x23
 1181 0358 46       		.uleb128 0x46
 1182 0359 0C       		.uleb128 0xc
 1183 035a 44435200 		.ascii	"DCR\000"
 1184 035e 06       		.byte	0x6
 1185 035f 7C       		.byte	0x7c
 1186 0360 CE010000 		.4byte	0x1ce
 1187 0364 02       		.byte	0x2
 1188 0365 23       		.byte	0x23
 1189 0366 48       		.uleb128 0x48
 1190 0367 0B       		.uleb128 0xb
 1191 0368 75030000 		.4byte	.LASF38
 1192 036c 06       		.byte	0x6
 1193 036d 7D       		.byte	0x7d
 1194 036e 62000000 		.4byte	0x62
 1195 0372 02       		.byte	0x2
 1196 0373 23       		.byte	0x23
 1197 0374 4A       		.uleb128 0x4a
 1198 0375 0B       		.uleb128 0xb
 1199 0376 31000000 		.4byte	.LASF39
 1200 037a 06       		.byte	0x6
 1201 037b 7E       		.byte	0x7e
 1202 037c CE010000 		.4byte	0x1ce
 1203 0380 02       		.byte	0x2
 1204 0381 23       		.byte	0x23
 1205 0382 4C       		.uleb128 0x4c
 1206 0383 0B       		.uleb128 0xb
 1207 0384 72020000 		.4byte	.LASF40
 1208 0388 06       		.byte	0x6
 1209 0389 7F       		.byte	0x7f
 1210 038a 62000000 		.4byte	0x62
 1211 038e 02       		.byte	0x2
 1212 038f 23       		.byte	0x23
 1213 0390 4E       		.uleb128 0x4e
 1214 0391 0C       		.uleb128 0xc
 1215 0392 4F5200   		.ascii	"OR\000"
 1216 0395 06       		.byte	0x6
 1217 0396 80       		.byte	0x80
 1218 0397 CE010000 		.4byte	0x1ce
 1219 039b 02       		.byte	0x2
 1220 039c 23       		.byte	0x23
 1221 039d 50       		.uleb128 0x50
 1222 039e 0B       		.uleb128 0xb
 1223 039f 7B020000 		.4byte	.LASF41
 1224 03a3 06       		.byte	0x6
 1225 03a4 81       		.byte	0x81
ARM GAS  C:\Users\DNIEL~1\AppData\Local\Temp\ccBGxBoR.s 			page 23


 1226 03a5 62000000 		.4byte	0x62
 1227 03a9 02       		.byte	0x2
 1228 03aa 23       		.byte	0x23
 1229 03ab 52       		.uleb128 0x52
 1230 03ac 00       		.byte	0x0
 1231 03ad 06       		.uleb128 0x6
 1232 03ae BE010000 		.4byte	0x1be
 1233 03b2 03       		.uleb128 0x3
 1234 03b3 BA020000 		.4byte	.LASF42
 1235 03b7 06       		.byte	0x6
 1236 03b8 82       		.byte	0x82
 1237 03b9 D8010000 		.4byte	0x1d8
 1238 03bd 07       		.uleb128 0x7
 1239 03be 04       		.byte	0x4
 1240 03bf BE000000 		.4byte	0xbe
 1241 03c3 0A       		.uleb128 0xa
 1242 03c4 41010000 		.4byte	.LASF44
 1243 03c8 20       		.byte	0x20
 1244 03c9 07       		.byte	0x7
 1245 03ca 46       		.byte	0x46
 1246 03cb 40040000 		.4byte	0x440
 1247 03cf 0B       		.uleb128 0xb
 1248 03d0 15000000 		.4byte	.LASF17
 1249 03d4 07       		.byte	0x7
 1250 03d5 47       		.byte	0x47
 1251 03d6 50010000 		.4byte	0x150
 1252 03da 02       		.byte	0x2
 1253 03db 23       		.byte	0x23
 1254 03dc 00       		.uleb128 0x0
 1255 03dd 0B       		.uleb128 0xb
 1256 03de 68010000 		.4byte	.LASF18
 1257 03e2 07       		.byte	0x7
 1258 03e3 47       		.byte	0x47
 1259 03e4 70010000 		.4byte	0x170
 1260 03e8 02       		.byte	0x2
 1261 03e9 23       		.byte	0x23
 1262 03ea 04       		.uleb128 0x4
 1263 03eb 0C       		.uleb128 0xc
 1264 03ec 70757400 		.ascii	"put\000"
 1265 03f0 07       		.byte	0x7
 1266 03f1 47       		.byte	0x47
 1267 03f2 8B010000 		.4byte	0x18b
 1268 03f6 02       		.byte	0x2
 1269 03f7 23       		.byte	0x23
 1270 03f8 08       		.uleb128 0x8
 1271 03f9 0C       		.uleb128 0xc
 1272 03fa 67657400 		.ascii	"get\000"
 1273 03fe 07       		.byte	0x7
 1274 03ff 47       		.byte	0x47
 1275 0400 CA000000 		.4byte	0xca
 1276 0404 02       		.byte	0x2
 1277 0405 23       		.byte	0x23
 1278 0406 0C       		.uleb128 0xc
 1279 0407 0B       		.uleb128 0xb
 1280 0408 5E020000 		.4byte	.LASF45
 1281 040c 07       		.byte	0x7
 1282 040d 47       		.byte	0x47
ARM GAS  C:\Users\DNIEL~1\AppData\Local\Temp\ccBGxBoR.s 			page 24


 1283 040e 5A040000 		.4byte	0x45a
 1284 0412 02       		.byte	0x2
 1285 0413 23       		.byte	0x23
 1286 0414 10       		.uleb128 0x10
 1287 0415 0B       		.uleb128 0xb
 1288 0416 8F010000 		.4byte	.LASF46
 1289 041a 07       		.byte	0x7
 1290 041b 47       		.byte	0x47
 1291 041c 75040000 		.4byte	0x475
 1292 0420 02       		.byte	0x2
 1293 0421 23       		.byte	0x23
 1294 0422 14       		.uleb128 0x14
 1295 0423 0B       		.uleb128 0xb
 1296 0424 B2000000 		.4byte	.LASF47
 1297 0428 07       		.byte	0x7
 1298 0429 47       		.byte	0x47
 1299 042a 9A040000 		.4byte	0x49a
 1300 042e 02       		.byte	0x2
 1301 042f 23       		.byte	0x23
 1302 0430 18       		.uleb128 0x18
 1303 0431 0B       		.uleb128 0xb
 1304 0432 A1020000 		.4byte	.LASF48
 1305 0436 07       		.byte	0x7
 1306 0437 47       		.byte	0x47
 1307 0438 BF040000 		.4byte	0x4bf
 1308 043c 02       		.byte	0x2
 1309 043d 23       		.byte	0x23
 1310 043e 1C       		.uleb128 0x1c
 1311 043f 00       		.byte	0x0
 1312 0440 08       		.uleb128 0x8
 1313 0441 01       		.byte	0x1
 1314 0442 A6000000 		.4byte	0xa6
 1315 0446 5A040000 		.4byte	0x45a
 1316 044a 09       		.uleb128 0x9
 1317 044b BC000000 		.4byte	0xbc
 1318 044f 09       		.uleb128 0x9
 1319 0450 49000000 		.4byte	0x49
 1320 0454 09       		.uleb128 0x9
 1321 0455 B1000000 		.4byte	0xb1
 1322 0459 00       		.byte	0x0
 1323 045a 07       		.uleb128 0x7
 1324 045b 04       		.byte	0x4
 1325 045c 40040000 		.4byte	0x440
 1326 0460 08       		.uleb128 0x8
 1327 0461 01       		.byte	0x1
 1328 0462 A6000000 		.4byte	0xa6
 1329 0466 75040000 		.4byte	0x475
 1330 046a 09       		.uleb128 0x9
 1331 046b BC000000 		.4byte	0xbc
 1332 046f 09       		.uleb128 0x9
 1333 0470 B1000000 		.4byte	0xb1
 1334 0474 00       		.byte	0x0
 1335 0475 07       		.uleb128 0x7
 1336 0476 04       		.byte	0x4
 1337 0477 60040000 		.4byte	0x460
 1338 047b 08       		.uleb128 0x8
 1339 047c 01       		.byte	0x1
ARM GAS  C:\Users\DNIEL~1\AppData\Local\Temp\ccBGxBoR.s 			page 25


 1340 047d 30000000 		.4byte	0x30
 1341 0481 9A040000 		.4byte	0x49a
 1342 0485 09       		.uleb128 0x9
 1343 0486 BC000000 		.4byte	0xbc
 1344 048a 09       		.uleb128 0x9
 1345 048b 45010000 		.4byte	0x145
 1346 048f 09       		.uleb128 0x9
 1347 0490 30000000 		.4byte	0x30
 1348 0494 09       		.uleb128 0x9
 1349 0495 B1000000 		.4byte	0xb1
 1350 0499 00       		.byte	0x0
 1351 049a 07       		.uleb128 0x7
 1352 049b 04       		.byte	0x4
 1353 049c 7B040000 		.4byte	0x47b
 1354 04a0 08       		.uleb128 0x8
 1355 04a1 01       		.byte	0x1
 1356 04a2 30000000 		.4byte	0x30
 1357 04a6 BF040000 		.4byte	0x4bf
 1358 04aa 09       		.uleb128 0x9
 1359 04ab BC000000 		.4byte	0xbc
 1360 04af 09       		.uleb128 0x9
 1361 04b0 E0000000 		.4byte	0xe0
 1362 04b4 09       		.uleb128 0x9
 1363 04b5 30000000 		.4byte	0x30
 1364 04b9 09       		.uleb128 0x9
 1365 04ba B1000000 		.4byte	0xb1
 1366 04be 00       		.byte	0x0
 1367 04bf 07       		.uleb128 0x7
 1368 04c0 04       		.byte	0x4
 1369 04c1 A0040000 		.4byte	0x4a0
 1370 04c5 0E       		.uleb128 0xe
 1371 04c6 04       		.byte	0x4
 1372 04c7 07       		.byte	0x7
 1373 04c8 51       		.byte	0x51
 1374 04c9 DC040000 		.4byte	0x4dc
 1375 04cd 0C       		.uleb128 0xc
 1376 04ce 766D7400 		.ascii	"vmt\000"
 1377 04d2 07       		.byte	0x7
 1378 04d3 53       		.byte	0x53
 1379 04d4 DC040000 		.4byte	0x4dc
 1380 04d8 02       		.byte	0x2
 1381 04d9 23       		.byte	0x23
 1382 04da 00       		.uleb128 0x0
 1383 04db 00       		.byte	0x0
 1384 04dc 07       		.uleb128 0x7
 1385 04dd 04       		.byte	0x4
 1386 04de E2040000 		.4byte	0x4e2
 1387 04e2 0D       		.uleb128 0xd
 1388 04e3 C3030000 		.4byte	0x3c3
 1389 04e7 03       		.uleb128 0x3
 1390 04e8 01040000 		.4byte	.LASF49
 1391 04ec 07       		.byte	0x7
 1392 04ed 55       		.byte	0x55
 1393 04ee C5040000 		.4byte	0x4c5
 1394 04f2 11       		.uleb128 0x11
 1395 04f3 01       		.byte	0x1
 1396 04f4 08       		.byte	0x8
ARM GAS  C:\Users\DNIEL~1\AppData\Local\Temp\ccBGxBoR.s 			page 26


 1397 04f5 35       		.byte	0x35
 1398 04f6 1F050000 		.4byte	0x51f
 1399 04fa 12       		.uleb128 0x12
 1400 04fb FA020000 		.4byte	.LASF50
 1401 04ff 00       		.sleb128 0
 1402 0500 12       		.uleb128 0x12
 1403 0501 1B000000 		.4byte	.LASF51
 1404 0505 01       		.sleb128 1
 1405 0506 12       		.uleb128 0x12
 1406 0507 F7030000 		.4byte	.LASF52
 1407 050b 02       		.sleb128 2
 1408 050c 12       		.uleb128 0x12
 1409 050d 5B040000 		.4byte	.LASF53
 1410 0511 03       		.sleb128 3
 1411 0512 12       		.uleb128 0x12
 1412 0513 3F030000 		.4byte	.LASF54
 1413 0517 04       		.sleb128 4
 1414 0518 12       		.uleb128 0x12
 1415 0519 D3000000 		.4byte	.LASF55
 1416 051d 05       		.sleb128 5
 1417 051e 00       		.byte	0x0
 1418 051f 03       		.uleb128 0x3
 1419 0520 38040000 		.4byte	.LASF56
 1420 0524 08       		.byte	0x8
 1421 0525 3C       		.byte	0x3c
 1422 0526 F2040000 		.4byte	0x4f2
 1423 052a 03       		.uleb128 0x3
 1424 052b D9030000 		.4byte	.LASF57
 1425 052f 08       		.byte	0x8
 1426 0530 41       		.byte	0x41
 1427 0531 35050000 		.4byte	0x535
 1428 0535 13       		.uleb128 0x13
 1429 0536 D9030000 		.4byte	.LASF57
 1430 053a 18       		.byte	0x18
 1431 053b 09       		.byte	0x9
 1432 053c 1301     		.2byte	0x113
 1433 053e 9D050000 		.4byte	0x59d
 1434 0542 14       		.uleb128 0x14
 1435 0543 4D000000 		.4byte	.LASF58
 1436 0547 09       		.byte	0x9
 1437 0548 1701     		.2byte	0x117
 1438 054a 1F050000 		.4byte	0x51f
 1439 054e 02       		.byte	0x2
 1440 054f 23       		.byte	0x23
 1441 0550 00       		.uleb128 0x0
 1442 0551 14       		.uleb128 0x14
 1443 0552 B9000000 		.4byte	.LASF59
 1444 0556 09       		.byte	0x9
 1445 0557 1B01     		.2byte	0x11b
 1446 0559 77060000 		.4byte	0x677
 1447 055d 02       		.byte	0x2
 1448 055e 23       		.byte	0x23
 1449 055f 04       		.uleb128 0x4
 1450 0560 14       		.uleb128 0x14
 1451 0561 32030000 		.4byte	.LASF60
 1452 0565 09       		.byte	0x9
 1453 0566 2301     		.2byte	0x123
ARM GAS  C:\Users\DNIEL~1\AppData\Local\Temp\ccBGxBoR.s 			page 27


 1454 0568 86000000 		.4byte	0x86
 1455 056c 02       		.byte	0x2
 1456 056d 23       		.byte	0x23
 1457 056e 08       		.uleb128 0x8
 1458 056f 15       		.uleb128 0x15
 1459 0570 74696D00 		.ascii	"tim\000"
 1460 0574 09       		.byte	0x9
 1461 0575 2701     		.2byte	0x127
 1462 0577 82060000 		.4byte	0x682
 1463 057b 02       		.byte	0x2
 1464 057c 23       		.byte	0x23
 1465 057d 0C       		.uleb128 0xc
 1466 057e 14       		.uleb128 0x14
 1467 057f 80010000 		.4byte	.LASF61
 1468 0583 09       		.byte	0x9
 1469 0584 2B01     		.2byte	0x12b
 1470 0586 BD030000 		.4byte	0x3bd
 1471 058a 02       		.byte	0x2
 1472 058b 23       		.byte	0x23
 1473 058c 10       		.uleb128 0x10
 1474 058d 14       		.uleb128 0x14
 1475 058e 94010000 		.4byte	.LASF62
 1476 0592 09       		.byte	0x9
 1477 0593 2F01     		.2byte	0x12f
 1478 0595 BD030000 		.4byte	0x3bd
 1479 0599 02       		.byte	0x2
 1480 059a 23       		.byte	0x23
 1481 059b 14       		.uleb128 0x14
 1482 059c 00       		.byte	0x0
 1483 059d 03       		.uleb128 0x3
 1484 059e AC020000 		.4byte	.LASF63
 1485 05a2 08       		.byte	0x8
 1486 05a3 48       		.byte	0x48
 1487 05a4 A8050000 		.4byte	0x5a8
 1488 05a8 07       		.uleb128 0x7
 1489 05a9 04       		.byte	0x4
 1490 05aa AE050000 		.4byte	0x5ae
 1491 05ae 16       		.uleb128 0x16
 1492 05af 01       		.byte	0x1
 1493 05b0 BA050000 		.4byte	0x5ba
 1494 05b4 09       		.uleb128 0x9
 1495 05b5 BA050000 		.4byte	0x5ba
 1496 05b9 00       		.byte	0x0
 1497 05ba 07       		.uleb128 0x7
 1498 05bb 04       		.byte	0x4
 1499 05bc 2A050000 		.4byte	0x52a
 1500 05c0 11       		.uleb128 0x11
 1501 05c1 01       		.byte	0x1
 1502 05c2 09       		.byte	0x9
 1503 05c3 D6       		.byte	0xd6
 1504 05c4 D5050000 		.4byte	0x5d5
 1505 05c8 12       		.uleb128 0x12
 1506 05c9 0A030000 		.4byte	.LASF64
 1507 05cd 00       		.sleb128 0
 1508 05ce 12       		.uleb128 0x12
 1509 05cf DD020000 		.4byte	.LASF65
 1510 05d3 01       		.sleb128 1
ARM GAS  C:\Users\DNIEL~1\AppData\Local\Temp\ccBGxBoR.s 			page 28


 1511 05d4 00       		.byte	0x0
 1512 05d5 03       		.uleb128 0x3
 1513 05d6 74000000 		.4byte	.LASF66
 1514 05da 09       		.byte	0x9
 1515 05db D9       		.byte	0xd9
 1516 05dc C0050000 		.4byte	0x5c0
 1517 05e0 03       		.uleb128 0x3
 1518 05e1 68020000 		.4byte	.LASF67
 1519 05e5 09       		.byte	0x9
 1520 05e6 DE       		.byte	0xde
 1521 05e7 86000000 		.4byte	0x86
 1522 05eb 11       		.uleb128 0x11
 1523 05ec 01       		.byte	0x1
 1524 05ed 09       		.byte	0x9
 1525 05ee E3       		.byte	0xe3
 1526 05ef 00060000 		.4byte	0x600
 1527 05f3 12       		.uleb128 0x12
 1528 05f4 25010000 		.4byte	.LASF68
 1529 05f8 00       		.sleb128 0
 1530 05f9 12       		.uleb128 0x12
 1531 05fa 33010000 		.4byte	.LASF69
 1532 05fe 01       		.sleb128 1
 1533 05ff 00       		.byte	0x0
 1534 0600 03       		.uleb128 0x3
 1535 0601 24000000 		.4byte	.LASF70
 1536 0605 09       		.byte	0x9
 1537 0606 E6       		.byte	0xe6
 1538 0607 EB050000 		.4byte	0x5eb
 1539 060b 0E       		.uleb128 0xe
 1540 060c 18       		.byte	0x18
 1541 060d 09       		.byte	0x9
 1542 060e F1       		.byte	0xf1
 1543 060f 6B060000 		.4byte	0x66b
 1544 0613 0B       		.uleb128 0xb
 1545 0614 A4000000 		.4byte	.LASF71
 1546 0618 09       		.byte	0x9
 1547 0619 F5       		.byte	0xf5
 1548 061a D5050000 		.4byte	0x5d5
 1549 061e 02       		.byte	0x2
 1550 061f 23       		.byte	0x23
 1551 0620 00       		.uleb128 0x0
 1552 0621 0B       		.uleb128 0xb
 1553 0622 E3030000 		.4byte	.LASF72
 1554 0626 09       		.byte	0x9
 1555 0627 FB       		.byte	0xfb
 1556 0628 E0050000 		.4byte	0x5e0
 1557 062c 02       		.byte	0x2
 1558 062d 23       		.byte	0x23
 1559 062e 04       		.uleb128 0x4
 1560 062f 0B       		.uleb128 0xb
 1561 0630 58010000 		.4byte	.LASF73
 1562 0634 09       		.byte	0x9
 1563 0635 FF       		.byte	0xff
 1564 0636 9D050000 		.4byte	0x59d
 1565 063a 02       		.byte	0x2
 1566 063b 23       		.byte	0x23
 1567 063c 08       		.uleb128 0x8
ARM GAS  C:\Users\DNIEL~1\AppData\Local\Temp\ccBGxBoR.s 			page 29


 1568 063d 14       		.uleb128 0x14
 1569 063e C6020000 		.4byte	.LASF74
 1570 0642 09       		.byte	0x9
 1571 0643 0301     		.2byte	0x103
 1572 0645 9D050000 		.4byte	0x59d
 1573 0649 02       		.byte	0x2
 1574 064a 23       		.byte	0x23
 1575 064b 0C       		.uleb128 0xc
 1576 064c 14       		.uleb128 0x14
 1577 064d 69030000 		.4byte	.LASF75
 1578 0651 09       		.byte	0x9
 1579 0652 0701     		.2byte	0x107
 1580 0654 9D050000 		.4byte	0x59d
 1581 0658 02       		.byte	0x2
 1582 0659 23       		.byte	0x23
 1583 065a 10       		.uleb128 0x10
 1584 065b 14       		.uleb128 0x14
 1585 065c F2020000 		.4byte	.LASF76
 1586 0660 09       		.byte	0x9
 1587 0661 0D01     		.2byte	0x10d
 1588 0663 00060000 		.4byte	0x600
 1589 0667 02       		.byte	0x2
 1590 0668 23       		.byte	0x23
 1591 0669 14       		.uleb128 0x14
 1592 066a 00       		.byte	0x0
 1593 066b 17       		.uleb128 0x17
 1594 066c DB010000 		.4byte	.LASF77
 1595 0670 09       		.byte	0x9
 1596 0671 0E01     		.2byte	0x10e
 1597 0673 0B060000 		.4byte	0x60b
 1598 0677 07       		.uleb128 0x7
 1599 0678 04       		.byte	0x4
 1600 0679 7D060000 		.4byte	0x67d
 1601 067d 0D       		.uleb128 0xd
 1602 067e 6B060000 		.4byte	0x66b
 1603 0682 07       		.uleb128 0x7
 1604 0683 04       		.byte	0x4
 1605 0684 B2030000 		.4byte	0x3b2
 1606 0688 18       		.uleb128 0x18
 1607 0689 EB010000 		.4byte	.LASF78
 1608 068d 01       		.byte	0x1
 1609 068e 25       		.byte	0x25
 1610 068f 01       		.byte	0x1
 1611 0690 00000000 		.4byte	.LFB118
 1612 0694 10000000 		.4byte	.LFE118
 1613 0698 02       		.byte	0x2
 1614 0699 7D       		.byte	0x7d
 1615 069a 00       		.sleb128 0
 1616 069b AF060000 		.4byte	0x6af
 1617 069f 19       		.uleb128 0x19
 1618 06a0 7B010000 		.4byte	.LASF80
 1619 06a4 01       		.byte	0x1
 1620 06a5 25       		.byte	0x25
 1621 06a6 BA050000 		.4byte	0x5ba
 1622 06aa 00000000 		.4byte	.LLST0
 1623 06ae 00       		.byte	0x0
 1624 06af 18       		.uleb128 0x18
ARM GAS  C:\Users\DNIEL~1\AppData\Local\Temp\ccBGxBoR.s 			page 30


 1625 06b0 A0010000 		.4byte	.LASF79
 1626 06b4 01       		.byte	0x1
 1627 06b5 29       		.byte	0x29
 1628 06b6 01       		.byte	0x1
 1629 06b7 00000000 		.4byte	.LFB119
 1630 06bb 10000000 		.4byte	.LFE119
 1631 06bf 02       		.byte	0x2
 1632 06c0 7D       		.byte	0x7d
 1633 06c1 00       		.sleb128 0
 1634 06c2 D6060000 		.4byte	0x6d6
 1635 06c6 19       		.uleb128 0x19
 1636 06c7 7B010000 		.4byte	.LASF80
 1637 06cb 01       		.byte	0x1
 1638 06cc 29       		.byte	0x29
 1639 06cd BA050000 		.4byte	0x5ba
 1640 06d1 13000000 		.4byte	.LLST1
 1641 06d5 00       		.byte	0x0
 1642 06d6 1A       		.uleb128 0x1a
 1643 06d7 01       		.byte	0x1
 1644 06d8 6A000000 		.4byte	.LASF102
 1645 06dc 01       		.byte	0x1
 1646 06dd 2E       		.byte	0x2e
 1647 06de 01       		.byte	0x1
 1648 06df 00000000 		.4byte	.LFB120
 1649 06e3 28000000 		.4byte	.LFE120
 1650 06e7 26000000 		.4byte	.LLST2
 1651 06eb 1B       		.uleb128 0x1b
 1652 06ec 01       		.byte	0x1
 1653 06ed 4A030000 		.4byte	.LASF87
 1654 06f1 01       		.byte	0x1
 1655 06f2 39       		.byte	0x39
 1656 06f3 01       		.byte	0x1
 1657 06f4 00000000 		.4byte	.LFB121
 1658 06f8 A4000000 		.4byte	.LFE121
 1659 06fc 46000000 		.4byte	.LLST3
 1660 0700 21070000 		.4byte	0x721
 1661 0704 1C       		.uleb128 0x1c
 1662 0705 6900     		.ascii	"i\000"
 1663 0707 01       		.byte	0x1
 1664 0708 3A       		.byte	0x3a
 1665 0709 29000000 		.4byte	0x29
 1666 070d 66000000 		.4byte	.LLST4
 1667 0711 1D       		.uleb128 0x1d
 1668 0712 50010000 		.4byte	.LASF81
 1669 0716 01       		.byte	0x1
 1670 0717 3B       		.byte	0x3b
 1671 0718 21070000 		.4byte	0x721
 1672 071c 7A000000 		.4byte	.LLST5
 1673 0720 00       		.byte	0x0
 1674 0721 04       		.uleb128 0x4
 1675 0722 08       		.byte	0x8
 1676 0723 04       		.byte	0x4
 1677 0724 38030000 		.4byte	.LASF82
 1678 0728 1E       		.uleb128 0x1e
 1679 0729 01       		.byte	0x1
 1680 072a C0000000 		.4byte	.LASF83
 1681 072e 01       		.byte	0x1
ARM GAS  C:\Users\DNIEL~1\AppData\Local\Temp\ccBGxBoR.s 			page 31


 1682 072f 55       		.byte	0x55
 1683 0730 01       		.byte	0x1
 1684 0731 86000000 		.4byte	0x86
 1685 0735 00000000 		.4byte	.LFB122
 1686 0739 18000000 		.4byte	.LFE122
 1687 073d 02       		.byte	0x2
 1688 073e 7D       		.byte	0x7d
 1689 073f 00       		.sleb128 0
 1690 0740 88070000 		.4byte	0x788
 1691 0744 1F       		.uleb128 0x1f
 1692 0745 746D7000 		.ascii	"tmp\000"
 1693 0749 01       		.byte	0x1
 1694 074a 56       		.byte	0x56
 1695 074b 86000000 		.4byte	0x86
 1696 074f 05       		.byte	0x5
 1697 0750 03       		.byte	0x3
 1698 0751 00000000 		.4byte	speed_last_period
 1699 0755 20       		.uleb128 0x20
 1700 0756 00000000 		.4byte	.LBB2
 1701 075a 06000000 		.4byte	.LBE2
 1702 075e 72070000 		.4byte	0x772
 1703 0762 1C       		.uleb128 0x1c
 1704 0763 746D7000 		.ascii	"tmp\000"
 1705 0767 01       		.byte	0x1
 1706 0768 58       		.byte	0x58
 1707 0769 86000000 		.4byte	0x86
 1708 076d A6000000 		.4byte	.LLST6
 1709 0771 00       		.byte	0x0
 1710 0772 21       		.uleb128 0x21
 1711 0773 00000000 		.4byte	.Ldebug_ranges0+0x0
 1712 0777 1C       		.uleb128 0x1c
 1713 0778 746D7000 		.ascii	"tmp\000"
 1714 077c 01       		.byte	0x1
 1715 077d 5A       		.byte	0x5a
 1716 077e 86000000 		.4byte	0x86
 1717 0782 B9000000 		.4byte	.LLST7
 1718 0786 00       		.byte	0x0
 1719 0787 00       		.byte	0x0
 1720 0788 1E       		.uleb128 0x1e
 1721 0789 01       		.byte	0x1
 1722 078a 0A020000 		.4byte	.LASF84
 1723 078e 01       		.byte	0x1
 1724 078f 5E       		.byte	0x5e
 1725 0790 01       		.byte	0x1
 1726 0791 86000000 		.4byte	0x86
 1727 0795 00000000 		.4byte	.LFB123
 1728 0799 18000000 		.4byte	.LFE123
 1729 079d 02       		.byte	0x2
 1730 079e 7D       		.byte	0x7d
 1731 079f 00       		.sleb128 0
 1732 07a0 E8070000 		.4byte	0x7e8
 1733 07a4 22       		.uleb128 0x22
 1734 07a5 05030000 		.4byte	.LASF85
 1735 07a9 01       		.byte	0x1
 1736 07aa 5F       		.byte	0x5f
 1737 07ab 86000000 		.4byte	0x86
 1738 07af 05       		.byte	0x5
ARM GAS  C:\Users\DNIEL~1\AppData\Local\Temp\ccBGxBoR.s 			page 32


 1739 07b0 03       		.byte	0x3
 1740 07b1 00000000 		.4byte	speed_period_num
 1741 07b5 20       		.uleb128 0x20
 1742 07b6 00000000 		.4byte	.LBB5
 1743 07ba 06000000 		.4byte	.LBE5
 1744 07be D2070000 		.4byte	0x7d2
 1745 07c2 1C       		.uleb128 0x1c
 1746 07c3 746D7000 		.ascii	"tmp\000"
 1747 07c7 01       		.byte	0x1
 1748 07c8 61       		.byte	0x61
 1749 07c9 86000000 		.4byte	0x86
 1750 07cd CC000000 		.4byte	.LLST8
 1751 07d1 00       		.byte	0x0
 1752 07d2 21       		.uleb128 0x21
 1753 07d3 18000000 		.4byte	.Ldebug_ranges0+0x18
 1754 07d7 1C       		.uleb128 0x1c
 1755 07d8 746D7000 		.ascii	"tmp\000"
 1756 07dc 01       		.byte	0x1
 1757 07dd 63       		.byte	0x63
 1758 07de 86000000 		.4byte	0x86
 1759 07e2 DF000000 		.4byte	.LLST9
 1760 07e6 00       		.byte	0x0
 1761 07e7 00       		.byte	0x0
 1762 07e8 23       		.uleb128 0x23
 1763 07e9 01       		.byte	0x1
 1764 07ea BC010000 		.4byte	.LASF86
 1765 07ee 01       		.byte	0x1
 1766 07ef 67       		.byte	0x67
 1767 07f0 01       		.byte	0x1
 1768 07f1 86000000 		.4byte	0x86
 1769 07f5 00000000 		.4byte	.LFB124
 1770 07f9 20000000 		.4byte	.LFE124
 1771 07fd F2000000 		.4byte	.LLST10
 1772 0801 47080000 		.4byte	0x847
 1773 0805 24       		.uleb128 0x24
 1774 0806 746D7000 		.ascii	"tmp\000"
 1775 080a 01       		.byte	0x1
 1776 080b 68       		.byte	0x68
 1777 080c 86000000 		.4byte	0x86
 1778 0810 20       		.uleb128 0x20
 1779 0811 02000000 		.4byte	.LBB8
 1780 0815 08000000 		.4byte	.LBE8
 1781 0819 2D080000 		.4byte	0x82d
 1782 081d 1C       		.uleb128 0x1c
 1783 081e 746D7000 		.ascii	"tmp\000"
 1784 0822 01       		.byte	0x1
 1785 0823 6A       		.byte	0x6a
 1786 0824 86000000 		.4byte	0x86
 1787 0828 12010000 		.4byte	.LLST11
 1788 082c 00       		.byte	0x0
 1789 082d 25       		.uleb128 0x25
 1790 082e 12000000 		.4byte	.LBB9
 1791 0832 18000000 		.4byte	.LBE9
 1792 0836 1C       		.uleb128 0x1c
 1793 0837 746D7000 		.ascii	"tmp\000"
 1794 083b 01       		.byte	0x1
 1795 083c 6C       		.byte	0x6c
ARM GAS  C:\Users\DNIEL~1\AppData\Local\Temp\ccBGxBoR.s 			page 33


 1796 083d 86000000 		.4byte	0x86
 1797 0841 25010000 		.4byte	.LLST12
 1798 0845 00       		.byte	0x0
 1799 0846 00       		.byte	0x0
 1800 0847 1B       		.uleb128 0x1b
 1801 0848 01       		.byte	0x1
 1802 0849 DC000000 		.4byte	.LASF88
 1803 084d 01       		.byte	0x1
 1804 084e 70       		.byte	0x70
 1805 084f 01       		.byte	0x1
 1806 0850 00000000 		.4byte	.LFB125
 1807 0854 84000000 		.4byte	.LFE125
 1808 0858 38010000 		.4byte	.LLST13
 1809 085c 8E080000 		.4byte	0x88e
 1810 0860 26       		.uleb128 0x26
 1811 0861 63687000 		.ascii	"chp\000"
 1812 0865 01       		.byte	0x1
 1813 0866 70       		.byte	0x70
 1814 0867 8E080000 		.4byte	0x88e
 1815 086b 58010000 		.4byte	.LLST14
 1816 086f 19       		.uleb128 0x19
 1817 0870 48000000 		.4byte	.LASF89
 1818 0874 01       		.byte	0x1
 1819 0875 70       		.byte	0x70
 1820 0876 29000000 		.4byte	0x29
 1821 087a 76010000 		.4byte	.LLST15
 1822 087e 19       		.uleb128 0x19
 1823 087f B7010000 		.4byte	.LASF90
 1824 0883 01       		.byte	0x1
 1825 0884 70       		.byte	0x70
 1826 0885 94080000 		.4byte	0x894
 1827 0889 89010000 		.4byte	.LLST16
 1828 088d 00       		.byte	0x0
 1829 088e 07       		.uleb128 0x7
 1830 088f 04       		.byte	0x4
 1831 0890 B3010000 		.4byte	0x1b3
 1832 0894 07       		.uleb128 0x7
 1833 0895 04       		.byte	0x4
 1834 0896 9A080000 		.4byte	0x89a
 1835 089a 07       		.uleb128 0x7
 1836 089b 04       		.byte	0x4
 1837 089c C3000000 		.4byte	0xc3
 1838 08a0 27       		.uleb128 0x27
 1839 08a1 0D040000 		.4byte	.LASF91
 1840 08a5 0A       		.byte	0xa
 1841 08a6 9806     		.2byte	0x698
 1842 08a8 D3010000 		.4byte	0x1d3
 1843 08ac 01       		.byte	0x1
 1844 08ad 01       		.byte	0x1
 1845 08ae 27       		.uleb128 0x27
 1846 08af E5010000 		.4byte	.LASF92
 1847 08b3 09       		.byte	0x9
 1848 08b4 5301     		.2byte	0x153
 1849 08b6 2A050000 		.4byte	0x52a
 1850 08ba 01       		.byte	0x1
 1851 08bb 01       		.byte	0x1
 1852 08bc 0F       		.uleb128 0xf
ARM GAS  C:\Users\DNIEL~1\AppData\Local\Temp\ccBGxBoR.s 			page 34


 1853 08bd 21070000 		.4byte	0x721
 1854 08c1 CC080000 		.4byte	0x8cc
 1855 08c5 10       		.uleb128 0x10
 1856 08c6 3B000000 		.4byte	0x3b
 1857 08ca 2F       		.byte	0x2f
 1858 08cb 00       		.byte	0x0
 1859 08cc 22       		.uleb128 0x22
 1860 08cd A9000000 		.4byte	.LASF93
 1861 08d1 01       		.byte	0x1
 1862 08d2 10       		.byte	0x10
 1863 08d3 BC080000 		.4byte	0x8bc
 1864 08d7 05       		.byte	0x5
 1865 08d8 03       		.byte	0x3
 1866 08d9 00000000 		.4byte	rpm_buff
 1867 08dd 22       		.uleb128 0x22
 1868 08de ED030000 		.4byte	.LASF94
 1869 08e2 01       		.byte	0x1
 1870 08e3 12       		.byte	0x12
 1871 08e4 29000000 		.4byte	0x29
 1872 08e8 05       		.byte	0x5
 1873 08e9 03       		.byte	0x3
 1874 08ea 00000000 		.4byte	rpm_index
 1875 08ee 22       		.uleb128 0x22
 1876 08ef 61010000 		.4byte	.LASF95
 1877 08f3 01       		.byte	0x1
 1878 08f4 17       		.byte	0x17
 1879 08f5 6B060000 		.4byte	0x66b
 1880 08f9 05       		.byte	0x5
 1881 08fa 03       		.byte	0x3
 1882 08fb 00000000 		.4byte	icucfg
 1883 08ff 22       		.uleb128 0x22
 1884 0900 36000000 		.4byte	.LASF96
 1885 0904 01       		.byte	0x1
 1886 0905 20       		.byte	0x20
 1887 0906 86000000 		.4byte	0x86
 1888 090a 05       		.byte	0x5
 1889 090b 03       		.byte	0x3
 1890 090c 00000000 		.4byte	speed_last_period
 1891 0910 22       		.uleb128 0x22
 1892 0911 7E000000 		.4byte	.LASF97
 1893 0915 01       		.byte	0x1
 1894 0916 21       		.byte	0x21
 1895 0917 86000000 		.4byte	0x86
 1896 091b 05       		.byte	0x5
 1897 091c 03       		.byte	0x3
 1898 091d 00000000 		.4byte	speed_period_num
 1899 0921 22       		.uleb128 0x22
 1900 0922 55020000 		.4byte	.LASF98
 1901 0926 01       		.byte	0x1
 1902 0927 23       		.byte	0x23
 1903 0928 21070000 		.4byte	0x721
 1904 092c 05       		.byte	0x5
 1905 092d 03       		.byte	0x3
 1906 092e 00000000 		.4byte	rotation
 1907 0932 27       		.uleb128 0x27
 1908 0933 0D040000 		.4byte	.LASF91
 1909 0937 0A       		.byte	0xa
ARM GAS  C:\Users\DNIEL~1\AppData\Local\Temp\ccBGxBoR.s 			page 35


 1910 0938 9806     		.2byte	0x698
 1911 093a D3010000 		.4byte	0x1d3
 1912 093e 01       		.byte	0x1
 1913 093f 01       		.byte	0x1
 1914 0940 27       		.uleb128 0x27
 1915 0941 E5010000 		.4byte	.LASF92
 1916 0945 09       		.byte	0x9
 1917 0946 5301     		.2byte	0x153
 1918 0948 2A050000 		.4byte	0x52a
 1919 094c 01       		.byte	0x1
 1920 094d 01       		.byte	0x1
 1921 094e 00       		.byte	0x0
 1922              		.section	.debug_abbrev
 1923 0000 01       		.uleb128 0x1
 1924 0001 11       		.uleb128 0x11
 1925 0002 01       		.byte	0x1
 1926 0003 25       		.uleb128 0x25
 1927 0004 0E       		.uleb128 0xe
 1928 0005 13       		.uleb128 0x13
 1929 0006 0B       		.uleb128 0xb
 1930 0007 03       		.uleb128 0x3
 1931 0008 0E       		.uleb128 0xe
 1932 0009 1B       		.uleb128 0x1b
 1933 000a 0E       		.uleb128 0xe
 1934 000b 11       		.uleb128 0x11
 1935 000c 01       		.uleb128 0x1
 1936 000d 52       		.uleb128 0x52
 1937 000e 01       		.uleb128 0x1
 1938 000f 55       		.uleb128 0x55
 1939 0010 06       		.uleb128 0x6
 1940 0011 10       		.uleb128 0x10
 1941 0012 06       		.uleb128 0x6
 1942 0013 00       		.byte	0x0
 1943 0014 00       		.byte	0x0
 1944 0015 02       		.uleb128 0x2
 1945 0016 24       		.uleb128 0x24
 1946 0017 00       		.byte	0x0
 1947 0018 0B       		.uleb128 0xb
 1948 0019 0B       		.uleb128 0xb
 1949 001a 3E       		.uleb128 0x3e
 1950 001b 0B       		.uleb128 0xb
 1951 001c 03       		.uleb128 0x3
 1952 001d 08       		.uleb128 0x8
 1953 001e 00       		.byte	0x0
 1954 001f 00       		.byte	0x0
 1955 0020 03       		.uleb128 0x3
 1956 0021 16       		.uleb128 0x16
 1957 0022 00       		.byte	0x0
 1958 0023 03       		.uleb128 0x3
 1959 0024 0E       		.uleb128 0xe
 1960 0025 3A       		.uleb128 0x3a
 1961 0026 0B       		.uleb128 0xb
 1962 0027 3B       		.uleb128 0x3b
 1963 0028 0B       		.uleb128 0xb
 1964 0029 49       		.uleb128 0x49
 1965 002a 13       		.uleb128 0x13
 1966 002b 00       		.byte	0x0
ARM GAS  C:\Users\DNIEL~1\AppData\Local\Temp\ccBGxBoR.s 			page 36


 1967 002c 00       		.byte	0x0
 1968 002d 04       		.uleb128 0x4
 1969 002e 24       		.uleb128 0x24
 1970 002f 00       		.byte	0x0
 1971 0030 0B       		.uleb128 0xb
 1972 0031 0B       		.uleb128 0xb
 1973 0032 3E       		.uleb128 0x3e
 1974 0033 0B       		.uleb128 0xb
 1975 0034 03       		.uleb128 0x3
 1976 0035 0E       		.uleb128 0xe
 1977 0036 00       		.byte	0x0
 1978 0037 00       		.byte	0x0
 1979 0038 05       		.uleb128 0x5
 1980 0039 0F       		.uleb128 0xf
 1981 003a 00       		.byte	0x0
 1982 003b 0B       		.uleb128 0xb
 1983 003c 0B       		.uleb128 0xb
 1984 003d 00       		.byte	0x0
 1985 003e 00       		.byte	0x0
 1986 003f 06       		.uleb128 0x6
 1987 0040 35       		.uleb128 0x35
 1988 0041 00       		.byte	0x0
 1989 0042 49       		.uleb128 0x49
 1990 0043 13       		.uleb128 0x13
 1991 0044 00       		.byte	0x0
 1992 0045 00       		.byte	0x0
 1993 0046 07       		.uleb128 0x7
 1994 0047 0F       		.uleb128 0xf
 1995 0048 00       		.byte	0x0
 1996 0049 0B       		.uleb128 0xb
 1997 004a 0B       		.uleb128 0xb
 1998 004b 49       		.uleb128 0x49
 1999 004c 13       		.uleb128 0x13
 2000 004d 00       		.byte	0x0
 2001 004e 00       		.byte	0x0
 2002 004f 08       		.uleb128 0x8
 2003 0050 15       		.uleb128 0x15
 2004 0051 01       		.byte	0x1
 2005 0052 27       		.uleb128 0x27
 2006 0053 0C       		.uleb128 0xc
 2007 0054 49       		.uleb128 0x49
 2008 0055 13       		.uleb128 0x13
 2009 0056 01       		.uleb128 0x1
 2010 0057 13       		.uleb128 0x13
 2011 0058 00       		.byte	0x0
 2012 0059 00       		.byte	0x0
 2013 005a 09       		.uleb128 0x9
 2014 005b 05       		.uleb128 0x5
 2015 005c 00       		.byte	0x0
 2016 005d 49       		.uleb128 0x49
 2017 005e 13       		.uleb128 0x13
 2018 005f 00       		.byte	0x0
 2019 0060 00       		.byte	0x0
 2020 0061 0A       		.uleb128 0xa
 2021 0062 13       		.uleb128 0x13
 2022 0063 01       		.byte	0x1
 2023 0064 03       		.uleb128 0x3
ARM GAS  C:\Users\DNIEL~1\AppData\Local\Temp\ccBGxBoR.s 			page 37


 2024 0065 0E       		.uleb128 0xe
 2025 0066 0B       		.uleb128 0xb
 2026 0067 0B       		.uleb128 0xb
 2027 0068 3A       		.uleb128 0x3a
 2028 0069 0B       		.uleb128 0xb
 2029 006a 3B       		.uleb128 0x3b
 2030 006b 0B       		.uleb128 0xb
 2031 006c 01       		.uleb128 0x1
 2032 006d 13       		.uleb128 0x13
 2033 006e 00       		.byte	0x0
 2034 006f 00       		.byte	0x0
 2035 0070 0B       		.uleb128 0xb
 2036 0071 0D       		.uleb128 0xd
 2037 0072 00       		.byte	0x0
 2038 0073 03       		.uleb128 0x3
 2039 0074 0E       		.uleb128 0xe
 2040 0075 3A       		.uleb128 0x3a
 2041 0076 0B       		.uleb128 0xb
 2042 0077 3B       		.uleb128 0x3b
 2043 0078 0B       		.uleb128 0xb
 2044 0079 49       		.uleb128 0x49
 2045 007a 13       		.uleb128 0x13
 2046 007b 38       		.uleb128 0x38
 2047 007c 0A       		.uleb128 0xa
 2048 007d 00       		.byte	0x0
 2049 007e 00       		.byte	0x0
 2050 007f 0C       		.uleb128 0xc
 2051 0080 0D       		.uleb128 0xd
 2052 0081 00       		.byte	0x0
 2053 0082 03       		.uleb128 0x3
 2054 0083 08       		.uleb128 0x8
 2055 0084 3A       		.uleb128 0x3a
 2056 0085 0B       		.uleb128 0xb
 2057 0086 3B       		.uleb128 0x3b
 2058 0087 0B       		.uleb128 0xb
 2059 0088 49       		.uleb128 0x49
 2060 0089 13       		.uleb128 0x13
 2061 008a 38       		.uleb128 0x38
 2062 008b 0A       		.uleb128 0xa
 2063 008c 00       		.byte	0x0
 2064 008d 00       		.byte	0x0
 2065 008e 0D       		.uleb128 0xd
 2066 008f 26       		.uleb128 0x26
 2067 0090 00       		.byte	0x0
 2068 0091 49       		.uleb128 0x49
 2069 0092 13       		.uleb128 0x13
 2070 0093 00       		.byte	0x0
 2071 0094 00       		.byte	0x0
 2072 0095 0E       		.uleb128 0xe
 2073 0096 13       		.uleb128 0x13
 2074 0097 01       		.byte	0x1
 2075 0098 0B       		.uleb128 0xb
 2076 0099 0B       		.uleb128 0xb
 2077 009a 3A       		.uleb128 0x3a
 2078 009b 0B       		.uleb128 0xb
 2079 009c 3B       		.uleb128 0x3b
 2080 009d 0B       		.uleb128 0xb
ARM GAS  C:\Users\DNIEL~1\AppData\Local\Temp\ccBGxBoR.s 			page 38


 2081 009e 01       		.uleb128 0x1
 2082 009f 13       		.uleb128 0x13
 2083 00a0 00       		.byte	0x0
 2084 00a1 00       		.byte	0x0
 2085 00a2 0F       		.uleb128 0xf
 2086 00a3 01       		.uleb128 0x1
 2087 00a4 01       		.byte	0x1
 2088 00a5 49       		.uleb128 0x49
 2089 00a6 13       		.uleb128 0x13
 2090 00a7 01       		.uleb128 0x1
 2091 00a8 13       		.uleb128 0x13
 2092 00a9 00       		.byte	0x0
 2093 00aa 00       		.byte	0x0
 2094 00ab 10       		.uleb128 0x10
 2095 00ac 21       		.uleb128 0x21
 2096 00ad 00       		.byte	0x0
 2097 00ae 49       		.uleb128 0x49
 2098 00af 13       		.uleb128 0x13
 2099 00b0 2F       		.uleb128 0x2f
 2100 00b1 0B       		.uleb128 0xb
 2101 00b2 00       		.byte	0x0
 2102 00b3 00       		.byte	0x0
 2103 00b4 11       		.uleb128 0x11
 2104 00b5 04       		.uleb128 0x4
 2105 00b6 01       		.byte	0x1
 2106 00b7 0B       		.uleb128 0xb
 2107 00b8 0B       		.uleb128 0xb
 2108 00b9 3A       		.uleb128 0x3a
 2109 00ba 0B       		.uleb128 0xb
 2110 00bb 3B       		.uleb128 0x3b
 2111 00bc 0B       		.uleb128 0xb
 2112 00bd 01       		.uleb128 0x1
 2113 00be 13       		.uleb128 0x13
 2114 00bf 00       		.byte	0x0
 2115 00c0 00       		.byte	0x0
 2116 00c1 12       		.uleb128 0x12
 2117 00c2 28       		.uleb128 0x28
 2118 00c3 00       		.byte	0x0
 2119 00c4 03       		.uleb128 0x3
 2120 00c5 0E       		.uleb128 0xe
 2121 00c6 1C       		.uleb128 0x1c
 2122 00c7 0D       		.uleb128 0xd
 2123 00c8 00       		.byte	0x0
 2124 00c9 00       		.byte	0x0
 2125 00ca 13       		.uleb128 0x13
 2126 00cb 13       		.uleb128 0x13
 2127 00cc 01       		.byte	0x1
 2128 00cd 03       		.uleb128 0x3
 2129 00ce 0E       		.uleb128 0xe
 2130 00cf 0B       		.uleb128 0xb
 2131 00d0 0B       		.uleb128 0xb
 2132 00d1 3A       		.uleb128 0x3a
 2133 00d2 0B       		.uleb128 0xb
 2134 00d3 3B       		.uleb128 0x3b
 2135 00d4 05       		.uleb128 0x5
 2136 00d5 01       		.uleb128 0x1
 2137 00d6 13       		.uleb128 0x13
ARM GAS  C:\Users\DNIEL~1\AppData\Local\Temp\ccBGxBoR.s 			page 39


 2138 00d7 00       		.byte	0x0
 2139 00d8 00       		.byte	0x0
 2140 00d9 14       		.uleb128 0x14
 2141 00da 0D       		.uleb128 0xd
 2142 00db 00       		.byte	0x0
 2143 00dc 03       		.uleb128 0x3
 2144 00dd 0E       		.uleb128 0xe
 2145 00de 3A       		.uleb128 0x3a
 2146 00df 0B       		.uleb128 0xb
 2147 00e0 3B       		.uleb128 0x3b
 2148 00e1 05       		.uleb128 0x5
 2149 00e2 49       		.uleb128 0x49
 2150 00e3 13       		.uleb128 0x13
 2151 00e4 38       		.uleb128 0x38
 2152 00e5 0A       		.uleb128 0xa
 2153 00e6 00       		.byte	0x0
 2154 00e7 00       		.byte	0x0
 2155 00e8 15       		.uleb128 0x15
 2156 00e9 0D       		.uleb128 0xd
 2157 00ea 00       		.byte	0x0
 2158 00eb 03       		.uleb128 0x3
 2159 00ec 08       		.uleb128 0x8
 2160 00ed 3A       		.uleb128 0x3a
 2161 00ee 0B       		.uleb128 0xb
 2162 00ef 3B       		.uleb128 0x3b
 2163 00f0 05       		.uleb128 0x5
 2164 00f1 49       		.uleb128 0x49
 2165 00f2 13       		.uleb128 0x13
 2166 00f3 38       		.uleb128 0x38
 2167 00f4 0A       		.uleb128 0xa
 2168 00f5 00       		.byte	0x0
 2169 00f6 00       		.byte	0x0
 2170 00f7 16       		.uleb128 0x16
 2171 00f8 15       		.uleb128 0x15
 2172 00f9 01       		.byte	0x1
 2173 00fa 27       		.uleb128 0x27
 2174 00fb 0C       		.uleb128 0xc
 2175 00fc 01       		.uleb128 0x1
 2176 00fd 13       		.uleb128 0x13
 2177 00fe 00       		.byte	0x0
 2178 00ff 00       		.byte	0x0
 2179 0100 17       		.uleb128 0x17
 2180 0101 16       		.uleb128 0x16
 2181 0102 00       		.byte	0x0
 2182 0103 03       		.uleb128 0x3
 2183 0104 0E       		.uleb128 0xe
 2184 0105 3A       		.uleb128 0x3a
 2185 0106 0B       		.uleb128 0xb
 2186 0107 3B       		.uleb128 0x3b
 2187 0108 05       		.uleb128 0x5
 2188 0109 49       		.uleb128 0x49
 2189 010a 13       		.uleb128 0x13
 2190 010b 00       		.byte	0x0
 2191 010c 00       		.byte	0x0
 2192 010d 18       		.uleb128 0x18
 2193 010e 2E       		.uleb128 0x2e
 2194 010f 01       		.byte	0x1
ARM GAS  C:\Users\DNIEL~1\AppData\Local\Temp\ccBGxBoR.s 			page 40


 2195 0110 03       		.uleb128 0x3
 2196 0111 0E       		.uleb128 0xe
 2197 0112 3A       		.uleb128 0x3a
 2198 0113 0B       		.uleb128 0xb
 2199 0114 3B       		.uleb128 0x3b
 2200 0115 0B       		.uleb128 0xb
 2201 0116 27       		.uleb128 0x27
 2202 0117 0C       		.uleb128 0xc
 2203 0118 11       		.uleb128 0x11
 2204 0119 01       		.uleb128 0x1
 2205 011a 12       		.uleb128 0x12
 2206 011b 01       		.uleb128 0x1
 2207 011c 40       		.uleb128 0x40
 2208 011d 0A       		.uleb128 0xa
 2209 011e 01       		.uleb128 0x1
 2210 011f 13       		.uleb128 0x13
 2211 0120 00       		.byte	0x0
 2212 0121 00       		.byte	0x0
 2213 0122 19       		.uleb128 0x19
 2214 0123 05       		.uleb128 0x5
 2215 0124 00       		.byte	0x0
 2216 0125 03       		.uleb128 0x3
 2217 0126 0E       		.uleb128 0xe
 2218 0127 3A       		.uleb128 0x3a
 2219 0128 0B       		.uleb128 0xb
 2220 0129 3B       		.uleb128 0x3b
 2221 012a 0B       		.uleb128 0xb
 2222 012b 49       		.uleb128 0x49
 2223 012c 13       		.uleb128 0x13
 2224 012d 02       		.uleb128 0x2
 2225 012e 06       		.uleb128 0x6
 2226 012f 00       		.byte	0x0
 2227 0130 00       		.byte	0x0
 2228 0131 1A       		.uleb128 0x1a
 2229 0132 2E       		.uleb128 0x2e
 2230 0133 00       		.byte	0x0
 2231 0134 3F       		.uleb128 0x3f
 2232 0135 0C       		.uleb128 0xc
 2233 0136 03       		.uleb128 0x3
 2234 0137 0E       		.uleb128 0xe
 2235 0138 3A       		.uleb128 0x3a
 2236 0139 0B       		.uleb128 0xb
 2237 013a 3B       		.uleb128 0x3b
 2238 013b 0B       		.uleb128 0xb
 2239 013c 27       		.uleb128 0x27
 2240 013d 0C       		.uleb128 0xc
 2241 013e 11       		.uleb128 0x11
 2242 013f 01       		.uleb128 0x1
 2243 0140 12       		.uleb128 0x12
 2244 0141 01       		.uleb128 0x1
 2245 0142 40       		.uleb128 0x40
 2246 0143 06       		.uleb128 0x6
 2247 0144 00       		.byte	0x0
 2248 0145 00       		.byte	0x0
 2249 0146 1B       		.uleb128 0x1b
 2250 0147 2E       		.uleb128 0x2e
 2251 0148 01       		.byte	0x1
ARM GAS  C:\Users\DNIEL~1\AppData\Local\Temp\ccBGxBoR.s 			page 41


 2252 0149 3F       		.uleb128 0x3f
 2253 014a 0C       		.uleb128 0xc
 2254 014b 03       		.uleb128 0x3
 2255 014c 0E       		.uleb128 0xe
 2256 014d 3A       		.uleb128 0x3a
 2257 014e 0B       		.uleb128 0xb
 2258 014f 3B       		.uleb128 0x3b
 2259 0150 0B       		.uleb128 0xb
 2260 0151 27       		.uleb128 0x27
 2261 0152 0C       		.uleb128 0xc
 2262 0153 11       		.uleb128 0x11
 2263 0154 01       		.uleb128 0x1
 2264 0155 12       		.uleb128 0x12
 2265 0156 01       		.uleb128 0x1
 2266 0157 40       		.uleb128 0x40
 2267 0158 06       		.uleb128 0x6
 2268 0159 01       		.uleb128 0x1
 2269 015a 13       		.uleb128 0x13
 2270 015b 00       		.byte	0x0
 2271 015c 00       		.byte	0x0
 2272 015d 1C       		.uleb128 0x1c
 2273 015e 34       		.uleb128 0x34
 2274 015f 00       		.byte	0x0
 2275 0160 03       		.uleb128 0x3
 2276 0161 08       		.uleb128 0x8
 2277 0162 3A       		.uleb128 0x3a
 2278 0163 0B       		.uleb128 0xb
 2279 0164 3B       		.uleb128 0x3b
 2280 0165 0B       		.uleb128 0xb
 2281 0166 49       		.uleb128 0x49
 2282 0167 13       		.uleb128 0x13
 2283 0168 02       		.uleb128 0x2
 2284 0169 06       		.uleb128 0x6
 2285 016a 00       		.byte	0x0
 2286 016b 00       		.byte	0x0
 2287 016c 1D       		.uleb128 0x1d
 2288 016d 34       		.uleb128 0x34
 2289 016e 00       		.byte	0x0
 2290 016f 03       		.uleb128 0x3
 2291 0170 0E       		.uleb128 0xe
 2292 0171 3A       		.uleb128 0x3a
 2293 0172 0B       		.uleb128 0xb
 2294 0173 3B       		.uleb128 0x3b
 2295 0174 0B       		.uleb128 0xb
 2296 0175 49       		.uleb128 0x49
 2297 0176 13       		.uleb128 0x13
 2298 0177 02       		.uleb128 0x2
 2299 0178 06       		.uleb128 0x6
 2300 0179 00       		.byte	0x0
 2301 017a 00       		.byte	0x0
 2302 017b 1E       		.uleb128 0x1e
 2303 017c 2E       		.uleb128 0x2e
 2304 017d 01       		.byte	0x1
 2305 017e 3F       		.uleb128 0x3f
 2306 017f 0C       		.uleb128 0xc
 2307 0180 03       		.uleb128 0x3
 2308 0181 0E       		.uleb128 0xe
ARM GAS  C:\Users\DNIEL~1\AppData\Local\Temp\ccBGxBoR.s 			page 42


 2309 0182 3A       		.uleb128 0x3a
 2310 0183 0B       		.uleb128 0xb
 2311 0184 3B       		.uleb128 0x3b
 2312 0185 0B       		.uleb128 0xb
 2313 0186 27       		.uleb128 0x27
 2314 0187 0C       		.uleb128 0xc
 2315 0188 49       		.uleb128 0x49
 2316 0189 13       		.uleb128 0x13
 2317 018a 11       		.uleb128 0x11
 2318 018b 01       		.uleb128 0x1
 2319 018c 12       		.uleb128 0x12
 2320 018d 01       		.uleb128 0x1
 2321 018e 40       		.uleb128 0x40
 2322 018f 0A       		.uleb128 0xa
 2323 0190 01       		.uleb128 0x1
 2324 0191 13       		.uleb128 0x13
 2325 0192 00       		.byte	0x0
 2326 0193 00       		.byte	0x0
 2327 0194 1F       		.uleb128 0x1f
 2328 0195 34       		.uleb128 0x34
 2329 0196 00       		.byte	0x0
 2330 0197 03       		.uleb128 0x3
 2331 0198 08       		.uleb128 0x8
 2332 0199 3A       		.uleb128 0x3a
 2333 019a 0B       		.uleb128 0xb
 2334 019b 3B       		.uleb128 0x3b
 2335 019c 0B       		.uleb128 0xb
 2336 019d 49       		.uleb128 0x49
 2337 019e 13       		.uleb128 0x13
 2338 019f 02       		.uleb128 0x2
 2339 01a0 0A       		.uleb128 0xa
 2340 01a1 00       		.byte	0x0
 2341 01a2 00       		.byte	0x0
 2342 01a3 20       		.uleb128 0x20
 2343 01a4 0B       		.uleb128 0xb
 2344 01a5 01       		.byte	0x1
 2345 01a6 11       		.uleb128 0x11
 2346 01a7 01       		.uleb128 0x1
 2347 01a8 12       		.uleb128 0x12
 2348 01a9 01       		.uleb128 0x1
 2349 01aa 01       		.uleb128 0x1
 2350 01ab 13       		.uleb128 0x13
 2351 01ac 00       		.byte	0x0
 2352 01ad 00       		.byte	0x0
 2353 01ae 21       		.uleb128 0x21
 2354 01af 0B       		.uleb128 0xb
 2355 01b0 01       		.byte	0x1
 2356 01b1 55       		.uleb128 0x55
 2357 01b2 06       		.uleb128 0x6
 2358 01b3 00       		.byte	0x0
 2359 01b4 00       		.byte	0x0
 2360 01b5 22       		.uleb128 0x22
 2361 01b6 34       		.uleb128 0x34
 2362 01b7 00       		.byte	0x0
 2363 01b8 03       		.uleb128 0x3
 2364 01b9 0E       		.uleb128 0xe
 2365 01ba 3A       		.uleb128 0x3a
ARM GAS  C:\Users\DNIEL~1\AppData\Local\Temp\ccBGxBoR.s 			page 43


 2366 01bb 0B       		.uleb128 0xb
 2367 01bc 3B       		.uleb128 0x3b
 2368 01bd 0B       		.uleb128 0xb
 2369 01be 49       		.uleb128 0x49
 2370 01bf 13       		.uleb128 0x13
 2371 01c0 02       		.uleb128 0x2
 2372 01c1 0A       		.uleb128 0xa
 2373 01c2 00       		.byte	0x0
 2374 01c3 00       		.byte	0x0
 2375 01c4 23       		.uleb128 0x23
 2376 01c5 2E       		.uleb128 0x2e
 2377 01c6 01       		.byte	0x1
 2378 01c7 3F       		.uleb128 0x3f
 2379 01c8 0C       		.uleb128 0xc
 2380 01c9 03       		.uleb128 0x3
 2381 01ca 0E       		.uleb128 0xe
 2382 01cb 3A       		.uleb128 0x3a
 2383 01cc 0B       		.uleb128 0xb
 2384 01cd 3B       		.uleb128 0x3b
 2385 01ce 0B       		.uleb128 0xb
 2386 01cf 27       		.uleb128 0x27
 2387 01d0 0C       		.uleb128 0xc
 2388 01d1 49       		.uleb128 0x49
 2389 01d2 13       		.uleb128 0x13
 2390 01d3 11       		.uleb128 0x11
 2391 01d4 01       		.uleb128 0x1
 2392 01d5 12       		.uleb128 0x12
 2393 01d6 01       		.uleb128 0x1
 2394 01d7 40       		.uleb128 0x40
 2395 01d8 06       		.uleb128 0x6
 2396 01d9 01       		.uleb128 0x1
 2397 01da 13       		.uleb128 0x13
 2398 01db 00       		.byte	0x0
 2399 01dc 00       		.byte	0x0
 2400 01dd 24       		.uleb128 0x24
 2401 01de 34       		.uleb128 0x34
 2402 01df 00       		.byte	0x0
 2403 01e0 03       		.uleb128 0x3
 2404 01e1 08       		.uleb128 0x8
 2405 01e2 3A       		.uleb128 0x3a
 2406 01e3 0B       		.uleb128 0xb
 2407 01e4 3B       		.uleb128 0x3b
 2408 01e5 0B       		.uleb128 0xb
 2409 01e6 49       		.uleb128 0x49
 2410 01e7 13       		.uleb128 0x13
 2411 01e8 00       		.byte	0x0
 2412 01e9 00       		.byte	0x0
 2413 01ea 25       		.uleb128 0x25
 2414 01eb 0B       		.uleb128 0xb
 2415 01ec 01       		.byte	0x1
 2416 01ed 11       		.uleb128 0x11
 2417 01ee 01       		.uleb128 0x1
 2418 01ef 12       		.uleb128 0x12
 2419 01f0 01       		.uleb128 0x1
 2420 01f1 00       		.byte	0x0
 2421 01f2 00       		.byte	0x0
 2422 01f3 26       		.uleb128 0x26
ARM GAS  C:\Users\DNIEL~1\AppData\Local\Temp\ccBGxBoR.s 			page 44


 2423 01f4 05       		.uleb128 0x5
 2424 01f5 00       		.byte	0x0
 2425 01f6 03       		.uleb128 0x3
 2426 01f7 08       		.uleb128 0x8
 2427 01f8 3A       		.uleb128 0x3a
 2428 01f9 0B       		.uleb128 0xb
 2429 01fa 3B       		.uleb128 0x3b
 2430 01fb 0B       		.uleb128 0xb
 2431 01fc 49       		.uleb128 0x49
 2432 01fd 13       		.uleb128 0x13
 2433 01fe 02       		.uleb128 0x2
 2434 01ff 06       		.uleb128 0x6
 2435 0200 00       		.byte	0x0
 2436 0201 00       		.byte	0x0
 2437 0202 27       		.uleb128 0x27
 2438 0203 34       		.uleb128 0x34
 2439 0204 00       		.byte	0x0
 2440 0205 03       		.uleb128 0x3
 2441 0206 0E       		.uleb128 0xe
 2442 0207 3A       		.uleb128 0x3a
 2443 0208 0B       		.uleb128 0xb
 2444 0209 3B       		.uleb128 0x3b
 2445 020a 05       		.uleb128 0x5
 2446 020b 49       		.uleb128 0x49
 2447 020c 13       		.uleb128 0x13
 2448 020d 3F       		.uleb128 0x3f
 2449 020e 0C       		.uleb128 0xc
 2450 020f 3C       		.uleb128 0x3c
 2451 0210 0C       		.uleb128 0xc
 2452 0211 00       		.byte	0x0
 2453 0212 00       		.byte	0x0
 2454 0213 00       		.byte	0x0
 2455              		.section	.debug_pubnames,"",%progbits
 2456 0000 7E000000 		.4byte	0x7e
 2457 0004 0200     		.2byte	0x2
 2458 0006 00000000 		.4byte	.Ldebug_info0
 2459 000a 4F090000 		.4byte	0x94f
 2460 000e D6060000 		.4byte	0x6d6
 2461 0012 73706565 		.ascii	"speedInit\000"
 2461      64496E69 
 2461      7400
 2462 001c EB060000 		.4byte	0x6eb
 2463 0020 73706565 		.ascii	"speedCalc\000"
 2463      6443616C 
 2463      6300
 2464 002a 28070000 		.4byte	0x728
 2465 002e 73706565 		.ascii	"speedGetLastPeriod\000"
 2465      64476574 
 2465      4C617374 
 2465      50657269 
 2465      6F6400
 2466 0041 88070000 		.4byte	0x788
 2467 0045 73706565 		.ascii	"speedGetPeriodNumber\000"
 2467      64476574 
 2467      50657269 
 2467      6F644E75 
 2467      6D626572 
ARM GAS  C:\Users\DNIEL~1\AppData\Local\Temp\ccBGxBoR.s 			page 45


 2468 005a E8070000 		.4byte	0x7e8
 2469 005e 73706565 		.ascii	"speedGetRpm\000"
 2469      64476574 
 2469      52706D00 
 2470 006a 47080000 		.4byte	0x847
 2471 006e 636D645F 		.ascii	"cmd_speedvalues\000"
 2471      73706565 
 2471      6476616C 
 2471      75657300 
 2472 007e 00000000 		.4byte	0x0
 2473              		.section	.debug_pubtypes,"",%progbits
 2474 0000 43010000 		.4byte	0x143
 2475 0004 0200     		.2byte	0x2
 2476 0006 00000000 		.4byte	.Ldebug_info0
 2477 000a 4F090000 		.4byte	0x94f
 2478 000e 30000000 		.4byte	0x30
 2479 0012 73697A65 		.ascii	"size_t\000"
 2479      5F7400
 2480 0019 49000000 		.4byte	0x49
 2481 001d 75696E74 		.ascii	"uint8_t\000"
 2481      385F7400 
 2482 0025 62000000 		.4byte	0x62
 2483 0029 75696E74 		.ascii	"uint16_t\000"
 2483      31365F74 
 2483      00
 2484 0032 74000000 		.4byte	0x74
 2485 0036 696E7433 		.ascii	"int32_t\000"
 2485      325F7400 
 2486 003e 86000000 		.4byte	0x86
 2487 0042 75696E74 		.ascii	"uint32_t\000"
 2487      33325F74 
 2487      00
 2488 004b A6000000 		.4byte	0xa6
 2489 004f 6D73675F 		.ascii	"msg_t\000"
 2489      7400
 2490 0055 B1000000 		.4byte	0xb1
 2491 0059 73797374 		.ascii	"systime_t\000"
 2491      696D655F 
 2491      7400
 2492 0063 E6000000 		.4byte	0xe6
 2493 0067 42617365 		.ascii	"BaseSequentialStreamVMT\000"
 2493      53657175 
 2493      656E7469 
 2493      616C5374 
 2493      7265616D 
 2494 007f B3010000 		.4byte	0x1b3
 2495 0083 42617365 		.ascii	"BaseSequentialStream\000"
 2495      53657175 
 2495      656E7469 
 2495      616C5374 
 2495      7265616D 
 2496 0098 B2030000 		.4byte	0x3b2
 2497 009c 73746D33 		.ascii	"stm32_tim_t\000"
 2497      325F7469 
 2497      6D5F7400 
 2498 00a8 C3030000 		.4byte	0x3c3
 2499 00ac 42617365 		.ascii	"BaseChannelVMT\000"
ARM GAS  C:\Users\DNIEL~1\AppData\Local\Temp\ccBGxBoR.s 			page 46


 2499      4368616E 
 2499      6E656C56 
 2499      4D5400
 2500 00bb E7040000 		.4byte	0x4e7
 2501 00bf 42617365 		.ascii	"BaseChannel\000"
 2501      4368616E 
 2501      6E656C00 
 2502 00cb 1F050000 		.4byte	0x51f
 2503 00cf 69637573 		.ascii	"icustate_t\000"
 2503      74617465 
 2503      5F7400
 2504 00da 2A050000 		.4byte	0x52a
 2505 00de 49435544 		.ascii	"ICUDriver\000"
 2505      72697665 
 2505      7200
 2506 00e8 9D050000 		.4byte	0x59d
 2507 00ec 69637563 		.ascii	"icucallback_t\000"
 2507      616C6C62 
 2507      61636B5F 
 2507      7400
 2508 00fa D5050000 		.4byte	0x5d5
 2509 00fe 6963756D 		.ascii	"icumode_t\000"
 2509      6F64655F 
 2509      7400
 2510 0108 E0050000 		.4byte	0x5e0
 2511 010c 69637566 		.ascii	"icufreq_t\000"
 2511      7265715F 
 2511      7400
 2512 0116 00060000 		.4byte	0x600
 2513 011a 69637563 		.ascii	"icuchannel_t\000"
 2513      68616E6E 
 2513      656C5F74 
 2513      00
 2514 0127 6B060000 		.4byte	0x66b
 2515 012b 49435543 		.ascii	"ICUConfig\000"
 2515      6F6E6669 
 2515      6700
 2516 0135 35050000 		.4byte	0x535
 2517 0139 49435544 		.ascii	"ICUDriver\000"
 2517      72697665 
 2517      7200
 2518 0143 00000000 		.4byte	0x0
 2519              		.section	.debug_aranges,"",%progbits
 2520 0000 54000000 		.4byte	0x54
 2521 0004 0200     		.2byte	0x2
 2522 0006 00000000 		.4byte	.Ldebug_info0
 2523 000a 04       		.byte	0x4
 2524 000b 00       		.byte	0x0
 2525 000c 0000     		.2byte	0x0
 2526 000e 0000     		.2byte	0x0
 2527 0010 00000000 		.4byte	.LFB118
 2528 0014 10000000 		.4byte	.LFE118-.LFB118
 2529 0018 00000000 		.4byte	.LFB119
 2530 001c 10000000 		.4byte	.LFE119-.LFB119
 2531 0020 00000000 		.4byte	.LFB120
 2532 0024 28000000 		.4byte	.LFE120-.LFB120
 2533 0028 00000000 		.4byte	.LFB121
ARM GAS  C:\Users\DNIEL~1\AppData\Local\Temp\ccBGxBoR.s 			page 47


 2534 002c A4000000 		.4byte	.LFE121-.LFB121
 2535 0030 00000000 		.4byte	.LFB122
 2536 0034 18000000 		.4byte	.LFE122-.LFB122
 2537 0038 00000000 		.4byte	.LFB123
 2538 003c 18000000 		.4byte	.LFE123-.LFB123
 2539 0040 00000000 		.4byte	.LFB124
 2540 0044 20000000 		.4byte	.LFE124-.LFB124
 2541 0048 00000000 		.4byte	.LFB125
 2542 004c 84000000 		.4byte	.LFE125-.LFB125
 2543 0050 00000000 		.4byte	0x0
 2544 0054 00000000 		.4byte	0x0
 2545              		.section	.debug_ranges,"",%progbits
 2546              	.Ldebug_ranges0:
 2547 0000 08000000 		.4byte	.LBB3
 2548 0004 0A000000 		.4byte	.LBE3
 2549 0008 0C000000 		.4byte	.LBB4
 2550 000c 10000000 		.4byte	.LBE4
 2551 0010 00000000 		.4byte	0x0
 2552 0014 00000000 		.4byte	0x0
 2553 0018 08000000 		.4byte	.LBB6
 2554 001c 0A000000 		.4byte	.LBE6
 2555 0020 0C000000 		.4byte	.LBB7
 2556 0024 10000000 		.4byte	.LBE7
 2557 0028 00000000 		.4byte	0x0
 2558 002c 00000000 		.4byte	0x0
 2559 0030 00000000 		.4byte	.LFB118
 2560 0034 10000000 		.4byte	.LFE118
 2561 0038 00000000 		.4byte	.LFB119
 2562 003c 10000000 		.4byte	.LFE119
 2563 0040 00000000 		.4byte	.LFB120
 2564 0044 28000000 		.4byte	.LFE120
 2565 0048 00000000 		.4byte	.LFB121
 2566 004c A4000000 		.4byte	.LFE121
 2567 0050 00000000 		.4byte	.LFB122
 2568 0054 18000000 		.4byte	.LFE122
 2569 0058 00000000 		.4byte	.LFB123
 2570 005c 18000000 		.4byte	.LFE123
 2571 0060 00000000 		.4byte	.LFB124
 2572 0064 20000000 		.4byte	.LFE124
 2573 0068 00000000 		.4byte	.LFB125
 2574 006c 84000000 		.4byte	.LFE125
 2575 0070 00000000 		.4byte	0x0
 2576 0074 00000000 		.4byte	0x0
 2577              		.section	.debug_str,"MS",%progbits,1
 2578              	.LASF33:
 2579 0000 5F726573 		.ascii	"_resvd8\000"
 2579      76643800 
 2580              	.LASF34:
 2581 0008 5F726573 		.ascii	"_resvd9\000"
 2581      76643900 
 2582              	.LASF32:
 2583 0010 43434552 		.ascii	"CCER\000"
 2583      00
 2584              	.LASF17:
 2585 0015 77726974 		.ascii	"write\000"
 2585      6500
 2586              	.LASF51:
ARM GAS  C:\Users\DNIEL~1\AppData\Local\Temp\ccBGxBoR.s 			page 48


 2587 001b 4943555F 		.ascii	"ICU_STOP\000"
 2587      53544F50 
 2587      00
 2588              	.LASF70:
 2589 0024 69637563 		.ascii	"icuchannel_t\000"
 2589      68616E6E 
 2589      656C5F74 
 2589      00
 2590              	.LASF39:
 2591 0031 444D4152 		.ascii	"DMAR\000"
 2591      00
 2592              	.LASF96:
 2593 0036 73706565 		.ascii	"speed_last_period\000"
 2593      645F6C61 
 2593      73745F70 
 2593      6572696F 
 2593      6400
 2594              	.LASF89:
 2595 0048 61726763 		.ascii	"argc\000"
 2595      00
 2596              	.LASF58:
 2597 004d 73746174 		.ascii	"state\000"
 2597      6500
 2598              	.LASF30:
 2599 0053 43434D52 		.ascii	"CCMR2\000"
 2599      3200
 2600              	.LASF5:
 2601 0059 73686F72 		.ascii	"short int\000"
 2601      7420696E 
 2601      7400
 2602              	.LASF2:
 2603 0063 73697A65 		.ascii	"size_t\000"
 2603      5F7400
 2604              	.LASF102:
 2605 006a 73706565 		.ascii	"speedInit\000"
 2605      64496E69 
 2605      7400
 2606              	.LASF66:
 2607 0074 6963756D 		.ascii	"icumode_t\000"
 2607      6F64655F 
 2607      7400
 2608              	.LASF97:
 2609 007e 73706565 		.ascii	"speed_period_num\000"
 2609      645F7065 
 2609      72696F64 
 2609      5F6E756D 
 2609      00
 2610              	.LASF19:
 2611 008f 42617365 		.ascii	"BaseSequentialStream\000"
 2611      53657175 
 2611      656E7469 
 2611      616C5374 
 2611      7265616D 
 2612              	.LASF71:
 2613 00a4 6D6F6465 		.ascii	"mode\000"
 2613      00
 2614              	.LASF93:
ARM GAS  C:\Users\DNIEL~1\AppData\Local\Temp\ccBGxBoR.s 			page 49


 2615 00a9 72706D5F 		.ascii	"rpm_buff\000"
 2615      62756666 
 2615      00
 2616              	.LASF47:
 2617 00b2 77726974 		.ascii	"writet\000"
 2617      657400
 2618              	.LASF59:
 2619 00b9 636F6E66 		.ascii	"config\000"
 2619      696700
 2620              	.LASF83:
 2621 00c0 73706565 		.ascii	"speedGetLastPeriod\000"
 2621      64476574 
 2621      4C617374 
 2621      50657269 
 2621      6F6400
 2622              	.LASF55:
 2623 00d3 4943555F 		.ascii	"ICU_IDLE\000"
 2623      49444C45 
 2623      00
 2624              	.LASF88:
 2625 00dc 636D645F 		.ascii	"cmd_speedvalues\000"
 2625      73706565 
 2625      6476616C 
 2625      75657300 
 2626              	.LASF3:
 2627 00ec 75696E74 		.ascii	"uint8_t\000"
 2627      385F7400 
 2628              	.LASF37:
 2629 00f4 5F726573 		.ascii	"_resvd11\000"
 2629      76643131 
 2629      00
 2630              	.LASF25:
 2631 00fd 5F726573 		.ascii	"_resvd3\000"
 2631      76643300 
 2632              	.LASF26:
 2633 0105 5F726573 		.ascii	"_resvd4\000"
 2633      76643400 
 2634              	.LASF27:
 2635 010d 5F726573 		.ascii	"_resvd5\000"
 2635      76643500 
 2636              	.LASF29:
 2637 0115 5F726573 		.ascii	"_resvd6\000"
 2637      76643600 
 2638              	.LASF31:
 2639 011d 5F726573 		.ascii	"_resvd7\000"
 2639      76643700 
 2640              	.LASF68:
 2641 0125 4943555F 		.ascii	"ICU_CHANNEL_1\000"
 2641      4348414E 
 2641      4E454C5F 
 2641      3100
 2642              	.LASF69:
 2643 0133 4943555F 		.ascii	"ICU_CHANNEL_2\000"
 2643      4348414E 
 2643      4E454C5F 
 2643      3200
 2644              	.LASF44:
ARM GAS  C:\Users\DNIEL~1\AppData\Local\Temp\ccBGxBoR.s 			page 50


 2645 0141 42617365 		.ascii	"BaseChannelVMT\000"
 2645      4368616E 
 2645      6E656C56 
 2645      4D5400
 2646              	.LASF81:
 2647 0150 72706D61 		.ascii	"rpmasis\000"
 2647      73697300 
 2648              	.LASF73:
 2649 0158 77696474 		.ascii	"width_cb\000"
 2649      685F6362 
 2649      00
 2650              	.LASF95:
 2651 0161 69637563 		.ascii	"icucfg\000"
 2651      666700
 2652              	.LASF18:
 2653 0168 72656164 		.ascii	"read\000"
 2653      00
 2654              	.LASF12:
 2655 016d 6C6F6E67 		.ascii	"long long int\000"
 2655      206C6F6E 
 2655      6720696E 
 2655      7400
 2656              	.LASF80:
 2657 017b 69637570 		.ascii	"icup\000"
 2657      00
 2658              	.LASF61:
 2659 0180 77636372 		.ascii	"wccrp\000"
 2659      7000
 2660              	.LASF9:
 2661 0186 6C6F6E67 		.ascii	"long int\000"
 2661      20696E74 
 2661      00
 2662              	.LASF46:
 2663 018f 67657474 		.ascii	"gett\000"
 2663      00
 2664              	.LASF62:
 2665 0194 70636372 		.ascii	"pccrp\000"
 2665      7000
 2666              	.LASF28:
 2667 019a 43434D52 		.ascii	"CCMR1\000"
 2667      3100
 2668              	.LASF79:
 2669 01a0 73706565 		.ascii	"speedWheelPeriodNumber\000"
 2669      64576865 
 2669      656C5065 
 2669      72696F64 
 2669      4E756D62 
 2670              	.LASF90:
 2671 01b7 61726776 		.ascii	"argv\000"
 2671      00
 2672              	.LASF86:
 2673 01bc 73706565 		.ascii	"speedGetRpm\000"
 2673      64476574 
 2673      52706D00 
 2674              	.LASF22:
 2675 01c8 534D4352 		.ascii	"SMCR\000"
 2675      00
ARM GAS  C:\Users\DNIEL~1\AppData\Local\Temp\ccBGxBoR.s 			page 51


 2676              	.LASF4:
 2677 01cd 756E7369 		.ascii	"unsigned char\000"
 2677      676E6564 
 2677      20636861 
 2677      7200
 2678              	.LASF77:
 2679 01db 49435543 		.ascii	"ICUConfig\000"
 2679      6F6E6669 
 2679      6700
 2680              	.LASF92:
 2681 01e5 49435544 		.ascii	"ICUD1\000"
 2681      3100
 2682              	.LASF78:
 2683 01eb 73706565 		.ascii	"speedWheelPeriodCb\000"
 2683      64576865 
 2683      656C5065 
 2683      72696F64 
 2683      436200
 2684              	.LASF1:
 2685 01fe 7369676E 		.ascii	"signed char\000"
 2685      65642063 
 2685      68617200 
 2686              	.LASF84:
 2687 020a 73706565 		.ascii	"speedGetPeriodNumber\000"
 2687      64476574 
 2687      50657269 
 2687      6F644E75 
 2687      6D626572 
 2688              	.LASF13:
 2689 021f 6C6F6E67 		.ascii	"long long unsigned int\000"
 2689      206C6F6E 
 2689      6720756E 
 2689      7369676E 
 2689      65642069 
 2690              	.LASF10:
 2691 0236 75696E74 		.ascii	"uint32_t\000"
 2691      33325F74 
 2691      00
 2692              	.LASF0:
 2693 023f 756E7369 		.ascii	"unsigned int\000"
 2693      676E6564 
 2693      20696E74 
 2693      00
 2694              	.LASF6:
 2695 024c 75696E74 		.ascii	"uint16_t\000"
 2695      31365F74 
 2695      00
 2696              	.LASF98:
 2697 0255 726F7461 		.ascii	"rotation\000"
 2697      74696F6E 
 2697      00
 2698              	.LASF45:
 2699 025e 70757474 		.ascii	"putt\000"
 2699      00
 2700              	.LASF24:
 2701 0263 44494552 		.ascii	"DIER\000"
 2701      00
ARM GAS  C:\Users\DNIEL~1\AppData\Local\Temp\ccBGxBoR.s 			page 52


 2702              	.LASF67:
 2703 0268 69637566 		.ascii	"icufreq_t\000"
 2703      7265715F 
 2703      7400
 2704              	.LASF40:
 2705 0272 5F726573 		.ascii	"_resvd13\000"
 2705      76643133 
 2705      00
 2706              	.LASF41:
 2707 027b 5F726573 		.ascii	"_resvd14\000"
 2707      76643134 
 2707      00
 2708              	.LASF7:
 2709 0284 73686F72 		.ascii	"short unsigned int\000"
 2709      7420756E 
 2709      7369676E 
 2709      65642069 
 2709      6E7400
 2710              	.LASF15:
 2711 0297 73797374 		.ascii	"systime_t\000"
 2711      696D655F 
 2711      7400
 2712              	.LASF48:
 2713 02a1 72656164 		.ascii	"readt\000"
 2713      7400
 2714              	.LASF16:
 2715 02a7 63686172 		.ascii	"char\000"
 2715      00
 2716              	.LASF63:
 2717 02ac 69637563 		.ascii	"icucallback_t\000"
 2717      616C6C62 
 2717      61636B5F 
 2717      7400
 2718              	.LASF42:
 2719 02ba 73746D33 		.ascii	"stm32_tim_t\000"
 2719      325F7469 
 2719      6D5F7400 
 2720              	.LASF74:
 2721 02c6 70657269 		.ascii	"period_cb\000"
 2721      6F645F63 
 2721      6200
 2722              	.LASF36:
 2723 02d0 42445452 		.ascii	"BDTR\000"
 2723      00
 2724              	.LASF8:
 2725 02d5 696E7433 		.ascii	"int32_t\000"
 2725      325F7400 
 2726              	.LASF65:
 2727 02dd 4943555F 		.ascii	"ICU_INPUT_ACTIVE_LOW\000"
 2727      494E5055 
 2727      545F4143 
 2727      54495645 
 2727      5F4C4F57 
 2728              	.LASF76:
 2729 02f2 6368616E 		.ascii	"channel\000"
 2729      6E656C00 
 2730              	.LASF50:
ARM GAS  C:\Users\DNIEL~1\AppData\Local\Temp\ccBGxBoR.s 			page 53


 2731 02fa 4943555F 		.ascii	"ICU_UNINIT\000"
 2731      554E494E 
 2731      495400
 2732              	.LASF85:
 2733 0305 746D7032 		.ascii	"tmp2\000"
 2733      00
 2734              	.LASF64:
 2735 030a 4943555F 		.ascii	"ICU_INPUT_ACTIVE_HIGH\000"
 2735      494E5055 
 2735      545F4143 
 2735      54495645 
 2735      5F484947 
 2736              	.LASF11:
 2737 0320 6C6F6E67 		.ascii	"long unsigned int\000"
 2737      20756E73 
 2737      69676E65 
 2737      6420696E 
 2737      7400
 2738              	.LASF60:
 2739 0332 636C6F63 		.ascii	"clock\000"
 2739      6B00
 2740              	.LASF82:
 2741 0338 646F7562 		.ascii	"double\000"
 2741      6C6500
 2742              	.LASF54:
 2743 033f 4943555F 		.ascii	"ICU_ACTIVE\000"
 2743      41435449 
 2743      564500
 2744              	.LASF87:
 2745 034a 73706565 		.ascii	"speedCalc\000"
 2745      6443616C 
 2745      6300
 2746              	.LASF99:
 2747 0354 474E5520 		.ascii	"GNU C 4.5.2\000"
 2747      4320342E 
 2747      352E3200 
 2748              	.LASF35:
 2749 0360 5F726573 		.ascii	"_resvd10\000"
 2749      76643130 
 2749      00
 2750              	.LASF75:
 2751 0369 6F766572 		.ascii	"overflow_cb\000"
 2751      666C6F77 
 2751      5F636200 
 2752              	.LASF38:
 2753 0375 5F726573 		.ascii	"_resvd12\000"
 2753      76643132 
 2753      00
 2754              	.LASF100:
 2755 037e 7372632F 		.ascii	"src/speed.c\000"
 2755      73706565 
 2755      642E6300 
 2756              	.LASF101:
 2757 038a 433A5C55 		.ascii	"C:\\Users\\D\341niel\\Dropbox\\Solar Racing\\Szoftv"
 2757      73657273 
 2757      5C44E16E 
 2757      69656C5C 
ARM GAS  C:\Users\DNIEL~1\AppData\Local\Temp\ccBGxBoR.s 			page 54


 2757      44726F70 
 2758 03b5 65725C53 		.ascii	"er\\Smarty\\Smarty_v6\\smarty\\firmware\000"
 2758      6D617274 
 2758      795C536D 
 2758      61727479 
 2758      5F76365C 
 2759              	.LASF57:
 2760 03d9 49435544 		.ascii	"ICUDriver\000"
 2760      72697665 
 2760      7200
 2761              	.LASF72:
 2762 03e3 66726571 		.ascii	"frequency\000"
 2762      75656E63 
 2762      7900
 2763              	.LASF94:
 2764 03ed 72706D5F 		.ascii	"rpm_index\000"
 2764      696E6465 
 2764      7800
 2765              	.LASF52:
 2766 03f7 4943555F 		.ascii	"ICU_READY\000"
 2766      52454144 
 2766      5900
 2767              	.LASF49:
 2768 0401 42617365 		.ascii	"BaseChannel\000"
 2768      4368616E 
 2768      6E656C00 
 2769              	.LASF91:
 2770 040d 49544D5F 		.ascii	"ITM_RxBuffer\000"
 2770      52784275 
 2770      66666572 
 2770      00
 2771              	.LASF20:
 2772 041a 5F726573 		.ascii	"_resvd0\000"
 2772      76643000 
 2773              	.LASF21:
 2774 0422 5F726573 		.ascii	"_resvd1\000"
 2774      76643100 
 2775              	.LASF23:
 2776 042a 5F726573 		.ascii	"_resvd2\000"
 2776      76643200 
 2777              	.LASF14:
 2778 0432 6D73675F 		.ascii	"msg_t\000"
 2778      7400
 2779              	.LASF56:
 2780 0438 69637573 		.ascii	"icustate_t\000"
 2780      74617465 
 2780      5F7400
 2781              	.LASF43:
 2782 0443 42617365 		.ascii	"BaseSequentialStreamVMT\000"
 2782      53657175 
 2782      656E7469 
 2782      616C5374 
 2782      7265616D 
 2783              	.LASF53:
 2784 045b 4943555F 		.ascii	"ICU_WAITING\000"
 2784      57414954 
 2784      494E4700 
ARM GAS  C:\Users\DNIEL~1\AppData\Local\Temp\ccBGxBoR.s 			page 55


 2785              		.ident	"GCC: (Sourcery G++ Lite 2011.03-42) 4.5.2"
ARM GAS  C:\Users\DNIEL~1\AppData\Local\Temp\ccBGxBoR.s 			page 56


DEFINED SYMBOLS
                            *ABS*:00000000 speed.c
C:\Users\DNIEL~1\AppData\Local\Temp\ccBGxBoR.s:24     .text.speedWheelPeriodCb:00000000 $t
C:\Users\DNIEL~1\AppData\Local\Temp\ccBGxBoR.s:29     .text.speedWheelPeriodCb:00000000 speedWheelPeriodCb
C:\Users\DNIEL~1\AppData\Local\Temp\ccBGxBoR.s:50     .text.speedWheelPeriodCb:0000000c $d
C:\Users\DNIEL~1\AppData\Local\Temp\ccBGxBoR.s:55     .text.speedWheelPeriodNumber:00000000 $t
C:\Users\DNIEL~1\AppData\Local\Temp\ccBGxBoR.s:60     .text.speedWheelPeriodNumber:00000000 speedWheelPeriodNumber
C:\Users\DNIEL~1\AppData\Local\Temp\ccBGxBoR.s:79     .text.speedWheelPeriodNumber:0000000c $d
C:\Users\DNIEL~1\AppData\Local\Temp\ccBGxBoR.s:84     .text.speedInit:00000000 $t
C:\Users\DNIEL~1\AppData\Local\Temp\ccBGxBoR.s:90     .text.speedInit:00000000 speedInit
C:\Users\DNIEL~1\AppData\Local\Temp\ccBGxBoR.s:118    .text.speedInit:0000001c $d
C:\Users\DNIEL~1\AppData\Local\Temp\ccBGxBoR.s:129    .text.speedCalc:00000000 $t
C:\Users\DNIEL~1\AppData\Local\Temp\ccBGxBoR.s:135    .text.speedCalc:00000000 speedCalc
C:\Users\DNIEL~1\AppData\Local\Temp\ccBGxBoR.s:234    .text.speedCalc:0000008c $d
C:\Users\DNIEL~1\AppData\Local\Temp\ccBGxBoR.s:244    .text.speedGetLastPeriod:00000000 $t
C:\Users\DNIEL~1\AppData\Local\Temp\ccBGxBoR.s:250    .text.speedGetLastPeriod:00000000 speedGetLastPeriod
C:\Users\DNIEL~1\AppData\Local\Temp\ccBGxBoR.s:290    .text.speedGetLastPeriod:00000014 $d
C:\Users\DNIEL~1\AppData\Local\Temp\ccBGxBoR.s:295    .text.speedGetPeriodNumber:00000000 $t
C:\Users\DNIEL~1\AppData\Local\Temp\ccBGxBoR.s:301    .text.speedGetPeriodNumber:00000000 speedGetPeriodNumber
C:\Users\DNIEL~1\AppData\Local\Temp\ccBGxBoR.s:341    .text.speedGetPeriodNumber:00000014 $d
C:\Users\DNIEL~1\AppData\Local\Temp\ccBGxBoR.s:347    .text.speedGetRpm:00000000 $t
C:\Users\DNIEL~1\AppData\Local\Temp\ccBGxBoR.s:353    .text.speedGetRpm:00000000 speedGetRpm
C:\Users\DNIEL~1\AppData\Local\Temp\ccBGxBoR.s:394    .text.speedGetRpm:0000001c $d
C:\Users\DNIEL~1\AppData\Local\Temp\ccBGxBoR.s:399    .text.cmd_speedvalues:00000000 $t
C:\Users\DNIEL~1\AppData\Local\Temp\ccBGxBoR.s:405    .text.cmd_speedvalues:00000000 cmd_speedvalues
C:\Users\DNIEL~1\AppData\Local\Temp\ccBGxBoR.s:480    .text.cmd_speedvalues:00000060 $d
C:\Users\DNIEL~1\AppData\Local\Temp\ccBGxBoR.s:493    .bss.speed_last_period:00000000 $d
C:\Users\DNIEL~1\AppData\Local\Temp\ccBGxBoR.s:497    .bss.speed_last_period:00000000 speed_last_period
C:\Users\DNIEL~1\AppData\Local\Temp\ccBGxBoR.s:500    .bss.rotation:00000000 $d
C:\Users\DNIEL~1\AppData\Local\Temp\ccBGxBoR.s:504    .bss.rotation:00000000 rotation
C:\Users\DNIEL~1\AppData\Local\Temp\ccBGxBoR.s:507    .rodata.str1.4:00000000 $d
C:\Users\DNIEL~1\AppData\Local\Temp\ccBGxBoR.s:525    .bss.rpm_index:00000000 $d
C:\Users\DNIEL~1\AppData\Local\Temp\ccBGxBoR.s:529    .bss.rpm_index:00000000 rpm_index
C:\Users\DNIEL~1\AppData\Local\Temp\ccBGxBoR.s:532    .bss.rpm_buff:00000000 $d
C:\Users\DNIEL~1\AppData\Local\Temp\ccBGxBoR.s:536    .bss.rpm_buff:00000000 rpm_buff
C:\Users\DNIEL~1\AppData\Local\Temp\ccBGxBoR.s:539    .bss.speed_period_num:00000000 $d
C:\Users\DNIEL~1\AppData\Local\Temp\ccBGxBoR.s:543    .bss.speed_period_num:00000000 speed_period_num
C:\Users\DNIEL~1\AppData\Local\Temp\ccBGxBoR.s:546    .data.icucfg:00000000 $d
C:\Users\DNIEL~1\AppData\Local\Temp\ccBGxBoR.s:550    .data.icucfg:00000000 icucfg
                     .debug_frame:00000010 $d
C:\Users\DNIEL~1\AppData\Local\Temp\ccBGxBoR.s:128    .text.speedInit:00000028 $t
C:\Users\DNIEL~1\AppData\Local\Temp\ccBGxBoR.s:243    .text.speedCalc:000000a4 $t
C:\Users\DNIEL~1\AppData\Local\Temp\ccBGxBoR.s:294    .text.speedGetLastPeriod:00000018 $t
C:\Users\DNIEL~1\AppData\Local\Temp\ccBGxBoR.s:346    .text.speedGetPeriodNumber:00000018 $t
C:\Users\DNIEL~1\AppData\Local\Temp\ccBGxBoR.s:492    .text.cmd_speedvalues:00000084 $t

UNDEFINED SYMBOLS
icuStart
icuEnable
ICUD1
__aeabi_ui2d
__aeabi_dadd
__aeabi_ddiv
__aeabi_dcmplt
__aeabi_d2uiz
chprintf
chThdSleep
ARM GAS  C:\Users\DNIEL~1\AppData\Local\Temp\ccBGxBoR.s 			page 57


