ARM GAS  C:\Users\DNIEL~1\AppData\Local\Temp\ccYKK2eE.s 			page 1


   1              		.syntax unified
   2              		.cpu cortex-m4
   3              		.fpu softvfp
   4              		.eabi_attribute 20, 1
   5              		.eabi_attribute 21, 1
   6              		.eabi_attribute 23, 3
   7              		.eabi_attribute 24, 1
   8              		.eabi_attribute 25, 1
   9              		.eabi_attribute 26, 1
  10              		.eabi_attribute 30, 2
  11              		.eabi_attribute 34, 1
  12              		.eabi_attribute 18, 4
  13              		.thumb
  14              		.file	"speed.c"
  15              		.text
  16              	.Ltext0:
  17              		.cfi_sections	.debug_frame
  18              		.section	.text.speedWheelPeriodCb,"ax",%progbits
  19              		.align	2
  20              		.p2align 4,,15
  21              		.thumb
  22              		.thumb_func
  23              		.type	speedWheelPeriodCb, %function
  24              	speedWheelPeriodCb:
  25              	.LFB119:
  26              		.file 1 "src/speed.c"
  27              		.loc 1 38 0
  28              		.cfi_startproc
  29              		@ args = 0, pretend = 0, frame = 0
  30              		@ frame_needed = 0, uses_anonymous_args = 0
  31              		@ link register save eliminated.
  32              	.LVL0:
  33              		.loc 1 39 0
  34 0000 4269     		ldr	r2, [r0, #20]
  35 0002 40F20003 		movw	r3, #:lower16:.LANCHOR0
  36 0006 1068     		ldr	r0, [r2, #0]
  37              	.LVL1:
  38 0008 C0F20003 		movt	r3, #:upper16:.LANCHOR0
  39 000c 411C     		adds	r1, r0, #1
  40 000e 1960     		str	r1, [r3, #0]
  41 0010 7047     		bx	lr
  42              		.cfi_endproc
  43              	.LFE119:
  44              		.size	speedWheelPeriodCb, .-speedWheelPeriodCb
  45 0012 00BFAFF3 		.section	.text.speedWheelPeriodNumber,"ax",%progbits
  45      0080AFF3 
  45      0080AFF3 
  45      0080
  46              		.align	2
  47              		.p2align 4,,15
  48              		.thumb
  49              		.thumb_func
  50              		.type	speedWheelPeriodNumber, %function
  51              	speedWheelPeriodNumber:
  52              	.LFB120:
  53              		.loc 1 42 0
  54              		.cfi_startproc
ARM GAS  C:\Users\DNIEL~1\AppData\Local\Temp\ccYKK2eE.s 			page 2


  55              		@ args = 0, pretend = 0, frame = 0
  56              		@ frame_needed = 0, uses_anonymous_args = 0
  57              		@ link register save eliminated.
  58              	.LVL2:
  59              		.loc 1 44 0
  60 0000 40F20003 		movw	r3, #:lower16:.LANCHOR1
  61 0004 C0F20003 		movt	r3, #:upper16:.LANCHOR1
  62 0008 1A68     		ldr	r2, [r3, #0]
  63 000a 501C     		adds	r0, r2, #1
  64              	.LVL3:
  65 000c 1860     		str	r0, [r3, #0]
  66 000e 7047     		bx	lr
  67              		.cfi_endproc
  68              	.LFE120:
  69              		.size	speedWheelPeriodNumber, .-speedWheelPeriodNumber
  70              		.section	.text.chprintf,"ax",%progbits
  71              		.align	2
  72              		.p2align 4,,15
  73              		.thumb
  74              		.thumb_func
  75              		.type	chprintf, %function
  76              	chprintf:
  77              	.LFB118:
  78              		.file 2 "../../../ChibiOS/os/various/chprintf.h"
  79              		.loc 2 69 0
  80              		.cfi_startproc
  81              		@ args = 4, pretend = 12, frame = 8
  82              		@ frame_needed = 0, uses_anonymous_args = 1
  83              	.LVL4:
  84 0000 0EB4     		push	{r1, r2, r3}
  85              	.LCFI0:
  86              		.cfi_def_cfa_offset 12
  87              		.cfi_offset 1, -12
  88              		.cfi_offset 2, -8
  89              		.cfi_offset 3, -4
  90 0002 00B5     		push	{lr}
  91              	.LCFI1:
  92              		.cfi_def_cfa_offset 16
  93              		.cfi_offset 14, -16
  94 0004 82B0     		sub	sp, sp, #8
  95              	.LCFI2:
  96              		.cfi_def_cfa_offset 24
  97              		.loc 2 69 0
  98 0006 03AB     		add	r3, sp, #12
  99 0008 53F8041B 		ldr	r1, [r3], #4
 100              		.loc 2 73 0
 101 000c 1A46     		mov	r2, r3
 102              		.loc 2 72 0
 103 000e 0193     		str	r3, [sp, #4]
 104              		.loc 2 73 0
 105 0010 FFF7FEFF 		bl	chvprintf
 106              	.LVL5:
 107              		.loc 2 75 0
 108 0014 02B0     		add	sp, sp, #8
 109 0016 5DF804EB 		pop	{lr}
 110 001a 03B0     		add	sp, sp, #12
 111 001c 7047     		bx	lr
ARM GAS  C:\Users\DNIEL~1\AppData\Local\Temp\ccYKK2eE.s 			page 3


 112              		.cfi_endproc
 113              	.LFE118:
 114              		.size	chprintf, .-chprintf
 115 001e 00BF     		.section	.text.speedInit,"ax",%progbits
 116              		.align	2
 117              		.p2align 4,,15
 118              		.global	speedInit
 119              		.thumb
 120              		.thumb_func
 121              		.type	speedInit, %function
 122              	speedInit:
 123              	.LFB121:
 124              		.loc 1 47 0
 125              		.cfi_startproc
 126              		@ args = 0, pretend = 0, frame = 0
 127              		@ frame_needed = 0, uses_anonymous_args = 0
 128 0000 10B5     		push	{r4, lr}
 129              	.LCFI3:
 130              		.cfi_def_cfa_offset 8
 131              		.cfi_offset 4, -8
 132              		.cfi_offset 14, -4
 133              		.loc 1 52 0
 134 0002 40F20004 		movw	r4, #:lower16:ICUD1
 135 0006 C0F20004 		movt	r4, #:upper16:ICUD1
 136 000a 40F20001 		movw	r1, #:lower16:.LANCHOR2
 137 000e C0F20001 		movt	r1, #:upper16:.LANCHOR2
 138 0012 2046     		mov	r0, r4
 139 0014 FFF7FEFF 		bl	icuStart
 140              	.LVL6:
 141              		.loc 1 53 0
 142 0018 2046     		mov	r0, r4
 143 001a FFF7FEFF 		bl	icuEnable
 144              	.LVL7:
 145              		.loc 1 55 0
 146 001e 40F20003 		movw	r3, #:lower16:.LANCHOR1
 147 0022 C0F20003 		movt	r3, #:upper16:.LANCHOR1
 148 0026 0022     		movs	r2, #0
 149 0028 1A60     		str	r2, [r3, #0]
 150 002a 10BD     		pop	{r4, pc}
 151              		.cfi_endproc
 152              	.LFE121:
 153              		.size	speedInit, .-speedInit
 154              		.global	__aeabi_ui2d
 155              		.global	__aeabi_dadd
 156              		.global	__aeabi_ddiv
 157              		.global	__aeabi_dcmplt
 158 002c AFF30080 		.section	.text.speedCalc,"ax",%progbits
 159              		.align	2
 160              		.p2align 4,,15
 161              		.global	speedCalc
 162              		.thumb
 163              		.thumb_func
 164              		.type	speedCalc, %function
 165              	speedCalc:
 166              	.LFB122:
 167              		.loc 1 58 0
 168              		.cfi_startproc
ARM GAS  C:\Users\DNIEL~1\AppData\Local\Temp\ccYKK2eE.s 			page 4


 169              		@ args = 0, pretend = 0, frame = 0
 170              		@ frame_needed = 0, uses_anonymous_args = 0
 171 0000 2DE9F843 		push	{r3, r4, r5, r6, r7, r8, r9, lr}
 172              	.LCFI4:
 173              		.cfi_def_cfa_offset 32
 174              		.cfi_offset 3, -32
 175              		.cfi_offset 4, -28
 176              		.cfi_offset 5, -24
 177              		.cfi_offset 6, -20
 178              		.cfi_offset 7, -16
 179              		.cfi_offset 8, -12
 180              		.cfi_offset 9, -8
 181              		.cfi_offset 14, -4
 182              		.loc 1 62 0
 183 0004 244B     		ldr	r3, .L15
 184              		.loc 1 64 0
 185 0006 254D     		ldr	r5, .L15+4
 186              		.loc 1 62 0
 187 0008 1A68     		ldr	r2, [r3, #0]
 188 000a 254E     		ldr	r6, .L15+8
 189 000c 02EB4200 		add	r0, r2, r2, lsl #1
 190 0010 4FF40741 		mov	r1, #34560
 191 0014 0401     		lsls	r4, r0, #4
 192 0016 C0F29331 		movt	r1, 915
 193 001a B1FBF4F0 		udiv	r0, r1, r4
 194 001e FFF7FEFF 		bl	__aeabi_ui2d
 195              	.LVL8:
 196              		.loc 1 64 0
 197 0022 2F68     		ldr	r7, [r5, #0]
 198              		.loc 1 68 0
 199 0024 1F4B     		ldr	r3, .L15+12
 200              		.loc 1 64 0
 201 0026 7A1C     		adds	r2, r7, #1
 202              		.loc 1 65 0
 203 0028 2F2A     		cmp	r2, #47
 204              		.loc 1 66 0
 205 002a C8BF     		it	gt
 206 002c 0022     		movgt	r2, #0
 207              		.loc 1 62 0
 208 002e C6E90001 		strd	r0, [r6]
 209              		.loc 1 68 0
 210 0032 03EBC204 		add	r4, r3, r2, lsl #3
 211              		.loc 1 66 0
 212 0036 2A60     		str	r2, [r5, #0]
 213              		.loc 1 68 0
 214 0038 C4E90001 		strd	r0, [r4]
 215              	.LVL9:
 216 003c A3F10807 		sub	r7, r3, #8
 217              		.loc 1 58 0
 218 0040 03F5BC79 		add	r9, r3, #376
 219              		.loc 1 69 0
 220 0044 0024     		movs	r4, #0
 221 0046 0025     		movs	r5, #0
 222              	.LVL10:
 223              	.L8:
 224              		.loc 1 71 0 discriminator 2
 225 0048 D7E90223 		ldrd	r2, [r7, #8]
ARM GAS  C:\Users\DNIEL~1\AppData\Local\Temp\ccYKK2eE.s 			page 5


 226 004c 07F10808 		add	r8, r7, #8
 227 0050 2046     		mov	r0, r4
 228 0052 2946     		mov	r1, r5
 229 0054 FFF7FEFF 		bl	__aeabi_dadd
 230              	.LVL11:
 231 0058 D8E90223 		ldrd	r2, [r8, #8]
 232 005c FFF7FEFF 		bl	__aeabi_dadd
 233              	.LVL12:
 234 0060 1037     		adds	r7, r7, #16
 235              		.loc 1 70 0 discriminator 2
 236 0062 4F45     		cmp	r7, r9
 237              		.loc 1 71 0 discriminator 2
 238 0064 0446     		mov	r4, r0
 239              	.LVL13:
 240 0066 0D46     		mov	r5, r1
 241              	.LVL14:
 242              		.loc 1 70 0 discriminator 2
 243 0068 EED1     		bne	.L8
 244              		.loc 1 73 0
 245 006a 0023     		movs	r3, #0
 246 006c 0022     		movs	r2, #0
 247 006e C4F24803 		movt	r3, 16456
 248 0072 FFF7FEFF 		bl	__aeabi_ddiv
 249              	.LVL15:
 250              		.loc 1 74 0
 251 0076 0024     		movs	r4, #0
 252              	.LVL16:
 253 0078 0025     		movs	r5, #0
 254 007a 2246     		mov	r2, r4
 255 007c 2B46     		mov	r3, r5
 256              		.loc 1 73 0
 257 007e 8046     		mov	r8, r0
 258 0080 8946     		mov	r9, r1
 259              		.loc 1 74 0
 260 0082 FFF7FEFF 		bl	__aeabi_dcmplt
 261              	.LVL17:
 262 0086 18B9     		cbnz	r0, .L9
 263              		.loc 1 73 0
 264 0088 C6E90089 		strd	r8, [r6]
 265 008c BDE8F883 		pop	{r3, r4, r5, r6, r7, r8, r9, pc}
 266              	.L9:
 267              		.loc 1 75 0
 268 0090 C6E90045 		strd	r4, [r6]
 269 0094 BDE8F883 		pop	{r3, r4, r5, r6, r7, r8, r9, pc}
 270              	.L16:
 271              		.align	2
 272              	.L15:
 273 0098 00000000 		.word	.LANCHOR0
 274 009c 00000000 		.word	.LANCHOR4
 275 00a0 00000000 		.word	.LANCHOR3
 276 00a4 00000000 		.word	.LANCHOR5
 277              		.cfi_endproc
 278              	.LFE122:
 279              		.size	speedCalc, .-speedCalc
 280 00a8 AFF30080 		.section	.text.speedGetLastPeriod,"ax",%progbits
 280      AFF30080 
 281              		.align	2
ARM GAS  C:\Users\DNIEL~1\AppData\Local\Temp\ccYKK2eE.s 			page 6


 282              		.p2align 4,,15
 283              		.global	speedGetLastPeriod
 284              		.thumb
 285              		.thumb_func
 286              		.type	speedGetLastPeriod, %function
 287              	speedGetLastPeriod:
 288              	.LFB123:
 289              		.loc 1 86 0
 290              		.cfi_startproc
 291              		@ args = 0, pretend = 0, frame = 0
 292              		@ frame_needed = 0, uses_anonymous_args = 0
 293              		@ link register save eliminated.
 294              	.LBB2:
 295              		.loc 1 89 0
 296 0000 2023     		movs	r3, #32
 297              	.LVL18:
 298              	@ 89 "src/speed.c" 1
 299 0002 83F31188 		msr     BASEPRI, r3
 300              	@ 0 "" 2
 301              	.LVL19:
 302              		.thumb
 303              	.LBE2:
 304              		.loc 1 90 0
 305 0006 40F20002 		movw	r2, #:lower16:.LANCHOR0
 306 000a C0F20002 		movt	r2, #:upper16:.LANCHOR0
 307              	.LBB3:
 308              		.loc 1 91 0
 309 000e 0023     		movs	r3, #0
 310              	.LVL20:
 311              	.LBE3:
 312              		.loc 1 90 0
 313 0010 1068     		ldr	r0, [r2, #0]
 314              	.LVL21:
 315              	.LBB4:
 316              		.loc 1 91 0
 317              	@ 91 "src/speed.c" 1
 318 0012 83F31188 		msr     BASEPRI, r3
 319              	@ 0 "" 2
 320              	.LVL22:
 321              		.thumb
 322              	.LBE4:
 323              		.loc 1 93 0
 324 0016 7047     		bx	lr
 325              		.cfi_endproc
 326              	.LFE123:
 327              		.size	speedGetLastPeriod, .-speedGetLastPeriod
 328              		.section	.text.speedGetPeriodNumber,"ax",%progbits
 329              		.align	2
 330              		.p2align 4,,15
 331              		.global	speedGetPeriodNumber
 332              		.thumb
 333              		.thumb_func
 334              		.type	speedGetPeriodNumber, %function
 335              	speedGetPeriodNumber:
 336              	.LFB124:
 337              		.loc 1 95 0
 338              		.cfi_startproc
ARM GAS  C:\Users\DNIEL~1\AppData\Local\Temp\ccYKK2eE.s 			page 7


 339              		@ args = 0, pretend = 0, frame = 0
 340              		@ frame_needed = 0, uses_anonymous_args = 0
 341              		@ link register save eliminated.
 342              	.LBB5:
 343              		.loc 1 98 0
 344 0000 2023     		movs	r3, #32
 345              	.LVL23:
 346              	@ 98 "src/speed.c" 1
 347 0002 83F31188 		msr     BASEPRI, r3
 348              	@ 0 "" 2
 349              	.LVL24:
 350              		.thumb
 351              	.LBE5:
 352              		.loc 1 99 0
 353 0006 40F20002 		movw	r2, #:lower16:.LANCHOR1
 354 000a C0F20002 		movt	r2, #:upper16:.LANCHOR1
 355              	.LBB6:
 356              		.loc 1 100 0
 357 000e 0023     		movs	r3, #0
 358              	.LVL25:
 359              	.LBE6:
 360              		.loc 1 99 0
 361 0010 1068     		ldr	r0, [r2, #0]
 362              	.LVL26:
 363              	.LBB7:
 364              		.loc 1 100 0
 365              	@ 100 "src/speed.c" 1
 366 0012 83F31188 		msr     BASEPRI, r3
 367              	@ 0 "" 2
 368              	.LVL27:
 369              		.thumb
 370              	.LBE7:
 371              		.loc 1 102 0
 372 0016 7047     		bx	lr
 373              		.cfi_endproc
 374              	.LFE124:
 375              		.size	speedGetPeriodNumber, .-speedGetPeriodNumber
 376              		.global	__aeabi_d2uiz
 377 0018 AFF30080 		.section	.text.speedGetRpm,"ax",%progbits
 377      AFF30080 
 378              		.align	2
 379              		.p2align 4,,15
 380              		.global	speedGetRpm
 381              		.thumb
 382              		.thumb_func
 383              		.type	speedGetRpm, %function
 384              	speedGetRpm:
 385              	.LFB125:
 386              		.loc 1 104 0
 387              		.cfi_startproc
 388              		@ args = 0, pretend = 0, frame = 0
 389              		@ frame_needed = 0, uses_anonymous_args = 0
 390 0000 08B5     		push	{r3, lr}
 391              	.LCFI5:
 392              		.cfi_def_cfa_offset 8
 393              		.cfi_offset 3, -8
 394              		.cfi_offset 14, -4
ARM GAS  C:\Users\DNIEL~1\AppData\Local\Temp\ccYKK2eE.s 			page 8


 395              	.LBB8:
 396              		.loc 1 107 0
 397 0002 2023     		movs	r3, #32
 398              	.LVL28:
 399              	@ 107 "src/speed.c" 1
 400 0004 83F31188 		msr     BASEPRI, r3
 401              	@ 0 "" 2
 402              	.LVL29:
 403              		.thumb
 404              	.LBE8:
 405              		.loc 1 108 0
 406 0008 40F20003 		movw	r3, #:lower16:.LANCHOR3
 407              	.LVL30:
 408 000c C0F20003 		movt	r3, #:upper16:.LANCHOR3
 409 0010 D3E90001 		ldrd	r0, [r3]
 410 0014 FFF7FEFF 		bl	__aeabi_d2uiz
 411              	.LVL31:
 412              	.LBB9:
 413              		.loc 1 109 0
 414 0018 0023     		movs	r3, #0
 415              	.LVL32:
 416              	@ 109 "src/speed.c" 1
 417 001a 83F31188 		msr     BASEPRI, r3
 418              	@ 0 "" 2
 419              	.LVL33:
 420              		.thumb
 421              	.LBE9:
 422              		.loc 1 111 0
 423 001e 08BD     		pop	{r3, pc}
 424              		.cfi_endproc
 425              	.LFE125:
 426              		.size	speedGetRpm, .-speedGetRpm
 427              		.section	.text.cmd_speedvalues,"ax",%progbits
 428              		.align	2
 429              		.p2align 4,,15
 430              		.global	cmd_speedvalues
 431              		.thumb
 432              		.thumb_func
 433              		.type	cmd_speedvalues, %function
 434              	cmd_speedvalues:
 435              	.LFB126:
 436              		.loc 1 113 0
 437              		.cfi_startproc
 438              		@ args = 0, pretend = 0, frame = 0
 439              		@ frame_needed = 0, uses_anonymous_args = 0
 440              	.LVL34:
 441 0000 F8B5     		push	{r3, r4, r5, r6, r7, lr}
 442              	.LCFI6:
 443              		.cfi_def_cfa_offset 24
 444              		.cfi_offset 3, -24
 445              		.cfi_offset 4, -20
 446              		.cfi_offset 5, -16
 447              		.cfi_offset 6, -12
 448              		.cfi_offset 7, -8
 449              		.cfi_offset 14, -4
 450              		.loc 1 117 0
 451 0002 1749     		ldr	r1, .L23
ARM GAS  C:\Users\DNIEL~1\AppData\Local\Temp\ccYKK2eE.s 			page 9


 452              	.LVL35:
 453              		.loc 1 122 0
 454 0004 174F     		ldr	r7, .L23+4
 455              		.loc 1 123 0
 456 0006 184E     		ldr	r6, .L23+8
 457              		.loc 1 124 0
 458 0008 184D     		ldr	r5, .L23+12
 459              		.loc 1 113 0
 460 000a 0446     		mov	r4, r0
 461              		.loc 1 117 0
 462 000c FFF7FEFF 		bl	chprintf
 463              	.LVL36:
 464              		.loc 1 118 0
 465 0010 2046     		mov	r0, r4
 466 0012 1749     		ldr	r1, .L23+16
 467 0014 FFF7FEFF 		bl	chprintf
 468              	.LVL37:
 469              		.loc 1 119 0
 470 0018 15E0     		b	.L21
 471              	.LVL38:
 472              	.L22:
 473              		.loc 1 120 0
 474 001a FFF7FEFF 		bl	chprintf
 475              	.LVL39:
 476              		.loc 1 122 0
 477 001e 2046     		mov	r0, r4
 478 0020 1449     		ldr	r1, .L23+20
 479 0022 3A68     		ldr	r2, [r7, #0]
 480 0024 FFF7FEFF 		bl	chprintf
 481              	.LVL40:
 482              		.loc 1 123 0
 483 0028 2046     		mov	r0, r4
 484 002a 1349     		ldr	r1, .L23+24
 485 002c 3268     		ldr	r2, [r6, #0]
 486 002e FFF7FEFF 		bl	chprintf
 487              	.LVL41:
 488              		.loc 1 124 0
 489 0032 2046     		mov	r0, r4
 490 0034 1149     		ldr	r1, .L23+28
 491 0036 D5E90023 		ldrd	r2, [r5]
 492 003a FFF7FEFF 		bl	chprintf
 493              	.LVL42:
 494              		.loc 1 125 0
 495 003e 4FF47A70 		mov	r0, #1000
 496 0042 FFF7FEFF 		bl	chThdSleep
 497              	.LVL43:
 498              	.L21:
 499              		.loc 1 119 0 discriminator 1
 500 0046 2368     		ldr	r3, [r4, #0]
 501 0048 0021     		movs	r1, #0
 502 004a 5A69     		ldr	r2, [r3, #20]
 503 004c 2046     		mov	r0, r4
 504 004e 9047     		blx	r2
 505              	.LVL44:
 506              		.loc 1 120 0 discriminator 1
 507 0050 0022     		movs	r2, #0
 508              		.loc 1 119 0 discriminator 1
ARM GAS  C:\Users\DNIEL~1\AppData\Local\Temp\ccYKK2eE.s 			page 10


 509 0052 0130     		adds	r0, r0, #1
 510              		.loc 1 120 0 discriminator 1
 511 0054 1346     		mov	r3, r2
 512 0056 0A49     		ldr	r1, .L23+32
 513 0058 2046     		mov	r0, r4
 514              		.loc 1 119 0 discriminator 1
 515 005a DED0     		beq	.L22
 516              	.LVL45:
 517              		.loc 1 127 0
 518 005c F8BD     		pop	{r3, r4, r5, r6, r7, pc}
 519              	.L24:
 520 005e 00BF     		.align	2
 521              	.L23:
 522 0060 00000000 		.word	.LC0
 523 0064 00000000 		.word	.LANCHOR0
 524 0068 00000000 		.word	.LANCHOR1
 525 006c 00000000 		.word	.LANCHOR3
 526 0070 04000000 		.word	.LC1
 527 0074 18000000 		.word	.LC3
 528 0078 34000000 		.word	.LC4
 529 007c 4C000000 		.word	.LC5
 530 0080 0C000000 		.word	.LC2
 531              		.cfi_endproc
 532              	.LFE126:
 533              		.size	cmd_speedvalues, .-cmd_speedvalues
 534 0084 AFF30080 		.section	.bss.speed_last_period,"aw",%nobits
 534      AFF30080 
 534      AFF30080 
 535              		.align	2
 536              		.set	.LANCHOR0,. + 0
 537              		.type	speed_last_period, %object
 538              		.size	speed_last_period, 4
 539              	speed_last_period:
 540 0000 00000000 		.space	4
 541              		.section	.bss.rotation,"aw",%nobits
 542              		.align	3
 543              		.set	.LANCHOR3,. + 0
 544              		.type	rotation, %object
 545              		.size	rotation, 8
 546              	rotation:
 547 0000 00000000 		.space	8
 547      00000000 
 548              		.section	.rodata.str1.4,"aMS",%progbits,1
 549              		.align	2
 550              	.LC0:
 551 0000 1B6300   		.ascii	"\033c\000"
 552 0003 00       		.space	1
 553              	.LC1:
 554 0004 1B5B324A 		.ascii	"\033[2J\000"
 554      00
 555 0009 000000   		.space	3
 556              	.LC2:
 557 000c 1B5B2564 		.ascii	"\033[%d;%dH\000"
 557      3B256448 
 557      00
 558 0015 000000   		.space	3
 559              	.LC3:
ARM GAS  C:\Users\DNIEL~1\AppData\Local\Temp\ccYKK2eE.s 			page 11


 560 0018 73706565 		.ascii	"speed_last_period: %5d\015\012\000"
 560      645F6C61 
 560      73745F70 
 560      6572696F 
 560      643A2025 
 561 0031 000000   		.space	3
 562              	.LC4:
 563 0034 73706565 		.ascii	"speed_period_num: %5d\015\012\000"
 563      645F7065 
 563      72696F64 
 563      5F6E756D 
 563      3A202535 
 564              	.LC5:
 565 004c 72706D3A 		.ascii	"rpm: %5d\015\012\000"
 565      20253564 
 565      0D0A00
 566 0057 00       		.section	.bss.rpm_index,"aw",%nobits
 567              		.align	2
 568              		.set	.LANCHOR4,. + 0
 569              		.type	rpm_index, %object
 570              		.size	rpm_index, 4
 571              	rpm_index:
 572 0000 00000000 		.space	4
 573              		.section	.bss.rpm_buff,"aw",%nobits
 574              		.align	3
 575              		.set	.LANCHOR5,. + 0
 576              		.type	rpm_buff, %object
 577              		.size	rpm_buff, 384
 578              	rpm_buff:
 579 0000 00000000 		.space	384
 579      00000000 
 579      00000000 
 579      00000000 
 579      00000000 
 580              		.section	.bss.speed_period_num,"aw",%nobits
 581              		.align	2
 582              		.set	.LANCHOR1,. + 0
 583              		.type	speed_period_num, %object
 584              		.size	speed_period_num, 4
 585              	speed_period_num:
 586 0000 00000000 		.space	4
 587              		.section	.data.icucfg,"aw",%progbits
 588              		.align	2
 589              		.set	.LANCHOR2,. + 0
 590              		.type	icucfg, %object
 591              		.size	icucfg, 28
 592              	icucfg:
 593 0000 00       		.byte	0
 594 0001 000000   		.space	3
 595 0004 40420F00 		.word	1000000
 596 0008 00000000 		.word	speedWheelPeriodNumber
 597 000c 00000000 		.word	speedWheelPeriodCb
 598 0010 00000000 		.word	0
 599 0014 00       		.byte	0
 600 0015 000000   		.space	3
 601 0018 00000000 		.word	0
 602              		.text
ARM GAS  C:\Users\DNIEL~1\AppData\Local\Temp\ccYKK2eE.s 			page 12


 603              	.Letext0:
 604              		.file 3 "c:\\chibistudio\\tools\\gnu tools arm embedded\\4.7 2014q2\\bin\\../lib/gcc/arm-none-eabi
 605              		.file 4 "c:\\chibistudio\\tools\\gnu tools arm embedded\\4.7 2014q2\\bin\\../lib/gcc/arm-none-eabi
 606              		.file 5 "../../../ChibiOS/os/ports/GCC/ARMCMx/chtypes.h"
 607              		.file 6 "../../../ChibiOS/os/kernel/include/chstreams.h"
 608              		.file 7 "../../../ChibiOS/os/hal/include/io_channel.h"
 609              		.file 8 "../../../ChibiOS/os/hal/include/icu.h"
 610              		.file 9 "../../../ChibiOS/os/hal/platforms/STM32/TIMv1/icu_lld.h"
 611              		.file 10 "../../../ChibiOS/os/hal/platforms/STM32/TIMv1/stm32_tim.h"
 612              		.file 11 "c:\\chibistudio\\tools\\gnu tools arm embedded\\4.7 2014q2\\bin\\../lib/gcc/arm-none-eab
 613              		.file 12 "<built-in>"
 614              		.file 13 "../../../ChibiOS/os/ports/common/ARMCMx/CMSIS/include/core_cm4.h"
 615              		.file 14 "../../../ChibiOS/os/kernel/include/chthreads.h"