ARM GAS  C:\Users\DNIEL~1\AppData\Local\Temp\ccMdX93K.s 			page 1


   1              		.syntax unified
   2              		.cpu cortex-m4
   3              		.fpu softvfp
   4              		.eabi_attribute 20, 1
   5              		.eabi_attribute 21, 1
   6              		.eabi_attribute 23, 3
   7              		.eabi_attribute 24, 1
   8              		.eabi_attribute 25, 1
   9              		.eabi_attribute 26, 1
  10              		.eabi_attribute 30, 2
  11              		.eabi_attribute 18, 4
  12              		.thumb
  13              		.file	"spi.c"
  20 0000 47040000 		.text
  20      0200EC02 
  20      00000201 
  20      FB0E0D00 
  20      01010101 
  21              	.Ltext0:
  22              		.cfi_sections	.debug_frame
  23              		.section	.text.spiInit,"ax",%progbits
  24              		.align	2
  25              		.p2align 4,,15
  26              		.global	spiInit
  27              		.thumb
  28              		.thumb_func
  29              		.type	spiInit, %function
  30              	spiInit:
  31              	.LFB118:
  32              		.file 1 "../../../ChibiOS/os/hal/src/spi.c"
  33              		.loc 1 61 0
  34              		.cfi_startproc
  35              		@ args = 0, pretend = 0, frame = 0
  36              		@ frame_needed = 0, uses_anonymous_args = 0
  37              		@ link register save eliminated.
  38              		.loc 1 64 0
  39              		.loc 1 63 0
  40 0000 FFF7FEBF 		b	spi_lld_init
  41              		.cfi_endproc
  42              	.LFE118:
  43              		.size	spiInit, .-spiInit
  44 0004 AFF30080 		.section	.text.spiObjectInit,"ax",%progbits
  44      AFF30080 
  44      AFF30080 
  45              		.align	2
  46              		.p2align 4,,15
  47              		.global	spiObjectInit
  48              		.thumb
  49              		.thumb_func
  50              		.type	spiObjectInit, %function
  51              	spiObjectInit:
ARM GAS  C:\Users\DNIEL~1\AppData\Local\Temp\ccMdX93K.s 			page 2


  52              	.LFB119:
  53              		.loc 1 73 0
  54              		.cfi_startproc
  55              		@ args = 0, pretend = 0, frame = 0
  56              		@ frame_needed = 0, uses_anonymous_args = 0
  57              		@ link register save eliminated.
  58              	.LVL0:
  59              		.loc 1 76 0
  60 0000 0023     		movs	r3, #0
  61              		.loc 1 75 0
  62 0002 0122     		movs	r2, #1
  63 0004 0270     		strb	r2, [r0, #0]
  64              		.loc 1 76 0
  65 0006 4360     		str	r3, [r0, #4]
  66              		.loc 1 78 0
  67 0008 8360     		str	r3, [r0, #8]
  68              		.loc 1 82 0
  69 000a 0C30     		adds	r0, r0, #12
  70              	.LVL1:
  71              		.loc 1 90 0
  72              		.loc 1 82 0
  73 000c FFF7FEBF 		b	chMtxInit
  74              		.cfi_endproc
  75              	.LFE119:
  76              		.size	spiObjectInit, .-spiObjectInit
  77              		.section	.text.spiStart,"ax",%progbits
  78              		.align	2
  79              		.p2align 4,,15
  80              		.global	spiStart
  81              		.thumb
  82              		.thumb_func
  83              		.type	spiStart, %function
  84              	spiStart:
  85              	.LFB120:
  86              		.loc 1 100 0
  87              		.cfi_startproc
  88              		@ args = 0, pretend = 0, frame = 0
  89              		@ frame_needed = 0, uses_anonymous_args = 0
  90              	.LVL2:
  91 0000 10B5     		push	{r4, lr}
  92              	.LCFI0:
  93              		.cfi_def_cfa_offset 8
  94              	.LBB2:
  95              		.loc 1 104 0
  96 0002 2023     		movs	r3, #32
  97              	.LVL3:
  98              	.LBE2:
  99              		.loc 1 100 0
 100 0004 0446     		mov	r4, r0
 101              		.cfi_offset 14, -4
 102              		.cfi_offset 4, -8
 103              	.LBB3:
 104              		.loc 1 104 0
 105              	@ 104 "../../../ChibiOS/os/hal/src/spi.c" 1
 106 0006 83F31188 		msr     BASEPRI, r3
 107              	@ 0 "" 2
 108              	.LVL4:
ARM GAS  C:\Users\DNIEL~1\AppData\Local\Temp\ccMdX93K.s 			page 3


 109              		.thumb
 110              	.LBE3:
 111              		.loc 1 107 0
 112 000a 4160     		str	r1, [r0, #4]
 113              		.loc 1 108 0
 114 000c FFF7FEFF 		bl	spi_lld_start
 115              	.LVL5:
 116              		.loc 1 109 0
 117 0010 0223     		movs	r3, #2
 118 0012 2370     		strb	r3, [r4, #0]
 119              	.LBB4:
 120              		.loc 1 110 0
 121 0014 0023     		movs	r3, #0
 122              	.LVL6:
 123              	@ 110 "../../../ChibiOS/os/hal/src/spi.c" 1
 124 0016 83F31188 		msr     BASEPRI, r3
 125              	@ 0 "" 2
 126              	.LVL7:
 127              		.thumb
 128              	.LBE4:
 129              		.loc 1 111 0
 130 001a 10BD     		pop	{r4, pc}
 131              		.cfi_endproc
 132              	.LFE120:
 133              		.size	spiStart, .-spiStart
 134 001c AFF30080 		.section	.text.spiStop,"ax",%progbits
 135              		.align	2
 136              		.p2align 4,,15
 137              		.global	spiStop
 138              		.thumb
 139              		.thumb_func
 140              		.type	spiStop, %function
 141              	spiStop:
 142              	.LFB121:
 143              		.loc 1 122 0
 144              		.cfi_startproc
 145              		@ args = 0, pretend = 0, frame = 0
 146              		@ frame_needed = 0, uses_anonymous_args = 0
 147              	.LVL8:
 148 0000 10B5     		push	{r4, lr}
 149              	.LCFI1:
 150              		.cfi_def_cfa_offset 8
 151              	.LBB5:
 152              		.loc 1 126 0
 153 0002 2023     		movs	r3, #32
 154              	.LVL9:
 155              	.LBE5:
 156              		.loc 1 122 0
 157 0004 0446     		mov	r4, r0
 158              		.cfi_offset 14, -4
 159              		.cfi_offset 4, -8
 160              	.LBB6:
 161              		.loc 1 126 0
 162              	@ 126 "../../../ChibiOS/os/hal/src/spi.c" 1
 163 0006 83F31188 		msr     BASEPRI, r3
 164              	@ 0 "" 2
 165              	.LVL10:
ARM GAS  C:\Users\DNIEL~1\AppData\Local\Temp\ccMdX93K.s 			page 4


 166              		.thumb
 167              	.LBE6:
 168              		.loc 1 129 0
 169 000a FFF7FEFF 		bl	spi_lld_unselect
 170              	.LVL11:
 171              		.loc 1 130 0
 172 000e 2046     		mov	r0, r4
 173 0010 FFF7FEFF 		bl	spi_lld_stop
 174              		.loc 1 131 0
 175 0014 0123     		movs	r3, #1
 176 0016 2370     		strb	r3, [r4, #0]
 177              	.LBB7:
 178              		.loc 1 132 0
 179 0018 0023     		movs	r3, #0
 180              	.LVL12:
 181              	@ 132 "../../../ChibiOS/os/hal/src/spi.c" 1
 182 001a 83F31188 		msr     BASEPRI, r3
 183              	@ 0 "" 2
 184              	.LVL13:
 185              		.thumb
 186              	.LBE7:
 187              		.loc 1 133 0
 188 001e 10BD     		pop	{r4, pc}
 189              		.cfi_endproc
 190              	.LFE121:
 191              		.size	spiStop, .-spiStop
 192              		.section	.text.spiSelect,"ax",%progbits
 193              		.align	2
 194              		.p2align 4,,15
 195              		.global	spiSelect
 196              		.thumb
 197              		.thumb_func
 198              		.type	spiSelect, %function
 199              	spiSelect:
 200              	.LFB122:
 201              		.loc 1 142 0
 202              		.cfi_startproc
 203              		@ args = 0, pretend = 0, frame = 0
 204              		@ frame_needed = 0, uses_anonymous_args = 0
 205              	.LVL14:
 206 0000 08B5     		push	{r3, lr}
 207              	.LCFI2:
 208              		.cfi_def_cfa_offset 8
 209              	.LBB8:
 210              		.loc 1 146 0
 211 0002 2023     		movs	r3, #32
 212              		.cfi_offset 14, -4
 213              		.cfi_offset 3, -8
 214              	.LVL15:
 215              	@ 146 "../../../ChibiOS/os/hal/src/spi.c" 1
 216 0004 83F31188 		msr     BASEPRI, r3
 217              	@ 0 "" 2
 218              	.LVL16:
 219              		.thumb
 220              	.LBE8:
 221              		.loc 1 148 0
 222 0008 FFF7FEFF 		bl	spi_lld_select
ARM GAS  C:\Users\DNIEL~1\AppData\Local\Temp\ccMdX93K.s 			page 5


 223              	.LVL17:
 224              	.LBB9:
 225              		.loc 1 149 0
 226 000c 0023     		movs	r3, #0
 227              	.LVL18:
 228              	@ 149 "../../../ChibiOS/os/hal/src/spi.c" 1
 229 000e 83F31188 		msr     BASEPRI, r3
 230              	@ 0 "" 2
 231              	.LVL19:
 232              		.thumb
 233              	.LBE9:
 234              		.loc 1 150 0
 235 0012 08BD     		pop	{r3, pc}
 236              		.cfi_endproc
 237              	.LFE122:
 238              		.size	spiSelect, .-spiSelect
 239 0014 AFF30080 		.section	.text.spiUnselect,"ax",%progbits
 239      AFF30080 
 239      AFF30080 
 240              		.align	2
 241              		.p2align 4,,15
 242              		.global	spiUnselect
 243              		.thumb
 244              		.thumb_func
 245              		.type	spiUnselect, %function
 246              	spiUnselect:
 247              	.LFB123:
 248              		.loc 1 160 0
 249              		.cfi_startproc
 250              		@ args = 0, pretend = 0, frame = 0
 251              		@ frame_needed = 0, uses_anonymous_args = 0
 252              	.LVL20:
 253 0000 08B5     		push	{r3, lr}
 254              	.LCFI3:
 255              		.cfi_def_cfa_offset 8
 256              	.LBB10:
 257              		.loc 1 164 0
 258 0002 2023     		movs	r3, #32
 259              		.cfi_offset 14, -4
 260              		.cfi_offset 3, -8
 261              	.LVL21:
 262              	@ 164 "../../../ChibiOS/os/hal/src/spi.c" 1
 263 0004 83F31188 		msr     BASEPRI, r3
 264              	@ 0 "" 2
 265              	.LVL22:
 266              		.thumb
 267              	.LBE10:
 268              		.loc 1 166 0
 269 0008 FFF7FEFF 		bl	spi_lld_unselect
 270              	.LVL23:
 271              	.LBB11:
 272              		.loc 1 167 0
 273 000c 0023     		movs	r3, #0
 274              	.LVL24:
 275              	@ 167 "../../../ChibiOS/os/hal/src/spi.c" 1
 276 000e 83F31188 		msr     BASEPRI, r3
 277              	@ 0 "" 2
ARM GAS  C:\Users\DNIEL~1\AppData\Local\Temp\ccMdX93K.s 			page 6


 278              	.LVL25:
 279              		.thumb
 280              	.LBE11:
 281              		.loc 1 168 0
 282 0012 08BD     		pop	{r3, pc}
 283              		.cfi_endproc
 284              	.LFE123:
 285              		.size	spiUnselect, .-spiUnselect
 286 0014 AFF30080 		.section	.text.spiStartIgnore,"ax",%progbits
 286      AFF30080 
 286      AFF30080 
 287              		.align	2
 288              		.p2align 4,,15
 289              		.global	spiStartIgnore
 290              		.thumb
 291              		.thumb_func
 292              		.type	spiStartIgnore, %function
 293              	spiStartIgnore:
 294              	.LFB124:
 295              		.loc 1 183 0
 296              		.cfi_startproc
 297              		@ args = 0, pretend = 0, frame = 0
 298              		@ frame_needed = 0, uses_anonymous_args = 0
 299              	.LVL26:
 300 0000 08B5     		push	{r3, lr}
 301              	.LCFI4:
 302              		.cfi_def_cfa_offset 8
 303              	.LBB12:
 304              		.loc 1 187 0
 305 0002 2023     		movs	r3, #32
 306              		.cfi_offset 14, -4
 307              		.cfi_offset 3, -8
 308              	.LVL27:
 309              	@ 187 "../../../ChibiOS/os/hal/src/spi.c" 1
 310 0004 83F31188 		msr     BASEPRI, r3
 311              	@ 0 "" 2
 312              	.LVL28:
 313              		.thumb
 314              	.LBE12:
 315              		.loc 1 189 0
 316 0008 0323     		movs	r3, #3
 317              	.LVL29:
 318 000a 0370     		strb	r3, [r0, #0]
 319 000c FFF7FEFF 		bl	spi_lld_ignore
 320              	.LVL30:
 321              	.LBB13:
 322              		.loc 1 190 0
 323 0010 0023     		movs	r3, #0
 324              	.LVL31:
 325              	@ 190 "../../../ChibiOS/os/hal/src/spi.c" 1
 326 0012 83F31188 		msr     BASEPRI, r3
 327              	@ 0 "" 2
 328              	.LVL32:
 329              		.thumb
 330              	.LBE13:
 331              		.loc 1 191 0
 332 0016 08BD     		pop	{r3, pc}
ARM GAS  C:\Users\DNIEL~1\AppData\Local\Temp\ccMdX93K.s 			page 7


 333              		.cfi_endproc
 334              	.LFE124:
 335              		.size	spiStartIgnore, .-spiStartIgnore
 336 0018 AFF30080 		.section	.text.spiStartExchange,"ax",%progbits
 336      AFF30080 
 337              		.align	2
 338              		.p2align 4,,15
 339              		.global	spiStartExchange
 340              		.thumb
 341              		.thumb_func
 342              		.type	spiStartExchange, %function
 343              	spiStartExchange:
 344              	.LFB125:
 345              		.loc 1 211 0
 346              		.cfi_startproc
 347              		@ args = 0, pretend = 0, frame = 0
 348              		@ frame_needed = 0, uses_anonymous_args = 0
 349              	.LVL33:
 350 0000 38B5     		push	{r3, r4, r5, lr}
 351              	.LCFI5:
 352              		.cfi_def_cfa_offset 16
 353              		.loc 1 211 0
 354 0002 1D46     		mov	r5, r3
 355              		.cfi_offset 14, -4
 356              		.cfi_offset 5, -8
 357              		.cfi_offset 4, -12
 358              		.cfi_offset 3, -16
 359              	.LBB14:
 360              		.loc 1 216 0
 361 0004 2023     		movs	r3, #32
 362              	.LVL34:
 363              	@ 216 "../../../ChibiOS/os/hal/src/spi.c" 1
 364 0006 83F31188 		msr     BASEPRI, r3
 365              	@ 0 "" 2
 366              	.LVL35:
 367              		.thumb
 368              	.LBE14:
 369              		.loc 1 218 0
 370 000a 2B46     		mov	r3, r5
 371              	.LVL36:
 372 000c 0325     		movs	r5, #3
 373              	.LVL37:
 374 000e 0570     		strb	r5, [r0, #0]
 375 0010 FFF7FEFF 		bl	spi_lld_exchange
 376              	.LVL38:
 377              	.LBB15:
 378              		.loc 1 219 0
 379 0014 0023     		movs	r3, #0
 380              	.LVL39:
 381              	@ 219 "../../../ChibiOS/os/hal/src/spi.c" 1
 382 0016 83F31188 		msr     BASEPRI, r3
 383              	@ 0 "" 2
 384              	.LVL40:
 385              		.thumb
 386              	.LBE15:
 387              		.loc 1 220 0
 388 001a 38BD     		pop	{r3, r4, r5, pc}
ARM GAS  C:\Users\DNIEL~1\AppData\Local\Temp\ccMdX93K.s 			page 8


 389              		.cfi_endproc
 390              	.LFE125:
 391              		.size	spiStartExchange, .-spiStartExchange
 392 001c AFF30080 		.section	.text.spiStartSend,"ax",%progbits
 393              		.align	2
 394              		.p2align 4,,15
 395              		.global	spiStartSend
 396              		.thumb
 397              		.thumb_func
 398              		.type	spiStartSend, %function
 399              	spiStartSend:
 400              	.LFB126:
 401              		.loc 1 237 0
 402              		.cfi_startproc
 403              		@ args = 0, pretend = 0, frame = 0
 404              		@ frame_needed = 0, uses_anonymous_args = 0
 405              	.LVL41:
 406 0000 10B5     		push	{r4, lr}
 407              	.LCFI6:
 408              		.cfi_def_cfa_offset 8
 409              	.LBB16:
 410              		.loc 1 242 0
 411 0002 2023     		movs	r3, #32
 412              	.LVL42:
 413              	@ 242 "../../../ChibiOS/os/hal/src/spi.c" 1
 414 0004 83F31188 		msr     BASEPRI, r3
 415              	@ 0 "" 2
 416              	.LVL43:
 417              		.thumb
 418              	.LBE16:
 419              		.loc 1 244 0
 420 0008 0323     		movs	r3, #3
 421              	.LVL44:
 422 000a 0370     		strb	r3, [r0, #0]
 423              		.cfi_offset 14, -4
 424              		.cfi_offset 4, -8
 425 000c FFF7FEFF 		bl	spi_lld_send
 426              	.LVL45:
 427              	.LBB17:
 428              		.loc 1 245 0
 429 0010 0023     		movs	r3, #0
 430              	.LVL46:
 431              	@ 245 "../../../ChibiOS/os/hal/src/spi.c" 1
 432 0012 83F31188 		msr     BASEPRI, r3
 433              	@ 0 "" 2
 434              	.LVL47:
 435              		.thumb
 436              	.LBE17:
 437              		.loc 1 246 0
 438 0016 10BD     		pop	{r4, pc}
 439              		.cfi_endproc
 440              	.LFE126:
 441              		.size	spiStartSend, .-spiStartSend
 442 0018 AFF30080 		.section	.text.spiStartReceive,"ax",%progbits
 442      AFF30080 
 443              		.align	2
 444              		.p2align 4,,15
ARM GAS  C:\Users\DNIEL~1\AppData\Local\Temp\ccMdX93K.s 			page 9


 445              		.global	spiStartReceive
 446              		.thumb
 447              		.thumb_func
 448              		.type	spiStartReceive, %function
 449              	spiStartReceive:
 450              	.LFB127:
 451              		.loc 1 263 0
 452              		.cfi_startproc
 453              		@ args = 0, pretend = 0, frame = 0
 454              		@ frame_needed = 0, uses_anonymous_args = 0
 455              	.LVL48:
 456 0000 10B5     		push	{r4, lr}
 457              	.LCFI7:
 458              		.cfi_def_cfa_offset 8
 459              	.LBB18:
 460              		.loc 1 268 0
 461 0002 2023     		movs	r3, #32
 462              	.LVL49:
 463              	@ 268 "../../../ChibiOS/os/hal/src/spi.c" 1
 464 0004 83F31188 		msr     BASEPRI, r3
 465              	@ 0 "" 2
 466              	.LVL50:
 467              		.thumb
 468              	.LBE18:
 469              		.loc 1 270 0
 470 0008 0323     		movs	r3, #3
 471              	.LVL51:
 472 000a 0370     		strb	r3, [r0, #0]
 473              		.cfi_offset 14, -4
 474              		.cfi_offset 4, -8
 475 000c FFF7FEFF 		bl	spi_lld_receive
 476              	.LVL52:
 477              	.LBB19:
 478              		.loc 1 271 0
 479 0010 0023     		movs	r3, #0
 480              	.LVL53:
 481              	@ 271 "../../../ChibiOS/os/hal/src/spi.c" 1
 482 0012 83F31188 		msr     BASEPRI, r3
 483              	@ 0 "" 2
 484              	.LVL54:
 485              		.thumb
 486              	.LBE19:
 487              		.loc 1 272 0
 488 0016 10BD     		pop	{r4, pc}
 489              		.cfi_endproc
 490              	.LFE127:
 491              		.size	spiStartReceive, .-spiStartReceive
 492 0018 AFF30080 		.section	.text.spiIgnore,"ax",%progbits
 492      AFF30080 
 493              		.align	2
 494              		.p2align 4,,15
 495              		.global	spiIgnore
 496              		.thumb
 497              		.thumb_func
 498              		.type	spiIgnore, %function
 499              	spiIgnore:
 500              	.LFB128:
ARM GAS  C:\Users\DNIEL~1\AppData\Local\Temp\ccMdX93K.s 			page 10


 501              		.loc 1 289 0
 502              		.cfi_startproc
 503              		@ args = 0, pretend = 0, frame = 0
 504              		@ frame_needed = 0, uses_anonymous_args = 0
 505              	.LVL55:
 506 0000 10B5     		push	{r4, lr}
 507              	.LCFI8:
 508              		.cfi_def_cfa_offset 8
 509              	.LBB20:
 510              		.loc 1 293 0
 511 0002 2023     		movs	r3, #32
 512              	.LVL56:
 513              	.LBE20:
 514              		.loc 1 289 0
 515 0004 0446     		mov	r4, r0
 516              		.cfi_offset 14, -4
 517              		.cfi_offset 4, -8
 518              	.LBB21:
 519              		.loc 1 293 0
 520              	@ 293 "../../../ChibiOS/os/hal/src/spi.c" 1
 521 0006 83F31188 		msr     BASEPRI, r3
 522              	@ 0 "" 2
 523              	.LVL57:
 524              		.thumb
 525              	.LBE21:
 526              		.loc 1 296 0
 527 000a 0322     		movs	r2, #3
 528 000c 0270     		strb	r2, [r0, #0]
 529 000e FFF7FEFF 		bl	spi_lld_ignore
 530              	.LVL58:
 531              		.loc 1 297 0
 532 0012 0548     		ldr	r0, .L12
 533 0014 8369     		ldr	r3, [r0, #24]
 534 0016 0220     		movs	r0, #2
 535 0018 A360     		str	r3, [r4, #8]
 536 001a FFF7FEFF 		bl	chSchGoSleepS
 537              	.LBB22:
 538              		.loc 1 298 0
 539 001e 0023     		movs	r3, #0
 540              	.LVL59:
 541              	@ 298 "../../../ChibiOS/os/hal/src/spi.c" 1
 542 0020 83F31188 		msr     BASEPRI, r3
 543              	@ 0 "" 2
 544              	.LVL60:
 545              		.thumb
 546              	.LBE22:
 547              		.loc 1 299 0
 548 0024 10BD     		pop	{r4, pc}
 549              	.L13:
 550 0026 00BF     		.align	2
 551              	.L12:
 552 0028 00000000 		.word	rlist
 553              		.cfi_endproc
 554              	.LFE128:
 555              		.size	spiIgnore, .-spiIgnore
 556 002c AFF30080 		.section	.text.spiExchange,"ax",%progbits
 557              		.align	2
ARM GAS  C:\Users\DNIEL~1\AppData\Local\Temp\ccMdX93K.s 			page 11


 558              		.p2align 4,,15
 559              		.global	spiExchange
 560              		.thumb
 561              		.thumb_func
 562              		.type	spiExchange, %function
 563              	spiExchange:
 564              	.LFB129:
 565              		.loc 1 320 0
 566              		.cfi_startproc
 567              		@ args = 0, pretend = 0, frame = 0
 568              		@ frame_needed = 0, uses_anonymous_args = 0
 569              	.LVL61:
 570 0000 38B5     		push	{r3, r4, r5, lr}
 571              	.LCFI9:
 572              		.cfi_def_cfa_offset 16
 573              		.loc 1 320 0
 574 0002 1D46     		mov	r5, r3
 575              		.cfi_offset 14, -4
 576              		.cfi_offset 5, -8
 577              		.cfi_offset 4, -12
 578              		.cfi_offset 3, -16
 579 0004 0446     		mov	r4, r0
 580              	.LBB23:
 581              		.loc 1 325 0
 582 0006 2023     		movs	r3, #32
 583              	.LVL62:
 584              	@ 325 "../../../ChibiOS/os/hal/src/spi.c" 1
 585 0008 83F31188 		msr     BASEPRI, r3
 586              	@ 0 "" 2
 587              	.LVL63:
 588              		.thumb
 589              	.LBE23:
 590              		.loc 1 329 0
 591 000c 2B46     		mov	r3, r5
 592              	.LVL64:
 593 000e 0325     		movs	r5, #3
 594              	.LVL65:
 595 0010 0570     		strb	r5, [r0, #0]
 596 0012 FFF7FEFF 		bl	spi_lld_exchange
 597              	.LVL66:
 598              		.loc 1 330 0
 599 0016 0548     		ldr	r0, .L15
 600 0018 8369     		ldr	r3, [r0, #24]
 601 001a 0220     		movs	r0, #2
 602 001c A360     		str	r3, [r4, #8]
 603 001e FFF7FEFF 		bl	chSchGoSleepS
 604              	.LBB24:
 605              		.loc 1 331 0
 606 0022 0023     		movs	r3, #0
 607              	.LVL67:
 608              	@ 331 "../../../ChibiOS/os/hal/src/spi.c" 1
 609 0024 83F31188 		msr     BASEPRI, r3
 610              	@ 0 "" 2
 611              	.LVL68:
 612              		.thumb
 613              	.LBE24:
 614              		.loc 1 332 0
ARM GAS  C:\Users\DNIEL~1\AppData\Local\Temp\ccMdX93K.s 			page 12


 615 0028 38BD     		pop	{r3, r4, r5, pc}
 616              	.L16:
 617 002a 00BF     		.align	2
 618              	.L15:
 619 002c 00000000 		.word	rlist
 620              		.cfi_endproc
 621              	.LFE129:
 622              		.size	spiExchange, .-spiExchange
 623              		.section	.text.spiSend,"ax",%progbits
 624              		.align	2
 625              		.p2align 4,,15
 626              		.global	spiSend
 627              		.thumb
 628              		.thumb_func
 629              		.type	spiSend, %function
 630              	spiSend:
 631              	.LFB130:
 632              		.loc 1 350 0
 633              		.cfi_startproc
 634              		@ args = 0, pretend = 0, frame = 0
 635              		@ frame_needed = 0, uses_anonymous_args = 0
 636              	.LVL69:
 637 0000 10B5     		push	{r4, lr}
 638              	.LCFI10:
 639              		.cfi_def_cfa_offset 8
 640              	.LBB25:
 641              		.loc 1 354 0
 642 0002 2023     		movs	r3, #32
 643              	.LVL70:
 644              	.LBE25:
 645              		.loc 1 350 0
 646 0004 0446     		mov	r4, r0
 647              		.cfi_offset 14, -4
 648              		.cfi_offset 4, -8
 649              	.LBB26:
 650              		.loc 1 354 0
 651              	@ 354 "../../../ChibiOS/os/hal/src/spi.c" 1
 652 0006 83F31188 		msr     BASEPRI, r3
 653              	@ 0 "" 2
 654              	.LVL71:
 655              		.thumb
 656              	.LBE26:
 657              		.loc 1 357 0
 658 000a 0323     		movs	r3, #3
 659              	.LVL72:
 660 000c 0370     		strb	r3, [r0, #0]
 661 000e FFF7FEFF 		bl	spi_lld_send
 662              	.LVL73:
 663              		.loc 1 358 0
 664 0012 0548     		ldr	r0, .L18
 665 0014 8369     		ldr	r3, [r0, #24]
 666 0016 0220     		movs	r0, #2
 667 0018 A360     		str	r3, [r4, #8]
 668 001a FFF7FEFF 		bl	chSchGoSleepS
 669              	.LBB27:
 670              		.loc 1 359 0
 671 001e 0023     		movs	r3, #0
ARM GAS  C:\Users\DNIEL~1\AppData\Local\Temp\ccMdX93K.s 			page 13


 672              	.LVL74:
 673              	@ 359 "../../../ChibiOS/os/hal/src/spi.c" 1
 674 0020 83F31188 		msr     BASEPRI, r3
 675              	@ 0 "" 2
 676              	.LVL75:
 677              		.thumb
 678              	.LBE27:
 679              		.loc 1 360 0
 680 0024 10BD     		pop	{r4, pc}
 681              	.L19:
 682 0026 00BF     		.align	2
 683              	.L18:
 684 0028 00000000 		.word	rlist
 685              		.cfi_endproc
 686              	.LFE130:
 687              		.size	spiSend, .-spiSend
 688 002c AFF30080 		.section	.text.spiReceive,"ax",%progbits
 689              		.align	2
 690              		.p2align 4,,15
 691              		.global	spiReceive
 692              		.thumb
 693              		.thumb_func
 694              		.type	spiReceive, %function
 695              	spiReceive:
 696              	.LFB131:
 697              		.loc 1 378 0
 698              		.cfi_startproc
 699              		@ args = 0, pretend = 0, frame = 0
 700              		@ frame_needed = 0, uses_anonymous_args = 0
 701              	.LVL76:
 702 0000 10B5     		push	{r4, lr}
 703              	.LCFI11:
 704              		.cfi_def_cfa_offset 8
 705              	.LBB28:
 706              		.loc 1 383 0
 707 0002 2023     		movs	r3, #32
 708              	.LVL77:
 709              	.LBE28:
 710              		.loc 1 378 0
 711 0004 0446     		mov	r4, r0
 712              		.cfi_offset 14, -4
 713              		.cfi_offset 4, -8
 714              	.LBB29:
 715              		.loc 1 383 0
 716              	@ 383 "../../../ChibiOS/os/hal/src/spi.c" 1
 717 0006 83F31188 		msr     BASEPRI, r3
 718              	@ 0 "" 2
 719              	.LVL78:
 720              		.thumb
 721              	.LBE29:
 722              		.loc 1 387 0
 723 000a 0323     		movs	r3, #3
 724              	.LVL79:
 725 000c 0370     		strb	r3, [r0, #0]
 726 000e FFF7FEFF 		bl	spi_lld_receive
 727              	.LVL80:
 728              		.loc 1 388 0
ARM GAS  C:\Users\DNIEL~1\AppData\Local\Temp\ccMdX93K.s 			page 14


 729 0012 0548     		ldr	r0, .L21
 730 0014 8369     		ldr	r3, [r0, #24]
 731 0016 0220     		movs	r0, #2
 732 0018 A360     		str	r3, [r4, #8]
 733 001a FFF7FEFF 		bl	chSchGoSleepS
 734              	.LBB30:
 735              		.loc 1 389 0
 736 001e 0023     		movs	r3, #0
 737              	.LVL81:
 738              	@ 389 "../../../ChibiOS/os/hal/src/spi.c" 1
 739 0020 83F31188 		msr     BASEPRI, r3
 740              	@ 0 "" 2
 741              	.LVL82:
 742              		.thumb
 743              	.LBE30:
 744              		.loc 1 390 0
 745 0024 10BD     		pop	{r4, pc}
 746              	.L22:
 747 0026 00BF     		.align	2
 748              	.L21:
 749 0028 00000000 		.word	rlist
 750              		.cfi_endproc
 751              	.LFE131:
 752              		.size	spiReceive, .-spiReceive
 753 002c AFF30080 		.section	.text.spiAcquireBus,"ax",%progbits
 754              		.align	2
 755              		.p2align 4,,15
 756              		.global	spiAcquireBus
 757              		.thumb
 758              		.thumb_func
 759              		.type	spiAcquireBus, %function
 760              	spiAcquireBus:
 761              	.LFB132:
 762              		.loc 1 405 0
 763              		.cfi_startproc
 764              		@ args = 0, pretend = 0, frame = 0
 765              		@ frame_needed = 0, uses_anonymous_args = 0
 766              		@ link register save eliminated.
 767              	.LVL83:
 768              		.loc 1 410 0
 769 0000 0C30     		adds	r0, r0, #12
 770              	.LVL84:
 771              		.loc 1 414 0
 772              		.loc 1 410 0
 773 0002 FFF7FEBF 		b	chMtxLock
 774              		.cfi_endproc
 775              	.LFE132:
 776              		.size	spiAcquireBus, .-spiAcquireBus
 777 0006 00BFAFF3 		.section	.text.spiReleaseBus,"ax",%progbits
 777      0080AFF3 
 777      0080
 778              		.align	2
 779              		.p2align 4,,15
 780              		.global	spiReleaseBus
 781              		.thumb
 782              		.thumb_func
 783              		.type	spiReleaseBus, %function
ARM GAS  C:\Users\DNIEL~1\AppData\Local\Temp\ccMdX93K.s 			page 15


 784              	spiReleaseBus:
 785              	.LFB133:
 786              		.loc 1 425 0
 787              		.cfi_startproc
 788              		@ args = 0, pretend = 0, frame = 0
 789              		@ frame_needed = 0, uses_anonymous_args = 0
 790              		@ link register save eliminated.
 791              	.LVL85:
 792              		.loc 1 435 0
 793              		.loc 1 431 0
 794 0000 FFF7FEBF 		b	chMtxUnlock
 795              		.cfi_endproc
 796              	.LFE133:
 797              		.size	spiReleaseBus, .-spiReleaseBus
 798 0004 AFF30080 		.text
 798      AFF30080 
 798      AFF30080 
 799              	.Letext0: