ARM GAS  C:\Users\DNIEL~1\AppData\Local\Temp\ccfZfb0o.s 			page 1


   1              		.syntax unified
   2              		.cpu cortex-m4
   3              		.fpu softvfp
   4              		.eabi_attribute 20, 1
   5              		.eabi_attribute 21, 1
   6              		.eabi_attribute 23, 3
   7              		.eabi_attribute 24, 1
   8              		.eabi_attribute 25, 1
   9              		.eabi_attribute 26, 1
  10              		.eabi_attribute 30, 2
  11              		.eabi_attribute 34, 1
  12              		.eabi_attribute 18, 4
  13              		.thumb
  14              		.file	"spi.c"
  15              		.text
  16              	.Ltext0:
  17              		.cfi_sections	.debug_frame
  18              		.section	.text.spiInit,"ax",%progbits
  19              		.align	2
  20              		.p2align 4,,15
  21              		.global	spiInit
  22              		.thumb
  23              		.thumb_func
  24              		.type	spiInit, %function
  25              	spiInit:
  26              	.LFB118:
  27              		.file 1 "../../../ChibiOS/os/hal/src/spi.c"
  28              		.loc 1 61 0
  29              		.cfi_startproc
  30              		@ args = 0, pretend = 0, frame = 0
  31              		@ frame_needed = 0, uses_anonymous_args = 0
  32              		@ link register save eliminated.
  33              		.loc 1 64 0
  34              		.loc 1 63 0
  35 0000 FFF7FEBF 		b	spi_lld_init
  36              	.LVL0:
  37              		.cfi_endproc
  38              	.LFE118:
  39              		.size	spiInit, .-spiInit
  40 0004 AFF30080 		.section	.text.spiObjectInit,"ax",%progbits
  40      AFF30080 
  40      AFF30080 
  41              		.align	2
  42              		.p2align 4,,15
  43              		.global	spiObjectInit
  44              		.thumb
  45              		.thumb_func
  46              		.type	spiObjectInit, %function
  47              	spiObjectInit:
  48              	.LFB119:
  49              		.loc 1 73 0
  50              		.cfi_startproc
  51              		@ args = 0, pretend = 0, frame = 0
  52              		@ frame_needed = 0, uses_anonymous_args = 0
  53              		@ link register save eliminated.
  54              	.LVL1:
  55              		.loc 1 76 0
ARM GAS  C:\Users\DNIEL~1\AppData\Local\Temp\ccfZfb0o.s 			page 2


  56 0000 0023     		movs	r3, #0
  57              		.loc 1 75 0
  58 0002 0122     		movs	r2, #1
  59 0004 0270     		strb	r2, [r0, #0]
  60              		.loc 1 76 0
  61 0006 4360     		str	r3, [r0, #4]
  62              		.loc 1 78 0
  63 0008 8360     		str	r3, [r0, #8]
  64              		.loc 1 82 0
  65 000a 0C30     		adds	r0, r0, #12
  66              	.LVL2:
  67              		.loc 1 90 0
  68              		.loc 1 82 0
  69 000c FFF7FEBF 		b	chMtxInit
  70              	.LVL3:
  71              		.cfi_endproc
  72              	.LFE119:
  73              		.size	spiObjectInit, .-spiObjectInit
  74              		.section	.text.spiStart,"ax",%progbits
  75              		.align	2
  76              		.p2align 4,,15
  77              		.global	spiStart
  78              		.thumb
  79              		.thumb_func
  80              		.type	spiStart, %function
  81              	spiStart:
  82              	.LFB120:
  83              		.loc 1 100 0
  84              		.cfi_startproc
  85              		@ args = 0, pretend = 0, frame = 0
  86              		@ frame_needed = 0, uses_anonymous_args = 0
  87              	.LVL4:
  88 0000 10B5     		push	{r4, lr}
  89              	.LCFI0:
  90              		.cfi_def_cfa_offset 8
  91              		.cfi_offset 4, -8
  92              		.cfi_offset 14, -4
  93              	.LBB2:
  94              		.loc 1 104 0
  95 0002 2023     		movs	r3, #32
  96              	.LVL5:
  97              	.LBE2:
  98              		.loc 1 100 0
  99 0004 0446     		mov	r4, r0
 100              	.LBB3:
 101              		.loc 1 104 0
 102              	@ 104 "../../../ChibiOS/os/hal/src/spi.c" 1
 103 0006 83F31188 		msr     BASEPRI, r3
 104              	@ 0 "" 2
 105              	.LVL6:
 106              		.thumb
 107              	.LBE3:
 108              		.loc 1 107 0
 109 000a 4160     		str	r1, [r0, #4]
 110              		.loc 1 108 0
 111 000c FFF7FEFF 		bl	spi_lld_start
 112              	.LVL7:
ARM GAS  C:\Users\DNIEL~1\AppData\Local\Temp\ccfZfb0o.s 			page 3


 113              		.loc 1 109 0
 114 0010 0223     		movs	r3, #2
 115 0012 2370     		strb	r3, [r4, #0]
 116              	.LBB4:
 117              		.loc 1 110 0
 118 0014 0023     		movs	r3, #0
 119              	.LVL8:
 120              	@ 110 "../../../ChibiOS/os/hal/src/spi.c" 1
 121 0016 83F31188 		msr     BASEPRI, r3
 122              	@ 0 "" 2
 123              	.LVL9:
 124              		.thumb
 125 001a 10BD     		pop	{r4, pc}
 126              	.LBE4:
 127              		.cfi_endproc
 128              	.LFE120:
 129              		.size	spiStart, .-spiStart
 130 001c AFF30080 		.section	.text.spiStop,"ax",%progbits
 131              		.align	2
 132              		.p2align 4,,15
 133              		.global	spiStop
 134              		.thumb
 135              		.thumb_func
 136              		.type	spiStop, %function
 137              	spiStop:
 138              	.LFB121:
 139              		.loc 1 122 0
 140              		.cfi_startproc
 141              		@ args = 0, pretend = 0, frame = 0
 142              		@ frame_needed = 0, uses_anonymous_args = 0
 143              	.LVL10:
 144 0000 10B5     		push	{r4, lr}
 145              	.LCFI1:
 146              		.cfi_def_cfa_offset 8
 147              		.cfi_offset 4, -8
 148              		.cfi_offset 14, -4
 149              	.LBB5:
 150              		.loc 1 126 0
 151 0002 2023     		movs	r3, #32
 152              	.LVL11:
 153              	.LBE5:
 154              		.loc 1 122 0
 155 0004 0446     		mov	r4, r0
 156              	.LBB6:
 157              		.loc 1 126 0
 158              	@ 126 "../../../ChibiOS/os/hal/src/spi.c" 1
 159 0006 83F31188 		msr     BASEPRI, r3
 160              	@ 0 "" 2
 161              	.LVL12:
 162              		.thumb
 163              	.LBE6:
 164              		.loc 1 129 0
 165 000a FFF7FEFF 		bl	spi_lld_unselect
 166              	.LVL13:
 167              		.loc 1 130 0
 168 000e 2046     		mov	r0, r4
 169 0010 FFF7FEFF 		bl	spi_lld_stop
ARM GAS  C:\Users\DNIEL~1\AppData\Local\Temp\ccfZfb0o.s 			page 4


 170              	.LVL14:
 171              		.loc 1 131 0
 172 0014 0123     		movs	r3, #1
 173 0016 2370     		strb	r3, [r4, #0]
 174              	.LBB7:
 175              		.loc 1 132 0
 176 0018 0023     		movs	r3, #0
 177              	.LVL15:
 178              	@ 132 "../../../ChibiOS/os/hal/src/spi.c" 1
 179 001a 83F31188 		msr     BASEPRI, r3
 180              	@ 0 "" 2
 181              	.LVL16:
 182              		.thumb
 183 001e 10BD     		pop	{r4, pc}
 184              	.LBE7:
 185              		.cfi_endproc
 186              	.LFE121:
 187              		.size	spiStop, .-spiStop
 188              		.section	.text.spiSelect,"ax",%progbits
 189              		.align	2
 190              		.p2align 4,,15
 191              		.global	spiSelect
 192              		.thumb
 193              		.thumb_func
 194              		.type	spiSelect, %function
 195              	spiSelect:
 196              	.LFB122:
 197              		.loc 1 142 0
 198              		.cfi_startproc
 199              		@ args = 0, pretend = 0, frame = 0
 200              		@ frame_needed = 0, uses_anonymous_args = 0
 201              	.LVL17:
 202 0000 08B5     		push	{r3, lr}
 203              	.LCFI2:
 204              		.cfi_def_cfa_offset 8
 205              		.cfi_offset 3, -8
 206              		.cfi_offset 14, -4
 207              	.LBB8:
 208              		.loc 1 146 0
 209 0002 2023     		movs	r3, #32
 210              	.LVL18:
 211              	@ 146 "../../../ChibiOS/os/hal/src/spi.c" 1
 212 0004 83F31188 		msr     BASEPRI, r3
 213              	@ 0 "" 2
 214              	.LVL19:
 215              		.thumb
 216              	.LBE8:
 217              		.loc 1 148 0
 218 0008 FFF7FEFF 		bl	spi_lld_select
 219              	.LVL20:
 220              	.LBB9:
 221              		.loc 1 149 0
 222 000c 0023     		movs	r3, #0
 223              	.LVL21:
 224              	@ 149 "../../../ChibiOS/os/hal/src/spi.c" 1
 225 000e 83F31188 		msr     BASEPRI, r3
 226              	@ 0 "" 2
ARM GAS  C:\Users\DNIEL~1\AppData\Local\Temp\ccfZfb0o.s 			page 5


 227              	.LVL22:
 228              		.thumb
 229 0012 08BD     		pop	{r3, pc}
 230              	.LBE9:
 231              		.cfi_endproc
 232              	.LFE122:
 233              		.size	spiSelect, .-spiSelect
 234 0014 AFF30080 		.section	.text.spiUnselect,"ax",%progbits
 234      AFF30080 
 234      AFF30080 
 235              		.align	2
 236              		.p2align 4,,15
 237              		.global	spiUnselect
 238              		.thumb
 239              		.thumb_func
 240              		.type	spiUnselect, %function
 241              	spiUnselect:
 242              	.LFB123:
 243              		.loc 1 160 0
 244              		.cfi_startproc
 245              		@ args = 0, pretend = 0, frame = 0
 246              		@ frame_needed = 0, uses_anonymous_args = 0
 247              	.LVL23:
 248 0000 08B5     		push	{r3, lr}
 249              	.LCFI3:
 250              		.cfi_def_cfa_offset 8
 251              		.cfi_offset 3, -8
 252              		.cfi_offset 14, -4
 253              	.LBB10:
 254              		.loc 1 164 0
 255 0002 2023     		movs	r3, #32
 256              	.LVL24:
 257              	@ 164 "../../../ChibiOS/os/hal/src/spi.c" 1
 258 0004 83F31188 		msr     BASEPRI, r3
 259              	@ 0 "" 2
 260              	.LVL25:
 261              		.thumb
 262              	.LBE10:
 263              		.loc 1 166 0
 264 0008 FFF7FEFF 		bl	spi_lld_unselect
 265              	.LVL26:
 266              	.LBB11:
 267              		.loc 1 167 0
 268 000c 0023     		movs	r3, #0
 269              	.LVL27:
 270              	@ 167 "../../../ChibiOS/os/hal/src/spi.c" 1
 271 000e 83F31188 		msr     BASEPRI, r3
 272              	@ 0 "" 2
 273              	.LVL28:
 274              		.thumb
 275 0012 08BD     		pop	{r3, pc}
 276              	.LBE11:
 277              		.cfi_endproc
 278              	.LFE123:
 279              		.size	spiUnselect, .-spiUnselect
 280 0014 AFF30080 		.section	.text.spiStartIgnore,"ax",%progbits
 280      AFF30080 
ARM GAS  C:\Users\DNIEL~1\AppData\Local\Temp\ccfZfb0o.s 			page 6


 280      AFF30080 
 281              		.align	2
 282              		.p2align 4,,15
 283              		.global	spiStartIgnore
 284              		.thumb
 285              		.thumb_func
 286              		.type	spiStartIgnore, %function
 287              	spiStartIgnore:
 288              	.LFB124:
 289              		.loc 1 183 0
 290              		.cfi_startproc
 291              		@ args = 0, pretend = 0, frame = 0
 292              		@ frame_needed = 0, uses_anonymous_args = 0
 293              	.LVL29:
 294 0000 08B5     		push	{r3, lr}
 295              	.LCFI4:
 296              		.cfi_def_cfa_offset 8
 297              		.cfi_offset 3, -8
 298              		.cfi_offset 14, -4
 299              	.LBB12:
 300              		.loc 1 187 0
 301 0002 2023     		movs	r3, #32
 302              	.LVL30:
 303              	@ 187 "../../../ChibiOS/os/hal/src/spi.c" 1
 304 0004 83F31188 		msr     BASEPRI, r3
 305              	@ 0 "" 2
 306              	.LVL31:
 307              		.thumb
 308              	.LBE12:
 309              		.loc 1 189 0
 310 0008 0323     		movs	r3, #3
 311              	.LVL32:
 312 000a 0370     		strb	r3, [r0, #0]
 313 000c FFF7FEFF 		bl	spi_lld_ignore
 314              	.LVL33:
 315              	.LBB13:
 316              		.loc 1 190 0
 317 0010 0023     		movs	r3, #0
 318              	.LVL34:
 319              	@ 190 "../../../ChibiOS/os/hal/src/spi.c" 1
 320 0012 83F31188 		msr     BASEPRI, r3
 321              	@ 0 "" 2
 322              	.LVL35:
 323              		.thumb
 324 0016 08BD     		pop	{r3, pc}
 325              	.LBE13:
 326              		.cfi_endproc
 327              	.LFE124:
 328              		.size	spiStartIgnore, .-spiStartIgnore
 329 0018 AFF30080 		.section	.text.spiStartExchange,"ax",%progbits
 329      AFF30080 
 330              		.align	2
 331              		.p2align 4,,15
 332              		.global	spiStartExchange
 333              		.thumb
 334              		.thumb_func
 335              		.type	spiStartExchange, %function
ARM GAS  C:\Users\DNIEL~1\AppData\Local\Temp\ccfZfb0o.s 			page 7


 336              	spiStartExchange:
 337              	.LFB125:
 338              		.loc 1 211 0
 339              		.cfi_startproc
 340              		@ args = 0, pretend = 0, frame = 0
 341              		@ frame_needed = 0, uses_anonymous_args = 0
 342              	.LVL36:
 343 0000 38B5     		push	{r3, r4, r5, lr}
 344              	.LCFI5:
 345              		.cfi_def_cfa_offset 16
 346              		.cfi_offset 3, -16
 347              		.cfi_offset 4, -12
 348              		.cfi_offset 5, -8
 349              		.cfi_offset 14, -4
 350              		.loc 1 211 0
 351 0002 1D46     		mov	r5, r3
 352 0004 0446     		mov	r4, r0
 353              	.LBB14:
 354              		.loc 1 216 0
 355 0006 2023     		movs	r3, #32
 356              	.LVL37:
 357              	@ 216 "../../../ChibiOS/os/hal/src/spi.c" 1
 358 0008 83F31188 		msr     BASEPRI, r3
 359              	@ 0 "" 2
 360              	.LVL38:
 361              		.thumb
 362              	.LBE14:
 363              		.loc 1 218 0
 364 000c 2B46     		mov	r3, r5
 365              	.LVL39:
 366 000e 0325     		movs	r5, #3
 367              	.LVL40:
 368 0010 0570     		strb	r5, [r0, #0]
 369 0012 FFF7FEFF 		bl	spi_lld_exchange
 370              	.LVL41:
 371              	.LBB15:
 372              		.loc 1 219 0
 373 0016 0023     		movs	r3, #0
 374              	.LVL42:
 375              	@ 219 "../../../ChibiOS/os/hal/src/spi.c" 1
 376 0018 83F31188 		msr     BASEPRI, r3
 377              	@ 0 "" 2
 378              	.LVL43:
 379              		.thumb
 380 001c 38BD     		pop	{r3, r4, r5, pc}
 381              	.LBE15:
 382              		.cfi_endproc
 383              	.LFE125:
 384              		.size	spiStartExchange, .-spiStartExchange
 385 001e 00BF     		.section	.text.spiStartSend,"ax",%progbits
 386              		.align	2
 387              		.p2align 4,,15
 388              		.global	spiStartSend
 389              		.thumb
 390              		.thumb_func
 391              		.type	spiStartSend, %function
 392              	spiStartSend:
ARM GAS  C:\Users\DNIEL~1\AppData\Local\Temp\ccfZfb0o.s 			page 8


 393              	.LFB126:
 394              		.loc 1 237 0
 395              		.cfi_startproc
 396              		@ args = 0, pretend = 0, frame = 0
 397              		@ frame_needed = 0, uses_anonymous_args = 0
 398              	.LVL44:
 399 0000 10B5     		push	{r4, lr}
 400              	.LCFI6:
 401              		.cfi_def_cfa_offset 8
 402              		.cfi_offset 4, -8
 403              		.cfi_offset 14, -4
 404              	.LBB16:
 405              		.loc 1 242 0
 406 0002 2023     		movs	r3, #32
 407              	.LVL45:
 408              	.LBE16:
 409              		.loc 1 237 0
 410 0004 0446     		mov	r4, r0
 411              	.LBB17:
 412              		.loc 1 242 0
 413              	@ 242 "../../../ChibiOS/os/hal/src/spi.c" 1
 414 0006 83F31188 		msr     BASEPRI, r3
 415              	@ 0 "" 2
 416              	.LVL46:
 417              		.thumb
 418              	.LBE17:
 419              		.loc 1 244 0
 420 000a 0323     		movs	r3, #3
 421              	.LVL47:
 422 000c 0370     		strb	r3, [r0, #0]
 423 000e FFF7FEFF 		bl	spi_lld_send
 424              	.LVL48:
 425              	.LBB18:
 426              		.loc 1 245 0
 427 0012 0023     		movs	r3, #0
 428              	.LVL49:
 429              	@ 245 "../../../ChibiOS/os/hal/src/spi.c" 1
 430 0014 83F31188 		msr     BASEPRI, r3
 431              	@ 0 "" 2
 432              	.LVL50:
 433              		.thumb
 434 0018 10BD     		pop	{r4, pc}
 435              	.LBE18:
 436              		.cfi_endproc
 437              	.LFE126:
 438              		.size	spiStartSend, .-spiStartSend
 439 001a 00BFAFF3 		.section	.text.spiStartReceive,"ax",%progbits
 439      0080
 440              		.align	2
 441              		.p2align 4,,15
 442              		.global	spiStartReceive
 443              		.thumb
 444              		.thumb_func
 445              		.type	spiStartReceive, %function
 446              	spiStartReceive:
 447              	.LFB127:
 448              		.loc 1 263 0
ARM GAS  C:\Users\DNIEL~1\AppData\Local\Temp\ccfZfb0o.s 			page 9


 449              		.cfi_startproc
 450              		@ args = 0, pretend = 0, frame = 0
 451              		@ frame_needed = 0, uses_anonymous_args = 0
 452              	.LVL51:
 453 0000 10B5     		push	{r4, lr}
 454              	.LCFI7:
 455              		.cfi_def_cfa_offset 8
 456              		.cfi_offset 4, -8
 457              		.cfi_offset 14, -4
 458              	.LBB19:
 459              		.loc 1 268 0
 460 0002 2023     		movs	r3, #32
 461              	.LVL52:
 462              	.LBE19:
 463              		.loc 1 263 0
 464 0004 0446     		mov	r4, r0
 465              	.LBB20:
 466              		.loc 1 268 0
 467              	@ 268 "../../../ChibiOS/os/hal/src/spi.c" 1
 468 0006 83F31188 		msr     BASEPRI, r3
 469              	@ 0 "" 2
 470              	.LVL53:
 471              		.thumb
 472              	.LBE20:
 473              		.loc 1 270 0
 474 000a 0323     		movs	r3, #3
 475              	.LVL54:
 476 000c 0370     		strb	r3, [r0, #0]
 477 000e FFF7FEFF 		bl	spi_lld_receive
 478              	.LVL55:
 479              	.LBB21:
 480              		.loc 1 271 0
 481 0012 0023     		movs	r3, #0
 482              	.LVL56:
 483              	@ 271 "../../../ChibiOS/os/hal/src/spi.c" 1
 484 0014 83F31188 		msr     BASEPRI, r3
 485              	@ 0 "" 2
 486              	.LVL57:
 487              		.thumb
 488 0018 10BD     		pop	{r4, pc}
 489              	.LBE21:
 490              		.cfi_endproc
 491              	.LFE127:
 492              		.size	spiStartReceive, .-spiStartReceive
 493 001a 00BFAFF3 		.section	.text.spiIgnore,"ax",%progbits
 493      0080
 494              		.align	2
 495              		.p2align 4,,15
 496              		.global	spiIgnore
 497              		.thumb
 498              		.thumb_func
 499              		.type	spiIgnore, %function
 500              	spiIgnore:
 501              	.LFB128:
 502              		.loc 1 289 0
 503              		.cfi_startproc
 504              		@ args = 0, pretend = 0, frame = 0
ARM GAS  C:\Users\DNIEL~1\AppData\Local\Temp\ccfZfb0o.s 			page 10


 505              		@ frame_needed = 0, uses_anonymous_args = 0
 506              	.LVL58:
 507 0000 10B5     		push	{r4, lr}
 508              	.LCFI8:
 509              		.cfi_def_cfa_offset 8
 510              		.cfi_offset 4, -8
 511              		.cfi_offset 14, -4
 512              	.LBB22:
 513              		.loc 1 293 0
 514 0002 2023     		movs	r3, #32
 515              	.LVL59:
 516              	.LBE22:
 517              		.loc 1 289 0
 518 0004 0446     		mov	r4, r0
 519              	.LBB23:
 520              		.loc 1 293 0
 521              	@ 293 "../../../ChibiOS/os/hal/src/spi.c" 1
 522 0006 83F31188 		msr     BASEPRI, r3
 523              	@ 0 "" 2
 524              	.LVL60:
 525              		.thumb
 526              	.LBE23:
 527              		.loc 1 296 0
 528 000a 0323     		movs	r3, #3
 529              	.LVL61:
 530 000c 0370     		strb	r3, [r0, #0]
 531 000e FFF7FEFF 		bl	spi_lld_ignore
 532              	.LVL62:
 533              		.loc 1 297 0
 534 0012 40F20001 		movw	r1, #:lower16:rlist
 535 0016 C0F20001 		movt	r1, #:upper16:rlist
 536 001a 0220     		movs	r0, #2
 537 001c 8A69     		ldr	r2, [r1, #24]
 538 001e A260     		str	r2, [r4, #8]
 539 0020 FFF7FEFF 		bl	chSchGoSleepS
 540              	.LVL63:
 541              	.LBB24:
 542              		.loc 1 298 0
 543 0024 0023     		movs	r3, #0
 544              	.LVL64:
 545              	@ 298 "../../../ChibiOS/os/hal/src/spi.c" 1
 546 0026 83F31188 		msr     BASEPRI, r3
 547              	@ 0 "" 2
 548              	.LVL65:
 549              		.thumb
 550 002a 10BD     		pop	{r4, pc}
 551              	.LBE24:
 552              		.cfi_endproc
 553              	.LFE128:
 554              		.size	spiIgnore, .-spiIgnore
 555 002c AFF30080 		.section	.text.spiExchange,"ax",%progbits
 556              		.align	2
 557              		.p2align 4,,15
 558              		.global	spiExchange
 559              		.thumb
 560              		.thumb_func
 561              		.type	spiExchange, %function
ARM GAS  C:\Users\DNIEL~1\AppData\Local\Temp\ccfZfb0o.s 			page 11


 562              	spiExchange:
 563              	.LFB129:
 564              		.loc 1 320 0
 565              		.cfi_startproc
 566              		@ args = 0, pretend = 0, frame = 0
 567              		@ frame_needed = 0, uses_anonymous_args = 0
 568              	.LVL66:
 569 0000 38B5     		push	{r3, r4, r5, lr}
 570              	.LCFI9:
 571              		.cfi_def_cfa_offset 16
 572              		.cfi_offset 3, -16
 573              		.cfi_offset 4, -12
 574              		.cfi_offset 5, -8
 575              		.cfi_offset 14, -4
 576              		.loc 1 320 0
 577 0002 1D46     		mov	r5, r3
 578 0004 0446     		mov	r4, r0
 579              	.LBB25:
 580              		.loc 1 325 0
 581 0006 2023     		movs	r3, #32
 582              	.LVL67:
 583              	@ 325 "../../../ChibiOS/os/hal/src/spi.c" 1
 584 0008 83F31188 		msr     BASEPRI, r3
 585              	@ 0 "" 2
 586              	.LVL68:
 587              		.thumb
 588              	.LBE25:
 589              		.loc 1 329 0
 590 000c 2B46     		mov	r3, r5
 591              	.LVL69:
 592 000e 0325     		movs	r5, #3
 593              	.LVL70:
 594 0010 0570     		strb	r5, [r0, #0]
 595 0012 FFF7FEFF 		bl	spi_lld_exchange
 596              	.LVL71:
 597              		.loc 1 330 0
 598 0016 40F20003 		movw	r3, #:lower16:rlist
 599 001a C0F20003 		movt	r3, #:upper16:rlist
 600 001e 0220     		movs	r0, #2
 601 0020 9969     		ldr	r1, [r3, #24]
 602 0022 A160     		str	r1, [r4, #8]
 603 0024 FFF7FEFF 		bl	chSchGoSleepS
 604              	.LVL72:
 605              	.LBB26:
 606              		.loc 1 331 0
 607 0028 0023     		movs	r3, #0
 608              	.LVL73:
 609              	@ 331 "../../../ChibiOS/os/hal/src/spi.c" 1
 610 002a 83F31188 		msr     BASEPRI, r3
 611              	@ 0 "" 2
 612              	.LVL74:
 613              		.thumb
 614 002e 38BD     		pop	{r3, r4, r5, pc}
 615              	.LBE26:
 616              		.cfi_endproc
 617              	.LFE129:
 618              		.size	spiExchange, .-spiExchange
ARM GAS  C:\Users\DNIEL~1\AppData\Local\Temp\ccfZfb0o.s 			page 12


 619              		.section	.text.spiSend,"ax",%progbits
 620              		.align	2
 621              		.p2align 4,,15
 622              		.global	spiSend
 623              		.thumb
 624              		.thumb_func
 625              		.type	spiSend, %function
 626              	spiSend:
 627              	.LFB130:
 628              		.loc 1 350 0
 629              		.cfi_startproc
 630              		@ args = 0, pretend = 0, frame = 0
 631              		@ frame_needed = 0, uses_anonymous_args = 0
 632              	.LVL75:
 633 0000 10B5     		push	{r4, lr}
 634              	.LCFI10:
 635              		.cfi_def_cfa_offset 8
 636              		.cfi_offset 4, -8
 637              		.cfi_offset 14, -4
 638              	.LBB27:
 639              		.loc 1 354 0
 640 0002 2023     		movs	r3, #32
 641              	.LVL76:
 642              	.LBE27:
 643              		.loc 1 350 0
 644 0004 0446     		mov	r4, r0
 645              	.LBB28:
 646              		.loc 1 354 0
 647              	@ 354 "../../../ChibiOS/os/hal/src/spi.c" 1
 648 0006 83F31188 		msr     BASEPRI, r3
 649              	@ 0 "" 2
 650              	.LVL77:
 651              		.thumb
 652              	.LBE28:
 653              		.loc 1 357 0
 654 000a 0323     		movs	r3, #3
 655              	.LVL78:
 656 000c 0370     		strb	r3, [r0, #0]
 657 000e FFF7FEFF 		bl	spi_lld_send
 658              	.LVL79:
 659              		.loc 1 358 0
 660 0012 40F20001 		movw	r1, #:lower16:rlist
 661 0016 C0F20001 		movt	r1, #:upper16:rlist
 662 001a 0220     		movs	r0, #2
 663 001c 8A69     		ldr	r2, [r1, #24]
 664 001e A260     		str	r2, [r4, #8]
 665 0020 FFF7FEFF 		bl	chSchGoSleepS
 666              	.LVL80:
 667              	.LBB29:
 668              		.loc 1 359 0
 669 0024 0023     		movs	r3, #0
 670              	.LVL81:
 671              	@ 359 "../../../ChibiOS/os/hal/src/spi.c" 1
 672 0026 83F31188 		msr     BASEPRI, r3
 673              	@ 0 "" 2
 674              	.LVL82:
 675              		.thumb
ARM GAS  C:\Users\DNIEL~1\AppData\Local\Temp\ccfZfb0o.s 			page 13


 676 002a 10BD     		pop	{r4, pc}
 677              	.LBE29:
 678              		.cfi_endproc
 679              	.LFE130:
 680              		.size	spiSend, .-spiSend
 681 002c AFF30080 		.section	.text.spiReceive,"ax",%progbits
 682              		.align	2
 683              		.p2align 4,,15
 684              		.global	spiReceive
 685              		.thumb
 686              		.thumb_func
 687              		.type	spiReceive, %function
 688              	spiReceive:
 689              	.LFB131:
 690              		.loc 1 378 0
 691              		.cfi_startproc
 692              		@ args = 0, pretend = 0, frame = 0
 693              		@ frame_needed = 0, uses_anonymous_args = 0
 694              	.LVL83:
 695 0000 10B5     		push	{r4, lr}
 696              	.LCFI11:
 697              		.cfi_def_cfa_offset 8
 698              		.cfi_offset 4, -8
 699              		.cfi_offset 14, -4
 700              	.LBB30:
 701              		.loc 1 383 0
 702 0002 2023     		movs	r3, #32
 703              	.LVL84:
 704              	.LBE30:
 705              		.loc 1 378 0
 706 0004 0446     		mov	r4, r0
 707              	.LBB31:
 708              		.loc 1 383 0
 709              	@ 383 "../../../ChibiOS/os/hal/src/spi.c" 1
 710 0006 83F31188 		msr     BASEPRI, r3
 711              	@ 0 "" 2
 712              	.LVL85:
 713              		.thumb
 714              	.LBE31:
 715              		.loc 1 387 0
 716 000a 0323     		movs	r3, #3
 717              	.LVL86:
 718 000c 0370     		strb	r3, [r0, #0]
 719 000e FFF7FEFF 		bl	spi_lld_receive
 720              	.LVL87:
 721              		.loc 1 388 0
 722 0012 40F20001 		movw	r1, #:lower16:rlist
 723 0016 C0F20001 		movt	r1, #:upper16:rlist
 724 001a 0220     		movs	r0, #2
 725 001c 8A69     		ldr	r2, [r1, #24]
 726 001e A260     		str	r2, [r4, #8]
 727 0020 FFF7FEFF 		bl	chSchGoSleepS
 728              	.LVL88:
 729              	.LBB32:
 730              		.loc 1 389 0
 731 0024 0023     		movs	r3, #0
 732              	.LVL89:
ARM GAS  C:\Users\DNIEL~1\AppData\Local\Temp\ccfZfb0o.s 			page 14


 733              	@ 389 "../../../ChibiOS/os/hal/src/spi.c" 1
 734 0026 83F31188 		msr     BASEPRI, r3
 735              	@ 0 "" 2
 736              	.LVL90:
 737              		.thumb
 738 002a 10BD     		pop	{r4, pc}
 739              	.LBE32:
 740              		.cfi_endproc
 741              	.LFE131:
 742              		.size	spiReceive, .-spiReceive
 743 002c AFF30080 		.section	.text.spiAcquireBus,"ax",%progbits
 744              		.align	2
 745              		.p2align 4,,15
 746              		.global	spiAcquireBus
 747              		.thumb
 748              		.thumb_func
 749              		.type	spiAcquireBus, %function
 750              	spiAcquireBus:
 751              	.LFB132:
 752              		.loc 1 405 0
 753              		.cfi_startproc
 754              		@ args = 0, pretend = 0, frame = 0
 755              		@ frame_needed = 0, uses_anonymous_args = 0
 756              		@ link register save eliminated.
 757              	.LVL91:
 758              		.loc 1 410 0
 759 0000 0C30     		adds	r0, r0, #12
 760              	.LVL92:
 761              		.loc 1 414 0
 762              		.loc 1 410 0
 763 0002 FFF7FEBF 		b	chMtxLock
 764              	.LVL93:
 765              		.cfi_endproc
 766              	.LFE132:
 767              		.size	spiAcquireBus, .-spiAcquireBus
 768 0006 00BFAFF3 		.section	.text.spiReleaseBus,"ax",%progbits
 768      0080AFF3 
 768      0080
 769              		.align	2
 770              		.p2align 4,,15
 771              		.global	spiReleaseBus
 772              		.thumb
 773              		.thumb_func
 774              		.type	spiReleaseBus, %function
 775              	spiReleaseBus:
 776              	.LFB133:
 777              		.loc 1 425 0
 778              		.cfi_startproc
 779              		@ args = 0, pretend = 0, frame = 0
 780              		@ frame_needed = 0, uses_anonymous_args = 0
 781              		@ link register save eliminated.
 782              	.LVL94:
 783              		.loc 1 435 0
 784              		.loc 1 431 0
 785 0000 FFF7FEBF 		b	chMtxUnlock
 786              	.LVL95:
 787              		.cfi_endproc
ARM GAS  C:\Users\DNIEL~1\AppData\Local\Temp\ccfZfb0o.s 			page 15


 788              	.LFE133:
 789              		.size	spiReleaseBus, .-spiReleaseBus
 790 0004 AFF30080 		.text
 790      AFF30080 
 790      AFF30080 
 791              	.Letext0:
 792              		.file 2 "c:\\chibistudio\\tools\\gnu tools arm embedded\\4.7 2014q2\\bin\\../lib/gcc/arm-none-eabi
 793              		.file 3 "c:\\chibistudio\\tools\\gnu tools arm embedded\\4.7 2014q2\\bin\\../lib/gcc/arm-none-eabi
 794              		.file 4 "../../../ChibiOS/os/ports/GCC/ARMCMx/chtypes.h"
 795              		.file 5 "../../../ChibiOS/os/kernel/include/chlists.h"
 796              		.file 6 "../../../ChibiOS/os/kernel/include/chthreads.h"
 797              		.file 7 "../../../ChibiOS/os/ports/GCC/ARMCMx/chcore_v7m.h"
 798              		.file 8 "../../../ChibiOS/os/kernel/include/chschd.h"
 799              		.file 9 "../../../ChibiOS/os/kernel/include/chmtx.h"
 800              		.file 10 "../../../ChibiOS/os/hal/platforms/STM32F4xx/stm32f4xx.h"
 801              		.file 11 "../../../ChibiOS/os/hal/platforms/STM32F4xx/stm32_dma.h"
 802              		.file 12 "../../../ChibiOS/os/hal/platforms/STM32/GPIOv2/pal_lld.h"
 803              		.file 13 "../../../ChibiOS/os/hal/include/spi.h"
 804              		.file 14 "../../../ChibiOS/os/hal/platforms/STM32/spi_lld.h"
 805              		.file 15 "../../../ChibiOS/os/ports/common/ARMCMx/CMSIS/include/core_cm4.h"
 806              		.section	.debug_info,"",%progbits
 807              	.Ldebug_info0:
 808 0000 FB110000 		.4byte	0x11fb
 809 0004 0200     		.2byte	0x2
 810 0006 00000000 		.4byte	.Ldebug_abbrev0
 811 000a 04       		.byte	0x4
 812 000b 01       		.uleb128 0x1
 813 000c 17030000 		.4byte	.LASF152
 814 0010 01       		.byte	0x1
 815 0011 18010000 		.4byte	.LASF153
 816 0015 CB050000 		.4byte	.LASF154
 817 0019 A8000000 		.4byte	.Ldebug_ranges0+0xa8
 818 001d 00000000 		.4byte	0
 819 0021 00000000 		.4byte	0
 820 0025 00000000 		.4byte	.Ldebug_line0
 821 0029 02       		.uleb128 0x2
 822 002a 04       		.byte	0x4
 823 002b 05       		.byte	0x5
 824 002c 696E7400 		.ascii	"int\000"
 825 0030 03       		.uleb128 0x3
 826 0031 0B000000 		.4byte	.LASF2
 827 0035 02       		.byte	0x2
 828 0036 D5       		.byte	0xd5
 829 0037 3B000000 		.4byte	0x3b
 830 003b 04       		.uleb128 0x4
 831 003c 04       		.byte	0x4
 832 003d 07       		.byte	0x7
 833 003e 0E020000 		.4byte	.LASF0
 834 0042 04       		.uleb128 0x4
 835 0043 01       		.byte	0x1
 836 0044 06       		.byte	0x6
 837 0045 BA000000 		.4byte	.LASF1
 838 0049 03       		.uleb128 0x3
 839 004a 0B060000 		.4byte	.LASF3
 840 004e 03       		.byte	0x3
 841 004f 2A       		.byte	0x2a
 842 0050 54000000 		.4byte	0x54
ARM GAS  C:\Users\DNIEL~1\AppData\Local\Temp\ccfZfb0o.s 			page 16


 843 0054 04       		.uleb128 0x4
 844 0055 01       		.byte	0x1
 845 0056 08       		.byte	0x8
 846 0057 15040000 		.4byte	.LASF4
 847 005b 04       		.uleb128 0x4
 848 005c 02       		.byte	0x2
 849 005d 05       		.byte	0x5
 850 005e 40040000 		.4byte	.LASF5
 851 0062 03       		.uleb128 0x3
 852 0063 79010000 		.4byte	.LASF6
 853 0067 03       		.byte	0x3
 854 0068 36       		.byte	0x36
 855 0069 6D000000 		.4byte	0x6d
 856 006d 04       		.uleb128 0x4
 857 006e 02       		.byte	0x2
 858 006f 07       		.byte	0x7
 859 0070 69020000 		.4byte	.LASF7
 860 0074 03       		.uleb128 0x3
 861 0075 0D040000 		.4byte	.LASF8
 862 0079 03       		.byte	0x3
 863 007a 4F       		.byte	0x4f
 864 007b 7F000000 		.4byte	0x7f
 865 007f 04       		.uleb128 0x4
 866 0080 04       		.byte	0x4
 867 0081 05       		.byte	0x5
 868 0082 0F010000 		.4byte	.LASF9
 869 0086 03       		.uleb128 0x3
 870 0087 AF040000 		.4byte	.LASF10
 871 008b 03       		.byte	0x3
 872 008c 50       		.byte	0x50
 873 008d 91000000 		.4byte	0x91
 874 0091 04       		.uleb128 0x4
 875 0092 04       		.byte	0x4
 876 0093 07       		.byte	0x7
 877 0094 C8040000 		.4byte	.LASF11
 878 0098 04       		.uleb128 0x4
 879 0099 08       		.byte	0x8
 880 009a 05       		.byte	0x5
 881 009b 6B010000 		.4byte	.LASF12
 882 009f 04       		.uleb128 0x4
 883 00a0 08       		.byte	0x8
 884 00a1 07       		.byte	0x7
 885 00a2 40000000 		.4byte	.LASF13
 886 00a6 03       		.uleb128 0x3
 887 00a7 82020000 		.4byte	.LASF14
 888 00ab 04       		.byte	0x4
 889 00ac 28       		.byte	0x28
 890 00ad 49000000 		.4byte	0x49
 891 00b1 03       		.uleb128 0x3
 892 00b2 3A010000 		.4byte	.LASF15
 893 00b6 04       		.byte	0x4
 894 00b7 29       		.byte	0x29
 895 00b8 49000000 		.4byte	0x49
 896 00bc 03       		.uleb128 0x3
 897 00bd C0040000 		.4byte	.LASF16
 898 00c1 04       		.byte	0x4
 899 00c2 2A       		.byte	0x2a
ARM GAS  C:\Users\DNIEL~1\AppData\Local\Temp\ccfZfb0o.s 			page 17


 900 00c3 49000000 		.4byte	0x49
 901 00c7 03       		.uleb128 0x3
 902 00c8 F1000000 		.4byte	.LASF17
 903 00cc 04       		.byte	0x4
 904 00cd 2B       		.byte	0x2b
 905 00ce 49000000 		.4byte	0x49
 906 00d2 03       		.uleb128 0x3
 907 00d3 FF030000 		.4byte	.LASF18
 908 00d7 04       		.byte	0x4
 909 00d8 2C       		.byte	0x2c
 910 00d9 86000000 		.4byte	0x86
 911 00dd 03       		.uleb128 0x3
 912 00de 7C020000 		.4byte	.LASF19
 913 00e2 04       		.byte	0x4
 914 00e3 2D       		.byte	0x2d
 915 00e4 74000000 		.4byte	0x74
 916 00e8 03       		.uleb128 0x3
 917 00e9 96020000 		.4byte	.LASF20
 918 00ed 04       		.byte	0x4
 919 00ee 2F       		.byte	0x2f
 920 00ef 86000000 		.4byte	0x86
 921 00f3 03       		.uleb128 0x3
 922 00f4 11050000 		.4byte	.LASF21
 923 00f8 04       		.byte	0x4
 924 00f9 31       		.byte	0x31
 925 00fa 86000000 		.4byte	0x86
 926 00fe 03       		.uleb128 0x3
 927 00ff 80040000 		.4byte	.LASF22
 928 0103 05       		.byte	0x5
 929 0104 23       		.byte	0x23
 930 0105 09010000 		.4byte	0x109
 931 0109 05       		.uleb128 0x5
 932 010a 80040000 		.4byte	.LASF22
 933 010e 48       		.byte	0x48
 934 010f 06       		.byte	0x6
 935 0110 57       		.byte	0x57
 936 0111 2E020000 		.4byte	0x22e
 937 0115 06       		.uleb128 0x6
 938 0116 71040000 		.4byte	.LASF23
 939 011a 06       		.byte	0x6
 940 011b 58       		.byte	0x58
 941 011c 53020000 		.4byte	0x253
 942 0120 02       		.byte	0x2
 943 0121 23       		.byte	0x23
 944 0122 00       		.uleb128 0
 945 0123 06       		.uleb128 0x6
 946 0124 DA030000 		.4byte	.LASF24
 947 0128 06       		.byte	0x6
 948 0129 5A       		.byte	0x5a
 949 012a 53020000 		.4byte	0x253
 950 012e 02       		.byte	0x2
 951 012f 23       		.byte	0x23
 952 0130 04       		.uleb128 0x4
 953 0131 06       		.uleb128 0x6
 954 0132 A1000000 		.4byte	.LASF25
 955 0136 06       		.byte	0x6
 956 0137 5C       		.byte	0x5c
ARM GAS  C:\Users\DNIEL~1\AppData\Local\Temp\ccfZfb0o.s 			page 18


 957 0138 D2000000 		.4byte	0xd2
 958 013c 02       		.byte	0x2
 959 013d 23       		.byte	0x23
 960 013e 08       		.uleb128 0x8
 961 013f 06       		.uleb128 0x6
 962 0140 46060000 		.4byte	.LASF26
 963 0144 06       		.byte	0x6
 964 0145 5D       		.byte	0x5d
 965 0146 21030000 		.4byte	0x321
 966 014a 02       		.byte	0x2
 967 014b 23       		.byte	0x23
 968 014c 0C       		.uleb128 0xc
 969 014d 06       		.uleb128 0x6
 970 014e 98010000 		.4byte	.LASF27
 971 0152 06       		.byte	0x6
 972 0153 5F       		.byte	0x5f
 973 0154 53020000 		.4byte	0x253
 974 0158 02       		.byte	0x2
 975 0159 23       		.byte	0x23
 976 015a 10       		.uleb128 0x10
 977 015b 06       		.uleb128 0x6
 978 015c 60030000 		.4byte	.LASF28
 979 0160 06       		.byte	0x6
 980 0161 60       		.byte	0x60
 981 0162 53020000 		.4byte	0x253
 982 0166 02       		.byte	0x2
 983 0167 23       		.byte	0x23
 984 0168 14       		.uleb128 0x14
 985 0169 06       		.uleb128 0x6
 986 016a 1F060000 		.4byte	.LASF29
 987 016e 06       		.byte	0x6
 988 016f 67       		.byte	0x67
 989 0170 3A040000 		.4byte	0x43a
 990 0174 02       		.byte	0x2
 991 0175 23       		.byte	0x23
 992 0176 18       		.uleb128 0x18
 993 0177 06       		.uleb128 0x6
 994 0178 4A040000 		.4byte	.LASF30
 995 017c 06       		.byte	0x6
 996 017d 72       		.byte	0x72
 997 017e B1000000 		.4byte	0xb1
 998 0182 02       		.byte	0x2
 999 0183 23       		.byte	0x23
 1000 0184 1C       		.uleb128 0x1c
 1001 0185 06       		.uleb128 0x6
 1002 0186 78040000 		.4byte	.LASF31
 1003 018a 06       		.byte	0x6
 1004 018b 76       		.byte	0x76
 1005 018c A6000000 		.4byte	0xa6
 1006 0190 02       		.byte	0x2
 1007 0191 23       		.byte	0x23
 1008 0192 1D       		.uleb128 0x1d
 1009 0193 06       		.uleb128 0x6
 1010 0194 64010000 		.4byte	.LASF32
 1011 0198 06       		.byte	0x6
 1012 0199 7B       		.byte	0x7b
 1013 019a BC000000 		.4byte	0xbc
ARM GAS  C:\Users\DNIEL~1\AppData\Local\Temp\ccfZfb0o.s 			page 19


 1014 019e 02       		.byte	0x2
 1015 019f 23       		.byte	0x23
 1016 01a0 1E       		.uleb128 0x1e
 1017 01a1 06       		.uleb128 0x6
 1018 01a2 52040000 		.4byte	.LASF33
 1019 01a6 06       		.byte	0x6
 1020 01a7 81       		.byte	0x81
 1021 01a8 C7000000 		.4byte	0xc7
 1022 01ac 02       		.byte	0x2
 1023 01ad 23       		.byte	0x23
 1024 01ae 1F       		.uleb128 0x1f
 1025 01af 06       		.uleb128 0x6
 1026 01b0 82010000 		.4byte	.LASF34
 1027 01b4 06       		.byte	0x6
 1028 01b5 88       		.byte	0x88
 1029 01b6 50030000 		.4byte	0x350
 1030 01ba 02       		.byte	0x2
 1031 01bb 23       		.byte	0x23
 1032 01bc 20       		.uleb128 0x20
 1033 01bd 07       		.uleb128 0x7
 1034 01be 705F7500 		.ascii	"p_u\000"
 1035 01c2 06       		.byte	0x6
 1036 01c3 AD       		.byte	0xad
 1037 01c4 05040000 		.4byte	0x405
 1038 01c8 02       		.byte	0x2
 1039 01c9 23       		.byte	0x23
 1040 01ca 24       		.uleb128 0x24
 1041 01cb 06       		.uleb128 0x6
 1042 01cc 4C060000 		.4byte	.LASF35
 1043 01d0 06       		.byte	0x6
 1044 01d1 B2       		.byte	0xb2
 1045 01d2 7B020000 		.4byte	0x27b
 1046 01d6 02       		.byte	0x2
 1047 01d7 23       		.byte	0x23
 1048 01d8 28       		.uleb128 0x28
 1049 01d9 06       		.uleb128 0x6
 1050 01da 3D020000 		.4byte	.LASF36
 1051 01de 06       		.byte	0x6
 1052 01df B8       		.byte	0xb8
 1053 01e0 59020000 		.4byte	0x259
 1054 01e4 02       		.byte	0x2
 1055 01e5 23       		.byte	0x23
 1056 01e6 2C       		.uleb128 0x2c
 1057 01e7 06       		.uleb128 0x6
 1058 01e8 38060000 		.4byte	.LASF37
 1059 01ec 06       		.byte	0x6
 1060 01ed BC       		.byte	0xbc
 1061 01ee DD000000 		.4byte	0xdd
 1062 01f2 02       		.byte	0x2
 1063 01f3 23       		.byte	0x23
 1064 01f4 34       		.uleb128 0x34
 1065 01f5 06       		.uleb128 0x6
 1066 01f6 95040000 		.4byte	.LASF38
 1067 01fa 06       		.byte	0x6
 1068 01fb C2       		.byte	0xc2
 1069 01fc E8000000 		.4byte	0xe8
 1070 0200 02       		.byte	0x2
ARM GAS  C:\Users\DNIEL~1\AppData\Local\Temp\ccfZfb0o.s 			page 20


 1071 0201 23       		.byte	0x23
 1072 0202 38       		.uleb128 0x38
 1073 0203 06       		.uleb128 0x6
 1074 0204 36040000 		.4byte	.LASF39
 1075 0208 06       		.byte	0x6
 1076 0209 C9       		.byte	0xc9
 1077 020a 4C040000 		.4byte	0x44c
 1078 020e 02       		.byte	0x2
 1079 020f 23       		.byte	0x23
 1080 0210 3C       		.uleb128 0x3c
 1081 0211 06       		.uleb128 0x6
 1082 0212 1B050000 		.4byte	.LASF40
 1083 0216 06       		.byte	0x6
 1084 0217 CD       		.byte	0xcd
 1085 0218 D2000000 		.4byte	0xd2
 1086 021c 02       		.byte	0x2
 1087 021d 23       		.byte	0x23
 1088 021e 40       		.uleb128 0x40
 1089 021f 06       		.uleb128 0x6
 1090 0220 D4010000 		.4byte	.LASF41
 1091 0224 06       		.byte	0x6
 1092 0225 D3       		.byte	0xd3
 1093 0226 91020000 		.4byte	0x291
 1094 022a 02       		.byte	0x2
 1095 022b 23       		.byte	0x23
 1096 022c 44       		.uleb128 0x44
 1097 022d 00       		.byte	0
 1098 022e 08       		.uleb128 0x8
 1099 022f 08       		.byte	0x8
 1100 0230 05       		.byte	0x5
 1101 0231 5A       		.byte	0x5a
 1102 0232 53020000 		.4byte	0x253
 1103 0236 06       		.uleb128 0x6
 1104 0237 71040000 		.4byte	.LASF23
 1105 023b 05       		.byte	0x5
 1106 023c 5B       		.byte	0x5b
 1107 023d 53020000 		.4byte	0x253
 1108 0241 02       		.byte	0x2
 1109 0242 23       		.byte	0x23
 1110 0243 00       		.uleb128 0
 1111 0244 06       		.uleb128 0x6
 1112 0245 DA030000 		.4byte	.LASF24
 1113 0249 05       		.byte	0x5
 1114 024a 5D       		.byte	0x5d
 1115 024b 53020000 		.4byte	0x253
 1116 024f 02       		.byte	0x2
 1117 0250 23       		.byte	0x23
 1118 0251 04       		.uleb128 0x4
 1119 0252 00       		.byte	0
 1120 0253 09       		.uleb128 0x9
 1121 0254 04       		.byte	0x4
 1122 0255 FE000000 		.4byte	0xfe
 1123 0259 03       		.uleb128 0x3
 1124 025a 6E030000 		.4byte	.LASF42
 1125 025e 05       		.byte	0x5
 1126 025f 5F       		.byte	0x5f
 1127 0260 2E020000 		.4byte	0x22e
ARM GAS  C:\Users\DNIEL~1\AppData\Local\Temp\ccfZfb0o.s 			page 21


 1128 0264 08       		.uleb128 0x8
 1129 0265 04       		.byte	0x4
 1130 0266 05       		.byte	0x5
 1131 0267 64       		.byte	0x64
 1132 0268 7B020000 		.4byte	0x27b
 1133 026c 06       		.uleb128 0x6
 1134 026d 71040000 		.4byte	.LASF23
 1135 0271 05       		.byte	0x5
 1136 0272 66       		.byte	0x66
 1137 0273 53020000 		.4byte	0x253
 1138 0277 02       		.byte	0x2
 1139 0278 23       		.byte	0x23
 1140 0279 00       		.uleb128 0
 1141 027a 00       		.byte	0
 1142 027b 03       		.uleb128 0x3
 1143 027c 8A020000 		.4byte	.LASF43
 1144 0280 05       		.byte	0x5
 1145 0281 69       		.byte	0x69
 1146 0282 64020000 		.4byte	0x264
 1147 0286 03       		.uleb128 0x3
 1148 0287 DC010000 		.4byte	.LASF44
 1149 028b 07       		.byte	0x7
 1150 028c DE       		.byte	0xde
 1151 028d 91020000 		.4byte	0x291
 1152 0291 0A       		.uleb128 0xa
 1153 0292 04       		.byte	0x4
 1154 0293 0B       		.uleb128 0xb
 1155 0294 8A050000 		.4byte	.LASF45
 1156 0298 24       		.byte	0x24
 1157 0299 07       		.byte	0x7
 1158 029a 0501     		.2byte	0x105
 1159 029c 21030000 		.4byte	0x321
 1160 02a0 0C       		.uleb128 0xc
 1161 02a1 723400   		.ascii	"r4\000"
 1162 02a4 07       		.byte	0x7
 1163 02a5 1801     		.2byte	0x118
 1164 02a7 86020000 		.4byte	0x286
 1165 02ab 02       		.byte	0x2
 1166 02ac 23       		.byte	0x23
 1167 02ad 00       		.uleb128 0
 1168 02ae 0C       		.uleb128 0xc
 1169 02af 723500   		.ascii	"r5\000"
 1170 02b2 07       		.byte	0x7
 1171 02b3 1901     		.2byte	0x119
 1172 02b5 86020000 		.4byte	0x286
 1173 02b9 02       		.byte	0x2
 1174 02ba 23       		.byte	0x23
 1175 02bb 04       		.uleb128 0x4
 1176 02bc 0C       		.uleb128 0xc
 1177 02bd 723600   		.ascii	"r6\000"
 1178 02c0 07       		.byte	0x7
 1179 02c1 1A01     		.2byte	0x11a
 1180 02c3 86020000 		.4byte	0x286
 1181 02c7 02       		.byte	0x2
 1182 02c8 23       		.byte	0x23
 1183 02c9 08       		.uleb128 0x8
 1184 02ca 0C       		.uleb128 0xc
ARM GAS  C:\Users\DNIEL~1\AppData\Local\Temp\ccfZfb0o.s 			page 22


 1185 02cb 723700   		.ascii	"r7\000"
 1186 02ce 07       		.byte	0x7
 1187 02cf 1B01     		.2byte	0x11b
 1188 02d1 86020000 		.4byte	0x286
 1189 02d5 02       		.byte	0x2
 1190 02d6 23       		.byte	0x23
 1191 02d7 0C       		.uleb128 0xc
 1192 02d8 0C       		.uleb128 0xc
 1193 02d9 723800   		.ascii	"r8\000"
 1194 02dc 07       		.byte	0x7
 1195 02dd 1C01     		.2byte	0x11c
 1196 02df 86020000 		.4byte	0x286
 1197 02e3 02       		.byte	0x2
 1198 02e4 23       		.byte	0x23
 1199 02e5 10       		.uleb128 0x10
 1200 02e6 0C       		.uleb128 0xc
 1201 02e7 723900   		.ascii	"r9\000"
 1202 02ea 07       		.byte	0x7
 1203 02eb 1D01     		.2byte	0x11d
 1204 02ed 86020000 		.4byte	0x286
 1205 02f1 02       		.byte	0x2
 1206 02f2 23       		.byte	0x23
 1207 02f3 14       		.uleb128 0x14
 1208 02f4 0C       		.uleb128 0xc
 1209 02f5 72313000 		.ascii	"r10\000"
 1210 02f9 07       		.byte	0x7
 1211 02fa 1E01     		.2byte	0x11e
 1212 02fc 86020000 		.4byte	0x286
 1213 0300 02       		.byte	0x2
 1214 0301 23       		.byte	0x23
 1215 0302 18       		.uleb128 0x18
 1216 0303 0C       		.uleb128 0xc
 1217 0304 72313100 		.ascii	"r11\000"
 1218 0308 07       		.byte	0x7
 1219 0309 1F01     		.2byte	0x11f
 1220 030b 86020000 		.4byte	0x286
 1221 030f 02       		.byte	0x2
 1222 0310 23       		.byte	0x23
 1223 0311 1C       		.uleb128 0x1c
 1224 0312 0C       		.uleb128 0xc
 1225 0313 6C7200   		.ascii	"lr\000"
 1226 0316 07       		.byte	0x7
 1227 0317 2001     		.2byte	0x120
 1228 0319 86020000 		.4byte	0x286
 1229 031d 02       		.byte	0x2
 1230 031e 23       		.byte	0x23
 1231 031f 20       		.uleb128 0x20
 1232 0320 00       		.byte	0
 1233 0321 0B       		.uleb128 0xb
 1234 0322 61020000 		.4byte	.LASF46
 1235 0326 04       		.byte	0x4
 1236 0327 07       		.byte	0x7
 1237 0328 2A01     		.2byte	0x12a
 1238 032a 3E030000 		.4byte	0x33e
 1239 032e 0C       		.uleb128 0xc
 1240 032f 72313300 		.ascii	"r13\000"
 1241 0333 07       		.byte	0x7
ARM GAS  C:\Users\DNIEL~1\AppData\Local\Temp\ccfZfb0o.s 			page 23


 1242 0334 2B01     		.2byte	0x12b
 1243 0336 3E030000 		.4byte	0x33e
 1244 033a 02       		.byte	0x2
 1245 033b 23       		.byte	0x23
 1246 033c 00       		.uleb128 0
 1247 033d 00       		.byte	0
 1248 033e 09       		.uleb128 0x9
 1249 033f 04       		.byte	0x4
 1250 0340 93020000 		.4byte	0x293
 1251 0344 0D       		.uleb128 0xd
 1252 0345 86000000 		.4byte	0x86
 1253 0349 04       		.uleb128 0x4
 1254 034a 04       		.byte	0x4
 1255 034b 07       		.byte	0x7
 1256 034c DD020000 		.4byte	.LASF47
 1257 0350 0D       		.uleb128 0xd
 1258 0351 F3000000 		.4byte	0xf3
 1259 0355 08       		.uleb128 0x8
 1260 0356 1C       		.byte	0x1c
 1261 0357 08       		.byte	0x8
 1262 0358 57       		.byte	0x57
 1263 0359 B2030000 		.4byte	0x3b2
 1264 035d 06       		.uleb128 0x6
 1265 035e B8040000 		.4byte	.LASF48
 1266 0362 08       		.byte	0x8
 1267 0363 58       		.byte	0x58
 1268 0364 59020000 		.4byte	0x259
 1269 0368 02       		.byte	0x2
 1270 0369 23       		.byte	0x23
 1271 036a 00       		.uleb128 0
 1272 036b 06       		.uleb128 0x6
 1273 036c B4020000 		.4byte	.LASF49
 1274 0370 08       		.byte	0x8
 1275 0371 59       		.byte	0x59
 1276 0372 D2000000 		.4byte	0xd2
 1277 0376 02       		.byte	0x2
 1278 0377 23       		.byte	0x23
 1279 0378 08       		.uleb128 0x8
 1280 0379 06       		.uleb128 0x6
 1281 037a 68030000 		.4byte	.LASF50
 1282 037e 08       		.byte	0x8
 1283 037f 5B       		.byte	0x5b
 1284 0380 21030000 		.4byte	0x321
 1285 0384 02       		.byte	0x2
 1286 0385 23       		.byte	0x23
 1287 0386 0C       		.uleb128 0xc
 1288 0387 06       		.uleb128 0x6
 1289 0388 CC010000 		.4byte	.LASF51
 1290 038c 08       		.byte	0x8
 1291 038d 5E       		.byte	0x5e
 1292 038e 53020000 		.4byte	0x253
 1293 0392 02       		.byte	0x2
 1294 0393 23       		.byte	0x23
 1295 0394 10       		.uleb128 0x10
 1296 0395 06       		.uleb128 0x6
 1297 0396 8F030000 		.4byte	.LASF52
 1298 039a 08       		.byte	0x8
ARM GAS  C:\Users\DNIEL~1\AppData\Local\Temp\ccfZfb0o.s 			page 24


 1299 039b 5F       		.byte	0x5f
 1300 039c 53020000 		.4byte	0x253
 1301 03a0 02       		.byte	0x2
 1302 03a1 23       		.byte	0x23
 1303 03a2 14       		.uleb128 0x14
 1304 03a3 06       		.uleb128 0x6
 1305 03a4 85030000 		.4byte	.LASF53
 1306 03a8 08       		.byte	0x8
 1307 03a9 62       		.byte	0x62
 1308 03aa 53020000 		.4byte	0x253
 1309 03ae 02       		.byte	0x2
 1310 03af 23       		.byte	0x23
 1311 03b0 18       		.uleb128 0x18
 1312 03b1 00       		.byte	0
 1313 03b2 03       		.uleb128 0x3
 1314 03b3 A2020000 		.4byte	.LASF54
 1315 03b7 08       		.byte	0x8
 1316 03b8 64       		.byte	0x64
 1317 03b9 55030000 		.4byte	0x355
 1318 03bd 05       		.uleb128 0x5
 1319 03be EC020000 		.4byte	.LASF55
 1320 03c2 10       		.byte	0x10
 1321 03c3 09       		.byte	0x9
 1322 03c4 25       		.byte	0x25
 1323 03c5 F4030000 		.4byte	0x3f4
 1324 03c9 06       		.uleb128 0x6
 1325 03ca E9000000 		.4byte	.LASF56
 1326 03ce 09       		.byte	0x9
 1327 03cf 26       		.byte	0x26
 1328 03d0 59020000 		.4byte	0x259
 1329 03d4 02       		.byte	0x2
 1330 03d5 23       		.byte	0x23
 1331 03d6 00       		.uleb128 0
 1332 03d7 06       		.uleb128 0x6
 1333 03d8 3E060000 		.4byte	.LASF57
 1334 03dc 09       		.byte	0x9
 1335 03dd 28       		.byte	0x28
 1336 03de 53020000 		.4byte	0x253
 1337 03e2 02       		.byte	0x2
 1338 03e3 23       		.byte	0x23
 1339 03e4 08       		.uleb128 0x8
 1340 03e5 06       		.uleb128 0x6
 1341 03e6 0A050000 		.4byte	.LASF58
 1342 03ea 09       		.byte	0x9
 1343 03eb 2A       		.byte	0x2a
 1344 03ec F4030000 		.4byte	0x3f4
 1345 03f0 02       		.byte	0x2
 1346 03f1 23       		.byte	0x23
 1347 03f2 0C       		.uleb128 0xc
 1348 03f3 00       		.byte	0
 1349 03f4 09       		.uleb128 0x9
 1350 03f5 04       		.byte	0x4
 1351 03f6 BD030000 		.4byte	0x3bd
 1352 03fa 03       		.uleb128 0x3
 1353 03fb EC020000 		.4byte	.LASF55
 1354 03ff 09       		.byte	0x9
 1355 0400 2C       		.byte	0x2c
ARM GAS  C:\Users\DNIEL~1\AppData\Local\Temp\ccfZfb0o.s 			page 25


 1356 0401 BD030000 		.4byte	0x3bd
 1357 0405 0E       		.uleb128 0xe
 1358 0406 04       		.byte	0x4
 1359 0407 06       		.byte	0x6
 1360 0408 8F       		.byte	0x8f
 1361 0409 3A040000 		.4byte	0x43a
 1362 040d 0F       		.uleb128 0xf
 1363 040e 12000000 		.4byte	.LASF59
 1364 0412 06       		.byte	0x6
 1365 0413 96       		.byte	0x96
 1366 0414 DD000000 		.4byte	0xdd
 1367 0418 0F       		.uleb128 0xf
 1368 0419 6D000000 		.4byte	.LASF60
 1369 041d 06       		.byte	0x6
 1370 041e 9D       		.byte	0x9d
 1371 041f DD000000 		.4byte	0xdd
 1372 0423 0F       		.uleb128 0xf
 1373 0424 18060000 		.4byte	.LASF61
 1374 0428 06       		.byte	0x6
 1375 0429 A4       		.byte	0xa4
 1376 042a 91020000 		.4byte	0x291
 1377 042e 0F       		.uleb128 0xf
 1378 042f 6A040000 		.4byte	.LASF62
 1379 0433 06       		.byte	0x6
 1380 0434 AB       		.byte	0xab
 1381 0435 E8000000 		.4byte	0xe8
 1382 0439 00       		.byte	0
 1383 043a 09       		.uleb128 0x9
 1384 043b 04       		.byte	0x4
 1385 043c 40040000 		.4byte	0x440
 1386 0440 10       		.uleb128 0x10
 1387 0441 45040000 		.4byte	0x445
 1388 0445 04       		.uleb128 0x4
 1389 0446 01       		.byte	0x1
 1390 0447 08       		.byte	0x8
 1391 0448 E6040000 		.4byte	.LASF63
 1392 044c 09       		.uleb128 0x9
 1393 044d 04       		.byte	0x4
 1394 044e FA030000 		.4byte	0x3fa
 1395 0452 0D       		.uleb128 0xd
 1396 0453 62000000 		.4byte	0x62
 1397 0457 0D       		.uleb128 0xd
 1398 0458 74000000 		.4byte	0x74
 1399 045c 11       		.uleb128 0x11
 1400 045d 18       		.byte	0x18
 1401 045e 0A       		.byte	0xa
 1402 045f D301     		.2byte	0x1d3
 1403 0461 BF040000 		.4byte	0x4bf
 1404 0465 0C       		.uleb128 0xc
 1405 0466 435200   		.ascii	"CR\000"
 1406 0469 0A       		.byte	0xa
 1407 046a D501     		.2byte	0x1d5
 1408 046c 44030000 		.4byte	0x344
 1409 0470 02       		.byte	0x2
 1410 0471 23       		.byte	0x23
 1411 0472 00       		.uleb128 0
 1412 0473 12       		.uleb128 0x12
ARM GAS  C:\Users\DNIEL~1\AppData\Local\Temp\ccfZfb0o.s 			page 26


 1413 0474 2D050000 		.4byte	.LASF64
 1414 0478 0A       		.byte	0xa
 1415 0479 D601     		.2byte	0x1d6
 1416 047b 44030000 		.4byte	0x344
 1417 047f 02       		.byte	0x2
 1418 0480 23       		.byte	0x23
 1419 0481 04       		.uleb128 0x4
 1420 0482 0C       		.uleb128 0xc
 1421 0483 50415200 		.ascii	"PAR\000"
 1422 0487 0A       		.byte	0xa
 1423 0488 D701     		.2byte	0x1d7
 1424 048a 44030000 		.4byte	0x344
 1425 048e 02       		.byte	0x2
 1426 048f 23       		.byte	0x23
 1427 0490 08       		.uleb128 0x8
 1428 0491 12       		.uleb128 0x12
 1429 0492 06000000 		.4byte	.LASF65
 1430 0496 0A       		.byte	0xa
 1431 0497 D801     		.2byte	0x1d8
 1432 0499 44030000 		.4byte	0x344
 1433 049d 02       		.byte	0x2
 1434 049e 23       		.byte	0x23
 1435 049f 0C       		.uleb128 0xc
 1436 04a0 12       		.uleb128 0x12
 1437 04a1 91050000 		.4byte	.LASF66
 1438 04a5 0A       		.byte	0xa
 1439 04a6 D901     		.2byte	0x1d9
 1440 04a8 44030000 		.4byte	0x344
 1441 04ac 02       		.byte	0x2
 1442 04ad 23       		.byte	0x23
 1443 04ae 10       		.uleb128 0x10
 1444 04af 0C       		.uleb128 0xc
 1445 04b0 46435200 		.ascii	"FCR\000"
 1446 04b4 0A       		.byte	0xa
 1447 04b5 DA01     		.2byte	0x1da
 1448 04b7 44030000 		.4byte	0x344
 1449 04bb 02       		.byte	0x2
 1450 04bc 23       		.byte	0x23
 1451 04bd 14       		.uleb128 0x14
 1452 04be 00       		.byte	0
 1453 04bf 13       		.uleb128 0x13
 1454 04c0 4A050000 		.4byte	.LASF67
 1455 04c4 0A       		.byte	0xa
 1456 04c5 DB01     		.2byte	0x1db
 1457 04c7 5C040000 		.4byte	0x45c
 1458 04cb 11       		.uleb128 0x11
 1459 04cc 24       		.byte	0x24
 1460 04cd 0A       		.byte	0xa
 1461 04ce 4D03     		.2byte	0x34d
 1462 04d0 E1050000 		.4byte	0x5e1
 1463 04d4 0C       		.uleb128 0xc
 1464 04d5 43523100 		.ascii	"CR1\000"
 1465 04d9 0A       		.byte	0xa
 1466 04da 4F03     		.2byte	0x34f
 1467 04dc 52040000 		.4byte	0x452
 1468 04e0 02       		.byte	0x2
 1469 04e1 23       		.byte	0x23
ARM GAS  C:\Users\DNIEL~1\AppData\Local\Temp\ccfZfb0o.s 			page 27


 1470 04e2 00       		.uleb128 0
 1471 04e3 12       		.uleb128 0x12
 1472 04e4 A8030000 		.4byte	.LASF68
 1473 04e8 0A       		.byte	0xa
 1474 04e9 5003     		.2byte	0x350
 1475 04eb 62000000 		.4byte	0x62
 1476 04ef 02       		.byte	0x2
 1477 04f0 23       		.byte	0x23
 1478 04f1 02       		.uleb128 0x2
 1479 04f2 0C       		.uleb128 0xc
 1480 04f3 43523200 		.ascii	"CR2\000"
 1481 04f7 0A       		.byte	0xa
 1482 04f8 5103     		.2byte	0x351
 1483 04fa 52040000 		.4byte	0x452
 1484 04fe 02       		.byte	0x2
 1485 04ff 23       		.byte	0x23
 1486 0500 04       		.uleb128 0x4
 1487 0501 12       		.uleb128 0x12
 1488 0502 B2030000 		.4byte	.LASF69
 1489 0506 0A       		.byte	0xa
 1490 0507 5203     		.2byte	0x352
 1491 0509 62000000 		.4byte	0x62
 1492 050d 02       		.byte	0x2
 1493 050e 23       		.byte	0x23
 1494 050f 06       		.uleb128 0x6
 1495 0510 0C       		.uleb128 0xc
 1496 0511 535200   		.ascii	"SR\000"
 1497 0514 0A       		.byte	0xa
 1498 0515 5303     		.2byte	0x353
 1499 0517 52040000 		.4byte	0x452
 1500 051b 02       		.byte	0x2
 1501 051c 23       		.byte	0x23
 1502 051d 08       		.uleb128 0x8
 1503 051e 12       		.uleb128 0x12
 1504 051f BC030000 		.4byte	.LASF70
 1505 0523 0A       		.byte	0xa
 1506 0524 5403     		.2byte	0x354
 1507 0526 62000000 		.4byte	0x62
 1508 052a 02       		.byte	0x2
 1509 052b 23       		.byte	0x23
 1510 052c 0A       		.uleb128 0xa
 1511 052d 0C       		.uleb128 0xc
 1512 052e 445200   		.ascii	"DR\000"
 1513 0531 0A       		.byte	0xa
 1514 0532 5503     		.2byte	0x355
 1515 0534 52040000 		.4byte	0x452
 1516 0538 02       		.byte	0x2
 1517 0539 23       		.byte	0x23
 1518 053a 0C       		.uleb128 0xc
 1519 053b 12       		.uleb128 0x12
 1520 053c C6030000 		.4byte	.LASF71
 1521 0540 0A       		.byte	0xa
 1522 0541 5603     		.2byte	0x356
 1523 0543 62000000 		.4byte	0x62
 1524 0547 02       		.byte	0x2
 1525 0548 23       		.byte	0x23
 1526 0549 0E       		.uleb128 0xe
ARM GAS  C:\Users\DNIEL~1\AppData\Local\Temp\ccfZfb0o.s 			page 28


 1527 054a 12       		.uleb128 0x12
 1528 054b 61000000 		.4byte	.LASF72
 1529 054f 0A       		.byte	0xa
 1530 0550 5703     		.2byte	0x357
 1531 0552 52040000 		.4byte	0x452
 1532 0556 02       		.byte	0x2
 1533 0557 23       		.byte	0x23
 1534 0558 10       		.uleb128 0x10
 1535 0559 12       		.uleb128 0x12
 1536 055a D0030000 		.4byte	.LASF73
 1537 055e 0A       		.byte	0xa
 1538 055f 5803     		.2byte	0x358
 1539 0561 62000000 		.4byte	0x62
 1540 0565 02       		.byte	0x2
 1541 0566 23       		.byte	0x23
 1542 0567 12       		.uleb128 0x12
 1543 0568 12       		.uleb128 0x12
 1544 0569 F6050000 		.4byte	.LASF74
 1545 056d 0A       		.byte	0xa
 1546 056e 5903     		.2byte	0x359
 1547 0570 52040000 		.4byte	0x452
 1548 0574 02       		.byte	0x2
 1549 0575 23       		.byte	0x23
 1550 0576 14       		.uleb128 0x14
 1551 0577 12       		.uleb128 0x12
 1552 0578 A5040000 		.4byte	.LASF75
 1553 057c 0A       		.byte	0xa
 1554 057d 5A03     		.2byte	0x35a
 1555 057f 62000000 		.4byte	0x62
 1556 0583 02       		.byte	0x2
 1557 0584 23       		.byte	0x23
 1558 0585 16       		.uleb128 0x16
 1559 0586 12       		.uleb128 0x12
 1560 0587 A1030000 		.4byte	.LASF76
 1561 058b 0A       		.byte	0xa
 1562 058c 5B03     		.2byte	0x35b
 1563 058e 52040000 		.4byte	0x452
 1564 0592 02       		.byte	0x2
 1565 0593 23       		.byte	0x23
 1566 0594 18       		.uleb128 0x18
 1567 0595 12       		.uleb128 0x12
 1568 0596 E1030000 		.4byte	.LASF77
 1569 059a 0A       		.byte	0xa
 1570 059b 5C03     		.2byte	0x35c
 1571 059d 62000000 		.4byte	0x62
 1572 05a1 02       		.byte	0x2
 1573 05a2 23       		.byte	0x23
 1574 05a3 1A       		.uleb128 0x1a
 1575 05a4 12       		.uleb128 0x12
 1576 05a5 D4000000 		.4byte	.LASF78
 1577 05a9 0A       		.byte	0xa
 1578 05aa 5D03     		.2byte	0x35d
 1579 05ac 52040000 		.4byte	0x452
 1580 05b0 02       		.byte	0x2
 1581 05b1 23       		.byte	0x23
 1582 05b2 1C       		.uleb128 0x1c
 1583 05b3 12       		.uleb128 0x12
ARM GAS  C:\Users\DNIEL~1\AppData\Local\Temp\ccfZfb0o.s 			page 29


 1584 05b4 EB030000 		.4byte	.LASF79
 1585 05b8 0A       		.byte	0xa
 1586 05b9 5E03     		.2byte	0x35e
 1587 05bb 62000000 		.4byte	0x62
 1588 05bf 02       		.byte	0x2
 1589 05c0 23       		.byte	0x23
 1590 05c1 1E       		.uleb128 0x1e
 1591 05c2 12       		.uleb128 0x12
 1592 05c3 D7020000 		.4byte	.LASF80
 1593 05c7 0A       		.byte	0xa
 1594 05c8 5F03     		.2byte	0x35f
 1595 05ca 52040000 		.4byte	0x452
 1596 05ce 02       		.byte	0x2
 1597 05cf 23       		.byte	0x23
 1598 05d0 20       		.uleb128 0x20
 1599 05d1 12       		.uleb128 0x12
 1600 05d2 F5030000 		.4byte	.LASF81
 1601 05d6 0A       		.byte	0xa
 1602 05d7 6003     		.2byte	0x360
 1603 05d9 62000000 		.4byte	0x62
 1604 05dd 02       		.byte	0x2
 1605 05de 23       		.byte	0x23
 1606 05df 22       		.uleb128 0x22
 1607 05e0 00       		.byte	0
 1608 05e1 13       		.uleb128 0x13
 1609 05e2 DA040000 		.4byte	.LASF82
 1610 05e6 0A       		.byte	0xa
 1611 05e7 6103     		.2byte	0x361
 1612 05e9 CB040000 		.4byte	0x4cb
 1613 05ed 08       		.uleb128 0x8
 1614 05ee 0C       		.byte	0xc
 1615 05ef 0B       		.byte	0xb
 1616 05f0 DE       		.byte	0xde
 1617 05f1 3C060000 		.4byte	0x63c
 1618 05f5 06       		.uleb128 0x6
 1619 05f6 33000000 		.4byte	.LASF83
 1620 05fa 0B       		.byte	0xb
 1621 05fb DF       		.byte	0xdf
 1622 05fc 3C060000 		.4byte	0x63c
 1623 0600 02       		.byte	0x2
 1624 0601 23       		.byte	0x23
 1625 0602 00       		.uleb128 0
 1626 0603 06       		.uleb128 0x6
 1627 0604 A0040000 		.4byte	.LASF84
 1628 0608 0B       		.byte	0xb
 1629 0609 E0       		.byte	0xe0
 1630 060a 42060000 		.4byte	0x642
 1631 060e 02       		.byte	0x2
 1632 060f 23       		.byte	0x23
 1633 0610 04       		.uleb128 0x4
 1634 0611 06       		.uleb128 0x6
 1635 0612 4D020000 		.4byte	.LASF85
 1636 0616 0B       		.byte	0xb
 1637 0617 E1       		.byte	0xe1
 1638 0618 49000000 		.4byte	0x49
 1639 061c 02       		.byte	0x2
 1640 061d 23       		.byte	0x23
ARM GAS  C:\Users\DNIEL~1\AppData\Local\Temp\ccfZfb0o.s 			page 30


 1641 061e 08       		.uleb128 0x8
 1642 061f 06       		.uleb128 0x6
 1643 0620 E5010000 		.4byte	.LASF86
 1644 0624 0B       		.byte	0xb
 1645 0625 E3       		.byte	0xe3
 1646 0626 49000000 		.4byte	0x49
 1647 062a 02       		.byte	0x2
 1648 062b 23       		.byte	0x23
 1649 062c 09       		.uleb128 0x9
 1650 062d 06       		.uleb128 0x6
 1651 062e 76000000 		.4byte	.LASF87
 1652 0632 0B       		.byte	0xb
 1653 0633 E4       		.byte	0xe4
 1654 0634 49000000 		.4byte	0x49
 1655 0638 02       		.byte	0x2
 1656 0639 23       		.byte	0x23
 1657 063a 0A       		.uleb128 0xa
 1658 063b 00       		.byte	0
 1659 063c 09       		.uleb128 0x9
 1660 063d 04       		.byte	0x4
 1661 063e BF040000 		.4byte	0x4bf
 1662 0642 09       		.uleb128 0x9
 1663 0643 04       		.byte	0x4
 1664 0644 44030000 		.4byte	0x344
 1665 0648 03       		.uleb128 0x3
 1666 0649 23040000 		.4byte	.LASF88
 1667 064d 0B       		.byte	0xb
 1668 064e E5       		.byte	0xe5
 1669 064f ED050000 		.4byte	0x5ed
 1670 0653 08       		.uleb128 0x8
 1671 0654 04       		.byte	0x4
 1672 0655 0C       		.byte	0xc
 1673 0656 97       		.byte	0x97
 1674 0657 78060000 		.4byte	0x678
 1675 065b 07       		.uleb128 0x7
 1676 065c 73657400 		.ascii	"set\000"
 1677 0660 0C       		.byte	0xc
 1678 0661 98       		.byte	0x98
 1679 0662 62000000 		.4byte	0x62
 1680 0666 02       		.byte	0x2
 1681 0667 23       		.byte	0x23
 1682 0668 00       		.uleb128 0
 1683 0669 06       		.uleb128 0x6
 1684 066a E6020000 		.4byte	.LASF89
 1685 066e 0C       		.byte	0xc
 1686 066f 99       		.byte	0x99
 1687 0670 62000000 		.4byte	0x62
 1688 0674 02       		.byte	0x2
 1689 0675 23       		.byte	0x23
 1690 0676 02       		.uleb128 0x2
 1691 0677 00       		.byte	0
 1692 0678 0E       		.uleb128 0xe
 1693 0679 04       		.byte	0x4
 1694 067a 0C       		.byte	0xc
 1695 067b 95       		.byte	0x95
 1696 067c 93060000 		.4byte	0x693
 1697 0680 14       		.uleb128 0x14
ARM GAS  C:\Users\DNIEL~1\AppData\Local\Temp\ccfZfb0o.s 			page 31


 1698 0681 5700     		.ascii	"W\000"
 1699 0683 0C       		.byte	0xc
 1700 0684 96       		.byte	0x96
 1701 0685 86000000 		.4byte	0x86
 1702 0689 14       		.uleb128 0x14
 1703 068a 4800     		.ascii	"H\000"
 1704 068c 0C       		.byte	0xc
 1705 068d 9A       		.byte	0x9a
 1706 068e 53060000 		.4byte	0x653
 1707 0692 00       		.byte	0
 1708 0693 08       		.uleb128 0x8
 1709 0694 28       		.byte	0x28
 1710 0695 0C       		.byte	0xc
 1711 0696 8D       		.byte	0x8d
 1712 0697 28070000 		.4byte	0x728
 1713 069b 06       		.uleb128 0x6
 1714 069c 3A000000 		.4byte	.LASF90
 1715 06a0 0C       		.byte	0xc
 1716 06a1 8F       		.byte	0x8f
 1717 06a2 44030000 		.4byte	0x344
 1718 06a6 02       		.byte	0x2
 1719 06a7 23       		.byte	0x23
 1720 06a8 00       		.uleb128 0
 1721 06a9 06       		.uleb128 0x6
 1722 06aa 19000000 		.4byte	.LASF91
 1723 06ae 0C       		.byte	0xc
 1724 06af 90       		.byte	0x90
 1725 06b0 44030000 		.4byte	0x344
 1726 06b4 02       		.byte	0x2
 1727 06b5 23       		.byte	0x23
 1728 06b6 04       		.uleb128 0x4
 1729 06b7 06       		.uleb128 0x6
 1730 06b8 C4010000 		.4byte	.LASF92
 1731 06bc 0C       		.byte	0xc
 1732 06bd 91       		.byte	0x91
 1733 06be 44030000 		.4byte	0x344
 1734 06c2 02       		.byte	0x2
 1735 06c3 23       		.byte	0x23
 1736 06c4 08       		.uleb128 0x8
 1737 06c5 06       		.uleb128 0x6
 1738 06c6 67000000 		.4byte	.LASF93
 1739 06ca 0C       		.byte	0xc
 1740 06cb 92       		.byte	0x92
 1741 06cc 44030000 		.4byte	0x344
 1742 06d0 02       		.byte	0x2
 1743 06d1 23       		.byte	0x23
 1744 06d2 0C       		.uleb128 0xc
 1745 06d3 07       		.uleb128 0x7
 1746 06d4 49445200 		.ascii	"IDR\000"
 1747 06d8 0C       		.byte	0xc
 1748 06d9 93       		.byte	0x93
 1749 06da 44030000 		.4byte	0x344
 1750 06de 02       		.byte	0x2
 1751 06df 23       		.byte	0x23
 1752 06e0 10       		.uleb128 0x10
 1753 06e1 07       		.uleb128 0x7
 1754 06e2 4F445200 		.ascii	"ODR\000"
ARM GAS  C:\Users\DNIEL~1\AppData\Local\Temp\ccfZfb0o.s 			page 32


 1755 06e6 0C       		.byte	0xc
 1756 06e7 94       		.byte	0x94
 1757 06e8 44030000 		.4byte	0x344
 1758 06ec 02       		.byte	0x2
 1759 06ed 23       		.byte	0x23
 1760 06ee 14       		.uleb128 0x14
 1761 06ef 06       		.uleb128 0x6
 1762 06f0 C6000000 		.4byte	.LASF94
 1763 06f4 0C       		.byte	0xc
 1764 06f5 9B       		.byte	0x9b
 1765 06f6 28070000 		.4byte	0x728
 1766 06fa 02       		.byte	0x2
 1767 06fb 23       		.byte	0x23
 1768 06fc 18       		.uleb128 0x18
 1769 06fd 06       		.uleb128 0x6
 1770 06fe 48020000 		.4byte	.LASF95
 1771 0702 0C       		.byte	0xc
 1772 0703 9C       		.byte	0x9c
 1773 0704 44030000 		.4byte	0x344
 1774 0708 02       		.byte	0x2
 1775 0709 23       		.byte	0x23
 1776 070a 1C       		.uleb128 0x1c
 1777 070b 06       		.uleb128 0x6
 1778 070c 9C030000 		.4byte	.LASF96
 1779 0710 0C       		.byte	0xc
 1780 0711 9D       		.byte	0x9d
 1781 0712 44030000 		.4byte	0x344
 1782 0716 02       		.byte	0x2
 1783 0717 23       		.byte	0x23
 1784 0718 20       		.uleb128 0x20
 1785 0719 06       		.uleb128 0x6
 1786 071a 97030000 		.4byte	.LASF97
 1787 071e 0C       		.byte	0xc
 1788 071f 9E       		.byte	0x9e
 1789 0720 44030000 		.4byte	0x344
 1790 0724 02       		.byte	0x2
 1791 0725 23       		.byte	0x23
 1792 0726 24       		.uleb128 0x24
 1793 0727 00       		.byte	0
 1794 0728 0D       		.uleb128 0xd
 1795 0729 78060000 		.4byte	0x678
 1796 072d 03       		.uleb128 0x3
 1797 072e B1010000 		.4byte	.LASF98
 1798 0732 0C       		.byte	0xc
 1799 0733 9F       		.byte	0x9f
 1800 0734 93060000 		.4byte	0x693
 1801 0738 03       		.uleb128 0x3
 1802 0739 5D050000 		.4byte	.LASF99
 1803 073d 0C       		.byte	0xc
 1804 073e F6       		.byte	0xf6
 1805 073f 43070000 		.4byte	0x743
 1806 0743 09       		.uleb128 0x9
 1807 0744 04       		.byte	0x4
 1808 0745 2D070000 		.4byte	0x72d
 1809 0749 09       		.uleb128 0x9
 1810 074a 04       		.byte	0x4
 1811 074b 4F070000 		.4byte	0x74f
ARM GAS  C:\Users\DNIEL~1\AppData\Local\Temp\ccfZfb0o.s 			page 33


 1812 074f 10       		.uleb128 0x10
 1813 0750 48060000 		.4byte	0x648
 1814 0754 15       		.uleb128 0x15
 1815 0755 01       		.byte	0x1
 1816 0756 0D       		.byte	0xd
 1817 0757 4E       		.byte	0x4e
 1818 0758 7B070000 		.4byte	0x77b
 1819 075c 16       		.uleb128 0x16
 1820 075d 96050000 		.4byte	.LASF100
 1821 0761 00       		.sleb128 0
 1822 0762 16       		.uleb128 0x16
 1823 0763 CB000000 		.4byte	.LASF101
 1824 0767 01       		.sleb128 1
 1825 0768 16       		.uleb128 0x16
 1826 0769 57000000 		.4byte	.LASF102
 1827 076d 02       		.sleb128 2
 1828 076e 16       		.uleb128 0x16
 1829 076f 20000000 		.4byte	.LASF103
 1830 0773 03       		.sleb128 3
 1831 0774 16       		.uleb128 0x16
 1832 0775 EB040000 		.4byte	.LASF104
 1833 0779 04       		.sleb128 4
 1834 077a 00       		.byte	0
 1835 077b 03       		.uleb128 0x3
 1836 077c FF040000 		.4byte	.LASF105
 1837 0780 0D       		.byte	0xd
 1838 0781 54       		.byte	0x54
 1839 0782 54070000 		.4byte	0x754
 1840 0786 13       		.uleb128 0x13
 1841 0787 7D000000 		.4byte	.LASF106
 1842 078b 0E       		.byte	0xe
 1843 078c 2701     		.2byte	0x127
 1844 078e 92070000 		.4byte	0x792
 1845 0792 0B       		.uleb128 0xb
 1846 0793 7D000000 		.4byte	.LASF106
 1847 0797 30       		.byte	0x30
 1848 0798 0E       		.byte	0xe
 1849 0799 4B01     		.2byte	0x14b
 1850 079b 27080000 		.4byte	0x827
 1851 079f 12       		.uleb128 0x12
 1852 07a0 09010000 		.4byte	.LASF107
 1853 07a4 0E       		.byte	0xe
 1854 07a5 4F01     		.2byte	0x14f
 1855 07a7 7B070000 		.4byte	0x77b
 1856 07ab 02       		.byte	0x2
 1857 07ac 23       		.byte	0x23
 1858 07ad 00       		.uleb128 0
 1859 07ae 12       		.uleb128 0x12
 1860 07af F8040000 		.4byte	.LASF108
 1861 07b3 0E       		.byte	0xe
 1862 07b4 5301     		.2byte	0x153
 1863 07b6 9D080000 		.4byte	0x89d
 1864 07ba 02       		.byte	0x2
 1865 07bb 23       		.byte	0x23
 1866 07bc 04       		.uleb128 0x4
 1867 07bd 12       		.uleb128 0x12
 1868 07be 26050000 		.4byte	.LASF109
ARM GAS  C:\Users\DNIEL~1\AppData\Local\Temp\ccfZfb0o.s 			page 34


 1869 07c2 0E       		.byte	0xe
 1870 07c3 5801     		.2byte	0x158
 1871 07c5 53020000 		.4byte	0x253
 1872 07c9 02       		.byte	0x2
 1873 07ca 23       		.byte	0x23
 1874 07cb 08       		.uleb128 0x8
 1875 07cc 12       		.uleb128 0x12
 1876 07cd 07040000 		.4byte	.LASF110
 1877 07d1 0E       		.byte	0xe
 1878 07d2 5F01     		.2byte	0x15f
 1879 07d4 FA030000 		.4byte	0x3fa
 1880 07d8 02       		.byte	0x2
 1881 07d9 23       		.byte	0x23
 1882 07da 0C       		.uleb128 0xc
 1883 07db 0C       		.uleb128 0xc
 1884 07dc 73706900 		.ascii	"spi\000"
 1885 07e0 0E       		.byte	0xe
 1886 07e1 6B01     		.2byte	0x16b
 1887 07e3 A8080000 		.4byte	0x8a8
 1888 07e7 02       		.byte	0x2
 1889 07e8 23       		.byte	0x23
 1890 07e9 1C       		.uleb128 0x1c
 1891 07ea 12       		.uleb128 0x12
 1892 07eb 00000000 		.4byte	.LASF111
 1893 07ef 0E       		.byte	0xe
 1894 07f0 6F01     		.2byte	0x16f
 1895 07f2 49070000 		.4byte	0x749
 1896 07f6 02       		.byte	0x2
 1897 07f7 23       		.byte	0x23
 1898 07f8 20       		.uleb128 0x20
 1899 07f9 12       		.uleb128 0x12
 1900 07fa BE010000 		.4byte	.LASF112
 1901 07fe 0E       		.byte	0xe
 1902 07ff 7301     		.2byte	0x173
 1903 0801 49070000 		.4byte	0x749
 1904 0805 02       		.byte	0x2
 1905 0806 23       		.byte	0x23
 1906 0807 24       		.uleb128 0x24
 1907 0808 12       		.uleb128 0x12
 1908 0809 A7010000 		.4byte	.LASF113
 1909 080d 0E       		.byte	0xe
 1910 080e 7701     		.2byte	0x177
 1911 0810 86000000 		.4byte	0x86
 1912 0814 02       		.byte	0x2
 1913 0815 23       		.byte	0x23
 1914 0816 28       		.uleb128 0x28
 1915 0817 12       		.uleb128 0x12
 1916 0818 7B030000 		.4byte	.LASF114
 1917 081c 0E       		.byte	0xe
 1918 081d 7B01     		.2byte	0x17b
 1919 081f 86000000 		.4byte	0x86
 1920 0823 02       		.byte	0x2
 1921 0824 23       		.byte	0x23
 1922 0825 2C       		.uleb128 0x2c
 1923 0826 00       		.byte	0
 1924 0827 13       		.uleb128 0x13
 1925 0828 FB000000 		.4byte	.LASF115
ARM GAS  C:\Users\DNIEL~1\AppData\Local\Temp\ccfZfb0o.s 			page 35


 1926 082c 0E       		.byte	0xe
 1927 082d 2F01     		.2byte	0x12f
 1928 082f 33080000 		.4byte	0x833
 1929 0833 09       		.uleb128 0x9
 1930 0834 04       		.byte	0x4
 1931 0835 39080000 		.4byte	0x839
 1932 0839 17       		.uleb128 0x17
 1933 083a 01       		.byte	0x1
 1934 083b 45080000 		.4byte	0x845
 1935 083f 18       		.uleb128 0x18
 1936 0840 45080000 		.4byte	0x845
 1937 0844 00       		.byte	0
 1938 0845 09       		.uleb128 0x9
 1939 0846 04       		.byte	0x4
 1940 0847 86070000 		.4byte	0x786
 1941 084b 11       		.uleb128 0x11
 1942 084c 0C       		.byte	0xc
 1943 084d 0E       		.byte	0xe
 1944 084e 3401     		.2byte	0x134
 1945 0850 91080000 		.4byte	0x891
 1946 0854 12       		.uleb128 0x12
 1947 0855 A0010000 		.4byte	.LASF116
 1948 0859 0E       		.byte	0xe
 1949 085a 3801     		.2byte	0x138
 1950 085c 27080000 		.4byte	0x827
 1951 0860 02       		.byte	0x2
 1952 0861 23       		.byte	0x23
 1953 0862 00       		.uleb128 0
 1954 0863 12       		.uleb128 0x12
 1955 0864 87000000 		.4byte	.LASF117
 1956 0868 0E       		.byte	0xe
 1957 0869 3D01     		.2byte	0x13d
 1958 086b 38070000 		.4byte	0x738
 1959 086f 02       		.byte	0x2
 1960 0870 23       		.byte	0x23
 1961 0871 04       		.uleb128 0x4
 1962 0872 12       		.uleb128 0x12
 1963 0873 A8000000 		.4byte	.LASF118
 1964 0877 0E       		.byte	0xe
 1965 0878 4101     		.2byte	0x141
 1966 087a 62000000 		.4byte	0x62
 1967 087e 02       		.byte	0x2
 1968 087f 23       		.byte	0x23
 1969 0880 08       		.uleb128 0x8
 1970 0881 0C       		.uleb128 0xc
 1971 0882 63723100 		.ascii	"cr1\000"
 1972 0886 0E       		.byte	0xe
 1973 0887 4501     		.2byte	0x145
 1974 0889 62000000 		.4byte	0x62
 1975 088d 02       		.byte	0x2
 1976 088e 23       		.byte	0x23
 1977 088f 0A       		.uleb128 0xa
 1978 0890 00       		.byte	0
 1979 0891 13       		.uleb128 0x13
 1980 0892 2E060000 		.4byte	.LASF119
 1981 0896 0E       		.byte	0xe
 1982 0897 4601     		.2byte	0x146
ARM GAS  C:\Users\DNIEL~1\AppData\Local\Temp\ccfZfb0o.s 			page 36


 1983 0899 4B080000 		.4byte	0x84b
 1984 089d 09       		.uleb128 0x9
 1985 089e 04       		.byte	0x4
 1986 089f A3080000 		.4byte	0x8a3
 1987 08a3 10       		.uleb128 0x10
 1988 08a4 91080000 		.4byte	0x891
 1989 08a8 09       		.uleb128 0x9
 1990 08a9 04       		.byte	0x4
 1991 08aa E1050000 		.4byte	0x5e1
 1992 08ae 19       		.uleb128 0x19
 1993 08af 01       		.byte	0x1
 1994 08b0 AC020000 		.4byte	.LASF120
 1995 08b4 01       		.byte	0x1
 1996 08b5 3D       		.byte	0x3d
 1997 08b6 01       		.byte	0x1
 1998 08b7 00000000 		.4byte	.LFB118
 1999 08bb 04000000 		.4byte	.LFE118
 2000 08bf 02       		.byte	0x2
 2001 08c0 7D       		.byte	0x7d
 2002 08c1 00       		.sleb128 0
 2003 08c2 01       		.byte	0x1
 2004 08c3 D2080000 		.4byte	0x8d2
 2005 08c7 1A       		.uleb128 0x1a
 2006 08c8 04000000 		.4byte	.LVL0
 2007 08cc 01       		.byte	0x1
 2008 08cd D9100000 		.4byte	0x10d9
 2009 08d1 00       		.byte	0
 2010 08d2 19       		.uleb128 0x19
 2011 08d3 01       		.byte	0x1
 2012 08d4 5C040000 		.4byte	.LASF121
 2013 08d8 01       		.byte	0x1
 2014 08d9 49       		.byte	0x49
 2015 08da 01       		.byte	0x1
 2016 08db 00000000 		.4byte	.LFB119
 2017 08df 10000000 		.4byte	.LFE119
 2018 08e3 02       		.byte	0x2
 2019 08e4 7D       		.byte	0x7d
 2020 08e5 00       		.sleb128 0
 2021 08e6 01       		.byte	0x1
 2022 08e7 0F090000 		.4byte	0x90f
 2023 08eb 1B       		.uleb128 0x1b
 2024 08ec 13060000 		.4byte	.LASF123
 2025 08f0 01       		.byte	0x1
 2026 08f1 49       		.byte	0x49
 2027 08f2 45080000 		.4byte	0x845
 2028 08f6 00000000 		.4byte	.LLST0
 2029 08fa 1C       		.uleb128 0x1c
 2030 08fb 10000000 		.4byte	.LVL3
 2031 08ff 01       		.byte	0x1
 2032 0900 E4100000 		.4byte	0x10e4
 2033 0904 1D       		.uleb128 0x1d
 2034 0905 01       		.byte	0x1
 2035 0906 50       		.byte	0x50
 2036 0907 05       		.byte	0x5
 2037 0908 F3       		.byte	0xf3
 2038 0909 01       		.uleb128 0x1
 2039 090a 50       		.byte	0x50
ARM GAS  C:\Users\DNIEL~1\AppData\Local\Temp\ccfZfb0o.s 			page 37


 2040 090b 23       		.byte	0x23
 2041 090c 0C       		.uleb128 0xc
 2042 090d 00       		.byte	0
 2043 090e 00       		.byte	0
 2044 090f 1E       		.uleb128 0x1e
 2045 0910 01       		.byte	0x1
 2046 0911 77050000 		.4byte	.LASF122
 2047 0915 01       		.byte	0x1
 2048 0916 64       		.byte	0x64
 2049 0917 01       		.byte	0x1
 2050 0918 00000000 		.4byte	.LFB120
 2051 091c 1C000000 		.4byte	.LFE120
 2052 0920 2E000000 		.4byte	.LLST1
 2053 0924 01       		.byte	0x1
 2054 0925 8E090000 		.4byte	0x98e
 2055 0929 1B       		.uleb128 0x1b
 2056 092a 13060000 		.4byte	.LASF123
 2057 092e 01       		.byte	0x1
 2058 092f 64       		.byte	0x64
 2059 0930 45080000 		.4byte	0x845
 2060 0934 4E000000 		.4byte	.LLST2
 2061 0938 1B       		.uleb128 0x1b
 2062 0939 F8040000 		.4byte	.LASF108
 2063 093d 01       		.byte	0x1
 2064 093e 64       		.byte	0x64
 2065 093f 9D080000 		.4byte	0x89d
 2066 0943 6C000000 		.4byte	.LLST3
 2067 0947 1F       		.uleb128 0x1f
 2068 0948 00000000 		.4byte	.Ldebug_ranges0+0
 2069 094c 60090000 		.4byte	0x960
 2070 0950 20       		.uleb128 0x20
 2071 0951 746D7000 		.ascii	"tmp\000"
 2072 0955 01       		.byte	0x1
 2073 0956 68       		.byte	0x68
 2074 0957 86000000 		.4byte	0x86
 2075 095b 8D000000 		.4byte	.LLST4
 2076 095f 00       		.byte	0
 2077 0960 21       		.uleb128 0x21
 2078 0961 14000000 		.4byte	.LBB4
 2079 0965 1C000000 		.4byte	.LBE4
 2080 0969 7D090000 		.4byte	0x97d
 2081 096d 20       		.uleb128 0x20
 2082 096e 746D7000 		.ascii	"tmp\000"
 2083 0972 01       		.byte	0x1
 2084 0973 6E       		.byte	0x6e
 2085 0974 86000000 		.4byte	0x86
 2086 0978 A0000000 		.4byte	.LLST5
 2087 097c 00       		.byte	0
 2088 097d 22       		.uleb128 0x22
 2089 097e 10000000 		.4byte	.LVL7
 2090 0982 F8100000 		.4byte	0x10f8
 2091 0986 1D       		.uleb128 0x1d
 2092 0987 01       		.byte	0x1
 2093 0988 50       		.byte	0x50
 2094 0989 02       		.byte	0x2
 2095 098a 74       		.byte	0x74
 2096 098b 00       		.sleb128 0
ARM GAS  C:\Users\DNIEL~1\AppData\Local\Temp\ccfZfb0o.s 			page 38


 2097 098c 00       		.byte	0
 2098 098d 00       		.byte	0
 2099 098e 1E       		.uleb128 0x1e
 2100 098f 01       		.byte	0x1
 2101 0990 2B000000 		.4byte	.LASF124
 2102 0994 01       		.byte	0x1
 2103 0995 7A       		.byte	0x7a
 2104 0996 01       		.byte	0x1
 2105 0997 00000000 		.4byte	.LFB121
 2106 099b 20000000 		.4byte	.LFE121
 2107 099f B3000000 		.4byte	.LLST6
 2108 09a3 01       		.byte	0x1
 2109 09a4 120A0000 		.4byte	0xa12
 2110 09a8 1B       		.uleb128 0x1b
 2111 09a9 13060000 		.4byte	.LASF123
 2112 09ad 01       		.byte	0x1
 2113 09ae 7A       		.byte	0x7a
 2114 09af 45080000 		.4byte	0x845
 2115 09b3 D3000000 		.4byte	.LLST7
 2116 09b7 1F       		.uleb128 0x1f
 2117 09b8 18000000 		.4byte	.Ldebug_ranges0+0x18
 2118 09bc D0090000 		.4byte	0x9d0
 2119 09c0 20       		.uleb128 0x20
 2120 09c1 746D7000 		.ascii	"tmp\000"
 2121 09c5 01       		.byte	0x1
 2122 09c6 7E       		.byte	0x7e
 2123 09c7 86000000 		.4byte	0x86
 2124 09cb F1000000 		.4byte	.LLST8
 2125 09cf 00       		.byte	0
 2126 09d0 21       		.uleb128 0x21
 2127 09d1 18000000 		.4byte	.LBB7
 2128 09d5 20000000 		.4byte	.LBE7
 2129 09d9 ED090000 		.4byte	0x9ed
 2130 09dd 20       		.uleb128 0x20
 2131 09de 746D7000 		.ascii	"tmp\000"
 2132 09e2 01       		.byte	0x1
 2133 09e3 84       		.byte	0x84
 2134 09e4 86000000 		.4byte	0x86
 2135 09e8 04010000 		.4byte	.LLST9
 2136 09ec 00       		.byte	0
 2137 09ed 23       		.uleb128 0x23
 2138 09ee 0E000000 		.4byte	.LVL13
 2139 09f2 0D110000 		.4byte	0x110d
 2140 09f6 010A0000 		.4byte	0xa01
 2141 09fa 1D       		.uleb128 0x1d
 2142 09fb 01       		.byte	0x1
 2143 09fc 50       		.byte	0x50
 2144 09fd 02       		.byte	0x2
 2145 09fe 74       		.byte	0x74
 2146 09ff 00       		.sleb128 0
 2147 0a00 00       		.byte	0
 2148 0a01 22       		.uleb128 0x22
 2149 0a02 14000000 		.4byte	.LVL14
 2150 0a06 22110000 		.4byte	0x1122
 2151 0a0a 1D       		.uleb128 0x1d
 2152 0a0b 01       		.byte	0x1
 2153 0a0c 50       		.byte	0x50
ARM GAS  C:\Users\DNIEL~1\AppData\Local\Temp\ccfZfb0o.s 			page 39


 2154 0a0d 02       		.byte	0x2
 2155 0a0e 74       		.byte	0x74
 2156 0a0f 00       		.sleb128 0
 2157 0a10 00       		.byte	0
 2158 0a11 00       		.byte	0
 2159 0a12 1E       		.uleb128 0x1e
 2160 0a13 01       		.byte	0x1
 2161 0a14 80050000 		.4byte	.LASF125
 2162 0a18 01       		.byte	0x1
 2163 0a19 8E       		.byte	0x8e
 2164 0a1a 01       		.byte	0x1
 2165 0a1b 00000000 		.4byte	.LFB122
 2166 0a1f 14000000 		.4byte	.LFE122
 2167 0a23 17010000 		.4byte	.LLST10
 2168 0a27 01       		.byte	0x1
 2169 0a28 870A0000 		.4byte	0xa87
 2170 0a2c 1B       		.uleb128 0x1b
 2171 0a2d 13060000 		.4byte	.LASF123
 2172 0a31 01       		.byte	0x1
 2173 0a32 8E       		.byte	0x8e
 2174 0a33 45080000 		.4byte	0x845
 2175 0a37 37010000 		.4byte	.LLST11
 2176 0a3b 21       		.uleb128 0x21
 2177 0a3c 02000000 		.4byte	.LBB8
 2178 0a40 08000000 		.4byte	.LBE8
 2179 0a44 580A0000 		.4byte	0xa58
 2180 0a48 20       		.uleb128 0x20
 2181 0a49 746D7000 		.ascii	"tmp\000"
 2182 0a4d 01       		.byte	0x1
 2183 0a4e 92       		.byte	0x92
 2184 0a4f 86000000 		.4byte	0x86
 2185 0a53 58010000 		.4byte	.LLST12
 2186 0a57 00       		.byte	0
 2187 0a58 21       		.uleb128 0x21
 2188 0a59 0C000000 		.4byte	.LBB9
 2189 0a5d 14000000 		.4byte	.LBE9
 2190 0a61 750A0000 		.4byte	0xa75
 2191 0a65 20       		.uleb128 0x20
 2192 0a66 746D7000 		.ascii	"tmp\000"
 2193 0a6a 01       		.byte	0x1
 2194 0a6b 95       		.byte	0x95
 2195 0a6c 86000000 		.4byte	0x86
 2196 0a70 6B010000 		.4byte	.LLST13
 2197 0a74 00       		.byte	0
 2198 0a75 22       		.uleb128 0x22
 2199 0a76 0C000000 		.4byte	.LVL20
 2200 0a7a 37110000 		.4byte	0x1137
 2201 0a7e 1D       		.uleb128 0x1d
 2202 0a7f 01       		.byte	0x1
 2203 0a80 50       		.byte	0x50
 2204 0a81 03       		.byte	0x3
 2205 0a82 F3       		.byte	0xf3
 2206 0a83 01       		.uleb128 0x1
 2207 0a84 50       		.byte	0x50
 2208 0a85 00       		.byte	0
 2209 0a86 00       		.byte	0
 2210 0a87 1E       		.uleb128 0x1e
ARM GAS  C:\Users\DNIEL~1\AppData\Local\Temp\ccfZfb0o.s 			page 40


 2211 0a88 01       		.byte	0x1
 2212 0a89 EF010000 		.4byte	.LASF126
 2213 0a8d 01       		.byte	0x1
 2214 0a8e A0       		.byte	0xa0
 2215 0a8f 01       		.byte	0x1
 2216 0a90 00000000 		.4byte	.LFB123
 2217 0a94 14000000 		.4byte	.LFE123
 2218 0a98 7E010000 		.4byte	.LLST14
 2219 0a9c 01       		.byte	0x1
 2220 0a9d FC0A0000 		.4byte	0xafc
 2221 0aa1 1B       		.uleb128 0x1b
 2222 0aa2 13060000 		.4byte	.LASF123
 2223 0aa6 01       		.byte	0x1
 2224 0aa7 A0       		.byte	0xa0
 2225 0aa8 45080000 		.4byte	0x845
 2226 0aac 9E010000 		.4byte	.LLST15
 2227 0ab0 21       		.uleb128 0x21
 2228 0ab1 02000000 		.4byte	.LBB10
 2229 0ab5 08000000 		.4byte	.LBE10
 2230 0ab9 CD0A0000 		.4byte	0xacd
 2231 0abd 20       		.uleb128 0x20
 2232 0abe 746D7000 		.ascii	"tmp\000"
 2233 0ac2 01       		.byte	0x1
 2234 0ac3 A4       		.byte	0xa4
 2235 0ac4 86000000 		.4byte	0x86
 2236 0ac8 BF010000 		.4byte	.LLST16
 2237 0acc 00       		.byte	0
 2238 0acd 21       		.uleb128 0x21
 2239 0ace 0C000000 		.4byte	.LBB11
 2240 0ad2 14000000 		.4byte	.LBE11
 2241 0ad6 EA0A0000 		.4byte	0xaea
 2242 0ada 20       		.uleb128 0x20
 2243 0adb 746D7000 		.ascii	"tmp\000"
 2244 0adf 01       		.byte	0x1
 2245 0ae0 A7       		.byte	0xa7
 2246 0ae1 86000000 		.4byte	0x86
 2247 0ae5 D2010000 		.4byte	.LLST17
 2248 0ae9 00       		.byte	0
 2249 0aea 22       		.uleb128 0x22
 2250 0aeb 0C000000 		.4byte	.LVL26
 2251 0aef 0D110000 		.4byte	0x110d
 2252 0af3 1D       		.uleb128 0x1d
 2253 0af4 01       		.byte	0x1
 2254 0af5 50       		.byte	0x50
 2255 0af6 03       		.byte	0x3
 2256 0af7 F3       		.byte	0xf3
 2257 0af8 01       		.uleb128 0x1
 2258 0af9 50       		.byte	0x50
 2259 0afa 00       		.byte	0
 2260 0afb 00       		.byte	0
 2261 0afc 1E       		.uleb128 0x1e
 2262 0afd 01       		.byte	0x1
 2263 0afe 89010000 		.4byte	.LASF127
 2264 0b02 01       		.byte	0x1
 2265 0b03 B7       		.byte	0xb7
 2266 0b04 01       		.byte	0x1
 2267 0b05 00000000 		.4byte	.LFB124
ARM GAS  C:\Users\DNIEL~1\AppData\Local\Temp\ccfZfb0o.s 			page 41


 2268 0b09 18000000 		.4byte	.LFE124
 2269 0b0d E5010000 		.4byte	.LLST18
 2270 0b11 01       		.byte	0x1
 2271 0b12 850B0000 		.4byte	0xb85
 2272 0b16 1B       		.uleb128 0x1b
 2273 0b17 13060000 		.4byte	.LASF123
 2274 0b1b 01       		.byte	0x1
 2275 0b1c B7       		.byte	0xb7
 2276 0b1d 45080000 		.4byte	0x845
 2277 0b21 05020000 		.4byte	.LLST19
 2278 0b25 24       		.uleb128 0x24
 2279 0b26 6E00     		.ascii	"n\000"
 2280 0b28 01       		.byte	0x1
 2281 0b29 B7       		.byte	0xb7
 2282 0b2a 30000000 		.4byte	0x30
 2283 0b2e 26020000 		.4byte	.LLST20
 2284 0b32 21       		.uleb128 0x21
 2285 0b33 02000000 		.4byte	.LBB12
 2286 0b37 08000000 		.4byte	.LBE12
 2287 0b3b 4F0B0000 		.4byte	0xb4f
 2288 0b3f 20       		.uleb128 0x20
 2289 0b40 746D7000 		.ascii	"tmp\000"
 2290 0b44 01       		.byte	0x1
 2291 0b45 BB       		.byte	0xbb
 2292 0b46 86000000 		.4byte	0x86
 2293 0b4a 47020000 		.4byte	.LLST21
 2294 0b4e 00       		.byte	0
 2295 0b4f 21       		.uleb128 0x21
 2296 0b50 10000000 		.4byte	.LBB13
 2297 0b54 18000000 		.4byte	.LBE13
 2298 0b58 6C0B0000 		.4byte	0xb6c
 2299 0b5c 20       		.uleb128 0x20
 2300 0b5d 746D7000 		.ascii	"tmp\000"
 2301 0b61 01       		.byte	0x1
 2302 0b62 BE       		.byte	0xbe
 2303 0b63 86000000 		.4byte	0x86
 2304 0b67 5A020000 		.4byte	.LLST22
 2305 0b6b 00       		.byte	0
 2306 0b6c 22       		.uleb128 0x22
 2307 0b6d 10000000 		.4byte	.LVL33
 2308 0b71 4C110000 		.4byte	0x114c
 2309 0b75 1D       		.uleb128 0x1d
 2310 0b76 01       		.byte	0x1
 2311 0b77 51       		.byte	0x51
 2312 0b78 03       		.byte	0x3
 2313 0b79 F3       		.byte	0xf3
 2314 0b7a 01       		.uleb128 0x1
 2315 0b7b 51       		.byte	0x51
 2316 0b7c 1D       		.uleb128 0x1d
 2317 0b7d 01       		.byte	0x1
 2318 0b7e 50       		.byte	0x50
 2319 0b7f 03       		.byte	0x3
 2320 0b80 F3       		.byte	0xf3
 2321 0b81 01       		.uleb128 0x1
 2322 0b82 50       		.byte	0x50
 2323 0b83 00       		.byte	0
 2324 0b84 00       		.byte	0
ARM GAS  C:\Users\DNIEL~1\AppData\Local\Temp\ccfZfb0o.s 			page 42


 2325 0b85 1E       		.uleb128 0x1e
 2326 0b86 01       		.byte	0x1
 2327 0b87 BA050000 		.4byte	.LASF128
 2328 0b8b 01       		.byte	0x1
 2329 0b8c D2       		.byte	0xd2
 2330 0b8d 01       		.byte	0x1
 2331 0b8e 00000000 		.4byte	.LFB125
 2332 0b92 1E000000 		.4byte	.LFE125
 2333 0b96 6D020000 		.4byte	.LLST23
 2334 0b9a 01       		.byte	0x1
 2335 0b9b 390C0000 		.4byte	0xc39
 2336 0b9f 1B       		.uleb128 0x1b
 2337 0ba0 13060000 		.4byte	.LASF123
 2338 0ba4 01       		.byte	0x1
 2339 0ba5 D2       		.byte	0xd2
 2340 0ba6 45080000 		.4byte	0x845
 2341 0baa 8D020000 		.4byte	.LLST24
 2342 0bae 24       		.uleb128 0x24
 2343 0baf 6E00     		.ascii	"n\000"
 2344 0bb1 01       		.byte	0x1
 2345 0bb2 D2       		.byte	0xd2
 2346 0bb3 30000000 		.4byte	0x30
 2347 0bb7 AB020000 		.4byte	.LLST25
 2348 0bbb 1B       		.uleb128 0x1b
 2349 0bbc 2C020000 		.4byte	.LASF129
 2350 0bc0 01       		.byte	0x1
 2351 0bc1 D3       		.byte	0xd3
 2352 0bc2 390C0000 		.4byte	0xc39
 2353 0bc6 CC020000 		.4byte	.LLST26
 2354 0bca 1B       		.uleb128 0x1b
 2355 0bcb 9B000000 		.4byte	.LASF130
 2356 0bcf 01       		.byte	0x1
 2357 0bd0 D3       		.byte	0xd3
 2358 0bd1 91020000 		.4byte	0x291
 2359 0bd5 ED020000 		.4byte	.LLST27
 2360 0bd9 21       		.uleb128 0x21
 2361 0bda 06000000 		.4byte	.LBB14
 2362 0bde 0C000000 		.4byte	.LBE14
 2363 0be2 F60B0000 		.4byte	0xbf6
 2364 0be6 20       		.uleb128 0x20
 2365 0be7 746D7000 		.ascii	"tmp\000"
 2366 0beb 01       		.byte	0x1
 2367 0bec D8       		.byte	0xd8
 2368 0bed 86000000 		.4byte	0x86
 2369 0bf1 24030000 		.4byte	.LLST28
 2370 0bf5 00       		.byte	0
 2371 0bf6 21       		.uleb128 0x21
 2372 0bf7 16000000 		.4byte	.LBB15
 2373 0bfb 1E000000 		.4byte	.LBE15
 2374 0bff 130C0000 		.4byte	0xc13
 2375 0c03 20       		.uleb128 0x20
 2376 0c04 746D7000 		.ascii	"tmp\000"
 2377 0c08 01       		.byte	0x1
 2378 0c09 DB       		.byte	0xdb
 2379 0c0a 86000000 		.4byte	0x86
 2380 0c0e 37030000 		.4byte	.LLST29
 2381 0c12 00       		.byte	0
ARM GAS  C:\Users\DNIEL~1\AppData\Local\Temp\ccfZfb0o.s 			page 43


 2382 0c13 22       		.uleb128 0x22
 2383 0c14 16000000 		.4byte	.LVL41
 2384 0c18 66110000 		.4byte	0x1166
 2385 0c1c 1D       		.uleb128 0x1d
 2386 0c1d 01       		.byte	0x1
 2387 0c1e 53       		.byte	0x53
 2388 0c1f 03       		.byte	0x3
 2389 0c20 F3       		.byte	0xf3
 2390 0c21 01       		.uleb128 0x1
 2391 0c22 53       		.byte	0x53
 2392 0c23 1D       		.uleb128 0x1d
 2393 0c24 01       		.byte	0x1
 2394 0c25 52       		.byte	0x52
 2395 0c26 03       		.byte	0x3
 2396 0c27 F3       		.byte	0xf3
 2397 0c28 01       		.uleb128 0x1
 2398 0c29 52       		.byte	0x52
 2399 0c2a 1D       		.uleb128 0x1d
 2400 0c2b 01       		.byte	0x1
 2401 0c2c 51       		.byte	0x51
 2402 0c2d 03       		.byte	0x3
 2403 0c2e F3       		.byte	0xf3
 2404 0c2f 01       		.uleb128 0x1
 2405 0c30 51       		.byte	0x51
 2406 0c31 1D       		.uleb128 0x1d
 2407 0c32 01       		.byte	0x1
 2408 0c33 50       		.byte	0x50
 2409 0c34 02       		.byte	0x2
 2410 0c35 74       		.byte	0x74
 2411 0c36 00       		.sleb128 0
 2412 0c37 00       		.byte	0
 2413 0c38 00       		.byte	0
 2414 0c39 09       		.uleb128 0x9
 2415 0c3a 04       		.byte	0x4
 2416 0c3b 3F0C0000 		.4byte	0xc3f
 2417 0c3f 25       		.uleb128 0x25
 2418 0c40 1E       		.uleb128 0x1e
 2419 0c41 01       		.byte	0x1
 2420 0c42 54020000 		.4byte	.LASF131
 2421 0c46 01       		.byte	0x1
 2422 0c47 ED       		.byte	0xed
 2423 0c48 01       		.byte	0x1
 2424 0c49 00000000 		.4byte	.LFB126
 2425 0c4d 1A000000 		.4byte	.LFE126
 2426 0c51 4A030000 		.4byte	.LLST30
 2427 0c55 01       		.byte	0x1
 2428 0c56 DA0C0000 		.4byte	0xcda
 2429 0c5a 1B       		.uleb128 0x1b
 2430 0c5b 13060000 		.4byte	.LASF123
 2431 0c5f 01       		.byte	0x1
 2432 0c60 ED       		.byte	0xed
 2433 0c61 45080000 		.4byte	0x845
 2434 0c65 6A030000 		.4byte	.LLST31
 2435 0c69 24       		.uleb128 0x24
 2436 0c6a 6E00     		.ascii	"n\000"
 2437 0c6c 01       		.byte	0x1
 2438 0c6d ED       		.byte	0xed
ARM GAS  C:\Users\DNIEL~1\AppData\Local\Temp\ccfZfb0o.s 			page 44


 2439 0c6e 30000000 		.4byte	0x30
 2440 0c72 88030000 		.4byte	.LLST32
 2441 0c76 1B       		.uleb128 0x1b
 2442 0c77 2C020000 		.4byte	.LASF129
 2443 0c7b 01       		.byte	0x1
 2444 0c7c ED       		.byte	0xed
 2445 0c7d 390C0000 		.4byte	0xc39
 2446 0c81 A9030000 		.4byte	.LLST33
 2447 0c85 1F       		.uleb128 0x1f
 2448 0c86 30000000 		.4byte	.Ldebug_ranges0+0x30
 2449 0c8a 9E0C0000 		.4byte	0xc9e
 2450 0c8e 20       		.uleb128 0x20
 2451 0c8f 746D7000 		.ascii	"tmp\000"
 2452 0c93 01       		.byte	0x1
 2453 0c94 F2       		.byte	0xf2
 2454 0c95 86000000 		.4byte	0x86
 2455 0c99 CA030000 		.4byte	.LLST34
 2456 0c9d 00       		.byte	0
 2457 0c9e 21       		.uleb128 0x21
 2458 0c9f 12000000 		.4byte	.LBB18
 2459 0ca3 1A000000 		.4byte	.LBE18
 2460 0ca7 BB0C0000 		.4byte	0xcbb
 2461 0cab 20       		.uleb128 0x20
 2462 0cac 746D7000 		.ascii	"tmp\000"
 2463 0cb0 01       		.byte	0x1
 2464 0cb1 F5       		.byte	0xf5
 2465 0cb2 86000000 		.4byte	0x86
 2466 0cb6 DD030000 		.4byte	.LLST35
 2467 0cba 00       		.byte	0
 2468 0cbb 22       		.uleb128 0x22
 2469 0cbc 12000000 		.4byte	.LVL48
 2470 0cc0 8A110000 		.4byte	0x118a
 2471 0cc4 1D       		.uleb128 0x1d
 2472 0cc5 01       		.byte	0x1
 2473 0cc6 52       		.byte	0x52
 2474 0cc7 03       		.byte	0x3
 2475 0cc8 F3       		.byte	0xf3
 2476 0cc9 01       		.uleb128 0x1
 2477 0cca 52       		.byte	0x52
 2478 0ccb 1D       		.uleb128 0x1d
 2479 0ccc 01       		.byte	0x1
 2480 0ccd 51       		.byte	0x51
 2481 0cce 03       		.byte	0x3
 2482 0ccf F3       		.byte	0xf3
 2483 0cd0 01       		.uleb128 0x1
 2484 0cd1 51       		.byte	0x51
 2485 0cd2 1D       		.uleb128 0x1d
 2486 0cd3 01       		.byte	0x1
 2487 0cd4 50       		.byte	0x50
 2488 0cd5 02       		.byte	0x2
 2489 0cd6 74       		.byte	0x74
 2490 0cd7 00       		.sleb128 0
 2491 0cd8 00       		.byte	0
 2492 0cd9 00       		.byte	0
 2493 0cda 26       		.uleb128 0x26
 2494 0cdb 01       		.byte	0x1
 2495 0cdc 43010000 		.4byte	.LASF132
ARM GAS  C:\Users\DNIEL~1\AppData\Local\Temp\ccfZfb0o.s 			page 45


 2496 0ce0 01       		.byte	0x1
 2497 0ce1 0701     		.2byte	0x107
 2498 0ce3 01       		.byte	0x1
 2499 0ce4 00000000 		.4byte	.LFB127
 2500 0ce8 1A000000 		.4byte	.LFE127
 2501 0cec F0030000 		.4byte	.LLST36
 2502 0cf0 01       		.byte	0x1
 2503 0cf1 7A0D0000 		.4byte	0xd7a
 2504 0cf5 27       		.uleb128 0x27
 2505 0cf6 13060000 		.4byte	.LASF123
 2506 0cfa 01       		.byte	0x1
 2507 0cfb 0701     		.2byte	0x107
 2508 0cfd 45080000 		.4byte	0x845
 2509 0d01 10040000 		.4byte	.LLST37
 2510 0d05 28       		.uleb128 0x28
 2511 0d06 6E00     		.ascii	"n\000"
 2512 0d08 01       		.byte	0x1
 2513 0d09 0701     		.2byte	0x107
 2514 0d0b 30000000 		.4byte	0x30
 2515 0d0f 2E040000 		.4byte	.LLST38
 2516 0d13 27       		.uleb128 0x27
 2517 0d14 9B000000 		.4byte	.LASF130
 2518 0d18 01       		.byte	0x1
 2519 0d19 0701     		.2byte	0x107
 2520 0d1b 91020000 		.4byte	0x291
 2521 0d1f 4F040000 		.4byte	.LLST39
 2522 0d23 1F       		.uleb128 0x1f
 2523 0d24 48000000 		.4byte	.Ldebug_ranges0+0x48
 2524 0d28 3D0D0000 		.4byte	0xd3d
 2525 0d2c 29       		.uleb128 0x29
 2526 0d2d 746D7000 		.ascii	"tmp\000"
 2527 0d31 01       		.byte	0x1
 2528 0d32 0C01     		.2byte	0x10c
 2529 0d34 86000000 		.4byte	0x86
 2530 0d38 70040000 		.4byte	.LLST40
 2531 0d3c 00       		.byte	0
 2532 0d3d 21       		.uleb128 0x21
 2533 0d3e 12000000 		.4byte	.LBB21
 2534 0d42 1A000000 		.4byte	.LBE21
 2535 0d46 5B0D0000 		.4byte	0xd5b
 2536 0d4a 29       		.uleb128 0x29
 2537 0d4b 746D7000 		.ascii	"tmp\000"
 2538 0d4f 01       		.byte	0x1
 2539 0d50 0F01     		.2byte	0x10f
 2540 0d52 86000000 		.4byte	0x86
 2541 0d56 83040000 		.4byte	.LLST41
 2542 0d5a 00       		.byte	0
 2543 0d5b 22       		.uleb128 0x22
 2544 0d5c 12000000 		.4byte	.LVL55
 2545 0d60 A9110000 		.4byte	0x11a9
 2546 0d64 1D       		.uleb128 0x1d
 2547 0d65 01       		.byte	0x1
 2548 0d66 52       		.byte	0x52
 2549 0d67 03       		.byte	0x3
 2550 0d68 F3       		.byte	0xf3
 2551 0d69 01       		.uleb128 0x1
 2552 0d6a 52       		.byte	0x52
ARM GAS  C:\Users\DNIEL~1\AppData\Local\Temp\ccfZfb0o.s 			page 46


 2553 0d6b 1D       		.uleb128 0x1d
 2554 0d6c 01       		.byte	0x1
 2555 0d6d 51       		.byte	0x51
 2556 0d6e 03       		.byte	0x3
 2557 0d6f F3       		.byte	0xf3
 2558 0d70 01       		.uleb128 0x1
 2559 0d71 51       		.byte	0x51
 2560 0d72 1D       		.uleb128 0x1d
 2561 0d73 01       		.byte	0x1
 2562 0d74 50       		.byte	0x50
 2563 0d75 02       		.byte	0x2
 2564 0d76 74       		.byte	0x74
 2565 0d77 00       		.sleb128 0
 2566 0d78 00       		.byte	0
 2567 0d79 00       		.byte	0
 2568 0d7a 26       		.uleb128 0x26
 2569 0d7b 01       		.byte	0x1
 2570 0d7c 40050000 		.4byte	.LASF133
 2571 0d80 01       		.byte	0x1
 2572 0d81 2101     		.2byte	0x121
 2573 0d83 01       		.byte	0x1
 2574 0d84 00000000 		.4byte	.LFB128
 2575 0d88 2C000000 		.4byte	.LFE128
 2576 0d8c 96040000 		.4byte	.LLST42
 2577 0d90 01       		.byte	0x1
 2578 0d91 160E0000 		.4byte	0xe16
 2579 0d95 27       		.uleb128 0x27
 2580 0d96 13060000 		.4byte	.LASF123
 2581 0d9a 01       		.byte	0x1
 2582 0d9b 2101     		.2byte	0x121
 2583 0d9d 45080000 		.4byte	0x845
 2584 0da1 B6040000 		.4byte	.LLST43
 2585 0da5 28       		.uleb128 0x28
 2586 0da6 6E00     		.ascii	"n\000"
 2587 0da8 01       		.byte	0x1
 2588 0da9 2101     		.2byte	0x121
 2589 0dab 30000000 		.4byte	0x30
 2590 0daf D4040000 		.4byte	.LLST44
 2591 0db3 1F       		.uleb128 0x1f
 2592 0db4 60000000 		.4byte	.Ldebug_ranges0+0x60
 2593 0db8 CD0D0000 		.4byte	0xdcd
 2594 0dbc 29       		.uleb128 0x29
 2595 0dbd 746D7000 		.ascii	"tmp\000"
 2596 0dc1 01       		.byte	0x1
 2597 0dc2 2501     		.2byte	0x125
 2598 0dc4 86000000 		.4byte	0x86
 2599 0dc8 F5040000 		.4byte	.LLST45
 2600 0dcc 00       		.byte	0
 2601 0dcd 21       		.uleb128 0x21
 2602 0dce 24000000 		.4byte	.LBB24
 2603 0dd2 2C000000 		.4byte	.LBE24
 2604 0dd6 EB0D0000 		.4byte	0xdeb
 2605 0dda 29       		.uleb128 0x29
 2606 0ddb 746D7000 		.ascii	"tmp\000"
 2607 0ddf 01       		.byte	0x1
 2608 0de0 2A01     		.2byte	0x12a
 2609 0de2 86000000 		.4byte	0x86
ARM GAS  C:\Users\DNIEL~1\AppData\Local\Temp\ccfZfb0o.s 			page 47


 2610 0de6 08050000 		.4byte	.LLST46
 2611 0dea 00       		.byte	0
 2612 0deb 23       		.uleb128 0x23
 2613 0dec 12000000 		.4byte	.LVL62
 2614 0df0 4C110000 		.4byte	0x114c
 2615 0df4 060E0000 		.4byte	0xe06
 2616 0df8 1D       		.uleb128 0x1d
 2617 0df9 01       		.byte	0x1
 2618 0dfa 51       		.byte	0x51
 2619 0dfb 03       		.byte	0x3
 2620 0dfc F3       		.byte	0xf3
 2621 0dfd 01       		.uleb128 0x1
 2622 0dfe 51       		.byte	0x51
 2623 0dff 1D       		.uleb128 0x1d
 2624 0e00 01       		.byte	0x1
 2625 0e01 50       		.byte	0x50
 2626 0e02 02       		.byte	0x2
 2627 0e03 74       		.byte	0x74
 2628 0e04 00       		.sleb128 0
 2629 0e05 00       		.byte	0
 2630 0e06 22       		.uleb128 0x22
 2631 0e07 24000000 		.4byte	.LVL63
 2632 0e0b C8110000 		.4byte	0x11c8
 2633 0e0f 1D       		.uleb128 0x1d
 2634 0e10 01       		.byte	0x1
 2635 0e11 50       		.byte	0x50
 2636 0e12 01       		.byte	0x1
 2637 0e13 32       		.byte	0x32
 2638 0e14 00       		.byte	0
 2639 0e15 00       		.byte	0
 2640 0e16 26       		.uleb128 0x26
 2641 0e17 01       		.byte	0x1
 2642 0e18 BB020000 		.4byte	.LASF134
 2643 0e1c 01       		.byte	0x1
 2644 0e1d 3F01     		.2byte	0x13f
 2645 0e1f 01       		.byte	0x1
 2646 0e20 00000000 		.4byte	.LFB129
 2647 0e24 30000000 		.4byte	.LFE129
 2648 0e28 1B050000 		.4byte	.LLST47
 2649 0e2c 01       		.byte	0x1
 2650 0e2d E40E0000 		.4byte	0xee4
 2651 0e31 27       		.uleb128 0x27
 2652 0e32 13060000 		.4byte	.LASF123
 2653 0e36 01       		.byte	0x1
 2654 0e37 3F01     		.2byte	0x13f
 2655 0e39 45080000 		.4byte	0x845
 2656 0e3d 3B050000 		.4byte	.LLST48
 2657 0e41 28       		.uleb128 0x28
 2658 0e42 6E00     		.ascii	"n\000"
 2659 0e44 01       		.byte	0x1
 2660 0e45 3F01     		.2byte	0x13f
 2661 0e47 30000000 		.4byte	0x30
 2662 0e4b 59050000 		.4byte	.LLST49
 2663 0e4f 27       		.uleb128 0x27
 2664 0e50 2C020000 		.4byte	.LASF129
 2665 0e54 01       		.byte	0x1
 2666 0e55 4001     		.2byte	0x140
ARM GAS  C:\Users\DNIEL~1\AppData\Local\Temp\ccfZfb0o.s 			page 48


 2667 0e57 390C0000 		.4byte	0xc39
 2668 0e5b 7A050000 		.4byte	.LLST50
 2669 0e5f 27       		.uleb128 0x27
 2670 0e60 9B000000 		.4byte	.LASF130
 2671 0e64 01       		.byte	0x1
 2672 0e65 4001     		.2byte	0x140
 2673 0e67 91020000 		.4byte	0x291
 2674 0e6b 9B050000 		.4byte	.LLST51
 2675 0e6f 21       		.uleb128 0x21
 2676 0e70 06000000 		.4byte	.LBB25
 2677 0e74 0C000000 		.4byte	.LBE25
 2678 0e78 8D0E0000 		.4byte	0xe8d
 2679 0e7c 29       		.uleb128 0x29
 2680 0e7d 746D7000 		.ascii	"tmp\000"
 2681 0e81 01       		.byte	0x1
 2682 0e82 4501     		.2byte	0x145
 2683 0e84 86000000 		.4byte	0x86
 2684 0e88 D2050000 		.4byte	.LLST52
 2685 0e8c 00       		.byte	0
 2686 0e8d 21       		.uleb128 0x21
 2687 0e8e 28000000 		.4byte	.LBB26
 2688 0e92 30000000 		.4byte	.LBE26
 2689 0e96 AB0E0000 		.4byte	0xeab
 2690 0e9a 29       		.uleb128 0x29
 2691 0e9b 746D7000 		.ascii	"tmp\000"
 2692 0e9f 01       		.byte	0x1
 2693 0ea0 4B01     		.2byte	0x14b
 2694 0ea2 86000000 		.4byte	0x86
 2695 0ea6 E5050000 		.4byte	.LLST53
 2696 0eaa 00       		.byte	0
 2697 0eab 23       		.uleb128 0x23
 2698 0eac 16000000 		.4byte	.LVL71
 2699 0eb0 66110000 		.4byte	0x1166
 2700 0eb4 D40E0000 		.4byte	0xed4
 2701 0eb8 1D       		.uleb128 0x1d
 2702 0eb9 01       		.byte	0x1
 2703 0eba 53       		.byte	0x53
 2704 0ebb 03       		.byte	0x3
 2705 0ebc F3       		.byte	0xf3
 2706 0ebd 01       		.uleb128 0x1
 2707 0ebe 53       		.byte	0x53
 2708 0ebf 1D       		.uleb128 0x1d
 2709 0ec0 01       		.byte	0x1
 2710 0ec1 52       		.byte	0x52
 2711 0ec2 03       		.byte	0x3
 2712 0ec3 F3       		.byte	0xf3
 2713 0ec4 01       		.uleb128 0x1
 2714 0ec5 52       		.byte	0x52
 2715 0ec6 1D       		.uleb128 0x1d
 2716 0ec7 01       		.byte	0x1
 2717 0ec8 51       		.byte	0x51
 2718 0ec9 03       		.byte	0x3
 2719 0eca F3       		.byte	0xf3
 2720 0ecb 01       		.uleb128 0x1
 2721 0ecc 51       		.byte	0x51
 2722 0ecd 1D       		.uleb128 0x1d
 2723 0ece 01       		.byte	0x1
ARM GAS  C:\Users\DNIEL~1\AppData\Local\Temp\ccfZfb0o.s 			page 49


 2724 0ecf 50       		.byte	0x50
 2725 0ed0 02       		.byte	0x2
 2726 0ed1 74       		.byte	0x74
 2727 0ed2 00       		.sleb128 0
 2728 0ed3 00       		.byte	0
 2729 0ed4 22       		.uleb128 0x22
 2730 0ed5 28000000 		.4byte	.LVL72
 2731 0ed9 C8110000 		.4byte	0x11c8
 2732 0edd 1D       		.uleb128 0x1d
 2733 0ede 01       		.byte	0x1
 2734 0edf 50       		.byte	0x50
 2735 0ee0 01       		.byte	0x1
 2736 0ee1 32       		.byte	0x32
 2737 0ee2 00       		.byte	0
 2738 0ee3 00       		.byte	0
 2739 0ee4 26       		.uleb128 0x26
 2740 0ee5 01       		.byte	0x1
 2741 0ee6 26060000 		.4byte	.LASF135
 2742 0eea 01       		.byte	0x1
 2743 0eeb 5E01     		.2byte	0x15e
 2744 0eed 01       		.byte	0x1
 2745 0eee 00000000 		.4byte	.LFB130
 2746 0ef2 2C000000 		.4byte	.LFE130
 2747 0ef6 F8050000 		.4byte	.LLST54
 2748 0efa 01       		.byte	0x1
 2749 0efb 970F0000 		.4byte	0xf97
 2750 0eff 27       		.uleb128 0x27
 2751 0f00 13060000 		.4byte	.LASF123
 2752 0f04 01       		.byte	0x1
 2753 0f05 5E01     		.2byte	0x15e
 2754 0f07 45080000 		.4byte	0x845
 2755 0f0b 18060000 		.4byte	.LLST55
 2756 0f0f 28       		.uleb128 0x28
 2757 0f10 6E00     		.ascii	"n\000"
 2758 0f12 01       		.byte	0x1
 2759 0f13 5E01     		.2byte	0x15e
 2760 0f15 30000000 		.4byte	0x30
 2761 0f19 36060000 		.4byte	.LLST56
 2762 0f1d 27       		.uleb128 0x27
 2763 0f1e 2C020000 		.4byte	.LASF129
 2764 0f22 01       		.byte	0x1
 2765 0f23 5E01     		.2byte	0x15e
 2766 0f25 390C0000 		.4byte	0xc39
 2767 0f29 57060000 		.4byte	.LLST57
 2768 0f2d 1F       		.uleb128 0x1f
 2769 0f2e 78000000 		.4byte	.Ldebug_ranges0+0x78
 2770 0f32 470F0000 		.4byte	0xf47
 2771 0f36 29       		.uleb128 0x29
 2772 0f37 746D7000 		.ascii	"tmp\000"
 2773 0f3b 01       		.byte	0x1
 2774 0f3c 6201     		.2byte	0x162
 2775 0f3e 86000000 		.4byte	0x86
 2776 0f42 78060000 		.4byte	.LLST58
 2777 0f46 00       		.byte	0
 2778 0f47 21       		.uleb128 0x21
 2779 0f48 24000000 		.4byte	.LBB29
 2780 0f4c 2C000000 		.4byte	.LBE29
ARM GAS  C:\Users\DNIEL~1\AppData\Local\Temp\ccfZfb0o.s 			page 50


 2781 0f50 650F0000 		.4byte	0xf65
 2782 0f54 29       		.uleb128 0x29
 2783 0f55 746D7000 		.ascii	"tmp\000"
 2784 0f59 01       		.byte	0x1
 2785 0f5a 6701     		.2byte	0x167
 2786 0f5c 86000000 		.4byte	0x86
 2787 0f60 8B060000 		.4byte	.LLST59
 2788 0f64 00       		.byte	0
 2789 0f65 23       		.uleb128 0x23
 2790 0f66 12000000 		.4byte	.LVL79
 2791 0f6a 8A110000 		.4byte	0x118a
 2792 0f6e 870F0000 		.4byte	0xf87
 2793 0f72 1D       		.uleb128 0x1d
 2794 0f73 01       		.byte	0x1
 2795 0f74 52       		.byte	0x52
 2796 0f75 03       		.byte	0x3
 2797 0f76 F3       		.byte	0xf3
 2798 0f77 01       		.uleb128 0x1
 2799 0f78 52       		.byte	0x52
 2800 0f79 1D       		.uleb128 0x1d
 2801 0f7a 01       		.byte	0x1
 2802 0f7b 51       		.byte	0x51
 2803 0f7c 03       		.byte	0x3
 2804 0f7d F3       		.byte	0xf3
 2805 0f7e 01       		.uleb128 0x1
 2806 0f7f 51       		.byte	0x51
 2807 0f80 1D       		.uleb128 0x1d
 2808 0f81 01       		.byte	0x1
 2809 0f82 50       		.byte	0x50
 2810 0f83 02       		.byte	0x2
 2811 0f84 74       		.byte	0x74
 2812 0f85 00       		.sleb128 0
 2813 0f86 00       		.byte	0
 2814 0f87 22       		.uleb128 0x22
 2815 0f88 24000000 		.4byte	.LVL80
 2816 0f8c C8110000 		.4byte	0x11c8
 2817 0f90 1D       		.uleb128 0x1d
 2818 0f91 01       		.byte	0x1
 2819 0f92 50       		.byte	0x50
 2820 0f93 01       		.byte	0x1
 2821 0f94 32       		.byte	0x32
 2822 0f95 00       		.byte	0
 2823 0f96 00       		.byte	0
 2824 0f97 26       		.uleb128 0x26
 2825 0f98 01       		.byte	0x1
 2826 0f99 32020000 		.4byte	.LASF136
 2827 0f9d 01       		.byte	0x1
 2828 0f9e 7A01     		.2byte	0x17a
 2829 0fa0 01       		.byte	0x1
 2830 0fa1 00000000 		.4byte	.LFB131
 2831 0fa5 2C000000 		.4byte	.LFE131
 2832 0fa9 9E060000 		.4byte	.LLST60
 2833 0fad 01       		.byte	0x1
 2834 0fae 4A100000 		.4byte	0x104a
 2835 0fb2 27       		.uleb128 0x27
 2836 0fb3 13060000 		.4byte	.LASF123
 2837 0fb7 01       		.byte	0x1
ARM GAS  C:\Users\DNIEL~1\AppData\Local\Temp\ccfZfb0o.s 			page 51


 2838 0fb8 7A01     		.2byte	0x17a
 2839 0fba 45080000 		.4byte	0x845
 2840 0fbe BE060000 		.4byte	.LLST61
 2841 0fc2 28       		.uleb128 0x28
 2842 0fc3 6E00     		.ascii	"n\000"
 2843 0fc5 01       		.byte	0x1
 2844 0fc6 7A01     		.2byte	0x17a
 2845 0fc8 30000000 		.4byte	0x30
 2846 0fcc DC060000 		.4byte	.LLST62
 2847 0fd0 27       		.uleb128 0x27
 2848 0fd1 9B000000 		.4byte	.LASF130
 2849 0fd5 01       		.byte	0x1
 2850 0fd6 7A01     		.2byte	0x17a
 2851 0fd8 91020000 		.4byte	0x291
 2852 0fdc FD060000 		.4byte	.LLST63
 2853 0fe0 1F       		.uleb128 0x1f
 2854 0fe1 90000000 		.4byte	.Ldebug_ranges0+0x90
 2855 0fe5 FA0F0000 		.4byte	0xffa
 2856 0fe9 29       		.uleb128 0x29
 2857 0fea 746D7000 		.ascii	"tmp\000"
 2858 0fee 01       		.byte	0x1
 2859 0fef 7F01     		.2byte	0x17f
 2860 0ff1 86000000 		.4byte	0x86
 2861 0ff5 1E070000 		.4byte	.LLST64
 2862 0ff9 00       		.byte	0
 2863 0ffa 21       		.uleb128 0x21
 2864 0ffb 24000000 		.4byte	.LBB32
 2865 0fff 2C000000 		.4byte	.LBE32
 2866 1003 18100000 		.4byte	0x1018
 2867 1007 29       		.uleb128 0x29
 2868 1008 746D7000 		.ascii	"tmp\000"
 2869 100c 01       		.byte	0x1
 2870 100d 8501     		.2byte	0x185
 2871 100f 86000000 		.4byte	0x86
 2872 1013 31070000 		.4byte	.LLST65
 2873 1017 00       		.byte	0
 2874 1018 23       		.uleb128 0x23
 2875 1019 12000000 		.4byte	.LVL87
 2876 101d A9110000 		.4byte	0x11a9
 2877 1021 3A100000 		.4byte	0x103a
 2878 1025 1D       		.uleb128 0x1d
 2879 1026 01       		.byte	0x1
 2880 1027 52       		.byte	0x52
 2881 1028 03       		.byte	0x3
 2882 1029 F3       		.byte	0xf3
 2883 102a 01       		.uleb128 0x1
 2884 102b 52       		.byte	0x52
 2885 102c 1D       		.uleb128 0x1d
 2886 102d 01       		.byte	0x1
 2887 102e 51       		.byte	0x51
 2888 102f 03       		.byte	0x3
 2889 1030 F3       		.byte	0xf3
 2890 1031 01       		.uleb128 0x1
 2891 1032 51       		.byte	0x51
 2892 1033 1D       		.uleb128 0x1d
 2893 1034 01       		.byte	0x1
 2894 1035 50       		.byte	0x50
ARM GAS  C:\Users\DNIEL~1\AppData\Local\Temp\ccfZfb0o.s 			page 52


 2895 1036 02       		.byte	0x2
 2896 1037 74       		.byte	0x74
 2897 1038 00       		.sleb128 0
 2898 1039 00       		.byte	0
 2899 103a 22       		.uleb128 0x22
 2900 103b 24000000 		.4byte	.LVL88
 2901 103f C8110000 		.4byte	0x11c8
 2902 1043 1D       		.uleb128 0x1d
 2903 1044 01       		.byte	0x1
 2904 1045 50       		.byte	0x50
 2905 1046 01       		.byte	0x1
 2906 1047 32       		.byte	0x32
 2907 1048 00       		.byte	0
 2908 1049 00       		.byte	0
 2909 104a 2A       		.uleb128 0x2a
 2910 104b 01       		.byte	0x1
 2911 104c FF020000 		.4byte	.LASF137
 2912 1050 01       		.byte	0x1
 2913 1051 9501     		.2byte	0x195
 2914 1053 01       		.byte	0x1
 2915 1054 00000000 		.4byte	.LFB132
 2916 1058 06000000 		.4byte	.LFE132
 2917 105c 02       		.byte	0x2
 2918 105d 7D       		.byte	0x7d
 2919 105e 00       		.sleb128 0
 2920 105f 01       		.byte	0x1
 2921 1060 89100000 		.4byte	0x1089
 2922 1064 27       		.uleb128 0x27
 2923 1065 13060000 		.4byte	.LASF123
 2924 1069 01       		.byte	0x1
 2925 106a 9501     		.2byte	0x195
 2926 106c 45080000 		.4byte	0x845
 2927 1070 44070000 		.4byte	.LLST66
 2928 1074 1C       		.uleb128 0x1c
 2929 1075 06000000 		.4byte	.LVL93
 2930 1079 01       		.byte	0x1
 2931 107a DC110000 		.4byte	0x11dc
 2932 107e 1D       		.uleb128 0x1d
 2933 107f 01       		.byte	0x1
 2934 1080 50       		.byte	0x50
 2935 1081 05       		.byte	0x5
 2936 1082 F3       		.byte	0xf3
 2937 1083 01       		.uleb128 0x1
 2938 1084 50       		.byte	0x50
 2939 1085 23       		.byte	0x23
 2940 1086 0C       		.uleb128 0xc
 2941 1087 00       		.byte	0
 2942 1088 00       		.byte	0
 2943 1089 2A       		.uleb128 0x2a
 2944 108a 01       		.byte	0x1
 2945 108b 32050000 		.4byte	.LASF138
 2946 108f 01       		.byte	0x1
 2947 1090 A901     		.2byte	0x1a9
 2948 1092 01       		.byte	0x1
 2949 1093 00000000 		.4byte	.LFB133
 2950 1097 04000000 		.4byte	.LFE133
 2951 109b 02       		.byte	0x2
ARM GAS  C:\Users\DNIEL~1\AppData\Local\Temp\ccfZfb0o.s 			page 53


 2952 109c 7D       		.byte	0x7d
 2953 109d 00       		.sleb128 0
 2954 109e 01       		.byte	0x1
 2955 109f BE100000 		.4byte	0x10be
 2956 10a3 27       		.uleb128 0x27
 2957 10a4 13060000 		.4byte	.LASF123
 2958 10a8 01       		.byte	0x1
 2959 10a9 A901     		.2byte	0x1a9
 2960 10ab 45080000 		.4byte	0x845
 2961 10af 72070000 		.4byte	.LLST67
 2962 10b3 1A       		.uleb128 0x1a
 2963 10b4 04000000 		.4byte	.LVL95
 2964 10b8 01       		.byte	0x1
 2965 10b9 F0110000 		.4byte	0x11f0
 2966 10bd 00       		.byte	0
 2967 10be 2B       		.uleb128 0x2b
 2968 10bf FB010000 		.4byte	.LASF139
 2969 10c3 08       		.byte	0x8
 2970 10c4 68       		.byte	0x68
 2971 10c5 B2030000 		.4byte	0x3b2
 2972 10c9 01       		.byte	0x1
 2973 10ca 01       		.byte	0x1
 2974 10cb 2C       		.uleb128 0x2c
 2975 10cc 8E000000 		.4byte	.LASF140
 2976 10d0 0F       		.byte	0xf
 2977 10d1 9806     		.2byte	0x698
 2978 10d3 57040000 		.4byte	0x457
 2979 10d7 01       		.byte	0x1
 2980 10d8 01       		.byte	0x1
 2981 10d9 2D       		.uleb128 0x2d
 2982 10da 01       		.byte	0x1
 2983 10db DC000000 		.4byte	.LASF155
 2984 10df 0E       		.byte	0xe
 2985 10e0 9501     		.2byte	0x195
 2986 10e2 01       		.byte	0x1
 2987 10e3 01       		.byte	0x1
 2988 10e4 2E       		.uleb128 0x2e
 2989 10e5 01       		.byte	0x1
 2990 10e6 A1050000 		.4byte	.LASF141
 2991 10ea 09       		.byte	0x9
 2992 10eb 31       		.byte	0x31
 2993 10ec 01       		.byte	0x1
 2994 10ed 01       		.byte	0x1
 2995 10ee F8100000 		.4byte	0x10f8
 2996 10f2 18       		.uleb128 0x18
 2997 10f3 4C040000 		.4byte	0x44c
 2998 10f7 00       		.byte	0
 2999 10f8 2F       		.uleb128 0x2f
 3000 10f9 01       		.byte	0x1
 3001 10fa FD050000 		.4byte	.LASF142
 3002 10fe 0E       		.byte	0xe
 3003 10ff 9601     		.2byte	0x196
 3004 1101 01       		.byte	0x1
 3005 1102 01       		.byte	0x1
 3006 1103 0D110000 		.4byte	0x110d
 3007 1107 18       		.uleb128 0x18
 3008 1108 45080000 		.4byte	0x845
ARM GAS  C:\Users\DNIEL~1\AppData\Local\Temp\ccfZfb0o.s 			page 54


 3009 110c 00       		.byte	0
 3010 110d 2F       		.uleb128 0x2f
 3011 110e 01       		.byte	0x1
 3012 110f 1B020000 		.4byte	.LASF143
 3013 1113 0E       		.byte	0xe
 3014 1114 9901     		.2byte	0x199
 3015 1116 01       		.byte	0x1
 3016 1117 01       		.byte	0x1
 3017 1118 22110000 		.4byte	0x1122
 3018 111c 18       		.uleb128 0x18
 3019 111d 45080000 		.4byte	0x845
 3020 1121 00       		.byte	0
 3021 1122 2F       		.uleb128 0x2f
 3022 1123 01       		.byte	0x1
 3023 1124 F2020000 		.4byte	.LASF144
 3024 1128 0E       		.byte	0xe
 3025 1129 9701     		.2byte	0x197
 3026 112b 01       		.byte	0x1
 3027 112c 01       		.byte	0x1
 3028 112d 37110000 		.4byte	0x1137
 3029 1131 18       		.uleb128 0x18
 3030 1132 45080000 		.4byte	0x845
 3031 1136 00       		.byte	0
 3032 1137 2F       		.uleb128 0x2f
 3033 1138 01       		.byte	0x1
 3034 1139 68050000 		.4byte	.LASF145
 3035 113d 0E       		.byte	0xe
 3036 113e 9801     		.2byte	0x198
 3037 1140 01       		.byte	0x1
 3038 1141 01       		.byte	0x1
 3039 1142 4C110000 		.4byte	0x114c
 3040 1146 18       		.uleb128 0x18
 3041 1147 45080000 		.4byte	0x845
 3042 114b 00       		.byte	0
 3043 114c 2F       		.uleb128 0x2f
 3044 114d 01       		.byte	0x1
 3045 114e AB050000 		.4byte	.LASF146
 3046 1152 0E       		.byte	0xe
 3047 1153 9A01     		.2byte	0x19a
 3048 1155 01       		.byte	0x1
 3049 1156 01       		.byte	0x1
 3050 1157 66110000 		.4byte	0x1166
 3051 115b 18       		.uleb128 0x18
 3052 115c 45080000 		.4byte	0x845
 3053 1160 18       		.uleb128 0x18
 3054 1161 30000000 		.4byte	0x30
 3055 1165 00       		.byte	0
 3056 1166 2F       		.uleb128 0x2f
 3057 1167 01       		.byte	0x1
 3058 1168 53010000 		.4byte	.LASF147
 3059 116c 0E       		.byte	0xe
 3060 116d 9B01     		.2byte	0x19b
 3061 116f 01       		.byte	0x1
 3062 1170 01       		.byte	0x1
 3063 1171 8A110000 		.4byte	0x118a
 3064 1175 18       		.uleb128 0x18
 3065 1176 45080000 		.4byte	0x845
ARM GAS  C:\Users\DNIEL~1\AppData\Local\Temp\ccfZfb0o.s 			page 55


 3066 117a 18       		.uleb128 0x18
 3067 117b 30000000 		.4byte	0x30
 3068 117f 18       		.uleb128 0x18
 3069 1180 390C0000 		.4byte	0xc39
 3070 1184 18       		.uleb128 0x18
 3071 1185 91020000 		.4byte	0x291
 3072 1189 00       		.byte	0
 3073 118a 2F       		.uleb128 0x2f
 3074 118b 01       		.byte	0x1
 3075 118c 01020000 		.4byte	.LASF148
 3076 1190 0E       		.byte	0xe
 3077 1191 9D01     		.2byte	0x19d
 3078 1193 01       		.byte	0x1
 3079 1194 01       		.byte	0x1
 3080 1195 A9110000 		.4byte	0x11a9
 3081 1199 18       		.uleb128 0x18
 3082 119a 45080000 		.4byte	0x845
 3083 119e 18       		.uleb128 0x18
 3084 119f 30000000 		.4byte	0x30
 3085 11a3 18       		.uleb128 0x18
 3086 11a4 390C0000 		.4byte	0xc39
 3087 11a8 00       		.byte	0
 3088 11a9 2F       		.uleb128 0x2f
 3089 11aa 01       		.byte	0x1
 3090 11ab C7020000 		.4byte	.LASF149
 3091 11af 0E       		.byte	0xe
 3092 11b0 9E01     		.2byte	0x19e
 3093 11b2 01       		.byte	0x1
 3094 11b3 01       		.byte	0x1
 3095 11b4 C8110000 		.4byte	0x11c8
 3096 11b8 18       		.uleb128 0x18
 3097 11b9 45080000 		.4byte	0x845
 3098 11bd 18       		.uleb128 0x18
 3099 11be 30000000 		.4byte	0x30
 3100 11c2 18       		.uleb128 0x18
 3101 11c3 91020000 		.4byte	0x291
 3102 11c7 00       		.byte	0
 3103 11c8 2E       		.uleb128 0x2e
 3104 11c9 01       		.byte	0x1
 3105 11ca 87040000 		.4byte	.LASF150
 3106 11ce 08       		.byte	0x8
 3107 11cf 8C       		.byte	0x8c
 3108 11d0 01       		.byte	0x1
 3109 11d1 01       		.byte	0x1
 3110 11d2 DC110000 		.4byte	0x11dc
 3111 11d6 18       		.uleb128 0x18
 3112 11d7 B1000000 		.4byte	0xb1
 3113 11db 00       		.byte	0
 3114 11dc 2E       		.uleb128 0x2e
 3115 11dd 01       		.byte	0x1
 3116 11de 0D030000 		.4byte	.LASF151
 3117 11e2 09       		.byte	0x9
 3118 11e3 32       		.byte	0x32
 3119 11e4 01       		.byte	0x1
 3120 11e5 01       		.byte	0x1
 3121 11e6 F0110000 		.4byte	0x11f0
 3122 11ea 18       		.uleb128 0x18
ARM GAS  C:\Users\DNIEL~1\AppData\Local\Temp\ccfZfb0o.s 			page 56


 3123 11eb 4C040000 		.4byte	0x44c
 3124 11ef 00       		.byte	0
 3125 11f0 30       		.uleb128 0x30
 3126 11f1 01       		.byte	0x1
 3127 11f2 AE000000 		.4byte	.LASF156
 3128 11f6 09       		.byte	0x9
 3129 11f7 36       		.byte	0x36
 3130 11f8 01       		.byte	0x1
 3131 11f9 4C040000 		.4byte	0x44c
 3132 11fd 01       		.byte	0x1
 3133 11fe 00       		.byte	0
 3134              		.section	.debug_abbrev,"",%progbits
 3135              	.Ldebug_abbrev0:
 3136 0000 01       		.uleb128 0x1
 3137 0001 11       		.uleb128 0x11
 3138 0002 01       		.byte	0x1
 3139 0003 25       		.uleb128 0x25
 3140 0004 0E       		.uleb128 0xe
 3141 0005 13       		.uleb128 0x13
 3142 0006 0B       		.uleb128 0xb
 3143 0007 03       		.uleb128 0x3
 3144 0008 0E       		.uleb128 0xe
 3145 0009 1B       		.uleb128 0x1b
 3146 000a 0E       		.uleb128 0xe
 3147 000b 55       		.uleb128 0x55
 3148 000c 06       		.uleb128 0x6
 3149 000d 11       		.uleb128 0x11
 3150 000e 01       		.uleb128 0x1
 3151 000f 52       		.uleb128 0x52
 3152 0010 01       		.uleb128 0x1
 3153 0011 10       		.uleb128 0x10
 3154 0012 06       		.uleb128 0x6
 3155 0013 00       		.byte	0
 3156 0014 00       		.byte	0
 3157 0015 02       		.uleb128 0x2
 3158 0016 24       		.uleb128 0x24
 3159 0017 00       		.byte	0
 3160 0018 0B       		.uleb128 0xb
 3161 0019 0B       		.uleb128 0xb
 3162 001a 3E       		.uleb128 0x3e
 3163 001b 0B       		.uleb128 0xb
 3164 001c 03       		.uleb128 0x3
 3165 001d 08       		.uleb128 0x8
 3166 001e 00       		.byte	0
 3167 001f 00       		.byte	0
 3168 0020 03       		.uleb128 0x3
 3169 0021 16       		.uleb128 0x16
 3170 0022 00       		.byte	0
 3171 0023 03       		.uleb128 0x3
 3172 0024 0E       		.uleb128 0xe
 3173 0025 3A       		.uleb128 0x3a
 3174 0026 0B       		.uleb128 0xb
 3175 0027 3B       		.uleb128 0x3b
 3176 0028 0B       		.uleb128 0xb
 3177 0029 49       		.uleb128 0x49
 3178 002a 13       		.uleb128 0x13
 3179 002b 00       		.byte	0
ARM GAS  C:\Users\DNIEL~1\AppData\Local\Temp\ccfZfb0o.s 			page 57


 3180 002c 00       		.byte	0
 3181 002d 04       		.uleb128 0x4
 3182 002e 24       		.uleb128 0x24
 3183 002f 00       		.byte	0
 3184 0030 0B       		.uleb128 0xb
 3185 0031 0B       		.uleb128 0xb
 3186 0032 3E       		.uleb128 0x3e
 3187 0033 0B       		.uleb128 0xb
 3188 0034 03       		.uleb128 0x3
 3189 0035 0E       		.uleb128 0xe
 3190 0036 00       		.byte	0
 3191 0037 00       		.byte	0
 3192 0038 05       		.uleb128 0x5
 3193 0039 13       		.uleb128 0x13
 3194 003a 01       		.byte	0x1
 3195 003b 03       		.uleb128 0x3
 3196 003c 0E       		.uleb128 0xe
 3197 003d 0B       		.uleb128 0xb
 3198 003e 0B       		.uleb128 0xb
 3199 003f 3A       		.uleb128 0x3a
 3200 0040 0B       		.uleb128 0xb
 3201 0041 3B       		.uleb128 0x3b
 3202 0042 0B       		.uleb128 0xb
 3203 0043 01       		.uleb128 0x1
 3204 0044 13       		.uleb128 0x13
 3205 0045 00       		.byte	0
 3206 0046 00       		.byte	0
 3207 0047 06       		.uleb128 0x6
 3208 0048 0D       		.uleb128 0xd
 3209 0049 00       		.byte	0
 3210 004a 03       		.uleb128 0x3
 3211 004b 0E       		.uleb128 0xe
 3212 004c 3A       		.uleb128 0x3a
 3213 004d 0B       		.uleb128 0xb
 3214 004e 3B       		.uleb128 0x3b
 3215 004f 0B       		.uleb128 0xb
 3216 0050 49       		.uleb128 0x49
 3217 0051 13       		.uleb128 0x13
 3218 0052 38       		.uleb128 0x38
 3219 0053 0A       		.uleb128 0xa
 3220 0054 00       		.byte	0
 3221 0055 00       		.byte	0
 3222 0056 07       		.uleb128 0x7
 3223 0057 0D       		.uleb128 0xd
 3224 0058 00       		.byte	0
 3225 0059 03       		.uleb128 0x3
 3226 005a 08       		.uleb128 0x8
 3227 005b 3A       		.uleb128 0x3a
 3228 005c 0B       		.uleb128 0xb
 3229 005d 3B       		.uleb128 0x3b
 3230 005e 0B       		.uleb128 0xb
 3231 005f 49       		.uleb128 0x49
 3232 0060 13       		.uleb128 0x13
 3233 0061 38       		.uleb128 0x38
 3234 0062 0A       		.uleb128 0xa
 3235 0063 00       		.byte	0
 3236 0064 00       		.byte	0
ARM GAS  C:\Users\DNIEL~1\AppData\Local\Temp\ccfZfb0o.s 			page 58


 3237 0065 08       		.uleb128 0x8
 3238 0066 13       		.uleb128 0x13
 3239 0067 01       		.byte	0x1
 3240 0068 0B       		.uleb128 0xb
 3241 0069 0B       		.uleb128 0xb
 3242 006a 3A       		.uleb128 0x3a
 3243 006b 0B       		.uleb128 0xb
 3244 006c 3B       		.uleb128 0x3b
 3245 006d 0B       		.uleb128 0xb
 3246 006e 01       		.uleb128 0x1
 3247 006f 13       		.uleb128 0x13
 3248 0070 00       		.byte	0
 3249 0071 00       		.byte	0
 3250 0072 09       		.uleb128 0x9
 3251 0073 0F       		.uleb128 0xf
 3252 0074 00       		.byte	0
 3253 0075 0B       		.uleb128 0xb
 3254 0076 0B       		.uleb128 0xb
 3255 0077 49       		.uleb128 0x49
 3256 0078 13       		.uleb128 0x13
 3257 0079 00       		.byte	0
 3258 007a 00       		.byte	0
 3259 007b 0A       		.uleb128 0xa
 3260 007c 0F       		.uleb128 0xf
 3261 007d 00       		.byte	0
 3262 007e 0B       		.uleb128 0xb
 3263 007f 0B       		.uleb128 0xb
 3264 0080 00       		.byte	0
 3265 0081 00       		.byte	0
 3266 0082 0B       		.uleb128 0xb
 3267 0083 13       		.uleb128 0x13
 3268 0084 01       		.byte	0x1
 3269 0085 03       		.uleb128 0x3
 3270 0086 0E       		.uleb128 0xe
 3271 0087 0B       		.uleb128 0xb
 3272 0088 0B       		.uleb128 0xb
 3273 0089 3A       		.uleb128 0x3a
 3274 008a 0B       		.uleb128 0xb
 3275 008b 3B       		.uleb128 0x3b
 3276 008c 05       		.uleb128 0x5
 3277 008d 01       		.uleb128 0x1
 3278 008e 13       		.uleb128 0x13
 3279 008f 00       		.byte	0
 3280 0090 00       		.byte	0
 3281 0091 0C       		.uleb128 0xc
 3282 0092 0D       		.uleb128 0xd
 3283 0093 00       		.byte	0
 3284 0094 03       		.uleb128 0x3
 3285 0095 08       		.uleb128 0x8
 3286 0096 3A       		.uleb128 0x3a
 3287 0097 0B       		.uleb128 0xb
 3288 0098 3B       		.uleb128 0x3b
 3289 0099 05       		.uleb128 0x5
 3290 009a 49       		.uleb128 0x49
 3291 009b 13       		.uleb128 0x13
 3292 009c 38       		.uleb128 0x38
 3293 009d 0A       		.uleb128 0xa
ARM GAS  C:\Users\DNIEL~1\AppData\Local\Temp\ccfZfb0o.s 			page 59


 3294 009e 00       		.byte	0
 3295 009f 00       		.byte	0
 3296 00a0 0D       		.uleb128 0xd
 3297 00a1 35       		.uleb128 0x35
 3298 00a2 00       		.byte	0
 3299 00a3 49       		.uleb128 0x49
 3300 00a4 13       		.uleb128 0x13
 3301 00a5 00       		.byte	0
 3302 00a6 00       		.byte	0
 3303 00a7 0E       		.uleb128 0xe
 3304 00a8 17       		.uleb128 0x17
 3305 00a9 01       		.byte	0x1
 3306 00aa 0B       		.uleb128 0xb
 3307 00ab 0B       		.uleb128 0xb
 3308 00ac 3A       		.uleb128 0x3a
 3309 00ad 0B       		.uleb128 0xb
 3310 00ae 3B       		.uleb128 0x3b
 3311 00af 0B       		.uleb128 0xb
 3312 00b0 01       		.uleb128 0x1
 3313 00b1 13       		.uleb128 0x13
 3314 00b2 00       		.byte	0
 3315 00b3 00       		.byte	0
 3316 00b4 0F       		.uleb128 0xf
 3317 00b5 0D       		.uleb128 0xd
 3318 00b6 00       		.byte	0
 3319 00b7 03       		.uleb128 0x3
 3320 00b8 0E       		.uleb128 0xe
 3321 00b9 3A       		.uleb128 0x3a
 3322 00ba 0B       		.uleb128 0xb
 3323 00bb 3B       		.uleb128 0x3b
 3324 00bc 0B       		.uleb128 0xb
 3325 00bd 49       		.uleb128 0x49
 3326 00be 13       		.uleb128 0x13
 3327 00bf 00       		.byte	0
 3328 00c0 00       		.byte	0
 3329 00c1 10       		.uleb128 0x10
 3330 00c2 26       		.uleb128 0x26
 3331 00c3 00       		.byte	0
 3332 00c4 49       		.uleb128 0x49
 3333 00c5 13       		.uleb128 0x13
 3334 00c6 00       		.byte	0
 3335 00c7 00       		.byte	0
 3336 00c8 11       		.uleb128 0x11
 3337 00c9 13       		.uleb128 0x13
 3338 00ca 01       		.byte	0x1
 3339 00cb 0B       		.uleb128 0xb
 3340 00cc 0B       		.uleb128 0xb
 3341 00cd 3A       		.uleb128 0x3a
 3342 00ce 0B       		.uleb128 0xb
 3343 00cf 3B       		.uleb128 0x3b
 3344 00d0 05       		.uleb128 0x5
 3345 00d1 01       		.uleb128 0x1
 3346 00d2 13       		.uleb128 0x13
 3347 00d3 00       		.byte	0
 3348 00d4 00       		.byte	0
 3349 00d5 12       		.uleb128 0x12
 3350 00d6 0D       		.uleb128 0xd
ARM GAS  C:\Users\DNIEL~1\AppData\Local\Temp\ccfZfb0o.s 			page 60


 3351 00d7 00       		.byte	0
 3352 00d8 03       		.uleb128 0x3
 3353 00d9 0E       		.uleb128 0xe
 3354 00da 3A       		.uleb128 0x3a
 3355 00db 0B       		.uleb128 0xb
 3356 00dc 3B       		.uleb128 0x3b
 3357 00dd 05       		.uleb128 0x5
 3358 00de 49       		.uleb128 0x49
 3359 00df 13       		.uleb128 0x13
 3360 00e0 38       		.uleb128 0x38
 3361 00e1 0A       		.uleb128 0xa
 3362 00e2 00       		.byte	0
 3363 00e3 00       		.byte	0
 3364 00e4 13       		.uleb128 0x13
 3365 00e5 16       		.uleb128 0x16
 3366 00e6 00       		.byte	0
 3367 00e7 03       		.uleb128 0x3
 3368 00e8 0E       		.uleb128 0xe
 3369 00e9 3A       		.uleb128 0x3a
 3370 00ea 0B       		.uleb128 0xb
 3371 00eb 3B       		.uleb128 0x3b
 3372 00ec 05       		.uleb128 0x5
 3373 00ed 49       		.uleb128 0x49
 3374 00ee 13       		.uleb128 0x13
 3375 00ef 00       		.byte	0
 3376 00f0 00       		.byte	0
 3377 00f1 14       		.uleb128 0x14
 3378 00f2 0D       		.uleb128 0xd
 3379 00f3 00       		.byte	0
 3380 00f4 03       		.uleb128 0x3
 3381 00f5 08       		.uleb128 0x8
 3382 00f6 3A       		.uleb128 0x3a
 3383 00f7 0B       		.uleb128 0xb
 3384 00f8 3B       		.uleb128 0x3b
 3385 00f9 0B       		.uleb128 0xb
 3386 00fa 49       		.uleb128 0x49
 3387 00fb 13       		.uleb128 0x13
 3388 00fc 00       		.byte	0
 3389 00fd 00       		.byte	0
 3390 00fe 15       		.uleb128 0x15
 3391 00ff 04       		.uleb128 0x4
 3392 0100 01       		.byte	0x1
 3393 0101 0B       		.uleb128 0xb
 3394 0102 0B       		.uleb128 0xb
 3395 0103 3A       		.uleb128 0x3a
 3396 0104 0B       		.uleb128 0xb
 3397 0105 3B       		.uleb128 0x3b
 3398 0106 0B       		.uleb128 0xb
 3399 0107 01       		.uleb128 0x1
 3400 0108 13       		.uleb128 0x13
 3401 0109 00       		.byte	0
 3402 010a 00       		.byte	0
 3403 010b 16       		.uleb128 0x16
 3404 010c 28       		.uleb128 0x28
 3405 010d 00       		.byte	0
 3406 010e 03       		.uleb128 0x3
 3407 010f 0E       		.uleb128 0xe
ARM GAS  C:\Users\DNIEL~1\AppData\Local\Temp\ccfZfb0o.s 			page 61


 3408 0110 1C       		.uleb128 0x1c
 3409 0111 0D       		.uleb128 0xd
 3410 0112 00       		.byte	0
 3411 0113 00       		.byte	0
 3412 0114 17       		.uleb128 0x17
 3413 0115 15       		.uleb128 0x15
 3414 0116 01       		.byte	0x1
 3415 0117 27       		.uleb128 0x27
 3416 0118 0C       		.uleb128 0xc
 3417 0119 01       		.uleb128 0x1
 3418 011a 13       		.uleb128 0x13
 3419 011b 00       		.byte	0
 3420 011c 00       		.byte	0
 3421 011d 18       		.uleb128 0x18
 3422 011e 05       		.uleb128 0x5
 3423 011f 00       		.byte	0
 3424 0120 49       		.uleb128 0x49
 3425 0121 13       		.uleb128 0x13
 3426 0122 00       		.byte	0
 3427 0123 00       		.byte	0
 3428 0124 19       		.uleb128 0x19
 3429 0125 2E       		.uleb128 0x2e
 3430 0126 01       		.byte	0x1
 3431 0127 3F       		.uleb128 0x3f
 3432 0128 0C       		.uleb128 0xc
 3433 0129 03       		.uleb128 0x3
 3434 012a 0E       		.uleb128 0xe
 3435 012b 3A       		.uleb128 0x3a
 3436 012c 0B       		.uleb128 0xb
 3437 012d 3B       		.uleb128 0x3b
 3438 012e 0B       		.uleb128 0xb
 3439 012f 27       		.uleb128 0x27
 3440 0130 0C       		.uleb128 0xc
 3441 0131 11       		.uleb128 0x11
 3442 0132 01       		.uleb128 0x1
 3443 0133 12       		.uleb128 0x12
 3444 0134 01       		.uleb128 0x1
 3445 0135 40       		.uleb128 0x40
 3446 0136 0A       		.uleb128 0xa
 3447 0137 9742     		.uleb128 0x2117
 3448 0139 0C       		.uleb128 0xc
 3449 013a 01       		.uleb128 0x1
 3450 013b 13       		.uleb128 0x13
 3451 013c 00       		.byte	0
 3452 013d 00       		.byte	0
 3453 013e 1A       		.uleb128 0x1a
 3454 013f 898201   		.uleb128 0x4109
 3455 0142 00       		.byte	0
 3456 0143 11       		.uleb128 0x11
 3457 0144 01       		.uleb128 0x1
 3458 0145 9542     		.uleb128 0x2115
 3459 0147 0C       		.uleb128 0xc
 3460 0148 31       		.uleb128 0x31
 3461 0149 13       		.uleb128 0x13
 3462 014a 00       		.byte	0
 3463 014b 00       		.byte	0
 3464 014c 1B       		.uleb128 0x1b
ARM GAS  C:\Users\DNIEL~1\AppData\Local\Temp\ccfZfb0o.s 			page 62


 3465 014d 05       		.uleb128 0x5
 3466 014e 00       		.byte	0
 3467 014f 03       		.uleb128 0x3
 3468 0150 0E       		.uleb128 0xe
 3469 0151 3A       		.uleb128 0x3a
 3470 0152 0B       		.uleb128 0xb
 3471 0153 3B       		.uleb128 0x3b
 3472 0154 0B       		.uleb128 0xb
 3473 0155 49       		.uleb128 0x49
 3474 0156 13       		.uleb128 0x13
 3475 0157 02       		.uleb128 0x2
 3476 0158 06       		.uleb128 0x6
 3477 0159 00       		.byte	0
 3478 015a 00       		.byte	0
 3479 015b 1C       		.uleb128 0x1c
 3480 015c 898201   		.uleb128 0x4109
 3481 015f 01       		.byte	0x1
 3482 0160 11       		.uleb128 0x11
 3483 0161 01       		.uleb128 0x1
 3484 0162 9542     		.uleb128 0x2115
 3485 0164 0C       		.uleb128 0xc
 3486 0165 31       		.uleb128 0x31
 3487 0166 13       		.uleb128 0x13
 3488 0167 00       		.byte	0
 3489 0168 00       		.byte	0
 3490 0169 1D       		.uleb128 0x1d
 3491 016a 8A8201   		.uleb128 0x410a
 3492 016d 00       		.byte	0
 3493 016e 02       		.uleb128 0x2
 3494 016f 0A       		.uleb128 0xa
 3495 0170 9142     		.uleb128 0x2111
 3496 0172 0A       		.uleb128 0xa
 3497 0173 00       		.byte	0
 3498 0174 00       		.byte	0
 3499 0175 1E       		.uleb128 0x1e
 3500 0176 2E       		.uleb128 0x2e
 3501 0177 01       		.byte	0x1
 3502 0178 3F       		.uleb128 0x3f
 3503 0179 0C       		.uleb128 0xc
 3504 017a 03       		.uleb128 0x3
 3505 017b 0E       		.uleb128 0xe
 3506 017c 3A       		.uleb128 0x3a
 3507 017d 0B       		.uleb128 0xb
 3508 017e 3B       		.uleb128 0x3b
 3509 017f 0B       		.uleb128 0xb
 3510 0180 27       		.uleb128 0x27
 3511 0181 0C       		.uleb128 0xc
 3512 0182 11       		.uleb128 0x11
 3513 0183 01       		.uleb128 0x1
 3514 0184 12       		.uleb128 0x12
 3515 0185 01       		.uleb128 0x1
 3516 0186 40       		.uleb128 0x40
 3517 0187 06       		.uleb128 0x6
 3518 0188 9742     		.uleb128 0x2117
 3519 018a 0C       		.uleb128 0xc
 3520 018b 01       		.uleb128 0x1
 3521 018c 13       		.uleb128 0x13
ARM GAS  C:\Users\DNIEL~1\AppData\Local\Temp\ccfZfb0o.s 			page 63


 3522 018d 00       		.byte	0
 3523 018e 00       		.byte	0
 3524 018f 1F       		.uleb128 0x1f
 3525 0190 0B       		.uleb128 0xb
 3526 0191 01       		.byte	0x1
 3527 0192 55       		.uleb128 0x55
 3528 0193 06       		.uleb128 0x6
 3529 0194 01       		.uleb128 0x1
 3530 0195 13       		.uleb128 0x13
 3531 0196 00       		.byte	0
 3532 0197 00       		.byte	0
 3533 0198 20       		.uleb128 0x20
 3534 0199 34       		.uleb128 0x34
 3535 019a 00       		.byte	0
 3536 019b 03       		.uleb128 0x3
 3537 019c 08       		.uleb128 0x8
 3538 019d 3A       		.uleb128 0x3a
 3539 019e 0B       		.uleb128 0xb
 3540 019f 3B       		.uleb128 0x3b
 3541 01a0 0B       		.uleb128 0xb
 3542 01a1 49       		.uleb128 0x49
 3543 01a2 13       		.uleb128 0x13
 3544 01a3 02       		.uleb128 0x2
 3545 01a4 06       		.uleb128 0x6
 3546 01a5 00       		.byte	0
 3547 01a6 00       		.byte	0
 3548 01a7 21       		.uleb128 0x21
 3549 01a8 0B       		.uleb128 0xb
 3550 01a9 01       		.byte	0x1
 3551 01aa 11       		.uleb128 0x11
 3552 01ab 01       		.uleb128 0x1
 3553 01ac 12       		.uleb128 0x12
 3554 01ad 01       		.uleb128 0x1
 3555 01ae 01       		.uleb128 0x1
 3556 01af 13       		.uleb128 0x13
 3557 01b0 00       		.byte	0
 3558 01b1 00       		.byte	0
 3559 01b2 22       		.uleb128 0x22
 3560 01b3 898201   		.uleb128 0x4109
 3561 01b6 01       		.byte	0x1
 3562 01b7 11       		.uleb128 0x11
 3563 01b8 01       		.uleb128 0x1
 3564 01b9 31       		.uleb128 0x31
 3565 01ba 13       		.uleb128 0x13
 3566 01bb 00       		.byte	0
 3567 01bc 00       		.byte	0
 3568 01bd 23       		.uleb128 0x23
 3569 01be 898201   		.uleb128 0x4109
 3570 01c1 01       		.byte	0x1
 3571 01c2 11       		.uleb128 0x11
 3572 01c3 01       		.uleb128 0x1
 3573 01c4 31       		.uleb128 0x31
 3574 01c5 13       		.uleb128 0x13
 3575 01c6 01       		.uleb128 0x1
 3576 01c7 13       		.uleb128 0x13
 3577 01c8 00       		.byte	0
 3578 01c9 00       		.byte	0
ARM GAS  C:\Users\DNIEL~1\AppData\Local\Temp\ccfZfb0o.s 			page 64


 3579 01ca 24       		.uleb128 0x24
 3580 01cb 05       		.uleb128 0x5
 3581 01cc 00       		.byte	0
 3582 01cd 03       		.uleb128 0x3
 3583 01ce 08       		.uleb128 0x8
 3584 01cf 3A       		.uleb128 0x3a
 3585 01d0 0B       		.uleb128 0xb
 3586 01d1 3B       		.uleb128 0x3b
 3587 01d2 0B       		.uleb128 0xb
 3588 01d3 49       		.uleb128 0x49
 3589 01d4 13       		.uleb128 0x13
 3590 01d5 02       		.uleb128 0x2
 3591 01d6 06       		.uleb128 0x6
 3592 01d7 00       		.byte	0
 3593 01d8 00       		.byte	0
 3594 01d9 25       		.uleb128 0x25
 3595 01da 26       		.uleb128 0x26
 3596 01db 00       		.byte	0
 3597 01dc 00       		.byte	0
 3598 01dd 00       		.byte	0
 3599 01de 26       		.uleb128 0x26
 3600 01df 2E       		.uleb128 0x2e
 3601 01e0 01       		.byte	0x1
 3602 01e1 3F       		.uleb128 0x3f
 3603 01e2 0C       		.uleb128 0xc
 3604 01e3 03       		.uleb128 0x3
 3605 01e4 0E       		.uleb128 0xe
 3606 01e5 3A       		.uleb128 0x3a
 3607 01e6 0B       		.uleb128 0xb
 3608 01e7 3B       		.uleb128 0x3b
 3609 01e8 05       		.uleb128 0x5
 3610 01e9 27       		.uleb128 0x27
 3611 01ea 0C       		.uleb128 0xc
 3612 01eb 11       		.uleb128 0x11
 3613 01ec 01       		.uleb128 0x1
 3614 01ed 12       		.uleb128 0x12
 3615 01ee 01       		.uleb128 0x1
 3616 01ef 40       		.uleb128 0x40
 3617 01f0 06       		.uleb128 0x6
 3618 01f1 9742     		.uleb128 0x2117
 3619 01f3 0C       		.uleb128 0xc
 3620 01f4 01       		.uleb128 0x1
 3621 01f5 13       		.uleb128 0x13
 3622 01f6 00       		.byte	0
 3623 01f7 00       		.byte	0
 3624 01f8 27       		.uleb128 0x27
 3625 01f9 05       		.uleb128 0x5
 3626 01fa 00       		.byte	0
 3627 01fb 03       		.uleb128 0x3
 3628 01fc 0E       		.uleb128 0xe
 3629 01fd 3A       		.uleb128 0x3a
 3630 01fe 0B       		.uleb128 0xb
 3631 01ff 3B       		.uleb128 0x3b
 3632 0200 05       		.uleb128 0x5
 3633 0201 49       		.uleb128 0x49
 3634 0202 13       		.uleb128 0x13
 3635 0203 02       		.uleb128 0x2
ARM GAS  C:\Users\DNIEL~1\AppData\Local\Temp\ccfZfb0o.s 			page 65


 3636 0204 06       		.uleb128 0x6
 3637 0205 00       		.byte	0
 3638 0206 00       		.byte	0
 3639 0207 28       		.uleb128 0x28
 3640 0208 05       		.uleb128 0x5
 3641 0209 00       		.byte	0
 3642 020a 03       		.uleb128 0x3
 3643 020b 08       		.uleb128 0x8
 3644 020c 3A       		.uleb128 0x3a
 3645 020d 0B       		.uleb128 0xb
 3646 020e 3B       		.uleb128 0x3b
 3647 020f 05       		.uleb128 0x5
 3648 0210 49       		.uleb128 0x49
 3649 0211 13       		.uleb128 0x13
 3650 0212 02       		.uleb128 0x2
 3651 0213 06       		.uleb128 0x6
 3652 0214 00       		.byte	0
 3653 0215 00       		.byte	0
 3654 0216 29       		.uleb128 0x29
 3655 0217 34       		.uleb128 0x34
 3656 0218 00       		.byte	0
 3657 0219 03       		.uleb128 0x3
 3658 021a 08       		.uleb128 0x8
 3659 021b 3A       		.uleb128 0x3a
 3660 021c 0B       		.uleb128 0xb
 3661 021d 3B       		.uleb128 0x3b
 3662 021e 05       		.uleb128 0x5
 3663 021f 49       		.uleb128 0x49
 3664 0220 13       		.uleb128 0x13
 3665 0221 02       		.uleb128 0x2
 3666 0222 06       		.uleb128 0x6
 3667 0223 00       		.byte	0
 3668 0224 00       		.byte	0
 3669 0225 2A       		.uleb128 0x2a
 3670 0226 2E       		.uleb128 0x2e
 3671 0227 01       		.byte	0x1
 3672 0228 3F       		.uleb128 0x3f
 3673 0229 0C       		.uleb128 0xc
 3674 022a 03       		.uleb128 0x3
 3675 022b 0E       		.uleb128 0xe
 3676 022c 3A       		.uleb128 0x3a
 3677 022d 0B       		.uleb128 0xb
 3678 022e 3B       		.uleb128 0x3b
 3679 022f 05       		.uleb128 0x5
 3680 0230 27       		.uleb128 0x27
 3681 0231 0C       		.uleb128 0xc
 3682 0232 11       		.uleb128 0x11
 3683 0233 01       		.uleb128 0x1
 3684 0234 12       		.uleb128 0x12
 3685 0235 01       		.uleb128 0x1
 3686 0236 40       		.uleb128 0x40
 3687 0237 0A       		.uleb128 0xa
 3688 0238 9742     		.uleb128 0x2117
 3689 023a 0C       		.uleb128 0xc
 3690 023b 01       		.uleb128 0x1
 3691 023c 13       		.uleb128 0x13
 3692 023d 00       		.byte	0
ARM GAS  C:\Users\DNIEL~1\AppData\Local\Temp\ccfZfb0o.s 			page 66


 3693 023e 00       		.byte	0
 3694 023f 2B       		.uleb128 0x2b
 3695 0240 34       		.uleb128 0x34
 3696 0241 00       		.byte	0
 3697 0242 03       		.uleb128 0x3
 3698 0243 0E       		.uleb128 0xe
 3699 0244 3A       		.uleb128 0x3a
 3700 0245 0B       		.uleb128 0xb
 3701 0246 3B       		.uleb128 0x3b
 3702 0247 0B       		.uleb128 0xb
 3703 0248 49       		.uleb128 0x49
 3704 0249 13       		.uleb128 0x13
 3705 024a 3F       		.uleb128 0x3f
 3706 024b 0C       		.uleb128 0xc
 3707 024c 3C       		.uleb128 0x3c
 3708 024d 0C       		.uleb128 0xc
 3709 024e 00       		.byte	0
 3710 024f 00       		.byte	0
 3711 0250 2C       		.uleb128 0x2c
 3712 0251 34       		.uleb128 0x34
 3713 0252 00       		.byte	0
 3714 0253 03       		.uleb128 0x3
 3715 0254 0E       		.uleb128 0xe
 3716 0255 3A       		.uleb128 0x3a
 3717 0256 0B       		.uleb128 0xb
 3718 0257 3B       		.uleb128 0x3b
 3719 0258 05       		.uleb128 0x5
 3720 0259 49       		.uleb128 0x49
 3721 025a 13       		.uleb128 0x13
 3722 025b 3F       		.uleb128 0x3f
 3723 025c 0C       		.uleb128 0xc
 3724 025d 3C       		.uleb128 0x3c
 3725 025e 0C       		.uleb128 0xc
 3726 025f 00       		.byte	0
 3727 0260 00       		.byte	0
 3728 0261 2D       		.uleb128 0x2d
 3729 0262 2E       		.uleb128 0x2e
 3730 0263 00       		.byte	0
 3731 0264 3F       		.uleb128 0x3f
 3732 0265 0C       		.uleb128 0xc
 3733 0266 03       		.uleb128 0x3
 3734 0267 0E       		.uleb128 0xe
 3735 0268 3A       		.uleb128 0x3a
 3736 0269 0B       		.uleb128 0xb
 3737 026a 3B       		.uleb128 0x3b
 3738 026b 05       		.uleb128 0x5
 3739 026c 27       		.uleb128 0x27
 3740 026d 0C       		.uleb128 0xc
 3741 026e 3C       		.uleb128 0x3c
 3742 026f 0C       		.uleb128 0xc
 3743 0270 00       		.byte	0
 3744 0271 00       		.byte	0
 3745 0272 2E       		.uleb128 0x2e
 3746 0273 2E       		.uleb128 0x2e
 3747 0274 01       		.byte	0x1
 3748 0275 3F       		.uleb128 0x3f
 3749 0276 0C       		.uleb128 0xc
ARM GAS  C:\Users\DNIEL~1\AppData\Local\Temp\ccfZfb0o.s 			page 67


 3750 0277 03       		.uleb128 0x3
 3751 0278 0E       		.uleb128 0xe
 3752 0279 3A       		.uleb128 0x3a
 3753 027a 0B       		.uleb128 0xb
 3754 027b 3B       		.uleb128 0x3b
 3755 027c 0B       		.uleb128 0xb
 3756 027d 27       		.uleb128 0x27
 3757 027e 0C       		.uleb128 0xc
 3758 027f 3C       		.uleb128 0x3c
 3759 0280 0C       		.uleb128 0xc
 3760 0281 01       		.uleb128 0x1
 3761 0282 13       		.uleb128 0x13
 3762 0283 00       		.byte	0
 3763 0284 00       		.byte	0
 3764 0285 2F       		.uleb128 0x2f
 3765 0286 2E       		.uleb128 0x2e
 3766 0287 01       		.byte	0x1
 3767 0288 3F       		.uleb128 0x3f
 3768 0289 0C       		.uleb128 0xc
 3769 028a 03       		.uleb128 0x3
 3770 028b 0E       		.uleb128 0xe
 3771 028c 3A       		.uleb128 0x3a
 3772 028d 0B       		.uleb128 0xb
 3773 028e 3B       		.uleb128 0x3b
 3774 028f 05       		.uleb128 0x5
 3775 0290 27       		.uleb128 0x27
 3776 0291 0C       		.uleb128 0xc
 3777 0292 3C       		.uleb128 0x3c
 3778 0293 0C       		.uleb128 0xc
 3779 0294 01       		.uleb128 0x1
 3780 0295 13       		.uleb128 0x13
 3781 0296 00       		.byte	0
 3782 0297 00       		.byte	0
 3783 0298 30       		.uleb128 0x30
 3784 0299 2E       		.uleb128 0x2e
 3785 029a 00       		.byte	0
 3786 029b 3F       		.uleb128 0x3f
 3787 029c 0C       		.uleb128 0xc
 3788 029d 03       		.uleb128 0x3
 3789 029e 0E       		.uleb128 0xe
 3790 029f 3A       		.uleb128 0x3a
 3791 02a0 0B       		.uleb128 0xb
 3792 02a1 3B       		.uleb128 0x3b
 3793 02a2 0B       		.uleb128 0xb
 3794 02a3 27       		.uleb128 0x27
 3795 02a4 0C       		.uleb128 0xc
 3796 02a5 49       		.uleb128 0x49
 3797 02a6 13       		.uleb128 0x13
 3798 02a7 3C       		.uleb128 0x3c
 3799 02a8 0C       		.uleb128 0xc
 3800 02a9 00       		.byte	0
 3801 02aa 00       		.byte	0
 3802 02ab 00       		.byte	0
 3803              		.section	.debug_loc,"",%progbits
 3804              	.Ldebug_loc0:
 3805              	.LLST0:
 3806 0000 00000000 		.4byte	.LVL1
ARM GAS  C:\Users\DNIEL~1\AppData\Local\Temp\ccfZfb0o.s 			page 68


 3807 0004 0C000000 		.4byte	.LVL2
 3808 0008 0100     		.2byte	0x1
 3809 000a 50       		.byte	0x50
 3810 000b 0C000000 		.4byte	.LVL2
 3811 000f 0F000000 		.4byte	.LVL3-1
 3812 0013 0300     		.2byte	0x3
 3813 0015 70       		.byte	0x70
 3814 0016 74       		.sleb128 -12
 3815 0017 9F       		.byte	0x9f
 3816 0018 0F000000 		.4byte	.LVL3-1
 3817 001c 10000000 		.4byte	.LFE119
 3818 0020 0400     		.2byte	0x4
 3819 0022 F3       		.byte	0xf3
 3820 0023 01       		.uleb128 0x1
 3821 0024 50       		.byte	0x50
 3822 0025 9F       		.byte	0x9f
 3823 0026 00000000 		.4byte	0
 3824 002a 00000000 		.4byte	0
 3825              	.LLST1:
 3826 002e 00000000 		.4byte	.LFB120
 3827 0032 02000000 		.4byte	.LCFI0
 3828 0036 0200     		.2byte	0x2
 3829 0038 7D       		.byte	0x7d
 3830 0039 00       		.sleb128 0
 3831 003a 02000000 		.4byte	.LCFI0
 3832 003e 1C000000 		.4byte	.LFE120
 3833 0042 0200     		.2byte	0x2
 3834 0044 7D       		.byte	0x7d
 3835 0045 08       		.sleb128 8
 3836 0046 00000000 		.4byte	0
 3837 004a 00000000 		.4byte	0
 3838              	.LLST2:
 3839 004e 00000000 		.4byte	.LVL4
 3840 0052 0F000000 		.4byte	.LVL7-1
 3841 0056 0100     		.2byte	0x1
 3842 0058 50       		.byte	0x50
 3843 0059 0F000000 		.4byte	.LVL7-1
 3844 005d 1C000000 		.4byte	.LFE120
 3845 0061 0100     		.2byte	0x1
 3846 0063 54       		.byte	0x54
 3847 0064 00000000 		.4byte	0
 3848 0068 00000000 		.4byte	0
 3849              	.LLST3:
 3850 006c 00000000 		.4byte	.LVL4
 3851 0070 0F000000 		.4byte	.LVL7-1
 3852 0074 0100     		.2byte	0x1
 3853 0076 51       		.byte	0x51
 3854 0077 0F000000 		.4byte	.LVL7-1
 3855 007b 1C000000 		.4byte	.LFE120
 3856 007f 0400     		.2byte	0x4
 3857 0081 F3       		.byte	0xf3
 3858 0082 01       		.uleb128 0x1
 3859 0083 51       		.byte	0x51
 3860 0084 9F       		.byte	0x9f
 3861 0085 00000000 		.4byte	0
 3862 0089 00000000 		.4byte	0
 3863              	.LLST4:
ARM GAS  C:\Users\DNIEL~1\AppData\Local\Temp\ccfZfb0o.s 			page 69


 3864 008d 0A000000 		.4byte	.LVL6
 3865 0091 0F000000 		.4byte	.LVL7-1
 3866 0095 0100     		.2byte	0x1
 3867 0097 53       		.byte	0x53
 3868 0098 00000000 		.4byte	0
 3869 009c 00000000 		.4byte	0
 3870              	.LLST5:
 3871 00a0 1A000000 		.4byte	.LVL9
 3872 00a4 1C000000 		.4byte	.LFE120
 3873 00a8 0100     		.2byte	0x1
 3874 00aa 53       		.byte	0x53
 3875 00ab 00000000 		.4byte	0
 3876 00af 00000000 		.4byte	0
 3877              	.LLST6:
 3878 00b3 00000000 		.4byte	.LFB121
 3879 00b7 02000000 		.4byte	.LCFI1
 3880 00bb 0200     		.2byte	0x2
 3881 00bd 7D       		.byte	0x7d
 3882 00be 00       		.sleb128 0
 3883 00bf 02000000 		.4byte	.LCFI1
 3884 00c3 20000000 		.4byte	.LFE121
 3885 00c7 0200     		.2byte	0x2
 3886 00c9 7D       		.byte	0x7d
 3887 00ca 08       		.sleb128 8
 3888 00cb 00000000 		.4byte	0
 3889 00cf 00000000 		.4byte	0
 3890              	.LLST7:
 3891 00d3 00000000 		.4byte	.LVL10
 3892 00d7 0D000000 		.4byte	.LVL13-1
 3893 00db 0100     		.2byte	0x1
 3894 00dd 50       		.byte	0x50
 3895 00de 0D000000 		.4byte	.LVL13-1
 3896 00e2 20000000 		.4byte	.LFE121
 3897 00e6 0100     		.2byte	0x1
 3898 00e8 54       		.byte	0x54
 3899 00e9 00000000 		.4byte	0
 3900 00ed 00000000 		.4byte	0
 3901              	.LLST8:
 3902 00f1 0A000000 		.4byte	.LVL12
 3903 00f5 0D000000 		.4byte	.LVL13-1
 3904 00f9 0100     		.2byte	0x1
 3905 00fb 53       		.byte	0x53
 3906 00fc 00000000 		.4byte	0
 3907 0100 00000000 		.4byte	0
 3908              	.LLST9:
 3909 0104 1E000000 		.4byte	.LVL16
 3910 0108 20000000 		.4byte	.LFE121
 3911 010c 0100     		.2byte	0x1
 3912 010e 53       		.byte	0x53
 3913 010f 00000000 		.4byte	0
 3914 0113 00000000 		.4byte	0
 3915              	.LLST10:
 3916 0117 00000000 		.4byte	.LFB122
 3917 011b 02000000 		.4byte	.LCFI2
 3918 011f 0200     		.2byte	0x2
 3919 0121 7D       		.byte	0x7d
 3920 0122 00       		.sleb128 0
ARM GAS  C:\Users\DNIEL~1\AppData\Local\Temp\ccfZfb0o.s 			page 70


 3921 0123 02000000 		.4byte	.LCFI2
 3922 0127 14000000 		.4byte	.LFE122
 3923 012b 0200     		.2byte	0x2
 3924 012d 7D       		.byte	0x7d
 3925 012e 08       		.sleb128 8
 3926 012f 00000000 		.4byte	0
 3927 0133 00000000 		.4byte	0
 3928              	.LLST11:
 3929 0137 00000000 		.4byte	.LVL17
 3930 013b 0B000000 		.4byte	.LVL20-1
 3931 013f 0100     		.2byte	0x1
 3932 0141 50       		.byte	0x50
 3933 0142 0B000000 		.4byte	.LVL20-1
 3934 0146 14000000 		.4byte	.LFE122
 3935 014a 0400     		.2byte	0x4
 3936 014c F3       		.byte	0xf3
 3937 014d 01       		.uleb128 0x1
 3938 014e 50       		.byte	0x50
 3939 014f 9F       		.byte	0x9f
 3940 0150 00000000 		.4byte	0
 3941 0154 00000000 		.4byte	0
 3942              	.LLST12:
 3943 0158 08000000 		.4byte	.LVL19
 3944 015c 0B000000 		.4byte	.LVL20-1
 3945 0160 0100     		.2byte	0x1
 3946 0162 53       		.byte	0x53
 3947 0163 00000000 		.4byte	0
 3948 0167 00000000 		.4byte	0
 3949              	.LLST13:
 3950 016b 12000000 		.4byte	.LVL22
 3951 016f 14000000 		.4byte	.LFE122
 3952 0173 0100     		.2byte	0x1
 3953 0175 53       		.byte	0x53
 3954 0176 00000000 		.4byte	0
 3955 017a 00000000 		.4byte	0
 3956              	.LLST14:
 3957 017e 00000000 		.4byte	.LFB123
 3958 0182 02000000 		.4byte	.LCFI3
 3959 0186 0200     		.2byte	0x2
 3960 0188 7D       		.byte	0x7d
 3961 0189 00       		.sleb128 0
 3962 018a 02000000 		.4byte	.LCFI3
 3963 018e 14000000 		.4byte	.LFE123
 3964 0192 0200     		.2byte	0x2
 3965 0194 7D       		.byte	0x7d
 3966 0195 08       		.sleb128 8
 3967 0196 00000000 		.4byte	0
 3968 019a 00000000 		.4byte	0
 3969              	.LLST15:
 3970 019e 00000000 		.4byte	.LVL23
 3971 01a2 0B000000 		.4byte	.LVL26-1
 3972 01a6 0100     		.2byte	0x1
 3973 01a8 50       		.byte	0x50
 3974 01a9 0B000000 		.4byte	.LVL26-1
 3975 01ad 14000000 		.4byte	.LFE123
 3976 01b1 0400     		.2byte	0x4
 3977 01b3 F3       		.byte	0xf3
ARM GAS  C:\Users\DNIEL~1\AppData\Local\Temp\ccfZfb0o.s 			page 71


 3978 01b4 01       		.uleb128 0x1
 3979 01b5 50       		.byte	0x50
 3980 01b6 9F       		.byte	0x9f
 3981 01b7 00000000 		.4byte	0
 3982 01bb 00000000 		.4byte	0
 3983              	.LLST16:
 3984 01bf 08000000 		.4byte	.LVL25
 3985 01c3 0B000000 		.4byte	.LVL26-1
 3986 01c7 0100     		.2byte	0x1
 3987 01c9 53       		.byte	0x53
 3988 01ca 00000000 		.4byte	0
 3989 01ce 00000000 		.4byte	0
 3990              	.LLST17:
 3991 01d2 12000000 		.4byte	.LVL28
 3992 01d6 14000000 		.4byte	.LFE123
 3993 01da 0100     		.2byte	0x1
 3994 01dc 53       		.byte	0x53
 3995 01dd 00000000 		.4byte	0
 3996 01e1 00000000 		.4byte	0
 3997              	.LLST18:
 3998 01e5 00000000 		.4byte	.LFB124
 3999 01e9 02000000 		.4byte	.LCFI4
 4000 01ed 0200     		.2byte	0x2
 4001 01ef 7D       		.byte	0x7d
 4002 01f0 00       		.sleb128 0
 4003 01f1 02000000 		.4byte	.LCFI4
 4004 01f5 18000000 		.4byte	.LFE124
 4005 01f9 0200     		.2byte	0x2
 4006 01fb 7D       		.byte	0x7d
 4007 01fc 08       		.sleb128 8
 4008 01fd 00000000 		.4byte	0
 4009 0201 00000000 		.4byte	0
 4010              	.LLST19:
 4011 0205 00000000 		.4byte	.LVL29
 4012 0209 0F000000 		.4byte	.LVL33-1
 4013 020d 0100     		.2byte	0x1
 4014 020f 50       		.byte	0x50
 4015 0210 0F000000 		.4byte	.LVL33-1
 4016 0214 18000000 		.4byte	.LFE124
 4017 0218 0400     		.2byte	0x4
 4018 021a F3       		.byte	0xf3
 4019 021b 01       		.uleb128 0x1
 4020 021c 50       		.byte	0x50
 4021 021d 9F       		.byte	0x9f
 4022 021e 00000000 		.4byte	0
 4023 0222 00000000 		.4byte	0
 4024              	.LLST20:
 4025 0226 00000000 		.4byte	.LVL29
 4026 022a 0F000000 		.4byte	.LVL33-1
 4027 022e 0100     		.2byte	0x1
 4028 0230 51       		.byte	0x51
 4029 0231 0F000000 		.4byte	.LVL33-1
 4030 0235 18000000 		.4byte	.LFE124
 4031 0239 0400     		.2byte	0x4
 4032 023b F3       		.byte	0xf3
 4033 023c 01       		.uleb128 0x1
 4034 023d 51       		.byte	0x51
ARM GAS  C:\Users\DNIEL~1\AppData\Local\Temp\ccfZfb0o.s 			page 72


 4035 023e 9F       		.byte	0x9f
 4036 023f 00000000 		.4byte	0
 4037 0243 00000000 		.4byte	0
 4038              	.LLST21:
 4039 0247 08000000 		.4byte	.LVL31
 4040 024b 0A000000 		.4byte	.LVL32
 4041 024f 0100     		.2byte	0x1
 4042 0251 53       		.byte	0x53
 4043 0252 00000000 		.4byte	0
 4044 0256 00000000 		.4byte	0
 4045              	.LLST22:
 4046 025a 16000000 		.4byte	.LVL35
 4047 025e 18000000 		.4byte	.LFE124
 4048 0262 0100     		.2byte	0x1
 4049 0264 53       		.byte	0x53
 4050 0265 00000000 		.4byte	0
 4051 0269 00000000 		.4byte	0
 4052              	.LLST23:
 4053 026d 00000000 		.4byte	.LFB125
 4054 0271 02000000 		.4byte	.LCFI5
 4055 0275 0200     		.2byte	0x2
 4056 0277 7D       		.byte	0x7d
 4057 0278 00       		.sleb128 0
 4058 0279 02000000 		.4byte	.LCFI5
 4059 027d 1E000000 		.4byte	.LFE125
 4060 0281 0200     		.2byte	0x2
 4061 0283 7D       		.byte	0x7d
 4062 0284 10       		.sleb128 16
 4063 0285 00000000 		.4byte	0
 4064 0289 00000000 		.4byte	0
 4065              	.LLST24:
 4066 028d 00000000 		.4byte	.LVL36
 4067 0291 15000000 		.4byte	.LVL41-1
 4068 0295 0100     		.2byte	0x1
 4069 0297 50       		.byte	0x50
 4070 0298 15000000 		.4byte	.LVL41-1
 4071 029c 1E000000 		.4byte	.LFE125
 4072 02a0 0100     		.2byte	0x1
 4073 02a2 54       		.byte	0x54
 4074 02a3 00000000 		.4byte	0
 4075 02a7 00000000 		.4byte	0
 4076              	.LLST25:
 4077 02ab 00000000 		.4byte	.LVL36
 4078 02af 15000000 		.4byte	.LVL41-1
 4079 02b3 0100     		.2byte	0x1
 4080 02b5 51       		.byte	0x51
 4081 02b6 15000000 		.4byte	.LVL41-1
 4082 02ba 1E000000 		.4byte	.LFE125
 4083 02be 0400     		.2byte	0x4
 4084 02c0 F3       		.byte	0xf3
 4085 02c1 01       		.uleb128 0x1
 4086 02c2 51       		.byte	0x51
 4087 02c3 9F       		.byte	0x9f
 4088 02c4 00000000 		.4byte	0
 4089 02c8 00000000 		.4byte	0
 4090              	.LLST26:
 4091 02cc 00000000 		.4byte	.LVL36
ARM GAS  C:\Users\DNIEL~1\AppData\Local\Temp\ccfZfb0o.s 			page 73


 4092 02d0 15000000 		.4byte	.LVL41-1
 4093 02d4 0100     		.2byte	0x1
 4094 02d6 52       		.byte	0x52
 4095 02d7 15000000 		.4byte	.LVL41-1
 4096 02db 1E000000 		.4byte	.LFE125
 4097 02df 0400     		.2byte	0x4
 4098 02e1 F3       		.byte	0xf3
 4099 02e2 01       		.uleb128 0x1
 4100 02e3 52       		.byte	0x52
 4101 02e4 9F       		.byte	0x9f
 4102 02e5 00000000 		.4byte	0
 4103 02e9 00000000 		.4byte	0
 4104              	.LLST27:
 4105 02ed 00000000 		.4byte	.LVL36
 4106 02f1 08000000 		.4byte	.LVL37
 4107 02f5 0100     		.2byte	0x1
 4108 02f7 53       		.byte	0x53
 4109 02f8 08000000 		.4byte	.LVL37
 4110 02fc 10000000 		.4byte	.LVL40
 4111 0300 0100     		.2byte	0x1
 4112 0302 55       		.byte	0x55
 4113 0303 10000000 		.4byte	.LVL40
 4114 0307 15000000 		.4byte	.LVL41-1
 4115 030b 0100     		.2byte	0x1
 4116 030d 53       		.byte	0x53
 4117 030e 15000000 		.4byte	.LVL41-1
 4118 0312 1E000000 		.4byte	.LFE125
 4119 0316 0400     		.2byte	0x4
 4120 0318 F3       		.byte	0xf3
 4121 0319 01       		.uleb128 0x1
 4122 031a 53       		.byte	0x53
 4123 031b 9F       		.byte	0x9f
 4124 031c 00000000 		.4byte	0
 4125 0320 00000000 		.4byte	0
 4126              	.LLST28:
 4127 0324 0C000000 		.4byte	.LVL38
 4128 0328 0E000000 		.4byte	.LVL39
 4129 032c 0100     		.2byte	0x1
 4130 032e 53       		.byte	0x53
 4131 032f 00000000 		.4byte	0
 4132 0333 00000000 		.4byte	0
 4133              	.LLST29:
 4134 0337 1C000000 		.4byte	.LVL43
 4135 033b 1E000000 		.4byte	.LFE125
 4136 033f 0100     		.2byte	0x1
 4137 0341 53       		.byte	0x53
 4138 0342 00000000 		.4byte	0
 4139 0346 00000000 		.4byte	0
 4140              	.LLST30:
 4141 034a 00000000 		.4byte	.LFB126
 4142 034e 02000000 		.4byte	.LCFI6
 4143 0352 0200     		.2byte	0x2
 4144 0354 7D       		.byte	0x7d
 4145 0355 00       		.sleb128 0
 4146 0356 02000000 		.4byte	.LCFI6
 4147 035a 1A000000 		.4byte	.LFE126
 4148 035e 0200     		.2byte	0x2
ARM GAS  C:\Users\DNIEL~1\AppData\Local\Temp\ccfZfb0o.s 			page 74


 4149 0360 7D       		.byte	0x7d
 4150 0361 08       		.sleb128 8
 4151 0362 00000000 		.4byte	0
 4152 0366 00000000 		.4byte	0
 4153              	.LLST31:
 4154 036a 00000000 		.4byte	.LVL44
 4155 036e 11000000 		.4byte	.LVL48-1
 4156 0372 0100     		.2byte	0x1
 4157 0374 50       		.byte	0x50
 4158 0375 11000000 		.4byte	.LVL48-1
 4159 0379 1A000000 		.4byte	.LFE126
 4160 037d 0100     		.2byte	0x1
 4161 037f 54       		.byte	0x54
 4162 0380 00000000 		.4byte	0
 4163 0384 00000000 		.4byte	0
 4164              	.LLST32:
 4165 0388 00000000 		.4byte	.LVL44
 4166 038c 11000000 		.4byte	.LVL48-1
 4167 0390 0100     		.2byte	0x1
 4168 0392 51       		.byte	0x51
 4169 0393 11000000 		.4byte	.LVL48-1
 4170 0397 1A000000 		.4byte	.LFE126
 4171 039b 0400     		.2byte	0x4
 4172 039d F3       		.byte	0xf3
 4173 039e 01       		.uleb128 0x1
 4174 039f 51       		.byte	0x51
 4175 03a0 9F       		.byte	0x9f
 4176 03a1 00000000 		.4byte	0
 4177 03a5 00000000 		.4byte	0
 4178              	.LLST33:
 4179 03a9 00000000 		.4byte	.LVL44
 4180 03ad 11000000 		.4byte	.LVL48-1
 4181 03b1 0100     		.2byte	0x1
 4182 03b3 52       		.byte	0x52
 4183 03b4 11000000 		.4byte	.LVL48-1
 4184 03b8 1A000000 		.4byte	.LFE126
 4185 03bc 0400     		.2byte	0x4
 4186 03be F3       		.byte	0xf3
 4187 03bf 01       		.uleb128 0x1
 4188 03c0 52       		.byte	0x52
 4189 03c1 9F       		.byte	0x9f
 4190 03c2 00000000 		.4byte	0
 4191 03c6 00000000 		.4byte	0
 4192              	.LLST34:
 4193 03ca 0A000000 		.4byte	.LVL46
 4194 03ce 0C000000 		.4byte	.LVL47
 4195 03d2 0100     		.2byte	0x1
 4196 03d4 53       		.byte	0x53
 4197 03d5 00000000 		.4byte	0
 4198 03d9 00000000 		.4byte	0
 4199              	.LLST35:
 4200 03dd 18000000 		.4byte	.LVL50
 4201 03e1 1A000000 		.4byte	.LFE126
 4202 03e5 0100     		.2byte	0x1
 4203 03e7 53       		.byte	0x53
 4204 03e8 00000000 		.4byte	0
 4205 03ec 00000000 		.4byte	0
ARM GAS  C:\Users\DNIEL~1\AppData\Local\Temp\ccfZfb0o.s 			page 75


 4206              	.LLST36:
 4207 03f0 00000000 		.4byte	.LFB127
 4208 03f4 02000000 		.4byte	.LCFI7
 4209 03f8 0200     		.2byte	0x2
 4210 03fa 7D       		.byte	0x7d
 4211 03fb 00       		.sleb128 0
 4212 03fc 02000000 		.4byte	.LCFI7
 4213 0400 1A000000 		.4byte	.LFE127
 4214 0404 0200     		.2byte	0x2
 4215 0406 7D       		.byte	0x7d
 4216 0407 08       		.sleb128 8
 4217 0408 00000000 		.4byte	0
 4218 040c 00000000 		.4byte	0
 4219              	.LLST37:
 4220 0410 00000000 		.4byte	.LVL51
 4221 0414 11000000 		.4byte	.LVL55-1
 4222 0418 0100     		.2byte	0x1
 4223 041a 50       		.byte	0x50
 4224 041b 11000000 		.4byte	.LVL55-1
 4225 041f 1A000000 		.4byte	.LFE127
 4226 0423 0100     		.2byte	0x1
 4227 0425 54       		.byte	0x54
 4228 0426 00000000 		.4byte	0
 4229 042a 00000000 		.4byte	0
 4230              	.LLST38:
 4231 042e 00000000 		.4byte	.LVL51
 4232 0432 11000000 		.4byte	.LVL55-1
 4233 0436 0100     		.2byte	0x1
 4234 0438 51       		.byte	0x51
 4235 0439 11000000 		.4byte	.LVL55-1
 4236 043d 1A000000 		.4byte	.LFE127
 4237 0441 0400     		.2byte	0x4
 4238 0443 F3       		.byte	0xf3
 4239 0444 01       		.uleb128 0x1
 4240 0445 51       		.byte	0x51
 4241 0446 9F       		.byte	0x9f
 4242 0447 00000000 		.4byte	0
 4243 044b 00000000 		.4byte	0
 4244              	.LLST39:
 4245 044f 00000000 		.4byte	.LVL51
 4246 0453 11000000 		.4byte	.LVL55-1
 4247 0457 0100     		.2byte	0x1
 4248 0459 52       		.byte	0x52
 4249 045a 11000000 		.4byte	.LVL55-1
 4250 045e 1A000000 		.4byte	.LFE127
 4251 0462 0400     		.2byte	0x4
 4252 0464 F3       		.byte	0xf3
 4253 0465 01       		.uleb128 0x1
 4254 0466 52       		.byte	0x52
 4255 0467 9F       		.byte	0x9f
 4256 0468 00000000 		.4byte	0
 4257 046c 00000000 		.4byte	0
 4258              	.LLST40:
 4259 0470 0A000000 		.4byte	.LVL53
 4260 0474 0C000000 		.4byte	.LVL54
 4261 0478 0100     		.2byte	0x1
 4262 047a 53       		.byte	0x53
ARM GAS  C:\Users\DNIEL~1\AppData\Local\Temp\ccfZfb0o.s 			page 76


 4263 047b 00000000 		.4byte	0
 4264 047f 00000000 		.4byte	0
 4265              	.LLST41:
 4266 0483 18000000 		.4byte	.LVL57
 4267 0487 1A000000 		.4byte	.LFE127
 4268 048b 0100     		.2byte	0x1
 4269 048d 53       		.byte	0x53
 4270 048e 00000000 		.4byte	0
 4271 0492 00000000 		.4byte	0
 4272              	.LLST42:
 4273 0496 00000000 		.4byte	.LFB128
 4274 049a 02000000 		.4byte	.LCFI8
 4275 049e 0200     		.2byte	0x2
 4276 04a0 7D       		.byte	0x7d
 4277 04a1 00       		.sleb128 0
 4278 04a2 02000000 		.4byte	.LCFI8
 4279 04a6 2C000000 		.4byte	.LFE128
 4280 04aa 0200     		.2byte	0x2
 4281 04ac 7D       		.byte	0x7d
 4282 04ad 08       		.sleb128 8
 4283 04ae 00000000 		.4byte	0
 4284 04b2 00000000 		.4byte	0
 4285              	.LLST43:
 4286 04b6 00000000 		.4byte	.LVL58
 4287 04ba 11000000 		.4byte	.LVL62-1
 4288 04be 0100     		.2byte	0x1
 4289 04c0 50       		.byte	0x50
 4290 04c1 11000000 		.4byte	.LVL62-1
 4291 04c5 2C000000 		.4byte	.LFE128
 4292 04c9 0100     		.2byte	0x1
 4293 04cb 54       		.byte	0x54
 4294 04cc 00000000 		.4byte	0
 4295 04d0 00000000 		.4byte	0
 4296              	.LLST44:
 4297 04d4 00000000 		.4byte	.LVL58
 4298 04d8 11000000 		.4byte	.LVL62-1
 4299 04dc 0100     		.2byte	0x1
 4300 04de 51       		.byte	0x51
 4301 04df 11000000 		.4byte	.LVL62-1
 4302 04e3 2C000000 		.4byte	.LFE128
 4303 04e7 0400     		.2byte	0x4
 4304 04e9 F3       		.byte	0xf3
 4305 04ea 01       		.uleb128 0x1
 4306 04eb 51       		.byte	0x51
 4307 04ec 9F       		.byte	0x9f
 4308 04ed 00000000 		.4byte	0
 4309 04f1 00000000 		.4byte	0
 4310              	.LLST45:
 4311 04f5 0A000000 		.4byte	.LVL60
 4312 04f9 0C000000 		.4byte	.LVL61
 4313 04fd 0100     		.2byte	0x1
 4314 04ff 53       		.byte	0x53
 4315 0500 00000000 		.4byte	0
 4316 0504 00000000 		.4byte	0
 4317              	.LLST46:
 4318 0508 2A000000 		.4byte	.LVL65
 4319 050c 2C000000 		.4byte	.LFE128
ARM GAS  C:\Users\DNIEL~1\AppData\Local\Temp\ccfZfb0o.s 			page 77


 4320 0510 0100     		.2byte	0x1
 4321 0512 53       		.byte	0x53
 4322 0513 00000000 		.4byte	0
 4323 0517 00000000 		.4byte	0
 4324              	.LLST47:
 4325 051b 00000000 		.4byte	.LFB129
 4326 051f 02000000 		.4byte	.LCFI9
 4327 0523 0200     		.2byte	0x2
 4328 0525 7D       		.byte	0x7d
 4329 0526 00       		.sleb128 0
 4330 0527 02000000 		.4byte	.LCFI9
 4331 052b 30000000 		.4byte	.LFE129
 4332 052f 0200     		.2byte	0x2
 4333 0531 7D       		.byte	0x7d
 4334 0532 10       		.sleb128 16
 4335 0533 00000000 		.4byte	0
 4336 0537 00000000 		.4byte	0
 4337              	.LLST48:
 4338 053b 00000000 		.4byte	.LVL66
 4339 053f 15000000 		.4byte	.LVL71-1
 4340 0543 0100     		.2byte	0x1
 4341 0545 50       		.byte	0x50
 4342 0546 15000000 		.4byte	.LVL71-1
 4343 054a 30000000 		.4byte	.LFE129
 4344 054e 0100     		.2byte	0x1
 4345 0550 54       		.byte	0x54
 4346 0551 00000000 		.4byte	0
 4347 0555 00000000 		.4byte	0
 4348              	.LLST49:
 4349 0559 00000000 		.4byte	.LVL66
 4350 055d 15000000 		.4byte	.LVL71-1
 4351 0561 0100     		.2byte	0x1
 4352 0563 51       		.byte	0x51
 4353 0564 15000000 		.4byte	.LVL71-1
 4354 0568 30000000 		.4byte	.LFE129
 4355 056c 0400     		.2byte	0x4
 4356 056e F3       		.byte	0xf3
 4357 056f 01       		.uleb128 0x1
 4358 0570 51       		.byte	0x51
 4359 0571 9F       		.byte	0x9f
 4360 0572 00000000 		.4byte	0
 4361 0576 00000000 		.4byte	0
 4362              	.LLST50:
 4363 057a 00000000 		.4byte	.LVL66
 4364 057e 15000000 		.4byte	.LVL71-1
 4365 0582 0100     		.2byte	0x1
 4366 0584 52       		.byte	0x52
 4367 0585 15000000 		.4byte	.LVL71-1
 4368 0589 30000000 		.4byte	.LFE129
 4369 058d 0400     		.2byte	0x4
 4370 058f F3       		.byte	0xf3
 4371 0590 01       		.uleb128 0x1
 4372 0591 52       		.byte	0x52
 4373 0592 9F       		.byte	0x9f
 4374 0593 00000000 		.4byte	0
 4375 0597 00000000 		.4byte	0
 4376              	.LLST51:
ARM GAS  C:\Users\DNIEL~1\AppData\Local\Temp\ccfZfb0o.s 			page 78


 4377 059b 00000000 		.4byte	.LVL66
 4378 059f 08000000 		.4byte	.LVL67
 4379 05a3 0100     		.2byte	0x1
 4380 05a5 53       		.byte	0x53
 4381 05a6 08000000 		.4byte	.LVL67
 4382 05aa 10000000 		.4byte	.LVL70
 4383 05ae 0100     		.2byte	0x1
 4384 05b0 55       		.byte	0x55
 4385 05b1 10000000 		.4byte	.LVL70
 4386 05b5 15000000 		.4byte	.LVL71-1
 4387 05b9 0100     		.2byte	0x1
 4388 05bb 53       		.byte	0x53
 4389 05bc 15000000 		.4byte	.LVL71-1
 4390 05c0 30000000 		.4byte	.LFE129
 4391 05c4 0400     		.2byte	0x4
 4392 05c6 F3       		.byte	0xf3
 4393 05c7 01       		.uleb128 0x1
 4394 05c8 53       		.byte	0x53
 4395 05c9 9F       		.byte	0x9f
 4396 05ca 00000000 		.4byte	0
 4397 05ce 00000000 		.4byte	0
 4398              	.LLST52:
 4399 05d2 0C000000 		.4byte	.LVL68
 4400 05d6 0E000000 		.4byte	.LVL69
 4401 05da 0100     		.2byte	0x1
 4402 05dc 53       		.byte	0x53
 4403 05dd 00000000 		.4byte	0
 4404 05e1 00000000 		.4byte	0
 4405              	.LLST53:
 4406 05e5 2E000000 		.4byte	.LVL74
 4407 05e9 30000000 		.4byte	.LFE129
 4408 05ed 0100     		.2byte	0x1
 4409 05ef 53       		.byte	0x53
 4410 05f0 00000000 		.4byte	0
 4411 05f4 00000000 		.4byte	0
 4412              	.LLST54:
 4413 05f8 00000000 		.4byte	.LFB130
 4414 05fc 02000000 		.4byte	.LCFI10
 4415 0600 0200     		.2byte	0x2
 4416 0602 7D       		.byte	0x7d
 4417 0603 00       		.sleb128 0
 4418 0604 02000000 		.4byte	.LCFI10
 4419 0608 2C000000 		.4byte	.LFE130
 4420 060c 0200     		.2byte	0x2
 4421 060e 7D       		.byte	0x7d
 4422 060f 08       		.sleb128 8
 4423 0610 00000000 		.4byte	0
 4424 0614 00000000 		.4byte	0
 4425              	.LLST55:
 4426 0618 00000000 		.4byte	.LVL75
 4427 061c 11000000 		.4byte	.LVL79-1
 4428 0620 0100     		.2byte	0x1
 4429 0622 50       		.byte	0x50
 4430 0623 11000000 		.4byte	.LVL79-1
 4431 0627 2C000000 		.4byte	.LFE130
 4432 062b 0100     		.2byte	0x1
 4433 062d 54       		.byte	0x54
ARM GAS  C:\Users\DNIEL~1\AppData\Local\Temp\ccfZfb0o.s 			page 79


 4434 062e 00000000 		.4byte	0
 4435 0632 00000000 		.4byte	0
 4436              	.LLST56:
 4437 0636 00000000 		.4byte	.LVL75
 4438 063a 11000000 		.4byte	.LVL79-1
 4439 063e 0100     		.2byte	0x1
 4440 0640 51       		.byte	0x51
 4441 0641 11000000 		.4byte	.LVL79-1
 4442 0645 2C000000 		.4byte	.LFE130
 4443 0649 0400     		.2byte	0x4
 4444 064b F3       		.byte	0xf3
 4445 064c 01       		.uleb128 0x1
 4446 064d 51       		.byte	0x51
 4447 064e 9F       		.byte	0x9f
 4448 064f 00000000 		.4byte	0
 4449 0653 00000000 		.4byte	0
 4450              	.LLST57:
 4451 0657 00000000 		.4byte	.LVL75
 4452 065b 11000000 		.4byte	.LVL79-1
 4453 065f 0100     		.2byte	0x1
 4454 0661 52       		.byte	0x52
 4455 0662 11000000 		.4byte	.LVL79-1
 4456 0666 2C000000 		.4byte	.LFE130
 4457 066a 0400     		.2byte	0x4
 4458 066c F3       		.byte	0xf3
 4459 066d 01       		.uleb128 0x1
 4460 066e 52       		.byte	0x52
 4461 066f 9F       		.byte	0x9f
 4462 0670 00000000 		.4byte	0
 4463 0674 00000000 		.4byte	0
 4464              	.LLST58:
 4465 0678 0A000000 		.4byte	.LVL77
 4466 067c 0C000000 		.4byte	.LVL78
 4467 0680 0100     		.2byte	0x1
 4468 0682 53       		.byte	0x53
 4469 0683 00000000 		.4byte	0
 4470 0687 00000000 		.4byte	0
 4471              	.LLST59:
 4472 068b 2A000000 		.4byte	.LVL82
 4473 068f 2C000000 		.4byte	.LFE130
 4474 0693 0100     		.2byte	0x1
 4475 0695 53       		.byte	0x53
 4476 0696 00000000 		.4byte	0
 4477 069a 00000000 		.4byte	0
 4478              	.LLST60:
 4479 069e 00000000 		.4byte	.LFB131
 4480 06a2 02000000 		.4byte	.LCFI11
 4481 06a6 0200     		.2byte	0x2
 4482 06a8 7D       		.byte	0x7d
 4483 06a9 00       		.sleb128 0
 4484 06aa 02000000 		.4byte	.LCFI11
 4485 06ae 2C000000 		.4byte	.LFE131
 4486 06b2 0200     		.2byte	0x2
 4487 06b4 7D       		.byte	0x7d
 4488 06b5 08       		.sleb128 8
 4489 06b6 00000000 		.4byte	0
 4490 06ba 00000000 		.4byte	0
ARM GAS  C:\Users\DNIEL~1\AppData\Local\Temp\ccfZfb0o.s 			page 80


 4491              	.LLST61:
 4492 06be 00000000 		.4byte	.LVL83
 4493 06c2 11000000 		.4byte	.LVL87-1
 4494 06c6 0100     		.2byte	0x1
 4495 06c8 50       		.byte	0x50
 4496 06c9 11000000 		.4byte	.LVL87-1
 4497 06cd 2C000000 		.4byte	.LFE131
 4498 06d1 0100     		.2byte	0x1
 4499 06d3 54       		.byte	0x54
 4500 06d4 00000000 		.4byte	0
 4501 06d8 00000000 		.4byte	0
 4502              	.LLST62:
 4503 06dc 00000000 		.4byte	.LVL83
 4504 06e0 11000000 		.4byte	.LVL87-1
 4505 06e4 0100     		.2byte	0x1
 4506 06e6 51       		.byte	0x51
 4507 06e7 11000000 		.4byte	.LVL87-1
 4508 06eb 2C000000 		.4byte	.LFE131
 4509 06ef 0400     		.2byte	0x4
 4510 06f1 F3       		.byte	0xf3
 4511 06f2 01       		.uleb128 0x1
 4512 06f3 51       		.byte	0x51
 4513 06f4 9F       		.byte	0x9f
 4514 06f5 00000000 		.4byte	0
 4515 06f9 00000000 		.4byte	0
 4516              	.LLST63:
 4517 06fd 00000000 		.4byte	.LVL83
 4518 0701 11000000 		.4byte	.LVL87-1
 4519 0705 0100     		.2byte	0x1
 4520 0707 52       		.byte	0x52
 4521 0708 11000000 		.4byte	.LVL87-1
 4522 070c 2C000000 		.4byte	.LFE131
 4523 0710 0400     		.2byte	0x4
 4524 0712 F3       		.byte	0xf3
 4525 0713 01       		.uleb128 0x1
 4526 0714 52       		.byte	0x52
 4527 0715 9F       		.byte	0x9f
 4528 0716 00000000 		.4byte	0
 4529 071a 00000000 		.4byte	0
 4530              	.LLST64:
 4531 071e 0A000000 		.4byte	.LVL85
 4532 0722 0C000000 		.4byte	.LVL86
 4533 0726 0100     		.2byte	0x1
 4534 0728 53       		.byte	0x53
 4535 0729 00000000 		.4byte	0
 4536 072d 00000000 		.4byte	0
 4537              	.LLST65:
 4538 0731 2A000000 		.4byte	.LVL90
 4539 0735 2C000000 		.4byte	.LFE131
 4540 0739 0100     		.2byte	0x1
 4541 073b 53       		.byte	0x53
 4542 073c 00000000 		.4byte	0
 4543 0740 00000000 		.4byte	0
 4544              	.LLST66:
 4545 0744 00000000 		.4byte	.LVL91
 4546 0748 02000000 		.4byte	.LVL92
 4547 074c 0100     		.2byte	0x1
ARM GAS  C:\Users\DNIEL~1\AppData\Local\Temp\ccfZfb0o.s 			page 81


 4548 074e 50       		.byte	0x50
 4549 074f 02000000 		.4byte	.LVL92
 4550 0753 05000000 		.4byte	.LVL93-1
 4551 0757 0300     		.2byte	0x3
 4552 0759 70       		.byte	0x70
 4553 075a 74       		.sleb128 -12
 4554 075b 9F       		.byte	0x9f
 4555 075c 05000000 		.4byte	.LVL93-1
 4556 0760 06000000 		.4byte	.LFE132
 4557 0764 0400     		.2byte	0x4
 4558 0766 F3       		.byte	0xf3
 4559 0767 01       		.uleb128 0x1
 4560 0768 50       		.byte	0x50
 4561 0769 9F       		.byte	0x9f
 4562 076a 00000000 		.4byte	0
 4563 076e 00000000 		.4byte	0
 4564              	.LLST67:
 4565 0772 00000000 		.4byte	.LVL94
 4566 0776 03000000 		.4byte	.LVL95-1
 4567 077a 0100     		.2byte	0x1
 4568 077c 50       		.byte	0x50
 4569 077d 03000000 		.4byte	.LVL95-1
 4570 0781 04000000 		.4byte	.LFE133
 4571 0785 0400     		.2byte	0x4
 4572 0787 F3       		.byte	0xf3
 4573 0788 01       		.uleb128 0x1
 4574 0789 50       		.byte	0x50
 4575 078a 9F       		.byte	0x9f
 4576 078b 00000000 		.4byte	0
 4577 078f 00000000 		.4byte	0
 4578              		.section	.debug_aranges,"",%progbits
 4579 0000 94000000 		.4byte	0x94
 4580 0004 0200     		.2byte	0x2
 4581 0006 00000000 		.4byte	.Ldebug_info0
 4582 000a 04       		.byte	0x4
 4583 000b 00       		.byte	0
 4584 000c 0000     		.2byte	0
 4585 000e 0000     		.2byte	0
 4586 0010 00000000 		.4byte	.LFB118
 4587 0014 04000000 		.4byte	.LFE118-.LFB118
 4588 0018 00000000 		.4byte	.LFB119
 4589 001c 10000000 		.4byte	.LFE119-.LFB119
 4590 0020 00000000 		.4byte	.LFB120
 4591 0024 1C000000 		.4byte	.LFE120-.LFB120
 4592 0028 00000000 		.4byte	.LFB121
 4593 002c 20000000 		.4byte	.LFE121-.LFB121
 4594 0030 00000000 		.4byte	.LFB122
 4595 0034 14000000 		.4byte	.LFE122-.LFB122
 4596 0038 00000000 		.4byte	.LFB123
 4597 003c 14000000 		.4byte	.LFE123-.LFB123
 4598 0040 00000000 		.4byte	.LFB124
 4599 0044 18000000 		.4byte	.LFE124-.LFB124
 4600 0048 00000000 		.4byte	.LFB125
 4601 004c 1E000000 		.4byte	.LFE125-.LFB125
 4602 0050 00000000 		.4byte	.LFB126
 4603 0054 1A000000 		.4byte	.LFE126-.LFB126
 4604 0058 00000000 		.4byte	.LFB127
ARM GAS  C:\Users\DNIEL~1\AppData\Local\Temp\ccfZfb0o.s 			page 82


 4605 005c 1A000000 		.4byte	.LFE127-.LFB127
 4606 0060 00000000 		.4byte	.LFB128
 4607 0064 2C000000 		.4byte	.LFE128-.LFB128
 4608 0068 00000000 		.4byte	.LFB129
 4609 006c 30000000 		.4byte	.LFE129-.LFB129
 4610 0070 00000000 		.4byte	.LFB130
 4611 0074 2C000000 		.4byte	.LFE130-.LFB130
 4612 0078 00000000 		.4byte	.LFB131
 4613 007c 2C000000 		.4byte	.LFE131-.LFB131
 4614 0080 00000000 		.4byte	.LFB132
 4615 0084 06000000 		.4byte	.LFE132-.LFB132
 4616 0088 00000000 		.4byte	.LFB133
 4617 008c 04000000 		.4byte	.LFE133-.LFB133
 4618 0090 00000000 		.4byte	0
 4619 0094 00000000 		.4byte	0
 4620              		.section	.debug_ranges,"",%progbits
 4621              	.Ldebug_ranges0:
 4622 0000 02000000 		.4byte	.LBB2
 4623 0004 04000000 		.4byte	.LBE2
 4624 0008 06000000 		.4byte	.LBB3
 4625 000c 0A000000 		.4byte	.LBE3
 4626 0010 00000000 		.4byte	0
 4627 0014 00000000 		.4byte	0
 4628 0018 02000000 		.4byte	.LBB5
 4629 001c 04000000 		.4byte	.LBE5
 4630 0020 06000000 		.4byte	.LBB6
 4631 0024 0A000000 		.4byte	.LBE6
 4632 0028 00000000 		.4byte	0
 4633 002c 00000000 		.4byte	0
 4634 0030 02000000 		.4byte	.LBB16
 4635 0034 04000000 		.4byte	.LBE16
 4636 0038 06000000 		.4byte	.LBB17
 4637 003c 0A000000 		.4byte	.LBE17
 4638 0040 00000000 		.4byte	0
 4639 0044 00000000 		.4byte	0
 4640 0048 02000000 		.4byte	.LBB19
 4641 004c 04000000 		.4byte	.LBE19
 4642 0050 06000000 		.4byte	.LBB20
 4643 0054 0A000000 		.4byte	.LBE20
 4644 0058 00000000 		.4byte	0
 4645 005c 00000000 		.4byte	0
 4646 0060 02000000 		.4byte	.LBB22
 4647 0064 04000000 		.4byte	.LBE22
 4648 0068 06000000 		.4byte	.LBB23
 4649 006c 0A000000 		.4byte	.LBE23
 4650 0070 00000000 		.4byte	0
 4651 0074 00000000 		.4byte	0
 4652 0078 02000000 		.4byte	.LBB27
 4653 007c 04000000 		.4byte	.LBE27
 4654 0080 06000000 		.4byte	.LBB28
 4655 0084 0A000000 		.4byte	.LBE28
 4656 0088 00000000 		.4byte	0
 4657 008c 00000000 		.4byte	0
 4658 0090 02000000 		.4byte	.LBB30
 4659 0094 04000000 		.4byte	.LBE30
 4660 0098 06000000 		.4byte	.LBB31
 4661 009c 0A000000 		.4byte	.LBE31
ARM GAS  C:\Users\DNIEL~1\AppData\Local\Temp\ccfZfb0o.s 			page 83


 4662 00a0 00000000 		.4byte	0
 4663 00a4 00000000 		.4byte	0
 4664 00a8 00000000 		.4byte	.LFB118
 4665 00ac 04000000 		.4byte	.LFE118
 4666 00b0 00000000 		.4byte	.LFB119
 4667 00b4 10000000 		.4byte	.LFE119
 4668 00b8 00000000 		.4byte	.LFB120
 4669 00bc 1C000000 		.4byte	.LFE120
 4670 00c0 00000000 		.4byte	.LFB121
 4671 00c4 20000000 		.4byte	.LFE121
 4672 00c8 00000000 		.4byte	.LFB122
 4673 00cc 14000000 		.4byte	.LFE122
 4674 00d0 00000000 		.4byte	.LFB123
 4675 00d4 14000000 		.4byte	.LFE123
 4676 00d8 00000000 		.4byte	.LFB124
 4677 00dc 18000000 		.4byte	.LFE124
 4678 00e0 00000000 		.4byte	.LFB125
 4679 00e4 1E000000 		.4byte	.LFE125
 4680 00e8 00000000 		.4byte	.LFB126
 4681 00ec 1A000000 		.4byte	.LFE126
 4682 00f0 00000000 		.4byte	.LFB127
 4683 00f4 1A000000 		.4byte	.LFE127
 4684 00f8 00000000 		.4byte	.LFB128
 4685 00fc 2C000000 		.4byte	.LFE128
 4686 0100 00000000 		.4byte	.LFB129
 4687 0104 30000000 		.4byte	.LFE129
 4688 0108 00000000 		.4byte	.LFB130
 4689 010c 2C000000 		.4byte	.LFE130
 4690 0110 00000000 		.4byte	.LFB131
 4691 0114 2C000000 		.4byte	.LFE131
 4692 0118 00000000 		.4byte	.LFB132
 4693 011c 06000000 		.4byte	.LFE132
 4694 0120 00000000 		.4byte	.LFB133
 4695 0124 04000000 		.4byte	.LFE133
 4696 0128 00000000 		.4byte	0
 4697 012c 00000000 		.4byte	0
 4698              		.section	.debug_line,"",%progbits
 4699              	.Ldebug_line0:
 4700 0000 41040000 		.section	.debug_str,"MS",%progbits,1
 4700      0200EE02 
 4700      00000201 
 4700      FB0E0D00 
 4700      01010101 
 4701              	.LASF111:
 4702 0000 646D6172 		.ascii	"dmarx\000"
 4702      7800
 4703              	.LASF65:
 4704 0006 4D304152 		.ascii	"M0AR\000"
 4704      00
 4705              	.LASF2:
 4706 000b 73697A65 		.ascii	"size_t\000"
 4706      5F7400
 4707              	.LASF59:
 4708 0012 7264796D 		.ascii	"rdymsg\000"
 4708      736700
 4709              	.LASF91:
 4710 0019 4F545950 		.ascii	"OTYPER\000"
ARM GAS  C:\Users\DNIEL~1\AppData\Local\Temp\ccfZfb0o.s 			page 84


 4710      455200
 4711              	.LASF103:
 4712 0020 5350495F 		.ascii	"SPI_ACTIVE\000"
 4712      41435449 
 4712      564500
 4713              	.LASF124:
 4714 002b 73706953 		.ascii	"spiStop\000"
 4714      746F7000 
 4715              	.LASF83:
 4716 0033 73747265 		.ascii	"stream\000"
 4716      616D00
 4717              	.LASF90:
 4718 003a 4D4F4445 		.ascii	"MODER\000"
 4718      5200
 4719              	.LASF13:
 4720 0040 6C6F6E67 		.ascii	"long long unsigned int\000"
 4720      206C6F6E 
 4720      6720756E 
 4720      7369676E 
 4720      65642069 
 4721              	.LASF102:
 4722 0057 5350495F 		.ascii	"SPI_READY\000"
 4722      52454144 
 4722      5900
 4723              	.LASF72:
 4724 0061 43524350 		.ascii	"CRCPR\000"
 4724      5200
 4725              	.LASF93:
 4726 0067 50555044 		.ascii	"PUPDR\000"
 4726      5200
 4727              	.LASF60:
 4728 006d 65786974 		.ascii	"exitcode\000"
 4728      636F6465 
 4728      00
 4729              	.LASF87:
 4730 0076 76656374 		.ascii	"vector\000"
 4730      6F7200
 4731              	.LASF106:
 4732 007d 53504944 		.ascii	"SPIDriver\000"
 4732      72697665 
 4732      7200
 4733              	.LASF117:
 4734 0087 7373706F 		.ascii	"ssport\000"
 4734      727400
 4735              	.LASF140:
 4736 008e 49544D5F 		.ascii	"ITM_RxBuffer\000"
 4736      52784275 
 4736      66666572 
 4736      00
 4737              	.LASF130:
 4738 009b 72786275 		.ascii	"rxbuf\000"
 4738      6600
 4739              	.LASF25:
 4740 00a1 705F7072 		.ascii	"p_prio\000"
 4740      696F00
 4741              	.LASF118:
 4742 00a8 73737061 		.ascii	"sspad\000"
ARM GAS  C:\Users\DNIEL~1\AppData\Local\Temp\ccfZfb0o.s 			page 85


 4742      6400
 4743              	.LASF156:
 4744 00ae 63684D74 		.ascii	"chMtxUnlock\000"
 4744      78556E6C 
 4744      6F636B00 
 4745              	.LASF1:
 4746 00ba 7369676E 		.ascii	"signed char\000"
 4746      65642063 
 4746      68617200 
 4747              	.LASF94:
 4748 00c6 42535252 		.ascii	"BSRR\000"
 4748      00
 4749              	.LASF101:
 4750 00cb 5350495F 		.ascii	"SPI_STOP\000"
 4750      53544F50 
 4750      00
 4751              	.LASF78:
 4752 00d4 49325343 		.ascii	"I2SCFGR\000"
 4752      46475200 
 4753              	.LASF155:
 4754 00dc 7370695F 		.ascii	"spi_lld_init\000"
 4754      6C6C645F 
 4754      696E6974 
 4754      00
 4755              	.LASF56:
 4756 00e9 6D5F7175 		.ascii	"m_queue\000"
 4756      65756500 
 4757              	.LASF17:
 4758 00f1 74736C69 		.ascii	"tslices_t\000"
 4758      6365735F 
 4758      7400
 4759              	.LASF115:
 4760 00fb 73706963 		.ascii	"spicallback_t\000"
 4760      616C6C62 
 4760      61636B5F 
 4760      7400
 4761              	.LASF107:
 4762 0109 73746174 		.ascii	"state\000"
 4762      6500
 4763              	.LASF9:
 4764 010f 6C6F6E67 		.ascii	"long int\000"
 4764      20696E74 
 4764      00
 4765              	.LASF153:
 4766 0118 2E2E2F2E 		.ascii	"../../../ChibiOS/os/hal/src/spi.c\000"
 4766      2E2F2E2E 
 4766      2F436869 
 4766      62694F53 
 4766      2F6F732F 
 4767              	.LASF15:
 4768 013a 74737461 		.ascii	"tstate_t\000"
 4768      74655F74 
 4768      00
 4769              	.LASF132:
 4770 0143 73706953 		.ascii	"spiStartReceive\000"
 4770      74617274 
 4770      52656365 
ARM GAS  C:\Users\DNIEL~1\AppData\Local\Temp\ccfZfb0o.s 			page 86


 4770      69766500 
 4771              	.LASF147:
 4772 0153 7370695F 		.ascii	"spi_lld_exchange\000"
 4772      6C6C645F 
 4772      65786368 
 4772      616E6765 
 4772      00
 4773              	.LASF32:
 4774 0164 705F7265 		.ascii	"p_refs\000"
 4774      667300
 4775              	.LASF12:
 4776 016b 6C6F6E67 		.ascii	"long long int\000"
 4776      206C6F6E 
 4776      6720696E 
 4776      7400
 4777              	.LASF6:
 4778 0179 75696E74 		.ascii	"uint16_t\000"
 4778      31365F74 
 4778      00
 4779              	.LASF34:
 4780 0182 705F7469 		.ascii	"p_time\000"
 4780      6D6500
 4781              	.LASF127:
 4782 0189 73706953 		.ascii	"spiStartIgnore\000"
 4782      74617274 
 4782      49676E6F 
 4782      726500
 4783              	.LASF27:
 4784 0198 705F6E65 		.ascii	"p_newer\000"
 4784      77657200 
 4785              	.LASF116:
 4786 01a0 656E645F 		.ascii	"end_cb\000"
 4786      636200
 4787              	.LASF113:
 4788 01a7 7278646D 		.ascii	"rxdmamode\000"
 4788      616D6F64 
 4788      6500
 4789              	.LASF98:
 4790 01b1 4750494F 		.ascii	"GPIO_TypeDef\000"
 4790      5F547970 
 4790      65446566 
 4790      00
 4791              	.LASF112:
 4792 01be 646D6174 		.ascii	"dmatx\000"
 4792      7800
 4793              	.LASF92:
 4794 01c4 4F535045 		.ascii	"OSPEEDR\000"
 4794      45445200 
 4795              	.LASF51:
 4796 01cc 725F6E65 		.ascii	"r_newer\000"
 4796      77657200 
 4797              	.LASF41:
 4798 01d4 705F6D70 		.ascii	"p_mpool\000"
 4798      6F6F6C00 
 4799              	.LASF44:
 4800 01dc 72656761 		.ascii	"regarm_t\000"
 4800      726D5F74 
ARM GAS  C:\Users\DNIEL~1\AppData\Local\Temp\ccfZfb0o.s 			page 87


 4800      00
 4801              	.LASF86:
 4802 01e5 73656C66 		.ascii	"selfindex\000"
 4802      696E6465 
 4802      7800
 4803              	.LASF126:
 4804 01ef 73706955 		.ascii	"spiUnselect\000"
 4804      6E73656C 
 4804      65637400 
 4805              	.LASF139:
 4806 01fb 726C6973 		.ascii	"rlist\000"
 4806      7400
 4807              	.LASF148:
 4808 0201 7370695F 		.ascii	"spi_lld_send\000"
 4808      6C6C645F 
 4808      73656E64 
 4808      00
 4809              	.LASF0:
 4810 020e 756E7369 		.ascii	"unsigned int\000"
 4810      676E6564 
 4810      20696E74 
 4810      00
 4811              	.LASF143:
 4812 021b 7370695F 		.ascii	"spi_lld_unselect\000"
 4812      6C6C645F 
 4812      756E7365 
 4812      6C656374 
 4812      00
 4813              	.LASF129:
 4814 022c 74786275 		.ascii	"txbuf\000"
 4814      6600
 4815              	.LASF136:
 4816 0232 73706952 		.ascii	"spiReceive\000"
 4816      65636569 
 4816      766500
 4817              	.LASF36:
 4818 023d 705F6D73 		.ascii	"p_msgqueue\000"
 4818      67717565 
 4818      756500
 4819              	.LASF95:
 4820 0248 4C434B52 		.ascii	"LCKR\000"
 4820      00
 4821              	.LASF85:
 4822 024d 69736869 		.ascii	"ishift\000"
 4822      667400
 4823              	.LASF131:
 4824 0254 73706953 		.ascii	"spiStartSend\000"
 4824      74617274 
 4824      53656E64 
 4824      00
 4825              	.LASF46:
 4826 0261 636F6E74 		.ascii	"context\000"
 4826      65787400 
 4827              	.LASF7:
 4828 0269 73686F72 		.ascii	"short unsigned int\000"
 4828      7420756E 
 4828      7369676E 
ARM GAS  C:\Users\DNIEL~1\AppData\Local\Temp\ccfZfb0o.s 			page 88


 4828      65642069 
 4828      6E7400
 4829              	.LASF19:
 4830 027c 6D73675F 		.ascii	"msg_t\000"
 4830      7400
 4831              	.LASF14:
 4832 0282 746D6F64 		.ascii	"tmode_t\000"
 4832      655F7400 
 4833              	.LASF43:
 4834 028a 54687265 		.ascii	"ThreadsList\000"
 4834      6164734C 
 4834      69737400 
 4835              	.LASF20:
 4836 0296 6576656E 		.ascii	"eventmask_t\000"
 4836      746D6173 
 4836      6B5F7400 
 4837              	.LASF54:
 4838 02a2 52656164 		.ascii	"ReadyList\000"
 4838      794C6973 
 4838      7400
 4839              	.LASF120:
 4840 02ac 73706949 		.ascii	"spiInit\000"
 4840      6E697400 
 4841              	.LASF49:
 4842 02b4 725F7072 		.ascii	"r_prio\000"
 4842      696F00
 4843              	.LASF134:
 4844 02bb 73706945 		.ascii	"spiExchange\000"
 4844      78636861 
 4844      6E676500 
 4845              	.LASF149:
 4846 02c7 7370695F 		.ascii	"spi_lld_receive\000"
 4846      6C6C645F 
 4846      72656365 
 4846      69766500 
 4847              	.LASF80:
 4848 02d7 49325350 		.ascii	"I2SPR\000"
 4848      5200
 4849              	.LASF47:
 4850 02dd 73697A65 		.ascii	"sizetype\000"
 4850      74797065 
 4850      00
 4851              	.LASF89:
 4852 02e6 636C6561 		.ascii	"clear\000"
 4852      7200
 4853              	.LASF55:
 4854 02ec 4D757465 		.ascii	"Mutex\000"
 4854      7800
 4855              	.LASF144:
 4856 02f2 7370695F 		.ascii	"spi_lld_stop\000"
 4856      6C6C645F 
 4856      73746F70 
 4856      00
 4857              	.LASF137:
 4858 02ff 73706941 		.ascii	"spiAcquireBus\000"
 4858      63717569 
 4858      72654275 
ARM GAS  C:\Users\DNIEL~1\AppData\Local\Temp\ccfZfb0o.s 			page 89


 4858      7300
 4859              	.LASF151:
 4860 030d 63684D74 		.ascii	"chMtxLock\000"
 4860      784C6F63 
 4860      6B00
 4861              	.LASF152:
 4862 0317 474E5520 		.ascii	"GNU C 4.7.4 20140401 (release) [ARM/embedded-4_7-br"
 4862      4320342E 
 4862      372E3420 
 4862      32303134 
 4862      30343031 
 4863 034a 616E6368 		.ascii	"anch revision 209195]\000"
 4863      20726576 
 4863      6973696F 
 4863      6E203230 
 4863      39313935 
 4864              	.LASF28:
 4865 0360 705F6F6C 		.ascii	"p_older\000"
 4865      64657200 
 4866              	.LASF50:
 4867 0368 725F6374 		.ascii	"r_ctx\000"
 4867      7800
 4868              	.LASF42:
 4869 036e 54687265 		.ascii	"ThreadsQueue\000"
 4869      61647351 
 4869      75657565 
 4869      00
 4870              	.LASF114:
 4871 037b 7478646D 		.ascii	"txdmamode\000"
 4871      616D6F64 
 4871      6500
 4872              	.LASF53:
 4873 0385 725F6375 		.ascii	"r_current\000"
 4873      7272656E 
 4873      7400
 4874              	.LASF52:
 4875 038f 725F6F6C 		.ascii	"r_older\000"
 4875      64657200 
 4876              	.LASF97:
 4877 0397 41465248 		.ascii	"AFRH\000"
 4877      00
 4878              	.LASF96:
 4879 039c 4146524C 		.ascii	"AFRL\000"
 4879      00
 4880              	.LASF76:
 4881 03a1 54584352 		.ascii	"TXCRCR\000"
 4881      435200
 4882              	.LASF68:
 4883 03a8 52455345 		.ascii	"RESERVED0\000"
 4883      52564544 
 4883      3000
 4884              	.LASF69:
 4885 03b2 52455345 		.ascii	"RESERVED1\000"
 4885      52564544 
 4885      3100
 4886              	.LASF70:
 4887 03bc 52455345 		.ascii	"RESERVED2\000"
ARM GAS  C:\Users\DNIEL~1\AppData\Local\Temp\ccfZfb0o.s 			page 90


 4887      52564544 
 4887      3200
 4888              	.LASF71:
 4889 03c6 52455345 		.ascii	"RESERVED3\000"
 4889      52564544 
 4889      3300
 4890              	.LASF73:
 4891 03d0 52455345 		.ascii	"RESERVED4\000"
 4891      52564544 
 4891      3400
 4892              	.LASF24:
 4893 03da 705F7072 		.ascii	"p_prev\000"
 4893      657600
 4894              	.LASF77:
 4895 03e1 52455345 		.ascii	"RESERVED6\000"
 4895      52564544 
 4895      3600
 4896              	.LASF79:
 4897 03eb 52455345 		.ascii	"RESERVED7\000"
 4897      52564544 
 4897      3700
 4898              	.LASF81:
 4899 03f5 52455345 		.ascii	"RESERVED8\000"
 4899      52564544 
 4899      3800
 4900              	.LASF18:
 4901 03ff 74707269 		.ascii	"tprio_t\000"
 4901      6F5F7400 
 4902              	.LASF110:
 4903 0407 6D757465 		.ascii	"mutex\000"
 4903      7800
 4904              	.LASF8:
 4905 040d 696E7433 		.ascii	"int32_t\000"
 4905      325F7400 
 4906              	.LASF4:
 4907 0415 756E7369 		.ascii	"unsigned char\000"
 4907      676E6564 
 4907      20636861 
 4907      7200
 4908              	.LASF88:
 4909 0423 73746D33 		.ascii	"stm32_dma_stream_t\000"
 4909      325F646D 
 4909      615F7374 
 4909      7265616D 
 4909      5F7400
 4910              	.LASF39:
 4911 0436 705F6D74 		.ascii	"p_mtxlist\000"
 4911      786C6973 
 4911      7400
 4912              	.LASF5:
 4913 0440 73686F72 		.ascii	"short int\000"
 4913      7420696E 
 4913      7400
 4914              	.LASF30:
 4915 044a 705F7374 		.ascii	"p_state\000"
 4915      61746500 
 4916              	.LASF33:
ARM GAS  C:\Users\DNIEL~1\AppData\Local\Temp\ccfZfb0o.s 			page 91


 4917 0452 705F7072 		.ascii	"p_preempt\000"
 4917      65656D70 
 4917      7400
 4918              	.LASF121:
 4919 045c 7370694F 		.ascii	"spiObjectInit\000"
 4919      626A6563 
 4919      74496E69 
 4919      7400
 4920              	.LASF62:
 4921 046a 65776D61 		.ascii	"ewmask\000"
 4921      736B00
 4922              	.LASF23:
 4923 0471 705F6E65 		.ascii	"p_next\000"
 4923      787400
 4924              	.LASF31:
 4925 0478 705F666C 		.ascii	"p_flags\000"
 4925      61677300 
 4926              	.LASF22:
 4927 0480 54687265 		.ascii	"Thread\000"
 4927      616400
 4928              	.LASF150:
 4929 0487 63685363 		.ascii	"chSchGoSleepS\000"
 4929      68476F53 
 4929      6C656570 
 4929      5300
 4930              	.LASF38:
 4931 0495 705F6570 		.ascii	"p_epending\000"
 4931      656E6469 
 4931      6E6700
 4932              	.LASF84:
 4933 04a0 69666372 		.ascii	"ifcr\000"
 4933      00
 4934              	.LASF75:
 4935 04a5 52455345 		.ascii	"RESERVED5\000"
 4935      52564544 
 4935      3500
 4936              	.LASF10:
 4937 04af 75696E74 		.ascii	"uint32_t\000"
 4937      33325F74 
 4937      00
 4938              	.LASF48:
 4939 04b8 725F7175 		.ascii	"r_queue\000"
 4939      65756500 
 4940              	.LASF16:
 4941 04c0 74726566 		.ascii	"trefs_t\000"
 4941      735F7400 
 4942              	.LASF11:
 4943 04c8 6C6F6E67 		.ascii	"long unsigned int\000"
 4943      20756E73 
 4943      69676E65 
 4943      6420696E 
 4943      7400
 4944              	.LASF82:
 4945 04da 5350495F 		.ascii	"SPI_TypeDef\000"
 4945      54797065 
 4945      44656600 
 4946              	.LASF63:
ARM GAS  C:\Users\DNIEL~1\AppData\Local\Temp\ccfZfb0o.s 			page 92


 4947 04e6 63686172 		.ascii	"char\000"
 4947      00
 4948              	.LASF104:
 4949 04eb 5350495F 		.ascii	"SPI_COMPLETE\000"
 4949      434F4D50 
 4949      4C455445 
 4949      00
 4950              	.LASF108:
 4951 04f8 636F6E66 		.ascii	"config\000"
 4951      696700
 4952              	.LASF105:
 4953 04ff 73706973 		.ascii	"spistate_t\000"
 4953      74617465 
 4953      5F7400
 4954              	.LASF58:
 4955 050a 6D5F6E65 		.ascii	"m_next\000"
 4955      787400
 4956              	.LASF21:
 4957 0511 73797374 		.ascii	"systime_t\000"
 4957      696D655F 
 4957      7400
 4958              	.LASF40:
 4959 051b 705F7265 		.ascii	"p_realprio\000"
 4959      616C7072 
 4959      696F00
 4960              	.LASF109:
 4961 0526 74687265 		.ascii	"thread\000"
 4961      616400
 4962              	.LASF64:
 4963 052d 4E445452 		.ascii	"NDTR\000"
 4963      00
 4964              	.LASF138:
 4965 0532 73706952 		.ascii	"spiReleaseBus\000"
 4965      656C6561 
 4965      73654275 
 4965      7300
 4966              	.LASF133:
 4967 0540 73706949 		.ascii	"spiIgnore\000"
 4967      676E6F72 
 4967      6500
 4968              	.LASF67:
 4969 054a 444D415F 		.ascii	"DMA_Stream_TypeDef\000"
 4969      53747265 
 4969      616D5F54 
 4969      79706544 
 4969      656600
 4970              	.LASF99:
 4971 055d 696F706F 		.ascii	"ioportid_t\000"
 4971      72746964 
 4971      5F7400
 4972              	.LASF145:
 4973 0568 7370695F 		.ascii	"spi_lld_select\000"
 4973      6C6C645F 
 4973      73656C65 
 4973      637400
 4974              	.LASF122:
 4975 0577 73706953 		.ascii	"spiStart\000"
ARM GAS  C:\Users\DNIEL~1\AppData\Local\Temp\ccfZfb0o.s 			page 93


 4975      74617274 
 4975      00
 4976              	.LASF125:
 4977 0580 73706953 		.ascii	"spiSelect\000"
 4977      656C6563 
 4977      7400
 4978              	.LASF45:
 4979 058a 696E7463 		.ascii	"intctx\000"
 4979      747800
 4980              	.LASF66:
 4981 0591 4D314152 		.ascii	"M1AR\000"
 4981      00
 4982              	.LASF100:
 4983 0596 5350495F 		.ascii	"SPI_UNINIT\000"
 4983      554E494E 
 4983      495400
 4984              	.LASF141:
 4985 05a1 63684D74 		.ascii	"chMtxInit\000"
 4985      78496E69 
 4985      7400
 4986              	.LASF146:
 4987 05ab 7370695F 		.ascii	"spi_lld_ignore\000"
 4987      6C6C645F 
 4987      69676E6F 
 4987      726500
 4988              	.LASF128:
 4989 05ba 73706953 		.ascii	"spiStartExchange\000"
 4989      74617274 
 4989      45786368 
 4989      616E6765 
 4989      00
 4990              	.LASF154:
 4991 05cb 433A5C55 		.ascii	"C:\\Users\\D\341niel\\git\\Smarty\\smarty\\firmware"
 4991      73657273 
 4991      5C44E16E 
 4991      69656C5C 
 4991      6769745C 
 4992 05f5 00       		.ascii	"\000"
 4993              	.LASF74:
 4994 05f6 52584352 		.ascii	"RXCRCR\000"
 4994      435200
 4995              	.LASF142:
 4996 05fd 7370695F 		.ascii	"spi_lld_start\000"
 4996      6C6C645F 
 4996      73746172 
 4996      7400
 4997              	.LASF3:
 4998 060b 75696E74 		.ascii	"uint8_t\000"
 4998      385F7400 
 4999              	.LASF123:
 5000 0613 73706970 		.ascii	"spip\000"
 5000      00
 5001              	.LASF61:
 5002 0618 77746F62 		.ascii	"wtobjp\000"
 5002      6A7000
 5003              	.LASF29:
 5004 061f 705F6E61 		.ascii	"p_name\000"
ARM GAS  C:\Users\DNIEL~1\AppData\Local\Temp\ccfZfb0o.s 			page 94


 5004      6D6500
 5005              	.LASF135:
 5006 0626 73706953 		.ascii	"spiSend\000"
 5006      656E6400 
 5007              	.LASF119:
 5008 062e 53504943 		.ascii	"SPIConfig\000"
 5008      6F6E6669 
 5008      6700
 5009              	.LASF37:
 5010 0638 705F6D73 		.ascii	"p_msg\000"
 5010      6700
 5011              	.LASF57:
 5012 063e 6D5F6F77 		.ascii	"m_owner\000"
 5012      6E657200 
 5013              	.LASF26:
 5014 0646 705F6374 		.ascii	"p_ctx\000"
 5014      7800
 5015              	.LASF35:
 5016 064c 705F7761 		.ascii	"p_waiting\000"
 5016      6974696E 
 5016      6700
 5017              		.ident	"GCC: (GNU Tools for ARM Embedded Processors) 4.7.4 20140401 (release) [ARM/embedded-4_7-br
ARM GAS  C:\Users\DNIEL~1\AppData\Local\Temp\ccfZfb0o.s 			page 95


DEFINED SYMBOLS
                            *ABS*:00000000 spi.c
C:\Users\DNIEL~1\AppData\Local\Temp\ccfZfb0o.s:19     .text.spiInit:00000000 $t
C:\Users\DNIEL~1\AppData\Local\Temp\ccfZfb0o.s:25     .text.spiInit:00000000 spiInit
C:\Users\DNIEL~1\AppData\Local\Temp\ccfZfb0o.s:41     .text.spiObjectInit:00000000 $t
C:\Users\DNIEL~1\AppData\Local\Temp\ccfZfb0o.s:47     .text.spiObjectInit:00000000 spiObjectInit
C:\Users\DNIEL~1\AppData\Local\Temp\ccfZfb0o.s:75     .text.spiStart:00000000 $t
C:\Users\DNIEL~1\AppData\Local\Temp\ccfZfb0o.s:81     .text.spiStart:00000000 spiStart
C:\Users\DNIEL~1\AppData\Local\Temp\ccfZfb0o.s:131    .text.spiStop:00000000 $t
C:\Users\DNIEL~1\AppData\Local\Temp\ccfZfb0o.s:137    .text.spiStop:00000000 spiStop
C:\Users\DNIEL~1\AppData\Local\Temp\ccfZfb0o.s:189    .text.spiSelect:00000000 $t
C:\Users\DNIEL~1\AppData\Local\Temp\ccfZfb0o.s:195    .text.spiSelect:00000000 spiSelect
C:\Users\DNIEL~1\AppData\Local\Temp\ccfZfb0o.s:235    .text.spiUnselect:00000000 $t
C:\Users\DNIEL~1\AppData\Local\Temp\ccfZfb0o.s:241    .text.spiUnselect:00000000 spiUnselect
C:\Users\DNIEL~1\AppData\Local\Temp\ccfZfb0o.s:281    .text.spiStartIgnore:00000000 $t
C:\Users\DNIEL~1\AppData\Local\Temp\ccfZfb0o.s:287    .text.spiStartIgnore:00000000 spiStartIgnore
C:\Users\DNIEL~1\AppData\Local\Temp\ccfZfb0o.s:330    .text.spiStartExchange:00000000 $t
C:\Users\DNIEL~1\AppData\Local\Temp\ccfZfb0o.s:336    .text.spiStartExchange:00000000 spiStartExchange
C:\Users\DNIEL~1\AppData\Local\Temp\ccfZfb0o.s:386    .text.spiStartSend:00000000 $t
C:\Users\DNIEL~1\AppData\Local\Temp\ccfZfb0o.s:392    .text.spiStartSend:00000000 spiStartSend
C:\Users\DNIEL~1\AppData\Local\Temp\ccfZfb0o.s:440    .text.spiStartReceive:00000000 $t
C:\Users\DNIEL~1\AppData\Local\Temp\ccfZfb0o.s:446    .text.spiStartReceive:00000000 spiStartReceive
C:\Users\DNIEL~1\AppData\Local\Temp\ccfZfb0o.s:494    .text.spiIgnore:00000000 $t
C:\Users\DNIEL~1\AppData\Local\Temp\ccfZfb0o.s:500    .text.spiIgnore:00000000 spiIgnore
C:\Users\DNIEL~1\AppData\Local\Temp\ccfZfb0o.s:556    .text.spiExchange:00000000 $t
C:\Users\DNIEL~1\AppData\Local\Temp\ccfZfb0o.s:562    .text.spiExchange:00000000 spiExchange
C:\Users\DNIEL~1\AppData\Local\Temp\ccfZfb0o.s:620    .text.spiSend:00000000 $t
C:\Users\DNIEL~1\AppData\Local\Temp\ccfZfb0o.s:626    .text.spiSend:00000000 spiSend
C:\Users\DNIEL~1\AppData\Local\Temp\ccfZfb0o.s:682    .text.spiReceive:00000000 $t
C:\Users\DNIEL~1\AppData\Local\Temp\ccfZfb0o.s:688    .text.spiReceive:00000000 spiReceive
C:\Users\DNIEL~1\AppData\Local\Temp\ccfZfb0o.s:744    .text.spiAcquireBus:00000000 $t
C:\Users\DNIEL~1\AppData\Local\Temp\ccfZfb0o.s:750    .text.spiAcquireBus:00000000 spiAcquireBus
C:\Users\DNIEL~1\AppData\Local\Temp\ccfZfb0o.s:769    .text.spiReleaseBus:00000000 $t
C:\Users\DNIEL~1\AppData\Local\Temp\ccfZfb0o.s:775    .text.spiReleaseBus:00000000 spiReleaseBus
                     .debug_frame:00000010 $d

UNDEFINED SYMBOLS
spi_lld_init
chMtxInit
spi_lld_start
spi_lld_unselect
spi_lld_stop
spi_lld_select
spi_lld_ignore
spi_lld_exchange
spi_lld_send
spi_lld_receive
rlist
chSchGoSleepS
chMtxLock
chMtxUnlock
