ARM GAS  C:\Users\DNIEL~1\AppData\Local\Temp\cc47TTCl.s 			page 1


   1              		.syntax unified
   2              		.cpu cortex-m4
   3              		.fpu softvfp
   4              		.eabi_attribute 20, 1
   5              		.eabi_attribute 21, 1
   6              		.eabi_attribute 23, 3
   7              		.eabi_attribute 24, 1
   8              		.eabi_attribute 25, 1
   9              		.eabi_attribute 26, 1
  10              		.eabi_attribute 30, 2
  11              		.eabi_attribute 18, 4
  12              		.thumb
  13              		.file	"spi_lld.c"
  20 0000 A8040000 		.text
  20      0200C802 
  20      00000201 
  20      FB0E0D00 
  20      01010101 
  21              	.Ltext0:
  22              		.cfi_sections	.debug_frame
  23              		.section	.text.spi_lld_serve_tx_interrupt,"ax",%progbits
  24              		.align	2
  25              		.p2align 4,,15
  26              		.thumb
  27              		.thumb_func
  28              		.type	spi_lld_serve_tx_interrupt, %function
  29              	spi_lld_serve_tx_interrupt:
  30              	.LFB119:
  31              		.file 1 "../../../ChibiOS/os/hal/platforms/STM32/spi_lld.c"
  32              		.loc 1 124 0
  33              		.cfi_startproc
  34              		@ args = 0, pretend = 0, frame = 0
  35              		@ frame_needed = 0, uses_anonymous_args = 0
  36              		@ link register save eliminated.
  37              	.LVL0:
  38              		.loc 1 129 0
  39 0000 11F00C0F 		tst	r1, #12
  40 0004 00D1     		bne	.L4
  41 0006 7047     		bx	lr
  42              	.L4:
  43              		.loc 1 136 0
  44              		.loc 1 130 0
  45 0008 FFF7FEBF 		b	port_halt
  46              		.cfi_endproc
  47              	.LFE119:
  48              		.size	spi_lld_serve_tx_interrupt, .-spi_lld_serve_tx_interrupt
  49 000c AFF30080 		.section	.text.spi_lld_serve_rx_interrupt,"ax",%progbits
  50              		.align	2
  51              		.p2align 4,,15
  52              		.thumb
  53              		.thumb_func
ARM GAS  C:\Users\DNIEL~1\AppData\Local\Temp\cc47TTCl.s 			page 2


  54              		.type	spi_lld_serve_rx_interrupt, %function
  55              	spi_lld_serve_rx_interrupt:
  56              	.LFB118:
  57              		.loc 1 98 0
  58              		.cfi_startproc
  59              		@ args = 0, pretend = 0, frame = 0
  60              		@ frame_needed = 0, uses_anonymous_args = 0
  61              	.LVL1:
  62              		.loc 1 102 0
  63 0000 11F00C0F 		tst	r1, #12
  64              		.loc 1 98 0
  65 0004 38B5     		push	{r3, r4, r5, lr}
  66              	.LCFI0:
  67              		.cfi_def_cfa_offset 16
  68              		.loc 1 98 0
  69 0006 0446     		mov	r4, r0
  70              		.cfi_offset 14, -4
  71              		.cfi_offset 5, -8
  72              		.cfi_offset 4, -12
  73              		.cfi_offset 3, -16
  74              		.loc 1 102 0
  75 0008 39D1     		bne	.L14
  76              	.LVL2:
  77              	.L6:
  78              		.loc 1 110 0
  79 000a 606A     		ldr	r0, [r4, #36]
  80 000c 0268     		ldr	r2, [r0, #0]
  81 000e 1168     		ldr	r1, [r2, #0]
  82 0010 21F00103 		bic	r3, r1, #1
  83 0014 1360     		str	r3, [r2, #0]
  84              	.L7:
  85              		.loc 1 110 0 is_stmt 0 discriminator 1
  86 0016 1568     		ldr	r5, [r2, #0]
  87 0018 15F0010F 		tst	r5, #1
  88 001c FBD1     		bne	.L7
  89              		.loc 1 110 0 discriminator 2
  90 001e 057A     		ldrb	r5, [r0, #8]	@ zero_extendqisi2
  91              		.loc 1 111 0 is_stmt 1 discriminator 2
  92 0020 216A     		ldr	r1, [r4, #32]
  93              		.loc 1 110 0 discriminator 2
  94 0022 4368     		ldr	r3, [r0, #4]
  95              		.loc 1 111 0 discriminator 2
  96 0024 0A68     		ldr	r2, [r1, #0]
  97              		.loc 1 110 0 discriminator 2
  98 0026 3D20     		movs	r0, #61
  99 0028 A840     		lsls	r0, r0, r5
 100 002a 1860     		str	r0, [r3, #0]
 101              		.loc 1 111 0 discriminator 2
 102 002c 1368     		ldr	r3, [r2, #0]
 103 002e 23F00100 		bic	r0, r3, #1
 104 0032 1060     		str	r0, [r2, #0]
 105              	.L8:
 106              		.loc 1 111 0 is_stmt 0 discriminator 1
 107 0034 1368     		ldr	r3, [r2, #0]
 108 0036 13F0010F 		tst	r3, #1
 109 003a FBD1     		bne	.L8
 110              		.loc 1 115 0 is_stmt 1 discriminator 2
ARM GAS  C:\Users\DNIEL~1\AppData\Local\Temp\cc47TTCl.s 			page 3


 111 003c 6368     		ldr	r3, [r4, #4]
 112              		.loc 1 111 0 discriminator 2
 113 003e 087A     		ldrb	r0, [r1, #8]	@ zero_extendqisi2
 114 0040 4A68     		ldr	r2, [r1, #4]
 115              		.loc 1 115 0 discriminator 2
 116 0042 1B68     		ldr	r3, [r3, #0]
 117              		.loc 1 111 0 discriminator 2
 118 0044 3D21     		movs	r1, #61
 119 0046 8140     		lsls	r1, r1, r0
 120 0048 1160     		str	r1, [r2, #0]
 121              		.loc 1 115 0 discriminator 2
 122 004a ABB1     		cbz	r3, .L9
 123              		.loc 1 115 0 is_stmt 0 discriminator 1
 124 004c 0422     		movs	r2, #4
 125 004e 2270     		strb	r2, [r4, #0]
 126 0050 2046     		mov	r0, r4
 127 0052 9847     		blx	r3
 128 0054 94F800C0 		ldrb	ip, [r4, #0]	@ zero_extendqisi2
 129 0058 BCF1040F 		cmp	ip, #4
 130 005c 0CD0     		beq	.L9
 131              	.L10:
 132              		.loc 1 115 0 discriminator 4
 133 005e A068     		ldr	r0, [r4, #8]
 134 0060 48B1     		cbz	r0, .L5
 135              	.LVL3:
 136              	.LBB2:
 137              		.loc 1 115 0 discriminator 5
 138 0062 0025     		movs	r5, #0
 139 0064 A560     		str	r5, [r4, #8]
 140              	.LBB3:
 141 0066 2023     		movs	r3, #32
 142              	.LVL4:
 143              	@ 115 "../../../ChibiOS/os/hal/platforms/STM32/spi_lld.c" 1
 144 0068 83F31188 		msr     BASEPRI, r3
 145              	@ 0 "" 2
 146              	.LVL5:
 147              		.thumb
 148              	.LBE3:
 149 006c FFF7FEFF 		bl	chSchReadyI
 150              	.LVL6:
 151              	.LBB4:
 152 0070 2B46     		mov	r3, r5
 153              	.LVL7:
 154              	@ 115 "../../../ChibiOS/os/hal/platforms/STM32/spi_lld.c" 1
 155 0072 83F31188 		msr     BASEPRI, r3
 156              	@ 0 "" 2
 157              	.LVL8:
 158              		.thumb
 159              	.L5:
 160 0076 38BD     		pop	{r3, r4, r5, pc}
 161              	.LVL9:
 162              	.L9:
 163              	.LBE4:
 164              	.LBE2:
 165              		.loc 1 115 0 discriminator 2
 166 0078 0221     		movs	r1, #2
 167 007a 2170     		strb	r1, [r4, #0]
ARM GAS  C:\Users\DNIEL~1\AppData\Local\Temp\cc47TTCl.s 			page 4


 168 007c EFE7     		b	.L10
 169              	.LVL10:
 170              	.L14:
 171              		.loc 1 103 0 is_stmt 1
 172 007e FFF7FEFF 		bl	port_halt
 173              	.LVL11:
 174 0082 C2E7     		b	.L6
 175              		.cfi_endproc
 176              	.LFE118:
 177              		.size	spi_lld_serve_rx_interrupt, .-spi_lld_serve_rx_interrupt
 178 0084 AFF30080 		.section	.text.spi_lld_init,"ax",%progbits
 178      AFF30080 
 178      AFF30080 
 179              		.align	2
 180              		.p2align 4,,15
 181              		.global	spi_lld_init
 182              		.thumb
 183              		.thumb_func
 184              		.type	spi_lld_init, %function
 185              	spi_lld_init:
 186              	.LFB120:
 187              		.loc 1 151 0
 188              		.cfi_startproc
 189              		@ args = 0, pretend = 0, frame = 0
 190              		@ frame_needed = 0, uses_anonymous_args = 0
 191 0000 10B5     		push	{r4, lr}
 192              	.LCFI1:
 193              		.cfi_def_cfa_offset 8
 194              		.loc 1 153 0
 195 0002 0A4B     		ldr	r3, .L16
 196              		.loc 1 174 0
 197 0004 0A4C     		ldr	r4, .L16+4
 198              		.cfi_offset 14, -4
 199              		.cfi_offset 4, -8
 200              		.loc 1 153 0
 201 0006 4FF0FF3C 		mov	ip, #-1	@ movhi
 202              		.loc 1 174 0
 203 000a 2046     		mov	r0, r4
 204              		.loc 1 153 0
 205 000c A3F800C0 		strh	ip, [r3, #0]	@ movhi
 206              		.loc 1 174 0
 207 0010 FFF7FEFF 		bl	spiObjectInit
 208              		.loc 1 176 0
 209 0014 0748     		ldr	r0, .L16+8
 210              		.loc 1 178 0
 211 0016 084B     		ldr	r3, .L16+12
 212              		.loc 1 175 0
 213 0018 0849     		ldr	r1, .L16+16
 214              		.loc 1 178 0
 215 001a A362     		str	r3, [r4, #40]
 216              		.loc 1 177 0
 217 001c 00F10C02 		add	r2, r0, #12
 218              		.loc 1 184 0
 219 0020 3033     		adds	r3, r3, #48
 220              		.loc 1 175 0
 221 0022 E161     		str	r1, [r4, #28]
 222              		.loc 1 176 0
ARM GAS  C:\Users\DNIEL~1\AppData\Local\Temp\cc47TTCl.s 			page 5


 223 0024 2062     		str	r0, [r4, #32]
 224              		.loc 1 177 0
 225 0026 6262     		str	r2, [r4, #36]
 226              		.loc 1 184 0
 227 0028 E362     		str	r3, [r4, #44]
 228              		.loc 1 208 0
 229 002a 10BD     		pop	{r4, pc}
 230              	.L17:
 231              		.align	2
 232              	.L16:
 233 002c 00000000 		.word	.LANCHOR0
 234 0030 00000000 		.word	.LANCHOR1
 235 0034 24000000 		.word	_stm32_dma_streams+36
 236 0038 16000100 		.word	65558
 237 003c 00380040 		.word	1073756160
 238              		.cfi_endproc
 239              	.LFE120:
 240              		.size	spi_lld_init, .-spi_lld_init
 241              		.section	.text.spi_lld_start,"ax",%progbits
 242              		.align	2
 243              		.p2align 4,,15
 244              		.global	spi_lld_start
 245              		.thumb
 246              		.thumb_func
 247              		.type	spi_lld_start, %function
 248              	spi_lld_start:
 249              	.LFB121:
 250              		.loc 1 217 0
 251              		.cfi_startproc
 252              		@ args = 0, pretend = 0, frame = 0
 253              		@ frame_needed = 0, uses_anonymous_args = 0
 254              	.LVL12:
 255              		.loc 1 220 0
 256 0000 0378     		ldrb	r3, [r0, #0]	@ zero_extendqisi2
 257 0002 012B     		cmp	r3, #1
 258              		.loc 1 217 0
 259 0004 10B5     		push	{r4, lr}
 260              	.LCFI2:
 261              		.cfi_def_cfa_offset 8
 262              		.loc 1 217 0
 263 0006 0446     		mov	r4, r0
 264              		.cfi_offset 14, -4
 265              		.cfi_offset 4, -8
 266              		.loc 1 220 0
 267 0008 28D0     		beq	.L24
 268 000a C369     		ldr	r3, [r0, #28]
 269              	.LVL13:
 270              	.L19:
 271              		.loc 1 280 0
 272 000c 6068     		ldr	r0, [r4, #4]
 273 000e 4289     		ldrh	r2, [r0, #10]
 274 0010 12F4006F 		tst	r2, #2048
 275 0014 19D0     		beq	.L25
 276              		.loc 1 292 0
 277 0016 E16A     		ldr	r1, [r4, #44]
 278              		.loc 1 290 0
 279 0018 A06A     		ldr	r0, [r4, #40]
ARM GAS  C:\Users\DNIEL~1\AppData\Local\Temp\cc47TTCl.s 			page 6


 280              		.loc 1 292 0
 281 001a 21F4D04C 		bic	ip, r1, #26624
 282              		.loc 1 290 0
 283 001e 20F4D040 		bic	r0, r0, #26624
 284              		.loc 1 291 0
 285 0022 40F42050 		orr	r0, r0, #10240
 286              		.loc 1 293 0
 287 0026 4CF42051 		orr	r1, ip, #10240
 288              		.loc 1 290 0
 289 002a A062     		str	r0, [r4, #40]
 290              		.loc 1 292 0
 291 002c E162     		str	r1, [r4, #44]
 292              	.L22:
 293              		.loc 1 297 0
 294 002e 42F44172 		orr	r2, r2, #772
 295              		.loc 1 296 0
 296 0032 0021     		movs	r1, #0
 297              		.loc 1 299 0
 298 0034 0720     		movs	r0, #7
 299              		.loc 1 296 0
 300 0036 1980     		strh	r1, [r3, #0]	@ movhi
 301              		.loc 1 297 0
 302 0038 1A80     		strh	r2, [r3, #0]	@ movhi
 303              		.loc 1 299 0
 304 003a 9880     		strh	r0, [r3, #4]	@ movhi
 305              		.loc 1 300 0
 306 003c 1988     		ldrh	r1, [r3, #0]
 307 003e 1FFA81FC 		uxth	ip, r1
 308 0042 4CF04002 		orr	r2, ip, #64
 309 0046 1A80     		strh	r2, [r3, #0]	@ movhi
 310              		.loc 1 301 0
 311 0048 10BD     		pop	{r4, pc}
 312              	.L25:
 313              		.loc 1 284 0
 314 004a A06A     		ldr	r0, [r4, #40]
 315              		.loc 1 286 0
 316 004c E16A     		ldr	r1, [r4, #44]
 317              		.loc 1 284 0
 318 004e 20F4C040 		bic	r0, r0, #24576
 319              		.loc 1 286 0
 320 0052 21F4C041 		bic	r1, r1, #24576
 321              		.loc 1 283 0
 322 0056 A062     		str	r0, [r4, #40]
 323              		.loc 1 285 0
 324 0058 E162     		str	r1, [r4, #44]
 325 005a E8E7     		b	.L22
 326              	.L24:
 327              		.loc 1 238 0
 328 005c 0F49     		ldr	r1, .L27
 329 005e 8842     		cmp	r0, r1
 330 0060 09D0     		beq	.L26
 331              	.L20:
 332              		.loc 1 271 0
 333 0062 216A     		ldr	r1, [r4, #32]
 334              		.loc 1 272 0
 335 0064 626A     		ldr	r2, [r4, #36]
 336              		.loc 1 271 0
ARM GAS  C:\Users\DNIEL~1\AppData\Local\Temp\cc47TTCl.s 			page 7


 337 0066 E369     		ldr	r3, [r4, #28]
 338 0068 0868     		ldr	r0, [r1, #0]
 339              		.loc 1 272 0
 340 006a 1168     		ldr	r1, [r2, #0]
 341              		.loc 1 271 0
 342 006c 03F10C02 		add	r2, r3, #12
 343 0070 8260     		str	r2, [r0, #8]
 344              		.loc 1 272 0
 345 0072 8A60     		str	r2, [r1, #8]
 346 0074 CAE7     		b	.L19
 347              	.L26:
 348              	.LBB5:
 349              		.loc 1 240 0
 350 0076 0A21     		movs	r1, #10
 351 0078 094A     		ldr	r2, .L27+4
 352 007a 006A     		ldr	r0, [r0, #32]
 353 007c 2346     		mov	r3, r4
 354 007e FFF7FEFF 		bl	dmaStreamAllocate
 355              		.loc 1 245 0
 356 0082 084A     		ldr	r2, .L27+8
 357 0084 606A     		ldr	r0, [r4, #36]
 358 0086 2346     		mov	r3, r4
 359 0088 0A21     		movs	r1, #10
 360 008a FFF7FEFF 		bl	dmaStreamAllocate
 361              		.loc 1 250 0
 362 008e 0648     		ldr	r0, .L27+12
 363 0090 036C     		ldr	r3, [r0, #64]
 364 0092 43F48042 		orr	r2, r3, #16384
 365 0096 0264     		str	r2, [r0, #64]
 366 0098 E3E7     		b	.L20
 367              	.L28:
 368 009a 00BF     		.align	2
 369              	.L27:
 370 009c 00000000 		.word	.LANCHOR1
 371 00a0 00000000 		.word	spi_lld_serve_rx_interrupt
 372 00a4 00000000 		.word	spi_lld_serve_tx_interrupt
 373 00a8 00380240 		.word	1073887232
 374              	.LBE5:
 375              		.cfi_endproc
 376              	.LFE121:
 377              		.size	spi_lld_start, .-spi_lld_start
 378 00ac AFF30080 		.section	.text.spi_lld_stop,"ax",%progbits
 379              		.align	2
 380              		.p2align 4,,15
 381              		.global	spi_lld_stop
 382              		.thumb
 383              		.thumb_func
 384              		.type	spi_lld_stop, %function
 385              	spi_lld_stop:
 386              	.LFB122:
 387              		.loc 1 310 0
 388              		.cfi_startproc
 389              		@ args = 0, pretend = 0, frame = 0
 390              		@ frame_needed = 0, uses_anonymous_args = 0
 391              	.LVL14:
 392              		.loc 1 313 0
 393 0000 0378     		ldrb	r3, [r0, #0]	@ zero_extendqisi2
ARM GAS  C:\Users\DNIEL~1\AppData\Local\Temp\cc47TTCl.s 			page 8


 394 0002 022B     		cmp	r3, #2
 395              		.loc 1 310 0
 396 0004 10B5     		push	{r4, lr}
 397              	.LCFI3:
 398              		.cfi_def_cfa_offset 8
 399              		.loc 1 310 0
 400 0006 0446     		mov	r4, r0
 401              		.cfi_offset 14, -4
 402              		.cfi_offset 4, -8
 403              		.loc 1 313 0
 404 0008 00D0     		beq	.L31
 405              	.LVL15:
 406              	.L29:
 407 000a 10BD     		pop	{r4, pc}
 408              	.L31:
 409              		.loc 1 316 0
 410 000c C169     		ldr	r1, [r0, #28]
 411              		.loc 1 317 0
 412 000e 006A     		ldr	r0, [r0, #32]
 413              		.loc 1 316 0
 414 0010 0022     		movs	r2, #0
 415 0012 0A80     		strh	r2, [r1, #0]	@ movhi
 416              		.loc 1 317 0
 417 0014 FFF7FEFF 		bl	dmaStreamRelease
 418              		.loc 1 318 0
 419 0018 606A     		ldr	r0, [r4, #36]
 420 001a FFF7FEFF 		bl	dmaStreamRelease
 421              		.loc 1 325 0
 422 001e 0448     		ldr	r0, .L32
 423 0020 8442     		cmp	r4, r0
 424 0022 F2D1     		bne	.L29
 425              		.loc 1 326 0
 426 0024 034B     		ldr	r3, .L32+4
 427 0026 1A6C     		ldr	r2, [r3, #64]
 428 0028 22F48040 		bic	r0, r2, #16384
 429 002c 1864     		str	r0, [r3, #64]
 430 002e ECE7     		b	.L29
 431              	.L33:
 432              		.align	2
 433              	.L32:
 434 0030 00000000 		.word	.LANCHOR1
 435 0034 00380240 		.word	1073887232
 436              		.cfi_endproc
 437              	.LFE122:
 438              		.size	spi_lld_stop, .-spi_lld_stop
 439 0038 AFF30080 		.section	.text.spi_lld_select,"ax",%progbits
 439      AFF30080 
 440              		.align	2
 441              		.p2align 4,,15
 442              		.global	spi_lld_select
 443              		.thumb
 444              		.thumb_func
 445              		.type	spi_lld_select, %function
 446              	spi_lld_select:
 447              	.LFB123:
 448              		.loc 1 342 0
 449              		.cfi_startproc
ARM GAS  C:\Users\DNIEL~1\AppData\Local\Temp\cc47TTCl.s 			page 9


 450              		@ args = 0, pretend = 0, frame = 0
 451              		@ frame_needed = 0, uses_anonymous_args = 0
 452              		@ link register save eliminated.
 453              	.LVL16:
 454              		.loc 1 344 0
 455 0000 4268     		ldr	r2, [r0, #4]
 456 0002 1089     		ldrh	r0, [r2, #8]
 457              	.LVL17:
 458 0004 5368     		ldr	r3, [r2, #4]
 459 0006 0121     		movs	r1, #1
 460 0008 11FA00F2 		lsls	r2, r1, r0
 461 000c 5A83     		strh	r2, [r3, #26]	@ movhi
 462              		.loc 1 345 0
 463 000e 7047     		bx	lr
 464              		.cfi_endproc
 465              	.LFE123:
 466              		.size	spi_lld_select, .-spi_lld_select
 467              		.section	.text.spi_lld_unselect,"ax",%progbits
 468              		.align	2
 469              		.p2align 4,,15
 470              		.global	spi_lld_unselect
 471              		.thumb
 472              		.thumb_func
 473              		.type	spi_lld_unselect, %function
 474              	spi_lld_unselect:
 475              	.LFB124:
 476              		.loc 1 355 0
 477              		.cfi_startproc
 478              		@ args = 0, pretend = 0, frame = 0
 479              		@ frame_needed = 0, uses_anonymous_args = 0
 480              		@ link register save eliminated.
 481              	.LVL18:
 482              		.loc 1 357 0
 483 0000 4268     		ldr	r2, [r0, #4]
 484 0002 1089     		ldrh	r0, [r2, #8]
 485              	.LVL19:
 486 0004 5368     		ldr	r3, [r2, #4]
 487 0006 0121     		movs	r1, #1
 488 0008 11FA00F2 		lsls	r2, r1, r0
 489 000c 1A83     		strh	r2, [r3, #24]	@ movhi
 490              		.loc 1 358 0
 491 000e 7047     		bx	lr
 492              		.cfi_endproc
 493              	.LFE124:
 494              		.size	spi_lld_unselect, .-spi_lld_unselect
 495              		.section	.text.spi_lld_ignore,"ax",%progbits
 496              		.align	2
 497              		.p2align 4,,15
 498              		.global	spi_lld_ignore
 499              		.thumb
 500              		.thumb_func
 501              		.type	spi_lld_ignore, %function
 502              	spi_lld_ignore:
 503              	.LFB125:
 504              		.loc 1 371 0
 505              		.cfi_startproc
 506              		@ args = 0, pretend = 0, frame = 0
ARM GAS  C:\Users\DNIEL~1\AppData\Local\Temp\cc47TTCl.s 			page 10


 507              		@ frame_needed = 0, uses_anonymous_args = 0
 508              		@ link register save eliminated.
 509              	.LVL20:
 510              		.loc 1 373 0
 511 0000 036A     		ldr	r3, [r0, #32]
 512              		.loc 1 371 0
 513 0002 30B4     		push	{r4, r5}
 514              	.LCFI4:
 515              		.cfi_def_cfa_offset 8
 516              		.loc 1 377 0
 517 0004 456A     		ldr	r5, [r0, #36]
 518              		.cfi_offset 5, -4
 519              		.cfi_offset 4, -8
 520              		.loc 1 375 0
 521 0006 846A     		ldr	r4, [r0, #40]
 522              		.loc 1 373 0
 523 0008 1A68     		ldr	r2, [r3, #0]
 524              		.loc 1 377 0
 525 000a 2B68     		ldr	r3, [r5, #0]
 526              		.loc 1 373 0
 527 000c 094D     		ldr	r5, .L37
 528              		.loc 1 379 0
 529 000e C06A     		ldr	r0, [r0, #44]
 530              	.LVL21:
 531              		.loc 1 373 0
 532 0010 D560     		str	r5, [r2, #12]
 533              		.loc 1 374 0
 534 0012 5160     		str	r1, [r2, #4]
 535              		.loc 1 375 0
 536 0014 1460     		str	r4, [r2, #0]
 537              		.loc 1 377 0
 538 0016 084C     		ldr	r4, .L37+4
 539 0018 DC60     		str	r4, [r3, #12]
 540              		.loc 1 378 0
 541 001a 5960     		str	r1, [r3, #4]
 542              		.loc 1 379 0
 543 001c 1860     		str	r0, [r3, #0]
 544              		.loc 1 381 0
 545 001e 1068     		ldr	r0, [r2, #0]
 546 0020 40F00101 		orr	r1, r0, #1
 547              	.LVL22:
 548 0024 1160     		str	r1, [r2, #0]
 549              		.loc 1 382 0
 550 0026 1868     		ldr	r0, [r3, #0]
 551 0028 40F00102 		orr	r2, r0, #1
 552              	.LVL23:
 553 002c 1A60     		str	r2, [r3, #0]
 554              		.loc 1 383 0
 555 002e 30BC     		pop	{r4, r5}
 556 0030 7047     		bx	lr
 557              	.L38:
 558 0032 00BF     		.align	2
 559              	.L37:
 560 0034 00000000 		.word	.LANCHOR2
 561 0038 00000000 		.word	.LANCHOR0
 562              		.cfi_endproc
 563              	.LFE125:
ARM GAS  C:\Users\DNIEL~1\AppData\Local\Temp\cc47TTCl.s 			page 11


 564              		.size	spi_lld_ignore, .-spi_lld_ignore
 565 003c AFF30080 		.section	.text.spi_lld_exchange,"ax",%progbits
 566              		.align	2
 567              		.p2align 4,,15
 568              		.global	spi_lld_exchange
 569              		.thumb
 570              		.thumb_func
 571              		.type	spi_lld_exchange, %function
 572              	spi_lld_exchange:
 573              	.LFB126:
 574              		.loc 1 401 0
 575              		.cfi_startproc
 576              		@ args = 0, pretend = 0, frame = 0
 577              		@ frame_needed = 0, uses_anonymous_args = 0
 578              		@ link register save eliminated.
 579              	.LVL24:
 580 0000 F0B4     		push	{r4, r5, r6, r7}
 581              	.LCFI5:
 582              		.cfi_def_cfa_offset 16
 583              		.loc 1 403 0
 584 0002 046A     		ldr	r4, [r0, #32]
 585              		.cfi_offset 7, -4
 586              		.cfi_offset 6, -8
 587              		.cfi_offset 5, -12
 588              		.cfi_offset 4, -16
 589              		.loc 1 407 0
 590 0004 476A     		ldr	r7, [r0, #36]
 591              		.loc 1 405 0
 592 0006 866A     		ldr	r6, [r0, #40]
 593              		.loc 1 409 0
 594 0008 C56A     		ldr	r5, [r0, #44]
 595              		.loc 1 403 0
 596 000a 2468     		ldr	r4, [r4, #0]
 597              		.loc 1 407 0
 598 000c 3868     		ldr	r0, [r7, #0]
 599              	.LVL25:
 600              		.loc 1 403 0
 601 000e E360     		str	r3, [r4, #12]
 602              		.loc 1 405 0
 603 0010 46F48066 		orr	r6, r6, #1024
 604              		.loc 1 409 0
 605 0014 45F48065 		orr	r5, r5, #1024
 606              		.loc 1 404 0
 607 0018 6160     		str	r1, [r4, #4]
 608              		.loc 1 405 0
 609 001a 2660     		str	r6, [r4, #0]
 610              		.loc 1 407 0
 611 001c C260     		str	r2, [r0, #12]
 612              		.loc 1 408 0
 613 001e 4160     		str	r1, [r0, #4]
 614              		.loc 1 409 0
 615 0020 0560     		str	r5, [r0, #0]
 616              		.loc 1 411 0
 617 0022 2368     		ldr	r3, [r4, #0]
 618              	.LVL26:
 619 0024 43F00102 		orr	r2, r3, #1
 620              	.LVL27:
ARM GAS  C:\Users\DNIEL~1\AppData\Local\Temp\cc47TTCl.s 			page 12


 621 0028 2260     		str	r2, [r4, #0]
 622              		.loc 1 412 0
 623 002a 0168     		ldr	r1, [r0, #0]
 624              	.LVL28:
 625 002c 41F00103 		orr	r3, r1, #1
 626 0030 0360     		str	r3, [r0, #0]
 627              		.loc 1 413 0
 628 0032 F0BC     		pop	{r4, r5, r6, r7}
 629 0034 7047     		bx	lr
 630              		.cfi_endproc
 631              	.LFE126:
 632              		.size	spi_lld_exchange, .-spi_lld_exchange
 633 0036 00BFAFF3 		.section	.text.spi_lld_send,"ax",%progbits
 633      0080AFF3 
 633      0080
 634              		.align	2
 635              		.p2align 4,,15
 636              		.global	spi_lld_send
 637              		.thumb
 638              		.thumb_func
 639              		.type	spi_lld_send, %function
 640              	spi_lld_send:
 641              	.LFB127:
 642              		.loc 1 428 0
 643              		.cfi_startproc
 644              		@ args = 0, pretend = 0, frame = 0
 645              		@ frame_needed = 0, uses_anonymous_args = 0
 646              		@ link register save eliminated.
 647              	.LVL29:
 648 0000 70B4     		push	{r4, r5, r6}
 649              	.LCFI6:
 650              		.cfi_def_cfa_offset 12
 651              		.loc 1 434 0
 652 0002 466A     		ldr	r6, [r0, #36]
 653              		.cfi_offset 6, -4
 654              		.cfi_offset 5, -8
 655              		.cfi_offset 4, -12
 656              		.loc 1 430 0
 657 0004 046A     		ldr	r4, [r0, #32]
 658              		.loc 1 436 0
 659 0006 C56A     		ldr	r5, [r0, #44]
 660              		.loc 1 434 0
 661 0008 3368     		ldr	r3, [r6, #0]
 662              		.loc 1 430 0
 663 000a 2468     		ldr	r4, [r4, #0]
 664              		.loc 1 432 0
 665 000c 806A     		ldr	r0, [r0, #40]
 666              	.LVL30:
 667              		.loc 1 430 0
 668 000e 094E     		ldr	r6, .L41
 669              		.loc 1 436 0
 670 0010 45F48065 		orr	r5, r5, #1024
 671              		.loc 1 430 0
 672 0014 E660     		str	r6, [r4, #12]
 673              		.loc 1 431 0
 674 0016 6160     		str	r1, [r4, #4]
 675              		.loc 1 432 0
ARM GAS  C:\Users\DNIEL~1\AppData\Local\Temp\cc47TTCl.s 			page 13


 676 0018 2060     		str	r0, [r4, #0]
 677              		.loc 1 434 0
 678 001a DA60     		str	r2, [r3, #12]
 679              		.loc 1 435 0
 680 001c 5960     		str	r1, [r3, #4]
 681              		.loc 1 436 0
 682 001e 1D60     		str	r5, [r3, #0]
 683              		.loc 1 438 0
 684 0020 2268     		ldr	r2, [r4, #0]
 685              	.LVL31:
 686 0022 42F00101 		orr	r1, r2, #1
 687              	.LVL32:
 688 0026 2160     		str	r1, [r4, #0]
 689              		.loc 1 439 0
 690 0028 1868     		ldr	r0, [r3, #0]
 691 002a 40F00102 		orr	r2, r0, #1
 692 002e 1A60     		str	r2, [r3, #0]
 693              		.loc 1 440 0
 694 0030 70BC     		pop	{r4, r5, r6}
 695 0032 7047     		bx	lr
 696              	.L42:
 697              		.align	2
 698              	.L41:
 699 0034 00000000 		.word	.LANCHOR2
 700              		.cfi_endproc
 701              	.LFE127:
 702              		.size	spi_lld_send, .-spi_lld_send
 703 0038 AFF30080 		.section	.text.spi_lld_receive,"ax",%progbits
 703      AFF30080 
 704              		.align	2
 705              		.p2align 4,,15
 706              		.global	spi_lld_receive
 707              		.thumb
 708              		.thumb_func
 709              		.type	spi_lld_receive, %function
 710              	spi_lld_receive:
 711              	.LFB128:
 712              		.loc 1 455 0
 713              		.cfi_startproc
 714              		@ args = 0, pretend = 0, frame = 0
 715              		@ frame_needed = 0, uses_anonymous_args = 0
 716              		@ link register save eliminated.
 717              	.LVL33:
 718 0000 30B4     		push	{r4, r5}
 719              	.LCFI7:
 720              		.cfi_def_cfa_offset 8
 721              		.loc 1 457 0
 722 0002 046A     		ldr	r4, [r0, #32]
 723              		.cfi_offset 5, -4
 724              		.cfi_offset 4, -8
 725              		.loc 1 461 0
 726 0004 436A     		ldr	r3, [r0, #36]
 727              		.loc 1 457 0
 728 0006 2468     		ldr	r4, [r4, #0]
 729              		.loc 1 459 0
 730 0008 856A     		ldr	r5, [r0, #40]
 731              		.loc 1 461 0
ARM GAS  C:\Users\DNIEL~1\AppData\Local\Temp\cc47TTCl.s 			page 14


 732 000a 1B68     		ldr	r3, [r3, #0]
 733              		.loc 1 463 0
 734 000c C06A     		ldr	r0, [r0, #44]
 735              	.LVL34:
 736              		.loc 1 457 0
 737 000e E260     		str	r2, [r4, #12]
 738              		.loc 1 461 0
 739 0010 084A     		ldr	r2, .L44
 740              	.LVL35:
 741              		.loc 1 458 0
 742 0012 6160     		str	r1, [r4, #4]
 743              		.loc 1 459 0
 744 0014 45F48065 		orr	r5, r5, #1024
 745 0018 2560     		str	r5, [r4, #0]
 746              		.loc 1 461 0
 747 001a DA60     		str	r2, [r3, #12]
 748              		.loc 1 462 0
 749 001c 5960     		str	r1, [r3, #4]
 750              		.loc 1 463 0
 751 001e 1860     		str	r0, [r3, #0]
 752              		.loc 1 465 0
 753 0020 2268     		ldr	r2, [r4, #0]
 754 0022 42F00101 		orr	r1, r2, #1
 755              	.LVL36:
 756 0026 2160     		str	r1, [r4, #0]
 757              		.loc 1 466 0
 758 0028 1868     		ldr	r0, [r3, #0]
 759 002a 40F00102 		orr	r2, r0, #1
 760 002e 1A60     		str	r2, [r3, #0]
 761              		.loc 1 467 0
 762 0030 30BC     		pop	{r4, r5}
 763 0032 7047     		bx	lr
 764              	.L45:
 765              		.align	2
 766              	.L44:
 767 0034 00000000 		.word	.LANCHOR0
 768              		.cfi_endproc
 769              	.LFE128:
 770              		.size	spi_lld_receive, .-spi_lld_receive
 771 0038 AFF30080 		.section	.text.spi_lld_polled_exchange,"ax",%progbits
 771      AFF30080 
 772              		.align	2
 773              		.p2align 4,,15
 774              		.global	spi_lld_polled_exchange
 775              		.thumb
 776              		.thumb_func
 777              		.type	spi_lld_polled_exchange, %function
 778              	spi_lld_polled_exchange:
 779              	.LFB129:
 780              		.loc 1 481 0
 781              		.cfi_startproc
 782              		@ args = 0, pretend = 0, frame = 0
 783              		@ frame_needed = 0, uses_anonymous_args = 0
 784              		@ link register save eliminated.
 785              	.LVL37:
 786              		.loc 1 483 0
 787 0000 C369     		ldr	r3, [r0, #28]
ARM GAS  C:\Users\DNIEL~1\AppData\Local\Temp\cc47TTCl.s 			page 15


 788 0002 9981     		strh	r1, [r3, #12]	@ movhi
 789              	.L47:
 790              		.loc 1 484 0 discriminator 1
 791 0004 1A89     		ldrh	r2, [r3, #8]
 792 0006 12F0010F 		tst	r2, #1
 793 000a FBD0     		beq	.L47
 794              		.loc 1 486 0
 795 000c 9889     		ldrh	r0, [r3, #12]
 796              	.LVL38:
 797              		.loc 1 487 0
 798 000e 80B2     		uxth	r0, r0
 799 0010 7047     		bx	lr
 800              		.cfi_endproc
 801              	.LFE129:
 802              		.size	spi_lld_polled_exchange, .-spi_lld_polled_exchange
 803              		.global	SPID2
 804 0012 00BFAFF3 		.section	.bss.dummytx,"aw",%nobits
 804      0080AFF3 
 804      0080AFF3 
 804      0080
 805              		.align	1
 806              		.set	.LANCHOR0,. + 0
 807              		.type	dummytx, %object
 808              		.size	dummytx, 2
 809              	dummytx:
 810 0000 0000     		.space	2
 811              		.section	.bss.SPID2,"aw",%nobits
 812              		.align	2
 813              		.set	.LANCHOR1,. + 0
 814              		.type	SPID2, %object
 815              		.size	SPID2, 48
 816              	SPID2:
 817 0000 00000000 		.space	48
 817      00000000 
 817      00000000 
 817      00000000 
 817      00000000 
 818              		.section	.bss.dummyrx,"aw",%nobits
 819              		.align	1
 820              		.set	.LANCHOR2,. + 0
 821              		.type	dummyrx, %object
 822              		.size	dummyrx, 2
 823              	dummyrx:
 824 0000 0000     		.space	2
 825              		.text
 826              	.Letext0: