ARM GAS  C:\Users\DNIEL~1\AppData\Local\Temp\cc47TTCl.s 			page 1


   1              		.syntax unified
   2              		.cpu cortex-m4
   3              		.fpu softvfp
   4              		.eabi_attribute 20, 1
   5              		.eabi_attribute 21, 1
   6              		.eabi_attribute 23, 3
   7              		.eabi_attribute 24, 1
   8              		.eabi_attribute 25, 1
   9              		.eabi_attribute 26, 1
  10              		.eabi_attribute 30, 2
  11              		.eabi_attribute 18, 4
  12              		.thumb
  13              		.file	"spi_lld.c"
  14              		.section	.debug_abbrev,"",%progbits
  15              	.Ldebug_abbrev0:
  16              		.section	.debug_info,"",%progbits
  17              	.Ldebug_info0:
  18              		.section	.debug_line,"",%progbits
  19              	.Ldebug_line0:
  20 0000 A8040000 		.text
  20      0200C802 
  20      00000201 
  20      FB0E0D00 
  20      01010101 
  21              	.Ltext0:
  22              		.cfi_sections	.debug_frame
  23              		.section	.text.spi_lld_serve_tx_interrupt,"ax",%progbits
  24              		.align	2
  25              		.p2align 4,,15
  26              		.thumb
  27              		.thumb_func
  28              		.type	spi_lld_serve_tx_interrupt, %function
  29              	spi_lld_serve_tx_interrupt:
  30              	.LFB119:
  31              		.file 1 "../../../ChibiOS/os/hal/platforms/STM32/spi_lld.c"
  32              		.loc 1 124 0
  33              		.cfi_startproc
  34              		@ args = 0, pretend = 0, frame = 0
  35              		@ frame_needed = 0, uses_anonymous_args = 0
  36              		@ link register save eliminated.
  37              	.LVL0:
  38              		.loc 1 129 0
  39 0000 11F00C0F 		tst	r1, #12
  40 0004 00D1     		bne	.L4
  41 0006 7047     		bx	lr
  42              	.L4:
  43              		.loc 1 136 0
  44              		.loc 1 130 0
  45 0008 FFF7FEBF 		b	port_halt
  46              		.cfi_endproc
  47              	.LFE119:
  48              		.size	spi_lld_serve_tx_interrupt, .-spi_lld_serve_tx_interrupt
  49 000c AFF30080 		.section	.text.spi_lld_serve_rx_interrupt,"ax",%progbits
  50              		.align	2
  51              		.p2align 4,,15
  52              		.thumb
  53              		.thumb_func
ARM GAS  C:\Users\DNIEL~1\AppData\Local\Temp\cc47TTCl.s 			page 2


  54              		.type	spi_lld_serve_rx_interrupt, %function
  55              	spi_lld_serve_rx_interrupt:
  56              	.LFB118:
  57              		.loc 1 98 0
  58              		.cfi_startproc
  59              		@ args = 0, pretend = 0, frame = 0
  60              		@ frame_needed = 0, uses_anonymous_args = 0
  61              	.LVL1:
  62              		.loc 1 102 0
  63 0000 11F00C0F 		tst	r1, #12
  64              		.loc 1 98 0
  65 0004 38B5     		push	{r3, r4, r5, lr}
  66              	.LCFI0:
  67              		.cfi_def_cfa_offset 16
  68              		.loc 1 98 0
  69 0006 0446     		mov	r4, r0
  70              		.cfi_offset 14, -4
  71              		.cfi_offset 5, -8
  72              		.cfi_offset 4, -12
  73              		.cfi_offset 3, -16
  74              		.loc 1 102 0
  75 0008 39D1     		bne	.L14
  76              	.LVL2:
  77              	.L6:
  78              		.loc 1 110 0
  79 000a 606A     		ldr	r0, [r4, #36]
  80 000c 0268     		ldr	r2, [r0, #0]
  81 000e 1168     		ldr	r1, [r2, #0]
  82 0010 21F00103 		bic	r3, r1, #1
  83 0014 1360     		str	r3, [r2, #0]
  84              	.L7:
  85              		.loc 1 110 0 is_stmt 0 discriminator 1
  86 0016 1568     		ldr	r5, [r2, #0]
  87 0018 15F0010F 		tst	r5, #1
  88 001c FBD1     		bne	.L7
  89              		.loc 1 110 0 discriminator 2
  90 001e 057A     		ldrb	r5, [r0, #8]	@ zero_extendqisi2
  91              		.loc 1 111 0 is_stmt 1 discriminator 2
  92 0020 216A     		ldr	r1, [r4, #32]
  93              		.loc 1 110 0 discriminator 2
  94 0022 4368     		ldr	r3, [r0, #4]
  95              		.loc 1 111 0 discriminator 2
  96 0024 0A68     		ldr	r2, [r1, #0]
  97              		.loc 1 110 0 discriminator 2
  98 0026 3D20     		movs	r0, #61
  99 0028 A840     		lsls	r0, r0, r5
 100 002a 1860     		str	r0, [r3, #0]
 101              		.loc 1 111 0 discriminator 2
 102 002c 1368     		ldr	r3, [r2, #0]
 103 002e 23F00100 		bic	r0, r3, #1
 104 0032 1060     		str	r0, [r2, #0]
 105              	.L8:
 106              		.loc 1 111 0 is_stmt 0 discriminator 1
 107 0034 1368     		ldr	r3, [r2, #0]
 108 0036 13F0010F 		tst	r3, #1
 109 003a FBD1     		bne	.L8
 110              		.loc 1 115 0 is_stmt 1 discriminator 2
ARM GAS  C:\Users\DNIEL~1\AppData\Local\Temp\cc47TTCl.s 			page 3


 111 003c 6368     		ldr	r3, [r4, #4]
 112              		.loc 1 111 0 discriminator 2
 113 003e 087A     		ldrb	r0, [r1, #8]	@ zero_extendqisi2
 114 0040 4A68     		ldr	r2, [r1, #4]
 115              		.loc 1 115 0 discriminator 2
 116 0042 1B68     		ldr	r3, [r3, #0]
 117              		.loc 1 111 0 discriminator 2
 118 0044 3D21     		movs	r1, #61
 119 0046 8140     		lsls	r1, r1, r0
 120 0048 1160     		str	r1, [r2, #0]
 121              		.loc 1 115 0 discriminator 2
 122 004a ABB1     		cbz	r3, .L9
 123              		.loc 1 115 0 is_stmt 0 discriminator 1
 124 004c 0422     		movs	r2, #4
 125 004e 2270     		strb	r2, [r4, #0]
 126 0050 2046     		mov	r0, r4
 127 0052 9847     		blx	r3
 128 0054 94F800C0 		ldrb	ip, [r4, #0]	@ zero_extendqisi2
 129 0058 BCF1040F 		cmp	ip, #4
 130 005c 0CD0     		beq	.L9
 131              	.L10:
 132              		.loc 1 115 0 discriminator 4
 133 005e A068     		ldr	r0, [r4, #8]
 134 0060 48B1     		cbz	r0, .L5
 135              	.LVL3:
 136              	.LBB2:
 137              		.loc 1 115 0 discriminator 5
 138 0062 0025     		movs	r5, #0
 139 0064 A560     		str	r5, [r4, #8]
 140              	.LBB3:
 141 0066 2023     		movs	r3, #32
 142              	.LVL4:
 143              	@ 115 "../../../ChibiOS/os/hal/platforms/STM32/spi_lld.c" 1
 144 0068 83F31188 		msr     BASEPRI, r3
 145              	@ 0 "" 2
 146              	.LVL5:
 147              		.thumb
 148              	.LBE3:
 149 006c FFF7FEFF 		bl	chSchReadyI
 150              	.LVL6:
 151              	.LBB4:
 152 0070 2B46     		mov	r3, r5
 153              	.LVL7:
 154              	@ 115 "../../../ChibiOS/os/hal/platforms/STM32/spi_lld.c" 1
 155 0072 83F31188 		msr     BASEPRI, r3
 156              	@ 0 "" 2
 157              	.LVL8:
 158              		.thumb
 159              	.L5:
 160 0076 38BD     		pop	{r3, r4, r5, pc}
 161              	.LVL9:
 162              	.L9:
 163              	.LBE4:
 164              	.LBE2:
 165              		.loc 1 115 0 discriminator 2
 166 0078 0221     		movs	r1, #2
 167 007a 2170     		strb	r1, [r4, #0]
ARM GAS  C:\Users\DNIEL~1\AppData\Local\Temp\cc47TTCl.s 			page 4


 168 007c EFE7     		b	.L10
 169              	.LVL10:
 170              	.L14:
 171              		.loc 1 103 0 is_stmt 1
 172 007e FFF7FEFF 		bl	port_halt
 173              	.LVL11:
 174 0082 C2E7     		b	.L6
 175              		.cfi_endproc
 176              	.LFE118:
 177              		.size	spi_lld_serve_rx_interrupt, .-spi_lld_serve_rx_interrupt
 178 0084 AFF30080 		.section	.text.spi_lld_init,"ax",%progbits
 178      AFF30080 
 178      AFF30080 
 179              		.align	2
 180              		.p2align 4,,15
 181              		.global	spi_lld_init
 182              		.thumb
 183              		.thumb_func
 184              		.type	spi_lld_init, %function
 185              	spi_lld_init:
 186              	.LFB120:
 187              		.loc 1 151 0
 188              		.cfi_startproc
 189              		@ args = 0, pretend = 0, frame = 0
 190              		@ frame_needed = 0, uses_anonymous_args = 0
 191 0000 10B5     		push	{r4, lr}
 192              	.LCFI1:
 193              		.cfi_def_cfa_offset 8
 194              		.loc 1 153 0
 195 0002 0A4B     		ldr	r3, .L16
 196              		.loc 1 174 0
 197 0004 0A4C     		ldr	r4, .L16+4
 198              		.cfi_offset 14, -4
 199              		.cfi_offset 4, -8
 200              		.loc 1 153 0
 201 0006 4FF0FF3C 		mov	ip, #-1	@ movhi
 202              		.loc 1 174 0
 203 000a 2046     		mov	r0, r4
 204              		.loc 1 153 0
 205 000c A3F800C0 		strh	ip, [r3, #0]	@ movhi
 206              		.loc 1 174 0
 207 0010 FFF7FEFF 		bl	spiObjectInit
 208              		.loc 1 176 0
 209 0014 0748     		ldr	r0, .L16+8
 210              		.loc 1 178 0
 211 0016 084B     		ldr	r3, .L16+12
 212              		.loc 1 175 0
 213 0018 0849     		ldr	r1, .L16+16
 214              		.loc 1 178 0
 215 001a A362     		str	r3, [r4, #40]
 216              		.loc 1 177 0
 217 001c 00F10C02 		add	r2, r0, #12
 218              		.loc 1 184 0
 219 0020 3033     		adds	r3, r3, #48
 220              		.loc 1 175 0
 221 0022 E161     		str	r1, [r4, #28]
 222              		.loc 1 176 0
ARM GAS  C:\Users\DNIEL~1\AppData\Local\Temp\cc47TTCl.s 			page 5


 223 0024 2062     		str	r0, [r4, #32]
 224              		.loc 1 177 0
 225 0026 6262     		str	r2, [r4, #36]
 226              		.loc 1 184 0
 227 0028 E362     		str	r3, [r4, #44]
 228              		.loc 1 208 0
 229 002a 10BD     		pop	{r4, pc}
 230              	.L17:
 231              		.align	2
 232              	.L16:
 233 002c 00000000 		.word	.LANCHOR0
 234 0030 00000000 		.word	.LANCHOR1
 235 0034 24000000 		.word	_stm32_dma_streams+36
 236 0038 16000100 		.word	65558
 237 003c 00380040 		.word	1073756160
 238              		.cfi_endproc
 239              	.LFE120:
 240              		.size	spi_lld_init, .-spi_lld_init
 241              		.section	.text.spi_lld_start,"ax",%progbits
 242              		.align	2
 243              		.p2align 4,,15
 244              		.global	spi_lld_start
 245              		.thumb
 246              		.thumb_func
 247              		.type	spi_lld_start, %function
 248              	spi_lld_start:
 249              	.LFB121:
 250              		.loc 1 217 0
 251              		.cfi_startproc
 252              		@ args = 0, pretend = 0, frame = 0
 253              		@ frame_needed = 0, uses_anonymous_args = 0
 254              	.LVL12:
 255              		.loc 1 220 0
 256 0000 0378     		ldrb	r3, [r0, #0]	@ zero_extendqisi2
 257 0002 012B     		cmp	r3, #1
 258              		.loc 1 217 0
 259 0004 10B5     		push	{r4, lr}
 260              	.LCFI2:
 261              		.cfi_def_cfa_offset 8
 262              		.loc 1 217 0
 263 0006 0446     		mov	r4, r0
 264              		.cfi_offset 14, -4
 265              		.cfi_offset 4, -8
 266              		.loc 1 220 0
 267 0008 28D0     		beq	.L24
 268 000a C369     		ldr	r3, [r0, #28]
 269              	.LVL13:
 270              	.L19:
 271              		.loc 1 280 0
 272 000c 6068     		ldr	r0, [r4, #4]
 273 000e 4289     		ldrh	r2, [r0, #10]
 274 0010 12F4006F 		tst	r2, #2048
 275 0014 19D0     		beq	.L25
 276              		.loc 1 292 0
 277 0016 E16A     		ldr	r1, [r4, #44]
 278              		.loc 1 290 0
 279 0018 A06A     		ldr	r0, [r4, #40]
ARM GAS  C:\Users\DNIEL~1\AppData\Local\Temp\cc47TTCl.s 			page 6


 280              		.loc 1 292 0
 281 001a 21F4D04C 		bic	ip, r1, #26624
 282              		.loc 1 290 0
 283 001e 20F4D040 		bic	r0, r0, #26624
 284              		.loc 1 291 0
 285 0022 40F42050 		orr	r0, r0, #10240
 286              		.loc 1 293 0
 287 0026 4CF42051 		orr	r1, ip, #10240
 288              		.loc 1 290 0
 289 002a A062     		str	r0, [r4, #40]
 290              		.loc 1 292 0
 291 002c E162     		str	r1, [r4, #44]
 292              	.L22:
 293              		.loc 1 297 0
 294 002e 42F44172 		orr	r2, r2, #772
 295              		.loc 1 296 0
 296 0032 0021     		movs	r1, #0
 297              		.loc 1 299 0
 298 0034 0720     		movs	r0, #7
 299              		.loc 1 296 0
 300 0036 1980     		strh	r1, [r3, #0]	@ movhi
 301              		.loc 1 297 0
 302 0038 1A80     		strh	r2, [r3, #0]	@ movhi
 303              		.loc 1 299 0
 304 003a 9880     		strh	r0, [r3, #4]	@ movhi
 305              		.loc 1 300 0
 306 003c 1988     		ldrh	r1, [r3, #0]
 307 003e 1FFA81FC 		uxth	ip, r1
 308 0042 4CF04002 		orr	r2, ip, #64
 309 0046 1A80     		strh	r2, [r3, #0]	@ movhi
 310              		.loc 1 301 0
 311 0048 10BD     		pop	{r4, pc}
 312              	.L25:
 313              		.loc 1 284 0
 314 004a A06A     		ldr	r0, [r4, #40]
 315              		.loc 1 286 0
 316 004c E16A     		ldr	r1, [r4, #44]
 317              		.loc 1 284 0
 318 004e 20F4C040 		bic	r0, r0, #24576
 319              		.loc 1 286 0
 320 0052 21F4C041 		bic	r1, r1, #24576
 321              		.loc 1 283 0
 322 0056 A062     		str	r0, [r4, #40]
 323              		.loc 1 285 0
 324 0058 E162     		str	r1, [r4, #44]
 325 005a E8E7     		b	.L22
 326              	.L24:
 327              		.loc 1 238 0
 328 005c 0F49     		ldr	r1, .L27
 329 005e 8842     		cmp	r0, r1
 330 0060 09D0     		beq	.L26
 331              	.L20:
 332              		.loc 1 271 0
 333 0062 216A     		ldr	r1, [r4, #32]
 334              		.loc 1 272 0
 335 0064 626A     		ldr	r2, [r4, #36]
 336              		.loc 1 271 0
ARM GAS  C:\Users\DNIEL~1\AppData\Local\Temp\cc47TTCl.s 			page 7


 337 0066 E369     		ldr	r3, [r4, #28]
 338 0068 0868     		ldr	r0, [r1, #0]
 339              		.loc 1 272 0
 340 006a 1168     		ldr	r1, [r2, #0]
 341              		.loc 1 271 0
 342 006c 03F10C02 		add	r2, r3, #12
 343 0070 8260     		str	r2, [r0, #8]
 344              		.loc 1 272 0
 345 0072 8A60     		str	r2, [r1, #8]
 346 0074 CAE7     		b	.L19
 347              	.L26:
 348              	.LBB5:
 349              		.loc 1 240 0
 350 0076 0A21     		movs	r1, #10
 351 0078 094A     		ldr	r2, .L27+4
 352 007a 006A     		ldr	r0, [r0, #32]
 353 007c 2346     		mov	r3, r4
 354 007e FFF7FEFF 		bl	dmaStreamAllocate
 355              		.loc 1 245 0
 356 0082 084A     		ldr	r2, .L27+8
 357 0084 606A     		ldr	r0, [r4, #36]
 358 0086 2346     		mov	r3, r4
 359 0088 0A21     		movs	r1, #10
 360 008a FFF7FEFF 		bl	dmaStreamAllocate
 361              		.loc 1 250 0
 362 008e 0648     		ldr	r0, .L27+12
 363 0090 036C     		ldr	r3, [r0, #64]
 364 0092 43F48042 		orr	r2, r3, #16384
 365 0096 0264     		str	r2, [r0, #64]
 366 0098 E3E7     		b	.L20
 367              	.L28:
 368 009a 00BF     		.align	2
 369              	.L27:
 370 009c 00000000 		.word	.LANCHOR1
 371 00a0 00000000 		.word	spi_lld_serve_rx_interrupt
 372 00a4 00000000 		.word	spi_lld_serve_tx_interrupt
 373 00a8 00380240 		.word	1073887232
 374              	.LBE5:
 375              		.cfi_endproc
 376              	.LFE121:
 377              		.size	spi_lld_start, .-spi_lld_start
 378 00ac AFF30080 		.section	.text.spi_lld_stop,"ax",%progbits
 379              		.align	2
 380              		.p2align 4,,15
 381              		.global	spi_lld_stop
 382              		.thumb
 383              		.thumb_func
 384              		.type	spi_lld_stop, %function
 385              	spi_lld_stop:
 386              	.LFB122:
 387              		.loc 1 310 0
 388              		.cfi_startproc
 389              		@ args = 0, pretend = 0, frame = 0
 390              		@ frame_needed = 0, uses_anonymous_args = 0
 391              	.LVL14:
 392              		.loc 1 313 0
 393 0000 0378     		ldrb	r3, [r0, #0]	@ zero_extendqisi2
ARM GAS  C:\Users\DNIEL~1\AppData\Local\Temp\cc47TTCl.s 			page 8


 394 0002 022B     		cmp	r3, #2
 395              		.loc 1 310 0
 396 0004 10B5     		push	{r4, lr}
 397              	.LCFI3:
 398              		.cfi_def_cfa_offset 8
 399              		.loc 1 310 0
 400 0006 0446     		mov	r4, r0
 401              		.cfi_offset 14, -4
 402              		.cfi_offset 4, -8
 403              		.loc 1 313 0
 404 0008 00D0     		beq	.L31
 405              	.LVL15:
 406              	.L29:
 407 000a 10BD     		pop	{r4, pc}
 408              	.L31:
 409              		.loc 1 316 0
 410 000c C169     		ldr	r1, [r0, #28]
 411              		.loc 1 317 0
 412 000e 006A     		ldr	r0, [r0, #32]
 413              		.loc 1 316 0
 414 0010 0022     		movs	r2, #0
 415 0012 0A80     		strh	r2, [r1, #0]	@ movhi
 416              		.loc 1 317 0
 417 0014 FFF7FEFF 		bl	dmaStreamRelease
 418              		.loc 1 318 0
 419 0018 606A     		ldr	r0, [r4, #36]
 420 001a FFF7FEFF 		bl	dmaStreamRelease
 421              		.loc 1 325 0
 422 001e 0448     		ldr	r0, .L32
 423 0020 8442     		cmp	r4, r0
 424 0022 F2D1     		bne	.L29
 425              		.loc 1 326 0
 426 0024 034B     		ldr	r3, .L32+4
 427 0026 1A6C     		ldr	r2, [r3, #64]
 428 0028 22F48040 		bic	r0, r2, #16384
 429 002c 1864     		str	r0, [r3, #64]
 430 002e ECE7     		b	.L29
 431              	.L33:
 432              		.align	2
 433              	.L32:
 434 0030 00000000 		.word	.LANCHOR1
 435 0034 00380240 		.word	1073887232
 436              		.cfi_endproc
 437              	.LFE122:
 438              		.size	spi_lld_stop, .-spi_lld_stop
 439 0038 AFF30080 		.section	.text.spi_lld_select,"ax",%progbits
 439      AFF30080 
 440              		.align	2
 441              		.p2align 4,,15
 442              		.global	spi_lld_select
 443              		.thumb
 444              		.thumb_func
 445              		.type	spi_lld_select, %function
 446              	spi_lld_select:
 447              	.LFB123:
 448              		.loc 1 342 0
 449              		.cfi_startproc
ARM GAS  C:\Users\DNIEL~1\AppData\Local\Temp\cc47TTCl.s 			page 9


 450              		@ args = 0, pretend = 0, frame = 0
 451              		@ frame_needed = 0, uses_anonymous_args = 0
 452              		@ link register save eliminated.
 453              	.LVL16:
 454              		.loc 1 344 0
 455 0000 4268     		ldr	r2, [r0, #4]
 456 0002 1089     		ldrh	r0, [r2, #8]
 457              	.LVL17:
 458 0004 5368     		ldr	r3, [r2, #4]
 459 0006 0121     		movs	r1, #1
 460 0008 11FA00F2 		lsls	r2, r1, r0
 461 000c 5A83     		strh	r2, [r3, #26]	@ movhi
 462              		.loc 1 345 0
 463 000e 7047     		bx	lr
 464              		.cfi_endproc
 465              	.LFE123:
 466              		.size	spi_lld_select, .-spi_lld_select
 467              		.section	.text.spi_lld_unselect,"ax",%progbits
 468              		.align	2
 469              		.p2align 4,,15
 470              		.global	spi_lld_unselect
 471              		.thumb
 472              		.thumb_func
 473              		.type	spi_lld_unselect, %function
 474              	spi_lld_unselect:
 475              	.LFB124:
 476              		.loc 1 355 0
 477              		.cfi_startproc
 478              		@ args = 0, pretend = 0, frame = 0
 479              		@ frame_needed = 0, uses_anonymous_args = 0
 480              		@ link register save eliminated.
 481              	.LVL18:
 482              		.loc 1 357 0
 483 0000 4268     		ldr	r2, [r0, #4]
 484 0002 1089     		ldrh	r0, [r2, #8]
 485              	.LVL19:
 486 0004 5368     		ldr	r3, [r2, #4]
 487 0006 0121     		movs	r1, #1
 488 0008 11FA00F2 		lsls	r2, r1, r0
 489 000c 1A83     		strh	r2, [r3, #24]	@ movhi
 490              		.loc 1 358 0
 491 000e 7047     		bx	lr
 492              		.cfi_endproc
 493              	.LFE124:
 494              		.size	spi_lld_unselect, .-spi_lld_unselect
 495              		.section	.text.spi_lld_ignore,"ax",%progbits
 496              		.align	2
 497              		.p2align 4,,15
 498              		.global	spi_lld_ignore
 499              		.thumb
 500              		.thumb_func
 501              		.type	spi_lld_ignore, %function
 502              	spi_lld_ignore:
 503              	.LFB125:
 504              		.loc 1 371 0
 505              		.cfi_startproc
 506              		@ args = 0, pretend = 0, frame = 0
ARM GAS  C:\Users\DNIEL~1\AppData\Local\Temp\cc47TTCl.s 			page 10


 507              		@ frame_needed = 0, uses_anonymous_args = 0
 508              		@ link register save eliminated.
 509              	.LVL20:
 510              		.loc 1 373 0
 511 0000 036A     		ldr	r3, [r0, #32]
 512              		.loc 1 371 0
 513 0002 30B4     		push	{r4, r5}
 514              	.LCFI4:
 515              		.cfi_def_cfa_offset 8
 516              		.loc 1 377 0
 517 0004 456A     		ldr	r5, [r0, #36]
 518              		.cfi_offset 5, -4
 519              		.cfi_offset 4, -8
 520              		.loc 1 375 0
 521 0006 846A     		ldr	r4, [r0, #40]
 522              		.loc 1 373 0
 523 0008 1A68     		ldr	r2, [r3, #0]
 524              		.loc 1 377 0
 525 000a 2B68     		ldr	r3, [r5, #0]
 526              		.loc 1 373 0
 527 000c 094D     		ldr	r5, .L37
 528              		.loc 1 379 0
 529 000e C06A     		ldr	r0, [r0, #44]
 530              	.LVL21:
 531              		.loc 1 373 0
 532 0010 D560     		str	r5, [r2, #12]
 533              		.loc 1 374 0
 534 0012 5160     		str	r1, [r2, #4]
 535              		.loc 1 375 0
 536 0014 1460     		str	r4, [r2, #0]
 537              		.loc 1 377 0
 538 0016 084C     		ldr	r4, .L37+4
 539 0018 DC60     		str	r4, [r3, #12]
 540              		.loc 1 378 0
 541 001a 5960     		str	r1, [r3, #4]
 542              		.loc 1 379 0
 543 001c 1860     		str	r0, [r3, #0]
 544              		.loc 1 381 0
 545 001e 1068     		ldr	r0, [r2, #0]
 546 0020 40F00101 		orr	r1, r0, #1
 547              	.LVL22:
 548 0024 1160     		str	r1, [r2, #0]
 549              		.loc 1 382 0
 550 0026 1868     		ldr	r0, [r3, #0]
 551 0028 40F00102 		orr	r2, r0, #1
 552              	.LVL23:
 553 002c 1A60     		str	r2, [r3, #0]
 554              		.loc 1 383 0
 555 002e 30BC     		pop	{r4, r5}
 556 0030 7047     		bx	lr
 557              	.L38:
 558 0032 00BF     		.align	2
 559              	.L37:
 560 0034 00000000 		.word	.LANCHOR2
 561 0038 00000000 		.word	.LANCHOR0
 562              		.cfi_endproc
 563              	.LFE125:
ARM GAS  C:\Users\DNIEL~1\AppData\Local\Temp\cc47TTCl.s 			page 11


 564              		.size	spi_lld_ignore, .-spi_lld_ignore
 565 003c AFF30080 		.section	.text.spi_lld_exchange,"ax",%progbits
 566              		.align	2
 567              		.p2align 4,,15
 568              		.global	spi_lld_exchange
 569              		.thumb
 570              		.thumb_func
 571              		.type	spi_lld_exchange, %function
 572              	spi_lld_exchange:
 573              	.LFB126:
 574              		.loc 1 401 0
 575              		.cfi_startproc
 576              		@ args = 0, pretend = 0, frame = 0
 577              		@ frame_needed = 0, uses_anonymous_args = 0
 578              		@ link register save eliminated.
 579              	.LVL24:
 580 0000 F0B4     		push	{r4, r5, r6, r7}
 581              	.LCFI5:
 582              		.cfi_def_cfa_offset 16
 583              		.loc 1 403 0
 584 0002 046A     		ldr	r4, [r0, #32]
 585              		.cfi_offset 7, -4
 586              		.cfi_offset 6, -8
 587              		.cfi_offset 5, -12
 588              		.cfi_offset 4, -16
 589              		.loc 1 407 0
 590 0004 476A     		ldr	r7, [r0, #36]
 591              		.loc 1 405 0
 592 0006 866A     		ldr	r6, [r0, #40]
 593              		.loc 1 409 0
 594 0008 C56A     		ldr	r5, [r0, #44]
 595              		.loc 1 403 0
 596 000a 2468     		ldr	r4, [r4, #0]
 597              		.loc 1 407 0
 598 000c 3868     		ldr	r0, [r7, #0]
 599              	.LVL25:
 600              		.loc 1 403 0
 601 000e E360     		str	r3, [r4, #12]
 602              		.loc 1 405 0
 603 0010 46F48066 		orr	r6, r6, #1024
 604              		.loc 1 409 0
 605 0014 45F48065 		orr	r5, r5, #1024
 606              		.loc 1 404 0
 607 0018 6160     		str	r1, [r4, #4]
 608              		.loc 1 405 0
 609 001a 2660     		str	r6, [r4, #0]
 610              		.loc 1 407 0
 611 001c C260     		str	r2, [r0, #12]
 612              		.loc 1 408 0
 613 001e 4160     		str	r1, [r0, #4]
 614              		.loc 1 409 0
 615 0020 0560     		str	r5, [r0, #0]
 616              		.loc 1 411 0
 617 0022 2368     		ldr	r3, [r4, #0]
 618              	.LVL26:
 619 0024 43F00102 		orr	r2, r3, #1
 620              	.LVL27:
ARM GAS  C:\Users\DNIEL~1\AppData\Local\Temp\cc47TTCl.s 			page 12


 621 0028 2260     		str	r2, [r4, #0]
 622              		.loc 1 412 0
 623 002a 0168     		ldr	r1, [r0, #0]
 624              	.LVL28:
 625 002c 41F00103 		orr	r3, r1, #1
 626 0030 0360     		str	r3, [r0, #0]
 627              		.loc 1 413 0
 628 0032 F0BC     		pop	{r4, r5, r6, r7}
 629 0034 7047     		bx	lr
 630              		.cfi_endproc
 631              	.LFE126:
 632              		.size	spi_lld_exchange, .-spi_lld_exchange
 633 0036 00BFAFF3 		.section	.text.spi_lld_send,"ax",%progbits
 633      0080AFF3 
 633      0080
 634              		.align	2
 635              		.p2align 4,,15
 636              		.global	spi_lld_send
 637              		.thumb
 638              		.thumb_func
 639              		.type	spi_lld_send, %function
 640              	spi_lld_send:
 641              	.LFB127:
 642              		.loc 1 428 0
 643              		.cfi_startproc
 644              		@ args = 0, pretend = 0, frame = 0
 645              		@ frame_needed = 0, uses_anonymous_args = 0
 646              		@ link register save eliminated.
 647              	.LVL29:
 648 0000 70B4     		push	{r4, r5, r6}
 649              	.LCFI6:
 650              		.cfi_def_cfa_offset 12
 651              		.loc 1 434 0
 652 0002 466A     		ldr	r6, [r0, #36]
 653              		.cfi_offset 6, -4
 654              		.cfi_offset 5, -8
 655              		.cfi_offset 4, -12
 656              		.loc 1 430 0
 657 0004 046A     		ldr	r4, [r0, #32]
 658              		.loc 1 436 0
 659 0006 C56A     		ldr	r5, [r0, #44]
 660              		.loc 1 434 0
 661 0008 3368     		ldr	r3, [r6, #0]
 662              		.loc 1 430 0
 663 000a 2468     		ldr	r4, [r4, #0]
 664              		.loc 1 432 0
 665 000c 806A     		ldr	r0, [r0, #40]
 666              	.LVL30:
 667              		.loc 1 430 0
 668 000e 094E     		ldr	r6, .L41
 669              		.loc 1 436 0
 670 0010 45F48065 		orr	r5, r5, #1024
 671              		.loc 1 430 0
 672 0014 E660     		str	r6, [r4, #12]
 673              		.loc 1 431 0
 674 0016 6160     		str	r1, [r4, #4]
 675              		.loc 1 432 0
ARM GAS  C:\Users\DNIEL~1\AppData\Local\Temp\cc47TTCl.s 			page 13


 676 0018 2060     		str	r0, [r4, #0]
 677              		.loc 1 434 0
 678 001a DA60     		str	r2, [r3, #12]
 679              		.loc 1 435 0
 680 001c 5960     		str	r1, [r3, #4]
 681              		.loc 1 436 0
 682 001e 1D60     		str	r5, [r3, #0]
 683              		.loc 1 438 0
 684 0020 2268     		ldr	r2, [r4, #0]
 685              	.LVL31:
 686 0022 42F00101 		orr	r1, r2, #1
 687              	.LVL32:
 688 0026 2160     		str	r1, [r4, #0]
 689              		.loc 1 439 0
 690 0028 1868     		ldr	r0, [r3, #0]
 691 002a 40F00102 		orr	r2, r0, #1
 692 002e 1A60     		str	r2, [r3, #0]
 693              		.loc 1 440 0
 694 0030 70BC     		pop	{r4, r5, r6}
 695 0032 7047     		bx	lr
 696              	.L42:
 697              		.align	2
 698              	.L41:
 699 0034 00000000 		.word	.LANCHOR2
 700              		.cfi_endproc
 701              	.LFE127:
 702              		.size	spi_lld_send, .-spi_lld_send
 703 0038 AFF30080 		.section	.text.spi_lld_receive,"ax",%progbits
 703      AFF30080 
 704              		.align	2
 705              		.p2align 4,,15
 706              		.global	spi_lld_receive
 707              		.thumb
 708              		.thumb_func
 709              		.type	spi_lld_receive, %function
 710              	spi_lld_receive:
 711              	.LFB128:
 712              		.loc 1 455 0
 713              		.cfi_startproc
 714              		@ args = 0, pretend = 0, frame = 0
 715              		@ frame_needed = 0, uses_anonymous_args = 0
 716              		@ link register save eliminated.
 717              	.LVL33:
 718 0000 30B4     		push	{r4, r5}
 719              	.LCFI7:
 720              		.cfi_def_cfa_offset 8
 721              		.loc 1 457 0
 722 0002 046A     		ldr	r4, [r0, #32]
 723              		.cfi_offset 5, -4
 724              		.cfi_offset 4, -8
 725              		.loc 1 461 0
 726 0004 436A     		ldr	r3, [r0, #36]
 727              		.loc 1 457 0
 728 0006 2468     		ldr	r4, [r4, #0]
 729              		.loc 1 459 0
 730 0008 856A     		ldr	r5, [r0, #40]
 731              		.loc 1 461 0
ARM GAS  C:\Users\DNIEL~1\AppData\Local\Temp\cc47TTCl.s 			page 14


 732 000a 1B68     		ldr	r3, [r3, #0]
 733              		.loc 1 463 0
 734 000c C06A     		ldr	r0, [r0, #44]
 735              	.LVL34:
 736              		.loc 1 457 0
 737 000e E260     		str	r2, [r4, #12]
 738              		.loc 1 461 0
 739 0010 084A     		ldr	r2, .L44
 740              	.LVL35:
 741              		.loc 1 458 0
 742 0012 6160     		str	r1, [r4, #4]
 743              		.loc 1 459 0
 744 0014 45F48065 		orr	r5, r5, #1024
 745 0018 2560     		str	r5, [r4, #0]
 746              		.loc 1 461 0
 747 001a DA60     		str	r2, [r3, #12]
 748              		.loc 1 462 0
 749 001c 5960     		str	r1, [r3, #4]
 750              		.loc 1 463 0
 751 001e 1860     		str	r0, [r3, #0]
 752              		.loc 1 465 0
 753 0020 2268     		ldr	r2, [r4, #0]
 754 0022 42F00101 		orr	r1, r2, #1
 755              	.LVL36:
 756 0026 2160     		str	r1, [r4, #0]
 757              		.loc 1 466 0
 758 0028 1868     		ldr	r0, [r3, #0]
 759 002a 40F00102 		orr	r2, r0, #1
 760 002e 1A60     		str	r2, [r3, #0]
 761              		.loc 1 467 0
 762 0030 30BC     		pop	{r4, r5}
 763 0032 7047     		bx	lr
 764              	.L45:
 765              		.align	2
 766              	.L44:
 767 0034 00000000 		.word	.LANCHOR0
 768              		.cfi_endproc
 769              	.LFE128:
 770              		.size	spi_lld_receive, .-spi_lld_receive
 771 0038 AFF30080 		.section	.text.spi_lld_polled_exchange,"ax",%progbits
 771      AFF30080 
 772              		.align	2
 773              		.p2align 4,,15
 774              		.global	spi_lld_polled_exchange
 775              		.thumb
 776              		.thumb_func
 777              		.type	spi_lld_polled_exchange, %function
 778              	spi_lld_polled_exchange:
 779              	.LFB129:
 780              		.loc 1 481 0
 781              		.cfi_startproc
 782              		@ args = 0, pretend = 0, frame = 0
 783              		@ frame_needed = 0, uses_anonymous_args = 0
 784              		@ link register save eliminated.
 785              	.LVL37:
 786              		.loc 1 483 0
 787 0000 C369     		ldr	r3, [r0, #28]
ARM GAS  C:\Users\DNIEL~1\AppData\Local\Temp\cc47TTCl.s 			page 15


 788 0002 9981     		strh	r1, [r3, #12]	@ movhi
 789              	.L47:
 790              		.loc 1 484 0 discriminator 1
 791 0004 1A89     		ldrh	r2, [r3, #8]
 792 0006 12F0010F 		tst	r2, #1
 793 000a FBD0     		beq	.L47
 794              		.loc 1 486 0
 795 000c 9889     		ldrh	r0, [r3, #12]
 796              	.LVL38:
 797              		.loc 1 487 0
 798 000e 80B2     		uxth	r0, r0
 799 0010 7047     		bx	lr
 800              		.cfi_endproc
 801              	.LFE129:
 802              		.size	spi_lld_polled_exchange, .-spi_lld_polled_exchange
 803              		.global	SPID2
 804 0012 00BFAFF3 		.section	.bss.dummytx,"aw",%nobits
 804      0080AFF3 
 804      0080AFF3 
 804      0080
 805              		.align	1
 806              		.set	.LANCHOR0,. + 0
 807              		.type	dummytx, %object
 808              		.size	dummytx, 2
 809              	dummytx:
 810 0000 0000     		.space	2
 811              		.section	.bss.SPID2,"aw",%nobits
 812              		.align	2
 813              		.set	.LANCHOR1,. + 0
 814              		.type	SPID2, %object
 815              		.size	SPID2, 48
 816              	SPID2:
 817 0000 00000000 		.space	48
 817      00000000 
 817      00000000 
 817      00000000 
 817      00000000 
 818              		.section	.bss.dummyrx,"aw",%nobits
 819              		.align	1
 820              		.set	.LANCHOR2,. + 0
 821              		.type	dummyrx, %object
 822              		.size	dummyrx, 2
 823              	dummyrx:
 824 0000 0000     		.space	2
 825              		.text
 826              	.Letext0:
 827              		.section	.debug_loc,"",%progbits
 828              	.Ldebug_loc0:
 829              	.LLST0:
 830 0000 00000000 		.4byte	.LFB118
 831 0004 06000000 		.4byte	.LCFI0
 832 0008 0200     		.2byte	0x2
 833 000a 7D       		.byte	0x7d
 834 000b 00       		.sleb128 0
 835 000c 06000000 		.4byte	.LCFI0
 836 0010 84000000 		.4byte	.LFE118
 837 0014 0200     		.2byte	0x2
ARM GAS  C:\Users\DNIEL~1\AppData\Local\Temp\cc47TTCl.s 			page 16


 838 0016 7D       		.byte	0x7d
 839 0017 10       		.sleb128 16
 840 0018 00000000 		.4byte	0x0
 841 001c 00000000 		.4byte	0x0
 842              	.LLST1:
 843 0020 00000000 		.4byte	.LVL1
 844 0024 0A000000 		.4byte	.LVL2
 845 0028 0100     		.2byte	0x1
 846 002a 50       		.byte	0x50
 847 002b 0A000000 		.4byte	.LVL2
 848 002f 84000000 		.4byte	.LFE118
 849 0033 0100     		.2byte	0x1
 850 0035 54       		.byte	0x54
 851 0036 00000000 		.4byte	0x0
 852 003a 00000000 		.4byte	0x0
 853              	.LLST2:
 854 003e 00000000 		.4byte	.LVL1
 855 0042 0A000000 		.4byte	.LVL2
 856 0046 0100     		.2byte	0x1
 857 0048 51       		.byte	0x51
 858 0049 7E000000 		.4byte	.LVL10
 859 004d 81000000 		.4byte	.LVL11-1
 860 0051 0100     		.2byte	0x1
 861 0053 51       		.byte	0x51
 862 0054 00000000 		.4byte	0x0
 863 0058 00000000 		.4byte	0x0
 864              	.LLST3:
 865 005c 62000000 		.4byte	.LVL3
 866 0060 6F000000 		.4byte	.LVL6-1
 867 0064 0200     		.2byte	0x2
 868 0066 74       		.byte	0x74
 869 0067 08       		.sleb128 8
 870 0068 00000000 		.4byte	0x0
 871 006c 00000000 		.4byte	0x0
 872              	.LLST4:
 873 0070 6C000000 		.4byte	.LVL5
 874 0074 6F000000 		.4byte	.LVL6-1
 875 0078 0100     		.2byte	0x1
 876 007a 53       		.byte	0x53
 877 007b 00000000 		.4byte	0x0
 878 007f 00000000 		.4byte	0x0
 879              	.LLST5:
 880 0083 76000000 		.4byte	.LVL8
 881 0087 78000000 		.4byte	.LVL9
 882 008b 0100     		.2byte	0x1
 883 008d 53       		.byte	0x53
 884 008e 00000000 		.4byte	0x0
 885 0092 00000000 		.4byte	0x0
 886              	.LLST6:
 887 0096 00000000 		.4byte	.LFB120
 888 009a 02000000 		.4byte	.LCFI1
 889 009e 0200     		.2byte	0x2
 890 00a0 7D       		.byte	0x7d
 891 00a1 00       		.sleb128 0
 892 00a2 02000000 		.4byte	.LCFI1
 893 00a6 40000000 		.4byte	.LFE120
 894 00aa 0200     		.2byte	0x2
ARM GAS  C:\Users\DNIEL~1\AppData\Local\Temp\cc47TTCl.s 			page 17


 895 00ac 7D       		.byte	0x7d
 896 00ad 08       		.sleb128 8
 897 00ae 00000000 		.4byte	0x0
 898 00b2 00000000 		.4byte	0x0
 899              	.LLST7:
 900 00b6 00000000 		.4byte	.LFB121
 901 00ba 06000000 		.4byte	.LCFI2
 902 00be 0200     		.2byte	0x2
 903 00c0 7D       		.byte	0x7d
 904 00c1 00       		.sleb128 0
 905 00c2 06000000 		.4byte	.LCFI2
 906 00c6 AC000000 		.4byte	.LFE121
 907 00ca 0200     		.2byte	0x2
 908 00cc 7D       		.byte	0x7d
 909 00cd 08       		.sleb128 8
 910 00ce 00000000 		.4byte	0x0
 911 00d2 00000000 		.4byte	0x0
 912              	.LLST8:
 913 00d6 00000000 		.4byte	.LVL12
 914 00da 0C000000 		.4byte	.LVL13
 915 00de 0100     		.2byte	0x1
 916 00e0 50       		.byte	0x50
 917 00e1 0C000000 		.4byte	.LVL13
 918 00e5 AC000000 		.4byte	.LFE121
 919 00e9 0100     		.2byte	0x1
 920 00eb 54       		.byte	0x54
 921 00ec 00000000 		.4byte	0x0
 922 00f0 00000000 		.4byte	0x0
 923              	.LLST9:
 924 00f4 00000000 		.4byte	.LFB122
 925 00f8 06000000 		.4byte	.LCFI3
 926 00fc 0200     		.2byte	0x2
 927 00fe 7D       		.byte	0x7d
 928 00ff 00       		.sleb128 0
 929 0100 06000000 		.4byte	.LCFI3
 930 0104 38000000 		.4byte	.LFE122
 931 0108 0200     		.2byte	0x2
 932 010a 7D       		.byte	0x7d
 933 010b 08       		.sleb128 8
 934 010c 00000000 		.4byte	0x0
 935 0110 00000000 		.4byte	0x0
 936              	.LLST10:
 937 0114 00000000 		.4byte	.LVL14
 938 0118 0A000000 		.4byte	.LVL15
 939 011c 0100     		.2byte	0x1
 940 011e 50       		.byte	0x50
 941 011f 0A000000 		.4byte	.LVL15
 942 0123 38000000 		.4byte	.LFE122
 943 0127 0100     		.2byte	0x1
 944 0129 54       		.byte	0x54
 945 012a 00000000 		.4byte	0x0
 946 012e 00000000 		.4byte	0x0
 947              	.LLST11:
 948 0132 00000000 		.4byte	.LVL16
 949 0136 04000000 		.4byte	.LVL17
 950 013a 0100     		.2byte	0x1
 951 013c 50       		.byte	0x50
ARM GAS  C:\Users\DNIEL~1\AppData\Local\Temp\cc47TTCl.s 			page 18


 952 013d 00000000 		.4byte	0x0
 953 0141 00000000 		.4byte	0x0
 954              	.LLST12:
 955 0145 00000000 		.4byte	.LVL18
 956 0149 04000000 		.4byte	.LVL19
 957 014d 0100     		.2byte	0x1
 958 014f 50       		.byte	0x50
 959 0150 00000000 		.4byte	0x0
 960 0154 00000000 		.4byte	0x0
 961              	.LLST13:
 962 0158 00000000 		.4byte	.LFB125
 963 015c 04000000 		.4byte	.LCFI4
 964 0160 0200     		.2byte	0x2
 965 0162 7D       		.byte	0x7d
 966 0163 00       		.sleb128 0
 967 0164 04000000 		.4byte	.LCFI4
 968 0168 3C000000 		.4byte	.LFE125
 969 016c 0200     		.2byte	0x2
 970 016e 7D       		.byte	0x7d
 971 016f 08       		.sleb128 8
 972 0170 00000000 		.4byte	0x0
 973 0174 00000000 		.4byte	0x0
 974              	.LLST14:
 975 0178 00000000 		.4byte	.LVL20
 976 017c 10000000 		.4byte	.LVL21
 977 0180 0100     		.2byte	0x1
 978 0182 50       		.byte	0x50
 979 0183 00000000 		.4byte	0x0
 980 0187 00000000 		.4byte	0x0
 981              	.LLST15:
 982 018b 00000000 		.4byte	.LVL20
 983 018f 24000000 		.4byte	.LVL22
 984 0193 0100     		.2byte	0x1
 985 0195 51       		.byte	0x51
 986 0196 24000000 		.4byte	.LVL22
 987 019a 2C000000 		.4byte	.LVL23
 988 019e 0200     		.2byte	0x2
 989 01a0 72       		.byte	0x72
 990 01a1 04       		.sleb128 4
 991 01a2 2C000000 		.4byte	.LVL23
 992 01a6 3C000000 		.4byte	.LFE125
 993 01aa 0200     		.2byte	0x2
 994 01ac 73       		.byte	0x73
 995 01ad 04       		.sleb128 4
 996 01ae 00000000 		.4byte	0x0
 997 01b2 00000000 		.4byte	0x0
 998              	.LLST16:
 999 01b6 00000000 		.4byte	.LFB126
 1000 01ba 02000000 		.4byte	.LCFI5
 1001 01be 0200     		.2byte	0x2
 1002 01c0 7D       		.byte	0x7d
 1003 01c1 00       		.sleb128 0
 1004 01c2 02000000 		.4byte	.LCFI5
 1005 01c6 36000000 		.4byte	.LFE126
 1006 01ca 0200     		.2byte	0x2
 1007 01cc 7D       		.byte	0x7d
 1008 01cd 10       		.sleb128 16
ARM GAS  C:\Users\DNIEL~1\AppData\Local\Temp\cc47TTCl.s 			page 19


 1009 01ce 00000000 		.4byte	0x0
 1010 01d2 00000000 		.4byte	0x0
 1011              	.LLST17:
 1012 01d6 00000000 		.4byte	.LVL24
 1013 01da 0E000000 		.4byte	.LVL25
 1014 01de 0100     		.2byte	0x1
 1015 01e0 50       		.byte	0x50
 1016 01e1 00000000 		.4byte	0x0
 1017 01e5 00000000 		.4byte	0x0
 1018              	.LLST18:
 1019 01e9 00000000 		.4byte	.LVL24
 1020 01ed 2C000000 		.4byte	.LVL28
 1021 01f1 0100     		.2byte	0x1
 1022 01f3 51       		.byte	0x51
 1023 01f4 2C000000 		.4byte	.LVL28
 1024 01f8 36000000 		.4byte	.LFE126
 1025 01fc 0200     		.2byte	0x2
 1026 01fe 74       		.byte	0x74
 1027 01ff 04       		.sleb128 4
 1028 0200 00000000 		.4byte	0x0
 1029 0204 00000000 		.4byte	0x0
 1030              	.LLST19:
 1031 0208 00000000 		.4byte	.LVL24
 1032 020c 28000000 		.4byte	.LVL27
 1033 0210 0100     		.2byte	0x1
 1034 0212 52       		.byte	0x52
 1035 0213 28000000 		.4byte	.LVL27
 1036 0217 36000000 		.4byte	.LFE126
 1037 021b 0500     		.2byte	0x5
 1038 021d 77       		.byte	0x77
 1039 021e 00       		.sleb128 0
 1040 021f 06       		.byte	0x6
 1041 0220 23       		.byte	0x23
 1042 0221 0C       		.uleb128 0xc
 1043 0222 00000000 		.4byte	0x0
 1044 0226 00000000 		.4byte	0x0
 1045              	.LLST20:
 1046 022a 00000000 		.4byte	.LVL24
 1047 022e 24000000 		.4byte	.LVL26
 1048 0232 0100     		.2byte	0x1
 1049 0234 53       		.byte	0x53
 1050 0235 24000000 		.4byte	.LVL26
 1051 0239 36000000 		.4byte	.LFE126
 1052 023d 0200     		.2byte	0x2
 1053 023f 74       		.byte	0x74
 1054 0240 0C       		.sleb128 12
 1055 0241 00000000 		.4byte	0x0
 1056 0245 00000000 		.4byte	0x0
 1057              	.LLST21:
 1058 0249 00000000 		.4byte	.LFB127
 1059 024d 02000000 		.4byte	.LCFI6
 1060 0251 0200     		.2byte	0x2
 1061 0253 7D       		.byte	0x7d
 1062 0254 00       		.sleb128 0
 1063 0255 02000000 		.4byte	.LCFI6
 1064 0259 38000000 		.4byte	.LFE127
 1065 025d 0200     		.2byte	0x2
ARM GAS  C:\Users\DNIEL~1\AppData\Local\Temp\cc47TTCl.s 			page 20


 1066 025f 7D       		.byte	0x7d
 1067 0260 0C       		.sleb128 12
 1068 0261 00000000 		.4byte	0x0
 1069 0265 00000000 		.4byte	0x0
 1070              	.LLST22:
 1071 0269 00000000 		.4byte	.LVL29
 1072 026d 0E000000 		.4byte	.LVL30
 1073 0271 0100     		.2byte	0x1
 1074 0273 50       		.byte	0x50
 1075 0274 00000000 		.4byte	0x0
 1076 0278 00000000 		.4byte	0x0
 1077              	.LLST23:
 1078 027c 00000000 		.4byte	.LVL29
 1079 0280 26000000 		.4byte	.LVL32
 1080 0284 0100     		.2byte	0x1
 1081 0286 51       		.byte	0x51
 1082 0287 26000000 		.4byte	.LVL32
 1083 028b 38000000 		.4byte	.LFE127
 1084 028f 0200     		.2byte	0x2
 1085 0291 74       		.byte	0x74
 1086 0292 04       		.sleb128 4
 1087 0293 00000000 		.4byte	0x0
 1088 0297 00000000 		.4byte	0x0
 1089              	.LLST24:
 1090 029b 00000000 		.4byte	.LVL29
 1091 029f 22000000 		.4byte	.LVL31
 1092 02a3 0100     		.2byte	0x1
 1093 02a5 52       		.byte	0x52
 1094 02a6 22000000 		.4byte	.LVL31
 1095 02aa 38000000 		.4byte	.LFE127
 1096 02ae 0200     		.2byte	0x2
 1097 02b0 73       		.byte	0x73
 1098 02b1 0C       		.sleb128 12
 1099 02b2 00000000 		.4byte	0x0
 1100 02b6 00000000 		.4byte	0x0
 1101              	.LLST25:
 1102 02ba 00000000 		.4byte	.LFB128
 1103 02be 02000000 		.4byte	.LCFI7
 1104 02c2 0200     		.2byte	0x2
 1105 02c4 7D       		.byte	0x7d
 1106 02c5 00       		.sleb128 0
 1107 02c6 02000000 		.4byte	.LCFI7
 1108 02ca 38000000 		.4byte	.LFE128
 1109 02ce 0200     		.2byte	0x2
 1110 02d0 7D       		.byte	0x7d
 1111 02d1 08       		.sleb128 8
 1112 02d2 00000000 		.4byte	0x0
 1113 02d6 00000000 		.4byte	0x0
 1114              	.LLST26:
 1115 02da 00000000 		.4byte	.LVL33
 1116 02de 0E000000 		.4byte	.LVL34
 1117 02e2 0100     		.2byte	0x1
 1118 02e4 50       		.byte	0x50
 1119 02e5 00000000 		.4byte	0x0
 1120 02e9 00000000 		.4byte	0x0
 1121              	.LLST27:
 1122 02ed 00000000 		.4byte	.LVL33
ARM GAS  C:\Users\DNIEL~1\AppData\Local\Temp\cc47TTCl.s 			page 21


 1123 02f1 26000000 		.4byte	.LVL36
 1124 02f5 0100     		.2byte	0x1
 1125 02f7 51       		.byte	0x51
 1126 02f8 26000000 		.4byte	.LVL36
 1127 02fc 38000000 		.4byte	.LFE128
 1128 0300 0200     		.2byte	0x2
 1129 0302 74       		.byte	0x74
 1130 0303 04       		.sleb128 4
 1131 0304 00000000 		.4byte	0x0
 1132 0308 00000000 		.4byte	0x0
 1133              	.LLST28:
 1134 030c 00000000 		.4byte	.LVL33
 1135 0310 12000000 		.4byte	.LVL35
 1136 0314 0100     		.2byte	0x1
 1137 0316 52       		.byte	0x52
 1138 0317 12000000 		.4byte	.LVL35
 1139 031b 38000000 		.4byte	.LFE128
 1140 031f 0200     		.2byte	0x2
 1141 0321 74       		.byte	0x74
 1142 0322 0C       		.sleb128 12
 1143 0323 00000000 		.4byte	0x0
 1144 0327 00000000 		.4byte	0x0
 1145              	.LLST29:
 1146 032b 00000000 		.4byte	.LVL37
 1147 032f 0E000000 		.4byte	.LVL38
 1148 0333 0100     		.2byte	0x1
 1149 0335 50       		.byte	0x50
 1150 0336 00000000 		.4byte	0x0
 1151 033a 00000000 		.4byte	0x0
 1152              		.file 2 "c:\\program files (x86)\\codesourcery\\sourcery g++ lite\\bin\\../lib/gcc/arm-none-eabi/4
 1153              		.file 3 "c:\\program files (x86)\\codesourcery\\sourcery g++ lite\\bin\\../lib/gcc/arm-none-eabi/4
 1154              		.file 4 "../../../ChibiOS/os/ports/GCC/ARMCMx/chtypes.h"
 1155              		.file 5 "../../../ChibiOS/os/kernel/include/chlists.h"
 1156              		.file 6 "../../../ChibiOS/os/kernel/include/chthreads.h"
 1157              		.file 7 "../../../ChibiOS/os/ports/GCC/ARMCMx/chcore_v7m.h"
 1158              		.file 8 "../../../ChibiOS/os/kernel/include/chmtx.h"
 1159              		.file 9 "../../../ChibiOS/os/hal/platforms/STM32F4xx/stm32f4xx.h"
 1160              		.file 10 "../../../ChibiOS/os/hal/platforms/STM32F4xx/stm32_dma.h"
 1161              		.file 11 "../../../ChibiOS/os/hal/platforms/STM32/GPIOv2/pal_lld.h"
 1162              		.file 12 "../../../ChibiOS/os/hal/include/spi.h"
 1163              		.file 13 "../../../ChibiOS/os/hal/platforms/STM32/spi_lld.h"
 1164              		.file 14 "../../../ChibiOS/os/ports/common/ARMCMx/CMSIS/include/core_cm4.h"
 1165              		.section	.debug_info
 1166 0000 DF0D0000 		.4byte	0xddf
 1167 0004 0200     		.2byte	0x2
 1168 0006 00000000 		.4byte	.Ldebug_abbrev0
 1169 000a 04       		.byte	0x4
 1170 000b 01       		.uleb128 0x1
 1171 000c 0B010000 		.4byte	.LASF156
 1172 0010 01       		.byte	0x1
 1173 0011 C6050000 		.4byte	.LASF157
 1174 0015 E4010000 		.4byte	.LASF158
 1175 0019 00000000 		.4byte	0x0
 1176 001d 00000000 		.4byte	0x0
 1177 0021 00000000 		.4byte	.Ldebug_ranges0+0x0
 1178 0025 00000000 		.4byte	.Ldebug_line0
 1179 0029 02       		.uleb128 0x2
ARM GAS  C:\Users\DNIEL~1\AppData\Local\Temp\cc47TTCl.s 			page 22


 1180 002a 04       		.byte	0x4
 1181 002b 05       		.byte	0x5
 1182 002c 696E7400 		.ascii	"int\000"
 1183 0030 03       		.uleb128 0x3
 1184 0031 05000000 		.4byte	.LASF2
 1185 0035 02       		.byte	0x2
 1186 0036 D3       		.byte	0xd3
 1187 0037 3B000000 		.4byte	0x3b
 1188 003b 04       		.uleb128 0x4
 1189 003c 04       		.byte	0x4
 1190 003d 07       		.byte	0x7
 1191 003e 58020000 		.4byte	.LASF0
 1192 0042 04       		.uleb128 0x4
 1193 0043 01       		.byte	0x1
 1194 0044 06       		.byte	0x6
 1195 0045 D1000000 		.4byte	.LASF1
 1196 0049 03       		.uleb128 0x3
 1197 004a BE050000 		.4byte	.LASF3
 1198 004e 03       		.byte	0x3
 1199 004f 2A       		.byte	0x2a
 1200 0050 54000000 		.4byte	0x54
 1201 0054 04       		.uleb128 0x4
 1202 0055 01       		.byte	0x1
 1203 0056 08       		.byte	0x8
 1204 0057 17040000 		.4byte	.LASF4
 1205 005b 04       		.uleb128 0x4
 1206 005c 02       		.byte	0x2
 1207 005d 05       		.byte	0x5
 1208 005e 58040000 		.4byte	.LASF5
 1209 0062 03       		.uleb128 0x3
 1210 0063 85010000 		.4byte	.LASF6
 1211 0067 03       		.byte	0x3
 1212 0068 36       		.byte	0x36
 1213 0069 6D000000 		.4byte	0x6d
 1214 006d 04       		.uleb128 0x4
 1215 006e 02       		.byte	0x2
 1216 006f 07       		.byte	0x7
 1217 0070 C3020000 		.4byte	.LASF7
 1218 0074 03       		.uleb128 0x3
 1219 0075 0F040000 		.4byte	.LASF8
 1220 0079 03       		.byte	0x3
 1221 007a 4F       		.byte	0x4f
 1222 007b 7F000000 		.4byte	0x7f
 1223 007f 04       		.uleb128 0x4
 1224 0080 04       		.byte	0x4
 1225 0081 05       		.byte	0x5
 1226 0082 2D010000 		.4byte	.LASF9
 1227 0086 03       		.uleb128 0x3
 1228 0087 B7040000 		.4byte	.LASF10
 1229 008b 03       		.byte	0x3
 1230 008c 50       		.byte	0x50
 1231 008d 91000000 		.4byte	0x91
 1232 0091 04       		.uleb128 0x4
 1233 0092 04       		.byte	0x4
 1234 0093 07       		.byte	0x7
 1235 0094 D0040000 		.4byte	.LASF11
 1236 0098 04       		.uleb128 0x4
ARM GAS  C:\Users\DNIEL~1\AppData\Local\Temp\cc47TTCl.s 			page 23


 1237 0099 08       		.byte	0x8
 1238 009a 05       		.byte	0x5
 1239 009b C3000000 		.4byte	.LASF12
 1240 009f 04       		.uleb128 0x4
 1241 00a0 08       		.byte	0x8
 1242 00a1 07       		.byte	0x7
 1243 00a2 38000000 		.4byte	.LASF13
 1244 00a6 03       		.uleb128 0x3
 1245 00a7 FC000000 		.4byte	.LASF14
 1246 00ab 04       		.byte	0x4
 1247 00ac 27       		.byte	0x27
 1248 00ad 74000000 		.4byte	0x74
 1249 00b1 03       		.uleb128 0x3
 1250 00b2 F7020000 		.4byte	.LASF15
 1251 00b6 04       		.byte	0x4
 1252 00b7 28       		.byte	0x28
 1253 00b8 49000000 		.4byte	0x49
 1254 00bc 03       		.uleb128 0x3
 1255 00bd 64010000 		.4byte	.LASF16
 1256 00c1 04       		.byte	0x4
 1257 00c2 29       		.byte	0x29
 1258 00c3 49000000 		.4byte	0x49
 1259 00c7 03       		.uleb128 0x3
 1260 00c8 C0040000 		.4byte	.LASF17
 1261 00cc 04       		.byte	0x4
 1262 00cd 2A       		.byte	0x2a
 1263 00ce 49000000 		.4byte	0x49
 1264 00d2 03       		.uleb128 0x3
 1265 00d3 17010000 		.4byte	.LASF18
 1266 00d7 04       		.byte	0x4
 1267 00d8 2B       		.byte	0x2b
 1268 00d9 49000000 		.4byte	0x49
 1269 00dd 03       		.uleb128 0x3
 1270 00de 01040000 		.4byte	.LASF19
 1271 00e2 04       		.byte	0x4
 1272 00e3 2C       		.byte	0x2c
 1273 00e4 86000000 		.4byte	0x86
 1274 00e8 03       		.uleb128 0x3
 1275 00e9 E1020000 		.4byte	.LASF20
 1276 00ed 04       		.byte	0x4
 1277 00ee 2D       		.byte	0x2d
 1278 00ef 74000000 		.4byte	0x74
 1279 00f3 03       		.uleb128 0x3
 1280 00f4 15030000 		.4byte	.LASF21
 1281 00f8 04       		.byte	0x4
 1282 00f9 2F       		.byte	0x2f
 1283 00fa 86000000 		.4byte	0x86
 1284 00fe 03       		.uleb128 0x3
 1285 00ff 22050000 		.4byte	.LASF22
 1286 0103 04       		.byte	0x4
 1287 0104 31       		.byte	0x31
 1288 0105 86000000 		.4byte	0x86
 1289 0109 03       		.uleb128 0x3
 1290 010a 96040000 		.4byte	.LASF23
 1291 010e 05       		.byte	0x5
 1292 010f 23       		.byte	0x23
 1293 0110 14010000 		.4byte	0x114
ARM GAS  C:\Users\DNIEL~1\AppData\Local\Temp\cc47TTCl.s 			page 24


 1294 0114 05       		.uleb128 0x5
 1295 0115 96040000 		.4byte	.LASF23
 1296 0119 48       		.byte	0x48
 1297 011a 06       		.byte	0x6
 1298 011b 57       		.byte	0x57
 1299 011c 39020000 		.4byte	0x239
 1300 0120 06       		.uleb128 0x6
 1301 0121 50030000 		.4byte	.LASF24
 1302 0125 06       		.byte	0x6
 1303 0126 58       		.byte	0x58
 1304 0127 5E020000 		.4byte	0x25e
 1305 012b 02       		.byte	0x2
 1306 012c 23       		.byte	0x23
 1307 012d 00       		.uleb128 0x0
 1308 012e 06       		.uleb128 0x6
 1309 012f DC030000 		.4byte	.LASF25
 1310 0133 06       		.byte	0x6
 1311 0134 5A       		.byte	0x5a
 1312 0135 5E020000 		.4byte	0x25e
 1313 0139 02       		.byte	0x2
 1314 013a 23       		.byte	0x23
 1315 013b 04       		.uleb128 0x4
 1316 013c 06       		.uleb128 0x6
 1317 013d B6000000 		.4byte	.LASF26
 1318 0141 06       		.byte	0x6
 1319 0142 5C       		.byte	0x5c
 1320 0143 DD000000 		.4byte	0xdd
 1321 0147 02       		.byte	0x2
 1322 0148 23       		.byte	0x23
 1323 0149 08       		.uleb128 0x8
 1324 014a 06       		.uleb128 0x6
 1325 014b 64060000 		.4byte	.LASF27
 1326 014f 06       		.byte	0x6
 1327 0150 5D       		.byte	0x5d
 1328 0151 2C030000 		.4byte	0x32c
 1329 0155 02       		.byte	0x2
 1330 0156 23       		.byte	0x23
 1331 0157 0C       		.uleb128 0xc
 1332 0158 06       		.uleb128 0x6
 1333 0159 95010000 		.4byte	.LASF28
 1334 015d 06       		.byte	0x6
 1335 015e 5F       		.byte	0x5f
 1336 015f 5E020000 		.4byte	0x25e
 1337 0163 02       		.byte	0x2
 1338 0164 23       		.byte	0x23
 1339 0165 10       		.uleb128 0x10
 1340 0166 06       		.uleb128 0x6
 1341 0167 71030000 		.4byte	.LASF29
 1342 016b 06       		.byte	0x6
 1343 016c 60       		.byte	0x60
 1344 016d 5E020000 		.4byte	0x25e
 1345 0171 02       		.byte	0x2
 1346 0172 23       		.byte	0x23
 1347 0173 14       		.uleb128 0x14
 1348 0174 06       		.uleb128 0x6
 1349 0175 25060000 		.4byte	.LASF30
 1350 0179 06       		.byte	0x6
ARM GAS  C:\Users\DNIEL~1\AppData\Local\Temp\cc47TTCl.s 			page 25


 1351 017a 67       		.byte	0x67
 1352 017b D6030000 		.4byte	0x3d6
 1353 017f 02       		.byte	0x2
 1354 0180 23       		.byte	0x23
 1355 0181 18       		.uleb128 0x18
 1356 0182 06       		.uleb128 0x6
 1357 0183 46040000 		.4byte	.LASF31
 1358 0187 06       		.byte	0x6
 1359 0188 72       		.byte	0x72
 1360 0189 BC000000 		.4byte	0xbc
 1361 018d 02       		.byte	0x2
 1362 018e 23       		.byte	0x23
 1363 018f 1C       		.uleb128 0x1c
 1364 0190 06       		.uleb128 0x6
 1365 0191 7D040000 		.4byte	.LASF32
 1366 0195 06       		.byte	0x6
 1367 0196 76       		.byte	0x76
 1368 0197 B1000000 		.4byte	0xb1
 1369 019b 02       		.byte	0x2
 1370 019c 23       		.byte	0x23
 1371 019d 1D       		.uleb128 0x1d
 1372 019e 06       		.uleb128 0x6
 1373 019f 7E010000 		.4byte	.LASF33
 1374 01a3 06       		.byte	0x6
 1375 01a4 7B       		.byte	0x7b
 1376 01a5 C7000000 		.4byte	0xc7
 1377 01a9 02       		.byte	0x2
 1378 01aa 23       		.byte	0x23
 1379 01ab 1E       		.uleb128 0x1e
 1380 01ac 06       		.uleb128 0x6
 1381 01ad 62040000 		.4byte	.LASF34
 1382 01b1 06       		.byte	0x6
 1383 01b2 81       		.byte	0x81
 1384 01b3 D2000000 		.4byte	0xd2
 1385 01b7 02       		.byte	0x2
 1386 01b8 23       		.byte	0x23
 1387 01b9 1F       		.uleb128 0x1f
 1388 01ba 06       		.uleb128 0x6
 1389 01bb 8E010000 		.4byte	.LASF35
 1390 01bf 06       		.byte	0x6
 1391 01c0 88       		.byte	0x88
 1392 01c1 54030000 		.4byte	0x354
 1393 01c5 02       		.byte	0x2
 1394 01c6 23       		.byte	0x23
 1395 01c7 20       		.uleb128 0x20
 1396 01c8 07       		.uleb128 0x7
 1397 01c9 705F7500 		.ascii	"p_u\000"
 1398 01cd 06       		.byte	0x6
 1399 01ce AD       		.byte	0xad
 1400 01cf A1030000 		.4byte	0x3a1
 1401 01d3 02       		.byte	0x2
 1402 01d4 23       		.byte	0x23
 1403 01d5 24       		.uleb128 0x24
 1404 01d6 06       		.uleb128 0x6
 1405 01d7 6A060000 		.4byte	.LASF36
 1406 01db 06       		.byte	0x6
 1407 01dc B2       		.byte	0xb2
ARM GAS  C:\Users\DNIEL~1\AppData\Local\Temp\cc47TTCl.s 			page 26


 1408 01dd 86020000 		.4byte	0x286
 1409 01e1 02       		.byte	0x2
 1410 01e2 23       		.byte	0x23
 1411 01e3 28       		.uleb128 0x28
 1412 01e4 06       		.uleb128 0x6
 1413 01e5 90020000 		.4byte	.LASF37
 1414 01e9 06       		.byte	0x6
 1415 01ea B8       		.byte	0xb8
 1416 01eb 64020000 		.4byte	0x264
 1417 01ef 02       		.byte	0x2
 1418 01f0 23       		.byte	0x23
 1419 01f1 2C       		.uleb128 0x2c
 1420 01f2 06       		.uleb128 0x6
 1421 01f3 56060000 		.4byte	.LASF38
 1422 01f7 06       		.byte	0x6
 1423 01f8 BC       		.byte	0xbc
 1424 01f9 E8000000 		.4byte	0xe8
 1425 01fd 02       		.byte	0x2
 1426 01fe 23       		.byte	0x23
 1427 01ff 34       		.uleb128 0x34
 1428 0200 06       		.uleb128 0x6
 1429 0201 9D040000 		.4byte	.LASF39
 1430 0205 06       		.byte	0x6
 1431 0206 C2       		.byte	0xc2
 1432 0207 F3000000 		.4byte	0xf3
 1433 020b 02       		.byte	0x2
 1434 020c 23       		.byte	0x23
 1435 020d 38       		.uleb128 0x38
 1436 020e 06       		.uleb128 0x6
 1437 020f 4E040000 		.4byte	.LASF40
 1438 0213 06       		.byte	0x6
 1439 0214 C9       		.byte	0xc9
 1440 0215 E8030000 		.4byte	0x3e8
 1441 0219 02       		.byte	0x2
 1442 021a 23       		.byte	0x23
 1443 021b 3C       		.uleb128 0x3c
 1444 021c 06       		.uleb128 0x6
 1445 021d 2C050000 		.4byte	.LASF41
 1446 0221 06       		.byte	0x6
 1447 0222 CD       		.byte	0xcd
 1448 0223 DD000000 		.4byte	0xdd
 1449 0227 02       		.byte	0x2
 1450 0228 23       		.byte	0x23
 1451 0229 40       		.uleb128 0x40
 1452 022a 06       		.uleb128 0x6
 1453 022b C9010000 		.4byte	.LASF42
 1454 022f 06       		.byte	0x6
 1455 0230 D3       		.byte	0xd3
 1456 0231 9C020000 		.4byte	0x29c
 1457 0235 02       		.byte	0x2
 1458 0236 23       		.byte	0x23
 1459 0237 44       		.uleb128 0x44
 1460 0238 00       		.byte	0x0
 1461 0239 08       		.uleb128 0x8
 1462 023a 08       		.byte	0x8
 1463 023b 05       		.byte	0x5
 1464 023c 5A       		.byte	0x5a
ARM GAS  C:\Users\DNIEL~1\AppData\Local\Temp\cc47TTCl.s 			page 27


 1465 023d 5E020000 		.4byte	0x25e
 1466 0241 06       		.uleb128 0x6
 1467 0242 50030000 		.4byte	.LASF24
 1468 0246 05       		.byte	0x5
 1469 0247 5B       		.byte	0x5b
 1470 0248 5E020000 		.4byte	0x25e
 1471 024c 02       		.byte	0x2
 1472 024d 23       		.byte	0x23
 1473 024e 00       		.uleb128 0x0
 1474 024f 06       		.uleb128 0x6
 1475 0250 DC030000 		.4byte	.LASF25
 1476 0254 05       		.byte	0x5
 1477 0255 5D       		.byte	0x5d
 1478 0256 5E020000 		.4byte	0x25e
 1479 025a 02       		.byte	0x2
 1480 025b 23       		.byte	0x23
 1481 025c 04       		.uleb128 0x4
 1482 025d 00       		.byte	0x0
 1483 025e 09       		.uleb128 0x9
 1484 025f 04       		.byte	0x4
 1485 0260 09010000 		.4byte	0x109
 1486 0264 03       		.uleb128 0x3
 1487 0265 79030000 		.4byte	.LASF43
 1488 0269 05       		.byte	0x5
 1489 026a 5F       		.byte	0x5f
 1490 026b 39020000 		.4byte	0x239
 1491 026f 08       		.uleb128 0x8
 1492 0270 04       		.byte	0x4
 1493 0271 05       		.byte	0x5
 1494 0272 64       		.byte	0x64
 1495 0273 86020000 		.4byte	0x286
 1496 0277 06       		.uleb128 0x6
 1497 0278 50030000 		.4byte	.LASF24
 1498 027c 05       		.byte	0x5
 1499 027d 66       		.byte	0x66
 1500 027e 5E020000 		.4byte	0x25e
 1501 0282 02       		.byte	0x2
 1502 0283 23       		.byte	0x23
 1503 0284 00       		.uleb128 0x0
 1504 0285 00       		.byte	0x0
 1505 0286 03       		.uleb128 0x3
 1506 0287 09030000 		.4byte	.LASF44
 1507 028b 05       		.byte	0x5
 1508 028c 69       		.byte	0x69
 1509 028d 6F020000 		.4byte	0x26f
 1510 0291 03       		.uleb128 0x3
 1511 0292 D1010000 		.4byte	.LASF45
 1512 0296 07       		.byte	0x7
 1513 0297 DE       		.byte	0xde
 1514 0298 9C020000 		.4byte	0x29c
 1515 029c 0A       		.uleb128 0xa
 1516 029d 04       		.byte	0x4
 1517 029e 0B       		.uleb128 0xb
 1518 029f 78050000 		.4byte	.LASF46
 1519 02a3 24       		.byte	0x24
 1520 02a4 07       		.byte	0x7
 1521 02a5 0501     		.2byte	0x105
ARM GAS  C:\Users\DNIEL~1\AppData\Local\Temp\cc47TTCl.s 			page 28


 1522 02a7 2C030000 		.4byte	0x32c
 1523 02ab 0C       		.uleb128 0xc
 1524 02ac 723400   		.ascii	"r4\000"
 1525 02af 07       		.byte	0x7
 1526 02b0 1801     		.2byte	0x118
 1527 02b2 91020000 		.4byte	0x291
 1528 02b6 02       		.byte	0x2
 1529 02b7 23       		.byte	0x23
 1530 02b8 00       		.uleb128 0x0
 1531 02b9 0C       		.uleb128 0xc
 1532 02ba 723500   		.ascii	"r5\000"
 1533 02bd 07       		.byte	0x7
 1534 02be 1901     		.2byte	0x119
 1535 02c0 91020000 		.4byte	0x291
 1536 02c4 02       		.byte	0x2
 1537 02c5 23       		.byte	0x23
 1538 02c6 04       		.uleb128 0x4
 1539 02c7 0C       		.uleb128 0xc
 1540 02c8 723600   		.ascii	"r6\000"
 1541 02cb 07       		.byte	0x7
 1542 02cc 1A01     		.2byte	0x11a
 1543 02ce 91020000 		.4byte	0x291
 1544 02d2 02       		.byte	0x2
 1545 02d3 23       		.byte	0x23
 1546 02d4 08       		.uleb128 0x8
 1547 02d5 0C       		.uleb128 0xc
 1548 02d6 723700   		.ascii	"r7\000"
 1549 02d9 07       		.byte	0x7
 1550 02da 1B01     		.2byte	0x11b
 1551 02dc 91020000 		.4byte	0x291
 1552 02e0 02       		.byte	0x2
 1553 02e1 23       		.byte	0x23
 1554 02e2 0C       		.uleb128 0xc
 1555 02e3 0C       		.uleb128 0xc
 1556 02e4 723800   		.ascii	"r8\000"
 1557 02e7 07       		.byte	0x7
 1558 02e8 1C01     		.2byte	0x11c
 1559 02ea 91020000 		.4byte	0x291
 1560 02ee 02       		.byte	0x2
 1561 02ef 23       		.byte	0x23
 1562 02f0 10       		.uleb128 0x10
 1563 02f1 0C       		.uleb128 0xc
 1564 02f2 723900   		.ascii	"r9\000"
 1565 02f5 07       		.byte	0x7
 1566 02f6 1D01     		.2byte	0x11d
 1567 02f8 91020000 		.4byte	0x291
 1568 02fc 02       		.byte	0x2
 1569 02fd 23       		.byte	0x23
 1570 02fe 14       		.uleb128 0x14
 1571 02ff 0C       		.uleb128 0xc
 1572 0300 72313000 		.ascii	"r10\000"
 1573 0304 07       		.byte	0x7
 1574 0305 1E01     		.2byte	0x11e
 1575 0307 91020000 		.4byte	0x291
 1576 030b 02       		.byte	0x2
 1577 030c 23       		.byte	0x23
 1578 030d 18       		.uleb128 0x18
ARM GAS  C:\Users\DNIEL~1\AppData\Local\Temp\cc47TTCl.s 			page 29


 1579 030e 0C       		.uleb128 0xc
 1580 030f 72313100 		.ascii	"r11\000"
 1581 0313 07       		.byte	0x7
 1582 0314 1F01     		.2byte	0x11f
 1583 0316 91020000 		.4byte	0x291
 1584 031a 02       		.byte	0x2
 1585 031b 23       		.byte	0x23
 1586 031c 1C       		.uleb128 0x1c
 1587 031d 0C       		.uleb128 0xc
 1588 031e 6C7200   		.ascii	"lr\000"
 1589 0321 07       		.byte	0x7
 1590 0322 2001     		.2byte	0x120
 1591 0324 91020000 		.4byte	0x291
 1592 0328 02       		.byte	0x2
 1593 0329 23       		.byte	0x23
 1594 032a 20       		.uleb128 0x20
 1595 032b 00       		.byte	0x0
 1596 032c 0B       		.uleb128 0xb
 1597 032d BB020000 		.4byte	.LASF47
 1598 0331 04       		.byte	0x4
 1599 0332 07       		.byte	0x7
 1600 0333 2A01     		.2byte	0x12a
 1601 0335 49030000 		.4byte	0x349
 1602 0339 0C       		.uleb128 0xc
 1603 033a 72313300 		.ascii	"r13\000"
 1604 033e 07       		.byte	0x7
 1605 033f 2B01     		.2byte	0x12b
 1606 0341 49030000 		.4byte	0x349
 1607 0345 02       		.byte	0x2
 1608 0346 23       		.byte	0x23
 1609 0347 00       		.uleb128 0x0
 1610 0348 00       		.byte	0x0
 1611 0349 09       		.uleb128 0x9
 1612 034a 04       		.byte	0x4
 1613 034b 9E020000 		.4byte	0x29e
 1614 034f 0D       		.uleb128 0xd
 1615 0350 86000000 		.4byte	0x86
 1616 0354 0D       		.uleb128 0xd
 1617 0355 FE000000 		.4byte	0xfe
 1618 0359 05       		.uleb128 0x5
 1619 035a 4A030000 		.4byte	.LASF48
 1620 035e 10       		.byte	0x10
 1621 035f 08       		.byte	0x8
 1622 0360 25       		.byte	0x25
 1623 0361 90030000 		.4byte	0x390
 1624 0365 06       		.uleb128 0x6
 1625 0366 03010000 		.4byte	.LASF49
 1626 036a 08       		.byte	0x8
 1627 036b 26       		.byte	0x26
 1628 036c 64020000 		.4byte	0x264
 1629 0370 02       		.byte	0x2
 1630 0371 23       		.byte	0x23
 1631 0372 00       		.uleb128 0x0
 1632 0373 06       		.uleb128 0x6
 1633 0374 5C060000 		.4byte	.LASF50
 1634 0378 08       		.byte	0x8
 1635 0379 28       		.byte	0x28
ARM GAS  C:\Users\DNIEL~1\AppData\Local\Temp\cc47TTCl.s 			page 30


 1636 037a 5E020000 		.4byte	0x25e
 1637 037e 02       		.byte	0x2
 1638 037f 23       		.byte	0x23
 1639 0380 08       		.uleb128 0x8
 1640 0381 06       		.uleb128 0x6
 1641 0382 1B050000 		.4byte	.LASF51
 1642 0386 08       		.byte	0x8
 1643 0387 2A       		.byte	0x2a
 1644 0388 90030000 		.4byte	0x390
 1645 038c 02       		.byte	0x2
 1646 038d 23       		.byte	0x23
 1647 038e 0C       		.uleb128 0xc
 1648 038f 00       		.byte	0x0
 1649 0390 09       		.uleb128 0x9
 1650 0391 04       		.byte	0x4
 1651 0392 59030000 		.4byte	0x359
 1652 0396 03       		.uleb128 0x3
 1653 0397 4A030000 		.4byte	.LASF48
 1654 039b 08       		.byte	0x8
 1655 039c 2C       		.byte	0x2c
 1656 039d 59030000 		.4byte	0x359
 1657 03a1 0E       		.uleb128 0xe
 1658 03a2 04       		.byte	0x4
 1659 03a3 06       		.byte	0x6
 1660 03a4 8F       		.byte	0x8f
 1661 03a5 D6030000 		.4byte	0x3d6
 1662 03a9 0F       		.uleb128 0xf
 1663 03aa 0C000000 		.4byte	.LASF52
 1664 03ae 06       		.byte	0x6
 1665 03af 96       		.byte	0x96
 1666 03b0 E8000000 		.4byte	0xe8
 1667 03b4 0F       		.uleb128 0xf
 1668 03b5 65000000 		.4byte	.LASF53
 1669 03b9 06       		.byte	0x6
 1670 03ba 9D       		.byte	0x9d
 1671 03bb E8000000 		.4byte	0xe8
 1672 03bf 0F       		.uleb128 0xf
 1673 03c0 03060000 		.4byte	.LASF54
 1674 03c4 06       		.byte	0x6
 1675 03c5 A4       		.byte	0xa4
 1676 03c6 9C020000 		.4byte	0x29c
 1677 03ca 0F       		.uleb128 0xf
 1678 03cb 76040000 		.4byte	.LASF55
 1679 03cf 06       		.byte	0x6
 1680 03d0 AB       		.byte	0xab
 1681 03d1 F3000000 		.4byte	0xf3
 1682 03d5 00       		.byte	0x0
 1683 03d6 09       		.uleb128 0x9
 1684 03d7 04       		.byte	0x4
 1685 03d8 DC030000 		.4byte	0x3dc
 1686 03dc 10       		.uleb128 0x10
 1687 03dd E1030000 		.4byte	0x3e1
 1688 03e1 04       		.uleb128 0x4
 1689 03e2 01       		.byte	0x1
 1690 03e3 08       		.byte	0x8
 1691 03e4 EE040000 		.4byte	.LASF56
 1692 03e8 09       		.uleb128 0x9
ARM GAS  C:\Users\DNIEL~1\AppData\Local\Temp\cc47TTCl.s 			page 31


 1693 03e9 04       		.byte	0x4
 1694 03ea 96030000 		.4byte	0x396
 1695 03ee 11       		.uleb128 0x11
 1696 03ef 86000000 		.4byte	0x86
 1697 03f3 FE030000 		.4byte	0x3fe
 1698 03f7 12       		.uleb128 0x12
 1699 03f8 3B000000 		.4byte	0x3b
 1700 03fc 01       		.byte	0x1
 1701 03fd 00       		.byte	0x0
 1702 03fe 0D       		.uleb128 0xd
 1703 03ff 62000000 		.4byte	0x62
 1704 0403 0D       		.uleb128 0xd
 1705 0404 74000000 		.4byte	0x74
 1706 0408 13       		.uleb128 0x13
 1707 0409 18       		.byte	0x18
 1708 040a 09       		.byte	0x9
 1709 040b D301     		.2byte	0x1d3
 1710 040d 6B040000 		.4byte	0x46b
 1711 0411 0C       		.uleb128 0xc
 1712 0412 435200   		.ascii	"CR\000"
 1713 0415 09       		.byte	0x9
 1714 0416 D501     		.2byte	0x1d5
 1715 0418 4F030000 		.4byte	0x34f
 1716 041c 02       		.byte	0x2
 1717 041d 23       		.byte	0x23
 1718 041e 00       		.uleb128 0x0
 1719 041f 14       		.uleb128 0x14
 1720 0420 3E050000 		.4byte	.LASF57
 1721 0424 09       		.byte	0x9
 1722 0425 D601     		.2byte	0x1d6
 1723 0427 4F030000 		.4byte	0x34f
 1724 042b 02       		.byte	0x2
 1725 042c 23       		.byte	0x23
 1726 042d 04       		.uleb128 0x4
 1727 042e 0C       		.uleb128 0xc
 1728 042f 50415200 		.ascii	"PAR\000"
 1729 0433 09       		.byte	0x9
 1730 0434 D701     		.2byte	0x1d7
 1731 0436 4F030000 		.4byte	0x34f
 1732 043a 02       		.byte	0x2
 1733 043b 23       		.byte	0x23
 1734 043c 08       		.uleb128 0x8
 1735 043d 14       		.uleb128 0x14
 1736 043e 00000000 		.4byte	.LASF58
 1737 0442 09       		.byte	0x9
 1738 0443 D801     		.2byte	0x1d8
 1739 0445 4F030000 		.4byte	0x34f
 1740 0449 02       		.byte	0x2
 1741 044a 23       		.byte	0x23
 1742 044b 0C       		.uleb128 0xc
 1743 044c 14       		.uleb128 0x14
 1744 044d 7F050000 		.4byte	.LASF59
 1745 0451 09       		.byte	0x9
 1746 0452 D901     		.2byte	0x1d9
 1747 0454 4F030000 		.4byte	0x34f
 1748 0458 02       		.byte	0x2
 1749 0459 23       		.byte	0x23
ARM GAS  C:\Users\DNIEL~1\AppData\Local\Temp\cc47TTCl.s 			page 32


 1750 045a 10       		.uleb128 0x10
 1751 045b 0C       		.uleb128 0xc
 1752 045c 46435200 		.ascii	"FCR\000"
 1753 0460 09       		.byte	0x9
 1754 0461 DA01     		.2byte	0x1da
 1755 0463 4F030000 		.4byte	0x34f
 1756 0467 02       		.byte	0x2
 1757 0468 23       		.byte	0x23
 1758 0469 14       		.uleb128 0x14
 1759 046a 00       		.byte	0x0
 1760 046b 15       		.uleb128 0x15
 1761 046c 43050000 		.4byte	.LASF60
 1762 0470 09       		.byte	0x9
 1763 0471 DB01     		.2byte	0x1db
 1764 0473 08040000 		.4byte	0x408
 1765 0477 13       		.uleb128 0x13
 1766 0478 88       		.byte	0x88
 1767 0479 09       		.byte	0x9
 1768 047a DB02     		.2byte	0x2db
 1769 047c 44060000 		.4byte	0x644
 1770 0480 0C       		.uleb128 0xc
 1771 0481 435200   		.ascii	"CR\000"
 1772 0484 09       		.byte	0x9
 1773 0485 DD02     		.2byte	0x2dd
 1774 0487 4F030000 		.4byte	0x34f
 1775 048b 02       		.byte	0x2
 1776 048c 23       		.byte	0x23
 1777 048d 00       		.uleb128 0x0
 1778 048e 14       		.uleb128 0x14
 1779 048f E7020000 		.4byte	.LASF61
 1780 0493 09       		.byte	0x9
 1781 0494 DE02     		.2byte	0x2de
 1782 0496 4F030000 		.4byte	0x34f
 1783 049a 02       		.byte	0x2
 1784 049b 23       		.byte	0x23
 1785 049c 04       		.uleb128 0x4
 1786 049d 14       		.uleb128 0x14
 1787 049e 7C020000 		.4byte	.LASF62
 1788 04a2 09       		.byte	0x9
 1789 04a3 DF02     		.2byte	0x2df
 1790 04a5 4F030000 		.4byte	0x34f
 1791 04a9 02       		.byte	0x2
 1792 04aa 23       		.byte	0x23
 1793 04ab 08       		.uleb128 0x8
 1794 04ac 0C       		.uleb128 0xc
 1795 04ad 43495200 		.ascii	"CIR\000"
 1796 04b1 09       		.byte	0x9
 1797 04b2 E002     		.2byte	0x2e0
 1798 04b4 4F030000 		.4byte	0x34f
 1799 04b8 02       		.byte	0x2
 1800 04b9 23       		.byte	0x23
 1801 04ba 0C       		.uleb128 0xc
 1802 04bb 14       		.uleb128 0x14
 1803 04bc E2000000 		.4byte	.LASF63
 1804 04c0 09       		.byte	0x9
 1805 04c1 E102     		.2byte	0x2e1
 1806 04c3 4F030000 		.4byte	0x34f
ARM GAS  C:\Users\DNIEL~1\AppData\Local\Temp\cc47TTCl.s 			page 33


 1807 04c7 02       		.byte	0x2
 1808 04c8 23       		.byte	0x23
 1809 04c9 10       		.uleb128 0x10
 1810 04ca 14       		.uleb128 0x14
 1811 04cb 07050000 		.4byte	.LASF64
 1812 04cf 09       		.byte	0x9
 1813 04d0 E202     		.2byte	0x2e2
 1814 04d2 4F030000 		.4byte	0x34f
 1815 04d6 02       		.byte	0x2
 1816 04d7 23       		.byte	0x23
 1817 04d8 14       		.uleb128 0x14
 1818 04d9 14       		.uleb128 0x14
 1819 04da 8D040000 		.4byte	.LASF65
 1820 04de 09       		.byte	0x9
 1821 04df E302     		.2byte	0x2e3
 1822 04e1 4F030000 		.4byte	0x34f
 1823 04e5 02       		.byte	0x2
 1824 04e6 23       		.byte	0x23
 1825 04e7 18       		.uleb128 0x18
 1826 04e8 14       		.uleb128 0x14
 1827 04e9 AA030000 		.4byte	.LASF66
 1828 04ed 09       		.byte	0x9
 1829 04ee E402     		.2byte	0x2e4
 1830 04f0 86000000 		.4byte	0x86
 1831 04f4 02       		.byte	0x2
 1832 04f5 23       		.byte	0x23
 1833 04f6 1C       		.uleb128 0x1c
 1834 04f7 14       		.uleb128 0x14
 1835 04f8 90030000 		.4byte	.LASF67
 1836 04fc 09       		.byte	0x9
 1837 04fd E502     		.2byte	0x2e5
 1838 04ff 4F030000 		.4byte	0x34f
 1839 0503 02       		.byte	0x2
 1840 0504 23       		.byte	0x23
 1841 0505 20       		.uleb128 0x20
 1842 0506 14       		.uleb128 0x14
 1843 0507 51010000 		.4byte	.LASF68
 1844 050b 09       		.byte	0x9
 1845 050c E602     		.2byte	0x2e6
 1846 050e 4F030000 		.4byte	0x34f
 1847 0512 02       		.byte	0x2
 1848 0513 23       		.byte	0x23
 1849 0514 24       		.uleb128 0x24
 1850 0515 14       		.uleb128 0x14
 1851 0516 B4030000 		.4byte	.LASF69
 1852 051a 09       		.byte	0x9
 1853 051b E702     		.2byte	0x2e7
 1854 051d EE030000 		.4byte	0x3ee
 1855 0521 02       		.byte	0x2
 1856 0522 23       		.byte	0x23
 1857 0523 28       		.uleb128 0x28
 1858 0524 14       		.uleb128 0x14
 1859 0525 2C060000 		.4byte	.LASF70
 1860 0529 09       		.byte	0x9
 1861 052a E802     		.2byte	0x2e8
 1862 052c 4F030000 		.4byte	0x34f
 1863 0530 02       		.byte	0x2
ARM GAS  C:\Users\DNIEL~1\AppData\Local\Temp\cc47TTCl.s 			page 34


 1864 0531 23       		.byte	0x23
 1865 0532 30       		.uleb128 0x30
 1866 0533 14       		.uleb128 0x14
 1867 0534 61050000 		.4byte	.LASF71
 1868 0538 09       		.byte	0x9
 1869 0539 E902     		.2byte	0x2e9
 1870 053b 4F030000 		.4byte	0x34f
 1871 053f 02       		.byte	0x2
 1872 0540 23       		.byte	0x23
 1873 0541 34       		.uleb128 0x34
 1874 0542 14       		.uleb128 0x14
 1875 0543 9B020000 		.4byte	.LASF72
 1876 0547 09       		.byte	0x9
 1877 0548 EA02     		.2byte	0x2ea
 1878 054a 4F030000 		.4byte	0x34f
 1879 054e 02       		.byte	0x2
 1880 054f 23       		.byte	0x23
 1881 0550 38       		.uleb128 0x38
 1882 0551 14       		.uleb128 0x14
 1883 0552 BE030000 		.4byte	.LASF73
 1884 0556 09       		.byte	0x9
 1885 0557 EB02     		.2byte	0x2eb
 1886 0559 86000000 		.4byte	0x86
 1887 055d 02       		.byte	0x2
 1888 055e 23       		.byte	0x23
 1889 055f 3C       		.uleb128 0x3c
 1890 0560 14       		.uleb128 0x14
 1891 0561 C8040000 		.4byte	.LASF74
 1892 0565 09       		.byte	0x9
 1893 0566 EC02     		.2byte	0x2ec
 1894 0568 4F030000 		.4byte	0x34f
 1895 056c 02       		.byte	0x2
 1896 056d 23       		.byte	0x23
 1897 056e 40       		.uleb128 0x40
 1898 056f 14       		.uleb128 0x14
 1899 0570 85040000 		.4byte	.LASF75
 1900 0574 09       		.byte	0x9
 1901 0575 ED02     		.2byte	0x2ed
 1902 0577 4F030000 		.4byte	0x34f
 1903 057b 02       		.byte	0x2
 1904 057c 23       		.byte	0x23
 1905 057d 44       		.uleb128 0x44
 1906 057e 14       		.uleb128 0x14
 1907 057f C8030000 		.4byte	.LASF76
 1908 0583 09       		.byte	0x9
 1909 0584 EE02     		.2byte	0x2ee
 1910 0586 EE030000 		.4byte	0x3ee
 1911 058a 02       		.byte	0x2
 1912 058b 23       		.byte	0x23
 1913 058c 48       		.uleb128 0x48
 1914 058d 14       		.uleb128 0x14
 1915 058e AC000000 		.4byte	.LASF77
 1916 0592 09       		.byte	0x9
 1917 0593 EF02     		.2byte	0x2ef
 1918 0595 4F030000 		.4byte	0x34f
 1919 0599 02       		.byte	0x2
 1920 059a 23       		.byte	0x23
ARM GAS  C:\Users\DNIEL~1\AppData\Local\Temp\cc47TTCl.s 			page 35


 1921 059b 50       		.uleb128 0x50
 1922 059c 14       		.uleb128 0x14
 1923 059d 86030000 		.4byte	.LASF78
 1924 05a1 09       		.byte	0x9
 1925 05a2 F002     		.2byte	0x2f0
 1926 05a4 4F030000 		.4byte	0x34f
 1927 05a8 02       		.byte	0x2
 1928 05a9 23       		.byte	0x23
 1929 05aa 54       		.uleb128 0x54
 1930 05ab 14       		.uleb128 0x14
 1931 05ac 6C040000 		.4byte	.LASF79
 1932 05b0 09       		.byte	0x9
 1933 05b1 F102     		.2byte	0x2f1
 1934 05b3 4F030000 		.4byte	0x34f
 1935 05b7 02       		.byte	0x2
 1936 05b8 23       		.byte	0x23
 1937 05b9 58       		.uleb128 0x58
 1938 05ba 14       		.uleb128 0x14
 1939 05bb D2030000 		.4byte	.LASF80
 1940 05bf 09       		.byte	0x9
 1941 05c0 F202     		.2byte	0x2f2
 1942 05c2 86000000 		.4byte	0x86
 1943 05c6 02       		.byte	0x2
 1944 05c7 23       		.byte	0x23
 1945 05c8 5C       		.uleb128 0x5c
 1946 05c9 14       		.uleb128 0x14
 1947 05ca 5A010000 		.4byte	.LASF81
 1948 05ce 09       		.byte	0x9
 1949 05cf F302     		.2byte	0x2f3
 1950 05d1 4F030000 		.4byte	0x34f
 1951 05d5 02       		.byte	0x2
 1952 05d6 23       		.byte	0x23
 1953 05d7 60       		.uleb128 0x60
 1954 05d8 14       		.uleb128 0x14
 1955 05d9 FF020000 		.4byte	.LASF82
 1956 05dd 09       		.byte	0x9
 1957 05de F402     		.2byte	0x2f4
 1958 05e0 4F030000 		.4byte	0x34f
 1959 05e4 02       		.byte	0x2
 1960 05e5 23       		.byte	0x23
 1961 05e6 64       		.uleb128 0x64
 1962 05e7 14       		.uleb128 0x14
 1963 05e8 AD040000 		.4byte	.LASF83
 1964 05ec 09       		.byte	0x9
 1965 05ed F502     		.2byte	0x2f5
 1966 05ef EE030000 		.4byte	0x3ee
 1967 05f3 02       		.byte	0x2
 1968 05f4 23       		.byte	0x23
 1969 05f5 68       		.uleb128 0x68
 1970 05f6 14       		.uleb128 0x14
 1971 05f7 A4050000 		.4byte	.LASF84
 1972 05fb 09       		.byte	0x9
 1973 05fc F602     		.2byte	0x2f6
 1974 05fe 4F030000 		.4byte	0x34f
 1975 0602 02       		.byte	0x2
 1976 0603 23       		.byte	0x23
 1977 0604 70       		.uleb128 0x70
ARM GAS  C:\Users\DNIEL~1\AppData\Local\Temp\cc47TTCl.s 			page 36


 1978 0605 0C       		.uleb128 0xc
 1979 0606 43535200 		.ascii	"CSR\000"
 1980 060a 09       		.byte	0x9
 1981 060b F702     		.2byte	0x2f7
 1982 060d 4F030000 		.4byte	0x34f
 1983 0611 02       		.byte	0x2
 1984 0612 23       		.byte	0x23
 1985 0613 74       		.uleb128 0x74
 1986 0614 14       		.uleb128 0x14
 1987 0615 E3030000 		.4byte	.LASF85
 1988 0619 09       		.byte	0x9
 1989 061a F802     		.2byte	0x2f8
 1990 061c EE030000 		.4byte	0x3ee
 1991 0620 02       		.byte	0x2
 1992 0621 23       		.byte	0x23
 1993 0622 78       		.uleb128 0x78
 1994 0623 14       		.uleb128 0x14
 1995 0624 8F050000 		.4byte	.LASF86
 1996 0628 09       		.byte	0x9
 1997 0629 F902     		.2byte	0x2f9
 1998 062b 4F030000 		.4byte	0x34f
 1999 062f 03       		.byte	0x3
 2000 0630 23       		.byte	0x23
 2001 0631 8001     		.uleb128 0x80
 2002 0633 14       		.uleb128 0x14
 2003 0634 D6020000 		.4byte	.LASF87
 2004 0638 09       		.byte	0x9
 2005 0639 FA02     		.2byte	0x2fa
 2006 063b 4F030000 		.4byte	0x34f
 2007 063f 03       		.byte	0x3
 2008 0640 23       		.byte	0x23
 2009 0641 8401     		.uleb128 0x84
 2010 0643 00       		.byte	0x0
 2011 0644 15       		.uleb128 0x15
 2012 0645 A3020000 		.4byte	.LASF88
 2013 0649 09       		.byte	0x9
 2014 064a FB02     		.2byte	0x2fb
 2015 064c 77040000 		.4byte	0x477
 2016 0650 13       		.uleb128 0x13
 2017 0651 24       		.byte	0x24
 2018 0652 09       		.byte	0x9
 2019 0653 4D03     		.2byte	0x34d
 2020 0655 66070000 		.4byte	0x766
 2021 0659 0C       		.uleb128 0xc
 2022 065a 43523100 		.ascii	"CR1\000"
 2023 065e 09       		.byte	0x9
 2024 065f 4F03     		.2byte	0x34f
 2025 0661 FE030000 		.4byte	0x3fe
 2026 0665 02       		.byte	0x2
 2027 0666 23       		.byte	0x23
 2028 0667 00       		.uleb128 0x0
 2029 0668 14       		.uleb128 0x14
 2030 0669 AA030000 		.4byte	.LASF66
 2031 066d 09       		.byte	0x9
 2032 066e 5003     		.2byte	0x350
 2033 0670 62000000 		.4byte	0x62
 2034 0674 02       		.byte	0x2
ARM GAS  C:\Users\DNIEL~1\AppData\Local\Temp\cc47TTCl.s 			page 37


 2035 0675 23       		.byte	0x23
 2036 0676 02       		.uleb128 0x2
 2037 0677 0C       		.uleb128 0xc
 2038 0678 43523200 		.ascii	"CR2\000"
 2039 067c 09       		.byte	0x9
 2040 067d 5103     		.2byte	0x351
 2041 067f FE030000 		.4byte	0x3fe
 2042 0683 02       		.byte	0x2
 2043 0684 23       		.byte	0x23
 2044 0685 04       		.uleb128 0x4
 2045 0686 14       		.uleb128 0x14
 2046 0687 B4030000 		.4byte	.LASF69
 2047 068b 09       		.byte	0x9
 2048 068c 5203     		.2byte	0x352
 2049 068e 62000000 		.4byte	0x62
 2050 0692 02       		.byte	0x2
 2051 0693 23       		.byte	0x23
 2052 0694 06       		.uleb128 0x6
 2053 0695 0C       		.uleb128 0xc
 2054 0696 535200   		.ascii	"SR\000"
 2055 0699 09       		.byte	0x9
 2056 069a 5303     		.2byte	0x353
 2057 069c FE030000 		.4byte	0x3fe
 2058 06a0 02       		.byte	0x2
 2059 06a1 23       		.byte	0x23
 2060 06a2 08       		.uleb128 0x8
 2061 06a3 14       		.uleb128 0x14
 2062 06a4 BE030000 		.4byte	.LASF73
 2063 06a8 09       		.byte	0x9
 2064 06a9 5403     		.2byte	0x354
 2065 06ab 62000000 		.4byte	0x62
 2066 06af 02       		.byte	0x2
 2067 06b0 23       		.byte	0x23
 2068 06b1 0A       		.uleb128 0xa
 2069 06b2 0C       		.uleb128 0xc
 2070 06b3 445200   		.ascii	"DR\000"
 2071 06b6 09       		.byte	0x9
 2072 06b7 5503     		.2byte	0x355
 2073 06b9 FE030000 		.4byte	0x3fe
 2074 06bd 02       		.byte	0x2
 2075 06be 23       		.byte	0x23
 2076 06bf 0C       		.uleb128 0xc
 2077 06c0 14       		.uleb128 0x14
 2078 06c1 C8030000 		.4byte	.LASF76
 2079 06c5 09       		.byte	0x9
 2080 06c6 5603     		.2byte	0x356
 2081 06c8 62000000 		.4byte	0x62
 2082 06cc 02       		.byte	0x2
 2083 06cd 23       		.byte	0x23
 2084 06ce 0E       		.uleb128 0xe
 2085 06cf 14       		.uleb128 0x14
 2086 06d0 59000000 		.4byte	.LASF89
 2087 06d4 09       		.byte	0x9
 2088 06d5 5703     		.2byte	0x357
 2089 06d7 FE030000 		.4byte	0x3fe
 2090 06db 02       		.byte	0x2
 2091 06dc 23       		.byte	0x23
ARM GAS  C:\Users\DNIEL~1\AppData\Local\Temp\cc47TTCl.s 			page 38


 2092 06dd 10       		.uleb128 0x10
 2093 06de 14       		.uleb128 0x14
 2094 06df D2030000 		.4byte	.LASF80
 2095 06e3 09       		.byte	0x9
 2096 06e4 5803     		.2byte	0x358
 2097 06e6 62000000 		.4byte	0x62
 2098 06ea 02       		.byte	0x2
 2099 06eb 23       		.byte	0x23
 2100 06ec 12       		.uleb128 0x12
 2101 06ed 14       		.uleb128 0x14
 2102 06ee A9050000 		.4byte	.LASF90
 2103 06f2 09       		.byte	0x9
 2104 06f3 5903     		.2byte	0x359
 2105 06f5 FE030000 		.4byte	0x3fe
 2106 06f9 02       		.byte	0x2
 2107 06fa 23       		.byte	0x23
 2108 06fb 14       		.uleb128 0x14
 2109 06fc 14       		.uleb128 0x14
 2110 06fd AD040000 		.4byte	.LASF83
 2111 0701 09       		.byte	0x9
 2112 0702 5A03     		.2byte	0x35a
 2113 0704 62000000 		.4byte	0x62
 2114 0708 02       		.byte	0x2
 2115 0709 23       		.byte	0x23
 2116 070a 16       		.uleb128 0x16
 2117 070b 14       		.uleb128 0x14
 2118 070c A3030000 		.4byte	.LASF91
 2119 0710 09       		.byte	0x9
 2120 0711 5B03     		.2byte	0x35b
 2121 0713 FE030000 		.4byte	0x3fe
 2122 0717 02       		.byte	0x2
 2123 0718 23       		.byte	0x23
 2124 0719 18       		.uleb128 0x18
 2125 071a 14       		.uleb128 0x14
 2126 071b E3030000 		.4byte	.LASF85
 2127 071f 09       		.byte	0x9
 2128 0720 5C03     		.2byte	0x35c
 2129 0722 62000000 		.4byte	0x62
 2130 0726 02       		.byte	0x2
 2131 0727 23       		.byte	0x23
 2132 0728 1A       		.uleb128 0x1a
 2133 0729 14       		.uleb128 0x14
 2134 072a F4000000 		.4byte	.LASF92
 2135 072e 09       		.byte	0x9
 2136 072f 5D03     		.2byte	0x35d
 2137 0731 FE030000 		.4byte	0x3fe
 2138 0735 02       		.byte	0x2
 2139 0736 23       		.byte	0x23
 2140 0737 1C       		.uleb128 0x1c
 2141 0738 14       		.uleb128 0x14
 2142 0739 ED030000 		.4byte	.LASF93
 2143 073d 09       		.byte	0x9
 2144 073e 5E03     		.2byte	0x35e
 2145 0740 62000000 		.4byte	0x62
 2146 0744 02       		.byte	0x2
 2147 0745 23       		.byte	0x23
 2148 0746 1E       		.uleb128 0x1e
ARM GAS  C:\Users\DNIEL~1\AppData\Local\Temp\cc47TTCl.s 			page 39


 2149 0747 14       		.uleb128 0x14
 2150 0748 3E030000 		.4byte	.LASF94
 2151 074c 09       		.byte	0x9
 2152 074d 5F03     		.2byte	0x35f
 2153 074f FE030000 		.4byte	0x3fe
 2154 0753 02       		.byte	0x2
 2155 0754 23       		.byte	0x23
 2156 0755 20       		.uleb128 0x20
 2157 0756 14       		.uleb128 0x14
 2158 0757 F7030000 		.4byte	.LASF95
 2159 075b 09       		.byte	0x9
 2160 075c 6003     		.2byte	0x360
 2161 075e 62000000 		.4byte	0x62
 2162 0762 02       		.byte	0x2
 2163 0763 23       		.byte	0x23
 2164 0764 22       		.uleb128 0x22
 2165 0765 00       		.byte	0x0
 2166 0766 15       		.uleb128 0x15
 2167 0767 E2040000 		.4byte	.LASF96
 2168 076b 09       		.byte	0x9
 2169 076c 6103     		.2byte	0x361
 2170 076e 50060000 		.4byte	0x650
 2171 0772 08       		.uleb128 0x8
 2172 0773 0C       		.byte	0xc
 2173 0774 0A       		.byte	0xa
 2174 0775 DE       		.byte	0xde
 2175 0776 C1070000 		.4byte	0x7c1
 2176 077a 06       		.uleb128 0x6
 2177 077b 25000000 		.4byte	.LASF97
 2178 077f 0A       		.byte	0xa
 2179 0780 DF       		.byte	0xdf
 2180 0781 C1070000 		.4byte	0x7c1
 2181 0785 02       		.byte	0x2
 2182 0786 23       		.byte	0x23
 2183 0787 00       		.uleb128 0x0
 2184 0788 06       		.uleb128 0x6
 2185 0789 A8040000 		.4byte	.LASF98
 2186 078d 0A       		.byte	0xa
 2187 078e E0       		.byte	0xe0
 2188 078f C7070000 		.4byte	0x7c7
 2189 0793 02       		.byte	0x2
 2190 0794 23       		.byte	0x23
 2191 0795 04       		.uleb128 0x4
 2192 0796 06       		.uleb128 0x6
 2193 0797 B4020000 		.4byte	.LASF99
 2194 079b 0A       		.byte	0xa
 2195 079c E1       		.byte	0xe1
 2196 079d 49000000 		.4byte	0x49
 2197 07a1 02       		.byte	0x2
 2198 07a2 23       		.byte	0x23
 2199 07a3 08       		.uleb128 0x8
 2200 07a4 06       		.uleb128 0x6
 2201 07a5 DA010000 		.4byte	.LASF100
 2202 07a9 0A       		.byte	0xa
 2203 07aa E3       		.byte	0xe3
 2204 07ab 49000000 		.4byte	0x49
 2205 07af 02       		.byte	0x2
ARM GAS  C:\Users\DNIEL~1\AppData\Local\Temp\cc47TTCl.s 			page 40


 2206 07b0 23       		.byte	0x23
 2207 07b1 09       		.uleb128 0x9
 2208 07b2 06       		.uleb128 0x6
 2209 07b3 6E000000 		.4byte	.LASF101
 2210 07b7 0A       		.byte	0xa
 2211 07b8 E4       		.byte	0xe4
 2212 07b9 49000000 		.4byte	0x49
 2213 07bd 02       		.byte	0x2
 2214 07be 23       		.byte	0x23
 2215 07bf 0A       		.uleb128 0xa
 2216 07c0 00       		.byte	0x0
 2217 07c1 09       		.uleb128 0x9
 2218 07c2 04       		.byte	0x4
 2219 07c3 6B040000 		.4byte	0x46b
 2220 07c7 09       		.uleb128 0x9
 2221 07c8 04       		.byte	0x4
 2222 07c9 4F030000 		.4byte	0x34f
 2223 07cd 03       		.uleb128 0x3
 2224 07ce 25040000 		.4byte	.LASF102
 2225 07d2 0A       		.byte	0xa
 2226 07d3 E5       		.byte	0xe5
 2227 07d4 72070000 		.4byte	0x772
 2228 07d8 03       		.uleb128 0x3
 2229 07d9 81020000 		.4byte	.LASF103
 2230 07dd 0A       		.byte	0xa
 2231 07de EE       		.byte	0xee
 2232 07df E3070000 		.4byte	0x7e3
 2233 07e3 09       		.uleb128 0x9
 2234 07e4 04       		.byte	0x4
 2235 07e5 E9070000 		.4byte	0x7e9
 2236 07e9 16       		.uleb128 0x16
 2237 07ea 01       		.byte	0x1
 2238 07eb FA070000 		.4byte	0x7fa
 2239 07ef 17       		.uleb128 0x17
 2240 07f0 9C020000 		.4byte	0x29c
 2241 07f4 17       		.uleb128 0x17
 2242 07f5 86000000 		.4byte	0x86
 2243 07f9 00       		.byte	0x0
 2244 07fa 08       		.uleb128 0x8
 2245 07fb 04       		.byte	0x4
 2246 07fc 0B       		.byte	0xb
 2247 07fd 97       		.byte	0x97
 2248 07fe 1F080000 		.4byte	0x81f
 2249 0802 07       		.uleb128 0x7
 2250 0803 73657400 		.ascii	"set\000"
 2251 0807 0B       		.byte	0xb
 2252 0808 98       		.byte	0x98
 2253 0809 62000000 		.4byte	0x62
 2254 080d 02       		.byte	0x2
 2255 080e 23       		.byte	0x23
 2256 080f 00       		.uleb128 0x0
 2257 0810 06       		.uleb128 0x6
 2258 0811 44030000 		.4byte	.LASF104
 2259 0815 0B       		.byte	0xb
 2260 0816 99       		.byte	0x99
 2261 0817 62000000 		.4byte	0x62
 2262 081b 02       		.byte	0x2
ARM GAS  C:\Users\DNIEL~1\AppData\Local\Temp\cc47TTCl.s 			page 41


 2263 081c 23       		.byte	0x23
 2264 081d 02       		.uleb128 0x2
 2265 081e 00       		.byte	0x0
 2266 081f 0E       		.uleb128 0xe
 2267 0820 04       		.byte	0x4
 2268 0821 0B       		.byte	0xb
 2269 0822 95       		.byte	0x95
 2270 0823 3A080000 		.4byte	0x83a
 2271 0827 18       		.uleb128 0x18
 2272 0828 5700     		.ascii	"W\000"
 2273 082a 0B       		.byte	0xb
 2274 082b 96       		.byte	0x96
 2275 082c 86000000 		.4byte	0x86
 2276 0830 18       		.uleb128 0x18
 2277 0831 4800     		.ascii	"H\000"
 2278 0833 0B       		.byte	0xb
 2279 0834 9A       		.byte	0x9a
 2280 0835 FA070000 		.4byte	0x7fa
 2281 0839 00       		.byte	0x0
 2282 083a 08       		.uleb128 0x8
 2283 083b 28       		.byte	0x28
 2284 083c 0B       		.byte	0xb
 2285 083d 8D       		.byte	0x8d
 2286 083e CF080000 		.4byte	0x8cf
 2287 0842 06       		.uleb128 0x6
 2288 0843 32000000 		.4byte	.LASF105
 2289 0847 0B       		.byte	0xb
 2290 0848 8F       		.byte	0x8f
 2291 0849 4F030000 		.4byte	0x34f
 2292 084d 02       		.byte	0x2
 2293 084e 23       		.byte	0x23
 2294 084f 00       		.uleb128 0x0
 2295 0850 06       		.uleb128 0x6
 2296 0851 13000000 		.4byte	.LASF106
 2297 0855 0B       		.byte	0xb
 2298 0856 90       		.byte	0x90
 2299 0857 4F030000 		.4byte	0x34f
 2300 085b 02       		.byte	0x2
 2301 085c 23       		.byte	0x23
 2302 085d 04       		.uleb128 0x4
 2303 085e 06       		.uleb128 0x6
 2304 085f C1010000 		.4byte	.LASF107
 2305 0863 0B       		.byte	0xb
 2306 0864 91       		.byte	0x91
 2307 0865 4F030000 		.4byte	0x34f
 2308 0869 02       		.byte	0x2
 2309 086a 23       		.byte	0x23
 2310 086b 08       		.uleb128 0x8
 2311 086c 06       		.uleb128 0x6
 2312 086d 5F000000 		.4byte	.LASF108
 2313 0871 0B       		.byte	0xb
 2314 0872 92       		.byte	0x92
 2315 0873 4F030000 		.4byte	0x34f
 2316 0877 02       		.byte	0x2
 2317 0878 23       		.byte	0x23
 2318 0879 0C       		.uleb128 0xc
 2319 087a 07       		.uleb128 0x7
ARM GAS  C:\Users\DNIEL~1\AppData\Local\Temp\cc47TTCl.s 			page 42


 2320 087b 49445200 		.ascii	"IDR\000"
 2321 087f 0B       		.byte	0xb
 2322 0880 93       		.byte	0x93
 2323 0881 4F030000 		.4byte	0x34f
 2324 0885 02       		.byte	0x2
 2325 0886 23       		.byte	0x23
 2326 0887 10       		.uleb128 0x10
 2327 0888 07       		.uleb128 0x7
 2328 0889 4F445200 		.ascii	"ODR\000"
 2329 088d 0B       		.byte	0xb
 2330 088e 94       		.byte	0x94
 2331 088f 4F030000 		.4byte	0x34f
 2332 0893 02       		.byte	0x2
 2333 0894 23       		.byte	0x23
 2334 0895 14       		.uleb128 0x14
 2335 0896 06       		.uleb128 0x6
 2336 0897 DD000000 		.4byte	.LASF109
 2337 089b 0B       		.byte	0xb
 2338 089c 9B       		.byte	0x9b
 2339 089d CF080000 		.4byte	0x8cf
 2340 08a1 02       		.byte	0x2
 2341 08a2 23       		.byte	0x23
 2342 08a3 18       		.uleb128 0x18
 2343 08a4 06       		.uleb128 0x6
 2344 08a5 AF020000 		.4byte	.LASF110
 2345 08a9 0B       		.byte	0xb
 2346 08aa 9C       		.byte	0x9c
 2347 08ab 4F030000 		.4byte	0x34f
 2348 08af 02       		.byte	0x2
 2349 08b0 23       		.byte	0x23
 2350 08b1 1C       		.uleb128 0x1c
 2351 08b2 06       		.uleb128 0x6
 2352 08b3 9E030000 		.4byte	.LASF111
 2353 08b7 0B       		.byte	0xb
 2354 08b8 9D       		.byte	0x9d
 2355 08b9 4F030000 		.4byte	0x34f
 2356 08bd 02       		.byte	0x2
 2357 08be 23       		.byte	0x23
 2358 08bf 20       		.uleb128 0x20
 2359 08c0 06       		.uleb128 0x6
 2360 08c1 99030000 		.4byte	.LASF112
 2361 08c5 0B       		.byte	0xb
 2362 08c6 9E       		.byte	0x9e
 2363 08c7 4F030000 		.4byte	0x34f
 2364 08cb 02       		.byte	0x2
 2365 08cc 23       		.byte	0x23
 2366 08cd 24       		.uleb128 0x24
 2367 08ce 00       		.byte	0x0
 2368 08cf 0D       		.uleb128 0xd
 2369 08d0 1F080000 		.4byte	0x81f
 2370 08d4 03       		.uleb128 0x3
 2371 08d5 AE010000 		.4byte	.LASF113
 2372 08d9 0B       		.byte	0xb
 2373 08da 9F       		.byte	0x9f
 2374 08db 3A080000 		.4byte	0x83a
 2375 08df 03       		.uleb128 0x3
 2376 08e0 64030000 		.4byte	.LASF114
ARM GAS  C:\Users\DNIEL~1\AppData\Local\Temp\cc47TTCl.s 			page 43


 2377 08e4 0B       		.byte	0xb
 2378 08e5 E9       		.byte	0xe9
 2379 08e6 86000000 		.4byte	0x86
 2380 08ea 03       		.uleb128 0x3
 2381 08eb 56050000 		.4byte	.LASF115
 2382 08ef 0B       		.byte	0xb
 2383 08f0 F6       		.byte	0xf6
 2384 08f1 F5080000 		.4byte	0x8f5
 2385 08f5 09       		.uleb128 0x9
 2386 08f6 04       		.byte	0x4
 2387 08f7 D4080000 		.4byte	0x8d4
 2388 08fb 09       		.uleb128 0x9
 2389 08fc 04       		.byte	0x4
 2390 08fd 01090000 		.4byte	0x901
 2391 0901 10       		.uleb128 0x10
 2392 0902 CD070000 		.4byte	0x7cd
 2393 0906 19       		.uleb128 0x19
 2394 0907 01       		.byte	0x1
 2395 0908 0C       		.byte	0xc
 2396 0909 4E       		.byte	0x4e
 2397 090a 2D090000 		.4byte	0x92d
 2398 090e 1A       		.uleb128 0x1a
 2399 090f 84050000 		.4byte	.LASF116
 2400 0913 00       		.sleb128 0
 2401 0914 1A       		.uleb128 0x1a
 2402 0915 EB000000 		.4byte	.LASF117
 2403 0919 01       		.sleb128 1
 2404 091a 1A       		.uleb128 0x1a
 2405 091b 4F000000 		.4byte	.LASF118
 2406 091f 02       		.sleb128 2
 2407 0920 1A       		.uleb128 0x1a
 2408 0921 1A000000 		.4byte	.LASF119
 2409 0925 03       		.sleb128 3
 2410 0926 1A       		.uleb128 0x1a
 2411 0927 F3040000 		.4byte	.LASF120
 2412 092b 04       		.sleb128 4
 2413 092c 00       		.byte	0x0
 2414 092d 03       		.uleb128 0x3
 2415 092e 10050000 		.4byte	.LASF121
 2416 0932 0C       		.byte	0xc
 2417 0933 54       		.byte	0x54
 2418 0934 06090000 		.4byte	0x906
 2419 0938 15       		.uleb128 0x15
 2420 0939 88000000 		.4byte	.LASF122
 2421 093d 0D       		.byte	0xd
 2422 093e 2701     		.2byte	0x127
 2423 0940 44090000 		.4byte	0x944
 2424 0944 0B       		.uleb128 0xb
 2425 0945 88000000 		.4byte	.LASF122
 2426 0949 30       		.byte	0x30
 2427 094a 0D       		.byte	0xd
 2428 094b 4B01     		.2byte	0x14b
 2429 094d D9090000 		.4byte	0x9d9
 2430 0951 14       		.uleb128 0x14
 2431 0952 27010000 		.4byte	.LASF123
 2432 0956 0D       		.byte	0xd
 2433 0957 4F01     		.2byte	0x14f
ARM GAS  C:\Users\DNIEL~1\AppData\Local\Temp\cc47TTCl.s 			page 44


 2434 0959 2D090000 		.4byte	0x92d
 2435 095d 02       		.byte	0x2
 2436 095e 23       		.byte	0x23
 2437 095f 00       		.uleb128 0x0
 2438 0960 14       		.uleb128 0x14
 2439 0961 00050000 		.4byte	.LASF124
 2440 0965 0D       		.byte	0xd
 2441 0966 5301     		.2byte	0x153
 2442 0968 4F0A0000 		.4byte	0xa4f
 2443 096c 02       		.byte	0x2
 2444 096d 23       		.byte	0x23
 2445 096e 04       		.uleb128 0x4
 2446 096f 14       		.uleb128 0x14
 2447 0970 37050000 		.4byte	.LASF125
 2448 0974 0D       		.byte	0xd
 2449 0975 5801     		.2byte	0x158
 2450 0977 5E020000 		.4byte	0x25e
 2451 097b 02       		.byte	0x2
 2452 097c 23       		.byte	0x23
 2453 097d 08       		.uleb128 0x8
 2454 097e 14       		.uleb128 0x14
 2455 097f 09040000 		.4byte	.LASF126
 2456 0983 0D       		.byte	0xd
 2457 0984 5F01     		.2byte	0x15f
 2458 0986 96030000 		.4byte	0x396
 2459 098a 02       		.byte	0x2
 2460 098b 23       		.byte	0x23
 2461 098c 0C       		.uleb128 0xc
 2462 098d 0C       		.uleb128 0xc
 2463 098e 73706900 		.ascii	"spi\000"
 2464 0992 0D       		.byte	0xd
 2465 0993 6B01     		.2byte	0x16b
 2466 0995 5A0A0000 		.4byte	0xa5a
 2467 0999 02       		.byte	0x2
 2468 099a 23       		.byte	0x23
 2469 099b 1C       		.uleb128 0x1c
 2470 099c 14       		.uleb128 0x14
 2471 099d 2C000000 		.4byte	.LASF127
 2472 09a1 0D       		.byte	0xd
 2473 09a2 6F01     		.2byte	0x16f
 2474 09a4 FB080000 		.4byte	0x8fb
 2475 09a8 02       		.byte	0x2
 2476 09a9 23       		.byte	0x23
 2477 09aa 20       		.uleb128 0x20
 2478 09ab 14       		.uleb128 0x14
 2479 09ac BB010000 		.4byte	.LASF128
 2480 09b0 0D       		.byte	0xd
 2481 09b1 7301     		.2byte	0x173
 2482 09b3 FB080000 		.4byte	0x8fb
 2483 09b7 02       		.byte	0x2
 2484 09b8 23       		.byte	0x23
 2485 09b9 24       		.uleb128 0x24
 2486 09ba 14       		.uleb128 0x14
 2487 09bb A4010000 		.4byte	.LASF129
 2488 09bf 0D       		.byte	0xd
 2489 09c0 7701     		.2byte	0x177
 2490 09c2 86000000 		.4byte	0x86
ARM GAS  C:\Users\DNIEL~1\AppData\Local\Temp\cc47TTCl.s 			page 45


 2491 09c6 02       		.byte	0x2
 2492 09c7 23       		.byte	0x23
 2493 09c8 28       		.uleb128 0x28
 2494 09c9 14       		.uleb128 0x14
 2495 09ca 41020000 		.4byte	.LASF130
 2496 09ce 0D       		.byte	0xd
 2497 09cf 7B01     		.2byte	0x17b
 2498 09d1 86000000 		.4byte	0x86
 2499 09d5 02       		.byte	0x2
 2500 09d6 23       		.byte	0x23
 2501 09d7 2C       		.uleb128 0x2c
 2502 09d8 00       		.byte	0x0
 2503 09d9 15       		.uleb128 0x15
 2504 09da 33020000 		.4byte	.LASF131
 2505 09de 0D       		.byte	0xd
 2506 09df 2F01     		.2byte	0x12f
 2507 09e1 E5090000 		.4byte	0x9e5
 2508 09e5 09       		.uleb128 0x9
 2509 09e6 04       		.byte	0x4
 2510 09e7 EB090000 		.4byte	0x9eb
 2511 09eb 16       		.uleb128 0x16
 2512 09ec 01       		.byte	0x1
 2513 09ed F7090000 		.4byte	0x9f7
 2514 09f1 17       		.uleb128 0x17
 2515 09f2 F7090000 		.4byte	0x9f7
 2516 09f6 00       		.byte	0x0
 2517 09f7 09       		.uleb128 0x9
 2518 09f8 04       		.byte	0x4
 2519 09f9 38090000 		.4byte	0x938
 2520 09fd 13       		.uleb128 0x13
 2521 09fe 0C       		.byte	0xc
 2522 09ff 0D       		.byte	0xd
 2523 0a00 3401     		.2byte	0x134
 2524 0a02 430A0000 		.4byte	0xa43
 2525 0a06 14       		.uleb128 0x14
 2526 0a07 9D010000 		.4byte	.LASF132
 2527 0a0b 0D       		.byte	0xd
 2528 0a0c 3801     		.2byte	0x138
 2529 0a0e D9090000 		.4byte	0x9d9
 2530 0a12 02       		.byte	0x2
 2531 0a13 23       		.byte	0x23
 2532 0a14 00       		.uleb128 0x0
 2533 0a15 14       		.uleb128 0x14
 2534 0a16 92000000 		.4byte	.LASF133
 2535 0a1a 0D       		.byte	0xd
 2536 0a1b 3D01     		.2byte	0x13d
 2537 0a1d EA080000 		.4byte	0x8ea
 2538 0a21 02       		.byte	0x2
 2539 0a22 23       		.byte	0x23
 2540 0a23 04       		.uleb128 0x4
 2541 0a24 14       		.uleb128 0x14
 2542 0a25 BD000000 		.4byte	.LASF134
 2543 0a29 0D       		.byte	0xd
 2544 0a2a 4101     		.2byte	0x141
 2545 0a2c 62000000 		.4byte	0x62
 2546 0a30 02       		.byte	0x2
 2547 0a31 23       		.byte	0x23
ARM GAS  C:\Users\DNIEL~1\AppData\Local\Temp\cc47TTCl.s 			page 46


 2548 0a32 08       		.uleb128 0x8
 2549 0a33 0C       		.uleb128 0xc
 2550 0a34 63723100 		.ascii	"cr1\000"
 2551 0a38 0D       		.byte	0xd
 2552 0a39 4501     		.2byte	0x145
 2553 0a3b 62000000 		.4byte	0x62
 2554 0a3f 02       		.byte	0x2
 2555 0a40 23       		.byte	0x23
 2556 0a41 0A       		.uleb128 0xa
 2557 0a42 00       		.byte	0x0
 2558 0a43 15       		.uleb128 0x15
 2559 0a44 4C060000 		.4byte	.LASF135
 2560 0a48 0D       		.byte	0xd
 2561 0a49 4601     		.2byte	0x146
 2562 0a4b FD090000 		.4byte	0x9fd
 2563 0a4f 09       		.uleb128 0x9
 2564 0a50 04       		.byte	0x4
 2565 0a51 550A0000 		.4byte	0xa55
 2566 0a55 10       		.uleb128 0x10
 2567 0a56 430A0000 		.4byte	0xa43
 2568 0a5a 09       		.uleb128 0x9
 2569 0a5b 04       		.byte	0x4
 2570 0a5c 66070000 		.4byte	0x766
 2571 0a60 1B       		.uleb128 0x1b
 2572 0a61 0A060000 		.4byte	.LASF138
 2573 0a65 01       		.byte	0x1
 2574 0a66 7C       		.byte	0x7c
 2575 0a67 01       		.byte	0x1
 2576 0a68 00000000 		.4byte	.LFB119
 2577 0a6c 0C000000 		.4byte	.LFE119
 2578 0a70 02       		.byte	0x2
 2579 0a71 7D       		.byte	0x7d
 2580 0a72 00       		.sleb128 0
 2581 0a73 920A0000 		.4byte	0xa92
 2582 0a77 1C       		.uleb128 0x1c
 2583 0a78 F8050000 		.4byte	.LASF136
 2584 0a7c 01       		.byte	0x1
 2585 0a7d 7C       		.byte	0x7c
 2586 0a7e F7090000 		.4byte	0x9f7
 2587 0a82 01       		.byte	0x1
 2588 0a83 50       		.byte	0x50
 2589 0a84 1C       		.uleb128 0x1c
 2590 0a85 FD050000 		.4byte	.LASF137
 2591 0a89 01       		.byte	0x1
 2592 0a8a 7C       		.byte	0x7c
 2593 0a8b 86000000 		.4byte	0x86
 2594 0a8f 01       		.byte	0x1
 2595 0a90 51       		.byte	0x51
 2596 0a91 00       		.byte	0x0
 2597 0a92 1D       		.uleb128 0x1d
 2598 0a93 36010000 		.4byte	.LASF139
 2599 0a97 01       		.byte	0x1
 2600 0a98 62       		.byte	0x62
 2601 0a99 01       		.byte	0x1
 2602 0a9a 00000000 		.4byte	.LFB118
 2603 0a9e 84000000 		.4byte	.LFE118
 2604 0aa2 00000000 		.4byte	.LLST0
ARM GAS  C:\Users\DNIEL~1\AppData\Local\Temp\cc47TTCl.s 			page 47


 2605 0aa6 170B0000 		.4byte	0xb17
 2606 0aaa 1E       		.uleb128 0x1e
 2607 0aab F8050000 		.4byte	.LASF136
 2608 0aaf 01       		.byte	0x1
 2609 0ab0 62       		.byte	0x62
 2610 0ab1 F7090000 		.4byte	0x9f7
 2611 0ab5 20000000 		.4byte	.LLST1
 2612 0ab9 1E       		.uleb128 0x1e
 2613 0aba FD050000 		.4byte	.LASF137
 2614 0abe 01       		.byte	0x1
 2615 0abf 62       		.byte	0x62
 2616 0ac0 86000000 		.4byte	0x86
 2617 0ac4 3E000000 		.4byte	.LLST2
 2618 0ac8 1F       		.uleb128 0x1f
 2619 0ac9 62000000 		.4byte	.LBB2
 2620 0acd 78000000 		.4byte	.LBE2
 2621 0ad1 20       		.uleb128 0x20
 2622 0ad2 747000   		.ascii	"tp\000"
 2623 0ad5 01       		.byte	0x1
 2624 0ad6 73       		.byte	0x73
 2625 0ad7 5E020000 		.4byte	0x25e
 2626 0adb 5C000000 		.4byte	.LLST3
 2627 0adf 21       		.uleb128 0x21
 2628 0ae0 66000000 		.4byte	.LBB3
 2629 0ae4 6C000000 		.4byte	.LBE3
 2630 0ae8 FC0A0000 		.4byte	0xafc
 2631 0aec 20       		.uleb128 0x20
 2632 0aed 746D7000 		.ascii	"tmp\000"
 2633 0af1 01       		.byte	0x1
 2634 0af2 73       		.byte	0x73
 2635 0af3 86000000 		.4byte	0x86
 2636 0af7 70000000 		.4byte	.LLST4
 2637 0afb 00       		.byte	0x0
 2638 0afc 1F       		.uleb128 0x1f
 2639 0afd 70000000 		.4byte	.LBB4
 2640 0b01 78000000 		.4byte	.LBE4
 2641 0b05 20       		.uleb128 0x20
 2642 0b06 746D7000 		.ascii	"tmp\000"
 2643 0b0a 01       		.byte	0x1
 2644 0b0b 73       		.byte	0x73
 2645 0b0c 86000000 		.4byte	0x86
 2646 0b10 83000000 		.4byte	.LLST5
 2647 0b14 00       		.byte	0x0
 2648 0b15 00       		.byte	0x0
 2649 0b16 00       		.byte	0x0
 2650 0b17 22       		.uleb128 0x22
 2651 0b18 01       		.byte	0x1
 2652 0b19 21030000 		.4byte	.LASF159
 2653 0b1d 01       		.byte	0x1
 2654 0b1e 97       		.byte	0x97
 2655 0b1f 01       		.byte	0x1
 2656 0b20 00000000 		.4byte	.LFB120
 2657 0b24 40000000 		.4byte	.LFE120
 2658 0b28 96000000 		.4byte	.LLST6
 2659 0b2c 23       		.uleb128 0x23
 2660 0b2d 01       		.byte	0x1
 2661 0b2e B0050000 		.4byte	.LASF140
ARM GAS  C:\Users\DNIEL~1\AppData\Local\Temp\cc47TTCl.s 			page 48


 2662 0b32 01       		.byte	0x1
 2663 0b33 D9       		.byte	0xd9
 2664 0b34 01       		.byte	0x1
 2665 0b35 00000000 		.4byte	.LFB121
 2666 0b39 AC000000 		.4byte	.LFE121
 2667 0b3d B6000000 		.4byte	.LLST7
 2668 0b41 680B0000 		.4byte	0xb68
 2669 0b45 1E       		.uleb128 0x1e
 2670 0b46 F8050000 		.4byte	.LASF136
 2671 0b4a 01       		.byte	0x1
 2672 0b4b D9       		.byte	0xd9
 2673 0b4c F7090000 		.4byte	0x9f7
 2674 0b50 D6000000 		.4byte	.LLST8
 2675 0b54 1F       		.uleb128 0x1f
 2676 0b55 76000000 		.4byte	.LBB5
 2677 0b59 AC000000 		.4byte	.LBE5
 2678 0b5d 24       		.uleb128 0x24
 2679 0b5e 6200     		.ascii	"b\000"
 2680 0b60 01       		.byte	0x1
 2681 0b61 EF       		.byte	0xef
 2682 0b62 A6000000 		.4byte	0xa6
 2683 0b66 00       		.byte	0x0
 2684 0b67 00       		.byte	0x0
 2685 0b68 25       		.uleb128 0x25
 2686 0b69 01       		.byte	0x1
 2687 0b6a 57030000 		.4byte	.LASF141
 2688 0b6e 01       		.byte	0x1
 2689 0b6f 3601     		.2byte	0x136
 2690 0b71 01       		.byte	0x1
 2691 0b72 00000000 		.4byte	.LFB122
 2692 0b76 38000000 		.4byte	.LFE122
 2693 0b7a F4000000 		.4byte	.LLST9
 2694 0b7e 930B0000 		.4byte	0xb93
 2695 0b82 26       		.uleb128 0x26
 2696 0b83 F8050000 		.4byte	.LASF136
 2697 0b87 01       		.byte	0x1
 2698 0b88 3601     		.2byte	0x136
 2699 0b8a F7090000 		.4byte	0x9f7
 2700 0b8e 14010000 		.4byte	.LLST10
 2701 0b92 00       		.byte	0x0
 2702 0b93 27       		.uleb128 0x27
 2703 0b94 01       		.byte	0x1
 2704 0b95 69050000 		.4byte	.LASF142
 2705 0b99 01       		.byte	0x1
 2706 0b9a 5601     		.2byte	0x156
 2707 0b9c 01       		.byte	0x1
 2708 0b9d 00000000 		.4byte	.LFB123
 2709 0ba1 10000000 		.4byte	.LFE123
 2710 0ba5 02       		.byte	0x2
 2711 0ba6 7D       		.byte	0x7d
 2712 0ba7 00       		.sleb128 0
 2713 0ba8 BD0B0000 		.4byte	0xbbd
 2714 0bac 26       		.uleb128 0x26
 2715 0bad F8050000 		.4byte	.LASF136
 2716 0bb1 01       		.byte	0x1
 2717 0bb2 5601     		.2byte	0x156
 2718 0bb4 F7090000 		.4byte	0x9f7
ARM GAS  C:\Users\DNIEL~1\AppData\Local\Temp\cc47TTCl.s 			page 49


 2719 0bb8 32010000 		.4byte	.LLST11
 2720 0bbc 00       		.byte	0x0
 2721 0bbd 27       		.uleb128 0x27
 2722 0bbe 01       		.byte	0x1
 2723 0bbf 65020000 		.4byte	.LASF143
 2724 0bc3 01       		.byte	0x1
 2725 0bc4 6301     		.2byte	0x163
 2726 0bc6 01       		.byte	0x1
 2727 0bc7 00000000 		.4byte	.LFB124
 2728 0bcb 10000000 		.4byte	.LFE124
 2729 0bcf 02       		.byte	0x2
 2730 0bd0 7D       		.byte	0x7d
 2731 0bd1 00       		.sleb128 0
 2732 0bd2 E70B0000 		.4byte	0xbe7
 2733 0bd6 26       		.uleb128 0x26
 2734 0bd7 F8050000 		.4byte	.LASF136
 2735 0bdb 01       		.byte	0x1
 2736 0bdc 6301     		.2byte	0x163
 2737 0bde F7090000 		.4byte	0x9f7
 2738 0be2 45010000 		.4byte	.LLST12
 2739 0be6 00       		.byte	0x0
 2740 0be7 25       		.uleb128 0x25
 2741 0be8 01       		.byte	0x1
 2742 0be9 95050000 		.4byte	.LASF144
 2743 0bed 01       		.byte	0x1
 2744 0bee 7301     		.2byte	0x173
 2745 0bf0 01       		.byte	0x1
 2746 0bf1 00000000 		.4byte	.LFB125
 2747 0bf5 3C000000 		.4byte	.LFE125
 2748 0bf9 58010000 		.4byte	.LLST13
 2749 0bfd 200C0000 		.4byte	0xc20
 2750 0c01 26       		.uleb128 0x26
 2751 0c02 F8050000 		.4byte	.LASF136
 2752 0c06 01       		.byte	0x1
 2753 0c07 7301     		.2byte	0x173
 2754 0c09 F7090000 		.4byte	0x9f7
 2755 0c0d 78010000 		.4byte	.LLST14
 2756 0c11 28       		.uleb128 0x28
 2757 0c12 6E00     		.ascii	"n\000"
 2758 0c14 01       		.byte	0x1
 2759 0c15 7301     		.2byte	0x173
 2760 0c17 30000000 		.4byte	0x30
 2761 0c1b 8B010000 		.4byte	.LLST15
 2762 0c1f 00       		.byte	0x0
 2763 0c20 25       		.uleb128 0x25
 2764 0c21 01       		.byte	0x1
 2765 0c22 6D010000 		.4byte	.LASF145
 2766 0c26 01       		.byte	0x1
 2767 0c27 9001     		.2byte	0x190
 2768 0c29 01       		.byte	0x1
 2769 0c2a 00000000 		.4byte	.LFB126
 2770 0c2e 36000000 		.4byte	.LFE126
 2771 0c32 B6010000 		.4byte	.LLST16
 2772 0c36 790C0000 		.4byte	0xc79
 2773 0c3a 26       		.uleb128 0x26
 2774 0c3b F8050000 		.4byte	.LASF136
 2775 0c3f 01       		.byte	0x1
ARM GAS  C:\Users\DNIEL~1\AppData\Local\Temp\cc47TTCl.s 			page 50


 2776 0c40 9001     		.2byte	0x190
 2777 0c42 F7090000 		.4byte	0x9f7
 2778 0c46 D6010000 		.4byte	.LLST17
 2779 0c4a 28       		.uleb128 0x28
 2780 0c4b 6E00     		.ascii	"n\000"
 2781 0c4d 01       		.byte	0x1
 2782 0c4e 9001     		.2byte	0x190
 2783 0c50 30000000 		.4byte	0x30
 2784 0c54 E9010000 		.4byte	.LLST18
 2785 0c58 26       		.uleb128 0x26
 2786 0c59 76020000 		.4byte	.LASF146
 2787 0c5d 01       		.byte	0x1
 2788 0c5e 9101     		.2byte	0x191
 2789 0c60 790C0000 		.4byte	0xc79
 2790 0c64 08020000 		.4byte	.LLST19
 2791 0c68 26       		.uleb128 0x26
 2792 0c69 A6000000 		.4byte	.LASF147
 2793 0c6d 01       		.byte	0x1
 2794 0c6e 9101     		.2byte	0x191
 2795 0c70 9C020000 		.4byte	0x29c
 2796 0c74 2A020000 		.4byte	.LLST20
 2797 0c78 00       		.byte	0x0
 2798 0c79 09       		.uleb128 0x9
 2799 0c7a 04       		.byte	0x4
 2800 0c7b 7F0C0000 		.4byte	0xc7f
 2801 0c7f 29       		.uleb128 0x29
 2802 0c80 25       		.uleb128 0x25
 2803 0c81 01       		.byte	0x1
 2804 0c82 4B020000 		.4byte	.LASF148
 2805 0c86 01       		.byte	0x1
 2806 0c87 AC01     		.2byte	0x1ac
 2807 0c89 01       		.byte	0x1
 2808 0c8a 00000000 		.4byte	.LFB127
 2809 0c8e 38000000 		.4byte	.LFE127
 2810 0c92 49020000 		.4byte	.LLST21
 2811 0c96 C90C0000 		.4byte	0xcc9
 2812 0c9a 26       		.uleb128 0x26
 2813 0c9b F8050000 		.4byte	.LASF136
 2814 0c9f 01       		.byte	0x1
 2815 0ca0 AC01     		.2byte	0x1ac
 2816 0ca2 F7090000 		.4byte	0x9f7
 2817 0ca6 69020000 		.4byte	.LLST22
 2818 0caa 28       		.uleb128 0x28
 2819 0cab 6E00     		.ascii	"n\000"
 2820 0cad 01       		.byte	0x1
 2821 0cae AC01     		.2byte	0x1ac
 2822 0cb0 30000000 		.4byte	0x30
 2823 0cb4 7C020000 		.4byte	.LLST23
 2824 0cb8 26       		.uleb128 0x26
 2825 0cb9 76020000 		.4byte	.LASF146
 2826 0cbd 01       		.byte	0x1
 2827 0cbe AC01     		.2byte	0x1ac
 2828 0cc0 790C0000 		.4byte	0xc79
 2829 0cc4 9B020000 		.4byte	.LLST24
 2830 0cc8 00       		.byte	0x0
 2831 0cc9 25       		.uleb128 0x25
 2832 0cca 01       		.byte	0x1
ARM GAS  C:\Users\DNIEL~1\AppData\Local\Temp\cc47TTCl.s 			page 51


 2833 0ccb 2E030000 		.4byte	.LASF149
 2834 0ccf 01       		.byte	0x1
 2835 0cd0 C701     		.2byte	0x1c7
 2836 0cd2 01       		.byte	0x1
 2837 0cd3 00000000 		.4byte	.LFB128
 2838 0cd7 38000000 		.4byte	.LFE128
 2839 0cdb BA020000 		.4byte	.LLST25
 2840 0cdf 120D0000 		.4byte	0xd12
 2841 0ce3 26       		.uleb128 0x26
 2842 0ce4 F8050000 		.4byte	.LASF136
 2843 0ce8 01       		.byte	0x1
 2844 0ce9 C701     		.2byte	0x1c7
 2845 0ceb F7090000 		.4byte	0x9f7
 2846 0cef DA020000 		.4byte	.LLST26
 2847 0cf3 28       		.uleb128 0x28
 2848 0cf4 6E00     		.ascii	"n\000"
 2849 0cf6 01       		.byte	0x1
 2850 0cf7 C701     		.2byte	0x1c7
 2851 0cf9 30000000 		.4byte	0x30
 2852 0cfd ED020000 		.4byte	.LLST27
 2853 0d01 26       		.uleb128 0x26
 2854 0d02 A6000000 		.4byte	.LASF147
 2855 0d06 01       		.byte	0x1
 2856 0d07 C701     		.2byte	0x1c7
 2857 0d09 9C020000 		.4byte	0x29c
 2858 0d0d 0C030000 		.4byte	.LLST28
 2859 0d11 00       		.byte	0x0
 2860 0d12 2A       		.uleb128 0x2a
 2861 0d13 01       		.byte	0x1
 2862 0d14 34060000 		.4byte	.LASF160
 2863 0d18 01       		.byte	0x1
 2864 0d19 E101     		.2byte	0x1e1
 2865 0d1b 01       		.byte	0x1
 2866 0d1c 62000000 		.4byte	0x62
 2867 0d20 00000000 		.4byte	.LFB129
 2868 0d24 12000000 		.4byte	.LFE129
 2869 0d28 02       		.byte	0x2
 2870 0d29 7D       		.byte	0x7d
 2871 0d2a 00       		.sleb128 0
 2872 0d2b 4E0D0000 		.4byte	0xd4e
 2873 0d2f 26       		.uleb128 0x26
 2874 0d30 F8050000 		.4byte	.LASF136
 2875 0d34 01       		.byte	0x1
 2876 0d35 E101     		.2byte	0x1e1
 2877 0d37 F7090000 		.4byte	0x9f7
 2878 0d3b 2B030000 		.4byte	.LLST29
 2879 0d3f 2B       		.uleb128 0x2b
 2880 0d40 21010000 		.4byte	.LASF150
 2881 0d44 01       		.byte	0x1
 2882 0d45 E101     		.2byte	0x1e1
 2883 0d47 62000000 		.4byte	0x62
 2884 0d4b 01       		.byte	0x1
 2885 0d4c 51       		.byte	0x51
 2886 0d4d 00       		.byte	0x0
 2887 0d4e 2C       		.uleb128 0x2c
 2888 0d4f 99000000 		.4byte	.LASF151
 2889 0d53 0E       		.byte	0xe
ARM GAS  C:\Users\DNIEL~1\AppData\Local\Temp\cc47TTCl.s 			page 52


 2890 0d54 9806     		.2byte	0x698
 2891 0d56 03040000 		.4byte	0x403
 2892 0d5a 01       		.byte	0x1
 2893 0d5b 01       		.byte	0x1
 2894 0d5c 11       		.uleb128 0x11
 2895 0d5d CD070000 		.4byte	0x7cd
 2896 0d61 6C0D0000 		.4byte	0xd6c
 2897 0d65 12       		.uleb128 0x12
 2898 0d66 3B000000 		.4byte	0x3b
 2899 0d6a 0F       		.byte	0xf
 2900 0d6b 00       		.byte	0x0
 2901 0d6c 2C       		.uleb128 0x2c
 2902 0d6d 75000000 		.4byte	.LASF152
 2903 0d71 0A       		.byte	0xa
 2904 0d72 BB01     		.2byte	0x1bb
 2905 0d74 7A0D0000 		.4byte	0xd7a
 2906 0d78 01       		.byte	0x1
 2907 0d79 01       		.byte	0x1
 2908 0d7a 10       		.uleb128 0x10
 2909 0d7b 5C0D0000 		.4byte	0xd5c
 2910 0d7f 2C       		.uleb128 0x2c
 2911 0d80 38040000 		.4byte	.LASF153
 2912 0d84 0D       		.byte	0xd
 2913 0d85 8B01     		.2byte	0x18b
 2914 0d87 38090000 		.4byte	0x938
 2915 0d8b 01       		.byte	0x1
 2916 0d8c 01       		.byte	0x1
 2917 0d8d 2D       		.uleb128 0x2d
 2918 0d8e 3E040000 		.4byte	.LASF154
 2919 0d92 01       		.byte	0x1
 2920 0d93 55       		.byte	0x55
 2921 0d94 62000000 		.4byte	0x62
 2922 0d98 05       		.byte	0x5
 2923 0d99 03       		.byte	0x3
 2924 0d9a 00000000 		.4byte	dummytx
 2925 0d9e 2D       		.uleb128 0x2d
 2926 0d9f EF020000 		.4byte	.LASF155
 2927 0da3 01       		.byte	0x1
 2928 0da4 56       		.byte	0x56
 2929 0da5 62000000 		.4byte	0x62
 2930 0da9 05       		.byte	0x5
 2931 0daa 03       		.byte	0x3
 2932 0dab 00000000 		.4byte	dummyrx
 2933 0daf 2C       		.uleb128 0x2c
 2934 0db0 99000000 		.4byte	.LASF151
 2935 0db4 0E       		.byte	0xe
 2936 0db5 9806     		.2byte	0x698
 2937 0db7 03040000 		.4byte	0x403
 2938 0dbb 01       		.byte	0x1
 2939 0dbc 01       		.byte	0x1
 2940 0dbd 2C       		.uleb128 0x2c
 2941 0dbe 75000000 		.4byte	.LASF152
 2942 0dc2 0A       		.byte	0xa
 2943 0dc3 BB01     		.2byte	0x1bb
 2944 0dc5 CB0D0000 		.4byte	0xdcb
 2945 0dc9 01       		.byte	0x1
 2946 0dca 01       		.byte	0x1
ARM GAS  C:\Users\DNIEL~1\AppData\Local\Temp\cc47TTCl.s 			page 53


 2947 0dcb 10       		.uleb128 0x10
 2948 0dcc 5C0D0000 		.4byte	0xd5c
 2949 0dd0 2E       		.uleb128 0x2e
 2950 0dd1 38040000 		.4byte	.LASF153
 2951 0dd5 01       		.byte	0x1
 2952 0dd6 49       		.byte	0x49
 2953 0dd7 38090000 		.4byte	0x938
 2954 0ddb 01       		.byte	0x1
 2955 0ddc 05       		.byte	0x5
 2956 0ddd 03       		.byte	0x3
 2957 0dde 00000000 		.4byte	SPID2
 2958 0de2 00       		.byte	0x0
 2959              		.section	.debug_abbrev
 2960 0000 01       		.uleb128 0x1
 2961 0001 11       		.uleb128 0x11
 2962 0002 01       		.byte	0x1
 2963 0003 25       		.uleb128 0x25
 2964 0004 0E       		.uleb128 0xe
 2965 0005 13       		.uleb128 0x13
 2966 0006 0B       		.uleb128 0xb
 2967 0007 03       		.uleb128 0x3
 2968 0008 0E       		.uleb128 0xe
 2969 0009 1B       		.uleb128 0x1b
 2970 000a 0E       		.uleb128 0xe
 2971 000b 11       		.uleb128 0x11
 2972 000c 01       		.uleb128 0x1
 2973 000d 52       		.uleb128 0x52
 2974 000e 01       		.uleb128 0x1
 2975 000f 55       		.uleb128 0x55
 2976 0010 06       		.uleb128 0x6
 2977 0011 10       		.uleb128 0x10
 2978 0012 06       		.uleb128 0x6
 2979 0013 00       		.byte	0x0
 2980 0014 00       		.byte	0x0
 2981 0015 02       		.uleb128 0x2
 2982 0016 24       		.uleb128 0x24
 2983 0017 00       		.byte	0x0
 2984 0018 0B       		.uleb128 0xb
 2985 0019 0B       		.uleb128 0xb
 2986 001a 3E       		.uleb128 0x3e
 2987 001b 0B       		.uleb128 0xb
 2988 001c 03       		.uleb128 0x3
 2989 001d 08       		.uleb128 0x8
 2990 001e 00       		.byte	0x0
 2991 001f 00       		.byte	0x0
 2992 0020 03       		.uleb128 0x3
 2993 0021 16       		.uleb128 0x16
 2994 0022 00       		.byte	0x0
 2995 0023 03       		.uleb128 0x3
 2996 0024 0E       		.uleb128 0xe
 2997 0025 3A       		.uleb128 0x3a
 2998 0026 0B       		.uleb128 0xb
 2999 0027 3B       		.uleb128 0x3b
 3000 0028 0B       		.uleb128 0xb
 3001 0029 49       		.uleb128 0x49
 3002 002a 13       		.uleb128 0x13
 3003 002b 00       		.byte	0x0
ARM GAS  C:\Users\DNIEL~1\AppData\Local\Temp\cc47TTCl.s 			page 54


 3004 002c 00       		.byte	0x0
 3005 002d 04       		.uleb128 0x4
 3006 002e 24       		.uleb128 0x24
 3007 002f 00       		.byte	0x0
 3008 0030 0B       		.uleb128 0xb
 3009 0031 0B       		.uleb128 0xb
 3010 0032 3E       		.uleb128 0x3e
 3011 0033 0B       		.uleb128 0xb
 3012 0034 03       		.uleb128 0x3
 3013 0035 0E       		.uleb128 0xe
 3014 0036 00       		.byte	0x0
 3015 0037 00       		.byte	0x0
 3016 0038 05       		.uleb128 0x5
 3017 0039 13       		.uleb128 0x13
 3018 003a 01       		.byte	0x1
 3019 003b 03       		.uleb128 0x3
 3020 003c 0E       		.uleb128 0xe
 3021 003d 0B       		.uleb128 0xb
 3022 003e 0B       		.uleb128 0xb
 3023 003f 3A       		.uleb128 0x3a
 3024 0040 0B       		.uleb128 0xb
 3025 0041 3B       		.uleb128 0x3b
 3026 0042 0B       		.uleb128 0xb
 3027 0043 01       		.uleb128 0x1
 3028 0044 13       		.uleb128 0x13
 3029 0045 00       		.byte	0x0
 3030 0046 00       		.byte	0x0
 3031 0047 06       		.uleb128 0x6
 3032 0048 0D       		.uleb128 0xd
 3033 0049 00       		.byte	0x0
 3034 004a 03       		.uleb128 0x3
 3035 004b 0E       		.uleb128 0xe
 3036 004c 3A       		.uleb128 0x3a
 3037 004d 0B       		.uleb128 0xb
 3038 004e 3B       		.uleb128 0x3b
 3039 004f 0B       		.uleb128 0xb
 3040 0050 49       		.uleb128 0x49
 3041 0051 13       		.uleb128 0x13
 3042 0052 38       		.uleb128 0x38
 3043 0053 0A       		.uleb128 0xa
 3044 0054 00       		.byte	0x0
 3045 0055 00       		.byte	0x0
 3046 0056 07       		.uleb128 0x7
 3047 0057 0D       		.uleb128 0xd
 3048 0058 00       		.byte	0x0
 3049 0059 03       		.uleb128 0x3
 3050 005a 08       		.uleb128 0x8
 3051 005b 3A       		.uleb128 0x3a
 3052 005c 0B       		.uleb128 0xb
 3053 005d 3B       		.uleb128 0x3b
 3054 005e 0B       		.uleb128 0xb
 3055 005f 49       		.uleb128 0x49
 3056 0060 13       		.uleb128 0x13
 3057 0061 38       		.uleb128 0x38
 3058 0062 0A       		.uleb128 0xa
 3059 0063 00       		.byte	0x0
 3060 0064 00       		.byte	0x0
ARM GAS  C:\Users\DNIEL~1\AppData\Local\Temp\cc47TTCl.s 			page 55


 3061 0065 08       		.uleb128 0x8
 3062 0066 13       		.uleb128 0x13
 3063 0067 01       		.byte	0x1
 3064 0068 0B       		.uleb128 0xb
 3065 0069 0B       		.uleb128 0xb
 3066 006a 3A       		.uleb128 0x3a
 3067 006b 0B       		.uleb128 0xb
 3068 006c 3B       		.uleb128 0x3b
 3069 006d 0B       		.uleb128 0xb
 3070 006e 01       		.uleb128 0x1
 3071 006f 13       		.uleb128 0x13
 3072 0070 00       		.byte	0x0
 3073 0071 00       		.byte	0x0
 3074 0072 09       		.uleb128 0x9
 3075 0073 0F       		.uleb128 0xf
 3076 0074 00       		.byte	0x0
 3077 0075 0B       		.uleb128 0xb
 3078 0076 0B       		.uleb128 0xb
 3079 0077 49       		.uleb128 0x49
 3080 0078 13       		.uleb128 0x13
 3081 0079 00       		.byte	0x0
 3082 007a 00       		.byte	0x0
 3083 007b 0A       		.uleb128 0xa
 3084 007c 0F       		.uleb128 0xf
 3085 007d 00       		.byte	0x0
 3086 007e 0B       		.uleb128 0xb
 3087 007f 0B       		.uleb128 0xb
 3088 0080 00       		.byte	0x0
 3089 0081 00       		.byte	0x0
 3090 0082 0B       		.uleb128 0xb
 3091 0083 13       		.uleb128 0x13
 3092 0084 01       		.byte	0x1
 3093 0085 03       		.uleb128 0x3
 3094 0086 0E       		.uleb128 0xe
 3095 0087 0B       		.uleb128 0xb
 3096 0088 0B       		.uleb128 0xb
 3097 0089 3A       		.uleb128 0x3a
 3098 008a 0B       		.uleb128 0xb
 3099 008b 3B       		.uleb128 0x3b
 3100 008c 05       		.uleb128 0x5
 3101 008d 01       		.uleb128 0x1
 3102 008e 13       		.uleb128 0x13
 3103 008f 00       		.byte	0x0
 3104 0090 00       		.byte	0x0
 3105 0091 0C       		.uleb128 0xc
 3106 0092 0D       		.uleb128 0xd
 3107 0093 00       		.byte	0x0
 3108 0094 03       		.uleb128 0x3
 3109 0095 08       		.uleb128 0x8
 3110 0096 3A       		.uleb128 0x3a
 3111 0097 0B       		.uleb128 0xb
 3112 0098 3B       		.uleb128 0x3b
 3113 0099 05       		.uleb128 0x5
 3114 009a 49       		.uleb128 0x49
 3115 009b 13       		.uleb128 0x13
 3116 009c 38       		.uleb128 0x38
 3117 009d 0A       		.uleb128 0xa
ARM GAS  C:\Users\DNIEL~1\AppData\Local\Temp\cc47TTCl.s 			page 56


 3118 009e 00       		.byte	0x0
 3119 009f 00       		.byte	0x0
 3120 00a0 0D       		.uleb128 0xd
 3121 00a1 35       		.uleb128 0x35
 3122 00a2 00       		.byte	0x0
 3123 00a3 49       		.uleb128 0x49
 3124 00a4 13       		.uleb128 0x13
 3125 00a5 00       		.byte	0x0
 3126 00a6 00       		.byte	0x0
 3127 00a7 0E       		.uleb128 0xe
 3128 00a8 17       		.uleb128 0x17
 3129 00a9 01       		.byte	0x1
 3130 00aa 0B       		.uleb128 0xb
 3131 00ab 0B       		.uleb128 0xb
 3132 00ac 3A       		.uleb128 0x3a
 3133 00ad 0B       		.uleb128 0xb
 3134 00ae 3B       		.uleb128 0x3b
 3135 00af 0B       		.uleb128 0xb
 3136 00b0 01       		.uleb128 0x1
 3137 00b1 13       		.uleb128 0x13
 3138 00b2 00       		.byte	0x0
 3139 00b3 00       		.byte	0x0
 3140 00b4 0F       		.uleb128 0xf
 3141 00b5 0D       		.uleb128 0xd
 3142 00b6 00       		.byte	0x0
 3143 00b7 03       		.uleb128 0x3
 3144 00b8 0E       		.uleb128 0xe
 3145 00b9 3A       		.uleb128 0x3a
 3146 00ba 0B       		.uleb128 0xb
 3147 00bb 3B       		.uleb128 0x3b
 3148 00bc 0B       		.uleb128 0xb
 3149 00bd 49       		.uleb128 0x49
 3150 00be 13       		.uleb128 0x13
 3151 00bf 00       		.byte	0x0
 3152 00c0 00       		.byte	0x0
 3153 00c1 10       		.uleb128 0x10
 3154 00c2 26       		.uleb128 0x26
 3155 00c3 00       		.byte	0x0
 3156 00c4 49       		.uleb128 0x49
 3157 00c5 13       		.uleb128 0x13
 3158 00c6 00       		.byte	0x0
 3159 00c7 00       		.byte	0x0
 3160 00c8 11       		.uleb128 0x11
 3161 00c9 01       		.uleb128 0x1
 3162 00ca 01       		.byte	0x1
 3163 00cb 49       		.uleb128 0x49
 3164 00cc 13       		.uleb128 0x13
 3165 00cd 01       		.uleb128 0x1
 3166 00ce 13       		.uleb128 0x13
 3167 00cf 00       		.byte	0x0
 3168 00d0 00       		.byte	0x0
 3169 00d1 12       		.uleb128 0x12
 3170 00d2 21       		.uleb128 0x21
 3171 00d3 00       		.byte	0x0
 3172 00d4 49       		.uleb128 0x49
 3173 00d5 13       		.uleb128 0x13
 3174 00d6 2F       		.uleb128 0x2f
ARM GAS  C:\Users\DNIEL~1\AppData\Local\Temp\cc47TTCl.s 			page 57


 3175 00d7 0B       		.uleb128 0xb
 3176 00d8 00       		.byte	0x0
 3177 00d9 00       		.byte	0x0
 3178 00da 13       		.uleb128 0x13
 3179 00db 13       		.uleb128 0x13
 3180 00dc 01       		.byte	0x1
 3181 00dd 0B       		.uleb128 0xb
 3182 00de 0B       		.uleb128 0xb
 3183 00df 3A       		.uleb128 0x3a
 3184 00e0 0B       		.uleb128 0xb
 3185 00e1 3B       		.uleb128 0x3b
 3186 00e2 05       		.uleb128 0x5
 3187 00e3 01       		.uleb128 0x1
 3188 00e4 13       		.uleb128 0x13
 3189 00e5 00       		.byte	0x0
 3190 00e6 00       		.byte	0x0
 3191 00e7 14       		.uleb128 0x14
 3192 00e8 0D       		.uleb128 0xd
 3193 00e9 00       		.byte	0x0
 3194 00ea 03       		.uleb128 0x3
 3195 00eb 0E       		.uleb128 0xe
 3196 00ec 3A       		.uleb128 0x3a
 3197 00ed 0B       		.uleb128 0xb
 3198 00ee 3B       		.uleb128 0x3b
 3199 00ef 05       		.uleb128 0x5
 3200 00f0 49       		.uleb128 0x49
 3201 00f1 13       		.uleb128 0x13
 3202 00f2 38       		.uleb128 0x38
 3203 00f3 0A       		.uleb128 0xa
 3204 00f4 00       		.byte	0x0
 3205 00f5 00       		.byte	0x0
 3206 00f6 15       		.uleb128 0x15
 3207 00f7 16       		.uleb128 0x16
 3208 00f8 00       		.byte	0x0
 3209 00f9 03       		.uleb128 0x3
 3210 00fa 0E       		.uleb128 0xe
 3211 00fb 3A       		.uleb128 0x3a
 3212 00fc 0B       		.uleb128 0xb
 3213 00fd 3B       		.uleb128 0x3b
 3214 00fe 05       		.uleb128 0x5
 3215 00ff 49       		.uleb128 0x49
 3216 0100 13       		.uleb128 0x13
 3217 0101 00       		.byte	0x0
 3218 0102 00       		.byte	0x0
 3219 0103 16       		.uleb128 0x16
 3220 0104 15       		.uleb128 0x15
 3221 0105 01       		.byte	0x1
 3222 0106 27       		.uleb128 0x27
 3223 0107 0C       		.uleb128 0xc
 3224 0108 01       		.uleb128 0x1
 3225 0109 13       		.uleb128 0x13
 3226 010a 00       		.byte	0x0
 3227 010b 00       		.byte	0x0
 3228 010c 17       		.uleb128 0x17
 3229 010d 05       		.uleb128 0x5
 3230 010e 00       		.byte	0x0
 3231 010f 49       		.uleb128 0x49
ARM GAS  C:\Users\DNIEL~1\AppData\Local\Temp\cc47TTCl.s 			page 58


 3232 0110 13       		.uleb128 0x13
 3233 0111 00       		.byte	0x0
 3234 0112 00       		.byte	0x0
 3235 0113 18       		.uleb128 0x18
 3236 0114 0D       		.uleb128 0xd
 3237 0115 00       		.byte	0x0
 3238 0116 03       		.uleb128 0x3
 3239 0117 08       		.uleb128 0x8
 3240 0118 3A       		.uleb128 0x3a
 3241 0119 0B       		.uleb128 0xb
 3242 011a 3B       		.uleb128 0x3b
 3243 011b 0B       		.uleb128 0xb
 3244 011c 49       		.uleb128 0x49
 3245 011d 13       		.uleb128 0x13
 3246 011e 00       		.byte	0x0
 3247 011f 00       		.byte	0x0
 3248 0120 19       		.uleb128 0x19
 3249 0121 04       		.uleb128 0x4
 3250 0122 01       		.byte	0x1
 3251 0123 0B       		.uleb128 0xb
 3252 0124 0B       		.uleb128 0xb
 3253 0125 3A       		.uleb128 0x3a
 3254 0126 0B       		.uleb128 0xb
 3255 0127 3B       		.uleb128 0x3b
 3256 0128 0B       		.uleb128 0xb
 3257 0129 01       		.uleb128 0x1
 3258 012a 13       		.uleb128 0x13
 3259 012b 00       		.byte	0x0
 3260 012c 00       		.byte	0x0
 3261 012d 1A       		.uleb128 0x1a
 3262 012e 28       		.uleb128 0x28
 3263 012f 00       		.byte	0x0
 3264 0130 03       		.uleb128 0x3
 3265 0131 0E       		.uleb128 0xe
 3266 0132 1C       		.uleb128 0x1c
 3267 0133 0D       		.uleb128 0xd
 3268 0134 00       		.byte	0x0
 3269 0135 00       		.byte	0x0
 3270 0136 1B       		.uleb128 0x1b
 3271 0137 2E       		.uleb128 0x2e
 3272 0138 01       		.byte	0x1
 3273 0139 03       		.uleb128 0x3
 3274 013a 0E       		.uleb128 0xe
 3275 013b 3A       		.uleb128 0x3a
 3276 013c 0B       		.uleb128 0xb
 3277 013d 3B       		.uleb128 0x3b
 3278 013e 0B       		.uleb128 0xb
 3279 013f 27       		.uleb128 0x27
 3280 0140 0C       		.uleb128 0xc
 3281 0141 11       		.uleb128 0x11
 3282 0142 01       		.uleb128 0x1
 3283 0143 12       		.uleb128 0x12
 3284 0144 01       		.uleb128 0x1
 3285 0145 40       		.uleb128 0x40
 3286 0146 0A       		.uleb128 0xa
 3287 0147 01       		.uleb128 0x1
 3288 0148 13       		.uleb128 0x13
ARM GAS  C:\Users\DNIEL~1\AppData\Local\Temp\cc47TTCl.s 			page 59


 3289 0149 00       		.byte	0x0
 3290 014a 00       		.byte	0x0
 3291 014b 1C       		.uleb128 0x1c
 3292 014c 05       		.uleb128 0x5
 3293 014d 00       		.byte	0x0
 3294 014e 03       		.uleb128 0x3
 3295 014f 0E       		.uleb128 0xe
 3296 0150 3A       		.uleb128 0x3a
 3297 0151 0B       		.uleb128 0xb
 3298 0152 3B       		.uleb128 0x3b
 3299 0153 0B       		.uleb128 0xb
 3300 0154 49       		.uleb128 0x49
 3301 0155 13       		.uleb128 0x13
 3302 0156 02       		.uleb128 0x2
 3303 0157 0A       		.uleb128 0xa
 3304 0158 00       		.byte	0x0
 3305 0159 00       		.byte	0x0
 3306 015a 1D       		.uleb128 0x1d
 3307 015b 2E       		.uleb128 0x2e
 3308 015c 01       		.byte	0x1
 3309 015d 03       		.uleb128 0x3
 3310 015e 0E       		.uleb128 0xe
 3311 015f 3A       		.uleb128 0x3a
 3312 0160 0B       		.uleb128 0xb
 3313 0161 3B       		.uleb128 0x3b
 3314 0162 0B       		.uleb128 0xb
 3315 0163 27       		.uleb128 0x27
 3316 0164 0C       		.uleb128 0xc
 3317 0165 11       		.uleb128 0x11
 3318 0166 01       		.uleb128 0x1
 3319 0167 12       		.uleb128 0x12
 3320 0168 01       		.uleb128 0x1
 3321 0169 40       		.uleb128 0x40
 3322 016a 06       		.uleb128 0x6
 3323 016b 01       		.uleb128 0x1
 3324 016c 13       		.uleb128 0x13
 3325 016d 00       		.byte	0x0
 3326 016e 00       		.byte	0x0
 3327 016f 1E       		.uleb128 0x1e
 3328 0170 05       		.uleb128 0x5
 3329 0171 00       		.byte	0x0
 3330 0172 03       		.uleb128 0x3
 3331 0173 0E       		.uleb128 0xe
 3332 0174 3A       		.uleb128 0x3a
 3333 0175 0B       		.uleb128 0xb
 3334 0176 3B       		.uleb128 0x3b
 3335 0177 0B       		.uleb128 0xb
 3336 0178 49       		.uleb128 0x49
 3337 0179 13       		.uleb128 0x13
 3338 017a 02       		.uleb128 0x2
 3339 017b 06       		.uleb128 0x6
 3340 017c 00       		.byte	0x0
 3341 017d 00       		.byte	0x0
 3342 017e 1F       		.uleb128 0x1f
 3343 017f 0B       		.uleb128 0xb
 3344 0180 01       		.byte	0x1
 3345 0181 11       		.uleb128 0x11
ARM GAS  C:\Users\DNIEL~1\AppData\Local\Temp\cc47TTCl.s 			page 60


 3346 0182 01       		.uleb128 0x1
 3347 0183 12       		.uleb128 0x12
 3348 0184 01       		.uleb128 0x1
 3349 0185 00       		.byte	0x0
 3350 0186 00       		.byte	0x0
 3351 0187 20       		.uleb128 0x20
 3352 0188 34       		.uleb128 0x34
 3353 0189 00       		.byte	0x0
 3354 018a 03       		.uleb128 0x3
 3355 018b 08       		.uleb128 0x8
 3356 018c 3A       		.uleb128 0x3a
 3357 018d 0B       		.uleb128 0xb
 3358 018e 3B       		.uleb128 0x3b
 3359 018f 0B       		.uleb128 0xb
 3360 0190 49       		.uleb128 0x49
 3361 0191 13       		.uleb128 0x13
 3362 0192 02       		.uleb128 0x2
 3363 0193 06       		.uleb128 0x6
 3364 0194 00       		.byte	0x0
 3365 0195 00       		.byte	0x0
 3366 0196 21       		.uleb128 0x21
 3367 0197 0B       		.uleb128 0xb
 3368 0198 01       		.byte	0x1
 3369 0199 11       		.uleb128 0x11
 3370 019a 01       		.uleb128 0x1
 3371 019b 12       		.uleb128 0x12
 3372 019c 01       		.uleb128 0x1
 3373 019d 01       		.uleb128 0x1
 3374 019e 13       		.uleb128 0x13
 3375 019f 00       		.byte	0x0
 3376 01a0 00       		.byte	0x0
 3377 01a1 22       		.uleb128 0x22
 3378 01a2 2E       		.uleb128 0x2e
 3379 01a3 00       		.byte	0x0
 3380 01a4 3F       		.uleb128 0x3f
 3381 01a5 0C       		.uleb128 0xc
 3382 01a6 03       		.uleb128 0x3
 3383 01a7 0E       		.uleb128 0xe
 3384 01a8 3A       		.uleb128 0x3a
 3385 01a9 0B       		.uleb128 0xb
 3386 01aa 3B       		.uleb128 0x3b
 3387 01ab 0B       		.uleb128 0xb
 3388 01ac 27       		.uleb128 0x27
 3389 01ad 0C       		.uleb128 0xc
 3390 01ae 11       		.uleb128 0x11
 3391 01af 01       		.uleb128 0x1
 3392 01b0 12       		.uleb128 0x12
 3393 01b1 01       		.uleb128 0x1
 3394 01b2 40       		.uleb128 0x40
 3395 01b3 06       		.uleb128 0x6
 3396 01b4 00       		.byte	0x0
 3397 01b5 00       		.byte	0x0
 3398 01b6 23       		.uleb128 0x23
 3399 01b7 2E       		.uleb128 0x2e
 3400 01b8 01       		.byte	0x1
 3401 01b9 3F       		.uleb128 0x3f
 3402 01ba 0C       		.uleb128 0xc
ARM GAS  C:\Users\DNIEL~1\AppData\Local\Temp\cc47TTCl.s 			page 61


 3403 01bb 03       		.uleb128 0x3
 3404 01bc 0E       		.uleb128 0xe
 3405 01bd 3A       		.uleb128 0x3a
 3406 01be 0B       		.uleb128 0xb
 3407 01bf 3B       		.uleb128 0x3b
 3408 01c0 0B       		.uleb128 0xb
 3409 01c1 27       		.uleb128 0x27
 3410 01c2 0C       		.uleb128 0xc
 3411 01c3 11       		.uleb128 0x11
 3412 01c4 01       		.uleb128 0x1
 3413 01c5 12       		.uleb128 0x12
 3414 01c6 01       		.uleb128 0x1
 3415 01c7 40       		.uleb128 0x40
 3416 01c8 06       		.uleb128 0x6
 3417 01c9 01       		.uleb128 0x1
 3418 01ca 13       		.uleb128 0x13
 3419 01cb 00       		.byte	0x0
 3420 01cc 00       		.byte	0x0
 3421 01cd 24       		.uleb128 0x24
 3422 01ce 34       		.uleb128 0x34
 3423 01cf 00       		.byte	0x0
 3424 01d0 03       		.uleb128 0x3
 3425 01d1 08       		.uleb128 0x8
 3426 01d2 3A       		.uleb128 0x3a
 3427 01d3 0B       		.uleb128 0xb
 3428 01d4 3B       		.uleb128 0x3b
 3429 01d5 0B       		.uleb128 0xb
 3430 01d6 49       		.uleb128 0x49
 3431 01d7 13       		.uleb128 0x13
 3432 01d8 00       		.byte	0x0
 3433 01d9 00       		.byte	0x0
 3434 01da 25       		.uleb128 0x25
 3435 01db 2E       		.uleb128 0x2e
 3436 01dc 01       		.byte	0x1
 3437 01dd 3F       		.uleb128 0x3f
 3438 01de 0C       		.uleb128 0xc
 3439 01df 03       		.uleb128 0x3
 3440 01e0 0E       		.uleb128 0xe
 3441 01e1 3A       		.uleb128 0x3a
 3442 01e2 0B       		.uleb128 0xb
 3443 01e3 3B       		.uleb128 0x3b
 3444 01e4 05       		.uleb128 0x5
 3445 01e5 27       		.uleb128 0x27
 3446 01e6 0C       		.uleb128 0xc
 3447 01e7 11       		.uleb128 0x11
 3448 01e8 01       		.uleb128 0x1
 3449 01e9 12       		.uleb128 0x12
 3450 01ea 01       		.uleb128 0x1
 3451 01eb 40       		.uleb128 0x40
 3452 01ec 06       		.uleb128 0x6
 3453 01ed 01       		.uleb128 0x1
 3454 01ee 13       		.uleb128 0x13
 3455 01ef 00       		.byte	0x0
 3456 01f0 00       		.byte	0x0
 3457 01f1 26       		.uleb128 0x26
 3458 01f2 05       		.uleb128 0x5
 3459 01f3 00       		.byte	0x0
ARM GAS  C:\Users\DNIEL~1\AppData\Local\Temp\cc47TTCl.s 			page 62


 3460 01f4 03       		.uleb128 0x3
 3461 01f5 0E       		.uleb128 0xe
 3462 01f6 3A       		.uleb128 0x3a
 3463 01f7 0B       		.uleb128 0xb
 3464 01f8 3B       		.uleb128 0x3b
 3465 01f9 05       		.uleb128 0x5
 3466 01fa 49       		.uleb128 0x49
 3467 01fb 13       		.uleb128 0x13
 3468 01fc 02       		.uleb128 0x2
 3469 01fd 06       		.uleb128 0x6
 3470 01fe 00       		.byte	0x0
 3471 01ff 00       		.byte	0x0
 3472 0200 27       		.uleb128 0x27
 3473 0201 2E       		.uleb128 0x2e
 3474 0202 01       		.byte	0x1
 3475 0203 3F       		.uleb128 0x3f
 3476 0204 0C       		.uleb128 0xc
 3477 0205 03       		.uleb128 0x3
 3478 0206 0E       		.uleb128 0xe
 3479 0207 3A       		.uleb128 0x3a
 3480 0208 0B       		.uleb128 0xb
 3481 0209 3B       		.uleb128 0x3b
 3482 020a 05       		.uleb128 0x5
 3483 020b 27       		.uleb128 0x27
 3484 020c 0C       		.uleb128 0xc
 3485 020d 11       		.uleb128 0x11
 3486 020e 01       		.uleb128 0x1
 3487 020f 12       		.uleb128 0x12
 3488 0210 01       		.uleb128 0x1
 3489 0211 40       		.uleb128 0x40
 3490 0212 0A       		.uleb128 0xa
 3491 0213 01       		.uleb128 0x1
 3492 0214 13       		.uleb128 0x13
 3493 0215 00       		.byte	0x0
 3494 0216 00       		.byte	0x0
 3495 0217 28       		.uleb128 0x28
 3496 0218 05       		.uleb128 0x5
 3497 0219 00       		.byte	0x0
 3498 021a 03       		.uleb128 0x3
 3499 021b 08       		.uleb128 0x8
 3500 021c 3A       		.uleb128 0x3a
 3501 021d 0B       		.uleb128 0xb
 3502 021e 3B       		.uleb128 0x3b
 3503 021f 05       		.uleb128 0x5
 3504 0220 49       		.uleb128 0x49
 3505 0221 13       		.uleb128 0x13
 3506 0222 02       		.uleb128 0x2
 3507 0223 06       		.uleb128 0x6
 3508 0224 00       		.byte	0x0
 3509 0225 00       		.byte	0x0
 3510 0226 29       		.uleb128 0x29
 3511 0227 26       		.uleb128 0x26
 3512 0228 00       		.byte	0x0
 3513 0229 00       		.byte	0x0
 3514 022a 00       		.byte	0x0
 3515 022b 2A       		.uleb128 0x2a
 3516 022c 2E       		.uleb128 0x2e
ARM GAS  C:\Users\DNIEL~1\AppData\Local\Temp\cc47TTCl.s 			page 63


 3517 022d 01       		.byte	0x1
 3518 022e 3F       		.uleb128 0x3f
 3519 022f 0C       		.uleb128 0xc
 3520 0230 03       		.uleb128 0x3
 3521 0231 0E       		.uleb128 0xe
 3522 0232 3A       		.uleb128 0x3a
 3523 0233 0B       		.uleb128 0xb
 3524 0234 3B       		.uleb128 0x3b
 3525 0235 05       		.uleb128 0x5
 3526 0236 27       		.uleb128 0x27
 3527 0237 0C       		.uleb128 0xc
 3528 0238 49       		.uleb128 0x49
 3529 0239 13       		.uleb128 0x13
 3530 023a 11       		.uleb128 0x11
 3531 023b 01       		.uleb128 0x1
 3532 023c 12       		.uleb128 0x12
 3533 023d 01       		.uleb128 0x1
 3534 023e 40       		.uleb128 0x40
 3535 023f 0A       		.uleb128 0xa
 3536 0240 01       		.uleb128 0x1
 3537 0241 13       		.uleb128 0x13
 3538 0242 00       		.byte	0x0
 3539 0243 00       		.byte	0x0
 3540 0244 2B       		.uleb128 0x2b
 3541 0245 05       		.uleb128 0x5
 3542 0246 00       		.byte	0x0
 3543 0247 03       		.uleb128 0x3
 3544 0248 0E       		.uleb128 0xe
 3545 0249 3A       		.uleb128 0x3a
 3546 024a 0B       		.uleb128 0xb
 3547 024b 3B       		.uleb128 0x3b
 3548 024c 05       		.uleb128 0x5
 3549 024d 49       		.uleb128 0x49
 3550 024e 13       		.uleb128 0x13
 3551 024f 02       		.uleb128 0x2
 3552 0250 0A       		.uleb128 0xa
 3553 0251 00       		.byte	0x0
 3554 0252 00       		.byte	0x0
 3555 0253 2C       		.uleb128 0x2c
 3556 0254 34       		.uleb128 0x34
 3557 0255 00       		.byte	0x0
 3558 0256 03       		.uleb128 0x3
 3559 0257 0E       		.uleb128 0xe
 3560 0258 3A       		.uleb128 0x3a
 3561 0259 0B       		.uleb128 0xb
 3562 025a 3B       		.uleb128 0x3b
 3563 025b 05       		.uleb128 0x5
 3564 025c 49       		.uleb128 0x49
 3565 025d 13       		.uleb128 0x13
 3566 025e 3F       		.uleb128 0x3f
 3567 025f 0C       		.uleb128 0xc
 3568 0260 3C       		.uleb128 0x3c
 3569 0261 0C       		.uleb128 0xc
 3570 0262 00       		.byte	0x0
 3571 0263 00       		.byte	0x0
 3572 0264 2D       		.uleb128 0x2d
 3573 0265 34       		.uleb128 0x34
ARM GAS  C:\Users\DNIEL~1\AppData\Local\Temp\cc47TTCl.s 			page 64


 3574 0266 00       		.byte	0x0
 3575 0267 03       		.uleb128 0x3
 3576 0268 0E       		.uleb128 0xe
 3577 0269 3A       		.uleb128 0x3a
 3578 026a 0B       		.uleb128 0xb
 3579 026b 3B       		.uleb128 0x3b
 3580 026c 0B       		.uleb128 0xb
 3581 026d 49       		.uleb128 0x49
 3582 026e 13       		.uleb128 0x13
 3583 026f 02       		.uleb128 0x2
 3584 0270 0A       		.uleb128 0xa
 3585 0271 00       		.byte	0x0
 3586 0272 00       		.byte	0x0
 3587 0273 2E       		.uleb128 0x2e
 3588 0274 34       		.uleb128 0x34
 3589 0275 00       		.byte	0x0
 3590 0276 03       		.uleb128 0x3
 3591 0277 0E       		.uleb128 0xe
 3592 0278 3A       		.uleb128 0x3a
 3593 0279 0B       		.uleb128 0xb
 3594 027a 3B       		.uleb128 0x3b
 3595 027b 0B       		.uleb128 0xb
 3596 027c 49       		.uleb128 0x49
 3597 027d 13       		.uleb128 0x13
 3598 027e 3F       		.uleb128 0x3f
 3599 027f 0C       		.uleb128 0xc
 3600 0280 02       		.uleb128 0x2
 3601 0281 0A       		.uleb128 0xa
 3602 0282 00       		.byte	0x0
 3603 0283 00       		.byte	0x0
 3604 0284 00       		.byte	0x0
 3605              		.section	.debug_pubnames,"",%progbits
 3606 0000 DD000000 		.4byte	0xdd
 3607 0004 0200     		.2byte	0x2
 3608 0006 00000000 		.4byte	.Ldebug_info0
 3609 000a E30D0000 		.4byte	0xde3
 3610 000e 170B0000 		.4byte	0xb17
 3611 0012 7370695F 		.ascii	"spi_lld_init\000"
 3611      6C6C645F 
 3611      696E6974 
 3611      00
 3612 001f 2C0B0000 		.4byte	0xb2c
 3613 0023 7370695F 		.ascii	"spi_lld_start\000"
 3613      6C6C645F 
 3613      73746172 
 3613      7400
 3614 0031 680B0000 		.4byte	0xb68
 3615 0035 7370695F 		.ascii	"spi_lld_stop\000"
 3615      6C6C645F 
 3615      73746F70 
 3615      00
 3616 0042 930B0000 		.4byte	0xb93
 3617 0046 7370695F 		.ascii	"spi_lld_select\000"
 3617      6C6C645F 
 3617      73656C65 
 3617      637400
 3618 0055 BD0B0000 		.4byte	0xbbd
ARM GAS  C:\Users\DNIEL~1\AppData\Local\Temp\cc47TTCl.s 			page 65


 3619 0059 7370695F 		.ascii	"spi_lld_unselect\000"
 3619      6C6C645F 
 3619      756E7365 
 3619      6C656374 
 3619      00
 3620 006a E70B0000 		.4byte	0xbe7
 3621 006e 7370695F 		.ascii	"spi_lld_ignore\000"
 3621      6C6C645F 
 3621      69676E6F 
 3621      726500
 3622 007d 200C0000 		.4byte	0xc20
 3623 0081 7370695F 		.ascii	"spi_lld_exchange\000"
 3623      6C6C645F 
 3623      65786368 
 3623      616E6765 
 3623      00
 3624 0092 800C0000 		.4byte	0xc80
 3625 0096 7370695F 		.ascii	"spi_lld_send\000"
 3625      6C6C645F 
 3625      73656E64 
 3625      00
 3626 00a3 C90C0000 		.4byte	0xcc9
 3627 00a7 7370695F 		.ascii	"spi_lld_receive\000"
 3627      6C6C645F 
 3627      72656365 
 3627      69766500 
 3628 00b7 120D0000 		.4byte	0xd12
 3629 00bb 7370695F 		.ascii	"spi_lld_polled_exchange\000"
 3629      6C6C645F 
 3629      706F6C6C 
 3629      65645F65 
 3629      78636861 
 3630 00d3 D00D0000 		.4byte	0xdd0
 3631 00d7 53504944 		.ascii	"SPID2\000"
 3631      3200
 3632 00dd 00000000 		.4byte	0x0
 3633              		.section	.debug_pubtypes,"",%progbits
 3634 0000 09020000 		.4byte	0x209
 3635 0004 0200     		.2byte	0x2
 3636 0006 00000000 		.4byte	.Ldebug_info0
 3637 000a E30D0000 		.4byte	0xde3
 3638 000e 30000000 		.4byte	0x30
 3639 0012 73697A65 		.ascii	"size_t\000"
 3639      5F7400
 3640 0019 49000000 		.4byte	0x49
 3641 001d 75696E74 		.ascii	"uint8_t\000"
 3641      385F7400 
 3642 0025 62000000 		.4byte	0x62
 3643 0029 75696E74 		.ascii	"uint16_t\000"
 3643      31365F74 
 3643      00
 3644 0032 74000000 		.4byte	0x74
 3645 0036 696E7433 		.ascii	"int32_t\000"
 3645      325F7400 
 3646 003e 86000000 		.4byte	0x86
 3647 0042 75696E74 		.ascii	"uint32_t\000"
 3647      33325F74 
ARM GAS  C:\Users\DNIEL~1\AppData\Local\Temp\cc47TTCl.s 			page 66


 3647      00
 3648 004b A6000000 		.4byte	0xa6
 3649 004f 626F6F6C 		.ascii	"bool_t\000"
 3649      5F7400
 3650 0056 B1000000 		.4byte	0xb1
 3651 005a 746D6F64 		.ascii	"tmode_t\000"
 3651      655F7400 
 3652 0062 BC000000 		.4byte	0xbc
 3653 0066 74737461 		.ascii	"tstate_t\000"
 3653      74655F74 
 3653      00
 3654 006f C7000000 		.4byte	0xc7
 3655 0073 74726566 		.ascii	"trefs_t\000"
 3655      735F7400 
 3656 007b D2000000 		.4byte	0xd2
 3657 007f 74736C69 		.ascii	"tslices_t\000"
 3657      6365735F 
 3657      7400
 3658 0089 DD000000 		.4byte	0xdd
 3659 008d 74707269 		.ascii	"tprio_t\000"
 3659      6F5F7400 
 3660 0095 E8000000 		.4byte	0xe8
 3661 0099 6D73675F 		.ascii	"msg_t\000"
 3661      7400
 3662 009f F3000000 		.4byte	0xf3
 3663 00a3 6576656E 		.ascii	"eventmask_t\000"
 3663      746D6173 
 3663      6B5F7400 
 3664 00af FE000000 		.4byte	0xfe
 3665 00b3 73797374 		.ascii	"systime_t\000"
 3665      696D655F 
 3665      7400
 3666 00bd 09010000 		.4byte	0x109
 3667 00c1 54687265 		.ascii	"Thread\000"
 3667      616400
 3668 00c8 64020000 		.4byte	0x264
 3669 00cc 54687265 		.ascii	"ThreadsQueue\000"
 3669      61647351 
 3669      75657565 
 3669      00
 3670 00d9 86020000 		.4byte	0x286
 3671 00dd 54687265 		.ascii	"ThreadsList\000"
 3671      6164734C 
 3671      69737400 
 3672 00e9 91020000 		.4byte	0x291
 3673 00ed 72656761 		.ascii	"regarm_t\000"
 3673      726D5F74 
 3673      00
 3674 00f6 9E020000 		.4byte	0x29e
 3675 00fa 696E7463 		.ascii	"intctx\000"
 3675      747800
 3676 0101 2C030000 		.4byte	0x32c
 3677 0105 636F6E74 		.ascii	"context\000"
 3677      65787400 
 3678 010d 59030000 		.4byte	0x359
 3679 0111 4D757465 		.ascii	"Mutex\000"
 3679      7800
ARM GAS  C:\Users\DNIEL~1\AppData\Local\Temp\cc47TTCl.s 			page 67


 3680 0117 96030000 		.4byte	0x396
 3681 011b 4D757465 		.ascii	"Mutex\000"
 3681      7800
 3682 0121 14010000 		.4byte	0x114
 3683 0125 54687265 		.ascii	"Thread\000"
 3683      616400
 3684 012c 6B040000 		.4byte	0x46b
 3685 0130 444D415F 		.ascii	"DMA_Stream_TypeDef\000"
 3685      53747265 
 3685      616D5F54 
 3685      79706544 
 3685      656600
 3686 0143 44060000 		.4byte	0x644
 3687 0147 5243435F 		.ascii	"RCC_TypeDef\000"
 3687      54797065 
 3687      44656600 
 3688 0153 66070000 		.4byte	0x766
 3689 0157 5350495F 		.ascii	"SPI_TypeDef\000"
 3689      54797065 
 3689      44656600 
 3690 0163 CD070000 		.4byte	0x7cd
 3691 0167 73746D33 		.ascii	"stm32_dma_stream_t\000"
 3691      325F646D 
 3691      615F7374 
 3691      7265616D 
 3691      5F7400
 3692 017a D8070000 		.4byte	0x7d8
 3693 017e 73746D33 		.ascii	"stm32_dmaisr_t\000"
 3693      325F646D 
 3693      61697372 
 3693      5F7400
 3694 018d D4080000 		.4byte	0x8d4
 3695 0191 4750494F 		.ascii	"GPIO_TypeDef\000"
 3695      5F547970 
 3695      65446566 
 3695      00
 3696 019e DF080000 		.4byte	0x8df
 3697 01a2 696F706F 		.ascii	"ioportmask_t\000"
 3697      72746D61 
 3697      736B5F74 
 3697      00
 3698 01af EA080000 		.4byte	0x8ea
 3699 01b3 696F706F 		.ascii	"ioportid_t\000"
 3699      72746964 
 3699      5F7400
 3700 01be 2D090000 		.4byte	0x92d
 3701 01c2 73706973 		.ascii	"spistate_t\000"
 3701      74617465 
 3701      5F7400
 3702 01cd 38090000 		.4byte	0x938
 3703 01d1 53504944 		.ascii	"SPIDriver\000"
 3703      72697665 
 3703      7200
 3704 01db D9090000 		.4byte	0x9d9
 3705 01df 73706963 		.ascii	"spicallback_t\000"
 3705      616C6C62 
 3705      61636B5F 
ARM GAS  C:\Users\DNIEL~1\AppData\Local\Temp\cc47TTCl.s 			page 68


 3705      7400
 3706 01ed 430A0000 		.4byte	0xa43
 3707 01f1 53504943 		.ascii	"SPIConfig\000"
 3707      6F6E6669 
 3707      6700
 3708 01fb 44090000 		.4byte	0x944
 3709 01ff 53504944 		.ascii	"SPIDriver\000"
 3709      72697665 
 3709      7200
 3710 0209 00000000 		.4byte	0x0
 3711              		.section	.debug_aranges,"",%progbits
 3712 0000 74000000 		.4byte	0x74
 3713 0004 0200     		.2byte	0x2
 3714 0006 00000000 		.4byte	.Ldebug_info0
 3715 000a 04       		.byte	0x4
 3716 000b 00       		.byte	0x0
 3717 000c 0000     		.2byte	0x0
 3718 000e 0000     		.2byte	0x0
 3719 0010 00000000 		.4byte	.LFB119
 3720 0014 0C000000 		.4byte	.LFE119-.LFB119
 3721 0018 00000000 		.4byte	.LFB118
 3722 001c 84000000 		.4byte	.LFE118-.LFB118
 3723 0020 00000000 		.4byte	.LFB120
 3724 0024 40000000 		.4byte	.LFE120-.LFB120
 3725 0028 00000000 		.4byte	.LFB121
 3726 002c AC000000 		.4byte	.LFE121-.LFB121
 3727 0030 00000000 		.4byte	.LFB122
 3728 0034 38000000 		.4byte	.LFE122-.LFB122
 3729 0038 00000000 		.4byte	.LFB123
 3730 003c 10000000 		.4byte	.LFE123-.LFB123
 3731 0040 00000000 		.4byte	.LFB124
 3732 0044 10000000 		.4byte	.LFE124-.LFB124
 3733 0048 00000000 		.4byte	.LFB125
 3734 004c 3C000000 		.4byte	.LFE125-.LFB125
 3735 0050 00000000 		.4byte	.LFB126
 3736 0054 36000000 		.4byte	.LFE126-.LFB126
 3737 0058 00000000 		.4byte	.LFB127
 3738 005c 38000000 		.4byte	.LFE127-.LFB127
 3739 0060 00000000 		.4byte	.LFB128
 3740 0064 38000000 		.4byte	.LFE128-.LFB128
 3741 0068 00000000 		.4byte	.LFB129
 3742 006c 12000000 		.4byte	.LFE129-.LFB129
 3743 0070 00000000 		.4byte	0x0
 3744 0074 00000000 		.4byte	0x0
 3745              		.section	.debug_ranges,"",%progbits
 3746              	.Ldebug_ranges0:
 3747 0000 00000000 		.4byte	.LFB119
 3748 0004 0C000000 		.4byte	.LFE119
 3749 0008 00000000 		.4byte	.LFB118
 3750 000c 84000000 		.4byte	.LFE118
 3751 0010 00000000 		.4byte	.LFB120
 3752 0014 40000000 		.4byte	.LFE120
 3753 0018 00000000 		.4byte	.LFB121
 3754 001c AC000000 		.4byte	.LFE121
 3755 0020 00000000 		.4byte	.LFB122
 3756 0024 38000000 		.4byte	.LFE122
 3757 0028 00000000 		.4byte	.LFB123
ARM GAS  C:\Users\DNIEL~1\AppData\Local\Temp\cc47TTCl.s 			page 69


 3758 002c 10000000 		.4byte	.LFE123
 3759 0030 00000000 		.4byte	.LFB124
 3760 0034 10000000 		.4byte	.LFE124
 3761 0038 00000000 		.4byte	.LFB125
 3762 003c 3C000000 		.4byte	.LFE125
 3763 0040 00000000 		.4byte	.LFB126
 3764 0044 36000000 		.4byte	.LFE126
 3765 0048 00000000 		.4byte	.LFB127
 3766 004c 38000000 		.4byte	.LFE127
 3767 0050 00000000 		.4byte	.LFB128
 3768 0054 38000000 		.4byte	.LFE128
 3769 0058 00000000 		.4byte	.LFB129
 3770 005c 12000000 		.4byte	.LFE129
 3771 0060 00000000 		.4byte	0x0
 3772 0064 00000000 		.4byte	0x0
 3773              		.section	.debug_str,"MS",%progbits,1
 3774              	.LASF58:
 3775 0000 4D304152 		.ascii	"M0AR\000"
 3775      00
 3776              	.LASF2:
 3777 0005 73697A65 		.ascii	"size_t\000"
 3777      5F7400
 3778              	.LASF52:
 3779 000c 7264796D 		.ascii	"rdymsg\000"
 3779      736700
 3780              	.LASF106:
 3781 0013 4F545950 		.ascii	"OTYPER\000"
 3781      455200
 3782              	.LASF119:
 3783 001a 5350495F 		.ascii	"SPI_ACTIVE\000"
 3783      41435449 
 3783      564500
 3784              	.LASF97:
 3785 0025 73747265 		.ascii	"stream\000"
 3785      616D00
 3786              	.LASF127:
 3787 002c 646D6172 		.ascii	"dmarx\000"
 3787      7800
 3788              	.LASF105:
 3789 0032 4D4F4445 		.ascii	"MODER\000"
 3789      5200
 3790              	.LASF13:
 3791 0038 6C6F6E67 		.ascii	"long long unsigned int\000"
 3791      206C6F6E 
 3791      6720756E 
 3791      7369676E 
 3791      65642069 
 3792              	.LASF118:
 3793 004f 5350495F 		.ascii	"SPI_READY\000"
 3793      52454144 
 3793      5900
 3794              	.LASF89:
 3795 0059 43524350 		.ascii	"CRCPR\000"
 3795      5200
 3796              	.LASF108:
 3797 005f 50555044 		.ascii	"PUPDR\000"
 3797      5200
ARM GAS  C:\Users\DNIEL~1\AppData\Local\Temp\cc47TTCl.s 			page 70


 3798              	.LASF53:
 3799 0065 65786974 		.ascii	"exitcode\000"
 3799      636F6465 
 3799      00
 3800              	.LASF101:
 3801 006e 76656374 		.ascii	"vector\000"
 3801      6F7200
 3802              	.LASF152:
 3803 0075 5F73746D 		.ascii	"_stm32_dma_streams\000"
 3803      33325F64 
 3803      6D615F73 
 3803      74726561 
 3803      6D7300
 3804              	.LASF122:
 3805 0088 53504944 		.ascii	"SPIDriver\000"
 3805      72697665 
 3805      7200
 3806              	.LASF133:
 3807 0092 7373706F 		.ascii	"ssport\000"
 3807      727400
 3808              	.LASF151:
 3809 0099 49544D5F 		.ascii	"ITM_RxBuffer\000"
 3809      52784275 
 3809      66666572 
 3809      00
 3810              	.LASF147:
 3811 00a6 72786275 		.ascii	"rxbuf\000"
 3811      6600
 3812              	.LASF77:
 3813 00ac 41484231 		.ascii	"AHB1LPENR\000"
 3813      4C50454E 
 3813      5200
 3814              	.LASF26:
 3815 00b6 705F7072 		.ascii	"p_prio\000"
 3815      696F00
 3816              	.LASF134:
 3817 00bd 73737061 		.ascii	"sspad\000"
 3817      6400
 3818              	.LASF12:
 3819 00c3 6C6F6E67 		.ascii	"long long int\000"
 3819      206C6F6E 
 3819      6720696E 
 3819      7400
 3820              	.LASF1:
 3821 00d1 7369676E 		.ascii	"signed char\000"
 3821      65642063 
 3821      68617200 
 3822              	.LASF109:
 3823 00dd 42535252 		.ascii	"BSRR\000"
 3823      00
 3824              	.LASF63:
 3825 00e2 41484231 		.ascii	"AHB1RSTR\000"
 3825      52535452 
 3825      00
 3826              	.LASF117:
 3827 00eb 5350495F 		.ascii	"SPI_STOP\000"
 3827      53544F50 
ARM GAS  C:\Users\DNIEL~1\AppData\Local\Temp\cc47TTCl.s 			page 71


 3827      00
 3828              	.LASF92:
 3829 00f4 49325343 		.ascii	"I2SCFGR\000"
 3829      46475200 
 3830              	.LASF14:
 3831 00fc 626F6F6C 		.ascii	"bool_t\000"
 3831      5F7400
 3832              	.LASF49:
 3833 0103 6D5F7175 		.ascii	"m_queue\000"
 3833      65756500 
 3834              	.LASF156:
 3835 010b 474E5520 		.ascii	"GNU C 4.5.2\000"
 3835      4320342E 
 3835      352E3200 
 3836              	.LASF18:
 3837 0117 74736C69 		.ascii	"tslices_t\000"
 3837      6365735F 
 3837      7400
 3838              	.LASF150:
 3839 0121 6672616D 		.ascii	"frame\000"
 3839      6500
 3840              	.LASF123:
 3841 0127 73746174 		.ascii	"state\000"
 3841      6500
 3842              	.LASF9:
 3843 012d 6C6F6E67 		.ascii	"long int\000"
 3843      20696E74 
 3843      00
 3844              	.LASF139:
 3845 0136 7370695F 		.ascii	"spi_lld_serve_rx_interrupt\000"
 3845      6C6C645F 
 3845      73657276 
 3845      655F7278 
 3845      5F696E74 
 3846              	.LASF68:
 3847 0151 41504232 		.ascii	"APB2RSTR\000"
 3847      52535452 
 3847      00
 3848              	.LASF81:
 3849 015a 41504231 		.ascii	"APB1LPENR\000"
 3849      4C50454E 
 3849      5200
 3850              	.LASF16:
 3851 0164 74737461 		.ascii	"tstate_t\000"
 3851      74655F74 
 3851      00
 3852              	.LASF145:
 3853 016d 7370695F 		.ascii	"spi_lld_exchange\000"
 3853      6C6C645F 
 3853      65786368 
 3853      616E6765 
 3853      00
 3854              	.LASF33:
 3855 017e 705F7265 		.ascii	"p_refs\000"
 3855      667300
 3856              	.LASF6:
 3857 0185 75696E74 		.ascii	"uint16_t\000"
ARM GAS  C:\Users\DNIEL~1\AppData\Local\Temp\cc47TTCl.s 			page 72


 3857      31365F74 
 3857      00
 3858              	.LASF35:
 3859 018e 705F7469 		.ascii	"p_time\000"
 3859      6D6500
 3860              	.LASF28:
 3861 0195 705F6E65 		.ascii	"p_newer\000"
 3861      77657200 
 3862              	.LASF132:
 3863 019d 656E645F 		.ascii	"end_cb\000"
 3863      636200
 3864              	.LASF129:
 3865 01a4 7278646D 		.ascii	"rxdmamode\000"
 3865      616D6F64 
 3865      6500
 3866              	.LASF113:
 3867 01ae 4750494F 		.ascii	"GPIO_TypeDef\000"
 3867      5F547970 
 3867      65446566 
 3867      00
 3868              	.LASF128:
 3869 01bb 646D6174 		.ascii	"dmatx\000"
 3869      7800
 3870              	.LASF107:
 3871 01c1 4F535045 		.ascii	"OSPEEDR\000"
 3871      45445200 
 3872              	.LASF42:
 3873 01c9 705F6D70 		.ascii	"p_mpool\000"
 3873      6F6F6C00 
 3874              	.LASF45:
 3875 01d1 72656761 		.ascii	"regarm_t\000"
 3875      726D5F74 
 3875      00
 3876              	.LASF100:
 3877 01da 73656C66 		.ascii	"selfindex\000"
 3877      696E6465 
 3877      7800
 3878              	.LASF158:
 3879 01e4 433A5C55 		.ascii	"C:\\Users\\D\341niel\\Dropbox\\Solar Racing\\Szoftv"
 3879      73657273 
 3879      5C44E16E 
 3879      69656C5C 
 3879      44726F70 
 3880 020f 65725C53 		.ascii	"er\\Smarty\\Smarty_v6\\smarty\\firmware\000"
 3880      6D617274 
 3880      795C536D 
 3880      61727479 
 3880      5F76365C 
 3881              	.LASF131:
 3882 0233 73706963 		.ascii	"spicallback_t\000"
 3882      616C6C62 
 3882      61636B5F 
 3882      7400
 3883              	.LASF130:
 3884 0241 7478646D 		.ascii	"txdmamode\000"
 3884      616D6F64 
 3884      6500
ARM GAS  C:\Users\DNIEL~1\AppData\Local\Temp\cc47TTCl.s 			page 73


 3885              	.LASF148:
 3886 024b 7370695F 		.ascii	"spi_lld_send\000"
 3886      6C6C645F 
 3886      73656E64 
 3886      00
 3887              	.LASF0:
 3888 0258 756E7369 		.ascii	"unsigned int\000"
 3888      676E6564 
 3888      20696E74 
 3888      00
 3889              	.LASF143:
 3890 0265 7370695F 		.ascii	"spi_lld_unselect\000"
 3890      6C6C645F 
 3890      756E7365 
 3890      6C656374 
 3890      00
 3891              	.LASF146:
 3892 0276 74786275 		.ascii	"txbuf\000"
 3892      6600
 3893              	.LASF62:
 3894 027c 43464752 		.ascii	"CFGR\000"
 3894      00
 3895              	.LASF103:
 3896 0281 73746D33 		.ascii	"stm32_dmaisr_t\000"
 3896      325F646D 
 3896      61697372 
 3896      5F7400
 3897              	.LASF37:
 3898 0290 705F6D73 		.ascii	"p_msgqueue\000"
 3898      67717565 
 3898      756500
 3899              	.LASF72:
 3900 029b 41484233 		.ascii	"AHB3ENR\000"
 3900      454E5200 
 3901              	.LASF88:
 3902 02a3 5243435F 		.ascii	"RCC_TypeDef\000"
 3902      54797065 
 3902      44656600 
 3903              	.LASF110:
 3904 02af 4C434B52 		.ascii	"LCKR\000"
 3904      00
 3905              	.LASF99:
 3906 02b4 69736869 		.ascii	"ishift\000"
 3906      667400
 3907              	.LASF47:
 3908 02bb 636F6E74 		.ascii	"context\000"
 3908      65787400 
 3909              	.LASF7:
 3910 02c3 73686F72 		.ascii	"short unsigned int\000"
 3910      7420756E 
 3910      7369676E 
 3910      65642069 
 3910      6E7400
 3911              	.LASF87:
 3912 02d6 504C4C49 		.ascii	"PLLI2SCFGR\000"
 3912      32534346 
 3912      475200
ARM GAS  C:\Users\DNIEL~1\AppData\Local\Temp\cc47TTCl.s 			page 74


 3913              	.LASF20:
 3914 02e1 6D73675F 		.ascii	"msg_t\000"
 3914      7400
 3915              	.LASF61:
 3916 02e7 504C4C43 		.ascii	"PLLCFGR\000"
 3916      46475200 
 3917              	.LASF155:
 3918 02ef 64756D6D 		.ascii	"dummyrx\000"
 3918      79727800 
 3919              	.LASF15:
 3920 02f7 746D6F64 		.ascii	"tmode_t\000"
 3920      655F7400 
 3921              	.LASF82:
 3922 02ff 41504232 		.ascii	"APB2LPENR\000"
 3922      4C50454E 
 3922      5200
 3923              	.LASF44:
 3924 0309 54687265 		.ascii	"ThreadsList\000"
 3924      6164734C 
 3924      69737400 
 3925              	.LASF21:
 3926 0315 6576656E 		.ascii	"eventmask_t\000"
 3926      746D6173 
 3926      6B5F7400 
 3927              	.LASF159:
 3928 0321 7370695F 		.ascii	"spi_lld_init\000"
 3928      6C6C645F 
 3928      696E6974 
 3928      00
 3929              	.LASF149:
 3930 032e 7370695F 		.ascii	"spi_lld_receive\000"
 3930      6C6C645F 
 3930      72656365 
 3930      69766500 
 3931              	.LASF94:
 3932 033e 49325350 		.ascii	"I2SPR\000"
 3932      5200
 3933              	.LASF104:
 3934 0344 636C6561 		.ascii	"clear\000"
 3934      7200
 3935              	.LASF48:
 3936 034a 4D757465 		.ascii	"Mutex\000"
 3936      7800
 3937              	.LASF24:
 3938 0350 705F6E65 		.ascii	"p_next\000"
 3938      787400
 3939              	.LASF141:
 3940 0357 7370695F 		.ascii	"spi_lld_stop\000"
 3940      6C6C645F 
 3940      73746F70 
 3940      00
 3941              	.LASF114:
 3942 0364 696F706F 		.ascii	"ioportmask_t\000"
 3942      72746D61 
 3942      736B5F74 
 3942      00
 3943              	.LASF29:
ARM GAS  C:\Users\DNIEL~1\AppData\Local\Temp\cc47TTCl.s 			page 75


 3944 0371 705F6F6C 		.ascii	"p_older\000"
 3944      64657200 
 3945              	.LASF43:
 3946 0379 54687265 		.ascii	"ThreadsQueue\000"
 3946      61647351 
 3946      75657565 
 3946      00
 3947              	.LASF78:
 3948 0386 41484232 		.ascii	"AHB2LPENR\000"
 3948      4C50454E 
 3948      5200
 3949              	.LASF67:
 3950 0390 41504231 		.ascii	"APB1RSTR\000"
 3950      52535452 
 3950      00
 3951              	.LASF112:
 3952 0399 41465248 		.ascii	"AFRH\000"
 3952      00
 3953              	.LASF111:
 3954 039e 4146524C 		.ascii	"AFRL\000"
 3954      00
 3955              	.LASF91:
 3956 03a3 54584352 		.ascii	"TXCRCR\000"
 3956      435200
 3957              	.LASF66:
 3958 03aa 52455345 		.ascii	"RESERVED0\000"
 3958      52564544 
 3958      3000
 3959              	.LASF69:
 3960 03b4 52455345 		.ascii	"RESERVED1\000"
 3960      52564544 
 3960      3100
 3961              	.LASF73:
 3962 03be 52455345 		.ascii	"RESERVED2\000"
 3962      52564544 
 3962      3200
 3963              	.LASF76:
 3964 03c8 52455345 		.ascii	"RESERVED3\000"
 3964      52564544 
 3964      3300
 3965              	.LASF80:
 3966 03d2 52455345 		.ascii	"RESERVED4\000"
 3966      52564544 
 3966      3400
 3967              	.LASF25:
 3968 03dc 705F7072 		.ascii	"p_prev\000"
 3968      657600
 3969              	.LASF85:
 3970 03e3 52455345 		.ascii	"RESERVED6\000"
 3970      52564544 
 3970      3600
 3971              	.LASF93:
 3972 03ed 52455345 		.ascii	"RESERVED7\000"
 3972      52564544 
 3972      3700
 3973              	.LASF95:
 3974 03f7 52455345 		.ascii	"RESERVED8\000"
ARM GAS  C:\Users\DNIEL~1\AppData\Local\Temp\cc47TTCl.s 			page 76


 3974      52564544 
 3974      3800
 3975              	.LASF19:
 3976 0401 74707269 		.ascii	"tprio_t\000"
 3976      6F5F7400 
 3977              	.LASF126:
 3978 0409 6D757465 		.ascii	"mutex\000"
 3978      7800
 3979              	.LASF8:
 3980 040f 696E7433 		.ascii	"int32_t\000"
 3980      325F7400 
 3981              	.LASF4:
 3982 0417 756E7369 		.ascii	"unsigned char\000"
 3982      676E6564 
 3982      20636861 
 3982      7200
 3983              	.LASF102:
 3984 0425 73746D33 		.ascii	"stm32_dma_stream_t\000"
 3984      325F646D 
 3984      615F7374 
 3984      7265616D 
 3984      5F7400
 3985              	.LASF153:
 3986 0438 53504944 		.ascii	"SPID2\000"
 3986      3200
 3987              	.LASF154:
 3988 043e 64756D6D 		.ascii	"dummytx\000"
 3988      79747800 
 3989              	.LASF31:
 3990 0446 705F7374 		.ascii	"p_state\000"
 3990      61746500 
 3991              	.LASF40:
 3992 044e 705F6D74 		.ascii	"p_mtxlist\000"
 3992      786C6973 
 3992      7400
 3993              	.LASF5:
 3994 0458 73686F72 		.ascii	"short int\000"
 3994      7420696E 
 3994      7400
 3995              	.LASF34:
 3996 0462 705F7072 		.ascii	"p_preempt\000"
 3996      65656D70 
 3996      7400
 3997              	.LASF79:
 3998 046c 41484233 		.ascii	"AHB3LPENR\000"
 3998      4C50454E 
 3998      5200
 3999              	.LASF55:
 4000 0476 65776D61 		.ascii	"ewmask\000"
 4000      736B00
 4001              	.LASF32:
 4002 047d 705F666C 		.ascii	"p_flags\000"
 4002      61677300 
 4003              	.LASF75:
 4004 0485 41504232 		.ascii	"APB2ENR\000"
 4004      454E5200 
 4005              	.LASF65:
ARM GAS  C:\Users\DNIEL~1\AppData\Local\Temp\cc47TTCl.s 			page 77


 4006 048d 41484233 		.ascii	"AHB3RSTR\000"
 4006      52535452 
 4006      00
 4007              	.LASF23:
 4008 0496 54687265 		.ascii	"Thread\000"
 4008      616400
 4009              	.LASF39:
 4010 049d 705F6570 		.ascii	"p_epending\000"
 4010      656E6469 
 4010      6E6700
 4011              	.LASF98:
 4012 04a8 69666372 		.ascii	"ifcr\000"
 4012      00
 4013              	.LASF83:
 4014 04ad 52455345 		.ascii	"RESERVED5\000"
 4014      52564544 
 4014      3500
 4015              	.LASF10:
 4016 04b7 75696E74 		.ascii	"uint32_t\000"
 4016      33325F74 
 4016      00
 4017              	.LASF17:
 4018 04c0 74726566 		.ascii	"trefs_t\000"
 4018      735F7400 
 4019              	.LASF74:
 4020 04c8 41504231 		.ascii	"APB1ENR\000"
 4020      454E5200 
 4021              	.LASF11:
 4022 04d0 6C6F6E67 		.ascii	"long unsigned int\000"
 4022      20756E73 
 4022      69676E65 
 4022      6420696E 
 4022      7400
 4023              	.LASF96:
 4024 04e2 5350495F 		.ascii	"SPI_TypeDef\000"
 4024      54797065 
 4024      44656600 
 4025              	.LASF56:
 4026 04ee 63686172 		.ascii	"char\000"
 4026      00
 4027              	.LASF120:
 4028 04f3 5350495F 		.ascii	"SPI_COMPLETE\000"
 4028      434F4D50 
 4028      4C455445 
 4028      00
 4029              	.LASF124:
 4030 0500 636F6E66 		.ascii	"config\000"
 4030      696700
 4031              	.LASF64:
 4032 0507 41484232 		.ascii	"AHB2RSTR\000"
 4032      52535452 
 4032      00
 4033              	.LASF121:
 4034 0510 73706973 		.ascii	"spistate_t\000"
 4034      74617465 
 4034      5F7400
 4035              	.LASF51:
ARM GAS  C:\Users\DNIEL~1\AppData\Local\Temp\cc47TTCl.s 			page 78


 4036 051b 6D5F6E65 		.ascii	"m_next\000"
 4036      787400
 4037              	.LASF22:
 4038 0522 73797374 		.ascii	"systime_t\000"
 4038      696D655F 
 4038      7400
 4039              	.LASF41:
 4040 052c 705F7265 		.ascii	"p_realprio\000"
 4040      616C7072 
 4040      696F00
 4041              	.LASF125:
 4042 0537 74687265 		.ascii	"thread\000"
 4042      616400
 4043              	.LASF57:
 4044 053e 4E445452 		.ascii	"NDTR\000"
 4044      00
 4045              	.LASF60:
 4046 0543 444D415F 		.ascii	"DMA_Stream_TypeDef\000"
 4046      53747265 
 4046      616D5F54 
 4046      79706544 
 4046      656600
 4047              	.LASF115:
 4048 0556 696F706F 		.ascii	"ioportid_t\000"
 4048      72746964 
 4048      5F7400
 4049              	.LASF71:
 4050 0561 41484232 		.ascii	"AHB2ENR\000"
 4050      454E5200 
 4051              	.LASF142:
 4052 0569 7370695F 		.ascii	"spi_lld_select\000"
 4052      6C6C645F 
 4052      73656C65 
 4052      637400
 4053              	.LASF46:
 4054 0578 696E7463 		.ascii	"intctx\000"
 4054      747800
 4055              	.LASF59:
 4056 057f 4D314152 		.ascii	"M1AR\000"
 4056      00
 4057              	.LASF116:
 4058 0584 5350495F 		.ascii	"SPI_UNINIT\000"
 4058      554E494E 
 4058      495400
 4059              	.LASF86:
 4060 058f 53534347 		.ascii	"SSCGR\000"
 4060      5200
 4061              	.LASF144:
 4062 0595 7370695F 		.ascii	"spi_lld_ignore\000"
 4062      6C6C645F 
 4062      69676E6F 
 4062      726500
 4063              	.LASF84:
 4064 05a4 42444352 		.ascii	"BDCR\000"
 4064      00
 4065              	.LASF90:
 4066 05a9 52584352 		.ascii	"RXCRCR\000"
ARM GAS  C:\Users\DNIEL~1\AppData\Local\Temp\cc47TTCl.s 			page 79


 4066      435200
 4067              	.LASF140:
 4068 05b0 7370695F 		.ascii	"spi_lld_start\000"
 4068      6C6C645F 
 4068      73746172 
 4068      7400
 4069              	.LASF3:
 4070 05be 75696E74 		.ascii	"uint8_t\000"
 4070      385F7400 
 4071              	.LASF157:
 4072 05c6 2E2E2F2E 		.ascii	"../../../ChibiOS/os/hal/platforms/STM32/spi_lld.c\000"
 4072      2E2F2E2E 
 4072      2F436869 
 4072      62694F53 
 4072      2F6F732F 
 4073              	.LASF136:
 4074 05f8 73706970 		.ascii	"spip\000"
 4074      00
 4075              	.LASF137:
 4076 05fd 666C6167 		.ascii	"flags\000"
 4076      7300
 4077              	.LASF54:
 4078 0603 77746F62 		.ascii	"wtobjp\000"
 4078      6A7000
 4079              	.LASF138:
 4080 060a 7370695F 		.ascii	"spi_lld_serve_tx_interrupt\000"
 4080      6C6C645F 
 4080      73657276 
 4080      655F7478 
 4080      5F696E74 
 4081              	.LASF30:
 4082 0625 705F6E61 		.ascii	"p_name\000"
 4082      6D6500
 4083              	.LASF70:
 4084 062c 41484231 		.ascii	"AHB1ENR\000"
 4084      454E5200 
 4085              	.LASF160:
 4086 0634 7370695F 		.ascii	"spi_lld_polled_exchange\000"
 4086      6C6C645F 
 4086      706F6C6C 
 4086      65645F65 
 4086      78636861 
 4087              	.LASF135:
 4088 064c 53504943 		.ascii	"SPIConfig\000"
 4088      6F6E6669 
 4088      6700
 4089              	.LASF38:
 4090 0656 705F6D73 		.ascii	"p_msg\000"
 4090      6700
 4091              	.LASF50:
 4092 065c 6D5F6F77 		.ascii	"m_owner\000"
 4092      6E657200 
 4093              	.LASF27:
 4094 0664 705F6374 		.ascii	"p_ctx\000"
 4094      7800
 4095              	.LASF36:
 4096 066a 705F7761 		.ascii	"p_waiting\000"
ARM GAS  C:\Users\DNIEL~1\AppData\Local\Temp\cc47TTCl.s 			page 80


 4096      6974696E 
 4096      6700
 4097              		.ident	"GCC: (Sourcery G++ Lite 2011.03-42) 4.5.2"
ARM GAS  C:\Users\DNIEL~1\AppData\Local\Temp\cc47TTCl.s 			page 81


DEFINED SYMBOLS
                            *ABS*:00000000 spi_lld.c
C:\Users\DNIEL~1\AppData\Local\Temp\cc47TTCl.s:24     .text.spi_lld_serve_tx_interrupt:00000000 $t
C:\Users\DNIEL~1\AppData\Local\Temp\cc47TTCl.s:29     .text.spi_lld_serve_tx_interrupt:00000000 spi_lld_serve_tx_interrupt
C:\Users\DNIEL~1\AppData\Local\Temp\cc47TTCl.s:50     .text.spi_lld_serve_rx_interrupt:00000000 $t
C:\Users\DNIEL~1\AppData\Local\Temp\cc47TTCl.s:55     .text.spi_lld_serve_rx_interrupt:00000000 spi_lld_serve_rx_interrupt
C:\Users\DNIEL~1\AppData\Local\Temp\cc47TTCl.s:179    .text.spi_lld_init:00000000 $t
C:\Users\DNIEL~1\AppData\Local\Temp\cc47TTCl.s:185    .text.spi_lld_init:00000000 spi_lld_init
C:\Users\DNIEL~1\AppData\Local\Temp\cc47TTCl.s:233    .text.spi_lld_init:0000002c $d
C:\Users\DNIEL~1\AppData\Local\Temp\cc47TTCl.s:242    .text.spi_lld_start:00000000 $t
C:\Users\DNIEL~1\AppData\Local\Temp\cc47TTCl.s:248    .text.spi_lld_start:00000000 spi_lld_start
C:\Users\DNIEL~1\AppData\Local\Temp\cc47TTCl.s:370    .text.spi_lld_start:0000009c $d
C:\Users\DNIEL~1\AppData\Local\Temp\cc47TTCl.s:379    .text.spi_lld_stop:00000000 $t
C:\Users\DNIEL~1\AppData\Local\Temp\cc47TTCl.s:385    .text.spi_lld_stop:00000000 spi_lld_stop
C:\Users\DNIEL~1\AppData\Local\Temp\cc47TTCl.s:434    .text.spi_lld_stop:00000030 $d
C:\Users\DNIEL~1\AppData\Local\Temp\cc47TTCl.s:440    .text.spi_lld_select:00000000 $t
C:\Users\DNIEL~1\AppData\Local\Temp\cc47TTCl.s:446    .text.spi_lld_select:00000000 spi_lld_select
C:\Users\DNIEL~1\AppData\Local\Temp\cc47TTCl.s:468    .text.spi_lld_unselect:00000000 $t
C:\Users\DNIEL~1\AppData\Local\Temp\cc47TTCl.s:474    .text.spi_lld_unselect:00000000 spi_lld_unselect
C:\Users\DNIEL~1\AppData\Local\Temp\cc47TTCl.s:496    .text.spi_lld_ignore:00000000 $t
C:\Users\DNIEL~1\AppData\Local\Temp\cc47TTCl.s:502    .text.spi_lld_ignore:00000000 spi_lld_ignore
C:\Users\DNIEL~1\AppData\Local\Temp\cc47TTCl.s:560    .text.spi_lld_ignore:00000034 $d
C:\Users\DNIEL~1\AppData\Local\Temp\cc47TTCl.s:566    .text.spi_lld_exchange:00000000 $t
C:\Users\DNIEL~1\AppData\Local\Temp\cc47TTCl.s:572    .text.spi_lld_exchange:00000000 spi_lld_exchange
C:\Users\DNIEL~1\AppData\Local\Temp\cc47TTCl.s:634    .text.spi_lld_send:00000000 $t
C:\Users\DNIEL~1\AppData\Local\Temp\cc47TTCl.s:640    .text.spi_lld_send:00000000 spi_lld_send
C:\Users\DNIEL~1\AppData\Local\Temp\cc47TTCl.s:699    .text.spi_lld_send:00000034 $d
C:\Users\DNIEL~1\AppData\Local\Temp\cc47TTCl.s:704    .text.spi_lld_receive:00000000 $t
C:\Users\DNIEL~1\AppData\Local\Temp\cc47TTCl.s:710    .text.spi_lld_receive:00000000 spi_lld_receive
C:\Users\DNIEL~1\AppData\Local\Temp\cc47TTCl.s:767    .text.spi_lld_receive:00000034 $d
C:\Users\DNIEL~1\AppData\Local\Temp\cc47TTCl.s:772    .text.spi_lld_polled_exchange:00000000 $t
C:\Users\DNIEL~1\AppData\Local\Temp\cc47TTCl.s:778    .text.spi_lld_polled_exchange:00000000 spi_lld_polled_exchange
C:\Users\DNIEL~1\AppData\Local\Temp\cc47TTCl.s:816    .bss.SPID2:00000000 SPID2
C:\Users\DNIEL~1\AppData\Local\Temp\cc47TTCl.s:805    .bss.dummytx:00000000 $d
C:\Users\DNIEL~1\AppData\Local\Temp\cc47TTCl.s:809    .bss.dummytx:00000000 dummytx
C:\Users\DNIEL~1\AppData\Local\Temp\cc47TTCl.s:812    .bss.SPID2:00000000 $d
C:\Users\DNIEL~1\AppData\Local\Temp\cc47TTCl.s:819    .bss.dummyrx:00000000 $d
C:\Users\DNIEL~1\AppData\Local\Temp\cc47TTCl.s:823    .bss.dummyrx:00000000 dummyrx
                     .debug_frame:00000010 $d
C:\Users\DNIEL~1\AppData\Local\Temp\cc47TTCl.s:378    .text.spi_lld_start:000000ac $t
C:\Users\DNIEL~1\AppData\Local\Temp\cc47TTCl.s:439    .text.spi_lld_stop:00000038 $t
C:\Users\DNIEL~1\AppData\Local\Temp\cc47TTCl.s:565    .text.spi_lld_ignore:0000003c $t
C:\Users\DNIEL~1\AppData\Local\Temp\cc47TTCl.s:703    .text.spi_lld_send:00000038 $t
C:\Users\DNIEL~1\AppData\Local\Temp\cc47TTCl.s:771    .text.spi_lld_receive:00000038 $t

UNDEFINED SYMBOLS
port_halt
chSchReadyI
spiObjectInit
_stm32_dma_streams
dmaStreamAllocate
dmaStreamRelease
