ARM GAS  C:\Users\DNIEL~1\AppData\Local\Temp\cclFHrQa.s 			page 1


   1              		.syntax unified
   2              		.cpu cortex-m4
   3              		.fpu softvfp
   4              		.eabi_attribute 20, 1
   5              		.eabi_attribute 21, 1
   6              		.eabi_attribute 23, 3
   7              		.eabi_attribute 24, 1
   8              		.eabi_attribute 25, 1
   9              		.eabi_attribute 26, 1
  10              		.eabi_attribute 30, 2
  11              		.eabi_attribute 18, 4
  12              		.thumb
  13              		.file	"stm32_dma.c"
  20 0000 B0030000 		.text
  20      02006901 
  20      00000201 
  20      FB0E0D00 
  20      01010101 
  21              	.Ltext0:
  22              		.cfi_sections	.debug_frame
  23              		.section	.text.Vector6C,"ax",%progbits
  24              		.align	2
  25              		.p2align 4,,15
  26              		.global	Vector6C
  27              		.thumb
  28              		.thumb_func
  29              		.type	Vector6C, %function
  30              	Vector6C:
  31              	.LFB118:
  32              		.file 1 "../../../ChibiOS/os/hal/platforms/STM32F4xx/stm32_dma.c"
  33              		.loc 1 132 0
  34              		.cfi_startproc
  35              		@ args = 0, pretend = 0, frame = 0
  36              		@ frame_needed = 0, uses_anonymous_args = 0
  37              		.loc 1 139 0
  38 0000 0748     		ldr	r0, .L4
  39              		.loc 1 137 0
  40 0002 084A     		ldr	r2, .L4+4
  41              		.loc 1 139 0
  42 0004 0368     		ldr	r3, [r0, #0]
  43              		.loc 1 137 0
  44 0006 1168     		ldr	r1, [r2, #0]
  45              	.LVL0:
  46              		.loc 1 132 0
  47 0008 10B5     		push	{r4, lr}
  48              	.LCFI0:
  49              		.cfi_def_cfa_offset 8
  50              		.loc 1 138 0
  51 000a 3D24     		movs	r4, #61
  52              		.cfi_offset 14, -4
  53              		.cfi_offset 4, -8
ARM GAS  C:\Users\DNIEL~1\AppData\Local\Temp\cclFHrQa.s 			page 2


  54 000c 9460     		str	r4, [r2, #8]
  55              		.loc 1 139 0
  56 000e 13B1     		cbz	r3, .L2
  57              		.loc 1 140 0
  58 0010 4068     		ldr	r0, [r0, #4]
  59 0012 2140     		ands	r1, r1, r4
  60              	.LVL1:
  61 0014 9847     		blx	r3
  62              	.LVL2:
  63              	.L2:
  64              		.loc 1 143 0
  65 0016 BDE81040 		pop	{r4, lr}
  66              		.loc 1 142 0
  67 001a FFF7FEBF 		b	_port_irq_epilogue
  68              	.L5:
  69 001e 00BF     		.align	2
  70              	.L4:
  71 0020 00000000 		.word	.LANCHOR0
  72 0024 00600240 		.word	1073897472
  73              		.cfi_endproc
  74              	.LFE118:
  75              		.size	Vector6C, .-Vector6C
  76 0028 AFF30080 		.section	.text.Vector70,"ax",%progbits
  76      AFF30080 
  77              		.align	2
  78              		.p2align 4,,15
  79              		.global	Vector70
  80              		.thumb
  81              		.thumb_func
  82              		.type	Vector70, %function
  83              	Vector70:
  84              	.LFB119:
  85              		.loc 1 150 0
  86              		.cfi_startproc
  87              		@ args = 0, pretend = 0, frame = 0
  88              		@ frame_needed = 0, uses_anonymous_args = 0
  89              		.loc 1 157 0
  90 0000 0848     		ldr	r0, .L8
  91              		.loc 1 155 0
  92 0002 094A     		ldr	r2, .L8+4
  93              		.loc 1 157 0
  94 0004 8368     		ldr	r3, [r0, #8]
  95              		.loc 1 155 0
  96 0006 1168     		ldr	r1, [r2, #0]
  97              	.LVL3:
  98              		.loc 1 150 0
  99 0008 10B5     		push	{r4, lr}
 100              	.LCFI1:
 101              		.cfi_def_cfa_offset 8
 102              		.loc 1 156 0
 103 000a 4FF47464 		mov	r4, #3904
 104              		.cfi_offset 14, -4
 105              		.cfi_offset 4, -8
 106 000e 9460     		str	r4, [r2, #8]
 107              		.loc 1 157 0
 108 0010 23B1     		cbz	r3, .L7
 109              		.loc 1 155 0
ARM GAS  C:\Users\DNIEL~1\AppData\Local\Temp\cclFHrQa.s 			page 3


 110 0012 8909     		lsrs	r1, r1, #6
 111              	.LVL4:
 112              		.loc 1 158 0
 113 0014 C068     		ldr	r0, [r0, #12]
 114 0016 01F03D01 		and	r1, r1, #61
 115              	.LVL5:
 116 001a 9847     		blx	r3
 117              	.L7:
 118              		.loc 1 161 0
 119 001c BDE81040 		pop	{r4, lr}
 120              		.loc 1 160 0
 121 0020 FFF7FEBF 		b	_port_irq_epilogue
 122              	.L9:
 123              		.align	2
 124              	.L8:
 125 0024 00000000 		.word	.LANCHOR0
 126 0028 00600240 		.word	1073897472
 127              		.cfi_endproc
 128              	.LFE119:
 129              		.size	Vector70, .-Vector70
 130 002c AFF30080 		.section	.text.Vector74,"ax",%progbits
 131              		.align	2
 132              		.p2align 4,,15
 133              		.global	Vector74
 134              		.thumb
 135              		.thumb_func
 136              		.type	Vector74, %function
 137              	Vector74:
 138              	.LFB120:
 139              		.loc 1 168 0
 140              		.cfi_startproc
 141              		@ args = 0, pretend = 0, frame = 0
 142              		@ frame_needed = 0, uses_anonymous_args = 0
 143              		.loc 1 175 0
 144 0000 0848     		ldr	r0, .L12
 145              		.loc 1 173 0
 146 0002 094A     		ldr	r2, .L12+4
 147              		.loc 1 175 0
 148 0004 0369     		ldr	r3, [r0, #16]
 149              		.loc 1 173 0
 150 0006 1168     		ldr	r1, [r2, #0]
 151              	.LVL6:
 152              		.loc 1 168 0
 153 0008 10B5     		push	{r4, lr}
 154              	.LCFI2:
 155              		.cfi_def_cfa_offset 8
 156              		.loc 1 174 0
 157 000a 4FF47414 		mov	r4, #3997696
 158              		.cfi_offset 14, -4
 159              		.cfi_offset 4, -8
 160 000e 9460     		str	r4, [r2, #8]
 161              		.loc 1 175 0
 162 0010 23B1     		cbz	r3, .L11
 163              		.loc 1 173 0
 164 0012 090C     		lsrs	r1, r1, #16
 165              	.LVL7:
 166              		.loc 1 176 0
ARM GAS  C:\Users\DNIEL~1\AppData\Local\Temp\cclFHrQa.s 			page 4


 167 0014 4069     		ldr	r0, [r0, #20]
 168 0016 01F03D01 		and	r1, r1, #61
 169              	.LVL8:
 170 001a 9847     		blx	r3
 171              	.L11:
 172              		.loc 1 179 0
 173 001c BDE81040 		pop	{r4, lr}
 174              		.loc 1 178 0
 175 0020 FFF7FEBF 		b	_port_irq_epilogue
 176              	.L13:
 177              		.align	2
 178              	.L12:
 179 0024 00000000 		.word	.LANCHOR0
 180 0028 00600240 		.word	1073897472
 181              		.cfi_endproc
 182              	.LFE120:
 183              		.size	Vector74, .-Vector74
 184 002c AFF30080 		.section	.text.Vector78,"ax",%progbits
 185              		.align	2
 186              		.p2align 4,,15
 187              		.global	Vector78
 188              		.thumb
 189              		.thumb_func
 190              		.type	Vector78, %function
 191              	Vector78:
 192              	.LFB121:
 193              		.loc 1 186 0
 194              		.cfi_startproc
 195              		@ args = 0, pretend = 0, frame = 0
 196              		@ frame_needed = 0, uses_anonymous_args = 0
 197              		.loc 1 193 0
 198 0000 0848     		ldr	r0, .L16
 199              		.loc 1 191 0
 200 0002 094A     		ldr	r2, .L16+4
 201              		.loc 1 193 0
 202 0004 8369     		ldr	r3, [r0, #24]
 203              		.loc 1 191 0
 204 0006 1168     		ldr	r1, [r2, #0]
 205              	.LVL9:
 206              		.loc 1 186 0
 207 0008 10B5     		push	{r4, lr}
 208              	.LCFI3:
 209              		.cfi_def_cfa_offset 8
 210              		.loc 1 192 0
 211 000a 4FF07464 		mov	r4, #255852544
 212              		.cfi_offset 14, -4
 213              		.cfi_offset 4, -8
 214 000e 9460     		str	r4, [r2, #8]
 215              		.loc 1 193 0
 216 0010 23B1     		cbz	r3, .L15
 217              		.loc 1 191 0
 218 0012 890D     		lsrs	r1, r1, #22
 219              	.LVL10:
 220              		.loc 1 194 0
 221 0014 C069     		ldr	r0, [r0, #28]
 222 0016 01F03D01 		and	r1, r1, #61
 223              	.LVL11:
ARM GAS  C:\Users\DNIEL~1\AppData\Local\Temp\cclFHrQa.s 			page 5


 224 001a 9847     		blx	r3
 225              	.L15:
 226              		.loc 1 197 0
 227 001c BDE81040 		pop	{r4, lr}
 228              		.loc 1 196 0
 229 0020 FFF7FEBF 		b	_port_irq_epilogue
 230              	.L17:
 231              		.align	2
 232              	.L16:
 233 0024 00000000 		.word	.LANCHOR0
 234 0028 00600240 		.word	1073897472
 235              		.cfi_endproc
 236              	.LFE121:
 237              		.size	Vector78, .-Vector78
 238 002c AFF30080 		.section	.text.Vector7C,"ax",%progbits
 239              		.align	2
 240              		.p2align 4,,15
 241              		.global	Vector7C
 242              		.thumb
 243              		.thumb_func
 244              		.type	Vector7C, %function
 245              	Vector7C:
 246              	.LFB122:
 247              		.loc 1 204 0
 248              		.cfi_startproc
 249              		@ args = 0, pretend = 0, frame = 0
 250              		@ frame_needed = 0, uses_anonymous_args = 0
 251              		.loc 1 211 0
 252 0000 0748     		ldr	r0, .L20
 253              		.loc 1 209 0
 254 0002 084A     		ldr	r2, .L20+4
 255              		.loc 1 211 0
 256 0004 036A     		ldr	r3, [r0, #32]
 257              		.loc 1 209 0
 258 0006 5168     		ldr	r1, [r2, #4]
 259              	.LVL12:
 260              		.loc 1 204 0
 261 0008 10B5     		push	{r4, lr}
 262              	.LCFI4:
 263              		.cfi_def_cfa_offset 8
 264              		.loc 1 210 0
 265 000a 3D24     		movs	r4, #61
 266              		.cfi_offset 14, -4
 267              		.cfi_offset 4, -8
 268 000c D460     		str	r4, [r2, #12]
 269              		.loc 1 211 0
 270 000e 13B1     		cbz	r3, .L19
 271              		.loc 1 212 0
 272 0010 406A     		ldr	r0, [r0, #36]
 273 0012 2140     		ands	r1, r1, r4
 274              	.LVL13:
 275 0014 9847     		blx	r3
 276              	.LVL14:
 277              	.L19:
 278              		.loc 1 215 0
 279 0016 BDE81040 		pop	{r4, lr}
 280              		.loc 1 214 0
ARM GAS  C:\Users\DNIEL~1\AppData\Local\Temp\cclFHrQa.s 			page 6


 281 001a FFF7FEBF 		b	_port_irq_epilogue
 282              	.L21:
 283 001e 00BF     		.align	2
 284              	.L20:
 285 0020 00000000 		.word	.LANCHOR0
 286 0024 00600240 		.word	1073897472
 287              		.cfi_endproc
 288              	.LFE122:
 289              		.size	Vector7C, .-Vector7C
 290 0028 AFF30080 		.section	.text.Vector80,"ax",%progbits
 290      AFF30080 
 291              		.align	2
 292              		.p2align 4,,15
 293              		.global	Vector80
 294              		.thumb
 295              		.thumb_func
 296              		.type	Vector80, %function
 297              	Vector80:
 298              	.LFB123:
 299              		.loc 1 222 0
 300              		.cfi_startproc
 301              		@ args = 0, pretend = 0, frame = 0
 302              		@ frame_needed = 0, uses_anonymous_args = 0
 303              		.loc 1 229 0
 304 0000 0848     		ldr	r0, .L24
 305              		.loc 1 227 0
 306 0002 094A     		ldr	r2, .L24+4
 307              		.loc 1 229 0
 308 0004 836A     		ldr	r3, [r0, #40]
 309              		.loc 1 227 0
 310 0006 5168     		ldr	r1, [r2, #4]
 311              	.LVL15:
 312              		.loc 1 222 0
 313 0008 10B5     		push	{r4, lr}
 314              	.LCFI5:
 315              		.cfi_def_cfa_offset 8
 316              		.loc 1 228 0
 317 000a 4FF47464 		mov	r4, #3904
 318              		.cfi_offset 14, -4
 319              		.cfi_offset 4, -8
 320 000e D460     		str	r4, [r2, #12]
 321              		.loc 1 229 0
 322 0010 23B1     		cbz	r3, .L23
 323              		.loc 1 227 0
 324 0012 8909     		lsrs	r1, r1, #6
 325              	.LVL16:
 326              		.loc 1 230 0
 327 0014 C06A     		ldr	r0, [r0, #44]
 328 0016 01F03D01 		and	r1, r1, #61
 329              	.LVL17:
 330 001a 9847     		blx	r3
 331              	.L23:
 332              		.loc 1 233 0
 333 001c BDE81040 		pop	{r4, lr}
 334              		.loc 1 232 0
 335 0020 FFF7FEBF 		b	_port_irq_epilogue
 336              	.L25:
ARM GAS  C:\Users\DNIEL~1\AppData\Local\Temp\cclFHrQa.s 			page 7


 337              		.align	2
 338              	.L24:
 339 0024 00000000 		.word	.LANCHOR0
 340 0028 00600240 		.word	1073897472
 341              		.cfi_endproc
 342              	.LFE123:
 343              		.size	Vector80, .-Vector80
 344 002c AFF30080 		.section	.text.Vector84,"ax",%progbits
 345              		.align	2
 346              		.p2align 4,,15
 347              		.global	Vector84
 348              		.thumb
 349              		.thumb_func
 350              		.type	Vector84, %function
 351              	Vector84:
 352              	.LFB124:
 353              		.loc 1 240 0
 354              		.cfi_startproc
 355              		@ args = 0, pretend = 0, frame = 0
 356              		@ frame_needed = 0, uses_anonymous_args = 0
 357              		.loc 1 247 0
 358 0000 0848     		ldr	r0, .L28
 359              		.loc 1 245 0
 360 0002 094A     		ldr	r2, .L28+4
 361              		.loc 1 247 0
 362 0004 036B     		ldr	r3, [r0, #48]
 363              		.loc 1 245 0
 364 0006 5168     		ldr	r1, [r2, #4]
 365              	.LVL18:
 366              		.loc 1 240 0
 367 0008 10B5     		push	{r4, lr}
 368              	.LCFI6:
 369              		.cfi_def_cfa_offset 8
 370              		.loc 1 246 0
 371 000a 4FF47414 		mov	r4, #3997696
 372              		.cfi_offset 14, -4
 373              		.cfi_offset 4, -8
 374 000e D460     		str	r4, [r2, #12]
 375              		.loc 1 247 0
 376 0010 23B1     		cbz	r3, .L27
 377              		.loc 1 245 0
 378 0012 090C     		lsrs	r1, r1, #16
 379              	.LVL19:
 380              		.loc 1 248 0
 381 0014 406B     		ldr	r0, [r0, #52]
 382 0016 01F03D01 		and	r1, r1, #61
 383              	.LVL20:
 384 001a 9847     		blx	r3
 385              	.L27:
 386              		.loc 1 251 0
 387 001c BDE81040 		pop	{r4, lr}
 388              		.loc 1 250 0
 389 0020 FFF7FEBF 		b	_port_irq_epilogue
 390              	.L29:
 391              		.align	2
 392              	.L28:
 393 0024 00000000 		.word	.LANCHOR0
ARM GAS  C:\Users\DNIEL~1\AppData\Local\Temp\cclFHrQa.s 			page 8


 394 0028 00600240 		.word	1073897472
 395              		.cfi_endproc
 396              	.LFE124:
 397              		.size	Vector84, .-Vector84
 398 002c AFF30080 		.section	.text.VectorFC,"ax",%progbits
 399              		.align	2
 400              		.p2align 4,,15
 401              		.global	VectorFC
 402              		.thumb
 403              		.thumb_func
 404              		.type	VectorFC, %function
 405              	VectorFC:
 406              	.LFB125:
 407              		.loc 1 258 0
 408              		.cfi_startproc
 409              		@ args = 0, pretend = 0, frame = 0
 410              		@ frame_needed = 0, uses_anonymous_args = 0
 411              		.loc 1 265 0
 412 0000 0848     		ldr	r0, .L32
 413              		.loc 1 263 0
 414 0002 094A     		ldr	r2, .L32+4
 415              		.loc 1 265 0
 416 0004 836B     		ldr	r3, [r0, #56]
 417              		.loc 1 263 0
 418 0006 5168     		ldr	r1, [r2, #4]
 419              	.LVL21:
 420              		.loc 1 258 0
 421 0008 10B5     		push	{r4, lr}
 422              	.LCFI7:
 423              		.cfi_def_cfa_offset 8
 424              		.loc 1 264 0
 425 000a 4FF07464 		mov	r4, #255852544
 426              		.cfi_offset 14, -4
 427              		.cfi_offset 4, -8
 428 000e D460     		str	r4, [r2, #12]
 429              		.loc 1 265 0
 430 0010 23B1     		cbz	r3, .L31
 431              		.loc 1 263 0
 432 0012 890D     		lsrs	r1, r1, #22
 433              	.LVL22:
 434              		.loc 1 266 0
 435 0014 C06B     		ldr	r0, [r0, #60]
 436 0016 01F03D01 		and	r1, r1, #61
 437              	.LVL23:
 438 001a 9847     		blx	r3
 439              	.L31:
 440              		.loc 1 269 0
 441 001c BDE81040 		pop	{r4, lr}
 442              		.loc 1 268 0
 443 0020 FFF7FEBF 		b	_port_irq_epilogue
 444              	.L33:
 445              		.align	2
 446              	.L32:
 447 0024 00000000 		.word	.LANCHOR0
 448 0028 00600240 		.word	1073897472
 449              		.cfi_endproc
 450              	.LFE125:
ARM GAS  C:\Users\DNIEL~1\AppData\Local\Temp\cclFHrQa.s 			page 9


 451              		.size	VectorFC, .-VectorFC
 452 002c AFF30080 		.section	.text.Vector120,"ax",%progbits
 453              		.align	2
 454              		.p2align 4,,15
 455              		.global	Vector120
 456              		.thumb
 457              		.thumb_func
 458              		.type	Vector120, %function
 459              	Vector120:
 460              	.LFB126:
 461              		.loc 1 276 0
 462              		.cfi_startproc
 463              		@ args = 0, pretend = 0, frame = 0
 464              		@ frame_needed = 0, uses_anonymous_args = 0
 465              		.loc 1 283 0
 466 0000 0748     		ldr	r0, .L36
 467              		.loc 1 281 0
 468 0002 084A     		ldr	r2, .L36+4
 469              		.loc 1 283 0
 470 0004 036C     		ldr	r3, [r0, #64]
 471              		.loc 1 281 0
 472 0006 1168     		ldr	r1, [r2, #0]
 473              	.LVL24:
 474              		.loc 1 276 0
 475 0008 10B5     		push	{r4, lr}
 476              	.LCFI8:
 477              		.cfi_def_cfa_offset 8
 478              		.loc 1 282 0
 479 000a 3D24     		movs	r4, #61
 480              		.cfi_offset 14, -4
 481              		.cfi_offset 4, -8
 482 000c 9460     		str	r4, [r2, #8]
 483              		.loc 1 283 0
 484 000e 13B1     		cbz	r3, .L35
 485              		.loc 1 284 0
 486 0010 406C     		ldr	r0, [r0, #68]
 487 0012 2140     		ands	r1, r1, r4
 488              	.LVL25:
 489 0014 9847     		blx	r3
 490              	.LVL26:
 491              	.L35:
 492              		.loc 1 287 0
 493 0016 BDE81040 		pop	{r4, lr}
 494              		.loc 1 286 0
 495 001a FFF7FEBF 		b	_port_irq_epilogue
 496              	.L37:
 497 001e 00BF     		.align	2
 498              	.L36:
 499 0020 00000000 		.word	.LANCHOR0
 500 0024 00640240 		.word	1073898496
 501              		.cfi_endproc
 502              	.LFE126:
 503              		.size	Vector120, .-Vector120
 504 0028 AFF30080 		.section	.text.Vector124,"ax",%progbits
 504      AFF30080 
 505              		.align	2
 506              		.p2align 4,,15
ARM GAS  C:\Users\DNIEL~1\AppData\Local\Temp\cclFHrQa.s 			page 10


 507              		.global	Vector124
 508              		.thumb
 509              		.thumb_func
 510              		.type	Vector124, %function
 511              	Vector124:
 512              	.LFB127:
 513              		.loc 1 294 0
 514              		.cfi_startproc
 515              		@ args = 0, pretend = 0, frame = 0
 516              		@ frame_needed = 0, uses_anonymous_args = 0
 517              		.loc 1 301 0
 518 0000 0848     		ldr	r0, .L40
 519              		.loc 1 299 0
 520 0002 094A     		ldr	r2, .L40+4
 521              		.loc 1 301 0
 522 0004 836C     		ldr	r3, [r0, #72]
 523              		.loc 1 299 0
 524 0006 1168     		ldr	r1, [r2, #0]
 525              	.LVL27:
 526              		.loc 1 294 0
 527 0008 10B5     		push	{r4, lr}
 528              	.LCFI9:
 529              		.cfi_def_cfa_offset 8
 530              		.loc 1 300 0
 531 000a 4FF47464 		mov	r4, #3904
 532              		.cfi_offset 14, -4
 533              		.cfi_offset 4, -8
 534 000e 9460     		str	r4, [r2, #8]
 535              		.loc 1 301 0
 536 0010 23B1     		cbz	r3, .L39
 537              		.loc 1 299 0
 538 0012 8909     		lsrs	r1, r1, #6
 539              	.LVL28:
 540              		.loc 1 302 0
 541 0014 C06C     		ldr	r0, [r0, #76]
 542 0016 01F03D01 		and	r1, r1, #61
 543              	.LVL29:
 544 001a 9847     		blx	r3
 545              	.L39:
 546              		.loc 1 305 0
 547 001c BDE81040 		pop	{r4, lr}
 548              		.loc 1 304 0
 549 0020 FFF7FEBF 		b	_port_irq_epilogue
 550              	.L41:
 551              		.align	2
 552              	.L40:
 553 0024 00000000 		.word	.LANCHOR0
 554 0028 00640240 		.word	1073898496
 555              		.cfi_endproc
 556              	.LFE127:
 557              		.size	Vector124, .-Vector124
 558 002c AFF30080 		.section	.text.Vector128,"ax",%progbits
 559              		.align	2
 560              		.p2align 4,,15
 561              		.global	Vector128
 562              		.thumb
 563              		.thumb_func
ARM GAS  C:\Users\DNIEL~1\AppData\Local\Temp\cclFHrQa.s 			page 11


 564              		.type	Vector128, %function
 565              	Vector128:
 566              	.LFB128:
 567              		.loc 1 312 0
 568              		.cfi_startproc
 569              		@ args = 0, pretend = 0, frame = 0
 570              		@ frame_needed = 0, uses_anonymous_args = 0
 571              		.loc 1 319 0
 572 0000 0848     		ldr	r0, .L44
 573              		.loc 1 317 0
 574 0002 094A     		ldr	r2, .L44+4
 575              		.loc 1 319 0
 576 0004 036D     		ldr	r3, [r0, #80]
 577              		.loc 1 317 0
 578 0006 1168     		ldr	r1, [r2, #0]
 579              	.LVL30:
 580              		.loc 1 312 0
 581 0008 10B5     		push	{r4, lr}
 582              	.LCFI10:
 583              		.cfi_def_cfa_offset 8
 584              		.loc 1 318 0
 585 000a 4FF47414 		mov	r4, #3997696
 586              		.cfi_offset 14, -4
 587              		.cfi_offset 4, -8
 588 000e 9460     		str	r4, [r2, #8]
 589              		.loc 1 319 0
 590 0010 23B1     		cbz	r3, .L43
 591              		.loc 1 317 0
 592 0012 090C     		lsrs	r1, r1, #16
 593              	.LVL31:
 594              		.loc 1 320 0
 595 0014 406D     		ldr	r0, [r0, #84]
 596 0016 01F03D01 		and	r1, r1, #61
 597              	.LVL32:
 598 001a 9847     		blx	r3
 599              	.L43:
 600              		.loc 1 323 0
 601 001c BDE81040 		pop	{r4, lr}
 602              		.loc 1 322 0
 603 0020 FFF7FEBF 		b	_port_irq_epilogue
 604              	.L45:
 605              		.align	2
 606              	.L44:
 607 0024 00000000 		.word	.LANCHOR0
 608 0028 00640240 		.word	1073898496
 609              		.cfi_endproc
 610              	.LFE128:
 611              		.size	Vector128, .-Vector128
 612 002c AFF30080 		.section	.text.Vector12C,"ax",%progbits
 613              		.align	2
 614              		.p2align 4,,15
 615              		.global	Vector12C
 616              		.thumb
 617              		.thumb_func
 618              		.type	Vector12C, %function
 619              	Vector12C:
 620              	.LFB129:
ARM GAS  C:\Users\DNIEL~1\AppData\Local\Temp\cclFHrQa.s 			page 12


 621              		.loc 1 330 0
 622              		.cfi_startproc
 623              		@ args = 0, pretend = 0, frame = 0
 624              		@ frame_needed = 0, uses_anonymous_args = 0
 625              		.loc 1 337 0
 626 0000 0848     		ldr	r0, .L48
 627              		.loc 1 335 0
 628 0002 094A     		ldr	r2, .L48+4
 629              		.loc 1 337 0
 630 0004 836D     		ldr	r3, [r0, #88]
 631              		.loc 1 335 0
 632 0006 1168     		ldr	r1, [r2, #0]
 633              	.LVL33:
 634              		.loc 1 330 0
 635 0008 10B5     		push	{r4, lr}
 636              	.LCFI11:
 637              		.cfi_def_cfa_offset 8
 638              		.loc 1 336 0
 639 000a 4FF07464 		mov	r4, #255852544
 640              		.cfi_offset 14, -4
 641              		.cfi_offset 4, -8
 642 000e 9460     		str	r4, [r2, #8]
 643              		.loc 1 337 0
 644 0010 23B1     		cbz	r3, .L47
 645              		.loc 1 335 0
 646 0012 890D     		lsrs	r1, r1, #22
 647              	.LVL34:
 648              		.loc 1 338 0
 649 0014 C06D     		ldr	r0, [r0, #92]
 650 0016 01F03D01 		and	r1, r1, #61
 651              	.LVL35:
 652 001a 9847     		blx	r3
 653              	.L47:
 654              		.loc 1 341 0
 655 001c BDE81040 		pop	{r4, lr}
 656              		.loc 1 340 0
 657 0020 FFF7FEBF 		b	_port_irq_epilogue
 658              	.L49:
 659              		.align	2
 660              	.L48:
 661 0024 00000000 		.word	.LANCHOR0
 662 0028 00640240 		.word	1073898496
 663              		.cfi_endproc
 664              	.LFE129:
 665              		.size	Vector12C, .-Vector12C
 666 002c AFF30080 		.section	.text.Vector130,"ax",%progbits
 667              		.align	2
 668              		.p2align 4,,15
 669              		.global	Vector130
 670              		.thumb
 671              		.thumb_func
 672              		.type	Vector130, %function
 673              	Vector130:
 674              	.LFB130:
 675              		.loc 1 348 0
 676              		.cfi_startproc
 677              		@ args = 0, pretend = 0, frame = 0
ARM GAS  C:\Users\DNIEL~1\AppData\Local\Temp\cclFHrQa.s 			page 13


 678              		@ frame_needed = 0, uses_anonymous_args = 0
 679              		.loc 1 355 0
 680 0000 0748     		ldr	r0, .L52
 681              		.loc 1 353 0
 682 0002 084A     		ldr	r2, .L52+4
 683              		.loc 1 355 0
 684 0004 036E     		ldr	r3, [r0, #96]
 685              		.loc 1 353 0
 686 0006 5168     		ldr	r1, [r2, #4]
 687              	.LVL36:
 688              		.loc 1 348 0
 689 0008 10B5     		push	{r4, lr}
 690              	.LCFI12:
 691              		.cfi_def_cfa_offset 8
 692              		.loc 1 354 0
 693 000a 3D24     		movs	r4, #61
 694              		.cfi_offset 14, -4
 695              		.cfi_offset 4, -8
 696 000c D460     		str	r4, [r2, #12]
 697              		.loc 1 355 0
 698 000e 13B1     		cbz	r3, .L51
 699              		.loc 1 356 0
 700 0010 406E     		ldr	r0, [r0, #100]
 701 0012 2140     		ands	r1, r1, r4
 702              	.LVL37:
 703 0014 9847     		blx	r3
 704              	.LVL38:
 705              	.L51:
 706              		.loc 1 359 0
 707 0016 BDE81040 		pop	{r4, lr}
 708              		.loc 1 358 0
 709 001a FFF7FEBF 		b	_port_irq_epilogue
 710              	.L53:
 711 001e 00BF     		.align	2
 712              	.L52:
 713 0020 00000000 		.word	.LANCHOR0
 714 0024 00640240 		.word	1073898496
 715              		.cfi_endproc
 716              	.LFE130:
 717              		.size	Vector130, .-Vector130
 718 0028 AFF30080 		.section	.text.Vector150,"ax",%progbits
 718      AFF30080 
 719              		.align	2
 720              		.p2align 4,,15
 721              		.global	Vector150
 722              		.thumb
 723              		.thumb_func
 724              		.type	Vector150, %function
 725              	Vector150:
 726              	.LFB131:
 727              		.loc 1 366 0
 728              		.cfi_startproc
 729              		@ args = 0, pretend = 0, frame = 0
 730              		@ frame_needed = 0, uses_anonymous_args = 0
 731              		.loc 1 373 0
 732 0000 0848     		ldr	r0, .L56
 733              		.loc 1 371 0
ARM GAS  C:\Users\DNIEL~1\AppData\Local\Temp\cclFHrQa.s 			page 14


 734 0002 094A     		ldr	r2, .L56+4
 735              		.loc 1 373 0
 736 0004 836E     		ldr	r3, [r0, #104]
 737              		.loc 1 371 0
 738 0006 5168     		ldr	r1, [r2, #4]
 739              	.LVL39:
 740              		.loc 1 366 0
 741 0008 10B5     		push	{r4, lr}
 742              	.LCFI13:
 743              		.cfi_def_cfa_offset 8
 744              		.loc 1 372 0
 745 000a 4FF47464 		mov	r4, #3904
 746              		.cfi_offset 14, -4
 747              		.cfi_offset 4, -8
 748 000e D460     		str	r4, [r2, #12]
 749              		.loc 1 373 0
 750 0010 23B1     		cbz	r3, .L55
 751              		.loc 1 371 0
 752 0012 8909     		lsrs	r1, r1, #6
 753              	.LVL40:
 754              		.loc 1 374 0
 755 0014 C06E     		ldr	r0, [r0, #108]
 756 0016 01F03D01 		and	r1, r1, #61
 757              	.LVL41:
 758 001a 9847     		blx	r3
 759              	.L55:
 760              		.loc 1 377 0
 761 001c BDE81040 		pop	{r4, lr}
 762              		.loc 1 376 0
 763 0020 FFF7FEBF 		b	_port_irq_epilogue
 764              	.L57:
 765              		.align	2
 766              	.L56:
 767 0024 00000000 		.word	.LANCHOR0
 768 0028 00640240 		.word	1073898496
 769              		.cfi_endproc
 770              	.LFE131:
 771              		.size	Vector150, .-Vector150
 772 002c AFF30080 		.section	.text.Vector154,"ax",%progbits
 773              		.align	2
 774              		.p2align 4,,15
 775              		.global	Vector154
 776              		.thumb
 777              		.thumb_func
 778              		.type	Vector154, %function
 779              	Vector154:
 780              	.LFB132:
 781              		.loc 1 384 0
 782              		.cfi_startproc
 783              		@ args = 0, pretend = 0, frame = 0
 784              		@ frame_needed = 0, uses_anonymous_args = 0
 785              		.loc 1 391 0
 786 0000 0848     		ldr	r0, .L60
 787              		.loc 1 389 0
 788 0002 094A     		ldr	r2, .L60+4
 789              		.loc 1 391 0
 790 0004 036F     		ldr	r3, [r0, #112]
ARM GAS  C:\Users\DNIEL~1\AppData\Local\Temp\cclFHrQa.s 			page 15


 791              		.loc 1 389 0
 792 0006 5168     		ldr	r1, [r2, #4]
 793              	.LVL42:
 794              		.loc 1 384 0
 795 0008 10B5     		push	{r4, lr}
 796              	.LCFI14:
 797              		.cfi_def_cfa_offset 8
 798              		.loc 1 390 0
 799 000a 4FF47414 		mov	r4, #3997696
 800              		.cfi_offset 14, -4
 801              		.cfi_offset 4, -8
 802 000e D460     		str	r4, [r2, #12]
 803              		.loc 1 391 0
 804 0010 23B1     		cbz	r3, .L59
 805              		.loc 1 389 0
 806 0012 090C     		lsrs	r1, r1, #16
 807              	.LVL43:
 808              		.loc 1 392 0
 809 0014 406F     		ldr	r0, [r0, #116]
 810 0016 01F03D01 		and	r1, r1, #61
 811              	.LVL44:
 812 001a 9847     		blx	r3
 813              	.L59:
 814              		.loc 1 395 0
 815 001c BDE81040 		pop	{r4, lr}
 816              		.loc 1 394 0
 817 0020 FFF7FEBF 		b	_port_irq_epilogue
 818              	.L61:
 819              		.align	2
 820              	.L60:
 821 0024 00000000 		.word	.LANCHOR0
 822 0028 00640240 		.word	1073898496
 823              		.cfi_endproc
 824              	.LFE132:
 825              		.size	Vector154, .-Vector154
 826 002c AFF30080 		.section	.text.Vector158,"ax",%progbits
 827              		.align	2
 828              		.p2align 4,,15
 829              		.global	Vector158
 830              		.thumb
 831              		.thumb_func
 832              		.type	Vector158, %function
 833              	Vector158:
 834              	.LFB133:
 835              		.loc 1 402 0
 836              		.cfi_startproc
 837              		@ args = 0, pretend = 0, frame = 0
 838              		@ frame_needed = 0, uses_anonymous_args = 0
 839              		.loc 1 409 0
 840 0000 0848     		ldr	r0, .L64
 841              		.loc 1 407 0
 842 0002 094A     		ldr	r2, .L64+4
 843              		.loc 1 409 0
 844 0004 836F     		ldr	r3, [r0, #120]
 845              		.loc 1 407 0
 846 0006 5168     		ldr	r1, [r2, #4]
 847              	.LVL45:
ARM GAS  C:\Users\DNIEL~1\AppData\Local\Temp\cclFHrQa.s 			page 16


 848              		.loc 1 402 0
 849 0008 10B5     		push	{r4, lr}
 850              	.LCFI15:
 851              		.cfi_def_cfa_offset 8
 852              		.loc 1 408 0
 853 000a 4FF07464 		mov	r4, #255852544
 854              		.cfi_offset 14, -4
 855              		.cfi_offset 4, -8
 856 000e D460     		str	r4, [r2, #12]
 857              		.loc 1 409 0
 858 0010 23B1     		cbz	r3, .L63
 859              		.loc 1 407 0
 860 0012 890D     		lsrs	r1, r1, #22
 861              	.LVL46:
 862              		.loc 1 410 0
 863 0014 C06F     		ldr	r0, [r0, #124]
 864 0016 01F03D01 		and	r1, r1, #61
 865              	.LVL47:
 866 001a 9847     		blx	r3
 867              	.L63:
 868              		.loc 1 413 0
 869 001c BDE81040 		pop	{r4, lr}
 870              		.loc 1 412 0
 871 0020 FFF7FEBF 		b	_port_irq_epilogue
 872              	.L65:
 873              		.align	2
 874              	.L64:
 875 0024 00000000 		.word	.LANCHOR0
 876 0028 00640240 		.word	1073898496
 877              		.cfi_endproc
 878              	.LFE133:
 879              		.size	Vector158, .-Vector158
 880 002c AFF30080 		.section	.text.dmaInit,"ax",%progbits
 881              		.align	2
 882              		.p2align 4,,15
 883              		.global	dmaInit
 884              		.thumb
 885              		.thumb_func
 886              		.type	dmaInit, %function
 887              	dmaInit:
 888              	.LFB134:
 889              		.loc 1 424 0
 890              		.cfi_startproc
 891              		@ args = 0, pretend = 0, frame = 0
 892              		@ frame_needed = 0, uses_anonymous_args = 0
 893              		@ link register save eliminated.
 894              		.loc 1 429 0
 895 0000 2A49     		ldr	r1, .L67
 896              		.loc 1 430 0
 897 0002 2B4A     		ldr	r2, .L67+4
 898              		.loc 1 429 0
 899 0004 D1F824C0 		ldr	ip, [r1, #36]
 900              		.loc 1 434 0
 901 0008 2A48     		ldr	r0, .L67+8
 902              		.loc 1 424 0
 903 000a 2DE9F00F 		push	{r4, r5, r6, r7, r8, r9, sl, fp}
 904              	.LCFI16:
ARM GAS  C:\Users\DNIEL~1\AppData\Local\Temp\cclFHrQa.s 			page 17


 905              		.cfi_def_cfa_offset 32
 906              		.loc 1 429 0
 907 000e D1F800A0 		ldr	sl, [r1, #0]
 908              		.cfi_offset 11, -4
 909              		.cfi_offset 10, -8
 910              		.cfi_offset 9, -12
 911              		.cfi_offset 8, -16
 912              		.cfi_offset 7, -20
 913              		.cfi_offset 6, -24
 914              		.cfi_offset 5, -28
 915              		.cfi_offset 4, -32
 916 0012 D1F81880 		ldr	r8, [r1, #24]
 917 0016 0F6B     		ldr	r7, [r1, #48]
 918 0018 CE6B     		ldr	r6, [r1, #60]
 919 001a 8D6C     		ldr	r5, [r1, #72]
 920 001c D1F80C90 		ldr	r9, [r1, #12]
 921 0020 D1F854B0 		ldr	fp, [r1, #84]
 922              		.loc 1 432 0
 923 0024 244C     		ldr	r4, .L67+12
 924              		.loc 1 427 0
 925 0026 0023     		movs	r3, #0
 926              		.loc 1 429 0
 927 0028 CAF80030 		str	r3, [sl, #0]
 928 002c C9F80030 		str	r3, [r9, #0]
 929              		.loc 1 427 0
 930 0030 DFF888A0 		ldr	sl, .L67+16
 931              		.loc 1 429 0
 932 0034 C8F80030 		str	r3, [r8, #0]
 933 0038 CCF80030 		str	r3, [ip, #0]
 934 003c 3B60     		str	r3, [r7, #0]
 935 003e 3360     		str	r3, [r6, #0]
 936 0040 0F6E     		ldr	r7, [r1, #96]
 937 0042 2B60     		str	r3, [r5, #0]
 938 0044 CE6E     		ldr	r6, [r1, #108]
 939 0046 8D6F     		ldr	r5, [r1, #120]
 940 0048 CBF80030 		str	r3, [fp, #0]
 941              		.loc 1 427 0
 942 004c CAF80030 		str	r3, [sl, #0]
 943              	.LVL48:
 944              		.loc 1 429 0
 945 0050 3B60     		str	r3, [r7, #0]
 946              		.loc 1 430 0
 947 0052 1360     		str	r3, [r2, #0]
 948              	.LVL49:
 949              		.loc 1 429 0
 950 0054 3360     		str	r3, [r6, #0]
 951              		.loc 1 430 0
 952 0056 9360     		str	r3, [r2, #8]
 953              	.LVL50:
 954 0058 1361     		str	r3, [r2, #16]
 955              	.LVL51:
 956 005a 9361     		str	r3, [r2, #24]
 957              	.LVL52:
 958 005c 1362     		str	r3, [r2, #32]
 959              	.LVL53:
 960 005e 9362     		str	r3, [r2, #40]
 961              	.LVL54:
ARM GAS  C:\Users\DNIEL~1\AppData\Local\Temp\cclFHrQa.s 			page 18


 962 0060 1363     		str	r3, [r2, #48]
 963              	.LVL55:
 964 0062 9363     		str	r3, [r2, #56]
 965              	.LVL56:
 966 0064 1364     		str	r3, [r2, #64]
 967              	.LVL57:
 968 0066 9364     		str	r3, [r2, #72]
 969              	.LVL58:
 970              		.loc 1 429 0
 971 0068 2B60     		str	r3, [r5, #0]
 972 006a D1F88480 		ldr	r8, [r1, #132]
 973 006e D1F890C0 		ldr	ip, [r1, #144]
 974 0072 D1F89C70 		ldr	r7, [r1, #156]
 975 0076 D1F8A860 		ldr	r6, [r1, #168]
 976 007a D1F8B450 		ldr	r5, [r1, #180]
 977 007e C8F80030 		str	r3, [r8, #0]
 978              		.loc 1 432 0
 979 0082 4FF0FF31 		mov	r1, #-1
 980              		.loc 1 429 0
 981 0086 CCF80030 		str	r3, [ip, #0]
 982              		.loc 1 430 0
 983 008a 1365     		str	r3, [r2, #80]
 984              	.LVL59:
 985              		.loc 1 429 0
 986 008c 3B60     		str	r3, [r7, #0]
 987              		.loc 1 430 0
 988 008e 9365     		str	r3, [r2, #88]
 989              	.LVL60:
 990              		.loc 1 429 0
 991 0090 3360     		str	r3, [r6, #0]
 992              		.loc 1 430 0
 993 0092 1366     		str	r3, [r2, #96]
 994              	.LVL61:
 995 0094 9366     		str	r3, [r2, #104]
 996              	.LVL62:
 997              		.loc 1 429 0
 998 0096 2B60     		str	r3, [r5, #0]
 999              		.loc 1 430 0
 1000 0098 1367     		str	r3, [r2, #112]
 1001              	.LVL63:
 1002              		.loc 1 432 0
 1003 009a A160     		str	r1, [r4, #8]
 1004              		.loc 1 430 0
 1005 009c 9367     		str	r3, [r2, #120]
 1006              	.LVL64:
 1007              		.loc 1 433 0
 1008 009e E160     		str	r1, [r4, #12]
 1009              		.loc 1 434 0
 1010 00a0 8160     		str	r1, [r0, #8]
 1011              		.loc 1 435 0
 1012 00a2 C160     		str	r1, [r0, #12]
 1013              		.loc 1 436 0
 1014 00a4 BDE8F00F 		pop	{r4, r5, r6, r7, r8, r9, sl, fp}
 1015 00a8 7047     		bx	lr
 1016              	.L68:
 1017 00aa 00BF     		.align	2
 1018              	.L67:
ARM GAS  C:\Users\DNIEL~1\AppData\Local\Temp\cclFHrQa.s 			page 19


 1019 00ac 00000000 		.word	.LANCHOR2
 1020 00b0 00000000 		.word	.LANCHOR0
 1021 00b4 00640240 		.word	1073898496
 1022 00b8 00600240 		.word	1073897472
 1023 00bc 00000000 		.word	.LANCHOR1
 1024              		.cfi_endproc
 1025              	.LFE134:
 1026              		.size	dmaInit, .-dmaInit
 1027              		.section	.text.dmaStreamAllocate,"ax",%progbits
 1028              		.align	2
 1029              		.p2align 4,,15
 1030              		.global	dmaStreamAllocate
 1031              		.thumb
 1032              		.thumb_func
 1033              		.type	dmaStreamAllocate, %function
 1034              	dmaStreamAllocate:
 1035              	.LFB135:
 1036              		.loc 1 465 0
 1037              		.cfi_startproc
 1038              		@ args = 0, pretend = 0, frame = 0
 1039              		@ frame_needed = 0, uses_anonymous_args = 0
 1040              	.LVL65:
 1041 0000 2DE9F041 		push	{r4, r5, r6, r7, r8, lr}
 1042              	.LCFI17:
 1043              		.cfi_def_cfa_offset 24
 1044              		.loc 1 470 0
 1045 0004 224D     		ldr	r5, .L78
 1046              		.cfi_offset 14, -4
 1047              		.cfi_offset 8, -8
 1048              		.cfi_offset 7, -12
 1049              		.cfi_offset 6, -16
 1050              		.cfi_offset 5, -20
 1051              		.cfi_offset 4, -24
 1052 0006 447A     		ldrb	r4, [r0, #9]	@ zero_extendqisi2
 1053 0008 2E68     		ldr	r6, [r5, #0]
 1054 000a 4FF0010C 		mov	ip, #1
 1055 000e 0CFA04F7 		lsl	r7, ip, r4
 1056 0012 3742     		tst	r7, r6
 1057 0014 35D1     		bne	.L74
 1058              		.loc 1 474 0
 1059 0016 DFF880C0 		ldr	ip, .L78+8
 1060              		.loc 1 476 0
 1061 001a 47EA0606 		orr	r6, r7, r6
 1062              		.loc 1 475 0
 1063 001e 0CEBC408 		add	r8, ip, r4, lsl #3
 1064              		.loc 1 479 0
 1065 0022 16F0FF0F 		tst	r6, #255
 1066              		.loc 1 474 0
 1067 0026 4CF83420 		str	r2, [ip, r4, lsl #3]
 1068              		.loc 1 475 0
 1069 002a C8F80430 		str	r3, [r8, #4]
 1070              		.loc 1 476 0
 1071 002e 2E60     		str	r6, [r5, #0]
 1072              		.loc 1 479 0
 1073 0030 04D0     		beq	.L71
 1074              		.loc 1 480 0
 1075 0032 184B     		ldr	r3, .L78+4
ARM GAS  C:\Users\DNIEL~1\AppData\Local\Temp\cclFHrQa.s 			page 20


 1076              	.LVL66:
 1077 0034 1D6B     		ldr	r5, [r3, #48]
 1078 0036 45F40014 		orr	r4, r5, #2097152
 1079 003a 1C63     		str	r4, [r3, #48]
 1080              	.L71:
 1081              		.loc 1 481 0
 1082 003c 16F47F4F 		tst	r6, #65280
 1083 0040 19D1     		bne	.L77
 1084              	.L72:
 1085              		.loc 1 485 0
 1086 0042 0368     		ldr	r3, [r0, #0]
 1087 0044 1D68     		ldr	r5, [r3, #0]
 1088 0046 25F00104 		bic	r4, r5, #1
 1089 004a 1C60     		str	r4, [r3, #0]
 1090              	.L73:
 1091              		.loc 1 485 0 is_stmt 0 discriminator 1
 1092 004c 1E68     		ldr	r6, [r3, #0]
 1093 004e 16F00104 		ands	r4, r6, #1
 1094 0052 FBD1     		bne	.L73
 1095              		.loc 1 485 0 discriminator 2
 1096 0054 067A     		ldrb	r6, [r0, #8]	@ zero_extendqisi2
 1097 0056 4568     		ldr	r5, [r0, #4]
 1098 0058 3D27     		movs	r7, #61
 1099 005a 17FA06F6 		lsls	r6, r7, r6
 1100 005e 2E60     		str	r6, [r5, #0]
 1101              		.loc 1 487 0 is_stmt 1 discriminator 2
 1102 0060 2125     		movs	r5, #33
 1103              		.loc 1 486 0 discriminator 2
 1104 0062 1C60     		str	r4, [r3, #0]
 1105              		.loc 1 487 0 discriminator 2
 1106 0064 5D61     		str	r5, [r3, #20]
 1107              		.loc 1 490 0 discriminator 2
 1108 0066 7AB1     		cbz	r2, .L75
 1109              		.loc 1 491 0
 1110 0068 807A     		ldrb	r0, [r0, #10]	@ zero_extendqisi2
 1111              	.LVL67:
 1112 006a 0901     		lsls	r1, r1, #4
 1113              	.LVL68:
 1114 006c FFF7FEFF 		bl	nvicEnableVector
 1115              	.LVL69:
 1116              		.loc 1 493 0
 1117 0070 2046     		mov	r0, r4
 1118 0072 BDE8F081 		pop	{r4, r5, r6, r7, r8, pc}
 1119              	.LVL70:
 1120              	.L77:
 1121              		.loc 1 482 0
 1122 0076 074E     		ldr	r6, .L78+4
 1123 0078 336B     		ldr	r3, [r6, #48]
 1124 007a 43F48007 		orr	r7, r3, #4194304
 1125 007e 3763     		str	r7, [r6, #48]
 1126 0080 DFE7     		b	.L72
 1127              	.LVL71:
 1128              	.L74:
 1129              		.loc 1 471 0
 1130 0082 6046     		mov	r0, ip
 1131              	.LVL72:
 1132 0084 BDE8F081 		pop	{r4, r5, r6, r7, r8, pc}
ARM GAS  C:\Users\DNIEL~1\AppData\Local\Temp\cclFHrQa.s 			page 21


 1133              	.LVL73:
 1134              	.L75:
 1135              		.loc 1 493 0
 1136 0088 1046     		mov	r0, r2
 1137              	.LVL74:
 1138              		.loc 1 494 0
 1139 008a BDE8F081 		pop	{r4, r5, r6, r7, r8, pc}
 1140              	.L79:
 1141 008e 00BF     		.align	2
 1142              	.L78:
 1143 0090 00000000 		.word	.LANCHOR1
 1144 0094 00380240 		.word	1073887232
 1145 0098 00000000 		.word	.LANCHOR0
 1146              		.cfi_endproc
 1147              	.LFE135:
 1148              		.size	dmaStreamAllocate, .-dmaStreamAllocate
 1149 009c AFF30080 		.section	.text.dmaStreamRelease,"ax",%progbits
 1150              		.align	2
 1151              		.p2align 4,,15
 1152              		.global	dmaStreamRelease
 1153              		.thumb
 1154              		.thumb_func
 1155              		.type	dmaStreamRelease, %function
 1156              	dmaStreamRelease:
 1157              	.LFB136:
 1158              		.loc 1 509 0
 1159              		.cfi_startproc
 1160              		@ args = 0, pretend = 0, frame = 0
 1161              		@ frame_needed = 0, uses_anonymous_args = 0
 1162              	.LVL75:
 1163 0000 10B5     		push	{r4, lr}
 1164              	.LCFI18:
 1165              		.cfi_def_cfa_offset 8
 1166              		.loc 1 509 0
 1167 0002 0446     		mov	r4, r0
 1168              		.cfi_offset 14, -4
 1169              		.cfi_offset 4, -8
 1170              		.loc 1 518 0
 1171 0004 807A     		ldrb	r0, [r0, #10]	@ zero_extendqisi2
 1172              	.LVL76:
 1173 0006 FFF7FEFF 		bl	nvicDisableVector
 1174              		.loc 1 521 0
 1175 000a 0D4A     		ldr	r2, .L83
 1176 000c 637A     		ldrb	r3, [r4, #9]	@ zero_extendqisi2
 1177 000e 1168     		ldr	r1, [r2, #0]
 1178 0010 0120     		movs	r0, #1
 1179 0012 10FA03F3 		lsls	r3, r0, r3
 1180 0016 21EA0303 		bic	r3, r1, r3
 1181              		.loc 1 524 0
 1182 001a 13F0FF0F 		tst	r3, #255
 1183              		.loc 1 521 0
 1184 001e 1360     		str	r3, [r2, #0]
 1185              		.loc 1 524 0
 1186 0020 04D1     		bne	.L81
 1187              		.loc 1 525 0
 1188 0022 084A     		ldr	r2, .L83+4
 1189 0024 106B     		ldr	r0, [r2, #48]
ARM GAS  C:\Users\DNIEL~1\AppData\Local\Temp\cclFHrQa.s 			page 22


 1190 0026 20F40011 		bic	r1, r0, #2097152
 1191 002a 1163     		str	r1, [r2, #48]
 1192              	.L81:
 1193              		.loc 1 526 0
 1194 002c 13F47F4F 		tst	r3, #65280
 1195 0030 04D1     		bne	.L80
 1196              		.loc 1 527 0
 1197 0032 044B     		ldr	r3, .L83+4
 1198 0034 1A6B     		ldr	r2, [r3, #48]
 1199 0036 22F48001 		bic	r1, r2, #4194304
 1200 003a 1963     		str	r1, [r3, #48]
 1201              	.L80:
 1202 003c 10BD     		pop	{r4, pc}
 1203              	.L84:
 1204 003e 00BF     		.align	2
 1205              	.L83:
 1206 0040 00000000 		.word	.LANCHOR1
 1207 0044 00380240 		.word	1073887232
 1208              		.cfi_endproc
 1209              	.LFE136:
 1210              		.size	dmaStreamRelease, .-dmaStreamRelease
 1211              		.global	_stm32_dma_streams
 1212 0048 AFF30080 		.section	.bss.dma_isr_redir,"aw",%nobits
 1212      AFF30080 
 1213              		.align	2
 1214              		.set	.LANCHOR0,. + 0
 1215              		.type	dma_isr_redir, %object
 1216              		.size	dma_isr_redir, 128
 1217              	dma_isr_redir:
 1218 0000 00000000 		.space	128
 1218      00000000 
 1218      00000000 
 1218      00000000 
 1218      00000000 
 1219              		.section	.rodata._stm32_dma_streams,"a",%progbits
 1220              		.align	2
 1221              		.set	.LANCHOR2,. + 0
 1222              		.type	_stm32_dma_streams, %object
 1223              		.size	_stm32_dma_streams, 192
 1224              	_stm32_dma_streams:
 1225 0000 10600240 		.word	1073897488
 1226 0004 08600240 		.word	1073897480
 1227 0008 00       		.byte	0
 1228 0009 00       		.byte	0
 1229 000a 0B       		.byte	11
 1230 000b 00       		.space	1
 1231 000c 28600240 		.word	1073897512
 1232 0010 08600240 		.word	1073897480
 1233 0014 06       		.byte	6
 1234 0015 01       		.byte	1
 1235 0016 0C       		.byte	12
 1236 0017 00       		.space	1
 1237 0018 40600240 		.word	1073897536
 1238 001c 08600240 		.word	1073897480
 1239 0020 10       		.byte	16
 1240 0021 02       		.byte	2
 1241 0022 0D       		.byte	13
ARM GAS  C:\Users\DNIEL~1\AppData\Local\Temp\cclFHrQa.s 			page 23


 1242 0023 00       		.space	1
 1243 0024 58600240 		.word	1073897560
 1244 0028 08600240 		.word	1073897480
 1245 002c 16       		.byte	22
 1246 002d 03       		.byte	3
 1247 002e 0E       		.byte	14
 1248 002f 00       		.space	1
 1249 0030 70600240 		.word	1073897584
 1250 0034 0C600240 		.word	1073897484
 1251 0038 00       		.byte	0
 1252 0039 04       		.byte	4
 1253 003a 0F       		.byte	15
 1254 003b 00       		.space	1
 1255 003c 88600240 		.word	1073897608
 1256 0040 0C600240 		.word	1073897484
 1257 0044 06       		.byte	6
 1258 0045 05       		.byte	5
 1259 0046 10       		.byte	16
 1260 0047 00       		.space	1
 1261 0048 A0600240 		.word	1073897632
 1262 004c 0C600240 		.word	1073897484
 1263 0050 10       		.byte	16
 1264 0051 06       		.byte	6
 1265 0052 11       		.byte	17
 1266 0053 00       		.space	1
 1267 0054 B8600240 		.word	1073897656
 1268 0058 0C600240 		.word	1073897484
 1269 005c 16       		.byte	22
 1270 005d 07       		.byte	7
 1271 005e 2F       		.byte	47
 1272 005f 00       		.space	1
 1273 0060 10640240 		.word	1073898512
 1274 0064 08640240 		.word	1073898504
 1275 0068 00       		.byte	0
 1276 0069 08       		.byte	8
 1277 006a 38       		.byte	56
 1278 006b 00       		.space	1
 1279 006c 28640240 		.word	1073898536
 1280 0070 08640240 		.word	1073898504
 1281 0074 06       		.byte	6
 1282 0075 09       		.byte	9
 1283 0076 39       		.byte	57
 1284 0077 00       		.space	1
 1285 0078 40640240 		.word	1073898560
 1286 007c 08640240 		.word	1073898504
 1287 0080 10       		.byte	16
 1288 0081 0A       		.byte	10
 1289 0082 3A       		.byte	58
 1290 0083 00       		.space	1
 1291 0084 58640240 		.word	1073898584
 1292 0088 08640240 		.word	1073898504
 1293 008c 16       		.byte	22
 1294 008d 0B       		.byte	11
 1295 008e 3B       		.byte	59
 1296 008f 00       		.space	1
 1297 0090 70640240 		.word	1073898608
 1298 0094 0C640240 		.word	1073898508
ARM GAS  C:\Users\DNIEL~1\AppData\Local\Temp\cclFHrQa.s 			page 24


 1299 0098 00       		.byte	0
 1300 0099 0C       		.byte	12
 1301 009a 3C       		.byte	60
 1302 009b 00       		.space	1
 1303 009c 88640240 		.word	1073898632
 1304 00a0 0C640240 		.word	1073898508
 1305 00a4 06       		.byte	6
 1306 00a5 0D       		.byte	13
 1307 00a6 44       		.byte	68
 1308 00a7 00       		.space	1
 1309 00a8 A0640240 		.word	1073898656
 1310 00ac 0C640240 		.word	1073898508
 1311 00b0 10       		.byte	16
 1312 00b1 0E       		.byte	14
 1313 00b2 45       		.byte	69
 1314 00b3 00       		.space	1
 1315 00b4 B8640240 		.word	1073898680
 1316 00b8 0C640240 		.word	1073898508
 1317 00bc 16       		.byte	22
 1318 00bd 0F       		.byte	15
 1319 00be 46       		.byte	70
 1320 00bf 00       		.space	1
 1321              		.section	.bss.dma_streams_mask,"aw",%nobits
 1322              		.align	2
 1323              		.set	.LANCHOR1,. + 0
 1324              		.type	dma_streams_mask, %object
 1325              		.size	dma_streams_mask, 4
 1326              	dma_streams_mask:
 1327 0000 00000000 		.space	4
 1328              		.text
 1329              	.Letext0: