ARM GAS  C:\Users\DNIEL~1\AppData\Local\Temp\ccvbkWFd.s 			page 1


   1              		.syntax unified
   2              		.cpu cortex-m4
   3              		.fpu softvfp
   4              		.eabi_attribute 20, 1
   5              		.eabi_attribute 21, 1
   6              		.eabi_attribute 23, 3
   7              		.eabi_attribute 24, 1
   8              		.eabi_attribute 25, 1
   9              		.eabi_attribute 26, 1
  10              		.eabi_attribute 30, 2
  11              		.eabi_attribute 34, 1
  12              		.eabi_attribute 18, 4
  13              		.thumb
  14              		.file	"syscalls.c"
  15              		.text
  16              	.Ltext0:
  17              		.cfi_sections	.debug_frame
  18              		.section	.text._read_r,"ax",%progbits
  19              		.align	2
  20              		.p2align 4,,15
  21              		.global	_read_r
  22              		.thumb
  23              		.thumb_func
  24              		.type	_read_r, %function
  25              	_read_r:
  26              	.LFB118:
  27              		.file 1 "../../../ChibiOS/os/various/syscalls.c"
  28              		.loc 1 76 0
  29              		.cfi_startproc
  30              		@ args = 0, pretend = 0, frame = 0
  31              		@ frame_needed = 0, uses_anonymous_args = 0
  32              		@ link register save eliminated.
  33              	.LVL0:
  34              		.loc 1 79 0
  35 0000 3BB1     		cbz	r3, .L2
  36              		.loc 1 79 0 is_stmt 0 discriminator 1
  37 0002 31B9     		cbnz	r1, .L2
  38              		.loc 1 83 0 is_stmt 1
  39 0004 0548     		ldr	r0, .L10
  40              	.LVL1:
  41 0006 1146     		mov	r1, r2
  42              	.LVL2:
  43 0008 1A46     		mov	r2, r3
  44              	.LVL3:
  45 000a 4FF0FF33 		mov	r3, #-1
  46              	.LVL4:
  47              		.loc 1 92 0
  48              		.loc 1 83 0
  49 000e FFF7FEBF 		b	chIQReadTimeout
  50              	.LVL5:
  51              	.L2:
  52              		.loc 1 80 0
  53 0012 1623     		movs	r3, #22
  54              	.LVL6:
  55 0014 0360     		str	r3, [r0, #0]
  56              		.loc 1 92 0
  57 0016 4FF0FF30 		mov	r0, #-1
ARM GAS  C:\Users\DNIEL~1\AppData\Local\Temp\ccvbkWFd.s 			page 2


  58              	.LVL7:
  59 001a 7047     		bx	lr
  60              	.L11:
  61              		.align	2
  62              	.L10:
  63 001c 0C000000 		.word	SD1+12
  64              		.cfi_endproc
  65              	.LFE118:
  66              		.size	_read_r, .-_read_r
  67              		.section	.text._lseek_r,"ax",%progbits
  68              		.align	2
  69              		.p2align 4,,15
  70              		.global	_lseek_r
  71              		.thumb
  72              		.thumb_func
  73              		.type	_lseek_r, %function
  74              	_lseek_r:
  75              	.LFB119:
  76              		.loc 1 97 0
  77              		.cfi_startproc
  78              		@ args = 0, pretend = 0, frame = 0
  79              		@ frame_needed = 0, uses_anonymous_args = 0
  80              		@ link register save eliminated.
  81              	.LVL8:
  82              		.loc 1 104 0
  83 0000 0020     		movs	r0, #0
  84              	.LVL9:
  85 0002 7047     		bx	lr
  86              		.cfi_endproc
  87              	.LFE119:
  88              		.size	_lseek_r, .-_lseek_r
  89 0004 AFF30080 		.section	.text._write_r,"ax",%progbits
  89      AFF30080 
  89      AFF30080 
  90              		.align	2
  91              		.p2align 4,,15
  92              		.global	_write_r
  93              		.thumb
  94              		.thumb_func
  95              		.type	_write_r, %function
  96              	_write_r:
  97              	.LFB120:
  98              		.loc 1 109 0
  99              		.cfi_startproc
 100              		@ args = 0, pretend = 0, frame = 0
 101              		@ frame_needed = 0, uses_anonymous_args = 0
 102              	.LVL10:
 103              		.loc 1 114 0
 104 0000 0129     		cmp	r1, #1
 105              		.loc 1 109 0
 106 0002 10B5     		push	{r4, lr}
 107              	.LCFI0:
 108              		.cfi_def_cfa_offset 8
 109              		.cfi_offset 4, -8
 110              		.cfi_offset 14, -4
 111              		.loc 1 109 0
 112 0004 1C46     		mov	r4, r3
ARM GAS  C:\Users\DNIEL~1\AppData\Local\Temp\ccvbkWFd.s 			page 3


 113              		.loc 1 114 0
 114 0006 08D1     		bne	.L16
 115              		.loc 1 118 0
 116 0008 1146     		mov	r1, r2
 117              	.LVL11:
 118 000a 0748     		ldr	r0, .L17
 119              	.LVL12:
 120 000c 1A46     		mov	r2, r3
 121              	.LVL13:
 122 000e 4FF0FF33 		mov	r3, #-1
 123              	.LVL14:
 124 0012 FFF7FEFF 		bl	chOQWriteTimeout
 125              	.LVL15:
 126              		.loc 1 121 0
 127 0016 2046     		mov	r0, r4
 128 0018 10BD     		pop	{r4, pc}
 129              	.LVL16:
 130              	.L16:
 131              		.loc 1 115 0
 132 001a 1623     		movs	r3, #22
 133              	.LVL17:
 134              		.loc 1 116 0
 135 001c 4FF0FF34 		mov	r4, #-1
 136              	.LVL18:
 137              		.loc 1 115 0
 138 0020 0360     		str	r3, [r0, #0]
 139              		.loc 1 121 0
 140 0022 2046     		mov	r0, r4
 141              	.LVL19:
 142 0024 10BD     		pop	{r4, pc}
 143              	.L18:
 144 0026 00BF     		.align	2
 145              	.L17:
 146 0028 30000000 		.word	SD1+48
 147              		.cfi_endproc
 148              	.LFE120:
 149              		.size	_write_r, .-_write_r
 150 002c AFF30080 		.section	.text._close_r,"ax",%progbits
 151              		.align	2
 152              		.p2align 4,,15
 153              		.global	_close_r
 154              		.thumb
 155              		.thumb_func
 156              		.type	_close_r, %function
 157              	_close_r:
 158              	.LFB121:
 159              		.loc 1 126 0
 160              		.cfi_startproc
 161              		@ args = 0, pretend = 0, frame = 0
 162              		@ frame_needed = 0, uses_anonymous_args = 0
 163              		@ link register save eliminated.
 164              	.LVL20:
 165              		.loc 1 131 0
 166 0000 0020     		movs	r0, #0
 167              	.LVL21:
 168 0002 7047     		bx	lr
 169              		.cfi_endproc
ARM GAS  C:\Users\DNIEL~1\AppData\Local\Temp\ccvbkWFd.s 			page 4


 170              	.LFE121:
 171              		.size	_close_r, .-_close_r
 172 0004 AFF30080 		.section	.text._sbrk_r,"ax",%progbits
 172      AFF30080 
 172      AFF30080 
 173              		.align	2
 174              		.p2align 4,,15
 175              		.global	_sbrk_r
 176              		.thumb
 177              		.thumb_func
 178              		.type	_sbrk_r, %function
 179              	_sbrk_r:
 180              	.LFB122:
 181              		.loc 1 136 0
 182              		.cfi_startproc
 183              		@ args = 0, pretend = 0, frame = 0
 184              		@ frame_needed = 0, uses_anonymous_args = 0
 185              	.LVL22:
 186 0000 10B5     		push	{r4, lr}
 187              	.LCFI1:
 188              		.cfi_def_cfa_offset 8
 189              		.cfi_offset 4, -8
 190              		.cfi_offset 14, -4
 191              		.loc 1 136 0
 192 0002 0446     		mov	r4, r0
 193              		.loc 1 142 0
 194 0004 0846     		mov	r0, r1
 195              	.LVL23:
 196 0006 FFF7FEFF 		bl	chCoreAlloc
 197              	.LVL24:
 198              		.loc 1 143 0
 199 000a 00B1     		cbz	r0, .L22
 200              		.loc 1 153 0
 201 000c 10BD     		pop	{r4, pc}
 202              	.L22:
 203              		.loc 1 144 0
 204 000e 0C23     		movs	r3, #12
 205 0010 2360     		str	r3, [r4, #0]
 206              		.loc 1 145 0
 207 0012 4FF0FF30 		mov	r0, #-1
 208              	.LVL25:
 209              		.loc 1 153 0
 210 0016 10BD     		pop	{r4, pc}
 211              		.cfi_endproc
 212              	.LFE122:
 213              		.size	_sbrk_r, .-_sbrk_r
 214 0018 AFF30080 		.section	.text._fstat_r,"ax",%progbits
 214      AFF30080 
 215              		.align	2
 216              		.p2align 4,,15
 217              		.global	_fstat_r
 218              		.thumb
 219              		.thumb_func
 220              		.type	_fstat_r, %function
 221              	_fstat_r:
 222              	.LFB123:
 223              		.loc 1 158 0
ARM GAS  C:\Users\DNIEL~1\AppData\Local\Temp\ccvbkWFd.s 			page 5


 224              		.cfi_startproc
 225              		@ args = 0, pretend = 0, frame = 0
 226              		@ frame_needed = 0, uses_anonymous_args = 0
 227              	.LVL26:
 228 0000 10B5     		push	{r4, lr}
 229              	.LCFI2:
 230              		.cfi_def_cfa_offset 8
 231              		.cfi_offset 4, -8
 232              		.cfi_offset 14, -4
 233              		.loc 1 162 0
 234 0002 1046     		mov	r0, r2
 235              	.LVL27:
 236              		.loc 1 158 0
 237 0004 1446     		mov	r4, r2
 238              		.loc 1 162 0
 239 0006 0021     		movs	r1, #0
 240              	.LVL28:
 241 0008 3C22     		movs	r2, #60
 242              	.LVL29:
 243 000a FFF7FEFF 		bl	memset
 244              	.LVL30:
 245              		.loc 1 163 0
 246 000e 4FF40053 		mov	r3, #8192
 247 0012 6360     		str	r3, [r4, #4]
 248              		.loc 1 165 0
 249 0014 0020     		movs	r0, #0
 250 0016 10BD     		pop	{r4, pc}
 251              		.cfi_endproc
 252              	.LFE123:
 253              		.size	_fstat_r, .-_fstat_r
 254 0018 AFF30080 		.section	.text._isatty_r,"ax",%progbits
 254      AFF30080 
 255              		.align	2
 256              		.p2align 4,,15
 257              		.global	_isatty_r
 258              		.thumb
 259              		.thumb_func
 260              		.type	_isatty_r, %function
 261              	_isatty_r:
 262              	.LFB124:
 263              		.loc 1 170 0
 264              		.cfi_startproc
 265              		@ args = 0, pretend = 0, frame = 0
 266              		@ frame_needed = 0, uses_anonymous_args = 0
 267              		@ link register save eliminated.
 268              	.LVL31:
 269              		.loc 1 175 0
 270 0000 0120     		movs	r0, #1
 271              	.LVL32:
 272 0002 7047     		bx	lr
 273              		.cfi_endproc
 274              	.LFE124:
 275              		.size	_isatty_r, .-_isatty_r
 276 0004 AFF30080 		.text
 276      AFF30080 
 276      AFF30080 
 277              	.Letext0:
ARM GAS  C:\Users\DNIEL~1\AppData\Local\Temp\ccvbkWFd.s 			page 6


 278              		.file 2 "c:\\chibistudio\\tools\\gnu tools arm embedded\\4.7 2014q2\\bin\\../lib/gcc/arm-none-eabi
 279              		.file 3 "c:\\chibistudio\\tools\\gnu tools arm embedded\\4.7 2014q2\\bin\\../lib/gcc/arm-none-eabi
 280              		.file 4 "c:\\chibistudio\\tools\\gnu tools arm embedded\\4.7 2014q2\\bin\\../lib/gcc/arm-none-eabi
 281              		.file 5 "c:\\chibistudio\\tools\\gnu tools arm embedded\\4.7 2014q2\\bin\\../lib/gcc/arm-none-eabi
 282              		.file 6 "c:\\chibistudio\\tools\\gnu tools arm embedded\\4.7 2014q2\\bin\\../lib/gcc/arm-none-eabi
 283              		.file 7 "c:\\chibistudio\\tools\\gnu tools arm embedded\\4.7 2014q2\\bin\\../lib/gcc/arm-none-eabi
 284              		.file 8 "c:\\chibistudio\\tools\\gnu tools arm embedded\\4.7 2014q2\\bin\\../lib/gcc/arm-none-eabi
 285              		.file 9 "../../../ChibiOS/os/ports/GCC/ARMCMx/chtypes.h"
 286              		.file 10 "../../../ChibiOS/os/kernel/include/chlists.h"
 287              		.file 11 "../../../ChibiOS/os/kernel/include/chthreads.h"
 288              		.file 12 "../../../ChibiOS/os/ports/GCC/ARMCMx/chcore_v7m.h"
 289              		.file 13 "../../../ChibiOS/os/kernel/include/chmtx.h"
 290              		.file 14 "../../../ChibiOS/os/kernel/include/chevents.h"
 291              		.file 15 "../../../ChibiOS/os/kernel/include/chqueues.h"
 292              		.file 16 "../../../ChibiOS/os/hal/platforms/STM32F4xx/stm32f4xx.h"
 293              		.file 17 "../../../ChibiOS/os/hal/include/serial.h"
 294              		.file 18 "../../../ChibiOS/os/kernel/include/chmemcore.h"
 295              		.file 19 "../../../ChibiOS/os/ports/common/ARMCMx/CMSIS/include/core_cm4.h"
 296              		.file 20 "../../../ChibiOS/os/hal/platforms/STM32/USARTv1/serial_lld.h"