ARM GAS  C:\Users\DNIEL~1\AppData\Local\Temp\ccbaJvI2.s 			page 1


   1              		.syntax unified
   2              		.cpu cortex-m4
   3              		.fpu softvfp
   4              		.eabi_attribute 20, 1
   5              		.eabi_attribute 21, 1
   6              		.eabi_attribute 23, 3
   7              		.eabi_attribute 24, 1
   8              		.eabi_attribute 25, 1
   9              		.eabi_attribute 26, 1
  10              		.eabi_attribute 30, 2
  11              		.eabi_attribute 34, 1
  12              		.eabi_attribute 18, 4
  13              		.thumb
  14              		.file	"testmbox.c"
  15              		.text
  16              	.Ltext0:
  17              		.cfi_sections	.debug_frame
  18              		.section	.text.mbox1_execute,"ax",%progbits
  19              		.align	2
  20              		.p2align 4,,15
  21              		.thumb
  22              		.thumb_func
  23              		.type	mbox1_execute, %function
  24              	mbox1_execute:
  25              	.LFB8:
  26              		.file 1 "../../../ChibiOS/test/testmbox.c"
  27              		.loc 1 80 0
  28              		.cfi_startproc
  29              		@ args = 0, pretend = 0, frame = 8
  30              		@ frame_needed = 0, uses_anonymous_args = 0
  31 0000 F0B5     		push	{r4, r5, r6, r7, lr}
  32              	.LCFI0:
  33              		.cfi_def_cfa_offset 20
  34              		.cfi_offset 4, -20
  35              		.cfi_offset 5, -16
  36              		.cfi_offset 6, -12
  37              		.cfi_offset 7, -8
  38              		.cfi_offset 14, -4
  39              		.loc 1 87 0
  40 0002 7D4C     		ldr	r4, .L32
  41 0004 616A     		ldr	r1, [r4, #36]
  42 0006 0120     		movs	r0, #1
  43 0008 4B1F     		subs	r3, r1, #5
  44 000a 5A42     		rsbs	r2, r3, #0
  45              		.loc 1 80 0
  46 000c 83B0     		sub	sp, sp, #12
  47              	.LCFI1:
  48              		.cfi_def_cfa_offset 32
  49              		.loc 1 87 0
  50 000e 52EB0301 		adcs	r1, r2, r3
  51 0012 FFF7FEFF 		bl	_test_assert
  52              	.LVL0:
  53 0016 0028     		cmp	r0, #0
  54 0018 45D1     		bne	.L1
  55              		.loc 1 93 0
  56 001a 4221     		movs	r1, #66
  57 001c 2046     		mov	r0, r4
ARM GAS  C:\Users\DNIEL~1\AppData\Local\Temp\ccbaJvI2.s 			page 2


  58 001e 4FF0FF32 		mov	r2, #-1
  59 0022 FFF7FEFF 		bl	chMBPost
  60              	.LVL1:
  61              		.loc 1 94 0
  62 0026 D0F10101 		rsbs	r1, r0, #1
  63 002a 38BF     		it	cc
  64 002c 0021     		movcc	r1, #0
  65 002e 0220     		movs	r0, #2
  66              	.LVL2:
  67 0030 FFF7FEFF 		bl	_test_assert
  68              	.LVL3:
  69 0034 B8BB     		cbnz	r0, .L1
  70              	.LVL4:
  71              		.loc 1 93 0
  72 0036 4321     		movs	r1, #67
  73 0038 2046     		mov	r0, r4
  74 003a 4FF0FF32 		mov	r2, #-1
  75 003e FFF7FEFF 		bl	chMBPost
  76              	.LVL5:
  77              		.loc 1 94 0
  78 0042 D0F10101 		rsbs	r1, r0, #1
  79 0046 38BF     		it	cc
  80 0048 0021     		movcc	r1, #0
  81 004a 0220     		movs	r0, #2
  82              	.LVL6:
  83 004c FFF7FEFF 		bl	_test_assert
  84              	.LVL7:
  85 0050 48BB     		cbnz	r0, .L1
  86              	.LVL8:
  87              		.loc 1 93 0
  88 0052 4421     		movs	r1, #68
  89 0054 2046     		mov	r0, r4
  90 0056 4FF0FF32 		mov	r2, #-1
  91 005a FFF7FEFF 		bl	chMBPost
  92              	.LVL9:
  93              		.loc 1 94 0
  94 005e D0F10101 		rsbs	r1, r0, #1
  95 0062 38BF     		it	cc
  96 0064 0021     		movcc	r1, #0
  97 0066 0220     		movs	r0, #2
  98              	.LVL10:
  99 0068 FFF7FEFF 		bl	_test_assert
 100              	.LVL11:
 101 006c D8B9     		cbnz	r0, .L1
 102              	.LVL12:
 103              		.loc 1 93 0
 104 006e 4521     		movs	r1, #69
 105 0070 2046     		mov	r0, r4
 106 0072 4FF0FF32 		mov	r2, #-1
 107 0076 FFF7FEFF 		bl	chMBPost
 108              	.LVL13:
 109              		.loc 1 94 0
 110 007a D0F10101 		rsbs	r1, r0, #1
 111 007e 38BF     		it	cc
 112 0080 0021     		movcc	r1, #0
 113 0082 0220     		movs	r0, #2
 114              	.LVL14:
ARM GAS  C:\Users\DNIEL~1\AppData\Local\Temp\ccbaJvI2.s 			page 3


 115 0084 FFF7FEFF 		bl	_test_assert
 116              	.LVL15:
 117 0088 68B9     		cbnz	r0, .L1
 118              	.LVL16:
 119              		.loc 1 96 0
 120 008a 4121     		movs	r1, #65
 121 008c 2046     		mov	r0, r4
 122 008e 4FF0FF32 		mov	r2, #-1
 123 0092 FFF7FEFF 		bl	chMBPostAhead
 124              	.LVL17:
 125              		.loc 1 97 0
 126 0096 D0F10101 		rsbs	r1, r0, #1
 127 009a 38BF     		it	cc
 128 009c 0021     		movcc	r1, #0
 129 009e 0320     		movs	r0, #3
 130              	.LVL18:
 131 00a0 FFF7FEFF 		bl	_test_assert
 132              	.LVL19:
 133 00a4 08B1     		cbz	r0, .L29
 134              	.LVL20:
 135              	.L1:
 136              		.loc 1 224 0
 137 00a6 03B0     		add	sp, sp, #12
 138 00a8 F0BD     		pop	{r4, r5, r6, r7, pc}
 139              	.LVL21:
 140              	.L29:
 141              		.loc 1 102 0
 142 00aa 5821     		movs	r1, #88
 143 00ac 0122     		movs	r2, #1
 144 00ae 2046     		mov	r0, r4
 145 00b0 FFF7FEFF 		bl	chMBPost
 146              	.LVL22:
 147              		.loc 1 103 0
 148 00b4 B0F1FF3C 		subs	ip, r0, #-1
 149 00b8 DCF10000 		rsbs	r0, ip, #0
 150              	.LVL23:
 151 00bc 50EB0C01 		adcs	r1, r0, ip
 152 00c0 0420     		movs	r0, #4
 153 00c2 FFF7FEFF 		bl	_test_assert
 154              	.LVL24:
 155 00c6 0546     		mov	r5, r0
 156 00c8 0028     		cmp	r0, #0
 157 00ca ECD1     		bne	.L1
 158              	.LBB2:
 159              		.loc 1 104 0
 160 00cc 2023     		movs	r3, #32
 161              	.LVL25:
 162              	@ 104 "../../../ChibiOS/test/testmbox.c" 1
 163 00ce 83F31188 		msr     BASEPRI, r3
 164              	@ 0 "" 2
 165              	.LVL26:
 166              		.thumb
 167              	.LBE2:
 168              		.loc 1 105 0
 169 00d2 5821     		movs	r1, #88
 170 00d4 2046     		mov	r0, r4
 171 00d6 FFF7FEFF 		bl	chMBPostI
ARM GAS  C:\Users\DNIEL~1\AppData\Local\Temp\ccbaJvI2.s 			page 4


 172              	.LVL27:
 173              	.LBB3:
 174              		.loc 1 106 0
 175 00da 2B46     		mov	r3, r5
 176              	.LVL28:
 177              	.LBE3:
 178              		.loc 1 105 0
 179 00dc 0146     		mov	r1, r0
 180              	.LVL29:
 181              	.LBB4:
 182              		.loc 1 106 0
 183              	@ 106 "../../../ChibiOS/test/testmbox.c" 1
 184 00de 83F31188 		msr     BASEPRI, r3
 185              	@ 0 "" 2
 186              	.LVL30:
 187              		.thumb
 188              	.LBE4:
 189              		.loc 1 107 0
 190 00e2 0520     		movs	r0, #5
 191              	.LVL31:
 192 00e4 B1F1FF3E 		subs	lr, r1, #-1
 193 00e8 DEF10003 		rsbs	r3, lr, #0
 194              	.LVL32:
 195 00ec 53EB0E01 		adcs	r1, r3, lr
 196              	.LVL33:
 197 00f0 FFF7FEFF 		bl	_test_assert
 198              	.LVL34:
 199 00f4 0028     		cmp	r0, #0
 200 00f6 D6D1     		bne	.L1
 201              		.loc 1 108 0
 202 00f8 5821     		movs	r1, #88
 203 00fa 0122     		movs	r2, #1
 204 00fc 2046     		mov	r0, r4
 205 00fe FFF7FEFF 		bl	chMBPostAhead
 206              	.LVL35:
 207              		.loc 1 109 0
 208 0102 B0F1FF35 		subs	r5, r0, #-1
 209 0106 6A42     		rsbs	r2, r5, #0
 210 0108 52EB0501 		adcs	r1, r2, r5
 211 010c 0620     		movs	r0, #6
 212              	.LVL36:
 213 010e FFF7FEFF 		bl	_test_assert
 214              	.LVL37:
 215 0112 0546     		mov	r5, r0
 216              	.LVL38:
 217 0114 0028     		cmp	r0, #0
 218 0116 C6D1     		bne	.L1
 219              	.LBB5:
 220              		.loc 1 110 0
 221 0118 2023     		movs	r3, #32
 222              	.LVL39:
 223              	@ 110 "../../../ChibiOS/test/testmbox.c" 1
 224 011a 83F31188 		msr     BASEPRI, r3
 225              	@ 0 "" 2
 226              	.LVL40:
 227              		.thumb
 228              	.LBE5:
ARM GAS  C:\Users\DNIEL~1\AppData\Local\Temp\ccbaJvI2.s 			page 5


 229              		.loc 1 111 0
 230 011e 5821     		movs	r1, #88
 231 0120 2046     		mov	r0, r4
 232 0122 FFF7FEFF 		bl	chMBPostAheadI
 233              	.LVL41:
 234              	.LBB6:
 235              		.loc 1 112 0
 236 0126 2B46     		mov	r3, r5
 237              	.LVL42:
 238              	.LBE6:
 239              		.loc 1 111 0
 240 0128 0146     		mov	r1, r0
 241              	.LVL43:
 242              	.LBB7:
 243              		.loc 1 112 0
 244              	@ 112 "../../../ChibiOS/test/testmbox.c" 1
 245 012a 83F31188 		msr     BASEPRI, r3
 246              	@ 0 "" 2
 247              	.LVL44:
 248              		.thumb
 249              	.LBE7:
 250              		.loc 1 113 0
 251 012e 0720     		movs	r0, #7
 252              	.LVL45:
 253 0130 B1F1FF33 		subs	r3, r1, #-1
 254              	.LVL46:
 255 0134 5A42     		rsbs	r2, r3, #0
 256 0136 52EB0301 		adcs	r1, r2, r3
 257              	.LVL47:
 258 013a FFF7FEFF 		bl	_test_assert
 259              	.LVL48:
 260 013e 0028     		cmp	r0, #0
 261 0140 B1D1     		bne	.L1
 262              	.LBB8:
 263              		.loc 1 118 0
 264 0142 2023     		movs	r3, #32
 265              	.LVL49:
 266              	@ 118 "../../../ChibiOS/test/testmbox.c" 1
 267 0144 83F31188 		msr     BASEPRI, r3
 268              	@ 0 "" 2
 269              	.LVL50:
 270              		.thumb
 271              	.LBE8:
 272 0148 676A     		ldr	r7, [r4, #36]
 273 014a 0820     		movs	r0, #8
 274 014c D7F10101 		rsbs	r1, r7, #1
 275 0150 38BF     		it	cc
 276 0152 0021     		movcc	r1, #0
 277 0154 FFF7FEFF 		bl	_test_assert
 278              	.LVL51:
 279 0158 2646     		mov	r6, r4
 280 015a 0746     		mov	r7, r0
 281 015c 18B1     		cbz	r0, .L3
 282              	.LVL52:
 283              	.L27:
 284              	.LBB9:
 285              		.loc 1 223 0 discriminator 2
ARM GAS  C:\Users\DNIEL~1\AppData\Local\Temp\ccbaJvI2.s 			page 6


 286 015e 0023     		movs	r3, #0
 287              	@ 223 "../../../ChibiOS/test/testmbox.c" 1
 288 0160 83F31188 		msr     BASEPRI, r3
 289              	@ 0 "" 2
 290              	.LVL53:
 291              		.thumb
 292 0164 9FE7     		b	.L1
 293              	.LVL54:
 294              	.L3:
 295              	.LBE9:
 296              	.LBB10:
 297              		.loc 1 118 0 discriminator 2
 298 0166 0346     		mov	r3, r0
 299              	.LVL55:
 300              	@ 118 "../../../ChibiOS/test/testmbox.c" 1
 301 0168 83F31188 		msr     BASEPRI, r3
 302              	@ 0 "" 2
 303              	.LVL56:
 304              		.thumb
 305              	.LBE10:
 306              	.LBB11:
 307              		.loc 1 119 0 discriminator 2
 308 016c 2023     		movs	r3, #32
 309              	.LVL57:
 310              	@ 119 "../../../ChibiOS/test/testmbox.c" 1
 311 016e 83F31188 		msr     BASEPRI, r3
 312              	@ 0 "" 2
 313              	.LVL58:
 314              		.thumb
 315              	.LBE11:
 316 0172 A569     		ldr	r5, [r4, #24]
 317 0174 0920     		movs	r0, #9
 318 0176 B5F1050C 		subs	ip, r5, #5
 319 017a DCF10001 		rsbs	r1, ip, #0
 320 017e 51EB0C01 		adcs	r1, r1, ip
 321 0182 FFF7FEFF 		bl	_test_assert
 322              	.LVL59:
 323 0186 0546     		mov	r5, r0
 324 0188 18B1     		cbz	r0, .L5
 325              	.LBB12:
 326              		.loc 1 119 0 is_stmt 0 discriminator 1
 327 018a 3B46     		mov	r3, r7
 328              	@ 119 "../../../ChibiOS/test/testmbox.c" 1
 329 018c 83F31188 		msr     BASEPRI, r3
 330              	@ 0 "" 2
 331              	.LVL60:
 332              		.thumb
 333 0190 89E7     		b	.L1
 334              	.LVL61:
 335              	.L5:
 336              	.LBE12:
 337              	.LBB13:
 338              		.loc 1 119 0 discriminator 2
 339 0192 0346     		mov	r3, r0
 340              	.LVL62:
 341              	@ 119 "../../../ChibiOS/test/testmbox.c" 1
 342 0194 83F31188 		msr     BASEPRI, r3
ARM GAS  C:\Users\DNIEL~1\AppData\Local\Temp\ccbaJvI2.s 			page 7


 343              	@ 0 "" 2
 344              	.LVL63:
 345              		.thumb
 346              	.LBE13:
 347              	.LBB14:
 348              		.loc 1 120 0 is_stmt 1 discriminator 2
 349 0198 2023     		movs	r3, #32
 350              	.LVL64:
 351              	@ 120 "../../../ChibiOS/test/testmbox.c" 1
 352 019a 83F31188 		msr     BASEPRI, r3
 353              	@ 0 "" 2
 354              	.LVL65:
 355              		.thumb
 356              	.LBE14:
 357 019e A368     		ldr	r3, [r4, #8]
 358              	.LVL66:
 359 01a0 E268     		ldr	r2, [r4, #12]
 360 01a2 0A20     		movs	r0, #10
 361 01a4 B2EB030E 		subs	lr, r2, r3
 362 01a8 DEF10001 		rsbs	r1, lr, #0
 363 01ac 51EB0E01 		adcs	r1, r1, lr
 364 01b0 FFF7FEFF 		bl	_test_assert
 365              	.LVL67:
 366 01b4 0346     		mov	r3, r0
 367 01b6 D0B9     		cbnz	r0, .L26
 368              	.LBB15:
 369              	@ 120 "../../../ChibiOS/test/testmbox.c" 1
 370 01b8 83F31188 		msr     BASEPRI, r3
 371              	@ 0 "" 2
 372              	.LVL68:
 373              		.thumb
 374 01bc 0526     		movs	r6, #5
 375 01be 05E0     		b	.L7
 376              	.LVL69:
 377              	.L31:
 378              	.LBE15:
 379              		.loc 1 128 0
 380 01c0 9DF80400 		ldrb	r0, [sp, #4]	@ zero_extendqisi2
 381 01c4 FFF7FEFF 		bl	test_emit_token
 382              	.LVL70:
 383              		.loc 1 125 0
 384 01c8 013E     		subs	r6, r6, #1
 385 01ca 17D0     		beq	.L30
 386              	.LVL71:
 387              	.L7:
 388              		.loc 1 126 0
 389 01cc 0A4D     		ldr	r5, .L32
 390 01ce 01A9     		add	r1, sp, #4
 391 01d0 4FF0FF32 		mov	r2, #-1
 392 01d4 2846     		mov	r0, r5
 393 01d6 FFF7FEFF 		bl	chMBFetch
 394              	.LVL72:
 395              		.loc 1 127 0
 396 01da D0F10101 		rsbs	r1, r0, #1
 397 01de 38BF     		it	cc
 398 01e0 0021     		movcc	r1, #0
 399 01e2 0B20     		movs	r0, #11
ARM GAS  C:\Users\DNIEL~1\AppData\Local\Temp\ccbaJvI2.s 			page 8


 400              	.LVL73:
 401 01e4 FFF7FEFF 		bl	_test_assert
 402              	.LVL74:
 403 01e8 0028     		cmp	r0, #0
 404 01ea E9D0     		beq	.L31
 405 01ec 5BE7     		b	.L1
 406              	.L26:
 407              	.LBB16:
 408              		.loc 1 157 0 discriminator 1
 409 01ee 2B46     		mov	r3, r5
 410              	@ 157 "../../../ChibiOS/test/testmbox.c" 1
 411 01f0 83F31188 		msr     BASEPRI, r3
 412              	@ 0 "" 2
 413              	.LVL75:
 414              		.thumb
 415 01f4 57E7     		b	.L1
 416              	.L33:
 417 01f6 00BF     		.align	2
 418              	.L32:
 419 01f8 00000000 		.word	.LANCHOR0
 420              	.LVL76:
 421              	.L30:
 422              	.LBE16:
 423              		.loc 1 130 0
 424 01fc 0C20     		movs	r0, #12
 425 01fe C849     		ldr	r1, .L34
 426 0200 FFF7FEFF 		bl	_test_assert_sequence
 427              	.LVL77:
 428 0204 0028     		cmp	r0, #0
 429 0206 7FF44EAF 		bne	.L1
 430              		.loc 1 135 0
 431 020a 4721     		movs	r1, #71
 432 020c 2846     		mov	r0, r5
 433 020e 4FF0FF32 		mov	r2, #-1
 434 0212 FFF7FEFF 		bl	chMBPost
 435              	.LVL78:
 436              		.loc 1 136 0
 437 0216 D0F10101 		rsbs	r1, r0, #1
 438 021a 38BF     		it	cc
 439 021c 0021     		movcc	r1, #0
 440 021e 0D20     		movs	r0, #13
 441              	.LVL79:
 442 0220 FFF7FEFF 		bl	_test_assert
 443              	.LVL80:
 444 0224 0028     		cmp	r0, #0
 445 0226 7FF43EAF 		bne	.L1
 446              		.loc 1 137 0
 447 022a 01A9     		add	r1, sp, #4
 448 022c 2846     		mov	r0, r5
 449 022e 4FF0FF32 		mov	r2, #-1
 450 0232 FFF7FEFF 		bl	chMBFetch
 451              	.LVL81:
 452              		.loc 1 138 0
 453 0236 D0F10101 		rsbs	r1, r0, #1
 454 023a 38BF     		it	cc
 455 023c 0021     		movcc	r1, #0
 456 023e 0E20     		movs	r0, #14
ARM GAS  C:\Users\DNIEL~1\AppData\Local\Temp\ccbaJvI2.s 			page 9


 457              	.LVL82:
 458 0240 FFF7FEFF 		bl	_test_assert
 459              	.LVL83:
 460 0244 0028     		cmp	r0, #0
 461 0246 7FF42EAF 		bne	.L1
 462              		.loc 1 139 0
 463 024a 2A68     		ldr	r2, [r5, #0]
 464 024c AB68     		ldr	r3, [r5, #8]
 465 024e 0F20     		movs	r0, #15
 466 0250 D21A     		subs	r2, r2, r3
 467 0252 5142     		rsbs	r1, r2, #0
 468 0254 5141     		adcs	r1, r1, r2
 469 0256 FFF7FEFF 		bl	_test_assert
 470              	.LVL84:
 471 025a 0028     		cmp	r0, #0
 472 025c 7FF423AF 		bne	.L1
 473              		.loc 1 140 0
 474 0260 2A68     		ldr	r2, [r5, #0]
 475 0262 EB68     		ldr	r3, [r5, #12]
 476 0264 1020     		movs	r0, #16
 477 0266 D21A     		subs	r2, r2, r3
 478 0268 5142     		rsbs	r1, r2, #0
 479 026a 5141     		adcs	r1, r1, r2
 480 026c FFF7FEFF 		bl	_test_assert
 481              	.LVL85:
 482 0270 0028     		cmp	r0, #0
 483 0272 7FF418AF 		bne	.L1
 484              		.loc 1 145 0
 485 0276 01A9     		add	r1, sp, #4
 486 0278 0122     		movs	r2, #1
 487 027a 2846     		mov	r0, r5
 488 027c FFF7FEFF 		bl	chMBFetch
 489              	.LVL86:
 490              		.loc 1 146 0
 491 0280 B0F1FF30 		subs	r0, r0, #-1
 492              	.LVL87:
 493 0284 4342     		rsbs	r3, r0, #0
 494 0286 53EB0001 		adcs	r1, r3, r0
 495 028a 1120     		movs	r0, #17
 496              	.LVL88:
 497 028c FFF7FEFF 		bl	_test_assert
 498              	.LVL89:
 499 0290 0028     		cmp	r0, #0
 500 0292 7FF408AF 		bne	.L1
 501              	.LBB17:
 502              		.loc 1 147 0
 503 0296 2023     		movs	r3, #32
 504              	.LVL90:
 505              	@ 147 "../../../ChibiOS/test/testmbox.c" 1
 506 0298 83F31188 		msr     BASEPRI, r3
 507              	@ 0 "" 2
 508              	.LVL91:
 509              		.thumb
 510              	.LBE17:
 511              		.loc 1 148 0
 512 029c 2846     		mov	r0, r5
 513 029e 01A9     		add	r1, sp, #4
ARM GAS  C:\Users\DNIEL~1\AppData\Local\Temp\ccbaJvI2.s 			page 10


 514 02a0 FFF7FEFF 		bl	chMBFetchI
 515              	.LVL92:
 516              	.LBB18:
 517              		.loc 1 149 0
 518 02a4 3346     		mov	r3, r6
 519              	.LVL93:
 520              	.LBE18:
 521              		.loc 1 148 0
 522 02a6 0246     		mov	r2, r0
 523              	.LVL94:
 524              	.LBB19:
 525              		.loc 1 149 0
 526              	@ 149 "../../../ChibiOS/test/testmbox.c" 1
 527 02a8 83F31188 		msr     BASEPRI, r3
 528              	@ 0 "" 2
 529              	.LVL95:
 530              		.thumb
 531              	.LBE19:
 532              		.loc 1 150 0
 533 02ac 1220     		movs	r0, #18
 534              	.LVL96:
 535 02ae B2F1FF3C 		subs	ip, r2, #-1
 536 02b2 DCF10001 		rsbs	r1, ip, #0
 537 02b6 51EB0C01 		adcs	r1, r1, ip
 538 02ba FFF7FEFF 		bl	_test_assert
 539              	.LVL97:
 540 02be 0028     		cmp	r0, #0
 541 02c0 7FF4F1AE 		bne	.L1
 542              	.LBB20:
 543              		.loc 1 155 0
 544 02c4 2023     		movs	r3, #32
 545              	.LVL98:
 546              	@ 155 "../../../ChibiOS/test/testmbox.c" 1
 547 02c6 83F31188 		msr     BASEPRI, r3
 548              	@ 0 "" 2
 549              	.LVL99:
 550              		.thumb
 551              	.LBE20:
 552 02ca 6B6A     		ldr	r3, [r5, #36]
 553              	.LVL100:
 554 02cc 1320     		movs	r0, #19
 555 02ce 5A1F     		subs	r2, r3, #5
 556 02d0 5142     		rsbs	r1, r2, #0
 557 02d2 5141     		adcs	r1, r1, r2
 558 02d4 FFF7FEFF 		bl	_test_assert
 559              	.LVL101:
 560              	.LBB21:
 561 02d8 0023     		movs	r3, #0
 562              	@ 155 "../../../ChibiOS/test/testmbox.c" 1
 563 02da 83F31188 		msr     BASEPRI, r3
 564              	@ 0 "" 2
 565              	.LVL102:
 566              		.thumb
 567              	.LBE21:
 568 02de 0028     		cmp	r0, #0
 569 02e0 7FF4E1AE 		bne	.L1
 570              	.LBB22:
ARM GAS  C:\Users\DNIEL~1\AppData\Local\Temp\ccbaJvI2.s 			page 11


 571              		.loc 1 156 0 discriminator 2
 572 02e4 2023     		movs	r3, #32
 573              	.LVL103:
 574              	@ 156 "../../../ChibiOS/test/testmbox.c" 1
 575 02e6 83F31188 		msr     BASEPRI, r3
 576              	@ 0 "" 2
 577              	.LVL104:
 578              		.thumb
 579              	.LBE22:
 580 02ea A569     		ldr	r5, [r4, #24]
 581 02ec 8D4C     		ldr	r4, .L34+4
 582 02ee 1420     		movs	r0, #20
 583 02f0 D5F10101 		rsbs	r1, r5, #1
 584 02f4 38BF     		it	cc
 585 02f6 0021     		movcc	r1, #0
 586 02f8 FFF7FEFF 		bl	_test_assert
 587              	.LVL105:
 588 02fc 0546     		mov	r5, r0
 589 02fe 0028     		cmp	r0, #0
 590 0300 7FF42DAF 		bne	.L27
 591              	.LBB23:
 592 0304 0346     		mov	r3, r0
 593              	.LVL106:
 594              	@ 156 "../../../ChibiOS/test/testmbox.c" 1
 595 0306 83F31188 		msr     BASEPRI, r3
 596              	@ 0 "" 2
 597              	.LVL107:
 598              		.thumb
 599              	.LBE23:
 600              	.LBB24:
 601              		.loc 1 157 0 discriminator 2
 602 030a 2023     		movs	r3, #32
 603              	.LVL108:
 604              	@ 157 "../../../ChibiOS/test/testmbox.c" 1
 605 030c 83F31188 		msr     BASEPRI, r3
 606              	@ 0 "" 2
 607              	.LVL109:
 608              		.thumb
 609              	.LBE24:
 610 0310 A368     		ldr	r3, [r4, #8]
 611              	.LVL110:
 612 0312 E268     		ldr	r2, [r4, #12]
 613 0314 1520     		movs	r0, #21
 614 0316 D21A     		subs	r2, r2, r3
 615 0318 5142     		rsbs	r1, r2, #0
 616 031a 5141     		adcs	r1, r1, r2
 617 031c FFF7FEFF 		bl	_test_assert
 618              	.LVL111:
 619 0320 0346     		mov	r3, r0
 620 0322 0028     		cmp	r0, #0
 621 0324 7FF463AF 		bne	.L26
 622              	.LBB25:
 623              	@ 157 "../../../ChibiOS/test/testmbox.c" 1
 624 0328 83F31188 		msr     BASEPRI, r3
 625              	@ 0 "" 2
 626              	.LVL112:
 627              		.thumb
ARM GAS  C:\Users\DNIEL~1\AppData\Local\Temp\ccbaJvI2.s 			page 12


 628              	.LBE25:
 629              	.LBB26:
 630              		.loc 1 162 0 discriminator 2
 631 032c 2023     		movs	r3, #32
 632              	.LVL113:
 633              	@ 162 "../../../ChibiOS/test/testmbox.c" 1
 634 032e 83F31188 		msr     BASEPRI, r3
 635              	@ 0 "" 2
 636              	.LVL114:
 637              		.thumb
 638              	.LBE26:
 639              		.loc 1 163 0 discriminator 2
 640 0332 4121     		movs	r1, #65
 641 0334 2046     		mov	r0, r4
 642 0336 FFF7FEFF 		bl	chMBPostI
 643              	.LVL115:
 644              		.loc 1 164 0 discriminator 2
 645 033a D0F10101 		rsbs	r1, r0, #1
 646 033e 38BF     		it	cc
 647 0340 0021     		movcc	r1, #0
 648 0342 1620     		movs	r0, #22
 649              	.LVL116:
 650 0344 FFF7FEFF 		bl	_test_assert
 651              	.LVL117:
 652 0348 0028     		cmp	r0, #0
 653 034a 7FF4ACAE 		bne	.L1
 654              		.loc 1 165 0
 655 034e 4221     		movs	r1, #66
 656 0350 2046     		mov	r0, r4
 657 0352 FFF7FEFF 		bl	chMBPostI
 658              	.LVL118:
 659              		.loc 1 166 0
 660 0356 D0F10101 		rsbs	r1, r0, #1
 661 035a 38BF     		it	cc
 662 035c 0021     		movcc	r1, #0
 663 035e 1720     		movs	r0, #23
 664              	.LVL119:
 665 0360 FFF7FEFF 		bl	_test_assert
 666              	.LVL120:
 667 0364 0028     		cmp	r0, #0
 668 0366 7FF49EAE 		bne	.L1
 669              		.loc 1 167 0
 670 036a 4321     		movs	r1, #67
 671 036c 2046     		mov	r0, r4
 672 036e FFF7FEFF 		bl	chMBPostI
 673              	.LVL121:
 674              		.loc 1 168 0
 675 0372 D0F10101 		rsbs	r1, r0, #1
 676 0376 38BF     		it	cc
 677 0378 0021     		movcc	r1, #0
 678 037a 1820     		movs	r0, #24
 679              	.LVL122:
 680 037c FFF7FEFF 		bl	_test_assert
 681              	.LVL123:
 682 0380 0028     		cmp	r0, #0
 683 0382 7FF490AE 		bne	.L1
 684              		.loc 1 169 0
ARM GAS  C:\Users\DNIEL~1\AppData\Local\Temp\ccbaJvI2.s 			page 13


 685 0386 4421     		movs	r1, #68
 686 0388 2046     		mov	r0, r4
 687 038a FFF7FEFF 		bl	chMBPostI
 688              	.LVL124:
 689              		.loc 1 170 0
 690 038e D0F10101 		rsbs	r1, r0, #1
 691 0392 38BF     		it	cc
 692 0394 0021     		movcc	r1, #0
 693 0396 1920     		movs	r0, #25
 694              	.LVL125:
 695 0398 FFF7FEFF 		bl	_test_assert
 696              	.LVL126:
 697 039c 0546     		mov	r5, r0
 698 039e 0028     		cmp	r0, #0
 699 03a0 7FF481AE 		bne	.L1
 700              		.loc 1 171 0
 701 03a4 2046     		mov	r0, r4
 702 03a6 4521     		movs	r1, #69
 703 03a8 FFF7FEFF 		bl	chMBPostI
 704              	.LVL127:
 705              	.LBB27:
 706              		.loc 1 172 0
 707 03ac 2B46     		mov	r3, r5
 708              	.LVL128:
 709              	.LBE27:
 710              		.loc 1 171 0
 711 03ae 0246     		mov	r2, r0
 712              	.LVL129:
 713              	.LBB28:
 714              		.loc 1 172 0
 715              	@ 172 "../../../ChibiOS/test/testmbox.c" 1
 716 03b0 83F31188 		msr     BASEPRI, r3
 717              	@ 0 "" 2
 718              	.LVL130:
 719              		.thumb
 720              	.LBE28:
 721              		.loc 1 173 0
 722 03b4 1A20     		movs	r0, #26
 723              	.LVL131:
 724 03b6 D2F10101 		rsbs	r1, r2, #1
 725 03ba 38BF     		it	cc
 726 03bc 0021     		movcc	r1, #0
 727 03be FFF7FEFF 		bl	_test_assert
 728              	.LVL132:
 729 03c2 0028     		cmp	r0, #0
 730 03c4 7FF46FAE 		bne	.L1
 731              		.loc 1 174 0
 732 03c8 E168     		ldr	r1, [r4, #12]
 733 03ca A368     		ldr	r3, [r4, #8]
 734 03cc 1B20     		movs	r0, #27
 735 03ce B1EB030E 		subs	lr, r1, r3
 736 03d2 DEF10002 		rsbs	r2, lr, #0
 737 03d6 52EB0E01 		adcs	r1, r2, lr
 738 03da FFF7FEFF 		bl	_test_assert
 739              	.LVL133:
 740 03de 0028     		cmp	r0, #0
 741 03e0 7FF461AE 		bne	.L1
ARM GAS  C:\Users\DNIEL~1\AppData\Local\Temp\ccbaJvI2.s 			page 14


 742 03e4 0525     		movs	r5, #5
 743              	.L11:
 744              	.LBB29:
 745              		.loc 1 176 0
 746 03e6 2023     		movs	r3, #32
 747              	.LVL134:
 748              	@ 176 "../../../ChibiOS/test/testmbox.c" 1
 749 03e8 83F31188 		msr     BASEPRI, r3
 750              	@ 0 "" 2
 751              	.LVL135:
 752              		.thumb
 753              	.LBE29:
 754              		.loc 1 177 0
 755 03ec 4D4C     		ldr	r4, .L34+4
 756 03ee 01A9     		add	r1, sp, #4
 757 03f0 2046     		mov	r0, r4
 758 03f2 FFF7FEFF 		bl	chMBFetchI
 759              	.LVL136:
 760              	.LBB30:
 761              		.loc 1 178 0
 762 03f6 0023     		movs	r3, #0
 763              	.LVL137:
 764              	.LBE30:
 765              		.loc 1 177 0
 766 03f8 0146     		mov	r1, r0
 767              	.LVL138:
 768              	.LBB31:
 769              		.loc 1 178 0
 770              	@ 178 "../../../ChibiOS/test/testmbox.c" 1
 771 03fa 83F31188 		msr     BASEPRI, r3
 772              	@ 0 "" 2
 773              	.LVL139:
 774              		.thumb
 775              	.LBE31:
 776              		.loc 1 179 0
 777 03fe 1C20     		movs	r0, #28
 778              	.LVL140:
 779 0400 CB1A     		subs	r3, r1, r3
 780              	.LVL141:
 781 0402 5A42     		rsbs	r2, r3, #0
 782 0404 52EB0301 		adcs	r1, r2, r3
 783              	.LVL142:
 784 0408 FFF7FEFF 		bl	_test_assert
 785              	.LVL143:
 786 040c 0028     		cmp	r0, #0
 787 040e 7FF44AAE 		bne	.L1
 788              		.loc 1 180 0
 789 0412 9DF80400 		ldrb	r0, [sp, #4]	@ zero_extendqisi2
 790 0416 FFF7FEFF 		bl	test_emit_token
 791              	.LVL144:
 792              		.loc 1 175 0
 793 041a 013D     		subs	r5, r5, #1
 794 041c E3D1     		bne	.L11
 795              		.loc 1 182 0
 796 041e 1D20     		movs	r0, #29
 797 0420 3F49     		ldr	r1, .L34
 798 0422 FFF7FEFF 		bl	_test_assert_sequence
ARM GAS  C:\Users\DNIEL~1\AppData\Local\Temp\ccbaJvI2.s 			page 15


 799              	.LVL145:
 800 0426 0028     		cmp	r0, #0
 801 0428 7FF43DAE 		bne	.L1
 802              	.LBB32:
 803              		.loc 1 183 0
 804 042c 2023     		movs	r3, #32
 805              	.LVL146:
 806              	@ 183 "../../../ChibiOS/test/testmbox.c" 1
 807 042e 83F31188 		msr     BASEPRI, r3
 808              	@ 0 "" 2
 809              	.LVL147:
 810              		.thumb
 811              	.LBE32:
 812 0432 616A     		ldr	r1, [r4, #36]
 813 0434 1E20     		movs	r0, #30
 814 0436 4B1F     		subs	r3, r1, #5
 815              	.LVL148:
 816 0438 5A42     		rsbs	r2, r3, #0
 817 043a 52EB0301 		adcs	r1, r2, r3
 818 043e FFF7FEFF 		bl	_test_assert
 819              	.LVL149:
 820              	.LBB33:
 821 0442 2B46     		mov	r3, r5
 822              	@ 183 "../../../ChibiOS/test/testmbox.c" 1
 823 0444 83F31188 		msr     BASEPRI, r3
 824              	@ 0 "" 2
 825              	.LVL150:
 826              		.thumb
 827              	.LBE33:
 828 0448 0028     		cmp	r0, #0
 829 044a 7FF42CAE 		bne	.L1
 830              	.LBB34:
 831              		.loc 1 184 0 discriminator 2
 832 044e 2023     		movs	r3, #32
 833              	.LVL151:
 834              	@ 184 "../../../ChibiOS/test/testmbox.c" 1
 835 0450 83F31188 		msr     BASEPRI, r3
 836              	@ 0 "" 2
 837              	.LVL152:
 838              		.thumb
 839              	.LBE34:
 840 0454 A169     		ldr	r1, [r4, #24]
 841 0456 1F20     		movs	r0, #31
 842 0458 D1F10101 		rsbs	r1, r1, #1
 843 045c 38BF     		it	cc
 844 045e 0021     		movcc	r1, #0
 845 0460 FFF7FEFF 		bl	_test_assert
 846              	.LVL153:
 847              	.LBB35:
 848 0464 2B46     		mov	r3, r5
 849              	@ 184 "../../../ChibiOS/test/testmbox.c" 1
 850 0466 83F31188 		msr     BASEPRI, r3
 851              	@ 0 "" 2
 852              	.LVL154:
 853              		.thumb
 854              	.LBE35:
 855 046a 0028     		cmp	r0, #0
ARM GAS  C:\Users\DNIEL~1\AppData\Local\Temp\ccbaJvI2.s 			page 16


 856 046c 7FF41BAE 		bne	.L1
 857              		.loc 1 185 0 discriminator 2
 858 0470 E268     		ldr	r2, [r4, #12]
 859 0472 A368     		ldr	r3, [r4, #8]
 860              	.LVL155:
 861 0474 2020     		movs	r0, #32
 862 0476 D21A     		subs	r2, r2, r3
 863 0478 5142     		rsbs	r1, r2, #0
 864 047a 5141     		adcs	r1, r1, r2
 865 047c FFF7FEFF 		bl	_test_assert
 866              	.LVL156:
 867 0480 0028     		cmp	r0, #0
 868 0482 7FF410AE 		bne	.L1
 869              	.LBB36:
 870              		.loc 1 187 0
 871 0486 2023     		movs	r3, #32
 872              	.LVL157:
 873              	@ 187 "../../../ChibiOS/test/testmbox.c" 1
 874 0488 83F31188 		msr     BASEPRI, r3
 875              	@ 0 "" 2
 876              	.LVL158:
 877              		.thumb
 878              	.LBE36:
 879              		.loc 1 188 0
 880 048c 4521     		movs	r1, #69
 881 048e 2046     		mov	r0, r4
 882 0490 FFF7FEFF 		bl	chMBPostAheadI
 883              	.LVL159:
 884              		.loc 1 189 0
 885 0494 D0F10101 		rsbs	r1, r0, #1
 886 0498 38BF     		it	cc
 887 049a 0021     		movcc	r1, #0
 888 049c 2120     		movs	r0, #33
 889              	.LVL160:
 890 049e FFF7FEFF 		bl	_test_assert
 891              	.LVL161:
 892 04a2 0028     		cmp	r0, #0
 893 04a4 7FF4FFAD 		bne	.L1
 894              		.loc 1 190 0
 895 04a8 4421     		movs	r1, #68
 896 04aa 2046     		mov	r0, r4
 897 04ac FFF7FEFF 		bl	chMBPostAheadI
 898              	.LVL162:
 899              		.loc 1 191 0
 900 04b0 D0F10101 		rsbs	r1, r0, #1
 901 04b4 38BF     		it	cc
 902 04b6 0021     		movcc	r1, #0
 903 04b8 2220     		movs	r0, #34
 904              	.LVL163:
 905 04ba FFF7FEFF 		bl	_test_assert
 906              	.LVL164:
 907 04be 0028     		cmp	r0, #0
 908 04c0 7FF4F1AD 		bne	.L1
 909              		.loc 1 192 0
 910 04c4 4321     		movs	r1, #67
 911 04c6 2046     		mov	r0, r4
 912 04c8 FFF7FEFF 		bl	chMBPostAheadI
ARM GAS  C:\Users\DNIEL~1\AppData\Local\Temp\ccbaJvI2.s 			page 17


 913              	.LVL165:
 914              		.loc 1 193 0
 915 04cc D0F10101 		rsbs	r1, r0, #1
 916 04d0 38BF     		it	cc
 917 04d2 0021     		movcc	r1, #0
 918 04d4 2320     		movs	r0, #35
 919              	.LVL166:
 920 04d6 FFF7FEFF 		bl	_test_assert
 921              	.LVL167:
 922 04da 0028     		cmp	r0, #0
 923 04dc 7FF4E3AD 		bne	.L1
 924              		.loc 1 194 0
 925 04e0 4221     		movs	r1, #66
 926 04e2 2046     		mov	r0, r4
 927 04e4 FFF7FEFF 		bl	chMBPostAheadI
 928              	.LVL168:
 929              		.loc 1 195 0
 930 04e8 D0F10101 		rsbs	r1, r0, #1
 931 04ec 38BF     		it	cc
 932 04ee 0021     		movcc	r1, #0
 933 04f0 2420     		movs	r0, #36
 934              	.LVL169:
 935 04f2 FFF7FEFF 		bl	_test_assert
 936              	.LVL170:
 937 04f6 0028     		cmp	r0, #0
 938 04f8 7FF4D5AD 		bne	.L1
 939              		.loc 1 196 0
 940 04fc 094C     		ldr	r4, .L34+4
 941 04fe 4121     		movs	r1, #65
 942 0500 2046     		mov	r0, r4
 943 0502 FFF7FEFF 		bl	chMBPostAheadI
 944              	.LVL171:
 945              	.LBB37:
 946              		.loc 1 197 0
 947 0506 0023     		movs	r3, #0
 948              	.LVL172:
 949              	.LBE37:
 950              		.loc 1 196 0
 951 0508 0246     		mov	r2, r0
 952              	.LVL173:
 953              	.LBB38:
 954              		.loc 1 197 0
 955              	@ 197 "../../../ChibiOS/test/testmbox.c" 1
 956 050a 83F31188 		msr     BASEPRI, r3
 957              	@ 0 "" 2
 958              	.LVL174:
 959              		.thumb
 960              	.LBE38:
 961              		.loc 1 198 0
 962 050e 2520     		movs	r0, #37
 963              	.LVL175:
 964 0510 B2EB030C 		subs	ip, r2, r3
 965              	.LVL176:
 966 0514 DCF10003 		rsbs	r3, ip, #0
 967 0518 53EB0C01 		adcs	r1, r3, ip
 968 051c 04E0     		b	.L35
 969              	.L36:
ARM GAS  C:\Users\DNIEL~1\AppData\Local\Temp\ccbaJvI2.s 			page 18


 970 051e 00BF     		.align	2
 971              	.L34:
 972 0520 00000000 		.word	.LC0
 973 0524 00000000 		.word	.LANCHOR0
 974              	.L35:
 975 0528 FFF7FEFF 		bl	_test_assert
 976              	.LVL177:
 977 052c 0028     		cmp	r0, #0
 978 052e 7FF4BAAD 		bne	.L1
 979              		.loc 1 199 0
 980 0532 E168     		ldr	r1, [r4, #12]
 981 0534 A268     		ldr	r2, [r4, #8]
 982 0536 2620     		movs	r0, #38
 983 0538 B1EB020E 		subs	lr, r1, r2
 984 053c DEF10003 		rsbs	r3, lr, #0
 985 0540 53EB0E01 		adcs	r1, r3, lr
 986 0544 FFF7FEFF 		bl	_test_assert
 987              	.LVL178:
 988 0548 0028     		cmp	r0, #0
 989 054a 7FF4ACAD 		bne	.L1
 990 054e 0524     		movs	r4, #5
 991              	.L14:
 992              	.LBB39:
 993              		.loc 1 201 0
 994 0550 2023     		movs	r3, #32
 995              	.LVL179:
 996              	@ 201 "../../../ChibiOS/test/testmbox.c" 1
 997 0552 83F31188 		msr     BASEPRI, r3
 998              	@ 0 "" 2
 999              	.LVL180:
 1000              		.thumb
 1001              	.LBE39:
 1002              		.loc 1 202 0
 1003 0556 4A4D     		ldr	r5, .L37
 1004 0558 01A9     		add	r1, sp, #4
 1005 055a 2846     		mov	r0, r5
 1006 055c FFF7FEFF 		bl	chMBFetchI
 1007              	.LVL181:
 1008              	.LBB40:
 1009              		.loc 1 203 0
 1010 0560 0023     		movs	r3, #0
 1011              	.LVL182:
 1012              	.LBE40:
 1013              		.loc 1 202 0
 1014 0562 0146     		mov	r1, r0
 1015              	.LVL183:
 1016              	.LBB41:
 1017              		.loc 1 203 0
 1018              	@ 203 "../../../ChibiOS/test/testmbox.c" 1
 1019 0564 83F31188 		msr     BASEPRI, r3
 1020              	@ 0 "" 2
 1021              	.LVL184:
 1022              		.thumb
 1023              	.LBE41:
 1024              		.loc 1 204 0
 1025 0568 2720     		movs	r0, #39
 1026              	.LVL185:
ARM GAS  C:\Users\DNIEL~1\AppData\Local\Temp\ccbaJvI2.s 			page 19


 1027 056a CA1A     		subs	r2, r1, r3
 1028              	.LVL186:
 1029 056c 5342     		rsbs	r3, r2, #0
 1030 056e 53EB0201 		adcs	r1, r3, r2
 1031              	.LVL187:
 1032 0572 FFF7FEFF 		bl	_test_assert
 1033              	.LVL188:
 1034 0576 0028     		cmp	r0, #0
 1035 0578 7FF495AD 		bne	.L1
 1036              		.loc 1 205 0
 1037 057c 9DF80400 		ldrb	r0, [sp, #4]	@ zero_extendqisi2
 1038 0580 FFF7FEFF 		bl	test_emit_token
 1039              	.LVL189:
 1040              		.loc 1 200 0
 1041 0584 013C     		subs	r4, r4, #1
 1042 0586 E3D1     		bne	.L14
 1043              		.loc 1 207 0
 1044 0588 2820     		movs	r0, #40
 1045 058a 3E49     		ldr	r1, .L37+4
 1046 058c FFF7FEFF 		bl	_test_assert_sequence
 1047              	.LVL190:
 1048 0590 0028     		cmp	r0, #0
 1049 0592 7FF488AD 		bne	.L1
 1050              	.LBB42:
 1051              		.loc 1 208 0
 1052 0596 2023     		movs	r3, #32
 1053              	.LVL191:
 1054              	@ 208 "../../../ChibiOS/test/testmbox.c" 1
 1055 0598 83F31188 		msr     BASEPRI, r3
 1056              	@ 0 "" 2
 1057              	.LVL192:
 1058              		.thumb
 1059              	.LBE42:
 1060 059c 696A     		ldr	r1, [r5, #36]
 1061 059e 2920     		movs	r0, #41
 1062 05a0 4A1F     		subs	r2, r1, #5
 1063 05a2 5342     		rsbs	r3, r2, #0
 1064              	.LVL193:
 1065 05a4 53EB0201 		adcs	r1, r3, r2
 1066 05a8 FFF7FEFF 		bl	_test_assert
 1067              	.LVL194:
 1068              	.LBB43:
 1069 05ac 2346     		mov	r3, r4
 1070              	@ 208 "../../../ChibiOS/test/testmbox.c" 1
 1071 05ae 83F31188 		msr     BASEPRI, r3
 1072              	@ 0 "" 2
 1073              	.LVL195:
 1074              		.thumb
 1075              	.LBE43:
 1076 05b2 0028     		cmp	r0, #0
 1077 05b4 7FF477AD 		bne	.L1
 1078              	.LBB44:
 1079              		.loc 1 209 0 discriminator 2
 1080 05b8 2023     		movs	r3, #32
 1081              	.LVL196:
 1082              	@ 209 "../../../ChibiOS/test/testmbox.c" 1
 1083 05ba 83F31188 		msr     BASEPRI, r3
ARM GAS  C:\Users\DNIEL~1\AppData\Local\Temp\ccbaJvI2.s 			page 20


 1084              	@ 0 "" 2
 1085              	.LVL197:
 1086              		.thumb
 1087              	.LBE44:
 1088 05be A969     		ldr	r1, [r5, #24]
 1089 05c0 2A20     		movs	r0, #42
 1090 05c2 D1F10101 		rsbs	r1, r1, #1
 1091 05c6 38BF     		it	cc
 1092 05c8 0021     		movcc	r1, #0
 1093 05ca FFF7FEFF 		bl	_test_assert
 1094              	.LVL198:
 1095              	.LBB45:
 1096 05ce 2346     		mov	r3, r4
 1097              	@ 209 "../../../ChibiOS/test/testmbox.c" 1
 1098 05d0 83F31188 		msr     BASEPRI, r3
 1099              	@ 0 "" 2
 1100              	.LVL199:
 1101              		.thumb
 1102              	.LBE45:
 1103 05d4 0028     		cmp	r0, #0
 1104 05d6 7FF466AD 		bne	.L1
 1105              		.loc 1 210 0 discriminator 2
 1106 05da EA68     		ldr	r2, [r5, #12]
 1107 05dc AB68     		ldr	r3, [r5, #8]
 1108              	.LVL200:
 1109 05de 2B20     		movs	r0, #43
 1110 05e0 B2EB030C 		subs	ip, r2, r3
 1111 05e4 DCF10001 		rsbs	r1, ip, #0
 1112 05e8 51EB0C01 		adcs	r1, r1, ip
 1113 05ec FFF7FEFF 		bl	_test_assert
 1114              	.LVL201:
 1115 05f0 0028     		cmp	r0, #0
 1116 05f2 7FF458AD 		bne	.L1
 1117              		.loc 1 215 0
 1118 05f6 2846     		mov	r0, r5
 1119 05f8 FFF7FEFF 		bl	chMBReset
 1120              	.LVL202:
 1121              	.LBB46:
 1122              		.loc 1 220 0
 1123 05fc 2023     		movs	r3, #32
 1124              	.LVL203:
 1125              	@ 220 "../../../ChibiOS/test/testmbox.c" 1
 1126 05fe 83F31188 		msr     BASEPRI, r3
 1127              	@ 0 "" 2
 1128              	.LVL204:
 1129              		.thumb
 1130              	.LBE46:
 1131 0602 6A6A     		ldr	r2, [r5, #36]
 1132 0604 2C20     		movs	r0, #44
 1133 0606 B2F1050E 		subs	lr, r2, #5
 1134 060a DEF10003 		rsbs	r3, lr, #0
 1135              	.LVL205:
 1136 060e 53EB0E01 		adcs	r1, r3, lr
 1137 0612 FFF7FEFF 		bl	_test_assert
 1138              	.LVL206:
 1139              	.LBB47:
 1140 0616 2346     		mov	r3, r4
ARM GAS  C:\Users\DNIEL~1\AppData\Local\Temp\ccbaJvI2.s 			page 21


 1141              	@ 220 "../../../ChibiOS/test/testmbox.c" 1
 1142 0618 83F31188 		msr     BASEPRI, r3
 1143              	@ 0 "" 2
 1144              	.LVL207:
 1145              		.thumb
 1146              	.LBE47:
 1147 061c 0028     		cmp	r0, #0
 1148 061e 7FF442AD 		bne	.L1
 1149              	.LBB48:
 1150              		.loc 1 221 0 discriminator 2
 1151 0622 2023     		movs	r3, #32
 1152              	.LVL208:
 1153              	@ 221 "../../../ChibiOS/test/testmbox.c" 1
 1154 0624 83F31188 		msr     BASEPRI, r3
 1155              	@ 0 "" 2
 1156              	.LVL209:
 1157              		.thumb
 1158              	.LBE48:
 1159 0628 A969     		ldr	r1, [r5, #24]
 1160 062a 2D20     		movs	r0, #45
 1161 062c D1F10101 		rsbs	r1, r1, #1
 1162 0630 38BF     		it	cc
 1163 0632 0021     		movcc	r1, #0
 1164 0634 FFF7FEFF 		bl	_test_assert
 1165              	.LVL210:
 1166              	.LBB49:
 1167 0638 2346     		mov	r3, r4
 1168              	@ 221 "../../../ChibiOS/test/testmbox.c" 1
 1169 063a 83F31188 		msr     BASEPRI, r3
 1170              	@ 0 "" 2
 1171              	.LVL211:
 1172              		.thumb
 1173              	.LBE49:
 1174 063e 0028     		cmp	r0, #0
 1175 0640 7FF431AD 		bne	.L1
 1176              	.LBB50:
 1177              		.loc 1 222 0 discriminator 2
 1178 0644 2023     		movs	r3, #32
 1179              	.LVL212:
 1180              	@ 222 "../../../ChibiOS/test/testmbox.c" 1
 1181 0646 83F31188 		msr     BASEPRI, r3
 1182              	@ 0 "" 2
 1183              	.LVL213:
 1184              		.thumb
 1185              	.LBE50:
 1186 064a AB68     		ldr	r3, [r5, #8]
 1187              	.LVL214:
 1188 064c 2A68     		ldr	r2, [r5, #0]
 1189 064e 2E20     		movs	r0, #46
 1190 0650 D21A     		subs	r2, r2, r3
 1191 0652 5142     		rsbs	r1, r2, #0
 1192 0654 5141     		adcs	r1, r1, r2
 1193 0656 FFF7FEFF 		bl	_test_assert
 1194              	.LVL215:
 1195              	.LBB51:
 1196 065a 2346     		mov	r3, r4
 1197              	@ 222 "../../../ChibiOS/test/testmbox.c" 1
ARM GAS  C:\Users\DNIEL~1\AppData\Local\Temp\ccbaJvI2.s 			page 22


 1198 065c 83F31188 		msr     BASEPRI, r3
 1199              	@ 0 "" 2
 1200              	.LVL216:
 1201              		.thumb
 1202              	.LBE51:
 1203 0660 0028     		cmp	r0, #0
 1204 0662 7FF420AD 		bne	.L1
 1205              	.LBB52:
 1206              		.loc 1 223 0 discriminator 2
 1207 0666 2023     		movs	r3, #32
 1208              	.LVL217:
 1209              	@ 223 "../../../ChibiOS/test/testmbox.c" 1
 1210 0668 83F31188 		msr     BASEPRI, r3
 1211              	@ 0 "" 2
 1212              	.LVL218:
 1213              		.thumb
 1214              	.LBE52:
 1215 066c 2A68     		ldr	r2, [r5, #0]
 1216 066e EB68     		ldr	r3, [r5, #12]
 1217              	.LVL219:
 1218 0670 2F20     		movs	r0, #47
 1219 0672 D21A     		subs	r2, r2, r3
 1220 0674 5142     		rsbs	r1, r2, #0
 1221 0676 5141     		adcs	r1, r1, r2
 1222 0678 FFF7FEFF 		bl	_test_assert
 1223              	.LVL220:
 1224 067c 6FE5     		b	.L27
 1225              	.L38:
 1226 067e 00BF     		.align	2
 1227              	.L37:
 1228 0680 00000000 		.word	.LANCHOR0
 1229 0684 00000000 		.word	.LC0
 1230              		.cfi_endproc
 1231              	.LFE8:
 1232              		.size	mbox1_execute, .-mbox1_execute
 1233 0688 AFF30080 		.section	.text.mbox1_setup,"ax",%progbits
 1233      AFF30080 
 1234              		.align	2
 1235              		.p2align 4,,15
 1236              		.thumb
 1237              		.thumb_func
 1238              		.type	mbox1_setup, %function
 1239              	mbox1_setup:
 1240              	.LFB7:
 1241              		.loc 1 75 0
 1242              		.cfi_startproc
 1243              		@ args = 0, pretend = 0, frame = 0
 1244              		@ frame_needed = 0, uses_anonymous_args = 0
 1245              		@ link register save eliminated.
 1246              		.loc 1 77 0
 1247 0000 40F20000 		movw	r0, #:lower16:.LANCHOR0
 1248 0004 40F20001 		movw	r1, #:lower16:test
 1249 0008 C0F20000 		movt	r0, #:upper16:.LANCHOR0
 1250 000c C0F20001 		movt	r1, #:upper16:test
 1251 0010 0522     		movs	r2, #5
 1252              		.loc 1 78 0
 1253              		.loc 1 77 0
ARM GAS  C:\Users\DNIEL~1\AppData\Local\Temp\ccbaJvI2.s 			page 23


 1254 0012 FFF7FEBF 		b	chMBInit
 1255              	.LVL221:
 1256              		.cfi_endproc
 1257              	.LFE7:
 1258              		.size	mbox1_setup, .-mbox1_setup
 1259              		.global	patternmbox
 1260              		.global	testmbox1
 1261 0016 00BFAFF3 		.section	.data.mb1,"aw",%progbits
 1261      0080AFF3 
 1261      0080
 1262              		.align	2
 1263              		.set	.LANCHOR0,. + 0
 1264              		.type	mb1, %object
 1265              		.size	mb1, 40
 1266              	mb1:
 1267 0000 00000000 		.word	test
 1268 0004 14000000 		.word	test+20
 1269 0008 00000000 		.word	test
 1270 000c 00000000 		.word	test
 1271 0010 10000000 		.word	mb1+16
 1272 0014 10000000 		.word	mb1+16
 1273 0018 00000000 		.word	0
 1274 001c 1C000000 		.word	mb1+28
 1275 0020 1C000000 		.word	mb1+28
 1276 0024 05000000 		.word	5
 1277              		.section	.rodata.patternmbox,"a",%progbits
 1278              		.align	2
 1279              		.type	patternmbox, %object
 1280              		.size	patternmbox, 8
 1281              	patternmbox:
 1282 0000 00000000 		.word	testmbox1
 1283 0004 00000000 		.word	0
 1284              		.section	.rodata.str1.4,"aMS",%progbits,1
 1285              		.align	2
 1286              	.LC0:
 1287 0000 41424344 		.ascii	"ABCDE\000"
 1287      4500
 1288 0006 0000     		.space	2
 1289              	.LC1:
 1290 0008 4D61696C 		.ascii	"Mailboxes, queuing and timeouts\000"
 1290      626F7865 
 1290      732C2071 
 1290      75657569 
 1290      6E672061 
 1291              		.section	.rodata.testmbox1,"a",%progbits
 1292              		.align	2
 1293              		.type	testmbox1, %object
 1294              		.size	testmbox1, 16
 1295              	testmbox1:
 1296 0000 08000000 		.word	.LC1
 1297 0004 00000000 		.word	mbox1_setup
 1298 0008 00000000 		.word	0
 1299 000c 00000000 		.word	mbox1_execute
 1300              		.text
 1301              	.Letext0:
 1302              		.file 2 "c:\\chibistudio\\tools\\gnu tools arm embedded\\4.7 2014q2\\bin\\../lib/gcc/arm-none-eabi
 1303              		.file 3 "../../../ChibiOS/os/ports/GCC/ARMCMx/chtypes.h"
ARM GAS  C:\Users\DNIEL~1\AppData\Local\Temp\ccbaJvI2.s 			page 24


 1304              		.file 4 "../../../ChibiOS/os/kernel/include/chlists.h"
 1305              		.file 5 "../../../ChibiOS/os/kernel/include/chthreads.h"
 1306              		.file 6 "../../../ChibiOS/os/ports/GCC/ARMCMx/chcore_v7m.h"
 1307              		.file 7 "../../../ChibiOS/os/kernel/include/chsem.h"
 1308              		.file 8 "../../../ChibiOS/os/kernel/include/chmtx.h"
 1309              		.file 9 "../../../ChibiOS/os/kernel/include/chmboxes.h"
 1310              		.file 10 "../../../ChibiOS/test/test.h"