ARM GAS  C:\Users\DNIEL~1\AppData\Local\Temp\cciErhMR.s 			page 1


   1              		.syntax unified
   2              		.cpu cortex-m4
   3              		.fpu softvfp
   4              		.eabi_attribute 20, 1
   5              		.eabi_attribute 21, 1
   6              		.eabi_attribute 23, 3
   7              		.eabi_attribute 24, 1
   8              		.eabi_attribute 25, 1
   9              		.eabi_attribute 26, 1
  10              		.eabi_attribute 30, 2
  11              		.eabi_attribute 34, 1
  12              		.eabi_attribute 18, 4
  13              		.thumb
  14              		.file	"testevt.c"
  15              		.text
  16              	.Ltext0:
  17              		.cfi_sections	.debug_frame
  18              		.section	.text.evt3_setup,"ax",%progbits
  19              		.align	2
  20              		.p2align 4,,15
  21              		.thumb
  22              		.thumb_func
  23              		.type	evt3_setup, %function
  24              	evt3_setup:
  25              	.LFB16:
  26              		.file 1 "../../../ChibiOS/test/testevt.c"
  27              		.loc 1 249 0
  28              		.cfi_startproc
  29              		@ args = 0, pretend = 0, frame = 0
  30              		@ frame_needed = 0, uses_anonymous_args = 0
  31              		@ link register save eliminated.
  32              		.loc 1 251 0
  33 0000 4FF0FF30 		mov	r0, #-1
  34              		.loc 1 252 0
  35              		.loc 1 251 0
  36 0004 FFF7FEBF 		b	chEvtGetAndClearEvents
  37              	.LVL0:
  38              		.cfi_endproc
  39              	.LFE16:
  40              		.size	evt3_setup, .-evt3_setup
  41 0008 AFF30080 		.section	.text.evt2_setup,"ax",%progbits
  41      AFF30080 
  42              		.align	2
  43              		.p2align 4,,15
  44              		.thumb
  45              		.thumb_func
  46              		.type	evt2_setup, %function
  47              	evt2_setup:
  48              	.LFB12:
  49              		.loc 1 128 0
  50              		.cfi_startproc
  51              		@ args = 0, pretend = 0, frame = 0
  52              		@ frame_needed = 0, uses_anonymous_args = 0
  53              		@ link register save eliminated.
  54              		.loc 1 130 0
  55 0000 4FF0FF30 		mov	r0, #-1
  56              		.loc 1 131 0
ARM GAS  C:\Users\DNIEL~1\AppData\Local\Temp\cciErhMR.s 			page 2


  57              		.loc 1 130 0
  58 0004 FFF7FEBF 		b	chEvtGetAndClearEvents
  59              	.LVL1:
  60              		.cfi_endproc
  61              	.LFE12:
  62              		.size	evt2_setup, .-evt2_setup
  63 0008 AFF30080 		.section	.text.evt1_setup,"ax",%progbits
  63      AFF30080 
  64              		.align	2
  65              		.p2align 4,,15
  66              		.thumb
  67              		.thumb_func
  68              		.type	evt1_setup, %function
  69              	evt1_setup:
  70              	.LFB7:
  71              		.loc 1 75 0
  72              		.cfi_startproc
  73              		@ args = 0, pretend = 0, frame = 0
  74              		@ frame_needed = 0, uses_anonymous_args = 0
  75              		@ link register save eliminated.
  76              		.loc 1 77 0
  77 0000 4FF0FF30 		mov	r0, #-1
  78              		.loc 1 78 0
  79              		.loc 1 77 0
  80 0004 FFF7FEBF 		b	chEvtGetAndClearEvents
  81              	.LVL2:
  82              		.cfi_endproc
  83              	.LFE7:
  84              		.size	evt1_setup, .-evt1_setup
  85 0008 AFF30080 		.section	.text.evt2_execute,"ax",%progbits
  85      AFF30080 
  86              		.align	2
  87              		.p2align 4,,15
  88              		.thumb
  89              		.thumb_func
  90              		.type	evt2_execute, %function
  91              	evt2_execute:
  92              	.LFB15:
  93              		.loc 1 149 0
  94              		.cfi_startproc
  95              		@ args = 0, pretend = 0, frame = 32
  96              		@ frame_needed = 0, uses_anonymous_args = 0
  97 0000 2DE9F043 		push	{r4, r5, r6, r7, r8, r9, lr}
  98              	.LCFI0:
  99              		.cfi_def_cfa_offset 28
 100              		.cfi_offset 4, -28
 101              		.cfi_offset 5, -24
 102              		.cfi_offset 6, -20
 103              		.cfi_offset 7, -16
 104              		.cfi_offset 8, -12
 105              		.cfi_offset 9, -8
 106              		.cfi_offset 14, -4
 107              		.loc 1 157 0
 108 0004 0720     		movs	r0, #7
 109              		.loc 1 149 0
 110 0006 8BB0     		sub	sp, sp, #44
 111              	.LCFI1:
ARM GAS  C:\Users\DNIEL~1\AppData\Local\Temp\cciErhMR.s 			page 3


 112              		.cfi_def_cfa_offset 72
 113              		.loc 1 157 0
 114 0008 FFF7FEFF 		bl	chEvtAddEvents
 115              	.LVL3:
 116              		.loc 1 158 0
 117 000c 4FF0FF30 		mov	r0, #-1
 118 0010 FFF7FEFF 		bl	chEvtWaitOne
 119              	.LVL4:
 120              		.loc 1 159 0
 121 0014 B0F1010E 		subs	lr, r0, #1
 122 0018 DEF10001 		rsbs	r1, lr, #0
 123 001c 51EB0E01 		adcs	r1, r1, lr
 124 0020 0120     		movs	r0, #1
 125              	.LVL5:
 126 0022 FFF7FEFF 		bl	_test_assert
 127              	.LVL6:
 128 0026 10B1     		cbz	r0, .L8
 129              	.L4:
 130              		.loc 1 224 0
 131 0028 0BB0     		add	sp, sp, #44
 132 002a BDE8F083 		pop	{r4, r5, r6, r7, r8, r9, pc}
 133              	.L8:
 134              		.loc 1 160 0
 135 002e 4FF0FF30 		mov	r0, #-1
 136 0032 FFF7FEFF 		bl	chEvtWaitOne
 137              	.LVL7:
 138              		.loc 1 161 0
 139 0036 0238     		subs	r0, r0, #2
 140              	.LVL8:
 141 0038 4242     		rsbs	r2, r0, #0
 142 003a 52EB0001 		adcs	r1, r2, r0
 143 003e 0220     		movs	r0, #2
 144              	.LVL9:
 145 0040 FFF7FEFF 		bl	_test_assert
 146              	.LVL10:
 147 0044 0028     		cmp	r0, #0
 148 0046 EFD1     		bne	.L4
 149              		.loc 1 162 0
 150 0048 4FF0FF30 		mov	r0, #-1
 151 004c FFF7FEFF 		bl	chEvtWaitOne
 152              	.LVL11:
 153              		.loc 1 163 0
 154 0050 031F     		subs	r3, r0, #4
 155 0052 5942     		rsbs	r1, r3, #0
 156 0054 5941     		adcs	r1, r1, r3
 157 0056 0320     		movs	r0, #3
 158              	.LVL12:
 159 0058 FFF7FEFF 		bl	_test_assert
 160              	.LVL13:
 161 005c 0028     		cmp	r0, #0
 162 005e E3D1     		bne	.L4
 163              		.loc 1 164 0
 164 0060 4FF0FF30 		mov	r0, #-1
 165 0064 FFF7FEFF 		bl	chEvtGetAndClearEvents
 166              	.LVL14:
 167              		.loc 1 165 0
 168 0068 D0F10101 		rsbs	r1, r0, #1
ARM GAS  C:\Users\DNIEL~1\AppData\Local\Temp\cciErhMR.s 			page 4


 169 006c 38BF     		it	cc
 170 006e 0021     		movcc	r1, #0
 171 0070 0420     		movs	r0, #4
 172              	.LVL15:
 173 0072 FFF7FEFF 		bl	_test_assert
 174              	.LVL16:
 175 0076 0028     		cmp	r0, #0
 176 0078 D6D1     		bne	.L4
 177              		.loc 1 172 0
 178 007a DFF8F881 		ldr	r8, .L9+28
 179 007e 764F     		ldr	r7, .L9
 180              		.loc 1 171 0
 181 0080 764E     		ldr	r6, .L9+4
 182              		.loc 1 172 0
 183 0082 774D     		ldr	r5, .L9+8
 184              		.loc 1 170 0
 185 0084 FFF7FEFF 		bl	test_wait_tick
 186              	.LVL17:
 187              		.loc 1 172 0
 188 0088 D8F81840 		ldr	r4, [r8, #24]
 189 008c 3F68     		ldr	r7, [r7, #0]
 190 008e A068     		ldr	r0, [r4, #8]
 191 0090 744B     		ldr	r3, .L9+12
 192 0092 0094     		str	r4, [sp, #0]
 193 0094 421E     		subs	r2, r0, #1
 194 0096 4FF4A871 		mov	r1, #336
 195 009a 3846     		mov	r0, r7
 196              		.loc 1 171 0
 197 009c F468     		ldr	r4, [r6, #12]
 198              	.LVL18:
 199              		.loc 1 172 0
 200 009e FFF7FEFF 		bl	chThdCreateStatic
 201              	.LVL19:
 202 00a2 2860     		str	r0, [r5, #0]
 203              		.loc 1 174 0
 204 00a4 4FF0FF30 		mov	r0, #-1
 205 00a8 FFF7FEFF 		bl	chEvtWaitOne
 206              	.LVL20:
 207              		.loc 1 175 0
 208 00ac 04F13201 		add	r1, r4, #50
 209              	.LVL21:
 210              		.loc 1 174 0
 211 00b0 8146     		mov	r9, r0
 212              	.LVL22:
 213              		.loc 1 175 0
 214 00b2 04F13702 		add	r2, r4, #55
 215 00b6 0520     		movs	r0, #5
 216              	.LVL23:
 217 00b8 FFF7FEFF 		bl	_test_assert_time_window
 218              	.LVL24:
 219 00bc 0028     		cmp	r0, #0
 220 00be B3D1     		bne	.L4
 221              		.loc 1 176 0
 222 00c0 0620     		movs	r0, #6
 223 00c2 B9F10102 		subs	r2, r9, #1
 224 00c6 5342     		rsbs	r3, r2, #0
 225 00c8 53EB0201 		adcs	r1, r3, r2
ARM GAS  C:\Users\DNIEL~1\AppData\Local\Temp\cciErhMR.s 			page 5


 226 00cc FFF7FEFF 		bl	_test_assert
 227              	.LVL25:
 228 00d0 0028     		cmp	r0, #0
 229 00d2 A9D1     		bne	.L4
 230              		.loc 1 177 0
 231 00d4 4FF0FF30 		mov	r0, #-1
 232 00d8 FFF7FEFF 		bl	chEvtGetAndClearEvents
 233              	.LVL26:
 234              		.loc 1 178 0
 235 00dc D0F10101 		rsbs	r1, r0, #1
 236 00e0 38BF     		it	cc
 237 00e2 0021     		movcc	r1, #0
 238 00e4 0720     		movs	r0, #7
 239              	.LVL27:
 240 00e6 FFF7FEFF 		bl	_test_assert
 241              	.LVL28:
 242 00ea 0028     		cmp	r0, #0
 243 00ec 9CD1     		bne	.L4
 244              		.loc 1 179 0
 245 00ee FFF7FEFF 		bl	test_wait_threads
 246              	.LVL29:
 247              		.loc 1 184 0
 248 00f2 0520     		movs	r0, #5
 249 00f4 FFF7FEFF 		bl	chEvtAddEvents
 250              	.LVL30:
 251              		.loc 1 185 0
 252 00f8 4FF0FF30 		mov	r0, #-1
 253 00fc FFF7FEFF 		bl	chEvtWaitAny
 254              	.LVL31:
 255              		.loc 1 186 0
 256 0100 B0F1050C 		subs	ip, r0, #5
 257 0104 DCF10001 		rsbs	r1, ip, #0
 258 0108 51EB0C01 		adcs	r1, r1, ip
 259 010c 0820     		movs	r0, #8
 260              	.LVL32:
 261 010e FFF7FEFF 		bl	_test_assert
 262              	.LVL33:
 263 0112 0028     		cmp	r0, #0
 264 0114 88D1     		bne	.L4
 265              		.loc 1 187 0
 266 0116 4FF0FF30 		mov	r0, #-1
 267 011a FFF7FEFF 		bl	chEvtGetAndClearEvents
 268              	.LVL34:
 269              		.loc 1 188 0
 270 011e D0F10101 		rsbs	r1, r0, #1
 271 0122 38BF     		it	cc
 272 0124 0021     		movcc	r1, #0
 273 0126 0920     		movs	r0, #9
 274              	.LVL35:
 275 0128 FFF7FEFF 		bl	_test_assert
 276              	.LVL36:
 277 012c 0028     		cmp	r0, #0
 278 012e 7FF47BAF 		bne	.L4
 279              		.loc 1 193 0
 280 0132 FFF7FEFF 		bl	test_wait_tick
 281              	.LVL37:
 282              		.loc 1 195 0
ARM GAS  C:\Users\DNIEL~1\AppData\Local\Temp\cciErhMR.s 			page 6


 283 0136 D8F81840 		ldr	r4, [r8, #24]
 284              	.LVL38:
 285 013a 4A4B     		ldr	r3, .L9+12
 286 013c A068     		ldr	r0, [r4, #8]
 287 013e 0094     		str	r4, [sp, #0]
 288 0140 421E     		subs	r2, r0, #1
 289 0142 4FF4A871 		mov	r1, #336
 290 0146 3846     		mov	r0, r7
 291              		.loc 1 194 0
 292 0148 F468     		ldr	r4, [r6, #12]
 293              	.LVL39:
 294              		.loc 1 195 0
 295 014a FFF7FEFF 		bl	chThdCreateStatic
 296              	.LVL40:
 297 014e 2860     		str	r0, [r5, #0]
 298              		.loc 1 197 0
 299 0150 4FF0FF30 		mov	r0, #-1
 300 0154 FFF7FEFF 		bl	chEvtWaitAny
 301              	.LVL41:
 302              		.loc 1 198 0
 303 0158 04F13201 		add	r1, r4, #50
 304              	.LVL42:
 305              		.loc 1 197 0
 306 015c 8146     		mov	r9, r0
 307              	.LVL43:
 308              		.loc 1 198 0
 309 015e 04F13702 		add	r2, r4, #55
 310 0162 0A20     		movs	r0, #10
 311              	.LVL44:
 312 0164 FFF7FEFF 		bl	_test_assert_time_window
 313              	.LVL45:
 314 0168 0028     		cmp	r0, #0
 315 016a 7FF45DAF 		bne	.L4
 316              		.loc 1 199 0
 317 016e 0B20     		movs	r0, #11
 318 0170 B9F1010E 		subs	lr, r9, #1
 319 0174 DEF10002 		rsbs	r2, lr, #0
 320 0178 52EB0E01 		adcs	r1, r2, lr
 321 017c FFF7FEFF 		bl	_test_assert
 322              	.LVL46:
 323 0180 0028     		cmp	r0, #0
 324 0182 7FF451AF 		bne	.L4
 325              		.loc 1 200 0
 326 0186 4FF0FF30 		mov	r0, #-1
 327 018a FFF7FEFF 		bl	chEvtGetAndClearEvents
 328              	.LVL47:
 329              		.loc 1 201 0
 330 018e D0F10101 		rsbs	r1, r0, #1
 331 0192 38BF     		it	cc
 332 0194 0021     		movcc	r1, #0
 333 0196 0C20     		movs	r0, #12
 334              	.LVL48:
 335 0198 FFF7FEFF 		bl	_test_assert
 336              	.LVL49:
 337 019c 0028     		cmp	r0, #0
 338 019e 7FF443AF 		bne	.L4
 339              		.loc 1 207 0
ARM GAS  C:\Users\DNIEL~1\AppData\Local\Temp\cciErhMR.s 			page 7


 340 01a2 DFF8D490 		ldr	r9, .L9+32
 341              		.loc 1 208 0
 342 01a6 304C     		ldr	r4, .L9+16
 343              	.LVL50:
 344              		.loc 1 202 0
 345 01a8 FFF7FEFF 		bl	test_wait_threads
 346              	.LVL51:
 347              		.loc 1 209 0
 348 01ac 4846     		mov	r0, r9
 349 01ae 02A9     		add	r1, sp, #8
 350 01b0 0122     		movs	r2, #1
 351              		.loc 1 207 0
 352 01b2 C9F80090 		str	r9, [r9, #0]
 353              		.loc 1 208 0
 354 01b6 2460     		str	r4, [r4, #0]
 355              		.loc 1 209 0
 356 01b8 FFF7FEFF 		bl	chEvtRegisterMask
 357              	.LVL52:
 358              		.loc 1 210 0
 359 01bc 06A9     		add	r1, sp, #24
 360 01be 0422     		movs	r2, #4
 361 01c0 2046     		mov	r0, r4
 362 01c2 FFF7FEFF 		bl	chEvtRegisterMask
 363              	.LVL53:
 364              		.loc 1 211 0
 365 01c6 FFF7FEFF 		bl	test_wait_tick
 366              	.LVL54:
 367              		.loc 1 213 0
 368 01ca D8F81830 		ldr	r3, [r8, #24]
 369 01ce 2749     		ldr	r1, .L9+20
 370 01d0 9868     		ldr	r0, [r3, #8]
 371 01d2 0091     		str	r1, [sp, #0]
 372 01d4 421E     		subs	r2, r0, #1
 373 01d6 4FF4A871 		mov	r1, #336
 374 01da 254B     		ldr	r3, .L9+24
 375              		.loc 1 212 0
 376 01dc F668     		ldr	r6, [r6, #12]
 377              	.LVL55:
 378              		.loc 1 213 0
 379 01de 3846     		mov	r0, r7
 380 01e0 FFF7FEFF 		bl	chThdCreateStatic
 381              	.LVL56:
 382 01e4 2860     		str	r0, [r5, #0]
 383              		.loc 1 215 0
 384 01e6 0520     		movs	r0, #5
 385 01e8 FFF7FEFF 		bl	chEvtWaitAll
 386              	.LVL57:
 387              		.loc 1 216 0
 388 01ec 0D20     		movs	r0, #13
 389 01ee 06F13201 		add	r1, r6, #50
 390              	.LVL58:
 391 01f2 06F13702 		add	r2, r6, #55
 392 01f6 FFF7FEFF 		bl	_test_assert_time_window
 393              	.LVL59:
 394 01fa 0028     		cmp	r0, #0
 395 01fc 7FF414AF 		bne	.L4
 396              		.loc 1 217 0
ARM GAS  C:\Users\DNIEL~1\AppData\Local\Temp\cciErhMR.s 			page 8


 397 0200 4FF0FF30 		mov	r0, #-1
 398 0204 FFF7FEFF 		bl	chEvtGetAndClearEvents
 399              	.LVL60:
 400              		.loc 1 218 0
 401 0208 D0F10101 		rsbs	r1, r0, #1
 402 020c 38BF     		it	cc
 403 020e 0021     		movcc	r1, #0
 404 0210 0E20     		movs	r0, #14
 405              	.LVL61:
 406 0212 FFF7FEFF 		bl	_test_assert
 407              	.LVL62:
 408 0216 0028     		cmp	r0, #0
 409 0218 7FF406AF 		bne	.L4
 410              		.loc 1 219 0
 411 021c FFF7FEFF 		bl	test_wait_threads
 412              	.LVL63:
 413              		.loc 1 220 0
 414 0220 4846     		mov	r0, r9
 415 0222 02A9     		add	r1, sp, #8
 416 0224 FFF7FEFF 		bl	chEvtUnregister
 417              	.LVL64:
 418              		.loc 1 221 0
 419 0228 2046     		mov	r0, r4
 420 022a 06A9     		add	r1, sp, #24
 421 022c FFF7FEFF 		bl	chEvtUnregister
 422              	.LVL65:
 423              		.loc 1 222 0
 424 0230 D9F80020 		ldr	r2, [r9, #0]
 425 0234 0F20     		movs	r0, #15
 426 0236 B2EB0903 		subs	r3, r2, r9
 427 023a 5942     		rsbs	r1, r3, #0
 428 023c 5941     		adcs	r1, r1, r3
 429 023e FFF7FEFF 		bl	_test_assert
 430              	.LVL66:
 431 0242 0028     		cmp	r0, #0
 432 0244 7FF4F0AE 		bne	.L4
 433              		.loc 1 223 0
 434 0248 2268     		ldr	r2, [r4, #0]
 435 024a 1020     		movs	r0, #16
 436 024c 131B     		subs	r3, r2, r4
 437 024e 5942     		rsbs	r1, r3, #0
 438 0250 5941     		adcs	r1, r1, r3
 439 0252 FFF7FEFF 		bl	_test_assert
 440              	.LVL67:
 441 0256 E7E6     		b	.L4
 442              	.L10:
 443              		.align	2
 444              	.L9:
 445 0258 00000000 		.word	wa
 446 025c 00000000 		.word	vtlist
 447 0260 00000000 		.word	threads
 448 0264 00000000 		.word	thread1
 449 0268 00000000 		.word	.LANCHOR1
 450 026c 00000000 		.word	.LC0
 451 0270 00000000 		.word	thread2
 452 0274 00000000 		.word	rlist
 453 0278 00000000 		.word	.LANCHOR0
ARM GAS  C:\Users\DNIEL~1\AppData\Local\Temp\cciErhMR.s 			page 9


 454              		.cfi_endproc
 455              	.LFE15:
 456              		.size	evt2_execute, .-evt2_execute
 457 027c AFF30080 		.section	.text.thread2,"ax",%progbits
 458              		.align	2
 459              		.p2align 4,,15
 460              		.thumb
 461              		.thumb_func
 462              		.type	thread2, %function
 463              	thread2:
 464              	.LFB14:
 465              		.loc 1 140 0
 466              		.cfi_startproc
 467              		@ args = 0, pretend = 0, frame = 0
 468              		@ frame_needed = 0, uses_anonymous_args = 0
 469              	.LVL68:
 470              		.loc 1 143 0
 471 0000 40F20000 		movw	r0, #:lower16:.LANCHOR0
 472              	.LVL69:
 473              		.loc 1 140 0
 474 0004 08B5     		push	{r3, lr}
 475              	.LCFI2:
 476              		.cfi_def_cfa_offset 8
 477              		.cfi_offset 3, -8
 478              		.cfi_offset 14, -4
 479              		.loc 1 143 0
 480 0006 0021     		movs	r1, #0
 481 0008 C0F20000 		movt	r0, #:upper16:.LANCHOR0
 482 000c FFF7FEFF 		bl	chEvtBroadcastFlags
 483              	.LVL70:
 484              		.loc 1 144 0
 485 0010 3220     		movs	r0, #50
 486 0012 FFF7FEFF 		bl	chThdSleep
 487              	.LVL71:
 488              		.loc 1 145 0
 489 0016 40F20000 		movw	r0, #:lower16:.LANCHOR1
 490 001a C0F20000 		movt	r0, #:upper16:.LANCHOR1
 491 001e 0021     		movs	r1, #0
 492 0020 FFF7FEFF 		bl	chEvtBroadcastFlags
 493              	.LVL72:
 494              		.loc 1 147 0
 495 0024 0020     		movs	r0, #0
 496 0026 08BD     		pop	{r3, pc}
 497              		.cfi_endproc
 498              	.LFE14:
 499              		.size	thread2, .-thread2
 500 0028 AFF30080 		.section	.text.thread1,"ax",%progbits
 500      AFF30080 
 501              		.align	2
 502              		.p2align 4,,15
 503              		.thumb
 504              		.thumb_func
 505              		.type	thread1, %function
 506              	thread1:
 507              	.LFB13:
 508              		.loc 1 133 0
 509              		.cfi_startproc
ARM GAS  C:\Users\DNIEL~1\AppData\Local\Temp\cciErhMR.s 			page 10


 510              		@ args = 0, pretend = 0, frame = 0
 511              		@ frame_needed = 0, uses_anonymous_args = 0
 512              	.LVL73:
 513 0000 10B5     		push	{r4, lr}
 514              	.LCFI3:
 515              		.cfi_def_cfa_offset 8
 516              		.cfi_offset 4, -8
 517              		.cfi_offset 14, -4
 518              		.loc 1 133 0
 519 0002 0446     		mov	r4, r0
 520              		.loc 1 135 0
 521 0004 3220     		movs	r0, #50
 522              	.LVL74:
 523 0006 FFF7FEFF 		bl	chThdSleep
 524              	.LVL75:
 525              		.loc 1 136 0
 526 000a 2046     		mov	r0, r4
 527 000c 0121     		movs	r1, #1
 528 000e FFF7FEFF 		bl	chEvtSignal
 529              	.LVL76:
 530              		.loc 1 138 0
 531 0012 0020     		movs	r0, #0
 532 0014 10BD     		pop	{r4, pc}
 533              		.cfi_endproc
 534              	.LFE13:
 535              		.size	thread1, .-thread1
 536 0016 00BFAFF3 		.section	.text.evt1_execute,"ax",%progbits
 536      0080AFF3 
 536      0080
 537              		.align	2
 538              		.p2align 4,,15
 539              		.thumb
 540              		.thumb_func
 541              		.type	evt1_execute, %function
 542              	evt1_execute:
 543              	.LFB11:
 544              		.loc 1 85 0
 545              		.cfi_startproc
 546              		@ args = 0, pretend = 0, frame = 32
 547              		@ frame_needed = 0, uses_anonymous_args = 0
 548 0000 10B5     		push	{r4, lr}
 549              	.LCFI4:
 550              		.cfi_def_cfa_offset 8
 551              		.cfi_offset 4, -8
 552              		.cfi_offset 14, -4
 553              		.loc 1 91 0
 554 0002 1D4C     		ldr	r4, .L17
 555              		.loc 1 85 0
 556 0004 88B0     		sub	sp, sp, #32
 557              	.LCFI5:
 558              		.cfi_def_cfa_offset 40
 559              		.loc 1 92 0
 560 0006 0122     		movs	r2, #1
 561 0008 2046     		mov	r0, r4
 562 000a 6946     		mov	r1, sp
 563              		.loc 1 91 0
 564 000c 2460     		str	r4, [r4, #0]
ARM GAS  C:\Users\DNIEL~1\AppData\Local\Temp\cciErhMR.s 			page 11


 565              		.loc 1 92 0
 566 000e FFF7FEFF 		bl	chEvtRegisterMask
 567              	.LVL77:
 568              		.loc 1 93 0
 569 0012 2046     		mov	r0, r4
 570 0014 04A9     		add	r1, sp, #16
 571 0016 0222     		movs	r2, #2
 572 0018 FFF7FEFF 		bl	chEvtRegisterMask
 573              	.LVL78:
 574              		.loc 1 94 0
 575 001c 2168     		ldr	r1, [r4, #0]
 576 001e 0120     		movs	r0, #1
 577 0020 091B     		subs	r1, r1, r4
 578 0022 18BF     		it	ne
 579 0024 0121     		movne	r1, #1
 580 0026 FFF7FEFF 		bl	_test_assert
 581              	.LVL79:
 582 002a 08B1     		cbz	r0, .L16
 583              	.L13:
 584              		.loc 1 105 0
 585 002c 08B0     		add	sp, sp, #32
 586 002e 10BD     		pop	{r4, pc}
 587              	.L16:
 588              		.loc 1 95 0
 589 0030 2046     		mov	r0, r4
 590 0032 6946     		mov	r1, sp
 591 0034 FFF7FEFF 		bl	chEvtUnregister
 592              	.LVL80:
 593              		.loc 1 96 0
 594 0038 2268     		ldr	r2, [r4, #0]
 595 003a 0220     		movs	r0, #2
 596 003c 111B     		subs	r1, r2, r4
 597 003e 18BF     		it	ne
 598 0040 0121     		movne	r1, #1
 599 0042 FFF7FEFF 		bl	_test_assert
 600              	.LVL81:
 601 0046 0028     		cmp	r0, #0
 602 0048 F0D1     		bne	.L13
 603              		.loc 1 97 0
 604 004a 2046     		mov	r0, r4
 605 004c 04A9     		add	r1, sp, #16
 606 004e FFF7FEFF 		bl	chEvtUnregister
 607              	.LVL82:
 608              		.loc 1 98 0
 609 0052 2368     		ldr	r3, [r4, #0]
 610 0054 0320     		movs	r0, #3
 611 0056 1A1B     		subs	r2, r3, r4
 612 0058 5142     		rsbs	r1, r2, #0
 613 005a 5141     		adcs	r1, r1, r2
 614 005c FFF7FEFF 		bl	_test_assert
 615              	.LVL83:
 616 0060 0028     		cmp	r0, #0
 617 0062 E3D1     		bne	.L13
 618              		.loc 1 103 0
 619 0064 0721     		movs	r1, #7
 620 0066 0548     		ldr	r0, .L17+4
 621 0068 FFF7FEFF 		bl	chEvtDispatch
ARM GAS  C:\Users\DNIEL~1\AppData\Local\Temp\cciErhMR.s 			page 12


 622              	.LVL84:
 623              		.loc 1 104 0
 624 006c 0420     		movs	r0, #4
 625 006e 0449     		ldr	r1, .L17+8
 626 0070 FFF7FEFF 		bl	_test_assert_sequence
 627              	.LVL85:
 628 0074 DAE7     		b	.L13
 629              	.L18:
 630 0076 00BF     		.align	2
 631              	.L17:
 632 0078 00000000 		.word	.LANCHOR0
 633 007c 00000000 		.word	.LANCHOR2
 634 0080 04000000 		.word	.LC1
 635              		.cfi_endproc
 636              	.LFE11:
 637              		.size	evt1_execute, .-evt1_execute
 638 0084 AFF30080 		.section	.text.h3,"ax",%progbits
 638      AFF30080 
 638      AFF30080 
 639              		.align	2
 640              		.p2align 4,,15
 641              		.thumb
 642              		.thumb_func
 643              		.type	h3, %function
 644              	h3:
 645              	.LFB10:
 646              		.loc 1 82 0
 647              		.cfi_startproc
 648              		@ args = 0, pretend = 0, frame = 0
 649              		@ frame_needed = 0, uses_anonymous_args = 0
 650              		@ link register save eliminated.
 651              	.LVL86:
 652              		.loc 1 82 0
 653 0000 4320     		movs	r0, #67
 654              	.LVL87:
 655 0002 FFF7FEBF 		b	test_emit_token
 656              	.LVL88:
 657              		.cfi_endproc
 658              	.LFE10:
 659              		.size	h3, .-h3
 660 0006 00BFAFF3 		.section	.text.h2,"ax",%progbits
 660      0080AFF3 
 660      0080
 661              		.align	2
 662              		.p2align 4,,15
 663              		.thumb
 664              		.thumb_func
 665              		.type	h2, %function
 666              	h2:
 667              	.LFB9:
 668              		.loc 1 81 0
 669              		.cfi_startproc
 670              		@ args = 0, pretend = 0, frame = 0
 671              		@ frame_needed = 0, uses_anonymous_args = 0
 672              		@ link register save eliminated.
 673              	.LVL89:
 674              		.loc 1 81 0
ARM GAS  C:\Users\DNIEL~1\AppData\Local\Temp\cciErhMR.s 			page 13


 675 0000 4220     		movs	r0, #66
 676              	.LVL90:
 677 0002 FFF7FEBF 		b	test_emit_token
 678              	.LVL91:
 679              		.cfi_endproc
 680              	.LFE9:
 681              		.size	h2, .-h2
 682 0006 00BFAFF3 		.section	.text.h1,"ax",%progbits
 682      0080AFF3 
 682      0080
 683              		.align	2
 684              		.p2align 4,,15
 685              		.thumb
 686              		.thumb_func
 687              		.type	h1, %function
 688              	h1:
 689              	.LFB8:
 690              		.loc 1 80 0
 691              		.cfi_startproc
 692              		@ args = 0, pretend = 0, frame = 0
 693              		@ frame_needed = 0, uses_anonymous_args = 0
 694              		@ link register save eliminated.
 695              	.LVL92:
 696              		.loc 1 80 0
 697 0000 4120     		movs	r0, #65
 698              	.LVL93:
 699 0002 FFF7FEBF 		b	test_emit_token
 700              	.LVL94:
 701              		.cfi_endproc
 702              	.LFE8:
 703              		.size	h1, .-h1
 704 0006 00BFAFF3 		.section	.text.evt3_execute,"ax",%progbits
 704      0080AFF3 
 704      0080
 705              		.align	2
 706              		.p2align 4,,15
 707              		.thumb
 708              		.thumb_func
 709              		.type	evt3_execute, %function
 710              	evt3_execute:
 711              	.LFB17:
 712              		.loc 1 254 0
 713              		.cfi_startproc
 714              		@ args = 0, pretend = 0, frame = 0
 715              		@ frame_needed = 0, uses_anonymous_args = 0
 716 0000 08B5     		push	{r3, lr}
 717              	.LCFI6:
 718              		.cfi_def_cfa_offset 8
 719              		.cfi_offset 3, -8
 720              		.cfi_offset 14, -4
 721              		.loc 1 260 0
 722 0002 0021     		movs	r1, #0
 723 0004 4FF0FF30 		mov	r0, #-1
 724 0008 FFF7FEFF 		bl	chEvtWaitOneTimeout
 725              	.LVL95:
 726              		.loc 1 261 0
 727 000c D0F10101 		rsbs	r1, r0, #1
ARM GAS  C:\Users\DNIEL~1\AppData\Local\Temp\cciErhMR.s 			page 14


 728 0010 38BF     		it	cc
 729 0012 0021     		movcc	r1, #0
 730 0014 0120     		movs	r0, #1
 731              	.LVL96:
 732 0016 FFF7FEFF 		bl	_test_assert
 733              	.LVL97:
 734 001a 00B1     		cbz	r0, .L26
 735              	.L22:
 736 001c 08BD     		pop	{r3, pc}
 737              	.L26:
 738              		.loc 1 262 0
 739 001e 0146     		mov	r1, r0
 740 0020 4FF0FF30 		mov	r0, #-1
 741 0024 FFF7FEFF 		bl	chEvtWaitAnyTimeout
 742              	.LVL98:
 743              		.loc 1 263 0
 744 0028 D0F10101 		rsbs	r1, r0, #1
 745 002c 38BF     		it	cc
 746 002e 0021     		movcc	r1, #0
 747 0030 0220     		movs	r0, #2
 748              	.LVL99:
 749 0032 FFF7FEFF 		bl	_test_assert
 750              	.LVL100:
 751 0036 0028     		cmp	r0, #0
 752 0038 F0D1     		bne	.L22
 753              		.loc 1 264 0
 754 003a 0146     		mov	r1, r0
 755 003c 4FF0FF30 		mov	r0, #-1
 756 0040 FFF7FEFF 		bl	chEvtWaitAllTimeout
 757              	.LVL101:
 758              		.loc 1 265 0
 759 0044 D0F10101 		rsbs	r1, r0, #1
 760 0048 38BF     		it	cc
 761 004a 0021     		movcc	r1, #0
 762 004c 0320     		movs	r0, #3
 763              	.LVL102:
 764 004e FFF7FEFF 		bl	_test_assert
 765              	.LVL103:
 766 0052 0028     		cmp	r0, #0
 767 0054 E2D1     		bne	.L22
 768              	.LBB4:
 769              	.LBB5:
 770              		.loc 1 266 0
 771 0056 0A21     		movs	r1, #10
 772 0058 4FF0FF30 		mov	r0, #-1
 773 005c FFF7FEFF 		bl	chEvtWaitOneTimeout
 774              	.LVL104:
 775              		.loc 1 267 0
 776 0060 D0F10101 		rsbs	r1, r0, #1
 777 0064 38BF     		it	cc
 778 0066 0021     		movcc	r1, #0
 779 0068 0420     		movs	r0, #4
 780              	.LVL105:
 781 006a FFF7FEFF 		bl	_test_assert
 782              	.LVL106:
 783 006e 0028     		cmp	r0, #0
 784 0070 D4D1     		bne	.L22
ARM GAS  C:\Users\DNIEL~1\AppData\Local\Temp\cciErhMR.s 			page 15


 785              		.loc 1 268 0
 786 0072 0A21     		movs	r1, #10
 787 0074 4FF0FF30 		mov	r0, #-1
 788 0078 FFF7FEFF 		bl	chEvtWaitAnyTimeout
 789              	.LVL107:
 790              		.loc 1 269 0
 791 007c D0F10101 		rsbs	r1, r0, #1
 792 0080 38BF     		it	cc
 793 0082 0021     		movcc	r1, #0
 794 0084 0520     		movs	r0, #5
 795              	.LVL108:
 796 0086 FFF7FEFF 		bl	_test_assert
 797              	.LVL109:
 798 008a 0028     		cmp	r0, #0
 799 008c C6D1     		bne	.L22
 800              		.loc 1 270 0
 801 008e 0A21     		movs	r1, #10
 802 0090 4FF0FF30 		mov	r0, #-1
 803 0094 FFF7FEFF 		bl	chEvtWaitAllTimeout
 804              	.LVL110:
 805              		.loc 1 271 0
 806 0098 D0F10101 		rsbs	r1, r0, #1
 807 009c 38BF     		it	cc
 808 009e 0021     		movcc	r1, #0
 809 00a0 0620     		movs	r0, #6
 810              	.LVL111:
 811              	.LBE5:
 812              	.LBE4:
 813              		.loc 1 272 0
 814 00a2 BDE80840 		pop	{r3, lr}
 815              	.LBB7:
 816              	.LBB6:
 817              		.loc 1 271 0
 818 00a6 FFF7FEBF 		b	_test_assert
 819              	.LVL112:
 820              	.LBE6:
 821              	.LBE7:
 822              		.cfi_endproc
 823              	.LFE17:
 824              		.size	evt3_execute, .-evt3_execute
 825              		.global	patternevt
 826              		.global	testevt3
 827              		.global	testevt2
 828              		.global	testevt1
 829 00aa 00BFAFF3 		.section	.rodata.patternevt,"a",%progbits
 829      0080
 830              		.align	2
 831              		.type	patternevt, %object
 832              		.size	patternevt, 16
 833              	patternevt:
 834 0000 00000000 		.word	testevt1
 835 0004 00000000 		.word	testevt2
 836 0008 00000000 		.word	testevt3
 837 000c 00000000 		.word	0
 838              		.section	.rodata.testevt2,"a",%progbits
 839              		.align	2
 840              		.type	testevt2, %object
ARM GAS  C:\Users\DNIEL~1\AppData\Local\Temp\cciErhMR.s 			page 16


 841              		.size	testevt2, 16
 842              	testevt2:
 843 0000 1C000000 		.word	.LC3
 844 0004 00000000 		.word	evt2_setup
 845 0008 00000000 		.word	0
 846 000c 00000000 		.word	evt2_execute
 847              		.section	.rodata.str1.4,"aMS",%progbits,1
 848              		.align	2
 849              	.LC0:
 850 0000 4100     		.ascii	"A\000"
 851 0002 0000     		.space	2
 852              	.LC1:
 853 0004 41424300 		.ascii	"ABC\000"
 854              	.LC2:
 855 0008 4576656E 		.ascii	"Events, timeouts\000"
 855      74732C20 
 855      74696D65 
 855      6F757473 
 855      00
 856 0019 000000   		.space	3
 857              	.LC3:
 858 001c 4576656E 		.ascii	"Events, wait and broadcast\000"
 858      74732C20 
 858      77616974 
 858      20616E64 
 858      2062726F 
 859 0037 00       		.space	1
 860              	.LC4:
 861 0038 4576656E 		.ascii	"Events, registration and dispatch\000"
 861      74732C20 
 861      72656769 
 861      73747261 
 861      74696F6E 
 862 005a 0000     		.section	.rodata.testevt1,"a",%progbits
 863              		.align	2
 864              		.type	testevt1, %object
 865              		.size	testevt1, 16
 866              	testevt1:
 867 0000 38000000 		.word	.LC4
 868 0004 00000000 		.word	evt1_setup
 869 0008 00000000 		.word	0
 870 000c 00000000 		.word	evt1_execute
 871              		.section	.rodata.evhndl,"a",%progbits
 872              		.align	2
 873              		.set	.LANCHOR2,. + 0
 874              		.type	evhndl, %object
 875              		.size	evhndl, 12
 876              	evhndl:
 877 0000 00000000 		.word	h1
 878 0004 00000000 		.word	h2
 879 0008 00000000 		.word	h3
 880              		.section	.rodata.testevt3,"a",%progbits
 881              		.align	2
 882              		.type	testevt3, %object
 883              		.size	testevt3, 16
 884              	testevt3:
 885 0000 08000000 		.word	.LC2
ARM GAS  C:\Users\DNIEL~1\AppData\Local\Temp\cciErhMR.s 			page 17


 886 0004 00000000 		.word	evt3_setup
 887 0008 00000000 		.word	0
 888 000c 00000000 		.word	evt3_execute
 889              		.section	.data.es1,"aw",%progbits
 890              		.align	2
 891              		.set	.LANCHOR0,. + 0
 892              		.type	es1, %object
 893              		.size	es1, 4
 894              	es1:
 895 0000 00000000 		.word	es1
 896              		.section	.data.es2,"aw",%progbits
 897              		.align	2
 898              		.set	.LANCHOR1,. + 0
 899              		.type	es2, %object
 900              		.size	es2, 4
 901              	es2:
 902 0000 00000000 		.word	es2
 903              		.text
 904              	.Letext0:
 905              		.file 2 "c:\\chibistudio\\tools\\gnu tools arm embedded\\4.7 2014q2\\bin\\../lib/gcc/arm-none-eabi
 906              		.file 3 "c:\\chibistudio\\tools\\gnu tools arm embedded\\4.7 2014q2\\bin\\../lib/gcc/arm-none-eabi
 907              		.file 4 "../../../ChibiOS/os/ports/GCC/ARMCMx/chtypes.h"
 908              		.file 5 "../../../ChibiOS/os/kernel/include/chlists.h"
 909              		.file 6 "../../../ChibiOS/os/kernel/include/chthreads.h"
 910              		.file 7 "../../../ChibiOS/os/ports/GCC/ARMCMx/chcore_v7m.h"
 911              		.file 8 "../../../ChibiOS/os/kernel/include/chvt.h"
 912              		.file 9 "../../../ChibiOS/os/kernel/include/chschd.h"
 913              		.file 10 "../../../ChibiOS/os/kernel/include/chmtx.h"
 914              		.file 11 "../../../ChibiOS/os/kernel/include/chevents.h"
 915              		.file 12 "../../../ChibiOS/test/test.h"