ARM GAS  C:\Users\DNIEL~1\AppData\Local\Temp\cciErhMR.s 			page 1


   1              		.syntax unified
   2              		.cpu cortex-m4
   3              		.fpu softvfp
   4              		.eabi_attribute 20, 1
   5              		.eabi_attribute 21, 1
   6              		.eabi_attribute 23, 3
   7              		.eabi_attribute 24, 1
   8              		.eabi_attribute 25, 1
   9              		.eabi_attribute 26, 1
  10              		.eabi_attribute 30, 2
  11              		.eabi_attribute 34, 1
  12              		.eabi_attribute 18, 4
  13              		.thumb
  14              		.file	"testevt.c"
  15              		.text
  16              	.Ltext0:
  17              		.cfi_sections	.debug_frame
  18              		.section	.text.evt3_setup,"ax",%progbits
  19              		.align	2
  20              		.p2align 4,,15
  21              		.thumb
  22              		.thumb_func
  23              		.type	evt3_setup, %function
  24              	evt3_setup:
  25              	.LFB16:
  26              		.file 1 "../../../ChibiOS/test/testevt.c"
  27              		.loc 1 249 0
  28              		.cfi_startproc
  29              		@ args = 0, pretend = 0, frame = 0
  30              		@ frame_needed = 0, uses_anonymous_args = 0
  31              		@ link register save eliminated.
  32              		.loc 1 251 0
  33 0000 4FF0FF30 		mov	r0, #-1
  34              		.loc 1 252 0
  35              		.loc 1 251 0
  36 0004 FFF7FEBF 		b	chEvtGetAndClearEvents
  37              	.LVL0:
  38              		.cfi_endproc
  39              	.LFE16:
  40              		.size	evt3_setup, .-evt3_setup
  41 0008 AFF30080 		.section	.text.evt2_setup,"ax",%progbits
  41      AFF30080 
  42              		.align	2
  43              		.p2align 4,,15
  44              		.thumb
  45              		.thumb_func
  46              		.type	evt2_setup, %function
  47              	evt2_setup:
  48              	.LFB12:
  49              		.loc 1 128 0
  50              		.cfi_startproc
  51              		@ args = 0, pretend = 0, frame = 0
  52              		@ frame_needed = 0, uses_anonymous_args = 0
  53              		@ link register save eliminated.
  54              		.loc 1 130 0
  55 0000 4FF0FF30 		mov	r0, #-1
  56              		.loc 1 131 0
ARM GAS  C:\Users\DNIEL~1\AppData\Local\Temp\cciErhMR.s 			page 2


  57              		.loc 1 130 0
  58 0004 FFF7FEBF 		b	chEvtGetAndClearEvents
  59              	.LVL1:
  60              		.cfi_endproc
  61              	.LFE12:
  62              		.size	evt2_setup, .-evt2_setup
  63 0008 AFF30080 		.section	.text.evt1_setup,"ax",%progbits
  63      AFF30080 
  64              		.align	2
  65              		.p2align 4,,15
  66              		.thumb
  67              		.thumb_func
  68              		.type	evt1_setup, %function
  69              	evt1_setup:
  70              	.LFB7:
  71              		.loc 1 75 0
  72              		.cfi_startproc
  73              		@ args = 0, pretend = 0, frame = 0
  74              		@ frame_needed = 0, uses_anonymous_args = 0
  75              		@ link register save eliminated.
  76              		.loc 1 77 0
  77 0000 4FF0FF30 		mov	r0, #-1
  78              		.loc 1 78 0
  79              		.loc 1 77 0
  80 0004 FFF7FEBF 		b	chEvtGetAndClearEvents
  81              	.LVL2:
  82              		.cfi_endproc
  83              	.LFE7:
  84              		.size	evt1_setup, .-evt1_setup
  85 0008 AFF30080 		.section	.text.evt2_execute,"ax",%progbits
  85      AFF30080 
  86              		.align	2
  87              		.p2align 4,,15
  88              		.thumb
  89              		.thumb_func
  90              		.type	evt2_execute, %function
  91              	evt2_execute:
  92              	.LFB15:
  93              		.loc 1 149 0
  94              		.cfi_startproc
  95              		@ args = 0, pretend = 0, frame = 32
  96              		@ frame_needed = 0, uses_anonymous_args = 0
  97 0000 2DE9F043 		push	{r4, r5, r6, r7, r8, r9, lr}
  98              	.LCFI0:
  99              		.cfi_def_cfa_offset 28
 100              		.cfi_offset 4, -28
 101              		.cfi_offset 5, -24
 102              		.cfi_offset 6, -20
 103              		.cfi_offset 7, -16
 104              		.cfi_offset 8, -12
 105              		.cfi_offset 9, -8
 106              		.cfi_offset 14, -4
 107              		.loc 1 157 0
 108 0004 0720     		movs	r0, #7
 109              		.loc 1 149 0
 110 0006 8BB0     		sub	sp, sp, #44
 111              	.LCFI1:
ARM GAS  C:\Users\DNIEL~1\AppData\Local\Temp\cciErhMR.s 			page 3


 112              		.cfi_def_cfa_offset 72
 113              		.loc 1 157 0
 114 0008 FFF7FEFF 		bl	chEvtAddEvents
 115              	.LVL3:
 116              		.loc 1 158 0
 117 000c 4FF0FF30 		mov	r0, #-1
 118 0010 FFF7FEFF 		bl	chEvtWaitOne
 119              	.LVL4:
 120              		.loc 1 159 0
 121 0014 B0F1010E 		subs	lr, r0, #1
 122 0018 DEF10001 		rsbs	r1, lr, #0
 123 001c 51EB0E01 		adcs	r1, r1, lr
 124 0020 0120     		movs	r0, #1
 125              	.LVL5:
 126 0022 FFF7FEFF 		bl	_test_assert
 127              	.LVL6:
 128 0026 10B1     		cbz	r0, .L8
 129              	.L4:
 130              		.loc 1 224 0
 131 0028 0BB0     		add	sp, sp, #44
 132 002a BDE8F083 		pop	{r4, r5, r6, r7, r8, r9, pc}
 133              	.L8:
 134              		.loc 1 160 0
 135 002e 4FF0FF30 		mov	r0, #-1
 136 0032 FFF7FEFF 		bl	chEvtWaitOne
 137              	.LVL7:
 138              		.loc 1 161 0
 139 0036 0238     		subs	r0, r0, #2
 140              	.LVL8:
 141 0038 4242     		rsbs	r2, r0, #0
 142 003a 52EB0001 		adcs	r1, r2, r0
 143 003e 0220     		movs	r0, #2
 144              	.LVL9:
 145 0040 FFF7FEFF 		bl	_test_assert
 146              	.LVL10:
 147 0044 0028     		cmp	r0, #0
 148 0046 EFD1     		bne	.L4
 149              		.loc 1 162 0
 150 0048 4FF0FF30 		mov	r0, #-1
 151 004c FFF7FEFF 		bl	chEvtWaitOne
 152              	.LVL11:
 153              		.loc 1 163 0
 154 0050 031F     		subs	r3, r0, #4
 155 0052 5942     		rsbs	r1, r3, #0
 156 0054 5941     		adcs	r1, r1, r3
 157 0056 0320     		movs	r0, #3
 158              	.LVL12:
 159 0058 FFF7FEFF 		bl	_test_assert
 160              	.LVL13:
 161 005c 0028     		cmp	r0, #0
 162 005e E3D1     		bne	.L4
 163              		.loc 1 164 0
 164 0060 4FF0FF30 		mov	r0, #-1
 165 0064 FFF7FEFF 		bl	chEvtGetAndClearEvents
 166              	.LVL14:
 167              		.loc 1 165 0
 168 0068 D0F10101 		rsbs	r1, r0, #1
ARM GAS  C:\Users\DNIEL~1\AppData\Local\Temp\cciErhMR.s 			page 4


 169 006c 38BF     		it	cc
 170 006e 0021     		movcc	r1, #0
 171 0070 0420     		movs	r0, #4
 172              	.LVL15:
 173 0072 FFF7FEFF 		bl	_test_assert
 174              	.LVL16:
 175 0076 0028     		cmp	r0, #0
 176 0078 D6D1     		bne	.L4
 177              		.loc 1 172 0
 178 007a DFF8F881 		ldr	r8, .L9+28
 179 007e 764F     		ldr	r7, .L9
 180              		.loc 1 171 0
 181 0080 764E     		ldr	r6, .L9+4
 182              		.loc 1 172 0
 183 0082 774D     		ldr	r5, .L9+8
 184              		.loc 1 170 0
 185 0084 FFF7FEFF 		bl	test_wait_tick
 186              	.LVL17:
 187              		.loc 1 172 0
 188 0088 D8F81840 		ldr	r4, [r8, #24]
 189 008c 3F68     		ldr	r7, [r7, #0]
 190 008e A068     		ldr	r0, [r4, #8]
 191 0090 744B     		ldr	r3, .L9+12
 192 0092 0094     		str	r4, [sp, #0]
 193 0094 421E     		subs	r2, r0, #1
 194 0096 4FF4A871 		mov	r1, #336
 195 009a 3846     		mov	r0, r7
 196              		.loc 1 171 0
 197 009c F468     		ldr	r4, [r6, #12]
 198              	.LVL18:
 199              		.loc 1 172 0
 200 009e FFF7FEFF 		bl	chThdCreateStatic
 201              	.LVL19:
 202 00a2 2860     		str	r0, [r5, #0]
 203              		.loc 1 174 0
 204 00a4 4FF0FF30 		mov	r0, #-1
 205 00a8 FFF7FEFF 		bl	chEvtWaitOne
 206              	.LVL20:
 207              		.loc 1 175 0
 208 00ac 04F13201 		add	r1, r4, #50
 209              	.LVL21:
 210              		.loc 1 174 0
 211 00b0 8146     		mov	r9, r0
 212              	.LVL22:
 213              		.loc 1 175 0
 214 00b2 04F13702 		add	r2, r4, #55
 215 00b6 0520     		movs	r0, #5
 216              	.LVL23:
 217 00b8 FFF7FEFF 		bl	_test_assert_time_window
 218              	.LVL24:
 219 00bc 0028     		cmp	r0, #0
 220 00be B3D1     		bne	.L4
 221              		.loc 1 176 0
 222 00c0 0620     		movs	r0, #6
 223 00c2 B9F10102 		subs	r2, r9, #1
 224 00c6 5342     		rsbs	r3, r2, #0
 225 00c8 53EB0201 		adcs	r1, r3, r2
ARM GAS  C:\Users\DNIEL~1\AppData\Local\Temp\cciErhMR.s 			page 5


 226 00cc FFF7FEFF 		bl	_test_assert
 227              	.LVL25:
 228 00d0 0028     		cmp	r0, #0
 229 00d2 A9D1     		bne	.L4
 230              		.loc 1 177 0
 231 00d4 4FF0FF30 		mov	r0, #-1
 232 00d8 FFF7FEFF 		bl	chEvtGetAndClearEvents
 233              	.LVL26:
 234              		.loc 1 178 0
 235 00dc D0F10101 		rsbs	r1, r0, #1
 236 00e0 38BF     		it	cc
 237 00e2 0021     		movcc	r1, #0
 238 00e4 0720     		movs	r0, #7
 239              	.LVL27:
 240 00e6 FFF7FEFF 		bl	_test_assert
 241              	.LVL28:
 242 00ea 0028     		cmp	r0, #0
 243 00ec 9CD1     		bne	.L4
 244              		.loc 1 179 0
 245 00ee FFF7FEFF 		bl	test_wait_threads
 246              	.LVL29:
 247              		.loc 1 184 0
 248 00f2 0520     		movs	r0, #5
 249 00f4 FFF7FEFF 		bl	chEvtAddEvents
 250              	.LVL30:
 251              		.loc 1 185 0
 252 00f8 4FF0FF30 		mov	r0, #-1
 253 00fc FFF7FEFF 		bl	chEvtWaitAny
 254              	.LVL31:
 255              		.loc 1 186 0
 256 0100 B0F1050C 		subs	ip, r0, #5
 257 0104 DCF10001 		rsbs	r1, ip, #0
 258 0108 51EB0C01 		adcs	r1, r1, ip
 259 010c 0820     		movs	r0, #8
 260              	.LVL32:
 261 010e FFF7FEFF 		bl	_test_assert
 262              	.LVL33:
 263 0112 0028     		cmp	r0, #0
 264 0114 88D1     		bne	.L4
 265              		.loc 1 187 0
 266 0116 4FF0FF30 		mov	r0, #-1
 267 011a FFF7FEFF 		bl	chEvtGetAndClearEvents
 268              	.LVL34:
 269              		.loc 1 188 0
 270 011e D0F10101 		rsbs	r1, r0, #1
 271 0122 38BF     		it	cc
 272 0124 0021     		movcc	r1, #0
 273 0126 0920     		movs	r0, #9
 274              	.LVL35:
 275 0128 FFF7FEFF 		bl	_test_assert
 276              	.LVL36:
 277 012c 0028     		cmp	r0, #0
 278 012e 7FF47BAF 		bne	.L4
 279              		.loc 1 193 0
 280 0132 FFF7FEFF 		bl	test_wait_tick
 281              	.LVL37:
 282              		.loc 1 195 0
ARM GAS  C:\Users\DNIEL~1\AppData\Local\Temp\cciErhMR.s 			page 6


 283 0136 D8F81840 		ldr	r4, [r8, #24]
 284              	.LVL38:
 285 013a 4A4B     		ldr	r3, .L9+12
 286 013c A068     		ldr	r0, [r4, #8]
 287 013e 0094     		str	r4, [sp, #0]
 288 0140 421E     		subs	r2, r0, #1
 289 0142 4FF4A871 		mov	r1, #336
 290 0146 3846     		mov	r0, r7
 291              		.loc 1 194 0
 292 0148 F468     		ldr	r4, [r6, #12]
 293              	.LVL39:
 294              		.loc 1 195 0
 295 014a FFF7FEFF 		bl	chThdCreateStatic
 296              	.LVL40:
 297 014e 2860     		str	r0, [r5, #0]
 298              		.loc 1 197 0
 299 0150 4FF0FF30 		mov	r0, #-1
 300 0154 FFF7FEFF 		bl	chEvtWaitAny
 301              	.LVL41:
 302              		.loc 1 198 0
 303 0158 04F13201 		add	r1, r4, #50
 304              	.LVL42:
 305              		.loc 1 197 0
 306 015c 8146     		mov	r9, r0
 307              	.LVL43:
 308              		.loc 1 198 0
 309 015e 04F13702 		add	r2, r4, #55
 310 0162 0A20     		movs	r0, #10
 311              	.LVL44:
 312 0164 FFF7FEFF 		bl	_test_assert_time_window
 313              	.LVL45:
 314 0168 0028     		cmp	r0, #0
 315 016a 7FF45DAF 		bne	.L4
 316              		.loc 1 199 0
 317 016e 0B20     		movs	r0, #11
 318 0170 B9F1010E 		subs	lr, r9, #1
 319 0174 DEF10002 		rsbs	r2, lr, #0
 320 0178 52EB0E01 		adcs	r1, r2, lr
 321 017c FFF7FEFF 		bl	_test_assert
 322              	.LVL46:
 323 0180 0028     		cmp	r0, #0
 324 0182 7FF451AF 		bne	.L4
 325              		.loc 1 200 0
 326 0186 4FF0FF30 		mov	r0, #-1
 327 018a FFF7FEFF 		bl	chEvtGetAndClearEvents
 328              	.LVL47:
 329              		.loc 1 201 0
 330 018e D0F10101 		rsbs	r1, r0, #1
 331 0192 38BF     		it	cc
 332 0194 0021     		movcc	r1, #0
 333 0196 0C20     		movs	r0, #12
 334              	.LVL48:
 335 0198 FFF7FEFF 		bl	_test_assert
 336              	.LVL49:
 337 019c 0028     		cmp	r0, #0
 338 019e 7FF443AF 		bne	.L4
 339              		.loc 1 207 0
ARM GAS  C:\Users\DNIEL~1\AppData\Local\Temp\cciErhMR.s 			page 7


 340 01a2 DFF8D490 		ldr	r9, .L9+32
 341              		.loc 1 208 0
 342 01a6 304C     		ldr	r4, .L9+16
 343              	.LVL50:
 344              		.loc 1 202 0
 345 01a8 FFF7FEFF 		bl	test_wait_threads
 346              	.LVL51:
 347              		.loc 1 209 0
 348 01ac 4846     		mov	r0, r9
 349 01ae 02A9     		add	r1, sp, #8
 350 01b0 0122     		movs	r2, #1
 351              		.loc 1 207 0
 352 01b2 C9F80090 		str	r9, [r9, #0]
 353              		.loc 1 208 0
 354 01b6 2460     		str	r4, [r4, #0]
 355              		.loc 1 209 0
 356 01b8 FFF7FEFF 		bl	chEvtRegisterMask
 357              	.LVL52:
 358              		.loc 1 210 0
 359 01bc 06A9     		add	r1, sp, #24
 360 01be 0422     		movs	r2, #4
 361 01c0 2046     		mov	r0, r4
 362 01c2 FFF7FEFF 		bl	chEvtRegisterMask
 363              	.LVL53:
 364              		.loc 1 211 0
 365 01c6 FFF7FEFF 		bl	test_wait_tick
 366              	.LVL54:
 367              		.loc 1 213 0
 368 01ca D8F81830 		ldr	r3, [r8, #24]
 369 01ce 2749     		ldr	r1, .L9+20
 370 01d0 9868     		ldr	r0, [r3, #8]
 371 01d2 0091     		str	r1, [sp, #0]
 372 01d4 421E     		subs	r2, r0, #1
 373 01d6 4FF4A871 		mov	r1, #336
 374 01da 254B     		ldr	r3, .L9+24
 375              		.loc 1 212 0
 376 01dc F668     		ldr	r6, [r6, #12]
 377              	.LVL55:
 378              		.loc 1 213 0
 379 01de 3846     		mov	r0, r7
 380 01e0 FFF7FEFF 		bl	chThdCreateStatic
 381              	.LVL56:
 382 01e4 2860     		str	r0, [r5, #0]
 383              		.loc 1 215 0
 384 01e6 0520     		movs	r0, #5
 385 01e8 FFF7FEFF 		bl	chEvtWaitAll
 386              	.LVL57:
 387              		.loc 1 216 0
 388 01ec 0D20     		movs	r0, #13
 389 01ee 06F13201 		add	r1, r6, #50
 390              	.LVL58:
 391 01f2 06F13702 		add	r2, r6, #55
 392 01f6 FFF7FEFF 		bl	_test_assert_time_window
 393              	.LVL59:
 394 01fa 0028     		cmp	r0, #0
 395 01fc 7FF414AF 		bne	.L4
 396              		.loc 1 217 0
ARM GAS  C:\Users\DNIEL~1\AppData\Local\Temp\cciErhMR.s 			page 8


 397 0200 4FF0FF30 		mov	r0, #-1
 398 0204 FFF7FEFF 		bl	chEvtGetAndClearEvents
 399              	.LVL60:
 400              		.loc 1 218 0
 401 0208 D0F10101 		rsbs	r1, r0, #1
 402 020c 38BF     		it	cc
 403 020e 0021     		movcc	r1, #0
 404 0210 0E20     		movs	r0, #14
 405              	.LVL61:
 406 0212 FFF7FEFF 		bl	_test_assert
 407              	.LVL62:
 408 0216 0028     		cmp	r0, #0
 409 0218 7FF406AF 		bne	.L4
 410              		.loc 1 219 0
 411 021c FFF7FEFF 		bl	test_wait_threads
 412              	.LVL63:
 413              		.loc 1 220 0
 414 0220 4846     		mov	r0, r9
 415 0222 02A9     		add	r1, sp, #8
 416 0224 FFF7FEFF 		bl	chEvtUnregister
 417              	.LVL64:
 418              		.loc 1 221 0
 419 0228 2046     		mov	r0, r4
 420 022a 06A9     		add	r1, sp, #24
 421 022c FFF7FEFF 		bl	chEvtUnregister
 422              	.LVL65:
 423              		.loc 1 222 0
 424 0230 D9F80020 		ldr	r2, [r9, #0]
 425 0234 0F20     		movs	r0, #15
 426 0236 B2EB0903 		subs	r3, r2, r9
 427 023a 5942     		rsbs	r1, r3, #0
 428 023c 5941     		adcs	r1, r1, r3
 429 023e FFF7FEFF 		bl	_test_assert
 430              	.LVL66:
 431 0242 0028     		cmp	r0, #0
 432 0244 7FF4F0AE 		bne	.L4
 433              		.loc 1 223 0
 434 0248 2268     		ldr	r2, [r4, #0]
 435 024a 1020     		movs	r0, #16
 436 024c 131B     		subs	r3, r2, r4
 437 024e 5942     		rsbs	r1, r3, #0
 438 0250 5941     		adcs	r1, r1, r3
 439 0252 FFF7FEFF 		bl	_test_assert
 440              	.LVL67:
 441 0256 E7E6     		b	.L4
 442              	.L10:
 443              		.align	2
 444              	.L9:
 445 0258 00000000 		.word	wa
 446 025c 00000000 		.word	vtlist
 447 0260 00000000 		.word	threads
 448 0264 00000000 		.word	thread1
 449 0268 00000000 		.word	.LANCHOR1
 450 026c 00000000 		.word	.LC0
 451 0270 00000000 		.word	thread2
 452 0274 00000000 		.word	rlist
 453 0278 00000000 		.word	.LANCHOR0
ARM GAS  C:\Users\DNIEL~1\AppData\Local\Temp\cciErhMR.s 			page 9


 454              		.cfi_endproc
 455              	.LFE15:
 456              		.size	evt2_execute, .-evt2_execute
 457 027c AFF30080 		.section	.text.thread2,"ax",%progbits
 458              		.align	2
 459              		.p2align 4,,15
 460              		.thumb
 461              		.thumb_func
 462              		.type	thread2, %function
 463              	thread2:
 464              	.LFB14:
 465              		.loc 1 140 0
 466              		.cfi_startproc
 467              		@ args = 0, pretend = 0, frame = 0
 468              		@ frame_needed = 0, uses_anonymous_args = 0
 469              	.LVL68:
 470              		.loc 1 143 0
 471 0000 40F20000 		movw	r0, #:lower16:.LANCHOR0
 472              	.LVL69:
 473              		.loc 1 140 0
 474 0004 08B5     		push	{r3, lr}
 475              	.LCFI2:
 476              		.cfi_def_cfa_offset 8
 477              		.cfi_offset 3, -8
 478              		.cfi_offset 14, -4
 479              		.loc 1 143 0
 480 0006 0021     		movs	r1, #0
 481 0008 C0F20000 		movt	r0, #:upper16:.LANCHOR0
 482 000c FFF7FEFF 		bl	chEvtBroadcastFlags
 483              	.LVL70:
 484              		.loc 1 144 0
 485 0010 3220     		movs	r0, #50
 486 0012 FFF7FEFF 		bl	chThdSleep
 487              	.LVL71:
 488              		.loc 1 145 0
 489 0016 40F20000 		movw	r0, #:lower16:.LANCHOR1
 490 001a C0F20000 		movt	r0, #:upper16:.LANCHOR1
 491 001e 0021     		movs	r1, #0
 492 0020 FFF7FEFF 		bl	chEvtBroadcastFlags
 493              	.LVL72:
 494              		.loc 1 147 0
 495 0024 0020     		movs	r0, #0
 496 0026 08BD     		pop	{r3, pc}
 497              		.cfi_endproc
 498              	.LFE14:
 499              		.size	thread2, .-thread2
 500 0028 AFF30080 		.section	.text.thread1,"ax",%progbits
 500      AFF30080 
 501              		.align	2
 502              		.p2align 4,,15
 503              		.thumb
 504              		.thumb_func
 505              		.type	thread1, %function
 506              	thread1:
 507              	.LFB13:
 508              		.loc 1 133 0
 509              		.cfi_startproc
ARM GAS  C:\Users\DNIEL~1\AppData\Local\Temp\cciErhMR.s 			page 10


 510              		@ args = 0, pretend = 0, frame = 0
 511              		@ frame_needed = 0, uses_anonymous_args = 0
 512              	.LVL73:
 513 0000 10B5     		push	{r4, lr}
 514              	.LCFI3:
 515              		.cfi_def_cfa_offset 8
 516              		.cfi_offset 4, -8
 517              		.cfi_offset 14, -4
 518              		.loc 1 133 0
 519 0002 0446     		mov	r4, r0
 520              		.loc 1 135 0
 521 0004 3220     		movs	r0, #50
 522              	.LVL74:
 523 0006 FFF7FEFF 		bl	chThdSleep
 524              	.LVL75:
 525              		.loc 1 136 0
 526 000a 2046     		mov	r0, r4
 527 000c 0121     		movs	r1, #1
 528 000e FFF7FEFF 		bl	chEvtSignal
 529              	.LVL76:
 530              		.loc 1 138 0
 531 0012 0020     		movs	r0, #0
 532 0014 10BD     		pop	{r4, pc}
 533              		.cfi_endproc
 534              	.LFE13:
 535              		.size	thread1, .-thread1
 536 0016 00BFAFF3 		.section	.text.evt1_execute,"ax",%progbits
 536      0080AFF3 
 536      0080
 537              		.align	2
 538              		.p2align 4,,15
 539              		.thumb
 540              		.thumb_func
 541              		.type	evt1_execute, %function
 542              	evt1_execute:
 543              	.LFB11:
 544              		.loc 1 85 0
 545              		.cfi_startproc
 546              		@ args = 0, pretend = 0, frame = 32
 547              		@ frame_needed = 0, uses_anonymous_args = 0
 548 0000 10B5     		push	{r4, lr}
 549              	.LCFI4:
 550              		.cfi_def_cfa_offset 8
 551              		.cfi_offset 4, -8
 552              		.cfi_offset 14, -4
 553              		.loc 1 91 0
 554 0002 1D4C     		ldr	r4, .L17
 555              		.loc 1 85 0
 556 0004 88B0     		sub	sp, sp, #32
 557              	.LCFI5:
 558              		.cfi_def_cfa_offset 40
 559              		.loc 1 92 0
 560 0006 0122     		movs	r2, #1
 561 0008 2046     		mov	r0, r4
 562 000a 6946     		mov	r1, sp
 563              		.loc 1 91 0
 564 000c 2460     		str	r4, [r4, #0]
ARM GAS  C:\Users\DNIEL~1\AppData\Local\Temp\cciErhMR.s 			page 11


 565              		.loc 1 92 0
 566 000e FFF7FEFF 		bl	chEvtRegisterMask
 567              	.LVL77:
 568              		.loc 1 93 0
 569 0012 2046     		mov	r0, r4
 570 0014 04A9     		add	r1, sp, #16
 571 0016 0222     		movs	r2, #2
 572 0018 FFF7FEFF 		bl	chEvtRegisterMask
 573              	.LVL78:
 574              		.loc 1 94 0
 575 001c 2168     		ldr	r1, [r4, #0]
 576 001e 0120     		movs	r0, #1
 577 0020 091B     		subs	r1, r1, r4
 578 0022 18BF     		it	ne
 579 0024 0121     		movne	r1, #1
 580 0026 FFF7FEFF 		bl	_test_assert
 581              	.LVL79:
 582 002a 08B1     		cbz	r0, .L16
 583              	.L13:
 584              		.loc 1 105 0
 585 002c 08B0     		add	sp, sp, #32
 586 002e 10BD     		pop	{r4, pc}
 587              	.L16:
 588              		.loc 1 95 0
 589 0030 2046     		mov	r0, r4
 590 0032 6946     		mov	r1, sp
 591 0034 FFF7FEFF 		bl	chEvtUnregister
 592              	.LVL80:
 593              		.loc 1 96 0
 594 0038 2268     		ldr	r2, [r4, #0]
 595 003a 0220     		movs	r0, #2
 596 003c 111B     		subs	r1, r2, r4
 597 003e 18BF     		it	ne
 598 0040 0121     		movne	r1, #1
 599 0042 FFF7FEFF 		bl	_test_assert
 600              	.LVL81:
 601 0046 0028     		cmp	r0, #0
 602 0048 F0D1     		bne	.L13
 603              		.loc 1 97 0
 604 004a 2046     		mov	r0, r4
 605 004c 04A9     		add	r1, sp, #16
 606 004e FFF7FEFF 		bl	chEvtUnregister
 607              	.LVL82:
 608              		.loc 1 98 0
 609 0052 2368     		ldr	r3, [r4, #0]
 610 0054 0320     		movs	r0, #3
 611 0056 1A1B     		subs	r2, r3, r4
 612 0058 5142     		rsbs	r1, r2, #0
 613 005a 5141     		adcs	r1, r1, r2
 614 005c FFF7FEFF 		bl	_test_assert
 615              	.LVL83:
 616 0060 0028     		cmp	r0, #0
 617 0062 E3D1     		bne	.L13
 618              		.loc 1 103 0
 619 0064 0721     		movs	r1, #7
 620 0066 0548     		ldr	r0, .L17+4
 621 0068 FFF7FEFF 		bl	chEvtDispatch
ARM GAS  C:\Users\DNIEL~1\AppData\Local\Temp\cciErhMR.s 			page 12


 622              	.LVL84:
 623              		.loc 1 104 0
 624 006c 0420     		movs	r0, #4
 625 006e 0449     		ldr	r1, .L17+8
 626 0070 FFF7FEFF 		bl	_test_assert_sequence
 627              	.LVL85:
 628 0074 DAE7     		b	.L13
 629              	.L18:
 630 0076 00BF     		.align	2
 631              	.L17:
 632 0078 00000000 		.word	.LANCHOR0
 633 007c 00000000 		.word	.LANCHOR2
 634 0080 04000000 		.word	.LC1
 635              		.cfi_endproc
 636              	.LFE11:
 637              		.size	evt1_execute, .-evt1_execute
 638 0084 AFF30080 		.section	.text.h3,"ax",%progbits
 638      AFF30080 
 638      AFF30080 
 639              		.align	2
 640              		.p2align 4,,15
 641              		.thumb
 642              		.thumb_func
 643              		.type	h3, %function
 644              	h3:
 645              	.LFB10:
 646              		.loc 1 82 0
 647              		.cfi_startproc
 648              		@ args = 0, pretend = 0, frame = 0
 649              		@ frame_needed = 0, uses_anonymous_args = 0
 650              		@ link register save eliminated.
 651              	.LVL86:
 652              		.loc 1 82 0
 653 0000 4320     		movs	r0, #67
 654              	.LVL87:
 655 0002 FFF7FEBF 		b	test_emit_token
 656              	.LVL88:
 657              		.cfi_endproc
 658              	.LFE10:
 659              		.size	h3, .-h3
 660 0006 00BFAFF3 		.section	.text.h2,"ax",%progbits
 660      0080AFF3 
 660      0080
 661              		.align	2
 662              		.p2align 4,,15
 663              		.thumb
 664              		.thumb_func
 665              		.type	h2, %function
 666              	h2:
 667              	.LFB9:
 668              		.loc 1 81 0
 669              		.cfi_startproc
 670              		@ args = 0, pretend = 0, frame = 0
 671              		@ frame_needed = 0, uses_anonymous_args = 0
 672              		@ link register save eliminated.
 673              	.LVL89:
 674              		.loc 1 81 0
ARM GAS  C:\Users\DNIEL~1\AppData\Local\Temp\cciErhMR.s 			page 13


 675 0000 4220     		movs	r0, #66
 676              	.LVL90:
 677 0002 FFF7FEBF 		b	test_emit_token
 678              	.LVL91:
 679              		.cfi_endproc
 680              	.LFE9:
 681              		.size	h2, .-h2
 682 0006 00BFAFF3 		.section	.text.h1,"ax",%progbits
 682      0080AFF3 
 682      0080
 683              		.align	2
 684              		.p2align 4,,15
 685              		.thumb
 686              		.thumb_func
 687              		.type	h1, %function
 688              	h1:
 689              	.LFB8:
 690              		.loc 1 80 0
 691              		.cfi_startproc
 692              		@ args = 0, pretend = 0, frame = 0
 693              		@ frame_needed = 0, uses_anonymous_args = 0
 694              		@ link register save eliminated.
 695              	.LVL92:
 696              		.loc 1 80 0
 697 0000 4120     		movs	r0, #65
 698              	.LVL93:
 699 0002 FFF7FEBF 		b	test_emit_token
 700              	.LVL94:
 701              		.cfi_endproc
 702              	.LFE8:
 703              		.size	h1, .-h1
 704 0006 00BFAFF3 		.section	.text.evt3_execute,"ax",%progbits
 704      0080AFF3 
 704      0080
 705              		.align	2
 706              		.p2align 4,,15
 707              		.thumb
 708              		.thumb_func
 709              		.type	evt3_execute, %function
 710              	evt3_execute:
 711              	.LFB17:
 712              		.loc 1 254 0
 713              		.cfi_startproc
 714              		@ args = 0, pretend = 0, frame = 0
 715              		@ frame_needed = 0, uses_anonymous_args = 0
 716 0000 08B5     		push	{r3, lr}
 717              	.LCFI6:
 718              		.cfi_def_cfa_offset 8
 719              		.cfi_offset 3, -8
 720              		.cfi_offset 14, -4
 721              		.loc 1 260 0
 722 0002 0021     		movs	r1, #0
 723 0004 4FF0FF30 		mov	r0, #-1
 724 0008 FFF7FEFF 		bl	chEvtWaitOneTimeout
 725              	.LVL95:
 726              		.loc 1 261 0
 727 000c D0F10101 		rsbs	r1, r0, #1
ARM GAS  C:\Users\DNIEL~1\AppData\Local\Temp\cciErhMR.s 			page 14


 728 0010 38BF     		it	cc
 729 0012 0021     		movcc	r1, #0
 730 0014 0120     		movs	r0, #1
 731              	.LVL96:
 732 0016 FFF7FEFF 		bl	_test_assert
 733              	.LVL97:
 734 001a 00B1     		cbz	r0, .L26
 735              	.L22:
 736 001c 08BD     		pop	{r3, pc}
 737              	.L26:
 738              		.loc 1 262 0
 739 001e 0146     		mov	r1, r0
 740 0020 4FF0FF30 		mov	r0, #-1
 741 0024 FFF7FEFF 		bl	chEvtWaitAnyTimeout
 742              	.LVL98:
 743              		.loc 1 263 0
 744 0028 D0F10101 		rsbs	r1, r0, #1
 745 002c 38BF     		it	cc
 746 002e 0021     		movcc	r1, #0
 747 0030 0220     		movs	r0, #2
 748              	.LVL99:
 749 0032 FFF7FEFF 		bl	_test_assert
 750              	.LVL100:
 751 0036 0028     		cmp	r0, #0
 752 0038 F0D1     		bne	.L22
 753              		.loc 1 264 0
 754 003a 0146     		mov	r1, r0
 755 003c 4FF0FF30 		mov	r0, #-1
 756 0040 FFF7FEFF 		bl	chEvtWaitAllTimeout
 757              	.LVL101:
 758              		.loc 1 265 0
 759 0044 D0F10101 		rsbs	r1, r0, #1
 760 0048 38BF     		it	cc
 761 004a 0021     		movcc	r1, #0
 762 004c 0320     		movs	r0, #3
 763              	.LVL102:
 764 004e FFF7FEFF 		bl	_test_assert
 765              	.LVL103:
 766 0052 0028     		cmp	r0, #0
 767 0054 E2D1     		bne	.L22
 768              	.LBB4:
 769              	.LBB5:
 770              		.loc 1 266 0
 771 0056 0A21     		movs	r1, #10
 772 0058 4FF0FF30 		mov	r0, #-1
 773 005c FFF7FEFF 		bl	chEvtWaitOneTimeout
 774              	.LVL104:
 775              		.loc 1 267 0
 776 0060 D0F10101 		rsbs	r1, r0, #1
 777 0064 38BF     		it	cc
 778 0066 0021     		movcc	r1, #0
 779 0068 0420     		movs	r0, #4
 780              	.LVL105:
 781 006a FFF7FEFF 		bl	_test_assert
 782              	.LVL106:
 783 006e 0028     		cmp	r0, #0
 784 0070 D4D1     		bne	.L22
ARM GAS  C:\Users\DNIEL~1\AppData\Local\Temp\cciErhMR.s 			page 15


 785              		.loc 1 268 0
 786 0072 0A21     		movs	r1, #10
 787 0074 4FF0FF30 		mov	r0, #-1
 788 0078 FFF7FEFF 		bl	chEvtWaitAnyTimeout
 789              	.LVL107:
 790              		.loc 1 269 0
 791 007c D0F10101 		rsbs	r1, r0, #1
 792 0080 38BF     		it	cc
 793 0082 0021     		movcc	r1, #0
 794 0084 0520     		movs	r0, #5
 795              	.LVL108:
 796 0086 FFF7FEFF 		bl	_test_assert
 797              	.LVL109:
 798 008a 0028     		cmp	r0, #0
 799 008c C6D1     		bne	.L22
 800              		.loc 1 270 0
 801 008e 0A21     		movs	r1, #10
 802 0090 4FF0FF30 		mov	r0, #-1
 803 0094 FFF7FEFF 		bl	chEvtWaitAllTimeout
 804              	.LVL110:
 805              		.loc 1 271 0
 806 0098 D0F10101 		rsbs	r1, r0, #1
 807 009c 38BF     		it	cc
 808 009e 0021     		movcc	r1, #0
 809 00a0 0620     		movs	r0, #6
 810              	.LVL111:
 811              	.LBE5:
 812              	.LBE4:
 813              		.loc 1 272 0
 814 00a2 BDE80840 		pop	{r3, lr}
 815              	.LBB7:
 816              	.LBB6:
 817              		.loc 1 271 0
 818 00a6 FFF7FEBF 		b	_test_assert
 819              	.LVL112:
 820              	.LBE6:
 821              	.LBE7:
 822              		.cfi_endproc
 823              	.LFE17:
 824              		.size	evt3_execute, .-evt3_execute
 825              		.global	patternevt
 826              		.global	testevt3
 827              		.global	testevt2
 828              		.global	testevt1
 829 00aa 00BFAFF3 		.section	.rodata.patternevt,"a",%progbits
 829      0080
 830              		.align	2
 831              		.type	patternevt, %object
 832              		.size	patternevt, 16
 833              	patternevt:
 834 0000 00000000 		.word	testevt1
 835 0004 00000000 		.word	testevt2
 836 0008 00000000 		.word	testevt3
 837 000c 00000000 		.word	0
 838              		.section	.rodata.testevt2,"a",%progbits
 839              		.align	2
 840              		.type	testevt2, %object
ARM GAS  C:\Users\DNIEL~1\AppData\Local\Temp\cciErhMR.s 			page 16


 841              		.size	testevt2, 16
 842              	testevt2:
 843 0000 1C000000 		.word	.LC3
 844 0004 00000000 		.word	evt2_setup
 845 0008 00000000 		.word	0
 846 000c 00000000 		.word	evt2_execute
 847              		.section	.rodata.str1.4,"aMS",%progbits,1
 848              		.align	2
 849              	.LC0:
 850 0000 4100     		.ascii	"A\000"
 851 0002 0000     		.space	2
 852              	.LC1:
 853 0004 41424300 		.ascii	"ABC\000"
 854              	.LC2:
 855 0008 4576656E 		.ascii	"Events, timeouts\000"
 855      74732C20 
 855      74696D65 
 855      6F757473 
 855      00
 856 0019 000000   		.space	3
 857              	.LC3:
 858 001c 4576656E 		.ascii	"Events, wait and broadcast\000"
 858      74732C20 
 858      77616974 
 858      20616E64 
 858      2062726F 
 859 0037 00       		.space	1
 860              	.LC4:
 861 0038 4576656E 		.ascii	"Events, registration and dispatch\000"
 861      74732C20 
 861      72656769 
 861      73747261 
 861      74696F6E 
 862 005a 0000     		.section	.rodata.testevt1,"a",%progbits
 863              		.align	2
 864              		.type	testevt1, %object
 865              		.size	testevt1, 16
 866              	testevt1:
 867 0000 38000000 		.word	.LC4
 868 0004 00000000 		.word	evt1_setup
 869 0008 00000000 		.word	0
 870 000c 00000000 		.word	evt1_execute
 871              		.section	.rodata.evhndl,"a",%progbits
 872              		.align	2
 873              		.set	.LANCHOR2,. + 0
 874              		.type	evhndl, %object
 875              		.size	evhndl, 12
 876              	evhndl:
 877 0000 00000000 		.word	h1
 878 0004 00000000 		.word	h2
 879 0008 00000000 		.word	h3
 880              		.section	.rodata.testevt3,"a",%progbits
 881              		.align	2
 882              		.type	testevt3, %object
 883              		.size	testevt3, 16
 884              	testevt3:
 885 0000 08000000 		.word	.LC2
ARM GAS  C:\Users\DNIEL~1\AppData\Local\Temp\cciErhMR.s 			page 17


 886 0004 00000000 		.word	evt3_setup
 887 0008 00000000 		.word	0
 888 000c 00000000 		.word	evt3_execute
 889              		.section	.data.es1,"aw",%progbits
 890              		.align	2
 891              		.set	.LANCHOR0,. + 0
 892              		.type	es1, %object
 893              		.size	es1, 4
 894              	es1:
 895 0000 00000000 		.word	es1
 896              		.section	.data.es2,"aw",%progbits
 897              		.align	2
 898              		.set	.LANCHOR1,. + 0
 899              		.type	es2, %object
 900              		.size	es2, 4
 901              	es2:
 902 0000 00000000 		.word	es2
 903              		.text
 904              	.Letext0:
 905              		.file 2 "c:\\chibistudio\\tools\\gnu tools arm embedded\\4.7 2014q2\\bin\\../lib/gcc/arm-none-eabi
 906              		.file 3 "c:\\chibistudio\\tools\\gnu tools arm embedded\\4.7 2014q2\\bin\\../lib/gcc/arm-none-eabi
 907              		.file 4 "../../../ChibiOS/os/ports/GCC/ARMCMx/chtypes.h"
 908              		.file 5 "../../../ChibiOS/os/kernel/include/chlists.h"
 909              		.file 6 "../../../ChibiOS/os/kernel/include/chthreads.h"
 910              		.file 7 "../../../ChibiOS/os/ports/GCC/ARMCMx/chcore_v7m.h"
 911              		.file 8 "../../../ChibiOS/os/kernel/include/chvt.h"
 912              		.file 9 "../../../ChibiOS/os/kernel/include/chschd.h"
 913              		.file 10 "../../../ChibiOS/os/kernel/include/chmtx.h"
 914              		.file 11 "../../../ChibiOS/os/kernel/include/chevents.h"
 915              		.file 12 "../../../ChibiOS/test/test.h"
 916              		.section	.debug_info,"",%progbits
 917              	.Ldebug_info0:
 918 0000 A3110000 		.4byte	0x11a3
 919 0004 0200     		.2byte	0x2
 920 0006 00000000 		.4byte	.Ldebug_abbrev0
 921 000a 04       		.byte	0x4
 922 000b 01       		.uleb128 0x1
 923 000c C0020000 		.4byte	.LASF125
 924 0010 01       		.byte	0x1
 925 0011 D1040000 		.4byte	.LASF126
 926 0015 0D050000 		.4byte	.LASF127
 927 0019 30000000 		.4byte	.Ldebug_ranges0+0x30
 928 001d 00000000 		.4byte	0
 929 0021 00000000 		.4byte	0
 930 0025 00000000 		.4byte	.Ldebug_line0
 931 0029 02       		.uleb128 0x2
 932 002a 04       		.byte	0x4
 933 002b 05       		.byte	0x5
 934 002c 696E7400 		.ascii	"int\000"
 935 0030 03       		.uleb128 0x3
 936 0031 19000000 		.4byte	.LASF2
 937 0035 02       		.byte	0x2
 938 0036 D5       		.byte	0xd5
 939 0037 3B000000 		.4byte	0x3b
 940 003b 04       		.uleb128 0x4
 941 003c 04       		.byte	0x4
 942 003d 07       		.byte	0x7
ARM GAS  C:\Users\DNIEL~1\AppData\Local\Temp\cciErhMR.s 			page 18


 943 003e 9D010000 		.4byte	.LASF0
 944 0042 04       		.uleb128 0x4
 945 0043 01       		.byte	0x1
 946 0044 06       		.byte	0x6
 947 0045 9F000000 		.4byte	.LASF1
 948 0049 03       		.uleb128 0x3
 949 004a 3E050000 		.4byte	.LASF3
 950 004e 03       		.byte	0x3
 951 004f 2A       		.byte	0x2a
 952 0050 54000000 		.4byte	0x54
 953 0054 04       		.uleb128 0x4
 954 0055 01       		.byte	0x1
 955 0056 08       		.byte	0x8
 956 0057 A4030000 		.4byte	.LASF4
 957 005b 04       		.uleb128 0x4
 958 005c 02       		.byte	0x2
 959 005d 05       		.byte	0x5
 960 005e EB030000 		.4byte	.LASF5
 961 0062 04       		.uleb128 0x4
 962 0063 02       		.byte	0x2
 963 0064 07       		.byte	0x7
 964 0065 FC010000 		.4byte	.LASF6
 965 0069 03       		.uleb128 0x3
 966 006a 9C030000 		.4byte	.LASF7
 967 006e 03       		.byte	0x3
 968 006f 4F       		.byte	0x4f
 969 0070 74000000 		.4byte	0x74
 970 0074 04       		.uleb128 0x4
 971 0075 04       		.byte	0x4
 972 0076 05       		.byte	0x5
 973 0077 F0000000 		.4byte	.LASF8
 974 007b 03       		.uleb128 0x3
 975 007c 57040000 		.4byte	.LASF9
 976 0080 03       		.byte	0x3
 977 0081 50       		.byte	0x50
 978 0082 86000000 		.4byte	0x86
 979 0086 04       		.uleb128 0x4
 980 0087 04       		.byte	0x4
 981 0088 07       		.byte	0x7
 982 0089 B2010000 		.4byte	.LASF10
 983 008d 04       		.uleb128 0x4
 984 008e 08       		.byte	0x8
 985 008f 05       		.byte	0x5
 986 0090 91000000 		.4byte	.LASF11
 987 0094 04       		.uleb128 0x4
 988 0095 08       		.byte	0x8
 989 0096 07       		.byte	0x7
 990 0097 3A000000 		.4byte	.LASF12
 991 009b 03       		.uleb128 0x3
 992 009c C7000000 		.4byte	.LASF13
 993 00a0 04       		.byte	0x4
 994 00a1 2B       		.byte	0x2b
 995 00a2 A6000000 		.4byte	0xa6
 996 00a6 04       		.uleb128 0x4
 997 00a7 01       		.byte	0x1
 998 00a8 02       		.byte	0x2
 999 00a9 96030000 		.4byte	.LASF14
ARM GAS  C:\Users\DNIEL~1\AppData\Local\Temp\cciErhMR.s 			page 19


 1000 00ad 03       		.uleb128 0x3
 1001 00ae 3F020000 		.4byte	.LASF15
 1002 00b2 04       		.byte	0x4
 1003 00b3 2C       		.byte	0x2c
 1004 00b4 49000000 		.4byte	0x49
 1005 00b8 03       		.uleb128 0x3
 1006 00b9 05010000 		.4byte	.LASF16
 1007 00bd 04       		.byte	0x4
 1008 00be 2D       		.byte	0x2d
 1009 00bf 49000000 		.4byte	0x49
 1010 00c3 03       		.uleb128 0x3
 1011 00c4 77030000 		.4byte	.LASF17
 1012 00c8 04       		.byte	0x4
 1013 00c9 2E       		.byte	0x2e
 1014 00ca 49000000 		.4byte	0x49
 1015 00ce 03       		.uleb128 0x3
 1016 00cf E6000000 		.4byte	.LASF18
 1017 00d3 04       		.byte	0x4
 1018 00d4 2F       		.byte	0x2f
 1019 00d5 49000000 		.4byte	0x49
 1020 00d9 03       		.uleb128 0x3
 1021 00da 8E030000 		.4byte	.LASF19
 1022 00de 04       		.byte	0x4
 1023 00df 30       		.byte	0x30
 1024 00e0 7B000000 		.4byte	0x7b
 1025 00e4 03       		.uleb128 0x3
 1026 00e5 21020000 		.4byte	.LASF20
 1027 00e9 04       		.byte	0x4
 1028 00ea 31       		.byte	0x31
 1029 00eb 69000000 		.4byte	0x69
 1030 00ef 03       		.uleb128 0x3
 1031 00f0 7B010000 		.4byte	.LASF21
 1032 00f4 04       		.byte	0x4
 1033 00f5 32       		.byte	0x32
 1034 00f6 69000000 		.4byte	0x69
 1035 00fa 03       		.uleb128 0x3
 1036 00fb 53020000 		.4byte	.LASF22
 1037 00ff 04       		.byte	0x4
 1038 0100 33       		.byte	0x33
 1039 0101 7B000000 		.4byte	0x7b
 1040 0105 03       		.uleb128 0x3
 1041 0106 77020000 		.4byte	.LASF23
 1042 010a 04       		.byte	0x4
 1043 010b 34       		.byte	0x34
 1044 010c 7B000000 		.4byte	0x7b
 1045 0110 03       		.uleb128 0x3
 1046 0111 93040000 		.4byte	.LASF24
 1047 0115 04       		.byte	0x4
 1048 0116 35       		.byte	0x35
 1049 0117 7B000000 		.4byte	0x7b
 1050 011b 03       		.uleb128 0x3
 1051 011c 2C040000 		.4byte	.LASF25
 1052 0120 05       		.byte	0x5
 1053 0121 2A       		.byte	0x2a
 1054 0122 26010000 		.4byte	0x126
 1055 0126 05       		.uleb128 0x5
 1056 0127 2C040000 		.4byte	.LASF25
ARM GAS  C:\Users\DNIEL~1\AppData\Local\Temp\cciErhMR.s 			page 20


 1057 012b 48       		.byte	0x48
 1058 012c 06       		.byte	0x6
 1059 012d 5E       		.byte	0x5e
 1060 012e 4B020000 		.4byte	0x24b
 1061 0132 06       		.uleb128 0x6
 1062 0133 1D040000 		.4byte	.LASF26
 1063 0137 06       		.byte	0x6
 1064 0138 5F       		.byte	0x5f
 1065 0139 70020000 		.4byte	0x270
 1066 013d 02       		.byte	0x2
 1067 013e 23       		.byte	0x23
 1068 013f 00       		.uleb128 0
 1069 0140 06       		.uleb128 0x6
 1070 0141 7F030000 		.4byte	.LASF27
 1071 0145 06       		.byte	0x6
 1072 0146 61       		.byte	0x61
 1073 0147 70020000 		.4byte	0x270
 1074 014b 02       		.byte	0x2
 1075 014c 23       		.byte	0x23
 1076 014d 04       		.uleb128 0x4
 1077 014e 06       		.uleb128 0x6
 1078 014f 7D000000 		.4byte	.LASF28
 1079 0153 06       		.byte	0x6
 1080 0154 63       		.byte	0x63
 1081 0155 D9000000 		.4byte	0xd9
 1082 0159 02       		.byte	0x2
 1083 015a 23       		.byte	0x23
 1084 015b 08       		.uleb128 0x8
 1085 015c 06       		.uleb128 0x6
 1086 015d C1050000 		.4byte	.LASF29
 1087 0161 06       		.byte	0x6
 1088 0162 64       		.byte	0x64
 1089 0163 3E030000 		.4byte	0x33e
 1090 0167 02       		.byte	0x2
 1091 0168 23       		.byte	0x23
 1092 0169 0C       		.uleb128 0xc
 1093 016a 06       		.uleb128 0x6
 1094 016b 46010000 		.4byte	.LASF30
 1095 016f 06       		.byte	0x6
 1096 0170 66       		.byte	0x66
 1097 0171 70020000 		.4byte	0x270
 1098 0175 02       		.byte	0x2
 1099 0176 23       		.byte	0x23
 1100 0177 10       		.uleb128 0x10
 1101 0178 06       		.uleb128 0x6
 1102 0179 09030000 		.4byte	.LASF31
 1103 017d 06       		.byte	0x6
 1104 017e 67       		.byte	0x67
 1105 017f 70020000 		.4byte	0x270
 1106 0183 02       		.byte	0x2
 1107 0184 23       		.byte	0x23
 1108 0185 14       		.uleb128 0x14
 1109 0186 06       		.uleb128 0x6
 1110 0187 6F050000 		.4byte	.LASF32
 1111 018b 06       		.byte	0x6
 1112 018c 6E       		.byte	0x6e
 1113 018d B8050000 		.4byte	0x5b8
ARM GAS  C:\Users\DNIEL~1\AppData\Local\Temp\cciErhMR.s 			page 21


 1114 0191 02       		.byte	0x2
 1115 0192 23       		.byte	0x23
 1116 0193 18       		.uleb128 0x18
 1117 0194 06       		.uleb128 0x6
 1118 0195 F5030000 		.4byte	.LASF33
 1119 0199 06       		.byte	0x6
 1120 019a 79       		.byte	0x79
 1121 019b B8000000 		.4byte	0xb8
 1122 019f 02       		.byte	0x2
 1123 01a0 23       		.byte	0x23
 1124 01a1 1C       		.uleb128 0x1c
 1125 01a2 06       		.uleb128 0x6
 1126 01a3 24040000 		.4byte	.LASF34
 1127 01a7 06       		.byte	0x6
 1128 01a8 7D       		.byte	0x7d
 1129 01a9 AD000000 		.4byte	0xad
 1130 01ad 02       		.byte	0x2
 1131 01ae 23       		.byte	0x23
 1132 01af 1D       		.uleb128 0x1d
 1133 01b0 06       		.uleb128 0x6
 1134 01b1 FC040000 		.4byte	.LASF35
 1135 01b5 06       		.byte	0x6
 1136 01b6 82       		.byte	0x82
 1137 01b7 C3000000 		.4byte	0xc3
 1138 01bb 02       		.byte	0x2
 1139 01bc 23       		.byte	0x23
 1140 01bd 1E       		.uleb128 0x1e
 1141 01be 06       		.uleb128 0x6
 1142 01bf FD030000 		.4byte	.LASF36
 1143 01c3 06       		.byte	0x6
 1144 01c4 88       		.byte	0x88
 1145 01c5 CE000000 		.4byte	0xce
 1146 01c9 02       		.byte	0x2
 1147 01ca 23       		.byte	0x23
 1148 01cb 1F       		.uleb128 0x1f
 1149 01cc 06       		.uleb128 0x6
 1150 01cd B1040000 		.4byte	.LASF37
 1151 01d1 06       		.byte	0x6
 1152 01d2 8F       		.byte	0x8f
 1153 01d3 2A040000 		.4byte	0x42a
 1154 01d7 02       		.byte	0x2
 1155 01d8 23       		.byte	0x23
 1156 01d9 20       		.uleb128 0x20
 1157 01da 07       		.uleb128 0x7
 1158 01db 705F7500 		.ascii	"p_u\000"
 1159 01df 06       		.byte	0x6
 1160 01e0 B4       		.byte	0xb4
 1161 01e1 83050000 		.4byte	0x583
 1162 01e5 02       		.byte	0x2
 1163 01e6 23       		.byte	0x23
 1164 01e7 24       		.uleb128 0x24
 1165 01e8 06       		.uleb128 0x6
 1166 01e9 C7050000 		.4byte	.LASF38
 1167 01ed 06       		.byte	0x6
 1168 01ee B9       		.byte	0xb9
 1169 01ef 98020000 		.4byte	0x298
 1170 01f3 02       		.byte	0x2
ARM GAS  C:\Users\DNIEL~1\AppData\Local\Temp\cciErhMR.s 			page 22


 1171 01f4 23       		.byte	0x23
 1172 01f5 28       		.uleb128 0x28
 1173 01f6 06       		.uleb128 0x6
 1174 01f7 BF040000 		.4byte	.LASF39
 1175 01fb 06       		.byte	0x6
 1176 01fc BF       		.byte	0xbf
 1177 01fd 76020000 		.4byte	0x276
 1178 0201 02       		.byte	0x2
 1179 0202 23       		.byte	0x23
 1180 0203 2C       		.uleb128 0x2c
 1181 0204 06       		.uleb128 0x6
 1182 0205 13000000 		.4byte	.LASF40
 1183 0209 06       		.byte	0x6
 1184 020a C3       		.byte	0xc3
 1185 020b E4000000 		.4byte	0xe4
 1186 020f 02       		.byte	0x2
 1187 0210 23       		.byte	0x23
 1188 0211 34       		.uleb128 0x34
 1189 0212 06       		.uleb128 0x6
 1190 0213 3C040000 		.4byte	.LASF41
 1191 0217 06       		.byte	0x6
 1192 0218 C9       		.byte	0xc9
 1193 0219 FA000000 		.4byte	0xfa
 1194 021d 02       		.byte	0x2
 1195 021e 23       		.byte	0x23
 1196 021f 38       		.uleb128 0x38
 1197 0220 06       		.uleb128 0x6
 1198 0221 E1030000 		.4byte	.LASF42
 1199 0225 06       		.byte	0x6
 1200 0226 D0       		.byte	0xd0
 1201 0227 CA050000 		.4byte	0x5ca
 1202 022b 02       		.byte	0x2
 1203 022c 23       		.byte	0x23
 1204 022d 3C       		.uleb128 0x3c
 1205 022e 06       		.uleb128 0x6
 1206 022f 9D040000 		.4byte	.LASF43
 1207 0233 06       		.byte	0x6
 1208 0234 D4       		.byte	0xd4
 1209 0235 D9000000 		.4byte	0xd9
 1210 0239 02       		.byte	0x2
 1211 023a 23       		.byte	0x23
 1212 023b 40       		.uleb128 0x40
 1213 023c 06       		.uleb128 0x6
 1214 023d BF000000 		.4byte	.LASF44
 1215 0241 06       		.byte	0x6
 1216 0242 DA       		.byte	0xda
 1217 0243 AE020000 		.4byte	0x2ae
 1218 0247 02       		.byte	0x2
 1219 0248 23       		.byte	0x23
 1220 0249 44       		.uleb128 0x44
 1221 024a 00       		.byte	0
 1222 024b 08       		.uleb128 0x8
 1223 024c 08       		.byte	0x8
 1224 024d 05       		.byte	0x5
 1225 024e 61       		.byte	0x61
 1226 024f 70020000 		.4byte	0x270
 1227 0253 06       		.uleb128 0x6
ARM GAS  C:\Users\DNIEL~1\AppData\Local\Temp\cciErhMR.s 			page 23


 1228 0254 1D040000 		.4byte	.LASF26
 1229 0258 05       		.byte	0x5
 1230 0259 62       		.byte	0x62
 1231 025a 70020000 		.4byte	0x270
 1232 025e 02       		.byte	0x2
 1233 025f 23       		.byte	0x23
 1234 0260 00       		.uleb128 0
 1235 0261 06       		.uleb128 0x6
 1236 0262 7F030000 		.4byte	.LASF27
 1237 0266 05       		.byte	0x5
 1238 0267 64       		.byte	0x64
 1239 0268 70020000 		.4byte	0x270
 1240 026c 02       		.byte	0x2
 1241 026d 23       		.byte	0x23
 1242 026e 04       		.uleb128 0x4
 1243 026f 00       		.byte	0
 1244 0270 09       		.uleb128 0x9
 1245 0271 04       		.byte	0x4
 1246 0272 1B010000 		.4byte	0x11b
 1247 0276 03       		.uleb128 0x3
 1248 0277 27030000 		.4byte	.LASF45
 1249 027b 05       		.byte	0x5
 1250 027c 66       		.byte	0x66
 1251 027d 4B020000 		.4byte	0x24b
 1252 0281 08       		.uleb128 0x8
 1253 0282 04       		.byte	0x4
 1254 0283 05       		.byte	0x5
 1255 0284 6B       		.byte	0x6b
 1256 0285 98020000 		.4byte	0x298
 1257 0289 06       		.uleb128 0x6
 1258 028a 1D040000 		.4byte	.LASF26
 1259 028e 05       		.byte	0x5
 1260 028f 6D       		.byte	0x6d
 1261 0290 70020000 		.4byte	0x270
 1262 0294 02       		.byte	0x2
 1263 0295 23       		.byte	0x23
 1264 0296 00       		.uleb128 0
 1265 0297 00       		.byte	0
 1266 0298 03       		.uleb128 0x3
 1267 0299 47020000 		.4byte	.LASF46
 1268 029d 05       		.byte	0x5
 1269 029e 70       		.byte	0x70
 1270 029f 81020000 		.4byte	0x281
 1271 02a3 03       		.uleb128 0x3
 1272 02a4 56010000 		.4byte	.LASF47
 1273 02a8 07       		.byte	0x7
 1274 02a9 E5       		.byte	0xe5
 1275 02aa AE020000 		.4byte	0x2ae
 1276 02ae 0A       		.uleb128 0xa
 1277 02af 04       		.byte	0x4
 1278 02b0 0B       		.uleb128 0xb
 1279 02b1 B8040000 		.4byte	.LASF48
 1280 02b5 24       		.byte	0x24
 1281 02b6 07       		.byte	0x7
 1282 02b7 0C01     		.2byte	0x10c
 1283 02b9 3E030000 		.4byte	0x33e
 1284 02bd 0C       		.uleb128 0xc
ARM GAS  C:\Users\DNIEL~1\AppData\Local\Temp\cciErhMR.s 			page 24


 1285 02be 723400   		.ascii	"r4\000"
 1286 02c1 07       		.byte	0x7
 1287 02c2 1F01     		.2byte	0x11f
 1288 02c4 A3020000 		.4byte	0x2a3
 1289 02c8 02       		.byte	0x2
 1290 02c9 23       		.byte	0x23
 1291 02ca 00       		.uleb128 0
 1292 02cb 0C       		.uleb128 0xc
 1293 02cc 723500   		.ascii	"r5\000"
 1294 02cf 07       		.byte	0x7
 1295 02d0 2001     		.2byte	0x120
 1296 02d2 A3020000 		.4byte	0x2a3
 1297 02d6 02       		.byte	0x2
 1298 02d7 23       		.byte	0x23
 1299 02d8 04       		.uleb128 0x4
 1300 02d9 0C       		.uleb128 0xc
 1301 02da 723600   		.ascii	"r6\000"
 1302 02dd 07       		.byte	0x7
 1303 02de 2101     		.2byte	0x121
 1304 02e0 A3020000 		.4byte	0x2a3
 1305 02e4 02       		.byte	0x2
 1306 02e5 23       		.byte	0x23
 1307 02e6 08       		.uleb128 0x8
 1308 02e7 0C       		.uleb128 0xc
 1309 02e8 723700   		.ascii	"r7\000"
 1310 02eb 07       		.byte	0x7
 1311 02ec 2201     		.2byte	0x122
 1312 02ee A3020000 		.4byte	0x2a3
 1313 02f2 02       		.byte	0x2
 1314 02f3 23       		.byte	0x23
 1315 02f4 0C       		.uleb128 0xc
 1316 02f5 0C       		.uleb128 0xc
 1317 02f6 723800   		.ascii	"r8\000"
 1318 02f9 07       		.byte	0x7
 1319 02fa 2301     		.2byte	0x123
 1320 02fc A3020000 		.4byte	0x2a3
 1321 0300 02       		.byte	0x2
 1322 0301 23       		.byte	0x23
 1323 0302 10       		.uleb128 0x10
 1324 0303 0C       		.uleb128 0xc
 1325 0304 723900   		.ascii	"r9\000"
 1326 0307 07       		.byte	0x7
 1327 0308 2401     		.2byte	0x124
 1328 030a A3020000 		.4byte	0x2a3
 1329 030e 02       		.byte	0x2
 1330 030f 23       		.byte	0x23
 1331 0310 14       		.uleb128 0x14
 1332 0311 0C       		.uleb128 0xc
 1333 0312 72313000 		.ascii	"r10\000"
 1334 0316 07       		.byte	0x7
 1335 0317 2501     		.2byte	0x125
 1336 0319 A3020000 		.4byte	0x2a3
 1337 031d 02       		.byte	0x2
 1338 031e 23       		.byte	0x23
 1339 031f 18       		.uleb128 0x18
 1340 0320 0C       		.uleb128 0xc
 1341 0321 72313100 		.ascii	"r11\000"
ARM GAS  C:\Users\DNIEL~1\AppData\Local\Temp\cciErhMR.s 			page 25


 1342 0325 07       		.byte	0x7
 1343 0326 2601     		.2byte	0x126
 1344 0328 A3020000 		.4byte	0x2a3
 1345 032c 02       		.byte	0x2
 1346 032d 23       		.byte	0x23
 1347 032e 1C       		.uleb128 0x1c
 1348 032f 0C       		.uleb128 0xc
 1349 0330 6C7200   		.ascii	"lr\000"
 1350 0333 07       		.byte	0x7
 1351 0334 2701     		.2byte	0x127
 1352 0336 A3020000 		.4byte	0x2a3
 1353 033a 02       		.byte	0x2
 1354 033b 23       		.byte	0x23
 1355 033c 20       		.uleb128 0x20
 1356 033d 00       		.byte	0
 1357 033e 0B       		.uleb128 0xb
 1358 033f F4010000 		.4byte	.LASF49
 1359 0343 04       		.byte	0x4
 1360 0344 07       		.byte	0x7
 1361 0345 3101     		.2byte	0x131
 1362 0347 5B030000 		.4byte	0x35b
 1363 034b 0C       		.uleb128 0xc
 1364 034c 72313300 		.ascii	"r13\000"
 1365 0350 07       		.byte	0x7
 1366 0351 3201     		.2byte	0x132
 1367 0353 5B030000 		.4byte	0x35b
 1368 0357 02       		.byte	0x2
 1369 0358 23       		.byte	0x23
 1370 0359 00       		.uleb128 0
 1371 035a 00       		.byte	0
 1372 035b 09       		.uleb128 0x9
 1373 035c 04       		.byte	0x4
 1374 035d B0020000 		.4byte	0x2b0
 1375 0361 04       		.uleb128 0x4
 1376 0362 04       		.byte	0x4
 1377 0363 07       		.byte	0x7
 1378 0364 96020000 		.4byte	.LASF50
 1379 0368 03       		.uleb128 0x3
 1380 0369 A8040000 		.4byte	.LASF51
 1381 036d 08       		.byte	0x8
 1382 036e 58       		.byte	0x58
 1383 036f 73030000 		.4byte	0x373
 1384 0373 09       		.uleb128 0x9
 1385 0374 04       		.byte	0x4
 1386 0375 79030000 		.4byte	0x379
 1387 0379 0D       		.uleb128 0xd
 1388 037a 01       		.byte	0x1
 1389 037b 85030000 		.4byte	0x385
 1390 037f 0E       		.uleb128 0xe
 1391 0380 AE020000 		.4byte	0x2ae
 1392 0384 00       		.byte	0
 1393 0385 03       		.uleb128 0x3
 1394 0386 68040000 		.4byte	.LASF52
 1395 038a 08       		.byte	0x8
 1396 038b 5D       		.byte	0x5d
 1397 038c 90030000 		.4byte	0x390
 1398 0390 05       		.uleb128 0x5
ARM GAS  C:\Users\DNIEL~1\AppData\Local\Temp\cciErhMR.s 			page 26


 1399 0391 68040000 		.4byte	.LASF52
 1400 0395 14       		.byte	0x14
 1401 0396 08       		.byte	0x8
 1402 0397 64       		.byte	0x64
 1403 0398 E3030000 		.4byte	0x3e3
 1404 039c 06       		.uleb128 0x6
 1405 039d AA010000 		.4byte	.LASF53
 1406 03a1 08       		.byte	0x8
 1407 03a2 65       		.byte	0x65
 1408 03a3 E3030000 		.4byte	0x3e3
 1409 03a7 02       		.byte	0x2
 1410 03a8 23       		.byte	0x23
 1411 03a9 00       		.uleb128 0
 1412 03aa 06       		.uleb128 0x6
 1413 03ab 5F010000 		.4byte	.LASF54
 1414 03af 08       		.byte	0x8
 1415 03b0 67       		.byte	0x67
 1416 03b1 E3030000 		.4byte	0x3e3
 1417 03b5 02       		.byte	0x2
 1418 03b6 23       		.byte	0x23
 1419 03b7 04       		.uleb128 0x4
 1420 03b8 06       		.uleb128 0x6
 1421 03b9 83020000 		.4byte	.LASF55
 1422 03bd 08       		.byte	0x8
 1423 03be 69       		.byte	0x69
 1424 03bf 10010000 		.4byte	0x110
 1425 03c3 02       		.byte	0x2
 1426 03c4 23       		.byte	0x23
 1427 03c5 08       		.uleb128 0x8
 1428 03c6 06       		.uleb128 0x6
 1429 03c7 9F020000 		.4byte	.LASF56
 1430 03cb 08       		.byte	0x8
 1431 03cc 6A       		.byte	0x6a
 1432 03cd 68030000 		.4byte	0x368
 1433 03d1 02       		.byte	0x2
 1434 03d2 23       		.byte	0x23
 1435 03d3 0C       		.uleb128 0xc
 1436 03d4 06       		.uleb128 0x6
 1437 03d5 CA040000 		.4byte	.LASF57
 1438 03d9 08       		.byte	0x8
 1439 03da 6C       		.byte	0x6c
 1440 03db AE020000 		.4byte	0x2ae
 1441 03df 02       		.byte	0x2
 1442 03e0 23       		.byte	0x23
 1443 03e1 10       		.uleb128 0x10
 1444 03e2 00       		.byte	0
 1445 03e3 09       		.uleb128 0x9
 1446 03e4 04       		.byte	0x4
 1447 03e5 85030000 		.4byte	0x385
 1448 03e9 08       		.uleb128 0x8
 1449 03ea 10       		.byte	0x10
 1450 03eb 08       		.byte	0x8
 1451 03ec 76       		.byte	0x76
 1452 03ed 2A040000 		.4byte	0x42a
 1453 03f1 06       		.uleb128 0x6
 1454 03f2 AA010000 		.4byte	.LASF53
 1455 03f6 08       		.byte	0x8
ARM GAS  C:\Users\DNIEL~1\AppData\Local\Temp\cciErhMR.s 			page 27


 1456 03f7 77       		.byte	0x77
 1457 03f8 E3030000 		.4byte	0x3e3
 1458 03fc 02       		.byte	0x2
 1459 03fd 23       		.byte	0x23
 1460 03fe 00       		.uleb128 0
 1461 03ff 06       		.uleb128 0x6
 1462 0400 5F010000 		.4byte	.LASF54
 1463 0404 08       		.byte	0x8
 1464 0405 79       		.byte	0x79
 1465 0406 E3030000 		.4byte	0x3e3
 1466 040a 02       		.byte	0x2
 1467 040b 23       		.byte	0x23
 1468 040c 04       		.uleb128 0x4
 1469 040d 06       		.uleb128 0x6
 1470 040e 83020000 		.4byte	.LASF55
 1471 0412 08       		.byte	0x8
 1472 0413 7B       		.byte	0x7b
 1473 0414 10010000 		.4byte	0x110
 1474 0418 02       		.byte	0x2
 1475 0419 23       		.byte	0x23
 1476 041a 08       		.uleb128 0x8
 1477 041b 06       		.uleb128 0x6
 1478 041c 83050000 		.4byte	.LASF58
 1479 0420 08       		.byte	0x8
 1480 0421 7C       		.byte	0x7c
 1481 0422 2A040000 		.4byte	0x42a
 1482 0426 02       		.byte	0x2
 1483 0427 23       		.byte	0x23
 1484 0428 0C       		.uleb128 0xc
 1485 0429 00       		.byte	0
 1486 042a 0F       		.uleb128 0xf
 1487 042b 10010000 		.4byte	0x110
 1488 042f 03       		.uleb128 0x3
 1489 0430 96050000 		.4byte	.LASF59
 1490 0434 08       		.byte	0x8
 1491 0435 7D       		.byte	0x7d
 1492 0436 E9030000 		.4byte	0x3e9
 1493 043a 08       		.uleb128 0x8
 1494 043b 1C       		.byte	0x1c
 1495 043c 09       		.byte	0x9
 1496 043d 5E       		.byte	0x5e
 1497 043e 97040000 		.4byte	0x497
 1498 0442 06       		.uleb128 0x6
 1499 0443 60040000 		.4byte	.LASF60
 1500 0447 09       		.byte	0x9
 1501 0448 5F       		.byte	0x5f
 1502 0449 76020000 		.4byte	0x276
 1503 044d 02       		.byte	0x2
 1504 044e 23       		.byte	0x23
 1505 044f 00       		.uleb128 0
 1506 0450 06       		.uleb128 0x6
 1507 0451 0F040000 		.4byte	.LASF61
 1508 0455 09       		.byte	0x9
 1509 0456 60       		.byte	0x60
 1510 0457 D9000000 		.4byte	0xd9
 1511 045b 02       		.byte	0x2
 1512 045c 23       		.byte	0x23
ARM GAS  C:\Users\DNIEL~1\AppData\Local\Temp\cciErhMR.s 			page 28


 1513 045d 08       		.uleb128 0x8
 1514 045e 06       		.uleb128 0x6
 1515 045f 21030000 		.4byte	.LASF62
 1516 0463 09       		.byte	0x9
 1517 0464 62       		.byte	0x62
 1518 0465 3E030000 		.4byte	0x33e
 1519 0469 02       		.byte	0x2
 1520 046a 23       		.byte	0x23
 1521 046b 0C       		.uleb128 0xc
 1522 046c 06       		.uleb128 0x6
 1523 046d 4E010000 		.4byte	.LASF63
 1524 0471 09       		.byte	0x9
 1525 0472 65       		.byte	0x65
 1526 0473 70020000 		.4byte	0x270
 1527 0477 02       		.byte	0x2
 1528 0478 23       		.byte	0x23
 1529 0479 10       		.uleb128 0x10
 1530 047a 06       		.uleb128 0x6
 1531 047b 67030000 		.4byte	.LASF64
 1532 047f 09       		.byte	0x9
 1533 0480 66       		.byte	0x66
 1534 0481 70020000 		.4byte	0x270
 1535 0485 02       		.byte	0x2
 1536 0486 23       		.byte	0x23
 1537 0487 14       		.uleb128 0x14
 1538 0488 06       		.uleb128 0x6
 1539 0489 5D030000 		.4byte	.LASF65
 1540 048d 09       		.byte	0x9
 1541 048e 69       		.byte	0x69
 1542 048f 70020000 		.4byte	0x270
 1543 0493 02       		.byte	0x2
 1544 0494 23       		.byte	0x23
 1545 0495 18       		.uleb128 0x18
 1546 0496 00       		.byte	0
 1547 0497 03       		.uleb128 0x3
 1548 0498 03050000 		.4byte	.LASF66
 1549 049c 09       		.byte	0x9
 1550 049d 6B       		.byte	0x6b
 1551 049e 3A040000 		.4byte	0x43a
 1552 04a2 05       		.uleb128 0x5
 1553 04a3 5F020000 		.4byte	.LASF67
 1554 04a7 10       		.byte	0x10
 1555 04a8 0A       		.byte	0xa
 1556 04a9 2C       		.byte	0x2c
 1557 04aa D9040000 		.4byte	0x4d9
 1558 04ae 06       		.uleb128 0x6
 1559 04af CE000000 		.4byte	.LASF68
 1560 04b3 0A       		.byte	0xa
 1561 04b4 2D       		.byte	0x2d
 1562 04b5 76020000 		.4byte	0x276
 1563 04b9 02       		.byte	0x2
 1564 04ba 23       		.byte	0x23
 1565 04bb 00       		.uleb128 0
 1566 04bc 06       		.uleb128 0x6
 1567 04bd 9D050000 		.4byte	.LASF69
 1568 04c1 0A       		.byte	0xa
 1569 04c2 2F       		.byte	0x2f
ARM GAS  C:\Users\DNIEL~1\AppData\Local\Temp\cciErhMR.s 			page 29


 1570 04c3 70020000 		.4byte	0x270
 1571 04c7 02       		.byte	0x2
 1572 04c8 23       		.byte	0x23
 1573 04c9 08       		.uleb128 0x8
 1574 04ca 06       		.uleb128 0x6
 1575 04cb 8C040000 		.4byte	.LASF70
 1576 04cf 0A       		.byte	0xa
 1577 04d0 31       		.byte	0x31
 1578 04d1 D9040000 		.4byte	0x4d9
 1579 04d5 02       		.byte	0x2
 1580 04d6 23       		.byte	0x23
 1581 04d7 0C       		.uleb128 0xc
 1582 04d8 00       		.byte	0
 1583 04d9 09       		.uleb128 0x9
 1584 04da 04       		.byte	0x4
 1585 04db A2040000 		.4byte	0x4a2
 1586 04df 03       		.uleb128 0x3
 1587 04e0 5F020000 		.4byte	.LASF67
 1588 04e4 0A       		.byte	0xa
 1589 04e5 33       		.byte	0x33
 1590 04e6 A2040000 		.4byte	0x4a2
 1591 04ea 03       		.uleb128 0x3
 1592 04eb 46050000 		.4byte	.LASF71
 1593 04ef 0B       		.byte	0xb
 1594 04f0 2C       		.byte	0x2c
 1595 04f1 F5040000 		.4byte	0x4f5
 1596 04f5 05       		.uleb128 0x5
 1597 04f6 46050000 		.4byte	.LASF71
 1598 04fa 10       		.byte	0x10
 1599 04fb 0B       		.byte	0xb
 1600 04fc 31       		.byte	0x31
 1601 04fd 3A050000 		.4byte	0x53a
 1602 0501 06       		.uleb128 0x6
 1603 0502 27020000 		.4byte	.LASF72
 1604 0506 0B       		.byte	0xb
 1605 0507 32       		.byte	0x32
 1606 0508 3A050000 		.4byte	0x53a
 1607 050c 02       		.byte	0x2
 1608 050d 23       		.byte	0x23
 1609 050e 00       		.uleb128 0
 1610 050f 06       		.uleb128 0x6
 1611 0510 BF030000 		.4byte	.LASF73
 1612 0514 0B       		.byte	0xb
 1613 0515 35       		.byte	0x35
 1614 0516 70020000 		.4byte	0x270
 1615 051a 02       		.byte	0x2
 1616 051b 23       		.byte	0x23
 1617 051c 04       		.uleb128 0x4
 1618 051d 06       		.uleb128 0x6
 1619 051e 6F030000 		.4byte	.LASF74
 1620 0522 0B       		.byte	0xb
 1621 0523 37       		.byte	0x37
 1622 0524 FA000000 		.4byte	0xfa
 1623 0528 02       		.byte	0x2
 1624 0529 23       		.byte	0x23
 1625 052a 08       		.uleb128 0x8
 1626 052b 06       		.uleb128 0x6
ARM GAS  C:\Users\DNIEL~1\AppData\Local\Temp\cciErhMR.s 			page 30


 1627 052c D8030000 		.4byte	.LASF75
 1628 0530 0B       		.byte	0xb
 1629 0531 3A       		.byte	0x3a
 1630 0532 05010000 		.4byte	0x105
 1631 0536 02       		.byte	0x2
 1632 0537 23       		.byte	0x23
 1633 0538 0C       		.uleb128 0xc
 1634 0539 00       		.byte	0
 1635 053a 09       		.uleb128 0x9
 1636 053b 04       		.byte	0x4
 1637 053c EA040000 		.4byte	0x4ea
 1638 0540 05       		.uleb128 0x5
 1639 0541 85010000 		.4byte	.LASF76
 1640 0545 04       		.byte	0x4
 1641 0546 0B       		.byte	0xb
 1642 0547 41       		.byte	0x41
 1643 0548 5B050000 		.4byte	0x55b
 1644 054c 06       		.uleb128 0x6
 1645 054d 8E050000 		.4byte	.LASF77
 1646 0551 0B       		.byte	0xb
 1647 0552 42       		.byte	0x42
 1648 0553 3A050000 		.4byte	0x53a
 1649 0557 02       		.byte	0x2
 1650 0558 23       		.byte	0x23
 1651 0559 00       		.uleb128 0
 1652 055a 00       		.byte	0
 1653 055b 03       		.uleb128 0x3
 1654 055c 85010000 		.4byte	.LASF76
 1655 0560 0B       		.byte	0xb
 1656 0561 45       		.byte	0x45
 1657 0562 40050000 		.4byte	0x540
 1658 0566 03       		.uleb128 0x3
 1659 0567 91010000 		.4byte	.LASF78
 1660 056b 0B       		.byte	0xb
 1661 056c 4A       		.byte	0x4a
 1662 056d 71050000 		.4byte	0x571
 1663 0571 09       		.uleb128 0x9
 1664 0572 04       		.byte	0x4
 1665 0573 77050000 		.4byte	0x577
 1666 0577 0D       		.uleb128 0xd
 1667 0578 01       		.byte	0x1
 1668 0579 83050000 		.4byte	0x583
 1669 057d 0E       		.uleb128 0xe
 1670 057e EF000000 		.4byte	0xef
 1671 0582 00       		.byte	0
 1672 0583 10       		.uleb128 0x10
 1673 0584 04       		.byte	0x4
 1674 0585 06       		.byte	0x6
 1675 0586 96       		.byte	0x96
 1676 0587 B8050000 		.4byte	0x5b8
 1677 058b 11       		.uleb128 0x11
 1678 058c 20000000 		.4byte	.LASF79
 1679 0590 06       		.byte	0x6
 1680 0591 9D       		.byte	0x9d
 1681 0592 E4000000 		.4byte	0xe4
 1682 0596 11       		.uleb128 0x11
 1683 0597 60000000 		.4byte	.LASF80
ARM GAS  C:\Users\DNIEL~1\AppData\Local\Temp\cciErhMR.s 			page 31


 1684 059b 06       		.byte	0x6
 1685 059c A4       		.byte	0xa4
 1686 059d E4000000 		.4byte	0xe4
 1687 05a1 11       		.uleb128 0x11
 1688 05a2 68050000 		.4byte	.LASF81
 1689 05a6 06       		.byte	0x6
 1690 05a7 AB       		.byte	0xab
 1691 05a8 AE020000 		.4byte	0x2ae
 1692 05ac 11       		.uleb128 0x11
 1693 05ad 16040000 		.4byte	.LASF82
 1694 05b1 06       		.byte	0x6
 1695 05b2 B2       		.byte	0xb2
 1696 05b3 FA000000 		.4byte	0xfa
 1697 05b7 00       		.byte	0
 1698 05b8 09       		.uleb128 0x9
 1699 05b9 04       		.byte	0x4
 1700 05ba BE050000 		.4byte	0x5be
 1701 05be 12       		.uleb128 0x12
 1702 05bf C3050000 		.4byte	0x5c3
 1703 05c3 04       		.uleb128 0x4
 1704 05c4 01       		.byte	0x1
 1705 05c5 08       		.byte	0x8
 1706 05c6 75040000 		.4byte	.LASF83
 1707 05ca 09       		.uleb128 0x9
 1708 05cb 04       		.byte	0x4
 1709 05cc DF040000 		.4byte	0x4df
 1710 05d0 03       		.uleb128 0x3
 1711 05d1 00000000 		.4byte	.LASF84
 1712 05d5 06       		.byte	0x6
 1713 05d6 E5       		.byte	0xe5
 1714 05d7 DB050000 		.4byte	0x5db
 1715 05db 09       		.uleb128 0x9
 1716 05dc 04       		.byte	0x4
 1717 05dd E1050000 		.4byte	0x5e1
 1718 05e1 13       		.uleb128 0x13
 1719 05e2 01       		.byte	0x1
 1720 05e3 E4000000 		.4byte	0xe4
 1721 05e7 F1050000 		.4byte	0x5f1
 1722 05eb 0E       		.uleb128 0xe
 1723 05ec AE020000 		.4byte	0x2ae
 1724 05f0 00       		.byte	0
 1725 05f1 05       		.uleb128 0x5
 1726 05f2 33040000 		.4byte	.LASF85
 1727 05f6 10       		.byte	0x10
 1728 05f7 0C       		.byte	0xc
 1729 05f8 3B       		.byte	0x3b
 1730 05f9 36060000 		.4byte	0x636
 1731 05fd 06       		.uleb128 0x6
 1732 05fe EF010000 		.4byte	.LASF86
 1733 0602 0C       		.byte	0xc
 1734 0603 3C       		.byte	0x3c
 1735 0604 B8050000 		.4byte	0x5b8
 1736 0608 02       		.byte	0x2
 1737 0609 23       		.byte	0x23
 1738 060a 00       		.uleb128 0
 1739 060b 06       		.uleb128 0x6
 1740 060c 34030000 		.4byte	.LASF87
ARM GAS  C:\Users\DNIEL~1\AppData\Local\Temp\cciErhMR.s 			page 32


 1741 0610 0C       		.byte	0xc
 1742 0611 3D       		.byte	0x3d
 1743 0612 38060000 		.4byte	0x638
 1744 0616 02       		.byte	0x2
 1745 0617 23       		.byte	0x23
 1746 0618 04       		.uleb128 0x4
 1747 0619 06       		.uleb128 0x6
 1748 061a DB010000 		.4byte	.LASF88
 1749 061e 0C       		.byte	0xc
 1750 061f 3E       		.byte	0x3e
 1751 0620 38060000 		.4byte	0x638
 1752 0624 02       		.byte	0x2
 1753 0625 23       		.byte	0x23
 1754 0626 08       		.uleb128 0x8
 1755 0627 06       		.uleb128 0x6
 1756 0628 86030000 		.4byte	.LASF89
 1757 062c 0C       		.byte	0xc
 1758 062d 3F       		.byte	0x3f
 1759 062e 38060000 		.4byte	0x638
 1760 0632 02       		.byte	0x2
 1761 0633 23       		.byte	0x23
 1762 0634 0C       		.uleb128 0xc
 1763 0635 00       		.byte	0
 1764 0636 14       		.uleb128 0x14
 1765 0637 01       		.byte	0x1
 1766 0638 09       		.uleb128 0x9
 1767 0639 04       		.byte	0x4
 1768 063a 36060000 		.4byte	0x636
 1769 063e 15       		.uleb128 0x15
 1770 063f CB030000 		.4byte	.LASF128
 1771 0643 01       		.byte	0x1
 1772 0644 FE       		.byte	0xfe
 1773 0645 01       		.byte	0x1
 1774 0646 01       		.byte	0x1
 1775 0647 55060000 		.4byte	0x655
 1776 064b 16       		.uleb128 0x16
 1777 064c 6D00     		.ascii	"m\000"
 1778 064e 01       		.byte	0x1
 1779 064f FF       		.byte	0xff
 1780 0650 FA000000 		.4byte	0xfa
 1781 0654 00       		.byte	0
 1782 0655 17       		.uleb128 0x17
 1783 0656 B5020000 		.4byte	.LASF90
 1784 065a 01       		.byte	0x1
 1785 065b F9       		.byte	0xf9
 1786 065c 01       		.byte	0x1
 1787 065d 00000000 		.4byte	.LFB16
 1788 0661 08000000 		.4byte	.LFE16
 1789 0665 02       		.byte	0x2
 1790 0666 7D       		.byte	0x7d
 1791 0667 00       		.sleb128 0
 1792 0668 01       		.byte	0x1
 1793 0669 7F060000 		.4byte	0x67f
 1794 066d 18       		.uleb128 0x18
 1795 066e 08000000 		.4byte	.LVL0
 1796 0672 01       		.byte	0x1
 1797 0673 780F0000 		.4byte	0xf78
ARM GAS  C:\Users\DNIEL~1\AppData\Local\Temp\cciErhMR.s 			page 33


 1798 0677 19       		.uleb128 0x19
 1799 0678 01       		.byte	0x1
 1800 0679 50       		.byte	0x50
 1801 067a 02       		.byte	0x2
 1802 067b 09       		.byte	0x9
 1803 067c FF       		.byte	0xff
 1804 067d 00       		.byte	0
 1805 067e 00       		.byte	0
 1806 067f 17       		.uleb128 0x17
 1807 0680 08000000 		.4byte	.LASF91
 1808 0684 01       		.byte	0x1
 1809 0685 80       		.byte	0x80
 1810 0686 01       		.byte	0x1
 1811 0687 00000000 		.4byte	.LFB12
 1812 068b 08000000 		.4byte	.LFE12
 1813 068f 02       		.byte	0x2
 1814 0690 7D       		.byte	0x7d
 1815 0691 00       		.sleb128 0
 1816 0692 01       		.byte	0x1
 1817 0693 A9060000 		.4byte	0x6a9
 1818 0697 18       		.uleb128 0x18
 1819 0698 08000000 		.4byte	.LVL1
 1820 069c 01       		.byte	0x1
 1821 069d 780F0000 		.4byte	0xf78
 1822 06a1 19       		.uleb128 0x19
 1823 06a2 01       		.byte	0x1
 1824 06a3 50       		.byte	0x50
 1825 06a4 02       		.byte	0x2
 1826 06a5 09       		.byte	0x9
 1827 06a6 FF       		.byte	0xff
 1828 06a7 00       		.byte	0
 1829 06a8 00       		.byte	0
 1830 06a9 17       		.uleb128 0x17
 1831 06aa 8B020000 		.4byte	.LASF92
 1832 06ae 01       		.byte	0x1
 1833 06af 4B       		.byte	0x4b
 1834 06b0 01       		.byte	0x1
 1835 06b1 00000000 		.4byte	.LFB7
 1836 06b5 08000000 		.4byte	.LFE7
 1837 06b9 02       		.byte	0x2
 1838 06ba 7D       		.byte	0x7d
 1839 06bb 00       		.sleb128 0
 1840 06bc 01       		.byte	0x1
 1841 06bd D3060000 		.4byte	0x6d3
 1842 06c1 18       		.uleb128 0x18
 1843 06c2 08000000 		.4byte	.LVL2
 1844 06c6 01       		.byte	0x1
 1845 06c7 780F0000 		.4byte	0xf78
 1846 06cb 19       		.uleb128 0x19
 1847 06cc 01       		.byte	0x1
 1848 06cd 50       		.byte	0x50
 1849 06ce 02       		.byte	0x2
 1850 06cf 09       		.byte	0x9
 1851 06d0 FF       		.byte	0xff
 1852 06d1 00       		.byte	0
 1853 06d2 00       		.byte	0
 1854 06d3 1A       		.uleb128 0x1a
ARM GAS  C:\Users\DNIEL~1\AppData\Local\Temp\cciErhMR.s 			page 34


 1855 06d4 84000000 		.4byte	.LASF93
 1856 06d8 01       		.byte	0x1
 1857 06d9 95       		.byte	0x95
 1858 06da 01       		.byte	0x1
 1859 06db 00000000 		.4byte	.LFB15
 1860 06df 7C020000 		.4byte	.LFE15
 1861 06e3 00000000 		.4byte	.LLST0
 1862 06e7 01       		.byte	0x1
 1863 06e8 B80A0000 		.4byte	0xab8
 1864 06ec 1B       		.uleb128 0x1b
 1865 06ed 6D00     		.ascii	"m\000"
 1866 06ef 01       		.byte	0x1
 1867 06f0 96       		.byte	0x96
 1868 06f1 FA000000 		.4byte	0xfa
 1869 06f5 2D000000 		.4byte	.LLST1
 1870 06f9 1C       		.uleb128 0x1c
 1871 06fa 656C3100 		.ascii	"el1\000"
 1872 06fe 01       		.byte	0x1
 1873 06ff 97       		.byte	0x97
 1874 0700 EA040000 		.4byte	0x4ea
 1875 0704 02       		.byte	0x2
 1876 0705 91       		.byte	0x91
 1877 0706 40       		.sleb128 -64
 1878 0707 1C       		.uleb128 0x1c
 1879 0708 656C3200 		.ascii	"el2\000"
 1880 070c 01       		.byte	0x1
 1881 070d 97       		.byte	0x97
 1882 070e EA040000 		.4byte	0x4ea
 1883 0712 02       		.byte	0x2
 1884 0713 91       		.byte	0x91
 1885 0714 50       		.sleb128 -48
 1886 0715 1D       		.uleb128 0x1d
 1887 0716 F9000000 		.4byte	.LASF94
 1888 071a 01       		.byte	0x1
 1889 071b 98       		.byte	0x98
 1890 071c 10010000 		.4byte	0x110
 1891 0720 F8000000 		.4byte	.LLST2
 1892 0724 1E       		.uleb128 0x1e
 1893 0725 0C000000 		.4byte	.LVL3
 1894 0729 900F0000 		.4byte	0xf90
 1895 072d 37070000 		.4byte	0x737
 1896 0731 19       		.uleb128 0x19
 1897 0732 01       		.byte	0x1
 1898 0733 50       		.byte	0x50
 1899 0734 01       		.byte	0x1
 1900 0735 37       		.byte	0x37
 1901 0736 00       		.byte	0
 1902 0737 1E       		.uleb128 0x1e
 1903 0738 14000000 		.4byte	.LVL4
 1904 073c A80F0000 		.4byte	0xfa8
 1905 0740 4B070000 		.4byte	0x74b
 1906 0744 19       		.uleb128 0x19
 1907 0745 01       		.byte	0x1
 1908 0746 50       		.byte	0x50
 1909 0747 02       		.byte	0x2
 1910 0748 09       		.byte	0x9
 1911 0749 FF       		.byte	0xff
ARM GAS  C:\Users\DNIEL~1\AppData\Local\Temp\cciErhMR.s 			page 35


 1912 074a 00       		.byte	0
 1913 074b 1E       		.uleb128 0x1e
 1914 074c 26000000 		.4byte	.LVL6
 1915 0750 C00F0000 		.4byte	0xfc0
 1916 0754 5E070000 		.4byte	0x75e
 1917 0758 19       		.uleb128 0x19
 1918 0759 01       		.byte	0x1
 1919 075a 50       		.byte	0x50
 1920 075b 01       		.byte	0x1
 1921 075c 31       		.byte	0x31
 1922 075d 00       		.byte	0
 1923 075e 1E       		.uleb128 0x1e
 1924 075f 36000000 		.4byte	.LVL7
 1925 0763 A80F0000 		.4byte	0xfa8
 1926 0767 72070000 		.4byte	0x772
 1927 076b 19       		.uleb128 0x19
 1928 076c 01       		.byte	0x1
 1929 076d 50       		.byte	0x50
 1930 076e 02       		.byte	0x2
 1931 076f 09       		.byte	0x9
 1932 0770 FF       		.byte	0xff
 1933 0771 00       		.byte	0
 1934 0772 1E       		.uleb128 0x1e
 1935 0773 44000000 		.4byte	.LVL10
 1936 0777 C00F0000 		.4byte	0xfc0
 1937 077b 85070000 		.4byte	0x785
 1938 077f 19       		.uleb128 0x19
 1939 0780 01       		.byte	0x1
 1940 0781 50       		.byte	0x50
 1941 0782 01       		.byte	0x1
 1942 0783 32       		.byte	0x32
 1943 0784 00       		.byte	0
 1944 0785 1E       		.uleb128 0x1e
 1945 0786 50000000 		.4byte	.LVL11
 1946 078a A80F0000 		.4byte	0xfa8
 1947 078e 99070000 		.4byte	0x799
 1948 0792 19       		.uleb128 0x19
 1949 0793 01       		.byte	0x1
 1950 0794 50       		.byte	0x50
 1951 0795 02       		.byte	0x2
 1952 0796 09       		.byte	0x9
 1953 0797 FF       		.byte	0xff
 1954 0798 00       		.byte	0
 1955 0799 1E       		.uleb128 0x1e
 1956 079a 5C000000 		.4byte	.LVL13
 1957 079e C00F0000 		.4byte	0xfc0
 1958 07a2 AC070000 		.4byte	0x7ac
 1959 07a6 19       		.uleb128 0x19
 1960 07a7 01       		.byte	0x1
 1961 07a8 50       		.byte	0x50
 1962 07a9 01       		.byte	0x1
 1963 07aa 33       		.byte	0x33
 1964 07ab 00       		.byte	0
 1965 07ac 1E       		.uleb128 0x1e
 1966 07ad 68000000 		.4byte	.LVL14
 1967 07b1 780F0000 		.4byte	0xf78
 1968 07b5 C0070000 		.4byte	0x7c0
ARM GAS  C:\Users\DNIEL~1\AppData\Local\Temp\cciErhMR.s 			page 36


 1969 07b9 19       		.uleb128 0x19
 1970 07ba 01       		.byte	0x1
 1971 07bb 50       		.byte	0x50
 1972 07bc 02       		.byte	0x2
 1973 07bd 09       		.byte	0x9
 1974 07be FF       		.byte	0xff
 1975 07bf 00       		.byte	0
 1976 07c0 1E       		.uleb128 0x1e
 1977 07c1 76000000 		.4byte	.LVL16
 1978 07c5 C00F0000 		.4byte	0xfc0
 1979 07c9 D3070000 		.4byte	0x7d3
 1980 07cd 19       		.uleb128 0x19
 1981 07ce 01       		.byte	0x1
 1982 07cf 50       		.byte	0x50
 1983 07d0 01       		.byte	0x1
 1984 07d1 34       		.byte	0x34
 1985 07d2 00       		.byte	0
 1986 07d3 1F       		.uleb128 0x1f
 1987 07d4 88000000 		.4byte	.LVL17
 1988 07d8 DD0F0000 		.4byte	0xfdd
 1989 07dc 1E       		.uleb128 0x1e
 1990 07dd A2000000 		.4byte	.LVL19
 1991 07e1 EB0F0000 		.4byte	0xfeb
 1992 07e5 00080000 		.4byte	0x800
 1993 07e9 19       		.uleb128 0x19
 1994 07ea 01       		.byte	0x1
 1995 07eb 53       		.byte	0x53
 1996 07ec 05       		.byte	0x5
 1997 07ed 03       		.byte	0x3
 1998 07ee 00000000 		.4byte	thread1
 1999 07f2 19       		.uleb128 0x19
 2000 07f3 01       		.byte	0x1
 2001 07f4 51       		.byte	0x51
 2002 07f5 03       		.byte	0x3
 2003 07f6 0A       		.byte	0xa
 2004 07f7 5001     		.2byte	0x150
 2005 07f9 19       		.uleb128 0x19
 2006 07fa 01       		.byte	0x1
 2007 07fb 50       		.byte	0x50
 2008 07fc 02       		.byte	0x2
 2009 07fd 77       		.byte	0x77
 2010 07fe 00       		.sleb128 0
 2011 07ff 00       		.byte	0
 2012 0800 1E       		.uleb128 0x1e
 2013 0801 AC000000 		.4byte	.LVL20
 2014 0805 A80F0000 		.4byte	0xfa8
 2015 0809 14080000 		.4byte	0x814
 2016 080d 19       		.uleb128 0x19
 2017 080e 01       		.byte	0x1
 2018 080f 50       		.byte	0x50
 2019 0810 02       		.byte	0x2
 2020 0811 09       		.byte	0x9
 2021 0812 FF       		.byte	0xff
 2022 0813 00       		.byte	0
 2023 0814 1E       		.uleb128 0x1e
 2024 0815 BC000000 		.4byte	.LVL24
 2025 0819 18100000 		.4byte	0x1018
ARM GAS  C:\Users\DNIEL~1\AppData\Local\Temp\cciErhMR.s 			page 37


 2026 081d 33080000 		.4byte	0x833
 2027 0821 19       		.uleb128 0x19
 2028 0822 01       		.byte	0x1
 2029 0823 52       		.byte	0x52
 2030 0824 02       		.byte	0x2
 2031 0825 74       		.byte	0x74
 2032 0826 37       		.sleb128 55
 2033 0827 19       		.uleb128 0x19
 2034 0828 01       		.byte	0x1
 2035 0829 51       		.byte	0x51
 2036 082a 02       		.byte	0x2
 2037 082b 74       		.byte	0x74
 2038 082c 32       		.sleb128 50
 2039 082d 19       		.uleb128 0x19
 2040 082e 01       		.byte	0x1
 2041 082f 50       		.byte	0x50
 2042 0830 01       		.byte	0x1
 2043 0831 35       		.byte	0x35
 2044 0832 00       		.byte	0
 2045 0833 1E       		.uleb128 0x1e
 2046 0834 D0000000 		.4byte	.LVL25
 2047 0838 C00F0000 		.4byte	0xfc0
 2048 083c 4E080000 		.4byte	0x84e
 2049 0840 19       		.uleb128 0x19
 2050 0841 01       		.byte	0x1
 2051 0842 51       		.byte	0x51
 2052 0843 04       		.byte	0x4
 2053 0844 79       		.byte	0x79
 2054 0845 00       		.sleb128 0
 2055 0846 31       		.byte	0x31
 2056 0847 29       		.byte	0x29
 2057 0848 19       		.uleb128 0x19
 2058 0849 01       		.byte	0x1
 2059 084a 50       		.byte	0x50
 2060 084b 01       		.byte	0x1
 2061 084c 36       		.byte	0x36
 2062 084d 00       		.byte	0
 2063 084e 1E       		.uleb128 0x1e
 2064 084f DC000000 		.4byte	.LVL26
 2065 0853 780F0000 		.4byte	0xf78
 2066 0857 62080000 		.4byte	0x862
 2067 085b 19       		.uleb128 0x19
 2068 085c 01       		.byte	0x1
 2069 085d 50       		.byte	0x50
 2070 085e 02       		.byte	0x2
 2071 085f 09       		.byte	0x9
 2072 0860 FF       		.byte	0xff
 2073 0861 00       		.byte	0
 2074 0862 1E       		.uleb128 0x1e
 2075 0863 EA000000 		.4byte	.LVL28
 2076 0867 C00F0000 		.4byte	0xfc0
 2077 086b 75080000 		.4byte	0x875
 2078 086f 19       		.uleb128 0x19
 2079 0870 01       		.byte	0x1
 2080 0871 50       		.byte	0x50
 2081 0872 01       		.byte	0x1
 2082 0873 37       		.byte	0x37
ARM GAS  C:\Users\DNIEL~1\AppData\Local\Temp\cciErhMR.s 			page 38


 2083 0874 00       		.byte	0
 2084 0875 1F       		.uleb128 0x1f
 2085 0876 F2000000 		.4byte	.LVL29
 2086 087a 3A100000 		.4byte	0x103a
 2087 087e 1E       		.uleb128 0x1e
 2088 087f F8000000 		.4byte	.LVL30
 2089 0883 900F0000 		.4byte	0xf90
 2090 0887 91080000 		.4byte	0x891
 2091 088b 19       		.uleb128 0x19
 2092 088c 01       		.byte	0x1
 2093 088d 50       		.byte	0x50
 2094 088e 01       		.byte	0x1
 2095 088f 35       		.byte	0x35
 2096 0890 00       		.byte	0
 2097 0891 1E       		.uleb128 0x1e
 2098 0892 00010000 		.4byte	.LVL31
 2099 0896 44100000 		.4byte	0x1044
 2100 089a A5080000 		.4byte	0x8a5
 2101 089e 19       		.uleb128 0x19
 2102 089f 01       		.byte	0x1
 2103 08a0 50       		.byte	0x50
 2104 08a1 02       		.byte	0x2
 2105 08a2 09       		.byte	0x9
 2106 08a3 FF       		.byte	0xff
 2107 08a4 00       		.byte	0
 2108 08a5 1E       		.uleb128 0x1e
 2109 08a6 12010000 		.4byte	.LVL33
 2110 08aa C00F0000 		.4byte	0xfc0
 2111 08ae B8080000 		.4byte	0x8b8
 2112 08b2 19       		.uleb128 0x19
 2113 08b3 01       		.byte	0x1
 2114 08b4 50       		.byte	0x50
 2115 08b5 01       		.byte	0x1
 2116 08b6 38       		.byte	0x38
 2117 08b7 00       		.byte	0
 2118 08b8 1E       		.uleb128 0x1e
 2119 08b9 1E010000 		.4byte	.LVL34
 2120 08bd 780F0000 		.4byte	0xf78
 2121 08c1 CC080000 		.4byte	0x8cc
 2122 08c5 19       		.uleb128 0x19
 2123 08c6 01       		.byte	0x1
 2124 08c7 50       		.byte	0x50
 2125 08c8 02       		.byte	0x2
 2126 08c9 09       		.byte	0x9
 2127 08ca FF       		.byte	0xff
 2128 08cb 00       		.byte	0
 2129 08cc 1E       		.uleb128 0x1e
 2130 08cd 2C010000 		.4byte	.LVL36
 2131 08d1 C00F0000 		.4byte	0xfc0
 2132 08d5 DF080000 		.4byte	0x8df
 2133 08d9 19       		.uleb128 0x19
 2134 08da 01       		.byte	0x1
 2135 08db 50       		.byte	0x50
 2136 08dc 01       		.byte	0x1
 2137 08dd 39       		.byte	0x39
 2138 08de 00       		.byte	0
 2139 08df 1F       		.uleb128 0x1f
ARM GAS  C:\Users\DNIEL~1\AppData\Local\Temp\cciErhMR.s 			page 39


 2140 08e0 36010000 		.4byte	.LVL37
 2141 08e4 DD0F0000 		.4byte	0xfdd
 2142 08e8 1E       		.uleb128 0x1e
 2143 08e9 4E010000 		.4byte	.LVL40
 2144 08ed EB0F0000 		.4byte	0xfeb
 2145 08f1 0C090000 		.4byte	0x90c
 2146 08f5 19       		.uleb128 0x19
 2147 08f6 01       		.byte	0x1
 2148 08f7 53       		.byte	0x53
 2149 08f8 05       		.byte	0x5
 2150 08f9 03       		.byte	0x3
 2151 08fa 00000000 		.4byte	thread1
 2152 08fe 19       		.uleb128 0x19
 2153 08ff 01       		.byte	0x1
 2154 0900 51       		.byte	0x51
 2155 0901 03       		.byte	0x3
 2156 0902 0A       		.byte	0xa
 2157 0903 5001     		.2byte	0x150
 2158 0905 19       		.uleb128 0x19
 2159 0906 01       		.byte	0x1
 2160 0907 50       		.byte	0x50
 2161 0908 02       		.byte	0x2
 2162 0909 77       		.byte	0x77
 2163 090a 00       		.sleb128 0
 2164 090b 00       		.byte	0
 2165 090c 1E       		.uleb128 0x1e
 2166 090d 58010000 		.4byte	.LVL41
 2167 0911 44100000 		.4byte	0x1044
 2168 0915 20090000 		.4byte	0x920
 2169 0919 19       		.uleb128 0x19
 2170 091a 01       		.byte	0x1
 2171 091b 50       		.byte	0x50
 2172 091c 02       		.byte	0x2
 2173 091d 09       		.byte	0x9
 2174 091e FF       		.byte	0xff
 2175 091f 00       		.byte	0
 2176 0920 1E       		.uleb128 0x1e
 2177 0921 68010000 		.4byte	.LVL45
 2178 0925 18100000 		.4byte	0x1018
 2179 0929 3F090000 		.4byte	0x93f
 2180 092d 19       		.uleb128 0x19
 2181 092e 01       		.byte	0x1
 2182 092f 52       		.byte	0x52
 2183 0930 02       		.byte	0x2
 2184 0931 74       		.byte	0x74
 2185 0932 37       		.sleb128 55
 2186 0933 19       		.uleb128 0x19
 2187 0934 01       		.byte	0x1
 2188 0935 51       		.byte	0x51
 2189 0936 02       		.byte	0x2
 2190 0937 74       		.byte	0x74
 2191 0938 32       		.sleb128 50
 2192 0939 19       		.uleb128 0x19
 2193 093a 01       		.byte	0x1
 2194 093b 50       		.byte	0x50
 2195 093c 01       		.byte	0x1
 2196 093d 3A       		.byte	0x3a
ARM GAS  C:\Users\DNIEL~1\AppData\Local\Temp\cciErhMR.s 			page 40


 2197 093e 00       		.byte	0
 2198 093f 1E       		.uleb128 0x1e
 2199 0940 80010000 		.4byte	.LVL46
 2200 0944 C00F0000 		.4byte	0xfc0
 2201 0948 5A090000 		.4byte	0x95a
 2202 094c 19       		.uleb128 0x19
 2203 094d 01       		.byte	0x1
 2204 094e 51       		.byte	0x51
 2205 094f 04       		.byte	0x4
 2206 0950 79       		.byte	0x79
 2207 0951 00       		.sleb128 0
 2208 0952 31       		.byte	0x31
 2209 0953 29       		.byte	0x29
 2210 0954 19       		.uleb128 0x19
 2211 0955 01       		.byte	0x1
 2212 0956 50       		.byte	0x50
 2213 0957 01       		.byte	0x1
 2214 0958 3B       		.byte	0x3b
 2215 0959 00       		.byte	0
 2216 095a 1E       		.uleb128 0x1e
 2217 095b 8E010000 		.4byte	.LVL47
 2218 095f 780F0000 		.4byte	0xf78
 2219 0963 6E090000 		.4byte	0x96e
 2220 0967 19       		.uleb128 0x19
 2221 0968 01       		.byte	0x1
 2222 0969 50       		.byte	0x50
 2223 096a 02       		.byte	0x2
 2224 096b 09       		.byte	0x9
 2225 096c FF       		.byte	0xff
 2226 096d 00       		.byte	0
 2227 096e 1E       		.uleb128 0x1e
 2228 096f 9C010000 		.4byte	.LVL49
 2229 0973 C00F0000 		.4byte	0xfc0
 2230 0977 81090000 		.4byte	0x981
 2231 097b 19       		.uleb128 0x19
 2232 097c 01       		.byte	0x1
 2233 097d 50       		.byte	0x50
 2234 097e 01       		.byte	0x1
 2235 097f 3C       		.byte	0x3c
 2236 0980 00       		.byte	0
 2237 0981 1F       		.uleb128 0x1f
 2238 0982 AC010000 		.4byte	.LVL51
 2239 0986 3A100000 		.4byte	0x103a
 2240 098a 1E       		.uleb128 0x1e
 2241 098b BC010000 		.4byte	.LVL52
 2242 098f 5C100000 		.4byte	0x105c
 2243 0993 A9090000 		.4byte	0x9a9
 2244 0997 19       		.uleb128 0x19
 2245 0998 01       		.byte	0x1
 2246 0999 52       		.byte	0x52
 2247 099a 01       		.byte	0x1
 2248 099b 31       		.byte	0x31
 2249 099c 19       		.uleb128 0x19
 2250 099d 01       		.byte	0x1
 2251 099e 51       		.byte	0x51
 2252 099f 02       		.byte	0x2
 2253 09a0 91       		.byte	0x91
ARM GAS  C:\Users\DNIEL~1\AppData\Local\Temp\cciErhMR.s 			page 41


 2254 09a1 40       		.sleb128 -64
 2255 09a2 19       		.uleb128 0x19
 2256 09a3 01       		.byte	0x1
 2257 09a4 50       		.byte	0x50
 2258 09a5 02       		.byte	0x2
 2259 09a6 79       		.byte	0x79
 2260 09a7 00       		.sleb128 0
 2261 09a8 00       		.byte	0
 2262 09a9 1E       		.uleb128 0x1e
 2263 09aa C6010000 		.4byte	.LVL53
 2264 09ae 5C100000 		.4byte	0x105c
 2265 09b2 C8090000 		.4byte	0x9c8
 2266 09b6 19       		.uleb128 0x19
 2267 09b7 01       		.byte	0x1
 2268 09b8 52       		.byte	0x52
 2269 09b9 01       		.byte	0x1
 2270 09ba 34       		.byte	0x34
 2271 09bb 19       		.uleb128 0x19
 2272 09bc 01       		.byte	0x1
 2273 09bd 51       		.byte	0x51
 2274 09be 02       		.byte	0x2
 2275 09bf 91       		.byte	0x91
 2276 09c0 50       		.sleb128 -48
 2277 09c1 19       		.uleb128 0x19
 2278 09c2 01       		.byte	0x1
 2279 09c3 50       		.byte	0x50
 2280 09c4 02       		.byte	0x2
 2281 09c5 74       		.byte	0x74
 2282 09c6 00       		.sleb128 0
 2283 09c7 00       		.byte	0
 2284 09c8 1F       		.uleb128 0x1f
 2285 09c9 CA010000 		.4byte	.LVL54
 2286 09cd DD0F0000 		.4byte	0xfdd
 2287 09d1 1E       		.uleb128 0x1e
 2288 09d2 E4010000 		.4byte	.LVL56
 2289 09d6 EB0F0000 		.4byte	0xfeb
 2290 09da FF090000 		.4byte	0x9ff
 2291 09de 19       		.uleb128 0x19
 2292 09df 01       		.byte	0x1
 2293 09e0 53       		.byte	0x53
 2294 09e1 05       		.byte	0x5
 2295 09e2 03       		.byte	0x3
 2296 09e3 00000000 		.4byte	thread2
 2297 09e7 19       		.uleb128 0x19
 2298 09e8 01       		.byte	0x1
 2299 09e9 51       		.byte	0x51
 2300 09ea 03       		.byte	0x3
 2301 09eb 0A       		.byte	0xa
 2302 09ec 5001     		.2byte	0x150
 2303 09ee 19       		.uleb128 0x19
 2304 09ef 01       		.byte	0x1
 2305 09f0 50       		.byte	0x50
 2306 09f1 02       		.byte	0x2
 2307 09f2 77       		.byte	0x77
 2308 09f3 00       		.sleb128 0
 2309 09f4 19       		.uleb128 0x19
 2310 09f5 02       		.byte	0x2
ARM GAS  C:\Users\DNIEL~1\AppData\Local\Temp\cciErhMR.s 			page 42


 2311 09f6 7D       		.byte	0x7d
 2312 09f7 00       		.sleb128 0
 2313 09f8 05       		.byte	0x5
 2314 09f9 03       		.byte	0x3
 2315 09fa 00000000 		.4byte	.LC0
 2316 09fe 00       		.byte	0
 2317 09ff 1E       		.uleb128 0x1e
 2318 0a00 EC010000 		.4byte	.LVL57
 2319 0a04 80100000 		.4byte	0x1080
 2320 0a08 120A0000 		.4byte	0xa12
 2321 0a0c 19       		.uleb128 0x19
 2322 0a0d 01       		.byte	0x1
 2323 0a0e 50       		.byte	0x50
 2324 0a0f 01       		.byte	0x1
 2325 0a10 35       		.byte	0x35
 2326 0a11 00       		.byte	0
 2327 0a12 1E       		.uleb128 0x1e
 2328 0a13 FA010000 		.4byte	.LVL59
 2329 0a17 18100000 		.4byte	0x1018
 2330 0a1b 310A0000 		.4byte	0xa31
 2331 0a1f 19       		.uleb128 0x19
 2332 0a20 01       		.byte	0x1
 2333 0a21 52       		.byte	0x52
 2334 0a22 02       		.byte	0x2
 2335 0a23 76       		.byte	0x76
 2336 0a24 37       		.sleb128 55
 2337 0a25 19       		.uleb128 0x19
 2338 0a26 01       		.byte	0x1
 2339 0a27 51       		.byte	0x51
 2340 0a28 02       		.byte	0x2
 2341 0a29 76       		.byte	0x76
 2342 0a2a 32       		.sleb128 50
 2343 0a2b 19       		.uleb128 0x19
 2344 0a2c 01       		.byte	0x1
 2345 0a2d 50       		.byte	0x50
 2346 0a2e 01       		.byte	0x1
 2347 0a2f 3D       		.byte	0x3d
 2348 0a30 00       		.byte	0
 2349 0a31 1E       		.uleb128 0x1e
 2350 0a32 08020000 		.4byte	.LVL60
 2351 0a36 780F0000 		.4byte	0xf78
 2352 0a3a 450A0000 		.4byte	0xa45
 2353 0a3e 19       		.uleb128 0x19
 2354 0a3f 01       		.byte	0x1
 2355 0a40 50       		.byte	0x50
 2356 0a41 02       		.byte	0x2
 2357 0a42 09       		.byte	0x9
 2358 0a43 FF       		.byte	0xff
 2359 0a44 00       		.byte	0
 2360 0a45 1E       		.uleb128 0x1e
 2361 0a46 16020000 		.4byte	.LVL62
 2362 0a4a C00F0000 		.4byte	0xfc0
 2363 0a4e 580A0000 		.4byte	0xa58
 2364 0a52 19       		.uleb128 0x19
 2365 0a53 01       		.byte	0x1
 2366 0a54 50       		.byte	0x50
 2367 0a55 01       		.byte	0x1
ARM GAS  C:\Users\DNIEL~1\AppData\Local\Temp\cciErhMR.s 			page 43


 2368 0a56 3E       		.byte	0x3e
 2369 0a57 00       		.byte	0
 2370 0a58 1F       		.uleb128 0x1f
 2371 0a59 20020000 		.4byte	.LVL63
 2372 0a5d 3A100000 		.4byte	0x103a
 2373 0a61 1E       		.uleb128 0x1e
 2374 0a62 28020000 		.4byte	.LVL64
 2375 0a66 98100000 		.4byte	0x1098
 2376 0a6a 7B0A0000 		.4byte	0xa7b
 2377 0a6e 19       		.uleb128 0x19
 2378 0a6f 01       		.byte	0x1
 2379 0a70 51       		.byte	0x51
 2380 0a71 02       		.byte	0x2
 2381 0a72 91       		.byte	0x91
 2382 0a73 40       		.sleb128 -64
 2383 0a74 19       		.uleb128 0x19
 2384 0a75 01       		.byte	0x1
 2385 0a76 50       		.byte	0x50
 2386 0a77 02       		.byte	0x2
 2387 0a78 79       		.byte	0x79
 2388 0a79 00       		.sleb128 0
 2389 0a7a 00       		.byte	0
 2390 0a7b 1E       		.uleb128 0x1e
 2391 0a7c 30020000 		.4byte	.LVL65
 2392 0a80 98100000 		.4byte	0x1098
 2393 0a84 950A0000 		.4byte	0xa95
 2394 0a88 19       		.uleb128 0x19
 2395 0a89 01       		.byte	0x1
 2396 0a8a 51       		.byte	0x51
 2397 0a8b 02       		.byte	0x2
 2398 0a8c 91       		.byte	0x91
 2399 0a8d 50       		.sleb128 -48
 2400 0a8e 19       		.uleb128 0x19
 2401 0a8f 01       		.byte	0x1
 2402 0a90 50       		.byte	0x50
 2403 0a91 02       		.byte	0x2
 2404 0a92 74       		.byte	0x74
 2405 0a93 00       		.sleb128 0
 2406 0a94 00       		.byte	0
 2407 0a95 1E       		.uleb128 0x1e
 2408 0a96 42020000 		.4byte	.LVL66
 2409 0a9a C00F0000 		.4byte	0xfc0
 2410 0a9e A80A0000 		.4byte	0xaa8
 2411 0aa2 19       		.uleb128 0x19
 2412 0aa3 01       		.byte	0x1
 2413 0aa4 50       		.byte	0x50
 2414 0aa5 01       		.byte	0x1
 2415 0aa6 3F       		.byte	0x3f
 2416 0aa7 00       		.byte	0
 2417 0aa8 20       		.uleb128 0x20
 2418 0aa9 56020000 		.4byte	.LVL67
 2419 0aad C00F0000 		.4byte	0xfc0
 2420 0ab1 19       		.uleb128 0x19
 2421 0ab2 01       		.byte	0x1
 2422 0ab3 50       		.byte	0x50
 2423 0ab4 01       		.byte	0x1
 2424 0ab5 40       		.byte	0x40
ARM GAS  C:\Users\DNIEL~1\AppData\Local\Temp\cciErhMR.s 			page 44


 2425 0ab6 00       		.byte	0
 2426 0ab7 00       		.byte	0
 2427 0ab8 21       		.uleb128 0x21
 2428 0ab9 19030000 		.4byte	.LASF95
 2429 0abd 01       		.byte	0x1
 2430 0abe 8C       		.byte	0x8c
 2431 0abf 01       		.byte	0x1
 2432 0ac0 E4000000 		.4byte	0xe4
 2433 0ac4 00000000 		.4byte	.LFB14
 2434 0ac8 28000000 		.4byte	.LFE14
 2435 0acc 6F010000 		.4byte	.LLST3
 2436 0ad0 01       		.byte	0x1
 2437 0ad1 2B0B0000 		.4byte	0xb2b
 2438 0ad5 22       		.uleb128 0x22
 2439 0ad6 7000     		.ascii	"p\000"
 2440 0ad8 01       		.byte	0x1
 2441 0ad9 8C       		.byte	0x8c
 2442 0ada AE020000 		.4byte	0x2ae
 2443 0ade 8F010000 		.4byte	.LLST4
 2444 0ae2 1E       		.uleb128 0x1e
 2445 0ae3 10000000 		.4byte	.LVL70
 2446 0ae7 B1100000 		.4byte	0x10b1
 2447 0aeb FE0A0000 		.4byte	0xafe
 2448 0aef 19       		.uleb128 0x19
 2449 0af0 01       		.byte	0x1
 2450 0af1 51       		.byte	0x51
 2451 0af2 01       		.byte	0x1
 2452 0af3 30       		.byte	0x30
 2453 0af4 19       		.uleb128 0x19
 2454 0af5 01       		.byte	0x1
 2455 0af6 50       		.byte	0x50
 2456 0af7 05       		.byte	0x5
 2457 0af8 03       		.byte	0x3
 2458 0af9 00000000 		.4byte	.LANCHOR0
 2459 0afd 00       		.byte	0
 2460 0afe 1E       		.uleb128 0x1e
 2461 0aff 16000000 		.4byte	.LVL71
 2462 0b03 CA100000 		.4byte	0x10ca
 2463 0b07 120B0000 		.4byte	0xb12
 2464 0b0b 19       		.uleb128 0x19
 2465 0b0c 01       		.byte	0x1
 2466 0b0d 50       		.byte	0x50
 2467 0b0e 02       		.byte	0x2
 2468 0b0f 08       		.byte	0x8
 2469 0b10 32       		.byte	0x32
 2470 0b11 00       		.byte	0
 2471 0b12 20       		.uleb128 0x20
 2472 0b13 24000000 		.4byte	.LVL72
 2473 0b17 B1100000 		.4byte	0x10b1
 2474 0b1b 19       		.uleb128 0x19
 2475 0b1c 01       		.byte	0x1
 2476 0b1d 51       		.byte	0x51
 2477 0b1e 01       		.byte	0x1
 2478 0b1f 30       		.byte	0x30
 2479 0b20 19       		.uleb128 0x19
 2480 0b21 01       		.byte	0x1
 2481 0b22 50       		.byte	0x50
ARM GAS  C:\Users\DNIEL~1\AppData\Local\Temp\cciErhMR.s 			page 45


 2482 0b23 05       		.byte	0x5
 2483 0b24 03       		.byte	0x3
 2484 0b25 00000000 		.4byte	.LANCHOR1
 2485 0b29 00       		.byte	0
 2486 0b2a 00       		.byte	0
 2487 0b2b 21       		.uleb128 0x21
 2488 0b2c 11030000 		.4byte	.LASF96
 2489 0b30 01       		.byte	0x1
 2490 0b31 85       		.byte	0x85
 2491 0b32 01       		.byte	0x1
 2492 0b33 E4000000 		.4byte	0xe4
 2493 0b37 00000000 		.4byte	.LFB13
 2494 0b3b 16000000 		.4byte	.LFE13
 2495 0b3f B0010000 		.4byte	.LLST5
 2496 0b43 01       		.byte	0x1
 2497 0b44 7F0B0000 		.4byte	0xb7f
 2498 0b48 22       		.uleb128 0x22
 2499 0b49 7000     		.ascii	"p\000"
 2500 0b4b 01       		.byte	0x1
 2501 0b4c 85       		.byte	0x85
 2502 0b4d AE020000 		.4byte	0x2ae
 2503 0b51 D0010000 		.4byte	.LLST6
 2504 0b55 1E       		.uleb128 0x1e
 2505 0b56 0A000000 		.4byte	.LVL75
 2506 0b5a CA100000 		.4byte	0x10ca
 2507 0b5e 690B0000 		.4byte	0xb69
 2508 0b62 19       		.uleb128 0x19
 2509 0b63 01       		.byte	0x1
 2510 0b64 50       		.byte	0x50
 2511 0b65 02       		.byte	0x2
 2512 0b66 08       		.byte	0x8
 2513 0b67 32       		.byte	0x32
 2514 0b68 00       		.byte	0
 2515 0b69 20       		.uleb128 0x20
 2516 0b6a 12000000 		.4byte	.LVL76
 2517 0b6e DF100000 		.4byte	0x10df
 2518 0b72 19       		.uleb128 0x19
 2519 0b73 01       		.byte	0x1
 2520 0b74 51       		.byte	0x51
 2521 0b75 01       		.byte	0x1
 2522 0b76 31       		.byte	0x31
 2523 0b77 19       		.uleb128 0x19
 2524 0b78 01       		.byte	0x1
 2525 0b79 50       		.byte	0x50
 2526 0b7a 02       		.byte	0x2
 2527 0b7b 74       		.byte	0x74
 2528 0b7c 00       		.sleb128 0
 2529 0b7d 00       		.byte	0
 2530 0b7e 00       		.byte	0
 2531 0b7f 1A       		.uleb128 0x1a
 2532 0b80 B4050000 		.4byte	.LASF97
 2533 0b84 01       		.byte	0x1
 2534 0b85 55       		.byte	0x55
 2535 0b86 01       		.byte	0x1
 2536 0b87 00000000 		.4byte	.LFB11
 2537 0b8b 84000000 		.4byte	.LFE11
 2538 0b8f EE010000 		.4byte	.LLST7
ARM GAS  C:\Users\DNIEL~1\AppData\Local\Temp\cciErhMR.s 			page 46


 2539 0b93 01       		.byte	0x1
 2540 0b94 940C0000 		.4byte	0xc94
 2541 0b98 1C       		.uleb128 0x1c
 2542 0b99 656C3100 		.ascii	"el1\000"
 2543 0b9d 01       		.byte	0x1
 2544 0b9e 56       		.byte	0x56
 2545 0b9f EA040000 		.4byte	0x4ea
 2546 0ba3 02       		.byte	0x2
 2547 0ba4 91       		.byte	0x91
 2548 0ba5 58       		.sleb128 -40
 2549 0ba6 1C       		.uleb128 0x1c
 2550 0ba7 656C3200 		.ascii	"el2\000"
 2551 0bab 01       		.byte	0x1
 2552 0bac 56       		.byte	0x56
 2553 0bad EA040000 		.4byte	0x4ea
 2554 0bb1 02       		.byte	0x2
 2555 0bb2 91       		.byte	0x91
 2556 0bb3 68       		.sleb128 -24
 2557 0bb4 1E       		.uleb128 0x1e
 2558 0bb5 12000000 		.4byte	.LVL77
 2559 0bb9 5C100000 		.4byte	0x105c
 2560 0bbd D30B0000 		.4byte	0xbd3
 2561 0bc1 19       		.uleb128 0x19
 2562 0bc2 01       		.byte	0x1
 2563 0bc3 52       		.byte	0x52
 2564 0bc4 01       		.byte	0x1
 2565 0bc5 31       		.byte	0x31
 2566 0bc6 19       		.uleb128 0x19
 2567 0bc7 01       		.byte	0x1
 2568 0bc8 51       		.byte	0x51
 2569 0bc9 02       		.byte	0x2
 2570 0bca 7D       		.byte	0x7d
 2571 0bcb 00       		.sleb128 0
 2572 0bcc 19       		.uleb128 0x19
 2573 0bcd 01       		.byte	0x1
 2574 0bce 50       		.byte	0x50
 2575 0bcf 02       		.byte	0x2
 2576 0bd0 74       		.byte	0x74
 2577 0bd1 00       		.sleb128 0
 2578 0bd2 00       		.byte	0
 2579 0bd3 1E       		.uleb128 0x1e
 2580 0bd4 1C000000 		.4byte	.LVL78
 2581 0bd8 5C100000 		.4byte	0x105c
 2582 0bdc F20B0000 		.4byte	0xbf2
 2583 0be0 19       		.uleb128 0x19
 2584 0be1 01       		.byte	0x1
 2585 0be2 52       		.byte	0x52
 2586 0be3 01       		.byte	0x1
 2587 0be4 32       		.byte	0x32
 2588 0be5 19       		.uleb128 0x19
 2589 0be6 01       		.byte	0x1
 2590 0be7 51       		.byte	0x51
 2591 0be8 02       		.byte	0x2
 2592 0be9 91       		.byte	0x91
 2593 0bea 68       		.sleb128 -24
 2594 0beb 19       		.uleb128 0x19
 2595 0bec 01       		.byte	0x1
ARM GAS  C:\Users\DNIEL~1\AppData\Local\Temp\cciErhMR.s 			page 47


 2596 0bed 50       		.byte	0x50
 2597 0bee 02       		.byte	0x2
 2598 0bef 74       		.byte	0x74
 2599 0bf0 00       		.sleb128 0
 2600 0bf1 00       		.byte	0
 2601 0bf2 1E       		.uleb128 0x1e
 2602 0bf3 2A000000 		.4byte	.LVL79
 2603 0bf7 C00F0000 		.4byte	0xfc0
 2604 0bfb 050C0000 		.4byte	0xc05
 2605 0bff 19       		.uleb128 0x19
 2606 0c00 01       		.byte	0x1
 2607 0c01 50       		.byte	0x50
 2608 0c02 01       		.byte	0x1
 2609 0c03 31       		.byte	0x31
 2610 0c04 00       		.byte	0
 2611 0c05 1E       		.uleb128 0x1e
 2612 0c06 38000000 		.4byte	.LVL80
 2613 0c0a 98100000 		.4byte	0x1098
 2614 0c0e 1F0C0000 		.4byte	0xc1f
 2615 0c12 19       		.uleb128 0x19
 2616 0c13 01       		.byte	0x1
 2617 0c14 51       		.byte	0x51
 2618 0c15 02       		.byte	0x2
 2619 0c16 7D       		.byte	0x7d
 2620 0c17 00       		.sleb128 0
 2621 0c18 19       		.uleb128 0x19
 2622 0c19 01       		.byte	0x1
 2623 0c1a 50       		.byte	0x50
 2624 0c1b 02       		.byte	0x2
 2625 0c1c 74       		.byte	0x74
 2626 0c1d 00       		.sleb128 0
 2627 0c1e 00       		.byte	0
 2628 0c1f 1E       		.uleb128 0x1e
 2629 0c20 46000000 		.4byte	.LVL81
 2630 0c24 C00F0000 		.4byte	0xfc0
 2631 0c28 320C0000 		.4byte	0xc32
 2632 0c2c 19       		.uleb128 0x19
 2633 0c2d 01       		.byte	0x1
 2634 0c2e 50       		.byte	0x50
 2635 0c2f 01       		.byte	0x1
 2636 0c30 32       		.byte	0x32
 2637 0c31 00       		.byte	0
 2638 0c32 1E       		.uleb128 0x1e
 2639 0c33 52000000 		.4byte	.LVL82
 2640 0c37 98100000 		.4byte	0x1098
 2641 0c3b 4C0C0000 		.4byte	0xc4c
 2642 0c3f 19       		.uleb128 0x19
 2643 0c40 01       		.byte	0x1
 2644 0c41 51       		.byte	0x51
 2645 0c42 02       		.byte	0x2
 2646 0c43 91       		.byte	0x91
 2647 0c44 68       		.sleb128 -24
 2648 0c45 19       		.uleb128 0x19
 2649 0c46 01       		.byte	0x1
 2650 0c47 50       		.byte	0x50
 2651 0c48 02       		.byte	0x2
 2652 0c49 74       		.byte	0x74
ARM GAS  C:\Users\DNIEL~1\AppData\Local\Temp\cciErhMR.s 			page 48


 2653 0c4a 00       		.sleb128 0
 2654 0c4b 00       		.byte	0
 2655 0c4c 1E       		.uleb128 0x1e
 2656 0c4d 60000000 		.4byte	.LVL83
 2657 0c51 C00F0000 		.4byte	0xfc0
 2658 0c55 5F0C0000 		.4byte	0xc5f
 2659 0c59 19       		.uleb128 0x19
 2660 0c5a 01       		.byte	0x1
 2661 0c5b 50       		.byte	0x50
 2662 0c5c 01       		.byte	0x1
 2663 0c5d 33       		.byte	0x33
 2664 0c5e 00       		.byte	0
 2665 0c5f 1E       		.uleb128 0x1e
 2666 0c60 6C000000 		.4byte	.LVL84
 2667 0c64 F8100000 		.4byte	0x10f8
 2668 0c68 7B0C0000 		.4byte	0xc7b
 2669 0c6c 19       		.uleb128 0x19
 2670 0c6d 01       		.byte	0x1
 2671 0c6e 51       		.byte	0x51
 2672 0c6f 01       		.byte	0x1
 2673 0c70 37       		.byte	0x37
 2674 0c71 19       		.uleb128 0x19
 2675 0c72 01       		.byte	0x1
 2676 0c73 50       		.byte	0x50
 2677 0c74 05       		.byte	0x5
 2678 0c75 03       		.byte	0x3
 2679 0c76 00000000 		.4byte	.LANCHOR2
 2680 0c7a 00       		.byte	0
 2681 0c7b 20       		.uleb128 0x20
 2682 0c7c 74000000 		.4byte	.LVL85
 2683 0c80 1C110000 		.4byte	0x111c
 2684 0c84 19       		.uleb128 0x19
 2685 0c85 01       		.byte	0x1
 2686 0c86 51       		.byte	0x51
 2687 0c87 05       		.byte	0x5
 2688 0c88 03       		.byte	0x3
 2689 0c89 04000000 		.4byte	.LC1
 2690 0c8d 19       		.uleb128 0x19
 2691 0c8e 01       		.byte	0x1
 2692 0c8f 50       		.byte	0x50
 2693 0c90 01       		.byte	0x1
 2694 0c91 34       		.byte	0x34
 2695 0c92 00       		.byte	0
 2696 0c93 00       		.byte	0
 2697 0c94 23       		.uleb128 0x23
 2698 0c95 683300   		.ascii	"h3\000"
 2699 0c98 01       		.byte	0x1
 2700 0c99 52       		.byte	0x52
 2701 0c9a 01       		.byte	0x1
 2702 0c9b 00000000 		.4byte	.LFB10
 2703 0c9f 06000000 		.4byte	.LFE10
 2704 0ca3 02       		.byte	0x2
 2705 0ca4 7D       		.byte	0x7d
 2706 0ca5 00       		.sleb128 0
 2707 0ca6 01       		.byte	0x1
 2708 0ca7 CB0C0000 		.4byte	0xccb
 2709 0cab 22       		.uleb128 0x22
ARM GAS  C:\Users\DNIEL~1\AppData\Local\Temp\cciErhMR.s 			page 49


 2710 0cac 696400   		.ascii	"id\000"
 2711 0caf 01       		.byte	0x1
 2712 0cb0 52       		.byte	0x52
 2713 0cb1 EF000000 		.4byte	0xef
 2714 0cb5 1A020000 		.4byte	.LLST8
 2715 0cb9 18       		.uleb128 0x18
 2716 0cba 06000000 		.4byte	.LVL88
 2717 0cbe 01       		.byte	0x1
 2718 0cbf 3F110000 		.4byte	0x113f
 2719 0cc3 19       		.uleb128 0x19
 2720 0cc4 01       		.byte	0x1
 2721 0cc5 50       		.byte	0x50
 2722 0cc6 02       		.byte	0x2
 2723 0cc7 08       		.byte	0x8
 2724 0cc8 43       		.byte	0x43
 2725 0cc9 00       		.byte	0
 2726 0cca 00       		.byte	0
 2727 0ccb 23       		.uleb128 0x23
 2728 0ccc 683200   		.ascii	"h2\000"
 2729 0ccf 01       		.byte	0x1
 2730 0cd0 51       		.byte	0x51
 2731 0cd1 01       		.byte	0x1
 2732 0cd2 00000000 		.4byte	.LFB9
 2733 0cd6 06000000 		.4byte	.LFE9
 2734 0cda 02       		.byte	0x2
 2735 0cdb 7D       		.byte	0x7d
 2736 0cdc 00       		.sleb128 0
 2737 0cdd 01       		.byte	0x1
 2738 0cde 020D0000 		.4byte	0xd02
 2739 0ce2 22       		.uleb128 0x22
 2740 0ce3 696400   		.ascii	"id\000"
 2741 0ce6 01       		.byte	0x1
 2742 0ce7 51       		.byte	0x51
 2743 0ce8 EF000000 		.4byte	0xef
 2744 0cec 3B020000 		.4byte	.LLST9
 2745 0cf0 18       		.uleb128 0x18
 2746 0cf1 06000000 		.4byte	.LVL91
 2747 0cf5 01       		.byte	0x1
 2748 0cf6 3F110000 		.4byte	0x113f
 2749 0cfa 19       		.uleb128 0x19
 2750 0cfb 01       		.byte	0x1
 2751 0cfc 50       		.byte	0x50
 2752 0cfd 02       		.byte	0x2
 2753 0cfe 08       		.byte	0x8
 2754 0cff 42       		.byte	0x42
 2755 0d00 00       		.byte	0
 2756 0d01 00       		.byte	0
 2757 0d02 23       		.uleb128 0x23
 2758 0d03 683100   		.ascii	"h1\000"
 2759 0d06 01       		.byte	0x1
 2760 0d07 50       		.byte	0x50
 2761 0d08 01       		.byte	0x1
 2762 0d09 00000000 		.4byte	.LFB8
 2763 0d0d 06000000 		.4byte	.LFE8
 2764 0d11 02       		.byte	0x2
 2765 0d12 7D       		.byte	0x7d
 2766 0d13 00       		.sleb128 0
ARM GAS  C:\Users\DNIEL~1\AppData\Local\Temp\cciErhMR.s 			page 50


 2767 0d14 01       		.byte	0x1
 2768 0d15 390D0000 		.4byte	0xd39
 2769 0d19 22       		.uleb128 0x22
 2770 0d1a 696400   		.ascii	"id\000"
 2771 0d1d 01       		.byte	0x1
 2772 0d1e 50       		.byte	0x50
 2773 0d1f EF000000 		.4byte	0xef
 2774 0d23 5C020000 		.4byte	.LLST10
 2775 0d27 18       		.uleb128 0x18
 2776 0d28 06000000 		.4byte	.LVL94
 2777 0d2c 01       		.byte	0x1
 2778 0d2d 3F110000 		.4byte	0x113f
 2779 0d31 19       		.uleb128 0x19
 2780 0d32 01       		.byte	0x1
 2781 0d33 50       		.byte	0x50
 2782 0d34 02       		.byte	0x2
 2783 0d35 08       		.byte	0x8
 2784 0d36 41       		.byte	0x41
 2785 0d37 00       		.byte	0
 2786 0d38 00       		.byte	0
 2787 0d39 24       		.uleb128 0x24
 2788 0d3a 3E060000 		.4byte	0x63e
 2789 0d3e 00000000 		.4byte	.LFB17
 2790 0d42 AA000000 		.4byte	.LFE17
 2791 0d46 7D020000 		.4byte	.LLST11
 2792 0d4a 01       		.byte	0x1
 2793 0d4b 730E0000 		.4byte	0xe73
 2794 0d4f 25       		.uleb128 0x25
 2795 0d50 4B060000 		.4byte	0x64b
 2796 0d54 9D020000 		.4byte	.LLST12
 2797 0d58 26       		.uleb128 0x26
 2798 0d59 3E060000 		.4byte	0x63e
 2799 0d5d 56000000 		.4byte	.LBB4
 2800 0d61 00000000 		.4byte	.Ldebug_ranges0+0
 2801 0d65 01       		.byte	0x1
 2802 0d66 FE       		.byte	0xfe
 2803 0d67 FC0D0000 		.4byte	0xdfc
 2804 0d6b 27       		.uleb128 0x27
 2805 0d6c 18000000 		.4byte	.Ldebug_ranges0+0x18
 2806 0d70 25       		.uleb128 0x25
 2807 0d71 4B060000 		.4byte	0x64b
 2808 0d75 C6020000 		.4byte	.LLST13
 2809 0d79 1E       		.uleb128 0x1e
 2810 0d7a 60000000 		.4byte	.LVL104
 2811 0d7e 53110000 		.4byte	0x1153
 2812 0d82 920D0000 		.4byte	0xd92
 2813 0d86 19       		.uleb128 0x19
 2814 0d87 01       		.byte	0x1
 2815 0d88 51       		.byte	0x51
 2816 0d89 01       		.byte	0x1
 2817 0d8a 3A       		.byte	0x3a
 2818 0d8b 19       		.uleb128 0x19
 2819 0d8c 01       		.byte	0x1
 2820 0d8d 50       		.byte	0x50
 2821 0d8e 02       		.byte	0x2
 2822 0d8f 09       		.byte	0x9
 2823 0d90 FF       		.byte	0xff
ARM GAS  C:\Users\DNIEL~1\AppData\Local\Temp\cciErhMR.s 			page 51


 2824 0d91 00       		.byte	0
 2825 0d92 1E       		.uleb128 0x1e
 2826 0d93 6E000000 		.4byte	.LVL106
 2827 0d97 C00F0000 		.4byte	0xfc0
 2828 0d9b A50D0000 		.4byte	0xda5
 2829 0d9f 19       		.uleb128 0x19
 2830 0da0 01       		.byte	0x1
 2831 0da1 50       		.byte	0x50
 2832 0da2 01       		.byte	0x1
 2833 0da3 34       		.byte	0x34
 2834 0da4 00       		.byte	0
 2835 0da5 1E       		.uleb128 0x1e
 2836 0da6 7C000000 		.4byte	.LVL107
 2837 0daa 70110000 		.4byte	0x1170
 2838 0dae BE0D0000 		.4byte	0xdbe
 2839 0db2 19       		.uleb128 0x19
 2840 0db3 01       		.byte	0x1
 2841 0db4 51       		.byte	0x51
 2842 0db5 01       		.byte	0x1
 2843 0db6 3A       		.byte	0x3a
 2844 0db7 19       		.uleb128 0x19
 2845 0db8 01       		.byte	0x1
 2846 0db9 50       		.byte	0x50
 2847 0dba 02       		.byte	0x2
 2848 0dbb 09       		.byte	0x9
 2849 0dbc FF       		.byte	0xff
 2850 0dbd 00       		.byte	0
 2851 0dbe 1E       		.uleb128 0x1e
 2852 0dbf 8A000000 		.4byte	.LVL109
 2853 0dc3 C00F0000 		.4byte	0xfc0
 2854 0dc7 D10D0000 		.4byte	0xdd1
 2855 0dcb 19       		.uleb128 0x19
 2856 0dcc 01       		.byte	0x1
 2857 0dcd 50       		.byte	0x50
 2858 0dce 01       		.byte	0x1
 2859 0dcf 35       		.byte	0x35
 2860 0dd0 00       		.byte	0
 2861 0dd1 1E       		.uleb128 0x1e
 2862 0dd2 98000000 		.4byte	.LVL110
 2863 0dd6 8D110000 		.4byte	0x118d
 2864 0dda EA0D0000 		.4byte	0xdea
 2865 0dde 19       		.uleb128 0x19
 2866 0ddf 01       		.byte	0x1
 2867 0de0 51       		.byte	0x51
 2868 0de1 01       		.byte	0x1
 2869 0de2 3A       		.byte	0x3a
 2870 0de3 19       		.uleb128 0x19
 2871 0de4 01       		.byte	0x1
 2872 0de5 50       		.byte	0x50
 2873 0de6 02       		.byte	0x2
 2874 0de7 09       		.byte	0x9
 2875 0de8 FF       		.byte	0xff
 2876 0de9 00       		.byte	0
 2877 0dea 18       		.uleb128 0x18
 2878 0deb AA000000 		.4byte	.LVL112
 2879 0def 01       		.byte	0x1
 2880 0df0 C00F0000 		.4byte	0xfc0
ARM GAS  C:\Users\DNIEL~1\AppData\Local\Temp\cciErhMR.s 			page 52


 2881 0df4 19       		.uleb128 0x19
 2882 0df5 01       		.byte	0x1
 2883 0df6 50       		.byte	0x50
 2884 0df7 01       		.byte	0x1
 2885 0df8 36       		.byte	0x36
 2886 0df9 00       		.byte	0
 2887 0dfa 00       		.byte	0
 2888 0dfb 00       		.byte	0
 2889 0dfc 1E       		.uleb128 0x1e
 2890 0dfd 0C000000 		.4byte	.LVL95
 2891 0e01 53110000 		.4byte	0x1153
 2892 0e05 150E0000 		.4byte	0xe15
 2893 0e09 19       		.uleb128 0x19
 2894 0e0a 01       		.byte	0x1
 2895 0e0b 51       		.byte	0x51
 2896 0e0c 01       		.byte	0x1
 2897 0e0d 30       		.byte	0x30
 2898 0e0e 19       		.uleb128 0x19
 2899 0e0f 01       		.byte	0x1
 2900 0e10 50       		.byte	0x50
 2901 0e11 02       		.byte	0x2
 2902 0e12 09       		.byte	0x9
 2903 0e13 FF       		.byte	0xff
 2904 0e14 00       		.byte	0
 2905 0e15 1E       		.uleb128 0x1e
 2906 0e16 1A000000 		.4byte	.LVL97
 2907 0e1a C00F0000 		.4byte	0xfc0
 2908 0e1e 280E0000 		.4byte	0xe28
 2909 0e22 19       		.uleb128 0x19
 2910 0e23 01       		.byte	0x1
 2911 0e24 50       		.byte	0x50
 2912 0e25 01       		.byte	0x1
 2913 0e26 31       		.byte	0x31
 2914 0e27 00       		.byte	0
 2915 0e28 1E       		.uleb128 0x1e
 2916 0e29 28000000 		.4byte	.LVL98
 2917 0e2d 70110000 		.4byte	0x1170
 2918 0e31 3C0E0000 		.4byte	0xe3c
 2919 0e35 19       		.uleb128 0x19
 2920 0e36 01       		.byte	0x1
 2921 0e37 50       		.byte	0x50
 2922 0e38 02       		.byte	0x2
 2923 0e39 09       		.byte	0x9
 2924 0e3a FF       		.byte	0xff
 2925 0e3b 00       		.byte	0
 2926 0e3c 1E       		.uleb128 0x1e
 2927 0e3d 36000000 		.4byte	.LVL100
 2928 0e41 C00F0000 		.4byte	0xfc0
 2929 0e45 4F0E0000 		.4byte	0xe4f
 2930 0e49 19       		.uleb128 0x19
 2931 0e4a 01       		.byte	0x1
 2932 0e4b 50       		.byte	0x50
 2933 0e4c 01       		.byte	0x1
 2934 0e4d 32       		.byte	0x32
 2935 0e4e 00       		.byte	0
 2936 0e4f 1E       		.uleb128 0x1e
 2937 0e50 44000000 		.4byte	.LVL101
ARM GAS  C:\Users\DNIEL~1\AppData\Local\Temp\cciErhMR.s 			page 53


 2938 0e54 8D110000 		.4byte	0x118d
 2939 0e58 630E0000 		.4byte	0xe63
 2940 0e5c 19       		.uleb128 0x19
 2941 0e5d 01       		.byte	0x1
 2942 0e5e 50       		.byte	0x50
 2943 0e5f 02       		.byte	0x2
 2944 0e60 09       		.byte	0x9
 2945 0e61 FF       		.byte	0xff
 2946 0e62 00       		.byte	0
 2947 0e63 20       		.uleb128 0x20
 2948 0e64 52000000 		.4byte	.LVL103
 2949 0e68 C00F0000 		.4byte	0xfc0
 2950 0e6c 19       		.uleb128 0x19
 2951 0e6d 01       		.byte	0x1
 2952 0e6e 50       		.byte	0x50
 2953 0e6f 01       		.byte	0x1
 2954 0e70 33       		.byte	0x33
 2955 0e71 00       		.byte	0
 2956 0e72 00       		.byte	0
 2957 0e73 1C       		.uleb128 0x1c
 2958 0e74 65733100 		.ascii	"es1\000"
 2959 0e78 01       		.byte	0x1
 2960 0e79 3B       		.byte	0x3b
 2961 0e7a 5B050000 		.4byte	0x55b
 2962 0e7e 05       		.byte	0x5
 2963 0e7f 03       		.byte	0x3
 2964 0e80 00000000 		.4byte	es1
 2965 0e84 1C       		.uleb128 0x1c
 2966 0e85 65733200 		.ascii	"es2\000"
 2967 0e89 01       		.byte	0x1
 2968 0e8a 3C       		.byte	0x3c
 2969 0e8b 5B050000 		.4byte	0x55b
 2970 0e8f 05       		.byte	0x5
 2971 0e90 03       		.byte	0x3
 2972 0e91 00000000 		.4byte	es2
 2973 0e95 28       		.uleb128 0x28
 2974 0e96 66050000 		.4byte	0x566
 2975 0e9a A50E0000 		.4byte	0xea5
 2976 0e9e 29       		.uleb128 0x29
 2977 0e9f 61030000 		.4byte	0x361
 2978 0ea3 02       		.byte	0x2
 2979 0ea4 00       		.byte	0
 2980 0ea5 2A       		.uleb128 0x2a
 2981 0ea6 50040000 		.4byte	.LASF98
 2982 0eaa 01       		.byte	0x1
 2983 0eab 53       		.byte	0x53
 2984 0eac B60E0000 		.4byte	0xeb6
 2985 0eb0 05       		.byte	0x5
 2986 0eb1 03       		.byte	0x3
 2987 0eb2 00000000 		.4byte	evhndl
 2988 0eb6 12       		.uleb128 0x12
 2989 0eb7 950E0000 		.4byte	0xe95
 2990 0ebb 2B       		.uleb128 0x2b
 2991 0ebc 27000000 		.4byte	.LASF99
 2992 0ec0 08       		.byte	0x8
 2993 0ec1 F5       		.byte	0xf5
 2994 0ec2 2F040000 		.4byte	0x42f
ARM GAS  C:\Users\DNIEL~1\AppData\Local\Temp\cciErhMR.s 			page 54


 2995 0ec6 01       		.byte	0x1
 2996 0ec7 01       		.byte	0x1
 2997 0ec8 2B       		.uleb128 0x2b
 2998 0ec9 38050000 		.4byte	.LASF100
 2999 0ecd 09       		.byte	0x9
 3000 0ece 6F       		.byte	0x6f
 3001 0ecf 97040000 		.4byte	0x497
 3002 0ed3 01       		.byte	0x1
 3003 0ed4 01       		.byte	0x1
 3004 0ed5 28       		.uleb128 0x28
 3005 0ed6 70020000 		.4byte	0x270
 3006 0eda E50E0000 		.4byte	0xee5
 3007 0ede 29       		.uleb128 0x29
 3008 0edf 61030000 		.4byte	0x361
 3009 0ee3 04       		.byte	0x4
 3010 0ee4 00       		.byte	0
 3011 0ee5 2B       		.uleb128 0x2b
 3012 0ee6 07040000 		.4byte	.LASF101
 3013 0eea 0C       		.byte	0xc
 3014 0eeb A5       		.byte	0xa5
 3015 0eec D50E0000 		.4byte	0xed5
 3016 0ef0 01       		.byte	0x1
 3017 0ef1 01       		.byte	0x1
 3018 0ef2 28       		.uleb128 0x28
 3019 0ef3 AE020000 		.4byte	0x2ae
 3020 0ef7 FD0E0000 		.4byte	0xefd
 3021 0efb 2C       		.uleb128 0x2c
 3022 0efc 00       		.byte	0
 3023 0efd 2D       		.uleb128 0x2d
 3024 0efe 776100   		.ascii	"wa\000"
 3025 0f01 0C       		.byte	0xc
 3026 0f02 A7       		.byte	0xa7
 3027 0f03 090F0000 		.4byte	0xf09
 3028 0f07 01       		.byte	0x1
 3029 0f08 01       		.byte	0x1
 3030 0f09 12       		.uleb128 0x12
 3031 0f0a F20E0000 		.4byte	0xef2
 3032 0f0e 2E       		.uleb128 0x2e
 3033 0f0f 47040000 		.4byte	.LASF102
 3034 0f13 01       		.byte	0x1
 3035 0f14 6B       		.byte	0x6b
 3036 0f15 200F0000 		.4byte	0xf20
 3037 0f19 01       		.byte	0x1
 3038 0f1a 05       		.byte	0x5
 3039 0f1b 03       		.byte	0x3
 3040 0f1c 00000000 		.4byte	testevt1
 3041 0f20 12       		.uleb128 0x12
 3042 0f21 F1050000 		.4byte	0x5f1
 3043 0f25 2E       		.uleb128 0x2e
 3044 0f26 27010000 		.4byte	.LASF103
 3045 0f2a 01       		.byte	0x1
 3046 0f2b E2       		.byte	0xe2
 3047 0f2c 200F0000 		.4byte	0xf20
 3048 0f30 01       		.byte	0x1
 3049 0f31 05       		.byte	0x5
 3050 0f32 03       		.byte	0x3
 3051 0f33 00000000 		.4byte	testevt2
ARM GAS  C:\Users\DNIEL~1\AppData\Local\Temp\cciErhMR.s 			page 55


 3052 0f37 2F       		.uleb128 0x2f
 3053 0f38 3D010000 		.4byte	.LASF104
 3054 0f3c 01       		.byte	0x1
 3055 0f3d 1201     		.2byte	0x112
 3056 0f3f 200F0000 		.4byte	0xf20
 3057 0f43 01       		.byte	0x1
 3058 0f44 05       		.byte	0x5
 3059 0f45 03       		.byte	0x3
 3060 0f46 00000000 		.4byte	testevt3
 3061 0f4a 28       		.uleb128 0x28
 3062 0f4b 5A0F0000 		.4byte	0xf5a
 3063 0f4f 5A0F0000 		.4byte	0xf5a
 3064 0f53 29       		.uleb128 0x29
 3065 0f54 61030000 		.4byte	0x361
 3066 0f58 03       		.byte	0x3
 3067 0f59 00       		.byte	0
 3068 0f5a 09       		.uleb128 0x9
 3069 0f5b 04       		.byte	0x4
 3070 0f5c 200F0000 		.4byte	0xf20
 3071 0f60 2F       		.uleb128 0x2f
 3072 0f61 E4010000 		.4byte	.LASF105
 3073 0f65 01       		.byte	0x1
 3074 0f66 1D01     		.2byte	0x11d
 3075 0f68 730F0000 		.4byte	0xf73
 3076 0f6c 01       		.byte	0x1
 3077 0f6d 05       		.byte	0x5
 3078 0f6e 03       		.byte	0x3
 3079 0f6f 00000000 		.4byte	patternevt
 3080 0f73 12       		.uleb128 0x12
 3081 0f74 4A0F0000 		.4byte	0xf4a
 3082 0f78 30       		.uleb128 0x30
 3083 0f79 01       		.byte	0x1
 3084 0f7a C4010000 		.4byte	.LASF106
 3085 0f7e 0B       		.byte	0xb
 3086 0f7f B3       		.byte	0xb3
 3087 0f80 01       		.byte	0x1
 3088 0f81 FA000000 		.4byte	0xfa
 3089 0f85 01       		.byte	0x1
 3090 0f86 900F0000 		.4byte	0xf90
 3091 0f8a 0E       		.uleb128 0xe
 3092 0f8b FA000000 		.4byte	0xfa
 3093 0f8f 00       		.byte	0
 3094 0f90 30       		.uleb128 0x30
 3095 0f91 01       		.byte	0x1
 3096 0f92 51000000 		.4byte	.LASF107
 3097 0f96 0B       		.byte	0xb
 3098 0f97 B4       		.byte	0xb4
 3099 0f98 01       		.byte	0x1
 3100 0f99 FA000000 		.4byte	0xfa
 3101 0f9d 01       		.byte	0x1
 3102 0f9e A80F0000 		.4byte	0xfa8
 3103 0fa2 0E       		.uleb128 0xe
 3104 0fa3 FA000000 		.4byte	0xfa
 3105 0fa7 00       		.byte	0
 3106 0fa8 30       		.uleb128 0x30
 3107 0fa9 01       		.byte	0x1
 3108 0faa B2030000 		.4byte	.LASF108
ARM GAS  C:\Users\DNIEL~1\AppData\Local\Temp\cciErhMR.s 			page 56


 3109 0fae 0B       		.byte	0xb
 3110 0faf BD       		.byte	0xbd
 3111 0fb0 01       		.byte	0x1
 3112 0fb1 FA000000 		.4byte	0xfa
 3113 0fb5 01       		.byte	0x1
 3114 0fb6 C00F0000 		.4byte	0xfc0
 3115 0fba 0E       		.uleb128 0xe
 3116 0fbb FA000000 		.4byte	0xfa
 3117 0fbf 00       		.byte	0
 3118 0fc0 30       		.uleb128 0x30
 3119 0fc1 01       		.byte	0x1
 3120 0fc2 76050000 		.4byte	.LASF109
 3121 0fc6 0C       		.byte	0xc
 3122 0fc7 58       		.byte	0x58
 3123 0fc8 01       		.byte	0x1
 3124 0fc9 9B000000 		.4byte	0x9b
 3125 0fcd 01       		.byte	0x1
 3126 0fce DD0F0000 		.4byte	0xfdd
 3127 0fd2 0E       		.uleb128 0xe
 3128 0fd3 3B000000 		.4byte	0x3b
 3129 0fd7 0E       		.uleb128 0xe
 3130 0fd8 9B000000 		.4byte	0x9b
 3131 0fdc 00       		.byte	0
 3132 0fdd 31       		.uleb128 0x31
 3133 0fde 01       		.byte	0x1
 3134 0fdf A5050000 		.4byte	.LASF129
 3135 0fe3 0C       		.byte	0xc
 3136 0fe4 5D       		.byte	0x5d
 3137 0fe5 01       		.byte	0x1
 3138 0fe6 10010000 		.4byte	0x110
 3139 0fea 01       		.byte	0x1
 3140 0feb 32       		.uleb128 0x32
 3141 0fec 01       		.byte	0x1
 3142 0fed 65020000 		.4byte	.LASF110
 3143 0ff1 06       		.byte	0x6
 3144 0ff2 7001     		.2byte	0x170
 3145 0ff4 01       		.byte	0x1
 3146 0ff5 70020000 		.4byte	0x270
 3147 0ff9 01       		.byte	0x1
 3148 0ffa 18100000 		.4byte	0x1018
 3149 0ffe 0E       		.uleb128 0xe
 3150 0fff AE020000 		.4byte	0x2ae
 3151 1003 0E       		.uleb128 0xe
 3152 1004 30000000 		.4byte	0x30
 3153 1008 0E       		.uleb128 0xe
 3154 1009 D9000000 		.4byte	0xd9
 3155 100d 0E       		.uleb128 0xe
 3156 100e D0050000 		.4byte	0x5d0
 3157 1012 0E       		.uleb128 0xe
 3158 1013 AE020000 		.4byte	0x2ae
 3159 1017 00       		.byte	0
 3160 1018 30       		.uleb128 0x30
 3161 1019 01       		.byte	0x1
 3162 101a 0E010000 		.4byte	.LASF111
 3163 101e 0C       		.byte	0xc
 3164 101f 5A       		.byte	0x5a
 3165 1020 01       		.byte	0x1
ARM GAS  C:\Users\DNIEL~1\AppData\Local\Temp\cciErhMR.s 			page 57


 3166 1021 9B000000 		.4byte	0x9b
 3167 1025 01       		.byte	0x1
 3168 1026 3A100000 		.4byte	0x103a
 3169 102a 0E       		.uleb128 0xe
 3170 102b 3B000000 		.4byte	0x3b
 3171 102f 0E       		.uleb128 0xe
 3172 1030 10010000 		.4byte	0x110
 3173 1034 0E       		.uleb128 0xe
 3174 1035 10010000 		.4byte	0x110
 3175 1039 00       		.byte	0
 3176 103a 33       		.uleb128 0x33
 3177 103b 01       		.byte	0x1
 3178 103c 7A040000 		.4byte	.LASF130
 3179 1040 0C       		.byte	0xc
 3180 1041 5C       		.byte	0x5c
 3181 1042 01       		.byte	0x1
 3182 1043 01       		.byte	0x1
 3183 1044 30       		.uleb128 0x30
 3184 1045 01       		.byte	0x1
 3185 1046 30010000 		.4byte	.LASF112
 3186 104a 0B       		.byte	0xb
 3187 104b BE       		.byte	0xbe
 3188 104c 01       		.byte	0x1
 3189 104d FA000000 		.4byte	0xfa
 3190 1051 01       		.byte	0x1
 3191 1052 5C100000 		.4byte	0x105c
 3192 1056 0E       		.uleb128 0xe
 3193 1057 FA000000 		.4byte	0xfa
 3194 105b 00       		.byte	0
 3195 105c 34       		.uleb128 0x34
 3196 105d 01       		.byte	0x1
 3197 105e 0F020000 		.4byte	.LASF114
 3198 1062 0B       		.byte	0xb
 3199 1063 AF       		.byte	0xaf
 3200 1064 01       		.byte	0x1
 3201 1065 01       		.byte	0x1
 3202 1066 7A100000 		.4byte	0x107a
 3203 106a 0E       		.uleb128 0xe
 3204 106b 7A100000 		.4byte	0x107a
 3205 106f 0E       		.uleb128 0xe
 3206 1070 3A050000 		.4byte	0x53a
 3207 1074 0E       		.uleb128 0xe
 3208 1075 FA000000 		.4byte	0xfa
 3209 1079 00       		.byte	0
 3210 107a 09       		.uleb128 0x9
 3211 107b 04       		.byte	0x4
 3212 107c 5B050000 		.4byte	0x55b
 3213 1080 30       		.uleb128 0x30
 3214 1081 01       		.byte	0x1
 3215 1082 50030000 		.4byte	.LASF113
 3216 1086 0B       		.byte	0xb
 3217 1087 BF       		.byte	0xbf
 3218 1088 01       		.byte	0x1
 3219 1089 FA000000 		.4byte	0xfa
 3220 108d 01       		.byte	0x1
 3221 108e 98100000 		.4byte	0x1098
 3222 1092 0E       		.uleb128 0xe
ARM GAS  C:\Users\DNIEL~1\AppData\Local\Temp\cciErhMR.s 			page 58


 3223 1093 FA000000 		.4byte	0xfa
 3224 1097 00       		.byte	0
 3225 1098 34       		.uleb128 0x34
 3226 1099 01       		.byte	0x1
 3227 109a 2F020000 		.4byte	.LASF115
 3228 109e 0B       		.byte	0xb
 3229 109f B2       		.byte	0xb2
 3230 10a0 01       		.byte	0x1
 3231 10a1 01       		.byte	0x1
 3232 10a2 B1100000 		.4byte	0x10b1
 3233 10a6 0E       		.uleb128 0xe
 3234 10a7 7A100000 		.4byte	0x107a
 3235 10ab 0E       		.uleb128 0xe
 3236 10ac 3A050000 		.4byte	0x53a
 3237 10b0 00       		.byte	0
 3238 10b1 34       		.uleb128 0x34
 3239 10b2 01       		.byte	0x1
 3240 10b3 67010000 		.4byte	.LASF116
 3241 10b7 0B       		.byte	0xb
 3242 10b8 B9       		.byte	0xb9
 3243 10b9 01       		.byte	0x1
 3244 10ba 01       		.byte	0x1
 3245 10bb CA100000 		.4byte	0x10ca
 3246 10bf 0E       		.uleb128 0xe
 3247 10c0 7A100000 		.4byte	0x107a
 3248 10c4 0E       		.uleb128 0xe
 3249 10c5 05010000 		.4byte	0x105
 3250 10c9 00       		.byte	0
 3251 10ca 35       		.uleb128 0x35
 3252 10cb 01       		.byte	0x1
 3253 10cc F1040000 		.4byte	.LASF117
 3254 10d0 06       		.byte	0x6
 3255 10d1 7501     		.2byte	0x175
 3256 10d3 01       		.byte	0x1
 3257 10d4 01       		.byte	0x1
 3258 10d5 DF100000 		.4byte	0x10df
 3259 10d9 0E       		.uleb128 0xe
 3260 10da 10010000 		.4byte	0x110
 3261 10de 00       		.byte	0
 3262 10df 34       		.uleb128 0x34
 3263 10e0 01       		.byte	0x1
 3264 10e1 2E000000 		.4byte	.LASF118
 3265 10e5 0B       		.byte	0xb
 3266 10e6 B7       		.byte	0xb7
 3267 10e7 01       		.byte	0x1
 3268 10e8 01       		.byte	0x1
 3269 10e9 F8100000 		.4byte	0x10f8
 3270 10ed 0E       		.uleb128 0xe
 3271 10ee 70020000 		.4byte	0x270
 3272 10f2 0E       		.uleb128 0xe
 3273 10f3 FA000000 		.4byte	0xfa
 3274 10f7 00       		.byte	0
 3275 10f8 34       		.uleb128 0x34
 3276 10f9 01       		.byte	0x1
 3277 10fa A7020000 		.4byte	.LASF119
 3278 10fe 0B       		.byte	0xb
 3279 10ff BB       		.byte	0xbb
ARM GAS  C:\Users\DNIEL~1\AppData\Local\Temp\cciErhMR.s 			page 59


 3280 1100 01       		.byte	0x1
 3281 1101 01       		.byte	0x1
 3282 1102 11110000 		.4byte	0x1111
 3283 1106 0E       		.uleb128 0xe
 3284 1107 11110000 		.4byte	0x1111
 3285 110b 0E       		.uleb128 0xe
 3286 110c FA000000 		.4byte	0xfa
 3287 1110 00       		.byte	0
 3288 1111 09       		.uleb128 0x9
 3289 1112 04       		.byte	0x4
 3290 1113 17110000 		.4byte	0x1117
 3291 1117 12       		.uleb128 0x12
 3292 1118 66050000 		.4byte	0x566
 3293 111c 30       		.uleb128 0x30
 3294 111d 01       		.byte	0x1
 3295 111e 3A030000 		.4byte	.LASF120
 3296 1122 0C       		.byte	0xc
 3297 1123 59       		.byte	0x59
 3298 1124 01       		.byte	0x1
 3299 1125 9B000000 		.4byte	0x9b
 3300 1129 01       		.byte	0x1
 3301 112a 39110000 		.4byte	0x1139
 3302 112e 0E       		.uleb128 0xe
 3303 112f 3B000000 		.4byte	0x3b
 3304 1133 0E       		.uleb128 0xe
 3305 1134 39110000 		.4byte	0x1139
 3306 1138 00       		.byte	0
 3307 1139 09       		.uleb128 0x9
 3308 113a 04       		.byte	0x4
 3309 113b C3050000 		.4byte	0x5c3
 3310 113f 34       		.uleb128 0x34
 3311 1140 01       		.byte	0x1
 3312 1141 D6000000 		.4byte	.LASF121
 3313 1145 0C       		.byte	0xc
 3314 1146 56       		.byte	0x56
 3315 1147 01       		.byte	0x1
 3316 1148 01       		.byte	0x1
 3317 1149 53110000 		.4byte	0x1153
 3318 114d 0E       		.uleb128 0xe
 3319 114e C3050000 		.4byte	0x5c3
 3320 1152 00       		.byte	0
 3321 1153 30       		.uleb128 0x30
 3322 1154 01       		.byte	0x1
 3323 1155 54050000 		.4byte	.LASF122
 3324 1159 0B       		.byte	0xb
 3325 115a C2       		.byte	0xc2
 3326 115b 01       		.byte	0x1
 3327 115c FA000000 		.4byte	0xfa
 3328 1160 01       		.byte	0x1
 3329 1161 70110000 		.4byte	0x1170
 3330 1165 0E       		.uleb128 0xe
 3331 1166 FA000000 		.4byte	0xfa
 3332 116a 0E       		.uleb128 0xe
 3333 116b 10010000 		.4byte	0x110
 3334 116f 00       		.byte	0
 3335 1170 30       		.uleb128 0x30
 3336 1171 01       		.byte	0x1
ARM GAS  C:\Users\DNIEL~1\AppData\Local\Temp\cciErhMR.s 			page 60


 3337 1172 69000000 		.4byte	.LASF123
 3338 1176 0B       		.byte	0xb
 3339 1177 C3       		.byte	0xc3
 3340 1178 01       		.byte	0x1
 3341 1179 FA000000 		.4byte	0xfa
 3342 117d 01       		.byte	0x1
 3343 117e 8D110000 		.4byte	0x118d
 3344 1182 0E       		.uleb128 0xe
 3345 1183 FA000000 		.4byte	0xfa
 3346 1187 0E       		.uleb128 0xe
 3347 1188 10010000 		.4byte	0x110
 3348 118c 00       		.byte	0
 3349 118d 36       		.uleb128 0x36
 3350 118e 01       		.byte	0x1
 3351 118f AB000000 		.4byte	.LASF124
 3352 1193 0B       		.byte	0xb
 3353 1194 C4       		.byte	0xc4
 3354 1195 01       		.byte	0x1
 3355 1196 FA000000 		.4byte	0xfa
 3356 119a 01       		.byte	0x1
 3357 119b 0E       		.uleb128 0xe
 3358 119c FA000000 		.4byte	0xfa
 3359 11a0 0E       		.uleb128 0xe
 3360 11a1 10010000 		.4byte	0x110
 3361 11a5 00       		.byte	0
 3362 11a6 00       		.byte	0
 3363              		.section	.debug_abbrev,"",%progbits
 3364              	.Ldebug_abbrev0:
 3365 0000 01       		.uleb128 0x1
 3366 0001 11       		.uleb128 0x11
 3367 0002 01       		.byte	0x1
 3368 0003 25       		.uleb128 0x25
 3369 0004 0E       		.uleb128 0xe
 3370 0005 13       		.uleb128 0x13
 3371 0006 0B       		.uleb128 0xb
 3372 0007 03       		.uleb128 0x3
 3373 0008 0E       		.uleb128 0xe
 3374 0009 1B       		.uleb128 0x1b
 3375 000a 0E       		.uleb128 0xe
 3376 000b 55       		.uleb128 0x55
 3377 000c 06       		.uleb128 0x6
 3378 000d 11       		.uleb128 0x11
 3379 000e 01       		.uleb128 0x1
 3380 000f 52       		.uleb128 0x52
 3381 0010 01       		.uleb128 0x1
 3382 0011 10       		.uleb128 0x10
 3383 0012 06       		.uleb128 0x6
 3384 0013 00       		.byte	0
 3385 0014 00       		.byte	0
 3386 0015 02       		.uleb128 0x2
 3387 0016 24       		.uleb128 0x24
 3388 0017 00       		.byte	0
 3389 0018 0B       		.uleb128 0xb
 3390 0019 0B       		.uleb128 0xb
 3391 001a 3E       		.uleb128 0x3e
 3392 001b 0B       		.uleb128 0xb
 3393 001c 03       		.uleb128 0x3
ARM GAS  C:\Users\DNIEL~1\AppData\Local\Temp\cciErhMR.s 			page 61


 3394 001d 08       		.uleb128 0x8
 3395 001e 00       		.byte	0
 3396 001f 00       		.byte	0
 3397 0020 03       		.uleb128 0x3
 3398 0021 16       		.uleb128 0x16
 3399 0022 00       		.byte	0
 3400 0023 03       		.uleb128 0x3
 3401 0024 0E       		.uleb128 0xe
 3402 0025 3A       		.uleb128 0x3a
 3403 0026 0B       		.uleb128 0xb
 3404 0027 3B       		.uleb128 0x3b
 3405 0028 0B       		.uleb128 0xb
 3406 0029 49       		.uleb128 0x49
 3407 002a 13       		.uleb128 0x13
 3408 002b 00       		.byte	0
 3409 002c 00       		.byte	0
 3410 002d 04       		.uleb128 0x4
 3411 002e 24       		.uleb128 0x24
 3412 002f 00       		.byte	0
 3413 0030 0B       		.uleb128 0xb
 3414 0031 0B       		.uleb128 0xb
 3415 0032 3E       		.uleb128 0x3e
 3416 0033 0B       		.uleb128 0xb
 3417 0034 03       		.uleb128 0x3
 3418 0035 0E       		.uleb128 0xe
 3419 0036 00       		.byte	0
 3420 0037 00       		.byte	0
 3421 0038 05       		.uleb128 0x5
 3422 0039 13       		.uleb128 0x13
 3423 003a 01       		.byte	0x1
 3424 003b 03       		.uleb128 0x3
 3425 003c 0E       		.uleb128 0xe
 3426 003d 0B       		.uleb128 0xb
 3427 003e 0B       		.uleb128 0xb
 3428 003f 3A       		.uleb128 0x3a
 3429 0040 0B       		.uleb128 0xb
 3430 0041 3B       		.uleb128 0x3b
 3431 0042 0B       		.uleb128 0xb
 3432 0043 01       		.uleb128 0x1
 3433 0044 13       		.uleb128 0x13
 3434 0045 00       		.byte	0
 3435 0046 00       		.byte	0
 3436 0047 06       		.uleb128 0x6
 3437 0048 0D       		.uleb128 0xd
 3438 0049 00       		.byte	0
 3439 004a 03       		.uleb128 0x3
 3440 004b 0E       		.uleb128 0xe
 3441 004c 3A       		.uleb128 0x3a
 3442 004d 0B       		.uleb128 0xb
 3443 004e 3B       		.uleb128 0x3b
 3444 004f 0B       		.uleb128 0xb
 3445 0050 49       		.uleb128 0x49
 3446 0051 13       		.uleb128 0x13
 3447 0052 38       		.uleb128 0x38
 3448 0053 0A       		.uleb128 0xa
 3449 0054 00       		.byte	0
 3450 0055 00       		.byte	0
ARM GAS  C:\Users\DNIEL~1\AppData\Local\Temp\cciErhMR.s 			page 62


 3451 0056 07       		.uleb128 0x7
 3452 0057 0D       		.uleb128 0xd
 3453 0058 00       		.byte	0
 3454 0059 03       		.uleb128 0x3
 3455 005a 08       		.uleb128 0x8
 3456 005b 3A       		.uleb128 0x3a
 3457 005c 0B       		.uleb128 0xb
 3458 005d 3B       		.uleb128 0x3b
 3459 005e 0B       		.uleb128 0xb
 3460 005f 49       		.uleb128 0x49
 3461 0060 13       		.uleb128 0x13
 3462 0061 38       		.uleb128 0x38
 3463 0062 0A       		.uleb128 0xa
 3464 0063 00       		.byte	0
 3465 0064 00       		.byte	0
 3466 0065 08       		.uleb128 0x8
 3467 0066 13       		.uleb128 0x13
 3468 0067 01       		.byte	0x1
 3469 0068 0B       		.uleb128 0xb
 3470 0069 0B       		.uleb128 0xb
 3471 006a 3A       		.uleb128 0x3a
 3472 006b 0B       		.uleb128 0xb
 3473 006c 3B       		.uleb128 0x3b
 3474 006d 0B       		.uleb128 0xb
 3475 006e 01       		.uleb128 0x1
 3476 006f 13       		.uleb128 0x13
 3477 0070 00       		.byte	0
 3478 0071 00       		.byte	0
 3479 0072 09       		.uleb128 0x9
 3480 0073 0F       		.uleb128 0xf
 3481 0074 00       		.byte	0
 3482 0075 0B       		.uleb128 0xb
 3483 0076 0B       		.uleb128 0xb
 3484 0077 49       		.uleb128 0x49
 3485 0078 13       		.uleb128 0x13
 3486 0079 00       		.byte	0
 3487 007a 00       		.byte	0
 3488 007b 0A       		.uleb128 0xa
 3489 007c 0F       		.uleb128 0xf
 3490 007d 00       		.byte	0
 3491 007e 0B       		.uleb128 0xb
 3492 007f 0B       		.uleb128 0xb
 3493 0080 00       		.byte	0
 3494 0081 00       		.byte	0
 3495 0082 0B       		.uleb128 0xb
 3496 0083 13       		.uleb128 0x13
 3497 0084 01       		.byte	0x1
 3498 0085 03       		.uleb128 0x3
 3499 0086 0E       		.uleb128 0xe
 3500 0087 0B       		.uleb128 0xb
 3501 0088 0B       		.uleb128 0xb
 3502 0089 3A       		.uleb128 0x3a
 3503 008a 0B       		.uleb128 0xb
 3504 008b 3B       		.uleb128 0x3b
 3505 008c 05       		.uleb128 0x5
 3506 008d 01       		.uleb128 0x1
 3507 008e 13       		.uleb128 0x13
ARM GAS  C:\Users\DNIEL~1\AppData\Local\Temp\cciErhMR.s 			page 63


 3508 008f 00       		.byte	0
 3509 0090 00       		.byte	0
 3510 0091 0C       		.uleb128 0xc
 3511 0092 0D       		.uleb128 0xd
 3512 0093 00       		.byte	0
 3513 0094 03       		.uleb128 0x3
 3514 0095 08       		.uleb128 0x8
 3515 0096 3A       		.uleb128 0x3a
 3516 0097 0B       		.uleb128 0xb
 3517 0098 3B       		.uleb128 0x3b
 3518 0099 05       		.uleb128 0x5
 3519 009a 49       		.uleb128 0x49
 3520 009b 13       		.uleb128 0x13
 3521 009c 38       		.uleb128 0x38
 3522 009d 0A       		.uleb128 0xa
 3523 009e 00       		.byte	0
 3524 009f 00       		.byte	0
 3525 00a0 0D       		.uleb128 0xd
 3526 00a1 15       		.uleb128 0x15
 3527 00a2 01       		.byte	0x1
 3528 00a3 27       		.uleb128 0x27
 3529 00a4 0C       		.uleb128 0xc
 3530 00a5 01       		.uleb128 0x1
 3531 00a6 13       		.uleb128 0x13
 3532 00a7 00       		.byte	0
 3533 00a8 00       		.byte	0
 3534 00a9 0E       		.uleb128 0xe
 3535 00aa 05       		.uleb128 0x5
 3536 00ab 00       		.byte	0
 3537 00ac 49       		.uleb128 0x49
 3538 00ad 13       		.uleb128 0x13
 3539 00ae 00       		.byte	0
 3540 00af 00       		.byte	0
 3541 00b0 0F       		.uleb128 0xf
 3542 00b1 35       		.uleb128 0x35
 3543 00b2 00       		.byte	0
 3544 00b3 49       		.uleb128 0x49
 3545 00b4 13       		.uleb128 0x13
 3546 00b5 00       		.byte	0
 3547 00b6 00       		.byte	0
 3548 00b7 10       		.uleb128 0x10
 3549 00b8 17       		.uleb128 0x17
 3550 00b9 01       		.byte	0x1
 3551 00ba 0B       		.uleb128 0xb
 3552 00bb 0B       		.uleb128 0xb
 3553 00bc 3A       		.uleb128 0x3a
 3554 00bd 0B       		.uleb128 0xb
 3555 00be 3B       		.uleb128 0x3b
 3556 00bf 0B       		.uleb128 0xb
 3557 00c0 01       		.uleb128 0x1
 3558 00c1 13       		.uleb128 0x13
 3559 00c2 00       		.byte	0
 3560 00c3 00       		.byte	0
 3561 00c4 11       		.uleb128 0x11
 3562 00c5 0D       		.uleb128 0xd
 3563 00c6 00       		.byte	0
 3564 00c7 03       		.uleb128 0x3
ARM GAS  C:\Users\DNIEL~1\AppData\Local\Temp\cciErhMR.s 			page 64


 3565 00c8 0E       		.uleb128 0xe
 3566 00c9 3A       		.uleb128 0x3a
 3567 00ca 0B       		.uleb128 0xb
 3568 00cb 3B       		.uleb128 0x3b
 3569 00cc 0B       		.uleb128 0xb
 3570 00cd 49       		.uleb128 0x49
 3571 00ce 13       		.uleb128 0x13
 3572 00cf 00       		.byte	0
 3573 00d0 00       		.byte	0
 3574 00d1 12       		.uleb128 0x12
 3575 00d2 26       		.uleb128 0x26
 3576 00d3 00       		.byte	0
 3577 00d4 49       		.uleb128 0x49
 3578 00d5 13       		.uleb128 0x13
 3579 00d6 00       		.byte	0
 3580 00d7 00       		.byte	0
 3581 00d8 13       		.uleb128 0x13
 3582 00d9 15       		.uleb128 0x15
 3583 00da 01       		.byte	0x1
 3584 00db 27       		.uleb128 0x27
 3585 00dc 0C       		.uleb128 0xc
 3586 00dd 49       		.uleb128 0x49
 3587 00de 13       		.uleb128 0x13
 3588 00df 01       		.uleb128 0x1
 3589 00e0 13       		.uleb128 0x13
 3590 00e1 00       		.byte	0
 3591 00e2 00       		.byte	0
 3592 00e3 14       		.uleb128 0x14
 3593 00e4 15       		.uleb128 0x15
 3594 00e5 00       		.byte	0
 3595 00e6 27       		.uleb128 0x27
 3596 00e7 0C       		.uleb128 0xc
 3597 00e8 00       		.byte	0
 3598 00e9 00       		.byte	0
 3599 00ea 15       		.uleb128 0x15
 3600 00eb 2E       		.uleb128 0x2e
 3601 00ec 01       		.byte	0x1
 3602 00ed 03       		.uleb128 0x3
 3603 00ee 0E       		.uleb128 0xe
 3604 00ef 3A       		.uleb128 0x3a
 3605 00f0 0B       		.uleb128 0xb
 3606 00f1 3B       		.uleb128 0x3b
 3607 00f2 0B       		.uleb128 0xb
 3608 00f3 27       		.uleb128 0x27
 3609 00f4 0C       		.uleb128 0xc
 3610 00f5 20       		.uleb128 0x20
 3611 00f6 0B       		.uleb128 0xb
 3612 00f7 01       		.uleb128 0x1
 3613 00f8 13       		.uleb128 0x13
 3614 00f9 00       		.byte	0
 3615 00fa 00       		.byte	0
 3616 00fb 16       		.uleb128 0x16
 3617 00fc 34       		.uleb128 0x34
 3618 00fd 00       		.byte	0
 3619 00fe 03       		.uleb128 0x3
 3620 00ff 08       		.uleb128 0x8
 3621 0100 3A       		.uleb128 0x3a
ARM GAS  C:\Users\DNIEL~1\AppData\Local\Temp\cciErhMR.s 			page 65


 3622 0101 0B       		.uleb128 0xb
 3623 0102 3B       		.uleb128 0x3b
 3624 0103 0B       		.uleb128 0xb
 3625 0104 49       		.uleb128 0x49
 3626 0105 13       		.uleb128 0x13
 3627 0106 00       		.byte	0
 3628 0107 00       		.byte	0
 3629 0108 17       		.uleb128 0x17
 3630 0109 2E       		.uleb128 0x2e
 3631 010a 01       		.byte	0x1
 3632 010b 03       		.uleb128 0x3
 3633 010c 0E       		.uleb128 0xe
 3634 010d 3A       		.uleb128 0x3a
 3635 010e 0B       		.uleb128 0xb
 3636 010f 3B       		.uleb128 0x3b
 3637 0110 0B       		.uleb128 0xb
 3638 0111 27       		.uleb128 0x27
 3639 0112 0C       		.uleb128 0xc
 3640 0113 11       		.uleb128 0x11
 3641 0114 01       		.uleb128 0x1
 3642 0115 12       		.uleb128 0x12
 3643 0116 01       		.uleb128 0x1
 3644 0117 40       		.uleb128 0x40
 3645 0118 0A       		.uleb128 0xa
 3646 0119 9742     		.uleb128 0x2117
 3647 011b 0C       		.uleb128 0xc
 3648 011c 01       		.uleb128 0x1
 3649 011d 13       		.uleb128 0x13
 3650 011e 00       		.byte	0
 3651 011f 00       		.byte	0
 3652 0120 18       		.uleb128 0x18
 3653 0121 898201   		.uleb128 0x4109
 3654 0124 01       		.byte	0x1
 3655 0125 11       		.uleb128 0x11
 3656 0126 01       		.uleb128 0x1
 3657 0127 9542     		.uleb128 0x2115
 3658 0129 0C       		.uleb128 0xc
 3659 012a 31       		.uleb128 0x31
 3660 012b 13       		.uleb128 0x13
 3661 012c 00       		.byte	0
 3662 012d 00       		.byte	0
 3663 012e 19       		.uleb128 0x19
 3664 012f 8A8201   		.uleb128 0x410a
 3665 0132 00       		.byte	0
 3666 0133 02       		.uleb128 0x2
 3667 0134 0A       		.uleb128 0xa
 3668 0135 9142     		.uleb128 0x2111
 3669 0137 0A       		.uleb128 0xa
 3670 0138 00       		.byte	0
 3671 0139 00       		.byte	0
 3672 013a 1A       		.uleb128 0x1a
 3673 013b 2E       		.uleb128 0x2e
 3674 013c 01       		.byte	0x1
 3675 013d 03       		.uleb128 0x3
 3676 013e 0E       		.uleb128 0xe
 3677 013f 3A       		.uleb128 0x3a
 3678 0140 0B       		.uleb128 0xb
ARM GAS  C:\Users\DNIEL~1\AppData\Local\Temp\cciErhMR.s 			page 66


 3679 0141 3B       		.uleb128 0x3b
 3680 0142 0B       		.uleb128 0xb
 3681 0143 27       		.uleb128 0x27
 3682 0144 0C       		.uleb128 0xc
 3683 0145 11       		.uleb128 0x11
 3684 0146 01       		.uleb128 0x1
 3685 0147 12       		.uleb128 0x12
 3686 0148 01       		.uleb128 0x1
 3687 0149 40       		.uleb128 0x40
 3688 014a 06       		.uleb128 0x6
 3689 014b 9742     		.uleb128 0x2117
 3690 014d 0C       		.uleb128 0xc
 3691 014e 01       		.uleb128 0x1
 3692 014f 13       		.uleb128 0x13
 3693 0150 00       		.byte	0
 3694 0151 00       		.byte	0
 3695 0152 1B       		.uleb128 0x1b
 3696 0153 34       		.uleb128 0x34
 3697 0154 00       		.byte	0
 3698 0155 03       		.uleb128 0x3
 3699 0156 08       		.uleb128 0x8
 3700 0157 3A       		.uleb128 0x3a
 3701 0158 0B       		.uleb128 0xb
 3702 0159 3B       		.uleb128 0x3b
 3703 015a 0B       		.uleb128 0xb
 3704 015b 49       		.uleb128 0x49
 3705 015c 13       		.uleb128 0x13
 3706 015d 02       		.uleb128 0x2
 3707 015e 06       		.uleb128 0x6
 3708 015f 00       		.byte	0
 3709 0160 00       		.byte	0
 3710 0161 1C       		.uleb128 0x1c
 3711 0162 34       		.uleb128 0x34
 3712 0163 00       		.byte	0
 3713 0164 03       		.uleb128 0x3
 3714 0165 08       		.uleb128 0x8
 3715 0166 3A       		.uleb128 0x3a
 3716 0167 0B       		.uleb128 0xb
 3717 0168 3B       		.uleb128 0x3b
 3718 0169 0B       		.uleb128 0xb
 3719 016a 49       		.uleb128 0x49
 3720 016b 13       		.uleb128 0x13
 3721 016c 02       		.uleb128 0x2
 3722 016d 0A       		.uleb128 0xa
 3723 016e 00       		.byte	0
 3724 016f 00       		.byte	0
 3725 0170 1D       		.uleb128 0x1d
 3726 0171 34       		.uleb128 0x34
 3727 0172 00       		.byte	0
 3728 0173 03       		.uleb128 0x3
 3729 0174 0E       		.uleb128 0xe
 3730 0175 3A       		.uleb128 0x3a
 3731 0176 0B       		.uleb128 0xb
 3732 0177 3B       		.uleb128 0x3b
 3733 0178 0B       		.uleb128 0xb
 3734 0179 49       		.uleb128 0x49
 3735 017a 13       		.uleb128 0x13
ARM GAS  C:\Users\DNIEL~1\AppData\Local\Temp\cciErhMR.s 			page 67


 3736 017b 02       		.uleb128 0x2
 3737 017c 06       		.uleb128 0x6
 3738 017d 00       		.byte	0
 3739 017e 00       		.byte	0
 3740 017f 1E       		.uleb128 0x1e
 3741 0180 898201   		.uleb128 0x4109
 3742 0183 01       		.byte	0x1
 3743 0184 11       		.uleb128 0x11
 3744 0185 01       		.uleb128 0x1
 3745 0186 31       		.uleb128 0x31
 3746 0187 13       		.uleb128 0x13
 3747 0188 01       		.uleb128 0x1
 3748 0189 13       		.uleb128 0x13
 3749 018a 00       		.byte	0
 3750 018b 00       		.byte	0
 3751 018c 1F       		.uleb128 0x1f
 3752 018d 898201   		.uleb128 0x4109
 3753 0190 00       		.byte	0
 3754 0191 11       		.uleb128 0x11
 3755 0192 01       		.uleb128 0x1
 3756 0193 31       		.uleb128 0x31
 3757 0194 13       		.uleb128 0x13
 3758 0195 00       		.byte	0
 3759 0196 00       		.byte	0
 3760 0197 20       		.uleb128 0x20
 3761 0198 898201   		.uleb128 0x4109
 3762 019b 01       		.byte	0x1
 3763 019c 11       		.uleb128 0x11
 3764 019d 01       		.uleb128 0x1
 3765 019e 31       		.uleb128 0x31
 3766 019f 13       		.uleb128 0x13
 3767 01a0 00       		.byte	0
 3768 01a1 00       		.byte	0
 3769 01a2 21       		.uleb128 0x21
 3770 01a3 2E       		.uleb128 0x2e
 3771 01a4 01       		.byte	0x1
 3772 01a5 03       		.uleb128 0x3
 3773 01a6 0E       		.uleb128 0xe
 3774 01a7 3A       		.uleb128 0x3a
 3775 01a8 0B       		.uleb128 0xb
 3776 01a9 3B       		.uleb128 0x3b
 3777 01aa 0B       		.uleb128 0xb
 3778 01ab 27       		.uleb128 0x27
 3779 01ac 0C       		.uleb128 0xc
 3780 01ad 49       		.uleb128 0x49
 3781 01ae 13       		.uleb128 0x13
 3782 01af 11       		.uleb128 0x11
 3783 01b0 01       		.uleb128 0x1
 3784 01b1 12       		.uleb128 0x12
 3785 01b2 01       		.uleb128 0x1
 3786 01b3 40       		.uleb128 0x40
 3787 01b4 06       		.uleb128 0x6
 3788 01b5 9742     		.uleb128 0x2117
 3789 01b7 0C       		.uleb128 0xc
 3790 01b8 01       		.uleb128 0x1
 3791 01b9 13       		.uleb128 0x13
 3792 01ba 00       		.byte	0
ARM GAS  C:\Users\DNIEL~1\AppData\Local\Temp\cciErhMR.s 			page 68


 3793 01bb 00       		.byte	0
 3794 01bc 22       		.uleb128 0x22
 3795 01bd 05       		.uleb128 0x5
 3796 01be 00       		.byte	0
 3797 01bf 03       		.uleb128 0x3
 3798 01c0 08       		.uleb128 0x8
 3799 01c1 3A       		.uleb128 0x3a
 3800 01c2 0B       		.uleb128 0xb
 3801 01c3 3B       		.uleb128 0x3b
 3802 01c4 0B       		.uleb128 0xb
 3803 01c5 49       		.uleb128 0x49
 3804 01c6 13       		.uleb128 0x13
 3805 01c7 02       		.uleb128 0x2
 3806 01c8 06       		.uleb128 0x6
 3807 01c9 00       		.byte	0
 3808 01ca 00       		.byte	0
 3809 01cb 23       		.uleb128 0x23
 3810 01cc 2E       		.uleb128 0x2e
 3811 01cd 01       		.byte	0x1
 3812 01ce 03       		.uleb128 0x3
 3813 01cf 08       		.uleb128 0x8
 3814 01d0 3A       		.uleb128 0x3a
 3815 01d1 0B       		.uleb128 0xb
 3816 01d2 3B       		.uleb128 0x3b
 3817 01d3 0B       		.uleb128 0xb
 3818 01d4 27       		.uleb128 0x27
 3819 01d5 0C       		.uleb128 0xc
 3820 01d6 11       		.uleb128 0x11
 3821 01d7 01       		.uleb128 0x1
 3822 01d8 12       		.uleb128 0x12
 3823 01d9 01       		.uleb128 0x1
 3824 01da 40       		.uleb128 0x40
 3825 01db 0A       		.uleb128 0xa
 3826 01dc 9742     		.uleb128 0x2117
 3827 01de 0C       		.uleb128 0xc
 3828 01df 01       		.uleb128 0x1
 3829 01e0 13       		.uleb128 0x13
 3830 01e1 00       		.byte	0
 3831 01e2 00       		.byte	0
 3832 01e3 24       		.uleb128 0x24
 3833 01e4 2E       		.uleb128 0x2e
 3834 01e5 01       		.byte	0x1
 3835 01e6 31       		.uleb128 0x31
 3836 01e7 13       		.uleb128 0x13
 3837 01e8 11       		.uleb128 0x11
 3838 01e9 01       		.uleb128 0x1
 3839 01ea 12       		.uleb128 0x12
 3840 01eb 01       		.uleb128 0x1
 3841 01ec 40       		.uleb128 0x40
 3842 01ed 06       		.uleb128 0x6
 3843 01ee 9742     		.uleb128 0x2117
 3844 01f0 0C       		.uleb128 0xc
 3845 01f1 01       		.uleb128 0x1
 3846 01f2 13       		.uleb128 0x13
 3847 01f3 00       		.byte	0
 3848 01f4 00       		.byte	0
 3849 01f5 25       		.uleb128 0x25
ARM GAS  C:\Users\DNIEL~1\AppData\Local\Temp\cciErhMR.s 			page 69


 3850 01f6 34       		.uleb128 0x34
 3851 01f7 00       		.byte	0
 3852 01f8 31       		.uleb128 0x31
 3853 01f9 13       		.uleb128 0x13
 3854 01fa 02       		.uleb128 0x2
 3855 01fb 06       		.uleb128 0x6
 3856 01fc 00       		.byte	0
 3857 01fd 00       		.byte	0
 3858 01fe 26       		.uleb128 0x26
 3859 01ff 1D       		.uleb128 0x1d
 3860 0200 01       		.byte	0x1
 3861 0201 31       		.uleb128 0x31
 3862 0202 13       		.uleb128 0x13
 3863 0203 52       		.uleb128 0x52
 3864 0204 01       		.uleb128 0x1
 3865 0205 55       		.uleb128 0x55
 3866 0206 06       		.uleb128 0x6
 3867 0207 58       		.uleb128 0x58
 3868 0208 0B       		.uleb128 0xb
 3869 0209 59       		.uleb128 0x59
 3870 020a 0B       		.uleb128 0xb
 3871 020b 01       		.uleb128 0x1
 3872 020c 13       		.uleb128 0x13
 3873 020d 00       		.byte	0
 3874 020e 00       		.byte	0
 3875 020f 27       		.uleb128 0x27
 3876 0210 0B       		.uleb128 0xb
 3877 0211 01       		.byte	0x1
 3878 0212 55       		.uleb128 0x55
 3879 0213 06       		.uleb128 0x6
 3880 0214 00       		.byte	0
 3881 0215 00       		.byte	0
 3882 0216 28       		.uleb128 0x28
 3883 0217 01       		.uleb128 0x1
 3884 0218 01       		.byte	0x1
 3885 0219 49       		.uleb128 0x49
 3886 021a 13       		.uleb128 0x13
 3887 021b 01       		.uleb128 0x1
 3888 021c 13       		.uleb128 0x13
 3889 021d 00       		.byte	0
 3890 021e 00       		.byte	0
 3891 021f 29       		.uleb128 0x29
 3892 0220 21       		.uleb128 0x21
 3893 0221 00       		.byte	0
 3894 0222 49       		.uleb128 0x49
 3895 0223 13       		.uleb128 0x13
 3896 0224 2F       		.uleb128 0x2f
 3897 0225 0B       		.uleb128 0xb
 3898 0226 00       		.byte	0
 3899 0227 00       		.byte	0
 3900 0228 2A       		.uleb128 0x2a
 3901 0229 34       		.uleb128 0x34
 3902 022a 00       		.byte	0
 3903 022b 03       		.uleb128 0x3
 3904 022c 0E       		.uleb128 0xe
 3905 022d 3A       		.uleb128 0x3a
 3906 022e 0B       		.uleb128 0xb
ARM GAS  C:\Users\DNIEL~1\AppData\Local\Temp\cciErhMR.s 			page 70


 3907 022f 3B       		.uleb128 0x3b
 3908 0230 0B       		.uleb128 0xb
 3909 0231 49       		.uleb128 0x49
 3910 0232 13       		.uleb128 0x13
 3911 0233 02       		.uleb128 0x2
 3912 0234 0A       		.uleb128 0xa
 3913 0235 00       		.byte	0
 3914 0236 00       		.byte	0
 3915 0237 2B       		.uleb128 0x2b
 3916 0238 34       		.uleb128 0x34
 3917 0239 00       		.byte	0
 3918 023a 03       		.uleb128 0x3
 3919 023b 0E       		.uleb128 0xe
 3920 023c 3A       		.uleb128 0x3a
 3921 023d 0B       		.uleb128 0xb
 3922 023e 3B       		.uleb128 0x3b
 3923 023f 0B       		.uleb128 0xb
 3924 0240 49       		.uleb128 0x49
 3925 0241 13       		.uleb128 0x13
 3926 0242 3F       		.uleb128 0x3f
 3927 0243 0C       		.uleb128 0xc
 3928 0244 3C       		.uleb128 0x3c
 3929 0245 0C       		.uleb128 0xc
 3930 0246 00       		.byte	0
 3931 0247 00       		.byte	0
 3932 0248 2C       		.uleb128 0x2c
 3933 0249 21       		.uleb128 0x21
 3934 024a 00       		.byte	0
 3935 024b 00       		.byte	0
 3936 024c 00       		.byte	0
 3937 024d 2D       		.uleb128 0x2d
 3938 024e 34       		.uleb128 0x34
 3939 024f 00       		.byte	0
 3940 0250 03       		.uleb128 0x3
 3941 0251 08       		.uleb128 0x8
 3942 0252 3A       		.uleb128 0x3a
 3943 0253 0B       		.uleb128 0xb
 3944 0254 3B       		.uleb128 0x3b
 3945 0255 0B       		.uleb128 0xb
 3946 0256 49       		.uleb128 0x49
 3947 0257 13       		.uleb128 0x13
 3948 0258 3F       		.uleb128 0x3f
 3949 0259 0C       		.uleb128 0xc
 3950 025a 3C       		.uleb128 0x3c
 3951 025b 0C       		.uleb128 0xc
 3952 025c 00       		.byte	0
 3953 025d 00       		.byte	0
 3954 025e 2E       		.uleb128 0x2e
 3955 025f 34       		.uleb128 0x34
 3956 0260 00       		.byte	0
 3957 0261 03       		.uleb128 0x3
 3958 0262 0E       		.uleb128 0xe
 3959 0263 3A       		.uleb128 0x3a
 3960 0264 0B       		.uleb128 0xb
 3961 0265 3B       		.uleb128 0x3b
 3962 0266 0B       		.uleb128 0xb
 3963 0267 49       		.uleb128 0x49
ARM GAS  C:\Users\DNIEL~1\AppData\Local\Temp\cciErhMR.s 			page 71


 3964 0268 13       		.uleb128 0x13
 3965 0269 3F       		.uleb128 0x3f
 3966 026a 0C       		.uleb128 0xc
 3967 026b 02       		.uleb128 0x2
 3968 026c 0A       		.uleb128 0xa
 3969 026d 00       		.byte	0
 3970 026e 00       		.byte	0
 3971 026f 2F       		.uleb128 0x2f
 3972 0270 34       		.uleb128 0x34
 3973 0271 00       		.byte	0
 3974 0272 03       		.uleb128 0x3
 3975 0273 0E       		.uleb128 0xe
 3976 0274 3A       		.uleb128 0x3a
 3977 0275 0B       		.uleb128 0xb
 3978 0276 3B       		.uleb128 0x3b
 3979 0277 05       		.uleb128 0x5
 3980 0278 49       		.uleb128 0x49
 3981 0279 13       		.uleb128 0x13
 3982 027a 3F       		.uleb128 0x3f
 3983 027b 0C       		.uleb128 0xc
 3984 027c 02       		.uleb128 0x2
 3985 027d 0A       		.uleb128 0xa
 3986 027e 00       		.byte	0
 3987 027f 00       		.byte	0
 3988 0280 30       		.uleb128 0x30
 3989 0281 2E       		.uleb128 0x2e
 3990 0282 01       		.byte	0x1
 3991 0283 3F       		.uleb128 0x3f
 3992 0284 0C       		.uleb128 0xc
 3993 0285 03       		.uleb128 0x3
 3994 0286 0E       		.uleb128 0xe
 3995 0287 3A       		.uleb128 0x3a
 3996 0288 0B       		.uleb128 0xb
 3997 0289 3B       		.uleb128 0x3b
 3998 028a 0B       		.uleb128 0xb
 3999 028b 27       		.uleb128 0x27
 4000 028c 0C       		.uleb128 0xc
 4001 028d 49       		.uleb128 0x49
 4002 028e 13       		.uleb128 0x13
 4003 028f 3C       		.uleb128 0x3c
 4004 0290 0C       		.uleb128 0xc
 4005 0291 01       		.uleb128 0x1
 4006 0292 13       		.uleb128 0x13
 4007 0293 00       		.byte	0
 4008 0294 00       		.byte	0
 4009 0295 31       		.uleb128 0x31
 4010 0296 2E       		.uleb128 0x2e
 4011 0297 00       		.byte	0
 4012 0298 3F       		.uleb128 0x3f
 4013 0299 0C       		.uleb128 0xc
 4014 029a 03       		.uleb128 0x3
 4015 029b 0E       		.uleb128 0xe
 4016 029c 3A       		.uleb128 0x3a
 4017 029d 0B       		.uleb128 0xb
 4018 029e 3B       		.uleb128 0x3b
 4019 029f 0B       		.uleb128 0xb
 4020 02a0 27       		.uleb128 0x27
ARM GAS  C:\Users\DNIEL~1\AppData\Local\Temp\cciErhMR.s 			page 72


 4021 02a1 0C       		.uleb128 0xc
 4022 02a2 49       		.uleb128 0x49
 4023 02a3 13       		.uleb128 0x13
 4024 02a4 3C       		.uleb128 0x3c
 4025 02a5 0C       		.uleb128 0xc
 4026 02a6 00       		.byte	0
 4027 02a7 00       		.byte	0
 4028 02a8 32       		.uleb128 0x32
 4029 02a9 2E       		.uleb128 0x2e
 4030 02aa 01       		.byte	0x1
 4031 02ab 3F       		.uleb128 0x3f
 4032 02ac 0C       		.uleb128 0xc
 4033 02ad 03       		.uleb128 0x3
 4034 02ae 0E       		.uleb128 0xe
 4035 02af 3A       		.uleb128 0x3a
 4036 02b0 0B       		.uleb128 0xb
 4037 02b1 3B       		.uleb128 0x3b
 4038 02b2 05       		.uleb128 0x5
 4039 02b3 27       		.uleb128 0x27
 4040 02b4 0C       		.uleb128 0xc
 4041 02b5 49       		.uleb128 0x49
 4042 02b6 13       		.uleb128 0x13
 4043 02b7 3C       		.uleb128 0x3c
 4044 02b8 0C       		.uleb128 0xc
 4045 02b9 01       		.uleb128 0x1
 4046 02ba 13       		.uleb128 0x13
 4047 02bb 00       		.byte	0
 4048 02bc 00       		.byte	0
 4049 02bd 33       		.uleb128 0x33
 4050 02be 2E       		.uleb128 0x2e
 4051 02bf 00       		.byte	0
 4052 02c0 3F       		.uleb128 0x3f
 4053 02c1 0C       		.uleb128 0xc
 4054 02c2 03       		.uleb128 0x3
 4055 02c3 0E       		.uleb128 0xe
 4056 02c4 3A       		.uleb128 0x3a
 4057 02c5 0B       		.uleb128 0xb
 4058 02c6 3B       		.uleb128 0x3b
 4059 02c7 0B       		.uleb128 0xb
 4060 02c8 27       		.uleb128 0x27
 4061 02c9 0C       		.uleb128 0xc
 4062 02ca 3C       		.uleb128 0x3c
 4063 02cb 0C       		.uleb128 0xc
 4064 02cc 00       		.byte	0
 4065 02cd 00       		.byte	0
 4066 02ce 34       		.uleb128 0x34
 4067 02cf 2E       		.uleb128 0x2e
 4068 02d0 01       		.byte	0x1
 4069 02d1 3F       		.uleb128 0x3f
 4070 02d2 0C       		.uleb128 0xc
 4071 02d3 03       		.uleb128 0x3
 4072 02d4 0E       		.uleb128 0xe
 4073 02d5 3A       		.uleb128 0x3a
 4074 02d6 0B       		.uleb128 0xb
 4075 02d7 3B       		.uleb128 0x3b
 4076 02d8 0B       		.uleb128 0xb
 4077 02d9 27       		.uleb128 0x27
ARM GAS  C:\Users\DNIEL~1\AppData\Local\Temp\cciErhMR.s 			page 73


 4078 02da 0C       		.uleb128 0xc
 4079 02db 3C       		.uleb128 0x3c
 4080 02dc 0C       		.uleb128 0xc
 4081 02dd 01       		.uleb128 0x1
 4082 02de 13       		.uleb128 0x13
 4083 02df 00       		.byte	0
 4084 02e0 00       		.byte	0
 4085 02e1 35       		.uleb128 0x35
 4086 02e2 2E       		.uleb128 0x2e
 4087 02e3 01       		.byte	0x1
 4088 02e4 3F       		.uleb128 0x3f
 4089 02e5 0C       		.uleb128 0xc
 4090 02e6 03       		.uleb128 0x3
 4091 02e7 0E       		.uleb128 0xe
 4092 02e8 3A       		.uleb128 0x3a
 4093 02e9 0B       		.uleb128 0xb
 4094 02ea 3B       		.uleb128 0x3b
 4095 02eb 05       		.uleb128 0x5
 4096 02ec 27       		.uleb128 0x27
 4097 02ed 0C       		.uleb128 0xc
 4098 02ee 3C       		.uleb128 0x3c
 4099 02ef 0C       		.uleb128 0xc
 4100 02f0 01       		.uleb128 0x1
 4101 02f1 13       		.uleb128 0x13
 4102 02f2 00       		.byte	0
 4103 02f3 00       		.byte	0
 4104 02f4 36       		.uleb128 0x36
 4105 02f5 2E       		.uleb128 0x2e
 4106 02f6 01       		.byte	0x1
 4107 02f7 3F       		.uleb128 0x3f
 4108 02f8 0C       		.uleb128 0xc
 4109 02f9 03       		.uleb128 0x3
 4110 02fa 0E       		.uleb128 0xe
 4111 02fb 3A       		.uleb128 0x3a
 4112 02fc 0B       		.uleb128 0xb
 4113 02fd 3B       		.uleb128 0x3b
 4114 02fe 0B       		.uleb128 0xb
 4115 02ff 27       		.uleb128 0x27
 4116 0300 0C       		.uleb128 0xc
 4117 0301 49       		.uleb128 0x49
 4118 0302 13       		.uleb128 0x13
 4119 0303 3C       		.uleb128 0x3c
 4120 0304 0C       		.uleb128 0xc
 4121 0305 00       		.byte	0
 4122 0306 00       		.byte	0
 4123 0307 00       		.byte	0
 4124              		.section	.debug_loc,"",%progbits
 4125              	.Ldebug_loc0:
 4126              	.LLST0:
 4127 0000 00000000 		.4byte	.LFB15
 4128 0004 04000000 		.4byte	.LCFI0
 4129 0008 0200     		.2byte	0x2
 4130 000a 7D       		.byte	0x7d
 4131 000b 00       		.sleb128 0
 4132 000c 04000000 		.4byte	.LCFI0
 4133 0010 08000000 		.4byte	.LCFI1
 4134 0014 0200     		.2byte	0x2
ARM GAS  C:\Users\DNIEL~1\AppData\Local\Temp\cciErhMR.s 			page 74


 4135 0016 7D       		.byte	0x7d
 4136 0017 1C       		.sleb128 28
 4137 0018 08000000 		.4byte	.LCFI1
 4138 001c 7C020000 		.4byte	.LFE15
 4139 0020 0300     		.2byte	0x3
 4140 0022 7D       		.byte	0x7d
 4141 0023 C800     		.sleb128 72
 4142 0025 00000000 		.4byte	0
 4143 0029 00000000 		.4byte	0
 4144              	.LLST1:
 4145 002d 14000000 		.4byte	.LVL4
 4146 0031 22000000 		.4byte	.LVL5
 4147 0035 0100     		.2byte	0x1
 4148 0037 50       		.byte	0x50
 4149 0038 22000000 		.4byte	.LVL5
 4150 003c 25000000 		.4byte	.LVL6-1
 4151 0040 0300     		.2byte	0x3
 4152 0042 7E       		.byte	0x7e
 4153 0043 01       		.sleb128 1
 4154 0044 9F       		.byte	0x9f
 4155 0045 36000000 		.4byte	.LVL7
 4156 0049 38000000 		.4byte	.LVL8
 4157 004d 0100     		.2byte	0x1
 4158 004f 50       		.byte	0x50
 4159 0050 38000000 		.4byte	.LVL8
 4160 0054 40000000 		.4byte	.LVL9
 4161 0058 0300     		.2byte	0x3
 4162 005a 70       		.byte	0x70
 4163 005b 02       		.sleb128 2
 4164 005c 9F       		.byte	0x9f
 4165 005d 50000000 		.4byte	.LVL11
 4166 0061 58000000 		.4byte	.LVL12
 4167 0065 0100     		.2byte	0x1
 4168 0067 50       		.byte	0x50
 4169 0068 58000000 		.4byte	.LVL12
 4170 006c 5B000000 		.4byte	.LVL13-1
 4171 0070 0300     		.2byte	0x3
 4172 0072 73       		.byte	0x73
 4173 0073 04       		.sleb128 4
 4174 0074 9F       		.byte	0x9f
 4175 0075 68000000 		.4byte	.LVL14
 4176 0079 72000000 		.4byte	.LVL15
 4177 007d 0100     		.2byte	0x1
 4178 007f 50       		.byte	0x50
 4179 0080 B2000000 		.4byte	.LVL22
 4180 0084 B8000000 		.4byte	.LVL23
 4181 0088 0100     		.2byte	0x1
 4182 008a 50       		.byte	0x50
 4183 008b B8000000 		.4byte	.LVL23
 4184 008f DC000000 		.4byte	.LVL26
 4185 0093 0100     		.2byte	0x1
 4186 0095 59       		.byte	0x59
 4187 0096 DC000000 		.4byte	.LVL26
 4188 009a E6000000 		.4byte	.LVL27
 4189 009e 0100     		.2byte	0x1
 4190 00a0 50       		.byte	0x50
 4191 00a1 00010000 		.4byte	.LVL31
ARM GAS  C:\Users\DNIEL~1\AppData\Local\Temp\cciErhMR.s 			page 75


 4192 00a5 0E010000 		.4byte	.LVL32
 4193 00a9 0100     		.2byte	0x1
 4194 00ab 50       		.byte	0x50
 4195 00ac 0E010000 		.4byte	.LVL32
 4196 00b0 11010000 		.4byte	.LVL33-1
 4197 00b4 0300     		.2byte	0x3
 4198 00b6 7C       		.byte	0x7c
 4199 00b7 05       		.sleb128 5
 4200 00b8 9F       		.byte	0x9f
 4201 00b9 1E010000 		.4byte	.LVL34
 4202 00bd 28010000 		.4byte	.LVL35
 4203 00c1 0100     		.2byte	0x1
 4204 00c3 50       		.byte	0x50
 4205 00c4 5E010000 		.4byte	.LVL43
 4206 00c8 64010000 		.4byte	.LVL44
 4207 00cc 0100     		.2byte	0x1
 4208 00ce 50       		.byte	0x50
 4209 00cf 64010000 		.4byte	.LVL44
 4210 00d3 8E010000 		.4byte	.LVL47
 4211 00d7 0100     		.2byte	0x1
 4212 00d9 59       		.byte	0x59
 4213 00da 8E010000 		.4byte	.LVL47
 4214 00de 98010000 		.4byte	.LVL48
 4215 00e2 0100     		.2byte	0x1
 4216 00e4 50       		.byte	0x50
 4217 00e5 08020000 		.4byte	.LVL60
 4218 00e9 12020000 		.4byte	.LVL61
 4219 00ed 0100     		.2byte	0x1
 4220 00ef 50       		.byte	0x50
 4221 00f0 00000000 		.4byte	0
 4222 00f4 00000000 		.4byte	0
 4223              	.LLST2:
 4224 00f8 9E000000 		.4byte	.LVL18
 4225 00fc B0000000 		.4byte	.LVL21
 4226 0100 0300     		.2byte	0x3
 4227 0102 74       		.byte	0x74
 4228 0103 32       		.sleb128 50
 4229 0104 9F       		.byte	0x9f
 4230 0105 B0000000 		.4byte	.LVL21
 4231 0109 BB000000 		.4byte	.LVL24-1
 4232 010d 0100     		.2byte	0x1
 4233 010f 51       		.byte	0x51
 4234 0110 BB000000 		.4byte	.LVL24-1
 4235 0114 3A010000 		.4byte	.LVL38
 4236 0118 0300     		.2byte	0x3
 4237 011a 74       		.byte	0x74
 4238 011b 32       		.sleb128 50
 4239 011c 9F       		.byte	0x9f
 4240 011d 4A010000 		.4byte	.LVL39
 4241 0121 5C010000 		.4byte	.LVL42
 4242 0125 0300     		.2byte	0x3
 4243 0127 74       		.byte	0x74
 4244 0128 32       		.sleb128 50
 4245 0129 9F       		.byte	0x9f
 4246 012a 5C010000 		.4byte	.LVL42
 4247 012e 67010000 		.4byte	.LVL45-1
 4248 0132 0100     		.2byte	0x1
ARM GAS  C:\Users\DNIEL~1\AppData\Local\Temp\cciErhMR.s 			page 76


 4249 0134 51       		.byte	0x51
 4250 0135 67010000 		.4byte	.LVL45-1
 4251 0139 A8010000 		.4byte	.LVL50
 4252 013d 0300     		.2byte	0x3
 4253 013f 74       		.byte	0x74
 4254 0140 32       		.sleb128 50
 4255 0141 9F       		.byte	0x9f
 4256 0142 DE010000 		.4byte	.LVL55
 4257 0146 F2010000 		.4byte	.LVL58
 4258 014a 0300     		.2byte	0x3
 4259 014c 76       		.byte	0x76
 4260 014d 32       		.sleb128 50
 4261 014e 9F       		.byte	0x9f
 4262 014f F2010000 		.4byte	.LVL58
 4263 0153 F9010000 		.4byte	.LVL59-1
 4264 0157 0100     		.2byte	0x1
 4265 0159 51       		.byte	0x51
 4266 015a F9010000 		.4byte	.LVL59-1
 4267 015e 7C020000 		.4byte	.LFE15
 4268 0162 0300     		.2byte	0x3
 4269 0164 76       		.byte	0x76
 4270 0165 32       		.sleb128 50
 4271 0166 9F       		.byte	0x9f
 4272 0167 00000000 		.4byte	0
 4273 016b 00000000 		.4byte	0
 4274              	.LLST3:
 4275 016f 00000000 		.4byte	.LFB14
 4276 0173 06000000 		.4byte	.LCFI2
 4277 0177 0200     		.2byte	0x2
 4278 0179 7D       		.byte	0x7d
 4279 017a 00       		.sleb128 0
 4280 017b 06000000 		.4byte	.LCFI2
 4281 017f 28000000 		.4byte	.LFE14
 4282 0183 0200     		.2byte	0x2
 4283 0185 7D       		.byte	0x7d
 4284 0186 08       		.sleb128 8
 4285 0187 00000000 		.4byte	0
 4286 018b 00000000 		.4byte	0
 4287              	.LLST4:
 4288 018f 00000000 		.4byte	.LVL68
 4289 0193 04000000 		.4byte	.LVL69
 4290 0197 0100     		.2byte	0x1
 4291 0199 50       		.byte	0x50
 4292 019a 04000000 		.4byte	.LVL69
 4293 019e 28000000 		.4byte	.LFE14
 4294 01a2 0400     		.2byte	0x4
 4295 01a4 F3       		.byte	0xf3
 4296 01a5 01       		.uleb128 0x1
 4297 01a6 50       		.byte	0x50
 4298 01a7 9F       		.byte	0x9f
 4299 01a8 00000000 		.4byte	0
 4300 01ac 00000000 		.4byte	0
 4301              	.LLST5:
 4302 01b0 00000000 		.4byte	.LFB13
 4303 01b4 02000000 		.4byte	.LCFI3
 4304 01b8 0200     		.2byte	0x2
 4305 01ba 7D       		.byte	0x7d
ARM GAS  C:\Users\DNIEL~1\AppData\Local\Temp\cciErhMR.s 			page 77


 4306 01bb 00       		.sleb128 0
 4307 01bc 02000000 		.4byte	.LCFI3
 4308 01c0 16000000 		.4byte	.LFE13
 4309 01c4 0200     		.2byte	0x2
 4310 01c6 7D       		.byte	0x7d
 4311 01c7 08       		.sleb128 8
 4312 01c8 00000000 		.4byte	0
 4313 01cc 00000000 		.4byte	0
 4314              	.LLST6:
 4315 01d0 00000000 		.4byte	.LVL73
 4316 01d4 06000000 		.4byte	.LVL74
 4317 01d8 0100     		.2byte	0x1
 4318 01da 50       		.byte	0x50
 4319 01db 06000000 		.4byte	.LVL74
 4320 01df 16000000 		.4byte	.LFE13
 4321 01e3 0100     		.2byte	0x1
 4322 01e5 54       		.byte	0x54
 4323 01e6 00000000 		.4byte	0
 4324 01ea 00000000 		.4byte	0
 4325              	.LLST7:
 4326 01ee 00000000 		.4byte	.LFB11
 4327 01f2 02000000 		.4byte	.LCFI4
 4328 01f6 0200     		.2byte	0x2
 4329 01f8 7D       		.byte	0x7d
 4330 01f9 00       		.sleb128 0
 4331 01fa 02000000 		.4byte	.LCFI4
 4332 01fe 06000000 		.4byte	.LCFI5
 4333 0202 0200     		.2byte	0x2
 4334 0204 7D       		.byte	0x7d
 4335 0205 08       		.sleb128 8
 4336 0206 06000000 		.4byte	.LCFI5
 4337 020a 84000000 		.4byte	.LFE11
 4338 020e 0200     		.2byte	0x2
 4339 0210 7D       		.byte	0x7d
 4340 0211 28       		.sleb128 40
 4341 0212 00000000 		.4byte	0
 4342 0216 00000000 		.4byte	0
 4343              	.LLST8:
 4344 021a 00000000 		.4byte	.LVL86
 4345 021e 02000000 		.4byte	.LVL87
 4346 0222 0100     		.2byte	0x1
 4347 0224 50       		.byte	0x50
 4348 0225 02000000 		.4byte	.LVL87
 4349 0229 06000000 		.4byte	.LFE10
 4350 022d 0400     		.2byte	0x4
 4351 022f F3       		.byte	0xf3
 4352 0230 01       		.uleb128 0x1
 4353 0231 50       		.byte	0x50
 4354 0232 9F       		.byte	0x9f
 4355 0233 00000000 		.4byte	0
 4356 0237 00000000 		.4byte	0
 4357              	.LLST9:
 4358 023b 00000000 		.4byte	.LVL89
 4359 023f 02000000 		.4byte	.LVL90
 4360 0243 0100     		.2byte	0x1
 4361 0245 50       		.byte	0x50
 4362 0246 02000000 		.4byte	.LVL90
ARM GAS  C:\Users\DNIEL~1\AppData\Local\Temp\cciErhMR.s 			page 78


 4363 024a 06000000 		.4byte	.LFE9
 4364 024e 0400     		.2byte	0x4
 4365 0250 F3       		.byte	0xf3
 4366 0251 01       		.uleb128 0x1
 4367 0252 50       		.byte	0x50
 4368 0253 9F       		.byte	0x9f
 4369 0254 00000000 		.4byte	0
 4370 0258 00000000 		.4byte	0
 4371              	.LLST10:
 4372 025c 00000000 		.4byte	.LVL92
 4373 0260 02000000 		.4byte	.LVL93
 4374 0264 0100     		.2byte	0x1
 4375 0266 50       		.byte	0x50
 4376 0267 02000000 		.4byte	.LVL93
 4377 026b 06000000 		.4byte	.LFE8
 4378 026f 0400     		.2byte	0x4
 4379 0271 F3       		.byte	0xf3
 4380 0272 01       		.uleb128 0x1
 4381 0273 50       		.byte	0x50
 4382 0274 9F       		.byte	0x9f
 4383 0275 00000000 		.4byte	0
 4384 0279 00000000 		.4byte	0
 4385              	.LLST11:
 4386 027d 00000000 		.4byte	.LFB17
 4387 0281 02000000 		.4byte	.LCFI6
 4388 0285 0200     		.2byte	0x2
 4389 0287 7D       		.byte	0x7d
 4390 0288 00       		.sleb128 0
 4391 0289 02000000 		.4byte	.LCFI6
 4392 028d AA000000 		.4byte	.LFE17
 4393 0291 0200     		.2byte	0x2
 4394 0293 7D       		.byte	0x7d
 4395 0294 08       		.sleb128 8
 4396 0295 00000000 		.4byte	0
 4397 0299 00000000 		.4byte	0
 4398              	.LLST12:
 4399 029d 0C000000 		.4byte	.LVL95
 4400 02a1 16000000 		.4byte	.LVL96
 4401 02a5 0100     		.2byte	0x1
 4402 02a7 50       		.byte	0x50
 4403 02a8 28000000 		.4byte	.LVL98
 4404 02ac 32000000 		.4byte	.LVL99
 4405 02b0 0100     		.2byte	0x1
 4406 02b2 50       		.byte	0x50
 4407 02b3 44000000 		.4byte	.LVL101
 4408 02b7 4E000000 		.4byte	.LVL102
 4409 02bb 0100     		.2byte	0x1
 4410 02bd 50       		.byte	0x50
 4411 02be 00000000 		.4byte	0
 4412 02c2 00000000 		.4byte	0
 4413              	.LLST13:
 4414 02c6 60000000 		.4byte	.LVL104
 4415 02ca 6A000000 		.4byte	.LVL105
 4416 02ce 0100     		.2byte	0x1
 4417 02d0 50       		.byte	0x50
 4418 02d1 7C000000 		.4byte	.LVL107
 4419 02d5 86000000 		.4byte	.LVL108
ARM GAS  C:\Users\DNIEL~1\AppData\Local\Temp\cciErhMR.s 			page 79


 4420 02d9 0100     		.2byte	0x1
 4421 02db 50       		.byte	0x50
 4422 02dc 98000000 		.4byte	.LVL110
 4423 02e0 A2000000 		.4byte	.LVL111
 4424 02e4 0100     		.2byte	0x1
 4425 02e6 50       		.byte	0x50
 4426 02e7 00000000 		.4byte	0
 4427 02eb 00000000 		.4byte	0
 4428              		.section	.debug_aranges,"",%progbits
 4429 0000 6C000000 		.4byte	0x6c
 4430 0004 0200     		.2byte	0x2
 4431 0006 00000000 		.4byte	.Ldebug_info0
 4432 000a 04       		.byte	0x4
 4433 000b 00       		.byte	0
 4434 000c 0000     		.2byte	0
 4435 000e 0000     		.2byte	0
 4436 0010 00000000 		.4byte	.LFB16
 4437 0014 08000000 		.4byte	.LFE16-.LFB16
 4438 0018 00000000 		.4byte	.LFB12
 4439 001c 08000000 		.4byte	.LFE12-.LFB12
 4440 0020 00000000 		.4byte	.LFB7
 4441 0024 08000000 		.4byte	.LFE7-.LFB7
 4442 0028 00000000 		.4byte	.LFB15
 4443 002c 7C020000 		.4byte	.LFE15-.LFB15
 4444 0030 00000000 		.4byte	.LFB14
 4445 0034 28000000 		.4byte	.LFE14-.LFB14
 4446 0038 00000000 		.4byte	.LFB13
 4447 003c 16000000 		.4byte	.LFE13-.LFB13
 4448 0040 00000000 		.4byte	.LFB11
 4449 0044 84000000 		.4byte	.LFE11-.LFB11
 4450 0048 00000000 		.4byte	.LFB10
 4451 004c 06000000 		.4byte	.LFE10-.LFB10
 4452 0050 00000000 		.4byte	.LFB9
 4453 0054 06000000 		.4byte	.LFE9-.LFB9
 4454 0058 00000000 		.4byte	.LFB8
 4455 005c 06000000 		.4byte	.LFE8-.LFB8
 4456 0060 00000000 		.4byte	.LFB17
 4457 0064 AA000000 		.4byte	.LFE17-.LFB17
 4458 0068 00000000 		.4byte	0
 4459 006c 00000000 		.4byte	0
 4460              		.section	.debug_ranges,"",%progbits
 4461              	.Ldebug_ranges0:
 4462 0000 56000000 		.4byte	.LBB4
 4463 0004 A2000000 		.4byte	.LBE4
 4464 0008 A6000000 		.4byte	.LBB7
 4465 000c AA000000 		.4byte	.LBE7
 4466 0010 00000000 		.4byte	0
 4467 0014 00000000 		.4byte	0
 4468 0018 56000000 		.4byte	.LBB5
 4469 001c A2000000 		.4byte	.LBE5
 4470 0020 A6000000 		.4byte	.LBB6
 4471 0024 AA000000 		.4byte	.LBE6
 4472 0028 00000000 		.4byte	0
 4473 002c 00000000 		.4byte	0
 4474 0030 00000000 		.4byte	.LFB16
 4475 0034 08000000 		.4byte	.LFE16
 4476 0038 00000000 		.4byte	.LFB12
ARM GAS  C:\Users\DNIEL~1\AppData\Local\Temp\cciErhMR.s 			page 80


 4477 003c 08000000 		.4byte	.LFE12
 4478 0040 00000000 		.4byte	.LFB7
 4479 0044 08000000 		.4byte	.LFE7
 4480 0048 00000000 		.4byte	.LFB15
 4481 004c 7C020000 		.4byte	.LFE15
 4482 0050 00000000 		.4byte	.LFB14
 4483 0054 28000000 		.4byte	.LFE14
 4484 0058 00000000 		.4byte	.LFB13
 4485 005c 16000000 		.4byte	.LFE13
 4486 0060 00000000 		.4byte	.LFB11
 4487 0064 84000000 		.4byte	.LFE11
 4488 0068 00000000 		.4byte	.LFB10
 4489 006c 06000000 		.4byte	.LFE10
 4490 0070 00000000 		.4byte	.LFB9
 4491 0074 06000000 		.4byte	.LFE9
 4492 0078 00000000 		.4byte	.LFB8
 4493 007c 06000000 		.4byte	.LFE8
 4494 0080 00000000 		.4byte	.LFB17
 4495 0084 AA000000 		.4byte	.LFE17
 4496 0088 00000000 		.4byte	0
 4497 008c 00000000 		.4byte	0
 4498              		.section	.debug_line,"",%progbits
 4499              	.Ldebug_line0:
 4500 0000 1D030000 		.section	.debug_str,"MS",%progbits,1
 4500      0200E601 
 4500      00000201 
 4500      FB0E0D00 
 4500      01010101 
 4501              	.LASF84:
 4502 0000 7466756E 		.ascii	"tfunc_t\000"
 4502      635F7400 
 4503              	.LASF91:
 4504 0008 65767432 		.ascii	"evt2_setup\000"
 4504      5F736574 
 4504      757000
 4505              	.LASF40:
 4506 0013 705F6D73 		.ascii	"p_msg\000"
 4506      6700
 4507              	.LASF2:
 4508 0019 73697A65 		.ascii	"size_t\000"
 4508      5F7400
 4509              	.LASF79:
 4510 0020 7264796D 		.ascii	"rdymsg\000"
 4510      736700
 4511              	.LASF99:
 4512 0027 76746C69 		.ascii	"vtlist\000"
 4512      737400
 4513              	.LASF118:
 4514 002e 63684576 		.ascii	"chEvtSignal\000"
 4514      74536967 
 4514      6E616C00 
 4515              	.LASF12:
 4516 003a 6C6F6E67 		.ascii	"long long unsigned int\000"
 4516      206C6F6E 
 4516      6720756E 
 4516      7369676E 
 4516      65642069 
ARM GAS  C:\Users\DNIEL~1\AppData\Local\Temp\cciErhMR.s 			page 81


 4517              	.LASF107:
 4518 0051 63684576 		.ascii	"chEvtAddEvents\000"
 4518      74416464 
 4518      4576656E 
 4518      747300
 4519              	.LASF80:
 4520 0060 65786974 		.ascii	"exitcode\000"
 4520      636F6465 
 4520      00
 4521              	.LASF123:
 4522 0069 63684576 		.ascii	"chEvtWaitAnyTimeout\000"
 4522      74576169 
 4522      74416E79 
 4522      54696D65 
 4522      6F757400 
 4523              	.LASF28:
 4524 007d 705F7072 		.ascii	"p_prio\000"
 4524      696F00
 4525              	.LASF93:
 4526 0084 65767432 		.ascii	"evt2_execute\000"
 4526      5F657865 
 4526      63757465 
 4526      00
 4527              	.LASF11:
 4528 0091 6C6F6E67 		.ascii	"long long int\000"
 4528      206C6F6E 
 4528      6720696E 
 4528      7400
 4529              	.LASF1:
 4530 009f 7369676E 		.ascii	"signed char\000"
 4530      65642063 
 4530      68617200 
 4531              	.LASF124:
 4532 00ab 63684576 		.ascii	"chEvtWaitAllTimeout\000"
 4532      74576169 
 4532      74416C6C 
 4532      54696D65 
 4532      6F757400 
 4533              	.LASF44:
 4534 00bf 705F6D70 		.ascii	"p_mpool\000"
 4534      6F6F6C00 
 4535              	.LASF13:
 4536 00c7 626F6F6C 		.ascii	"bool_t\000"
 4536      5F7400
 4537              	.LASF68:
 4538 00ce 6D5F7175 		.ascii	"m_queue\000"
 4538      65756500 
 4539              	.LASF121:
 4540 00d6 74657374 		.ascii	"test_emit_token\000"
 4540      5F656D69 
 4540      745F746F 
 4540      6B656E00 
 4541              	.LASF18:
 4542 00e6 74736C69 		.ascii	"tslices_t\000"
 4542      6365735F 
 4542      7400
 4543              	.LASF8:
ARM GAS  C:\Users\DNIEL~1\AppData\Local\Temp\cciErhMR.s 			page 82


 4544 00f0 6C6F6E67 		.ascii	"long int\000"
 4544      20696E74 
 4544      00
 4545              	.LASF94:
 4546 00f9 74617267 		.ascii	"target_time\000"
 4546      65745F74 
 4546      696D6500 
 4547              	.LASF16:
 4548 0105 74737461 		.ascii	"tstate_t\000"
 4548      74655F74 
 4548      00
 4549              	.LASF111:
 4550 010e 5F746573 		.ascii	"_test_assert_time_window\000"
 4550      745F6173 
 4550      73657274 
 4550      5F74696D 
 4550      655F7769 
 4551              	.LASF103:
 4552 0127 74657374 		.ascii	"testevt2\000"
 4552      65767432 
 4552      00
 4553              	.LASF112:
 4554 0130 63684576 		.ascii	"chEvtWaitAny\000"
 4554      74576169 
 4554      74416E79 
 4554      00
 4555              	.LASF104:
 4556 013d 74657374 		.ascii	"testevt3\000"
 4556      65767433 
 4556      00
 4557              	.LASF30:
 4558 0146 705F6E65 		.ascii	"p_newer\000"
 4558      77657200 
 4559              	.LASF63:
 4560 014e 725F6E65 		.ascii	"r_newer\000"
 4560      77657200 
 4561              	.LASF47:
 4562 0156 72656761 		.ascii	"regarm_t\000"
 4562      726D5F74 
 4562      00
 4563              	.LASF54:
 4564 015f 76745F70 		.ascii	"vt_prev\000"
 4564      72657600 
 4565              	.LASF116:
 4566 0167 63684576 		.ascii	"chEvtBroadcastFlags\000"
 4566      7442726F 
 4566      61646361 
 4566      7374466C 
 4566      61677300 
 4567              	.LASF21:
 4568 017b 6576656E 		.ascii	"eventid_t\000"
 4568      7469645F 
 4568      7400
 4569              	.LASF76:
 4570 0185 4576656E 		.ascii	"EventSource\000"
 4570      74536F75 
 4570      72636500 
ARM GAS  C:\Users\DNIEL~1\AppData\Local\Temp\cciErhMR.s 			page 83


 4571              	.LASF78:
 4572 0191 65766861 		.ascii	"evhandler_t\000"
 4572      6E646C65 
 4572      725F7400 
 4573              	.LASF0:
 4574 019d 756E7369 		.ascii	"unsigned int\000"
 4574      676E6564 
 4574      20696E74 
 4574      00
 4575              	.LASF53:
 4576 01aa 76745F6E 		.ascii	"vt_next\000"
 4576      65787400 
 4577              	.LASF10:
 4578 01b2 6C6F6E67 		.ascii	"long unsigned int\000"
 4578      20756E73 
 4578      69676E65 
 4578      6420696E 
 4578      7400
 4579              	.LASF106:
 4580 01c4 63684576 		.ascii	"chEvtGetAndClearEvents\000"
 4580      74476574 
 4580      416E6443 
 4580      6C656172 
 4580      4576656E 
 4581              	.LASF88:
 4582 01db 74656172 		.ascii	"teardown\000"
 4582      646F776E 
 4582      00
 4583              	.LASF105:
 4584 01e4 70617474 		.ascii	"patternevt\000"
 4584      65726E65 
 4584      767400
 4585              	.LASF86:
 4586 01ef 6E616D65 		.ascii	"name\000"
 4586      00
 4587              	.LASF49:
 4588 01f4 636F6E74 		.ascii	"context\000"
 4588      65787400 
 4589              	.LASF6:
 4590 01fc 73686F72 		.ascii	"short unsigned int\000"
 4590      7420756E 
 4590      7369676E 
 4590      65642069 
 4590      6E7400
 4591              	.LASF114:
 4592 020f 63684576 		.ascii	"chEvtRegisterMask\000"
 4592      74526567 
 4592      69737465 
 4592      724D6173 
 4592      6B00
 4593              	.LASF20:
 4594 0221 6D73675F 		.ascii	"msg_t\000"
 4594      7400
 4595              	.LASF72:
 4596 0227 656C5F6E 		.ascii	"el_next\000"
 4596      65787400 
 4597              	.LASF115:
ARM GAS  C:\Users\DNIEL~1\AppData\Local\Temp\cciErhMR.s 			page 84


 4598 022f 63684576 		.ascii	"chEvtUnregister\000"
 4598      74556E72 
 4598      65676973 
 4598      74657200 
 4599              	.LASF15:
 4600 023f 746D6F64 		.ascii	"tmode_t\000"
 4600      655F7400 
 4601              	.LASF46:
 4602 0247 54687265 		.ascii	"ThreadsList\000"
 4602      6164734C 
 4602      69737400 
 4603              	.LASF22:
 4604 0253 6576656E 		.ascii	"eventmask_t\000"
 4604      746D6173 
 4604      6B5F7400 
 4605              	.LASF67:
 4606 025f 4D757465 		.ascii	"Mutex\000"
 4606      7800
 4607              	.LASF110:
 4608 0265 63685468 		.ascii	"chThdCreateStatic\000"
 4608      64437265 
 4608      61746553 
 4608      74617469 
 4608      6300
 4609              	.LASF23:
 4610 0277 666C6167 		.ascii	"flagsmask_t\000"
 4610      736D6173 
 4610      6B5F7400 
 4611              	.LASF55:
 4612 0283 76745F74 		.ascii	"vt_time\000"
 4612      696D6500 
 4613              	.LASF92:
 4614 028b 65767431 		.ascii	"evt1_setup\000"
 4614      5F736574 
 4614      757000
 4615              	.LASF50:
 4616 0296 73697A65 		.ascii	"sizetype\000"
 4616      74797065 
 4616      00
 4617              	.LASF56:
 4618 029f 76745F66 		.ascii	"vt_func\000"
 4618      756E6300 
 4619              	.LASF119:
 4620 02a7 63684576 		.ascii	"chEvtDispatch\000"
 4620      74446973 
 4620      70617463 
 4620      6800
 4621              	.LASF90:
 4622 02b5 65767433 		.ascii	"evt3_setup\000"
 4622      5F736574 
 4622      757000
 4623              	.LASF125:
 4624 02c0 474E5520 		.ascii	"GNU C 4.7.4 20140401 (release) [ARM/embedded-4_7-br"
 4624      4320342E 
 4624      372E3420 
 4624      32303134 
 4624      30343031 
ARM GAS  C:\Users\DNIEL~1\AppData\Local\Temp\cciErhMR.s 			page 85


 4625 02f3 616E6368 		.ascii	"anch revision 209195]\000"
 4625      20726576 
 4625      6973696F 
 4625      6E203230 
 4625      39313935 
 4626              	.LASF31:
 4627 0309 705F6F6C 		.ascii	"p_older\000"
 4627      64657200 
 4628              	.LASF96:
 4629 0311 74687265 		.ascii	"thread1\000"
 4629      61643100 
 4630              	.LASF95:
 4631 0319 74687265 		.ascii	"thread2\000"
 4631      61643200 
 4632              	.LASF62:
 4633 0321 725F6374 		.ascii	"r_ctx\000"
 4633      7800
 4634              	.LASF45:
 4635 0327 54687265 		.ascii	"ThreadsQueue\000"
 4635      61647351 
 4635      75657565 
 4635      00
 4636              	.LASF87:
 4637 0334 73657475 		.ascii	"setup\000"
 4637      7000
 4638              	.LASF120:
 4639 033a 5F746573 		.ascii	"_test_assert_sequence\000"
 4639      745F6173 
 4639      73657274 
 4639      5F736571 
 4639      75656E63 
 4640              	.LASF113:
 4641 0350 63684576 		.ascii	"chEvtWaitAll\000"
 4641      74576169 
 4641      74416C6C 
 4641      00
 4642              	.LASF65:
 4643 035d 725F6375 		.ascii	"r_current\000"
 4643      7272656E 
 4643      7400
 4644              	.LASF64:
 4645 0367 725F6F6C 		.ascii	"r_older\000"
 4645      64657200 
 4646              	.LASF74:
 4647 036f 656C5F6D 		.ascii	"el_mask\000"
 4647      61736B00 
 4648              	.LASF17:
 4649 0377 74726566 		.ascii	"trefs_t\000"
 4649      735F7400 
 4650              	.LASF27:
 4651 037f 705F7072 		.ascii	"p_prev\000"
 4651      657600
 4652              	.LASF89:
 4653 0386 65786563 		.ascii	"execute\000"
 4653      75746500 
 4654              	.LASF19:
 4655 038e 74707269 		.ascii	"tprio_t\000"
ARM GAS  C:\Users\DNIEL~1\AppData\Local\Temp\cciErhMR.s 			page 86


 4655      6F5F7400 
 4656              	.LASF14:
 4657 0396 5F426F6F 		.ascii	"_Bool\000"
 4657      6C00
 4658              	.LASF7:
 4659 039c 696E7433 		.ascii	"int32_t\000"
 4659      325F7400 
 4660              	.LASF4:
 4661 03a4 756E7369 		.ascii	"unsigned char\000"
 4661      676E6564 
 4661      20636861 
 4661      7200
 4662              	.LASF108:
 4663 03b2 63684576 		.ascii	"chEvtWaitOne\000"
 4663      74576169 
 4663      744F6E65 
 4663      00
 4664              	.LASF73:
 4665 03bf 656C5F6C 		.ascii	"el_listener\000"
 4665      69737465 
 4665      6E657200 
 4666              	.LASF128:
 4667 03cb 65767433 		.ascii	"evt3_execute\000"
 4667      5F657865 
 4667      63757465 
 4667      00
 4668              	.LASF75:
 4669 03d8 656C5F66 		.ascii	"el_flags\000"
 4669      6C616773 
 4669      00
 4670              	.LASF42:
 4671 03e1 705F6D74 		.ascii	"p_mtxlist\000"
 4671      786C6973 
 4671      7400
 4672              	.LASF5:
 4673 03eb 73686F72 		.ascii	"short int\000"
 4673      7420696E 
 4673      7400
 4674              	.LASF33:
 4675 03f5 705F7374 		.ascii	"p_state\000"
 4675      61746500 
 4676              	.LASF36:
 4677 03fd 705F7072 		.ascii	"p_preempt\000"
 4677      65656D70 
 4677      7400
 4678              	.LASF101:
 4679 0407 74687265 		.ascii	"threads\000"
 4679      61647300 
 4680              	.LASF61:
 4681 040f 725F7072 		.ascii	"r_prio\000"
 4681      696F00
 4682              	.LASF82:
 4683 0416 65776D61 		.ascii	"ewmask\000"
 4683      736B00
 4684              	.LASF26:
 4685 041d 705F6E65 		.ascii	"p_next\000"
 4685      787400
ARM GAS  C:\Users\DNIEL~1\AppData\Local\Temp\cciErhMR.s 			page 87


 4686              	.LASF34:
 4687 0424 705F666C 		.ascii	"p_flags\000"
 4687      61677300 
 4688              	.LASF25:
 4689 042c 54687265 		.ascii	"Thread\000"
 4689      616400
 4690              	.LASF85:
 4691 0433 74657374 		.ascii	"testcase\000"
 4691      63617365 
 4691      00
 4692              	.LASF41:
 4693 043c 705F6570 		.ascii	"p_epending\000"
 4693      656E6469 
 4693      6E6700
 4694              	.LASF102:
 4695 0447 74657374 		.ascii	"testevt1\000"
 4695      65767431 
 4695      00
 4696              	.LASF98:
 4697 0450 6576686E 		.ascii	"evhndl\000"
 4697      646C00
 4698              	.LASF9:
 4699 0457 75696E74 		.ascii	"uint32_t\000"
 4699      33325F74 
 4699      00
 4700              	.LASF60:
 4701 0460 725F7175 		.ascii	"r_queue\000"
 4701      65756500 
 4702              	.LASF52:
 4703 0468 56697274 		.ascii	"VirtualTimer\000"
 4703      75616C54 
 4703      696D6572 
 4703      00
 4704              	.LASF83:
 4705 0475 63686172 		.ascii	"char\000"
 4705      00
 4706              	.LASF130:
 4707 047a 74657374 		.ascii	"test_wait_threads\000"
 4707      5F776169 
 4707      745F7468 
 4707      72656164 
 4707      7300
 4708              	.LASF70:
 4709 048c 6D5F6E65 		.ascii	"m_next\000"
 4709      787400
 4710              	.LASF24:
 4711 0493 73797374 		.ascii	"systime_t\000"
 4711      696D655F 
 4711      7400
 4712              	.LASF43:
 4713 049d 705F7265 		.ascii	"p_realprio\000"
 4713      616C7072 
 4713      696F00
 4714              	.LASF51:
 4715 04a8 76746675 		.ascii	"vtfunc_t\000"
 4715      6E635F74 
 4715      00
ARM GAS  C:\Users\DNIEL~1\AppData\Local\Temp\cciErhMR.s 			page 88


 4716              	.LASF37:
 4717 04b1 705F7469 		.ascii	"p_time\000"
 4717      6D6500
 4718              	.LASF48:
 4719 04b8 696E7463 		.ascii	"intctx\000"
 4719      747800
 4720              	.LASF39:
 4721 04bf 705F6D73 		.ascii	"p_msgqueue\000"
 4721      67717565 
 4721      756500
 4722              	.LASF57:
 4723 04ca 76745F70 		.ascii	"vt_par\000"
 4723      617200
 4724              	.LASF126:
 4725 04d1 2E2E2F2E 		.ascii	"../../../ChibiOS/test/testevt.c\000"
 4725      2E2F2E2E 
 4725      2F436869 
 4725      62694F53 
 4725      2F746573 
 4726              	.LASF117:
 4727 04f1 63685468 		.ascii	"chThdSleep\000"
 4727      64536C65 
 4727      657000
 4728              	.LASF35:
 4729 04fc 705F7265 		.ascii	"p_refs\000"
 4729      667300
 4730              	.LASF66:
 4731 0503 52656164 		.ascii	"ReadyList\000"
 4731      794C6973 
 4731      7400
 4732              	.LASF127:
 4733 050d 433A5C55 		.ascii	"C:\\Users\\D\341niel\\git\\Smarty\\smarty\\firmware"
 4733      73657273 
 4733      5C44E16E 
 4733      69656C5C 
 4733      6769745C 
 4734 0537 00       		.ascii	"\000"
 4735              	.LASF100:
 4736 0538 726C6973 		.ascii	"rlist\000"
 4736      7400
 4737              	.LASF3:
 4738 053e 75696E74 		.ascii	"uint8_t\000"
 4738      385F7400 
 4739              	.LASF71:
 4740 0546 4576656E 		.ascii	"EventListener\000"
 4740      744C6973 
 4740      74656E65 
 4740      7200
 4741              	.LASF122:
 4742 0554 63684576 		.ascii	"chEvtWaitOneTimeout\000"
 4742      74576169 
 4742      744F6E65 
 4742      54696D65 
 4742      6F757400 
 4743              	.LASF81:
 4744 0568 77746F62 		.ascii	"wtobjp\000"
 4744      6A7000
ARM GAS  C:\Users\DNIEL~1\AppData\Local\Temp\cciErhMR.s 			page 89


 4745              	.LASF32:
 4746 056f 705F6E61 		.ascii	"p_name\000"
 4746      6D6500
 4747              	.LASF109:
 4748 0576 5F746573 		.ascii	"_test_assert\000"
 4748      745F6173 
 4748      73657274 
 4748      00
 4749              	.LASF58:
 4750 0583 76745F73 		.ascii	"vt_systime\000"
 4750      79737469 
 4750      6D6500
 4751              	.LASF77:
 4752 058e 65735F6E 		.ascii	"es_next\000"
 4752      65787400 
 4753              	.LASF59:
 4754 0596 56544C69 		.ascii	"VTList\000"
 4754      737400
 4755              	.LASF69:
 4756 059d 6D5F6F77 		.ascii	"m_owner\000"
 4756      6E657200 
 4757              	.LASF129:
 4758 05a5 74657374 		.ascii	"test_wait_tick\000"
 4758      5F776169 
 4758      745F7469 
 4758      636B00
 4759              	.LASF97:
 4760 05b4 65767431 		.ascii	"evt1_execute\000"
 4760      5F657865 
 4760      63757465 
 4760      00
 4761              	.LASF29:
 4762 05c1 705F6374 		.ascii	"p_ctx\000"
 4762      7800
 4763              	.LASF38:
 4764 05c7 705F7761 		.ascii	"p_waiting\000"
 4764      6974696E 
 4764      6700
 4765              		.ident	"GCC: (GNU Tools for ARM Embedded Processors) 4.7.4 20140401 (release) [ARM/embedded-4_7-br
ARM GAS  C:\Users\DNIEL~1\AppData\Local\Temp\cciErhMR.s 			page 90


DEFINED SYMBOLS
                            *ABS*:00000000 testevt.c
C:\Users\DNIEL~1\AppData\Local\Temp\cciErhMR.s:19     .text.evt3_setup:00000000 $t
C:\Users\DNIEL~1\AppData\Local\Temp\cciErhMR.s:24     .text.evt3_setup:00000000 evt3_setup
C:\Users\DNIEL~1\AppData\Local\Temp\cciErhMR.s:42     .text.evt2_setup:00000000 $t
C:\Users\DNIEL~1\AppData\Local\Temp\cciErhMR.s:47     .text.evt2_setup:00000000 evt2_setup
C:\Users\DNIEL~1\AppData\Local\Temp\cciErhMR.s:64     .text.evt1_setup:00000000 $t
C:\Users\DNIEL~1\AppData\Local\Temp\cciErhMR.s:69     .text.evt1_setup:00000000 evt1_setup
C:\Users\DNIEL~1\AppData\Local\Temp\cciErhMR.s:86     .text.evt2_execute:00000000 $t
C:\Users\DNIEL~1\AppData\Local\Temp\cciErhMR.s:91     .text.evt2_execute:00000000 evt2_execute
C:\Users\DNIEL~1\AppData\Local\Temp\cciErhMR.s:445    .text.evt2_execute:00000258 $d
C:\Users\DNIEL~1\AppData\Local\Temp\cciErhMR.s:506    .text.thread1:00000000 thread1
C:\Users\DNIEL~1\AppData\Local\Temp\cciErhMR.s:463    .text.thread2:00000000 thread2
C:\Users\DNIEL~1\AppData\Local\Temp\cciErhMR.s:458    .text.thread2:00000000 $t
C:\Users\DNIEL~1\AppData\Local\Temp\cciErhMR.s:891    .data.es1:00000000 .LANCHOR0
C:\Users\DNIEL~1\AppData\Local\Temp\cciErhMR.s:898    .data.es2:00000000 .LANCHOR1
C:\Users\DNIEL~1\AppData\Local\Temp\cciErhMR.s:501    .text.thread1:00000000 $t
C:\Users\DNIEL~1\AppData\Local\Temp\cciErhMR.s:537    .text.evt1_execute:00000000 $t
C:\Users\DNIEL~1\AppData\Local\Temp\cciErhMR.s:542    .text.evt1_execute:00000000 evt1_execute
C:\Users\DNIEL~1\AppData\Local\Temp\cciErhMR.s:632    .text.evt1_execute:00000078 $d
C:\Users\DNIEL~1\AppData\Local\Temp\cciErhMR.s:639    .text.h3:00000000 $t
C:\Users\DNIEL~1\AppData\Local\Temp\cciErhMR.s:644    .text.h3:00000000 h3
C:\Users\DNIEL~1\AppData\Local\Temp\cciErhMR.s:661    .text.h2:00000000 $t
C:\Users\DNIEL~1\AppData\Local\Temp\cciErhMR.s:666    .text.h2:00000000 h2
C:\Users\DNIEL~1\AppData\Local\Temp\cciErhMR.s:683    .text.h1:00000000 $t
C:\Users\DNIEL~1\AppData\Local\Temp\cciErhMR.s:688    .text.h1:00000000 h1
C:\Users\DNIEL~1\AppData\Local\Temp\cciErhMR.s:705    .text.evt3_execute:00000000 $t
C:\Users\DNIEL~1\AppData\Local\Temp\cciErhMR.s:710    .text.evt3_execute:00000000 evt3_execute
C:\Users\DNIEL~1\AppData\Local\Temp\cciErhMR.s:833    .rodata.patternevt:00000000 patternevt
C:\Users\DNIEL~1\AppData\Local\Temp\cciErhMR.s:884    .rodata.testevt3:00000000 testevt3
C:\Users\DNIEL~1\AppData\Local\Temp\cciErhMR.s:842    .rodata.testevt2:00000000 testevt2
C:\Users\DNIEL~1\AppData\Local\Temp\cciErhMR.s:866    .rodata.testevt1:00000000 testevt1
C:\Users\DNIEL~1\AppData\Local\Temp\cciErhMR.s:830    .rodata.patternevt:00000000 $d
C:\Users\DNIEL~1\AppData\Local\Temp\cciErhMR.s:839    .rodata.testevt2:00000000 $d
C:\Users\DNIEL~1\AppData\Local\Temp\cciErhMR.s:848    .rodata.str1.4:00000000 $d
C:\Users\DNIEL~1\AppData\Local\Temp\cciErhMR.s:863    .rodata.testevt1:00000000 $d
C:\Users\DNIEL~1\AppData\Local\Temp\cciErhMR.s:872    .rodata.evhndl:00000000 $d
C:\Users\DNIEL~1\AppData\Local\Temp\cciErhMR.s:876    .rodata.evhndl:00000000 evhndl
C:\Users\DNIEL~1\AppData\Local\Temp\cciErhMR.s:881    .rodata.testevt3:00000000 $d
C:\Users\DNIEL~1\AppData\Local\Temp\cciErhMR.s:890    .data.es1:00000000 $d
C:\Users\DNIEL~1\AppData\Local\Temp\cciErhMR.s:894    .data.es1:00000000 es1
C:\Users\DNIEL~1\AppData\Local\Temp\cciErhMR.s:897    .data.es2:00000000 $d
C:\Users\DNIEL~1\AppData\Local\Temp\cciErhMR.s:901    .data.es2:00000000 es2
                     .debug_frame:00000010 $d
C:\Users\DNIEL~1\AppData\Local\Temp\cciErhMR.s:457    .text.evt2_execute:0000027c $t
C:\Users\DNIEL~1\AppData\Local\Temp\cciErhMR.s:638    .text.evt1_execute:00000084 $t

UNDEFINED SYMBOLS
chEvtGetAndClearEvents
chEvtAddEvents
chEvtWaitOne
_test_assert
test_wait_tick
chThdCreateStatic
_test_assert_time_window
test_wait_threads
chEvtWaitAny
ARM GAS  C:\Users\DNIEL~1\AppData\Local\Temp\cciErhMR.s 			page 91


chEvtRegisterMask
chEvtWaitAll
chEvtUnregister
wa
vtlist
threads
rlist
chEvtBroadcastFlags
chThdSleep
chEvtSignal
chEvtDispatch
_test_assert_sequence
test_emit_token
chEvtWaitOneTimeout
chEvtWaitAnyTimeout
chEvtWaitAllTimeout
