ARM GAS  C:\Users\DNIEL~1\AppData\Local\Temp\cc2JYKP2.s 			page 1


   1              		.syntax unified
   2              		.cpu cortex-m4
   3              		.fpu softvfp
   4              		.eabi_attribute 20, 1
   5              		.eabi_attribute 21, 1
   6              		.eabi_attribute 23, 3
   7              		.eabi_attribute 24, 1
   8              		.eabi_attribute 25, 1
   9              		.eabi_attribute 26, 1
  10              		.eabi_attribute 30, 2
  11              		.eabi_attribute 18, 4
  12              		.thumb
  13              		.file	"testevt.c"
  14              		.section	.debug_abbrev,"",%progbits
  15              	.Ldebug_abbrev0:
  16              		.section	.debug_info,"",%progbits
  17              	.Ldebug_info0:
  18              		.section	.debug_line,"",%progbits
  19              	.Ldebug_line0:
  20 0000 B2020000 		.text
  20      02007701 
  20      00000201 
  20      FB0E0D00 
  20      01010101 
  21              	.Ltext0:
  22              		.cfi_sections	.debug_frame
  23              		.section	.text.evt3_execute,"ax",%progbits
  24              		.align	2
  25              		.p2align 4,,15
  26              		.thumb
  27              		.thumb_func
  28              		.type	evt3_execute, %function
  29              	evt3_execute:
  30              	.LFB17:
  31              		.file 1 "../../../ChibiOS/test/testevt.c"
  32              		.loc 1 254 0
  33              		.cfi_startproc
  34              		@ args = 0, pretend = 0, frame = 0
  35              		@ frame_needed = 0, uses_anonymous_args = 0
  36              		.loc 1 260 0
  37 0000 0021     		movs	r1, #0
  38              		.loc 1 254 0
  39 0002 10B5     		push	{r4, lr}
  40              	.LCFI0:
  41              		.cfi_def_cfa_offset 8
  42              		.loc 1 260 0
  43 0004 4FF0FF30 		mov	r0, #-1
  44              		.cfi_offset 14, -4
  45              		.cfi_offset 4, -8
  46 0008 FFF7FEFF 		bl	chEvtWaitOneTimeout
  47              	.LVL0:
  48              		.loc 1 261 0
  49 000c D0F10101 		rsbs	r1, r0, #1
  50 0010 38BF     		it	cc
  51 0012 0021     		movcc	r1, #0
  52 0014 0120     		movs	r0, #1
  53              	.LVL1:
ARM GAS  C:\Users\DNIEL~1\AppData\Local\Temp\cc2JYKP2.s 			page 2


  54 0016 FFF7FEFF 		bl	_test_assert
  55 001a 00B1     		cbz	r0, .L4
  56              	.L1:
  57 001c 10BD     		pop	{r4, pc}
  58              	.L4:
  59              		.loc 1 262 0
  60 001e 0146     		mov	r1, r0
  61 0020 4FF0FF30 		mov	r0, #-1
  62 0024 FFF7FEFF 		bl	chEvtWaitAnyTimeout
  63              	.LVL2:
  64              		.loc 1 263 0
  65 0028 D0F10101 		rsbs	r1, r0, #1
  66 002c 38BF     		it	cc
  67 002e 0021     		movcc	r1, #0
  68 0030 0220     		movs	r0, #2
  69              	.LVL3:
  70 0032 FFF7FEFF 		bl	_test_assert
  71 0036 0028     		cmp	r0, #0
  72 0038 F0D1     		bne	.L1
  73              		.loc 1 264 0
  74 003a 0146     		mov	r1, r0
  75 003c 4FF0FF30 		mov	r0, #-1
  76 0040 FFF7FEFF 		bl	chEvtWaitAllTimeout
  77              	.LVL4:
  78              		.loc 1 265 0
  79 0044 D0F10101 		rsbs	r1, r0, #1
  80 0048 38BF     		it	cc
  81 004a 0021     		movcc	r1, #0
  82 004c 0320     		movs	r0, #3
  83              	.LVL5:
  84 004e FFF7FEFF 		bl	_test_assert
  85 0052 0028     		cmp	r0, #0
  86 0054 E2D1     		bne	.L1
  87              		.loc 1 266 0
  88 0056 0A21     		movs	r1, #10
  89 0058 4FF0FF30 		mov	r0, #-1
  90 005c FFF7FEFF 		bl	chEvtWaitOneTimeout
  91              	.LVL6:
  92              		.loc 1 267 0
  93 0060 D0F10101 		rsbs	r1, r0, #1
  94 0064 38BF     		it	cc
  95 0066 0021     		movcc	r1, #0
  96 0068 0420     		movs	r0, #4
  97              	.LVL7:
  98 006a FFF7FEFF 		bl	_test_assert
  99 006e 0028     		cmp	r0, #0
 100 0070 D4D1     		bne	.L1
 101              		.loc 1 268 0
 102 0072 0A21     		movs	r1, #10
 103 0074 4FF0FF30 		mov	r0, #-1
 104 0078 FFF7FEFF 		bl	chEvtWaitAnyTimeout
 105              	.LVL8:
 106              		.loc 1 269 0
 107 007c D0F10101 		rsbs	r1, r0, #1
 108 0080 38BF     		it	cc
 109 0082 0021     		movcc	r1, #0
 110 0084 0520     		movs	r0, #5
ARM GAS  C:\Users\DNIEL~1\AppData\Local\Temp\cc2JYKP2.s 			page 3


 111              	.LVL9:
 112 0086 FFF7FEFF 		bl	_test_assert
 113 008a 0028     		cmp	r0, #0
 114 008c C6D1     		bne	.L1
 115              		.loc 1 270 0
 116 008e 0A21     		movs	r1, #10
 117 0090 4FF0FF30 		mov	r0, #-1
 118 0094 FFF7FEFF 		bl	chEvtWaitAllTimeout
 119              	.LVL10:
 120              		.loc 1 271 0
 121 0098 D0F10101 		rsbs	r1, r0, #1
 122 009c 38BF     		it	cc
 123 009e 0021     		movcc	r1, #0
 124 00a0 0620     		movs	r0, #6
 125              	.LVL11:
 126              		.loc 1 272 0
 127 00a2 BDE81040 		pop	{r4, lr}
 128              		.loc 1 271 0
 129 00a6 FFF7FEBF 		b	_test_assert
 130              		.cfi_endproc
 131              	.LFE17:
 132              		.size	evt3_execute, .-evt3_execute
 133 00aa 00BFAFF3 		.section	.text.evt3_setup,"ax",%progbits
 133      0080
 134              		.align	2
 135              		.p2align 4,,15
 136              		.thumb
 137              		.thumb_func
 138              		.type	evt3_setup, %function
 139              	evt3_setup:
 140              	.LFB16:
 141              		.loc 1 249 0
 142              		.cfi_startproc
 143              		@ args = 0, pretend = 0, frame = 0
 144              		@ frame_needed = 0, uses_anonymous_args = 0
 145              		@ link register save eliminated.
 146              		.loc 1 251 0
 147 0000 4FF0FF30 		mov	r0, #-1
 148              		.loc 1 252 0
 149              		.loc 1 251 0
 150 0004 FFF7FEBF 		b	chEvtGetAndClearEvents
 151              		.cfi_endproc
 152              	.LFE16:
 153              		.size	evt3_setup, .-evt3_setup
 154 0008 AFF30080 		.section	.text.evt2_setup,"ax",%progbits
 154      AFF30080 
 155              		.align	2
 156              		.p2align 4,,15
 157              		.thumb
 158              		.thumb_func
 159              		.type	evt2_setup, %function
 160              	evt2_setup:
 161              	.LFB12:
 162              		.loc 1 128 0
 163              		.cfi_startproc
 164              		@ args = 0, pretend = 0, frame = 0
 165              		@ frame_needed = 0, uses_anonymous_args = 0
ARM GAS  C:\Users\DNIEL~1\AppData\Local\Temp\cc2JYKP2.s 			page 4


 166              		@ link register save eliminated.
 167              		.loc 1 130 0
 168 0000 4FF0FF30 		mov	r0, #-1
 169              		.loc 1 131 0
 170              		.loc 1 130 0
 171 0004 FFF7FEBF 		b	chEvtGetAndClearEvents
 172              		.cfi_endproc
 173              	.LFE12:
 174              		.size	evt2_setup, .-evt2_setup
 175 0008 AFF30080 		.section	.text.evt1_setup,"ax",%progbits
 175      AFF30080 
 176              		.align	2
 177              		.p2align 4,,15
 178              		.thumb
 179              		.thumb_func
 180              		.type	evt1_setup, %function
 181              	evt1_setup:
 182              	.LFB7:
 183              		.loc 1 75 0
 184              		.cfi_startproc
 185              		@ args = 0, pretend = 0, frame = 0
 186              		@ frame_needed = 0, uses_anonymous_args = 0
 187              		@ link register save eliminated.
 188              		.loc 1 77 0
 189 0000 4FF0FF30 		mov	r0, #-1
 190              		.loc 1 78 0
 191              		.loc 1 77 0
 192 0004 FFF7FEBF 		b	chEvtGetAndClearEvents
 193              		.cfi_endproc
 194              	.LFE7:
 195              		.size	evt1_setup, .-evt1_setup
 196 0008 AFF30080 		.section	.text.evt2_execute,"ax",%progbits
 196      AFF30080 
 197              		.align	2
 198              		.p2align 4,,15
 199              		.thumb
 200              		.thumb_func
 201              		.type	evt2_execute, %function
 202              	evt2_execute:
 203              	.LFB15:
 204              		.loc 1 149 0
 205              		.cfi_startproc
 206              		@ args = 0, pretend = 0, frame = 32
 207              		@ frame_needed = 0, uses_anonymous_args = 0
 208 0000 2DE9F047 		push	{r4, r5, r6, r7, r8, r9, sl, lr}
 209              	.LCFI1:
 210              		.cfi_def_cfa_offset 32
 211              		.loc 1 157 0
 212 0004 0720     		movs	r0, #7
 213              		.loc 1 149 0
 214 0006 8AB0     		sub	sp, sp, #40
 215              	.LCFI2:
 216              		.cfi_def_cfa_offset 72
 217              		.loc 1 157 0
 218              		.cfi_offset 14, -4
 219              		.cfi_offset 10, -8
 220              		.cfi_offset 9, -12
ARM GAS  C:\Users\DNIEL~1\AppData\Local\Temp\cc2JYKP2.s 			page 5


 221              		.cfi_offset 8, -16
 222              		.cfi_offset 7, -20
 223              		.cfi_offset 6, -24
 224              		.cfi_offset 5, -28
 225              		.cfi_offset 4, -32
 226 0008 FFF7FEFF 		bl	chEvtAddEvents
 227              		.loc 1 158 0
 228 000c 4FF0FF30 		mov	r0, #-1
 229 0010 FFF7FEFF 		bl	chEvtWaitOne
 230              	.LVL12:
 231              		.loc 1 159 0
 232 0014 A0F1010E 		sub	lr, r0, #1
 233 0018 DEF10001 		rsbs	r1, lr, #0
 234 001c 41EB0E01 		adc	r1, r1, lr
 235 0020 0120     		movs	r0, #1
 236              	.LVL13:
 237 0022 FFF7FEFF 		bl	_test_assert
 238              	.LVL14:
 239 0026 10B1     		cbz	r0, .L10
 240              	.L8:
 241              		.loc 1 224 0
 242 0028 0AB0     		add	sp, sp, #40
 243 002a BDE8F087 		pop	{r4, r5, r6, r7, r8, r9, sl, pc}
 244              	.L10:
 245              		.loc 1 160 0
 246 002e 4FF0FF30 		mov	r0, #-1
 247 0032 FFF7FEFF 		bl	chEvtWaitOne
 248              	.LVL15:
 249              		.loc 1 161 0
 250 0036 A0F10200 		sub	r0, r0, #2
 251              	.LVL16:
 252 003a 4242     		rsbs	r2, r0, #0
 253 003c 42EB0001 		adc	r1, r2, r0
 254 0040 0220     		movs	r0, #2
 255              	.LVL17:
 256 0042 FFF7FEFF 		bl	_test_assert
 257 0046 0028     		cmp	r0, #0
 258 0048 EED1     		bne	.L8
 259              		.loc 1 162 0
 260 004a 4FF0FF30 		mov	r0, #-1
 261 004e FFF7FEFF 		bl	chEvtWaitOne
 262              	.LVL18:
 263              		.loc 1 163 0
 264 0052 A0F1040C 		sub	ip, r0, #4
 265 0056 DCF10003 		rsbs	r3, ip, #0
 266 005a 43EB0C01 		adc	r1, r3, ip
 267 005e 0320     		movs	r0, #3
 268              	.LVL19:
 269 0060 FFF7FEFF 		bl	_test_assert
 270              	.LVL20:
 271 0064 0028     		cmp	r0, #0
 272 0066 DFD1     		bne	.L8
 273              		.loc 1 164 0
 274 0068 4FF0FF30 		mov	r0, #-1
 275 006c FFF7FEFF 		bl	chEvtGetAndClearEvents
 276              	.LVL21:
 277              		.loc 1 165 0
ARM GAS  C:\Users\DNIEL~1\AppData\Local\Temp\cc2JYKP2.s 			page 6


 278 0070 D0F10101 		rsbs	r1, r0, #1
 279 0074 38BF     		it	cc
 280 0076 0021     		movcc	r1, #0
 281 0078 0420     		movs	r0, #4
 282              	.LVL22:
 283 007a FFF7FEFF 		bl	_test_assert
 284 007e 0028     		cmp	r0, #0
 285 0080 D2D1     		bne	.L8
 286              		.loc 1 172 0
 287 0082 784F     		ldr	r7, .L11
 288 0084 784C     		ldr	r4, .L11+4
 289              		.loc 1 171 0
 290 0086 794E     		ldr	r6, .L11+8
 291              		.loc 1 172 0
 292 0088 794D     		ldr	r5, .L11+12
 293              		.loc 1 170 0
 294 008a FFF7FEFF 		bl	test_wait_tick
 295              		.loc 1 172 0
 296 008e B969     		ldr	r1, [r7, #24]
 297 0090 D4F80080 		ldr	r8, [r4, #0]
 298 0094 8A68     		ldr	r2, [r1, #8]
 299              		.loc 1 171 0
 300 0096 F468     		ldr	r4, [r6, #12]
 301              		.loc 1 172 0
 302 0098 764B     		ldr	r3, .L11+16
 303 009a 0091     		str	r1, [sp, #0]
 304 009c 013A     		subs	r2, r2, #1
 305 009e 4FF4A871 		mov	r1, #336
 306 00a2 4046     		mov	r0, r8
 307 00a4 FFF7FEFF 		bl	chThdCreateStatic
 308 00a8 2860     		str	r0, [r5, #0]
 309              		.loc 1 174 0
 310 00aa 4FF0FF30 		mov	r0, #-1
 311 00ae FFF7FEFF 		bl	chEvtWaitOne
 312              		.loc 1 171 0
 313 00b2 04F1320A 		add	sl, r4, #50
 314              	.LVL23:
 315              		.loc 1 174 0
 316 00b6 8146     		mov	r9, r0
 317              	.LVL24:
 318              		.loc 1 175 0
 319 00b8 5146     		mov	r1, sl
 320 00ba 0520     		movs	r0, #5
 321              	.LVL25:
 322 00bc 04F13702 		add	r2, r4, #55
 323 00c0 FFF7FEFF 		bl	_test_assert_time_window
 324 00c4 0028     		cmp	r0, #0
 325 00c6 AFD1     		bne	.L8
 326              		.loc 1 176 0
 327 00c8 A9F10103 		sub	r3, r9, #1
 328 00cc 0620     		movs	r0, #6
 329 00ce D3F1000E 		rsbs	lr, r3, #0
 330 00d2 4EEB0301 		adc	r1, lr, r3
 331 00d6 FFF7FEFF 		bl	_test_assert
 332 00da 0028     		cmp	r0, #0
 333 00dc A4D1     		bne	.L8
 334              		.loc 1 177 0
ARM GAS  C:\Users\DNIEL~1\AppData\Local\Temp\cc2JYKP2.s 			page 7


 335 00de 4FF0FF30 		mov	r0, #-1
 336 00e2 FFF7FEFF 		bl	chEvtGetAndClearEvents
 337              	.LVL26:
 338              		.loc 1 178 0
 339 00e6 D0F10101 		rsbs	r1, r0, #1
 340 00ea 38BF     		it	cc
 341 00ec 0021     		movcc	r1, #0
 342 00ee 0720     		movs	r0, #7
 343              	.LVL27:
 344 00f0 FFF7FEFF 		bl	_test_assert
 345 00f4 0028     		cmp	r0, #0
 346 00f6 97D1     		bne	.L8
 347              		.loc 1 179 0
 348 00f8 FFF7FEFF 		bl	test_wait_threads
 349              		.loc 1 184 0
 350 00fc 0520     		movs	r0, #5
 351 00fe FFF7FEFF 		bl	chEvtAddEvents
 352              		.loc 1 185 0
 353 0102 4FF0FF30 		mov	r0, #-1
 354 0106 FFF7FEFF 		bl	chEvtWaitAny
 355              	.LVL28:
 356              		.loc 1 186 0
 357 010a A0F1050C 		sub	ip, r0, #5
 358 010e DCF10000 		rsbs	r0, ip, #0
 359              	.LVL29:
 360 0112 40EB0C01 		adc	r1, r0, ip
 361 0116 0820     		movs	r0, #8
 362 0118 FFF7FEFF 		bl	_test_assert
 363              	.LVL30:
 364 011c 0028     		cmp	r0, #0
 365 011e 83D1     		bne	.L8
 366              		.loc 1 187 0
 367 0120 0138     		subs	r0, r0, #1
 368 0122 FFF7FEFF 		bl	chEvtGetAndClearEvents
 369              	.LVL31:
 370              		.loc 1 188 0
 371 0126 D0F10101 		rsbs	r1, r0, #1
 372 012a 38BF     		it	cc
 373 012c 0021     		movcc	r1, #0
 374 012e 0920     		movs	r0, #9
 375              	.LVL32:
 376 0130 FFF7FEFF 		bl	_test_assert
 377 0134 0028     		cmp	r0, #0
 378 0136 7FF477AF 		bne	.L8
 379              		.loc 1 193 0
 380 013a FFF7FEFF 		bl	test_wait_tick
 381              		.loc 1 195 0
 382 013e B969     		ldr	r1, [r7, #24]
 383              		.loc 1 194 0
 384 0140 F468     		ldr	r4, [r6, #12]
 385              		.loc 1 195 0
 386 0142 8A68     		ldr	r2, [r1, #8]
 387 0144 4B4B     		ldr	r3, .L11+16
 388 0146 0091     		str	r1, [sp, #0]
 389 0148 013A     		subs	r2, r2, #1
 390 014a 4FF4A871 		mov	r1, #336
 391 014e 4046     		mov	r0, r8
ARM GAS  C:\Users\DNIEL~1\AppData\Local\Temp\cc2JYKP2.s 			page 8


 392 0150 FFF7FEFF 		bl	chThdCreateStatic
 393 0154 2860     		str	r0, [r5, #0]
 394              		.loc 1 197 0
 395 0156 4FF0FF30 		mov	r0, #-1
 396 015a FFF7FEFF 		bl	chEvtWaitAny
 397              		.loc 1 194 0
 398 015e 04F1320A 		add	sl, r4, #50
 399              	.LVL33:
 400              		.loc 1 197 0
 401 0162 8146     		mov	r9, r0
 402              	.LVL34:
 403              		.loc 1 198 0
 404 0164 5146     		mov	r1, sl
 405 0166 0A20     		movs	r0, #10
 406              	.LVL35:
 407 0168 04F13702 		add	r2, r4, #55
 408 016c FFF7FEFF 		bl	_test_assert_time_window
 409 0170 0028     		cmp	r0, #0
 410 0172 7FF459AF 		bne	.L8
 411              		.loc 1 199 0
 412 0176 A9F1010E 		sub	lr, r9, #1
 413 017a 0B30     		adds	r0, r0, #11
 414 017c DEF10003 		rsbs	r3, lr, #0
 415 0180 43EB0E01 		adc	r1, r3, lr
 416 0184 FFF7FEFF 		bl	_test_assert
 417 0188 0028     		cmp	r0, #0
 418 018a 7FF44DAF 		bne	.L8
 419              		.loc 1 200 0
 420 018e 0138     		subs	r0, r0, #1
 421 0190 FFF7FEFF 		bl	chEvtGetAndClearEvents
 422              	.LVL36:
 423              		.loc 1 201 0
 424 0194 D0F10101 		rsbs	r1, r0, #1
 425 0198 38BF     		it	cc
 426 019a 0021     		movcc	r1, #0
 427 019c 0C20     		movs	r0, #12
 428              	.LVL37:
 429 019e FFF7FEFF 		bl	_test_assert
 430 01a2 0028     		cmp	r0, #0
 431 01a4 7FF440AF 		bne	.L8
 432              		.loc 1 207 0
 433 01a8 334C     		ldr	r4, .L11+20
 434              		.loc 1 208 0
 435 01aa DFF8D890 		ldr	r9, .L11+32
 436              		.loc 1 202 0
 437 01ae FFF7FEFF 		bl	test_wait_threads
 438              		.loc 1 209 0
 439 01b2 2046     		mov	r0, r4
 440 01b4 06A9     		add	r1, sp, #24
 441 01b6 0122     		movs	r2, #1
 442              		.loc 1 207 0
 443 01b8 2460     		str	r4, [r4, #0]
 444              		.loc 1 208 0
 445 01ba C9F80090 		str	r9, [r9, #0]
 446              		.loc 1 209 0
 447 01be FFF7FEFF 		bl	chEvtRegisterMask
 448              		.loc 1 210 0
ARM GAS  C:\Users\DNIEL~1\AppData\Local\Temp\cc2JYKP2.s 			page 9


 449 01c2 02A9     		add	r1, sp, #8
 450 01c4 0422     		movs	r2, #4
 451 01c6 4846     		mov	r0, r9
 452 01c8 FFF7FEFF 		bl	chEvtRegisterMask
 453              		.loc 1 211 0
 454 01cc FFF7FEFF 		bl	test_wait_tick
 455              		.loc 1 213 0
 456 01d0 BA69     		ldr	r2, [r7, #24]
 457 01d2 2A48     		ldr	r0, .L11+24
 458 01d4 9768     		ldr	r7, [r2, #8]
 459              		.loc 1 212 0
 460 01d6 F668     		ldr	r6, [r6, #12]
 461              		.loc 1 213 0
 462 01d8 294B     		ldr	r3, .L11+28
 463 01da 0090     		str	r0, [sp, #0]
 464 01dc 7A1E     		subs	r2, r7, #1
 465 01de 4FF4A871 		mov	r1, #336
 466 01e2 4046     		mov	r0, r8
 467 01e4 FFF7FEFF 		bl	chThdCreateStatic
 468              		.loc 1 212 0
 469 01e8 06F13207 		add	r7, r6, #50
 470              	.LVL38:
 471              		.loc 1 213 0
 472 01ec 2860     		str	r0, [r5, #0]
 473              		.loc 1 215 0
 474 01ee 0520     		movs	r0, #5
 475 01f0 FFF7FEFF 		bl	chEvtWaitAll
 476              		.loc 1 216 0
 477 01f4 0D20     		movs	r0, #13
 478 01f6 3946     		mov	r1, r7
 479 01f8 06F13702 		add	r2, r6, #55
 480 01fc FFF7FEFF 		bl	_test_assert_time_window
 481 0200 0028     		cmp	r0, #0
 482 0202 7FF411AF 		bne	.L8
 483              		.loc 1 217 0
 484 0206 0138     		subs	r0, r0, #1
 485 0208 FFF7FEFF 		bl	chEvtGetAndClearEvents
 486              	.LVL39:
 487              		.loc 1 218 0
 488 020c D0F10101 		rsbs	r1, r0, #1
 489 0210 38BF     		it	cc
 490 0212 0021     		movcc	r1, #0
 491 0214 0E20     		movs	r0, #14
 492              	.LVL40:
 493 0216 FFF7FEFF 		bl	_test_assert
 494 021a 0028     		cmp	r0, #0
 495 021c 7FF404AF 		bne	.L8
 496              		.loc 1 219 0
 497 0220 FFF7FEFF 		bl	test_wait_threads
 498              		.loc 1 220 0
 499 0224 2046     		mov	r0, r4
 500 0226 06A9     		add	r1, sp, #24
 501 0228 FFF7FEFF 		bl	chEvtUnregister
 502              		.loc 1 221 0
 503 022c 4846     		mov	r0, r9
 504 022e 02A9     		add	r1, sp, #8
 505 0230 FFF7FEFF 		bl	chEvtUnregister
ARM GAS  C:\Users\DNIEL~1\AppData\Local\Temp\cc2JYKP2.s 			page 10


 506              		.loc 1 222 0
 507 0234 2368     		ldr	r3, [r4, #0]
 508 0236 191B     		subs	r1, r3, r4
 509 0238 0F20     		movs	r0, #15
 510 023a D1F1000C 		rsbs	ip, r1, #0
 511 023e 4CEB0101 		adc	r1, ip, r1
 512 0242 FFF7FEFF 		bl	_test_assert
 513 0246 0028     		cmp	r0, #0
 514 0248 7FF4EEAE 		bne	.L8
 515              		.loc 1 223 0
 516 024c D9F80010 		ldr	r1, [r9, #0]
 517 0250 C9EB0102 		rsb	r2, r9, r1
 518 0254 1030     		adds	r0, r0, #16
 519 0256 D2F1000E 		rsbs	lr, r2, #0
 520 025a 4EEB0201 		adc	r1, lr, r2
 521 025e FFF7FEFF 		bl	_test_assert
 522 0262 E1E6     		b	.L8
 523              	.L12:
 524              		.align	2
 525              	.L11:
 526 0264 00000000 		.word	rlist
 527 0268 00000000 		.word	wa
 528 026c 00000000 		.word	vtlist
 529 0270 00000000 		.word	threads
 530 0274 00000000 		.word	thread1
 531 0278 00000000 		.word	.LANCHOR0
 532 027c 00000000 		.word	.LC0
 533 0280 00000000 		.word	thread2
 534 0284 00000000 		.word	.LANCHOR1
 535              		.cfi_endproc
 536              	.LFE15:
 537              		.size	evt2_execute, .-evt2_execute
 538 0288 AFF30080 		.section	.text.thread2,"ax",%progbits
 538      AFF30080 
 539              		.align	2
 540              		.p2align 4,,15
 541              		.thumb
 542              		.thumb_func
 543              		.type	thread2, %function
 544              	thread2:
 545              	.LFB14:
 546              		.loc 1 140 0
 547              		.cfi_startproc
 548              		@ args = 0, pretend = 0, frame = 0
 549              		@ frame_needed = 0, uses_anonymous_args = 0
 550              	.LVL41:
 551 0000 08B5     		push	{r3, lr}
 552              	.LCFI3:
 553              		.cfi_def_cfa_offset 8
 554              		.loc 1 143 0
 555 0002 0021     		movs	r1, #0
 556 0004 0548     		ldr	r0, .L14
 557              	.LVL42:
 558              		.cfi_offset 14, -4
 559              		.cfi_offset 3, -8
 560 0006 FFF7FEFF 		bl	chEvtBroadcastFlags
 561              		.loc 1 144 0
ARM GAS  C:\Users\DNIEL~1\AppData\Local\Temp\cc2JYKP2.s 			page 11


 562 000a 3220     		movs	r0, #50
 563 000c FFF7FEFF 		bl	chThdSleep
 564              		.loc 1 145 0
 565 0010 0348     		ldr	r0, .L14+4
 566 0012 0021     		movs	r1, #0
 567 0014 FFF7FEFF 		bl	chEvtBroadcastFlags
 568              		.loc 1 147 0
 569 0018 0020     		movs	r0, #0
 570 001a 08BD     		pop	{r3, pc}
 571              	.L15:
 572              		.align	2
 573              	.L14:
 574 001c 00000000 		.word	.LANCHOR0
 575 0020 00000000 		.word	.LANCHOR1
 576              		.cfi_endproc
 577              	.LFE14:
 578              		.size	thread2, .-thread2
 579 0024 AFF30080 		.section	.text.thread1,"ax",%progbits
 579      AFF30080 
 579      AFF30080 
 580              		.align	2
 581              		.p2align 4,,15
 582              		.thumb
 583              		.thumb_func
 584              		.type	thread1, %function
 585              	thread1:
 586              	.LFB13:
 587              		.loc 1 133 0
 588              		.cfi_startproc
 589              		@ args = 0, pretend = 0, frame = 0
 590              		@ frame_needed = 0, uses_anonymous_args = 0
 591              	.LVL43:
 592 0000 10B5     		push	{r4, lr}
 593              	.LCFI4:
 594              		.cfi_def_cfa_offset 8
 595              		.loc 1 133 0
 596 0002 0446     		mov	r4, r0
 597              		.cfi_offset 14, -4
 598              		.cfi_offset 4, -8
 599              		.loc 1 135 0
 600 0004 3220     		movs	r0, #50
 601              	.LVL44:
 602 0006 FFF7FEFF 		bl	chThdSleep
 603              		.loc 1 136 0
 604 000a 2046     		mov	r0, r4
 605 000c 0121     		movs	r1, #1
 606 000e FFF7FEFF 		bl	chEvtSignal
 607              		.loc 1 138 0
 608 0012 0020     		movs	r0, #0
 609 0014 10BD     		pop	{r4, pc}
 610              		.cfi_endproc
 611              	.LFE13:
 612              		.size	thread1, .-thread1
 613 0016 00BFAFF3 		.section	.text.evt1_execute,"ax",%progbits
 613      0080AFF3 
 613      0080
 614              		.align	2
ARM GAS  C:\Users\DNIEL~1\AppData\Local\Temp\cc2JYKP2.s 			page 12


 615              		.p2align 4,,15
 616              		.thumb
 617              		.thumb_func
 618              		.type	evt1_execute, %function
 619              	evt1_execute:
 620              	.LFB11:
 621              		.loc 1 85 0
 622              		.cfi_startproc
 623              		@ args = 0, pretend = 0, frame = 32
 624              		@ frame_needed = 0, uses_anonymous_args = 0
 625 0000 10B5     		push	{r4, lr}
 626              	.LCFI5:
 627              		.cfi_def_cfa_offset 8
 628              		.loc 1 91 0
 629 0002 1E4C     		ldr	r4, .L20
 630              		.cfi_offset 14, -4
 631              		.cfi_offset 4, -8
 632              		.loc 1 85 0
 633 0004 88B0     		sub	sp, sp, #32
 634              	.LCFI6:
 635              		.cfi_def_cfa_offset 40
 636              		.loc 1 92 0
 637 0006 0122     		movs	r2, #1
 638 0008 2046     		mov	r0, r4
 639 000a 04A9     		add	r1, sp, #16
 640              		.loc 1 91 0
 641 000c 2460     		str	r4, [r4, #0]
 642              		.loc 1 92 0
 643 000e FFF7FEFF 		bl	chEvtRegisterMask
 644              		.loc 1 93 0
 645 0012 2046     		mov	r0, r4
 646 0014 6946     		mov	r1, sp
 647 0016 0222     		movs	r2, #2
 648 0018 FFF7FEFF 		bl	chEvtRegisterMask
 649              		.loc 1 94 0
 650 001c 2168     		ldr	r1, [r4, #0]
 651 001e 0120     		movs	r0, #1
 652 0020 091B     		subs	r1, r1, r4
 653 0022 18BF     		it	ne
 654 0024 0121     		movne	r1, #1
 655 0026 FFF7FEFF 		bl	_test_assert
 656 002a 08B1     		cbz	r0, .L19
 657              	.L17:
 658              		.loc 1 105 0
 659 002c 08B0     		add	sp, sp, #32
 660 002e 10BD     		pop	{r4, pc}
 661              	.L19:
 662              		.loc 1 95 0
 663 0030 2046     		mov	r0, r4
 664 0032 04A9     		add	r1, sp, #16
 665 0034 FFF7FEFF 		bl	chEvtUnregister
 666              		.loc 1 96 0
 667 0038 2268     		ldr	r2, [r4, #0]
 668 003a 0220     		movs	r0, #2
 669 003c 111B     		subs	r1, r2, r4
 670 003e 18BF     		it	ne
 671 0040 0121     		movne	r1, #1
ARM GAS  C:\Users\DNIEL~1\AppData\Local\Temp\cc2JYKP2.s 			page 13


 672 0042 FFF7FEFF 		bl	_test_assert
 673 0046 0028     		cmp	r0, #0
 674 0048 F0D1     		bne	.L17
 675              		.loc 1 97 0
 676 004a 2046     		mov	r0, r4
 677 004c 6946     		mov	r1, sp
 678 004e FFF7FEFF 		bl	chEvtUnregister
 679              		.loc 1 98 0
 680 0052 2168     		ldr	r1, [r4, #0]
 681 0054 C4EB010C 		rsb	ip, r4, r1
 682 0058 0320     		movs	r0, #3
 683 005a DCF10003 		rsbs	r3, ip, #0
 684 005e 43EB0C01 		adc	r1, r3, ip
 685 0062 FFF7FEFF 		bl	_test_assert
 686 0066 0028     		cmp	r0, #0
 687 0068 E0D1     		bne	.L17
 688              		.loc 1 103 0
 689 006a 0721     		movs	r1, #7
 690 006c 0448     		ldr	r0, .L20+4
 691 006e FFF7FEFF 		bl	chEvtDispatch
 692              		.loc 1 104 0
 693 0072 0420     		movs	r0, #4
 694 0074 0349     		ldr	r1, .L20+8
 695 0076 FFF7FEFF 		bl	_test_assert_sequence
 696 007a D7E7     		b	.L17
 697              	.L21:
 698              		.align	2
 699              	.L20:
 700 007c 00000000 		.word	.LANCHOR0
 701 0080 00000000 		.word	.LANCHOR2
 702 0084 04000000 		.word	.LC1
 703              		.cfi_endproc
 704              	.LFE11:
 705              		.size	evt1_execute, .-evt1_execute
 706 0088 AFF30080 		.section	.text.h3,"ax",%progbits
 706      AFF30080 
 707              		.align	2
 708              		.p2align 4,,15
 709              		.thumb
 710              		.thumb_func
 711              		.type	h3, %function
 712              	h3:
 713              	.LFB10:
 714              		.loc 1 82 0
 715              		.cfi_startproc
 716              		@ args = 0, pretend = 0, frame = 0
 717              		@ frame_needed = 0, uses_anonymous_args = 0
 718              		@ link register save eliminated.
 719              	.LVL45:
 720              		.loc 1 82 0
 721 0000 4320     		movs	r0, #67
 722              	.LVL46:
 723 0002 FFF7FEBF 		b	test_emit_token
 724              		.cfi_endproc
 725              	.LFE10:
 726              		.size	h3, .-h3
 727 0006 00BFAFF3 		.section	.text.h2,"ax",%progbits
ARM GAS  C:\Users\DNIEL~1\AppData\Local\Temp\cc2JYKP2.s 			page 14


 727      0080AFF3 
 727      0080
 728              		.align	2
 729              		.p2align 4,,15
 730              		.thumb
 731              		.thumb_func
 732              		.type	h2, %function
 733              	h2:
 734              	.LFB9:
 735              		.loc 1 81 0
 736              		.cfi_startproc
 737              		@ args = 0, pretend = 0, frame = 0
 738              		@ frame_needed = 0, uses_anonymous_args = 0
 739              		@ link register save eliminated.
 740              	.LVL47:
 741              		.loc 1 81 0
 742 0000 4220     		movs	r0, #66
 743              	.LVL48:
 744 0002 FFF7FEBF 		b	test_emit_token
 745              		.cfi_endproc
 746              	.LFE9:
 747              		.size	h2, .-h2
 748 0006 00BFAFF3 		.section	.text.h1,"ax",%progbits
 748      0080AFF3 
 748      0080
 749              		.align	2
 750              		.p2align 4,,15
 751              		.thumb
 752              		.thumb_func
 753              		.type	h1, %function
 754              	h1:
 755              	.LFB8:
 756              		.loc 1 80 0
 757              		.cfi_startproc
 758              		@ args = 0, pretend = 0, frame = 0
 759              		@ frame_needed = 0, uses_anonymous_args = 0
 760              		@ link register save eliminated.
 761              	.LVL49:
 762              		.loc 1 80 0
 763 0000 4120     		movs	r0, #65
 764              	.LVL50:
 765 0002 FFF7FEBF 		b	test_emit_token
 766              		.cfi_endproc
 767              	.LFE8:
 768              		.size	h1, .-h1
 769              		.global	testevt1
 770              		.global	testevt2
 771              		.global	testevt3
 772              		.global	patternevt
 773 0006 00BFAFF3 		.section	.rodata.patternevt,"a",%progbits
 773      0080AFF3 
 773      0080
 774              		.align	2
 775              		.type	patternevt, %object
 776              		.size	patternevt, 16
 777              	patternevt:
 778 0000 00000000 		.word	testevt1
ARM GAS  C:\Users\DNIEL~1\AppData\Local\Temp\cc2JYKP2.s 			page 15


 779 0004 00000000 		.word	testevt2
 780 0008 00000000 		.word	testevt3
 781 000c 00000000 		.word	0
 782              		.section	.rodata.testevt2,"a",%progbits
 783              		.align	2
 784              		.type	testevt2, %object
 785              		.size	testevt2, 16
 786              	testevt2:
 787 0000 2C000000 		.word	.LC3
 788 0004 00000000 		.word	evt2_setup
 789 0008 00000000 		.word	0
 790 000c 00000000 		.word	evt2_execute
 791              		.section	.rodata.str1.4,"aMS",%progbits,1
 792              		.align	2
 793              	.LC0:
 794 0000 4100     		.ascii	"A\000"
 795 0002 0000     		.space	2
 796              	.LC1:
 797 0004 41424300 		.ascii	"ABC\000"
 798              	.LC2:
 799 0008 4576656E 		.ascii	"Events, registration and dispatch\000"
 799      74732C20 
 799      72656769 
 799      73747261 
 799      74696F6E 
 800 002a 0000     		.space	2
 801              	.LC3:
 802 002c 4576656E 		.ascii	"Events, wait and broadcast\000"
 802      74732C20 
 802      77616974 
 802      20616E64 
 802      2062726F 
 803 0047 00       		.space	1
 804              	.LC4:
 805 0048 4576656E 		.ascii	"Events, timeouts\000"
 805      74732C20 
 805      74696D65 
 805      6F757473 
 805      00
 806 0059 000000   		.section	.rodata.testevt1,"a",%progbits
 807              		.align	2
 808              		.type	testevt1, %object
 809              		.size	testevt1, 16
 810              	testevt1:
 811 0000 08000000 		.word	.LC2
 812 0004 00000000 		.word	evt1_setup
 813 0008 00000000 		.word	0
 814 000c 00000000 		.word	evt1_execute
 815              		.section	.rodata.evhndl,"a",%progbits
 816              		.align	2
 817              		.set	.LANCHOR2,. + 0
 818              		.type	evhndl, %object
 819              		.size	evhndl, 12
 820              	evhndl:
 821 0000 00000000 		.word	h1
 822 0004 00000000 		.word	h2
 823 0008 00000000 		.word	h3
ARM GAS  C:\Users\DNIEL~1\AppData\Local\Temp\cc2JYKP2.s 			page 16


 824              		.section	.rodata.testevt3,"a",%progbits
 825              		.align	2
 826              		.type	testevt3, %object
 827              		.size	testevt3, 16
 828              	testevt3:
 829 0000 48000000 		.word	.LC4
 830 0004 00000000 		.word	evt3_setup
 831 0008 00000000 		.word	0
 832 000c 00000000 		.word	evt3_execute
 833              		.section	.data.es1,"aw",%progbits
 834              		.align	2
 835              		.set	.LANCHOR0,. + 0
 836              		.type	es1, %object
 837              		.size	es1, 4
 838              	es1:
 839 0000 00000000 		.word	es1
 840              		.section	.data.es2,"aw",%progbits
 841              		.align	2
 842              		.set	.LANCHOR1,. + 0
 843              		.type	es2, %object
 844              		.size	es2, 4
 845              	es2:
 846 0000 00000000 		.word	es2
 847              		.text
 848              	.Letext0:
 849              		.section	.debug_loc,"",%progbits
 850              	.Ldebug_loc0:
 851              	.LLST0:
 852 0000 00000000 		.4byte	.LFB17
 853 0004 04000000 		.4byte	.LCFI0
 854 0008 0200     		.2byte	0x2
 855 000a 7D       		.byte	0x7d
 856 000b 00       		.sleb128 0
 857 000c 04000000 		.4byte	.LCFI0
 858 0010 AA000000 		.4byte	.LFE17
 859 0014 0200     		.2byte	0x2
 860 0016 7D       		.byte	0x7d
 861 0017 08       		.sleb128 8
 862 0018 00000000 		.4byte	0x0
 863 001c 00000000 		.4byte	0x0
 864              	.LLST1:
 865 0020 0C000000 		.4byte	.LVL0
 866 0024 16000000 		.4byte	.LVL1
 867 0028 0100     		.2byte	0x1
 868 002a 50       		.byte	0x50
 869 002b 28000000 		.4byte	.LVL2
 870 002f 32000000 		.4byte	.LVL3
 871 0033 0100     		.2byte	0x1
 872 0035 50       		.byte	0x50
 873 0036 44000000 		.4byte	.LVL4
 874 003a 4E000000 		.4byte	.LVL5
 875 003e 0100     		.2byte	0x1
 876 0040 50       		.byte	0x50
 877 0041 60000000 		.4byte	.LVL6
 878 0045 6A000000 		.4byte	.LVL7
 879 0049 0100     		.2byte	0x1
 880 004b 50       		.byte	0x50
ARM GAS  C:\Users\DNIEL~1\AppData\Local\Temp\cc2JYKP2.s 			page 17


 881 004c 7C000000 		.4byte	.LVL8
 882 0050 86000000 		.4byte	.LVL9
 883 0054 0100     		.2byte	0x1
 884 0056 50       		.byte	0x50
 885 0057 98000000 		.4byte	.LVL10
 886 005b A2000000 		.4byte	.LVL11
 887 005f 0100     		.2byte	0x1
 888 0061 50       		.byte	0x50
 889 0062 00000000 		.4byte	0x0
 890 0066 00000000 		.4byte	0x0
 891              	.LLST2:
 892 006a 00000000 		.4byte	.LFB15
 893 006e 04000000 		.4byte	.LCFI1
 894 0072 0200     		.2byte	0x2
 895 0074 7D       		.byte	0x7d
 896 0075 00       		.sleb128 0
 897 0076 04000000 		.4byte	.LCFI1
 898 007a 08000000 		.4byte	.LCFI2
 899 007e 0200     		.2byte	0x2
 900 0080 7D       		.byte	0x7d
 901 0081 20       		.sleb128 32
 902 0082 08000000 		.4byte	.LCFI2
 903 0086 88020000 		.4byte	.LFE15
 904 008a 0300     		.2byte	0x3
 905 008c 7D       		.byte	0x7d
 906 008d C800     		.sleb128 72
 907 008f 00000000 		.4byte	0x0
 908 0093 00000000 		.4byte	0x0
 909              	.LLST3:
 910 0097 14000000 		.4byte	.LVL12
 911 009b 22000000 		.4byte	.LVL13
 912 009f 0100     		.2byte	0x1
 913 00a1 50       		.byte	0x50
 914 00a2 22000000 		.4byte	.LVL13
 915 00a6 25000000 		.4byte	.LVL14-1
 916 00aa 0300     		.2byte	0x3
 917 00ac 7E       		.byte	0x7e
 918 00ad 01       		.sleb128 1
 919 00ae 9F       		.byte	0x9f
 920 00af 36000000 		.4byte	.LVL15
 921 00b3 3A000000 		.4byte	.LVL16
 922 00b7 0100     		.2byte	0x1
 923 00b9 50       		.byte	0x50
 924 00ba 3A000000 		.4byte	.LVL16
 925 00be 42000000 		.4byte	.LVL17
 926 00c2 0300     		.2byte	0x3
 927 00c4 70       		.byte	0x70
 928 00c5 02       		.sleb128 2
 929 00c6 9F       		.byte	0x9f
 930 00c7 52000000 		.4byte	.LVL18
 931 00cb 60000000 		.4byte	.LVL19
 932 00cf 0100     		.2byte	0x1
 933 00d1 50       		.byte	0x50
 934 00d2 60000000 		.4byte	.LVL19
 935 00d6 63000000 		.4byte	.LVL20-1
 936 00da 0300     		.2byte	0x3
 937 00dc 7C       		.byte	0x7c
ARM GAS  C:\Users\DNIEL~1\AppData\Local\Temp\cc2JYKP2.s 			page 18


 938 00dd 04       		.sleb128 4
 939 00de 9F       		.byte	0x9f
 940 00df 70000000 		.4byte	.LVL21
 941 00e3 7A000000 		.4byte	.LVL22
 942 00e7 0100     		.2byte	0x1
 943 00e9 50       		.byte	0x50
 944 00ea B8000000 		.4byte	.LVL24
 945 00ee BC000000 		.4byte	.LVL25
 946 00f2 0100     		.2byte	0x1
 947 00f4 50       		.byte	0x50
 948 00f5 BC000000 		.4byte	.LVL25
 949 00f9 E6000000 		.4byte	.LVL26
 950 00fd 0100     		.2byte	0x1
 951 00ff 59       		.byte	0x59
 952 0100 E6000000 		.4byte	.LVL26
 953 0104 F0000000 		.4byte	.LVL27
 954 0108 0100     		.2byte	0x1
 955 010a 50       		.byte	0x50
 956 010b 0A010000 		.4byte	.LVL28
 957 010f 12010000 		.4byte	.LVL29
 958 0113 0100     		.2byte	0x1
 959 0115 50       		.byte	0x50
 960 0116 12010000 		.4byte	.LVL29
 961 011a 1B010000 		.4byte	.LVL30-1
 962 011e 0300     		.2byte	0x3
 963 0120 7C       		.byte	0x7c
 964 0121 05       		.sleb128 5
 965 0122 9F       		.byte	0x9f
 966 0123 26010000 		.4byte	.LVL31
 967 0127 30010000 		.4byte	.LVL32
 968 012b 0100     		.2byte	0x1
 969 012d 50       		.byte	0x50
 970 012e 64010000 		.4byte	.LVL34
 971 0132 68010000 		.4byte	.LVL35
 972 0136 0100     		.2byte	0x1
 973 0138 50       		.byte	0x50
 974 0139 68010000 		.4byte	.LVL35
 975 013d 94010000 		.4byte	.LVL36
 976 0141 0100     		.2byte	0x1
 977 0143 59       		.byte	0x59
 978 0144 94010000 		.4byte	.LVL36
 979 0148 9E010000 		.4byte	.LVL37
 980 014c 0100     		.2byte	0x1
 981 014e 50       		.byte	0x50
 982 014f 0C020000 		.4byte	.LVL39
 983 0153 16020000 		.4byte	.LVL40
 984 0157 0100     		.2byte	0x1
 985 0159 50       		.byte	0x50
 986 015a 00000000 		.4byte	0x0
 987 015e 00000000 		.4byte	0x0
 988              	.LLST4:
 989 0162 B6000000 		.4byte	.LVL23
 990 0166 62010000 		.4byte	.LVL33
 991 016a 0100     		.2byte	0x1
 992 016c 5A       		.byte	0x5a
 993 016d 62010000 		.4byte	.LVL33
 994 0171 EC010000 		.4byte	.LVL38
ARM GAS  C:\Users\DNIEL~1\AppData\Local\Temp\cc2JYKP2.s 			page 19


 995 0175 0100     		.2byte	0x1
 996 0177 5A       		.byte	0x5a
 997 0178 EC010000 		.4byte	.LVL38
 998 017c 88020000 		.4byte	.LFE15
 999 0180 0100     		.2byte	0x1
 1000 0182 57       		.byte	0x57
 1001 0183 00000000 		.4byte	0x0
 1002 0187 00000000 		.4byte	0x0
 1003              	.LLST5:
 1004 018b 00000000 		.4byte	.LFB14
 1005 018f 02000000 		.4byte	.LCFI3
 1006 0193 0200     		.2byte	0x2
 1007 0195 7D       		.byte	0x7d
 1008 0196 00       		.sleb128 0
 1009 0197 02000000 		.4byte	.LCFI3
 1010 019b 24000000 		.4byte	.LFE14
 1011 019f 0200     		.2byte	0x2
 1012 01a1 7D       		.byte	0x7d
 1013 01a2 08       		.sleb128 8
 1014 01a3 00000000 		.4byte	0x0
 1015 01a7 00000000 		.4byte	0x0
 1016              	.LLST6:
 1017 01ab 00000000 		.4byte	.LVL41
 1018 01af 06000000 		.4byte	.LVL42
 1019 01b3 0100     		.2byte	0x1
 1020 01b5 50       		.byte	0x50
 1021 01b6 00000000 		.4byte	0x0
 1022 01ba 00000000 		.4byte	0x0
 1023              	.LLST7:
 1024 01be 00000000 		.4byte	.LFB13
 1025 01c2 02000000 		.4byte	.LCFI4
 1026 01c6 0200     		.2byte	0x2
 1027 01c8 7D       		.byte	0x7d
 1028 01c9 00       		.sleb128 0
 1029 01ca 02000000 		.4byte	.LCFI4
 1030 01ce 16000000 		.4byte	.LFE13
 1031 01d2 0200     		.2byte	0x2
 1032 01d4 7D       		.byte	0x7d
 1033 01d5 08       		.sleb128 8
 1034 01d6 00000000 		.4byte	0x0
 1035 01da 00000000 		.4byte	0x0
 1036              	.LLST8:
 1037 01de 00000000 		.4byte	.LVL43
 1038 01e2 06000000 		.4byte	.LVL44
 1039 01e6 0100     		.2byte	0x1
 1040 01e8 50       		.byte	0x50
 1041 01e9 06000000 		.4byte	.LVL44
 1042 01ed 16000000 		.4byte	.LFE13
 1043 01f1 0100     		.2byte	0x1
 1044 01f3 54       		.byte	0x54
 1045 01f4 00000000 		.4byte	0x0
 1046 01f8 00000000 		.4byte	0x0
 1047              	.LLST9:
 1048 01fc 00000000 		.4byte	.LFB11
 1049 0200 02000000 		.4byte	.LCFI5
 1050 0204 0200     		.2byte	0x2
 1051 0206 7D       		.byte	0x7d
ARM GAS  C:\Users\DNIEL~1\AppData\Local\Temp\cc2JYKP2.s 			page 20


 1052 0207 00       		.sleb128 0
 1053 0208 02000000 		.4byte	.LCFI5
 1054 020c 06000000 		.4byte	.LCFI6
 1055 0210 0200     		.2byte	0x2
 1056 0212 7D       		.byte	0x7d
 1057 0213 08       		.sleb128 8
 1058 0214 06000000 		.4byte	.LCFI6
 1059 0218 88000000 		.4byte	.LFE11
 1060 021c 0200     		.2byte	0x2
 1061 021e 7D       		.byte	0x7d
 1062 021f 28       		.sleb128 40
 1063 0220 00000000 		.4byte	0x0
 1064 0224 00000000 		.4byte	0x0
 1065              	.LLST10:
 1066 0228 00000000 		.4byte	.LVL45
 1067 022c 02000000 		.4byte	.LVL46
 1068 0230 0100     		.2byte	0x1
 1069 0232 50       		.byte	0x50
 1070 0233 00000000 		.4byte	0x0
 1071 0237 00000000 		.4byte	0x0
 1072              	.LLST11:
 1073 023b 00000000 		.4byte	.LVL47
 1074 023f 02000000 		.4byte	.LVL48
 1075 0243 0100     		.2byte	0x1
 1076 0245 50       		.byte	0x50
 1077 0246 00000000 		.4byte	0x0
 1078 024a 00000000 		.4byte	0x0
 1079              	.LLST12:
 1080 024e 00000000 		.4byte	.LVL49
 1081 0252 02000000 		.4byte	.LVL50
 1082 0256 0100     		.2byte	0x1
 1083 0258 50       		.byte	0x50
 1084 0259 00000000 		.4byte	0x0
 1085 025d 00000000 		.4byte	0x0
 1086              		.file 2 "c:\\program files (x86)\\codesourcery\\sourcery g++ lite\\bin\\../lib/gcc/arm-none-eabi/4
 1087              		.file 3 "../../../ChibiOS/os/ports/GCC/ARMCMx/chtypes.h"
 1088              		.file 4 "../../../ChibiOS/os/kernel/include/chlists.h"
 1089              		.file 5 "../../../ChibiOS/os/kernel/include/chthreads.h"
 1090              		.file 6 "../../../ChibiOS/os/ports/GCC/ARMCMx/chcore_v7m.h"
 1091              		.file 7 "../../../ChibiOS/os/kernel/include/chvt.h"
 1092              		.file 8 "../../../ChibiOS/os/kernel/include/chschd.h"
 1093              		.file 9 "../../../ChibiOS/os/kernel/include/chmtx.h"
 1094              		.file 10 "../../../ChibiOS/os/kernel/include/chevents.h"
 1095              		.file 11 "../../../ChibiOS/test/test.h"
 1096              		.section	.debug_info
 1097 0000 0A090000 		.4byte	0x90a
 1098 0004 0200     		.2byte	0x2
 1099 0006 00000000 		.4byte	.Ldebug_abbrev0
 1100 000a 04       		.byte	0x4
 1101 000b 01       		.uleb128 0x1
 1102 000c C8030000 		.4byte	.LASF103
 1103 0010 01       		.byte	0x1
 1104 0011 74030000 		.4byte	.LASF104
 1105 0015 7D000000 		.4byte	.LASF105
 1106 0019 00000000 		.4byte	0x0
 1107 001d 00000000 		.4byte	0x0
 1108 0021 00000000 		.4byte	.Ldebug_ranges0+0x0
ARM GAS  C:\Users\DNIEL~1\AppData\Local\Temp\cc2JYKP2.s 			page 21


 1109 0025 00000000 		.4byte	.Ldebug_line0
 1110 0029 02       		.uleb128 0x2
 1111 002a 04       		.byte	0x4
 1112 002b 05       		.byte	0x5
 1113 002c 696E7400 		.ascii	"int\000"
 1114 0030 03       		.uleb128 0x3
 1115 0031 04       		.byte	0x4
 1116 0032 07       		.byte	0x7
 1117 0033 23010000 		.4byte	.LASF0
 1118 0037 03       		.uleb128 0x3
 1119 0038 01       		.byte	0x1
 1120 0039 06       		.byte	0x6
 1121 003a 61000000 		.4byte	.LASF1
 1122 003e 04       		.uleb128 0x4
 1123 003f AB030000 		.4byte	.LASF5
 1124 0043 02       		.byte	0x2
 1125 0044 2A       		.byte	0x2a
 1126 0045 49000000 		.4byte	0x49
 1127 0049 03       		.uleb128 0x3
 1128 004a 01       		.byte	0x1
 1129 004b 08       		.byte	0x8
 1130 004c 5C020000 		.4byte	.LASF2
 1131 0050 03       		.uleb128 0x3
 1132 0051 02       		.byte	0x2
 1133 0052 05       		.byte	0x5
 1134 0053 96020000 		.4byte	.LASF3
 1135 0057 03       		.uleb128 0x3
 1136 0058 02       		.byte	0x2
 1137 0059 07       		.byte	0x7
 1138 005a 6B010000 		.4byte	.LASF4
 1139 005e 04       		.uleb128 0x4
 1140 005f 54020000 		.4byte	.LASF6
 1141 0063 02       		.byte	0x2
 1142 0064 4F       		.byte	0x4f
 1143 0065 69000000 		.4byte	0x69
 1144 0069 03       		.uleb128 0x3
 1145 006a 04       		.byte	0x4
 1146 006b 05       		.byte	0x5
 1147 006c B0000000 		.4byte	.LASF7
 1148 0070 04       		.uleb128 0x4
 1149 0071 02030000 		.4byte	.LASF8
 1150 0075 02       		.byte	0x2
 1151 0076 50       		.byte	0x50
 1152 0077 7B000000 		.4byte	0x7b
 1153 007b 03       		.uleb128 0x3
 1154 007c 04       		.byte	0x4
 1155 007d 07       		.byte	0x7
 1156 007e 38010000 		.4byte	.LASF9
 1157 0082 03       		.uleb128 0x3
 1158 0083 08       		.byte	0x8
 1159 0084 05       		.byte	0x5
 1160 0085 53000000 		.4byte	.LASF10
 1161 0089 03       		.uleb128 0x3
 1162 008a 08       		.byte	0x8
 1163 008b 07       		.byte	0x7
 1164 008c 1F000000 		.4byte	.LASF11
 1165 0090 03       		.uleb128 0x3
ARM GAS  C:\Users\DNIEL~1\AppData\Local\Temp\cc2JYKP2.s 			page 22


 1166 0091 01       		.byte	0x1
 1167 0092 02       		.byte	0x2
 1168 0093 4E020000 		.4byte	.LASF12
 1169 0097 04       		.uleb128 0x4
 1170 0098 8C010000 		.4byte	.LASF13
 1171 009c 03       		.byte	0x3
 1172 009d 2C       		.byte	0x2c
 1173 009e 3E000000 		.4byte	0x3e
 1174 00a2 04       		.uleb128 0x4
 1175 00a3 C5000000 		.4byte	.LASF14
 1176 00a7 03       		.byte	0x3
 1177 00a8 2D       		.byte	0x2d
 1178 00a9 3E000000 		.4byte	0x3e
 1179 00ad 04       		.uleb128 0x4
 1180 00ae 2F020000 		.4byte	.LASF15
 1181 00b2 03       		.byte	0x3
 1182 00b3 2E       		.byte	0x2e
 1183 00b4 3E000000 		.4byte	0x3e
 1184 00b8 04       		.uleb128 0x4
 1185 00b9 20030000 		.4byte	.LASF16
 1186 00bd 03       		.byte	0x3
 1187 00be 2F       		.byte	0x2f
 1188 00bf 3E000000 		.4byte	0x3e
 1189 00c3 04       		.uleb128 0x4
 1190 00c4 46020000 		.4byte	.LASF17
 1191 00c8 03       		.byte	0x3
 1192 00c9 30       		.byte	0x30
 1193 00ca 70000000 		.4byte	0x70
 1194 00ce 04       		.uleb128 0x4
 1195 00cf 7E010000 		.4byte	.LASF18
 1196 00d3 03       		.byte	0x3
 1197 00d4 31       		.byte	0x31
 1198 00d5 5E000000 		.4byte	0x5e
 1199 00d9 04       		.uleb128 0x4
 1200 00da 01010000 		.4byte	.LASF19
 1201 00de 03       		.byte	0x3
 1202 00df 32       		.byte	0x32
 1203 00e0 5E000000 		.4byte	0x5e
 1204 00e4 04       		.uleb128 0x4
 1205 00e5 A0010000 		.4byte	.LASF20
 1206 00e9 03       		.byte	0x3
 1207 00ea 33       		.byte	0x33
 1208 00eb 70000000 		.4byte	0x70
 1209 00ef 04       		.uleb128 0x4
 1210 00f0 B2010000 		.4byte	.LASF21
 1211 00f4 03       		.byte	0x3
 1212 00f5 34       		.byte	0x34
 1213 00f6 70000000 		.4byte	0x70
 1214 00fa 04       		.uleb128 0x4
 1215 00fb 36030000 		.4byte	.LASF22
 1216 00ff 03       		.byte	0x3
 1217 0100 35       		.byte	0x35
 1218 0101 70000000 		.4byte	0x70
 1219 0105 04       		.uleb128 0x4
 1220 0106 D7020000 		.4byte	.LASF23
 1221 010a 04       		.byte	0x4
 1222 010b 2A       		.byte	0x2a
ARM GAS  C:\Users\DNIEL~1\AppData\Local\Temp\cc2JYKP2.s 			page 23


 1223 010c 10010000 		.4byte	0x110
 1224 0110 05       		.uleb128 0x5
 1225 0111 D7020000 		.4byte	.LASF23
 1226 0115 48       		.byte	0x48
 1227 0116 05       		.byte	0x5
 1228 0117 5E       		.byte	0x5e
 1229 0118 35020000 		.4byte	0x235
 1230 011c 06       		.uleb128 0x6
 1231 011d C8020000 		.4byte	.LASF24
 1232 0121 05       		.byte	0x5
 1233 0122 5F       		.byte	0x5f
 1234 0123 5A020000 		.4byte	0x25a
 1235 0127 02       		.byte	0x2
 1236 0128 23       		.byte	0x23
 1237 0129 00       		.uleb128 0x0
 1238 012a 06       		.uleb128 0x6
 1239 012b 37020000 		.4byte	.LASF25
 1240 012f 05       		.byte	0x5
 1241 0130 61       		.byte	0x61
 1242 0131 5A020000 		.4byte	0x25a
 1243 0135 02       		.byte	0x2
 1244 0136 23       		.byte	0x23
 1245 0137 04       		.uleb128 0x4
 1246 0138 06       		.uleb128 0x6
 1247 0139 3F000000 		.4byte	.LASF26
 1248 013d 05       		.byte	0x5
 1249 013e 63       		.byte	0x63
 1250 013f C3000000 		.4byte	0xc3
 1251 0143 02       		.byte	0x2
 1252 0144 23       		.byte	0x23
 1253 0145 08       		.uleb128 0x8
 1254 0146 06       		.uleb128 0x6
 1255 0147 0A040000 		.4byte	.LASF27
 1256 014b 05       		.byte	0x5
 1257 014c 64       		.byte	0x64
 1258 014d 28030000 		.4byte	0x328
 1259 0151 02       		.byte	0x2
 1260 0152 23       		.byte	0x23
 1261 0153 0C       		.uleb128 0xc
 1262 0154 06       		.uleb128 0x6
 1263 0155 E0000000 		.4byte	.LASF28
 1264 0159 05       		.byte	0x5
 1265 015a 66       		.byte	0x66
 1266 015b 5A020000 		.4byte	0x25a
 1267 015f 02       		.byte	0x2
 1268 0160 23       		.byte	0x23
 1269 0161 10       		.uleb128 0x10
 1270 0162 06       		.uleb128 0x6
 1271 0163 E4010000 		.4byte	.LASF29
 1272 0167 05       		.byte	0x5
 1273 0168 67       		.byte	0x67
 1274 0169 5A020000 		.4byte	0x25a
 1275 016d 02       		.byte	0x2
 1276 016e 23       		.byte	0x23
 1277 016f 14       		.uleb128 0x14
 1278 0170 06       		.uleb128 0x6
 1279 0171 D4030000 		.4byte	.LASF30
ARM GAS  C:\Users\DNIEL~1\AppData\Local\Temp\cc2JYKP2.s 			page 24


 1280 0175 05       		.byte	0x5
 1281 0176 6E       		.byte	0x6e
 1282 0177 9B050000 		.4byte	0x59b
 1283 017b 02       		.byte	0x2
 1284 017c 23       		.byte	0x23
 1285 017d 18       		.uleb128 0x18
 1286 017e 06       		.uleb128 0x6
 1287 017f A0020000 		.4byte	.LASF31
 1288 0183 05       		.byte	0x5
 1289 0184 79       		.byte	0x79
 1290 0185 A2000000 		.4byte	0xa2
 1291 0189 02       		.byte	0x2
 1292 018a 23       		.byte	0x23
 1293 018b 1C       		.uleb128 0x1c
 1294 018c 06       		.uleb128 0x6
 1295 018d CF020000 		.4byte	.LASF32
 1296 0191 05       		.byte	0x5
 1297 0192 7D       		.byte	0x7d
 1298 0193 97000000 		.4byte	0x97
 1299 0197 02       		.byte	0x2
 1300 0198 23       		.byte	0x23
 1301 0199 1D       		.uleb128 0x1d
 1302 019a 06       		.uleb128 0x6
 1303 019b 94030000 		.4byte	.LASF33
 1304 019f 05       		.byte	0x5
 1305 01a0 82       		.byte	0x82
 1306 01a1 AD000000 		.4byte	0xad
 1307 01a5 02       		.byte	0x2
 1308 01a6 23       		.byte	0x23
 1309 01a7 1E       		.uleb128 0x1e
 1310 01a8 06       		.uleb128 0x6
 1311 01a9 A8020000 		.4byte	.LASF34
 1312 01ad 05       		.byte	0x5
 1313 01ae 88       		.byte	0x88
 1314 01af B8000000 		.4byte	0xb8
 1315 01b3 02       		.byte	0x2
 1316 01b4 23       		.byte	0x23
 1317 01b5 1F       		.uleb128 0x1f
 1318 01b6 06       		.uleb128 0x6
 1319 01b7 54030000 		.4byte	.LASF35
 1320 01bb 05       		.byte	0x5
 1321 01bc 8F       		.byte	0x8f
 1322 01bd 0D040000 		.4byte	0x40d
 1323 01c1 02       		.byte	0x2
 1324 01c2 23       		.byte	0x23
 1325 01c3 20       		.uleb128 0x20
 1326 01c4 07       		.uleb128 0x7
 1327 01c5 705F7500 		.ascii	"p_u\000"
 1328 01c9 05       		.byte	0x5
 1329 01ca B4       		.byte	0xb4
 1330 01cb 66050000 		.4byte	0x566
 1331 01cf 02       		.byte	0x2
 1332 01d0 23       		.byte	0x23
 1333 01d1 24       		.uleb128 0x24
 1334 01d2 06       		.uleb128 0x6
 1335 01d3 10040000 		.4byte	.LASF36
 1336 01d7 05       		.byte	0x5
ARM GAS  C:\Users\DNIEL~1\AppData\Local\Temp\cc2JYKP2.s 			page 25


 1337 01d8 B9       		.byte	0xb9
 1338 01d9 82020000 		.4byte	0x282
 1339 01dd 02       		.byte	0x2
 1340 01de 23       		.byte	0x23
 1341 01df 28       		.uleb128 0x28
 1342 01e0 06       		.uleb128 0x6
 1343 01e1 62030000 		.4byte	.LASF37
 1344 01e5 05       		.byte	0x5
 1345 01e6 BF       		.byte	0xbf
 1346 01e7 60020000 		.4byte	0x260
 1347 01eb 02       		.byte	0x2
 1348 01ec 23       		.byte	0x23
 1349 01ed 2C       		.uleb128 0x2c
 1350 01ee 06       		.uleb128 0x6
 1351 01ef 0B000000 		.4byte	.LASF38
 1352 01f3 05       		.byte	0x5
 1353 01f4 C3       		.byte	0xc3
 1354 01f5 CE000000 		.4byte	0xce
 1355 01f9 02       		.byte	0x2
 1356 01fa 23       		.byte	0x23
 1357 01fb 34       		.uleb128 0x34
 1358 01fc 06       		.uleb128 0x6
 1359 01fd E7020000 		.4byte	.LASF39
 1360 0201 05       		.byte	0x5
 1361 0202 C9       		.byte	0xc9
 1362 0203 E4000000 		.4byte	0xe4
 1363 0207 02       		.byte	0x2
 1364 0208 23       		.byte	0x23
 1365 0209 38       		.uleb128 0x38
 1366 020a 06       		.uleb128 0x6
 1367 020b 8C020000 		.4byte	.LASF40
 1368 020f 05       		.byte	0x5
 1369 0210 D0       		.byte	0xd0
 1370 0211 AD050000 		.4byte	0x5ad
 1371 0215 02       		.byte	0x2
 1372 0216 23       		.byte	0x23
 1373 0217 3C       		.uleb128 0x3c
 1374 0218 06       		.uleb128 0x6
 1375 0219 40030000 		.4byte	.LASF41
 1376 021d 05       		.byte	0x5
 1377 021e D4       		.byte	0xd4
 1378 021f C3000000 		.4byte	0xc3
 1379 0223 02       		.byte	0x2
 1380 0224 23       		.byte	0x23
 1381 0225 40       		.uleb128 0x40
 1382 0226 06       		.uleb128 0x6
 1383 0227 6D000000 		.4byte	.LASF42
 1384 022b 05       		.byte	0x5
 1385 022c DA       		.byte	0xda
 1386 022d 98020000 		.4byte	0x298
 1387 0231 02       		.byte	0x2
 1388 0232 23       		.byte	0x23
 1389 0233 44       		.uleb128 0x44
 1390 0234 00       		.byte	0x0
 1391 0235 08       		.uleb128 0x8
 1392 0236 08       		.byte	0x8
 1393 0237 04       		.byte	0x4
ARM GAS  C:\Users\DNIEL~1\AppData\Local\Temp\cc2JYKP2.s 			page 26


 1394 0238 61       		.byte	0x61
 1395 0239 5A020000 		.4byte	0x25a
 1396 023d 06       		.uleb128 0x6
 1397 023e C8020000 		.4byte	.LASF24
 1398 0242 04       		.byte	0x4
 1399 0243 62       		.byte	0x62
 1400 0244 5A020000 		.4byte	0x25a
 1401 0248 02       		.byte	0x2
 1402 0249 23       		.byte	0x23
 1403 024a 00       		.uleb128 0x0
 1404 024b 06       		.uleb128 0x6
 1405 024c 37020000 		.4byte	.LASF25
 1406 0250 04       		.byte	0x4
 1407 0251 64       		.byte	0x64
 1408 0252 5A020000 		.4byte	0x25a
 1409 0256 02       		.byte	0x2
 1410 0257 23       		.byte	0x23
 1411 0258 04       		.uleb128 0x4
 1412 0259 00       		.byte	0x0
 1413 025a 09       		.uleb128 0x9
 1414 025b 04       		.byte	0x4
 1415 025c 05010000 		.4byte	0x105
 1416 0260 04       		.uleb128 0x4
 1417 0261 02020000 		.4byte	.LASF43
 1418 0265 04       		.byte	0x4
 1419 0266 66       		.byte	0x66
 1420 0267 35020000 		.4byte	0x235
 1421 026b 08       		.uleb128 0x8
 1422 026c 04       		.byte	0x4
 1423 026d 04       		.byte	0x4
 1424 026e 6B       		.byte	0x6b
 1425 026f 82020000 		.4byte	0x282
 1426 0273 06       		.uleb128 0x6
 1427 0274 C8020000 		.4byte	.LASF24
 1428 0278 04       		.byte	0x4
 1429 0279 6D       		.byte	0x6d
 1430 027a 5A020000 		.4byte	0x25a
 1431 027e 02       		.byte	0x2
 1432 027f 23       		.byte	0x23
 1433 0280 00       		.uleb128 0x0
 1434 0281 00       		.byte	0x0
 1435 0282 04       		.uleb128 0x4
 1436 0283 94010000 		.4byte	.LASF44
 1437 0287 04       		.byte	0x4
 1438 0288 70       		.byte	0x70
 1439 0289 6B020000 		.4byte	0x26b
 1440 028d 04       		.uleb128 0x4
 1441 028e F0000000 		.4byte	.LASF45
 1442 0292 06       		.byte	0x6
 1443 0293 E5       		.byte	0xe5
 1444 0294 98020000 		.4byte	0x298
 1445 0298 0A       		.uleb128 0xa
 1446 0299 04       		.byte	0x4
 1447 029a 0B       		.uleb128 0xb
 1448 029b 5B030000 		.4byte	.LASF46
 1449 029f 24       		.byte	0x24
 1450 02a0 06       		.byte	0x6
ARM GAS  C:\Users\DNIEL~1\AppData\Local\Temp\cc2JYKP2.s 			page 27


 1451 02a1 0C01     		.2byte	0x10c
 1452 02a3 28030000 		.4byte	0x328
 1453 02a7 0C       		.uleb128 0xc
 1454 02a8 723400   		.ascii	"r4\000"
 1455 02ab 06       		.byte	0x6
 1456 02ac 1F01     		.2byte	0x11f
 1457 02ae 8D020000 		.4byte	0x28d
 1458 02b2 02       		.byte	0x2
 1459 02b3 23       		.byte	0x23
 1460 02b4 00       		.uleb128 0x0
 1461 02b5 0C       		.uleb128 0xc
 1462 02b6 723500   		.ascii	"r5\000"
 1463 02b9 06       		.byte	0x6
 1464 02ba 2001     		.2byte	0x120
 1465 02bc 8D020000 		.4byte	0x28d
 1466 02c0 02       		.byte	0x2
 1467 02c1 23       		.byte	0x23
 1468 02c2 04       		.uleb128 0x4
 1469 02c3 0C       		.uleb128 0xc
 1470 02c4 723600   		.ascii	"r6\000"
 1471 02c7 06       		.byte	0x6
 1472 02c8 2101     		.2byte	0x121
 1473 02ca 8D020000 		.4byte	0x28d
 1474 02ce 02       		.byte	0x2
 1475 02cf 23       		.byte	0x23
 1476 02d0 08       		.uleb128 0x8
 1477 02d1 0C       		.uleb128 0xc
 1478 02d2 723700   		.ascii	"r7\000"
 1479 02d5 06       		.byte	0x6
 1480 02d6 2201     		.2byte	0x122
 1481 02d8 8D020000 		.4byte	0x28d
 1482 02dc 02       		.byte	0x2
 1483 02dd 23       		.byte	0x23
 1484 02de 0C       		.uleb128 0xc
 1485 02df 0C       		.uleb128 0xc
 1486 02e0 723800   		.ascii	"r8\000"
 1487 02e3 06       		.byte	0x6
 1488 02e4 2301     		.2byte	0x123
 1489 02e6 8D020000 		.4byte	0x28d
 1490 02ea 02       		.byte	0x2
 1491 02eb 23       		.byte	0x23
 1492 02ec 10       		.uleb128 0x10
 1493 02ed 0C       		.uleb128 0xc
 1494 02ee 723900   		.ascii	"r9\000"
 1495 02f1 06       		.byte	0x6
 1496 02f2 2401     		.2byte	0x124
 1497 02f4 8D020000 		.4byte	0x28d
 1498 02f8 02       		.byte	0x2
 1499 02f9 23       		.byte	0x23
 1500 02fa 14       		.uleb128 0x14
 1501 02fb 0C       		.uleb128 0xc
 1502 02fc 72313000 		.ascii	"r10\000"
 1503 0300 06       		.byte	0x6
 1504 0301 2501     		.2byte	0x125
 1505 0303 8D020000 		.4byte	0x28d
 1506 0307 02       		.byte	0x2
 1507 0308 23       		.byte	0x23
ARM GAS  C:\Users\DNIEL~1\AppData\Local\Temp\cc2JYKP2.s 			page 28


 1508 0309 18       		.uleb128 0x18
 1509 030a 0C       		.uleb128 0xc
 1510 030b 72313100 		.ascii	"r11\000"
 1511 030f 06       		.byte	0x6
 1512 0310 2601     		.2byte	0x126
 1513 0312 8D020000 		.4byte	0x28d
 1514 0316 02       		.byte	0x2
 1515 0317 23       		.byte	0x23
 1516 0318 1C       		.uleb128 0x1c
 1517 0319 0C       		.uleb128 0xc
 1518 031a 6C7200   		.ascii	"lr\000"
 1519 031d 06       		.byte	0x6
 1520 031e 2701     		.2byte	0x127
 1521 0320 8D020000 		.4byte	0x28d
 1522 0324 02       		.byte	0x2
 1523 0325 23       		.byte	0x23
 1524 0326 20       		.uleb128 0x20
 1525 0327 00       		.byte	0x0
 1526 0328 0B       		.uleb128 0xb
 1527 0329 63010000 		.4byte	.LASF47
 1528 032d 04       		.byte	0x4
 1529 032e 06       		.byte	0x6
 1530 032f 3101     		.2byte	0x131
 1531 0331 45030000 		.4byte	0x345
 1532 0335 0C       		.uleb128 0xc
 1533 0336 72313300 		.ascii	"r13\000"
 1534 033a 06       		.byte	0x6
 1535 033b 3201     		.2byte	0x132
 1536 033d 45030000 		.4byte	0x345
 1537 0341 02       		.byte	0x2
 1538 0342 23       		.byte	0x23
 1539 0343 00       		.uleb128 0x0
 1540 0344 00       		.byte	0x0
 1541 0345 09       		.uleb128 0x9
 1542 0346 04       		.byte	0x4
 1543 0347 9A020000 		.4byte	0x29a
 1544 034b 04       		.uleb128 0x4
 1545 034c 4B030000 		.4byte	.LASF48
 1546 0350 07       		.byte	0x7
 1547 0351 58       		.byte	0x58
 1548 0352 56030000 		.4byte	0x356
 1549 0356 09       		.uleb128 0x9
 1550 0357 04       		.byte	0x4
 1551 0358 5C030000 		.4byte	0x35c
 1552 035c 0D       		.uleb128 0xd
 1553 035d 01       		.byte	0x1
 1554 035e 68030000 		.4byte	0x368
 1555 0362 0E       		.uleb128 0xe
 1556 0363 98020000 		.4byte	0x298
 1557 0367 00       		.byte	0x0
 1558 0368 04       		.uleb128 0x4
 1559 0369 13030000 		.4byte	.LASF49
 1560 036d 07       		.byte	0x7
 1561 036e 5D       		.byte	0x5d
 1562 036f 73030000 		.4byte	0x373
 1563 0373 05       		.uleb128 0x5
 1564 0374 13030000 		.4byte	.LASF49
ARM GAS  C:\Users\DNIEL~1\AppData\Local\Temp\cc2JYKP2.s 			page 29


 1565 0378 14       		.byte	0x14
 1566 0379 07       		.byte	0x7
 1567 037a 64       		.byte	0x64
 1568 037b C6030000 		.4byte	0x3c6
 1569 037f 06       		.uleb128 0x6
 1570 0380 30010000 		.4byte	.LASF50
 1571 0384 07       		.byte	0x7
 1572 0385 65       		.byte	0x65
 1573 0386 C6030000 		.4byte	0x3c6
 1574 038a 02       		.byte	0x2
 1575 038b 23       		.byte	0x23
 1576 038c 00       		.uleb128 0x0
 1577 038d 06       		.uleb128 0x6
 1578 038e F9000000 		.4byte	.LASF51
 1579 0392 07       		.byte	0x7
 1580 0393 67       		.byte	0x67
 1581 0394 C6030000 		.4byte	0x3c6
 1582 0398 02       		.byte	0x2
 1583 0399 23       		.byte	0x23
 1584 039a 04       		.uleb128 0x4
 1585 039b 06       		.uleb128 0x6
 1586 039c BE010000 		.4byte	.LASF52
 1587 03a0 07       		.byte	0x7
 1588 03a1 69       		.byte	0x69
 1589 03a2 FA000000 		.4byte	0xfa
 1590 03a6 02       		.byte	0x2
 1591 03a7 23       		.byte	0x23
 1592 03a8 08       		.uleb128 0x8
 1593 03a9 06       		.uleb128 0x6
 1594 03aa D1010000 		.4byte	.LASF53
 1595 03ae 07       		.byte	0x7
 1596 03af 6A       		.byte	0x6a
 1597 03b0 4B030000 		.4byte	0x34b
 1598 03b4 02       		.byte	0x2
 1599 03b5 23       		.byte	0x23
 1600 03b6 0C       		.uleb128 0xc
 1601 03b7 06       		.uleb128 0x6
 1602 03b8 6D030000 		.4byte	.LASF54
 1603 03bc 07       		.byte	0x7
 1604 03bd 6C       		.byte	0x6c
 1605 03be 98020000 		.4byte	0x298
 1606 03c2 02       		.byte	0x2
 1607 03c3 23       		.byte	0x23
 1608 03c4 10       		.uleb128 0x10
 1609 03c5 00       		.byte	0x0
 1610 03c6 09       		.uleb128 0x9
 1611 03c7 04       		.byte	0x4
 1612 03c8 68030000 		.4byte	0x368
 1613 03cc 08       		.uleb128 0x8
 1614 03cd 10       		.byte	0x10
 1615 03ce 07       		.byte	0x7
 1616 03cf 76       		.byte	0x76
 1617 03d0 0D040000 		.4byte	0x40d
 1618 03d4 06       		.uleb128 0x6
 1619 03d5 30010000 		.4byte	.LASF50
 1620 03d9 07       		.byte	0x7
 1621 03da 77       		.byte	0x77
ARM GAS  C:\Users\DNIEL~1\AppData\Local\Temp\cc2JYKP2.s 			page 30


 1622 03db C6030000 		.4byte	0x3c6
 1623 03df 02       		.byte	0x2
 1624 03e0 23       		.byte	0x23
 1625 03e1 00       		.uleb128 0x0
 1626 03e2 06       		.uleb128 0x6
 1627 03e3 F9000000 		.4byte	.LASF51
 1628 03e7 07       		.byte	0x7
 1629 03e8 79       		.byte	0x79
 1630 03e9 C6030000 		.4byte	0x3c6
 1631 03ed 02       		.byte	0x2
 1632 03ee 23       		.byte	0x23
 1633 03ef 04       		.uleb128 0x4
 1634 03f0 06       		.uleb128 0x6
 1635 03f1 BE010000 		.4byte	.LASF52
 1636 03f5 07       		.byte	0x7
 1637 03f6 7B       		.byte	0x7b
 1638 03f7 FA000000 		.4byte	0xfa
 1639 03fb 02       		.byte	0x2
 1640 03fc 23       		.byte	0x23
 1641 03fd 08       		.uleb128 0x8
 1642 03fe 06       		.uleb128 0x6
 1643 03ff DB030000 		.4byte	.LASF55
 1644 0403 07       		.byte	0x7
 1645 0404 7C       		.byte	0x7c
 1646 0405 0D040000 		.4byte	0x40d
 1647 0409 02       		.byte	0x2
 1648 040a 23       		.byte	0x23
 1649 040b 0C       		.uleb128 0xc
 1650 040c 00       		.byte	0x0
 1651 040d 0F       		.uleb128 0xf
 1652 040e FA000000 		.4byte	0xfa
 1653 0412 04       		.uleb128 0x4
 1654 0413 EE030000 		.4byte	.LASF56
 1655 0417 07       		.byte	0x7
 1656 0418 7D       		.byte	0x7d
 1657 0419 CC030000 		.4byte	0x3cc
 1658 041d 08       		.uleb128 0x8
 1659 041e 1C       		.byte	0x1c
 1660 041f 08       		.byte	0x8
 1661 0420 5E       		.byte	0x5e
 1662 0421 7A040000 		.4byte	0x47a
 1663 0425 06       		.uleb128 0x6
 1664 0426 0B030000 		.4byte	.LASF57
 1665 042a 08       		.byte	0x8
 1666 042b 5F       		.byte	0x5f
 1667 042c 60020000 		.4byte	0x260
 1668 0430 02       		.byte	0x2
 1669 0431 23       		.byte	0x23
 1670 0432 00       		.uleb128 0x0
 1671 0433 06       		.uleb128 0x6
 1672 0434 BA020000 		.4byte	.LASF58
 1673 0438 08       		.byte	0x8
 1674 0439 60       		.byte	0x60
 1675 043a C3000000 		.4byte	0xc3
 1676 043e 02       		.byte	0x2
 1677 043f 23       		.byte	0x23
 1678 0440 08       		.uleb128 0x8
ARM GAS  C:\Users\DNIEL~1\AppData\Local\Temp\cc2JYKP2.s 			page 31


 1679 0441 06       		.uleb128 0x6
 1680 0442 FC010000 		.4byte	.LASF59
 1681 0446 08       		.byte	0x8
 1682 0447 62       		.byte	0x62
 1683 0448 28030000 		.4byte	0x328
 1684 044c 02       		.byte	0x2
 1685 044d 23       		.byte	0x23
 1686 044e 0C       		.uleb128 0xc
 1687 044f 06       		.uleb128 0x6
 1688 0450 E8000000 		.4byte	.LASF60
 1689 0454 08       		.byte	0x8
 1690 0455 65       		.byte	0x65
 1691 0456 5A020000 		.4byte	0x25a
 1692 045a 02       		.byte	0x2
 1693 045b 23       		.byte	0x23
 1694 045c 10       		.uleb128 0x10
 1695 045d 06       		.uleb128 0x6
 1696 045e 1F020000 		.4byte	.LASF61
 1697 0462 08       		.byte	0x8
 1698 0463 66       		.byte	0x66
 1699 0464 5A020000 		.4byte	0x25a
 1700 0468 02       		.byte	0x2
 1701 0469 23       		.byte	0x23
 1702 046a 14       		.uleb128 0x14
 1703 046b 06       		.uleb128 0x6
 1704 046c 15020000 		.4byte	.LASF62
 1705 0470 08       		.byte	0x8
 1706 0471 69       		.byte	0x69
 1707 0472 5A020000 		.4byte	0x25a
 1708 0476 02       		.byte	0x2
 1709 0477 23       		.byte	0x23
 1710 0478 18       		.uleb128 0x18
 1711 0479 00       		.byte	0x0
 1712 047a 04       		.uleb128 0x4
 1713 047b 9B030000 		.4byte	.LASF63
 1714 047f 08       		.byte	0x8
 1715 0480 6B       		.byte	0x6b
 1716 0481 1D040000 		.4byte	0x41d
 1717 0485 05       		.uleb128 0x5
 1718 0486 AC010000 		.4byte	.LASF64
 1719 048a 10       		.byte	0x10
 1720 048b 09       		.byte	0x9
 1721 048c 2C       		.byte	0x2c
 1722 048d BC040000 		.4byte	0x4bc
 1723 0491 06       		.uleb128 0x6
 1724 0492 75000000 		.4byte	.LASF65
 1725 0496 09       		.byte	0x9
 1726 0497 2D       		.byte	0x2d
 1727 0498 60020000 		.4byte	0x260
 1728 049c 02       		.byte	0x2
 1729 049d 23       		.byte	0x23
 1730 049e 00       		.uleb128 0x0
 1731 049f 06       		.uleb128 0x6
 1732 04a0 F5030000 		.4byte	.LASF66
 1733 04a4 09       		.byte	0x9
 1734 04a5 2F       		.byte	0x2f
 1735 04a6 5A020000 		.4byte	0x25a
ARM GAS  C:\Users\DNIEL~1\AppData\Local\Temp\cc2JYKP2.s 			page 32


 1736 04aa 02       		.byte	0x2
 1737 04ab 23       		.byte	0x23
 1738 04ac 08       		.uleb128 0x8
 1739 04ad 06       		.uleb128 0x6
 1740 04ae 2F030000 		.4byte	.LASF67
 1741 04b2 09       		.byte	0x9
 1742 04b3 31       		.byte	0x31
 1743 04b4 BC040000 		.4byte	0x4bc
 1744 04b8 02       		.byte	0x2
 1745 04b9 23       		.byte	0x23
 1746 04ba 0C       		.uleb128 0xc
 1747 04bb 00       		.byte	0x0
 1748 04bc 09       		.uleb128 0x9
 1749 04bd 04       		.byte	0x4
 1750 04be 85040000 		.4byte	0x485
 1751 04c2 04       		.uleb128 0x4
 1752 04c3 AC010000 		.4byte	.LASF64
 1753 04c7 09       		.byte	0x9
 1754 04c8 33       		.byte	0x33
 1755 04c9 85040000 		.4byte	0x485
 1756 04cd 04       		.uleb128 0x4
 1757 04ce B3030000 		.4byte	.LASF68
 1758 04d2 0A       		.byte	0xa
 1759 04d3 2C       		.byte	0x2c
 1760 04d4 D8040000 		.4byte	0x4d8
 1761 04d8 05       		.uleb128 0x5
 1762 04d9 B3030000 		.4byte	.LASF68
 1763 04dd 10       		.byte	0x10
 1764 04de 0A       		.byte	0xa
 1765 04df 31       		.byte	0x31
 1766 04e0 1D050000 		.4byte	0x51d
 1767 04e4 06       		.uleb128 0x6
 1768 04e5 84010000 		.4byte	.LASF69
 1769 04e9 0A       		.byte	0xa
 1770 04ea 32       		.byte	0x32
 1771 04eb 1D050000 		.4byte	0x51d
 1772 04ef 02       		.byte	0x2
 1773 04f0 23       		.byte	0x23
 1774 04f1 00       		.uleb128 0x0
 1775 04f2 06       		.uleb128 0x6
 1776 04f3 6A020000 		.4byte	.LASF70
 1777 04f7 0A       		.byte	0xa
 1778 04f8 35       		.byte	0x35
 1779 04f9 5A020000 		.4byte	0x25a
 1780 04fd 02       		.byte	0x2
 1781 04fe 23       		.byte	0x23
 1782 04ff 04       		.uleb128 0x4
 1783 0500 06       		.uleb128 0x6
 1784 0501 27020000 		.4byte	.LASF71
 1785 0505 0A       		.byte	0xa
 1786 0506 37       		.byte	0x37
 1787 0507 E4000000 		.4byte	0xe4
 1788 050b 02       		.byte	0x2
 1789 050c 23       		.byte	0x23
 1790 050d 08       		.uleb128 0x8
 1791 050e 06       		.uleb128 0x6
 1792 050f 83020000 		.4byte	.LASF72
ARM GAS  C:\Users\DNIEL~1\AppData\Local\Temp\cc2JYKP2.s 			page 33


 1793 0513 0A       		.byte	0xa
 1794 0514 3A       		.byte	0x3a
 1795 0515 EF000000 		.4byte	0xef
 1796 0519 02       		.byte	0x2
 1797 051a 23       		.byte	0x23
 1798 051b 0C       		.uleb128 0xc
 1799 051c 00       		.byte	0x0
 1800 051d 09       		.uleb128 0x9
 1801 051e 04       		.byte	0x4
 1802 051f CD040000 		.4byte	0x4cd
 1803 0523 05       		.uleb128 0x5
 1804 0524 0B010000 		.4byte	.LASF73
 1805 0528 04       		.byte	0x4
 1806 0529 0A       		.byte	0xa
 1807 052a 41       		.byte	0x41
 1808 052b 3E050000 		.4byte	0x53e
 1809 052f 06       		.uleb128 0x6
 1810 0530 E6030000 		.4byte	.LASF74
 1811 0534 0A       		.byte	0xa
 1812 0535 42       		.byte	0x42
 1813 0536 1D050000 		.4byte	0x51d
 1814 053a 02       		.byte	0x2
 1815 053b 23       		.byte	0x23
 1816 053c 00       		.uleb128 0x0
 1817 053d 00       		.byte	0x0
 1818 053e 04       		.uleb128 0x4
 1819 053f 0B010000 		.4byte	.LASF73
 1820 0543 0A       		.byte	0xa
 1821 0544 45       		.byte	0x45
 1822 0545 23050000 		.4byte	0x523
 1823 0549 04       		.uleb128 0x4
 1824 054a 17010000 		.4byte	.LASF75
 1825 054e 0A       		.byte	0xa
 1826 054f 4A       		.byte	0x4a
 1827 0550 54050000 		.4byte	0x554
 1828 0554 09       		.uleb128 0x9
 1829 0555 04       		.byte	0x4
 1830 0556 5A050000 		.4byte	0x55a
 1831 055a 0D       		.uleb128 0xd
 1832 055b 01       		.byte	0x1
 1833 055c 66050000 		.4byte	0x566
 1834 0560 0E       		.uleb128 0xe
 1835 0561 D9000000 		.4byte	0xd9
 1836 0565 00       		.byte	0x0
 1837 0566 10       		.uleb128 0x10
 1838 0567 04       		.byte	0x4
 1839 0568 05       		.byte	0x5
 1840 0569 96       		.byte	0x96
 1841 056a 9B050000 		.4byte	0x59b
 1842 056e 11       		.uleb128 0x11
 1843 056f 11000000 		.4byte	.LASF76
 1844 0573 05       		.byte	0x5
 1845 0574 9D       		.byte	0x9d
 1846 0575 CE000000 		.4byte	0xce
 1847 0579 11       		.uleb128 0x11
 1848 057a 36000000 		.4byte	.LASF77
 1849 057e 05       		.byte	0x5
ARM GAS  C:\Users\DNIEL~1\AppData\Local\Temp\cc2JYKP2.s 			page 34


 1850 057f A4       		.byte	0xa4
 1851 0580 CE000000 		.4byte	0xce
 1852 0584 11       		.uleb128 0x11
 1853 0585 C1030000 		.4byte	.LASF78
 1854 0589 05       		.byte	0x5
 1855 058a AB       		.byte	0xab
 1856 058b 98020000 		.4byte	0x298
 1857 058f 11       		.uleb128 0x11
 1858 0590 C1020000 		.4byte	.LASF79
 1859 0594 05       		.byte	0x5
 1860 0595 B2       		.byte	0xb2
 1861 0596 E4000000 		.4byte	0xe4
 1862 059a 00       		.byte	0x0
 1863 059b 09       		.uleb128 0x9
 1864 059c 04       		.byte	0x4
 1865 059d A1050000 		.4byte	0x5a1
 1866 05a1 12       		.uleb128 0x12
 1867 05a2 A6050000 		.4byte	0x5a6
 1868 05a6 03       		.uleb128 0x3
 1869 05a7 01       		.byte	0x1
 1870 05a8 08       		.byte	0x8
 1871 05a9 2A030000 		.4byte	.LASF80
 1872 05ad 09       		.uleb128 0x9
 1873 05ae 04       		.byte	0x4
 1874 05af C2040000 		.4byte	0x4c2
 1875 05b3 05       		.uleb128 0x5
 1876 05b4 DE020000 		.4byte	.LASF81
 1877 05b8 10       		.byte	0x10
 1878 05b9 0B       		.byte	0xb
 1879 05ba 3B       		.byte	0x3b
 1880 05bb F8050000 		.4byte	0x5f8
 1881 05bf 06       		.uleb128 0x6
 1882 05c0 5E010000 		.4byte	.LASF82
 1883 05c4 0B       		.byte	0xb
 1884 05c5 3C       		.byte	0x3c
 1885 05c6 9B050000 		.4byte	0x59b
 1886 05ca 02       		.byte	0x2
 1887 05cb 23       		.byte	0x23
 1888 05cc 00       		.uleb128 0x0
 1889 05cd 06       		.uleb128 0x6
 1890 05ce 0F020000 		.4byte	.LASF83
 1891 05d2 0B       		.byte	0xb
 1892 05d3 3D       		.byte	0x3d
 1893 05d4 FA050000 		.4byte	0x5fa
 1894 05d8 02       		.byte	0x2
 1895 05d9 23       		.byte	0x23
 1896 05da 04       		.uleb128 0x4
 1897 05db 06       		.uleb128 0x6
 1898 05dc 4A010000 		.4byte	.LASF84
 1899 05e0 0B       		.byte	0xb
 1900 05e1 3E       		.byte	0x3e
 1901 05e2 FA050000 		.4byte	0x5fa
 1902 05e6 02       		.byte	0x2
 1903 05e7 23       		.byte	0x23
 1904 05e8 08       		.uleb128 0x8
 1905 05e9 06       		.uleb128 0x6
 1906 05ea 3E020000 		.4byte	.LASF85
ARM GAS  C:\Users\DNIEL~1\AppData\Local\Temp\cc2JYKP2.s 			page 35


 1907 05ee 0B       		.byte	0xb
 1908 05ef 3F       		.byte	0x3f
 1909 05f0 FA050000 		.4byte	0x5fa
 1910 05f4 02       		.byte	0x2
 1911 05f5 23       		.byte	0x23
 1912 05f6 0C       		.uleb128 0xc
 1913 05f7 00       		.byte	0x0
 1914 05f8 13       		.uleb128 0x13
 1915 05f9 01       		.byte	0x1
 1916 05fa 09       		.uleb128 0x9
 1917 05fb 04       		.byte	0x4
 1918 05fc F8050000 		.4byte	0x5f8
 1919 0600 14       		.uleb128 0x14
 1920 0601 76020000 		.4byte	.LASF89
 1921 0605 01       		.byte	0x1
 1922 0606 FE       		.byte	0xfe
 1923 0607 01       		.byte	0x1
 1924 0608 00000000 		.4byte	.LFB17
 1925 060c AA000000 		.4byte	.LFE17
 1926 0610 00000000 		.4byte	.LLST0
 1927 0614 26060000 		.4byte	0x626
 1928 0618 15       		.uleb128 0x15
 1929 0619 6D00     		.ascii	"m\000"
 1930 061b 01       		.byte	0x1
 1931 061c FF       		.byte	0xff
 1932 061d E4000000 		.4byte	0xe4
 1933 0621 20000000 		.4byte	.LLST1
 1934 0625 00       		.byte	0x0
 1935 0626 16       		.uleb128 0x16
 1936 0627 D9010000 		.4byte	.LASF86
 1937 062b 01       		.byte	0x1
 1938 062c F9       		.byte	0xf9
 1939 062d 01       		.byte	0x1
 1940 062e 00000000 		.4byte	.LFB16
 1941 0632 08000000 		.4byte	.LFE16
 1942 0636 02       		.byte	0x2
 1943 0637 7D       		.byte	0x7d
 1944 0638 00       		.sleb128 0
 1945 0639 16       		.uleb128 0x16
 1946 063a 00000000 		.4byte	.LASF87
 1947 063e 01       		.byte	0x1
 1948 063f 80       		.byte	0x80
 1949 0640 01       		.byte	0x1
 1950 0641 00000000 		.4byte	.LFB12
 1951 0645 08000000 		.4byte	.LFE12
 1952 0649 02       		.byte	0x2
 1953 064a 7D       		.byte	0x7d
 1954 064b 00       		.sleb128 0
 1955 064c 16       		.uleb128 0x16
 1956 064d C6010000 		.4byte	.LASF88
 1957 0651 01       		.byte	0x1
 1958 0652 4B       		.byte	0x4b
 1959 0653 01       		.byte	0x1
 1960 0654 00000000 		.4byte	.LFB7
 1961 0658 08000000 		.4byte	.LFE7
 1962 065c 02       		.byte	0x2
 1963 065d 7D       		.byte	0x7d
ARM GAS  C:\Users\DNIEL~1\AppData\Local\Temp\cc2JYKP2.s 			page 36


 1964 065e 00       		.sleb128 0
 1965 065f 14       		.uleb128 0x14
 1966 0660 46000000 		.4byte	.LASF90
 1967 0664 01       		.byte	0x1
 1968 0665 95       		.byte	0x95
 1969 0666 01       		.byte	0x1
 1970 0667 00000000 		.4byte	.LFB15
 1971 066b 88020000 		.4byte	.LFE15
 1972 066f 6A000000 		.4byte	.LLST2
 1973 0673 B0060000 		.4byte	0x6b0
 1974 0677 15       		.uleb128 0x15
 1975 0678 6D00     		.ascii	"m\000"
 1976 067a 01       		.byte	0x1
 1977 067b 96       		.byte	0x96
 1978 067c E4000000 		.4byte	0xe4
 1979 0680 97000000 		.4byte	.LLST3
 1980 0684 17       		.uleb128 0x17
 1981 0685 656C3100 		.ascii	"el1\000"
 1982 0689 01       		.byte	0x1
 1983 068a 97       		.byte	0x97
 1984 068b CD040000 		.4byte	0x4cd
 1985 068f 02       		.byte	0x2
 1986 0690 91       		.byte	0x91
 1987 0691 50       		.sleb128 -48
 1988 0692 17       		.uleb128 0x17
 1989 0693 656C3200 		.ascii	"el2\000"
 1990 0697 01       		.byte	0x1
 1991 0698 97       		.byte	0x97
 1992 0699 CD040000 		.4byte	0x4cd
 1993 069d 02       		.byte	0x2
 1994 069e 91       		.byte	0x91
 1995 069f 40       		.sleb128 -64
 1996 06a0 18       		.uleb128 0x18
 1997 06a1 B9000000 		.4byte	.LASF91
 1998 06a5 01       		.byte	0x1
 1999 06a6 98       		.byte	0x98
 2000 06a7 FA000000 		.4byte	0xfa
 2001 06ab 62010000 		.4byte	.LLST4
 2002 06af 00       		.byte	0x0
 2003 06b0 19       		.uleb128 0x19
 2004 06b1 F4010000 		.4byte	.LASF92
 2005 06b5 01       		.byte	0x1
 2006 06b6 8C       		.byte	0x8c
 2007 06b7 01       		.byte	0x1
 2008 06b8 CE000000 		.4byte	0xce
 2009 06bc 00000000 		.4byte	.LFB14
 2010 06c0 24000000 		.4byte	.LFE14
 2011 06c4 8B010000 		.4byte	.LLST5
 2012 06c8 DA060000 		.4byte	0x6da
 2013 06cc 1A       		.uleb128 0x1a
 2014 06cd 7000     		.ascii	"p\000"
 2015 06cf 01       		.byte	0x1
 2016 06d0 8C       		.byte	0x8c
 2017 06d1 98020000 		.4byte	0x298
 2018 06d5 AB010000 		.4byte	.LLST6
 2019 06d9 00       		.byte	0x0
 2020 06da 19       		.uleb128 0x19
ARM GAS  C:\Users\DNIEL~1\AppData\Local\Temp\cc2JYKP2.s 			page 37


 2021 06db EC010000 		.4byte	.LASF93
 2022 06df 01       		.byte	0x1
 2023 06e0 85       		.byte	0x85
 2024 06e1 01       		.byte	0x1
 2025 06e2 CE000000 		.4byte	0xce
 2026 06e6 00000000 		.4byte	.LFB13
 2027 06ea 16000000 		.4byte	.LFE13
 2028 06ee BE010000 		.4byte	.LLST7
 2029 06f2 04070000 		.4byte	0x704
 2030 06f6 1A       		.uleb128 0x1a
 2031 06f7 7000     		.ascii	"p\000"
 2032 06f9 01       		.byte	0x1
 2033 06fa 85       		.byte	0x85
 2034 06fb 98020000 		.4byte	0x298
 2035 06ff DE010000 		.4byte	.LLST8
 2036 0703 00       		.byte	0x0
 2037 0704 14       		.uleb128 0x14
 2038 0705 FD030000 		.4byte	.LASF94
 2039 0709 01       		.byte	0x1
 2040 070a 55       		.byte	0x55
 2041 070b 01       		.byte	0x1
 2042 070c 00000000 		.4byte	.LFB11
 2043 0710 88000000 		.4byte	.LFE11
 2044 0714 FC010000 		.4byte	.LLST9
 2045 0718 39070000 		.4byte	0x739
 2046 071c 17       		.uleb128 0x17
 2047 071d 656C3100 		.ascii	"el1\000"
 2048 0721 01       		.byte	0x1
 2049 0722 56       		.byte	0x56
 2050 0723 CD040000 		.4byte	0x4cd
 2051 0727 02       		.byte	0x2
 2052 0728 91       		.byte	0x91
 2053 0729 68       		.sleb128 -24
 2054 072a 17       		.uleb128 0x17
 2055 072b 656C3200 		.ascii	"el2\000"
 2056 072f 01       		.byte	0x1
 2057 0730 56       		.byte	0x56
 2058 0731 CD040000 		.4byte	0x4cd
 2059 0735 02       		.byte	0x2
 2060 0736 91       		.byte	0x91
 2061 0737 58       		.sleb128 -40
 2062 0738 00       		.byte	0x0
 2063 0739 1B       		.uleb128 0x1b
 2064 073a 683300   		.ascii	"h3\000"
 2065 073d 01       		.byte	0x1
 2066 073e 52       		.byte	0x52
 2067 073f 01       		.byte	0x1
 2068 0740 00000000 		.4byte	.LFB10
 2069 0744 06000000 		.4byte	.LFE10
 2070 0748 02       		.byte	0x2
 2071 0749 7D       		.byte	0x7d
 2072 074a 00       		.sleb128 0
 2073 074b 5E070000 		.4byte	0x75e
 2074 074f 1A       		.uleb128 0x1a
 2075 0750 696400   		.ascii	"id\000"
 2076 0753 01       		.byte	0x1
 2077 0754 52       		.byte	0x52
ARM GAS  C:\Users\DNIEL~1\AppData\Local\Temp\cc2JYKP2.s 			page 38


 2078 0755 D9000000 		.4byte	0xd9
 2079 0759 28020000 		.4byte	.LLST10
 2080 075d 00       		.byte	0x0
 2081 075e 1B       		.uleb128 0x1b
 2082 075f 683200   		.ascii	"h2\000"
 2083 0762 01       		.byte	0x1
 2084 0763 51       		.byte	0x51
 2085 0764 01       		.byte	0x1
 2086 0765 00000000 		.4byte	.LFB9
 2087 0769 06000000 		.4byte	.LFE9
 2088 076d 02       		.byte	0x2
 2089 076e 7D       		.byte	0x7d
 2090 076f 00       		.sleb128 0
 2091 0770 83070000 		.4byte	0x783
 2092 0774 1A       		.uleb128 0x1a
 2093 0775 696400   		.ascii	"id\000"
 2094 0778 01       		.byte	0x1
 2095 0779 51       		.byte	0x51
 2096 077a D9000000 		.4byte	0xd9
 2097 077e 3B020000 		.4byte	.LLST11
 2098 0782 00       		.byte	0x0
 2099 0783 1B       		.uleb128 0x1b
 2100 0784 683100   		.ascii	"h1\000"
 2101 0787 01       		.byte	0x1
 2102 0788 50       		.byte	0x50
 2103 0789 01       		.byte	0x1
 2104 078a 00000000 		.4byte	.LFB8
 2105 078e 06000000 		.4byte	.LFE8
 2106 0792 02       		.byte	0x2
 2107 0793 7D       		.byte	0x7d
 2108 0794 00       		.sleb128 0
 2109 0795 A8070000 		.4byte	0x7a8
 2110 0799 1A       		.uleb128 0x1a
 2111 079a 696400   		.ascii	"id\000"
 2112 079d 01       		.byte	0x1
 2113 079e 50       		.byte	0x50
 2114 079f D9000000 		.4byte	0xd9
 2115 07a3 4E020000 		.4byte	.LLST12
 2116 07a7 00       		.byte	0x0
 2117 07a8 1C       		.uleb128 0x1c
 2118 07a9 18000000 		.4byte	.LASF95
 2119 07ad 07       		.byte	0x7
 2120 07ae F5       		.byte	0xf5
 2121 07af 12040000 		.4byte	0x412
 2122 07b3 01       		.byte	0x1
 2123 07b4 01       		.byte	0x1
 2124 07b5 1C       		.uleb128 0x1c
 2125 07b6 A5030000 		.4byte	.LASF96
 2126 07ba 08       		.byte	0x8
 2127 07bb 6F       		.byte	0x6f
 2128 07bc 7A040000 		.4byte	0x47a
 2129 07c0 01       		.byte	0x1
 2130 07c1 01       		.byte	0x1
 2131 07c2 1D       		.uleb128 0x1d
 2132 07c3 5A020000 		.4byte	0x25a
 2133 07c7 D2070000 		.4byte	0x7d2
 2134 07cb 1E       		.uleb128 0x1e
ARM GAS  C:\Users\DNIEL~1\AppData\Local\Temp\cc2JYKP2.s 			page 39


 2135 07cc 30000000 		.4byte	0x30
 2136 07d0 04       		.byte	0x4
 2137 07d1 00       		.byte	0x0
 2138 07d2 1C       		.uleb128 0x1c
 2139 07d3 B2020000 		.4byte	.LASF97
 2140 07d7 0B       		.byte	0xb
 2141 07d8 A5       		.byte	0xa5
 2142 07d9 C2070000 		.4byte	0x7c2
 2143 07dd 01       		.byte	0x1
 2144 07de 01       		.byte	0x1
 2145 07df 1D       		.uleb128 0x1d
 2146 07e0 98020000 		.4byte	0x298
 2147 07e4 EA070000 		.4byte	0x7ea
 2148 07e8 1F       		.uleb128 0x1f
 2149 07e9 00       		.byte	0x0
 2150 07ea 20       		.uleb128 0x20
 2151 07eb 776100   		.ascii	"wa\000"
 2152 07ee 0B       		.byte	0xb
 2153 07ef A7       		.byte	0xa7
 2154 07f0 F6070000 		.4byte	0x7f6
 2155 07f4 01       		.byte	0x1
 2156 07f5 01       		.byte	0x1
 2157 07f6 12       		.uleb128 0x12
 2158 07f7 DF070000 		.4byte	0x7df
 2159 07fb 17       		.uleb128 0x17
 2160 07fc 65733100 		.ascii	"es1\000"
 2161 0800 01       		.byte	0x1
 2162 0801 3B       		.byte	0x3b
 2163 0802 3E050000 		.4byte	0x53e
 2164 0806 05       		.byte	0x5
 2165 0807 03       		.byte	0x3
 2166 0808 00000000 		.4byte	es1
 2167 080c 17       		.uleb128 0x17
 2168 080d 65733200 		.ascii	"es2\000"
 2169 0811 01       		.byte	0x1
 2170 0812 3C       		.byte	0x3c
 2171 0813 3E050000 		.4byte	0x53e
 2172 0817 05       		.byte	0x5
 2173 0818 03       		.byte	0x3
 2174 0819 00000000 		.4byte	es2
 2175 081d 1D       		.uleb128 0x1d
 2176 081e 49050000 		.4byte	0x549
 2177 0822 2D080000 		.4byte	0x82d
 2178 0826 1E       		.uleb128 0x1e
 2179 0827 30000000 		.4byte	0x30
 2180 082b 02       		.byte	0x2
 2181 082c 00       		.byte	0x0
 2182 082d 21       		.uleb128 0x21
 2183 082e FB020000 		.4byte	.LASF98
 2184 0832 01       		.byte	0x1
 2185 0833 53       		.byte	0x53
 2186 0834 3E080000 		.4byte	0x83e
 2187 0838 05       		.byte	0x5
 2188 0839 03       		.byte	0x3
 2189 083a 00000000 		.4byte	evhndl
 2190 083e 12       		.uleb128 0x12
 2191 083f 1D080000 		.4byte	0x81d
ARM GAS  C:\Users\DNIEL~1\AppData\Local\Temp\cc2JYKP2.s 			page 40


 2192 0843 1C       		.uleb128 0x1c
 2193 0844 F2020000 		.4byte	.LASF99
 2194 0848 01       		.byte	0x1
 2195 0849 6B       		.byte	0x6b
 2196 084a 50080000 		.4byte	0x850
 2197 084e 01       		.byte	0x1
 2198 084f 01       		.byte	0x1
 2199 0850 12       		.uleb128 0x12
 2200 0851 B3050000 		.4byte	0x5b3
 2201 0855 1C       		.uleb128 0x1c
 2202 0856 CE000000 		.4byte	.LASF100
 2203 085a 01       		.byte	0x1
 2204 085b E2       		.byte	0xe2
 2205 085c 50080000 		.4byte	0x850
 2206 0860 01       		.byte	0x1
 2207 0861 01       		.byte	0x1
 2208 0862 22       		.uleb128 0x22
 2209 0863 D7000000 		.4byte	.LASF101
 2210 0867 01       		.byte	0x1
 2211 0868 1201     		.2byte	0x112
 2212 086a 50080000 		.4byte	0x850
 2213 086e 01       		.byte	0x1
 2214 086f 01       		.byte	0x1
 2215 0870 1C       		.uleb128 0x1c
 2216 0871 18000000 		.4byte	.LASF95
 2217 0875 07       		.byte	0x7
 2218 0876 F5       		.byte	0xf5
 2219 0877 12040000 		.4byte	0x412
 2220 087b 01       		.byte	0x1
 2221 087c 01       		.byte	0x1
 2222 087d 1C       		.uleb128 0x1c
 2223 087e A5030000 		.4byte	.LASF96
 2224 0882 08       		.byte	0x8
 2225 0883 6F       		.byte	0x6f
 2226 0884 7A040000 		.4byte	0x47a
 2227 0888 01       		.byte	0x1
 2228 0889 01       		.byte	0x1
 2229 088a 1C       		.uleb128 0x1c
 2230 088b B2020000 		.4byte	.LASF97
 2231 088f 0B       		.byte	0xb
 2232 0890 A5       		.byte	0xa5
 2233 0891 C2070000 		.4byte	0x7c2
 2234 0895 01       		.byte	0x1
 2235 0896 01       		.byte	0x1
 2236 0897 20       		.uleb128 0x20
 2237 0898 776100   		.ascii	"wa\000"
 2238 089b 0B       		.byte	0xb
 2239 089c A7       		.byte	0xa7
 2240 089d A3080000 		.4byte	0x8a3
 2241 08a1 01       		.byte	0x1
 2242 08a2 01       		.byte	0x1
 2243 08a3 12       		.uleb128 0x12
 2244 08a4 DF070000 		.4byte	0x7df
 2245 08a8 23       		.uleb128 0x23
 2246 08a9 F2020000 		.4byte	.LASF99
 2247 08ad 01       		.byte	0x1
 2248 08ae 6B       		.byte	0x6b
ARM GAS  C:\Users\DNIEL~1\AppData\Local\Temp\cc2JYKP2.s 			page 41


 2249 08af 50080000 		.4byte	0x850
 2250 08b3 01       		.byte	0x1
 2251 08b4 05       		.byte	0x5
 2252 08b5 03       		.byte	0x3
 2253 08b6 00000000 		.4byte	testevt1
 2254 08ba 23       		.uleb128 0x23
 2255 08bb CE000000 		.4byte	.LASF100
 2256 08bf 01       		.byte	0x1
 2257 08c0 E2       		.byte	0xe2
 2258 08c1 50080000 		.4byte	0x850
 2259 08c5 01       		.byte	0x1
 2260 08c6 05       		.byte	0x5
 2261 08c7 03       		.byte	0x3
 2262 08c8 00000000 		.4byte	testevt2
 2263 08cc 24       		.uleb128 0x24
 2264 08cd D7000000 		.4byte	.LASF101
 2265 08d1 01       		.byte	0x1
 2266 08d2 1201     		.2byte	0x112
 2267 08d4 50080000 		.4byte	0x850
 2268 08d8 01       		.byte	0x1
 2269 08d9 05       		.byte	0x5
 2270 08da 03       		.byte	0x3
 2271 08db 00000000 		.4byte	testevt3
 2272 08df 1D       		.uleb128 0x1d
 2273 08e0 EF080000 		.4byte	0x8ef
 2274 08e4 EF080000 		.4byte	0x8ef
 2275 08e8 1E       		.uleb128 0x1e
 2276 08e9 30000000 		.4byte	0x30
 2277 08ed 03       		.byte	0x3
 2278 08ee 00       		.byte	0x0
 2279 08ef 09       		.uleb128 0x9
 2280 08f0 04       		.byte	0x4
 2281 08f1 50080000 		.4byte	0x850
 2282 08f5 24       		.uleb128 0x24
 2283 08f6 53010000 		.4byte	.LASF102
 2284 08fa 01       		.byte	0x1
 2285 08fb 1D01     		.2byte	0x11d
 2286 08fd 08090000 		.4byte	0x908
 2287 0901 01       		.byte	0x1
 2288 0902 05       		.byte	0x5
 2289 0903 03       		.byte	0x3
 2290 0904 00000000 		.4byte	patternevt
 2291 0908 12       		.uleb128 0x12
 2292 0909 DF080000 		.4byte	0x8df
 2293 090d 00       		.byte	0x0
 2294              		.section	.debug_abbrev
 2295 0000 01       		.uleb128 0x1
 2296 0001 11       		.uleb128 0x11
 2297 0002 01       		.byte	0x1
 2298 0003 25       		.uleb128 0x25
 2299 0004 0E       		.uleb128 0xe
 2300 0005 13       		.uleb128 0x13
 2301 0006 0B       		.uleb128 0xb
 2302 0007 03       		.uleb128 0x3
 2303 0008 0E       		.uleb128 0xe
 2304 0009 1B       		.uleb128 0x1b
 2305 000a 0E       		.uleb128 0xe
ARM GAS  C:\Users\DNIEL~1\AppData\Local\Temp\cc2JYKP2.s 			page 42


 2306 000b 11       		.uleb128 0x11
 2307 000c 01       		.uleb128 0x1
 2308 000d 52       		.uleb128 0x52
 2309 000e 01       		.uleb128 0x1
 2310 000f 55       		.uleb128 0x55
 2311 0010 06       		.uleb128 0x6
 2312 0011 10       		.uleb128 0x10
 2313 0012 06       		.uleb128 0x6
 2314 0013 00       		.byte	0x0
 2315 0014 00       		.byte	0x0
 2316 0015 02       		.uleb128 0x2
 2317 0016 24       		.uleb128 0x24
 2318 0017 00       		.byte	0x0
 2319 0018 0B       		.uleb128 0xb
 2320 0019 0B       		.uleb128 0xb
 2321 001a 3E       		.uleb128 0x3e
 2322 001b 0B       		.uleb128 0xb
 2323 001c 03       		.uleb128 0x3
 2324 001d 08       		.uleb128 0x8
 2325 001e 00       		.byte	0x0
 2326 001f 00       		.byte	0x0
 2327 0020 03       		.uleb128 0x3
 2328 0021 24       		.uleb128 0x24
 2329 0022 00       		.byte	0x0
 2330 0023 0B       		.uleb128 0xb
 2331 0024 0B       		.uleb128 0xb
 2332 0025 3E       		.uleb128 0x3e
 2333 0026 0B       		.uleb128 0xb
 2334 0027 03       		.uleb128 0x3
 2335 0028 0E       		.uleb128 0xe
 2336 0029 00       		.byte	0x0
 2337 002a 00       		.byte	0x0
 2338 002b 04       		.uleb128 0x4
 2339 002c 16       		.uleb128 0x16
 2340 002d 00       		.byte	0x0
 2341 002e 03       		.uleb128 0x3
 2342 002f 0E       		.uleb128 0xe
 2343 0030 3A       		.uleb128 0x3a
 2344 0031 0B       		.uleb128 0xb
 2345 0032 3B       		.uleb128 0x3b
 2346 0033 0B       		.uleb128 0xb
 2347 0034 49       		.uleb128 0x49
 2348 0035 13       		.uleb128 0x13
 2349 0036 00       		.byte	0x0
 2350 0037 00       		.byte	0x0
 2351 0038 05       		.uleb128 0x5
 2352 0039 13       		.uleb128 0x13
 2353 003a 01       		.byte	0x1
 2354 003b 03       		.uleb128 0x3
 2355 003c 0E       		.uleb128 0xe
 2356 003d 0B       		.uleb128 0xb
 2357 003e 0B       		.uleb128 0xb
 2358 003f 3A       		.uleb128 0x3a
 2359 0040 0B       		.uleb128 0xb
 2360 0041 3B       		.uleb128 0x3b
 2361 0042 0B       		.uleb128 0xb
 2362 0043 01       		.uleb128 0x1
ARM GAS  C:\Users\DNIEL~1\AppData\Local\Temp\cc2JYKP2.s 			page 43


 2363 0044 13       		.uleb128 0x13
 2364 0045 00       		.byte	0x0
 2365 0046 00       		.byte	0x0
 2366 0047 06       		.uleb128 0x6
 2367 0048 0D       		.uleb128 0xd
 2368 0049 00       		.byte	0x0
 2369 004a 03       		.uleb128 0x3
 2370 004b 0E       		.uleb128 0xe
 2371 004c 3A       		.uleb128 0x3a
 2372 004d 0B       		.uleb128 0xb
 2373 004e 3B       		.uleb128 0x3b
 2374 004f 0B       		.uleb128 0xb
 2375 0050 49       		.uleb128 0x49
 2376 0051 13       		.uleb128 0x13
 2377 0052 38       		.uleb128 0x38
 2378 0053 0A       		.uleb128 0xa
 2379 0054 00       		.byte	0x0
 2380 0055 00       		.byte	0x0
 2381 0056 07       		.uleb128 0x7
 2382 0057 0D       		.uleb128 0xd
 2383 0058 00       		.byte	0x0
 2384 0059 03       		.uleb128 0x3
 2385 005a 08       		.uleb128 0x8
 2386 005b 3A       		.uleb128 0x3a
 2387 005c 0B       		.uleb128 0xb
 2388 005d 3B       		.uleb128 0x3b
 2389 005e 0B       		.uleb128 0xb
 2390 005f 49       		.uleb128 0x49
 2391 0060 13       		.uleb128 0x13
 2392 0061 38       		.uleb128 0x38
 2393 0062 0A       		.uleb128 0xa
 2394 0063 00       		.byte	0x0
 2395 0064 00       		.byte	0x0
 2396 0065 08       		.uleb128 0x8
 2397 0066 13       		.uleb128 0x13
 2398 0067 01       		.byte	0x1
 2399 0068 0B       		.uleb128 0xb
 2400 0069 0B       		.uleb128 0xb
 2401 006a 3A       		.uleb128 0x3a
 2402 006b 0B       		.uleb128 0xb
 2403 006c 3B       		.uleb128 0x3b
 2404 006d 0B       		.uleb128 0xb
 2405 006e 01       		.uleb128 0x1
 2406 006f 13       		.uleb128 0x13
 2407 0070 00       		.byte	0x0
 2408 0071 00       		.byte	0x0
 2409 0072 09       		.uleb128 0x9
 2410 0073 0F       		.uleb128 0xf
 2411 0074 00       		.byte	0x0
 2412 0075 0B       		.uleb128 0xb
 2413 0076 0B       		.uleb128 0xb
 2414 0077 49       		.uleb128 0x49
 2415 0078 13       		.uleb128 0x13
 2416 0079 00       		.byte	0x0
 2417 007a 00       		.byte	0x0
 2418 007b 0A       		.uleb128 0xa
 2419 007c 0F       		.uleb128 0xf
ARM GAS  C:\Users\DNIEL~1\AppData\Local\Temp\cc2JYKP2.s 			page 44


 2420 007d 00       		.byte	0x0
 2421 007e 0B       		.uleb128 0xb
 2422 007f 0B       		.uleb128 0xb
 2423 0080 00       		.byte	0x0
 2424 0081 00       		.byte	0x0
 2425 0082 0B       		.uleb128 0xb
 2426 0083 13       		.uleb128 0x13
 2427 0084 01       		.byte	0x1
 2428 0085 03       		.uleb128 0x3
 2429 0086 0E       		.uleb128 0xe
 2430 0087 0B       		.uleb128 0xb
 2431 0088 0B       		.uleb128 0xb
 2432 0089 3A       		.uleb128 0x3a
 2433 008a 0B       		.uleb128 0xb
 2434 008b 3B       		.uleb128 0x3b
 2435 008c 05       		.uleb128 0x5
 2436 008d 01       		.uleb128 0x1
 2437 008e 13       		.uleb128 0x13
 2438 008f 00       		.byte	0x0
 2439 0090 00       		.byte	0x0
 2440 0091 0C       		.uleb128 0xc
 2441 0092 0D       		.uleb128 0xd
 2442 0093 00       		.byte	0x0
 2443 0094 03       		.uleb128 0x3
 2444 0095 08       		.uleb128 0x8
 2445 0096 3A       		.uleb128 0x3a
 2446 0097 0B       		.uleb128 0xb
 2447 0098 3B       		.uleb128 0x3b
 2448 0099 05       		.uleb128 0x5
 2449 009a 49       		.uleb128 0x49
 2450 009b 13       		.uleb128 0x13
 2451 009c 38       		.uleb128 0x38
 2452 009d 0A       		.uleb128 0xa
 2453 009e 00       		.byte	0x0
 2454 009f 00       		.byte	0x0
 2455 00a0 0D       		.uleb128 0xd
 2456 00a1 15       		.uleb128 0x15
 2457 00a2 01       		.byte	0x1
 2458 00a3 27       		.uleb128 0x27
 2459 00a4 0C       		.uleb128 0xc
 2460 00a5 01       		.uleb128 0x1
 2461 00a6 13       		.uleb128 0x13
 2462 00a7 00       		.byte	0x0
 2463 00a8 00       		.byte	0x0
 2464 00a9 0E       		.uleb128 0xe
 2465 00aa 05       		.uleb128 0x5
 2466 00ab 00       		.byte	0x0
 2467 00ac 49       		.uleb128 0x49
 2468 00ad 13       		.uleb128 0x13
 2469 00ae 00       		.byte	0x0
 2470 00af 00       		.byte	0x0
 2471 00b0 0F       		.uleb128 0xf
 2472 00b1 35       		.uleb128 0x35
 2473 00b2 00       		.byte	0x0
 2474 00b3 49       		.uleb128 0x49
 2475 00b4 13       		.uleb128 0x13
 2476 00b5 00       		.byte	0x0
ARM GAS  C:\Users\DNIEL~1\AppData\Local\Temp\cc2JYKP2.s 			page 45


 2477 00b6 00       		.byte	0x0
 2478 00b7 10       		.uleb128 0x10
 2479 00b8 17       		.uleb128 0x17
 2480 00b9 01       		.byte	0x1
 2481 00ba 0B       		.uleb128 0xb
 2482 00bb 0B       		.uleb128 0xb
 2483 00bc 3A       		.uleb128 0x3a
 2484 00bd 0B       		.uleb128 0xb
 2485 00be 3B       		.uleb128 0x3b
 2486 00bf 0B       		.uleb128 0xb
 2487 00c0 01       		.uleb128 0x1
 2488 00c1 13       		.uleb128 0x13
 2489 00c2 00       		.byte	0x0
 2490 00c3 00       		.byte	0x0
 2491 00c4 11       		.uleb128 0x11
 2492 00c5 0D       		.uleb128 0xd
 2493 00c6 00       		.byte	0x0
 2494 00c7 03       		.uleb128 0x3
 2495 00c8 0E       		.uleb128 0xe
 2496 00c9 3A       		.uleb128 0x3a
 2497 00ca 0B       		.uleb128 0xb
 2498 00cb 3B       		.uleb128 0x3b
 2499 00cc 0B       		.uleb128 0xb
 2500 00cd 49       		.uleb128 0x49
 2501 00ce 13       		.uleb128 0x13
 2502 00cf 00       		.byte	0x0
 2503 00d0 00       		.byte	0x0
 2504 00d1 12       		.uleb128 0x12
 2505 00d2 26       		.uleb128 0x26
 2506 00d3 00       		.byte	0x0
 2507 00d4 49       		.uleb128 0x49
 2508 00d5 13       		.uleb128 0x13
 2509 00d6 00       		.byte	0x0
 2510 00d7 00       		.byte	0x0
 2511 00d8 13       		.uleb128 0x13
 2512 00d9 15       		.uleb128 0x15
 2513 00da 00       		.byte	0x0
 2514 00db 27       		.uleb128 0x27
 2515 00dc 0C       		.uleb128 0xc
 2516 00dd 00       		.byte	0x0
 2517 00de 00       		.byte	0x0
 2518 00df 14       		.uleb128 0x14
 2519 00e0 2E       		.uleb128 0x2e
 2520 00e1 01       		.byte	0x1
 2521 00e2 03       		.uleb128 0x3
 2522 00e3 0E       		.uleb128 0xe
 2523 00e4 3A       		.uleb128 0x3a
 2524 00e5 0B       		.uleb128 0xb
 2525 00e6 3B       		.uleb128 0x3b
 2526 00e7 0B       		.uleb128 0xb
 2527 00e8 27       		.uleb128 0x27
 2528 00e9 0C       		.uleb128 0xc
 2529 00ea 11       		.uleb128 0x11
 2530 00eb 01       		.uleb128 0x1
 2531 00ec 12       		.uleb128 0x12
 2532 00ed 01       		.uleb128 0x1
 2533 00ee 40       		.uleb128 0x40
ARM GAS  C:\Users\DNIEL~1\AppData\Local\Temp\cc2JYKP2.s 			page 46


 2534 00ef 06       		.uleb128 0x6
 2535 00f0 01       		.uleb128 0x1
 2536 00f1 13       		.uleb128 0x13
 2537 00f2 00       		.byte	0x0
 2538 00f3 00       		.byte	0x0
 2539 00f4 15       		.uleb128 0x15
 2540 00f5 34       		.uleb128 0x34
 2541 00f6 00       		.byte	0x0
 2542 00f7 03       		.uleb128 0x3
 2543 00f8 08       		.uleb128 0x8
 2544 00f9 3A       		.uleb128 0x3a
 2545 00fa 0B       		.uleb128 0xb
 2546 00fb 3B       		.uleb128 0x3b
 2547 00fc 0B       		.uleb128 0xb
 2548 00fd 49       		.uleb128 0x49
 2549 00fe 13       		.uleb128 0x13
 2550 00ff 02       		.uleb128 0x2
 2551 0100 06       		.uleb128 0x6
 2552 0101 00       		.byte	0x0
 2553 0102 00       		.byte	0x0
 2554 0103 16       		.uleb128 0x16
 2555 0104 2E       		.uleb128 0x2e
 2556 0105 00       		.byte	0x0
 2557 0106 03       		.uleb128 0x3
 2558 0107 0E       		.uleb128 0xe
 2559 0108 3A       		.uleb128 0x3a
 2560 0109 0B       		.uleb128 0xb
 2561 010a 3B       		.uleb128 0x3b
 2562 010b 0B       		.uleb128 0xb
 2563 010c 27       		.uleb128 0x27
 2564 010d 0C       		.uleb128 0xc
 2565 010e 11       		.uleb128 0x11
 2566 010f 01       		.uleb128 0x1
 2567 0110 12       		.uleb128 0x12
 2568 0111 01       		.uleb128 0x1
 2569 0112 40       		.uleb128 0x40
 2570 0113 0A       		.uleb128 0xa
 2571 0114 00       		.byte	0x0
 2572 0115 00       		.byte	0x0
 2573 0116 17       		.uleb128 0x17
 2574 0117 34       		.uleb128 0x34
 2575 0118 00       		.byte	0x0
 2576 0119 03       		.uleb128 0x3
 2577 011a 08       		.uleb128 0x8
 2578 011b 3A       		.uleb128 0x3a
 2579 011c 0B       		.uleb128 0xb
 2580 011d 3B       		.uleb128 0x3b
 2581 011e 0B       		.uleb128 0xb
 2582 011f 49       		.uleb128 0x49
 2583 0120 13       		.uleb128 0x13
 2584 0121 02       		.uleb128 0x2
 2585 0122 0A       		.uleb128 0xa
 2586 0123 00       		.byte	0x0
 2587 0124 00       		.byte	0x0
 2588 0125 18       		.uleb128 0x18
 2589 0126 34       		.uleb128 0x34
 2590 0127 00       		.byte	0x0
ARM GAS  C:\Users\DNIEL~1\AppData\Local\Temp\cc2JYKP2.s 			page 47


 2591 0128 03       		.uleb128 0x3
 2592 0129 0E       		.uleb128 0xe
 2593 012a 3A       		.uleb128 0x3a
 2594 012b 0B       		.uleb128 0xb
 2595 012c 3B       		.uleb128 0x3b
 2596 012d 0B       		.uleb128 0xb
 2597 012e 49       		.uleb128 0x49
 2598 012f 13       		.uleb128 0x13
 2599 0130 02       		.uleb128 0x2
 2600 0131 06       		.uleb128 0x6
 2601 0132 00       		.byte	0x0
 2602 0133 00       		.byte	0x0
 2603 0134 19       		.uleb128 0x19
 2604 0135 2E       		.uleb128 0x2e
 2605 0136 01       		.byte	0x1
 2606 0137 03       		.uleb128 0x3
 2607 0138 0E       		.uleb128 0xe
 2608 0139 3A       		.uleb128 0x3a
 2609 013a 0B       		.uleb128 0xb
 2610 013b 3B       		.uleb128 0x3b
 2611 013c 0B       		.uleb128 0xb
 2612 013d 27       		.uleb128 0x27
 2613 013e 0C       		.uleb128 0xc
 2614 013f 49       		.uleb128 0x49
 2615 0140 13       		.uleb128 0x13
 2616 0141 11       		.uleb128 0x11
 2617 0142 01       		.uleb128 0x1
 2618 0143 12       		.uleb128 0x12
 2619 0144 01       		.uleb128 0x1
 2620 0145 40       		.uleb128 0x40
 2621 0146 06       		.uleb128 0x6
 2622 0147 01       		.uleb128 0x1
 2623 0148 13       		.uleb128 0x13
 2624 0149 00       		.byte	0x0
 2625 014a 00       		.byte	0x0
 2626 014b 1A       		.uleb128 0x1a
 2627 014c 05       		.uleb128 0x5
 2628 014d 00       		.byte	0x0
 2629 014e 03       		.uleb128 0x3
 2630 014f 08       		.uleb128 0x8
 2631 0150 3A       		.uleb128 0x3a
 2632 0151 0B       		.uleb128 0xb
 2633 0152 3B       		.uleb128 0x3b
 2634 0153 0B       		.uleb128 0xb
 2635 0154 49       		.uleb128 0x49
 2636 0155 13       		.uleb128 0x13
 2637 0156 02       		.uleb128 0x2
 2638 0157 06       		.uleb128 0x6
 2639 0158 00       		.byte	0x0
 2640 0159 00       		.byte	0x0
 2641 015a 1B       		.uleb128 0x1b
 2642 015b 2E       		.uleb128 0x2e
 2643 015c 01       		.byte	0x1
 2644 015d 03       		.uleb128 0x3
 2645 015e 08       		.uleb128 0x8
 2646 015f 3A       		.uleb128 0x3a
 2647 0160 0B       		.uleb128 0xb
ARM GAS  C:\Users\DNIEL~1\AppData\Local\Temp\cc2JYKP2.s 			page 48


 2648 0161 3B       		.uleb128 0x3b
 2649 0162 0B       		.uleb128 0xb
 2650 0163 27       		.uleb128 0x27
 2651 0164 0C       		.uleb128 0xc
 2652 0165 11       		.uleb128 0x11
 2653 0166 01       		.uleb128 0x1
 2654 0167 12       		.uleb128 0x12
 2655 0168 01       		.uleb128 0x1
 2656 0169 40       		.uleb128 0x40
 2657 016a 0A       		.uleb128 0xa
 2658 016b 01       		.uleb128 0x1
 2659 016c 13       		.uleb128 0x13
 2660 016d 00       		.byte	0x0
 2661 016e 00       		.byte	0x0
 2662 016f 1C       		.uleb128 0x1c
 2663 0170 34       		.uleb128 0x34
 2664 0171 00       		.byte	0x0
 2665 0172 03       		.uleb128 0x3
 2666 0173 0E       		.uleb128 0xe
 2667 0174 3A       		.uleb128 0x3a
 2668 0175 0B       		.uleb128 0xb
 2669 0176 3B       		.uleb128 0x3b
 2670 0177 0B       		.uleb128 0xb
 2671 0178 49       		.uleb128 0x49
 2672 0179 13       		.uleb128 0x13
 2673 017a 3F       		.uleb128 0x3f
 2674 017b 0C       		.uleb128 0xc
 2675 017c 3C       		.uleb128 0x3c
 2676 017d 0C       		.uleb128 0xc
 2677 017e 00       		.byte	0x0
 2678 017f 00       		.byte	0x0
 2679 0180 1D       		.uleb128 0x1d
 2680 0181 01       		.uleb128 0x1
 2681 0182 01       		.byte	0x1
 2682 0183 49       		.uleb128 0x49
 2683 0184 13       		.uleb128 0x13
 2684 0185 01       		.uleb128 0x1
 2685 0186 13       		.uleb128 0x13
 2686 0187 00       		.byte	0x0
 2687 0188 00       		.byte	0x0
 2688 0189 1E       		.uleb128 0x1e
 2689 018a 21       		.uleb128 0x21
 2690 018b 00       		.byte	0x0
 2691 018c 49       		.uleb128 0x49
 2692 018d 13       		.uleb128 0x13
 2693 018e 2F       		.uleb128 0x2f
 2694 018f 0B       		.uleb128 0xb
 2695 0190 00       		.byte	0x0
 2696 0191 00       		.byte	0x0
 2697 0192 1F       		.uleb128 0x1f
 2698 0193 21       		.uleb128 0x21
 2699 0194 00       		.byte	0x0
 2700 0195 00       		.byte	0x0
 2701 0196 00       		.byte	0x0
 2702 0197 20       		.uleb128 0x20
 2703 0198 34       		.uleb128 0x34
 2704 0199 00       		.byte	0x0
ARM GAS  C:\Users\DNIEL~1\AppData\Local\Temp\cc2JYKP2.s 			page 49


 2705 019a 03       		.uleb128 0x3
 2706 019b 08       		.uleb128 0x8
 2707 019c 3A       		.uleb128 0x3a
 2708 019d 0B       		.uleb128 0xb
 2709 019e 3B       		.uleb128 0x3b
 2710 019f 0B       		.uleb128 0xb
 2711 01a0 49       		.uleb128 0x49
 2712 01a1 13       		.uleb128 0x13
 2713 01a2 3F       		.uleb128 0x3f
 2714 01a3 0C       		.uleb128 0xc
 2715 01a4 3C       		.uleb128 0x3c
 2716 01a5 0C       		.uleb128 0xc
 2717 01a6 00       		.byte	0x0
 2718 01a7 00       		.byte	0x0
 2719 01a8 21       		.uleb128 0x21
 2720 01a9 34       		.uleb128 0x34
 2721 01aa 00       		.byte	0x0
 2722 01ab 03       		.uleb128 0x3
 2723 01ac 0E       		.uleb128 0xe
 2724 01ad 3A       		.uleb128 0x3a
 2725 01ae 0B       		.uleb128 0xb
 2726 01af 3B       		.uleb128 0x3b
 2727 01b0 0B       		.uleb128 0xb
 2728 01b1 49       		.uleb128 0x49
 2729 01b2 13       		.uleb128 0x13
 2730 01b3 02       		.uleb128 0x2
 2731 01b4 0A       		.uleb128 0xa
 2732 01b5 00       		.byte	0x0
 2733 01b6 00       		.byte	0x0
 2734 01b7 22       		.uleb128 0x22
 2735 01b8 34       		.uleb128 0x34
 2736 01b9 00       		.byte	0x0
 2737 01ba 03       		.uleb128 0x3
 2738 01bb 0E       		.uleb128 0xe
 2739 01bc 3A       		.uleb128 0x3a
 2740 01bd 0B       		.uleb128 0xb
 2741 01be 3B       		.uleb128 0x3b
 2742 01bf 05       		.uleb128 0x5
 2743 01c0 49       		.uleb128 0x49
 2744 01c1 13       		.uleb128 0x13
 2745 01c2 3F       		.uleb128 0x3f
 2746 01c3 0C       		.uleb128 0xc
 2747 01c4 3C       		.uleb128 0x3c
 2748 01c5 0C       		.uleb128 0xc
 2749 01c6 00       		.byte	0x0
 2750 01c7 00       		.byte	0x0
 2751 01c8 23       		.uleb128 0x23
 2752 01c9 34       		.uleb128 0x34
 2753 01ca 00       		.byte	0x0
 2754 01cb 03       		.uleb128 0x3
 2755 01cc 0E       		.uleb128 0xe
 2756 01cd 3A       		.uleb128 0x3a
 2757 01ce 0B       		.uleb128 0xb
 2758 01cf 3B       		.uleb128 0x3b
 2759 01d0 0B       		.uleb128 0xb
 2760 01d1 49       		.uleb128 0x49
 2761 01d2 13       		.uleb128 0x13
ARM GAS  C:\Users\DNIEL~1\AppData\Local\Temp\cc2JYKP2.s 			page 50


 2762 01d3 3F       		.uleb128 0x3f
 2763 01d4 0C       		.uleb128 0xc
 2764 01d5 02       		.uleb128 0x2
 2765 01d6 0A       		.uleb128 0xa
 2766 01d7 00       		.byte	0x0
 2767 01d8 00       		.byte	0x0
 2768 01d9 24       		.uleb128 0x24
 2769 01da 34       		.uleb128 0x34
 2770 01db 00       		.byte	0x0
 2771 01dc 03       		.uleb128 0x3
 2772 01dd 0E       		.uleb128 0xe
 2773 01de 3A       		.uleb128 0x3a
 2774 01df 0B       		.uleb128 0xb
 2775 01e0 3B       		.uleb128 0x3b
 2776 01e1 05       		.uleb128 0x5
 2777 01e2 49       		.uleb128 0x49
 2778 01e3 13       		.uleb128 0x13
 2779 01e4 3F       		.uleb128 0x3f
 2780 01e5 0C       		.uleb128 0xc
 2781 01e6 02       		.uleb128 0x2
 2782 01e7 0A       		.uleb128 0xa
 2783 01e8 00       		.byte	0x0
 2784 01e9 00       		.byte	0x0
 2785 01ea 00       		.byte	0x0
 2786              		.section	.debug_pubnames,"",%progbits
 2787 0000 44000000 		.4byte	0x44
 2788 0004 0200     		.2byte	0x2
 2789 0006 00000000 		.4byte	.Ldebug_info0
 2790 000a 0E090000 		.4byte	0x90e
 2791 000e A8080000 		.4byte	0x8a8
 2792 0012 74657374 		.ascii	"testevt1\000"
 2792      65767431 
 2792      00
 2793 001b BA080000 		.4byte	0x8ba
 2794 001f 74657374 		.ascii	"testevt2\000"
 2794      65767432 
 2794      00
 2795 0028 CC080000 		.4byte	0x8cc
 2796 002c 74657374 		.ascii	"testevt3\000"
 2796      65767433 
 2796      00
 2797 0035 F5080000 		.4byte	0x8f5
 2798 0039 70617474 		.ascii	"patternevt\000"
 2798      65726E65 
 2798      767400
 2799 0044 00000000 		.4byte	0x0
 2800              		.section	.debug_pubtypes,"",%progbits
 2801 0000 D0010000 		.4byte	0x1d0
 2802 0004 0200     		.2byte	0x2
 2803 0006 00000000 		.4byte	.Ldebug_info0
 2804 000a 0E090000 		.4byte	0x90e
 2805 000e 3E000000 		.4byte	0x3e
 2806 0012 75696E74 		.ascii	"uint8_t\000"
 2806      385F7400 
 2807 001a 5E000000 		.4byte	0x5e
 2808 001e 696E7433 		.ascii	"int32_t\000"
 2808      325F7400 
ARM GAS  C:\Users\DNIEL~1\AppData\Local\Temp\cc2JYKP2.s 			page 51


 2809 0026 70000000 		.4byte	0x70
 2810 002a 75696E74 		.ascii	"uint32_t\000"
 2810      33325F74 
 2810      00
 2811 0033 97000000 		.4byte	0x97
 2812 0037 746D6F64 		.ascii	"tmode_t\000"
 2812      655F7400 
 2813 003f A2000000 		.4byte	0xa2
 2814 0043 74737461 		.ascii	"tstate_t\000"
 2814      74655F74 
 2814      00
 2815 004c AD000000 		.4byte	0xad
 2816 0050 74726566 		.ascii	"trefs_t\000"
 2816      735F7400 
 2817 0058 B8000000 		.4byte	0xb8
 2818 005c 74736C69 		.ascii	"tslices_t\000"
 2818      6365735F 
 2818      7400
 2819 0066 C3000000 		.4byte	0xc3
 2820 006a 74707269 		.ascii	"tprio_t\000"
 2820      6F5F7400 
 2821 0072 CE000000 		.4byte	0xce
 2822 0076 6D73675F 		.ascii	"msg_t\000"
 2822      7400
 2823 007c D9000000 		.4byte	0xd9
 2824 0080 6576656E 		.ascii	"eventid_t\000"
 2824      7469645F 
 2824      7400
 2825 008a E4000000 		.4byte	0xe4
 2826 008e 6576656E 		.ascii	"eventmask_t\000"
 2826      746D6173 
 2826      6B5F7400 
 2827 009a EF000000 		.4byte	0xef
 2828 009e 666C6167 		.ascii	"flagsmask_t\000"
 2828      736D6173 
 2828      6B5F7400 
 2829 00aa FA000000 		.4byte	0xfa
 2830 00ae 73797374 		.ascii	"systime_t\000"
 2830      696D655F 
 2830      7400
 2831 00b8 05010000 		.4byte	0x105
 2832 00bc 54687265 		.ascii	"Thread\000"
 2832      616400
 2833 00c3 60020000 		.4byte	0x260
 2834 00c7 54687265 		.ascii	"ThreadsQueue\000"
 2834      61647351 
 2834      75657565 
 2834      00
 2835 00d4 82020000 		.4byte	0x282
 2836 00d8 54687265 		.ascii	"ThreadsList\000"
 2836      6164734C 
 2836      69737400 
 2837 00e4 8D020000 		.4byte	0x28d
 2838 00e8 72656761 		.ascii	"regarm_t\000"
 2838      726D5F74 
 2838      00
 2839 00f1 9A020000 		.4byte	0x29a
ARM GAS  C:\Users\DNIEL~1\AppData\Local\Temp\cc2JYKP2.s 			page 52


 2840 00f5 696E7463 		.ascii	"intctx\000"
 2840      747800
 2841 00fc 28030000 		.4byte	0x328
 2842 0100 636F6E74 		.ascii	"context\000"
 2842      65787400 
 2843 0108 4B030000 		.4byte	0x34b
 2844 010c 76746675 		.ascii	"vtfunc_t\000"
 2844      6E635F74 
 2844      00
 2845 0115 68030000 		.4byte	0x368
 2846 0119 56697274 		.ascii	"VirtualTimer\000"
 2846      75616C54 
 2846      696D6572 
 2846      00
 2847 0126 73030000 		.4byte	0x373
 2848 012a 56697274 		.ascii	"VirtualTimer\000"
 2848      75616C54 
 2848      696D6572 
 2848      00
 2849 0137 12040000 		.4byte	0x412
 2850 013b 56544C69 		.ascii	"VTList\000"
 2850      737400
 2851 0142 7A040000 		.4byte	0x47a
 2852 0146 52656164 		.ascii	"ReadyList\000"
 2852      794C6973 
 2852      7400
 2853 0150 85040000 		.4byte	0x485
 2854 0154 4D757465 		.ascii	"Mutex\000"
 2854      7800
 2855 015a C2040000 		.4byte	0x4c2
 2856 015e 4D757465 		.ascii	"Mutex\000"
 2856      7800
 2857 0164 CD040000 		.4byte	0x4cd
 2858 0168 4576656E 		.ascii	"EventListener\000"
 2858      744C6973 
 2858      74656E65 
 2858      7200
 2859 0176 D8040000 		.4byte	0x4d8
 2860 017a 4576656E 		.ascii	"EventListener\000"
 2860      744C6973 
 2860      74656E65 
 2860      7200
 2861 0188 23050000 		.4byte	0x523
 2862 018c 4576656E 		.ascii	"EventSource\000"
 2862      74536F75 
 2862      72636500 
 2863 0198 3E050000 		.4byte	0x53e
 2864 019c 4576656E 		.ascii	"EventSource\000"
 2864      74536F75 
 2864      72636500 
 2865 01a8 49050000 		.4byte	0x549
 2866 01ac 65766861 		.ascii	"evhandler_t\000"
 2866      6E646C65 
 2866      725F7400 
 2867 01b8 10010000 		.4byte	0x110
 2868 01bc 54687265 		.ascii	"Thread\000"
 2868      616400
ARM GAS  C:\Users\DNIEL~1\AppData\Local\Temp\cc2JYKP2.s 			page 53


 2869 01c3 B3050000 		.4byte	0x5b3
 2870 01c7 74657374 		.ascii	"testcase\000"
 2870      63617365 
 2870      00
 2871 01d0 00000000 		.4byte	0x0
 2872              		.section	.debug_aranges,"",%progbits
 2873 0000 6C000000 		.4byte	0x6c
 2874 0004 0200     		.2byte	0x2
 2875 0006 00000000 		.4byte	.Ldebug_info0
 2876 000a 04       		.byte	0x4
 2877 000b 00       		.byte	0x0
 2878 000c 0000     		.2byte	0x0
 2879 000e 0000     		.2byte	0x0
 2880 0010 00000000 		.4byte	.LFB17
 2881 0014 AA000000 		.4byte	.LFE17-.LFB17
 2882 0018 00000000 		.4byte	.LFB16
 2883 001c 08000000 		.4byte	.LFE16-.LFB16
 2884 0020 00000000 		.4byte	.LFB12
 2885 0024 08000000 		.4byte	.LFE12-.LFB12
 2886 0028 00000000 		.4byte	.LFB7
 2887 002c 08000000 		.4byte	.LFE7-.LFB7
 2888 0030 00000000 		.4byte	.LFB15
 2889 0034 88020000 		.4byte	.LFE15-.LFB15
 2890 0038 00000000 		.4byte	.LFB14
 2891 003c 24000000 		.4byte	.LFE14-.LFB14
 2892 0040 00000000 		.4byte	.LFB13
 2893 0044 16000000 		.4byte	.LFE13-.LFB13
 2894 0048 00000000 		.4byte	.LFB11
 2895 004c 88000000 		.4byte	.LFE11-.LFB11
 2896 0050 00000000 		.4byte	.LFB10
 2897 0054 06000000 		.4byte	.LFE10-.LFB10
 2898 0058 00000000 		.4byte	.LFB9
 2899 005c 06000000 		.4byte	.LFE9-.LFB9
 2900 0060 00000000 		.4byte	.LFB8
 2901 0064 06000000 		.4byte	.LFE8-.LFB8
 2902 0068 00000000 		.4byte	0x0
 2903 006c 00000000 		.4byte	0x0
 2904              		.section	.debug_ranges,"",%progbits
 2905              	.Ldebug_ranges0:
 2906 0000 00000000 		.4byte	.LFB17
 2907 0004 AA000000 		.4byte	.LFE17
 2908 0008 00000000 		.4byte	.LFB16
 2909 000c 08000000 		.4byte	.LFE16
 2910 0010 00000000 		.4byte	.LFB12
 2911 0014 08000000 		.4byte	.LFE12
 2912 0018 00000000 		.4byte	.LFB7
 2913 001c 08000000 		.4byte	.LFE7
 2914 0020 00000000 		.4byte	.LFB15
 2915 0024 88020000 		.4byte	.LFE15
 2916 0028 00000000 		.4byte	.LFB14
 2917 002c 24000000 		.4byte	.LFE14
 2918 0030 00000000 		.4byte	.LFB13
 2919 0034 16000000 		.4byte	.LFE13
 2920 0038 00000000 		.4byte	.LFB11
 2921 003c 88000000 		.4byte	.LFE11
 2922 0040 00000000 		.4byte	.LFB10
 2923 0044 06000000 		.4byte	.LFE10
ARM GAS  C:\Users\DNIEL~1\AppData\Local\Temp\cc2JYKP2.s 			page 54


 2924 0048 00000000 		.4byte	.LFB9
 2925 004c 06000000 		.4byte	.LFE9
 2926 0050 00000000 		.4byte	.LFB8
 2927 0054 06000000 		.4byte	.LFE8
 2928 0058 00000000 		.4byte	0x0
 2929 005c 00000000 		.4byte	0x0
 2930              		.section	.debug_str,"MS",%progbits,1
 2931              	.LASF87:
 2932 0000 65767432 		.ascii	"evt2_setup\000"
 2932      5F736574 
 2932      757000
 2933              	.LASF38:
 2934 000b 705F6D73 		.ascii	"p_msg\000"
 2934      6700
 2935              	.LASF76:
 2936 0011 7264796D 		.ascii	"rdymsg\000"
 2936      736700
 2937              	.LASF95:
 2938 0018 76746C69 		.ascii	"vtlist\000"
 2938      737400
 2939              	.LASF11:
 2940 001f 6C6F6E67 		.ascii	"long long unsigned int\000"
 2940      206C6F6E 
 2940      6720756E 
 2940      7369676E 
 2940      65642069 
 2941              	.LASF77:
 2942 0036 65786974 		.ascii	"exitcode\000"
 2942      636F6465 
 2942      00
 2943              	.LASF26:
 2944 003f 705F7072 		.ascii	"p_prio\000"
 2944      696F00
 2945              	.LASF90:
 2946 0046 65767432 		.ascii	"evt2_execute\000"
 2946      5F657865 
 2946      63757465 
 2946      00
 2947              	.LASF10:
 2948 0053 6C6F6E67 		.ascii	"long long int\000"
 2948      206C6F6E 
 2948      6720696E 
 2948      7400
 2949              	.LASF1:
 2950 0061 7369676E 		.ascii	"signed char\000"
 2950      65642063 
 2950      68617200 
 2951              	.LASF42:
 2952 006d 705F6D70 		.ascii	"p_mpool\000"
 2952      6F6F6C00 
 2953              	.LASF65:
 2954 0075 6D5F7175 		.ascii	"m_queue\000"
 2954      65756500 
 2955              	.LASF105:
 2956 007d 433A5C44 		.ascii	"C:\\Dani\\MegaLux\\Repo\\Smarty\\Smarty\\smarty\\fi"
 2956      616E695C 
 2956      4D656761 
ARM GAS  C:\Users\DNIEL~1\AppData\Local\Temp\cc2JYKP2.s 			page 55


 2956      4C75785C 
 2956      5265706F 
 2957 00a9 726D7761 		.ascii	"rmware\000"
 2957      726500
 2958              	.LASF7:
 2959 00b0 6C6F6E67 		.ascii	"long int\000"
 2959      20696E74 
 2959      00
 2960              	.LASF91:
 2961 00b9 74617267 		.ascii	"target_time\000"
 2961      65745F74 
 2961      696D6500 
 2962              	.LASF14:
 2963 00c5 74737461 		.ascii	"tstate_t\000"
 2963      74655F74 
 2963      00
 2964              	.LASF100:
 2965 00ce 74657374 		.ascii	"testevt2\000"
 2965      65767432 
 2965      00
 2966              	.LASF101:
 2967 00d7 74657374 		.ascii	"testevt3\000"
 2967      65767433 
 2967      00
 2968              	.LASF28:
 2969 00e0 705F6E65 		.ascii	"p_newer\000"
 2969      77657200 
 2970              	.LASF60:
 2971 00e8 725F6E65 		.ascii	"r_newer\000"
 2971      77657200 
 2972              	.LASF45:
 2973 00f0 72656761 		.ascii	"regarm_t\000"
 2973      726D5F74 
 2973      00
 2974              	.LASF51:
 2975 00f9 76745F70 		.ascii	"vt_prev\000"
 2975      72657600 
 2976              	.LASF19:
 2977 0101 6576656E 		.ascii	"eventid_t\000"
 2977      7469645F 
 2977      7400
 2978              	.LASF73:
 2979 010b 4576656E 		.ascii	"EventSource\000"
 2979      74536F75 
 2979      72636500 
 2980              	.LASF75:
 2981 0117 65766861 		.ascii	"evhandler_t\000"
 2981      6E646C65 
 2981      725F7400 
 2982              	.LASF0:
 2983 0123 756E7369 		.ascii	"unsigned int\000"
 2983      676E6564 
 2983      20696E74 
 2983      00
 2984              	.LASF50:
 2985 0130 76745F6E 		.ascii	"vt_next\000"
 2985      65787400 
ARM GAS  C:\Users\DNIEL~1\AppData\Local\Temp\cc2JYKP2.s 			page 56


 2986              	.LASF9:
 2987 0138 6C6F6E67 		.ascii	"long unsigned int\000"
 2987      20756E73 
 2987      69676E65 
 2987      6420696E 
 2987      7400
 2988              	.LASF84:
 2989 014a 74656172 		.ascii	"teardown\000"
 2989      646F776E 
 2989      00
 2990              	.LASF102:
 2991 0153 70617474 		.ascii	"patternevt\000"
 2991      65726E65 
 2991      767400
 2992              	.LASF82:
 2993 015e 6E616D65 		.ascii	"name\000"
 2993      00
 2994              	.LASF47:
 2995 0163 636F6E74 		.ascii	"context\000"
 2995      65787400 
 2996              	.LASF4:
 2997 016b 73686F72 		.ascii	"short unsigned int\000"
 2997      7420756E 
 2997      7369676E 
 2997      65642069 
 2997      6E7400
 2998              	.LASF18:
 2999 017e 6D73675F 		.ascii	"msg_t\000"
 2999      7400
 3000              	.LASF69:
 3001 0184 656C5F6E 		.ascii	"el_next\000"
 3001      65787400 
 3002              	.LASF13:
 3003 018c 746D6F64 		.ascii	"tmode_t\000"
 3003      655F7400 
 3004              	.LASF44:
 3005 0194 54687265 		.ascii	"ThreadsList\000"
 3005      6164734C 
 3005      69737400 
 3006              	.LASF20:
 3007 01a0 6576656E 		.ascii	"eventmask_t\000"
 3007      746D6173 
 3007      6B5F7400 
 3008              	.LASF64:
 3009 01ac 4D757465 		.ascii	"Mutex\000"
 3009      7800
 3010              	.LASF21:
 3011 01b2 666C6167 		.ascii	"flagsmask_t\000"
 3011      736D6173 
 3011      6B5F7400 
 3012              	.LASF52:
 3013 01be 76745F74 		.ascii	"vt_time\000"
 3013      696D6500 
 3014              	.LASF88:
 3015 01c6 65767431 		.ascii	"evt1_setup\000"
 3015      5F736574 
 3015      757000
ARM GAS  C:\Users\DNIEL~1\AppData\Local\Temp\cc2JYKP2.s 			page 57


 3016              	.LASF53:
 3017 01d1 76745F66 		.ascii	"vt_func\000"
 3017      756E6300 
 3018              	.LASF86:
 3019 01d9 65767433 		.ascii	"evt3_setup\000"
 3019      5F736574 
 3019      757000
 3020              	.LASF29:
 3021 01e4 705F6F6C 		.ascii	"p_older\000"
 3021      64657200 
 3022              	.LASF93:
 3023 01ec 74687265 		.ascii	"thread1\000"
 3023      61643100 
 3024              	.LASF92:
 3025 01f4 74687265 		.ascii	"thread2\000"
 3025      61643200 
 3026              	.LASF59:
 3027 01fc 725F6374 		.ascii	"r_ctx\000"
 3027      7800
 3028              	.LASF43:
 3029 0202 54687265 		.ascii	"ThreadsQueue\000"
 3029      61647351 
 3029      75657565 
 3029      00
 3030              	.LASF83:
 3031 020f 73657475 		.ascii	"setup\000"
 3031      7000
 3032              	.LASF62:
 3033 0215 725F6375 		.ascii	"r_current\000"
 3033      7272656E 
 3033      7400
 3034              	.LASF61:
 3035 021f 725F6F6C 		.ascii	"r_older\000"
 3035      64657200 
 3036              	.LASF71:
 3037 0227 656C5F6D 		.ascii	"el_mask\000"
 3037      61736B00 
 3038              	.LASF15:
 3039 022f 74726566 		.ascii	"trefs_t\000"
 3039      735F7400 
 3040              	.LASF25:
 3041 0237 705F7072 		.ascii	"p_prev\000"
 3041      657600
 3042              	.LASF85:
 3043 023e 65786563 		.ascii	"execute\000"
 3043      75746500 
 3044              	.LASF17:
 3045 0246 74707269 		.ascii	"tprio_t\000"
 3045      6F5F7400 
 3046              	.LASF12:
 3047 024e 5F426F6F 		.ascii	"_Bool\000"
 3047      6C00
 3048              	.LASF6:
 3049 0254 696E7433 		.ascii	"int32_t\000"
 3049      325F7400 
 3050              	.LASF2:
 3051 025c 756E7369 		.ascii	"unsigned char\000"
ARM GAS  C:\Users\DNIEL~1\AppData\Local\Temp\cc2JYKP2.s 			page 58


 3051      676E6564 
 3051      20636861 
 3051      7200
 3052              	.LASF70:
 3053 026a 656C5F6C 		.ascii	"el_listener\000"
 3053      69737465 
 3053      6E657200 
 3054              	.LASF89:
 3055 0276 65767433 		.ascii	"evt3_execute\000"
 3055      5F657865 
 3055      63757465 
 3055      00
 3056              	.LASF72:
 3057 0283 656C5F66 		.ascii	"el_flags\000"
 3057      6C616773 
 3057      00
 3058              	.LASF40:
 3059 028c 705F6D74 		.ascii	"p_mtxlist\000"
 3059      786C6973 
 3059      7400
 3060              	.LASF3:
 3061 0296 73686F72 		.ascii	"short int\000"
 3061      7420696E 
 3061      7400
 3062              	.LASF31:
 3063 02a0 705F7374 		.ascii	"p_state\000"
 3063      61746500 
 3064              	.LASF34:
 3065 02a8 705F7072 		.ascii	"p_preempt\000"
 3065      65656D70 
 3065      7400
 3066              	.LASF97:
 3067 02b2 74687265 		.ascii	"threads\000"
 3067      61647300 
 3068              	.LASF58:
 3069 02ba 725F7072 		.ascii	"r_prio\000"
 3069      696F00
 3070              	.LASF79:
 3071 02c1 65776D61 		.ascii	"ewmask\000"
 3071      736B00
 3072              	.LASF24:
 3073 02c8 705F6E65 		.ascii	"p_next\000"
 3073      787400
 3074              	.LASF32:
 3075 02cf 705F666C 		.ascii	"p_flags\000"
 3075      61677300 
 3076              	.LASF23:
 3077 02d7 54687265 		.ascii	"Thread\000"
 3077      616400
 3078              	.LASF81:
 3079 02de 74657374 		.ascii	"testcase\000"
 3079      63617365 
 3079      00
 3080              	.LASF39:
 3081 02e7 705F6570 		.ascii	"p_epending\000"
 3081      656E6469 
 3081      6E6700
ARM GAS  C:\Users\DNIEL~1\AppData\Local\Temp\cc2JYKP2.s 			page 59


 3082              	.LASF99:
 3083 02f2 74657374 		.ascii	"testevt1\000"
 3083      65767431 
 3083      00
 3084              	.LASF98:
 3085 02fb 6576686E 		.ascii	"evhndl\000"
 3085      646C00
 3086              	.LASF8:
 3087 0302 75696E74 		.ascii	"uint32_t\000"
 3087      33325F74 
 3087      00
 3088              	.LASF57:
 3089 030b 725F7175 		.ascii	"r_queue\000"
 3089      65756500 
 3090              	.LASF49:
 3091 0313 56697274 		.ascii	"VirtualTimer\000"
 3091      75616C54 
 3091      696D6572 
 3091      00
 3092              	.LASF16:
 3093 0320 74736C69 		.ascii	"tslices_t\000"
 3093      6365735F 
 3093      7400
 3094              	.LASF80:
 3095 032a 63686172 		.ascii	"char\000"
 3095      00
 3096              	.LASF67:
 3097 032f 6D5F6E65 		.ascii	"m_next\000"
 3097      787400
 3098              	.LASF22:
 3099 0336 73797374 		.ascii	"systime_t\000"
 3099      696D655F 
 3099      7400
 3100              	.LASF41:
 3101 0340 705F7265 		.ascii	"p_realprio\000"
 3101      616C7072 
 3101      696F00
 3102              	.LASF48:
 3103 034b 76746675 		.ascii	"vtfunc_t\000"
 3103      6E635F74 
 3103      00
 3104              	.LASF35:
 3105 0354 705F7469 		.ascii	"p_time\000"
 3105      6D6500
 3106              	.LASF46:
 3107 035b 696E7463 		.ascii	"intctx\000"
 3107      747800
 3108              	.LASF37:
 3109 0362 705F6D73 		.ascii	"p_msgqueue\000"
 3109      67717565 
 3109      756500
 3110              	.LASF54:
 3111 036d 76745F70 		.ascii	"vt_par\000"
 3111      617200
 3112              	.LASF104:
 3113 0374 2E2E2F2E 		.ascii	"../../../ChibiOS/test/testevt.c\000"
 3113      2E2F2E2E 
ARM GAS  C:\Users\DNIEL~1\AppData\Local\Temp\cc2JYKP2.s 			page 60


 3113      2F436869 
 3113      62694F53 
 3113      2F746573 
 3114              	.LASF33:
 3115 0394 705F7265 		.ascii	"p_refs\000"
 3115      667300
 3116              	.LASF63:
 3117 039b 52656164 		.ascii	"ReadyList\000"
 3117      794C6973 
 3117      7400
 3118              	.LASF96:
 3119 03a5 726C6973 		.ascii	"rlist\000"
 3119      7400
 3120              	.LASF5:
 3121 03ab 75696E74 		.ascii	"uint8_t\000"
 3121      385F7400 
 3122              	.LASF68:
 3123 03b3 4576656E 		.ascii	"EventListener\000"
 3123      744C6973 
 3123      74656E65 
 3123      7200
 3124              	.LASF78:
 3125 03c1 77746F62 		.ascii	"wtobjp\000"
 3125      6A7000
 3126              	.LASF103:
 3127 03c8 474E5520 		.ascii	"GNU C 4.5.2\000"
 3127      4320342E 
 3127      352E3200 
 3128              	.LASF30:
 3129 03d4 705F6E61 		.ascii	"p_name\000"
 3129      6D6500
 3130              	.LASF55:
 3131 03db 76745F73 		.ascii	"vt_systime\000"
 3131      79737469 
 3131      6D6500
 3132              	.LASF74:
 3133 03e6 65735F6E 		.ascii	"es_next\000"
 3133      65787400 
 3134              	.LASF56:
 3135 03ee 56544C69 		.ascii	"VTList\000"
 3135      737400
 3136              	.LASF66:
 3137 03f5 6D5F6F77 		.ascii	"m_owner\000"
 3137      6E657200 
 3138              	.LASF94:
 3139 03fd 65767431 		.ascii	"evt1_execute\000"
 3139      5F657865 
 3139      63757465 
 3139      00
 3140              	.LASF27:
 3141 040a 705F6374 		.ascii	"p_ctx\000"
 3141      7800
 3142              	.LASF36:
 3143 0410 705F7761 		.ascii	"p_waiting\000"
 3143      6974696E 
 3143      6700
 3144              		.ident	"GCC: (Sourcery G++ Lite 2011.03-42) 4.5.2"
ARM GAS  C:\Users\DNIEL~1\AppData\Local\Temp\cc2JYKP2.s 			page 61


ARM GAS  C:\Users\DNIEL~1\AppData\Local\Temp\cc2JYKP2.s 			page 62


DEFINED SYMBOLS
                            *ABS*:00000000 testevt.c
C:\Users\DNIEL~1\AppData\Local\Temp\cc2JYKP2.s:24     .text.evt3_execute:00000000 $t
C:\Users\DNIEL~1\AppData\Local\Temp\cc2JYKP2.s:29     .text.evt3_execute:00000000 evt3_execute
C:\Users\DNIEL~1\AppData\Local\Temp\cc2JYKP2.s:134    .text.evt3_setup:00000000 $t
C:\Users\DNIEL~1\AppData\Local\Temp\cc2JYKP2.s:139    .text.evt3_setup:00000000 evt3_setup
C:\Users\DNIEL~1\AppData\Local\Temp\cc2JYKP2.s:155    .text.evt2_setup:00000000 $t
C:\Users\DNIEL~1\AppData\Local\Temp\cc2JYKP2.s:160    .text.evt2_setup:00000000 evt2_setup
C:\Users\DNIEL~1\AppData\Local\Temp\cc2JYKP2.s:176    .text.evt1_setup:00000000 $t
C:\Users\DNIEL~1\AppData\Local\Temp\cc2JYKP2.s:181    .text.evt1_setup:00000000 evt1_setup
C:\Users\DNIEL~1\AppData\Local\Temp\cc2JYKP2.s:197    .text.evt2_execute:00000000 $t
C:\Users\DNIEL~1\AppData\Local\Temp\cc2JYKP2.s:202    .text.evt2_execute:00000000 evt2_execute
C:\Users\DNIEL~1\AppData\Local\Temp\cc2JYKP2.s:526    .text.evt2_execute:00000264 $d
C:\Users\DNIEL~1\AppData\Local\Temp\cc2JYKP2.s:585    .text.thread1:00000000 thread1
C:\Users\DNIEL~1\AppData\Local\Temp\cc2JYKP2.s:544    .text.thread2:00000000 thread2
C:\Users\DNIEL~1\AppData\Local\Temp\cc2JYKP2.s:539    .text.thread2:00000000 $t
C:\Users\DNIEL~1\AppData\Local\Temp\cc2JYKP2.s:574    .text.thread2:0000001c $d
C:\Users\DNIEL~1\AppData\Local\Temp\cc2JYKP2.s:580    .text.thread1:00000000 $t
C:\Users\DNIEL~1\AppData\Local\Temp\cc2JYKP2.s:614    .text.evt1_execute:00000000 $t
C:\Users\DNIEL~1\AppData\Local\Temp\cc2JYKP2.s:619    .text.evt1_execute:00000000 evt1_execute
C:\Users\DNIEL~1\AppData\Local\Temp\cc2JYKP2.s:700    .text.evt1_execute:0000007c $d
C:\Users\DNIEL~1\AppData\Local\Temp\cc2JYKP2.s:707    .text.h3:00000000 $t
C:\Users\DNIEL~1\AppData\Local\Temp\cc2JYKP2.s:712    .text.h3:00000000 h3
C:\Users\DNIEL~1\AppData\Local\Temp\cc2JYKP2.s:728    .text.h2:00000000 $t
C:\Users\DNIEL~1\AppData\Local\Temp\cc2JYKP2.s:733    .text.h2:00000000 h2
C:\Users\DNIEL~1\AppData\Local\Temp\cc2JYKP2.s:749    .text.h1:00000000 $t
C:\Users\DNIEL~1\AppData\Local\Temp\cc2JYKP2.s:754    .text.h1:00000000 h1
C:\Users\DNIEL~1\AppData\Local\Temp\cc2JYKP2.s:810    .rodata.testevt1:00000000 testevt1
C:\Users\DNIEL~1\AppData\Local\Temp\cc2JYKP2.s:786    .rodata.testevt2:00000000 testevt2
C:\Users\DNIEL~1\AppData\Local\Temp\cc2JYKP2.s:828    .rodata.testevt3:00000000 testevt3
C:\Users\DNIEL~1\AppData\Local\Temp\cc2JYKP2.s:777    .rodata.patternevt:00000000 patternevt
C:\Users\DNIEL~1\AppData\Local\Temp\cc2JYKP2.s:774    .rodata.patternevt:00000000 $d
C:\Users\DNIEL~1\AppData\Local\Temp\cc2JYKP2.s:783    .rodata.testevt2:00000000 $d
C:\Users\DNIEL~1\AppData\Local\Temp\cc2JYKP2.s:792    .rodata.str1.4:00000000 $d
C:\Users\DNIEL~1\AppData\Local\Temp\cc2JYKP2.s:807    .rodata.testevt1:00000000 $d
C:\Users\DNIEL~1\AppData\Local\Temp\cc2JYKP2.s:816    .rodata.evhndl:00000000 $d
C:\Users\DNIEL~1\AppData\Local\Temp\cc2JYKP2.s:820    .rodata.evhndl:00000000 evhndl
C:\Users\DNIEL~1\AppData\Local\Temp\cc2JYKP2.s:825    .rodata.testevt3:00000000 $d
C:\Users\DNIEL~1\AppData\Local\Temp\cc2JYKP2.s:834    .data.es1:00000000 $d
C:\Users\DNIEL~1\AppData\Local\Temp\cc2JYKP2.s:838    .data.es1:00000000 es1
C:\Users\DNIEL~1\AppData\Local\Temp\cc2JYKP2.s:841    .data.es2:00000000 $d
C:\Users\DNIEL~1\AppData\Local\Temp\cc2JYKP2.s:845    .data.es2:00000000 es2
                     .debug_frame:00000010 $d
C:\Users\DNIEL~1\AppData\Local\Temp\cc2JYKP2.s:538    .text.evt2_execute:00000288 $t
C:\Users\DNIEL~1\AppData\Local\Temp\cc2JYKP2.s:579    .text.thread2:00000024 $t
C:\Users\DNIEL~1\AppData\Local\Temp\cc2JYKP2.s:706    .text.evt1_execute:00000088 $t

UNDEFINED SYMBOLS
chEvtWaitOneTimeout
_test_assert
chEvtWaitAnyTimeout
chEvtWaitAllTimeout
chEvtGetAndClearEvents
chEvtAddEvents
chEvtWaitOne
test_wait_tick
chThdCreateStatic
ARM GAS  C:\Users\DNIEL~1\AppData\Local\Temp\cc2JYKP2.s 			page 63


_test_assert_time_window
test_wait_threads
chEvtWaitAny
chEvtRegisterMask
chEvtWaitAll
chEvtUnregister
rlist
wa
vtlist
threads
chEvtBroadcastFlags
chThdSleep
chEvtSignal
chEvtDispatch
_test_assert_sequence
test_emit_token
