ARM GAS  C:\Users\DNIEL~1\AppData\Local\Temp\cc5F2Pmv.s 			page 1


   1              		.syntax unified
   2              		.cpu cortex-m4
   3              		.fpu softvfp
   4              		.eabi_attribute 20, 1
   5              		.eabi_attribute 21, 1
   6              		.eabi_attribute 23, 3
   7              		.eabi_attribute 24, 1
   8              		.eabi_attribute 25, 1
   9              		.eabi_attribute 26, 1
  10              		.eabi_attribute 30, 2
  11              		.eabi_attribute 34, 1
  12              		.eabi_attribute 18, 4
  13              		.thumb
  14              		.file	"testthd.c"
  15              		.text
  16              	.Ltext0:
  17              		.cfi_sections	.debug_frame
  18              		.section	.text.thd3_execute,"ax",%progbits
  19              		.align	2
  20              		.p2align 4,,15
  21              		.thumb
  22              		.thumb_func
  23              		.type	thd3_execute, %function
  24              	thd3_execute:
  25              	.LFB10:
  26              		.file 1 "../../../ChibiOS/test/testthd.c"
  27              		.loc 1 130 0
  28              		.cfi_startproc
  29              		@ args = 0, pretend = 0, frame = 0
  30              		@ frame_needed = 0, uses_anonymous_args = 0
  31 0000 F8B5     		push	{r3, r4, r5, r6, r7, lr}
  32              	.LCFI0:
  33              		.cfi_def_cfa_offset 24
  34              		.cfi_offset 3, -24
  35              		.cfi_offset 4, -20
  36              		.cfi_offset 5, -16
  37              		.cfi_offset 6, -12
  38              		.cfi_offset 7, -8
  39              		.cfi_offset 14, -4
  40              		.loc 1 133 0
  41 0002 4D4E     		ldr	r6, .L7
  42 0004 B369     		ldr	r3, [r6, #24]
  43 0006 9C68     		ldr	r4, [r3, #8]
  44              	.LVL0:
  45              		.loc 1 134 0
  46 0008 651C     		adds	r5, r4, #1
  47 000a 2846     		mov	r0, r5
  48 000c FFF7FEFF 		bl	chThdSetPriority
  49              	.LVL1:
  50              		.loc 1 135 0
  51 0010 021B     		subs	r2, r0, r4
  52 0012 5142     		rsbs	r1, r2, #0
  53 0014 5141     		adcs	r1, r1, r2
  54              		.loc 1 134 0
  55 0016 0746     		mov	r7, r0
  56              	.LVL2:
  57              		.loc 1 135 0
ARM GAS  C:\Users\DNIEL~1\AppData\Local\Temp\cc5F2Pmv.s 			page 2


  58 0018 0120     		movs	r0, #1
  59              	.LVL3:
  60 001a FFF7FEFF 		bl	_test_assert
  61              	.LVL4:
  62 001e 00B1     		cbz	r0, .L6
  63              	.LVL5:
  64              	.L1:
  65 0020 F8BD     		pop	{r3, r4, r5, r6, r7, pc}
  66              	.LVL6:
  67              	.L6:
  68              		.loc 1 137 0
  69 0022 B069     		ldr	r0, [r6, #24]
  70 0024 8368     		ldr	r3, [r0, #8]
  71 0026 0220     		movs	r0, #2
  72 0028 EA1A     		subs	r2, r5, r3
  73 002a 5142     		rsbs	r1, r2, #0
  74 002c 5141     		adcs	r1, r1, r2
  75 002e FFF7FEFF 		bl	_test_assert
  76              	.LVL7:
  77 0032 0028     		cmp	r0, #0
  78 0034 F4D1     		bne	.L1
  79              		.loc 1 139 0
  80 0036 3846     		mov	r0, r7
  81 0038 FFF7FEFF 		bl	chThdSetPriority
  82              	.LVL8:
  83              		.loc 1 140 0
  84 003c B5EB000C 		subs	ip, r5, r0
  85 0040 DCF10000 		rsbs	r0, ip, #0
  86              	.LVL9:
  87 0044 50EB0C01 		adcs	r1, r0, ip
  88 0048 0320     		movs	r0, #3
  89 004a FFF7FEFF 		bl	_test_assert
  90              	.LVL10:
  91 004e 0028     		cmp	r0, #0
  92 0050 E6D1     		bne	.L1
  93              		.loc 1 142 0
  94 0052 B369     		ldr	r3, [r6, #24]
  95 0054 9A68     		ldr	r2, [r3, #8]
  96 0056 0420     		movs	r0, #4
  97 0058 B2EB040E 		subs	lr, r2, r4
  98 005c DEF10001 		rsbs	r1, lr, #0
  99 0060 51EB0E01 		adcs	r1, r1, lr
 100 0064 FFF7FEFF 		bl	_test_assert
 101              	.LVL11:
 102 0068 0028     		cmp	r0, #0
 103 006a D9D1     		bne	.L1
 104              	.LBB2:
 105              		.loc 1 147 0
 106 006c 2023     		movs	r3, #32
 107              	.LVL12:
 108              	@ 147 "../../../ChibiOS/test/testthd.c" 1
 109 006e 83F31188 		msr     BASEPRI, r3
 110              	@ 0 "" 2
 111              	.LVL13:
 112              		.thumb
 113              	.LBE2:
 114              		.loc 1 148 0
ARM GAS  C:\Users\DNIEL~1\AppData\Local\Temp\cc5F2Pmv.s 			page 3


 115 0072 B769     		ldr	r7, [r6, #24]
 116 0074 BB68     		ldr	r3, [r7, #8]
 117              	.LVL14:
 118 0076 9A1C     		adds	r2, r3, #2
 119 0078 BA60     		str	r2, [r7, #8]
 120              	.LBB3:
 121              		.loc 1 149 0
 122 007a 0346     		mov	r3, r0
 123              	.LVL15:
 124              	@ 149 "../../../ChibiOS/test/testthd.c" 1
 125 007c 83F31188 		msr     BASEPRI, r3
 126              	@ 0 "" 2
 127              	.LVL16:
 128              		.thumb
 129              	.LBE3:
 130              		.loc 1 150 0
 131 0080 B069     		ldr	r0, [r6, #24]
 132 0082 8168     		ldr	r1, [r0, #8]
 133 0084 A71C     		adds	r7, r4, #2
 134 0086 0520     		movs	r0, #5
 135 0088 CB1B     		subs	r3, r1, r7
 136              	.LVL17:
 137 008a 5A42     		rsbs	r2, r3, #0
 138 008c 52EB0301 		adcs	r1, r2, r3
 139 0090 FFF7FEFF 		bl	_test_assert
 140              	.LVL18:
 141 0094 0028     		cmp	r0, #0
 142 0096 C3D1     		bne	.L1
 143              		.loc 1 154 0
 144 0098 2846     		mov	r0, r5
 145 009a FFF7FEFF 		bl	chThdSetPriority
 146              	.LVL19:
 147              		.loc 1 155 0
 148 009e 001B     		subs	r0, r0, r4
 149              	.LVL20:
 150 00a0 4142     		rsbs	r1, r0, #0
 151 00a2 4141     		adcs	r1, r1, r0
 152 00a4 0620     		movs	r0, #6
 153 00a6 FFF7FEFF 		bl	_test_assert
 154              	.LVL21:
 155 00aa 0028     		cmp	r0, #0
 156 00ac B8D1     		bne	.L1
 157              		.loc 1 157 0
 158 00ae B369     		ldr	r3, [r6, #24]
 159 00b0 9A68     		ldr	r2, [r3, #8]
 160 00b2 0720     		movs	r0, #7
 161 00b4 B7EB020C 		subs	ip, r7, r2
 162 00b8 DCF10001 		rsbs	r1, ip, #0
 163 00bc 51EB0C01 		adcs	r1, r1, ip
 164 00c0 FFF7FEFF 		bl	_test_assert
 165              	.LVL22:
 166 00c4 0028     		cmp	r0, #0
 167 00c6 ABD1     		bne	.L1
 168              		.loc 1 159 0
 169 00c8 B069     		ldr	r0, [r6, #24]
 170 00ca 036C     		ldr	r3, [r0, #64]
 171 00cc 0820     		movs	r0, #8
ARM GAS  C:\Users\DNIEL~1\AppData\Local\Temp\cc5F2Pmv.s 			page 4


 172 00ce B5EB030E 		subs	lr, r5, r3
 173 00d2 DEF10002 		rsbs	r2, lr, #0
 174 00d6 52EB0E01 		adcs	r1, r2, lr
 175 00da FFF7FEFF 		bl	_test_assert
 176              	.LVL23:
 177 00de 0028     		cmp	r0, #0
 178 00e0 9ED1     		bne	.L1
 179              		.loc 1 163 0
 180 00e2 E71C     		adds	r7, r4, #3
 181 00e4 3846     		mov	r0, r7
 182 00e6 FFF7FEFF 		bl	chThdSetPriority
 183              	.LVL24:
 184              		.loc 1 164 0
 185 00ea 281A     		subs	r0, r5, r0
 186              	.LVL25:
 187 00ec 4142     		rsbs	r1, r0, #0
 188 00ee 4141     		adcs	r1, r1, r0
 189 00f0 0920     		movs	r0, #9
 190 00f2 FFF7FEFF 		bl	_test_assert
 191              	.LVL26:
 192 00f6 0028     		cmp	r0, #0
 193 00f8 92D1     		bne	.L1
 194              		.loc 1 166 0
 195 00fa B369     		ldr	r3, [r6, #24]
 196 00fc 9A68     		ldr	r2, [r3, #8]
 197 00fe 0A20     		movs	r0, #10
 198 0100 BB1A     		subs	r3, r7, r2
 199 0102 5942     		rsbs	r1, r3, #0
 200 0104 5941     		adcs	r1, r1, r3
 201 0106 FFF7FEFF 		bl	_test_assert
 202              	.LVL27:
 203 010a 0028     		cmp	r0, #0
 204 010c 88D1     		bne	.L1
 205              		.loc 1 168 0
 206 010e B069     		ldr	r0, [r6, #24]
 207 0110 026C     		ldr	r2, [r0, #64]
 208 0112 0B20     		movs	r0, #11
 209 0114 BB1A     		subs	r3, r7, r2
 210 0116 5942     		rsbs	r1, r3, #0
 211 0118 5941     		adcs	r1, r1, r3
 212 011a FFF7FEFF 		bl	_test_assert
 213              	.LVL28:
 214 011e 0028     		cmp	r0, #0
 215 0120 7FF47EAF 		bne	.L1
 216              	.LBB4:
 217              		.loc 1 171 0
 218 0124 2023     		movs	r3, #32
 219              	.LVL29:
 220              	@ 171 "../../../ChibiOS/test/testthd.c" 1
 221 0126 83F31188 		msr     BASEPRI, r3
 222              	@ 0 "" 2
 223              	.LVL30:
 224              		.thumb
 225              	.LBE4:
 226              		.loc 1 172 0
 227 012a B169     		ldr	r1, [r6, #24]
 228              	.LBB5:
ARM GAS  C:\Users\DNIEL~1\AppData\Local\Temp\cc5F2Pmv.s 			page 5


 229              		.loc 1 174 0
 230 012c 0346     		mov	r3, r0
 231              	.LVL31:
 232              	.LBE5:
 233              		.loc 1 172 0
 234 012e 8C60     		str	r4, [r1, #8]
 235              		.loc 1 173 0
 236 0130 0C64     		str	r4, [r1, #64]
 237              	.LBB6:
 238              		.loc 1 174 0
 239              	@ 174 "../../../ChibiOS/test/testthd.c" 1
 240 0132 83F31188 		msr     BASEPRI, r3
 241              	@ 0 "" 2
 242              	.LVL32:
 243              		.thumb
 244 0136 73E7     		b	.L1
 245              	.L8:
 246              		.align	2
 247              	.L7:
 248 0138 00000000 		.word	rlist
 249              	.LBE6:
 250              		.cfi_endproc
 251              	.LFE10:
 252              		.size	thd3_execute, .-thd3_execute
 253 013c AFF30080 		.section	.text.thd2_execute,"ax",%progbits
 254              		.align	2
 255              		.p2align 4,,15
 256              		.thumb
 257              		.thumb_func
 258              		.type	thd2_execute, %function
 259              	thd2_execute:
 260              	.LFB9:
 261              		.loc 1 98 0
 262              		.cfi_startproc
 263              		@ args = 0, pretend = 0, frame = 0
 264              		@ frame_needed = 0, uses_anonymous_args = 0
 265 0000 F0B5     		push	{r4, r5, r6, r7, lr}
 266              	.LCFI1:
 267              		.cfi_def_cfa_offset 20
 268              		.cfi_offset 4, -20
 269              		.cfi_offset 5, -16
 270              		.cfi_offset 6, -12
 271              		.cfi_offset 7, -8
 272              		.cfi_offset 14, -4
 273              		.loc 1 100 0
 274 0002 40F20007 		movw	r7, #:lower16:rlist
 275 0006 C0F20007 		movt	r7, #:upper16:rlist
 276 000a 40F20006 		movw	r6, #:lower16:wa
 277 000e BB69     		ldr	r3, [r7, #24]
 278              		.loc 1 98 0
 279 0010 83B0     		sub	sp, sp, #12
 280              	.LCFI2:
 281              		.cfi_def_cfa_offset 32
 282              		.loc 1 100 0
 283 0012 C0F20006 		movt	r6, #:upper16:wa
 284 0016 9A68     		ldr	r2, [r3, #8]
 285 0018 7068     		ldr	r0, [r6, #4]
ARM GAS  C:\Users\DNIEL~1\AppData\Local\Temp\cc5F2Pmv.s 			page 6


 286 001a 40F20005 		movw	r5, #:lower16:thread
 287 001e 40F20001 		movw	r1, #:lower16:.LC0
 288 0022 C0F20005 		movt	r5, #:upper16:thread
 289 0026 C0F20001 		movt	r1, #:upper16:.LC0
 290 002a 043A     		subs	r2, r2, #4
 291 002c 2B46     		mov	r3, r5
 292 002e 0091     		str	r1, [sp, #0]
 293 0030 4FF49871 		mov	r1, #304
 294 0034 FFF7FEFF 		bl	chThdCreateStatic
 295              	.LVL33:
 296              		.loc 1 101 0
 297 0038 BC69     		ldr	r4, [r7, #24]
 298 003a 3168     		ldr	r1, [r6, #0]
 299 003c A368     		ldr	r3, [r4, #8]
 300              		.loc 1 100 0
 301 003e 40F20004 		movw	r4, #:lower16:threads
 302 0042 C0F20004 		movt	r4, #:upper16:threads
 303              		.loc 1 101 0
 304 0046 5A1F     		subs	r2, r3, #5
 305              		.loc 1 100 0
 306 0048 6060     		str	r0, [r4, #4]
 307              		.loc 1 101 0
 308 004a 40F20000 		movw	r0, #:lower16:.LC1
 309 004e C0F20000 		movt	r0, #:upper16:.LC1
 310 0052 2B46     		mov	r3, r5
 311 0054 0090     		str	r0, [sp, #0]
 312 0056 0846     		mov	r0, r1
 313 0058 4FF49871 		mov	r1, #304
 314 005c FFF7FEFF 		bl	chThdCreateStatic
 315              	.LVL34:
 316              		.loc 1 102 0
 317 0060 BA69     		ldr	r2, [r7, #24]
 318 0062 3169     		ldr	r1, [r6, #16]
 319 0064 9368     		ldr	r3, [r2, #8]
 320              		.loc 1 101 0
 321 0066 2060     		str	r0, [r4, #0]
 322              		.loc 1 102 0
 323 0068 40F20000 		movw	r0, #:lower16:.LC2
 324 006c C0F20000 		movt	r0, #:upper16:.LC2
 325 0070 5A1E     		subs	r2, r3, #1
 326 0072 0090     		str	r0, [sp, #0]
 327 0074 2B46     		mov	r3, r5
 328 0076 0846     		mov	r0, r1
 329 0078 4FF49871 		mov	r1, #304
 330 007c FFF7FEFF 		bl	chThdCreateStatic
 331              	.LVL35:
 332              		.loc 1 103 0
 333 0080 BA69     		ldr	r2, [r7, #24]
 334 0082 F168     		ldr	r1, [r6, #12]
 335 0084 9268     		ldr	r2, [r2, #8]
 336              		.loc 1 102 0
 337 0086 2061     		str	r0, [r4, #16]
 338              		.loc 1 103 0
 339 0088 40F20000 		movw	r0, #:lower16:.LC3
 340 008c C0F20000 		movt	r0, #:upper16:.LC3
 341 0090 2B46     		mov	r3, r5
 342 0092 0090     		str	r0, [sp, #0]
ARM GAS  C:\Users\DNIEL~1\AppData\Local\Temp\cc5F2Pmv.s 			page 7


 343 0094 023A     		subs	r2, r2, #2
 344 0096 0846     		mov	r0, r1
 345 0098 4FF49871 		mov	r1, #304
 346 009c FFF7FEFF 		bl	chThdCreateStatic
 347              	.LVL36:
 348              	.LBB7:
 349              		.loc 1 105 0
 350 00a0 2023     		movs	r3, #32
 351              	.LVL37:
 352              	.LBE7:
 353              		.loc 1 103 0
 354 00a2 E060     		str	r0, [r4, #12]
 355              	.LBB8:
 356              		.loc 1 105 0
 357              	@ 105 "../../../ChibiOS/test/testthd.c" 1
 358 00a4 83F31188 		msr     BASEPRI, r3
 359              	@ 0 "" 2
 360              	.LVL38:
 361              		.thumb
 362              	.LBE8:
 363              		.loc 1 106 0
 364 00a8 BB69     		ldr	r3, [r7, #24]
 365              	.LVL39:
 366 00aa B068     		ldr	r0, [r6, #8]
 367 00ac 9A68     		ldr	r2, [r3, #8]
 368 00ae 40F20001 		movw	r1, #:lower16:.LC4
 369 00b2 C0F20001 		movt	r1, #:upper16:.LC4
 370 00b6 2B46     		mov	r3, r5
 371 00b8 0091     		str	r1, [sp, #0]
 372 00ba 033A     		subs	r2, r2, #3
 373 00bc 4FF49871 		mov	r1, #304
 374 00c0 FFF7FEFF 		bl	chThdCreateI
 375              	.LVL40:
 376              	.LBB9:
 377              		.loc 1 107 0
 378 00c4 0023     		movs	r3, #0
 379              	.LVL41:
 380              	.LBE9:
 381              		.loc 1 106 0
 382 00c6 A060     		str	r0, [r4, #8]
 383              	.LBB10:
 384              		.loc 1 107 0
 385              	@ 107 "../../../ChibiOS/test/testthd.c" 1
 386 00c8 83F31188 		msr     BASEPRI, r3
 387              	@ 0 "" 2
 388              	.LVL42:
 389              		.thumb
 390              	.LBE10:
 391              		.loc 1 108 0
 392 00cc A068     		ldr	r0, [r4, #8]
 393 00ce FFF7FEFF 		bl	chThdResume
 394              	.LVL43:
 395              		.loc 1 109 0
 396 00d2 FFF7FEFF 		bl	test_wait_threads
 397              	.LVL44:
 398              		.loc 1 110 0
 399 00d6 40F20001 		movw	r1, #:lower16:.LC5
ARM GAS  C:\Users\DNIEL~1\AppData\Local\Temp\cc5F2Pmv.s 			page 8


 400 00da 0120     		movs	r0, #1
 401 00dc C0F20001 		movt	r1, #:upper16:.LC5
 402              		.loc 1 111 0
 403 00e0 03B0     		add	sp, sp, #12
 404 00e2 BDE8F040 		pop	{r4, r5, r6, r7, lr}
 405              		.loc 1 110 0
 406 00e6 FFF7FEBF 		b	_test_assert_sequence
 407              	.LVL45:
 408              		.cfi_endproc
 409              	.LFE9:
 410              		.size	thd2_execute, .-thd2_execute
 411 00ea 00BFAFF3 		.section	.text.thd1_execute,"ax",%progbits
 411      0080
 412              		.align	2
 413              		.p2align 4,,15
 414              		.thumb
 415              		.thumb_func
 416              		.type	thd1_execute, %function
 417              	thd1_execute:
 418              	.LFB8:
 419              		.loc 1 70 0
 420              		.cfi_startproc
 421              		@ args = 0, pretend = 0, frame = 0
 422              		@ frame_needed = 0, uses_anonymous_args = 0
 423 0000 2DE9F041 		push	{r4, r5, r6, r7, r8, lr}
 424              	.LCFI3:
 425              		.cfi_def_cfa_offset 24
 426              		.cfi_offset 4, -24
 427              		.cfi_offset 5, -20
 428              		.cfi_offset 6, -16
 429              		.cfi_offset 7, -12
 430              		.cfi_offset 8, -8
 431              		.cfi_offset 14, -4
 432              		.loc 1 72 0
 433 0004 40F20008 		movw	r8, #:lower16:rlist
 434 0008 C0F20008 		movt	r8, #:upper16:rlist
 435 000c 40F20006 		movw	r6, #:lower16:wa
 436 0010 D8F81830 		ldr	r3, [r8, #24]
 437              		.loc 1 70 0
 438 0014 82B0     		sub	sp, sp, #8
 439              	.LCFI4:
 440              		.cfi_def_cfa_offset 32
 441              		.loc 1 72 0
 442 0016 C0F20006 		movt	r6, #:upper16:wa
 443 001a 9A68     		ldr	r2, [r3, #8]
 444 001c 3068     		ldr	r0, [r6, #0]
 445 001e 40F20005 		movw	r5, #:lower16:thread
 446 0022 40F20004 		movw	r4, #:lower16:.LC1
 447 0026 C0F20005 		movt	r5, #:upper16:thread
 448 002a C0F20004 		movt	r4, #:upper16:.LC1
 449 002e 053A     		subs	r2, r2, #5
 450 0030 2B46     		mov	r3, r5
 451 0032 0094     		str	r4, [sp, #0]
 452 0034 4FF49871 		mov	r1, #304
 453 0038 FFF7FEFF 		bl	chThdCreateStatic
 454              	.LVL46:
 455 003c 40F20004 		movw	r4, #:lower16:threads
ARM GAS  C:\Users\DNIEL~1\AppData\Local\Temp\cc5F2Pmv.s 			page 9


 456 0040 C0F20004 		movt	r4, #:upper16:threads
 457              		.loc 1 73 0
 458 0044 D8F81810 		ldr	r1, [r8, #24]
 459 0048 7768     		ldr	r7, [r6, #4]
 460 004a 8B68     		ldr	r3, [r1, #8]
 461              		.loc 1 72 0
 462 004c 2060     		str	r0, [r4, #0]
 463              		.loc 1 73 0
 464 004e 40F20000 		movw	r0, #:lower16:.LC0
 465 0052 C0F20000 		movt	r0, #:upper16:.LC0
 466 0056 1A1F     		subs	r2, r3, #4
 467 0058 0090     		str	r0, [sp, #0]
 468 005a 2B46     		mov	r3, r5
 469 005c 4FF49871 		mov	r1, #304
 470 0060 3846     		mov	r0, r7
 471 0062 FFF7FEFF 		bl	chThdCreateStatic
 472              	.LVL47:
 473              		.loc 1 74 0
 474 0066 D8F81820 		ldr	r2, [r8, #24]
 475 006a B768     		ldr	r7, [r6, #8]
 476 006c 9368     		ldr	r3, [r2, #8]
 477              		.loc 1 73 0
 478 006e 6060     		str	r0, [r4, #4]
 479              		.loc 1 74 0
 480 0070 40F20000 		movw	r0, #:lower16:.LC4
 481 0074 C0F20000 		movt	r0, #:upper16:.LC4
 482 0078 DA1E     		subs	r2, r3, #3
 483 007a 0090     		str	r0, [sp, #0]
 484 007c 2B46     		mov	r3, r5
 485 007e 4FF49871 		mov	r1, #304
 486 0082 3846     		mov	r0, r7
 487 0084 FFF7FEFF 		bl	chThdCreateStatic
 488              	.LVL48:
 489              		.loc 1 75 0
 490 0088 D8F81810 		ldr	r1, [r8, #24]
 491 008c F768     		ldr	r7, [r6, #12]
 492 008e 8A68     		ldr	r2, [r1, #8]
 493              		.loc 1 74 0
 494 0090 A060     		str	r0, [r4, #8]
 495              		.loc 1 75 0
 496 0092 40F20000 		movw	r0, #:lower16:.LC3
 497 0096 C0F20000 		movt	r0, #:upper16:.LC3
 498 009a 023A     		subs	r2, r2, #2
 499 009c 2B46     		mov	r3, r5
 500 009e 0090     		str	r0, [sp, #0]
 501 00a0 4FF49871 		mov	r1, #304
 502 00a4 3846     		mov	r0, r7
 503 00a6 FFF7FEFF 		bl	chThdCreateStatic
 504              	.LVL49:
 505              		.loc 1 76 0
 506 00aa D8F81830 		ldr	r3, [r8, #24]
 507 00ae 3669     		ldr	r6, [r6, #16]
 508 00b0 9A68     		ldr	r2, [r3, #8]
 509              		.loc 1 75 0
 510 00b2 E060     		str	r0, [r4, #12]
 511              		.loc 1 76 0
 512 00b4 40F20000 		movw	r0, #:lower16:.LC2
ARM GAS  C:\Users\DNIEL~1\AppData\Local\Temp\cc5F2Pmv.s 			page 10


 513 00b8 C0F20000 		movt	r0, #:upper16:.LC2
 514 00bc 4FF49871 		mov	r1, #304
 515 00c0 013A     		subs	r2, r2, #1
 516 00c2 2B46     		mov	r3, r5
 517 00c4 0090     		str	r0, [sp, #0]
 518 00c6 3046     		mov	r0, r6
 519 00c8 FFF7FEFF 		bl	chThdCreateStatic
 520              	.LVL50:
 521 00cc 2061     		str	r0, [r4, #16]
 522              		.loc 1 77 0
 523 00ce FFF7FEFF 		bl	test_wait_threads
 524              	.LVL51:
 525              		.loc 1 78 0
 526 00d2 40F20001 		movw	r1, #:lower16:.LC5
 527 00d6 0120     		movs	r0, #1
 528 00d8 C0F20001 		movt	r1, #:upper16:.LC5
 529              		.loc 1 79 0
 530 00dc 02B0     		add	sp, sp, #8
 531 00de BDE8F041 		pop	{r4, r5, r6, r7, r8, lr}
 532              		.loc 1 78 0
 533 00e2 FFF7FEBF 		b	_test_assert_sequence
 534              	.LVL52:
 535              		.cfi_endproc
 536              	.LFE8:
 537              		.size	thd1_execute, .-thd1_execute
 538 00e6 00BFAFF3 		.section	.text.thread,"ax",%progbits
 538      0080AFF3 
 538      0080
 539              		.align	2
 540              		.p2align 4,,15
 541              		.thumb
 542              		.thumb_func
 543              		.type	thread, %function
 544              	thread:
 545              	.LFB7:
 546              		.loc 1 64 0
 547              		.cfi_startproc
 548              		@ args = 0, pretend = 0, frame = 0
 549              		@ frame_needed = 0, uses_anonymous_args = 0
 550              	.LVL53:
 551 0000 08B5     		push	{r3, lr}
 552              	.LCFI5:
 553              		.cfi_def_cfa_offset 8
 554              		.cfi_offset 3, -8
 555              		.cfi_offset 14, -4
 556              		.loc 1 66 0
 557 0002 0078     		ldrb	r0, [r0, #0]	@ zero_extendqisi2
 558              	.LVL54:
 559 0004 FFF7FEFF 		bl	test_emit_token
 560              	.LVL55:
 561              		.loc 1 68 0
 562 0008 0020     		movs	r0, #0
 563 000a 08BD     		pop	{r3, pc}
 564              		.cfi_endproc
 565              	.LFE7:
 566              		.size	thread, .-thread
 567 000c AFF30080 		.section	.text.thd4_execute,"ax",%progbits
ARM GAS  C:\Users\DNIEL~1\AppData\Local\Temp\cc5F2Pmv.s 			page 11


 568              		.align	2
 569              		.p2align 4,,15
 570              		.thumb
 571              		.thumb_func
 572              		.type	thd4_execute, %function
 573              	thd4_execute:
 574              	.LFB11:
 575              		.loc 1 193 0
 576              		.cfi_startproc
 577              		@ args = 0, pretend = 0, frame = 0
 578              		@ frame_needed = 0, uses_anonymous_args = 0
 579 0000 38B5     		push	{r3, r4, r5, lr}
 580              	.LCFI6:
 581              		.cfi_def_cfa_offset 16
 582              		.cfi_offset 3, -16
 583              		.cfi_offset 4, -12
 584              		.cfi_offset 5, -8
 585              		.cfi_offset 14, -4
 586              		.loc 1 199 0
 587 0002 1C4D     		ldr	r5, .L17
 588              		.loc 1 196 0
 589 0004 FFF7FEFF 		bl	test_wait_tick
 590              	.LVL56:
 591              		.loc 1 199 0
 592 0008 EC68     		ldr	r4, [r5, #12]
 593              	.LVL57:
 594              		.loc 1 200 0
 595 000a 6420     		movs	r0, #100
 596 000c FFF7FEFF 		bl	chThdSleep
 597              	.LVL58:
 598              		.loc 1 201 0
 599 0010 0120     		movs	r0, #1
 600 0012 04F16401 		add	r1, r4, #100
 601 0016 04F16502 		add	r2, r4, #101
 602 001a FFF7FEFF 		bl	_test_assert_time_window
 603              	.LVL59:
 604 001e 00B1     		cbz	r0, .L16
 605              	.LVL60:
 606              	.L12:
 607 0020 38BD     		pop	{r3, r4, r5, pc}
 608              	.LVL61:
 609              	.L16:
 610              		.loc 1 204 0
 611 0022 EC68     		ldr	r4, [r5, #12]
 612              	.LVL62:
 613              		.loc 1 205 0
 614 0024 6420     		movs	r0, #100
 615 0026 FFF7FEFF 		bl	chThdSleep
 616              	.LVL63:
 617              		.loc 1 206 0
 618 002a 0220     		movs	r0, #2
 619 002c 04F16401 		add	r1, r4, #100
 620 0030 04F16502 		add	r2, r4, #101
 621 0034 FFF7FEFF 		bl	_test_assert_time_window
 622              	.LVL64:
 623 0038 0028     		cmp	r0, #0
 624 003a F1D1     		bne	.L12
ARM GAS  C:\Users\DNIEL~1\AppData\Local\Temp\cc5F2Pmv.s 			page 12


 625              	.LBB13:
 626              	.LBB14:
 627              		.loc 1 209 0
 628 003c EC68     		ldr	r4, [r5, #12]
 629              	.LVL65:
 630              		.loc 1 210 0
 631 003e 4FF47A70 		mov	r0, #1000
 632 0042 FFF7FEFF 		bl	chThdSleep
 633              	.LVL66:
 634              		.loc 1 211 0
 635 0046 0320     		movs	r0, #3
 636 0048 04F57A71 		add	r1, r4, #1000
 637 004c 04F2E932 		addw	r2, r4, #1001
 638 0050 FFF7FEFF 		bl	_test_assert_time_window
 639              	.LVL67:
 640 0054 0028     		cmp	r0, #0
 641 0056 E3D1     		bne	.L12
 642              		.loc 1 214 0
 643 0058 EC68     		ldr	r4, [r5, #12]
 644              	.LVL68:
 645 005a 04F16405 		add	r5, r4, #100
 646              	.LVL69:
 647              		.loc 1 215 0
 648 005e 2846     		mov	r0, r5
 649 0060 FFF7FEFF 		bl	chThdSleepUntil
 650              	.LVL70:
 651              		.loc 1 216 0
 652 0064 0420     		movs	r0, #4
 653 0066 2946     		mov	r1, r5
 654 0068 04F16502 		add	r2, r4, #101
 655              	.LBE14:
 656              	.LBE13:
 657              		.loc 1 217 0
 658 006c BDE83840 		pop	{r3, r4, r5, lr}
 659              	.LBB16:
 660              	.LBB15:
 661              		.loc 1 216 0
 662 0070 FFF7FEBF 		b	_test_assert_time_window
 663              	.LVL71:
 664              	.L18:
 665              		.align	2
 666              	.L17:
 667 0074 00000000 		.word	vtlist
 668              	.LBE15:
 669              	.LBE16:
 670              		.cfi_endproc
 671              	.LFE11:
 672              		.size	thd4_execute, .-thd4_execute
 673              		.global	patternthd
 674              		.global	testthd4
 675              		.global	testthd3
 676              		.global	testthd2
 677              		.global	testthd1
 678 0078 AFF30080 		.section	.rodata.testthd1,"a",%progbits
 678      AFF30080 
 679              		.align	2
 680              		.type	testthd1, %object
ARM GAS  C:\Users\DNIEL~1\AppData\Local\Temp\cc5F2Pmv.s 			page 13


 681              		.size	testthd1, 16
 682              	testthd1:
 683 0000 64000000 		.word	.LC9
 684 0004 00000000 		.word	0
 685 0008 00000000 		.word	0
 686 000c 00000000 		.word	thd1_execute
 687              		.section	.rodata.testthd2,"a",%progbits
 688              		.align	2
 689              		.type	testthd2, %object
 690              		.size	testthd2, 16
 691              	testthd2:
 692 0000 48000000 		.word	.LC8
 693 0004 00000000 		.word	0
 694 0008 00000000 		.word	0
 695 000c 00000000 		.word	thd2_execute
 696              		.section	.rodata.testthd3,"a",%progbits
 697              		.align	2
 698              		.type	testthd3, %object
 699              		.size	testthd3, 16
 700              	testthd3:
 701 0000 2C000000 		.word	.LC7
 702 0004 00000000 		.word	0
 703 0008 00000000 		.word	0
 704 000c 00000000 		.word	thd3_execute
 705              		.section	.rodata.testthd4,"a",%progbits
 706              		.align	2
 707              		.type	testthd4, %object
 708              		.size	testthd4, 16
 709              	testthd4:
 710 0000 1C000000 		.word	.LC6
 711 0004 00000000 		.word	0
 712 0008 00000000 		.word	0
 713 000c 00000000 		.word	thd4_execute
 714              		.section	.rodata.patternthd,"a",%progbits
 715              		.align	2
 716              		.type	patternthd, %object
 717              		.size	patternthd, 20
 718              	patternthd:
 719 0000 00000000 		.word	testthd1
 720 0004 00000000 		.word	testthd2
 721 0008 00000000 		.word	testthd3
 722 000c 00000000 		.word	testthd4
 723 0010 00000000 		.word	0
 724              		.section	.rodata.str1.4,"aMS",%progbits,1
 725              		.align	2
 726              	.LC0:
 727 0000 4400     		.ascii	"D\000"
 728 0002 0000     		.space	2
 729              	.LC1:
 730 0004 4500     		.ascii	"E\000"
 731 0006 0000     		.space	2
 732              	.LC2:
 733 0008 4100     		.ascii	"A\000"
 734 000a 0000     		.space	2
 735              	.LC3:
 736 000c 4200     		.ascii	"B\000"
 737 000e 0000     		.space	2
ARM GAS  C:\Users\DNIEL~1\AppData\Local\Temp\cc5F2Pmv.s 			page 14


 738              	.LC4:
 739 0010 4300     		.ascii	"C\000"
 740 0012 0000     		.space	2
 741              	.LC5:
 742 0014 41424344 		.ascii	"ABCDE\000"
 742      4500
 743 001a 0000     		.space	2
 744              	.LC6:
 745 001c 54687265 		.ascii	"Threads, delays\000"
 745      6164732C 
 745      2064656C 
 745      61797300 
 746              	.LC7:
 747 002c 54687265 		.ascii	"Threads, priority change\000"
 747      6164732C 
 747      20707269 
 747      6F726974 
 747      79206368 
 748 0045 000000   		.space	3
 749              	.LC8:
 750 0048 54687265 		.ascii	"Threads, enqueuing test #2\000"
 750      6164732C 
 750      20656E71 
 750      75657569 
 750      6E672074 
 751 0063 00       		.space	1
 752              	.LC9:
 753 0064 54687265 		.ascii	"Threads, enqueuing test #1\000"
 753      6164732C 
 753      20656E71 
 753      75657569 
 753      6E672074 
 754 007f 00       		.text
 755              	.Letext0:
 756              		.file 2 "c:\\chibistudio\\tools\\gnu tools arm embedded\\4.7 2014q2\\bin\\../lib/gcc/arm-none-eabi
 757              		.file 3 "c:\\chibistudio\\tools\\gnu tools arm embedded\\4.7 2014q2\\bin\\../lib/gcc/arm-none-eabi
 758              		.file 4 "../../../ChibiOS/os/ports/GCC/ARMCMx/chtypes.h"
 759              		.file 5 "../../../ChibiOS/os/kernel/include/chlists.h"
 760              		.file 6 "../../../ChibiOS/os/kernel/include/chthreads.h"
 761              		.file 7 "../../../ChibiOS/os/ports/GCC/ARMCMx/chcore_v7m.h"
 762              		.file 8 "../../../ChibiOS/os/kernel/include/chvt.h"
 763              		.file 9 "../../../ChibiOS/os/kernel/include/chschd.h"
 764              		.file 10 "../../../ChibiOS/os/kernel/include/chmtx.h"
 765              		.file 11 "../../../ChibiOS/test/test.h"
 766              		.section	.debug_info,"",%progbits
 767              	.Ldebug_info0:
 768 0000 2D0D0000 		.4byte	0xd2d
 769 0004 0200     		.2byte	0x2
 770 0006 00000000 		.4byte	.Ldebug_abbrev0
 771 000a 04       		.byte	0x4
 772 000b 01       		.uleb128 0x1
 773 000c F5010000 		.4byte	.LASF101
 774 0010 01       		.byte	0x1
 775 0011 4F030000 		.4byte	.LASF102
 776 0015 28040000 		.4byte	.LASF103
 777 0019 78000000 		.4byte	.Ldebug_ranges0+0x78
 778 001d 00000000 		.4byte	0
ARM GAS  C:\Users\DNIEL~1\AppData\Local\Temp\cc5F2Pmv.s 			page 15


 779 0021 00000000 		.4byte	0
 780 0025 00000000 		.4byte	.Ldebug_line0
 781 0029 02       		.uleb128 0x2
 782 002a 04       		.byte	0x4
 783 002b 05       		.byte	0x5
 784 002c 696E7400 		.ascii	"int\000"
 785 0030 03       		.uleb128 0x3
 786 0031 0E000000 		.4byte	.LASF2
 787 0035 02       		.byte	0x2
 788 0036 D5       		.byte	0xd5
 789 0037 3B000000 		.4byte	0x3b
 790 003b 04       		.uleb128 0x4
 791 003c 04       		.byte	0x4
 792 003d 07       		.byte	0x7
 793 003e 11010000 		.4byte	.LASF0
 794 0042 04       		.uleb128 0x4
 795 0043 01       		.byte	0x1
 796 0044 06       		.byte	0x6
 797 0045 5D000000 		.4byte	.LASF1
 798 0049 03       		.uleb128 0x3
 799 004a 59040000 		.4byte	.LASF3
 800 004e 03       		.byte	0x3
 801 004f 2A       		.byte	0x2a
 802 0050 54000000 		.4byte	0x54
 803 0054 04       		.uleb128 0x4
 804 0055 01       		.byte	0x1
 805 0056 08       		.byte	0x8
 806 0057 D7020000 		.4byte	.LASF4
 807 005b 04       		.uleb128 0x4
 808 005c 02       		.byte	0x2
 809 005d 05       		.byte	0x5
 810 005e FE020000 		.4byte	.LASF5
 811 0062 04       		.uleb128 0x4
 812 0063 02       		.byte	0x2
 813 0064 07       		.byte	0x7
 814 0065 4E010000 		.4byte	.LASF6
 815 0069 03       		.uleb128 0x3
 816 006a CF020000 		.4byte	.LASF7
 817 006e 03       		.byte	0x3
 818 006f 4F       		.byte	0x4f
 819 0070 74000000 		.4byte	0x74
 820 0074 04       		.uleb128 0x4
 821 0075 04       		.byte	0x4
 822 0076 05       		.byte	0x5
 823 0077 A7000000 		.4byte	.LASF8
 824 007b 03       		.uleb128 0x3
 825 007c 7A030000 		.4byte	.LASF9
 826 0080 03       		.byte	0x3
 827 0081 50       		.byte	0x50
 828 0082 86000000 		.4byte	0x86
 829 0086 04       		.uleb128 0x4
 830 0087 04       		.byte	0x4
 831 0088 07       		.byte	0x7
 832 0089 26010000 		.4byte	.LASF10
 833 008d 04       		.uleb128 0x4
 834 008e 08       		.byte	0x8
 835 008f 05       		.byte	0x5
ARM GAS  C:\Users\DNIEL~1\AppData\Local\Temp\cc5F2Pmv.s 			page 16


 836 0090 4F000000 		.4byte	.LASF11
 837 0094 04       		.uleb128 0x4
 838 0095 08       		.byte	0x8
 839 0096 07       		.byte	0x7
 840 0097 28000000 		.4byte	.LASF12
 841 009b 03       		.uleb128 0x3
 842 009c 71000000 		.4byte	.LASF13
 843 00a0 04       		.byte	0x4
 844 00a1 27       		.byte	0x27
 845 00a2 69000000 		.4byte	0x69
 846 00a6 03       		.uleb128 0x3
 847 00a7 67010000 		.4byte	.LASF14
 848 00ab 04       		.byte	0x4
 849 00ac 28       		.byte	0x28
 850 00ad 49000000 		.4byte	0x49
 851 00b1 03       		.uleb128 0x3
 852 00b2 B0000000 		.4byte	.LASF15
 853 00b6 04       		.byte	0x4
 854 00b7 29       		.byte	0x29
 855 00b8 49000000 		.4byte	0x49
 856 00bc 03       		.uleb128 0x3
 857 00bd 9C020000 		.4byte	.LASF16
 858 00c1 04       		.byte	0x4
 859 00c2 2A       		.byte	0x2a
 860 00c3 49000000 		.4byte	0x49
 861 00c7 03       		.uleb128 0x3
 862 00c8 90000000 		.4byte	.LASF17
 863 00cc 04       		.byte	0x4
 864 00cd 2B       		.byte	0x2b
 865 00ce 49000000 		.4byte	0x49
 866 00d2 03       		.uleb128 0x3
 867 00d3 C0020000 		.4byte	.LASF18
 868 00d7 04       		.byte	0x4
 869 00d8 2C       		.byte	0x2c
 870 00d9 7B000000 		.4byte	0x7b
 871 00dd 03       		.uleb128 0x3
 872 00de 61010000 		.4byte	.LASF19
 873 00e2 04       		.byte	0x4
 874 00e3 2D       		.byte	0x2d
 875 00e4 69000000 		.4byte	0x69
 876 00e8 03       		.uleb128 0x3
 877 00e9 7B010000 		.4byte	.LASF20
 878 00ed 04       		.byte	0x4
 879 00ee 2F       		.byte	0x2f
 880 00ef 7B000000 		.4byte	0x7b
 881 00f3 03       		.uleb128 0x3
 882 00f4 CE030000 		.4byte	.LASF21
 883 00f8 04       		.byte	0x4
 884 00f9 31       		.byte	0x31
 885 00fa 7B000000 		.4byte	0x7b
 886 00fe 03       		.uleb128 0x3
 887 00ff 3F030000 		.4byte	.LASF22
 888 0103 05       		.byte	0x5
 889 0104 23       		.byte	0x23
 890 0105 09010000 		.4byte	0x109
 891 0109 05       		.uleb128 0x5
 892 010a 3F030000 		.4byte	.LASF22
ARM GAS  C:\Users\DNIEL~1\AppData\Local\Temp\cc5F2Pmv.s 			page 17


 893 010e 48       		.byte	0x48
 894 010f 06       		.byte	0x6
 895 0110 57       		.byte	0x57
 896 0111 2E020000 		.4byte	0x22e
 897 0115 06       		.uleb128 0x6
 898 0116 30030000 		.4byte	.LASF23
 899 011a 06       		.byte	0x6
 900 011b 58       		.byte	0x58
 901 011c 53020000 		.4byte	0x253
 902 0120 02       		.byte	0x2
 903 0121 23       		.byte	0x23
 904 0122 00       		.uleb128 0
 905 0123 06       		.uleb128 0x6
 906 0124 B1020000 		.4byte	.LASF24
 907 0128 06       		.byte	0x6
 908 0129 5A       		.byte	0x5a
 909 012a 53020000 		.4byte	0x253
 910 012e 02       		.byte	0x2
 911 012f 23       		.byte	0x23
 912 0130 04       		.uleb128 0x4
 913 0131 06       		.uleb128 0x6
 914 0132 48000000 		.4byte	.LASF25
 915 0136 06       		.byte	0x6
 916 0137 5C       		.byte	0x5c
 917 0138 D2000000 		.4byte	0xd2
 918 013c 02       		.byte	0x2
 919 013d 23       		.byte	0x23
 920 013e 08       		.uleb128 0x8
 921 013f 06       		.uleb128 0x6
 922 0140 96040000 		.4byte	.LASF26
 923 0144 06       		.byte	0x6
 924 0145 5D       		.byte	0x5d
 925 0146 21030000 		.4byte	0x321
 926 014a 02       		.byte	0x2
 927 014b 23       		.byte	0x23
 928 014c 0C       		.uleb128 0xc
 929 014d 06       		.uleb128 0x6
 930 014e D2000000 		.4byte	.LASF27
 931 0152 06       		.byte	0x6
 932 0153 5F       		.byte	0x5f
 933 0154 53020000 		.4byte	0x253
 934 0158 02       		.byte	0x2
 935 0159 23       		.byte	0x23
 936 015a 10       		.uleb128 0x10
 937 015b 06       		.uleb128 0x6
 938 015c 3E020000 		.4byte	.LASF28
 939 0160 06       		.byte	0x6
 940 0161 60       		.byte	0x60
 941 0162 53020000 		.4byte	0x253
 942 0166 02       		.byte	0x2
 943 0167 23       		.byte	0x23
 944 0168 14       		.uleb128 0x14
 945 0169 06       		.uleb128 0x6
 946 016a 68040000 		.4byte	.LASF29
 947 016e 06       		.byte	0x6
 948 016f 67       		.byte	0x67
 949 0170 02050000 		.4byte	0x502
ARM GAS  C:\Users\DNIEL~1\AppData\Local\Temp\cc5F2Pmv.s 			page 18


 950 0174 02       		.byte	0x2
 951 0175 23       		.byte	0x23
 952 0176 18       		.uleb128 0x18
 953 0177 06       		.uleb128 0x6
 954 0178 08030000 		.4byte	.LASF30
 955 017c 06       		.byte	0x6
 956 017d 72       		.byte	0x72
 957 017e B1000000 		.4byte	0xb1
 958 0182 02       		.byte	0x2
 959 0183 23       		.byte	0x23
 960 0184 1C       		.uleb128 0x1c
 961 0185 06       		.uleb128 0x6
 962 0186 37030000 		.4byte	.LASF31
 963 018a 06       		.byte	0x6
 964 018b 76       		.byte	0x76
 965 018c A6000000 		.4byte	0xa6
 966 0190 02       		.byte	0x2
 967 0191 23       		.byte	0x23
 968 0192 1D       		.uleb128 0x1d
 969 0193 06       		.uleb128 0x6
 970 0194 17040000 		.4byte	.LASF32
 971 0198 06       		.byte	0x6
 972 0199 7B       		.byte	0x7b
 973 019a BC000000 		.4byte	0xbc
 974 019e 02       		.byte	0x2
 975 019f 23       		.byte	0x23
 976 01a0 1E       		.uleb128 0x1e
 977 01a1 06       		.uleb128 0x6
 978 01a2 10030000 		.4byte	.LASF33
 979 01a6 06       		.byte	0x6
 980 01a7 81       		.byte	0x81
 981 01a8 C7000000 		.4byte	0xc7
 982 01ac 02       		.byte	0x2
 983 01ad 23       		.byte	0x23
 984 01ae 1F       		.uleb128 0x1f
 985 01af 06       		.uleb128 0x6
 986 01b0 EC030000 		.4byte	.LASF34
 987 01b4 06       		.byte	0x6
 988 01b5 88       		.byte	0x88
 989 01b6 0D040000 		.4byte	0x40d
 990 01ba 02       		.byte	0x2
 991 01bb 23       		.byte	0x23
 992 01bc 20       		.uleb128 0x20
 993 01bd 07       		.uleb128 0x7
 994 01be 705F7500 		.ascii	"p_u\000"
 995 01c2 06       		.byte	0x6
 996 01c3 AD       		.byte	0xad
 997 01c4 CD040000 		.4byte	0x4cd
 998 01c8 02       		.byte	0x2
 999 01c9 23       		.byte	0x23
 1000 01ca 24       		.uleb128 0x24
 1001 01cb 06       		.uleb128 0x6
 1002 01cc 9C040000 		.4byte	.LASF35
 1003 01d0 06       		.byte	0x6
 1004 01d1 B2       		.byte	0xb2
 1005 01d2 7B020000 		.4byte	0x27b
 1006 01d6 02       		.byte	0x2
ARM GAS  C:\Users\DNIEL~1\AppData\Local\Temp\cc5F2Pmv.s 			page 19


 1007 01d7 23       		.byte	0x23
 1008 01d8 28       		.uleb128 0x28
 1009 01d9 06       		.uleb128 0x6
 1010 01da FA030000 		.4byte	.LASF36
 1011 01de 06       		.byte	0x6
 1012 01df B8       		.byte	0xb8
 1013 01e0 59020000 		.4byte	0x259
 1014 01e4 02       		.byte	0x2
 1015 01e5 23       		.byte	0x23
 1016 01e6 2C       		.uleb128 0x2c
 1017 01e7 06       		.uleb128 0x6
 1018 01e8 08000000 		.4byte	.LASF37
 1019 01ec 06       		.byte	0x6
 1020 01ed BC       		.byte	0xbc
 1021 01ee DD000000 		.4byte	0xdd
 1022 01f2 02       		.byte	0x2
 1023 01f3 23       		.byte	0x23
 1024 01f4 34       		.uleb128 0x34
 1025 01f5 06       		.uleb128 0x6
 1026 01f6 6F030000 		.4byte	.LASF38
 1027 01fa 06       		.byte	0x6
 1028 01fb C2       		.byte	0xc2
 1029 01fc E8000000 		.4byte	0xe8
 1030 0200 02       		.byte	0x2
 1031 0201 23       		.byte	0x23
 1032 0202 38       		.uleb128 0x38
 1033 0203 06       		.uleb128 0x6
 1034 0204 F4020000 		.4byte	.LASF39
 1035 0208 06       		.byte	0x6
 1036 0209 C9       		.byte	0xc9
 1037 020a 14050000 		.4byte	0x514
 1038 020e 02       		.byte	0x2
 1039 020f 23       		.byte	0x23
 1040 0210 3C       		.uleb128 0x3c
 1041 0211 06       		.uleb128 0x6
 1042 0212 D8030000 		.4byte	.LASF40
 1043 0216 06       		.byte	0x6
 1044 0217 CD       		.byte	0xcd
 1045 0218 D2000000 		.4byte	0xd2
 1046 021c 02       		.byte	0x2
 1047 021d 23       		.byte	0x23
 1048 021e 40       		.uleb128 0x40
 1049 021f 06       		.uleb128 0x6
 1050 0220 69000000 		.4byte	.LASF41
 1051 0224 06       		.byte	0x6
 1052 0225 D3       		.byte	0xd3
 1053 0226 91020000 		.4byte	0x291
 1054 022a 02       		.byte	0x2
 1055 022b 23       		.byte	0x23
 1056 022c 44       		.uleb128 0x44
 1057 022d 00       		.byte	0
 1058 022e 08       		.uleb128 0x8
 1059 022f 08       		.byte	0x8
 1060 0230 05       		.byte	0x5
 1061 0231 5A       		.byte	0x5a
 1062 0232 53020000 		.4byte	0x253
 1063 0236 06       		.uleb128 0x6
ARM GAS  C:\Users\DNIEL~1\AppData\Local\Temp\cc5F2Pmv.s 			page 20


 1064 0237 30030000 		.4byte	.LASF23
 1065 023b 05       		.byte	0x5
 1066 023c 5B       		.byte	0x5b
 1067 023d 53020000 		.4byte	0x253
 1068 0241 02       		.byte	0x2
 1069 0242 23       		.byte	0x23
 1070 0243 00       		.uleb128 0
 1071 0244 06       		.uleb128 0x6
 1072 0245 B1020000 		.4byte	.LASF24
 1073 0249 05       		.byte	0x5
 1074 024a 5D       		.byte	0x5d
 1075 024b 53020000 		.4byte	0x253
 1076 024f 02       		.byte	0x2
 1077 0250 23       		.byte	0x23
 1078 0251 04       		.uleb128 0x4
 1079 0252 00       		.byte	0
 1080 0253 09       		.uleb128 0x9
 1081 0254 04       		.byte	0x4
 1082 0255 FE000000 		.4byte	0xfe
 1083 0259 03       		.uleb128 0x3
 1084 025a 4C020000 		.4byte	.LASF42
 1085 025e 05       		.byte	0x5
 1086 025f 5F       		.byte	0x5f
 1087 0260 2E020000 		.4byte	0x22e
 1088 0264 08       		.uleb128 0x8
 1089 0265 04       		.byte	0x4
 1090 0266 05       		.byte	0x5
 1091 0267 64       		.byte	0x64
 1092 0268 7B020000 		.4byte	0x27b
 1093 026c 06       		.uleb128 0x6
 1094 026d 30030000 		.4byte	.LASF23
 1095 0271 05       		.byte	0x5
 1096 0272 66       		.byte	0x66
 1097 0273 53020000 		.4byte	0x253
 1098 0277 02       		.byte	0x2
 1099 0278 23       		.byte	0x23
 1100 0279 00       		.uleb128 0
 1101 027a 00       		.byte	0
 1102 027b 03       		.uleb128 0x3
 1103 027c 6F010000 		.4byte	.LASF43
 1104 0280 05       		.byte	0x5
 1105 0281 69       		.byte	0x69
 1106 0282 64020000 		.4byte	0x264
 1107 0286 03       		.uleb128 0x3
 1108 0287 F3000000 		.4byte	.LASF44
 1109 028b 07       		.byte	0x7
 1110 028c DE       		.byte	0xde
 1111 028d 91020000 		.4byte	0x291
 1112 0291 0A       		.uleb128 0xa
 1113 0292 04       		.byte	0x4
 1114 0293 0B       		.uleb128 0xb
 1115 0294 F3030000 		.4byte	.LASF45
 1116 0298 24       		.byte	0x24
 1117 0299 07       		.byte	0x7
 1118 029a 0501     		.2byte	0x105
 1119 029c 21030000 		.4byte	0x321
 1120 02a0 0C       		.uleb128 0xc
ARM GAS  C:\Users\DNIEL~1\AppData\Local\Temp\cc5F2Pmv.s 			page 21


 1121 02a1 723400   		.ascii	"r4\000"
 1122 02a4 07       		.byte	0x7
 1123 02a5 1801     		.2byte	0x118
 1124 02a7 86020000 		.4byte	0x286
 1125 02ab 02       		.byte	0x2
 1126 02ac 23       		.byte	0x23
 1127 02ad 00       		.uleb128 0
 1128 02ae 0C       		.uleb128 0xc
 1129 02af 723500   		.ascii	"r5\000"
 1130 02b2 07       		.byte	0x7
 1131 02b3 1901     		.2byte	0x119
 1132 02b5 86020000 		.4byte	0x286
 1133 02b9 02       		.byte	0x2
 1134 02ba 23       		.byte	0x23
 1135 02bb 04       		.uleb128 0x4
 1136 02bc 0C       		.uleb128 0xc
 1137 02bd 723600   		.ascii	"r6\000"
 1138 02c0 07       		.byte	0x7
 1139 02c1 1A01     		.2byte	0x11a
 1140 02c3 86020000 		.4byte	0x286
 1141 02c7 02       		.byte	0x2
 1142 02c8 23       		.byte	0x23
 1143 02c9 08       		.uleb128 0x8
 1144 02ca 0C       		.uleb128 0xc
 1145 02cb 723700   		.ascii	"r7\000"
 1146 02ce 07       		.byte	0x7
 1147 02cf 1B01     		.2byte	0x11b
 1148 02d1 86020000 		.4byte	0x286
 1149 02d5 02       		.byte	0x2
 1150 02d6 23       		.byte	0x23
 1151 02d7 0C       		.uleb128 0xc
 1152 02d8 0C       		.uleb128 0xc
 1153 02d9 723800   		.ascii	"r8\000"
 1154 02dc 07       		.byte	0x7
 1155 02dd 1C01     		.2byte	0x11c
 1156 02df 86020000 		.4byte	0x286
 1157 02e3 02       		.byte	0x2
 1158 02e4 23       		.byte	0x23
 1159 02e5 10       		.uleb128 0x10
 1160 02e6 0C       		.uleb128 0xc
 1161 02e7 723900   		.ascii	"r9\000"
 1162 02ea 07       		.byte	0x7
 1163 02eb 1D01     		.2byte	0x11d
 1164 02ed 86020000 		.4byte	0x286
 1165 02f1 02       		.byte	0x2
 1166 02f2 23       		.byte	0x23
 1167 02f3 14       		.uleb128 0x14
 1168 02f4 0C       		.uleb128 0xc
 1169 02f5 72313000 		.ascii	"r10\000"
 1170 02f9 07       		.byte	0x7
 1171 02fa 1E01     		.2byte	0x11e
 1172 02fc 86020000 		.4byte	0x286
 1173 0300 02       		.byte	0x2
 1174 0301 23       		.byte	0x23
 1175 0302 18       		.uleb128 0x18
 1176 0303 0C       		.uleb128 0xc
 1177 0304 72313100 		.ascii	"r11\000"
ARM GAS  C:\Users\DNIEL~1\AppData\Local\Temp\cc5F2Pmv.s 			page 22


 1178 0308 07       		.byte	0x7
 1179 0309 1F01     		.2byte	0x11f
 1180 030b 86020000 		.4byte	0x286
 1181 030f 02       		.byte	0x2
 1182 0310 23       		.byte	0x23
 1183 0311 1C       		.uleb128 0x1c
 1184 0312 0C       		.uleb128 0xc
 1185 0313 6C7200   		.ascii	"lr\000"
 1186 0316 07       		.byte	0x7
 1187 0317 2001     		.2byte	0x120
 1188 0319 86020000 		.4byte	0x286
 1189 031d 02       		.byte	0x2
 1190 031e 23       		.byte	0x23
 1191 031f 20       		.uleb128 0x20
 1192 0320 00       		.byte	0
 1193 0321 0B       		.uleb128 0xb
 1194 0322 46010000 		.4byte	.LASF46
 1195 0326 04       		.byte	0x4
 1196 0327 07       		.byte	0x7
 1197 0328 2A01     		.2byte	0x12a
 1198 032a 3E030000 		.4byte	0x33e
 1199 032e 0C       		.uleb128 0xc
 1200 032f 72313300 		.ascii	"r13\000"
 1201 0333 07       		.byte	0x7
 1202 0334 2B01     		.2byte	0x12b
 1203 0336 3E030000 		.4byte	0x33e
 1204 033a 02       		.byte	0x2
 1205 033b 23       		.byte	0x23
 1206 033c 00       		.uleb128 0
 1207 033d 00       		.byte	0
 1208 033e 09       		.uleb128 0x9
 1209 033f 04       		.byte	0x4
 1210 0340 93020000 		.4byte	0x293
 1211 0344 04       		.uleb128 0x4
 1212 0345 04       		.byte	0x4
 1213 0346 07       		.byte	0x7
 1214 0347 B4010000 		.4byte	.LASF47
 1215 034b 03       		.uleb128 0x3
 1216 034c E3030000 		.4byte	.LASF48
 1217 0350 08       		.byte	0x8
 1218 0351 4E       		.byte	0x4e
 1219 0352 56030000 		.4byte	0x356
 1220 0356 09       		.uleb128 0x9
 1221 0357 04       		.byte	0x4
 1222 0358 5C030000 		.4byte	0x35c
 1223 035c 0D       		.uleb128 0xd
 1224 035d 01       		.byte	0x1
 1225 035e 68030000 		.4byte	0x368
 1226 0362 0E       		.uleb128 0xe
 1227 0363 91020000 		.4byte	0x291
 1228 0367 00       		.byte	0
 1229 0368 03       		.uleb128 0x3
 1230 0369 8B030000 		.4byte	.LASF49
 1231 036d 08       		.byte	0x8
 1232 036e 53       		.byte	0x53
 1233 036f 73030000 		.4byte	0x373
 1234 0373 05       		.uleb128 0x5
ARM GAS  C:\Users\DNIEL~1\AppData\Local\Temp\cc5F2Pmv.s 			page 23


 1235 0374 8B030000 		.4byte	.LASF49
 1236 0378 14       		.byte	0x14
 1237 0379 08       		.byte	0x8
 1238 037a 5A       		.byte	0x5a
 1239 037b C6030000 		.4byte	0x3c6
 1240 037f 06       		.uleb128 0x6
 1241 0380 1E010000 		.4byte	.LASF50
 1242 0384 08       		.byte	0x8
 1243 0385 5B       		.byte	0x5b
 1244 0386 C6030000 		.4byte	0x3c6
 1245 038a 02       		.byte	0x2
 1246 038b 23       		.byte	0x23
 1247 038c 00       		.uleb128 0
 1248 038d 06       		.uleb128 0x6
 1249 038e FC000000 		.4byte	.LASF51
 1250 0392 08       		.byte	0x8
 1251 0393 5D       		.byte	0x5d
 1252 0394 C6030000 		.4byte	0x3c6
 1253 0398 02       		.byte	0x2
 1254 0399 23       		.byte	0x23
 1255 039a 04       		.uleb128 0x4
 1256 039b 06       		.uleb128 0x6
 1257 039c AC010000 		.4byte	.LASF52
 1258 03a0 08       		.byte	0x8
 1259 03a1 5F       		.byte	0x5f
 1260 03a2 F3000000 		.4byte	0xf3
 1261 03a6 02       		.byte	0x2
 1262 03a7 23       		.byte	0x23
 1263 03a8 08       		.uleb128 0x8
 1264 03a9 06       		.uleb128 0x6
 1265 03aa E1010000 		.4byte	.LASF53
 1266 03ae 08       		.byte	0x8
 1267 03af 60       		.byte	0x60
 1268 03b0 4B030000 		.4byte	0x34b
 1269 03b4 02       		.byte	0x2
 1270 03b5 23       		.byte	0x23
 1271 03b6 0C       		.uleb128 0xc
 1272 03b7 06       		.uleb128 0x6
 1273 03b8 05040000 		.4byte	.LASF54
 1274 03bc 08       		.byte	0x8
 1275 03bd 62       		.byte	0x62
 1276 03be 91020000 		.4byte	0x291
 1277 03c2 02       		.byte	0x2
 1278 03c3 23       		.byte	0x23
 1279 03c4 10       		.uleb128 0x10
 1280 03c5 00       		.byte	0
 1281 03c6 09       		.uleb128 0x9
 1282 03c7 04       		.byte	0x4
 1283 03c8 68030000 		.4byte	0x368
 1284 03cc 08       		.uleb128 0x8
 1285 03cd 10       		.byte	0x10
 1286 03ce 08       		.byte	0x8
 1287 03cf 6C       		.byte	0x6c
 1288 03d0 0D040000 		.4byte	0x40d
 1289 03d4 06       		.uleb128 0x6
 1290 03d5 1E010000 		.4byte	.LASF50
 1291 03d9 08       		.byte	0x8
ARM GAS  C:\Users\DNIEL~1\AppData\Local\Temp\cc5F2Pmv.s 			page 24


 1292 03da 6D       		.byte	0x6d
 1293 03db C6030000 		.4byte	0x3c6
 1294 03df 02       		.byte	0x2
 1295 03e0 23       		.byte	0x23
 1296 03e1 00       		.uleb128 0
 1297 03e2 06       		.uleb128 0x6
 1298 03e3 FC000000 		.4byte	.LASF51
 1299 03e7 08       		.byte	0x8
 1300 03e8 6F       		.byte	0x6f
 1301 03e9 C6030000 		.4byte	0x3c6
 1302 03ed 02       		.byte	0x2
 1303 03ee 23       		.byte	0x23
 1304 03ef 04       		.uleb128 0x4
 1305 03f0 06       		.uleb128 0x6
 1306 03f1 AC010000 		.4byte	.LASF52
 1307 03f5 08       		.byte	0x8
 1308 03f6 71       		.byte	0x71
 1309 03f7 F3000000 		.4byte	0xf3
 1310 03fb 02       		.byte	0x2
 1311 03fc 23       		.byte	0x23
 1312 03fd 08       		.uleb128 0x8
 1313 03fe 06       		.uleb128 0x6
 1314 03ff 7C040000 		.4byte	.LASF55
 1315 0403 08       		.byte	0x8
 1316 0404 72       		.byte	0x72
 1317 0405 0D040000 		.4byte	0x40d
 1318 0409 02       		.byte	0x2
 1319 040a 23       		.byte	0x23
 1320 040b 0C       		.uleb128 0xc
 1321 040c 00       		.byte	0
 1322 040d 0F       		.uleb128 0xf
 1323 040e F3000000 		.4byte	0xf3
 1324 0412 03       		.uleb128 0x3
 1325 0413 87040000 		.4byte	.LASF56
 1326 0417 08       		.byte	0x8
 1327 0418 73       		.byte	0x73
 1328 0419 CC030000 		.4byte	0x3cc
 1329 041d 08       		.uleb128 0x8
 1330 041e 1C       		.byte	0x1c
 1331 041f 09       		.byte	0x9
 1332 0420 57       		.byte	0x57
 1333 0421 7A040000 		.4byte	0x47a
 1334 0425 06       		.uleb128 0x6
 1335 0426 83030000 		.4byte	.LASF57
 1336 042a 09       		.byte	0x9
 1337 042b 58       		.byte	0x58
 1338 042c 59020000 		.4byte	0x259
 1339 0430 02       		.byte	0x2
 1340 0431 23       		.byte	0x23
 1341 0432 00       		.uleb128 0
 1342 0433 06       		.uleb128 0x6
 1343 0434 22030000 		.4byte	.LASF58
 1344 0438 09       		.byte	0x9
 1345 0439 59       		.byte	0x59
 1346 043a D2000000 		.4byte	0xd2
 1347 043e 02       		.byte	0x2
 1348 043f 23       		.byte	0x23
ARM GAS  C:\Users\DNIEL~1\AppData\Local\Temp\cc5F2Pmv.s 			page 25


 1349 0440 08       		.uleb128 0x8
 1350 0441 06       		.uleb128 0x6
 1351 0442 46020000 		.4byte	.LASF59
 1352 0446 09       		.byte	0x9
 1353 0447 5B       		.byte	0x5b
 1354 0448 21030000 		.4byte	0x321
 1355 044c 02       		.byte	0x2
 1356 044d 23       		.byte	0x23
 1357 044e 0C       		.uleb128 0xc
 1358 044f 06       		.uleb128 0x6
 1359 0450 EB000000 		.4byte	.LASF60
 1360 0454 09       		.byte	0x9
 1361 0455 5E       		.byte	0x5e
 1362 0456 53020000 		.4byte	0x253
 1363 045a 02       		.byte	0x2
 1364 045b 23       		.byte	0x23
 1365 045c 10       		.uleb128 0x10
 1366 045d 06       		.uleb128 0x6
 1367 045e 84020000 		.4byte	.LASF61
 1368 0462 09       		.byte	0x9
 1369 0463 5F       		.byte	0x5f
 1370 0464 53020000 		.4byte	0x253
 1371 0468 02       		.byte	0x2
 1372 0469 23       		.byte	0x23
 1373 046a 14       		.uleb128 0x14
 1374 046b 06       		.uleb128 0x6
 1375 046c 7A020000 		.4byte	.LASF62
 1376 0470 09       		.byte	0x9
 1377 0471 62       		.byte	0x62
 1378 0472 53020000 		.4byte	0x253
 1379 0476 02       		.byte	0x2
 1380 0477 23       		.byte	0x23
 1381 0478 18       		.uleb128 0x18
 1382 0479 00       		.byte	0
 1383 047a 03       		.uleb128 0x3
 1384 047b 1E040000 		.4byte	.LASF63
 1385 047f 09       		.byte	0x9
 1386 0480 64       		.byte	0x64
 1387 0481 1D040000 		.4byte	0x41d
 1388 0485 05       		.uleb128 0x5
 1389 0486 87010000 		.4byte	.LASF64
 1390 048a 10       		.byte	0x10
 1391 048b 0A       		.byte	0xa
 1392 048c 25       		.byte	0x25
 1393 048d BC040000 		.4byte	0x4bc
 1394 0491 06       		.uleb128 0x6
 1395 0492 78000000 		.4byte	.LASF65
 1396 0496 0A       		.byte	0xa
 1397 0497 26       		.byte	0x26
 1398 0498 59020000 		.4byte	0x259
 1399 049c 02       		.byte	0x2
 1400 049d 23       		.byte	0x23
 1401 049e 00       		.uleb128 0
 1402 049f 06       		.uleb128 0x6
 1403 04a0 8E040000 		.4byte	.LASF66
 1404 04a4 0A       		.byte	0xa
 1405 04a5 28       		.byte	0x28
ARM GAS  C:\Users\DNIEL~1\AppData\Local\Temp\cc5F2Pmv.s 			page 26


 1406 04a6 53020000 		.4byte	0x253
 1407 04aa 02       		.byte	0x2
 1408 04ab 23       		.byte	0x23
 1409 04ac 08       		.uleb128 0x8
 1410 04ad 06       		.uleb128 0x6
 1411 04ae C7030000 		.4byte	.LASF67
 1412 04b2 0A       		.byte	0xa
 1413 04b3 2A       		.byte	0x2a
 1414 04b4 BC040000 		.4byte	0x4bc
 1415 04b8 02       		.byte	0x2
 1416 04b9 23       		.byte	0x23
 1417 04ba 0C       		.uleb128 0xc
 1418 04bb 00       		.byte	0
 1419 04bc 09       		.uleb128 0x9
 1420 04bd 04       		.byte	0x4
 1421 04be 85040000 		.4byte	0x485
 1422 04c2 03       		.uleb128 0x3
 1423 04c3 87010000 		.4byte	.LASF64
 1424 04c7 0A       		.byte	0xa
 1425 04c8 2C       		.byte	0x2c
 1426 04c9 85040000 		.4byte	0x485
 1427 04cd 10       		.uleb128 0x10
 1428 04ce 04       		.byte	0x4
 1429 04cf 06       		.byte	0x6
 1430 04d0 8F       		.byte	0x8f
 1431 04d1 02050000 		.4byte	0x502
 1432 04d5 11       		.uleb128 0x11
 1433 04d6 1A000000 		.4byte	.LASF68
 1434 04da 06       		.byte	0x6
 1435 04db 96       		.byte	0x96
 1436 04dc DD000000 		.4byte	0xdd
 1437 04e0 11       		.uleb128 0x11
 1438 04e1 3F000000 		.4byte	.LASF69
 1439 04e5 06       		.byte	0x6
 1440 04e6 9D       		.byte	0x9d
 1441 04e7 DD000000 		.4byte	0xdd
 1442 04eb 11       		.uleb128 0x11
 1443 04ec 61040000 		.4byte	.LASF70
 1444 04f0 06       		.byte	0x6
 1445 04f1 A4       		.byte	0xa4
 1446 04f2 91020000 		.4byte	0x291
 1447 04f6 11       		.uleb128 0x11
 1448 04f7 29030000 		.4byte	.LASF71
 1449 04fb 06       		.byte	0x6
 1450 04fc AB       		.byte	0xab
 1451 04fd E8000000 		.4byte	0xe8
 1452 0501 00       		.byte	0
 1453 0502 09       		.uleb128 0x9
 1454 0503 04       		.byte	0x4
 1455 0504 08050000 		.4byte	0x508
 1456 0508 12       		.uleb128 0x12
 1457 0509 0D050000 		.4byte	0x50d
 1458 050d 04       		.uleb128 0x4
 1459 050e 01       		.byte	0x1
 1460 050f 08       		.byte	0x8
 1461 0510 98030000 		.4byte	.LASF72
 1462 0514 09       		.uleb128 0x9
ARM GAS  C:\Users\DNIEL~1\AppData\Local\Temp\cc5F2Pmv.s 			page 27


 1463 0515 04       		.byte	0x4
 1464 0516 C2040000 		.4byte	0x4c2
 1465 051a 03       		.uleb128 0x3
 1466 051b 00000000 		.4byte	.LASF73
 1467 051f 06       		.byte	0x6
 1468 0520 DE       		.byte	0xde
 1469 0521 25050000 		.4byte	0x525
 1470 0525 09       		.uleb128 0x9
 1471 0526 04       		.byte	0x4
 1472 0527 2B050000 		.4byte	0x52b
 1473 052b 13       		.uleb128 0x13
 1474 052c 01       		.byte	0x1
 1475 052d DD000000 		.4byte	0xdd
 1476 0531 3B050000 		.4byte	0x53b
 1477 0535 0E       		.uleb128 0xe
 1478 0536 91020000 		.4byte	0x291
 1479 053a 00       		.byte	0
 1480 053b 05       		.uleb128 0x5
 1481 053c 46030000 		.4byte	.LASF74
 1482 0540 10       		.byte	0x10
 1483 0541 0B       		.byte	0xb
 1484 0542 3F       		.byte	0x3f
 1485 0543 80050000 		.4byte	0x580
 1486 0547 06       		.uleb128 0x6
 1487 0548 41010000 		.4byte	.LASF75
 1488 054c 0B       		.byte	0xb
 1489 054d 40       		.byte	0x40
 1490 054e 02050000 		.4byte	0x502
 1491 0552 02       		.byte	0x2
 1492 0553 23       		.byte	0x23
 1493 0554 00       		.uleb128 0
 1494 0555 06       		.uleb128 0x6
 1495 0556 59020000 		.4byte	.LASF76
 1496 055a 0B       		.byte	0xb
 1497 055b 41       		.byte	0x41
 1498 055c 82050000 		.4byte	0x582
 1499 0560 02       		.byte	0x2
 1500 0561 23       		.byte	0x23
 1501 0562 04       		.uleb128 0x4
 1502 0563 06       		.uleb128 0x6
 1503 0564 38010000 		.4byte	.LASF77
 1504 0568 0B       		.byte	0xb
 1505 0569 42       		.byte	0x42
 1506 056a 82050000 		.4byte	0x582
 1507 056e 02       		.byte	0x2
 1508 056f 23       		.byte	0x23
 1509 0570 08       		.uleb128 0x8
 1510 0571 06       		.uleb128 0x6
 1511 0572 B8020000 		.4byte	.LASF78
 1512 0576 0B       		.byte	0xb
 1513 0577 43       		.byte	0x43
 1514 0578 82050000 		.4byte	0x582
 1515 057c 02       		.byte	0x2
 1516 057d 23       		.byte	0x23
 1517 057e 0C       		.uleb128 0xc
 1518 057f 00       		.byte	0
 1519 0580 14       		.uleb128 0x14
ARM GAS  C:\Users\DNIEL~1\AppData\Local\Temp\cc5F2Pmv.s 			page 28


 1520 0581 01       		.byte	0x1
 1521 0582 09       		.uleb128 0x9
 1522 0583 04       		.byte	0x4
 1523 0584 80050000 		.4byte	0x580
 1524 0588 15       		.uleb128 0x15
 1525 0589 9D030000 		.4byte	.LASF104
 1526 058d 01       		.byte	0x1
 1527 058e C1       		.byte	0xc1
 1528 058f 01       		.byte	0x1
 1529 0590 01       		.byte	0x1
 1530 0591 A1050000 		.4byte	0x5a1
 1531 0595 16       		.uleb128 0x16
 1532 0596 75020000 		.4byte	.LASF105
 1533 059a 01       		.byte	0x1
 1534 059b C2       		.byte	0xc2
 1535 059c F3000000 		.4byte	0xf3
 1536 05a0 00       		.byte	0
 1537 05a1 17       		.uleb128 0x17
 1538 05a2 A4020000 		.4byte	.LASF80
 1539 05a6 01       		.byte	0x1
 1540 05a7 82       		.byte	0x82
 1541 05a8 01       		.byte	0x1
 1542 05a9 00000000 		.4byte	.LFB10
 1543 05ad 3C010000 		.4byte	.LFE10
 1544 05b1 00000000 		.4byte	.LLST0
 1545 05b5 01       		.byte	0x1
 1546 05b6 6E070000 		.4byte	0x76e
 1547 05ba 18       		.uleb128 0x18
 1548 05bb 15000000 		.4byte	.LASF79
 1549 05bf 01       		.byte	0x1
 1550 05c0 83       		.byte	0x83
 1551 05c1 D2000000 		.4byte	0xd2
 1552 05c5 01       		.byte	0x1
 1553 05c6 54       		.byte	0x54
 1554 05c7 19       		.uleb128 0x19
 1555 05c8 703100   		.ascii	"p1\000"
 1556 05cb 01       		.byte	0x1
 1557 05cc 83       		.byte	0x83
 1558 05cd D2000000 		.4byte	0xd2
 1559 05d1 20000000 		.4byte	.LLST1
 1560 05d5 1A       		.uleb128 0x1a
 1561 05d6 6C000000 		.4byte	.LBB2
 1562 05da 72000000 		.4byte	.LBE2
 1563 05de F2050000 		.4byte	0x5f2
 1564 05e2 19       		.uleb128 0x19
 1565 05e3 746D7000 		.ascii	"tmp\000"
 1566 05e7 01       		.byte	0x1
 1567 05e8 93       		.byte	0x93
 1568 05e9 7B000000 		.4byte	0x7b
 1569 05ed 6A000000 		.4byte	.LLST2
 1570 05f1 00       		.byte	0
 1571 05f2 1A       		.uleb128 0x1a
 1572 05f3 7A000000 		.4byte	.LBB3
 1573 05f7 80000000 		.4byte	.LBE3
 1574 05fb 0F060000 		.4byte	0x60f
 1575 05ff 19       		.uleb128 0x19
 1576 0600 746D7000 		.ascii	"tmp\000"
ARM GAS  C:\Users\DNIEL~1\AppData\Local\Temp\cc5F2Pmv.s 			page 29


 1577 0604 01       		.byte	0x1
 1578 0605 95       		.byte	0x95
 1579 0606 7B000000 		.4byte	0x7b
 1580 060a 7D000000 		.4byte	.LLST3
 1581 060e 00       		.byte	0
 1582 060f 1A       		.uleb128 0x1a
 1583 0610 24010000 		.4byte	.LBB4
 1584 0614 2A010000 		.4byte	.LBE4
 1585 0618 2C060000 		.4byte	0x62c
 1586 061c 19       		.uleb128 0x19
 1587 061d 746D7000 		.ascii	"tmp\000"
 1588 0621 01       		.byte	0x1
 1589 0622 AB       		.byte	0xab
 1590 0623 7B000000 		.4byte	0x7b
 1591 0627 90000000 		.4byte	.LLST4
 1592 062b 00       		.byte	0
 1593 062c 1B       		.uleb128 0x1b
 1594 062d 00000000 		.4byte	.Ldebug_ranges0+0
 1595 0631 45060000 		.4byte	0x645
 1596 0635 19       		.uleb128 0x19
 1597 0636 746D7000 		.ascii	"tmp\000"
 1598 063a 01       		.byte	0x1
 1599 063b AE       		.byte	0xae
 1600 063c 7B000000 		.4byte	0x7b
 1601 0640 A3000000 		.4byte	.LLST5
 1602 0644 00       		.byte	0
 1603 0645 1C       		.uleb128 0x1c
 1604 0646 10000000 		.4byte	.LVL1
 1605 064a EC0B0000 		.4byte	0xbec
 1606 064e 59060000 		.4byte	0x659
 1607 0652 1D       		.uleb128 0x1d
 1608 0653 01       		.byte	0x1
 1609 0654 50       		.byte	0x50
 1610 0655 02       		.byte	0x2
 1611 0656 75       		.byte	0x75
 1612 0657 00       		.sleb128 0
 1613 0658 00       		.byte	0
 1614 0659 1C       		.uleb128 0x1c
 1615 065a 1E000000 		.4byte	.LVL4
 1616 065e 050C0000 		.4byte	0xc05
 1617 0662 77060000 		.4byte	0x677
 1618 0666 1D       		.uleb128 0x1d
 1619 0667 01       		.byte	0x1
 1620 0668 51       		.byte	0x51
 1621 0669 07       		.byte	0x7
 1622 066a 77       		.byte	0x77
 1623 066b 00       		.sleb128 0
 1624 066c 74       		.byte	0x74
 1625 066d 00       		.sleb128 0
 1626 066e 1C       		.byte	0x1c
 1627 066f 30       		.byte	0x30
 1628 0670 29       		.byte	0x29
 1629 0671 1D       		.uleb128 0x1d
 1630 0672 01       		.byte	0x1
 1631 0673 50       		.byte	0x50
 1632 0674 01       		.byte	0x1
 1633 0675 31       		.byte	0x31
ARM GAS  C:\Users\DNIEL~1\AppData\Local\Temp\cc5F2Pmv.s 			page 30


 1634 0676 00       		.byte	0
 1635 0677 1C       		.uleb128 0x1c
 1636 0678 32000000 		.4byte	.LVL7
 1637 067c 050C0000 		.4byte	0xc05
 1638 0680 8A060000 		.4byte	0x68a
 1639 0684 1D       		.uleb128 0x1d
 1640 0685 01       		.byte	0x1
 1641 0686 50       		.byte	0x50
 1642 0687 01       		.byte	0x1
 1643 0688 32       		.byte	0x32
 1644 0689 00       		.byte	0
 1645 068a 1C       		.uleb128 0x1c
 1646 068b 3C000000 		.4byte	.LVL8
 1647 068f EC0B0000 		.4byte	0xbec
 1648 0693 9E060000 		.4byte	0x69e
 1649 0697 1D       		.uleb128 0x1d
 1650 0698 01       		.byte	0x1
 1651 0699 50       		.byte	0x50
 1652 069a 02       		.byte	0x2
 1653 069b 77       		.byte	0x77
 1654 069c 00       		.sleb128 0
 1655 069d 00       		.byte	0
 1656 069e 1C       		.uleb128 0x1c
 1657 069f 4E000000 		.4byte	.LVL10
 1658 06a3 050C0000 		.4byte	0xc05
 1659 06a7 B1060000 		.4byte	0x6b1
 1660 06ab 1D       		.uleb128 0x1d
 1661 06ac 01       		.byte	0x1
 1662 06ad 50       		.byte	0x50
 1663 06ae 01       		.byte	0x1
 1664 06af 33       		.byte	0x33
 1665 06b0 00       		.byte	0
 1666 06b1 1C       		.uleb128 0x1c
 1667 06b2 68000000 		.4byte	.LVL11
 1668 06b6 050C0000 		.4byte	0xc05
 1669 06ba C4060000 		.4byte	0x6c4
 1670 06be 1D       		.uleb128 0x1d
 1671 06bf 01       		.byte	0x1
 1672 06c0 50       		.byte	0x50
 1673 06c1 01       		.byte	0x1
 1674 06c2 34       		.byte	0x34
 1675 06c3 00       		.byte	0
 1676 06c4 1C       		.uleb128 0x1c
 1677 06c5 94000000 		.4byte	.LVL18
 1678 06c9 050C0000 		.4byte	0xc05
 1679 06cd D7060000 		.4byte	0x6d7
 1680 06d1 1D       		.uleb128 0x1d
 1681 06d2 01       		.byte	0x1
 1682 06d3 50       		.byte	0x50
 1683 06d4 01       		.byte	0x1
 1684 06d5 35       		.byte	0x35
 1685 06d6 00       		.byte	0
 1686 06d7 1C       		.uleb128 0x1c
 1687 06d8 9E000000 		.4byte	.LVL19
 1688 06dc EC0B0000 		.4byte	0xbec
 1689 06e0 EB060000 		.4byte	0x6eb
 1690 06e4 1D       		.uleb128 0x1d
ARM GAS  C:\Users\DNIEL~1\AppData\Local\Temp\cc5F2Pmv.s 			page 31


 1691 06e5 01       		.byte	0x1
 1692 06e6 50       		.byte	0x50
 1693 06e7 02       		.byte	0x2
 1694 06e8 75       		.byte	0x75
 1695 06e9 00       		.sleb128 0
 1696 06ea 00       		.byte	0
 1697 06eb 1C       		.uleb128 0x1c
 1698 06ec AA000000 		.4byte	.LVL21
 1699 06f0 050C0000 		.4byte	0xc05
 1700 06f4 FE060000 		.4byte	0x6fe
 1701 06f8 1D       		.uleb128 0x1d
 1702 06f9 01       		.byte	0x1
 1703 06fa 50       		.byte	0x50
 1704 06fb 01       		.byte	0x1
 1705 06fc 36       		.byte	0x36
 1706 06fd 00       		.byte	0
 1707 06fe 1C       		.uleb128 0x1c
 1708 06ff C4000000 		.4byte	.LVL22
 1709 0703 050C0000 		.4byte	0xc05
 1710 0707 11070000 		.4byte	0x711
 1711 070b 1D       		.uleb128 0x1d
 1712 070c 01       		.byte	0x1
 1713 070d 50       		.byte	0x50
 1714 070e 01       		.byte	0x1
 1715 070f 37       		.byte	0x37
 1716 0710 00       		.byte	0
 1717 0711 1C       		.uleb128 0x1c
 1718 0712 DE000000 		.4byte	.LVL23
 1719 0716 050C0000 		.4byte	0xc05
 1720 071a 24070000 		.4byte	0x724
 1721 071e 1D       		.uleb128 0x1d
 1722 071f 01       		.byte	0x1
 1723 0720 50       		.byte	0x50
 1724 0721 01       		.byte	0x1
 1725 0722 38       		.byte	0x38
 1726 0723 00       		.byte	0
 1727 0724 1C       		.uleb128 0x1c
 1728 0725 EA000000 		.4byte	.LVL24
 1729 0729 EC0B0000 		.4byte	0xbec
 1730 072d 38070000 		.4byte	0x738
 1731 0731 1D       		.uleb128 0x1d
 1732 0732 01       		.byte	0x1
 1733 0733 50       		.byte	0x50
 1734 0734 02       		.byte	0x2
 1735 0735 77       		.byte	0x77
 1736 0736 00       		.sleb128 0
 1737 0737 00       		.byte	0
 1738 0738 1C       		.uleb128 0x1c
 1739 0739 F6000000 		.4byte	.LVL26
 1740 073d 050C0000 		.4byte	0xc05
 1741 0741 4B070000 		.4byte	0x74b
 1742 0745 1D       		.uleb128 0x1d
 1743 0746 01       		.byte	0x1
 1744 0747 50       		.byte	0x50
 1745 0748 01       		.byte	0x1
 1746 0749 39       		.byte	0x39
 1747 074a 00       		.byte	0
ARM GAS  C:\Users\DNIEL~1\AppData\Local\Temp\cc5F2Pmv.s 			page 32


 1748 074b 1C       		.uleb128 0x1c
 1749 074c 0A010000 		.4byte	.LVL27
 1750 0750 050C0000 		.4byte	0xc05
 1751 0754 5E070000 		.4byte	0x75e
 1752 0758 1D       		.uleb128 0x1d
 1753 0759 01       		.byte	0x1
 1754 075a 50       		.byte	0x50
 1755 075b 01       		.byte	0x1
 1756 075c 3A       		.byte	0x3a
 1757 075d 00       		.byte	0
 1758 075e 1E       		.uleb128 0x1e
 1759 075f 1E010000 		.4byte	.LVL28
 1760 0763 050C0000 		.4byte	0xc05
 1761 0767 1D       		.uleb128 0x1d
 1762 0768 01       		.byte	0x1
 1763 0769 50       		.byte	0x50
 1764 076a 01       		.byte	0x1
 1765 076b 3B       		.byte	0x3b
 1766 076c 00       		.byte	0
 1767 076d 00       		.byte	0
 1768 076e 17       		.uleb128 0x17
 1769 076f 8D010000 		.4byte	.LASF81
 1770 0773 01       		.byte	0x1
 1771 0774 62       		.byte	0x62
 1772 0775 01       		.byte	0x1
 1773 0776 00000000 		.4byte	.LFB9
 1774 077a EA000000 		.4byte	.LFE9
 1775 077e C1000000 		.4byte	.LLST6
 1776 0782 01       		.byte	0x1
 1777 0783 C1080000 		.4byte	0x8c1
 1778 0787 1B       		.uleb128 0x1b
 1779 0788 18000000 		.4byte	.Ldebug_ranges0+0x18
 1780 078c A0070000 		.4byte	0x7a0
 1781 0790 19       		.uleb128 0x19
 1782 0791 746D7000 		.ascii	"tmp\000"
 1783 0795 01       		.byte	0x1
 1784 0796 69       		.byte	0x69
 1785 0797 7B000000 		.4byte	0x7b
 1786 079b ED000000 		.4byte	.LLST7
 1787 079f 00       		.byte	0
 1788 07a0 1B       		.uleb128 0x1b
 1789 07a1 30000000 		.4byte	.Ldebug_ranges0+0x30
 1790 07a5 B9070000 		.4byte	0x7b9
 1791 07a9 19       		.uleb128 0x19
 1792 07aa 746D7000 		.ascii	"tmp\000"
 1793 07ae 01       		.byte	0x1
 1794 07af 6B       		.byte	0x6b
 1795 07b0 7B000000 		.4byte	0x7b
 1796 07b4 00010000 		.4byte	.LLST8
 1797 07b8 00       		.byte	0
 1798 07b9 1C       		.uleb128 0x1c
 1799 07ba 38000000 		.4byte	.LVL33
 1800 07be 220C0000 		.4byte	0xc22
 1801 07c2 E5070000 		.4byte	0x7e5
 1802 07c6 1D       		.uleb128 0x1d
 1803 07c7 01       		.byte	0x1
 1804 07c8 53       		.byte	0x53
ARM GAS  C:\Users\DNIEL~1\AppData\Local\Temp\cc5F2Pmv.s 			page 33


 1805 07c9 02       		.byte	0x2
 1806 07ca 75       		.byte	0x75
 1807 07cb 00       		.sleb128 0
 1808 07cc 1D       		.uleb128 0x1d
 1809 07cd 01       		.byte	0x1
 1810 07ce 51       		.byte	0x51
 1811 07cf 03       		.byte	0x3
 1812 07d0 0A       		.byte	0xa
 1813 07d1 3001     		.2byte	0x130
 1814 07d3 1D       		.uleb128 0x1d
 1815 07d4 01       		.byte	0x1
 1816 07d5 50       		.byte	0x50
 1817 07d6 03       		.byte	0x3
 1818 07d7 76       		.byte	0x76
 1819 07d8 04       		.sleb128 4
 1820 07d9 06       		.byte	0x6
 1821 07da 1D       		.uleb128 0x1d
 1822 07db 02       		.byte	0x2
 1823 07dc 7D       		.byte	0x7d
 1824 07dd 00       		.sleb128 0
 1825 07de 05       		.byte	0x5
 1826 07df 03       		.byte	0x3
 1827 07e0 00000000 		.4byte	.LC0
 1828 07e4 00       		.byte	0
 1829 07e5 1C       		.uleb128 0x1c
 1830 07e6 60000000 		.4byte	.LVL34
 1831 07ea 220C0000 		.4byte	0xc22
 1832 07ee 11080000 		.4byte	0x811
 1833 07f2 1D       		.uleb128 0x1d
 1834 07f3 01       		.byte	0x1
 1835 07f4 53       		.byte	0x53
 1836 07f5 02       		.byte	0x2
 1837 07f6 75       		.byte	0x75
 1838 07f7 00       		.sleb128 0
 1839 07f8 1D       		.uleb128 0x1d
 1840 07f9 01       		.byte	0x1
 1841 07fa 51       		.byte	0x51
 1842 07fb 03       		.byte	0x3
 1843 07fc 0A       		.byte	0xa
 1844 07fd 3001     		.2byte	0x130
 1845 07ff 1D       		.uleb128 0x1d
 1846 0800 01       		.byte	0x1
 1847 0801 50       		.byte	0x50
 1848 0802 03       		.byte	0x3
 1849 0803 76       		.byte	0x76
 1850 0804 00       		.sleb128 0
 1851 0805 06       		.byte	0x6
 1852 0806 1D       		.uleb128 0x1d
 1853 0807 02       		.byte	0x2
 1854 0808 7D       		.byte	0x7d
 1855 0809 00       		.sleb128 0
 1856 080a 05       		.byte	0x5
 1857 080b 03       		.byte	0x3
 1858 080c 04000000 		.4byte	.LC1
 1859 0810 00       		.byte	0
 1860 0811 1C       		.uleb128 0x1c
 1861 0812 80000000 		.4byte	.LVL35
ARM GAS  C:\Users\DNIEL~1\AppData\Local\Temp\cc5F2Pmv.s 			page 34


 1862 0816 220C0000 		.4byte	0xc22
 1863 081a 3D080000 		.4byte	0x83d
 1864 081e 1D       		.uleb128 0x1d
 1865 081f 01       		.byte	0x1
 1866 0820 53       		.byte	0x53
 1867 0821 02       		.byte	0x2
 1868 0822 75       		.byte	0x75
 1869 0823 00       		.sleb128 0
 1870 0824 1D       		.uleb128 0x1d
 1871 0825 01       		.byte	0x1
 1872 0826 51       		.byte	0x51
 1873 0827 03       		.byte	0x3
 1874 0828 0A       		.byte	0xa
 1875 0829 3001     		.2byte	0x130
 1876 082b 1D       		.uleb128 0x1d
 1877 082c 01       		.byte	0x1
 1878 082d 50       		.byte	0x50
 1879 082e 03       		.byte	0x3
 1880 082f 76       		.byte	0x76
 1881 0830 10       		.sleb128 16
 1882 0831 06       		.byte	0x6
 1883 0832 1D       		.uleb128 0x1d
 1884 0833 02       		.byte	0x2
 1885 0834 7D       		.byte	0x7d
 1886 0835 00       		.sleb128 0
 1887 0836 05       		.byte	0x5
 1888 0837 03       		.byte	0x3
 1889 0838 08000000 		.4byte	.LC2
 1890 083c 00       		.byte	0
 1891 083d 1C       		.uleb128 0x1c
 1892 083e A0000000 		.4byte	.LVL36
 1893 0842 220C0000 		.4byte	0xc22
 1894 0846 69080000 		.4byte	0x869
 1895 084a 1D       		.uleb128 0x1d
 1896 084b 01       		.byte	0x1
 1897 084c 53       		.byte	0x53
 1898 084d 02       		.byte	0x2
 1899 084e 75       		.byte	0x75
 1900 084f 00       		.sleb128 0
 1901 0850 1D       		.uleb128 0x1d
 1902 0851 01       		.byte	0x1
 1903 0852 51       		.byte	0x51
 1904 0853 03       		.byte	0x3
 1905 0854 0A       		.byte	0xa
 1906 0855 3001     		.2byte	0x130
 1907 0857 1D       		.uleb128 0x1d
 1908 0858 01       		.byte	0x1
 1909 0859 50       		.byte	0x50
 1910 085a 03       		.byte	0x3
 1911 085b 76       		.byte	0x76
 1912 085c 0C       		.sleb128 12
 1913 085d 06       		.byte	0x6
 1914 085e 1D       		.uleb128 0x1d
 1915 085f 02       		.byte	0x2
 1916 0860 7D       		.byte	0x7d
 1917 0861 00       		.sleb128 0
 1918 0862 05       		.byte	0x5
ARM GAS  C:\Users\DNIEL~1\AppData\Local\Temp\cc5F2Pmv.s 			page 35


 1919 0863 03       		.byte	0x3
 1920 0864 0C000000 		.4byte	.LC3
 1921 0868 00       		.byte	0
 1922 0869 1C       		.uleb128 0x1c
 1923 086a C4000000 		.4byte	.LVL40
 1924 086e 4F0C0000 		.4byte	0xc4f
 1925 0872 95080000 		.4byte	0x895
 1926 0876 1D       		.uleb128 0x1d
 1927 0877 01       		.byte	0x1
 1928 0878 53       		.byte	0x53
 1929 0879 02       		.byte	0x2
 1930 087a 75       		.byte	0x75
 1931 087b 00       		.sleb128 0
 1932 087c 1D       		.uleb128 0x1d
 1933 087d 01       		.byte	0x1
 1934 087e 51       		.byte	0x51
 1935 087f 03       		.byte	0x3
 1936 0880 0A       		.byte	0xa
 1937 0881 3001     		.2byte	0x130
 1938 0883 1D       		.uleb128 0x1d
 1939 0884 01       		.byte	0x1
 1940 0885 50       		.byte	0x50
 1941 0886 03       		.byte	0x3
 1942 0887 76       		.byte	0x76
 1943 0888 08       		.sleb128 8
 1944 0889 06       		.byte	0x6
 1945 088a 1D       		.uleb128 0x1d
 1946 088b 02       		.byte	0x2
 1947 088c 7D       		.byte	0x7d
 1948 088d 00       		.sleb128 0
 1949 088e 05       		.byte	0x5
 1950 088f 03       		.byte	0x3
 1951 0890 10000000 		.4byte	.LC4
 1952 0894 00       		.byte	0
 1953 0895 1F       		.uleb128 0x1f
 1954 0896 D2000000 		.4byte	.LVL43
 1955 089a 7C0C0000 		.4byte	0xc7c
 1956 089e 1F       		.uleb128 0x1f
 1957 089f D6000000 		.4byte	.LVL44
 1958 08a3 950C0000 		.4byte	0xc95
 1959 08a7 20       		.uleb128 0x20
 1960 08a8 EA000000 		.4byte	.LVL45
 1961 08ac 01       		.byte	0x1
 1962 08ad 9F0C0000 		.4byte	0xc9f
 1963 08b1 1D       		.uleb128 0x1d
 1964 08b2 01       		.byte	0x1
 1965 08b3 51       		.byte	0x51
 1966 08b4 05       		.byte	0x5
 1967 08b5 03       		.byte	0x3
 1968 08b6 14000000 		.4byte	.LC5
 1969 08ba 1D       		.uleb128 0x1d
 1970 08bb 01       		.byte	0x1
 1971 08bc 50       		.byte	0x50
 1972 08bd 01       		.byte	0x1
 1973 08be 31       		.byte	0x31
 1974 08bf 00       		.byte	0
 1975 08c0 00       		.byte	0
ARM GAS  C:\Users\DNIEL~1\AppData\Local\Temp\cc5F2Pmv.s 			page 36


 1976 08c1 17       		.uleb128 0x17
 1977 08c2 04010000 		.4byte	.LASF82
 1978 08c6 01       		.byte	0x1
 1979 08c7 46       		.byte	0x46
 1980 08c8 01       		.byte	0x1
 1981 08c9 00000000 		.4byte	.LFB8
 1982 08cd E6000000 		.4byte	.LFE8
 1983 08d1 13010000 		.4byte	.LLST9
 1984 08d5 01       		.byte	0x1
 1985 08d6 D2090000 		.4byte	0x9d2
 1986 08da 1C       		.uleb128 0x1c
 1987 08db 3C000000 		.4byte	.LVL46
 1988 08df 220C0000 		.4byte	0xc22
 1989 08e3 03090000 		.4byte	0x903
 1990 08e7 1D       		.uleb128 0x1d
 1991 08e8 01       		.byte	0x1
 1992 08e9 53       		.byte	0x53
 1993 08ea 02       		.byte	0x2
 1994 08eb 75       		.byte	0x75
 1995 08ec 00       		.sleb128 0
 1996 08ed 1D       		.uleb128 0x1d
 1997 08ee 01       		.byte	0x1
 1998 08ef 51       		.byte	0x51
 1999 08f0 03       		.byte	0x3
 2000 08f1 0A       		.byte	0xa
 2001 08f2 3001     		.2byte	0x130
 2002 08f4 1D       		.uleb128 0x1d
 2003 08f5 01       		.byte	0x1
 2004 08f6 50       		.byte	0x50
 2005 08f7 03       		.byte	0x3
 2006 08f8 76       		.byte	0x76
 2007 08f9 00       		.sleb128 0
 2008 08fa 06       		.byte	0x6
 2009 08fb 1D       		.uleb128 0x1d
 2010 08fc 02       		.byte	0x2
 2011 08fd 7D       		.byte	0x7d
 2012 08fe 00       		.sleb128 0
 2013 08ff 02       		.byte	0x2
 2014 0900 74       		.byte	0x74
 2015 0901 00       		.sleb128 0
 2016 0902 00       		.byte	0
 2017 0903 1C       		.uleb128 0x1c
 2018 0904 66000000 		.4byte	.LVL47
 2019 0908 220C0000 		.4byte	0xc22
 2020 090c 2E090000 		.4byte	0x92e
 2021 0910 1D       		.uleb128 0x1d
 2022 0911 01       		.byte	0x1
 2023 0912 53       		.byte	0x53
 2024 0913 02       		.byte	0x2
 2025 0914 75       		.byte	0x75
 2026 0915 00       		.sleb128 0
 2027 0916 1D       		.uleb128 0x1d
 2028 0917 01       		.byte	0x1
 2029 0918 51       		.byte	0x51
 2030 0919 03       		.byte	0x3
 2031 091a 0A       		.byte	0xa
 2032 091b 3001     		.2byte	0x130
ARM GAS  C:\Users\DNIEL~1\AppData\Local\Temp\cc5F2Pmv.s 			page 37


 2033 091d 1D       		.uleb128 0x1d
 2034 091e 01       		.byte	0x1
 2035 091f 50       		.byte	0x50
 2036 0920 02       		.byte	0x2
 2037 0921 77       		.byte	0x77
 2038 0922 00       		.sleb128 0
 2039 0923 1D       		.uleb128 0x1d
 2040 0924 02       		.byte	0x2
 2041 0925 7D       		.byte	0x7d
 2042 0926 00       		.sleb128 0
 2043 0927 05       		.byte	0x5
 2044 0928 03       		.byte	0x3
 2045 0929 00000000 		.4byte	.LC0
 2046 092d 00       		.byte	0
 2047 092e 1C       		.uleb128 0x1c
 2048 092f 88000000 		.4byte	.LVL48
 2049 0933 220C0000 		.4byte	0xc22
 2050 0937 59090000 		.4byte	0x959
 2051 093b 1D       		.uleb128 0x1d
 2052 093c 01       		.byte	0x1
 2053 093d 53       		.byte	0x53
 2054 093e 02       		.byte	0x2
 2055 093f 75       		.byte	0x75
 2056 0940 00       		.sleb128 0
 2057 0941 1D       		.uleb128 0x1d
 2058 0942 01       		.byte	0x1
 2059 0943 51       		.byte	0x51
 2060 0944 03       		.byte	0x3
 2061 0945 0A       		.byte	0xa
 2062 0946 3001     		.2byte	0x130
 2063 0948 1D       		.uleb128 0x1d
 2064 0949 01       		.byte	0x1
 2065 094a 50       		.byte	0x50
 2066 094b 02       		.byte	0x2
 2067 094c 77       		.byte	0x77
 2068 094d 00       		.sleb128 0
 2069 094e 1D       		.uleb128 0x1d
 2070 094f 02       		.byte	0x2
 2071 0950 7D       		.byte	0x7d
 2072 0951 00       		.sleb128 0
 2073 0952 05       		.byte	0x5
 2074 0953 03       		.byte	0x3
 2075 0954 10000000 		.4byte	.LC4
 2076 0958 00       		.byte	0
 2077 0959 1C       		.uleb128 0x1c
 2078 095a AA000000 		.4byte	.LVL49
 2079 095e 220C0000 		.4byte	0xc22
 2080 0962 84090000 		.4byte	0x984
 2081 0966 1D       		.uleb128 0x1d
 2082 0967 01       		.byte	0x1
 2083 0968 53       		.byte	0x53
 2084 0969 02       		.byte	0x2
 2085 096a 75       		.byte	0x75
 2086 096b 00       		.sleb128 0
 2087 096c 1D       		.uleb128 0x1d
 2088 096d 01       		.byte	0x1
 2089 096e 51       		.byte	0x51
ARM GAS  C:\Users\DNIEL~1\AppData\Local\Temp\cc5F2Pmv.s 			page 38


 2090 096f 03       		.byte	0x3
 2091 0970 0A       		.byte	0xa
 2092 0971 3001     		.2byte	0x130
 2093 0973 1D       		.uleb128 0x1d
 2094 0974 01       		.byte	0x1
 2095 0975 50       		.byte	0x50
 2096 0976 02       		.byte	0x2
 2097 0977 77       		.byte	0x77
 2098 0978 00       		.sleb128 0
 2099 0979 1D       		.uleb128 0x1d
 2100 097a 02       		.byte	0x2
 2101 097b 7D       		.byte	0x7d
 2102 097c 00       		.sleb128 0
 2103 097d 05       		.byte	0x5
 2104 097e 03       		.byte	0x3
 2105 097f 0C000000 		.4byte	.LC3
 2106 0983 00       		.byte	0
 2107 0984 1C       		.uleb128 0x1c
 2108 0985 CC000000 		.4byte	.LVL50
 2109 0989 220C0000 		.4byte	0xc22
 2110 098d AF090000 		.4byte	0x9af
 2111 0991 1D       		.uleb128 0x1d
 2112 0992 01       		.byte	0x1
 2113 0993 53       		.byte	0x53
 2114 0994 02       		.byte	0x2
 2115 0995 75       		.byte	0x75
 2116 0996 00       		.sleb128 0
 2117 0997 1D       		.uleb128 0x1d
 2118 0998 01       		.byte	0x1
 2119 0999 51       		.byte	0x51
 2120 099a 03       		.byte	0x3
 2121 099b 0A       		.byte	0xa
 2122 099c 3001     		.2byte	0x130
 2123 099e 1D       		.uleb128 0x1d
 2124 099f 01       		.byte	0x1
 2125 09a0 50       		.byte	0x50
 2126 09a1 02       		.byte	0x2
 2127 09a2 76       		.byte	0x76
 2128 09a3 00       		.sleb128 0
 2129 09a4 1D       		.uleb128 0x1d
 2130 09a5 02       		.byte	0x2
 2131 09a6 7D       		.byte	0x7d
 2132 09a7 00       		.sleb128 0
 2133 09a8 05       		.byte	0x5
 2134 09a9 03       		.byte	0x3
 2135 09aa 08000000 		.4byte	.LC2
 2136 09ae 00       		.byte	0
 2137 09af 1F       		.uleb128 0x1f
 2138 09b0 D2000000 		.4byte	.LVL51
 2139 09b4 950C0000 		.4byte	0xc95
 2140 09b8 20       		.uleb128 0x20
 2141 09b9 E6000000 		.4byte	.LVL52
 2142 09bd 01       		.byte	0x1
 2143 09be 9F0C0000 		.4byte	0xc9f
 2144 09c2 1D       		.uleb128 0x1d
 2145 09c3 01       		.byte	0x1
 2146 09c4 51       		.byte	0x51
ARM GAS  C:\Users\DNIEL~1\AppData\Local\Temp\cc5F2Pmv.s 			page 39


 2147 09c5 05       		.byte	0x5
 2148 09c6 03       		.byte	0x3
 2149 09c7 14000000 		.4byte	.LC5
 2150 09cb 1D       		.uleb128 0x1d
 2151 09cc 01       		.byte	0x1
 2152 09cd 50       		.byte	0x50
 2153 09ce 01       		.byte	0x1
 2154 09cf 31       		.byte	0x31
 2155 09d0 00       		.byte	0
 2156 09d1 00       		.byte	0
 2157 09d2 21       		.uleb128 0x21
 2158 09d3 C8020000 		.4byte	.LASF106
 2159 09d7 01       		.byte	0x1
 2160 09d8 40       		.byte	0x40
 2161 09d9 01       		.byte	0x1
 2162 09da DD000000 		.4byte	0xdd
 2163 09de 00000000 		.4byte	.LFB7
 2164 09e2 0C000000 		.4byte	.LFE7
 2165 09e6 3F010000 		.4byte	.LLST10
 2166 09ea 01       		.byte	0x1
 2167 09eb 060A0000 		.4byte	0xa06
 2168 09ef 22       		.uleb128 0x22
 2169 09f0 7000     		.ascii	"p\000"
 2170 09f2 01       		.byte	0x1
 2171 09f3 40       		.byte	0x40
 2172 09f4 91020000 		.4byte	0x291
 2173 09f8 5F010000 		.4byte	.LLST11
 2174 09fc 1F       		.uleb128 0x1f
 2175 09fd 08000000 		.4byte	.LVL55
 2176 0a01 C20C0000 		.4byte	0xcc2
 2177 0a05 00       		.byte	0
 2178 0a06 23       		.uleb128 0x23
 2179 0a07 88050000 		.4byte	0x588
 2180 0a0b 00000000 		.4byte	.LFB11
 2181 0a0f 78000000 		.4byte	.LFE11
 2182 0a13 80010000 		.4byte	.LLST12
 2183 0a17 01       		.byte	0x1
 2184 0a18 1F0B0000 		.4byte	0xb1f
 2185 0a1c 24       		.uleb128 0x24
 2186 0a1d 95050000 		.4byte	0x595
 2187 0a21 A0010000 		.4byte	.LLST13
 2188 0a25 25       		.uleb128 0x25
 2189 0a26 88050000 		.4byte	0x588
 2190 0a2a 3C000000 		.4byte	.LBB13
 2191 0a2e 48000000 		.4byte	.Ldebug_ranges0+0x48
 2192 0a32 01       		.byte	0x1
 2193 0a33 C1       		.byte	0xc1
 2194 0a34 AF0A0000 		.4byte	0xaaf
 2195 0a38 26       		.uleb128 0x26
 2196 0a39 60000000 		.4byte	.Ldebug_ranges0+0x60
 2197 0a3d 24       		.uleb128 0x24
 2198 0a3e 95050000 		.4byte	0x595
 2199 0a42 BE010000 		.4byte	.LLST14
 2200 0a46 1C       		.uleb128 0x1c
 2201 0a47 46000000 		.4byte	.LVL66
 2202 0a4b D60C0000 		.4byte	0xcd6
 2203 0a4f 5B0A0000 		.4byte	0xa5b
ARM GAS  C:\Users\DNIEL~1\AppData\Local\Temp\cc5F2Pmv.s 			page 40


 2204 0a53 1D       		.uleb128 0x1d
 2205 0a54 01       		.byte	0x1
 2206 0a55 50       		.byte	0x50
 2207 0a56 03       		.byte	0x3
 2208 0a57 0A       		.byte	0xa
 2209 0a58 E803     		.2byte	0x3e8
 2210 0a5a 00       		.byte	0
 2211 0a5b 1C       		.uleb128 0x1c
 2212 0a5c 54000000 		.4byte	.LVL67
 2213 0a60 EB0C0000 		.4byte	0xceb
 2214 0a64 7C0A0000 		.4byte	0xa7c
 2215 0a68 1D       		.uleb128 0x1d
 2216 0a69 01       		.byte	0x1
 2217 0a6a 52       		.byte	0x52
 2218 0a6b 03       		.byte	0x3
 2219 0a6c 74       		.byte	0x74
 2220 0a6d E907     		.sleb128 1001
 2221 0a6f 1D       		.uleb128 0x1d
 2222 0a70 01       		.byte	0x1
 2223 0a71 51       		.byte	0x51
 2224 0a72 03       		.byte	0x3
 2225 0a73 74       		.byte	0x74
 2226 0a74 E807     		.sleb128 1000
 2227 0a76 1D       		.uleb128 0x1d
 2228 0a77 01       		.byte	0x1
 2229 0a78 50       		.byte	0x50
 2230 0a79 01       		.byte	0x1
 2231 0a7a 33       		.byte	0x33
 2232 0a7b 00       		.byte	0
 2233 0a7c 1C       		.uleb128 0x1c
 2234 0a7d 64000000 		.4byte	.LVL70
 2235 0a81 0D0D0000 		.4byte	0xd0d
 2236 0a85 900A0000 		.4byte	0xa90
 2237 0a89 1D       		.uleb128 0x1d
 2238 0a8a 01       		.byte	0x1
 2239 0a8b 50       		.byte	0x50
 2240 0a8c 02       		.byte	0x2
 2241 0a8d 75       		.byte	0x75
 2242 0a8e 00       		.sleb128 0
 2243 0a8f 00       		.byte	0
 2244 0a90 20       		.uleb128 0x20
 2245 0a91 74000000 		.4byte	.LVL71
 2246 0a95 01       		.byte	0x1
 2247 0a96 EB0C0000 		.4byte	0xceb
 2248 0a9a 1D       		.uleb128 0x1d
 2249 0a9b 01       		.byte	0x1
 2250 0a9c 52       		.byte	0x52
 2251 0a9d 03       		.byte	0x3
 2252 0a9e 74       		.byte	0x74
 2253 0a9f E500     		.sleb128 101
 2254 0aa1 1D       		.uleb128 0x1d
 2255 0aa2 01       		.byte	0x1
 2256 0aa3 51       		.byte	0x51
 2257 0aa4 02       		.byte	0x2
 2258 0aa5 75       		.byte	0x75
 2259 0aa6 00       		.sleb128 0
 2260 0aa7 1D       		.uleb128 0x1d
ARM GAS  C:\Users\DNIEL~1\AppData\Local\Temp\cc5F2Pmv.s 			page 41


 2261 0aa8 01       		.byte	0x1
 2262 0aa9 50       		.byte	0x50
 2263 0aaa 01       		.byte	0x1
 2264 0aab 34       		.byte	0x34
 2265 0aac 00       		.byte	0
 2266 0aad 00       		.byte	0
 2267 0aae 00       		.byte	0
 2268 0aaf 1F       		.uleb128 0x1f
 2269 0ab0 08000000 		.4byte	.LVL56
 2270 0ab4 220D0000 		.4byte	0xd22
 2271 0ab8 1C       		.uleb128 0x1c
 2272 0ab9 10000000 		.4byte	.LVL58
 2273 0abd D60C0000 		.4byte	0xcd6
 2274 0ac1 CC0A0000 		.4byte	0xacc
 2275 0ac5 1D       		.uleb128 0x1d
 2276 0ac6 01       		.byte	0x1
 2277 0ac7 50       		.byte	0x50
 2278 0ac8 02       		.byte	0x2
 2279 0ac9 08       		.byte	0x8
 2280 0aca 64       		.byte	0x64
 2281 0acb 00       		.byte	0
 2282 0acc 1C       		.uleb128 0x1c
 2283 0acd 1E000000 		.4byte	.LVL59
 2284 0ad1 EB0C0000 		.4byte	0xceb
 2285 0ad5 ED0A0000 		.4byte	0xaed
 2286 0ad9 1D       		.uleb128 0x1d
 2287 0ada 01       		.byte	0x1
 2288 0adb 52       		.byte	0x52
 2289 0adc 03       		.byte	0x3
 2290 0add 74       		.byte	0x74
 2291 0ade E500     		.sleb128 101
 2292 0ae0 1D       		.uleb128 0x1d
 2293 0ae1 01       		.byte	0x1
 2294 0ae2 51       		.byte	0x51
 2295 0ae3 03       		.byte	0x3
 2296 0ae4 74       		.byte	0x74
 2297 0ae5 E400     		.sleb128 100
 2298 0ae7 1D       		.uleb128 0x1d
 2299 0ae8 01       		.byte	0x1
 2300 0ae9 50       		.byte	0x50
 2301 0aea 01       		.byte	0x1
 2302 0aeb 31       		.byte	0x31
 2303 0aec 00       		.byte	0
 2304 0aed 1C       		.uleb128 0x1c
 2305 0aee 2A000000 		.4byte	.LVL63
 2306 0af2 D60C0000 		.4byte	0xcd6
 2307 0af6 010B0000 		.4byte	0xb01
 2308 0afa 1D       		.uleb128 0x1d
 2309 0afb 01       		.byte	0x1
 2310 0afc 50       		.byte	0x50
 2311 0afd 02       		.byte	0x2
 2312 0afe 08       		.byte	0x8
 2313 0aff 64       		.byte	0x64
 2314 0b00 00       		.byte	0
 2315 0b01 1E       		.uleb128 0x1e
 2316 0b02 38000000 		.4byte	.LVL64
 2317 0b06 EB0C0000 		.4byte	0xceb
ARM GAS  C:\Users\DNIEL~1\AppData\Local\Temp\cc5F2Pmv.s 			page 42


 2318 0b0a 1D       		.uleb128 0x1d
 2319 0b0b 01       		.byte	0x1
 2320 0b0c 52       		.byte	0x52
 2321 0b0d 03       		.byte	0x3
 2322 0b0e 74       		.byte	0x74
 2323 0b0f E500     		.sleb128 101
 2324 0b11 1D       		.uleb128 0x1d
 2325 0b12 01       		.byte	0x1
 2326 0b13 51       		.byte	0x51
 2327 0b14 03       		.byte	0x3
 2328 0b15 74       		.byte	0x74
 2329 0b16 E400     		.sleb128 100
 2330 0b18 1D       		.uleb128 0x1d
 2331 0b19 01       		.byte	0x1
 2332 0b1a 50       		.byte	0x50
 2333 0b1b 01       		.byte	0x1
 2334 0b1c 32       		.byte	0x32
 2335 0b1d 00       		.byte	0
 2336 0b1e 00       		.byte	0
 2337 0b1f 27       		.uleb128 0x27
 2338 0b20 21000000 		.4byte	.LASF83
 2339 0b24 08       		.byte	0x8
 2340 0b25 D1       		.byte	0xd1
 2341 0b26 12040000 		.4byte	0x412
 2342 0b2a 01       		.byte	0x1
 2343 0b2b 01       		.byte	0x1
 2344 0b2c 27       		.uleb128 0x27
 2345 0b2d 53040000 		.4byte	.LASF84
 2346 0b31 09       		.byte	0x9
 2347 0b32 68       		.byte	0x68
 2348 0b33 7A040000 		.4byte	0x47a
 2349 0b37 01       		.byte	0x1
 2350 0b38 01       		.byte	0x1
 2351 0b39 28       		.uleb128 0x28
 2352 0b3a 53020000 		.4byte	0x253
 2353 0b3e 490B0000 		.4byte	0xb49
 2354 0b42 29       		.uleb128 0x29
 2355 0b43 44030000 		.4byte	0x344
 2356 0b47 04       		.byte	0x4
 2357 0b48 00       		.byte	0
 2358 0b49 27       		.uleb128 0x27
 2359 0b4a 1A030000 		.4byte	.LASF85
 2360 0b4e 0B       		.byte	0xb
 2361 0b4f A9       		.byte	0xa9
 2362 0b50 390B0000 		.4byte	0xb39
 2363 0b54 01       		.byte	0x1
 2364 0b55 01       		.byte	0x1
 2365 0b56 28       		.uleb128 0x28
 2366 0b57 91020000 		.4byte	0x291
 2367 0b5b 610B0000 		.4byte	0xb61
 2368 0b5f 2A       		.uleb128 0x2a
 2369 0b60 00       		.byte	0
 2370 0b61 2B       		.uleb128 0x2b
 2371 0b62 776100   		.ascii	"wa\000"
 2372 0b65 0B       		.byte	0xb
 2373 0b66 AB       		.byte	0xab
 2374 0b67 6D0B0000 		.4byte	0xb6d
ARM GAS  C:\Users\DNIEL~1\AppData\Local\Temp\cc5F2Pmv.s 			page 43


 2375 0b6b 01       		.byte	0x1
 2376 0b6c 01       		.byte	0x1
 2377 0b6d 12       		.uleb128 0x12
 2378 0b6e 560B0000 		.4byte	0xb56
 2379 0b72 2C       		.uleb128 0x2c
 2380 0b73 BD010000 		.4byte	.LASF86
 2381 0b77 01       		.byte	0x1
 2382 0b78 51       		.byte	0x51
 2383 0b79 840B0000 		.4byte	0xb84
 2384 0b7d 01       		.byte	0x1
 2385 0b7e 05       		.byte	0x5
 2386 0b7f 03       		.byte	0x3
 2387 0b80 00000000 		.4byte	testthd1
 2388 0b84 12       		.uleb128 0x12
 2389 0b85 3B050000 		.4byte	0x53b
 2390 0b89 2C       		.uleb128 0x2c
 2391 0b8a C6010000 		.4byte	.LASF87
 2392 0b8e 01       		.byte	0x1
 2393 0b8f 71       		.byte	0x71
 2394 0b90 840B0000 		.4byte	0xb84
 2395 0b94 01       		.byte	0x1
 2396 0b95 05       		.byte	0x5
 2397 0b96 03       		.byte	0x3
 2398 0b97 00000000 		.4byte	testthd2
 2399 0b9b 2C       		.uleb128 0x2c
 2400 0b9c CF010000 		.4byte	.LASF88
 2401 0ba0 01       		.byte	0x1
 2402 0ba1 B2       		.byte	0xb2
 2403 0ba2 840B0000 		.4byte	0xb84
 2404 0ba6 01       		.byte	0x1
 2405 0ba7 05       		.byte	0x5
 2406 0ba8 03       		.byte	0x3
 2407 0ba9 00000000 		.4byte	testthd3
 2408 0bad 2C       		.uleb128 0x2c
 2409 0bae D8010000 		.4byte	.LASF89
 2410 0bb2 01       		.byte	0x1
 2411 0bb3 DB       		.byte	0xdb
 2412 0bb4 840B0000 		.4byte	0xb84
 2413 0bb8 01       		.byte	0x1
 2414 0bb9 05       		.byte	0x5
 2415 0bba 03       		.byte	0x3
 2416 0bbb 00000000 		.4byte	testthd4
 2417 0bbf 28       		.uleb128 0x28
 2418 0bc0 CF0B0000 		.4byte	0xbcf
 2419 0bc4 CF0B0000 		.4byte	0xbcf
 2420 0bc8 29       		.uleb128 0x29
 2421 0bc9 44030000 		.4byte	0x344
 2422 0bcd 04       		.byte	0x4
 2423 0bce 00       		.byte	0
 2424 0bcf 09       		.uleb128 0x9
 2425 0bd0 04       		.byte	0x4
 2426 0bd1 840B0000 		.4byte	0xb84
 2427 0bd5 2C       		.uleb128 0x2c
 2428 0bd6 AA030000 		.4byte	.LASF90
 2429 0bda 01       		.byte	0x1
 2430 0bdb E5       		.byte	0xe5
 2431 0bdc E70B0000 		.4byte	0xbe7
ARM GAS  C:\Users\DNIEL~1\AppData\Local\Temp\cc5F2Pmv.s 			page 44


 2432 0be0 01       		.byte	0x1
 2433 0be1 05       		.byte	0x5
 2434 0be2 03       		.byte	0x3
 2435 0be3 00000000 		.4byte	patternthd
 2436 0be7 12       		.uleb128 0x12
 2437 0be8 BF0B0000 		.4byte	0xbbf
 2438 0bec 2D       		.uleb128 0x2d
 2439 0bed 01       		.byte	0x1
 2440 0bee DA000000 		.4byte	.LASF91
 2441 0bf2 06       		.byte	0x6
 2442 0bf3 6601     		.2byte	0x166
 2443 0bf5 01       		.byte	0x1
 2444 0bf6 D2000000 		.4byte	0xd2
 2445 0bfa 01       		.byte	0x1
 2446 0bfb 050C0000 		.4byte	0xc05
 2447 0bff 0E       		.uleb128 0xe
 2448 0c00 D2000000 		.4byte	0xd2
 2449 0c04 00       		.byte	0
 2450 0c05 2E       		.uleb128 0x2e
 2451 0c06 01       		.byte	0x1
 2452 0c07 6F040000 		.4byte	.LASF92
 2453 0c0b 0B       		.byte	0xb
 2454 0c0c 5C       		.byte	0x5c
 2455 0c0d 01       		.byte	0x1
 2456 0c0e 9B000000 		.4byte	0x9b
 2457 0c12 01       		.byte	0x1
 2458 0c13 220C0000 		.4byte	0xc22
 2459 0c17 0E       		.uleb128 0xe
 2460 0c18 3B000000 		.4byte	0x3b
 2461 0c1c 0E       		.uleb128 0xe
 2462 0c1d 9B000000 		.4byte	0x9b
 2463 0c21 00       		.byte	0
 2464 0c22 2D       		.uleb128 0x2d
 2465 0c23 01       		.byte	0x1
 2466 0c24 9A010000 		.4byte	.LASF93
 2467 0c28 06       		.byte	0x6
 2468 0c29 6401     		.2byte	0x164
 2469 0c2b 01       		.byte	0x1
 2470 0c2c 53020000 		.4byte	0x253
 2471 0c30 01       		.byte	0x1
 2472 0c31 4F0C0000 		.4byte	0xc4f
 2473 0c35 0E       		.uleb128 0xe
 2474 0c36 91020000 		.4byte	0x291
 2475 0c3a 0E       		.uleb128 0xe
 2476 0c3b 30000000 		.4byte	0x30
 2477 0c3f 0E       		.uleb128 0xe
 2478 0c40 D2000000 		.4byte	0xd2
 2479 0c44 0E       		.uleb128 0xe
 2480 0c45 1A050000 		.4byte	0x51a
 2481 0c49 0E       		.uleb128 0xe
 2482 0c4a 91020000 		.4byte	0x291
 2483 0c4e 00       		.byte	0
 2484 0c4f 2D       		.uleb128 0x2d
 2485 0c50 01       		.byte	0x1
 2486 0c51 9A000000 		.4byte	.LASF94
 2487 0c55 06       		.byte	0x6
 2488 0c56 6201     		.2byte	0x162
ARM GAS  C:\Users\DNIEL~1\AppData\Local\Temp\cc5F2Pmv.s 			page 45


 2489 0c58 01       		.byte	0x1
 2490 0c59 53020000 		.4byte	0x253
 2491 0c5d 01       		.byte	0x1
 2492 0c5e 7C0C0000 		.4byte	0xc7c
 2493 0c62 0E       		.uleb128 0xe
 2494 0c63 91020000 		.4byte	0x291
 2495 0c67 0E       		.uleb128 0xe
 2496 0c68 30000000 		.4byte	0x30
 2497 0c6c 0E       		.uleb128 0xe
 2498 0c6d D2000000 		.4byte	0xd2
 2499 0c71 0E       		.uleb128 0xe
 2500 0c72 1A050000 		.4byte	0x51a
 2501 0c76 0E       		.uleb128 0xe
 2502 0c77 91020000 		.4byte	0x291
 2503 0c7b 00       		.byte	0
 2504 0c7c 2D       		.uleb128 0x2d
 2505 0c7d 01       		.byte	0x1
 2506 0c7e E9010000 		.4byte	.LASF95
 2507 0c82 06       		.byte	0x6
 2508 0c83 6701     		.2byte	0x167
 2509 0c85 01       		.byte	0x1
 2510 0c86 53020000 		.4byte	0x253
 2511 0c8a 01       		.byte	0x1
 2512 0c8b 950C0000 		.4byte	0xc95
 2513 0c8f 0E       		.uleb128 0xe
 2514 0c90 53020000 		.4byte	0x253
 2515 0c94 00       		.byte	0
 2516 0c95 2F       		.uleb128 0x2f
 2517 0c96 01       		.byte	0x1
 2518 0c97 B5030000 		.4byte	.LASF107
 2519 0c9b 0B       		.byte	0xb
 2520 0c9c 60       		.byte	0x60
 2521 0c9d 01       		.byte	0x1
 2522 0c9e 01       		.byte	0x1
 2523 0c9f 2E       		.uleb128 0x2e
 2524 0ca0 01       		.byte	0x1
 2525 0ca1 5F020000 		.4byte	.LASF96
 2526 0ca5 0B       		.byte	0xb
 2527 0ca6 5D       		.byte	0x5d
 2528 0ca7 01       		.byte	0x1
 2529 0ca8 9B000000 		.4byte	0x9b
 2530 0cac 01       		.byte	0x1
 2531 0cad BC0C0000 		.4byte	0xcbc
 2532 0cb1 0E       		.uleb128 0xe
 2533 0cb2 3B000000 		.4byte	0x3b
 2534 0cb6 0E       		.uleb128 0xe
 2535 0cb7 BC0C0000 		.4byte	0xcbc
 2536 0cbb 00       		.byte	0
 2537 0cbc 09       		.uleb128 0x9
 2538 0cbd 04       		.byte	0x4
 2539 0cbe 0D050000 		.4byte	0x50d
 2540 0cc2 30       		.uleb128 0x30
 2541 0cc3 01       		.byte	0x1
 2542 0cc4 80000000 		.4byte	.LASF97
 2543 0cc8 0B       		.byte	0xb
 2544 0cc9 5A       		.byte	0x5a
 2545 0cca 01       		.byte	0x1
ARM GAS  C:\Users\DNIEL~1\AppData\Local\Temp\cc5F2Pmv.s 			page 46


 2546 0ccb 01       		.byte	0x1
 2547 0ccc D60C0000 		.4byte	0xcd6
 2548 0cd0 0E       		.uleb128 0xe
 2549 0cd1 0D050000 		.4byte	0x50d
 2550 0cd5 00       		.byte	0
 2551 0cd6 31       		.uleb128 0x31
 2552 0cd7 01       		.byte	0x1
 2553 0cd8 0C040000 		.4byte	.LASF98
 2554 0cdc 06       		.byte	0x6
 2555 0cdd 6901     		.2byte	0x169
 2556 0cdf 01       		.byte	0x1
 2557 0ce0 01       		.byte	0x1
 2558 0ce1 EB0C0000 		.4byte	0xceb
 2559 0ce5 0E       		.uleb128 0xe
 2560 0ce6 F3000000 		.4byte	0xf3
 2561 0cea 00       		.byte	0
 2562 0ceb 2E       		.uleb128 0x2e
 2563 0cec 01       		.byte	0x1
 2564 0ced B9000000 		.4byte	.LASF99
 2565 0cf1 0B       		.byte	0xb
 2566 0cf2 5E       		.byte	0x5e
 2567 0cf3 01       		.byte	0x1
 2568 0cf4 9B000000 		.4byte	0x9b
 2569 0cf8 01       		.byte	0x1
 2570 0cf9 0D0D0000 		.4byte	0xd0d
 2571 0cfd 0E       		.uleb128 0xe
 2572 0cfe 3B000000 		.4byte	0x3b
 2573 0d02 0E       		.uleb128 0xe
 2574 0d03 F3000000 		.4byte	0xf3
 2575 0d07 0E       		.uleb128 0xe
 2576 0d08 F3000000 		.4byte	0xf3
 2577 0d0c 00       		.byte	0
 2578 0d0d 31       		.uleb128 0x31
 2579 0d0e 01       		.byte	0x1
 2580 0d0f 8C020000 		.4byte	.LASF100
 2581 0d13 06       		.byte	0x6
 2582 0d14 6A01     		.2byte	0x16a
 2583 0d16 01       		.byte	0x1
 2584 0d17 01       		.byte	0x1
 2585 0d18 220D0000 		.4byte	0xd22
 2586 0d1c 0E       		.uleb128 0xe
 2587 0d1d F3000000 		.4byte	0xf3
 2588 0d21 00       		.byte	0
 2589 0d22 32       		.uleb128 0x32
 2590 0d23 01       		.byte	0x1
 2591 0d24 E5020000 		.4byte	.LASF108
 2592 0d28 0B       		.byte	0xb
 2593 0d29 61       		.byte	0x61
 2594 0d2a 01       		.byte	0x1
 2595 0d2b F3000000 		.4byte	0xf3
 2596 0d2f 01       		.byte	0x1
 2597 0d30 00       		.byte	0
 2598              		.section	.debug_abbrev,"",%progbits
 2599              	.Ldebug_abbrev0:
 2600 0000 01       		.uleb128 0x1
 2601 0001 11       		.uleb128 0x11
 2602 0002 01       		.byte	0x1
ARM GAS  C:\Users\DNIEL~1\AppData\Local\Temp\cc5F2Pmv.s 			page 47


 2603 0003 25       		.uleb128 0x25
 2604 0004 0E       		.uleb128 0xe
 2605 0005 13       		.uleb128 0x13
 2606 0006 0B       		.uleb128 0xb
 2607 0007 03       		.uleb128 0x3
 2608 0008 0E       		.uleb128 0xe
 2609 0009 1B       		.uleb128 0x1b
 2610 000a 0E       		.uleb128 0xe
 2611 000b 55       		.uleb128 0x55
 2612 000c 06       		.uleb128 0x6
 2613 000d 11       		.uleb128 0x11
 2614 000e 01       		.uleb128 0x1
 2615 000f 52       		.uleb128 0x52
 2616 0010 01       		.uleb128 0x1
 2617 0011 10       		.uleb128 0x10
 2618 0012 06       		.uleb128 0x6
 2619 0013 00       		.byte	0
 2620 0014 00       		.byte	0
 2621 0015 02       		.uleb128 0x2
 2622 0016 24       		.uleb128 0x24
 2623 0017 00       		.byte	0
 2624 0018 0B       		.uleb128 0xb
 2625 0019 0B       		.uleb128 0xb
 2626 001a 3E       		.uleb128 0x3e
 2627 001b 0B       		.uleb128 0xb
 2628 001c 03       		.uleb128 0x3
 2629 001d 08       		.uleb128 0x8
 2630 001e 00       		.byte	0
 2631 001f 00       		.byte	0
 2632 0020 03       		.uleb128 0x3
 2633 0021 16       		.uleb128 0x16
 2634 0022 00       		.byte	0
 2635 0023 03       		.uleb128 0x3
 2636 0024 0E       		.uleb128 0xe
 2637 0025 3A       		.uleb128 0x3a
 2638 0026 0B       		.uleb128 0xb
 2639 0027 3B       		.uleb128 0x3b
 2640 0028 0B       		.uleb128 0xb
 2641 0029 49       		.uleb128 0x49
 2642 002a 13       		.uleb128 0x13
 2643 002b 00       		.byte	0
 2644 002c 00       		.byte	0
 2645 002d 04       		.uleb128 0x4
 2646 002e 24       		.uleb128 0x24
 2647 002f 00       		.byte	0
 2648 0030 0B       		.uleb128 0xb
 2649 0031 0B       		.uleb128 0xb
 2650 0032 3E       		.uleb128 0x3e
 2651 0033 0B       		.uleb128 0xb
 2652 0034 03       		.uleb128 0x3
 2653 0035 0E       		.uleb128 0xe
 2654 0036 00       		.byte	0
 2655 0037 00       		.byte	0
 2656 0038 05       		.uleb128 0x5
 2657 0039 13       		.uleb128 0x13
 2658 003a 01       		.byte	0x1
 2659 003b 03       		.uleb128 0x3
ARM GAS  C:\Users\DNIEL~1\AppData\Local\Temp\cc5F2Pmv.s 			page 48


 2660 003c 0E       		.uleb128 0xe
 2661 003d 0B       		.uleb128 0xb
 2662 003e 0B       		.uleb128 0xb
 2663 003f 3A       		.uleb128 0x3a
 2664 0040 0B       		.uleb128 0xb
 2665 0041 3B       		.uleb128 0x3b
 2666 0042 0B       		.uleb128 0xb
 2667 0043 01       		.uleb128 0x1
 2668 0044 13       		.uleb128 0x13
 2669 0045 00       		.byte	0
 2670 0046 00       		.byte	0
 2671 0047 06       		.uleb128 0x6
 2672 0048 0D       		.uleb128 0xd
 2673 0049 00       		.byte	0
 2674 004a 03       		.uleb128 0x3
 2675 004b 0E       		.uleb128 0xe
 2676 004c 3A       		.uleb128 0x3a
 2677 004d 0B       		.uleb128 0xb
 2678 004e 3B       		.uleb128 0x3b
 2679 004f 0B       		.uleb128 0xb
 2680 0050 49       		.uleb128 0x49
 2681 0051 13       		.uleb128 0x13
 2682 0052 38       		.uleb128 0x38
 2683 0053 0A       		.uleb128 0xa
 2684 0054 00       		.byte	0
 2685 0055 00       		.byte	0
 2686 0056 07       		.uleb128 0x7
 2687 0057 0D       		.uleb128 0xd
 2688 0058 00       		.byte	0
 2689 0059 03       		.uleb128 0x3
 2690 005a 08       		.uleb128 0x8
 2691 005b 3A       		.uleb128 0x3a
 2692 005c 0B       		.uleb128 0xb
 2693 005d 3B       		.uleb128 0x3b
 2694 005e 0B       		.uleb128 0xb
 2695 005f 49       		.uleb128 0x49
 2696 0060 13       		.uleb128 0x13
 2697 0061 38       		.uleb128 0x38
 2698 0062 0A       		.uleb128 0xa
 2699 0063 00       		.byte	0
 2700 0064 00       		.byte	0
 2701 0065 08       		.uleb128 0x8
 2702 0066 13       		.uleb128 0x13
 2703 0067 01       		.byte	0x1
 2704 0068 0B       		.uleb128 0xb
 2705 0069 0B       		.uleb128 0xb
 2706 006a 3A       		.uleb128 0x3a
 2707 006b 0B       		.uleb128 0xb
 2708 006c 3B       		.uleb128 0x3b
 2709 006d 0B       		.uleb128 0xb
 2710 006e 01       		.uleb128 0x1
 2711 006f 13       		.uleb128 0x13
 2712 0070 00       		.byte	0
 2713 0071 00       		.byte	0
 2714 0072 09       		.uleb128 0x9
 2715 0073 0F       		.uleb128 0xf
 2716 0074 00       		.byte	0
ARM GAS  C:\Users\DNIEL~1\AppData\Local\Temp\cc5F2Pmv.s 			page 49


 2717 0075 0B       		.uleb128 0xb
 2718 0076 0B       		.uleb128 0xb
 2719 0077 49       		.uleb128 0x49
 2720 0078 13       		.uleb128 0x13
 2721 0079 00       		.byte	0
 2722 007a 00       		.byte	0
 2723 007b 0A       		.uleb128 0xa
 2724 007c 0F       		.uleb128 0xf
 2725 007d 00       		.byte	0
 2726 007e 0B       		.uleb128 0xb
 2727 007f 0B       		.uleb128 0xb
 2728 0080 00       		.byte	0
 2729 0081 00       		.byte	0
 2730 0082 0B       		.uleb128 0xb
 2731 0083 13       		.uleb128 0x13
 2732 0084 01       		.byte	0x1
 2733 0085 03       		.uleb128 0x3
 2734 0086 0E       		.uleb128 0xe
 2735 0087 0B       		.uleb128 0xb
 2736 0088 0B       		.uleb128 0xb
 2737 0089 3A       		.uleb128 0x3a
 2738 008a 0B       		.uleb128 0xb
 2739 008b 3B       		.uleb128 0x3b
 2740 008c 05       		.uleb128 0x5
 2741 008d 01       		.uleb128 0x1
 2742 008e 13       		.uleb128 0x13
 2743 008f 00       		.byte	0
 2744 0090 00       		.byte	0
 2745 0091 0C       		.uleb128 0xc
 2746 0092 0D       		.uleb128 0xd
 2747 0093 00       		.byte	0
 2748 0094 03       		.uleb128 0x3
 2749 0095 08       		.uleb128 0x8
 2750 0096 3A       		.uleb128 0x3a
 2751 0097 0B       		.uleb128 0xb
 2752 0098 3B       		.uleb128 0x3b
 2753 0099 05       		.uleb128 0x5
 2754 009a 49       		.uleb128 0x49
 2755 009b 13       		.uleb128 0x13
 2756 009c 38       		.uleb128 0x38
 2757 009d 0A       		.uleb128 0xa
 2758 009e 00       		.byte	0
 2759 009f 00       		.byte	0
 2760 00a0 0D       		.uleb128 0xd
 2761 00a1 15       		.uleb128 0x15
 2762 00a2 01       		.byte	0x1
 2763 00a3 27       		.uleb128 0x27
 2764 00a4 0C       		.uleb128 0xc
 2765 00a5 01       		.uleb128 0x1
 2766 00a6 13       		.uleb128 0x13
 2767 00a7 00       		.byte	0
 2768 00a8 00       		.byte	0
 2769 00a9 0E       		.uleb128 0xe
 2770 00aa 05       		.uleb128 0x5
 2771 00ab 00       		.byte	0
 2772 00ac 49       		.uleb128 0x49
 2773 00ad 13       		.uleb128 0x13
ARM GAS  C:\Users\DNIEL~1\AppData\Local\Temp\cc5F2Pmv.s 			page 50


 2774 00ae 00       		.byte	0
 2775 00af 00       		.byte	0
 2776 00b0 0F       		.uleb128 0xf
 2777 00b1 35       		.uleb128 0x35
 2778 00b2 00       		.byte	0
 2779 00b3 49       		.uleb128 0x49
 2780 00b4 13       		.uleb128 0x13
 2781 00b5 00       		.byte	0
 2782 00b6 00       		.byte	0
 2783 00b7 10       		.uleb128 0x10
 2784 00b8 17       		.uleb128 0x17
 2785 00b9 01       		.byte	0x1
 2786 00ba 0B       		.uleb128 0xb
 2787 00bb 0B       		.uleb128 0xb
 2788 00bc 3A       		.uleb128 0x3a
 2789 00bd 0B       		.uleb128 0xb
 2790 00be 3B       		.uleb128 0x3b
 2791 00bf 0B       		.uleb128 0xb
 2792 00c0 01       		.uleb128 0x1
 2793 00c1 13       		.uleb128 0x13
 2794 00c2 00       		.byte	0
 2795 00c3 00       		.byte	0
 2796 00c4 11       		.uleb128 0x11
 2797 00c5 0D       		.uleb128 0xd
 2798 00c6 00       		.byte	0
 2799 00c7 03       		.uleb128 0x3
 2800 00c8 0E       		.uleb128 0xe
 2801 00c9 3A       		.uleb128 0x3a
 2802 00ca 0B       		.uleb128 0xb
 2803 00cb 3B       		.uleb128 0x3b
 2804 00cc 0B       		.uleb128 0xb
 2805 00cd 49       		.uleb128 0x49
 2806 00ce 13       		.uleb128 0x13
 2807 00cf 00       		.byte	0
 2808 00d0 00       		.byte	0
 2809 00d1 12       		.uleb128 0x12
 2810 00d2 26       		.uleb128 0x26
 2811 00d3 00       		.byte	0
 2812 00d4 49       		.uleb128 0x49
 2813 00d5 13       		.uleb128 0x13
 2814 00d6 00       		.byte	0
 2815 00d7 00       		.byte	0
 2816 00d8 13       		.uleb128 0x13
 2817 00d9 15       		.uleb128 0x15
 2818 00da 01       		.byte	0x1
 2819 00db 27       		.uleb128 0x27
 2820 00dc 0C       		.uleb128 0xc
 2821 00dd 49       		.uleb128 0x49
 2822 00de 13       		.uleb128 0x13
 2823 00df 01       		.uleb128 0x1
 2824 00e0 13       		.uleb128 0x13
 2825 00e1 00       		.byte	0
 2826 00e2 00       		.byte	0
 2827 00e3 14       		.uleb128 0x14
 2828 00e4 15       		.uleb128 0x15
 2829 00e5 00       		.byte	0
 2830 00e6 27       		.uleb128 0x27
ARM GAS  C:\Users\DNIEL~1\AppData\Local\Temp\cc5F2Pmv.s 			page 51


 2831 00e7 0C       		.uleb128 0xc
 2832 00e8 00       		.byte	0
 2833 00e9 00       		.byte	0
 2834 00ea 15       		.uleb128 0x15
 2835 00eb 2E       		.uleb128 0x2e
 2836 00ec 01       		.byte	0x1
 2837 00ed 03       		.uleb128 0x3
 2838 00ee 0E       		.uleb128 0xe
 2839 00ef 3A       		.uleb128 0x3a
 2840 00f0 0B       		.uleb128 0xb
 2841 00f1 3B       		.uleb128 0x3b
 2842 00f2 0B       		.uleb128 0xb
 2843 00f3 27       		.uleb128 0x27
 2844 00f4 0C       		.uleb128 0xc
 2845 00f5 20       		.uleb128 0x20
 2846 00f6 0B       		.uleb128 0xb
 2847 00f7 01       		.uleb128 0x1
 2848 00f8 13       		.uleb128 0x13
 2849 00f9 00       		.byte	0
 2850 00fa 00       		.byte	0
 2851 00fb 16       		.uleb128 0x16
 2852 00fc 34       		.uleb128 0x34
 2853 00fd 00       		.byte	0
 2854 00fe 03       		.uleb128 0x3
 2855 00ff 0E       		.uleb128 0xe
 2856 0100 3A       		.uleb128 0x3a
 2857 0101 0B       		.uleb128 0xb
 2858 0102 3B       		.uleb128 0x3b
 2859 0103 0B       		.uleb128 0xb
 2860 0104 49       		.uleb128 0x49
 2861 0105 13       		.uleb128 0x13
 2862 0106 00       		.byte	0
 2863 0107 00       		.byte	0
 2864 0108 17       		.uleb128 0x17
 2865 0109 2E       		.uleb128 0x2e
 2866 010a 01       		.byte	0x1
 2867 010b 03       		.uleb128 0x3
 2868 010c 0E       		.uleb128 0xe
 2869 010d 3A       		.uleb128 0x3a
 2870 010e 0B       		.uleb128 0xb
 2871 010f 3B       		.uleb128 0x3b
 2872 0110 0B       		.uleb128 0xb
 2873 0111 27       		.uleb128 0x27
 2874 0112 0C       		.uleb128 0xc
 2875 0113 11       		.uleb128 0x11
 2876 0114 01       		.uleb128 0x1
 2877 0115 12       		.uleb128 0x12
 2878 0116 01       		.uleb128 0x1
 2879 0117 40       		.uleb128 0x40
 2880 0118 06       		.uleb128 0x6
 2881 0119 9742     		.uleb128 0x2117
 2882 011b 0C       		.uleb128 0xc
 2883 011c 01       		.uleb128 0x1
 2884 011d 13       		.uleb128 0x13
 2885 011e 00       		.byte	0
 2886 011f 00       		.byte	0
 2887 0120 18       		.uleb128 0x18
ARM GAS  C:\Users\DNIEL~1\AppData\Local\Temp\cc5F2Pmv.s 			page 52


 2888 0121 34       		.uleb128 0x34
 2889 0122 00       		.byte	0
 2890 0123 03       		.uleb128 0x3
 2891 0124 0E       		.uleb128 0xe
 2892 0125 3A       		.uleb128 0x3a
 2893 0126 0B       		.uleb128 0xb
 2894 0127 3B       		.uleb128 0x3b
 2895 0128 0B       		.uleb128 0xb
 2896 0129 49       		.uleb128 0x49
 2897 012a 13       		.uleb128 0x13
 2898 012b 02       		.uleb128 0x2
 2899 012c 0A       		.uleb128 0xa
 2900 012d 00       		.byte	0
 2901 012e 00       		.byte	0
 2902 012f 19       		.uleb128 0x19
 2903 0130 34       		.uleb128 0x34
 2904 0131 00       		.byte	0
 2905 0132 03       		.uleb128 0x3
 2906 0133 08       		.uleb128 0x8
 2907 0134 3A       		.uleb128 0x3a
 2908 0135 0B       		.uleb128 0xb
 2909 0136 3B       		.uleb128 0x3b
 2910 0137 0B       		.uleb128 0xb
 2911 0138 49       		.uleb128 0x49
 2912 0139 13       		.uleb128 0x13
 2913 013a 02       		.uleb128 0x2
 2914 013b 06       		.uleb128 0x6
 2915 013c 00       		.byte	0
 2916 013d 00       		.byte	0
 2917 013e 1A       		.uleb128 0x1a
 2918 013f 0B       		.uleb128 0xb
 2919 0140 01       		.byte	0x1
 2920 0141 11       		.uleb128 0x11
 2921 0142 01       		.uleb128 0x1
 2922 0143 12       		.uleb128 0x12
 2923 0144 01       		.uleb128 0x1
 2924 0145 01       		.uleb128 0x1
 2925 0146 13       		.uleb128 0x13
 2926 0147 00       		.byte	0
 2927 0148 00       		.byte	0
 2928 0149 1B       		.uleb128 0x1b
 2929 014a 0B       		.uleb128 0xb
 2930 014b 01       		.byte	0x1
 2931 014c 55       		.uleb128 0x55
 2932 014d 06       		.uleb128 0x6
 2933 014e 01       		.uleb128 0x1
 2934 014f 13       		.uleb128 0x13
 2935 0150 00       		.byte	0
 2936 0151 00       		.byte	0
 2937 0152 1C       		.uleb128 0x1c
 2938 0153 898201   		.uleb128 0x4109
 2939 0156 01       		.byte	0x1
 2940 0157 11       		.uleb128 0x11
 2941 0158 01       		.uleb128 0x1
 2942 0159 31       		.uleb128 0x31
 2943 015a 13       		.uleb128 0x13
 2944 015b 01       		.uleb128 0x1
ARM GAS  C:\Users\DNIEL~1\AppData\Local\Temp\cc5F2Pmv.s 			page 53


 2945 015c 13       		.uleb128 0x13
 2946 015d 00       		.byte	0
 2947 015e 00       		.byte	0
 2948 015f 1D       		.uleb128 0x1d
 2949 0160 8A8201   		.uleb128 0x410a
 2950 0163 00       		.byte	0
 2951 0164 02       		.uleb128 0x2
 2952 0165 0A       		.uleb128 0xa
 2953 0166 9142     		.uleb128 0x2111
 2954 0168 0A       		.uleb128 0xa
 2955 0169 00       		.byte	0
 2956 016a 00       		.byte	0
 2957 016b 1E       		.uleb128 0x1e
 2958 016c 898201   		.uleb128 0x4109
 2959 016f 01       		.byte	0x1
 2960 0170 11       		.uleb128 0x11
 2961 0171 01       		.uleb128 0x1
 2962 0172 31       		.uleb128 0x31
 2963 0173 13       		.uleb128 0x13
 2964 0174 00       		.byte	0
 2965 0175 00       		.byte	0
 2966 0176 1F       		.uleb128 0x1f
 2967 0177 898201   		.uleb128 0x4109
 2968 017a 00       		.byte	0
 2969 017b 11       		.uleb128 0x11
 2970 017c 01       		.uleb128 0x1
 2971 017d 31       		.uleb128 0x31
 2972 017e 13       		.uleb128 0x13
 2973 017f 00       		.byte	0
 2974 0180 00       		.byte	0
 2975 0181 20       		.uleb128 0x20
 2976 0182 898201   		.uleb128 0x4109
 2977 0185 01       		.byte	0x1
 2978 0186 11       		.uleb128 0x11
 2979 0187 01       		.uleb128 0x1
 2980 0188 9542     		.uleb128 0x2115
 2981 018a 0C       		.uleb128 0xc
 2982 018b 31       		.uleb128 0x31
 2983 018c 13       		.uleb128 0x13
 2984 018d 00       		.byte	0
 2985 018e 00       		.byte	0
 2986 018f 21       		.uleb128 0x21
 2987 0190 2E       		.uleb128 0x2e
 2988 0191 01       		.byte	0x1
 2989 0192 03       		.uleb128 0x3
 2990 0193 0E       		.uleb128 0xe
 2991 0194 3A       		.uleb128 0x3a
 2992 0195 0B       		.uleb128 0xb
 2993 0196 3B       		.uleb128 0x3b
 2994 0197 0B       		.uleb128 0xb
 2995 0198 27       		.uleb128 0x27
 2996 0199 0C       		.uleb128 0xc
 2997 019a 49       		.uleb128 0x49
 2998 019b 13       		.uleb128 0x13
 2999 019c 11       		.uleb128 0x11
 3000 019d 01       		.uleb128 0x1
 3001 019e 12       		.uleb128 0x12
ARM GAS  C:\Users\DNIEL~1\AppData\Local\Temp\cc5F2Pmv.s 			page 54


 3002 019f 01       		.uleb128 0x1
 3003 01a0 40       		.uleb128 0x40
 3004 01a1 06       		.uleb128 0x6
 3005 01a2 9742     		.uleb128 0x2117
 3006 01a4 0C       		.uleb128 0xc
 3007 01a5 01       		.uleb128 0x1
 3008 01a6 13       		.uleb128 0x13
 3009 01a7 00       		.byte	0
 3010 01a8 00       		.byte	0
 3011 01a9 22       		.uleb128 0x22
 3012 01aa 05       		.uleb128 0x5
 3013 01ab 00       		.byte	0
 3014 01ac 03       		.uleb128 0x3
 3015 01ad 08       		.uleb128 0x8
 3016 01ae 3A       		.uleb128 0x3a
 3017 01af 0B       		.uleb128 0xb
 3018 01b0 3B       		.uleb128 0x3b
 3019 01b1 0B       		.uleb128 0xb
 3020 01b2 49       		.uleb128 0x49
 3021 01b3 13       		.uleb128 0x13
 3022 01b4 02       		.uleb128 0x2
 3023 01b5 06       		.uleb128 0x6
 3024 01b6 00       		.byte	0
 3025 01b7 00       		.byte	0
 3026 01b8 23       		.uleb128 0x23
 3027 01b9 2E       		.uleb128 0x2e
 3028 01ba 01       		.byte	0x1
 3029 01bb 31       		.uleb128 0x31
 3030 01bc 13       		.uleb128 0x13
 3031 01bd 11       		.uleb128 0x11
 3032 01be 01       		.uleb128 0x1
 3033 01bf 12       		.uleb128 0x12
 3034 01c0 01       		.uleb128 0x1
 3035 01c1 40       		.uleb128 0x40
 3036 01c2 06       		.uleb128 0x6
 3037 01c3 9742     		.uleb128 0x2117
 3038 01c5 0C       		.uleb128 0xc
 3039 01c6 01       		.uleb128 0x1
 3040 01c7 13       		.uleb128 0x13
 3041 01c8 00       		.byte	0
 3042 01c9 00       		.byte	0
 3043 01ca 24       		.uleb128 0x24
 3044 01cb 34       		.uleb128 0x34
 3045 01cc 00       		.byte	0
 3046 01cd 31       		.uleb128 0x31
 3047 01ce 13       		.uleb128 0x13
 3048 01cf 02       		.uleb128 0x2
 3049 01d0 06       		.uleb128 0x6
 3050 01d1 00       		.byte	0
 3051 01d2 00       		.byte	0
 3052 01d3 25       		.uleb128 0x25
 3053 01d4 1D       		.uleb128 0x1d
 3054 01d5 01       		.byte	0x1
 3055 01d6 31       		.uleb128 0x31
 3056 01d7 13       		.uleb128 0x13
 3057 01d8 52       		.uleb128 0x52
 3058 01d9 01       		.uleb128 0x1
ARM GAS  C:\Users\DNIEL~1\AppData\Local\Temp\cc5F2Pmv.s 			page 55


 3059 01da 55       		.uleb128 0x55
 3060 01db 06       		.uleb128 0x6
 3061 01dc 58       		.uleb128 0x58
 3062 01dd 0B       		.uleb128 0xb
 3063 01de 59       		.uleb128 0x59
 3064 01df 0B       		.uleb128 0xb
 3065 01e0 01       		.uleb128 0x1
 3066 01e1 13       		.uleb128 0x13
 3067 01e2 00       		.byte	0
 3068 01e3 00       		.byte	0
 3069 01e4 26       		.uleb128 0x26
 3070 01e5 0B       		.uleb128 0xb
 3071 01e6 01       		.byte	0x1
 3072 01e7 55       		.uleb128 0x55
 3073 01e8 06       		.uleb128 0x6
 3074 01e9 00       		.byte	0
 3075 01ea 00       		.byte	0
 3076 01eb 27       		.uleb128 0x27
 3077 01ec 34       		.uleb128 0x34
 3078 01ed 00       		.byte	0
 3079 01ee 03       		.uleb128 0x3
 3080 01ef 0E       		.uleb128 0xe
 3081 01f0 3A       		.uleb128 0x3a
 3082 01f1 0B       		.uleb128 0xb
 3083 01f2 3B       		.uleb128 0x3b
 3084 01f3 0B       		.uleb128 0xb
 3085 01f4 49       		.uleb128 0x49
 3086 01f5 13       		.uleb128 0x13
 3087 01f6 3F       		.uleb128 0x3f
 3088 01f7 0C       		.uleb128 0xc
 3089 01f8 3C       		.uleb128 0x3c
 3090 01f9 0C       		.uleb128 0xc
 3091 01fa 00       		.byte	0
 3092 01fb 00       		.byte	0
 3093 01fc 28       		.uleb128 0x28
 3094 01fd 01       		.uleb128 0x1
 3095 01fe 01       		.byte	0x1
 3096 01ff 49       		.uleb128 0x49
 3097 0200 13       		.uleb128 0x13
 3098 0201 01       		.uleb128 0x1
 3099 0202 13       		.uleb128 0x13
 3100 0203 00       		.byte	0
 3101 0204 00       		.byte	0
 3102 0205 29       		.uleb128 0x29
 3103 0206 21       		.uleb128 0x21
 3104 0207 00       		.byte	0
 3105 0208 49       		.uleb128 0x49
 3106 0209 13       		.uleb128 0x13
 3107 020a 2F       		.uleb128 0x2f
 3108 020b 0B       		.uleb128 0xb
 3109 020c 00       		.byte	0
 3110 020d 00       		.byte	0
 3111 020e 2A       		.uleb128 0x2a
 3112 020f 21       		.uleb128 0x21
 3113 0210 00       		.byte	0
 3114 0211 00       		.byte	0
 3115 0212 00       		.byte	0
ARM GAS  C:\Users\DNIEL~1\AppData\Local\Temp\cc5F2Pmv.s 			page 56


 3116 0213 2B       		.uleb128 0x2b
 3117 0214 34       		.uleb128 0x34
 3118 0215 00       		.byte	0
 3119 0216 03       		.uleb128 0x3
 3120 0217 08       		.uleb128 0x8
 3121 0218 3A       		.uleb128 0x3a
 3122 0219 0B       		.uleb128 0xb
 3123 021a 3B       		.uleb128 0x3b
 3124 021b 0B       		.uleb128 0xb
 3125 021c 49       		.uleb128 0x49
 3126 021d 13       		.uleb128 0x13
 3127 021e 3F       		.uleb128 0x3f
 3128 021f 0C       		.uleb128 0xc
 3129 0220 3C       		.uleb128 0x3c
 3130 0221 0C       		.uleb128 0xc
 3131 0222 00       		.byte	0
 3132 0223 00       		.byte	0
 3133 0224 2C       		.uleb128 0x2c
 3134 0225 34       		.uleb128 0x34
 3135 0226 00       		.byte	0
 3136 0227 03       		.uleb128 0x3
 3137 0228 0E       		.uleb128 0xe
 3138 0229 3A       		.uleb128 0x3a
 3139 022a 0B       		.uleb128 0xb
 3140 022b 3B       		.uleb128 0x3b
 3141 022c 0B       		.uleb128 0xb
 3142 022d 49       		.uleb128 0x49
 3143 022e 13       		.uleb128 0x13
 3144 022f 3F       		.uleb128 0x3f
 3145 0230 0C       		.uleb128 0xc
 3146 0231 02       		.uleb128 0x2
 3147 0232 0A       		.uleb128 0xa
 3148 0233 00       		.byte	0
 3149 0234 00       		.byte	0
 3150 0235 2D       		.uleb128 0x2d
 3151 0236 2E       		.uleb128 0x2e
 3152 0237 01       		.byte	0x1
 3153 0238 3F       		.uleb128 0x3f
 3154 0239 0C       		.uleb128 0xc
 3155 023a 03       		.uleb128 0x3
 3156 023b 0E       		.uleb128 0xe
 3157 023c 3A       		.uleb128 0x3a
 3158 023d 0B       		.uleb128 0xb
 3159 023e 3B       		.uleb128 0x3b
 3160 023f 05       		.uleb128 0x5
 3161 0240 27       		.uleb128 0x27
 3162 0241 0C       		.uleb128 0xc
 3163 0242 49       		.uleb128 0x49
 3164 0243 13       		.uleb128 0x13
 3165 0244 3C       		.uleb128 0x3c
 3166 0245 0C       		.uleb128 0xc
 3167 0246 01       		.uleb128 0x1
 3168 0247 13       		.uleb128 0x13
 3169 0248 00       		.byte	0
 3170 0249 00       		.byte	0
 3171 024a 2E       		.uleb128 0x2e
 3172 024b 2E       		.uleb128 0x2e
ARM GAS  C:\Users\DNIEL~1\AppData\Local\Temp\cc5F2Pmv.s 			page 57


 3173 024c 01       		.byte	0x1
 3174 024d 3F       		.uleb128 0x3f
 3175 024e 0C       		.uleb128 0xc
 3176 024f 03       		.uleb128 0x3
 3177 0250 0E       		.uleb128 0xe
 3178 0251 3A       		.uleb128 0x3a
 3179 0252 0B       		.uleb128 0xb
 3180 0253 3B       		.uleb128 0x3b
 3181 0254 0B       		.uleb128 0xb
 3182 0255 27       		.uleb128 0x27
 3183 0256 0C       		.uleb128 0xc
 3184 0257 49       		.uleb128 0x49
 3185 0258 13       		.uleb128 0x13
 3186 0259 3C       		.uleb128 0x3c
 3187 025a 0C       		.uleb128 0xc
 3188 025b 01       		.uleb128 0x1
 3189 025c 13       		.uleb128 0x13
 3190 025d 00       		.byte	0
 3191 025e 00       		.byte	0
 3192 025f 2F       		.uleb128 0x2f
 3193 0260 2E       		.uleb128 0x2e
 3194 0261 00       		.byte	0
 3195 0262 3F       		.uleb128 0x3f
 3196 0263 0C       		.uleb128 0xc
 3197 0264 03       		.uleb128 0x3
 3198 0265 0E       		.uleb128 0xe
 3199 0266 3A       		.uleb128 0x3a
 3200 0267 0B       		.uleb128 0xb
 3201 0268 3B       		.uleb128 0x3b
 3202 0269 0B       		.uleb128 0xb
 3203 026a 27       		.uleb128 0x27
 3204 026b 0C       		.uleb128 0xc
 3205 026c 3C       		.uleb128 0x3c
 3206 026d 0C       		.uleb128 0xc
 3207 026e 00       		.byte	0
 3208 026f 00       		.byte	0
 3209 0270 30       		.uleb128 0x30
 3210 0271 2E       		.uleb128 0x2e
 3211 0272 01       		.byte	0x1
 3212 0273 3F       		.uleb128 0x3f
 3213 0274 0C       		.uleb128 0xc
 3214 0275 03       		.uleb128 0x3
 3215 0276 0E       		.uleb128 0xe
 3216 0277 3A       		.uleb128 0x3a
 3217 0278 0B       		.uleb128 0xb
 3218 0279 3B       		.uleb128 0x3b
 3219 027a 0B       		.uleb128 0xb
 3220 027b 27       		.uleb128 0x27
 3221 027c 0C       		.uleb128 0xc
 3222 027d 3C       		.uleb128 0x3c
 3223 027e 0C       		.uleb128 0xc
 3224 027f 01       		.uleb128 0x1
 3225 0280 13       		.uleb128 0x13
 3226 0281 00       		.byte	0
 3227 0282 00       		.byte	0
 3228 0283 31       		.uleb128 0x31
 3229 0284 2E       		.uleb128 0x2e
ARM GAS  C:\Users\DNIEL~1\AppData\Local\Temp\cc5F2Pmv.s 			page 58


 3230 0285 01       		.byte	0x1
 3231 0286 3F       		.uleb128 0x3f
 3232 0287 0C       		.uleb128 0xc
 3233 0288 03       		.uleb128 0x3
 3234 0289 0E       		.uleb128 0xe
 3235 028a 3A       		.uleb128 0x3a
 3236 028b 0B       		.uleb128 0xb
 3237 028c 3B       		.uleb128 0x3b
 3238 028d 05       		.uleb128 0x5
 3239 028e 27       		.uleb128 0x27
 3240 028f 0C       		.uleb128 0xc
 3241 0290 3C       		.uleb128 0x3c
 3242 0291 0C       		.uleb128 0xc
 3243 0292 01       		.uleb128 0x1
 3244 0293 13       		.uleb128 0x13
 3245 0294 00       		.byte	0
 3246 0295 00       		.byte	0
 3247 0296 32       		.uleb128 0x32
 3248 0297 2E       		.uleb128 0x2e
 3249 0298 00       		.byte	0
 3250 0299 3F       		.uleb128 0x3f
 3251 029a 0C       		.uleb128 0xc
 3252 029b 03       		.uleb128 0x3
 3253 029c 0E       		.uleb128 0xe
 3254 029d 3A       		.uleb128 0x3a
 3255 029e 0B       		.uleb128 0xb
 3256 029f 3B       		.uleb128 0x3b
 3257 02a0 0B       		.uleb128 0xb
 3258 02a1 27       		.uleb128 0x27
 3259 02a2 0C       		.uleb128 0xc
 3260 02a3 49       		.uleb128 0x49
 3261 02a4 13       		.uleb128 0x13
 3262 02a5 3C       		.uleb128 0x3c
 3263 02a6 0C       		.uleb128 0xc
 3264 02a7 00       		.byte	0
 3265 02a8 00       		.byte	0
 3266 02a9 00       		.byte	0
 3267              		.section	.debug_loc,"",%progbits
 3268              	.Ldebug_loc0:
 3269              	.LLST0:
 3270 0000 00000000 		.4byte	.LFB10
 3271 0004 02000000 		.4byte	.LCFI0
 3272 0008 0200     		.2byte	0x2
 3273 000a 7D       		.byte	0x7d
 3274 000b 00       		.sleb128 0
 3275 000c 02000000 		.4byte	.LCFI0
 3276 0010 3C010000 		.4byte	.LFE10
 3277 0014 0200     		.2byte	0x2
 3278 0016 7D       		.byte	0x7d
 3279 0017 18       		.sleb128 24
 3280 0018 00000000 		.4byte	0
 3281 001c 00000000 		.4byte	0
 3282              	.LLST1:
 3283 0020 18000000 		.4byte	.LVL2
 3284 0024 1A000000 		.4byte	.LVL3
 3285 0028 0100     		.2byte	0x1
 3286 002a 50       		.byte	0x50
ARM GAS  C:\Users\DNIEL~1\AppData\Local\Temp\cc5F2Pmv.s 			page 59


 3287 002b 1A000000 		.4byte	.LVL3
 3288 002f 20000000 		.4byte	.LVL5
 3289 0033 0100     		.2byte	0x1
 3290 0035 57       		.byte	0x57
 3291 0036 22000000 		.4byte	.LVL6
 3292 003a 3C000000 		.4byte	.LVL8
 3293 003e 0100     		.2byte	0x1
 3294 0040 57       		.byte	0x57
 3295 0041 3C000000 		.4byte	.LVL8
 3296 0045 44000000 		.4byte	.LVL9
 3297 0049 0100     		.2byte	0x1
 3298 004b 50       		.byte	0x50
 3299 004c 9E000000 		.4byte	.LVL19
 3300 0050 A0000000 		.4byte	.LVL20
 3301 0054 0100     		.2byte	0x1
 3302 0056 50       		.byte	0x50
 3303 0057 EA000000 		.4byte	.LVL24
 3304 005b EC000000 		.4byte	.LVL25
 3305 005f 0100     		.2byte	0x1
 3306 0061 50       		.byte	0x50
 3307 0062 00000000 		.4byte	0
 3308 0066 00000000 		.4byte	0
 3309              	.LLST2:
 3310 006a 72000000 		.4byte	.LVL13
 3311 006e 76000000 		.4byte	.LVL14
 3312 0072 0100     		.2byte	0x1
 3313 0074 53       		.byte	0x53
 3314 0075 00000000 		.4byte	0
 3315 0079 00000000 		.4byte	0
 3316              	.LLST3:
 3317 007d 80000000 		.4byte	.LVL16
 3318 0081 8A000000 		.4byte	.LVL17
 3319 0085 0100     		.2byte	0x1
 3320 0087 53       		.byte	0x53
 3321 0088 00000000 		.4byte	0
 3322 008c 00000000 		.4byte	0
 3323              	.LLST4:
 3324 0090 2A010000 		.4byte	.LVL30
 3325 0094 2E010000 		.4byte	.LVL31
 3326 0098 0100     		.2byte	0x1
 3327 009a 53       		.byte	0x53
 3328 009b 00000000 		.4byte	0
 3329 009f 00000000 		.4byte	0
 3330              	.LLST5:
 3331 00a3 20000000 		.4byte	.LVL5
 3332 00a7 22000000 		.4byte	.LVL6
 3333 00ab 0100     		.2byte	0x1
 3334 00ad 53       		.byte	0x53
 3335 00ae 36010000 		.4byte	.LVL32
 3336 00b2 3C010000 		.4byte	.LFE10
 3337 00b6 0100     		.2byte	0x1
 3338 00b8 53       		.byte	0x53
 3339 00b9 00000000 		.4byte	0
 3340 00bd 00000000 		.4byte	0
 3341              	.LLST6:
 3342 00c1 00000000 		.4byte	.LFB9
 3343 00c5 02000000 		.4byte	.LCFI1
ARM GAS  C:\Users\DNIEL~1\AppData\Local\Temp\cc5F2Pmv.s 			page 60


 3344 00c9 0200     		.2byte	0x2
 3345 00cb 7D       		.byte	0x7d
 3346 00cc 00       		.sleb128 0
 3347 00cd 02000000 		.4byte	.LCFI1
 3348 00d1 12000000 		.4byte	.LCFI2
 3349 00d5 0200     		.2byte	0x2
 3350 00d7 7D       		.byte	0x7d
 3351 00d8 14       		.sleb128 20
 3352 00d9 12000000 		.4byte	.LCFI2
 3353 00dd EA000000 		.4byte	.LFE9
 3354 00e1 0200     		.2byte	0x2
 3355 00e3 7D       		.byte	0x7d
 3356 00e4 20       		.sleb128 32
 3357 00e5 00000000 		.4byte	0
 3358 00e9 00000000 		.4byte	0
 3359              	.LLST7:
 3360 00ed A8000000 		.4byte	.LVL38
 3361 00f1 AA000000 		.4byte	.LVL39
 3362 00f5 0100     		.2byte	0x1
 3363 00f7 53       		.byte	0x53
 3364 00f8 00000000 		.4byte	0
 3365 00fc 00000000 		.4byte	0
 3366              	.LLST8:
 3367 0100 CC000000 		.4byte	.LVL42
 3368 0104 D1000000 		.4byte	.LVL43-1
 3369 0108 0100     		.2byte	0x1
 3370 010a 53       		.byte	0x53
 3371 010b 00000000 		.4byte	0
 3372 010f 00000000 		.4byte	0
 3373              	.LLST9:
 3374 0113 00000000 		.4byte	.LFB8
 3375 0117 04000000 		.4byte	.LCFI3
 3376 011b 0200     		.2byte	0x2
 3377 011d 7D       		.byte	0x7d
 3378 011e 00       		.sleb128 0
 3379 011f 04000000 		.4byte	.LCFI3
 3380 0123 16000000 		.4byte	.LCFI4
 3381 0127 0200     		.2byte	0x2
 3382 0129 7D       		.byte	0x7d
 3383 012a 18       		.sleb128 24
 3384 012b 16000000 		.4byte	.LCFI4
 3385 012f E6000000 		.4byte	.LFE8
 3386 0133 0200     		.2byte	0x2
 3387 0135 7D       		.byte	0x7d
 3388 0136 20       		.sleb128 32
 3389 0137 00000000 		.4byte	0
 3390 013b 00000000 		.4byte	0
 3391              	.LLST10:
 3392 013f 00000000 		.4byte	.LFB7
 3393 0143 02000000 		.4byte	.LCFI5
 3394 0147 0200     		.2byte	0x2
 3395 0149 7D       		.byte	0x7d
 3396 014a 00       		.sleb128 0
 3397 014b 02000000 		.4byte	.LCFI5
 3398 014f 0C000000 		.4byte	.LFE7
 3399 0153 0200     		.2byte	0x2
 3400 0155 7D       		.byte	0x7d
ARM GAS  C:\Users\DNIEL~1\AppData\Local\Temp\cc5F2Pmv.s 			page 61


 3401 0156 08       		.sleb128 8
 3402 0157 00000000 		.4byte	0
 3403 015b 00000000 		.4byte	0
 3404              	.LLST11:
 3405 015f 00000000 		.4byte	.LVL53
 3406 0163 04000000 		.4byte	.LVL54
 3407 0167 0100     		.2byte	0x1
 3408 0169 50       		.byte	0x50
 3409 016a 04000000 		.4byte	.LVL54
 3410 016e 0C000000 		.4byte	.LFE7
 3411 0172 0400     		.2byte	0x4
 3412 0174 F3       		.byte	0xf3
 3413 0175 01       		.uleb128 0x1
 3414 0176 50       		.byte	0x50
 3415 0177 9F       		.byte	0x9f
 3416 0178 00000000 		.4byte	0
 3417 017c 00000000 		.4byte	0
 3418              	.LLST12:
 3419 0180 00000000 		.4byte	.LFB11
 3420 0184 02000000 		.4byte	.LCFI6
 3421 0188 0200     		.2byte	0x2
 3422 018a 7D       		.byte	0x7d
 3423 018b 00       		.sleb128 0
 3424 018c 02000000 		.4byte	.LCFI6
 3425 0190 78000000 		.4byte	.LFE11
 3426 0194 0200     		.2byte	0x2
 3427 0196 7D       		.byte	0x7d
 3428 0197 10       		.sleb128 16
 3429 0198 00000000 		.4byte	0
 3430 019c 00000000 		.4byte	0
 3431              	.LLST13:
 3432 01a0 0A000000 		.4byte	.LVL57
 3433 01a4 20000000 		.4byte	.LVL60
 3434 01a8 0100     		.2byte	0x1
 3435 01aa 54       		.byte	0x54
 3436 01ab 22000000 		.4byte	.LVL61
 3437 01af 3E000000 		.4byte	.LVL65
 3438 01b3 0100     		.2byte	0x1
 3439 01b5 54       		.byte	0x54
 3440 01b6 00000000 		.4byte	0
 3441 01ba 00000000 		.4byte	0
 3442              	.LLST14:
 3443 01be 3E000000 		.4byte	.LVL65
 3444 01c2 5A000000 		.4byte	.LVL68
 3445 01c6 0100     		.2byte	0x1
 3446 01c8 54       		.byte	0x54
 3447 01c9 5E000000 		.4byte	.LVL69
 3448 01cd 78000000 		.4byte	.LFE11
 3449 01d1 0100     		.2byte	0x1
 3450 01d3 55       		.byte	0x55
 3451 01d4 00000000 		.4byte	0
 3452 01d8 00000000 		.4byte	0
 3453              		.section	.debug_aranges,"",%progbits
 3454 0000 3C000000 		.4byte	0x3c
 3455 0004 0200     		.2byte	0x2
 3456 0006 00000000 		.4byte	.Ldebug_info0
 3457 000a 04       		.byte	0x4
ARM GAS  C:\Users\DNIEL~1\AppData\Local\Temp\cc5F2Pmv.s 			page 62


 3458 000b 00       		.byte	0
 3459 000c 0000     		.2byte	0
 3460 000e 0000     		.2byte	0
 3461 0010 00000000 		.4byte	.LFB10
 3462 0014 3C010000 		.4byte	.LFE10-.LFB10
 3463 0018 00000000 		.4byte	.LFB9
 3464 001c EA000000 		.4byte	.LFE9-.LFB9
 3465 0020 00000000 		.4byte	.LFB8
 3466 0024 E6000000 		.4byte	.LFE8-.LFB8
 3467 0028 00000000 		.4byte	.LFB7
 3468 002c 0C000000 		.4byte	.LFE7-.LFB7
 3469 0030 00000000 		.4byte	.LFB11
 3470 0034 78000000 		.4byte	.LFE11-.LFB11
 3471 0038 00000000 		.4byte	0
 3472 003c 00000000 		.4byte	0
 3473              		.section	.debug_ranges,"",%progbits
 3474              	.Ldebug_ranges0:
 3475 0000 2C010000 		.4byte	.LBB5
 3476 0004 2E010000 		.4byte	.LBE5
 3477 0008 32010000 		.4byte	.LBB6
 3478 000c 3C010000 		.4byte	.LBE6
 3479 0010 00000000 		.4byte	0
 3480 0014 00000000 		.4byte	0
 3481 0018 A0000000 		.4byte	.LBB7
 3482 001c A2000000 		.4byte	.LBE7
 3483 0020 A4000000 		.4byte	.LBB8
 3484 0024 A8000000 		.4byte	.LBE8
 3485 0028 00000000 		.4byte	0
 3486 002c 00000000 		.4byte	0
 3487 0030 C4000000 		.4byte	.LBB9
 3488 0034 C6000000 		.4byte	.LBE9
 3489 0038 C8000000 		.4byte	.LBB10
 3490 003c CC000000 		.4byte	.LBE10
 3491 0040 00000000 		.4byte	0
 3492 0044 00000000 		.4byte	0
 3493 0048 3C000000 		.4byte	.LBB13
 3494 004c 6C000000 		.4byte	.LBE13
 3495 0050 70000000 		.4byte	.LBB16
 3496 0054 78000000 		.4byte	.LBE16
 3497 0058 00000000 		.4byte	0
 3498 005c 00000000 		.4byte	0
 3499 0060 3C000000 		.4byte	.LBB14
 3500 0064 6C000000 		.4byte	.LBE14
 3501 0068 70000000 		.4byte	.LBB15
 3502 006c 78000000 		.4byte	.LBE15
 3503 0070 00000000 		.4byte	0
 3504 0074 00000000 		.4byte	0
 3505 0078 00000000 		.4byte	.LFB10
 3506 007c 3C010000 		.4byte	.LFE10
 3507 0080 00000000 		.4byte	.LFB9
 3508 0084 EA000000 		.4byte	.LFE9
 3509 0088 00000000 		.4byte	.LFB8
 3510 008c E6000000 		.4byte	.LFE8
 3511 0090 00000000 		.4byte	.LFB7
 3512 0094 0C000000 		.4byte	.LFE7
 3513 0098 00000000 		.4byte	.LFB11
 3514 009c 78000000 		.4byte	.LFE11
ARM GAS  C:\Users\DNIEL~1\AppData\Local\Temp\cc5F2Pmv.s 			page 63


 3515 00a0 00000000 		.4byte	0
 3516 00a4 00000000 		.4byte	0
 3517              		.section	.debug_line,"",%progbits
 3518              	.Ldebug_line0:
 3519 0000 89020000 		.section	.debug_str,"MS",%progbits,1
 3519      0200D801 
 3519      00000201 
 3519      FB0E0D00 
 3519      01010101 
 3520              	.LASF73:
 3521 0000 7466756E 		.ascii	"tfunc_t\000"
 3521      635F7400 
 3522              	.LASF37:
 3523 0008 705F6D73 		.ascii	"p_msg\000"
 3523      6700
 3524              	.LASF2:
 3525 000e 73697A65 		.ascii	"size_t\000"
 3525      5F7400
 3526              	.LASF79:
 3527 0015 7072696F 		.ascii	"prio\000"
 3527      00
 3528              	.LASF68:
 3529 001a 7264796D 		.ascii	"rdymsg\000"
 3529      736700
 3530              	.LASF83:
 3531 0021 76746C69 		.ascii	"vtlist\000"
 3531      737400
 3532              	.LASF12:
 3533 0028 6C6F6E67 		.ascii	"long long unsigned int\000"
 3533      206C6F6E 
 3533      6720756E 
 3533      7369676E 
 3533      65642069 
 3534              	.LASF69:
 3535 003f 65786974 		.ascii	"exitcode\000"
 3535      636F6465 
 3535      00
 3536              	.LASF25:
 3537 0048 705F7072 		.ascii	"p_prio\000"
 3537      696F00
 3538              	.LASF11:
 3539 004f 6C6F6E67 		.ascii	"long long int\000"
 3539      206C6F6E 
 3539      6720696E 
 3539      7400
 3540              	.LASF1:
 3541 005d 7369676E 		.ascii	"signed char\000"
 3541      65642063 
 3541      68617200 
 3542              	.LASF41:
 3543 0069 705F6D70 		.ascii	"p_mpool\000"
 3543      6F6F6C00 
 3544              	.LASF13:
 3545 0071 626F6F6C 		.ascii	"bool_t\000"
 3545      5F7400
 3546              	.LASF65:
 3547 0078 6D5F7175 		.ascii	"m_queue\000"
ARM GAS  C:\Users\DNIEL~1\AppData\Local\Temp\cc5F2Pmv.s 			page 64


 3547      65756500 
 3548              	.LASF97:
 3549 0080 74657374 		.ascii	"test_emit_token\000"
 3549      5F656D69 
 3549      745F746F 
 3549      6B656E00 
 3550              	.LASF17:
 3551 0090 74736C69 		.ascii	"tslices_t\000"
 3551      6365735F 
 3551      7400
 3552              	.LASF94:
 3553 009a 63685468 		.ascii	"chThdCreateI\000"
 3553      64437265 
 3553      61746549 
 3553      00
 3554              	.LASF8:
 3555 00a7 6C6F6E67 		.ascii	"long int\000"
 3555      20696E74 
 3555      00
 3556              	.LASF15:
 3557 00b0 74737461 		.ascii	"tstate_t\000"
 3557      74655F74 
 3557      00
 3558              	.LASF99:
 3559 00b9 5F746573 		.ascii	"_test_assert_time_window\000"
 3559      745F6173 
 3559      73657274 
 3559      5F74696D 
 3559      655F7769 
 3560              	.LASF27:
 3561 00d2 705F6E65 		.ascii	"p_newer\000"
 3561      77657200 
 3562              	.LASF91:
 3563 00da 63685468 		.ascii	"chThdSetPriority\000"
 3563      64536574 
 3563      5072696F 
 3563      72697479 
 3563      00
 3564              	.LASF60:
 3565 00eb 725F6E65 		.ascii	"r_newer\000"
 3565      77657200 
 3566              	.LASF44:
 3567 00f3 72656761 		.ascii	"regarm_t\000"
 3567      726D5F74 
 3567      00
 3568              	.LASF51:
 3569 00fc 76745F70 		.ascii	"vt_prev\000"
 3569      72657600 
 3570              	.LASF82:
 3571 0104 74686431 		.ascii	"thd1_execute\000"
 3571      5F657865 
 3571      63757465 
 3571      00
 3572              	.LASF0:
 3573 0111 756E7369 		.ascii	"unsigned int\000"
 3573      676E6564 
 3573      20696E74 
ARM GAS  C:\Users\DNIEL~1\AppData\Local\Temp\cc5F2Pmv.s 			page 65


 3573      00
 3574              	.LASF50:
 3575 011e 76745F6E 		.ascii	"vt_next\000"
 3575      65787400 
 3576              	.LASF10:
 3577 0126 6C6F6E67 		.ascii	"long unsigned int\000"
 3577      20756E73 
 3577      69676E65 
 3577      6420696E 
 3577      7400
 3578              	.LASF77:
 3579 0138 74656172 		.ascii	"teardown\000"
 3579      646F776E 
 3579      00
 3580              	.LASF75:
 3581 0141 6E616D65 		.ascii	"name\000"
 3581      00
 3582              	.LASF46:
 3583 0146 636F6E74 		.ascii	"context\000"
 3583      65787400 
 3584              	.LASF6:
 3585 014e 73686F72 		.ascii	"short unsigned int\000"
 3585      7420756E 
 3585      7369676E 
 3585      65642069 
 3585      6E7400
 3586              	.LASF19:
 3587 0161 6D73675F 		.ascii	"msg_t\000"
 3587      7400
 3588              	.LASF14:
 3589 0167 746D6F64 		.ascii	"tmode_t\000"
 3589      655F7400 
 3590              	.LASF43:
 3591 016f 54687265 		.ascii	"ThreadsList\000"
 3591      6164734C 
 3591      69737400 
 3592              	.LASF20:
 3593 017b 6576656E 		.ascii	"eventmask_t\000"
 3593      746D6173 
 3593      6B5F7400 
 3594              	.LASF64:
 3595 0187 4D757465 		.ascii	"Mutex\000"
 3595      7800
 3596              	.LASF81:
 3597 018d 74686432 		.ascii	"thd2_execute\000"
 3597      5F657865 
 3597      63757465 
 3597      00
 3598              	.LASF93:
 3599 019a 63685468 		.ascii	"chThdCreateStatic\000"
 3599      64437265 
 3599      61746553 
 3599      74617469 
 3599      6300
 3600              	.LASF52:
 3601 01ac 76745F74 		.ascii	"vt_time\000"
 3601      696D6500 
ARM GAS  C:\Users\DNIEL~1\AppData\Local\Temp\cc5F2Pmv.s 			page 66


 3602              	.LASF47:
 3603 01b4 73697A65 		.ascii	"sizetype\000"
 3603      74797065 
 3603      00
 3604              	.LASF86:
 3605 01bd 74657374 		.ascii	"testthd1\000"
 3605      74686431 
 3605      00
 3606              	.LASF87:
 3607 01c6 74657374 		.ascii	"testthd2\000"
 3607      74686432 
 3607      00
 3608              	.LASF88:
 3609 01cf 74657374 		.ascii	"testthd3\000"
 3609      74686433 
 3609      00
 3610              	.LASF89:
 3611 01d8 74657374 		.ascii	"testthd4\000"
 3611      74686434 
 3611      00
 3612              	.LASF53:
 3613 01e1 76745F66 		.ascii	"vt_func\000"
 3613      756E6300 
 3614              	.LASF95:
 3615 01e9 63685468 		.ascii	"chThdResume\000"
 3615      64526573 
 3615      756D6500 
 3616              	.LASF101:
 3617 01f5 474E5520 		.ascii	"GNU C 4.7.4 20140401 (release) [ARM/embedded-4_7-br"
 3617      4320342E 
 3617      372E3420 
 3617      32303134 
 3617      30343031 
 3618 0228 616E6368 		.ascii	"anch revision 209195]\000"
 3618      20726576 
 3618      6973696F 
 3618      6E203230 
 3618      39313935 
 3619              	.LASF28:
 3620 023e 705F6F6C 		.ascii	"p_older\000"
 3620      64657200 
 3621              	.LASF59:
 3622 0246 725F6374 		.ascii	"r_ctx\000"
 3622      7800
 3623              	.LASF42:
 3624 024c 54687265 		.ascii	"ThreadsQueue\000"
 3624      61647351 
 3624      75657565 
 3624      00
 3625              	.LASF76:
 3626 0259 73657475 		.ascii	"setup\000"
 3626      7000
 3627              	.LASF96:
 3628 025f 5F746573 		.ascii	"_test_assert_sequence\000"
 3628      745F6173 
 3628      73657274 
 3628      5F736571 
ARM GAS  C:\Users\DNIEL~1\AppData\Local\Temp\cc5F2Pmv.s 			page 67


 3628      75656E63 
 3629              	.LASF105:
 3630 0275 74696D65 		.ascii	"time\000"
 3630      00
 3631              	.LASF62:
 3632 027a 725F6375 		.ascii	"r_current\000"
 3632      7272656E 
 3632      7400
 3633              	.LASF61:
 3634 0284 725F6F6C 		.ascii	"r_older\000"
 3634      64657200 
 3635              	.LASF100:
 3636 028c 63685468 		.ascii	"chThdSleepUntil\000"
 3636      64536C65 
 3636      6570556E 
 3636      74696C00 
 3637              	.LASF16:
 3638 029c 74726566 		.ascii	"trefs_t\000"
 3638      735F7400 
 3639              	.LASF80:
 3640 02a4 74686433 		.ascii	"thd3_execute\000"
 3640      5F657865 
 3640      63757465 
 3640      00
 3641              	.LASF24:
 3642 02b1 705F7072 		.ascii	"p_prev\000"
 3642      657600
 3643              	.LASF78:
 3644 02b8 65786563 		.ascii	"execute\000"
 3644      75746500 
 3645              	.LASF18:
 3646 02c0 74707269 		.ascii	"tprio_t\000"
 3646      6F5F7400 
 3647              	.LASF106:
 3648 02c8 74687265 		.ascii	"thread\000"
 3648      616400
 3649              	.LASF7:
 3650 02cf 696E7433 		.ascii	"int32_t\000"
 3650      325F7400 
 3651              	.LASF4:
 3652 02d7 756E7369 		.ascii	"unsigned char\000"
 3652      676E6564 
 3652      20636861 
 3652      7200
 3653              	.LASF108:
 3654 02e5 74657374 		.ascii	"test_wait_tick\000"
 3654      5F776169 
 3654      745F7469 
 3654      636B00
 3655              	.LASF39:
 3656 02f4 705F6D74 		.ascii	"p_mtxlist\000"
 3656      786C6973 
 3656      7400
 3657              	.LASF5:
 3658 02fe 73686F72 		.ascii	"short int\000"
 3658      7420696E 
 3658      7400
ARM GAS  C:\Users\DNIEL~1\AppData\Local\Temp\cc5F2Pmv.s 			page 68


 3659              	.LASF30:
 3660 0308 705F7374 		.ascii	"p_state\000"
 3660      61746500 
 3661              	.LASF33:
 3662 0310 705F7072 		.ascii	"p_preempt\000"
 3662      65656D70 
 3662      7400
 3663              	.LASF85:
 3664 031a 74687265 		.ascii	"threads\000"
 3664      61647300 
 3665              	.LASF58:
 3666 0322 725F7072 		.ascii	"r_prio\000"
 3666      696F00
 3667              	.LASF71:
 3668 0329 65776D61 		.ascii	"ewmask\000"
 3668      736B00
 3669              	.LASF23:
 3670 0330 705F6E65 		.ascii	"p_next\000"
 3670      787400
 3671              	.LASF31:
 3672 0337 705F666C 		.ascii	"p_flags\000"
 3672      61677300 
 3673              	.LASF22:
 3674 033f 54687265 		.ascii	"Thread\000"
 3674      616400
 3675              	.LASF74:
 3676 0346 74657374 		.ascii	"testcase\000"
 3676      63617365 
 3676      00
 3677              	.LASF102:
 3678 034f 2E2E2F2E 		.ascii	"../../../ChibiOS/test/testthd.c\000"
 3678      2E2F2E2E 
 3678      2F436869 
 3678      62694F53 
 3678      2F746573 
 3679              	.LASF38:
 3680 036f 705F6570 		.ascii	"p_epending\000"
 3680      656E6469 
 3680      6E6700
 3681              	.LASF9:
 3682 037a 75696E74 		.ascii	"uint32_t\000"
 3682      33325F74 
 3682      00
 3683              	.LASF57:
 3684 0383 725F7175 		.ascii	"r_queue\000"
 3684      65756500 
 3685              	.LASF49:
 3686 038b 56697274 		.ascii	"VirtualTimer\000"
 3686      75616C54 
 3686      696D6572 
 3686      00
 3687              	.LASF72:
 3688 0398 63686172 		.ascii	"char\000"
 3688      00
 3689              	.LASF104:
 3690 039d 74686434 		.ascii	"thd4_execute\000"
 3690      5F657865 
ARM GAS  C:\Users\DNIEL~1\AppData\Local\Temp\cc5F2Pmv.s 			page 69


 3690      63757465 
 3690      00
 3691              	.LASF90:
 3692 03aa 70617474 		.ascii	"patternthd\000"
 3692      65726E74 
 3692      686400
 3693              	.LASF107:
 3694 03b5 74657374 		.ascii	"test_wait_threads\000"
 3694      5F776169 
 3694      745F7468 
 3694      72656164 
 3694      7300
 3695              	.LASF67:
 3696 03c7 6D5F6E65 		.ascii	"m_next\000"
 3696      787400
 3697              	.LASF21:
 3698 03ce 73797374 		.ascii	"systime_t\000"
 3698      696D655F 
 3698      7400
 3699              	.LASF40:
 3700 03d8 705F7265 		.ascii	"p_realprio\000"
 3700      616C7072 
 3700      696F00
 3701              	.LASF48:
 3702 03e3 76746675 		.ascii	"vtfunc_t\000"
 3702      6E635F74 
 3702      00
 3703              	.LASF34:
 3704 03ec 705F7469 		.ascii	"p_time\000"
 3704      6D6500
 3705              	.LASF45:
 3706 03f3 696E7463 		.ascii	"intctx\000"
 3706      747800
 3707              	.LASF36:
 3708 03fa 705F6D73 		.ascii	"p_msgqueue\000"
 3708      67717565 
 3708      756500
 3709              	.LASF54:
 3710 0405 76745F70 		.ascii	"vt_par\000"
 3710      617200
 3711              	.LASF98:
 3712 040c 63685468 		.ascii	"chThdSleep\000"
 3712      64536C65 
 3712      657000
 3713              	.LASF32:
 3714 0417 705F7265 		.ascii	"p_refs\000"
 3714      667300
 3715              	.LASF63:
 3716 041e 52656164 		.ascii	"ReadyList\000"
 3716      794C6973 
 3716      7400
 3717              	.LASF103:
 3718 0428 433A5C55 		.ascii	"C:\\Users\\D\341niel\\git\\Smarty\\smarty\\firmware"
 3718      73657273 
 3718      5C44E16E 
 3718      69656C5C 
 3718      6769745C 
ARM GAS  C:\Users\DNIEL~1\AppData\Local\Temp\cc5F2Pmv.s 			page 70


 3719 0452 00       		.ascii	"\000"
 3720              	.LASF84:
 3721 0453 726C6973 		.ascii	"rlist\000"
 3721      7400
 3722              	.LASF3:
 3723 0459 75696E74 		.ascii	"uint8_t\000"
 3723      385F7400 
 3724              	.LASF70:
 3725 0461 77746F62 		.ascii	"wtobjp\000"
 3725      6A7000
 3726              	.LASF29:
 3727 0468 705F6E61 		.ascii	"p_name\000"
 3727      6D6500
 3728              	.LASF92:
 3729 046f 5F746573 		.ascii	"_test_assert\000"
 3729      745F6173 
 3729      73657274 
 3729      00
 3730              	.LASF55:
 3731 047c 76745F73 		.ascii	"vt_systime\000"
 3731      79737469 
 3731      6D6500
 3732              	.LASF56:
 3733 0487 56544C69 		.ascii	"VTList\000"
 3733      737400
 3734              	.LASF66:
 3735 048e 6D5F6F77 		.ascii	"m_owner\000"
 3735      6E657200 
 3736              	.LASF26:
 3737 0496 705F6374 		.ascii	"p_ctx\000"
 3737      7800
 3738              	.LASF35:
 3739 049c 705F7761 		.ascii	"p_waiting\000"
 3739      6974696E 
 3739      6700
 3740              		.ident	"GCC: (GNU Tools for ARM Embedded Processors) 4.7.4 20140401 (release) [ARM/embedded-4_7-br
ARM GAS  C:\Users\DNIEL~1\AppData\Local\Temp\cc5F2Pmv.s 			page 71


DEFINED SYMBOLS
                            *ABS*:00000000 testthd.c
C:\Users\DNIEL~1\AppData\Local\Temp\cc5F2Pmv.s:19     .text.thd3_execute:00000000 $t
C:\Users\DNIEL~1\AppData\Local\Temp\cc5F2Pmv.s:24     .text.thd3_execute:00000000 thd3_execute
C:\Users\DNIEL~1\AppData\Local\Temp\cc5F2Pmv.s:248    .text.thd3_execute:00000138 $d
C:\Users\DNIEL~1\AppData\Local\Temp\cc5F2Pmv.s:254    .text.thd2_execute:00000000 $t
C:\Users\DNIEL~1\AppData\Local\Temp\cc5F2Pmv.s:259    .text.thd2_execute:00000000 thd2_execute
C:\Users\DNIEL~1\AppData\Local\Temp\cc5F2Pmv.s:544    .text.thread:00000000 thread
C:\Users\DNIEL~1\AppData\Local\Temp\cc5F2Pmv.s:726    .rodata.str1.4:00000000 .LC0
C:\Users\DNIEL~1\AppData\Local\Temp\cc5F2Pmv.s:729    .rodata.str1.4:00000004 .LC1
C:\Users\DNIEL~1\AppData\Local\Temp\cc5F2Pmv.s:732    .rodata.str1.4:00000008 .LC2
C:\Users\DNIEL~1\AppData\Local\Temp\cc5F2Pmv.s:735    .rodata.str1.4:0000000c .LC3
C:\Users\DNIEL~1\AppData\Local\Temp\cc5F2Pmv.s:738    .rodata.str1.4:00000010 .LC4
C:\Users\DNIEL~1\AppData\Local\Temp\cc5F2Pmv.s:741    .rodata.str1.4:00000014 .LC5
C:\Users\DNIEL~1\AppData\Local\Temp\cc5F2Pmv.s:412    .text.thd1_execute:00000000 $t
C:\Users\DNIEL~1\AppData\Local\Temp\cc5F2Pmv.s:417    .text.thd1_execute:00000000 thd1_execute
C:\Users\DNIEL~1\AppData\Local\Temp\cc5F2Pmv.s:539    .text.thread:00000000 $t
C:\Users\DNIEL~1\AppData\Local\Temp\cc5F2Pmv.s:568    .text.thd4_execute:00000000 $t
C:\Users\DNIEL~1\AppData\Local\Temp\cc5F2Pmv.s:573    .text.thd4_execute:00000000 thd4_execute
C:\Users\DNIEL~1\AppData\Local\Temp\cc5F2Pmv.s:667    .text.thd4_execute:00000074 $d
C:\Users\DNIEL~1\AppData\Local\Temp\cc5F2Pmv.s:718    .rodata.patternthd:00000000 patternthd
C:\Users\DNIEL~1\AppData\Local\Temp\cc5F2Pmv.s:709    .rodata.testthd4:00000000 testthd4
C:\Users\DNIEL~1\AppData\Local\Temp\cc5F2Pmv.s:700    .rodata.testthd3:00000000 testthd3
C:\Users\DNIEL~1\AppData\Local\Temp\cc5F2Pmv.s:691    .rodata.testthd2:00000000 testthd2
C:\Users\DNIEL~1\AppData\Local\Temp\cc5F2Pmv.s:682    .rodata.testthd1:00000000 testthd1
C:\Users\DNIEL~1\AppData\Local\Temp\cc5F2Pmv.s:679    .rodata.testthd1:00000000 $d
C:\Users\DNIEL~1\AppData\Local\Temp\cc5F2Pmv.s:688    .rodata.testthd2:00000000 $d
C:\Users\DNIEL~1\AppData\Local\Temp\cc5F2Pmv.s:697    .rodata.testthd3:00000000 $d
C:\Users\DNIEL~1\AppData\Local\Temp\cc5F2Pmv.s:706    .rodata.testthd4:00000000 $d
C:\Users\DNIEL~1\AppData\Local\Temp\cc5F2Pmv.s:715    .rodata.patternthd:00000000 $d
C:\Users\DNIEL~1\AppData\Local\Temp\cc5F2Pmv.s:725    .rodata.str1.4:00000000 $d
                     .debug_frame:00000010 $d
C:\Users\DNIEL~1\AppData\Local\Temp\cc5F2Pmv.s:253    .text.thd3_execute:0000013c $t
C:\Users\DNIEL~1\AppData\Local\Temp\cc5F2Pmv.s:678    .text.thd4_execute:00000078 $t

UNDEFINED SYMBOLS
chThdSetPriority
_test_assert
rlist
wa
chThdCreateStatic
threads
chThdCreateI
chThdResume
test_wait_threads
_test_assert_sequence
test_emit_token
test_wait_tick
chThdSleep
_test_assert_time_window
chThdSleepUntil
vtlist
