ARM GAS  C:\Users\DNIEL~1\AppData\Local\Temp\cccIZBDL.s 			page 1


   1              		.syntax unified
   2              		.cpu cortex-m4
   3              		.fpu softvfp
   4              		.eabi_attribute 20, 1
   5              		.eabi_attribute 21, 1
   6              		.eabi_attribute 23, 3
   7              		.eabi_attribute 24, 1
   8              		.eabi_attribute 25, 1
   9              		.eabi_attribute 26, 1
  10              		.eabi_attribute 30, 2
  11              		.eabi_attribute 34, 1
  12              		.eabi_attribute 18, 4
  13              		.thumb
  14              		.file	"testsem.c"
  15              		.text
  16              	.Ltext0:
  17              		.cfi_sections	.debug_frame
  18              		.section	.text.sem3_setup,"ax",%progbits
  19              		.align	2
  20              		.p2align 4,,15
  21              		.thumb
  22              		.thumb_func
  23              		.type	sem3_setup, %function
  24              	sem3_setup:
  25              	.LFB13:
  26              		.file 1 "../../../ChibiOS/test/testsem.c"
  27              		.loc 1 205 0
  28              		.cfi_startproc
  29              		@ args = 0, pretend = 0, frame = 0
  30              		@ frame_needed = 0, uses_anonymous_args = 0
  31              		@ link register save eliminated.
  32              		.loc 1 207 0
  33 0000 40F20000 		movw	r0, #:lower16:.LANCHOR0
  34 0004 C0F20000 		movt	r0, #:upper16:.LANCHOR0
  35 0008 0021     		movs	r1, #0
  36              		.loc 1 208 0
  37              		.loc 1 207 0
  38 000a FFF7FEBF 		b	chSemInit
  39              	.LVL0:
  40              		.cfi_endproc
  41              	.LFE13:
  42              		.size	sem3_setup, .-sem3_setup
  43 000e 00BF     		.section	.text.sem2_setup,"ax",%progbits
  44              		.align	2
  45              		.p2align 4,,15
  46              		.thumb
  47              		.thumb_func
  48              		.type	sem2_setup, %function
  49              	sem2_setup:
  50              	.LFB10:
  51              		.loc 1 129 0
  52              		.cfi_startproc
  53              		@ args = 0, pretend = 0, frame = 0
  54              		@ frame_needed = 0, uses_anonymous_args = 0
  55              		@ link register save eliminated.
  56              		.loc 1 131 0
  57 0000 40F20000 		movw	r0, #:lower16:.LANCHOR0
ARM GAS  C:\Users\DNIEL~1\AppData\Local\Temp\cccIZBDL.s 			page 2


  58 0004 C0F20000 		movt	r0, #:upper16:.LANCHOR0
  59 0008 0021     		movs	r1, #0
  60              		.loc 1 132 0
  61              		.loc 1 131 0
  62 000a FFF7FEBF 		b	chSemInit
  63              	.LVL1:
  64              		.cfi_endproc
  65              	.LFE10:
  66              		.size	sem2_setup, .-sem2_setup
  67 000e 00BF     		.section	.text.sem1_setup,"ax",%progbits
  68              		.align	2
  69              		.p2align 4,,15
  70              		.thumb
  71              		.thumb_func
  72              		.type	sem1_setup, %function
  73              	sem1_setup:
  74              	.LFB7:
  75              		.loc 1 72 0
  76              		.cfi_startproc
  77              		@ args = 0, pretend = 0, frame = 0
  78              		@ frame_needed = 0, uses_anonymous_args = 0
  79              		@ link register save eliminated.
  80              		.loc 1 74 0
  81 0000 40F20000 		movw	r0, #:lower16:.LANCHOR0
  82 0004 C0F20000 		movt	r0, #:upper16:.LANCHOR0
  83 0008 0021     		movs	r1, #0
  84              		.loc 1 75 0
  85              		.loc 1 74 0
  86 000a FFF7FEBF 		b	chSemInit
  87              	.LVL2:
  88              		.cfi_endproc
  89              	.LFE7:
  90              		.size	sem1_setup, .-sem1_setup
  91 000e 00BF     		.section	.text.sem4_execute,"ax",%progbits
  92              		.align	2
  93              		.p2align 4,,15
  94              		.thumb
  95              		.thumb_func
  96              		.type	sem4_execute, %function
  97              	sem4_execute:
  98              	.LFB17:
  99              		.loc 1 252 0
 100              		.cfi_startproc
 101              		@ args = 0, pretend = 0, frame = 16
 102              		@ frame_needed = 0, uses_anonymous_args = 0
 103 0000 00B5     		push	{lr}
 104              	.LCFI0:
 105              		.cfi_def_cfa_offset 4
 106              		.cfi_offset 14, -4
 107 0002 87B0     		sub	sp, sp, #28
 108              	.LCFI1:
 109              		.cfi_def_cfa_offset 32
 110              		.loc 1 256 0
 111 0004 0021     		movs	r1, #0
 112 0006 03A8     		add	r0, sp, #12
 113 0008 FFF7FEFF 		bl	chSemInit
 114              	.LVL3:
ARM GAS  C:\Users\DNIEL~1\AppData\Local\Temp\cccIZBDL.s 			page 3


 115              		.loc 1 257 0
 116 000c 0021     		movs	r1, #0
 117 000e 03A8     		add	r0, sp, #12
 118 0010 FFF7FEFF 		bl	chSemReset
 119              	.LVL4:
 120              		.loc 1 258 0
 121 0014 0599     		ldr	r1, [sp, #20]
 122 0016 0120     		movs	r0, #1
 123 0018 0029     		cmp	r1, #0
 124 001a CCBF     		ite	gt
 125 001c 0021     		movgt	r1, #0
 126 001e 0121     		movle	r1, #1
 127 0020 FFF7FEFF 		bl	_test_assert
 128              	.LVL5:
 129 0024 08B1     		cbz	r0, .L10
 130              	.L4:
 131              		.loc 1 280 0
 132 0026 07B0     		add	sp, sp, #28
 133 0028 00BD     		pop	{pc}
 134              	.L10:
 135              		.loc 1 262 0
 136 002a 304B     		ldr	r3, .L13
 137 002c 9869     		ldr	r0, [r3, #24]
 138              		.loc 1 261 0
 139 002e 304B     		ldr	r3, .L13+4
 140 0030 8268     		ldr	r2, [r0, #8]
 141 0032 3048     		ldr	r0, .L13+8
 142 0034 03A9     		add	r1, sp, #12
 143 0036 013A     		subs	r2, r2, #1
 144 0038 0091     		str	r1, [sp, #0]
 145 003a 0068     		ldr	r0, [r0, #0]
 146 003c 4FF4A871 		mov	r1, #336
 147 0040 FFF7FEFF 		bl	chThdCreateStatic
 148              	.LVL6:
 149 0044 2C4B     		ldr	r3, .L13+12
 150 0046 1860     		str	r0, [r3, #0]
 151              		.loc 1 265 0
 152 0048 03A8     		add	r0, sp, #12
 153 004a FFF7FEFF 		bl	chSemWait
 154              	.LVL7:
 155              		.loc 1 268 0
 156 004e 0599     		ldr	r1, [sp, #20]
 157 0050 0220     		movs	r0, #2
 158 0052 0029     		cmp	r1, #0
 159 0054 CCBF     		ite	gt
 160 0056 0021     		movgt	r1, #0
 161 0058 0121     		movle	r1, #1
 162 005a FFF7FEFF 		bl	_test_assert
 163              	.LVL8:
 164 005e 0028     		cmp	r0, #0
 165 0060 E1D1     		bne	.L4
 166              	.LBB2:
 167              		.loc 1 272 0
 168 0062 2023     		movs	r3, #32
 169              	.LVL9:
 170              	@ 272 "../../../ChibiOS/test/testsem.c" 1
 171 0064 83F31188 		msr     BASEPRI, r3
ARM GAS  C:\Users\DNIEL~1\AppData\Local\Temp\cccIZBDL.s 			page 4


 172              	@ 0 "" 2
 173              	.LVL10:
 174              		.thumb
 175              	.LBE2:
 176 0068 059A     		ldr	r2, [sp, #20]
 177 006a 002A     		cmp	r2, #0
 178 006c 36DD     		ble	.L11
 179              	.L6:
 180              		.loc 1 272 0 is_stmt 0 discriminator 2
 181 006e FFF7FEFF 		bl	chSchRescheduleS
 182              	.LVL11:
 183              	.LBB3:
 184 0072 0023     		movs	r3, #0
 185              	.LVL12:
 186              	@ 272 "../../../ChibiOS/test/testsem.c" 1
 187 0074 83F31188 		msr     BASEPRI, r3
 188              	@ 0 "" 2
 189              	.LVL13:
 190              		.thumb
 191              	.LBE3:
 192              		.loc 1 273 0 is_stmt 1 discriminator 2
 193 0078 0599     		ldr	r1, [sp, #20]
 194 007a 0320     		movs	r0, #3
 195 007c 9942     		cmp	r1, r3
 196              	.LVL14:
 197 007e D4BF     		ite	le
 198 0080 0021     		movle	r1, #0
 199 0082 0121     		movgt	r1, #1
 200 0084 FFF7FEFF 		bl	_test_assert
 201              	.LVL15:
 202 0088 0028     		cmp	r0, #0
 203 008a CCD1     		bne	.L4
 204              		.loc 1 274 0
 205 008c 0599     		ldr	r1, [sp, #20]
 206 008e 0420     		movs	r0, #4
 207 0090 4B1E     		subs	r3, r1, #1
 208 0092 5A42     		rsbs	r2, r3, #0
 209 0094 52EB0301 		adcs	r1, r2, r3
 210 0098 FFF7FEFF 		bl	_test_assert
 211              	.LVL16:
 212 009c 0028     		cmp	r0, #0
 213 009e C2D1     		bne	.L4
 214              	.LBB4:
 215              		.loc 1 277 0
 216 00a0 2023     		movs	r3, #32
 217              	.LVL17:
 218              	@ 277 "../../../ChibiOS/test/testsem.c" 1
 219 00a2 83F31188 		msr     BASEPRI, r3
 220              	@ 0 "" 2
 221              	.LVL18:
 222              		.thumb
 223              	.LBE4:
 224 00a6 0598     		ldr	r0, [sp, #20]
 225 00a8 0028     		cmp	r0, #0
 226 00aa 1BDD     		ble	.L12
 227              	.L7:
 228              		.loc 1 277 0 is_stmt 0 discriminator 2
ARM GAS  C:\Users\DNIEL~1\AppData\Local\Temp\cccIZBDL.s 			page 5


 229 00ac FFF7FEFF 		bl	chSchRescheduleS
 230              	.LVL19:
 231              	.LBB5:
 232 00b0 0023     		movs	r3, #0
 233              	.LVL20:
 234              	@ 277 "../../../ChibiOS/test/testsem.c" 1
 235 00b2 83F31188 		msr     BASEPRI, r3
 236              	@ 0 "" 2
 237              	.LVL21:
 238              		.thumb
 239              	.LBE5:
 240              		.loc 1 278 0 is_stmt 1 discriminator 2
 241 00b6 0599     		ldr	r1, [sp, #20]
 242 00b8 0320     		movs	r0, #3
 243 00ba 9942     		cmp	r1, r3
 244              	.LVL22:
 245 00bc D4BF     		ite	le
 246 00be 0021     		movle	r1, #0
 247 00c0 0121     		movgt	r1, #1
 248 00c2 FFF7FEFF 		bl	_test_assert
 249              	.LVL23:
 250 00c6 0028     		cmp	r0, #0
 251 00c8 ADD1     		bne	.L4
 252              		.loc 1 279 0
 253 00ca 0599     		ldr	r1, [sp, #20]
 254 00cc 0520     		movs	r0, #5
 255 00ce 4B1E     		subs	r3, r1, #1
 256 00d0 5A42     		rsbs	r2, r3, #0
 257 00d2 52EB0301 		adcs	r1, r2, r3
 258 00d6 FFF7FEFF 		bl	_test_assert
 259              	.LVL24:
 260 00da A4E7     		b	.L4
 261              	.LVL25:
 262              	.L11:
 263              		.loc 1 272 0 discriminator 1
 264 00dc 03A8     		add	r0, sp, #12
 265 00de FFF7FEFF 		bl	chSemSignalI
 266              	.LVL26:
 267 00e2 C4E7     		b	.L6
 268              	.LVL27:
 269              	.L12:
 270              		.loc 1 277 0 discriminator 1
 271 00e4 03A8     		add	r0, sp, #12
 272 00e6 FFF7FEFF 		bl	chSemSignalI
 273              	.LVL28:
 274 00ea DFE7     		b	.L7
 275              	.L14:
 276              		.align	2
 277              	.L13:
 278 00ec 00000000 		.word	rlist
 279 00f0 00000000 		.word	thread4
 280 00f4 00000000 		.word	wa
 281 00f8 00000000 		.word	threads
 282              		.cfi_endproc
 283              	.LFE17:
 284              		.size	sem4_execute, .-sem4_execute
 285 00fc AFF30080 		.section	.text.thread4,"ax",%progbits
ARM GAS  C:\Users\DNIEL~1\AppData\Local\Temp\cccIZBDL.s 			page 6


 286              		.align	2
 287              		.p2align 4,,15
 288              		.thumb
 289              		.thumb_func
 290              		.type	thread4, %function
 291              	thread4:
 292              	.LFB16:
 293              		.loc 1 246 0
 294              		.cfi_startproc
 295              		@ args = 0, pretend = 0, frame = 0
 296              		@ frame_needed = 0, uses_anonymous_args = 0
 297              	.LVL29:
 298 0000 08B5     		push	{r3, lr}
 299              	.LCFI2:
 300              		.cfi_def_cfa_offset 8
 301              		.cfi_offset 3, -8
 302              		.cfi_offset 14, -4
 303              	.LBB6:
 304              		.loc 1 248 0
 305 0002 2023     		movs	r3, #32
 306              	.LVL30:
 307              	@ 248 "../../../ChibiOS/test/testsem.c" 1
 308 0004 83F31188 		msr     BASEPRI, r3
 309              	@ 0 "" 2
 310              	.LVL31:
 311              		.thumb
 312              	.LBE6:
 313 0008 8368     		ldr	r3, [r0, #8]
 314              	.LVL32:
 315 000a 002B     		cmp	r3, #0
 316 000c 06DD     		ble	.L17
 317              	.LVL33:
 318              	.L16:
 319              		.loc 1 248 0 is_stmt 0 discriminator 2
 320 000e FFF7FEFF 		bl	chSchRescheduleS
 321              	.LVL34:
 322              	.LBB7:
 323 0012 0023     		movs	r3, #0
 324              	.LVL35:
 325              	@ 248 "../../../ChibiOS/test/testsem.c" 1
 326 0014 83F31188 		msr     BASEPRI, r3
 327              	@ 0 "" 2
 328              	.LVL36:
 329              		.thumb
 330              	.LBE7:
 331              		.loc 1 250 0 is_stmt 1 discriminator 2
 332 0018 1846     		mov	r0, r3
 333 001a 08BD     		pop	{r3, pc}
 334              	.LVL37:
 335              	.L17:
 336              		.loc 1 248 0 discriminator 1
 337 001c FFF7FEFF 		bl	chSemSignalI
 338              	.LVL38:
 339 0020 F5E7     		b	.L16
 340              		.cfi_endproc
 341              	.LFE16:
 342              		.size	thread4, .-thread4
ARM GAS  C:\Users\DNIEL~1\AppData\Local\Temp\cccIZBDL.s 			page 7


 343 0022 00BFAFF3 		.section	.text.thread3,"ax",%progbits
 343      0080AFF3 
 343      0080AFF3 
 343      0080
 344              		.align	2
 345              		.p2align 4,,15
 346              		.thumb
 347              		.thumb_func
 348              		.type	thread3, %function
 349              	thread3:
 350              	.LFB14:
 351              		.loc 1 210 0
 352              		.cfi_startproc
 353              		@ args = 0, pretend = 0, frame = 0
 354              		@ frame_needed = 0, uses_anonymous_args = 0
 355              	.LVL39:
 356 0000 10B5     		push	{r4, lr}
 357              	.LCFI3:
 358              		.cfi_def_cfa_offset 8
 359              		.cfi_offset 4, -8
 360              		.cfi_offset 14, -4
 361              		.loc 1 213 0
 362 0002 40F20004 		movw	r4, #:lower16:.LANCHOR0
 363 0006 C0F20004 		movt	r4, #:upper16:.LANCHOR0
 364 000a 2046     		mov	r0, r4
 365              	.LVL40:
 366 000c FFF7FEFF 		bl	chSemWait
 367              	.LVL41:
 368              		.loc 1 214 0
 369 0010 2046     		mov	r0, r4
 370 0012 FFF7FEFF 		bl	chSemSignal
 371              	.LVL42:
 372              		.loc 1 216 0
 373 0016 0020     		movs	r0, #0
 374 0018 10BD     		pop	{r4, pc}
 375              		.cfi_endproc
 376              	.LFE14:
 377              		.size	thread3, .-thread3
 378 001a 00BFAFF3 		.section	.text.thread1,"ax",%progbits
 378      0080
 379              		.align	2
 380              		.p2align 4,,15
 381              		.thumb
 382              		.thumb_func
 383              		.type	thread1, %function
 384              	thread1:
 385              	.LFB8:
 386              		.loc 1 77 0
 387              		.cfi_startproc
 388              		@ args = 0, pretend = 0, frame = 0
 389              		@ frame_needed = 0, uses_anonymous_args = 0
 390              	.LVL43:
 391 0000 10B5     		push	{r4, lr}
 392              	.LCFI4:
 393              		.cfi_def_cfa_offset 8
 394              		.cfi_offset 4, -8
 395              		.cfi_offset 14, -4
ARM GAS  C:\Users\DNIEL~1\AppData\Local\Temp\cccIZBDL.s 			page 8


 396              		.loc 1 77 0
 397 0002 0446     		mov	r4, r0
 398              		.loc 1 79 0
 399 0004 40F20000 		movw	r0, #:lower16:.LANCHOR0
 400              	.LVL44:
 401 0008 C0F20000 		movt	r0, #:upper16:.LANCHOR0
 402 000c FFF7FEFF 		bl	chSemWait
 403              	.LVL45:
 404              		.loc 1 80 0
 405 0010 2078     		ldrb	r0, [r4, #0]	@ zero_extendqisi2
 406 0012 FFF7FEFF 		bl	test_emit_token
 407              	.LVL46:
 408              		.loc 1 82 0
 409 0016 0020     		movs	r0, #0
 410 0018 10BD     		pop	{r4, pc}
 411              		.cfi_endproc
 412              	.LFE8:
 413              		.size	thread1, .-thread1
 414 001a 00BFAFF3 		.section	.text.thread2,"ax",%progbits
 414      0080
 415              		.align	2
 416              		.p2align 4,,15
 417              		.thumb
 418              		.thumb_func
 419              		.type	thread2, %function
 420              	thread2:
 421              	.LFB11:
 422              		.loc 1 134 0
 423              		.cfi_startproc
 424              		@ args = 0, pretend = 0, frame = 0
 425              		@ frame_needed = 0, uses_anonymous_args = 0
 426              	.LVL47:
 427 0000 08B5     		push	{r3, lr}
 428              	.LCFI5:
 429              		.cfi_def_cfa_offset 8
 430              		.cfi_offset 3, -8
 431              		.cfi_offset 14, -4
 432              		.loc 1 137 0
 433 0002 3220     		movs	r0, #50
 434              	.LVL48:
 435 0004 FFF7FEFF 		bl	chThdSleep
 436              	.LVL49:
 437              	.LBB8:
 438              		.loc 1 138 0
 439 0008 2023     		movs	r3, #32
 440              	.LVL50:
 441              	@ 138 "../../../ChibiOS/test/testsem.c" 1
 442 000a 83F31188 		msr     BASEPRI, r3
 443              	@ 0 "" 2
 444              	.LVL51:
 445              		.thumb
 446              	.LBE8:
 447              		.loc 1 139 0
 448 000e 40F20000 		movw	r0, #:lower16:.LANCHOR0
 449 0012 C0F20000 		movt	r0, #:upper16:.LANCHOR0
 450 0016 FFF7FEFF 		bl	chSemSignalI
 451              	.LVL52:
ARM GAS  C:\Users\DNIEL~1\AppData\Local\Temp\cccIZBDL.s 			page 9


 452              		.loc 1 140 0
 453 001a FFF7FEFF 		bl	chSchRescheduleS
 454              	.LVL53:
 455              	.LBB9:
 456              		.loc 1 141 0
 457 001e 0023     		movs	r3, #0
 458              	.LVL54:
 459              	@ 141 "../../../ChibiOS/test/testsem.c" 1
 460 0020 83F31188 		msr     BASEPRI, r3
 461              	@ 0 "" 2
 462              	.LVL55:
 463              		.thumb
 464              	.LBE9:
 465              		.loc 1 143 0
 466 0024 1846     		mov	r0, r3
 467 0026 08BD     		pop	{r3, pc}
 468              		.cfi_endproc
 469              	.LFE11:
 470              		.size	thread2, .-thread2
 471 0028 AFF30080 		.section	.text.sem1_execute,"ax",%progbits
 471      AFF30080 
 472              		.align	2
 473              		.p2align 4,,15
 474              		.thumb
 475              		.thumb_func
 476              		.type	sem1_execute, %function
 477              	sem1_execute:
 478              	.LFB9:
 479              		.loc 1 84 0
 480              		.cfi_startproc
 481              		@ args = 0, pretend = 0, frame = 8
 482              		@ frame_needed = 0, uses_anonymous_args = 0
 483 0000 2DE9F043 		push	{r4, r5, r6, r7, r8, r9, lr}
 484              	.LCFI6:
 485              		.cfi_def_cfa_offset 28
 486              		.cfi_offset 4, -28
 487              		.cfi_offset 5, -24
 488              		.cfi_offset 6, -20
 489              		.cfi_offset 7, -16
 490              		.cfi_offset 8, -12
 491              		.cfi_offset 9, -8
 492              		.cfi_offset 14, -4
 493              		.loc 1 86 0
 494 0004 DFF84081 		ldr	r8, .L24+40
 495 0008 454C     		ldr	r4, .L24
 496 000a D8F81830 		ldr	r3, [r8, #24]
 497 000e 2668     		ldr	r6, [r4, #0]
 498 0010 9A68     		ldr	r2, [r3, #8]
 499 0012 444F     		ldr	r7, .L24+4
 500 0014 444B     		ldr	r3, .L24+8
 501 0016 454D     		ldr	r5, .L24+12
 502              		.loc 1 84 0
 503 0018 85B0     		sub	sp, sp, #20
 504              	.LCFI7:
 505              		.cfi_def_cfa_offset 48
 506              		.loc 1 86 0
 507 001a 4FF4A871 		mov	r1, #336
ARM GAS  C:\Users\DNIEL~1\AppData\Local\Temp\cccIZBDL.s 			page 10


 508 001e 0532     		adds	r2, r2, #5
 509 0020 0097     		str	r7, [sp, #0]
 510 0022 3046     		mov	r0, r6
 511 0024 FFF7FEFF 		bl	chThdCreateStatic
 512              	.LVL56:
 513              		.loc 1 87 0
 514 0028 D8F81810 		ldr	r1, [r8, #24]
 515 002c 6368     		ldr	r3, [r4, #4]
 516 002e 8A68     		ldr	r2, [r1, #8]
 517              		.loc 1 86 0
 518 0030 2860     		str	r0, [r5, #0]
 519              		.loc 1 87 0
 520 0032 3F48     		ldr	r0, .L24+16
 521 0034 0393     		str	r3, [sp, #12]
 522 0036 4FF4A871 		mov	r1, #336
 523 003a 0132     		adds	r2, r2, #1
 524 003c 3A4B     		ldr	r3, .L24+8
 525 003e 0090     		str	r0, [sp, #0]
 526 0040 0398     		ldr	r0, [sp, #12]
 527 0042 FFF7FEFF 		bl	chThdCreateStatic
 528              	.LVL57:
 529              		.loc 1 88 0
 530 0046 D8F81810 		ldr	r1, [r8, #24]
 531 004a A268     		ldr	r2, [r4, #8]
 532 004c 8B68     		ldr	r3, [r1, #8]
 533              		.loc 1 87 0
 534 004e 6860     		str	r0, [r5, #4]
 535              		.loc 1 88 0
 536 0050 3848     		ldr	r0, .L24+20
 537 0052 0392     		str	r2, [sp, #12]
 538 0054 4FF4A871 		mov	r1, #336
 539 0058 DA1C     		adds	r2, r3, #3
 540 005a 0090     		str	r0, [sp, #0]
 541 005c 324B     		ldr	r3, .L24+8
 542 005e 0398     		ldr	r0, [sp, #12]
 543 0060 FFF7FEFF 		bl	chThdCreateStatic
 544              	.LVL58:
 545              		.loc 1 89 0
 546 0064 D8F81810 		ldr	r1, [r8, #24]
 547 0068 E268     		ldr	r2, [r4, #12]
 548 006a 8B68     		ldr	r3, [r1, #8]
 549              		.loc 1 88 0
 550 006c A860     		str	r0, [r5, #8]
 551              		.loc 1 89 0
 552 006e 3248     		ldr	r0, .L24+24
 553 0070 0392     		str	r2, [sp, #12]
 554 0072 4FF4A871 		mov	r1, #336
 555 0076 1A1D     		adds	r2, r3, #4
 556 0078 0090     		str	r0, [sp, #0]
 557 007a 2B4B     		ldr	r3, .L24+8
 558 007c 0398     		ldr	r0, [sp, #12]
 559 007e FFF7FEFF 		bl	chThdCreateStatic
 560              	.LVL59:
 561              		.loc 1 90 0
 562 0082 D8F81810 		ldr	r1, [r8, #24]
 563 0086 2469     		ldr	r4, [r4, #16]
 564 0088 8A68     		ldr	r2, [r1, #8]
ARM GAS  C:\Users\DNIEL~1\AppData\Local\Temp\cccIZBDL.s 			page 11


 565              		.loc 1 89 0
 566 008a E860     		str	r0, [r5, #12]
 567              		.loc 1 90 0
 568 008c 2B48     		ldr	r0, .L24+28
 569 008e 264B     		ldr	r3, .L24+8
 570 0090 0090     		str	r0, [sp, #0]
 571 0092 4FF4A871 		mov	r1, #336
 572 0096 0232     		adds	r2, r2, #2
 573 0098 2046     		mov	r0, r4
 574 009a FFF7FEFF 		bl	chThdCreateStatic
 575              	.LVL60:
 576              		.loc 1 91 0
 577 009e 284C     		ldr	r4, .L24+32
 578              		.loc 1 90 0
 579 00a0 2861     		str	r0, [r5, #16]
 580              		.loc 1 91 0
 581 00a2 2046     		mov	r0, r4
 582 00a4 FFF7FEFF 		bl	chSemSignal
 583              	.LVL61:
 584              		.loc 1 92 0
 585 00a8 2046     		mov	r0, r4
 586 00aa FFF7FEFF 		bl	chSemSignal
 587              	.LVL62:
 588              		.loc 1 93 0
 589 00ae 2046     		mov	r0, r4
 590 00b0 FFF7FEFF 		bl	chSemSignal
 591              	.LVL63:
 592              		.loc 1 94 0
 593 00b4 2046     		mov	r0, r4
 594 00b6 FFF7FEFF 		bl	chSemSignal
 595              	.LVL64:
 596              		.loc 1 95 0
 597 00ba 2046     		mov	r0, r4
 598 00bc FFF7FEFF 		bl	chSemSignal
 599              	.LVL65:
 600              		.loc 1 96 0
 601 00c0 FFF7FEFF 		bl	test_wait_threads
 602              	.LVL66:
 603              		.loc 1 100 0
 604 00c4 0120     		movs	r0, #1
 605 00c6 1F49     		ldr	r1, .L24+36
 606 00c8 FFF7FEFF 		bl	_test_assert_sequence
 607              	.LVL67:
 608 00cc 8146     		mov	r9, r0
 609 00ce 10B1     		cbz	r0, .L23
 610              		.loc 1 109 0
 611 00d0 05B0     		add	sp, sp, #20
 612 00d2 BDE8F083 		pop	{r4, r5, r6, r7, r8, r9, pc}
 613              	.L23:
 614              		.loc 1 102 0
 615 00d6 D8F81810 		ldr	r1, [r8, #24]
 616 00da 134B     		ldr	r3, .L24+8
 617 00dc 8A68     		ldr	r2, [r1, #8]
 618 00de 0097     		str	r7, [sp, #0]
 619 00e0 3046     		mov	r0, r6
 620 00e2 4FF4A871 		mov	r1, #336
 621 00e6 0532     		adds	r2, r2, #5
ARM GAS  C:\Users\DNIEL~1\AppData\Local\Temp\cccIZBDL.s 			page 12


 622 00e8 FFF7FEFF 		bl	chThdCreateStatic
 623              	.LVL68:
 624              	.LBB10:
 625              		.loc 1 103 0
 626 00ec 2023     		movs	r3, #32
 627              	.LVL69:
 628              	.LBE10:
 629              		.loc 1 102 0
 630 00ee 2860     		str	r0, [r5, #0]
 631              	.LBB11:
 632              		.loc 1 103 0
 633              	@ 103 "../../../ChibiOS/test/testsem.c" 1
 634 00f0 83F31188 		msr     BASEPRI, r3
 635              	@ 0 "" 2
 636              	.LVL70:
 637              		.thumb
 638              	.LBE11:
 639              		.loc 1 104 0
 640 00f4 0221     		movs	r1, #2
 641 00f6 2046     		mov	r0, r4
 642 00f8 FFF7FEFF 		bl	chSemAddCounterI
 643              	.LVL71:
 644              		.loc 1 105 0
 645 00fc FFF7FEFF 		bl	chSchRescheduleS
 646              	.LVL72:
 647              	.LBB12:
 648              		.loc 1 106 0
 649 0100 4B46     		mov	r3, r9
 650              	.LVL73:
 651              	@ 106 "../../../ChibiOS/test/testsem.c" 1
 652 0102 83F31188 		msr     BASEPRI, r3
 653              	@ 0 "" 2
 654              	.LVL74:
 655              		.thumb
 656              	.LBE12:
 657              		.loc 1 107 0
 658 0106 FFF7FEFF 		bl	test_wait_threads
 659              	.LVL75:
 660              		.loc 1 108 0
 661 010a A368     		ldr	r3, [r4, #8]
 662 010c 0220     		movs	r0, #2
 663 010e 5A1E     		subs	r2, r3, #1
 664 0110 5142     		rsbs	r1, r2, #0
 665 0112 5141     		adcs	r1, r1, r2
 666              		.loc 1 109 0
 667 0114 05B0     		add	sp, sp, #20
 668 0116 BDE8F043 		pop	{r4, r5, r6, r7, r8, r9, lr}
 669              		.loc 1 108 0
 670 011a FFF7FEBF 		b	_test_assert
 671              	.LVL76:
 672              	.L25:
 673 011e 00BF     		.align	2
 674              	.L24:
 675 0120 00000000 		.word	wa
 676 0124 00000000 		.word	.LC0
 677 0128 00000000 		.word	thread1
 678 012c 00000000 		.word	threads
ARM GAS  C:\Users\DNIEL~1\AppData\Local\Temp\cccIZBDL.s 			page 13


 679 0130 04000000 		.word	.LC1
 680 0134 08000000 		.word	.LC2
 681 0138 0C000000 		.word	.LC3
 682 013c 10000000 		.word	.LC4
 683 0140 00000000 		.word	.LANCHOR0
 684 0144 14000000 		.word	.LC5
 685 0148 00000000 		.word	rlist
 686              		.cfi_endproc
 687              	.LFE9:
 688              		.size	sem1_execute, .-sem1_execute
 689 014c AFF30080 		.section	.text.sem3_execute,"ax",%progbits
 690              		.align	2
 691              		.p2align 4,,15
 692              		.thumb
 693              		.thumb_func
 694              		.type	sem3_execute, %function
 695              	sem3_execute:
 696              	.LFB15:
 697              		.loc 1 218 0
 698              		.cfi_startproc
 699              		@ args = 0, pretend = 0, frame = 0
 700              		@ frame_needed = 0, uses_anonymous_args = 0
 701 0000 10B5     		push	{r4, lr}
 702              	.LCFI8:
 703              		.cfi_def_cfa_offset 8
 704              		.cfi_offset 4, -8
 705              		.cfi_offset 14, -4
 706              		.loc 1 220 0
 707 0002 214B     		ldr	r3, .L31
 708              		.loc 1 221 0
 709 0004 214C     		ldr	r4, .L31+4
 710              		.loc 1 220 0
 711 0006 9869     		ldr	r0, [r3, #24]
 712 0008 214B     		ldr	r3, .L31+8
 713 000a 8268     		ldr	r2, [r0, #8]
 714              		.loc 1 218 0
 715 000c 82B0     		sub	sp, sp, #8
 716              	.LCFI9:
 717              		.cfi_def_cfa_offset 16
 718              		.loc 1 220 0
 719 000e 0020     		movs	r0, #0
 720 0010 0090     		str	r0, [sp, #0]
 721 0012 2048     		ldr	r0, .L31+12
 722 0014 0132     		adds	r2, r2, #1
 723 0016 4FF4A871 		mov	r1, #336
 724 001a 0068     		ldr	r0, [r0, #0]
 725 001c FFF7FEFF 		bl	chThdCreateStatic
 726              	.LVL77:
 727 0020 1D4B     		ldr	r3, .L31+16
 728              		.loc 1 221 0
 729 0022 2146     		mov	r1, r4
 730              		.loc 1 220 0
 731 0024 1860     		str	r0, [r3, #0]
 732              		.loc 1 221 0
 733 0026 2046     		mov	r0, r4
 734 0028 FFF7FEFF 		bl	chSemSignalWait
 735              	.LVL78:
ARM GAS  C:\Users\DNIEL~1\AppData\Local\Temp\cccIZBDL.s 			page 14


 736              		.loc 1 222 0
 737 002c 2168     		ldr	r1, [r4, #0]
 738 002e 0120     		movs	r0, #1
 739 0030 0A1B     		subs	r2, r1, r4
 740 0032 5342     		rsbs	r3, r2, #0
 741 0034 53EB0201 		adcs	r1, r3, r2
 742 0038 FFF7FEFF 		bl	_test_assert
 743              	.LVL79:
 744 003c 08B1     		cbz	r0, .L30
 745              	.L26:
 746              		.loc 1 228 0
 747 003e 02B0     		add	sp, sp, #8
 748 0040 10BD     		pop	{r4, pc}
 749              	.L30:
 750              		.loc 1 223 0
 751 0042 A168     		ldr	r1, [r4, #8]
 752 0044 0220     		movs	r0, #2
 753 0046 D1F10101 		rsbs	r1, r1, #1
 754 004a 38BF     		it	cc
 755 004c 0021     		movcc	r1, #0
 756 004e FFF7FEFF 		bl	_test_assert
 757              	.LVL80:
 758 0052 0028     		cmp	r0, #0
 759 0054 F3D1     		bne	.L26
 760              	.LBB15:
 761              	.LBB16:
 762              		.loc 1 225 0
 763 0056 2146     		mov	r1, r4
 764 0058 2046     		mov	r0, r4
 765 005a FFF7FEFF 		bl	chSemSignalWait
 766              	.LVL81:
 767              		.loc 1 226 0
 768 005e 2268     		ldr	r2, [r4, #0]
 769 0060 0320     		movs	r0, #3
 770 0062 131B     		subs	r3, r2, r4
 771 0064 5942     		rsbs	r1, r3, #0
 772 0066 5941     		adcs	r1, r1, r3
 773 0068 FFF7FEFF 		bl	_test_assert
 774              	.LVL82:
 775 006c 0028     		cmp	r0, #0
 776 006e E6D1     		bne	.L26
 777              		.loc 1 227 0
 778 0070 A268     		ldr	r2, [r4, #8]
 779 0072 0420     		movs	r0, #4
 780 0074 D2F10101 		rsbs	r1, r2, #1
 781 0078 38BF     		it	cc
 782 007a 0021     		movcc	r1, #0
 783              	.LBE16:
 784              	.LBE15:
 785              		.loc 1 228 0
 786 007c 02B0     		add	sp, sp, #8
 787 007e BDE81040 		pop	{r4, lr}
 788              	.LBB18:
 789              	.LBB17:
 790              		.loc 1 227 0
 791 0082 FFF7FEBF 		b	_test_assert
 792              	.LVL83:
ARM GAS  C:\Users\DNIEL~1\AppData\Local\Temp\cccIZBDL.s 			page 15


 793              	.L32:
 794 0086 00BF     		.align	2
 795              	.L31:
 796 0088 00000000 		.word	rlist
 797 008c 00000000 		.word	.LANCHOR0
 798 0090 00000000 		.word	thread3
 799 0094 00000000 		.word	wa
 800 0098 00000000 		.word	threads
 801              	.LBE17:
 802              	.LBE18:
 803              		.cfi_endproc
 804              	.LFE15:
 805              		.size	sem3_execute, .-sem3_execute
 806 009c AFF30080 		.section	.text.sem2_execute,"ax",%progbits
 807              		.align	2
 808              		.p2align 4,,15
 809              		.thumb
 810              		.thumb_func
 811              		.type	sem2_execute, %function
 812              	sem2_execute:
 813              	.LFB12:
 814              		.loc 1 145 0
 815              		.cfi_startproc
 816              		@ args = 0, pretend = 0, frame = 0
 817              		@ frame_needed = 0, uses_anonymous_args = 0
 818 0000 70B5     		push	{r4, r5, r6, lr}
 819              	.LCFI10:
 820              		.cfi_def_cfa_offset 16
 821              		.cfi_offset 4, -16
 822              		.cfi_offset 5, -12
 823              		.cfi_offset 6, -8
 824              		.cfi_offset 14, -4
 825              		.loc 1 153 0
 826 0002 A04C     		ldr	r4, .L38
 827 0004 0021     		movs	r1, #0
 828              		.loc 1 145 0
 829 0006 82B0     		sub	sp, sp, #8
 830              	.LCFI11:
 831              		.cfi_def_cfa_offset 24
 832              		.loc 1 153 0
 833 0008 2046     		mov	r0, r4
 834 000a FFF7FEFF 		bl	chSemWaitTimeout
 835              	.LVL84:
 836              		.loc 1 154 0
 837 000e B0F1FF33 		subs	r3, r0, #-1
 838 0012 5942     		rsbs	r1, r3, #0
 839 0014 5941     		adcs	r1, r1, r3
 840 0016 0120     		movs	r0, #1
 841              	.LVL85:
 842 0018 FFF7FEFF 		bl	_test_assert
 843              	.LVL86:
 844 001c 08B1     		cbz	r0, .L37
 845              	.L33:
 846              		.loc 1 183 0
 847 001e 02B0     		add	sp, sp, #8
 848 0020 70BD     		pop	{r4, r5, r6, pc}
 849              	.L37:
ARM GAS  C:\Users\DNIEL~1\AppData\Local\Temp\cccIZBDL.s 			page 16


 850              		.loc 1 155 0
 851 0022 2268     		ldr	r2, [r4, #0]
 852 0024 0220     		movs	r0, #2
 853 0026 B2EB040C 		subs	ip, r2, r4
 854 002a DCF10003 		rsbs	r3, ip, #0
 855 002e 53EB0C01 		adcs	r1, r3, ip
 856 0032 FFF7FEFF 		bl	_test_assert
 857              	.LVL87:
 858 0036 0028     		cmp	r0, #0
 859 0038 F1D1     		bne	.L33
 860              		.loc 1 156 0
 861 003a A168     		ldr	r1, [r4, #8]
 862 003c 0320     		movs	r0, #3
 863 003e D1F10101 		rsbs	r1, r1, #1
 864 0042 38BF     		it	cc
 865 0044 0021     		movcc	r1, #0
 866 0046 FFF7FEFF 		bl	_test_assert
 867              	.LVL88:
 868 004a 0028     		cmp	r0, #0
 869 004c E7D1     		bne	.L33
 870              	.LBB21:
 871              	.LBB22:
 872              		.loc 1 161 0
 873 004e 8E4D     		ldr	r5, .L38+4
 874 0050 8E4B     		ldr	r3, .L38+8
 875 0052 AA69     		ldr	r2, [r5, #24]
 876 0054 9168     		ldr	r1, [r2, #8]
 877 0056 0090     		str	r0, [sp, #0]
 878 0058 8D48     		ldr	r0, .L38+12
 879 005a 4A1E     		subs	r2, r1, #1
 880 005c 0068     		ldr	r0, [r0, #0]
 881 005e 4FF4A871 		mov	r1, #336
 882 0062 FFF7FEFF 		bl	chThdCreateStatic
 883              	.LVL89:
 884 0066 8B4B     		ldr	r3, .L38+16
 885              		.loc 1 163 0
 886 0068 4FF4FA71 		mov	r1, #500
 887              		.loc 1 161 0
 888 006c 1860     		str	r0, [r3, #0]
 889              		.loc 1 163 0
 890 006e 2046     		mov	r0, r4
 891 0070 FFF7FEFF 		bl	chSemWaitTimeout
 892              	.LVL90:
 893 0074 0546     		mov	r5, r0
 894              	.LVL91:
 895              		.loc 1 164 0
 896 0076 FFF7FEFF 		bl	test_wait_threads
 897              	.LVL92:
 898              		.loc 1 165 0
 899 007a 0420     		movs	r0, #4
 900 007c D5F10101 		rsbs	r1, r5, #1
 901 0080 38BF     		it	cc
 902 0082 0021     		movcc	r1, #0
 903 0084 FFF7FEFF 		bl	_test_assert
 904              	.LVL93:
 905 0088 0028     		cmp	r0, #0
 906 008a C8D1     		bne	.L33
ARM GAS  C:\Users\DNIEL~1\AppData\Local\Temp\cccIZBDL.s 			page 17


 907              		.loc 1 166 0
 908 008c 2268     		ldr	r2, [r4, #0]
 909 008e 0520     		movs	r0, #5
 910 0090 B2EB040E 		subs	lr, r2, r4
 911 0094 DEF10001 		rsbs	r1, lr, #0
 912 0098 51EB0E01 		adcs	r1, r1, lr
 913 009c FFF7FEFF 		bl	_test_assert
 914              	.LVL94:
 915 00a0 0028     		cmp	r0, #0
 916 00a2 BCD1     		bne	.L33
 917              		.loc 1 167 0
 918 00a4 A368     		ldr	r3, [r4, #8]
 919 00a6 0620     		movs	r0, #6
 920 00a8 D3F10101 		rsbs	r1, r3, #1
 921 00ac 38BF     		it	cc
 922 00ae 0021     		movcc	r1, #0
 923 00b0 FFF7FEFF 		bl	_test_assert
 924              	.LVL95:
 925 00b4 0028     		cmp	r0, #0
 926 00b6 B2D1     		bne	.L33
 927              		.loc 1 173 0
 928 00b8 774E     		ldr	r6, .L38+20
 929              		.loc 1 172 0
 930 00ba FFF7FEFF 		bl	test_wait_tick
 931              	.LVL96:
 932              		.loc 1 175 0
 933 00be 4120     		movs	r0, #65
 934              		.loc 1 173 0
 935 00c0 F668     		ldr	r6, [r6, #12]
 936              	.LVL97:
 937              		.loc 1 175 0
 938 00c2 FFF7FEFF 		bl	test_emit_token
 939              	.LVL98:
 940              		.loc 1 176 0
 941 00c6 4FF4FA71 		mov	r1, #500
 942 00ca 2046     		mov	r0, r4
 943 00cc FFF7FEFF 		bl	chSemWaitTimeout
 944              	.LVL99:
 945              		.loc 1 177 0
 946 00d0 B0F1FF30 		subs	r0, r0, #-1
 947              	.LVL100:
 948 00d4 4242     		rsbs	r2, r0, #0
 949 00d6 52EB0001 		adcs	r1, r2, r0
 950 00da 0720     		movs	r0, #7
 951              	.LVL101:
 952 00dc FFF7FEFF 		bl	_test_assert
 953              	.LVL102:
 954 00e0 0028     		cmp	r0, #0
 955 00e2 9CD1     		bne	.L33
 956              		.loc 1 178 0
 957 00e4 2168     		ldr	r1, [r4, #0]
 958 00e6 0820     		movs	r0, #8
 959 00e8 0B1B     		subs	r3, r1, r4
 960 00ea 5A42     		rsbs	r2, r3, #0
 961 00ec 52EB0301 		adcs	r1, r2, r3
 962 00f0 FFF7FEFF 		bl	_test_assert
 963              	.LVL103:
ARM GAS  C:\Users\DNIEL~1\AppData\Local\Temp\cccIZBDL.s 			page 18


 964 00f4 0028     		cmp	r0, #0
 965 00f6 92D1     		bne	.L33
 966              		.loc 1 179 0
 967 00f8 A168     		ldr	r1, [r4, #8]
 968 00fa 0920     		movs	r0, #9
 969 00fc D1F10101 		rsbs	r1, r1, #1
 970 0100 38BF     		it	cc
 971 0102 0021     		movcc	r1, #0
 972 0104 FFF7FEFF 		bl	_test_assert
 973              	.LVL104:
 974 0108 0028     		cmp	r0, #0
 975 010a 88D1     		bne	.L33
 976              	.LVL105:
 977              		.loc 1 175 0
 978 010c 4220     		movs	r0, #66
 979 010e FFF7FEFF 		bl	test_emit_token
 980              	.LVL106:
 981              		.loc 1 176 0
 982 0112 4FF4FA71 		mov	r1, #500
 983 0116 2046     		mov	r0, r4
 984 0118 FFF7FEFF 		bl	chSemWaitTimeout
 985              	.LVL107:
 986              		.loc 1 177 0
 987 011c B0F1FF3C 		subs	ip, r0, #-1
 988 0120 DCF10000 		rsbs	r0, ip, #0
 989              	.LVL108:
 990 0124 50EB0C01 		adcs	r1, r0, ip
 991 0128 0720     		movs	r0, #7
 992 012a FFF7FEFF 		bl	_test_assert
 993              	.LVL109:
 994 012e 0028     		cmp	r0, #0
 995 0130 7FF475AF 		bne	.L33
 996              		.loc 1 178 0
 997 0134 2368     		ldr	r3, [r4, #0]
 998 0136 0820     		movs	r0, #8
 999 0138 B3EB040E 		subs	lr, r3, r4
 1000 013c DEF10002 		rsbs	r2, lr, #0
 1001 0140 52EB0E01 		adcs	r1, r2, lr
 1002 0144 2546     		mov	r5, r4
 1003 0146 FFF7FEFF 		bl	_test_assert
 1004              	.LVL110:
 1005 014a 0028     		cmp	r0, #0
 1006 014c 7FF467AF 		bne	.L33
 1007              		.loc 1 179 0
 1008 0150 A168     		ldr	r1, [r4, #8]
 1009 0152 0920     		movs	r0, #9
 1010 0154 D1F10101 		rsbs	r1, r1, #1
 1011 0158 38BF     		it	cc
 1012 015a 0021     		movcc	r1, #0
 1013 015c FFF7FEFF 		bl	_test_assert
 1014              	.LVL111:
 1015 0160 0028     		cmp	r0, #0
 1016 0162 7FF45CAF 		bne	.L33
 1017              	.LVL112:
 1018              		.loc 1 175 0
 1019 0166 4320     		movs	r0, #67
 1020 0168 FFF7FEFF 		bl	test_emit_token
ARM GAS  C:\Users\DNIEL~1\AppData\Local\Temp\cccIZBDL.s 			page 19


 1021              	.LVL113:
 1022              		.loc 1 176 0
 1023 016c 4FF4FA71 		mov	r1, #500
 1024 0170 2046     		mov	r0, r4
 1025 0172 FFF7FEFF 		bl	chSemWaitTimeout
 1026              	.LVL114:
 1027              		.loc 1 177 0
 1028 0176 B0F1FF30 		subs	r0, r0, #-1
 1029              	.LVL115:
 1030 017a 4342     		rsbs	r3, r0, #0
 1031 017c 53EB0001 		adcs	r1, r3, r0
 1032 0180 0720     		movs	r0, #7
 1033              	.LVL116:
 1034 0182 FFF7FEFF 		bl	_test_assert
 1035              	.LVL117:
 1036 0186 0028     		cmp	r0, #0
 1037 0188 7FF449AF 		bne	.L33
 1038              		.loc 1 178 0
 1039 018c 2268     		ldr	r2, [r4, #0]
 1040 018e 0820     		movs	r0, #8
 1041 0190 131B     		subs	r3, r2, r4
 1042 0192 5942     		rsbs	r1, r3, #0
 1043 0194 5941     		adcs	r1, r1, r3
 1044 0196 FFF7FEFF 		bl	_test_assert
 1045              	.LVL118:
 1046 019a 0028     		cmp	r0, #0
 1047 019c 7FF43FAF 		bne	.L33
 1048              		.loc 1 179 0
 1049 01a0 A268     		ldr	r2, [r4, #8]
 1050 01a2 0920     		movs	r0, #9
 1051 01a4 D2F10101 		rsbs	r1, r2, #1
 1052 01a8 38BF     		it	cc
 1053 01aa 0021     		movcc	r1, #0
 1054 01ac FFF7FEFF 		bl	_test_assert
 1055              	.LVL119:
 1056 01b0 0028     		cmp	r0, #0
 1057 01b2 7FF434AF 		bne	.L33
 1058              	.LVL120:
 1059              		.loc 1 175 0
 1060 01b6 4420     		movs	r0, #68
 1061 01b8 FFF7FEFF 		bl	test_emit_token
 1062              	.LVL121:
 1063              		.loc 1 176 0
 1064 01bc 4FF4FA71 		mov	r1, #500
 1065 01c0 2046     		mov	r0, r4
 1066 01c2 FFF7FEFF 		bl	chSemWaitTimeout
 1067              	.LVL122:
 1068              		.loc 1 177 0
 1069 01c6 B0F1FF3C 		subs	ip, r0, #-1
 1070 01ca DCF10000 		rsbs	r0, ip, #0
 1071              	.LVL123:
 1072 01ce 50EB0C01 		adcs	r1, r0, ip
 1073 01d2 0720     		movs	r0, #7
 1074 01d4 FFF7FEFF 		bl	_test_assert
 1075              	.LVL124:
 1076 01d8 0028     		cmp	r0, #0
 1077 01da 7FF420AF 		bne	.L33
ARM GAS  C:\Users\DNIEL~1\AppData\Local\Temp\cccIZBDL.s 			page 20


 1078              		.loc 1 178 0
 1079 01de 2368     		ldr	r3, [r4, #0]
 1080 01e0 0820     		movs	r0, #8
 1081 01e2 B3EB040E 		subs	lr, r3, r4
 1082 01e6 DEF10001 		rsbs	r1, lr, #0
 1083 01ea 51EB0E01 		adcs	r1, r1, lr
 1084 01ee FFF7FEFF 		bl	_test_assert
 1085              	.LVL125:
 1086 01f2 0028     		cmp	r0, #0
 1087 01f4 7FF413AF 		bne	.L33
 1088              		.loc 1 179 0
 1089 01f8 A268     		ldr	r2, [r4, #8]
 1090 01fa 0920     		movs	r0, #9
 1091 01fc D2F10101 		rsbs	r1, r2, #1
 1092 0200 38BF     		it	cc
 1093 0202 0021     		movcc	r1, #0
 1094 0204 FFF7FEFF 		bl	_test_assert
 1095              	.LVL126:
 1096 0208 0028     		cmp	r0, #0
 1097 020a 7FF408AF 		bne	.L33
 1098              	.LVL127:
 1099              		.loc 1 175 0
 1100 020e 4520     		movs	r0, #69
 1101 0210 FFF7FEFF 		bl	test_emit_token
 1102              	.LVL128:
 1103              		.loc 1 176 0
 1104 0214 4FF4FA71 		mov	r1, #500
 1105 0218 2046     		mov	r0, r4
 1106 021a FFF7FEFF 		bl	chSemWaitTimeout
 1107              	.LVL129:
 1108              		.loc 1 177 0
 1109 021e B0F1FF30 		subs	r0, r0, #-1
 1110              	.LVL130:
 1111 0222 4342     		rsbs	r3, r0, #0
 1112 0224 53EB0001 		adcs	r1, r3, r0
 1113 0228 0720     		movs	r0, #7
 1114              	.LVL131:
 1115 022a FFF7FEFF 		bl	_test_assert
 1116              	.LVL132:
 1117 022e 0028     		cmp	r0, #0
 1118 0230 7FF4F5AE 		bne	.L33
 1119              		.loc 1 178 0
 1120 0234 2168     		ldr	r1, [r4, #0]
 1121 0236 0820     		movs	r0, #8
 1122 0238 0A1B     		subs	r2, r1, r4
 1123 023a 5342     		rsbs	r3, r2, #0
 1124 023c 53EB0201 		adcs	r1, r3, r2
 1125 0240 FFF7FEFF 		bl	_test_assert
 1126              	.LVL133:
 1127 0244 0028     		cmp	r0, #0
 1128 0246 7FF4EAAE 		bne	.L33
 1129              		.loc 1 179 0
 1130 024a A168     		ldr	r1, [r4, #8]
 1131 024c 0920     		movs	r0, #9
 1132 024e D1F10101 		rsbs	r1, r1, #1
 1133 0252 38BF     		it	cc
 1134 0254 0021     		movcc	r1, #0
ARM GAS  C:\Users\DNIEL~1\AppData\Local\Temp\cccIZBDL.s 			page 21


 1135 0256 FFF7FEFF 		bl	_test_assert
 1136              	.LVL134:
 1137 025a 0028     		cmp	r0, #0
 1138 025c 7FF4DFAE 		bne	.L33
 1139              	.LVL135:
 1140              		.loc 1 181 0
 1141 0260 0A20     		movs	r0, #10
 1142 0262 0E49     		ldr	r1, .L38+24
 1143 0264 FFF7FEFF 		bl	_test_assert_sequence
 1144              	.LVL136:
 1145 0268 0028     		cmp	r0, #0
 1146 026a 7FF4D8AE 		bne	.L33
 1147              		.loc 1 182 0
 1148 026e 0B20     		movs	r0, #11
 1149 0270 06F6C411 		addw	r1, r6, #2500
 1150              	.LVL137:
 1151 0274 06F6C912 		addw	r2, r6, #2505
 1152              	.LBE22:
 1153              	.LBE21:
 1154              		.loc 1 183 0
 1155 0278 02B0     		add	sp, sp, #8
 1156 027a BDE87040 		pop	{r4, r5, r6, lr}
 1157              	.LBB24:
 1158              	.LBB23:
 1159              		.loc 1 182 0
 1160 027e FFF7FEBF 		b	_test_assert_time_window
 1161              	.LVL138:
 1162              	.L39:
 1163 0282 00BF     		.align	2
 1164              	.L38:
 1165 0284 00000000 		.word	.LANCHOR0
 1166 0288 00000000 		.word	rlist
 1167 028c 00000000 		.word	thread2
 1168 0290 00000000 		.word	wa
 1169 0294 00000000 		.word	threads
 1170 0298 00000000 		.word	vtlist
 1171 029c 14000000 		.word	.LC5
 1172              	.LBE23:
 1173              	.LBE24:
 1174              		.cfi_endproc
 1175              	.LFE12:
 1176              		.size	sem2_execute, .-sem2_execute
 1177              		.global	patternsem
 1178              		.global	testsem4
 1179              		.global	testsem3
 1180              		.global	testsem2
 1181              		.global	testsem1
 1182              		.section	.rodata.testsem1,"a",%progbits
 1183              		.align	2
 1184              		.type	testsem1, %object
 1185              		.size	testsem1, 16
 1186              	testsem1:
 1187 0000 74000000 		.word	.LC9
 1188 0004 00000000 		.word	sem1_setup
 1189 0008 00000000 		.word	0
 1190 000c 00000000 		.word	sem1_execute
 1191              		.section	.rodata.testsem2,"a",%progbits
ARM GAS  C:\Users\DNIEL~1\AppData\Local\Temp\cccIZBDL.s 			page 22


 1192              		.align	2
 1193              		.type	testsem2, %object
 1194              		.size	testsem2, 16
 1195              	testsem2:
 1196 0000 60000000 		.word	.LC8
 1197 0004 00000000 		.word	sem2_setup
 1198 0008 00000000 		.word	0
 1199 000c 00000000 		.word	sem2_execute
 1200              		.section	.rodata.testsem3,"a",%progbits
 1201              		.align	2
 1202              		.type	testsem3, %object
 1203              		.size	testsem3, 16
 1204              	testsem3:
 1205 0000 40000000 		.word	.LC7
 1206 0004 00000000 		.word	sem3_setup
 1207 0008 00000000 		.word	0
 1208 000c 00000000 		.word	sem3_execute
 1209              		.section	.rodata.testsem4,"a",%progbits
 1210              		.align	2
 1211              		.type	testsem4, %object
 1212              		.size	testsem4, 16
 1213              	testsem4:
 1214 0000 1C000000 		.word	.LC6
 1215 0004 00000000 		.word	0
 1216 0008 00000000 		.word	0
 1217 000c 00000000 		.word	sem4_execute
 1218              		.section	.data.sem1,"aw",%progbits
 1219              		.align	2
 1220              		.set	.LANCHOR0,. + 0
 1221              		.type	sem1, %object
 1222              		.size	sem1, 12
 1223              	sem1:
 1224 0000 00000000 		.word	sem1
 1225 0004 00000000 		.word	sem1
 1226 0008 00000000 		.word	0
 1227              		.section	.rodata.patternsem,"a",%progbits
 1228              		.align	2
 1229              		.type	patternsem, %object
 1230              		.size	patternsem, 20
 1231              	patternsem:
 1232 0000 00000000 		.word	testsem1
 1233 0004 00000000 		.word	testsem2
 1234 0008 00000000 		.word	testsem3
 1235 000c 00000000 		.word	testsem4
 1236 0010 00000000 		.word	0
 1237              		.section	.rodata.str1.4,"aMS",%progbits,1
 1238              		.align	2
 1239              	.LC0:
 1240 0000 4100     		.ascii	"A\000"
 1241 0002 0000     		.space	2
 1242              	.LC1:
 1243 0004 4200     		.ascii	"B\000"
 1244 0006 0000     		.space	2
 1245              	.LC2:
 1246 0008 4300     		.ascii	"C\000"
 1247 000a 0000     		.space	2
 1248              	.LC3:
ARM GAS  C:\Users\DNIEL~1\AppData\Local\Temp\cccIZBDL.s 			page 23


 1249 000c 4400     		.ascii	"D\000"
 1250 000e 0000     		.space	2
 1251              	.LC4:
 1252 0010 4500     		.ascii	"E\000"
 1253 0012 0000     		.space	2
 1254              	.LC5:
 1255 0014 41424344 		.ascii	"ABCDE\000"
 1255      4500
 1256 001a 0000     		.space	2
 1257              	.LC6:
 1258 001c 42696E61 		.ascii	"Binary Semaphores, functionality\000"
 1258      72792053 
 1258      656D6170 
 1258      686F7265 
 1258      732C2066 
 1259 003d 000000   		.space	3
 1260              	.LC7:
 1261 0040 53656D61 		.ascii	"Semaphores, atomic signal-wait\000"
 1261      70686F72 
 1261      65732C20 
 1261      61746F6D 
 1261      69632073 
 1262 005f 00       		.space	1
 1263              	.LC8:
 1264 0060 53656D61 		.ascii	"Semaphores, timeout\000"
 1264      70686F72 
 1264      65732C20 
 1264      74696D65 
 1264      6F757400 
 1265              	.LC9:
 1266 0074 53656D61 		.ascii	"Semaphores, enqueuing\000"
 1266      70686F72 
 1266      65732C20 
 1266      656E7175 
 1266      6575696E 
 1267 008a 0000     		.text
 1268              	.Letext0:
 1269              		.file 2 "c:\\chibistudio\\tools\\gnu tools arm embedded\\4.7 2014q2\\bin\\../lib/gcc/arm-none-eabi
 1270              		.file 3 "c:\\chibistudio\\tools\\gnu tools arm embedded\\4.7 2014q2\\bin\\../lib/gcc/arm-none-eabi
 1271              		.file 4 "../../../ChibiOS/os/ports/GCC/ARMCMx/chtypes.h"
 1272              		.file 5 "../../../ChibiOS/os/kernel/include/chlists.h"
 1273              		.file 6 "../../../ChibiOS/os/kernel/include/chthreads.h"
 1274              		.file 7 "../../../ChibiOS/os/ports/GCC/ARMCMx/chcore_v7m.h"
 1275              		.file 8 "../../../ChibiOS/os/kernel/include/chvt.h"
 1276              		.file 9 "../../../ChibiOS/os/kernel/include/chschd.h"
 1277              		.file 10 "../../../ChibiOS/os/kernel/include/chsem.h"
 1278              		.file 11 "../../../ChibiOS/os/kernel/include/chbsem.h"
 1279              		.file 12 "../../../ChibiOS/os/kernel/include/chmtx.h"
 1280              		.file 13 "../../../ChibiOS/test/test.h"