ARM GAS  C:\Users\DNIEL~1\AppData\Local\Temp\ccQGUL6C.s 			page 1


   1              		.syntax unified
   2              		.cpu cortex-m4
   3              		.fpu softvfp
   4              		.eabi_attribute 20, 1
   5              		.eabi_attribute 21, 1
   6              		.eabi_attribute 23, 3
   7              		.eabi_attribute 24, 1
   8              		.eabi_attribute 25, 1
   9              		.eabi_attribute 26, 1
  10              		.eabi_attribute 30, 2
  11              		.eabi_attribute 34, 1
  12              		.eabi_attribute 18, 4
  13              		.thumb
  14              		.file	"testbmk.c"
  15              		.text
  16              	.Ltext0:
  17              		.cfi_sections	.debug_frame
  18              		.section	.text.thread2,"ax",%progbits
  19              		.align	2
  20              		.p2align 4,,15
  21              		.thumb
  22              		.thumb_func
  23              		.type	thread2, %function
  24              	thread2:
  25              	.LFB11:
  26              		.file 1 "../../../ChibiOS/test/testbmk.c"
  27              		.loc 1 154 0
  28              		.cfi_startproc
  29              		@ args = 0, pretend = 0, frame = 0
  30              		@ frame_needed = 0, uses_anonymous_args = 0
  31              		@ link register save eliminated.
  32              	.LVL0:
  33              		.loc 1 157 0
  34 0000 7047     		bx	lr
  35              		.cfi_endproc
  36              	.LFE11:
  37              		.size	thread2, .-thread2
  38 0002 00BFAFF3 		.section	.text.tmo,"ax",%progbits
  38      0080AFF3 
  38      0080AFF3 
  38      0080
  39              		.align	2
  40              		.p2align 4,,15
  41              		.thumb
  42              		.thumb_func
  43              		.type	tmo, %function
  44              	tmo:
  45              	.LFB23:
  46              		.loc 1 502 0
  47              		.cfi_startproc
  48              		@ args = 0, pretend = 0, frame = 0
  49              		@ frame_needed = 0, uses_anonymous_args = 0
  50              		@ link register save eliminated.
  51              	.LVL1:
  52 0000 7047     		bx	lr
  53              		.cfi_endproc
  54              	.LFE23:
ARM GAS  C:\Users\DNIEL~1\AppData\Local\Temp\ccQGUL6C.s 			page 2


  55              		.size	tmo, .-tmo
  56 0002 00BFAFF3 		.section	.text.bmk13_execute,"ax",%progbits
  56      0080AFF3 
  56      0080AFF3 
  56      0080
  57              		.align	2
  58              		.p2align 4,,15
  59              		.thumb
  60              		.thumb_func
  61              		.type	bmk13_execute, %function
  62              	bmk13_execute:
  63              	.LFB29:
  64              		.loc 1 637 0
  65              		.cfi_startproc
  66              		@ args = 0, pretend = 0, frame = 0
  67              		@ frame_needed = 0, uses_anonymous_args = 0
  68              		.loc 1 639 0
  69 0000 40F20000 		movw	r0, #:lower16:.LC0
  70              		.loc 1 637 0
  71 0004 10B5     		push	{r4, lr}
  72              	.LCFI0:
  73              		.cfi_def_cfa_offset 8
  74              		.cfi_offset 4, -8
  75              		.cfi_offset 14, -4
  76              		.loc 1 639 0
  77 0006 C0F20000 		movt	r0, #:upper16:.LC0
  78              		.loc 1 645 0
  79 000a 40F20004 		movw	r4, #:lower16:.LC1
  80 000e C0F20004 		movt	r4, #:upper16:.LC1
  81              		.loc 1 639 0
  82 0012 FFF7FEFF 		bl	test_print
  83              	.LVL2:
  84              		.loc 1 640 0
  85 0016 4FF4EA70 		mov	r0, #468
  86 001a FFF7FEFF 		bl	test_printn
  87              	.LVL3:
  88              		.loc 1 645 0
  89 001e 2046     		mov	r0, r4
  90 0020 FFF7FEFF 		bl	test_println
  91              	.LVL4:
  92              		.loc 1 646 0
  93 0024 40F20000 		movw	r0, #:lower16:.LC2
  94 0028 C0F20000 		movt	r0, #:upper16:.LC2
  95 002c FFF7FEFF 		bl	test_print
  96              	.LVL5:
  97              		.loc 1 647 0
  98 0030 4820     		movs	r0, #72
  99 0032 FFF7FEFF 		bl	test_printn
 100              	.LVL6:
 101              		.loc 1 648 0
 102 0036 2046     		mov	r0, r4
 103 0038 FFF7FEFF 		bl	test_println
 104              	.LVL7:
 105              		.loc 1 649 0
 106 003c 40F20000 		movw	r0, #:lower16:.LC3
 107 0040 C0F20000 		movt	r0, #:upper16:.LC3
 108 0044 FFF7FEFF 		bl	test_print
ARM GAS  C:\Users\DNIEL~1\AppData\Local\Temp\ccQGUL6C.s 			page 3


 109              	.LVL8:
 110              		.loc 1 650 0
 111 0048 1420     		movs	r0, #20
 112 004a FFF7FEFF 		bl	test_printn
 113              	.LVL9:
 114              		.loc 1 651 0
 115 004e 2046     		mov	r0, r4
 116 0050 FFF7FEFF 		bl	test_println
 117              	.LVL10:
 118              		.loc 1 653 0
 119 0054 40F20000 		movw	r0, #:lower16:.LC4
 120 0058 C0F20000 		movt	r0, #:upper16:.LC4
 121 005c FFF7FEFF 		bl	test_print
 122              	.LVL11:
 123              		.loc 1 654 0
 124 0060 0C20     		movs	r0, #12
 125 0062 FFF7FEFF 		bl	test_printn
 126              	.LVL12:
 127              		.loc 1 655 0
 128 0066 2046     		mov	r0, r4
 129 0068 FFF7FEFF 		bl	test_println
 130              	.LVL13:
 131              		.loc 1 658 0
 132 006c 40F20000 		movw	r0, #:lower16:.LC5
 133 0070 C0F20000 		movt	r0, #:upper16:.LC5
 134 0074 FFF7FEFF 		bl	test_print
 135              	.LVL14:
 136              		.loc 1 659 0
 137 0078 0420     		movs	r0, #4
 138 007a FFF7FEFF 		bl	test_printn
 139              	.LVL15:
 140              		.loc 1 660 0
 141 007e 2046     		mov	r0, r4
 142 0080 FFF7FEFF 		bl	test_println
 143              	.LVL16:
 144              		.loc 1 661 0
 145 0084 40F20000 		movw	r0, #:lower16:.LC6
 146 0088 C0F20000 		movt	r0, #:upper16:.LC6
 147 008c FFF7FEFF 		bl	test_print
 148              	.LVL17:
 149              		.loc 1 662 0
 150 0090 1020     		movs	r0, #16
 151 0092 FFF7FEFF 		bl	test_printn
 152              	.LVL18:
 153              		.loc 1 663 0
 154 0096 2046     		mov	r0, r4
 155 0098 FFF7FEFF 		bl	test_println
 156              	.LVL19:
 157              		.loc 1 666 0
 158 009c 40F20000 		movw	r0, #:lower16:.LC7
 159 00a0 C0F20000 		movt	r0, #:upper16:.LC7
 160 00a4 FFF7FEFF 		bl	test_print
 161              	.LVL20:
 162              		.loc 1 667 0
 163 00a8 1020     		movs	r0, #16
 164 00aa FFF7FEFF 		bl	test_printn
 165              	.LVL21:
ARM GAS  C:\Users\DNIEL~1\AppData\Local\Temp\ccQGUL6C.s 			page 4


 166              		.loc 1 668 0
 167 00ae 2046     		mov	r0, r4
 168 00b0 FFF7FEFF 		bl	test_println
 169              	.LVL22:
 170              		.loc 1 671 0
 171 00b4 40F20000 		movw	r0, #:lower16:.LC8
 172 00b8 C0F20000 		movt	r0, #:upper16:.LC8
 173 00bc FFF7FEFF 		bl	test_print
 174              	.LVL23:
 175              		.loc 1 672 0
 176 00c0 0820     		movs	r0, #8
 177 00c2 FFF7FEFF 		bl	test_printn
 178              	.LVL24:
 179              		.loc 1 673 0
 180 00c6 2046     		mov	r0, r4
 181 00c8 FFF7FEFF 		bl	test_println
 182              	.LVL25:
 183              		.loc 1 676 0
 184 00cc 40F20000 		movw	r0, #:lower16:.LC9
 185 00d0 C0F20000 		movt	r0, #:upper16:.LC9
 186 00d4 FFF7FEFF 		bl	test_print
 187              	.LVL26:
 188              		.loc 1 677 0
 189 00d8 2420     		movs	r0, #36
 190 00da FFF7FEFF 		bl	test_printn
 191              	.LVL27:
 192              		.loc 1 678 0
 193 00de 2046     		mov	r0, r4
 194 00e0 FFF7FEFF 		bl	test_println
 195              	.LVL28:
 196              		.loc 1 681 0
 197 00e4 40F20000 		movw	r0, #:lower16:.LC10
 198 00e8 C0F20000 		movt	r0, #:upper16:.LC10
 199 00ec FFF7FEFF 		bl	test_print
 200              	.LVL29:
 201              		.loc 1 682 0
 202 00f0 2820     		movs	r0, #40
 203 00f2 FFF7FEFF 		bl	test_printn
 204              	.LVL30:
 205              		.loc 1 683 0
 206 00f6 2046     		mov	r0, r4
 207              		.loc 1 685 0
 208 00f8 BDE81040 		pop	{r4, lr}
 209              		.loc 1 683 0
 210 00fc FFF7FEBF 		b	test_println
 211              	.LVL31:
 212              		.cfi_endproc
 213              	.LFE29:
 214              		.size	bmk13_execute, .-bmk13_execute
 215              		.section	.text.bmk12_execute,"ax",%progbits
 216              		.align	2
 217              		.p2align 4,,15
 218              		.thumb
 219              		.thumb_func
 220              		.type	bmk12_execute, %function
 221              	bmk12_execute:
 222              	.LFB28:
ARM GAS  C:\Users\DNIEL~1\AppData\Local\Temp\ccQGUL6C.s 			page 5


 223              		.loc 1 598 0
 224              		.cfi_startproc
 225              		@ args = 0, pretend = 0, frame = 0
 226              		@ frame_needed = 0, uses_anonymous_args = 0
 227              	.LVL32:
 228 0000 38B5     		push	{r3, r4, r5, lr}
 229              	.LCFI1:
 230              		.cfi_def_cfa_offset 16
 231              		.cfi_offset 3, -16
 232              		.cfi_offset 4, -12
 233              		.cfi_offset 5, -8
 234              		.cfi_offset 14, -4
 235              		.loc 1 601 0
 236 0002 FFF7FEFF 		bl	test_wait_tick
 237              	.LVL33:
 238              		.loc 1 602 0
 239 0006 4FF47A70 		mov	r0, #1000
 240 000a FFF7FEFF 		bl	test_start_timer
 241              	.LVL34:
 242 000e 124D     		ldr	r5, .L11
 243              		.loc 1 599 0
 244 0010 0024     		movs	r4, #0
 245              	.LVL35:
 246              	.L5:
 247              		.loc 1 604 0 discriminator 1
 248 0012 1248     		ldr	r0, .L11+4
 249 0014 FFF7FEFF 		bl	chMtxLock
 250              	.LVL36:
 251              		.loc 1 605 0 discriminator 1
 252 0018 FFF7FEFF 		bl	chMtxUnlock
 253              	.LVL37:
 254              		.loc 1 606 0 discriminator 1
 255 001c 0F48     		ldr	r0, .L11+4
 256 001e FFF7FEFF 		bl	chMtxLock
 257              	.LVL38:
 258              		.loc 1 607 0 discriminator 1
 259 0022 FFF7FEFF 		bl	chMtxUnlock
 260              	.LVL39:
 261              		.loc 1 608 0 discriminator 1
 262 0026 0D48     		ldr	r0, .L11+4
 263 0028 FFF7FEFF 		bl	chMtxLock
 264              	.LVL40:
 265              		.loc 1 609 0 discriminator 1
 266 002c FFF7FEFF 		bl	chMtxUnlock
 267              	.LVL41:
 268              		.loc 1 610 0 discriminator 1
 269 0030 0A48     		ldr	r0, .L11+4
 270 0032 FFF7FEFF 		bl	chMtxLock
 271              	.LVL42:
 272              		.loc 1 611 0 discriminator 1
 273 0036 FFF7FEFF 		bl	chMtxUnlock
 274              	.LVL43:
 275              		.loc 1 616 0 discriminator 1
 276 003a 2B78     		ldrb	r3, [r5, #0]	@ zero_extendqisi2
 277              		.loc 1 612 0 discriminator 1
 278 003c 0134     		adds	r4, r4, #1
 279              	.LVL44:
ARM GAS  C:\Users\DNIEL~1\AppData\Local\Temp\ccQGUL6C.s 			page 6


 280              		.loc 1 616 0 discriminator 1
 281 003e 002B     		cmp	r3, #0
 282 0040 E7D0     		beq	.L5
 283              		.loc 1 617 0
 284 0042 0748     		ldr	r0, .L11+8
 285 0044 FFF7FEFF 		bl	test_print
 286              	.LVL45:
 287              		.loc 1 618 0
 288 0048 A000     		lsls	r0, r4, #2
 289 004a FFF7FEFF 		bl	test_printn
 290              	.LVL46:
 291              		.loc 1 619 0
 292 004e 0548     		ldr	r0, .L11+12
 293              		.loc 1 620 0
 294 0050 BDE83840 		pop	{r3, r4, r5, lr}
 295              		.loc 1 619 0
 296 0054 FFF7FEBF 		b	test_println
 297              	.LVL47:
 298              	.L12:
 299              		.align	2
 300              	.L11:
 301 0058 00000000 		.word	test_timer_done
 302 005c 00000000 		.word	.LANCHOR0
 303 0060 A8000000 		.word	.LC11
 304 0064 B8000000 		.word	.LC12
 305              		.cfi_endproc
 306              	.LFE28:
 307              		.size	bmk12_execute, .-bmk12_execute
 308 0068 AFF30080 		.section	.text.bmk12_setup,"ax",%progbits
 308      AFF30080 
 309              		.align	2
 310              		.p2align 4,,15
 311              		.thumb
 312              		.thumb_func
 313              		.type	bmk12_setup, %function
 314              	bmk12_setup:
 315              	.LFB27:
 316              		.loc 1 593 0
 317              		.cfi_startproc
 318              		@ args = 0, pretend = 0, frame = 0
 319              		@ frame_needed = 0, uses_anonymous_args = 0
 320              		@ link register save eliminated.
 321              		.loc 1 595 0
 322 0000 40F20000 		movw	r0, #:lower16:.LANCHOR0
 323 0004 C0F20000 		movt	r0, #:upper16:.LANCHOR0
 324              		.loc 1 596 0
 325              		.loc 1 595 0
 326 0008 FFF7FEBF 		b	chMtxInit
 327              	.LVL48:
 328              		.cfi_endproc
 329              	.LFE27:
 330              		.size	bmk12_setup, .-bmk12_setup
 331 000c AFF30080 		.section	.text.thread3,"ax",%progbits
 332              		.align	2
 333              		.p2align 4,,15
 334              		.thumb
 335              		.thumb_func
ARM GAS  C:\Users\DNIEL~1\AppData\Local\Temp\ccQGUL6C.s 			page 7


 336              		.type	thread3, %function
 337              	thread3:
 338              	.LFB17:
 339              		.loc 1 341 0
 340              		.cfi_startproc
 341              		@ args = 0, pretend = 0, frame = 0
 342              		@ frame_needed = 0, uses_anonymous_args = 0
 343              	.LVL49:
 344 0000 10B5     		push	{r4, lr}
 345              	.LCFI2:
 346              		.cfi_def_cfa_offset 8
 347              		.cfi_offset 4, -8
 348              		.cfi_offset 14, -4
 349              		.loc 1 344 0
 350 0002 074C     		ldr	r4, .L27
 351 0004 02E0     		b	.L25
 352              	.LVL50:
 353              	.L26:
 354              		.loc 1 345 0
 355 0006 0748     		ldr	r0, .L27+4
 356 0008 FFF7FEFF 		bl	chSemWait
 357              	.LVL51:
 358              	.L25:
 359              		.loc 1 344 0
 360 000c A369     		ldr	r3, [r4, #24]
 361 000e 587F     		ldrb	r0, [r3, #29]	@ zero_extendqisi2
 362 0010 00F00401 		and	r1, r0, #4
 363 0014 CAB2     		uxtb	r2, r1
 364 0016 002A     		cmp	r2, #0
 365 0018 F5D0     		beq	.L26
 366              		.loc 1 347 0
 367 001a 0020     		movs	r0, #0
 368 001c 10BD     		pop	{r4, pc}
 369              	.L28:
 370 001e 00BF     		.align	2
 371              	.L27:
 372 0020 00000000 		.word	rlist
 373 0024 00000000 		.word	.LANCHOR1
 374              		.cfi_endproc
 375              	.LFE17:
 376              		.size	thread3, .-thread3
 377 0028 AFF30080 		.section	.text.bmk11_execute,"ax",%progbits
 377      AFF30080 
 378              		.align	2
 379              		.p2align 4,,15
 380              		.thumb
 381              		.thumb_func
 382              		.type	bmk11_execute, %function
 383              	bmk11_execute:
 384              	.LFB26:
 385              		.loc 1 550 0
 386              		.cfi_startproc
 387              		@ args = 0, pretend = 0, frame = 0
 388              		@ frame_needed = 0, uses_anonymous_args = 0
 389              	.LVL52:
 390 0000 38B5     		push	{r3, r4, r5, lr}
 391              	.LCFI3:
ARM GAS  C:\Users\DNIEL~1\AppData\Local\Temp\ccQGUL6C.s 			page 8


 392              		.cfi_def_cfa_offset 16
 393              		.cfi_offset 3, -16
 394              		.cfi_offset 4, -12
 395              		.cfi_offset 5, -8
 396              		.cfi_offset 14, -4
 397              		.loc 1 553 0
 398 0002 FFF7FEFF 		bl	test_wait_tick
 399              	.LVL53:
 400              		.loc 1 554 0
 401 0006 4FF47A70 		mov	r0, #1000
 402 000a FFF7FEFF 		bl	test_start_timer
 403              	.LVL54:
 404 000e 144D     		ldr	r5, .L35
 405              		.loc 1 551 0
 406 0010 0024     		movs	r4, #0
 407              	.LVL55:
 408              	.L30:
 409              		.loc 1 556 0 discriminator 1
 410 0012 1448     		ldr	r0, .L35+4
 411 0014 FFF7FEFF 		bl	chSemWait
 412              	.LVL56:
 413              		.loc 1 557 0 discriminator 1
 414 0018 1248     		ldr	r0, .L35+4
 415 001a FFF7FEFF 		bl	chSemSignal
 416              	.LVL57:
 417              		.loc 1 558 0 discriminator 1
 418 001e 1148     		ldr	r0, .L35+4
 419 0020 FFF7FEFF 		bl	chSemWait
 420              	.LVL58:
 421              		.loc 1 559 0 discriminator 1
 422 0024 0F48     		ldr	r0, .L35+4
 423 0026 FFF7FEFF 		bl	chSemSignal
 424              	.LVL59:
 425              		.loc 1 560 0 discriminator 1
 426 002a 0E48     		ldr	r0, .L35+4
 427 002c FFF7FEFF 		bl	chSemWait
 428              	.LVL60:
 429              		.loc 1 561 0 discriminator 1
 430 0030 0C48     		ldr	r0, .L35+4
 431 0032 FFF7FEFF 		bl	chSemSignal
 432              	.LVL61:
 433              		.loc 1 562 0 discriminator 1
 434 0036 0B48     		ldr	r0, .L35+4
 435 0038 FFF7FEFF 		bl	chSemWait
 436              	.LVL62:
 437              		.loc 1 563 0 discriminator 1
 438 003c 0948     		ldr	r0, .L35+4
 439 003e FFF7FEFF 		bl	chSemSignal
 440              	.LVL63:
 441              		.loc 1 568 0 discriminator 1
 442 0042 2B78     		ldrb	r3, [r5, #0]	@ zero_extendqisi2
 443              		.loc 1 564 0 discriminator 1
 444 0044 0134     		adds	r4, r4, #1
 445              	.LVL64:
 446              		.loc 1 568 0 discriminator 1
 447 0046 002B     		cmp	r3, #0
 448 0048 E3D0     		beq	.L30
ARM GAS  C:\Users\DNIEL~1\AppData\Local\Temp\ccQGUL6C.s 			page 9


 449              		.loc 1 569 0
 450 004a 0748     		ldr	r0, .L35+8
 451 004c FFF7FEFF 		bl	test_print
 452              	.LVL65:
 453              		.loc 1 570 0
 454 0050 A000     		lsls	r0, r4, #2
 455 0052 FFF7FEFF 		bl	test_printn
 456              	.LVL66:
 457              		.loc 1 571 0
 458 0056 0548     		ldr	r0, .L35+12
 459              		.loc 1 572 0
 460 0058 BDE83840 		pop	{r3, r4, r5, lr}
 461              		.loc 1 571 0
 462 005c FFF7FEBF 		b	test_println
 463              	.LVL67:
 464              	.L36:
 465              		.align	2
 466              	.L35:
 467 0060 00000000 		.word	test_timer_done
 468 0064 00000000 		.word	.LANCHOR1
 469 0068 A8000000 		.word	.LC11
 470 006c C8000000 		.word	.LC13
 471              		.cfi_endproc
 472              	.LFE26:
 473              		.size	bmk11_execute, .-bmk11_execute
 474              		.section	.text.bmk11_setup,"ax",%progbits
 475              		.align	2
 476              		.p2align 4,,15
 477              		.thumb
 478              		.thumb_func
 479              		.type	bmk11_setup, %function
 480              	bmk11_setup:
 481              	.LFB25:
 482              		.loc 1 545 0
 483              		.cfi_startproc
 484              		@ args = 0, pretend = 0, frame = 0
 485              		@ frame_needed = 0, uses_anonymous_args = 0
 486              		@ link register save eliminated.
 487              		.loc 1 547 0
 488 0000 40F20000 		movw	r0, #:lower16:.LANCHOR1
 489 0004 C0F20000 		movt	r0, #:upper16:.LANCHOR1
 490 0008 0121     		movs	r1, #1
 491              		.loc 1 548 0
 492              		.loc 1 547 0
 493 000a FFF7FEBF 		b	chSemInit
 494              	.LVL68:
 495              		.cfi_endproc
 496              	.LFE25:
 497              		.size	bmk11_setup, .-bmk11_setup
 498 000e 00BF     		.section	.text.bmk7_setup,"ax",%progbits
 499              		.align	2
 500              		.p2align 4,,15
 501              		.thumb
 502              		.thumb_func
 503              		.type	bmk7_setup, %function
 504              	bmk7_setup:
 505              	.LFB18:
ARM GAS  C:\Users\DNIEL~1\AppData\Local\Temp\ccQGUL6C.s 			page 10


 506              		.loc 1 349 0
 507              		.cfi_startproc
 508              		@ args = 0, pretend = 0, frame = 0
 509              		@ frame_needed = 0, uses_anonymous_args = 0
 510              		@ link register save eliminated.
 511              		.loc 1 351 0
 512 0000 40F20000 		movw	r0, #:lower16:.LANCHOR1
 513 0004 C0F20000 		movt	r0, #:upper16:.LANCHOR1
 514 0008 0021     		movs	r1, #0
 515              		.loc 1 352 0
 516              		.loc 1 351 0
 517 000a FFF7FEBF 		b	chSemInit
 518              	.LVL69:
 519              		.cfi_endproc
 520              	.LFE18:
 521              		.size	bmk7_setup, .-bmk7_setup
 522 000e 00BF     		.section	.text.bmk10_execute,"ax",%progbits
 523              		.align	2
 524              		.p2align 4,,15
 525              		.thumb
 526              		.thumb_func
 527              		.type	bmk10_execute, %function
 528              	bmk10_execute:
 529              	.LFB24:
 530              		.loc 1 504 0
 531              		.cfi_startproc
 532              		@ args = 0, pretend = 0, frame = 0
 533              		@ frame_needed = 0, uses_anonymous_args = 0
 534              	.LVL70:
 535 0000 38B5     		push	{r3, r4, r5, lr}
 536              	.LCFI4:
 537              		.cfi_def_cfa_offset 16
 538              		.cfi_offset 3, -16
 539              		.cfi_offset 4, -12
 540              		.cfi_offset 5, -8
 541              		.cfi_offset 14, -4
 542              		.loc 1 508 0
 543 0002 FFF7FEFF 		bl	test_wait_tick
 544              	.LVL71:
 545              		.loc 1 509 0
 546 0006 4FF47A70 		mov	r0, #1000
 547 000a FFF7FEFF 		bl	test_start_timer
 548              	.LVL72:
 549 000e 154D     		ldr	r5, .L45
 550              		.loc 1 506 0
 551 0010 0024     		movs	r4, #0
 552              	.LVL73:
 553              	.L40:
 554              	.LBB2:
 555              		.loc 1 511 0 discriminator 1
 556 0012 2023     		movs	r3, #32
 557              	.LVL74:
 558              	@ 511 "../../../ChibiOS/test/testbmk.c" 1
 559 0014 83F31188 		msr     BASEPRI, r3
 560              	@ 0 "" 2
 561              	.LVL75:
 562              		.thumb
ARM GAS  C:\Users\DNIEL~1\AppData\Local\Temp\ccQGUL6C.s 			page 11


 563              	.LBE2:
 564              		.loc 1 512 0 discriminator 1
 565 0018 0121     		movs	r1, #1
 566 001a 0023     		movs	r3, #0
 567              	.LVL76:
 568 001c 1248     		ldr	r0, .L45+4
 569 001e 134A     		ldr	r2, .L45+8
 570 0020 FFF7FEFF 		bl	chVTSetI
 571              	.LVL77:
 572              		.loc 1 513 0 discriminator 1
 573 0024 0023     		movs	r3, #0
 574 0026 42F21071 		movw	r1, #10000
 575 002a 104A     		ldr	r2, .L45+8
 576 002c 1048     		ldr	r0, .L45+12
 577 002e FFF7FEFF 		bl	chVTSetI
 578              	.LVL78:
 579              		.loc 1 514 0 discriminator 1
 580 0032 0D48     		ldr	r0, .L45+4
 581 0034 FFF7FEFF 		bl	chVTResetI
 582              	.LVL79:
 583              		.loc 1 515 0 discriminator 1
 584 0038 0D48     		ldr	r0, .L45+12
 585 003a FFF7FEFF 		bl	chVTResetI
 586              	.LVL80:
 587              	.LBB3:
 588              		.loc 1 516 0 discriminator 1
 589 003e 0023     		movs	r3, #0
 590              	.LVL81:
 591              	@ 516 "../../../ChibiOS/test/testbmk.c" 1
 592 0040 83F31188 		msr     BASEPRI, r3
 593              	@ 0 "" 2
 594              	.LVL82:
 595              		.thumb
 596              	.LBE3:
 597              		.loc 1 521 0 discriminator 1
 598 0044 2B78     		ldrb	r3, [r5, #0]	@ zero_extendqisi2
 599              	.LVL83:
 600              		.loc 1 517 0 discriminator 1
 601 0046 0134     		adds	r4, r4, #1
 602              	.LVL84:
 603              		.loc 1 521 0 discriminator 1
 604 0048 002B     		cmp	r3, #0
 605 004a E2D0     		beq	.L40
 606              		.loc 1 522 0
 607 004c 0948     		ldr	r0, .L45+16
 608 004e FFF7FEFF 		bl	test_print
 609              	.LVL85:
 610              		.loc 1 523 0
 611 0052 6000     		lsls	r0, r4, #1
 612 0054 FFF7FEFF 		bl	test_printn
 613              	.LVL86:
 614              		.loc 1 524 0
 615 0058 0748     		ldr	r0, .L45+20
 616              		.loc 1 525 0
 617 005a BDE83840 		pop	{r3, r4, r5, lr}
 618              		.loc 1 524 0
 619 005e FFF7FEBF 		b	test_println
ARM GAS  C:\Users\DNIEL~1\AppData\Local\Temp\ccQGUL6C.s 			page 12


 620              	.LVL87:
 621              	.L46:
 622 0062 00BF     		.align	2
 623              	.L45:
 624 0064 00000000 		.word	test_timer_done
 625 0068 00000000 		.word	.LANCHOR2
 626 006c 00000000 		.word	tmo
 627 0070 00000000 		.word	.LANCHOR3
 628 0074 A8000000 		.word	.LC11
 629 0078 D8000000 		.word	.LC14
 630              		.cfi_endproc
 631              	.LFE24:
 632              		.size	bmk10_execute, .-bmk10_execute
 633 007c AFF30080 		.section	.text.bmk9_execute,"ax",%progbits
 634              		.align	2
 635              		.p2align 4,,15
 636              		.thumb
 637              		.thumb_func
 638              		.type	bmk9_execute, %function
 639              	bmk9_execute:
 640              	.LFB22:
 641              		.loc 1 455 0
 642              		.cfi_startproc
 643              		@ args = 0, pretend = 0, frame = 0
 644              		@ frame_needed = 0, uses_anonymous_args = 0
 645 0000 30B5     		push	{r4, r5, lr}
 646              	.LCFI5:
 647              		.cfi_def_cfa_offset 12
 648              		.cfi_offset 4, -12
 649              		.cfi_offset 5, -8
 650              		.cfi_offset 14, -4
 651 0002 83B0     		sub	sp, sp, #12
 652              	.LCFI6:
 653              		.cfi_def_cfa_offset 24
 654              		.loc 1 460 0
 655 0004 0024     		movs	r4, #0
 656 0006 2449     		ldr	r1, .L53
 657 0008 2448     		ldr	r0, .L53+4
 658 000a 0094     		str	r4, [sp, #0]
 659 000c 1022     		movs	r2, #16
 660 000e 2346     		mov	r3, r4
 661 0010 FFF7FEFF 		bl	chIQInit
 662              	.LVL88:
 663              		.loc 1 462 0
 664 0014 FFF7FEFF 		bl	test_wait_tick
 665              	.LVL89:
 666              		.loc 1 463 0
 667 0018 4FF47A70 		mov	r0, #1000
 668 001c FFF7FEFF 		bl	test_start_timer
 669              	.LVL90:
 670 0020 1F4D     		ldr	r5, .L53+8
 671              	.LVL91:
 672              	.L48:
 673              	.LBB4:
 674              		.loc 1 465 0 discriminator 1
 675 0022 2023     		movs	r3, #32
 676              	.LVL92:
ARM GAS  C:\Users\DNIEL~1\AppData\Local\Temp\ccQGUL6C.s 			page 13


 677              	@ 465 "../../../ChibiOS/test/testbmk.c" 1
 678 0024 83F31188 		msr     BASEPRI, r3
 679              	@ 0 "" 2
 680              	.LVL93:
 681              		.thumb
 682              	.LBE4:
 683              		.loc 1 466 0 discriminator 1
 684 0028 0021     		movs	r1, #0
 685 002a 1C48     		ldr	r0, .L53+4
 686 002c FFF7FEFF 		bl	chIQPutI
 687              	.LVL94:
 688              		.loc 1 467 0 discriminator 1
 689 0030 0121     		movs	r1, #1
 690 0032 1A48     		ldr	r0, .L53+4
 691 0034 FFF7FEFF 		bl	chIQPutI
 692              	.LVL95:
 693              		.loc 1 468 0 discriminator 1
 694 0038 0221     		movs	r1, #2
 695 003a 1848     		ldr	r0, .L53+4
 696 003c FFF7FEFF 		bl	chIQPutI
 697              	.LVL96:
 698              		.loc 1 469 0 discriminator 1
 699 0040 0321     		movs	r1, #3
 700 0042 1648     		ldr	r0, .L53+4
 701 0044 FFF7FEFF 		bl	chIQPutI
 702              	.LVL97:
 703              	.LBB5:
 704              		.loc 1 470 0 discriminator 1
 705 0048 0023     		movs	r3, #0
 706              	.LVL98:
 707              	@ 470 "../../../ChibiOS/test/testbmk.c" 1
 708 004a 83F31188 		msr     BASEPRI, r3
 709              	@ 0 "" 2
 710              	.LVL99:
 711              		.thumb
 712              	.LBE5:
 713              		.loc 1 471 0 discriminator 1
 714 004e 4FF0FF31 		mov	r1, #-1
 715 0052 1248     		ldr	r0, .L53+4
 716 0054 FFF7FEFF 		bl	chIQGetTimeout
 717              	.LVL100:
 718              		.loc 1 472 0 discriminator 1
 719 0058 4FF0FF31 		mov	r1, #-1
 720 005c 0F48     		ldr	r0, .L53+4
 721 005e FFF7FEFF 		bl	chIQGetTimeout
 722              	.LVL101:
 723              		.loc 1 473 0 discriminator 1
 724 0062 4FF0FF31 		mov	r1, #-1
 725 0066 0D48     		ldr	r0, .L53+4
 726 0068 FFF7FEFF 		bl	chIQGetTimeout
 727              	.LVL102:
 728              		.loc 1 474 0 discriminator 1
 729 006c 0B48     		ldr	r0, .L53+4
 730 006e 4FF0FF31 		mov	r1, #-1
 731 0072 FFF7FEFF 		bl	chIQGetTimeout
 732              	.LVL103:
 733              		.loc 1 479 0 discriminator 1
ARM GAS  C:\Users\DNIEL~1\AppData\Local\Temp\ccQGUL6C.s 			page 14


 734 0076 2B78     		ldrb	r3, [r5, #0]	@ zero_extendqisi2
 735              		.loc 1 475 0 discriminator 1
 736 0078 0134     		adds	r4, r4, #1
 737              	.LVL104:
 738              		.loc 1 479 0 discriminator 1
 739 007a 002B     		cmp	r3, #0
 740 007c D1D0     		beq	.L48
 741              		.loc 1 480 0
 742 007e 0948     		ldr	r0, .L53+12
 743 0080 FFF7FEFF 		bl	test_print
 744              	.LVL105:
 745              		.loc 1 481 0
 746 0084 A000     		lsls	r0, r4, #2
 747 0086 FFF7FEFF 		bl	test_printn
 748              	.LVL106:
 749              		.loc 1 482 0
 750 008a 0748     		ldr	r0, .L53+16
 751              		.loc 1 483 0
 752 008c 03B0     		add	sp, sp, #12
 753 008e BDE83040 		pop	{r4, r5, lr}
 754              		.loc 1 482 0
 755 0092 FFF7FEBF 		b	test_println
 756              	.LVL107:
 757              	.L54:
 758 0096 00BF     		.align	2
 759              	.L53:
 760 0098 00000000 		.word	.LANCHOR5
 761 009c 00000000 		.word	.LANCHOR4
 762 00a0 00000000 		.word	test_timer_done
 763 00a4 A8000000 		.word	.LC11
 764 00a8 E4000000 		.word	.LC15
 765              		.cfi_endproc
 766              	.LFE22:
 767              		.size	bmk9_execute, .-bmk9_execute
 768 00ac AFF30080 		.section	.text.bmk6_execute,"ax",%progbits
 769              		.align	2
 770              		.p2align 4,,15
 771              		.thumb
 772              		.thumb_func
 773              		.type	bmk6_execute, %function
 774              	bmk6_execute:
 775              	.LFB16:
 776              		.loc 1 304 0
 777              		.cfi_startproc
 778              		@ args = 0, pretend = 0, frame = 0
 779              		@ frame_needed = 0, uses_anonymous_args = 0
 780              	.LVL108:
 781 0000 2DE9F041 		push	{r4, r5, r6, r7, r8, lr}
 782              	.LCFI7:
 783              		.cfi_def_cfa_offset 24
 784              		.cfi_offset 4, -24
 785              		.cfi_offset 5, -20
 786              		.cfi_offset 6, -16
 787              		.cfi_offset 7, -12
 788              		.cfi_offset 8, -8
 789              		.cfi_offset 14, -4
 790              		.loc 1 308 0
ARM GAS  C:\Users\DNIEL~1\AppData\Local\Temp\ccQGUL6C.s 			page 15


 791 0004 144B     		ldr	r3, .L61
 792              		.loc 1 307 0
 793 0006 154A     		ldr	r2, .L61+4
 794              		.loc 1 308 0
 795 0008 9869     		ldr	r0, [r3, #24]
 796              		.loc 1 307 0
 797 000a D2F80080 		ldr	r8, [r2, #0]
 798              	.LVL109:
 799              		.loc 1 308 0
 800 000e 8668     		ldr	r6, [r0, #8]
 801 0010 134F     		ldr	r7, .L61+8
 802              		.loc 1 304 0
 803 0012 82B0     		sub	sp, sp, #8
 804              	.LCFI8:
 805              		.cfi_def_cfa_offset 32
 806              		.loc 1 309 0
 807 0014 FFF7FEFF 		bl	test_wait_tick
 808              	.LVL110:
 809              		.loc 1 310 0
 810 0018 4FF47A70 		mov	r0, #1000
 811 001c FFF7FEFF 		bl	test_start_timer
 812              	.LVL111:
 813              		.loc 1 306 0
 814 0020 0024     		movs	r4, #0
 815              		.loc 1 308 0
 816 0022 0136     		adds	r6, r6, #1
 817              	.LVL112:
 818              		.loc 1 312 0
 819 0024 2546     		mov	r5, r4
 820              	.LVL113:
 821              	.L56:
 822              		.loc 1 312 0 is_stmt 0 discriminator 1
 823 0026 4FF4A871 		mov	r1, #336
 824 002a 0095     		str	r5, [sp, #0]
 825 002c 4046     		mov	r0, r8
 826 002e 3246     		mov	r2, r6
 827 0030 0C4B     		ldr	r3, .L61+12
 828 0032 FFF7FEFF 		bl	chThdCreateStatic
 829              	.LVL114:
 830              		.loc 1 317 0 is_stmt 1 discriminator 1
 831 0036 3978     		ldrb	r1, [r7, #0]	@ zero_extendqisi2
 832              		.loc 1 313 0 discriminator 1
 833 0038 0134     		adds	r4, r4, #1
 834              	.LVL115:
 835              		.loc 1 317 0 discriminator 1
 836 003a 0029     		cmp	r1, #0
 837 003c F3D0     		beq	.L56
 838              		.loc 1 318 0
 839 003e 0A48     		ldr	r0, .L61+16
 840 0040 FFF7FEFF 		bl	test_print
 841              	.LVL116:
 842              		.loc 1 319 0
 843 0044 2046     		mov	r0, r4
 844 0046 FFF7FEFF 		bl	test_printn
 845              	.LVL117:
 846              		.loc 1 320 0
 847 004a 0848     		ldr	r0, .L61+20
ARM GAS  C:\Users\DNIEL~1\AppData\Local\Temp\ccQGUL6C.s 			page 16


 848              		.loc 1 321 0
 849 004c 02B0     		add	sp, sp, #8
 850 004e BDE8F041 		pop	{r4, r5, r6, r7, r8, lr}
 851              		.loc 1 320 0
 852 0052 FFF7FEBF 		b	test_println
 853              	.LVL118:
 854              	.L62:
 855 0056 00BF     		.align	2
 856              	.L61:
 857 0058 00000000 		.word	rlist
 858 005c 00000000 		.word	wa
 859 0060 00000000 		.word	test_timer_done
 860 0064 00000000 		.word	thread2
 861 0068 A8000000 		.word	.LC11
 862 006c F0000000 		.word	.LC16
 863              		.cfi_endproc
 864              	.LFE16:
 865              		.size	bmk6_execute, .-bmk6_execute
 866              		.section	.text.bmk8_execute,"ax",%progbits
 867              		.align	2
 868              		.p2align 4,,15
 869              		.thumb
 870              		.thumb_func
 871              		.type	bmk8_execute, %function
 872              	bmk8_execute:
 873              	.LFB21:
 874              		.loc 1 416 0
 875              		.cfi_startproc
 876              		@ args = 0, pretend = 0, frame = 8
 877              		@ frame_needed = 0, uses_anonymous_args = 0
 878 0000 2DE9F043 		push	{r4, r5, r6, r7, r8, r9, lr}
 879              	.LCFI9:
 880              		.cfi_def_cfa_offset 28
 881              		.cfi_offset 4, -28
 882              		.cfi_offset 5, -24
 883              		.cfi_offset 6, -20
 884              		.cfi_offset 7, -16
 885              		.cfi_offset 8, -12
 886              		.cfi_offset 9, -8
 887              		.cfi_offset 14, -4
 888              		.loc 1 422 0
 889 0004 40F20009 		movw	r9, #:lower16:rlist
 890              		.loc 1 416 0
 891 0008 85B0     		sub	sp, sp, #20
 892              	.LCFI10:
 893              		.cfi_def_cfa_offset 48
 894              		.loc 1 419 0
 895 000a 04AC     		add	r4, sp, #16
 896              		.loc 1 422 0
 897 000c C0F20009 		movt	r9, #:upper16:rlist
 898              		.loc 1 419 0
 899 0010 0023     		movs	r3, #0
 900 0012 44F8043D 		str	r3, [r4, #-4]!
 901              	.LVL119:
 902              		.loc 1 420 0
 903 0016 FFF7FEFF 		bl	test_wait_tick
 904              	.LVL120:
ARM GAS  C:\Users\DNIEL~1\AppData\Local\Temp\ccQGUL6C.s 			page 17


 905              		.loc 1 422 0
 906 001a D9F81810 		ldr	r1, [r9, #24]
 907 001e 40F20008 		movw	r8, #:lower16:wa
 908 0022 C0F20008 		movt	r8, #:upper16:wa
 909 0026 8A68     		ldr	r2, [r1, #8]
 910 0028 D8F80000 		ldr	r0, [r8, #0]
 911 002c 0094     		str	r4, [sp, #0]
 912 002e 40F20006 		movw	r6, #:lower16:thread8
 913 0032 C0F20006 		movt	r6, #:upper16:thread8
 914 0036 013A     		subs	r2, r2, #1
 915 0038 3346     		mov	r3, r6
 916 003a 4FF4A871 		mov	r1, #336
 917 003e FFF7FEFF 		bl	chThdCreateStatic
 918              	.LVL121:
 919              		.loc 1 423 0
 920 0042 D9F81850 		ldr	r5, [r9, #24]
 921 0046 D8F80470 		ldr	r7, [r8, #4]
 922 004a AB68     		ldr	r3, [r5, #8]
 923 004c 0094     		str	r4, [sp, #0]
 924              		.loc 1 422 0
 925 004e 40F20005 		movw	r5, #:lower16:threads
 926 0052 C0F20005 		movt	r5, #:upper16:threads
 927              		.loc 1 423 0
 928 0056 5A1E     		subs	r2, r3, #1
 929              		.loc 1 422 0
 930 0058 2860     		str	r0, [r5, #0]
 931              		.loc 1 423 0
 932 005a 3346     		mov	r3, r6
 933 005c 4FF4A871 		mov	r1, #336
 934 0060 3846     		mov	r0, r7
 935 0062 FFF7FEFF 		bl	chThdCreateStatic
 936              	.LVL122:
 937              		.loc 1 424 0
 938 0066 D9F81810 		ldr	r1, [r9, #24]
 939 006a D8F80870 		ldr	r7, [r8, #8]
 940 006e 8A68     		ldr	r2, [r1, #8]
 941              		.loc 1 423 0
 942 0070 6860     		str	r0, [r5, #4]
 943              		.loc 1 424 0
 944 0072 013A     		subs	r2, r2, #1
 945 0074 3346     		mov	r3, r6
 946 0076 4FF4A871 		mov	r1, #336
 947 007a 0094     		str	r4, [sp, #0]
 948 007c 3846     		mov	r0, r7
 949 007e FFF7FEFF 		bl	chThdCreateStatic
 950              	.LVL123:
 951              		.loc 1 425 0
 952 0082 D9F81830 		ldr	r3, [r9, #24]
 953 0086 D8F80C70 		ldr	r7, [r8, #12]
 954 008a 9A68     		ldr	r2, [r3, #8]
 955              		.loc 1 424 0
 956 008c A860     		str	r0, [r5, #8]
 957              		.loc 1 425 0
 958 008e 013A     		subs	r2, r2, #1
 959 0090 3346     		mov	r3, r6
 960 0092 4FF4A871 		mov	r1, #336
 961 0096 0094     		str	r4, [sp, #0]
ARM GAS  C:\Users\DNIEL~1\AppData\Local\Temp\ccQGUL6C.s 			page 18


 962 0098 3846     		mov	r0, r7
 963 009a FFF7FEFF 		bl	chThdCreateStatic
 964              	.LVL124:
 965              		.loc 1 426 0
 966 009e D9F81810 		ldr	r1, [r9, #24]
 967 00a2 D8F81070 		ldr	r7, [r8, #16]
 968 00a6 8B68     		ldr	r3, [r1, #8]
 969              		.loc 1 425 0
 970 00a8 E860     		str	r0, [r5, #12]
 971              		.loc 1 426 0
 972 00aa 5A1E     		subs	r2, r3, #1
 973 00ac 4FF4A871 		mov	r1, #336
 974 00b0 3346     		mov	r3, r6
 975 00b2 0094     		str	r4, [sp, #0]
 976 00b4 3846     		mov	r0, r7
 977 00b6 FFF7FEFF 		bl	chThdCreateStatic
 978              	.LVL125:
 979 00ba 2861     		str	r0, [r5, #16]
 980              		.loc 1 428 0
 981 00bc 4FF47A70 		mov	r0, #1000
 982 00c0 FFF7FEFF 		bl	chThdSleep
 983              	.LVL126:
 984              		.loc 1 429 0
 985 00c4 FFF7FEFF 		bl	test_terminate_threads
 986              	.LVL127:
 987              		.loc 1 430 0
 988 00c8 FFF7FEFF 		bl	test_wait_threads
 989              	.LVL128:
 990              		.loc 1 432 0
 991 00cc 40F20000 		movw	r0, #:lower16:.LC11
 992 00d0 C0F20000 		movt	r0, #:upper16:.LC11
 993 00d4 FFF7FEFF 		bl	test_print
 994              	.LVL129:
 995              		.loc 1 433 0
 996 00d8 0398     		ldr	r0, [sp, #12]
 997 00da FFF7FEFF 		bl	test_printn
 998              	.LVL130:
 999              		.loc 1 434 0
 1000 00de 40F20000 		movw	r0, #:lower16:.LC17
 1001 00e2 C0F20000 		movt	r0, #:upper16:.LC17
 1002 00e6 FFF7FEFF 		bl	test_println
 1003              	.LVL131:
 1004              		.loc 1 435 0
 1005 00ea 05B0     		add	sp, sp, #20
 1006 00ec BDE8F083 		pop	{r4, r5, r6, r7, r8, r9, pc}
 1007              		.cfi_endproc
 1008              	.LFE21:
 1009              		.size	bmk8_execute, .-bmk8_execute
 1010              		.section	.text.thread8,"ax",%progbits
 1011              		.align	2
 1012              		.p2align 4,,15
 1013              		.thumb
 1014              		.thumb_func
 1015              		.type	thread8, %function
 1016              	thread8:
 1017              	.LFB20:
 1018              		.loc 1 401 0
ARM GAS  C:\Users\DNIEL~1\AppData\Local\Temp\ccQGUL6C.s 			page 19


 1019              		.cfi_startproc
 1020              		@ args = 0, pretend = 0, frame = 0
 1021              		@ frame_needed = 0, uses_anonymous_args = 0
 1022              	.LVL132:
 1023 0000 38B5     		push	{r3, r4, r5, lr}
 1024              	.LCFI11:
 1025              		.cfi_def_cfa_offset 16
 1026              		.cfi_offset 3, -16
 1027              		.cfi_offset 4, -12
 1028              		.cfi_offset 5, -8
 1029              		.cfi_offset 14, -4
 1030 0002 0B4D     		ldr	r5, .L70
 1031              		.loc 1 401 0
 1032 0004 0446     		mov	r4, r0
 1033              	.LVL133:
 1034              	.L65:
 1035              		.loc 1 404 0 discriminator 1
 1036 0006 FFF7FEFF 		bl	chThdYield
 1037              	.LVL134:
 1038              		.loc 1 405 0 discriminator 1
 1039 000a FFF7FEFF 		bl	chThdYield
 1040              	.LVL135:
 1041              		.loc 1 406 0 discriminator 1
 1042 000e FFF7FEFF 		bl	chThdYield
 1043              	.LVL136:
 1044              		.loc 1 407 0 discriminator 1
 1045 0012 FFF7FEFF 		bl	chThdYield
 1046              	.LVL137:
 1047              		.loc 1 408 0 discriminator 1
 1048 0016 2268     		ldr	r2, [r4, #0]
 1049              		.loc 1 412 0 discriminator 1
 1050 0018 AB69     		ldr	r3, [r5, #24]
 1051              		.loc 1 408 0 discriminator 1
 1052 001a 101D     		adds	r0, r2, #4
 1053 001c 2060     		str	r0, [r4, #0]
 1054              		.loc 1 412 0 discriminator 1
 1055 001e 597F     		ldrb	r1, [r3, #29]	@ zero_extendqisi2
 1056 0020 01F00402 		and	r2, r1, #4
 1057 0024 D3B2     		uxtb	r3, r2
 1058 0026 002B     		cmp	r3, #0
 1059 0028 EDD0     		beq	.L65
 1060              		.loc 1 414 0
 1061 002a 0020     		movs	r0, #0
 1062 002c 38BD     		pop	{r3, r4, r5, pc}
 1063              	.L71:
 1064 002e 00BF     		.align	2
 1065              	.L70:
 1066 0030 00000000 		.word	rlist
 1067              		.cfi_endproc
 1068              	.LFE20:
 1069              		.size	thread8, .-thread8
 1070 0034 AFF30080 		.section	.text.bmk7_execute,"ax",%progbits
 1070      AFF30080 
 1070      AFF30080 
 1071              		.align	2
 1072              		.p2align 4,,15
 1073              		.thumb
ARM GAS  C:\Users\DNIEL~1\AppData\Local\Temp\ccQGUL6C.s 			page 20


 1074              		.thumb_func
 1075              		.type	bmk7_execute, %function
 1076              	bmk7_execute:
 1077              	.LFB19:
 1078              		.loc 1 354 0
 1079              		.cfi_startproc
 1080              		@ args = 0, pretend = 0, frame = 8
 1081              		@ frame_needed = 0, uses_anonymous_args = 0
 1082 0000 2DE9F042 		push	{r4, r5, r6, r7, r9, lr}
 1083              	.LCFI12:
 1084              		.cfi_def_cfa_offset 24
 1085              		.cfi_offset 4, -24
 1086              		.cfi_offset 5, -20
 1087              		.cfi_offset 6, -16
 1088              		.cfi_offset 7, -12
 1089              		.cfi_offset 9, -8
 1090              		.cfi_offset 14, -4
 1091              		.loc 1 357 0
 1092 0004 DFF80491 		ldr	r9, .L78+32
 1093 0008 384F     		ldr	r7, .L78
 1094 000a D9F81830 		ldr	r3, [r9, #24]
 1095 000e 3868     		ldr	r0, [r7, #0]
 1096 0010 9A68     		ldr	r2, [r3, #8]
 1097 0012 374B     		ldr	r3, .L78+4
 1098 0014 374E     		ldr	r6, .L78+8
 1099 0016 384D     		ldr	r5, .L78+12
 1100              		.loc 1 354 0
 1101 0018 84B0     		sub	sp, sp, #16
 1102              	.LCFI13:
 1103              		.cfi_def_cfa_offset 40
 1104              		.loc 1 357 0
 1105 001a 0024     		movs	r4, #0
 1106 001c 4FF4A871 		mov	r1, #336
 1107 0020 0532     		adds	r2, r2, #5
 1108 0022 0094     		str	r4, [sp, #0]
 1109 0024 FFF7FEFF 		bl	chThdCreateStatic
 1110              	.LVL138:
 1111              		.loc 1 358 0
 1112 0028 D9F81810 		ldr	r1, [r9, #24]
 1113 002c 7B68     		ldr	r3, [r7, #4]
 1114 002e 8A68     		ldr	r2, [r1, #8]
 1115 0030 0393     		str	r3, [sp, #12]
 1116              		.loc 1 357 0
 1117 0032 3060     		str	r0, [r6, #0]
 1118              		.loc 1 358 0
 1119 0034 4FF4A871 		mov	r1, #336
 1120 0038 0432     		adds	r2, r2, #4
 1121 003a 2D4B     		ldr	r3, .L78+4
 1122 003c 0094     		str	r4, [sp, #0]
 1123 003e 0398     		ldr	r0, [sp, #12]
 1124 0040 FFF7FEFF 		bl	chThdCreateStatic
 1125              	.LVL139:
 1126              		.loc 1 359 0
 1127 0044 D9F81810 		ldr	r1, [r9, #24]
 1128 0048 BB68     		ldr	r3, [r7, #8]
 1129 004a 8A68     		ldr	r2, [r1, #8]
 1130 004c 0393     		str	r3, [sp, #12]
ARM GAS  C:\Users\DNIEL~1\AppData\Local\Temp\ccQGUL6C.s 			page 21


 1131              		.loc 1 358 0
 1132 004e 7060     		str	r0, [r6, #4]
 1133              		.loc 1 359 0
 1134 0050 4FF4A871 		mov	r1, #336
 1135 0054 0332     		adds	r2, r2, #3
 1136 0056 264B     		ldr	r3, .L78+4
 1137 0058 0094     		str	r4, [sp, #0]
 1138 005a 0398     		ldr	r0, [sp, #12]
 1139 005c FFF7FEFF 		bl	chThdCreateStatic
 1140              	.LVL140:
 1141              		.loc 1 360 0
 1142 0060 D9F81810 		ldr	r1, [r9, #24]
 1143 0064 FB68     		ldr	r3, [r7, #12]
 1144 0066 8A68     		ldr	r2, [r1, #8]
 1145 0068 0393     		str	r3, [sp, #12]
 1146              		.loc 1 359 0
 1147 006a B060     		str	r0, [r6, #8]
 1148              		.loc 1 360 0
 1149 006c 4FF4A871 		mov	r1, #336
 1150 0070 0232     		adds	r2, r2, #2
 1151 0072 1F4B     		ldr	r3, .L78+4
 1152 0074 0094     		str	r4, [sp, #0]
 1153 0076 0398     		ldr	r0, [sp, #12]
 1154 0078 FFF7FEFF 		bl	chThdCreateStatic
 1155              	.LVL141:
 1156              		.loc 1 361 0
 1157 007c D9F81810 		ldr	r1, [r9, #24]
 1158 0080 3F69     		ldr	r7, [r7, #16]
 1159 0082 8A68     		ldr	r2, [r1, #8]
 1160 0084 1A4B     		ldr	r3, .L78+4
 1161              		.loc 1 360 0
 1162 0086 F060     		str	r0, [r6, #12]
 1163              		.loc 1 361 0
 1164 0088 4FF4A871 		mov	r1, #336
 1165 008c 0132     		adds	r2, r2, #1
 1166 008e 0094     		str	r4, [sp, #0]
 1167 0090 3846     		mov	r0, r7
 1168 0092 FFF7FEFF 		bl	chThdCreateStatic
 1169              	.LVL142:
 1170 0096 3061     		str	r0, [r6, #16]
 1171              	.LVL143:
 1172              		.loc 1 364 0
 1173 0098 FFF7FEFF 		bl	test_wait_tick
 1174              	.LVL144:
 1175              		.loc 1 365 0
 1176 009c 4FF47A70 		mov	r0, #1000
 1177 00a0 FFF7FEFF 		bl	test_start_timer
 1178              	.LVL145:
 1179              	.L73:
 1180              		.loc 1 367 0 discriminator 1
 1181 00a4 1548     		ldr	r0, .L78+16
 1182 00a6 0021     		movs	r1, #0
 1183 00a8 FFF7FEFF 		bl	chSemReset
 1184              	.LVL146:
 1185              		.loc 1 372 0 discriminator 1
 1186 00ac 2878     		ldrb	r0, [r5, #0]	@ zero_extendqisi2
 1187              		.loc 1 368 0 discriminator 1
ARM GAS  C:\Users\DNIEL~1\AppData\Local\Temp\ccQGUL6C.s 			page 22


 1188 00ae 0134     		adds	r4, r4, #1
 1189              	.LVL147:
 1190              		.loc 1 372 0 discriminator 1
 1191 00b0 0028     		cmp	r0, #0
 1192 00b2 F7D0     		beq	.L73
 1193              		.loc 1 373 0
 1194 00b4 FFF7FEFF 		bl	test_terminate_threads
 1195              	.LVL148:
 1196              		.loc 1 374 0
 1197 00b8 0021     		movs	r1, #0
 1198 00ba 1048     		ldr	r0, .L78+16
 1199 00bc FFF7FEFF 		bl	chSemReset
 1200              	.LVL149:
 1201              		.loc 1 375 0
 1202 00c0 FFF7FEFF 		bl	test_wait_threads
 1203              	.LVL150:
 1204              		.loc 1 377 0
 1205 00c4 0E48     		ldr	r0, .L78+20
 1206 00c6 FFF7FEFF 		bl	test_print
 1207              	.LVL151:
 1208              		.loc 1 378 0
 1209 00ca 2046     		mov	r0, r4
 1210 00cc FFF7FEFF 		bl	test_printn
 1211              	.LVL152:
 1212              		.loc 1 379 0
 1213 00d0 0C48     		ldr	r0, .L78+24
 1214 00d2 FFF7FEFF 		bl	test_print
 1215              	.LVL153:
 1216              		.loc 1 380 0
 1217 00d6 04EB4403 		add	r3, r4, r4, lsl #1
 1218 00da 5800     		lsls	r0, r3, #1
 1219 00dc FFF7FEFF 		bl	test_printn
 1220              	.LVL154:
 1221              		.loc 1 381 0
 1222 00e0 0948     		ldr	r0, .L78+28
 1223              		.loc 1 382 0
 1224 00e2 04B0     		add	sp, sp, #16
 1225 00e4 BDE8F042 		pop	{r4, r5, r6, r7, r9, lr}
 1226              		.loc 1 381 0
 1227 00e8 FFF7FEBF 		b	test_println
 1228              	.LVL155:
 1229              	.L79:
 1230              		.align	2
 1231              	.L78:
 1232 00ec 00000000 		.word	wa
 1233 00f0 00000000 		.word	thread3
 1234 00f4 00000000 		.word	threads
 1235 00f8 00000000 		.word	test_timer_done
 1236 00fc 00000000 		.word	.LANCHOR1
 1237 0100 A8000000 		.word	.LC11
 1238 0104 08010000 		.word	.LC18
 1239 0108 FC000000 		.word	.LC17
 1240 010c 00000000 		.word	rlist
 1241              		.cfi_endproc
 1242              	.LFE19:
 1243              		.size	bmk7_execute, .-bmk7_execute
 1244              		.section	.text.bmk5_execute,"ax",%progbits
ARM GAS  C:\Users\DNIEL~1\AppData\Local\Temp\ccQGUL6C.s 			page 23


 1245              		.align	2
 1246              		.p2align 4,,15
 1247              		.thumb
 1248              		.thumb_func
 1249              		.type	bmk5_execute, %function
 1250              	bmk5_execute:
 1251              	.LFB15:
 1252              		.loc 1 265 0
 1253              		.cfi_startproc
 1254              		@ args = 0, pretend = 0, frame = 0
 1255              		@ frame_needed = 0, uses_anonymous_args = 0
 1256              	.LVL156:
 1257 0000 2DE9F041 		push	{r4, r5, r6, r7, r8, lr}
 1258              	.LCFI14:
 1259              		.cfi_def_cfa_offset 24
 1260              		.cfi_offset 4, -24
 1261              		.cfi_offset 5, -20
 1262              		.cfi_offset 6, -16
 1263              		.cfi_offset 7, -12
 1264              		.cfi_offset 8, -8
 1265              		.cfi_offset 14, -4
 1266              		.loc 1 269 0
 1267 0004 154B     		ldr	r3, .L86
 1268              		.loc 1 268 0
 1269 0006 164A     		ldr	r2, .L86+4
 1270              		.loc 1 269 0
 1271 0008 9869     		ldr	r0, [r3, #24]
 1272              		.loc 1 268 0
 1273 000a D2F80080 		ldr	r8, [r2, #0]
 1274              	.LVL157:
 1275              		.loc 1 269 0
 1276 000e 8668     		ldr	r6, [r0, #8]
 1277 0010 144F     		ldr	r7, .L86+8
 1278              		.loc 1 265 0
 1279 0012 82B0     		sub	sp, sp, #8
 1280              	.LCFI15:
 1281              		.cfi_def_cfa_offset 32
 1282              		.loc 1 270 0
 1283 0014 FFF7FEFF 		bl	test_wait_tick
 1284              	.LVL158:
 1285              		.loc 1 271 0
 1286 0018 4FF47A70 		mov	r0, #1000
 1287 001c FFF7FEFF 		bl	test_start_timer
 1288              	.LVL159:
 1289              		.loc 1 267 0
 1290 0020 0024     		movs	r4, #0
 1291              		.loc 1 269 0
 1292 0022 013E     		subs	r6, r6, #1
 1293              	.LVL160:
 1294              		.loc 1 273 0
 1295 0024 2546     		mov	r5, r4
 1296              	.LVL161:
 1297              	.L81:
 1298              		.loc 1 273 0 is_stmt 0 discriminator 1
 1299 0026 4FF4A871 		mov	r1, #336
 1300 002a 3246     		mov	r2, r6
 1301 002c 0E4B     		ldr	r3, .L86+12
ARM GAS  C:\Users\DNIEL~1\AppData\Local\Temp\ccQGUL6C.s 			page 24


 1302 002e 0095     		str	r5, [sp, #0]
 1303 0030 4046     		mov	r0, r8
 1304 0032 FFF7FEFF 		bl	chThdCreateStatic
 1305              	.LVL162:
 1306 0036 FFF7FEFF 		bl	chThdWait
 1307              	.LVL163:
 1308              		.loc 1 278 0 is_stmt 1 discriminator 1
 1309 003a 3978     		ldrb	r1, [r7, #0]	@ zero_extendqisi2
 1310              		.loc 1 274 0 discriminator 1
 1311 003c 0134     		adds	r4, r4, #1
 1312              	.LVL164:
 1313              		.loc 1 278 0 discriminator 1
 1314 003e 0029     		cmp	r1, #0
 1315 0040 F1D0     		beq	.L81
 1316              		.loc 1 279 0
 1317 0042 0A48     		ldr	r0, .L86+16
 1318 0044 FFF7FEFF 		bl	test_print
 1319              	.LVL165:
 1320              		.loc 1 280 0
 1321 0048 2046     		mov	r0, r4
 1322 004a FFF7FEFF 		bl	test_printn
 1323              	.LVL166:
 1324              		.loc 1 281 0
 1325 004e 0848     		ldr	r0, .L86+20
 1326              		.loc 1 282 0
 1327 0050 02B0     		add	sp, sp, #8
 1328 0052 BDE8F041 		pop	{r4, r5, r6, r7, r8, lr}
 1329              		.loc 1 281 0
 1330 0056 FFF7FEBF 		b	test_println
 1331              	.LVL167:
 1332              	.L87:
 1333 005a 00BF     		.align	2
 1334              	.L86:
 1335 005c 00000000 		.word	rlist
 1336 0060 00000000 		.word	wa
 1337 0064 00000000 		.word	test_timer_done
 1338 0068 00000000 		.word	thread2
 1339 006c A8000000 		.word	.LC11
 1340 0070 F0000000 		.word	.LC16
 1341              		.cfi_endproc
 1342              	.LFE15:
 1343              		.size	bmk5_execute, .-bmk5_execute
 1344 0074 AFF30080 		.section	.text.bmk4_execute,"ax",%progbits
 1344      AFF30080 
 1344      AFF30080 
 1345              		.align	2
 1346              		.p2align 4,,15
 1347              		.thumb
 1348              		.thumb_func
 1349              		.type	bmk4_execute, %function
 1350              	bmk4_execute:
 1351              	.LFB14:
 1352              		.loc 1 217 0
 1353              		.cfi_startproc
 1354              		@ args = 0, pretend = 0, frame = 0
 1355              		@ frame_needed = 0, uses_anonymous_args = 0
 1356 0000 70B5     		push	{r4, r5, r6, lr}
ARM GAS  C:\Users\DNIEL~1\AppData\Local\Temp\ccQGUL6C.s 			page 25


 1357              	.LCFI16:
 1358              		.cfi_def_cfa_offset 16
 1359              		.cfi_offset 4, -16
 1360              		.cfi_offset 5, -12
 1361              		.cfi_offset 6, -8
 1362              		.cfi_offset 14, -4
 1363              		.loc 1 221 0
 1364 0002 254B     		ldr	r3, .L94
 1365 0004 254C     		ldr	r4, .L94+4
 1366 0006 9869     		ldr	r0, [r3, #24]
 1367 0008 254B     		ldr	r3, .L94+8
 1368 000a 8268     		ldr	r2, [r0, #8]
 1369 000c 2068     		ldr	r0, [r4, #0]
 1370 000e 254E     		ldr	r6, .L94+12
 1371              		.loc 1 217 0
 1372 0010 82B0     		sub	sp, sp, #8
 1373              	.LCFI17:
 1374              		.cfi_def_cfa_offset 24
 1375              		.loc 1 221 0
 1376 0012 0025     		movs	r5, #0
 1377 0014 4FF4A871 		mov	r1, #336
 1378 0018 0132     		adds	r2, r2, #1
 1379 001a 0095     		str	r5, [sp, #0]
 1380 001c FFF7FEFF 		bl	chThdCreateStatic
 1381              	.LVL168:
 1382 0020 2149     		ldr	r1, .L94+16
 1383 0022 0446     		mov	r4, r0
 1384 0024 0860     		str	r0, [r1, #0]
 1385              	.LVL169:
 1386              		.loc 1 223 0
 1387 0026 FFF7FEFF 		bl	test_wait_tick
 1388              	.LVL170:
 1389              		.loc 1 224 0
 1390 002a 4FF47A70 		mov	r0, #1000
 1391 002e FFF7FEFF 		bl	test_start_timer
 1392              	.LVL171:
 1393              	.L89:
 1394              	.LBB6:
 1395              		.loc 1 226 0 discriminator 1
 1396 0032 2023     		movs	r3, #32
 1397              	.LVL172:
 1398              	@ 226 "../../../ChibiOS/test/testbmk.c" 1
 1399 0034 83F31188 		msr     BASEPRI, r3
 1400              	@ 0 "" 2
 1401              	.LVL173:
 1402              		.thumb
 1403              	.LBE6:
 1404              		.loc 1 227 0 discriminator 1
 1405 0038 0021     		movs	r1, #0
 1406 003a 2046     		mov	r0, r4
 1407 003c FFF7FEFF 		bl	chSchWakeupS
 1408              	.LVL174:
 1409              		.loc 1 228 0 discriminator 1
 1410 0040 2046     		mov	r0, r4
 1411 0042 0021     		movs	r1, #0
 1412 0044 FFF7FEFF 		bl	chSchWakeupS
 1413              	.LVL175:
ARM GAS  C:\Users\DNIEL~1\AppData\Local\Temp\ccQGUL6C.s 			page 26


 1414              		.loc 1 229 0 discriminator 1
 1415 0048 2046     		mov	r0, r4
 1416 004a 0021     		movs	r1, #0
 1417 004c FFF7FEFF 		bl	chSchWakeupS
 1418              	.LVL176:
 1419              		.loc 1 230 0 discriminator 1
 1420 0050 2046     		mov	r0, r4
 1421 0052 0021     		movs	r1, #0
 1422 0054 FFF7FEFF 		bl	chSchWakeupS
 1423              	.LVL177:
 1424              	.LBB7:
 1425              		.loc 1 231 0 discriminator 1
 1426 0058 0023     		movs	r3, #0
 1427              	.LVL178:
 1428              	@ 231 "../../../ChibiOS/test/testbmk.c" 1
 1429 005a 83F31188 		msr     BASEPRI, r3
 1430              	@ 0 "" 2
 1431              	.LVL179:
 1432              		.thumb
 1433              	.LBE7:
 1434              		.loc 1 236 0 discriminator 1
 1435 005e 3378     		ldrb	r3, [r6, #0]	@ zero_extendqisi2
 1436              	.LVL180:
 1437              		.loc 1 232 0 discriminator 1
 1438 0060 0435     		adds	r5, r5, #4
 1439              	.LVL181:
 1440              		.loc 1 236 0 discriminator 1
 1441 0062 002B     		cmp	r3, #0
 1442 0064 E5D0     		beq	.L89
 1443              	.LBB8:
 1444              		.loc 1 237 0
 1445 0066 2023     		movs	r3, #32
 1446              	.LVL182:
 1447              	@ 237 "../../../ChibiOS/test/testbmk.c" 1
 1448 0068 83F31188 		msr     BASEPRI, r3
 1449              	@ 0 "" 2
 1450              	.LVL183:
 1451              		.thumb
 1452              	.LBE8:
 1453              		.loc 1 238 0
 1454 006c 4FF0FF31 		mov	r1, #-1
 1455 0070 2046     		mov	r0, r4
 1456 0072 FFF7FEFF 		bl	chSchWakeupS
 1457              	.LVL184:
 1458              	.LBB9:
 1459              		.loc 1 239 0
 1460 0076 0023     		movs	r3, #0
 1461              	.LVL185:
 1462              	@ 239 "../../../ChibiOS/test/testbmk.c" 1
 1463 0078 83F31188 		msr     BASEPRI, r3
 1464              	@ 0 "" 2
 1465              	.LVL186:
 1466              		.thumb
 1467              	.LBE9:
 1468              		.loc 1 241 0
 1469 007c FFF7FEFF 		bl	test_wait_threads
 1470              	.LVL187:
ARM GAS  C:\Users\DNIEL~1\AppData\Local\Temp\ccQGUL6C.s 			page 27


 1471              		.loc 1 242 0
 1472 0080 0A48     		ldr	r0, .L94+20
 1473 0082 FFF7FEFF 		bl	test_print
 1474              	.LVL188:
 1475              		.loc 1 243 0
 1476 0086 6800     		lsls	r0, r5, #1
 1477 0088 FFF7FEFF 		bl	test_printn
 1478              	.LVL189:
 1479              		.loc 1 244 0
 1480 008c 0848     		ldr	r0, .L94+24
 1481              		.loc 1 245 0
 1482 008e 02B0     		add	sp, sp, #8
 1483 0090 BDE87040 		pop	{r4, r5, r6, lr}
 1484              		.loc 1 244 0
 1485 0094 FFF7FEBF 		b	test_println
 1486              	.LVL190:
 1487              	.L95:
 1488              		.align	2
 1489              	.L94:
 1490 0098 00000000 		.word	rlist
 1491 009c 00000000 		.word	wa
 1492 00a0 00000000 		.word	thread4
 1493 00a4 00000000 		.word	test_timer_done
 1494 00a8 00000000 		.word	threads
 1495 00ac A8000000 		.word	.LC11
 1496 00b0 FC000000 		.word	.LC17
 1497              		.cfi_endproc
 1498              	.LFE14:
 1499              		.size	bmk4_execute, .-bmk4_execute
 1500 00b4 AFF30080 		.section	.text.msg_loop_test,"ax",%progbits
 1500      AFF30080 
 1500      AFF30080 
 1501              		.align	2
 1502              		.p2align 4,,15
 1503              		.thumb
 1504              		.thumb_func
 1505              		.type	msg_loop_test, %function
 1506              	msg_loop_test:
 1507              	.LFB8:
 1508              		.loc 1 80 0
 1509              		.cfi_startproc
 1510              		@ args = 0, pretend = 0, frame = 0
 1511              		@ frame_needed = 0, uses_anonymous_args = 0
 1512              	.LVL191:
 1513 0000 70B5     		push	{r4, r5, r6, lr}
 1514              	.LCFI18:
 1515              		.cfi_def_cfa_offset 16
 1516              		.cfi_offset 4, -16
 1517              		.cfi_offset 5, -12
 1518              		.cfi_offset 6, -8
 1519              		.cfi_offset 14, -4
 1520              		.loc 1 80 0
 1521 0002 0546     		mov	r5, r0
 1522              		.loc 1 83 0
 1523 0004 FFF7FEFF 		bl	test_wait_tick
 1524              	.LVL192:
 1525              		.loc 1 84 0
ARM GAS  C:\Users\DNIEL~1\AppData\Local\Temp\ccQGUL6C.s 			page 28


 1526 0008 4FF47A70 		mov	r0, #1000
 1527 000c FFF7FEFF 		bl	test_start_timer
 1528              	.LVL193:
 1529 0010 074E     		ldr	r6, .L102
 1530              		.loc 1 82 0
 1531 0012 0024     		movs	r4, #0
 1532              	.LVL194:
 1533              	.L97:
 1534              		.loc 1 86 0 discriminator 1
 1535 0014 2846     		mov	r0, r5
 1536 0016 0121     		movs	r1, #1
 1537 0018 FFF7FEFF 		bl	chMsgSend
 1538              	.LVL195:
 1539              		.loc 1 91 0 discriminator 1
 1540 001c 3378     		ldrb	r3, [r6, #0]	@ zero_extendqisi2
 1541              		.loc 1 87 0 discriminator 1
 1542 001e 0134     		adds	r4, r4, #1
 1543              	.LVL196:
 1544              		.loc 1 91 0 discriminator 1
 1545 0020 002B     		cmp	r3, #0
 1546 0022 F7D0     		beq	.L97
 1547              		.loc 1 92 0
 1548 0024 2846     		mov	r0, r5
 1549 0026 0021     		movs	r1, #0
 1550 0028 FFF7FEFF 		bl	chMsgSend
 1551              	.LVL197:
 1552              		.loc 1 94 0
 1553 002c 2046     		mov	r0, r4
 1554 002e 70BD     		pop	{r4, r5, r6, pc}
 1555              	.L103:
 1556              		.align	2
 1557              	.L102:
 1558 0030 00000000 		.word	test_timer_done
 1559              		.cfi_endproc
 1560              	.LFE8:
 1561              		.size	msg_loop_test, .-msg_loop_test
 1562 0034 AFF30080 		.section	.text.bmk3_execute,"ax",%progbits
 1562      AFF30080 
 1562      AFF30080 
 1563              		.align	2
 1564              		.p2align 4,,15
 1565              		.thumb
 1566              		.thumb_func
 1567              		.type	bmk3_execute, %function
 1568              	bmk3_execute:
 1569              	.LFB12:
 1570              		.loc 1 169 0
 1571              		.cfi_startproc
 1572              		@ args = 0, pretend = 0, frame = 0
 1573              		@ frame_needed = 0, uses_anonymous_args = 0
 1574 0000 2DE9F041 		push	{r4, r5, r6, r7, r8, lr}
 1575              	.LCFI19:
 1576              		.cfi_def_cfa_offset 24
 1577              		.cfi_offset 4, -24
 1578              		.cfi_offset 5, -20
 1579              		.cfi_offset 6, -16
 1580              		.cfi_offset 7, -12
ARM GAS  C:\Users\DNIEL~1\AppData\Local\Temp\ccQGUL6C.s 			page 29


 1581              		.cfi_offset 8, -8
 1582              		.cfi_offset 14, -4
 1583              		.loc 1 172 0
 1584 0004 40F20006 		movw	r6, #:lower16:rlist
 1585 0008 C0F20006 		movt	r6, #:upper16:rlist
 1586 000c 40F20005 		movw	r5, #:lower16:wa
 1587 0010 B369     		ldr	r3, [r6, #24]
 1588              		.loc 1 169 0
 1589 0012 82B0     		sub	sp, sp, #8
 1590              	.LCFI20:
 1591              		.cfi_def_cfa_offset 32
 1592              		.loc 1 172 0
 1593 0014 C0F20005 		movt	r5, #:upper16:wa
 1594 0018 9A68     		ldr	r2, [r3, #8]
 1595 001a 2868     		ldr	r0, [r5, #0]
 1596 001c 0027     		movs	r7, #0
 1597 001e 40F20003 		movw	r3, #:lower16:thread1
 1598 0022 0132     		adds	r2, r2, #1
 1599 0024 4FF4A871 		mov	r1, #336
 1600 0028 C0F20003 		movt	r3, #:upper16:thread1
 1601 002c 0097     		str	r7, [sp, #0]
 1602 002e FFF7FEFF 		bl	chThdCreateStatic
 1603              	.LVL198:
 1604              		.loc 1 173 0
 1605 0032 B169     		ldr	r1, [r6, #24]
 1606              		.loc 1 172 0
 1607 0034 40F20004 		movw	r4, #:lower16:threads
 1608 0038 C0F20004 		movt	r4, #:upper16:threads
 1609              		.loc 1 173 0
 1610 003c 8B68     		ldr	r3, [r1, #8]
 1611 003e 0097     		str	r7, [sp, #0]
 1612 0040 40F20008 		movw	r8, #:lower16:thread2
 1613 0044 C0F20008 		movt	r8, #:upper16:thread2
 1614 0048 9A1E     		subs	r2, r3, #2
 1615              		.loc 1 172 0
 1616 004a 2060     		str	r0, [r4, #0]
 1617              		.loc 1 173 0
 1618 004c 4346     		mov	r3, r8
 1619 004e 4FF4A871 		mov	r1, #336
 1620 0052 6868     		ldr	r0, [r5, #4]
 1621 0054 FFF7FEFF 		bl	chThdCreateStatic
 1622              	.LVL199:
 1623              		.loc 1 174 0
 1624 0058 B269     		ldr	r2, [r6, #24]
 1625 005a 9368     		ldr	r3, [r2, #8]
 1626              		.loc 1 173 0
 1627 005c 6060     		str	r0, [r4, #4]
 1628              		.loc 1 174 0
 1629 005e DA1E     		subs	r2, r3, #3
 1630 0060 4FF4A871 		mov	r1, #336
 1631 0064 4346     		mov	r3, r8
 1632 0066 0097     		str	r7, [sp, #0]
 1633 0068 A868     		ldr	r0, [r5, #8]
 1634 006a FFF7FEFF 		bl	chThdCreateStatic
 1635              	.LVL200:
 1636              		.loc 1 175 0
 1637 006e B169     		ldr	r1, [r6, #24]
ARM GAS  C:\Users\DNIEL~1\AppData\Local\Temp\ccQGUL6C.s 			page 30


 1638 0070 8A68     		ldr	r2, [r1, #8]
 1639              		.loc 1 174 0
 1640 0072 A060     		str	r0, [r4, #8]
 1641              		.loc 1 175 0
 1642 0074 043A     		subs	r2, r2, #4
 1643 0076 4346     		mov	r3, r8
 1644 0078 4FF4A871 		mov	r1, #336
 1645 007c 0097     		str	r7, [sp, #0]
 1646 007e E868     		ldr	r0, [r5, #12]
 1647 0080 FFF7FEFF 		bl	chThdCreateStatic
 1648              	.LVL201:
 1649              		.loc 1 176 0
 1650 0084 B369     		ldr	r3, [r6, #24]
 1651 0086 2D69     		ldr	r5, [r5, #16]
 1652 0088 9A68     		ldr	r2, [r3, #8]
 1653              		.loc 1 175 0
 1654 008a E060     		str	r0, [r4, #12]
 1655              		.loc 1 176 0
 1656 008c 4FF4A871 		mov	r1, #336
 1657 0090 053A     		subs	r2, r2, #5
 1658 0092 4346     		mov	r3, r8
 1659 0094 0097     		str	r7, [sp, #0]
 1660 0096 2846     		mov	r0, r5
 1661 0098 FFF7FEFF 		bl	chThdCreateStatic
 1662              	.LVL202:
 1663 009c 2061     		str	r0, [r4, #16]
 1664              		.loc 1 177 0
 1665 009e 2068     		ldr	r0, [r4, #0]
 1666 00a0 FFF7FEFF 		bl	msg_loop_test
 1667              	.LVL203:
 1668 00a4 0446     		mov	r4, r0
 1669              	.LVL204:
 1670              		.loc 1 178 0
 1671 00a6 FFF7FEFF 		bl	test_wait_threads
 1672              	.LVL205:
 1673              		.loc 1 179 0
 1674 00aa 40F20000 		movw	r0, #:lower16:.LC11
 1675 00ae C0F20000 		movt	r0, #:upper16:.LC11
 1676 00b2 FFF7FEFF 		bl	test_print
 1677              	.LVL206:
 1678              		.loc 1 180 0
 1679 00b6 2046     		mov	r0, r4
 1680 00b8 FFF7FEFF 		bl	test_printn
 1681              	.LVL207:
 1682              		.loc 1 181 0
 1683 00bc 40F20000 		movw	r0, #:lower16:.LC19
 1684 00c0 C0F20000 		movt	r0, #:upper16:.LC19
 1685 00c4 FFF7FEFF 		bl	test_print
 1686              	.LVL208:
 1687              		.loc 1 182 0
 1688 00c8 6000     		lsls	r0, r4, #1
 1689 00ca FFF7FEFF 		bl	test_printn
 1690              	.LVL209:
 1691              		.loc 1 183 0
 1692 00ce 40F20000 		movw	r0, #:lower16:.LC17
 1693 00d2 C0F20000 		movt	r0, #:upper16:.LC17
 1694              		.loc 1 184 0
ARM GAS  C:\Users\DNIEL~1\AppData\Local\Temp\ccQGUL6C.s 			page 31


 1695 00d6 02B0     		add	sp, sp, #8
 1696 00d8 BDE8F041 		pop	{r4, r5, r6, r7, r8, lr}
 1697              		.loc 1 183 0
 1698 00dc FFF7FEBF 		b	test_println
 1699              	.LVL210:
 1700              		.cfi_endproc
 1701              	.LFE12:
 1702              		.size	bmk3_execute, .-bmk3_execute
 1703              		.section	.text.bmk2_execute,"ax",%progbits
 1704              		.align	2
 1705              		.p2align 4,,15
 1706              		.thumb
 1707              		.thumb_func
 1708              		.type	bmk2_execute, %function
 1709              	bmk2_execute:
 1710              	.LFB10:
 1711              		.loc 1 134 0
 1712              		.cfi_startproc
 1713              		@ args = 0, pretend = 0, frame = 0
 1714              		@ frame_needed = 0, uses_anonymous_args = 0
 1715              		.loc 1 137 0
 1716 0000 40F20002 		movw	r2, #:lower16:rlist
 1717              		.loc 1 134 0
 1718 0004 10B5     		push	{r4, lr}
 1719              	.LCFI21:
 1720              		.cfi_def_cfa_offset 8
 1721              		.cfi_offset 4, -8
 1722              		.cfi_offset 14, -4
 1723              		.loc 1 137 0
 1724 0006 C0F20002 		movt	r2, #:upper16:rlist
 1725 000a 40F20003 		movw	r3, #:lower16:wa
 1726 000e 9169     		ldr	r1, [r2, #24]
 1727 0010 C0F20003 		movt	r3, #:upper16:wa
 1728 0014 8C68     		ldr	r4, [r1, #8]
 1729 0016 1868     		ldr	r0, [r3, #0]
 1730              		.loc 1 134 0
 1731 0018 82B0     		sub	sp, sp, #8
 1732              	.LCFI22:
 1733              		.cfi_def_cfa_offset 16
 1734              		.loc 1 137 0
 1735 001a 621C     		adds	r2, r4, #1
 1736 001c 40F20003 		movw	r3, #:lower16:thread1
 1737 0020 0024     		movs	r4, #0
 1738 0022 4FF4A871 		mov	r1, #336
 1739 0026 C0F20003 		movt	r3, #:upper16:thread1
 1740 002a 0094     		str	r4, [sp, #0]
 1741 002c FFF7FEFF 		bl	chThdCreateStatic
 1742              	.LVL211:
 1743 0030 40F20002 		movw	r2, #:lower16:threads
 1744 0034 C0F20002 		movt	r2, #:upper16:threads
 1745 0038 1060     		str	r0, [r2, #0]
 1746              		.loc 1 138 0
 1747 003a FFF7FEFF 		bl	msg_loop_test
 1748              	.LVL212:
 1749 003e 0446     		mov	r4, r0
 1750              	.LVL213:
 1751              		.loc 1 139 0
ARM GAS  C:\Users\DNIEL~1\AppData\Local\Temp\ccQGUL6C.s 			page 32


 1752 0040 FFF7FEFF 		bl	test_wait_threads
 1753              	.LVL214:
 1754              		.loc 1 140 0
 1755 0044 40F20000 		movw	r0, #:lower16:.LC11
 1756 0048 C0F20000 		movt	r0, #:upper16:.LC11
 1757 004c FFF7FEFF 		bl	test_print
 1758              	.LVL215:
 1759              		.loc 1 141 0
 1760 0050 2046     		mov	r0, r4
 1761 0052 FFF7FEFF 		bl	test_printn
 1762              	.LVL216:
 1763              		.loc 1 142 0
 1764 0056 40F20000 		movw	r0, #:lower16:.LC19
 1765 005a C0F20000 		movt	r0, #:upper16:.LC19
 1766 005e FFF7FEFF 		bl	test_print
 1767              	.LVL217:
 1768              		.loc 1 143 0
 1769 0062 6000     		lsls	r0, r4, #1
 1770 0064 FFF7FEFF 		bl	test_printn
 1771              	.LVL218:
 1772              		.loc 1 144 0
 1773 0068 40F20000 		movw	r0, #:lower16:.LC17
 1774 006c C0F20000 		movt	r0, #:upper16:.LC17
 1775              		.loc 1 145 0
 1776 0070 02B0     		add	sp, sp, #8
 1777 0072 BDE81040 		pop	{r4, lr}
 1778              		.loc 1 144 0
 1779 0076 FFF7FEBF 		b	test_println
 1780              	.LVL219:
 1781              		.cfi_endproc
 1782              	.LFE10:
 1783              		.size	bmk2_execute, .-bmk2_execute
 1784 007a 00BFAFF3 		.section	.text.bmk1_execute,"ax",%progbits
 1784      0080
 1785              		.align	2
 1786              		.p2align 4,,15
 1787              		.thumb
 1788              		.thumb_func
 1789              		.type	bmk1_execute, %function
 1790              	bmk1_execute:
 1791              	.LFB9:
 1792              		.loc 1 105 0
 1793              		.cfi_startproc
 1794              		@ args = 0, pretend = 0, frame = 0
 1795              		@ frame_needed = 0, uses_anonymous_args = 0
 1796              		.loc 1 108 0
 1797 0000 40F20002 		movw	r2, #:lower16:rlist
 1798              		.loc 1 105 0
 1799 0004 10B5     		push	{r4, lr}
 1800              	.LCFI23:
 1801              		.cfi_def_cfa_offset 8
 1802              		.cfi_offset 4, -8
 1803              		.cfi_offset 14, -4
 1804              		.loc 1 108 0
 1805 0006 C0F20002 		movt	r2, #:upper16:rlist
 1806 000a 40F20003 		movw	r3, #:lower16:wa
 1807 000e 9169     		ldr	r1, [r2, #24]
ARM GAS  C:\Users\DNIEL~1\AppData\Local\Temp\ccQGUL6C.s 			page 33


 1808 0010 C0F20003 		movt	r3, #:upper16:wa
 1809 0014 8C68     		ldr	r4, [r1, #8]
 1810 0016 1868     		ldr	r0, [r3, #0]
 1811              		.loc 1 105 0
 1812 0018 82B0     		sub	sp, sp, #8
 1813              	.LCFI24:
 1814              		.cfi_def_cfa_offset 16
 1815              		.loc 1 108 0
 1816 001a 621E     		subs	r2, r4, #1
 1817 001c 40F20003 		movw	r3, #:lower16:thread1
 1818 0020 0024     		movs	r4, #0
 1819 0022 4FF4A871 		mov	r1, #336
 1820 0026 C0F20003 		movt	r3, #:upper16:thread1
 1821 002a 0094     		str	r4, [sp, #0]
 1822 002c FFF7FEFF 		bl	chThdCreateStatic
 1823              	.LVL220:
 1824 0030 40F20002 		movw	r2, #:lower16:threads
 1825 0034 C0F20002 		movt	r2, #:upper16:threads
 1826 0038 1060     		str	r0, [r2, #0]
 1827              		.loc 1 109 0
 1828 003a FFF7FEFF 		bl	msg_loop_test
 1829              	.LVL221:
 1830 003e 0446     		mov	r4, r0
 1831              	.LVL222:
 1832              		.loc 1 110 0
 1833 0040 FFF7FEFF 		bl	test_wait_threads
 1834              	.LVL223:
 1835              		.loc 1 111 0
 1836 0044 40F20000 		movw	r0, #:lower16:.LC11
 1837 0048 C0F20000 		movt	r0, #:upper16:.LC11
 1838 004c FFF7FEFF 		bl	test_print
 1839              	.LVL224:
 1840              		.loc 1 112 0
 1841 0050 2046     		mov	r0, r4
 1842 0052 FFF7FEFF 		bl	test_printn
 1843              	.LVL225:
 1844              		.loc 1 113 0
 1845 0056 40F20000 		movw	r0, #:lower16:.LC19
 1846 005a C0F20000 		movt	r0, #:upper16:.LC19
 1847 005e FFF7FEFF 		bl	test_print
 1848              	.LVL226:
 1849              		.loc 1 114 0
 1850 0062 6000     		lsls	r0, r4, #1
 1851 0064 FFF7FEFF 		bl	test_printn
 1852              	.LVL227:
 1853              		.loc 1 115 0
 1854 0068 40F20000 		movw	r0, #:lower16:.LC17
 1855 006c C0F20000 		movt	r0, #:upper16:.LC17
 1856              		.loc 1 116 0
 1857 0070 02B0     		add	sp, sp, #8
 1858 0072 BDE81040 		pop	{r4, lr}
 1859              		.loc 1 115 0
 1860 0076 FFF7FEBF 		b	test_println
 1861              	.LVL228:
 1862              		.cfi_endproc
 1863              	.LFE9:
 1864              		.size	bmk1_execute, .-bmk1_execute
ARM GAS  C:\Users\DNIEL~1\AppData\Local\Temp\ccQGUL6C.s 			page 34


 1865 007a 00BFAFF3 		.section	.text.thread1,"ax",%progbits
 1865      0080
 1866              		.align	2
 1867              		.p2align 4,,15
 1868              		.thumb
 1869              		.thumb_func
 1870              		.type	thread1, %function
 1871              	thread1:
 1872              	.LFB7:
 1873              		.loc 1 64 0
 1874              		.cfi_startproc
 1875              		@ args = 0, pretend = 0, frame = 0
 1876              		@ frame_needed = 0, uses_anonymous_args = 0
 1877              	.LVL229:
 1878 0000 10B5     		push	{r4, lr}
 1879              	.LCFI25:
 1880              		.cfi_def_cfa_offset 8
 1881              		.cfi_offset 4, -8
 1882              		.cfi_offset 14, -4
 1883              	.LVL230:
 1884              	.L108:
 1885              		.loc 1 70 0 discriminator 1
 1886 0002 FFF7FEFF 		bl	chMsgWait
 1887              	.LVL231:
 1888              		.loc 1 71 0 discriminator 1
 1889 0006 446B     		ldr	r4, [r0, #52]
 1890              	.LVL232:
 1891              		.loc 1 72 0 discriminator 1
 1892 0008 2146     		mov	r1, r4
 1893 000a FFF7FEFF 		bl	chMsgRelease
 1894              	.LVL233:
 1895              		.loc 1 73 0 discriminator 1
 1896 000e 002C     		cmp	r4, #0
 1897 0010 F7D1     		bne	.L108
 1898              		.loc 1 75 0
 1899 0012 2046     		mov	r0, r4
 1900 0014 10BD     		pop	{r4, pc}
 1901              		.cfi_endproc
 1902              	.LFE7:
 1903              		.size	thread1, .-thread1
 1904 0016 00BFAFF3 		.section	.text.thread4,"ax",%progbits
 1904      0080AFF3 
 1904      0080
 1905              		.align	2
 1906              		.p2align 4,,15
 1907              		.global	thread4
 1908              		.thumb
 1909              		.thumb_func
 1910              		.type	thread4, %function
 1911              	thread4:
 1912              	.LFB13:
 1913              		.loc 1 203 0
 1914              		.cfi_startproc
 1915              		@ args = 0, pretend = 0, frame = 0
 1916              		@ frame_needed = 0, uses_anonymous_args = 0
 1917              	.LVL234:
 1918              		.loc 1 205 0
ARM GAS  C:\Users\DNIEL~1\AppData\Local\Temp\ccQGUL6C.s 			page 35


 1919 0000 084A     		ldr	r2, .L116
 1920              		.loc 1 203 0
 1921 0002 10B5     		push	{r4, lr}
 1922              	.LCFI26:
 1923              		.cfi_def_cfa_offset 8
 1924              		.cfi_offset 4, -8
 1925              		.cfi_offset 14, -4
 1926              	.LBB10:
 1927              		.loc 1 208 0
 1928 0004 2023     		movs	r3, #32
 1929              	.LVL235:
 1930              	.LBE10:
 1931              		.loc 1 205 0
 1932 0006 9469     		ldr	r4, [r2, #24]
 1933              	.LVL236:
 1934              	.LBB11:
 1935              		.loc 1 208 0
 1936              	@ 208 "../../../ChibiOS/test/testbmk.c" 1
 1937 0008 83F31188 		msr     BASEPRI, r3
 1938              	@ 0 "" 2
 1939              	.LVL237:
 1940              		.thumb
 1941              	.L111:
 1942              	.LBE11:
 1943              		.loc 1 210 0 discriminator 1
 1944 000c 0220     		movs	r0, #2
 1945 000e FFF7FEFF 		bl	chSchGoSleepS
 1946              	.LVL238:
 1947              		.loc 1 212 0 discriminator 1
 1948 0012 636A     		ldr	r3, [r4, #36]
 1949 0014 002B     		cmp	r3, #0
 1950 0016 F9D0     		beq	.L111
 1951              	.LBB12:
 1952              		.loc 1 213 0
 1953 0018 0023     		movs	r3, #0
 1954              	.LVL239:
 1955              	@ 213 "../../../ChibiOS/test/testbmk.c" 1
 1956 001a 83F31188 		msr     BASEPRI, r3
 1957              	@ 0 "" 2
 1958              	.LVL240:
 1959              		.thumb
 1960              	.LBE12:
 1961              		.loc 1 215 0
 1962 001e 1846     		mov	r0, r3
 1963 0020 10BD     		pop	{r4, pc}
 1964              	.L117:
 1965 0022 00BF     		.align	2
 1966              	.L116:
 1967 0024 00000000 		.word	rlist
 1968              		.cfi_endproc
 1969              	.LFE13:
 1970              		.size	thread4, .-thread4
 1971              		.global	patternbmk
 1972              		.global	testbmk13
 1973              		.global	testbmk12
 1974              		.global	testbmk11
 1975              		.global	testbmk10
ARM GAS  C:\Users\DNIEL~1\AppData\Local\Temp\ccQGUL6C.s 			page 36


 1976              		.global	testbmk9
 1977              		.global	testbmk8
 1978              		.global	testbmk7
 1979              		.global	testbmk6
 1980              		.global	testbmk5
 1981              		.global	testbmk4
 1982              		.global	testbmk3
 1983              		.global	testbmk2
 1984              		.global	testbmk1
 1985 0028 AFF30080 		.section	.rodata.testbmk8,"a",%progbits
 1985      AFF30080 
 1986              		.align	2
 1987              		.type	testbmk8, %object
 1988              		.size	testbmk8, 16
 1989              	testbmk8:
 1990 0000 D0010000 		.word	.LC25
 1991 0004 00000000 		.word	0
 1992 0008 00000000 		.word	0
 1993 000c 00000000 		.word	bmk8_execute
 1994              		.section	.bss.ib.4920,"aw",%nobits
 1995              		.align	2
 1996              		.set	.LANCHOR5,. + 0
 1997              		.type	ib.4920, %object
 1998              		.size	ib.4920, 16
 1999              	ib.4920:
 2000 0000 00000000 		.space	16
 2000      00000000 
 2000      00000000 
 2000      00000000 
 2001              		.section	.bss.iq.4921,"aw",%nobits
 2002              		.align	2
 2003              		.set	.LANCHOR4,. + 0
 2004              		.type	iq.4921, %object
 2005              		.size	iq.4921, 36
 2006              	iq.4921:
 2007 0000 00000000 		.space	36
 2007      00000000 
 2007      00000000 
 2007      00000000 
 2007      00000000 
 2008              		.section	.rodata.testbmk10,"a",%progbits
 2009              		.align	2
 2010              		.type	testbmk10, %object
 2011              		.size	testbmk10, 16
 2012              	testbmk10:
 2013 0000 88010000 		.word	.LC23
 2014 0004 00000000 		.word	0
 2015 0008 00000000 		.word	0
 2016 000c 00000000 		.word	bmk10_execute
 2017              		.section	.rodata.testbmk5,"a",%progbits
 2018              		.align	2
 2019              		.type	testbmk5, %object
 2020              		.size	testbmk5, 16
 2021              	testbmk5:
 2022 0000 44020000 		.word	.LC28
 2023 0004 00000000 		.word	0
 2024 0008 00000000 		.word	0
ARM GAS  C:\Users\DNIEL~1\AppData\Local\Temp\ccQGUL6C.s 			page 37


 2025 000c 00000000 		.word	bmk5_execute
 2026              		.section	.rodata.testbmk4,"a",%progbits
 2027              		.align	2
 2028              		.type	testbmk4, %object
 2029              		.size	testbmk4, 16
 2030              	testbmk4:
 2031 0000 64020000 		.word	.LC29
 2032 0004 00000000 		.word	0
 2033 0008 00000000 		.word	0
 2034 000c 00000000 		.word	bmk4_execute
 2035              		.section	.bss.mtx1,"aw",%nobits
 2036              		.align	2
 2037              		.set	.LANCHOR0,. + 0
 2038              		.type	mtx1, %object
 2039              		.size	mtx1, 16
 2040              	mtx1:
 2041 0000 00000000 		.space	16
 2041      00000000 
 2041      00000000 
 2041      00000000 
 2042              		.section	.rodata.testbmk3,"a",%progbits
 2043              		.align	2
 2044              		.type	testbmk3, %object
 2045              		.size	testbmk3, 16
 2046              	testbmk3:
 2047 0000 80020000 		.word	.LC30
 2048 0004 00000000 		.word	0
 2049 0008 00000000 		.word	0
 2050 000c 00000000 		.word	bmk3_execute
 2051              		.section	.rodata.testbmk13,"a",%progbits
 2052              		.align	2
 2053              		.type	testbmk13, %object
 2054              		.size	testbmk13, 16
 2055              	testbmk13:
 2056 0000 28010000 		.word	.LC20
 2057 0004 00000000 		.word	0
 2058 0008 00000000 		.word	0
 2059 000c 00000000 		.word	bmk13_execute
 2060              		.section	.rodata.testbmk2,"a",%progbits
 2061              		.align	2
 2062              		.type	testbmk2, %object
 2063              		.size	testbmk2, 16
 2064              	testbmk2:
 2065 0000 98020000 		.word	.LC31
 2066 0004 00000000 		.word	0
 2067 0008 00000000 		.word	0
 2068 000c 00000000 		.word	bmk2_execute
 2069              		.section	.rodata.str1.4,"aMS",%progbits,1
 2070              		.align	2
 2071              	.LC0:
 2072 0000 2D2D2D20 		.ascii	"--- System: \000"
 2072      53797374 
 2072      656D3A20 
 2072      00
 2073 000d 000000   		.space	3
 2074              	.LC1:
 2075 0010 20627974 		.ascii	" bytes\000"
ARM GAS  C:\Users\DNIEL~1\AppData\Local\Temp\ccQGUL6C.s 			page 38


 2075      657300
 2076 0017 00       		.space	1
 2077              	.LC2:
 2078 0018 2D2D2D20 		.ascii	"--- Thread: \000"
 2078      54687265 
 2078      61643A20 
 2078      00
 2079 0025 000000   		.space	3
 2080              	.LC3:
 2081 0028 2D2D2D20 		.ascii	"--- Timer : \000"
 2081      54696D65 
 2081      72203A20 
 2081      00
 2082 0035 000000   		.space	3
 2083              	.LC4:
 2084 0038 2D2D2D20 		.ascii	"--- Semaph: \000"
 2084      53656D61 
 2084      70683A20 
 2084      00
 2085 0045 000000   		.space	3
 2086              	.LC5:
 2087 0048 2D2D2D20 		.ascii	"--- EventS: \000"
 2087      4576656E 
 2087      74533A20 
 2087      00
 2088 0055 000000   		.space	3
 2089              	.LC6:
 2090 0058 2D2D2D20 		.ascii	"--- EventL: \000"
 2090      4576656E 
 2090      744C3A20 
 2090      00
 2091 0065 000000   		.space	3
 2092              	.LC7:
 2093 0068 2D2D2D20 		.ascii	"--- Mutex : \000"
 2093      4D757465 
 2093      78203A20 
 2093      00
 2094 0075 000000   		.space	3
 2095              	.LC8:
 2096 0078 2D2D2D20 		.ascii	"--- CondV.: \000"
 2096      436F6E64 
 2096      562E3A20 
 2096      00
 2097 0085 000000   		.space	3
 2098              	.LC9:
 2099 0088 2D2D2D20 		.ascii	"--- Queue : \000"
 2099      51756575 
 2099      65203A20 
 2099      00
 2100 0095 000000   		.space	3
 2101              	.LC10:
 2102 0098 2D2D2D20 		.ascii	"--- MailB.: \000"
 2102      4D61696C 
 2102      422E3A20 
 2102      00
 2103 00a5 000000   		.space	3
 2104              	.LC11:
ARM GAS  C:\Users\DNIEL~1\AppData\Local\Temp\ccQGUL6C.s 			page 39


 2105 00a8 2D2D2D20 		.ascii	"--- Score : \000"
 2105      53636F72 
 2105      65203A20 
 2105      00
 2106 00b5 000000   		.space	3
 2107              	.LC12:
 2108 00b8 206C6F63 		.ascii	" lock+unlock/S\000"
 2108      6B2B756E 
 2108      6C6F636B 
 2108      2F5300
 2109 00c7 00       		.space	1
 2110              	.LC13:
 2111 00c8 20776169 		.ascii	" wait+signal/S\000"
 2111      742B7369 
 2111      676E616C 
 2111      2F5300
 2112 00d7 00       		.space	1
 2113              	.LC14:
 2114 00d8 2074696D 		.ascii	" timers/S\000"
 2114      6572732F 
 2114      5300
 2115 00e2 0000     		.space	2
 2116              	.LC15:
 2117 00e4 20627974 		.ascii	" bytes/S\000"
 2117      65732F53 
 2117      00
 2118 00ed 000000   		.space	3
 2119              	.LC16:
 2120 00f0 20746872 		.ascii	" threads/S\000"
 2120      65616473 
 2120      2F5300
 2121 00fb 00       		.space	1
 2122              	.LC17:
 2123 00fc 20637478 		.ascii	" ctxswc/S\000"
 2123      7377632F 
 2123      5300
 2124 0106 0000     		.space	2
 2125              	.LC18:
 2126 0108 20726573 		.ascii	" reschedules/S, \000"
 2126      63686564 
 2126      756C6573 
 2126      2F532C20 
 2126      00
 2127 0119 000000   		.space	3
 2128              	.LC19:
 2129 011c 206D7367 		.ascii	" msgs/S, \000"
 2129      732F532C 
 2129      2000
 2130 0126 0000     		.space	2
 2131              	.LC20:
 2132 0128 42656E63 		.ascii	"Benchmark, RAM footprint\000"
 2132      686D6172 
 2132      6B2C2052 
 2132      414D2066 
 2132      6F6F7470 
 2133 0141 000000   		.space	3
 2134              	.LC21:
ARM GAS  C:\Users\DNIEL~1\AppData\Local\Temp\ccQGUL6C.s 			page 40


 2135 0144 42656E63 		.ascii	"Benchmark, mutexes lock/unlock\000"
 2135      686D6172 
 2135      6B2C206D 
 2135      75746578 
 2135      6573206C 
 2136 0163 00       		.space	1
 2137              	.LC22:
 2138 0164 42656E63 		.ascii	"Benchmark, semaphores wait/signal\000"
 2138      686D6172 
 2138      6B2C2073 
 2138      656D6170 
 2138      686F7265 
 2139 0186 0000     		.space	2
 2140              	.LC23:
 2141 0188 42656E63 		.ascii	"Benchmark, virtual timers set/reset\000"
 2141      686D6172 
 2141      6B2C2076 
 2141      69727475 
 2141      616C2074 
 2142              	.LC24:
 2143 01ac 42656E63 		.ascii	"Benchmark, I/O Queues throughput\000"
 2143      686D6172 
 2143      6B2C2049 
 2143      2F4F2051 
 2143      75657565 
 2144 01cd 000000   		.space	3
 2145              	.LC25:
 2146 01d0 42656E63 		.ascii	"Benchmark, round robin context switching\000"
 2146      686D6172 
 2146      6B2C2072 
 2146      6F756E64 
 2146      20726F62 
 2147 01f9 000000   		.space	3
 2148              	.LC26:
 2149 01fc 42656E63 		.ascii	"Benchmark, mass reschedule, 5 threads\000"
 2149      686D6172 
 2149      6B2C206D 
 2149      61737320 
 2149      72657363 
 2150 0222 0000     		.space	2
 2151              	.LC27:
 2152 0224 42656E63 		.ascii	"Benchmark, threads, create only\000"
 2152      686D6172 
 2152      6B2C2074 
 2152      68726561 
 2152      64732C20 
 2153              	.LC28:
 2154 0244 42656E63 		.ascii	"Benchmark, threads, full cycle\000"
 2154      686D6172 
 2154      6B2C2074 
 2154      68726561 
 2154      64732C20 
 2155 0263 00       		.space	1
 2156              	.LC29:
 2157 0264 42656E63 		.ascii	"Benchmark, context switch\000"
 2157      686D6172 
 2157      6B2C2063 
ARM GAS  C:\Users\DNIEL~1\AppData\Local\Temp\ccQGUL6C.s 			page 41


 2157      6F6E7465 
 2157      78742073 
 2158 027e 0000     		.space	2
 2159              	.LC30:
 2160 0280 42656E63 		.ascii	"Benchmark, messages #3\000"
 2160      686D6172 
 2160      6B2C206D 
 2160      65737361 
 2160      67657320 
 2161 0297 00       		.space	1
 2162              	.LC31:
 2163 0298 42656E63 		.ascii	"Benchmark, messages #2\000"
 2163      686D6172 
 2163      6B2C206D 
 2163      65737361 
 2163      67657320 
 2164 02af 00       		.space	1
 2165              	.LC32:
 2166 02b0 42656E63 		.ascii	"Benchmark, messages #1\000"
 2166      686D6172 
 2166      6B2C206D 
 2166      65737361 
 2166      67657320 
 2167 02c7 00       		.section	.rodata.testbmk9,"a",%progbits
 2168              		.align	2
 2169              		.type	testbmk9, %object
 2170              		.size	testbmk9, 16
 2171              	testbmk9:
 2172 0000 AC010000 		.word	.LC24
 2173 0004 00000000 		.word	0
 2174 0008 00000000 		.word	0
 2175 000c 00000000 		.word	bmk9_execute
 2176              		.section	.bss.sem1,"aw",%nobits
 2177              		.align	2
 2178              		.set	.LANCHOR1,. + 0
 2179              		.type	sem1, %object
 2180              		.size	sem1, 12
 2181              	sem1:
 2182 0000 00000000 		.space	12
 2182      00000000 
 2182      00000000 
 2183              		.section	.bss.vt2.4934,"aw",%nobits
 2184              		.align	2
 2185              		.set	.LANCHOR3,. + 0
 2186              		.type	vt2.4934, %object
 2187              		.size	vt2.4934, 20
 2188              	vt2.4934:
 2189 0000 00000000 		.space	20
 2189      00000000 
 2189      00000000 
 2189      00000000 
 2189      00000000 
 2190              		.section	.rodata.testbmk1,"a",%progbits
 2191              		.align	2
 2192              		.type	testbmk1, %object
 2193              		.size	testbmk1, 16
 2194              	testbmk1:
ARM GAS  C:\Users\DNIEL~1\AppData\Local\Temp\ccQGUL6C.s 			page 42


 2195 0000 B0020000 		.word	.LC32
 2196 0004 00000000 		.word	0
 2197 0008 00000000 		.word	0
 2198 000c 00000000 		.word	bmk1_execute
 2199              		.section	.rodata.testbmk11,"a",%progbits
 2200              		.align	2
 2201              		.type	testbmk11, %object
 2202              		.size	testbmk11, 16
 2203              	testbmk11:
 2204 0000 64010000 		.word	.LC22
 2205 0004 00000000 		.word	bmk11_setup
 2206 0008 00000000 		.word	0
 2207 000c 00000000 		.word	bmk11_execute
 2208              		.section	.rodata.testbmk12,"a",%progbits
 2209              		.align	2
 2210              		.type	testbmk12, %object
 2211              		.size	testbmk12, 16
 2212              	testbmk12:
 2213 0000 44010000 		.word	.LC21
 2214 0004 00000000 		.word	bmk12_setup
 2215 0008 00000000 		.word	0
 2216 000c 00000000 		.word	bmk12_execute
 2217              		.section	.rodata.patternbmk,"a",%progbits
 2218              		.align	2
 2219              		.type	patternbmk, %object
 2220              		.size	patternbmk, 56
 2221              	patternbmk:
 2222 0000 00000000 		.word	testbmk1
 2223 0004 00000000 		.word	testbmk2
 2224 0008 00000000 		.word	testbmk3
 2225 000c 00000000 		.word	testbmk4
 2226 0010 00000000 		.word	testbmk5
 2227 0014 00000000 		.word	testbmk6
 2228 0018 00000000 		.word	testbmk7
 2229 001c 00000000 		.word	testbmk8
 2230 0020 00000000 		.word	testbmk9
 2231 0024 00000000 		.word	testbmk10
 2232 0028 00000000 		.word	testbmk11
 2233 002c 00000000 		.word	testbmk12
 2234 0030 00000000 		.word	testbmk13
 2235 0034 00000000 		.word	0
 2236              		.section	.bss.vt1.4933,"aw",%nobits
 2237              		.align	2
 2238              		.set	.LANCHOR2,. + 0
 2239              		.type	vt1.4933, %object
 2240              		.size	vt1.4933, 20
 2241              	vt1.4933:
 2242 0000 00000000 		.space	20
 2242      00000000 
 2242      00000000 
 2242      00000000 
 2242      00000000 
 2243              		.section	.rodata.testbmk6,"a",%progbits
 2244              		.align	2
 2245              		.type	testbmk6, %object
 2246              		.size	testbmk6, 16
 2247              	testbmk6:
ARM GAS  C:\Users\DNIEL~1\AppData\Local\Temp\ccQGUL6C.s 			page 43


 2248 0000 24020000 		.word	.LC27
 2249 0004 00000000 		.word	0
 2250 0008 00000000 		.word	0
 2251 000c 00000000 		.word	bmk6_execute
 2252              		.section	.rodata.testbmk7,"a",%progbits
 2253              		.align	2
 2254              		.type	testbmk7, %object
 2255              		.size	testbmk7, 16
 2256              	testbmk7:
 2257 0000 FC010000 		.word	.LC26
 2258 0004 00000000 		.word	bmk7_setup
 2259 0008 00000000 		.word	0
 2260 000c 00000000 		.word	bmk7_execute
 2261              		.text
 2262              	.Letext0:
 2263              		.file 2 "c:\\chibistudio\\tools\\gnu tools arm embedded\\4.7 2014q2\\bin\\../lib/gcc/arm-none-eabi
 2264              		.file 3 "c:\\chibistudio\\tools\\gnu tools arm embedded\\4.7 2014q2\\bin\\../lib/gcc/arm-none-eabi
 2265              		.file 4 "../../../ChibiOS/os/ports/GCC/ARMCMx/chtypes.h"
 2266              		.file 5 "../../../ChibiOS/os/kernel/include/chlists.h"
 2267              		.file 6 "../../../ChibiOS/os/kernel/include/chthreads.h"
 2268              		.file 7 "../../../ChibiOS/os/ports/GCC/ARMCMx/chcore_v7m.h"
 2269              		.file 8 "../../../ChibiOS/os/kernel/include/chvt.h"
 2270              		.file 9 "../../../ChibiOS/os/kernel/include/chschd.h"
 2271              		.file 10 "../../../ChibiOS/os/kernel/include/chsem.h"
 2272              		.file 11 "../../../ChibiOS/os/kernel/include/chmtx.h"
 2273              		.file 12 "../../../ChibiOS/os/kernel/include/chqueues.h"
 2274              		.file 13 "../../../ChibiOS/test/test.h"
 2275              		.file 14 "../../../ChibiOS/os/kernel/include/chmsg.h"