ARM GAS  C:\Users\DNIEL~1\AppData\Local\Temp\ccSiEfiw.s 			page 1


   1              		.syntax unified
   2              		.cpu cortex-m4
   3              		.fpu softvfp
   4              		.eabi_attribute 20, 1
   5              		.eabi_attribute 21, 1
   6              		.eabi_attribute 23, 3
   7              		.eabi_attribute 24, 1
   8              		.eabi_attribute 25, 1
   9              		.eabi_attribute 26, 1
  10              		.eabi_attribute 30, 2
  11              		.eabi_attribute 34, 1
  12              		.eabi_attribute 18, 4
  13              		.thumb
  14              		.file	"tm.c"
  15              		.text
  16              	.Ltext0:
  17              		.cfi_sections	.debug_frame
  18              		.section	.text.tm_start,"ax",%progbits
  19              		.align	2
  20              		.p2align 4,,15
  21              		.thumb
  22              		.thumb_func
  23              		.type	tm_start, %function
  24              	tm_start:
  25              	.LFB118:
  26              		.file 1 "../../../ChibiOS/os/hal/src/tm.c"
  27              		.loc 1 62 0
  28              		.cfi_startproc
  29              		@ args = 0, pretend = 0, frame = 0
  30              		@ frame_needed = 0, uses_anonymous_args = 0
  31              		@ link register save eliminated.
  32              	.LVL0:
  33              		.loc 1 64 0
  34 0000 4FF48053 		mov	r3, #4096
  35 0004 CEF20003 		movt	r3, 57344
  36 0008 5968     		ldr	r1, [r3, #4]
  37 000a 8160     		str	r1, [r0, #8]
  38 000c 7047     		bx	lr
  39              		.cfi_endproc
  40              	.LFE118:
  41              		.size	tm_start, .-tm_start
  42              		.section	.text.tm_stop,"ax",%progbits
  43              		.align	2
  44              		.p2align 4,,15
  45              		.thumb
  46              		.thumb_func
  47              		.type	tm_stop, %function
  48              	tm_stop:
  49              	.LFB119:
  50              		.loc 1 74 0
  51              		.cfi_startproc
  52              		@ args = 0, pretend = 0, frame = 0
  53              		@ frame_needed = 0, uses_anonymous_args = 0
  54              		@ link register save eliminated.
  55              	.LVL1:
  56              		.loc 1 76 0
  57 0000 4FF48053 		mov	r3, #4096
ARM GAS  C:\Users\DNIEL~1\AppData\Local\Temp\ccSiEfiw.s 			page 2


  58 0004 CEF20003 		movt	r3, 57344
  59              		.loc 1 77 0
  60 0008 094A     		ldr	r2, .L7
  61 000a 8168     		ldr	r1, [r0, #8]
  62              		.loc 1 76 0
  63 000c 5B68     		ldr	r3, [r3, #4]
  64              	.LVL2:
  65              		.loc 1 74 0
  66 000e 10B4     		push	{r4}
  67              	.LCFI0:
  68              		.cfi_def_cfa_offset 4
  69              		.cfi_offset 4, -4
  70              		.loc 1 77 0
  71 0010 1468     		ldr	r4, [r2, #0]
  72              		.loc 1 78 0
  73 0012 C268     		ldr	r2, [r0, #12]
  74              		.loc 1 77 0
  75 0014 5B1A     		subs	r3, r3, r1
  76              	.LVL3:
  77 0016 191B     		subs	r1, r3, r4
  78              		.loc 1 78 0
  79 0018 9142     		cmp	r1, r2
  80              		.loc 1 77 0
  81 001a 8160     		str	r1, [r0, #8]
  82              		.loc 1 78 0
  83 001c 05D8     		bhi	.L6
  84              		.loc 1 80 0
  85 001e 0269     		ldr	r2, [r0, #16]
  86 0020 9142     		cmp	r1, r2
  87              		.loc 1 81 0
  88 0022 38BF     		it	cc
  89 0024 0161     		strcc	r1, [r0, #16]
  90              	.L2:
  91              		.loc 1 82 0
  92 0026 10BC     		pop	{r4}
  93 0028 7047     		bx	lr
  94              	.L6:
  95              		.loc 1 79 0
  96 002a C160     		str	r1, [r0, #12]
  97 002c FBE7     		b	.L2
  98              	.L8:
  99 002e 00BF     		.align	2
 100              	.L7:
 101 0030 00000000 		.word	.LANCHOR0
 102              		.cfi_endproc
 103              	.LFE119:
 104              		.size	tm_stop, .-tm_stop
 105 0034 AFF30080 		.section	.text.tmInit,"ax",%progbits
 105      AFF30080 
 105      AFF30080 
 106              		.align	2
 107              		.p2align 4,,15
 108              		.global	tmInit
 109              		.thumb
 110              		.thumb_func
 111              		.type	tmInit, %function
 112              	tmInit:
ARM GAS  C:\Users\DNIEL~1\AppData\Local\Temp\ccSiEfiw.s 			page 3


 113              	.LFB120:
 114              		.loc 1 97 0
 115              		.cfi_startproc
 116              		@ args = 0, pretend = 0, frame = 24
 117              		@ frame_needed = 0, uses_anonymous_args = 0
 118 0000 10B5     		push	{r4, lr}
 119              	.LCFI1:
 120              		.cfi_def_cfa_offset 8
 121              		.cfi_offset 4, -8
 122              		.cfi_offset 14, -4
 123              		.loc 1 103 0
 124 0002 40F20004 		movw	r4, #:lower16:.LANCHOR0
 125              		.loc 1 97 0
 126 0006 86B0     		sub	sp, sp, #24
 127              	.LCFI2:
 128              		.cfi_def_cfa_offset 32
 129              		.loc 1 103 0
 130 0008 C0F20004 		movt	r4, #:upper16:.LANCHOR0
 131              	.LBB8:
 132              	.LBB9:
 133              		.loc 1 64 0
 134 000c 4FF48053 		mov	r3, #4096
 135              	.LBE9:
 136              	.LBE8:
 137              		.loc 1 103 0
 138 0010 0022     		movs	r2, #0
 139              	.LBB13:
 140              	.LBB10:
 141              		.loc 1 64 0
 142 0012 CEF20003 		movt	r3, 57344
 143              	.LBE10:
 144              	.LBE13:
 145              	.LBB14:
 146              	.LBB15:
 147              		.loc 1 123 0
 148 0016 4FF0FF30 		mov	r0, #-1
 149              	.LBE15:
 150              	.LBE14:
 151              		.loc 1 103 0
 152 001a 2260     		str	r2, [r4, #0]
 153              	.LVL4:
 154              	.LBB19:
 155              	.LBB16:
 156              		.loc 1 122 0
 157 001c 0492     		str	r2, [sp, #16]
 158              		.loc 1 123 0
 159 001e 0590     		str	r0, [sp, #20]
 160              	.LVL5:
 161              	.LBE16:
 162              	.LBE19:
 163              	.LBB20:
 164              	.LBB11:
 165              		.loc 1 64 0
 166 0020 5968     		ldr	r1, [r3, #4]
 167              	.LBE11:
 168              	.LBE20:
 169              	.LBB21:
ARM GAS  C:\Users\DNIEL~1\AppData\Local\Temp\ccSiEfiw.s 			page 4


 170              	.LBB17:
 171              		.loc 1 120 0
 172 0022 40F20002 		movw	r2, #:lower16:tm_stop
 173              		.loc 1 119 0
 174 0026 40F20003 		movw	r3, #:lower16:tm_start
 175              	.LBE17:
 176              	.LBE21:
 177              		.loc 1 106 0
 178 002a 01A8     		add	r0, sp, #4
 179              	.LVL6:
 180              	.LBB22:
 181              	.LBB18:
 182              		.loc 1 119 0
 183 002c C0F20003 		movt	r3, #:upper16:tm_start
 184              		.loc 1 120 0
 185 0030 C0F20002 		movt	r2, #:upper16:tm_stop
 186              		.loc 1 119 0
 187 0034 0193     		str	r3, [sp, #4]
 188              		.loc 1 120 0
 189 0036 0292     		str	r2, [sp, #8]
 190              	.LBE18:
 191              	.LBE22:
 192              	.LBB23:
 193              	.LBB12:
 194              		.loc 1 64 0
 195 0038 0391     		str	r1, [sp, #12]
 196              	.LBE12:
 197              	.LBE23:
 198              		.loc 1 106 0
 199 003a FFF7FEFF 		bl	tm_stop
 200              	.LVL7:
 201              		.loc 1 107 0
 202 003e 0398     		ldr	r0, [sp, #12]
 203 0040 2060     		str	r0, [r4, #0]
 204              		.loc 1 108 0
 205 0042 06B0     		add	sp, sp, #24
 206 0044 10BD     		pop	{r4, pc}
 207              		.cfi_endproc
 208              	.LFE120:
 209              		.size	tmInit, .-tmInit
 210 0046 00BFAFF3 		.section	.text.tmObjectInit,"ax",%progbits
 210      0080AFF3 
 210      0080
 211              		.align	2
 212              		.p2align 4,,15
 213              		.global	tmObjectInit
 214              		.thumb
 215              		.thumb_func
 216              		.type	tmObjectInit, %function
 217              	tmObjectInit:
 218              	.LFB121:
 219              		.loc 1 117 0
 220              		.cfi_startproc
 221              		@ args = 0, pretend = 0, frame = 0
 222              		@ frame_needed = 0, uses_anonymous_args = 0
 223              		@ link register save eliminated.
 224              	.LVL8:
ARM GAS  C:\Users\DNIEL~1\AppData\Local\Temp\ccSiEfiw.s 			page 5


 225              		.loc 1 121 0
 226 0000 0023     		movs	r3, #0
 227              		.loc 1 119 0
 228 0002 40F20002 		movw	r2, #:lower16:tm_start
 229              		.loc 1 120 0
 230 0006 40F20001 		movw	r1, #:lower16:tm_stop
 231              		.loc 1 119 0
 232 000a C0F20002 		movt	r2, #:upper16:tm_start
 233              		.loc 1 120 0
 234 000e C0F20001 		movt	r1, #:upper16:tm_stop
 235              		.loc 1 121 0
 236 0012 8360     		str	r3, [r0, #8]
 237              		.loc 1 122 0
 238 0014 C360     		str	r3, [r0, #12]
 239              		.loc 1 123 0
 240 0016 4FF0FF33 		mov	r3, #-1
 241              		.loc 1 119 0
 242 001a 0260     		str	r2, [r0, #0]
 243              		.loc 1 120 0
 244 001c 4160     		str	r1, [r0, #4]
 245              		.loc 1 123 0
 246 001e 0361     		str	r3, [r0, #16]
 247 0020 7047     		bx	lr
 248              		.cfi_endproc
 249              	.LFE121:
 250              		.size	tmObjectInit, .-tmObjectInit
 251 0022 00BFAFF3 		.section	.bss.measurement_offset,"aw",%nobits
 251      0080AFF3 
 251      0080AFF3 
 251      0080
 252              		.align	2
 253              		.set	.LANCHOR0,. + 0
 254              		.type	measurement_offset, %object
 255              		.size	measurement_offset, 4
 256              	measurement_offset:
 257 0000 00000000 		.space	4
 258              		.text
 259              	.Letext0:
 260              		.file 2 "c:\\chibistudio\\tools\\gnu tools arm embedded\\4.7 2014q2\\bin\\../lib/gcc/arm-none-eabi
 261              		.file 3 "../../../ChibiOS/os/ports/common/ARMCMx/nvic.h"
 262              		.file 4 "../../../ChibiOS/os/hal/platforms/STM32F4xx/hal_lld.h"
 263              		.file 5 "../../../ChibiOS/os/hal/include/tm.h"
 264              		.file 6 "../../../ChibiOS/os/ports/common/ARMCMx/CMSIS/include/core_cm4.h"
 265              		.section	.debug_info,"",%progbits
 266              	.Ldebug_info0:
 267 0000 E8020000 		.4byte	0x2e8
 268 0004 0200     		.2byte	0x2
 269 0006 00000000 		.4byte	.Ldebug_abbrev0
 270 000a 04       		.byte	0x4
 271 000b 01       		.uleb128 0x1
 272 000c CD000000 		.4byte	.LASF31
 273 0010 01       		.byte	0x1
 274 0011 7C010000 		.4byte	.LASF32
 275 0015 13000000 		.4byte	.LASF33
 276 0019 50000000 		.4byte	.Ldebug_ranges0+0x50
 277 001d 00000000 		.4byte	0
 278 0021 00000000 		.4byte	0
ARM GAS  C:\Users\DNIEL~1\AppData\Local\Temp\ccSiEfiw.s 			page 6


 279 0025 00000000 		.4byte	.Ldebug_line0
 280 0029 02       		.uleb128 0x2
 281 002a 04       		.byte	0x4
 282 002b 05       		.byte	0x5
 283 002c 696E7400 		.ascii	"int\000"
 284 0030 03       		.uleb128 0x3
 285 0031 04       		.byte	0x4
 286 0032 07       		.byte	0x7
 287 0033 23010000 		.4byte	.LASF0
 288 0037 03       		.uleb128 0x3
 289 0038 01       		.byte	0x1
 290 0039 06       		.byte	0x6
 291 003a D9010000 		.4byte	.LASF1
 292 003e 03       		.uleb128 0x3
 293 003f 01       		.byte	0x1
 294 0040 08       		.byte	0x8
 295 0041 63000000 		.4byte	.LASF2
 296 0045 03       		.uleb128 0x3
 297 0046 02       		.byte	0x2
 298 0047 05       		.byte	0x5
 299 0048 B0010000 		.4byte	.LASF3
 300 004c 03       		.uleb128 0x3
 301 004d 02       		.byte	0x2
 302 004e 07       		.byte	0x7
 303 004f 9E000000 		.4byte	.LASF4
 304 0053 04       		.uleb128 0x4
 305 0054 55010000 		.4byte	.LASF6
 306 0058 02       		.byte	0x2
 307 0059 4F       		.byte	0x4f
 308 005a 5E000000 		.4byte	0x5e
 309 005e 03       		.uleb128 0x3
 310 005f 04       		.byte	0x4
 311 0060 05       		.byte	0x5
 312 0061 D0010000 		.4byte	.LASF5
 313 0065 04       		.uleb128 0x4
 314 0066 C7010000 		.4byte	.LASF7
 315 006a 02       		.byte	0x2
 316 006b 50       		.byte	0x50
 317 006c 70000000 		.4byte	0x70
 318 0070 03       		.uleb128 0x3
 319 0071 04       		.byte	0x4
 320 0072 07       		.byte	0x7
 321 0073 7F000000 		.4byte	.LASF8
 322 0077 03       		.uleb128 0x3
 323 0078 08       		.byte	0x8
 324 0079 05       		.byte	0x5
 325 007a 66010000 		.4byte	.LASF9
 326 007e 03       		.uleb128 0x3
 327 007f 08       		.byte	0x8
 328 0080 07       		.byte	0x7
 329 0081 4C000000 		.4byte	.LASF10
 330 0085 04       		.uleb128 0x4
 331 0086 74010000 		.4byte	.LASF11
 332 008a 03       		.byte	0x3
 333 008b 33       		.byte	0x33
 334 008c 90000000 		.4byte	0x90
 335 0090 05       		.uleb128 0x5
ARM GAS  C:\Users\DNIEL~1\AppData\Local\Temp\ccSiEfiw.s 			page 7


 336 0091 65000000 		.4byte	0x65
 337 0095 03       		.uleb128 0x3
 338 0096 04       		.byte	0x4
 339 0097 07       		.byte	0x7
 340 0098 5D010000 		.4byte	.LASF12
 341 009c 06       		.uleb128 0x6
 342 009d 20       		.byte	0x20
 343 009e 03       		.byte	0x3
 344 009f FF       		.byte	0xff
 345 00a0 1D010000 		.4byte	0x11d
 346 00a4 07       		.uleb128 0x7
 347 00a5 49010000 		.4byte	.LASF13
 348 00a9 03       		.byte	0x3
 349 00aa 0001     		.2byte	0x100
 350 00ac 85000000 		.4byte	0x85
 351 00b0 02       		.byte	0x2
 352 00b1 23       		.byte	0x23
 353 00b2 00       		.uleb128 0
 354 00b3 07       		.uleb128 0x7
 355 00b4 71000000 		.4byte	.LASF14
 356 00b8 03       		.byte	0x3
 357 00b9 0101     		.2byte	0x101
 358 00bb 85000000 		.4byte	0x85
 359 00bf 02       		.byte	0x2
 360 00c0 23       		.byte	0x23
 361 00c1 04       		.uleb128 0x4
 362 00c2 07       		.uleb128 0x7
 363 00c3 B1000000 		.4byte	.LASF15
 364 00c7 03       		.byte	0x3
 365 00c8 0201     		.2byte	0x102
 366 00ca 85000000 		.4byte	0x85
 367 00ce 02       		.byte	0x2
 368 00cf 23       		.byte	0x23
 369 00d0 08       		.uleb128 0x8
 370 00d1 07       		.uleb128 0x7
 371 00d2 4E010000 		.4byte	.LASF16
 372 00d6 03       		.byte	0x3
 373 00d7 0301     		.2byte	0x103
 374 00d9 85000000 		.4byte	0x85
 375 00dd 02       		.byte	0x2
 376 00de 23       		.byte	0x23
 377 00df 0C       		.uleb128 0xc
 378 00e0 07       		.uleb128 0x7
 379 00e1 3E000000 		.4byte	.LASF17
 380 00e5 03       		.byte	0x3
 381 00e6 0401     		.2byte	0x104
 382 00e8 85000000 		.4byte	0x85
 383 00ec 02       		.byte	0x2
 384 00ed 23       		.byte	0x23
 385 00ee 10       		.uleb128 0x10
 386 00ef 07       		.uleb128 0x7
 387 00f0 1C010000 		.4byte	.LASF18
 388 00f4 03       		.byte	0x3
 389 00f5 0501     		.2byte	0x105
 390 00f7 85000000 		.4byte	0x85
 391 00fb 02       		.byte	0x2
 392 00fc 23       		.byte	0x23
ARM GAS  C:\Users\DNIEL~1\AppData\Local\Temp\ccSiEfiw.s 			page 8


 393 00fd 14       		.uleb128 0x14
 394 00fe 07       		.uleb128 0x7
 395 00ff C5000000 		.4byte	.LASF19
 396 0103 03       		.byte	0x3
 397 0104 0601     		.2byte	0x106
 398 0106 85000000 		.4byte	0x85
 399 010a 02       		.byte	0x2
 400 010b 23       		.byte	0x23
 401 010c 18       		.uleb128 0x18
 402 010d 07       		.uleb128 0x7
 403 010e 00000000 		.4byte	.LASF20
 404 0112 03       		.byte	0x3
 405 0113 0701     		.2byte	0x107
 406 0115 85000000 		.4byte	0x85
 407 0119 02       		.byte	0x2
 408 011a 23       		.byte	0x23
 409 011b 1C       		.uleb128 0x1c
 410 011c 00       		.byte	0
 411 011d 08       		.uleb128 0x8
 412 011e BA010000 		.4byte	.LASF21
 413 0122 03       		.byte	0x3
 414 0123 0801     		.2byte	0x108
 415 0125 9C000000 		.4byte	0x9c
 416 0129 03       		.uleb128 0x3
 417 012a 01       		.byte	0x1
 418 012b 08       		.byte	0x8
 419 012c 3B010000 		.4byte	.LASF22
 420 0130 05       		.uleb128 0x5
 421 0131 53000000 		.4byte	0x53
 422 0135 08       		.uleb128 0x8
 423 0136 30010000 		.4byte	.LASF23
 424 013a 04       		.byte	0x4
 425 013b EB05     		.2byte	0x5eb
 426 013d 65000000 		.4byte	0x65
 427 0141 04       		.uleb128 0x4
 428 0142 E5010000 		.4byte	.LASF24
 429 0146 05       		.byte	0x5
 430 0147 3E       		.byte	0x3e
 431 0148 4C010000 		.4byte	0x14c
 432 014c 09       		.uleb128 0x9
 433 014d E5010000 		.4byte	.LASF24
 434 0151 14       		.byte	0x14
 435 0152 05       		.byte	0x5
 436 0153 43       		.byte	0x43
 437 0154 9F010000 		.4byte	0x19f
 438 0158 0A       		.uleb128 0xa
 439 0159 0D000000 		.4byte	.LASF25
 440 015d 05       		.byte	0x5
 441 015e 44       		.byte	0x44
 442 015f B1010000 		.4byte	0x1b1
 443 0163 02       		.byte	0x2
 444 0164 23       		.byte	0x23
 445 0165 00       		.uleb128 0
 446 0166 0A       		.uleb128 0xa
 447 0167 47000000 		.4byte	.LASF26
 448 016b 05       		.byte	0x5
 449 016c 45       		.byte	0x45
ARM GAS  C:\Users\DNIEL~1\AppData\Local\Temp\ccSiEfiw.s 			page 9


 450 016d B1010000 		.4byte	0x1b1
 451 0171 02       		.byte	0x2
 452 0172 23       		.byte	0x23
 453 0173 04       		.uleb128 0x4
 454 0174 0A       		.uleb128 0xa
 455 0175 F5010000 		.4byte	.LASF27
 456 0179 05       		.byte	0x5
 457 017a 46       		.byte	0x46
 458 017b 35010000 		.4byte	0x135
 459 017f 02       		.byte	0x2
 460 0180 23       		.byte	0x23
 461 0181 08       		.uleb128 0x8
 462 0182 0A       		.uleb128 0xa
 463 0183 16010000 		.4byte	.LASF28
 464 0187 05       		.byte	0x5
 465 0188 47       		.byte	0x47
 466 0189 35010000 		.4byte	0x135
 467 018d 02       		.byte	0x2
 468 018e 23       		.byte	0x23
 469 018f 0C       		.uleb128 0xc
 470 0190 0A       		.uleb128 0xa
 471 0191 C2010000 		.4byte	.LASF29
 472 0195 05       		.byte	0x5
 473 0196 48       		.byte	0x48
 474 0197 35010000 		.4byte	0x135
 475 019b 02       		.byte	0x2
 476 019c 23       		.byte	0x23
 477 019d 10       		.uleb128 0x10
 478 019e 00       		.byte	0
 479 019f 0B       		.uleb128 0xb
 480 01a0 01       		.byte	0x1
 481 01a1 AB010000 		.4byte	0x1ab
 482 01a5 0C       		.uleb128 0xc
 483 01a6 AB010000 		.4byte	0x1ab
 484 01aa 00       		.byte	0
 485 01ab 0D       		.uleb128 0xd
 486 01ac 04       		.byte	0x4
 487 01ad 41010000 		.4byte	0x141
 488 01b1 0D       		.uleb128 0xd
 489 01b2 04       		.byte	0x4
 490 01b3 9F010000 		.4byte	0x19f
 491 01b7 0E       		.uleb128 0xe
 492 01b8 01       		.byte	0x1
 493 01b9 91000000 		.4byte	.LASF34
 494 01bd 01       		.byte	0x1
 495 01be 75       		.byte	0x75
 496 01bf 01       		.byte	0x1
 497 01c0 01       		.byte	0x1
 498 01c1 D1010000 		.4byte	0x1d1
 499 01c5 0F       		.uleb128 0xf
 500 01c6 746D7000 		.ascii	"tmp\000"
 501 01ca 01       		.byte	0x1
 502 01cb 75       		.byte	0x75
 503 01cc AB010000 		.4byte	0x1ab
 504 01d0 00       		.byte	0
 505 01d1 10       		.uleb128 0x10
 506 01d2 40010000 		.4byte	.LASF35
ARM GAS  C:\Users\DNIEL~1\AppData\Local\Temp\ccSiEfiw.s 			page 10


 507 01d6 01       		.byte	0x1
 508 01d7 3E       		.byte	0x3e
 509 01d8 01       		.byte	0x1
 510 01d9 01       		.byte	0x1
 511 01da EA010000 		.4byte	0x1ea
 512 01de 0F       		.uleb128 0xf
 513 01df 746D7000 		.ascii	"tmp\000"
 514 01e3 01       		.byte	0x1
 515 01e4 3E       		.byte	0x3e
 516 01e5 AB010000 		.4byte	0x1ab
 517 01e9 00       		.byte	0
 518 01ea 11       		.uleb128 0x11
 519 01eb D1010000 		.4byte	0x1d1
 520 01ef 00000000 		.4byte	.LFB118
 521 01f3 0E000000 		.4byte	.LFE118
 522 01f7 02       		.byte	0x2
 523 01f8 7D       		.byte	0x7d
 524 01f9 00       		.sleb128 0
 525 01fa 01       		.byte	0x1
 526 01fb 07020000 		.4byte	0x207
 527 01ff 12       		.uleb128 0x12
 528 0200 DE010000 		.4byte	0x1de
 529 0204 01       		.byte	0x1
 530 0205 50       		.byte	0x50
 531 0206 00       		.byte	0
 532 0207 13       		.uleb128 0x13
 533 0208 05000000 		.4byte	.LASF36
 534 020c 01       		.byte	0x1
 535 020d 4A       		.byte	0x4a
 536 020e 01       		.byte	0x1
 537 020f 00000000 		.4byte	.LFB119
 538 0213 34000000 		.4byte	.LFE119
 539 0217 00000000 		.4byte	.LLST0
 540 021b 01       		.byte	0x1
 541 021c 3D020000 		.4byte	0x23d
 542 0220 14       		.uleb128 0x14
 543 0221 746D7000 		.ascii	"tmp\000"
 544 0225 01       		.byte	0x1
 545 0226 4A       		.byte	0x4a
 546 0227 AB010000 		.4byte	0x1ab
 547 022b 01       		.byte	0x1
 548 022c 50       		.byte	0x50
 549 022d 15       		.uleb128 0x15
 550 022e 6E6F7700 		.ascii	"now\000"
 551 0232 01       		.byte	0x1
 552 0233 4C       		.byte	0x4c
 553 0234 35010000 		.4byte	0x135
 554 0238 20000000 		.4byte	.LLST1
 555 023c 00       		.byte	0
 556 023d 16       		.uleb128 0x16
 557 023e 01       		.byte	0x1
 558 023f 78000000 		.4byte	.LASF37
 559 0243 01       		.byte	0x1
 560 0244 61       		.byte	0x61
 561 0245 01       		.byte	0x1
 562 0246 00000000 		.4byte	.LFB120
 563 024a 46000000 		.4byte	.LFE120
ARM GAS  C:\Users\DNIEL~1\AppData\Local\Temp\ccSiEfiw.s 			page 11


 564 024e 33000000 		.4byte	.LLST2
 565 0252 01       		.byte	0x1
 566 0253 AF020000 		.4byte	0x2af
 567 0257 17       		.uleb128 0x17
 568 0258 746D00   		.ascii	"tm\000"
 569 025b 01       		.byte	0x1
 570 025c 62       		.byte	0x62
 571 025d 41010000 		.4byte	0x141
 572 0261 02       		.byte	0x2
 573 0262 91       		.byte	0x91
 574 0263 64       		.sleb128 -28
 575 0264 18       		.uleb128 0x18
 576 0265 D1010000 		.4byte	0x1d1
 577 0269 0C000000 		.4byte	.LBB8
 578 026d 00000000 		.4byte	.Ldebug_ranges0+0
 579 0271 01       		.byte	0x1
 580 0272 69       		.byte	0x69
 581 0273 81020000 		.4byte	0x281
 582 0277 19       		.uleb128 0x19
 583 0278 DE010000 		.4byte	0x1de
 584 027c 5F000000 		.4byte	.LLST3
 585 0280 00       		.byte	0
 586 0281 18       		.uleb128 0x18
 587 0282 B7010000 		.4byte	0x1b7
 588 0286 16000000 		.4byte	.LBB14
 589 028a 28000000 		.4byte	.Ldebug_ranges0+0x28
 590 028e 01       		.byte	0x1
 591 028f 68       		.byte	0x68
 592 0290 9E020000 		.4byte	0x29e
 593 0294 19       		.uleb128 0x19
 594 0295 C5010000 		.4byte	0x1c5
 595 0299 8C000000 		.4byte	.LLST4
 596 029d 00       		.byte	0
 597 029e 1A       		.uleb128 0x1a
 598 029f 3E000000 		.4byte	.LVL7
 599 02a3 07020000 		.4byte	0x207
 600 02a7 1B       		.uleb128 0x1b
 601 02a8 01       		.byte	0x1
 602 02a9 50       		.byte	0x50
 603 02aa 02       		.byte	0x2
 604 02ab 91       		.byte	0x91
 605 02ac 64       		.sleb128 -28
 606 02ad 00       		.byte	0
 607 02ae 00       		.byte	0
 608 02af 11       		.uleb128 0x11
 609 02b0 B7010000 		.4byte	0x1b7
 610 02b4 00000000 		.4byte	.LFB121
 611 02b8 22000000 		.4byte	.LFE121
 612 02bc 02       		.byte	0x2
 613 02bd 7D       		.byte	0x7d
 614 02be 00       		.sleb128 0
 615 02bf 01       		.byte	0x1
 616 02c0 CC020000 		.4byte	0x2cc
 617 02c4 12       		.uleb128 0x12
 618 02c5 C5010000 		.4byte	0x1c5
 619 02c9 01       		.byte	0x1
 620 02ca 50       		.byte	0x50
ARM GAS  C:\Users\DNIEL~1\AppData\Local\Temp\ccSiEfiw.s 			page 12


 621 02cb 00       		.byte	0
 622 02cc 1C       		.uleb128 0x1c
 623 02cd 9D010000 		.4byte	.LASF30
 624 02d1 01       		.byte	0x1
 625 02d2 31       		.byte	0x31
 626 02d3 35010000 		.4byte	0x135
 627 02d7 05       		.byte	0x5
 628 02d8 03       		.byte	0x3
 629 02d9 00000000 		.4byte	measurement_offset
 630 02dd 1D       		.uleb128 0x1d
 631 02de B8000000 		.4byte	.LASF38
 632 02e2 06       		.byte	0x6
 633 02e3 9806     		.2byte	0x698
 634 02e5 30010000 		.4byte	0x130
 635 02e9 01       		.byte	0x1
 636 02ea 01       		.byte	0x1
 637 02eb 00       		.byte	0
 638              		.section	.debug_abbrev,"",%progbits
 639              	.Ldebug_abbrev0:
 640 0000 01       		.uleb128 0x1
 641 0001 11       		.uleb128 0x11
 642 0002 01       		.byte	0x1
 643 0003 25       		.uleb128 0x25
 644 0004 0E       		.uleb128 0xe
 645 0005 13       		.uleb128 0x13
 646 0006 0B       		.uleb128 0xb
 647 0007 03       		.uleb128 0x3
 648 0008 0E       		.uleb128 0xe
 649 0009 1B       		.uleb128 0x1b
 650 000a 0E       		.uleb128 0xe
 651 000b 55       		.uleb128 0x55
 652 000c 06       		.uleb128 0x6
 653 000d 11       		.uleb128 0x11
 654 000e 01       		.uleb128 0x1
 655 000f 52       		.uleb128 0x52
 656 0010 01       		.uleb128 0x1
 657 0011 10       		.uleb128 0x10
 658 0012 06       		.uleb128 0x6
 659 0013 00       		.byte	0
 660 0014 00       		.byte	0
 661 0015 02       		.uleb128 0x2
 662 0016 24       		.uleb128 0x24
 663 0017 00       		.byte	0
 664 0018 0B       		.uleb128 0xb
 665 0019 0B       		.uleb128 0xb
 666 001a 3E       		.uleb128 0x3e
 667 001b 0B       		.uleb128 0xb
 668 001c 03       		.uleb128 0x3
 669 001d 08       		.uleb128 0x8
 670 001e 00       		.byte	0
 671 001f 00       		.byte	0
 672 0020 03       		.uleb128 0x3
 673 0021 24       		.uleb128 0x24
 674 0022 00       		.byte	0
 675 0023 0B       		.uleb128 0xb
 676 0024 0B       		.uleb128 0xb
 677 0025 3E       		.uleb128 0x3e
ARM GAS  C:\Users\DNIEL~1\AppData\Local\Temp\ccSiEfiw.s 			page 13


 678 0026 0B       		.uleb128 0xb
 679 0027 03       		.uleb128 0x3
 680 0028 0E       		.uleb128 0xe
 681 0029 00       		.byte	0
 682 002a 00       		.byte	0
 683 002b 04       		.uleb128 0x4
 684 002c 16       		.uleb128 0x16
 685 002d 00       		.byte	0
 686 002e 03       		.uleb128 0x3
 687 002f 0E       		.uleb128 0xe
 688 0030 3A       		.uleb128 0x3a
 689 0031 0B       		.uleb128 0xb
 690 0032 3B       		.uleb128 0x3b
 691 0033 0B       		.uleb128 0xb
 692 0034 49       		.uleb128 0x49
 693 0035 13       		.uleb128 0x13
 694 0036 00       		.byte	0
 695 0037 00       		.byte	0
 696 0038 05       		.uleb128 0x5
 697 0039 35       		.uleb128 0x35
 698 003a 00       		.byte	0
 699 003b 49       		.uleb128 0x49
 700 003c 13       		.uleb128 0x13
 701 003d 00       		.byte	0
 702 003e 00       		.byte	0
 703 003f 06       		.uleb128 0x6
 704 0040 13       		.uleb128 0x13
 705 0041 01       		.byte	0x1
 706 0042 0B       		.uleb128 0xb
 707 0043 0B       		.uleb128 0xb
 708 0044 3A       		.uleb128 0x3a
 709 0045 0B       		.uleb128 0xb
 710 0046 3B       		.uleb128 0x3b
 711 0047 0B       		.uleb128 0xb
 712 0048 01       		.uleb128 0x1
 713 0049 13       		.uleb128 0x13
 714 004a 00       		.byte	0
 715 004b 00       		.byte	0
 716 004c 07       		.uleb128 0x7
 717 004d 0D       		.uleb128 0xd
 718 004e 00       		.byte	0
 719 004f 03       		.uleb128 0x3
 720 0050 0E       		.uleb128 0xe
 721 0051 3A       		.uleb128 0x3a
 722 0052 0B       		.uleb128 0xb
 723 0053 3B       		.uleb128 0x3b
 724 0054 05       		.uleb128 0x5
 725 0055 49       		.uleb128 0x49
 726 0056 13       		.uleb128 0x13
 727 0057 38       		.uleb128 0x38
 728 0058 0A       		.uleb128 0xa
 729 0059 00       		.byte	0
 730 005a 00       		.byte	0
 731 005b 08       		.uleb128 0x8
 732 005c 16       		.uleb128 0x16
 733 005d 00       		.byte	0
 734 005e 03       		.uleb128 0x3
ARM GAS  C:\Users\DNIEL~1\AppData\Local\Temp\ccSiEfiw.s 			page 14


 735 005f 0E       		.uleb128 0xe
 736 0060 3A       		.uleb128 0x3a
 737 0061 0B       		.uleb128 0xb
 738 0062 3B       		.uleb128 0x3b
 739 0063 05       		.uleb128 0x5
 740 0064 49       		.uleb128 0x49
 741 0065 13       		.uleb128 0x13
 742 0066 00       		.byte	0
 743 0067 00       		.byte	0
 744 0068 09       		.uleb128 0x9
 745 0069 13       		.uleb128 0x13
 746 006a 01       		.byte	0x1
 747 006b 03       		.uleb128 0x3
 748 006c 0E       		.uleb128 0xe
 749 006d 0B       		.uleb128 0xb
 750 006e 0B       		.uleb128 0xb
 751 006f 3A       		.uleb128 0x3a
 752 0070 0B       		.uleb128 0xb
 753 0071 3B       		.uleb128 0x3b
 754 0072 0B       		.uleb128 0xb
 755 0073 01       		.uleb128 0x1
 756 0074 13       		.uleb128 0x13
 757 0075 00       		.byte	0
 758 0076 00       		.byte	0
 759 0077 0A       		.uleb128 0xa
 760 0078 0D       		.uleb128 0xd
 761 0079 00       		.byte	0
 762 007a 03       		.uleb128 0x3
 763 007b 0E       		.uleb128 0xe
 764 007c 3A       		.uleb128 0x3a
 765 007d 0B       		.uleb128 0xb
 766 007e 3B       		.uleb128 0x3b
 767 007f 0B       		.uleb128 0xb
 768 0080 49       		.uleb128 0x49
 769 0081 13       		.uleb128 0x13
 770 0082 38       		.uleb128 0x38
 771 0083 0A       		.uleb128 0xa
 772 0084 00       		.byte	0
 773 0085 00       		.byte	0
 774 0086 0B       		.uleb128 0xb
 775 0087 15       		.uleb128 0x15
 776 0088 01       		.byte	0x1
 777 0089 27       		.uleb128 0x27
 778 008a 0C       		.uleb128 0xc
 779 008b 01       		.uleb128 0x1
 780 008c 13       		.uleb128 0x13
 781 008d 00       		.byte	0
 782 008e 00       		.byte	0
 783 008f 0C       		.uleb128 0xc
 784 0090 05       		.uleb128 0x5
 785 0091 00       		.byte	0
 786 0092 49       		.uleb128 0x49
 787 0093 13       		.uleb128 0x13
 788 0094 00       		.byte	0
 789 0095 00       		.byte	0
 790 0096 0D       		.uleb128 0xd
 791 0097 0F       		.uleb128 0xf
ARM GAS  C:\Users\DNIEL~1\AppData\Local\Temp\ccSiEfiw.s 			page 15


 792 0098 00       		.byte	0
 793 0099 0B       		.uleb128 0xb
 794 009a 0B       		.uleb128 0xb
 795 009b 49       		.uleb128 0x49
 796 009c 13       		.uleb128 0x13
 797 009d 00       		.byte	0
 798 009e 00       		.byte	0
 799 009f 0E       		.uleb128 0xe
 800 00a0 2E       		.uleb128 0x2e
 801 00a1 01       		.byte	0x1
 802 00a2 3F       		.uleb128 0x3f
 803 00a3 0C       		.uleb128 0xc
 804 00a4 03       		.uleb128 0x3
 805 00a5 0E       		.uleb128 0xe
 806 00a6 3A       		.uleb128 0x3a
 807 00a7 0B       		.uleb128 0xb
 808 00a8 3B       		.uleb128 0x3b
 809 00a9 0B       		.uleb128 0xb
 810 00aa 27       		.uleb128 0x27
 811 00ab 0C       		.uleb128 0xc
 812 00ac 20       		.uleb128 0x20
 813 00ad 0B       		.uleb128 0xb
 814 00ae 01       		.uleb128 0x1
 815 00af 13       		.uleb128 0x13
 816 00b0 00       		.byte	0
 817 00b1 00       		.byte	0
 818 00b2 0F       		.uleb128 0xf
 819 00b3 05       		.uleb128 0x5
 820 00b4 00       		.byte	0
 821 00b5 03       		.uleb128 0x3
 822 00b6 08       		.uleb128 0x8
 823 00b7 3A       		.uleb128 0x3a
 824 00b8 0B       		.uleb128 0xb
 825 00b9 3B       		.uleb128 0x3b
 826 00ba 0B       		.uleb128 0xb
 827 00bb 49       		.uleb128 0x49
 828 00bc 13       		.uleb128 0x13
 829 00bd 00       		.byte	0
 830 00be 00       		.byte	0
 831 00bf 10       		.uleb128 0x10
 832 00c0 2E       		.uleb128 0x2e
 833 00c1 01       		.byte	0x1
 834 00c2 03       		.uleb128 0x3
 835 00c3 0E       		.uleb128 0xe
 836 00c4 3A       		.uleb128 0x3a
 837 00c5 0B       		.uleb128 0xb
 838 00c6 3B       		.uleb128 0x3b
 839 00c7 0B       		.uleb128 0xb
 840 00c8 27       		.uleb128 0x27
 841 00c9 0C       		.uleb128 0xc
 842 00ca 20       		.uleb128 0x20
 843 00cb 0B       		.uleb128 0xb
 844 00cc 01       		.uleb128 0x1
 845 00cd 13       		.uleb128 0x13
 846 00ce 00       		.byte	0
 847 00cf 00       		.byte	0
 848 00d0 11       		.uleb128 0x11
ARM GAS  C:\Users\DNIEL~1\AppData\Local\Temp\ccSiEfiw.s 			page 16


 849 00d1 2E       		.uleb128 0x2e
 850 00d2 01       		.byte	0x1
 851 00d3 31       		.uleb128 0x31
 852 00d4 13       		.uleb128 0x13
 853 00d5 11       		.uleb128 0x11
 854 00d6 01       		.uleb128 0x1
 855 00d7 12       		.uleb128 0x12
 856 00d8 01       		.uleb128 0x1
 857 00d9 40       		.uleb128 0x40
 858 00da 0A       		.uleb128 0xa
 859 00db 9742     		.uleb128 0x2117
 860 00dd 0C       		.uleb128 0xc
 861 00de 01       		.uleb128 0x1
 862 00df 13       		.uleb128 0x13
 863 00e0 00       		.byte	0
 864 00e1 00       		.byte	0
 865 00e2 12       		.uleb128 0x12
 866 00e3 05       		.uleb128 0x5
 867 00e4 00       		.byte	0
 868 00e5 31       		.uleb128 0x31
 869 00e6 13       		.uleb128 0x13
 870 00e7 02       		.uleb128 0x2
 871 00e8 0A       		.uleb128 0xa
 872 00e9 00       		.byte	0
 873 00ea 00       		.byte	0
 874 00eb 13       		.uleb128 0x13
 875 00ec 2E       		.uleb128 0x2e
 876 00ed 01       		.byte	0x1
 877 00ee 03       		.uleb128 0x3
 878 00ef 0E       		.uleb128 0xe
 879 00f0 3A       		.uleb128 0x3a
 880 00f1 0B       		.uleb128 0xb
 881 00f2 3B       		.uleb128 0x3b
 882 00f3 0B       		.uleb128 0xb
 883 00f4 27       		.uleb128 0x27
 884 00f5 0C       		.uleb128 0xc
 885 00f6 11       		.uleb128 0x11
 886 00f7 01       		.uleb128 0x1
 887 00f8 12       		.uleb128 0x12
 888 00f9 01       		.uleb128 0x1
 889 00fa 40       		.uleb128 0x40
 890 00fb 06       		.uleb128 0x6
 891 00fc 9742     		.uleb128 0x2117
 892 00fe 0C       		.uleb128 0xc
 893 00ff 01       		.uleb128 0x1
 894 0100 13       		.uleb128 0x13
 895 0101 00       		.byte	0
 896 0102 00       		.byte	0
 897 0103 14       		.uleb128 0x14
 898 0104 05       		.uleb128 0x5
 899 0105 00       		.byte	0
 900 0106 03       		.uleb128 0x3
 901 0107 08       		.uleb128 0x8
 902 0108 3A       		.uleb128 0x3a
 903 0109 0B       		.uleb128 0xb
 904 010a 3B       		.uleb128 0x3b
 905 010b 0B       		.uleb128 0xb
ARM GAS  C:\Users\DNIEL~1\AppData\Local\Temp\ccSiEfiw.s 			page 17


 906 010c 49       		.uleb128 0x49
 907 010d 13       		.uleb128 0x13
 908 010e 02       		.uleb128 0x2
 909 010f 0A       		.uleb128 0xa
 910 0110 00       		.byte	0
 911 0111 00       		.byte	0
 912 0112 15       		.uleb128 0x15
 913 0113 34       		.uleb128 0x34
 914 0114 00       		.byte	0
 915 0115 03       		.uleb128 0x3
 916 0116 08       		.uleb128 0x8
 917 0117 3A       		.uleb128 0x3a
 918 0118 0B       		.uleb128 0xb
 919 0119 3B       		.uleb128 0x3b
 920 011a 0B       		.uleb128 0xb
 921 011b 49       		.uleb128 0x49
 922 011c 13       		.uleb128 0x13
 923 011d 02       		.uleb128 0x2
 924 011e 06       		.uleb128 0x6
 925 011f 00       		.byte	0
 926 0120 00       		.byte	0
 927 0121 16       		.uleb128 0x16
 928 0122 2E       		.uleb128 0x2e
 929 0123 01       		.byte	0x1
 930 0124 3F       		.uleb128 0x3f
 931 0125 0C       		.uleb128 0xc
 932 0126 03       		.uleb128 0x3
 933 0127 0E       		.uleb128 0xe
 934 0128 3A       		.uleb128 0x3a
 935 0129 0B       		.uleb128 0xb
 936 012a 3B       		.uleb128 0x3b
 937 012b 0B       		.uleb128 0xb
 938 012c 27       		.uleb128 0x27
 939 012d 0C       		.uleb128 0xc
 940 012e 11       		.uleb128 0x11
 941 012f 01       		.uleb128 0x1
 942 0130 12       		.uleb128 0x12
 943 0131 01       		.uleb128 0x1
 944 0132 40       		.uleb128 0x40
 945 0133 06       		.uleb128 0x6
 946 0134 9742     		.uleb128 0x2117
 947 0136 0C       		.uleb128 0xc
 948 0137 01       		.uleb128 0x1
 949 0138 13       		.uleb128 0x13
 950 0139 00       		.byte	0
 951 013a 00       		.byte	0
 952 013b 17       		.uleb128 0x17
 953 013c 34       		.uleb128 0x34
 954 013d 00       		.byte	0
 955 013e 03       		.uleb128 0x3
 956 013f 08       		.uleb128 0x8
 957 0140 3A       		.uleb128 0x3a
 958 0141 0B       		.uleb128 0xb
 959 0142 3B       		.uleb128 0x3b
 960 0143 0B       		.uleb128 0xb
 961 0144 49       		.uleb128 0x49
 962 0145 13       		.uleb128 0x13
ARM GAS  C:\Users\DNIEL~1\AppData\Local\Temp\ccSiEfiw.s 			page 18


 963 0146 02       		.uleb128 0x2
 964 0147 0A       		.uleb128 0xa
 965 0148 00       		.byte	0
 966 0149 00       		.byte	0
 967 014a 18       		.uleb128 0x18
 968 014b 1D       		.uleb128 0x1d
 969 014c 01       		.byte	0x1
 970 014d 31       		.uleb128 0x31
 971 014e 13       		.uleb128 0x13
 972 014f 52       		.uleb128 0x52
 973 0150 01       		.uleb128 0x1
 974 0151 55       		.uleb128 0x55
 975 0152 06       		.uleb128 0x6
 976 0153 58       		.uleb128 0x58
 977 0154 0B       		.uleb128 0xb
 978 0155 59       		.uleb128 0x59
 979 0156 0B       		.uleb128 0xb
 980 0157 01       		.uleb128 0x1
 981 0158 13       		.uleb128 0x13
 982 0159 00       		.byte	0
 983 015a 00       		.byte	0
 984 015b 19       		.uleb128 0x19
 985 015c 05       		.uleb128 0x5
 986 015d 00       		.byte	0
 987 015e 31       		.uleb128 0x31
 988 015f 13       		.uleb128 0x13
 989 0160 02       		.uleb128 0x2
 990 0161 06       		.uleb128 0x6
 991 0162 00       		.byte	0
 992 0163 00       		.byte	0
 993 0164 1A       		.uleb128 0x1a
 994 0165 898201   		.uleb128 0x4109
 995 0168 01       		.byte	0x1
 996 0169 11       		.uleb128 0x11
 997 016a 01       		.uleb128 0x1
 998 016b 31       		.uleb128 0x31
 999 016c 13       		.uleb128 0x13
 1000 016d 00       		.byte	0
 1001 016e 00       		.byte	0
 1002 016f 1B       		.uleb128 0x1b
 1003 0170 8A8201   		.uleb128 0x410a
 1004 0173 00       		.byte	0
 1005 0174 02       		.uleb128 0x2
 1006 0175 0A       		.uleb128 0xa
 1007 0176 9142     		.uleb128 0x2111
 1008 0178 0A       		.uleb128 0xa
 1009 0179 00       		.byte	0
 1010 017a 00       		.byte	0
 1011 017b 1C       		.uleb128 0x1c
 1012 017c 34       		.uleb128 0x34
 1013 017d 00       		.byte	0
 1014 017e 03       		.uleb128 0x3
 1015 017f 0E       		.uleb128 0xe
 1016 0180 3A       		.uleb128 0x3a
 1017 0181 0B       		.uleb128 0xb
 1018 0182 3B       		.uleb128 0x3b
 1019 0183 0B       		.uleb128 0xb
ARM GAS  C:\Users\DNIEL~1\AppData\Local\Temp\ccSiEfiw.s 			page 19


 1020 0184 49       		.uleb128 0x49
 1021 0185 13       		.uleb128 0x13
 1022 0186 02       		.uleb128 0x2
 1023 0187 0A       		.uleb128 0xa
 1024 0188 00       		.byte	0
 1025 0189 00       		.byte	0
 1026 018a 1D       		.uleb128 0x1d
 1027 018b 34       		.uleb128 0x34
 1028 018c 00       		.byte	0
 1029 018d 03       		.uleb128 0x3
 1030 018e 0E       		.uleb128 0xe
 1031 018f 3A       		.uleb128 0x3a
 1032 0190 0B       		.uleb128 0xb
 1033 0191 3B       		.uleb128 0x3b
 1034 0192 05       		.uleb128 0x5
 1035 0193 49       		.uleb128 0x49
 1036 0194 13       		.uleb128 0x13
 1037 0195 3F       		.uleb128 0x3f
 1038 0196 0C       		.uleb128 0xc
 1039 0197 3C       		.uleb128 0x3c
 1040 0198 0C       		.uleb128 0xc
 1041 0199 00       		.byte	0
 1042 019a 00       		.byte	0
 1043 019b 00       		.byte	0
 1044              		.section	.debug_loc,"",%progbits
 1045              	.Ldebug_loc0:
 1046              	.LLST0:
 1047 0000 00000000 		.4byte	.LFB119
 1048 0004 10000000 		.4byte	.LCFI0
 1049 0008 0200     		.2byte	0x2
 1050 000a 7D       		.byte	0x7d
 1051 000b 00       		.sleb128 0
 1052 000c 10000000 		.4byte	.LCFI0
 1053 0010 34000000 		.4byte	.LFE119
 1054 0014 0200     		.2byte	0x2
 1055 0016 7D       		.byte	0x7d
 1056 0017 04       		.sleb128 4
 1057 0018 00000000 		.4byte	0
 1058 001c 00000000 		.4byte	0
 1059              	.LLST1:
 1060 0020 0E000000 		.4byte	.LVL2
 1061 0024 16000000 		.4byte	.LVL3
 1062 0028 0100     		.2byte	0x1
 1063 002a 53       		.byte	0x53
 1064 002b 00000000 		.4byte	0
 1065 002f 00000000 		.4byte	0
 1066              	.LLST2:
 1067 0033 00000000 		.4byte	.LFB120
 1068 0037 02000000 		.4byte	.LCFI1
 1069 003b 0200     		.2byte	0x2
 1070 003d 7D       		.byte	0x7d
 1071 003e 00       		.sleb128 0
 1072 003f 02000000 		.4byte	.LCFI1
 1073 0043 08000000 		.4byte	.LCFI2
 1074 0047 0200     		.2byte	0x2
 1075 0049 7D       		.byte	0x7d
 1076 004a 08       		.sleb128 8
ARM GAS  C:\Users\DNIEL~1\AppData\Local\Temp\ccSiEfiw.s 			page 20


 1077 004b 08000000 		.4byte	.LCFI2
 1078 004f 46000000 		.4byte	.LFE120
 1079 0053 0200     		.2byte	0x2
 1080 0055 7D       		.byte	0x7d
 1081 0056 20       		.sleb128 32
 1082 0057 00000000 		.4byte	0
 1083 005b 00000000 		.4byte	0
 1084              	.LLST3:
 1085 005f 20000000 		.4byte	.LVL5
 1086 0063 2C000000 		.4byte	.LVL6
 1087 0067 0300     		.2byte	0x3
 1088 0069 91       		.byte	0x91
 1089 006a 64       		.sleb128 -28
 1090 006b 9F       		.byte	0x9f
 1091 006c 2C000000 		.4byte	.LVL6
 1092 0070 3D000000 		.4byte	.LVL7-1
 1093 0074 0100     		.2byte	0x1
 1094 0076 50       		.byte	0x50
 1095 0077 3D000000 		.4byte	.LVL7-1
 1096 007b 46000000 		.4byte	.LFE120
 1097 007f 0300     		.2byte	0x3
 1098 0081 91       		.byte	0x91
 1099 0082 64       		.sleb128 -28
 1100 0083 9F       		.byte	0x9f
 1101 0084 00000000 		.4byte	0
 1102 0088 00000000 		.4byte	0
 1103              	.LLST4:
 1104 008c 1C000000 		.4byte	.LVL4
 1105 0090 2C000000 		.4byte	.LVL6
 1106 0094 0300     		.2byte	0x3
 1107 0096 91       		.byte	0x91
 1108 0097 64       		.sleb128 -28
 1109 0098 9F       		.byte	0x9f
 1110 0099 2C000000 		.4byte	.LVL6
 1111 009d 3D000000 		.4byte	.LVL7-1
 1112 00a1 0100     		.2byte	0x1
 1113 00a3 50       		.byte	0x50
 1114 00a4 3D000000 		.4byte	.LVL7-1
 1115 00a8 46000000 		.4byte	.LFE120
 1116 00ac 0300     		.2byte	0x3
 1117 00ae 91       		.byte	0x91
 1118 00af 64       		.sleb128 -28
 1119 00b0 9F       		.byte	0x9f
 1120 00b1 00000000 		.4byte	0
 1121 00b5 00000000 		.4byte	0
 1122              		.section	.debug_aranges,"",%progbits
 1123 0000 34000000 		.4byte	0x34
 1124 0004 0200     		.2byte	0x2
 1125 0006 00000000 		.4byte	.Ldebug_info0
 1126 000a 04       		.byte	0x4
 1127 000b 00       		.byte	0
 1128 000c 0000     		.2byte	0
 1129 000e 0000     		.2byte	0
 1130 0010 00000000 		.4byte	.LFB118
 1131 0014 0E000000 		.4byte	.LFE118-.LFB118
 1132 0018 00000000 		.4byte	.LFB119
 1133 001c 34000000 		.4byte	.LFE119-.LFB119
ARM GAS  C:\Users\DNIEL~1\AppData\Local\Temp\ccSiEfiw.s 			page 21


 1134 0020 00000000 		.4byte	.LFB120
 1135 0024 46000000 		.4byte	.LFE120-.LFB120
 1136 0028 00000000 		.4byte	.LFB121
 1137 002c 22000000 		.4byte	.LFE121-.LFB121
 1138 0030 00000000 		.4byte	0
 1139 0034 00000000 		.4byte	0
 1140              		.section	.debug_ranges,"",%progbits
 1141              	.Ldebug_ranges0:
 1142 0000 0C000000 		.4byte	.LBB8
 1143 0004 10000000 		.4byte	.LBE8
 1144 0008 12000000 		.4byte	.LBB13
 1145 000c 16000000 		.4byte	.LBE13
 1146 0010 20000000 		.4byte	.LBB20
 1147 0014 22000000 		.4byte	.LBE20
 1148 0018 38000000 		.4byte	.LBB23
 1149 001c 3A000000 		.4byte	.LBE23
 1150 0020 00000000 		.4byte	0
 1151 0024 00000000 		.4byte	0
 1152 0028 16000000 		.4byte	.LBB14
 1153 002c 1A000000 		.4byte	.LBE14
 1154 0030 1C000000 		.4byte	.LBB19
 1155 0034 20000000 		.4byte	.LBE19
 1156 0038 22000000 		.4byte	.LBB21
 1157 003c 2A000000 		.4byte	.LBE21
 1158 0040 2C000000 		.4byte	.LBB22
 1159 0044 38000000 		.4byte	.LBE22
 1160 0048 00000000 		.4byte	0
 1161 004c 00000000 		.4byte	0
 1162 0050 00000000 		.4byte	.LFB118
 1163 0054 0E000000 		.4byte	.LFE118
 1164 0058 00000000 		.4byte	.LFB119
 1165 005c 34000000 		.4byte	.LFE119
 1166 0060 00000000 		.4byte	.LFB120
 1167 0064 46000000 		.4byte	.LFE120
 1168 0068 00000000 		.4byte	.LFB121
 1169 006c 22000000 		.4byte	.LFE121
 1170 0070 00000000 		.4byte	0
 1171 0074 00000000 		.4byte	0
 1172              		.section	.debug_line,"",%progbits
 1173              	.Ldebug_line0:
 1174 0000 25020000 		.section	.debug_str,"MS",%progbits,1
 1174      02009601 
 1174      00000201 
 1174      FB0E0D00 
 1174      01010101 
 1175              	.LASF20:
 1176 0000 50435352 		.ascii	"PCSR\000"
 1176      00
 1177              	.LASF36:
 1178 0005 746D5F73 		.ascii	"tm_stop\000"
 1178      746F7000 
 1179              	.LASF25:
 1180 000d 73746172 		.ascii	"start\000"
 1180      7400
 1181              	.LASF33:
 1182 0013 433A5C55 		.ascii	"C:\\Users\\D\341niel\\git\\Smarty\\smarty\\firmware"
 1182      73657273 
ARM GAS  C:\Users\DNIEL~1\AppData\Local\Temp\ccSiEfiw.s 			page 22


 1182      5C44E16E 
 1182      69656C5C 
 1182      6769745C 
 1183 003d 00       		.ascii	"\000"
 1184              	.LASF17:
 1185 003e 534C4545 		.ascii	"SLEEPCNT\000"
 1185      50434E54 
 1185      00
 1186              	.LASF26:
 1187 0047 73746F70 		.ascii	"stop\000"
 1187      00
 1188              	.LASF10:
 1189 004c 6C6F6E67 		.ascii	"long long unsigned int\000"
 1189      206C6F6E 
 1189      6720756E 
 1189      7369676E 
 1189      65642069 
 1190              	.LASF2:
 1191 0063 756E7369 		.ascii	"unsigned char\000"
 1191      676E6564 
 1191      20636861 
 1191      7200
 1192              	.LASF14:
 1193 0071 43594343 		.ascii	"CYCCNT\000"
 1193      4E5400
 1194              	.LASF37:
 1195 0078 746D496E 		.ascii	"tmInit\000"
 1195      697400
 1196              	.LASF8:
 1197 007f 6C6F6E67 		.ascii	"long unsigned int\000"
 1197      20756E73 
 1197      69676E65 
 1197      6420696E 
 1197      7400
 1198              	.LASF34:
 1199 0091 746D4F62 		.ascii	"tmObjectInit\000"
 1199      6A656374 
 1199      496E6974 
 1199      00
 1200              	.LASF4:
 1201 009e 73686F72 		.ascii	"short unsigned int\000"
 1201      7420756E 
 1201      7369676E 
 1201      65642069 
 1201      6E7400
 1202              	.LASF15:
 1203 00b1 43504943 		.ascii	"CPICNT\000"
 1203      4E5400
 1204              	.LASF38:
 1205 00b8 49544D5F 		.ascii	"ITM_RxBuffer\000"
 1205      52784275 
 1205      66666572 
 1205      00
 1206              	.LASF19:
 1207 00c5 464F4C44 		.ascii	"FOLDCNT\000"
 1207      434E5400 
 1208              	.LASF31:
ARM GAS  C:\Users\DNIEL~1\AppData\Local\Temp\ccSiEfiw.s 			page 23


 1209 00cd 474E5520 		.ascii	"GNU C 4.7.4 20140401 (release) [ARM/embedded-4_7-br"
 1209      4320342E 
 1209      372E3420 
 1209      32303134 
 1209      30343031 
 1210 0100 616E6368 		.ascii	"anch revision 209195]\000"
 1210      20726576 
 1210      6973696F 
 1210      6E203230 
 1210      39313935 
 1211              	.LASF28:
 1212 0116 776F7273 		.ascii	"worst\000"
 1212      7400
 1213              	.LASF18:
 1214 011c 4C535543 		.ascii	"LSUCNT\000"
 1214      4E5400
 1215              	.LASF0:
 1216 0123 756E7369 		.ascii	"unsigned int\000"
 1216      676E6564 
 1216      20696E74 
 1216      00
 1217              	.LASF23:
 1218 0130 68616C72 		.ascii	"halrtcnt_t\000"
 1218      74636E74 
 1218      5F7400
 1219              	.LASF22:
 1220 013b 63686172 		.ascii	"char\000"
 1220      00
 1221              	.LASF35:
 1222 0140 746D5F73 		.ascii	"tm_start\000"
 1222      74617274 
 1222      00
 1223              	.LASF13:
 1224 0149 4354524C 		.ascii	"CTRL\000"
 1224      00
 1225              	.LASF16:
 1226 014e 45584343 		.ascii	"EXCCNT\000"
 1226      4E5400
 1227              	.LASF6:
 1228 0155 696E7433 		.ascii	"int32_t\000"
 1228      325F7400 
 1229              	.LASF12:
 1230 015d 73697A65 		.ascii	"sizetype\000"
 1230      74797065 
 1230      00
 1231              	.LASF9:
 1232 0166 6C6F6E67 		.ascii	"long long int\000"
 1232      206C6F6E 
 1232      6720696E 
 1232      7400
 1233              	.LASF11:
 1234 0174 494F5245 		.ascii	"IOREG32\000"
 1234      47333200 
 1235              	.LASF32:
 1236 017c 2E2E2F2E 		.ascii	"../../../ChibiOS/os/hal/src/tm.c\000"
 1236      2E2F2E2E 
 1236      2F436869 
ARM GAS  C:\Users\DNIEL~1\AppData\Local\Temp\ccSiEfiw.s 			page 24


 1236      62694F53 
 1236      2F6F732F 
 1237              	.LASF30:
 1238 019d 6D656173 		.ascii	"measurement_offset\000"
 1238      7572656D 
 1238      656E745F 
 1238      6F666673 
 1238      657400
 1239              	.LASF3:
 1240 01b0 73686F72 		.ascii	"short int\000"
 1240      7420696E 
 1240      7400
 1241              	.LASF21:
 1242 01ba 434D785F 		.ascii	"CMx_DWT\000"
 1242      44575400 
 1243              	.LASF29:
 1244 01c2 62657374 		.ascii	"best\000"
 1244      00
 1245              	.LASF7:
 1246 01c7 75696E74 		.ascii	"uint32_t\000"
 1246      33325F74 
 1246      00
 1247              	.LASF5:
 1248 01d0 6C6F6E67 		.ascii	"long int\000"
 1248      20696E74 
 1248      00
 1249              	.LASF1:
 1250 01d9 7369676E 		.ascii	"signed char\000"
 1250      65642063 
 1250      68617200 
 1251              	.LASF24:
 1252 01e5 54696D65 		.ascii	"TimeMeasurement\000"
 1252      4D656173 
 1252      7572656D 
 1252      656E7400 
 1253              	.LASF27:
 1254 01f5 6C617374 		.ascii	"last\000"
 1254      00
 1255              		.ident	"GCC: (GNU Tools for ARM Embedded Processors) 4.7.4 20140401 (release) [ARM/embedded-4_7-br
ARM GAS  C:\Users\DNIEL~1\AppData\Local\Temp\ccSiEfiw.s 			page 25


DEFINED SYMBOLS
                            *ABS*:00000000 tm.c
C:\Users\DNIEL~1\AppData\Local\Temp\ccSiEfiw.s:19     .text.tm_start:00000000 $t
C:\Users\DNIEL~1\AppData\Local\Temp\ccSiEfiw.s:24     .text.tm_start:00000000 tm_start
C:\Users\DNIEL~1\AppData\Local\Temp\ccSiEfiw.s:43     .text.tm_stop:00000000 $t
C:\Users\DNIEL~1\AppData\Local\Temp\ccSiEfiw.s:48     .text.tm_stop:00000000 tm_stop
C:\Users\DNIEL~1\AppData\Local\Temp\ccSiEfiw.s:101    .text.tm_stop:00000030 $d
C:\Users\DNIEL~1\AppData\Local\Temp\ccSiEfiw.s:106    .text.tmInit:00000000 $t
C:\Users\DNIEL~1\AppData\Local\Temp\ccSiEfiw.s:112    .text.tmInit:00000000 tmInit
C:\Users\DNIEL~1\AppData\Local\Temp\ccSiEfiw.s:253    .bss.measurement_offset:00000000 .LANCHOR0
C:\Users\DNIEL~1\AppData\Local\Temp\ccSiEfiw.s:211    .text.tmObjectInit:00000000 $t
C:\Users\DNIEL~1\AppData\Local\Temp\ccSiEfiw.s:217    .text.tmObjectInit:00000000 tmObjectInit
C:\Users\DNIEL~1\AppData\Local\Temp\ccSiEfiw.s:252    .bss.measurement_offset:00000000 $d
C:\Users\DNIEL~1\AppData\Local\Temp\ccSiEfiw.s:256    .bss.measurement_offset:00000000 measurement_offset
                     .debug_frame:00000010 $d
C:\Users\DNIEL~1\AppData\Local\Temp\ccSiEfiw.s:105    .text.tm_stop:00000034 $t

NO UNDEFINED SYMBOLS
