ARM GAS  C:\Users\DNIEL~1\AppData\Local\Temp\ccrwg8uE.s 			page 1


   1              		.syntax unified
   2              		.cpu cortex-m4
   3              		.fpu softvfp
   4              		.eabi_attribute 20, 1
   5              		.eabi_attribute 21, 1
   6              		.eabi_attribute 23, 3
   7              		.eabi_attribute 24, 1
   8              		.eabi_attribute 25, 1
   9              		.eabi_attribute 26, 1
  10              		.eabi_attribute 30, 2
  11              		.eabi_attribute 18, 4
  12              		.thumb
  13              		.file	"usb.c"
  20 0000 35050000 		.text
  20      02007D02 
  20      00000201 
  20      FB0E0D00 
  20      01010101 
  21              	.Ltext0:
  22              		.cfi_sections	.debug_frame
  23              		.section	.text.usbInit,"ax",%progbits
  24              		.align	2
  25              		.p2align 4,,15
  26              		.global	usbInit
  27              		.thumb
  28              		.thumb_func
  29              		.type	usbInit, %function
  30              	usbInit:
  31              	.LFB120:
  32              		.file 1 "../../../ChibiOS/os/hal/src/usb.c"
  33              		.loc 1 228 0
  34              		.cfi_startproc
  35              		@ args = 0, pretend = 0, frame = 0
  36              		@ frame_needed = 0, uses_anonymous_args = 0
  37              		@ link register save eliminated.
  38              		.loc 1 231 0
  39              		.loc 1 230 0
  40 0000 FFF7FEBF 		b	usb_lld_init
  41              		.cfi_endproc
  42              	.LFE120:
  43              		.size	usbInit, .-usbInit
  44 0004 AFF30080 		.section	.text.usbObjectInit,"ax",%progbits
  44      AFF30080 
  44      AFF30080 
  45              		.align	2
  46              		.p2align 4,,15
  47              		.global	usbObjectInit
  48              		.thumb
  49              		.thumb_func
  50              		.type	usbObjectInit, %function
  51              	usbObjectInit:
ARM GAS  C:\Users\DNIEL~1\AppData\Local\Temp\ccrwg8uE.s 			page 2


  52              	.LFB121:
  53              		.loc 1 240 0
  54              		.cfi_startproc
  55              		@ args = 0, pretend = 0, frame = 0
  56              		@ frame_needed = 0, uses_anonymous_args = 0
  57              		@ link register save eliminated.
  58              	.LVL0:
  59              		.loc 1 243 0
  60 0000 0023     		movs	r3, #0
  61              		.loc 1 242 0
  62 0002 0122     		movs	r2, #1
  63 0004 0270     		strb	r2, [r0, #0]
  64              		.loc 1 243 0
  65 0006 4360     		str	r3, [r0, #4]
  66              		.loc 1 244 0
  67 0008 8360     		str	r3, [r0, #8]
  68              		.loc 1 245 0
  69 000a 8381     		strh	r3, [r0, #12]	@ movhi
  70              		.loc 1 246 0
  71 000c C381     		strh	r3, [r0, #14]	@ movhi
  72              		.loc 1 247 0
  73 000e 7047     		bx	lr
  74              		.cfi_endproc
  75              	.LFE121:
  76              		.size	usbObjectInit, .-usbObjectInit
  77              		.section	.text.usbStart,"ax",%progbits
  78              		.align	2
  79              		.p2align 4,,15
  80              		.global	usbStart
  81              		.thumb
  82              		.thumb_func
  83              		.type	usbStart, %function
  84              	usbStart:
  85              	.LFB122:
  86              		.loc 1 257 0
  87              		.cfi_startproc
  88              		@ args = 0, pretend = 0, frame = 0
  89              		@ frame_needed = 0, uses_anonymous_args = 0
  90              	.LVL1:
  91 0000 38B5     		push	{r3, r4, r5, lr}
  92              	.LCFI0:
  93              		.cfi_def_cfa_offset 16
  94              		.loc 1 257 0
  95 0002 0446     		mov	r4, r0
  96              		.cfi_offset 14, -4
  97              		.cfi_offset 5, -8
  98              		.cfi_offset 4, -12
  99              		.cfi_offset 3, -16
 100              	.LBB4:
 101              		.loc 1 262 0
 102 0004 2023     		movs	r3, #32
 103              	.LVL2:
 104              	@ 262 "../../../ChibiOS/os/hal/src/usb.c" 1
 105 0006 83F31188 		msr     BASEPRI, r3
 106              	@ 0 "" 2
 107              	.LVL3:
 108              		.thumb
ARM GAS  C:\Users\DNIEL~1\AppData\Local\Temp\ccrwg8uE.s 			page 3


 109              	.LBE4:
 110              		.loc 1 267 0
 111 000a 0025     		movs	r5, #0
 112              		.loc 1 265 0
 113 000c 4160     		str	r1, [r0, #4]
 114              	.LVL4:
 115              		.loc 1 267 0
 116 000e 0561     		str	r5, [r0, #16]
 117              	.LVL5:
 118 0010 4561     		str	r5, [r0, #20]
 119              	.LVL6:
 120 0012 8561     		str	r5, [r0, #24]
 121              	.LVL7:
 122 0014 C561     		str	r5, [r0, #28]
 123              	.LVL8:
 124              		.loc 1 268 0
 125 0016 FFF7FEFF 		bl	usb_lld_start
 126              	.LVL9:
 127              		.loc 1 269 0
 128 001a 0223     		movs	r3, #2
 129 001c 2370     		strb	r3, [r4, #0]
 130              	.LBB5:
 131              		.loc 1 270 0
 132 001e 2B46     		mov	r3, r5
 133              	.LVL10:
 134              	@ 270 "../../../ChibiOS/os/hal/src/usb.c" 1
 135 0020 83F31188 		msr     BASEPRI, r3
 136              	@ 0 "" 2
 137              	.LVL11:
 138              		.thumb
 139              	.LBE5:
 140              		.loc 1 271 0
 141 0024 38BD     		pop	{r3, r4, r5, pc}
 142              		.cfi_endproc
 143              	.LFE122:
 144              		.size	usbStart, .-usbStart
 145 0026 00BFAFF3 		.section	.text.usbStop,"ax",%progbits
 145      0080AFF3 
 145      0080
 146              		.align	2
 147              		.p2align 4,,15
 148              		.global	usbStop
 149              		.thumb
 150              		.thumb_func
 151              		.type	usbStop, %function
 152              	usbStop:
 153              	.LFB123:
 154              		.loc 1 280 0
 155              		.cfi_startproc
 156              		@ args = 0, pretend = 0, frame = 0
 157              		@ frame_needed = 0, uses_anonymous_args = 0
 158              	.LVL12:
 159 0000 10B5     		push	{r4, lr}
 160              	.LCFI1:
 161              		.cfi_def_cfa_offset 8
 162              	.LBB6:
 163              		.loc 1 284 0
ARM GAS  C:\Users\DNIEL~1\AppData\Local\Temp\ccrwg8uE.s 			page 4


 164 0002 2023     		movs	r3, #32
 165              	.LVL13:
 166              	.LBE6:
 167              		.loc 1 280 0
 168 0004 0446     		mov	r4, r0
 169              		.cfi_offset 14, -4
 170              		.cfi_offset 4, -8
 171              	.LBB7:
 172              		.loc 1 284 0
 173              	@ 284 "../../../ChibiOS/os/hal/src/usb.c" 1
 174 0006 83F31188 		msr     BASEPRI, r3
 175              	@ 0 "" 2
 176              	.LVL14:
 177              		.thumb
 178              	.LBE7:
 179              		.loc 1 287 0
 180 000a FFF7FEFF 		bl	usb_lld_stop
 181              	.LVL15:
 182              		.loc 1 288 0
 183 000e 0123     		movs	r3, #1
 184 0010 2370     		strb	r3, [r4, #0]
 185              	.LBB8:
 186              		.loc 1 289 0
 187 0012 0023     		movs	r3, #0
 188              	.LVL16:
 189              	@ 289 "../../../ChibiOS/os/hal/src/usb.c" 1
 190 0014 83F31188 		msr     BASEPRI, r3
 191              	@ 0 "" 2
 192              	.LVL17:
 193              		.thumb
 194              	.LBE8:
 195              		.loc 1 290 0
 196 0018 10BD     		pop	{r4, pc}
 197              		.cfi_endproc
 198              	.LFE123:
 199              		.size	usbStop, .-usbStop
 200 001a 00BFAFF3 		.section	.text.usbInitEndpointI,"ax",%progbits
 200      0080
 201              		.align	2
 202              		.p2align 4,,15
 203              		.global	usbInitEndpointI
 204              		.thumb
 205              		.thumb_func
 206              		.type	usbInitEndpointI, %function
 207              	usbInitEndpointI:
 208              	.LFB124:
 209              		.loc 1 306 0
 210              		.cfi_startproc
 211              		@ args = 0, pretend = 0, frame = 0
 212              		@ frame_needed = 0, uses_anonymous_args = 0
 213              		@ link register save eliminated.
 214              	.LVL18:
 215 0000 0346     		mov	r3, r0
 216              		.loc 1 316 0
 217 0002 5069     		ldr	r0, [r2, #20]
 218              	.LVL19:
 219              		.loc 1 306 0
ARM GAS  C:\Users\DNIEL~1\AppData\Local\Temp\ccrwg8uE.s 			page 5


 220 0004 30B4     		push	{r4, r5}
 221              	.LCFI2:
 222              		.cfi_def_cfa_offset 8
 223              		.loc 1 316 0
 224 0006 40B1     		cbz	r0, .L6
 225              		.cfi_offset 5, -4
 226              		.cfi_offset 4, -8
 227              		.loc 1 317 0
 228 0008 0546     		mov	r5, r0
 229 000a 0024     		movs	r4, #0
 230 000c 45F8044B 		str	r4, [r5], #4
 231 0010 0435     		adds	r5, r5, #4
 232 0012 4460     		str	r4, [r0, #4]
 233 0014 45F8044B 		str	r4, [r5], #4
 234 0018 2C60     		str	r4, [r5, #0]
 235              	.L6:
 236              		.loc 1 318 0
 237 001a 9469     		ldr	r4, [r2, #24]
 238 001c 44B1     		cbz	r4, .L7
 239              		.loc 1 319 0
 240 001e 2546     		mov	r5, r4
 241 0020 0020     		movs	r0, #0
 242 0022 45F8040B 		str	r0, [r5], #4
 243 0026 0435     		adds	r5, r5, #4
 244 0028 6060     		str	r0, [r4, #4]
 245 002a 45F8040B 		str	r0, [r5], #4
 246 002e 2860     		str	r0, [r5, #0]
 247              	.L7:
 248              		.loc 1 321 0
 249 0030 0C1D     		adds	r4, r1, #4
 250              		.loc 1 324 0
 251 0032 1846     		mov	r0, r3
 252              		.loc 1 321 0
 253 0034 43F82420 		str	r2, [r3, r4, lsl #2]
 254              		.loc 1 325 0
 255 0038 30BC     		pop	{r4, r5}
 256              		.loc 1 324 0
 257 003a FFF7FEBF 		b	usb_lld_init_endpoint
 258              		.cfi_endproc
 259              	.LFE124:
 260              		.size	usbInitEndpointI, .-usbInitEndpointI
 261 003e 00BF     		.section	.text.usbDisableEndpointsI,"ax",%progbits
 262              		.align	2
 263              		.p2align 4,,15
 264              		.global	usbDisableEndpointsI
 265              		.thumb
 266              		.thumb_func
 267              		.type	usbDisableEndpointsI, %function
 268              	usbDisableEndpointsI:
 269              	.LFB125:
 270              		.loc 1 338 0
 271              		.cfi_startproc
 272              		@ args = 0, pretend = 0, frame = 0
 273              		@ frame_needed = 0, uses_anonymous_args = 0
 274              		@ link register save eliminated.
 275              	.LVL20:
 276 0000 10B4     		push	{r4}
ARM GAS  C:\Users\DNIEL~1\AppData\Local\Temp\ccrwg8uE.s 			page 6


 277              	.LCFI3:
 278              		.cfi_def_cfa_offset 4
 279              		.loc 1 347 0
 280 0002 C389     		ldrh	r3, [r0, #14]
 281              		.loc 1 346 0
 282 0004 8489     		ldrh	r4, [r0, #12]
 283              		.cfi_offset 4, -4
 284              		.loc 1 349 0
 285 0006 0022     		movs	r2, #0
 286              		.loc 1 346 0
 287 0008 24F00104 		bic	r4, r4, #1
 288              		.loc 1 347 0
 289 000c 23F00101 		bic	r1, r3, #1
 290              		.loc 1 349 0
 291 0010 4261     		str	r2, [r0, #20]
 292              		.loc 1 346 0
 293 0012 8481     		strh	r4, [r0, #12]	@ movhi
 294              		.loc 1 347 0
 295 0014 C181     		strh	r1, [r0, #14]	@ movhi
 296              	.LVL21:
 297              		.loc 1 349 0
 298 0016 8261     		str	r2, [r0, #24]
 299              	.LVL22:
 300 0018 C261     		str	r2, [r0, #28]
 301              	.LVL23:
 302              		.loc 1 353 0
 303 001a 10BC     		pop	{r4}
 304              		.loc 1 352 0
 305 001c FFF7FEBF 		b	usb_lld_disable_endpoints
 306              		.cfi_endproc
 307              	.LFE125:
 308              		.size	usbDisableEndpointsI, .-usbDisableEndpointsI
 309              		.section	.text.usbPrepareReceive,"ax",%progbits
 310              		.align	2
 311              		.p2align 4,,15
 312              		.global	usbPrepareReceive
 313              		.thumb
 314              		.thumb_func
 315              		.type	usbPrepareReceive, %function
 316              	usbPrepareReceive:
 317              	.LFB126:
 318              		.loc 1 367 0
 319              		.cfi_startproc
 320              		@ args = 0, pretend = 0, frame = 0
 321              		@ frame_needed = 0, uses_anonymous_args = 0
 322              		@ link register save eliminated.
 323              	.LVL24:
 324 0000 30B4     		push	{r4, r5}
 325              	.LCFI4:
 326              		.cfi_def_cfa_offset 8
 327              		.loc 1 368 0
 328 0002 0C1D     		adds	r4, r1, #4
 329              		.cfi_offset 5, -4
 330              		.cfi_offset 4, -8
 331              		.loc 1 370 0
 332 0004 0025     		movs	r5, #0
 333              		.loc 1 368 0
ARM GAS  C:\Users\DNIEL~1\AppData\Local\Temp\ccrwg8uE.s 			page 7


 334 0006 50F82440 		ldr	r4, [r0, r4, lsl #2]
 335 000a A469     		ldr	r4, [r4, #24]
 336              	.LVL25:
 337              		.loc 1 370 0
 338 000c 2560     		str	r5, [r4, #0]
 339              		.loc 1 371 0
 340 000e E260     		str	r2, [r4, #12]
 341              		.loc 1 372 0
 342 0010 6360     		str	r3, [r4, #4]
 343              		.loc 1 373 0
 344 0012 A560     		str	r5, [r4, #8]
 345              		.loc 1 376 0
 346 0014 30BC     		pop	{r4, r5}
 347              		.loc 1 375 0
 348 0016 FFF7FEBF 		b	usb_lld_prepare_receive
 349              		.cfi_endproc
 350              	.LFE126:
 351              		.size	usbPrepareReceive, .-usbPrepareReceive
 352 001a 00BFAFF3 		.section	.text.usbPrepareTransmit,"ax",%progbits
 352      0080
 353              		.align	2
 354              		.p2align 4,,15
 355              		.global	usbPrepareTransmit
 356              		.thumb
 357              		.thumb_func
 358              		.type	usbPrepareTransmit, %function
 359              	usbPrepareTransmit:
 360              	.LFB127:
 361              		.loc 1 393 0
 362              		.cfi_startproc
 363              		@ args = 0, pretend = 0, frame = 0
 364              		@ frame_needed = 0, uses_anonymous_args = 0
 365              		@ link register save eliminated.
 366              	.LVL26:
 367 0000 30B4     		push	{r4, r5}
 368              	.LCFI5:
 369              		.cfi_def_cfa_offset 8
 370              		.loc 1 394 0
 371 0002 0C1D     		adds	r4, r1, #4
 372              		.cfi_offset 5, -4
 373              		.cfi_offset 4, -8
 374              		.loc 1 396 0
 375 0004 0025     		movs	r5, #0
 376              		.loc 1 394 0
 377 0006 50F82440 		ldr	r4, [r0, r4, lsl #2]
 378 000a 6469     		ldr	r4, [r4, #20]
 379              	.LVL27:
 380              		.loc 1 396 0
 381 000c 2560     		str	r5, [r4, #0]
 382              		.loc 1 397 0
 383 000e E260     		str	r2, [r4, #12]
 384              		.loc 1 398 0
 385 0010 6360     		str	r3, [r4, #4]
 386              		.loc 1 399 0
 387 0012 A560     		str	r5, [r4, #8]
 388              		.loc 1 402 0
 389 0014 30BC     		pop	{r4, r5}
ARM GAS  C:\Users\DNIEL~1\AppData\Local\Temp\ccrwg8uE.s 			page 8


 390              		.loc 1 401 0
 391 0016 FFF7FEBF 		b	usb_lld_prepare_transmit
 392              		.cfi_endproc
 393              	.LFE127:
 394              		.size	usbPrepareTransmit, .-usbPrepareTransmit
 395 001a 00BFAFF3 		.section	.text.usbPrepareQueuedReceive,"ax",%progbits
 395      0080
 396              		.align	2
 397              		.p2align 4,,15
 398              		.global	usbPrepareQueuedReceive
 399              		.thumb
 400              		.thumb_func
 401              		.type	usbPrepareQueuedReceive, %function
 402              	usbPrepareQueuedReceive:
 403              	.LFB128:
 404              		.loc 1 422 0
 405              		.cfi_startproc
 406              		@ args = 0, pretend = 0, frame = 0
 407              		@ frame_needed = 0, uses_anonymous_args = 0
 408              		@ link register save eliminated.
 409              	.LVL28:
 410 0000 30B4     		push	{r4, r5}
 411              	.LCFI6:
 412              		.cfi_def_cfa_offset 8
 413              		.loc 1 423 0
 414 0002 0D1D     		adds	r5, r1, #4
 415              		.cfi_offset 5, -4
 416              		.cfi_offset 4, -8
 417 0004 50F82540 		ldr	r4, [r0, r5, lsl #2]
 418 0008 A469     		ldr	r4, [r4, #24]
 419              	.LVL29:
 420              		.loc 1 425 0
 421 000a 0125     		movs	r5, #1
 422              		.loc 1 427 0
 423 000c 6360     		str	r3, [r4, #4]
 424              		.loc 1 428 0
 425 000e 0023     		movs	r3, #0
 426              	.LVL30:
 427              		.loc 1 425 0
 428 0010 2560     		str	r5, [r4, #0]
 429              		.loc 1 426 0
 430 0012 E260     		str	r2, [r4, #12]
 431              		.loc 1 428 0
 432 0014 A360     		str	r3, [r4, #8]
 433              		.loc 1 431 0
 434 0016 30BC     		pop	{r4, r5}
 435              		.loc 1 430 0
 436 0018 FFF7FEBF 		b	usb_lld_prepare_receive
 437              		.cfi_endproc
 438              	.LFE128:
 439              		.size	usbPrepareQueuedReceive, .-usbPrepareQueuedReceive
 440 001c AFF30080 		.section	.text.usbPrepareQueuedTransmit,"ax",%progbits
 441              		.align	2
 442              		.p2align 4,,15
 443              		.global	usbPrepareQueuedTransmit
 444              		.thumb
 445              		.thumb_func
ARM GAS  C:\Users\DNIEL~1\AppData\Local\Temp\ccrwg8uE.s 			page 9


 446              		.type	usbPrepareQueuedTransmit, %function
 447              	usbPrepareQueuedTransmit:
 448              	.LFB129:
 449              		.loc 1 448 0
 450              		.cfi_startproc
 451              		@ args = 0, pretend = 0, frame = 0
 452              		@ frame_needed = 0, uses_anonymous_args = 0
 453              		@ link register save eliminated.
 454              	.LVL31:
 455 0000 30B4     		push	{r4, r5}
 456              	.LCFI7:
 457              		.cfi_def_cfa_offset 8
 458              		.loc 1 449 0
 459 0002 0D1D     		adds	r5, r1, #4
 460              		.cfi_offset 5, -4
 461              		.cfi_offset 4, -8
 462 0004 50F82540 		ldr	r4, [r0, r5, lsl #2]
 463 0008 6469     		ldr	r4, [r4, #20]
 464              	.LVL32:
 465              		.loc 1 451 0
 466 000a 0125     		movs	r5, #1
 467              		.loc 1 453 0
 468 000c 6360     		str	r3, [r4, #4]
 469              		.loc 1 454 0
 470 000e 0023     		movs	r3, #0
 471              	.LVL33:
 472              		.loc 1 451 0
 473 0010 2560     		str	r5, [r4, #0]
 474              		.loc 1 452 0
 475 0012 E260     		str	r2, [r4, #12]
 476              		.loc 1 454 0
 477 0014 A360     		str	r3, [r4, #8]
 478              		.loc 1 457 0
 479 0016 30BC     		pop	{r4, r5}
 480              		.loc 1 456 0
 481 0018 FFF7FEBF 		b	usb_lld_prepare_transmit
 482              		.cfi_endproc
 483              	.LFE129:
 484              		.size	usbPrepareQueuedTransmit, .-usbPrepareQueuedTransmit
 485 001c AFF30080 		.section	.text.usbStartReceiveI,"ax",%progbits
 486              		.align	2
 487              		.p2align 4,,15
 488              		.global	usbStartReceiveI
 489              		.thumb
 490              		.thumb_func
 491              		.type	usbStartReceiveI, %function
 492              	usbStartReceiveI:
 493              	.LFB130:
 494              		.loc 1 473 0
 495              		.cfi_startproc
 496              		@ args = 0, pretend = 0, frame = 0
 497              		@ frame_needed = 0, uses_anonymous_args = 0
 498              	.LVL34:
 499 0000 70B5     		push	{r4, r5, r6, lr}
 500              	.LCFI8:
 501              		.cfi_def_cfa_offset 16
 502              		.loc 1 478 0
ARM GAS  C:\Users\DNIEL~1\AppData\Local\Temp\ccrwg8uE.s 			page 10


 503 0002 C489     		ldrh	r4, [r0, #14]
 504              		.cfi_offset 14, -4
 505              		.cfi_offset 6, -8
 506              		.cfi_offset 5, -12
 507              		.cfi_offset 4, -16
 508 0004 54FA01F3 		asrs	r3, r4, r1
 509 0008 13F00106 		ands	r6, r3, #1
 510 000c 01D0     		beq	.L17
 511              		.loc 1 479 0
 512 000e 0120     		movs	r0, #1
 513              	.LVL35:
 514              		.loc 1 484 0
 515 0010 70BD     		pop	{r4, r5, r6, pc}
 516              	.LVL36:
 517              	.L17:
 518              		.loc 1 481 0
 519 0012 0122     		movs	r2, #1
 520 0014 12FA01F5 		lsls	r5, r2, r1
 521 0018 45EA0404 		orr	r4, r5, r4
 522 001c C481     		strh	r4, [r0, #14]	@ movhi
 523              		.loc 1 482 0
 524 001e FFF7FEFF 		bl	usb_lld_start_out
 525              	.LVL37:
 526              		.loc 1 483 0
 527 0022 3046     		mov	r0, r6
 528 0024 70BD     		pop	{r4, r5, r6, pc}
 529              		.cfi_endproc
 530              	.LFE130:
 531              		.size	usbStartReceiveI, .-usbStartReceiveI
 532              		.section	.text.usbStartTransmitI,"ax",%progbits
 533              		.align	2
 534              		.p2align 4,,15
 535              		.global	usbStartTransmitI
 536              		.thumb
 537              		.thumb_func
 538              		.type	usbStartTransmitI, %function
 539              	usbStartTransmitI:
 540              	.LFB131:
 541              		.loc 1 500 0
 542              		.cfi_startproc
 543              		@ args = 0, pretend = 0, frame = 0
 544              		@ frame_needed = 0, uses_anonymous_args = 0
 545              	.LVL38:
 546 0000 70B5     		push	{r4, r5, r6, lr}
 547              	.LCFI9:
 548              		.cfi_def_cfa_offset 16
 549              		.loc 1 505 0
 550 0002 8489     		ldrh	r4, [r0, #12]
 551              		.cfi_offset 14, -4
 552              		.cfi_offset 6, -8
 553              		.cfi_offset 5, -12
 554              		.cfi_offset 4, -16
 555 0004 54FA01F3 		asrs	r3, r4, r1
 556 0008 13F00106 		ands	r6, r3, #1
 557 000c 01D0     		beq	.L21
 558              		.loc 1 506 0
 559 000e 0120     		movs	r0, #1
ARM GAS  C:\Users\DNIEL~1\AppData\Local\Temp\ccrwg8uE.s 			page 11


 560              	.LVL39:
 561              		.loc 1 511 0
 562 0010 70BD     		pop	{r4, r5, r6, pc}
 563              	.LVL40:
 564              	.L21:
 565              		.loc 1 508 0
 566 0012 0122     		movs	r2, #1
 567 0014 12FA01F5 		lsls	r5, r2, r1
 568 0018 45EA0404 		orr	r4, r5, r4
 569 001c 8481     		strh	r4, [r0, #12]	@ movhi
 570              		.loc 1 509 0
 571 001e FFF7FEFF 		bl	usb_lld_start_in
 572              	.LVL41:
 573              		.loc 1 510 0
 574 0022 3046     		mov	r0, r6
 575 0024 70BD     		pop	{r4, r5, r6, pc}
 576              		.cfi_endproc
 577              	.LFE131:
 578              		.size	usbStartTransmitI, .-usbStartTransmitI
 579              		.section	.text.usbStallReceiveI,"ax",%progbits
 580              		.align	2
 581              		.p2align 4,,15
 582              		.global	usbStallReceiveI
 583              		.thumb
 584              		.thumb_func
 585              		.type	usbStallReceiveI, %function
 586              	usbStallReceiveI:
 587              	.LFB132:
 588              		.loc 1 525 0
 589              		.cfi_startproc
 590              		@ args = 0, pretend = 0, frame = 0
 591              		@ frame_needed = 0, uses_anonymous_args = 0
 592              	.LVL42:
 593              		.loc 1 530 0
 594 0000 C289     		ldrh	r2, [r0, #14]
 595 0002 52FA01F3 		asrs	r3, r2, r1
 596              		.loc 1 525 0
 597 0006 10B5     		push	{r4, lr}
 598              	.LCFI10:
 599              		.cfi_def_cfa_offset 8
 600              		.loc 1 530 0
 601 0008 13F00104 		ands	r4, r3, #1
 602              		.cfi_offset 14, -4
 603              		.cfi_offset 4, -8
 604 000c 01D0     		beq	.L25
 605              		.loc 1 531 0
 606 000e 0120     		movs	r0, #1
 607              	.LVL43:
 608              		.loc 1 535 0
 609 0010 10BD     		pop	{r4, pc}
 610              	.LVL44:
 611              	.L25:
 612              		.loc 1 533 0
 613 0012 FFF7FEFF 		bl	usb_lld_stall_out
 614              	.LVL45:
 615              		.loc 1 534 0
 616 0016 2046     		mov	r0, r4
ARM GAS  C:\Users\DNIEL~1\AppData\Local\Temp\ccrwg8uE.s 			page 12


 617 0018 10BD     		pop	{r4, pc}
 618              		.cfi_endproc
 619              	.LFE132:
 620              		.size	usbStallReceiveI, .-usbStallReceiveI
 621 001a 00BFAFF3 		.section	.text.usbStallTransmitI,"ax",%progbits
 621      0080
 622              		.align	2
 623              		.p2align 4,,15
 624              		.global	usbStallTransmitI
 625              		.thumb
 626              		.thumb_func
 627              		.type	usbStallTransmitI, %function
 628              	usbStallTransmitI:
 629              	.LFB133:
 630              		.loc 1 549 0
 631              		.cfi_startproc
 632              		@ args = 0, pretend = 0, frame = 0
 633              		@ frame_needed = 0, uses_anonymous_args = 0
 634              	.LVL46:
 635              		.loc 1 554 0
 636 0000 8289     		ldrh	r2, [r0, #12]
 637 0002 52FA01F3 		asrs	r3, r2, r1
 638              		.loc 1 549 0
 639 0006 10B5     		push	{r4, lr}
 640              	.LCFI11:
 641              		.cfi_def_cfa_offset 8
 642              		.loc 1 554 0
 643 0008 13F00104 		ands	r4, r3, #1
 644              		.cfi_offset 14, -4
 645              		.cfi_offset 4, -8
 646 000c 01D0     		beq	.L29
 647              		.loc 1 555 0
 648 000e 0120     		movs	r0, #1
 649              	.LVL47:
 650              		.loc 1 559 0
 651 0010 10BD     		pop	{r4, pc}
 652              	.LVL48:
 653              	.L29:
 654              		.loc 1 557 0
 655 0012 FFF7FEFF 		bl	usb_lld_stall_in
 656              	.LVL49:
 657              		.loc 1 558 0
 658 0016 2046     		mov	r0, r4
 659 0018 10BD     		pop	{r4, pc}
 660              		.cfi_endproc
 661              	.LFE133:
 662              		.size	usbStallTransmitI, .-usbStallTransmitI
 663 001a 00BFAFF3 		.section	.text._usb_reset,"ax",%progbits
 663      0080
 664              		.align	2
 665              		.p2align 4,,15
 666              		.global	_usb_reset
 667              		.thumb
 668              		.thumb_func
 669              		.type	_usb_reset, %function
 670              	_usb_reset:
 671              	.LFB134:
ARM GAS  C:\Users\DNIEL~1\AppData\Local\Temp\ccrwg8uE.s 			page 13


 672              		.loc 1 570 0
 673              		.cfi_startproc
 674              		@ args = 0, pretend = 0, frame = 0
 675              		@ frame_needed = 0, uses_anonymous_args = 0
 676              		@ link register save eliminated.
 677              	.LVL50:
 678 0000 10B4     		push	{r4}
 679              	.LCFI12:
 680              		.cfi_def_cfa_offset 4
 681              		.loc 1 574 0
 682 0002 0022     		movs	r2, #0
 683              		.loc 1 573 0
 684 0004 0224     		movs	r4, #2
 685              		.cfi_offset 4, -4
 686 0006 0470     		strb	r4, [r0, #0]
 687              		.loc 1 574 0
 688 0008 0287     		strh	r2, [r0, #56]	@ movhi
 689              		.loc 1 575 0
 690 000a 80F83A20 		strb	r2, [r0, #58]
 691              		.loc 1 576 0
 692 000e 80F83B20 		strb	r2, [r0, #59]
 693              		.loc 1 577 0
 694 0012 8281     		strh	r2, [r0, #12]	@ movhi
 695              		.loc 1 578 0
 696 0014 C281     		strh	r2, [r0, #14]	@ movhi
 697              	.LVL51:
 698              		.loc 1 582 0
 699 0016 0261     		str	r2, [r0, #16]
 700              	.LVL52:
 701 0018 4261     		str	r2, [r0, #20]
 702              	.LVL53:
 703 001a 8261     		str	r2, [r0, #24]
 704              	.LVL54:
 705 001c C261     		str	r2, [r0, #28]
 706              	.LVL55:
 707              		.loc 1 585 0
 708 001e 80F82020 		strb	r2, [r0, #32]
 709              		.loc 1 589 0
 710 0022 10BC     		pop	{r4}
 711              		.loc 1 588 0
 712 0024 FFF7FEBF 		b	usb_lld_reset
 713              		.cfi_endproc
 714              	.LFE134:
 715              		.size	_usb_reset, .-_usb_reset
 716 0028 AFF30080 		.section	.text._usb_ep0setup,"ax",%progbits
 716      AFF30080 
 717              		.align	2
 718              		.p2align 4,,15
 719              		.global	_usb_ep0setup
 720              		.thumb
 721              		.thumb_func
 722              		.type	_usb_ep0setup, %function
 723              	_usb_ep0setup:
 724              	.LFB135:
 725              		.loc 1 601 0
 726              		.cfi_startproc
 727              		@ args = 0, pretend = 0, frame = 0
ARM GAS  C:\Users\DNIEL~1\AppData\Local\Temp\ccrwg8uE.s 			page 14


 728              		@ frame_needed = 0, uses_anonymous_args = 0
 729              	.LVL56:
 730 0000 F8B5     		push	{r3, r4, r5, r6, r7, lr}
 731              	.LCFI13:
 732              		.cfi_def_cfa_offset 24
 733              		.loc 1 604 0
 734 0002 0022     		movs	r2, #0
 735              		.loc 1 601 0
 736 0004 0446     		mov	r4, r0
 737              		.cfi_offset 14, -4
 738              		.cfi_offset 7, -8
 739              		.cfi_offset 6, -12
 740              		.cfi_offset 5, -16
 741              		.cfi_offset 4, -20
 742              		.cfi_offset 3, -24
 743              		.loc 1 604 0
 744 0006 80F82020 		strb	r2, [r0, #32]
 745              		.loc 1 605 0
 746 000a 00F13002 		add	r2, r0, #48
 747 000e FFF7FEFF 		bl	usb_lld_read_setup
 748              	.LVL57:
 749              		.loc 1 609 0
 750 0012 6368     		ldr	r3, [r4, #4]
 751 0014 9B68     		ldr	r3, [r3, #8]
 752 0016 4BB3     		cbz	r3, .L32
 753              		.loc 1 610 0 discriminator 1
 754 0018 2046     		mov	r0, r4
 755 001a 9847     		blx	r3
 756              		.loc 1 609 0 discriminator 1
 757 001c 30B3     		cbz	r0, .L32
 758              		.loc 1 622 0
 759 001e A56A     		ldr	r5, [r4, #40]
 760 0020 94F83030 		ldrb	r3, [r4, #48]	@ zero_extendqisi2
 761              	.L71:
 762              		.loc 1 629 0
 763 0024 94F837C0 		ldrb	ip, [r4, #55]	@ zero_extendqisi2
 764 0028 94F836E0 		ldrb	lr, [r4, #54]	@ zero_extendqisi2
 765 002c 4EEA0C21 		orr	r1, lr, ip, lsl #8
 766              	.LVL58:
 767              		.loc 1 631 0
 768 0030 A942     		cmp	r1, r5
 769              		.loc 1 632 0
 770 0032 3CBF     		itt	cc
 771 0034 A162     		strcc	r1, [r4, #40]
 772 0036 0D46     		movcc	r5, r1
 773              		.loc 1 633 0
 774 0038 13F0800F 		tst	r3, #128
 775 003c 40F08280 		bne	.L74
 776              		.loc 1 655 0
 777 0040 002D     		cmp	r5, #0
 778 0042 6BD1     		bne	.L75
 779              		.loc 1 666 0
 780 0044 0420     		movs	r0, #4
 781              		.loc 1 667 0
 782 0046 2B46     		mov	r3, r5
 783              		.loc 1 666 0
 784 0048 84F82000 		strb	r0, [r4, #32]
ARM GAS  C:\Users\DNIEL~1\AppData\Local\Temp\ccrwg8uE.s 			page 15


 785              		.loc 1 667 0
 786 004c 2946     		mov	r1, r5
 787              	.LVL59:
 788 004e 2046     		mov	r0, r4
 789 0050 2A46     		mov	r2, r5
 790 0052 FFF7FEFF 		bl	usbPrepareTransmit
 791              	.LVL60:
 792              	.LBB21:
 793              		.loc 1 668 0
 794 0056 2023     		movs	r3, #32
 795              	.LVL61:
 796              	@ 668 "../../../ChibiOS/os/hal/src/usb.c" 1
 797 0058 83F31188 		msr     BASEPRI, r3
 798              	@ 0 "" 2
 799              	.LVL62:
 800              		.thumb
 801              	.LBE21:
 802              		.loc 1 669 0
 803 005c 2046     		mov	r0, r4
 804 005e 2946     		mov	r1, r5
 805 0060 FFF7FEFF 		bl	usbStartTransmitI
 806              	.LVL63:
 807              	.LBB22:
 808              		.loc 1 670 0
 809 0064 2B46     		mov	r3, r5
 810              	.LVL64:
 811              	@ 670 "../../../ChibiOS/os/hal/src/usb.c" 1
 812 0066 83F31188 		msr     BASEPRI, r3
 813              	@ 0 "" 2
 814              	.LVL65:
 815              		.thumb
 816 006a F8BD     		pop	{r3, r4, r5, r6, r7, pc}
 817              	.LVL66:
 818              	.L32:
 819              	.LBE22:
 820              		.loc 1 613 0
 821 006c 94F83030 		ldrb	r3, [r4, #48]	@ zero_extendqisi2
 822 0070 13F06006 		ands	r6, r3, #96
 823 0074 1A46     		mov	r2, r3
 824 0076 11D0     		beq	.L76
 825              	.L34:
 826              		.loc 1 618 0
 827 0078 0021     		movs	r1, #0
 828 007a 2046     		mov	r0, r4
 829 007c FFF7FEFF 		bl	usb_lld_stall_in
 830              		.loc 1 619 0
 831 0080 2046     		mov	r0, r4
 832 0082 0021     		movs	r1, #0
 833 0084 FFF7FEFF 		bl	usb_lld_stall_out
 834              		.loc 1 620 0
 835 0088 6268     		ldr	r2, [r4, #4]
 836 008a 1368     		ldr	r3, [r2, #0]
 837 008c 13B1     		cbz	r3, .L65
 838              		.loc 1 620 0 is_stmt 0 discriminator 1
 839 008e 2046     		mov	r0, r4
 840 0090 0521     		movs	r1, #5
 841 0092 9847     		blx	r3
ARM GAS  C:\Users\DNIEL~1\AppData\Local\Temp\ccrwg8uE.s 			page 16


 842              	.L65:
 843              		.loc 1 621 0 is_stmt 1
 844 0094 0523     		movs	r3, #5
 845 0096 84F82030 		strb	r3, [r4, #32]
 846              		.loc 1 622 0
 847 009a F8BD     		pop	{r3, r4, r5, r6, r7, pc}
 848              	.L76:
 849              	.LVL67:
 850              	.LBB23:
 851              	.LBB24:
 852              		.loc 1 88 0
 853 009c 94F83170 		ldrb	r7, [r4, #49]	@ zero_extendqisi2
 854              		.loc 1 86 0
 855 00a0 03F07F01 		and	r1, r3, #127
 856              		.loc 1 87 0
 857 00a4 41EA0727 		orr	r7, r1, r7, lsl #8
 858              		.loc 1 86 0
 859 00a8 B7F5407F 		cmp	r7, #768
 860 00ac 00F0FD80 		beq	.L41
 861 00b0 16DD     		ble	.L77
 862 00b2 B7F5C06F 		cmp	r7, #1536
 863 00b6 00F08D80 		beq	.L44
 864 00ba 6CDD     		ble	.L78
 865 00bc B7F5106F 		cmp	r7, #2304
 866 00c0 00F0B780 		beq	.L46
 867 00c4 40F6024C 		movw	ip, #3074
 868 00c8 6745     		cmp	r7, ip
 869 00ca 7CD0     		beq	.L37
 870 00cc B7F5006F 		cmp	r7, #2048
 871 00d0 D2D1     		bne	.L34
 872              		.loc 1 135 0
 873 00d2 0125     		movs	r5, #1
 874 00d4 04F13B01 		add	r1, r4, #59
 875 00d8 6162     		str	r1, [r4, #36]
 876 00da A562     		str	r5, [r4, #40]
 877 00dc E662     		str	r6, [r4, #44]
 878 00de A1E7     		b	.L71
 879              	.L77:
 880              		.loc 1 86 0
 881 00e0 022F     		cmp	r7, #2
 882 00e2 00F0B880 		beq	.L38
 883 00e6 69DD     		ble	.L79
 884 00e8 B7F5807F 		cmp	r7, #256
 885 00ec 00F08B80 		beq	.L39
 886 00f0 B7F5817F 		cmp	r7, #258
 887 00f4 C0D1     		bne	.L34
 888              		.loc 1 181 0
 889 00f6 94F83210 		ldrb	r1, [r4, #50]	@ zero_extendqisi2
 890 00fa 0029     		cmp	r1, #0
 891 00fc BCD1     		bne	.L34
 892              		.loc 1 184 0
 893 00fe 94F83430 		ldrb	r3, [r4, #52]	@ zero_extendqisi2
 894 0102 13F00F01 		ands	r1, r3, #15
 895 0106 53D0     		beq	.L63
 896              		.loc 1 185 0
 897 0108 13F0800F 		tst	r3, #128
 898 010c 40F00081 		bne	.L80
ARM GAS  C:\Users\DNIEL~1\AppData\Local\Temp\ccrwg8uE.s 			page 17


 899              		.loc 1 188 0
 900 0110 2046     		mov	r0, r4
 901 0112 FFF7FEFF 		bl	usb_lld_clear_out
 902 0116 94F83020 		ldrb	r2, [r4, #48]	@ zero_extendqisi2
 903 011a 49E0     		b	.L63
 904              	.LVL68:
 905              	.L75:
 906              	.LBE24:
 907              	.LBE23:
 908              		.loc 1 657 0
 909 011c 0321     		movs	r1, #3
 910              	.LVL69:
 911              		.loc 1 658 0
 912 011e 2B46     		mov	r3, r5
 913              		.loc 1 657 0
 914 0120 84F82010 		strb	r1, [r4, #32]
 915              		.loc 1 658 0
 916 0124 2046     		mov	r0, r4
 917 0126 0021     		movs	r1, #0
 918 0128 626A     		ldr	r2, [r4, #36]
 919 012a FFF7FEFF 		bl	usbPrepareReceive
 920              	.LVL70:
 921              	.LBB28:
 922              		.loc 1 659 0
 923 012e 2023     		movs	r3, #32
 924              	.LVL71:
 925              	@ 659 "../../../ChibiOS/os/hal/src/usb.c" 1
 926 0130 83F31188 		msr     BASEPRI, r3
 927              	@ 0 "" 2
 928              	.LVL72:
 929              		.thumb
 930              	.LBE28:
 931              		.loc 1 660 0
 932 0134 0021     		movs	r1, #0
 933 0136 2046     		mov	r0, r4
 934 0138 FFF7FEFF 		bl	usbStartReceiveI
 935              	.LVL73:
 936              	.LBB29:
 937              		.loc 1 661 0
 938 013c 0023     		movs	r3, #0
 939              	.LVL74:
 940              	@ 661 "../../../ChibiOS/os/hal/src/usb.c" 1
 941 013e 83F31188 		msr     BASEPRI, r3
 942              	@ 0 "" 2
 943              	.LVL75:
 944              		.thumb
 945 0142 F8BD     		pop	{r3, r4, r5, r6, r7, pc}
 946              	.LVL76:
 947              	.L74:
 948              	.LBE29:
 949              		.loc 1 635 0
 950 0144 9DB1     		cbz	r5, .L69
 951              		.loc 1 637 0
 952 0146 0120     		movs	r0, #1
 953              		.loc 1 638 0
 954 0148 2B46     		mov	r3, r5
 955              		.loc 1 637 0
ARM GAS  C:\Users\DNIEL~1\AppData\Local\Temp\ccrwg8uE.s 			page 18


 956 014a 84F82000 		strb	r0, [r4, #32]
 957              		.loc 1 638 0
 958 014e 0021     		movs	r1, #0
 959              	.LVL77:
 960 0150 2046     		mov	r0, r4
 961 0152 626A     		ldr	r2, [r4, #36]
 962 0154 FFF7FEFF 		bl	usbPrepareTransmit
 963              	.LVL78:
 964              	.LBB30:
 965              		.loc 1 639 0
 966 0158 2023     		movs	r3, #32
 967              	.LVL79:
 968              	@ 639 "../../../ChibiOS/os/hal/src/usb.c" 1
 969 015a 83F31188 		msr     BASEPRI, r3
 970              	@ 0 "" 2
 971              	.LVL80:
 972              		.thumb
 973              	.LBE30:
 974              		.loc 1 640 0
 975 015e 0021     		movs	r1, #0
 976 0160 2046     		mov	r0, r4
 977 0162 FFF7FEFF 		bl	usbStartTransmitI
 978              	.LVL81:
 979              	.LBB31:
 980              		.loc 1 641 0
 981 0166 0023     		movs	r3, #0
 982              	.LVL82:
 983              	@ 641 "../../../ChibiOS/os/hal/src/usb.c" 1
 984 0168 83F31188 		msr     BASEPRI, r3
 985              	@ 0 "" 2
 986              	.LVL83:
 987              		.thumb
 988 016c F8BD     		pop	{r3, r4, r5, r6, r7, pc}
 989              	.LVL84:
 990              	.L69:
 991              	.LBE31:
 992              		.loc 1 646 0
 993 016e 0222     		movs	r2, #2
 994              		.loc 1 647 0
 995 0170 2B46     		mov	r3, r5
 996              		.loc 1 646 0
 997 0172 84F82020 		strb	r2, [r4, #32]
 998              		.loc 1 647 0
 999 0176 2046     		mov	r0, r4
 1000 0178 2946     		mov	r1, r5
 1001              	.LVL85:
 1002 017a 2A46     		mov	r2, r5
 1003 017c FFF7FEFF 		bl	usbPrepareReceive
 1004              	.LVL86:
 1005              	.LBB32:
 1006              		.loc 1 648 0
 1007 0180 2023     		movs	r3, #32
 1008              	.LVL87:
 1009              	@ 648 "../../../ChibiOS/os/hal/src/usb.c" 1
 1010 0182 83F31188 		msr     BASEPRI, r3
 1011              	@ 0 "" 2
 1012              	.LVL88:
ARM GAS  C:\Users\DNIEL~1\AppData\Local\Temp\ccrwg8uE.s 			page 19


 1013              		.thumb
 1014              	.LBE32:
 1015              		.loc 1 649 0
 1016 0186 2046     		mov	r0, r4
 1017 0188 2946     		mov	r1, r5
 1018 018a FFF7FEFF 		bl	usbStartReceiveI
 1019              	.LVL89:
 1020              	.LBB33:
 1021              		.loc 1 650 0
 1022 018e 2B46     		mov	r3, r5
 1023              	.LVL90:
 1024              	@ 650 "../../../ChibiOS/os/hal/src/usb.c" 1
 1025 0190 83F31188 		msr     BASEPRI, r3
 1026              	@ 0 "" 2
 1027              	.LVL91:
 1028              		.thumb
 1029 0194 F8BD     		pop	{r3, r4, r5, r6, r7, pc}
 1030              	.LVL92:
 1031              	.L78:
 1032              	.LBE33:
 1033              	.LBB34:
 1034              	.LBB27:
 1035              		.loc 1 86 0
 1036 0196 40F20230 		movw	r0, #770
 1037 019a 8742     		cmp	r7, r0
 1038 019c 72D0     		beq	.L42
 1039 019e B7F5A06F 		cmp	r7, #1280
 1040 01a2 7FF469AF 		bne	.L34
 1041              		.loc 1 116 0
 1042 01a6 238E     		ldrh	r3, [r4, #48]
 1043 01a8 B3F5A06F 		cmp	r3, #1280
 1044 01ac 00F09E80 		beq	.L81
 1045              	.L63:
 1046              		.loc 1 203 0
 1047 01b0 0025     		movs	r5, #0
 1048 01b2 6562     		str	r5, [r4, #36]
 1049 01b4 A562     		str	r5, [r4, #40]
 1050 01b6 E562     		str	r5, [r4, #44]
 1051 01b8 1346     		mov	r3, r2
 1052 01ba 33E7     		b	.L71
 1053              	.L79:
 1054              		.loc 1 86 0
 1055 01bc 002F     		cmp	r7, #0
 1056 01be 31D0     		beq	.L36
 1057 01c0 012F     		cmp	r7, #1
 1058 01c2 7FF459AF 		bne	.L34
 1059              	.L37:
 1060              		.loc 1 151 0
 1061 01c6 5848     		ldr	r0, .L84
 1062 01c8 0225     		movs	r5, #2
 1063 01ca 0022     		movs	r2, #0
 1064 01cc 6062     		str	r0, [r4, #36]
 1065 01ce A562     		str	r5, [r4, #40]
 1066 01d0 E262     		str	r2, [r4, #44]
 1067 01d2 27E7     		b	.L71
 1068              	.L44:
 1069              		.loc 1 126 0
ARM GAS  C:\Users\DNIEL~1\AppData\Local\Temp\ccrwg8uE.s 			page 20


 1070 01d4 6068     		ldr	r0, [r4, #4]
 1071              		.loc 1 128 0
 1072 01d6 94F83570 		ldrb	r7, [r4, #53]	@ zero_extendqisi2
 1073              		.loc 1 126 0
 1074 01da 94F834C0 		ldrb	ip, [r4, #52]	@ zero_extendqisi2
 1075 01de 4568     		ldr	r5, [r0, #4]
 1076 01e0 94F83310 		ldrb	r1, [r4, #51]	@ zero_extendqisi2
 1077 01e4 94F83220 		ldrb	r2, [r4, #50]	@ zero_extendqisi2
 1078 01e8 2046     		mov	r0, r4
 1079 01ea 4CEA0723 		orr	r3, ip, r7, lsl #8
 1080 01ee A847     		blx	r5
 1081              	.LVL93:
 1082              		.loc 1 129 0
 1083 01f0 0028     		cmp	r0, #0
 1084 01f2 3FF441AF 		beq	.L34
 1085              		.loc 1 131 0
 1086 01f6 4268     		ldr	r2, [r0, #4]
 1087 01f8 0568     		ldr	r5, [r0, #0]
 1088 01fa 94F83030 		ldrb	r3, [r4, #48]	@ zero_extendqisi2
 1089 01fe 6262     		str	r2, [r4, #36]
 1090 0200 A562     		str	r5, [r4, #40]
 1091 0202 E662     		str	r6, [r4, #44]
 1092 0204 0EE7     		b	.L71
 1093              	.LVL94:
 1094              	.L39:
 1095              		.loc 1 96 0
 1096 0206 94F832E0 		ldrb	lr, [r4, #50]	@ zero_extendqisi2
 1097 020a BEF1010F 		cmp	lr, #1
 1098 020e 7FF433AF 		bne	.L34
 1099              		.loc 1 97 0
 1100 0212 218F     		ldrh	r1, [r4, #56]
 1101              		.loc 1 98 0
 1102 0214 6662     		str	r6, [r4, #36]
 1103              		.loc 1 97 0
 1104 0216 21F00205 		bic	r5, r1, #2
 1105 021a 2587     		strh	r5, [r4, #56]	@ movhi
 1106              		.loc 1 98 0
 1107 021c A662     		str	r6, [r4, #40]
 1108 021e E662     		str	r6, [r4, #44]
 1109 0220 3546     		mov	r5, r6
 1110 0222 FFE6     		b	.L71
 1111              	.L36:
 1112              		.loc 1 91 0
 1113 0224 0225     		movs	r5, #2
 1114 0226 04F13802 		add	r2, r4, #56
 1115 022a 6262     		str	r2, [r4, #36]
 1116 022c A562     		str	r5, [r4, #40]
 1117 022e E762     		str	r7, [r4, #44]
 1118 0230 F8E6     		b	.L71
 1119              	.L46:
 1120              		.loc 1 139 0
 1121 0232 94F83230 		ldrb	r3, [r4, #50]	@ zero_extendqisi2
 1122 0236 84F83B30 		strb	r3, [r4, #59]
 1123              		.loc 1 140 0
 1124 023a 002B     		cmp	r3, #0
 1125 023c 44D1     		bne	.L53
 1126              		.loc 1 141 0
ARM GAS  C:\Users\DNIEL~1\AppData\Local\Temp\ccrwg8uE.s 			page 21


 1127 023e 0325     		movs	r5, #3
 1128 0240 2570     		strb	r5, [r4, #0]
 1129              	.L54:
 1130              		.loc 1 144 0
 1131 0242 6168     		ldr	r1, [r4, #4]
 1132 0244 0B68     		ldr	r3, [r1, #0]
 1133 0246 002B     		cmp	r3, #0
 1134 0248 B2D0     		beq	.L63
 1135 024a 2046     		mov	r0, r4
 1136 024c 0221     		movs	r1, #2
 1137 024e 9847     		blx	r3
 1138 0250 94F83020 		ldrb	r2, [r4, #48]	@ zero_extendqisi2
 1139 0254 ACE7     		b	.L63
 1140              	.L38:
 1141              		.loc 1 155 0
 1142 0256 94F83410 		ldrb	r1, [r4, #52]	@ zero_extendqisi2
 1143 025a 11F0800F 		tst	r1, #128
 1144 025e 36D1     		bne	.L82
 1145              		.loc 1 168 0
 1146 0260 2046     		mov	r0, r4
 1147 0262 01F00F01 		and	r1, r1, #15
 1148 0266 FFF7FEFF 		bl	usb_lld_get_status_out
 1149 026a 0128     		cmp	r0, #1
 1150 026c 36D0     		beq	.L59
 1151              	.L73:
 1152 026e 0228     		cmp	r0, #2
 1153 0270 7FF402AF 		bne	.L34
 1154              		.loc 1 173 0
 1155 0274 2D4D     		ldr	r5, .L84+4
 1156 0276 A062     		str	r0, [r4, #40]
 1157 0278 6562     		str	r5, [r4, #36]
 1158 027a E662     		str	r6, [r4, #44]
 1159 027c 94F83030 		ldrb	r3, [r4, #48]	@ zero_extendqisi2
 1160 0280 0546     		mov	r5, r0
 1161 0282 CFE6     		b	.L71
 1162              	.L42:
 1163              		.loc 1 194 0
 1164 0284 94F83200 		ldrb	r0, [r4, #50]	@ zero_extendqisi2
 1165 0288 0028     		cmp	r0, #0
 1166 028a 7FF4F5AE 		bne	.L34
 1167              		.loc 1 197 0
 1168 028e 94F83430 		ldrb	r3, [r4, #52]	@ zero_extendqisi2
 1169 0292 13F00F01 		ands	r1, r3, #15
 1170 0296 8BD0     		beq	.L63
 1171              		.loc 1 198 0
 1172 0298 13F0800F 		tst	r3, #128
 1173 029c 3ED1     		bne	.L83
 1174              		.loc 1 201 0
 1175 029e 2046     		mov	r0, r4
 1176 02a0 FFF7FEFF 		bl	usb_lld_stall_out
 1177 02a4 94F83020 		ldrb	r2, [r4, #48]	@ zero_extendqisi2
 1178 02a8 82E7     		b	.L63
 1179              	.L41:
 1180              		.loc 1 105 0
 1181 02aa 94F83200 		ldrb	r0, [r4, #50]	@ zero_extendqisi2
 1182 02ae 0128     		cmp	r0, #1
 1183 02b0 7FF4E2AE 		bne	.L34
ARM GAS  C:\Users\DNIEL~1\AppData\Local\Temp\ccrwg8uE.s 			page 22


 1184              		.loc 1 106 0
 1185 02b4 228F     		ldrh	r2, [r4, #56]
 1186              		.loc 1 107 0
 1187 02b6 6662     		str	r6, [r4, #36]
 1188              		.loc 1 106 0
 1189 02b8 42F0020C 		orr	ip, r2, #2
 1190 02bc A4F838C0 		strh	ip, [r4, #56]	@ movhi
 1191              		.loc 1 107 0
 1192 02c0 A662     		str	r6, [r4, #40]
 1193 02c2 E662     		str	r6, [r4, #44]
 1194 02c4 3546     		mov	r5, r6
 1195 02c6 ADE6     		b	.L71
 1196              	.L53:
 1197              		.loc 1 143 0
 1198 02c8 0420     		movs	r0, #4
 1199 02ca 2070     		strb	r0, [r4, #0]
 1200 02cc B9E7     		b	.L54
 1201              	.L82:
 1202              		.loc 1 156 0
 1203 02ce 2046     		mov	r0, r4
 1204 02d0 01F00F01 		and	r1, r1, #15
 1205 02d4 FFF7FEFF 		bl	usb_lld_get_status_in
 1206 02d8 0128     		cmp	r0, #1
 1207 02da C8D1     		bne	.L73
 1208              	.L59:
 1209              		.loc 1 170 0
 1210 02dc 144B     		ldr	r3, .L84+8
 1211 02de A762     		str	r7, [r4, #40]
 1212 02e0 6362     		str	r3, [r4, #36]
 1213 02e2 E662     		str	r6, [r4, #44]
 1214 02e4 94F83030 		ldrb	r3, [r4, #48]	@ zero_extendqisi2
 1215 02e8 3D46     		mov	r5, r7
 1216 02ea 9BE6     		b	.L71
 1217              	.L81:
 1218              	.LVL95:
 1219              	.LBB25:
 1220              	.LBB26:
 1221              		.loc 1 64 0
 1222 02ec 94F832E0 		ldrb	lr, [r4, #50]	@ zero_extendqisi2
 1223              		.loc 1 65 0
 1224 02f0 2046     		mov	r0, r4
 1225              		.loc 1 64 0
 1226 02f2 84F83AE0 		strb	lr, [r4, #58]
 1227              		.loc 1 65 0
 1228 02f6 FFF7FEFF 		bl	usb_lld_set_address
 1229              		.loc 1 66 0
 1230 02fa 6568     		ldr	r5, [r4, #4]
 1231 02fc 2B68     		ldr	r3, [r5, #0]
 1232 02fe 13B1     		cbz	r3, .L52
 1233 0300 2046     		mov	r0, r4
 1234 0302 0121     		movs	r1, #1
 1235 0304 9847     		blx	r3
 1236              	.L52:
 1237              		.loc 1 67 0
 1238 0306 0321     		movs	r1, #3
 1239 0308 94F83020 		ldrb	r2, [r4, #48]	@ zero_extendqisi2
 1240 030c 2170     		strb	r1, [r4, #0]
ARM GAS  C:\Users\DNIEL~1\AppData\Local\Temp\ccrwg8uE.s 			page 23


 1241 030e 4FE7     		b	.L63
 1242              	.LVL96:
 1243              	.L80:
 1244              	.LBE26:
 1245              	.LBE25:
 1246              		.loc 1 186 0
 1247 0310 2046     		mov	r0, r4
 1248 0312 FFF7FEFF 		bl	usb_lld_clear_in
 1249 0316 94F83020 		ldrb	r2, [r4, #48]	@ zero_extendqisi2
 1250 031a 49E7     		b	.L63
 1251              	.L83:
 1252              		.loc 1 199 0
 1253 031c 2046     		mov	r0, r4
 1254 031e FFF7FEFF 		bl	usb_lld_stall_in
 1255 0322 94F83020 		ldrb	r2, [r4, #48]	@ zero_extendqisi2
 1256 0326 43E7     		b	.L63
 1257              	.L85:
 1258              		.align	2
 1259              	.L84:
 1260 0328 00000000 		.word	.LANCHOR0
 1261 032c 00000000 		.word	.LANCHOR2
 1262 0330 00000000 		.word	.LANCHOR1
 1263              	.LBE27:
 1264              	.LBE34:
 1265              		.cfi_endproc
 1266              	.LFE135:
 1267              		.size	_usb_ep0setup, .-_usb_ep0setup
 1268 0334 AFF30080 		.section	.text._usb_ep0in,"ax",%progbits
 1268      AFF30080 
 1268      AFF30080 
 1269              		.align	2
 1270              		.p2align 4,,15
 1271              		.global	_usb_ep0in
 1272              		.thumb
 1273              		.thumb_func
 1274              		.type	_usb_ep0in, %function
 1275              	_usb_ep0in:
 1276              	.LFB136:
 1277              		.loc 1 685 0
 1278              		.cfi_startproc
 1279              		@ args = 0, pretend = 0, frame = 0
 1280              		@ frame_needed = 0, uses_anonymous_args = 0
 1281              	.LVL97:
 1282 0000 38B5     		push	{r3, r4, r5, lr}
 1283              	.LCFI14:
 1284              		.cfi_def_cfa_offset 16
 1285              		.loc 1 689 0
 1286 0002 90F82030 		ldrb	r3, [r0, #32]	@ zero_extendqisi2
 1287              		.cfi_offset 14, -4
 1288              		.cfi_offset 5, -8
 1289              		.cfi_offset 4, -12
 1290              		.cfi_offset 3, -16
 1291 0006 012B     		cmp	r3, #1
 1292              		.loc 1 685 0
 1293 0008 0446     		mov	r4, r0
 1294              		.loc 1 689 0
 1295 000a 19D0     		beq	.L88
ARM GAS  C:\Users\DNIEL~1\AppData\Local\Temp\ccrwg8uE.s 			page 24


 1296 000c 042B     		cmp	r3, #4
 1297 000e 10D0     		beq	.L95
 1298              		.loc 1 723 0
 1299 0010 0021     		movs	r1, #0
 1300              	.LVL98:
 1301 0012 FFF7FEFF 		bl	usb_lld_stall_in
 1302              	.LVL99:
 1303              		.loc 1 724 0
 1304 0016 0021     		movs	r1, #0
 1305 0018 2046     		mov	r0, r4
 1306 001a FFF7FEFF 		bl	usb_lld_stall_out
 1307              		.loc 1 725 0
 1308 001e 6168     		ldr	r1, [r4, #4]
 1309 0020 0B68     		ldr	r3, [r1, #0]
 1310 0022 13B1     		cbz	r3, .L93
 1311              		.loc 1 725 0 is_stmt 0 discriminator 1
 1312 0024 2046     		mov	r0, r4
 1313 0026 0521     		movs	r1, #5
 1314 0028 9847     		blx	r3
 1315              	.L93:
 1316              		.loc 1 726 0 is_stmt 1
 1317 002a 0522     		movs	r2, #5
 1318 002c 84F82020 		strb	r2, [r4, #32]
 1319 0030 38BD     		pop	{r3, r4, r5, pc}
 1320              	.LVL100:
 1321              	.L95:
 1322              		.loc 1 713 0
 1323 0032 C36A     		ldr	r3, [r0, #44]
 1324 0034 03B1     		cbz	r3, .L92
 1325              		.loc 1 714 0
 1326 0036 9847     		blx	r3
 1327              	.LVL101:
 1328              	.L92:
 1329              		.loc 1 715 0
 1330 0038 0023     		movs	r3, #0
 1331 003a 84F82030 		strb	r3, [r4, #32]
 1332              		.loc 1 716 0
 1333 003e 38BD     		pop	{r3, r4, r5, pc}
 1334              	.LVL102:
 1335              	.L88:
 1336              		.loc 1 691 0
 1337 0040 90F83710 		ldrb	r1, [r0, #55]	@ zero_extendqisi2
 1338              	.LVL103:
 1339 0044 90F836C0 		ldrb	ip, [r0, #54]	@ zero_extendqisi2
 1340              		.loc 1 695 0
 1341 0048 836A     		ldr	r3, [r0, #40]
 1342              		.loc 1 691 0
 1343 004a 4CEA0122 		orr	r2, ip, r1, lsl #8
 1344              		.loc 1 695 0
 1345 004e 9A42     		cmp	r2, r3
 1346 0050 07D9     		bls	.L90
 1347              		.loc 1 696 0 discriminator 1
 1348 0052 0269     		ldr	r2, [r0, #16]
 1349 0054 B2F810E0 		ldrh	lr, [r2, #16]
 1350 0058 B3FBFEF5 		udiv	r5, r3, lr
 1351 005c 0EFB1535 		mls	r5, lr, r5, r3
 1352              		.loc 1 695 0 discriminator 1
ARM GAS  C:\Users\DNIEL~1\AppData\Local\Temp\ccrwg8uE.s 			page 25


 1353 0060 9DB1     		cbz	r5, .L96
 1354              	.L90:
 1355              		.loc 1 706 0
 1356 0062 0021     		movs	r1, #0
 1357              		.loc 1 705 0
 1358 0064 0220     		movs	r0, #2
 1359              		.loc 1 706 0
 1360 0066 0B46     		mov	r3, r1
 1361              		.loc 1 705 0
 1362 0068 84F82000 		strb	r0, [r4, #32]
 1363              		.loc 1 706 0
 1364 006c 0A46     		mov	r2, r1
 1365 006e 2046     		mov	r0, r4
 1366 0070 FFF7FEFF 		bl	usbPrepareReceive
 1367              	.LBB35:
 1368              		.loc 1 707 0
 1369 0074 2023     		movs	r3, #32
 1370              	.LVL104:
 1371              	@ 707 "../../../ChibiOS/os/hal/src/usb.c" 1
 1372 0076 83F31188 		msr     BASEPRI, r3
 1373              	@ 0 "" 2
 1374              	.LVL105:
 1375              		.thumb
 1376              	.LBE35:
 1377              		.loc 1 708 0
 1378 007a 0021     		movs	r1, #0
 1379 007c 2046     		mov	r0, r4
 1380 007e FFF7FEFF 		bl	usbStartReceiveI
 1381              	.LVL106:
 1382              	.LBB36:
 1383              		.loc 1 709 0
 1384 0082 0023     		movs	r3, #0
 1385              	.LVL107:
 1386              	@ 709 "../../../ChibiOS/os/hal/src/usb.c" 1
 1387 0084 83F31188 		msr     BASEPRI, r3
 1388              	@ 0 "" 2
 1389              	.LVL108:
 1390              		.thumb
 1391              	.LBE36:
 1392              		.loc 1 710 0
 1393 0088 38BD     		pop	{r3, r4, r5, pc}
 1394              	.LVL109:
 1395              	.L96:
 1396              		.loc 1 697 0
 1397 008a 2B46     		mov	r3, r5
 1398 008c 2946     		mov	r1, r5
 1399 008e 2A46     		mov	r2, r5
 1400 0090 FFF7FEFF 		bl	usbPrepareTransmit
 1401              	.LBB37:
 1402              		.loc 1 698 0
 1403 0094 2023     		movs	r3, #32
 1404              	.LVL110:
 1405              	@ 698 "../../../ChibiOS/os/hal/src/usb.c" 1
 1406 0096 83F31188 		msr     BASEPRI, r3
 1407              	@ 0 "" 2
 1408              	.LVL111:
 1409              		.thumb
ARM GAS  C:\Users\DNIEL~1\AppData\Local\Temp\ccrwg8uE.s 			page 26


 1410              	.LBE37:
 1411              		.loc 1 699 0
 1412 009a 2046     		mov	r0, r4
 1413 009c 2946     		mov	r1, r5
 1414 009e FFF7FEFF 		bl	usbStartTransmitI
 1415              	.LVL112:
 1416              	.LBB38:
 1417              		.loc 1 700 0
 1418 00a2 2B46     		mov	r3, r5
 1419              	.LVL113:
 1420              	@ 700 "../../../ChibiOS/os/hal/src/usb.c" 1
 1421 00a4 83F31188 		msr     BASEPRI, r3
 1422              	@ 0 "" 2
 1423              	.LVL114:
 1424              		.thumb
 1425              	.LBE38:
 1426              		.loc 1 701 0
 1427 00a8 38BD     		pop	{r3, r4, r5, pc}
 1428              		.cfi_endproc
 1429              	.LFE136:
 1430              		.size	_usb_ep0in, .-_usb_ep0in
 1431 00aa 00BFAFF3 		.section	.text._usb_ep0out,"ax",%progbits
 1431      0080
 1432              		.align	2
 1433              		.p2align 4,,15
 1434              		.global	_usb_ep0out
 1435              		.thumb
 1436              		.thumb_func
 1437              		.type	_usb_ep0out, %function
 1438              	_usb_ep0out:
 1439              	.LFB137:
 1440              		.loc 1 739 0
 1441              		.cfi_startproc
 1442              		@ args = 0, pretend = 0, frame = 0
 1443              		@ frame_needed = 0, uses_anonymous_args = 0
 1444              	.LVL115:
 1445              		.loc 1 742 0
 1446 0000 90F82030 		ldrb	r3, [r0, #32]	@ zero_extendqisi2
 1447 0004 022B     		cmp	r3, #2
 1448              		.loc 1 739 0
 1449 0006 10B5     		push	{r4, lr}
 1450              	.LCFI15:
 1451              		.cfi_def_cfa_offset 8
 1452              		.loc 1 739 0
 1453 0008 0446     		mov	r4, r0
 1454              		.cfi_offset 14, -4
 1455              		.cfi_offset 4, -8
 1456              		.loc 1 742 0
 1457 000a 26D0     		beq	.L99
 1458 000c 032B     		cmp	r3, #3
 1459 000e 11D0     		beq	.L104
 1460              	.LVL116:
 1461              	.L98:
 1462              		.loc 1 766 0
 1463 0010 0021     		movs	r1, #0
 1464 0012 2046     		mov	r0, r4
 1465              	.LVL117:
ARM GAS  C:\Users\DNIEL~1\AppData\Local\Temp\ccrwg8uE.s 			page 27


 1466 0014 FFF7FEFF 		bl	usb_lld_stall_in
 1467              		.loc 1 767 0
 1468 0018 2046     		mov	r0, r4
 1469 001a 0021     		movs	r1, #0
 1470 001c FFF7FEFF 		bl	usb_lld_stall_out
 1471              		.loc 1 768 0
 1472 0020 6368     		ldr	r3, [r4, #4]
 1473 0022 1B68     		ldr	r3, [r3, #0]
 1474 0024 13B1     		cbz	r3, .L103
 1475              		.loc 1 768 0 is_stmt 0 discriminator 1
 1476 0026 2046     		mov	r0, r4
 1477 0028 0521     		movs	r1, #5
 1478 002a 9847     		blx	r3
 1479              	.L103:
 1480              		.loc 1 769 0 is_stmt 1
 1481 002c 0521     		movs	r1, #5
 1482 002e 84F82010 		strb	r1, [r4, #32]
 1483 0032 10BD     		pop	{r4, pc}
 1484              	.LVL118:
 1485              	.L104:
 1486              		.loc 1 746 0
 1487 0034 0021     		movs	r1, #0
 1488              	.LVL119:
 1489              		.loc 1 745 0
 1490 0036 0422     		movs	r2, #4
 1491              		.loc 1 746 0
 1492 0038 0B46     		mov	r3, r1
 1493              		.loc 1 745 0
 1494 003a 80F82020 		strb	r2, [r0, #32]
 1495              		.loc 1 746 0
 1496 003e 0A46     		mov	r2, r1
 1497 0040 FFF7FEFF 		bl	usbPrepareTransmit
 1498              	.LBB39:
 1499              		.loc 1 747 0
 1500 0044 2023     		movs	r3, #32
 1501              	.LVL120:
 1502              	@ 747 "../../../ChibiOS/os/hal/src/usb.c" 1
 1503 0046 83F31188 		msr     BASEPRI, r3
 1504              	@ 0 "" 2
 1505              	.LVL121:
 1506              		.thumb
 1507              	.LBE39:
 1508              		.loc 1 748 0
 1509 004a 0021     		movs	r1, #0
 1510 004c 2046     		mov	r0, r4
 1511 004e FFF7FEFF 		bl	usbStartTransmitI
 1512              	.LVL122:
 1513              	.LBB40:
 1514              		.loc 1 749 0
 1515 0052 0023     		movs	r3, #0
 1516              	.LVL123:
 1517              	@ 749 "../../../ChibiOS/os/hal/src/usb.c" 1
 1518 0054 83F31188 		msr     BASEPRI, r3
 1519              	@ 0 "" 2
 1520              	.LVL124:
 1521              		.thumb
 1522              	.LBE40:
ARM GAS  C:\Users\DNIEL~1\AppData\Local\Temp\ccrwg8uE.s 			page 28


 1523              		.loc 1 750 0
 1524 0058 10BD     		pop	{r4, pc}
 1525              	.LVL125:
 1526              	.L99:
 1527              		.loc 1 754 0
 1528 005a 0269     		ldr	r2, [r0, #16]
 1529 005c 9169     		ldr	r1, [r2, #24]
 1530              	.LVL126:
 1531 005e 8B68     		ldr	r3, [r1, #8]
 1532 0060 002B     		cmp	r3, #0
 1533 0062 D5D1     		bne	.L98
 1534              		.loc 1 756 0
 1535 0064 C36A     		ldr	r3, [r0, #44]
 1536 0066 03B1     		cbz	r3, .L102
 1537              		.loc 1 757 0
 1538 0068 9847     		blx	r3
 1539              	.L102:
 1540              		.loc 1 758 0
 1541 006a 0020     		movs	r0, #0
 1542 006c 84F82000 		strb	r0, [r4, #32]
 1543              		.loc 1 759 0
 1544 0070 10BD     		pop	{r4, pc}
 1545              		.cfi_endproc
 1546              	.LFE137:
 1547              		.size	_usb_ep0out, .-_usb_ep0out
 1548 0072 00BFAFF3 		.section	.rodata.zero_status,"a",%progbits
 1548      0080AFF3 
 1548      0080AFF3 
 1548      0080
 1549              		.align	2
 1550              		.set	.LANCHOR0,. + 0
 1551              		.type	zero_status, %object
 1552              		.size	zero_status, 2
 1553              	zero_status:
 1554 0000 0000     		.space	2
 1555 0002 0000     		.section	.rodata.active_status,"a",%progbits
 1556              		.align	2
 1557              		.set	.LANCHOR2,. + 0
 1558              		.type	active_status, %object
 1559              		.size	active_status, 2
 1560              	active_status:
 1561 0000 0000     		.space	2
 1562 0002 0000     		.section	.rodata.halted_status,"a",%progbits
 1563              		.align	2
 1564              		.set	.LANCHOR1,. + 0
 1565              		.type	halted_status, %object
 1566              		.size	halted_status, 2
 1567              	halted_status:
 1568 0000 01       		.byte	1
 1569 0001 00       		.byte	0
 1570 0002 0000     		.text
 1571              	.Letext0: