ARM GAS  C:\Users\srich\AppData\Local\Temp\ccnI4goY.s 			page 1


   1              		.syntax unified
   2              		.cpu cortex-m4
   3              		.fpu softvfp
   4              		.eabi_attribute 20, 1
   5              		.eabi_attribute 21, 1
   6              		.eabi_attribute 23, 3
   7              		.eabi_attribute 24, 1
   8              		.eabi_attribute 25, 1
   9              		.eabi_attribute 26, 1
  10              		.eabi_attribute 30, 2
  11              		.eabi_attribute 34, 1
  12              		.eabi_attribute 18, 4
  13              		.thumb
  14              		.file	"adc_lld.c"
  15              		.text
  16              	.Ltext0:
  17              		.cfi_sections	.debug_frame
  18              		.section	.text.adc_lld_init,"ax",%progbits
  19              		.align	2
  20              		.p2align 4,,15
  21              		.global	adc_lld_init
  22              		.thumb
  23              		.thumb_func
  24              		.type	adc_lld_init, %function
  25              	adc_lld_init:
  26              	.LFB120:
  27              		.file 1 "../../../ChibiOS/os/hal/platforms/STM32F4xx/adc_lld.c"
  28              		.loc 1 171 0
  29              		.cfi_startproc
  30              		@ args = 0, pretend = 0, frame = 0
  31              		@ frame_needed = 0, uses_anonymous_args = 0
  32 0000 70B5     		push	{r4, r5, r6, lr}
  33              		.cfi_def_cfa_offset 16
  34              		.cfi_offset 4, -16
  35              		.cfi_offset 5, -12
  36              		.cfi_offset 6, -8
  37              		.cfi_offset 14, -4
  38              		.loc 1 188 0
  39 0002 0D4E     		ldr	r6, .L3
  40              		.loc 1 201 0
  41 0004 0D4C     		ldr	r4, .L3+4
  42              		.loc 1 190 0
  43 0006 0E4D     		ldr	r5, .L3+8
  44              		.loc 1 188 0
  45 0008 3046     		mov	r0, r6
  46 000a FFF7FEFF 		bl	adcObjectInit
  47              	.LVL0:
  48              		.loc 1 189 0
  49 000e 0D4A     		ldr	r2, .L3+12
  50              		.loc 1 191 0
  51 0010 0D4B     		ldr	r3, .L3+16
  52              		.loc 1 189 0
  53 0012 B262     		str	r2, [r6, #40]
  54              		.loc 1 201 0
  55 0014 2046     		mov	r0, r4
  56              		.loc 1 191 0
  57 0016 3363     		str	r3, [r6, #48]
ARM GAS  C:\Users\srich\AppData\Local\Temp\ccnI4goY.s 			page 2


  58              		.loc 1 190 0
  59 0018 F562     		str	r5, [r6, #44]
  60              		.loc 1 201 0
  61 001a FFF7FEFF 		bl	adcObjectInit
  62              	.LVL1:
  63              		.loc 1 203 0
  64 001e 0C3D     		subs	r5, r5, #12
  65              		.loc 1 202 0
  66 0020 0A4A     		ldr	r2, .L3+20
  67              		.loc 1 204 0
  68 0022 0B4B     		ldr	r3, .L3+24
  69              		.loc 1 203 0
  70 0024 E562     		str	r5, [r4, #44]
  71              		.loc 1 202 0
  72 0026 A262     		str	r2, [r4, #40]
  73              		.loc 1 204 0
  74 0028 2363     		str	r3, [r4, #48]
  75              		.loc 1 214 0
  76 002a 1220     		movs	r0, #18
  77 002c 6021     		movs	r1, #96
  78              		.loc 1 215 0
  79 002e BDE87040 		pop	{r4, r5, r6, lr}
  80              		.cfi_restore 14
  81              		.cfi_restore 6
  82              		.cfi_restore 5
  83              		.cfi_restore 4
  84              		.cfi_def_cfa_offset 0
  85              		.loc 1 214 0
  86 0032 FFF7FEBF 		b	nvicEnableVector
  87              	.LVL2:
  88              	.L4:
  89 0036 00BF     		.align	2
  90              	.L3:
  91 0038 00000000 		.word	.LANCHOR0
  92 003c 00000000 		.word	.LANCHOR1
  93 0040 78000000 		.word	_stm32_dma_streams+120
  94 0044 00210140 		.word	1073815808
  95 0048 162C0202 		.word	33696790
  96 004c 00220140 		.word	1073816064
  97 0050 162C0204 		.word	67251222
  98              		.cfi_endproc
  99              	.LFE120:
 100              		.size	adc_lld_init, .-adc_lld_init
 101              		.section	.text.adc_lld_start,"ax",%progbits
 102              		.align	2
 103              		.p2align 4,,15
 104              		.global	adc_lld_start
 105              		.thumb
 106              		.thumb_func
 107              		.type	adc_lld_start, %function
 108              	adc_lld_start:
 109              	.LFB121:
 110              		.loc 1 224 0
 111              		.cfi_startproc
 112              		@ args = 0, pretend = 0, frame = 0
 113              		@ frame_needed = 0, uses_anonymous_args = 0
 114              	.LVL3:
ARM GAS  C:\Users\srich\AppData\Local\Temp\ccnI4goY.s 			page 3


 115              		.loc 1 227 0
 116 0000 0378     		ldrb	r3, [r0]	@ zero_extendqisi2
 117 0002 012B     		cmp	r3, #1
 118 0004 00D0     		beq	.L12
 119 0006 7047     		bx	lr
 120              	.L12:
 121              		.loc 1 242 0
 122 0008 1A4B     		ldr	r3, .L15
 123 000a 9842     		cmp	r0, r3
 124              		.loc 1 224 0
 125 000c 10B5     		push	{r4, lr}
 126              		.cfi_def_cfa_offset 8
 127              		.cfi_offset 4, -8
 128              		.cfi_offset 14, -4
 129 000e 0446     		mov	r4, r0
 130              		.loc 1 242 0
 131 0010 10D0     		beq	.L13
 132              		.loc 1 255 0
 133 0012 194B     		ldr	r3, .L15+4
 134 0014 9842     		cmp	r0, r3
 135 0016 1DD0     		beq	.L14
 136              	.LVL4:
 137              	.L8:
 138              		.loc 1 269 0
 139 0018 1848     		ldr	r0, .L15+8
 140              		.loc 1 274 0
 141 001a A26A     		ldr	r2, [r4, #40]
 142              		.loc 1 269 0
 143 001c 4368     		ldr	r3, [r0, #4]
 144 001e 03F44003 		and	r3, r3, #12582912
 145              		.loc 1 274 0
 146 0022 0021     		movs	r1, #0
 147              		.loc 1 269 0
 148 0024 43F48033 		orr	r3, r3, #65536
 149              		.loc 1 276 0
 150 0028 0124     		movs	r4, #1
 151              	.LVL5:
 152              		.loc 1 269 0
 153 002a 4360     		str	r3, [r0, #4]
 154              		.loc 1 274 0
 155 002c 5160     		str	r1, [r2, #4]
 156              		.loc 1 275 0
 157 002e 9160     		str	r1, [r2, #8]
 158              		.loc 1 276 0
 159 0030 9460     		str	r4, [r2, #8]
 160 0032 10BD     		pop	{r4, pc}
 161              	.LVL6:
 162              	.L13:
 163              	.LBB2:
 164              		.loc 1 244 0
 165 0034 124A     		ldr	r2, .L15+12
 166 0036 C06A     		ldr	r0, [r0, #44]
 167              	.LVL7:
 168 0038 0621     		movs	r1, #6
 169 003a 2346     		mov	r3, r4
 170 003c FFF7FEFF 		bl	dmaStreamAllocate
 171              	.LVL8:
ARM GAS  C:\Users\srich\AppData\Local\Temp\ccnI4goY.s 			page 4


 172              		.loc 1 249 0
 173 0040 E36A     		ldr	r3, [r4, #44]
 174              		.loc 1 250 0
 175 0042 104A     		ldr	r2, .L15+16
 176              		.loc 1 249 0
 177 0044 1B68     		ldr	r3, [r3]
 178 0046 1049     		ldr	r1, .L15+20
 179 0048 9960     		str	r1, [r3, #8]
 180              		.loc 1 250 0
 181 004a 536C     		ldr	r3, [r2, #68]
 182 004c 43F40073 		orr	r3, r3, #512
 183 0050 5364     		str	r3, [r2, #68]
 184 0052 E1E7     		b	.L8
 185              	.LVL9:
 186              	.L14:
 187              	.LBE2:
 188              	.LBB3:
 189              		.loc 1 257 0
 190 0054 0A4A     		ldr	r2, .L15+12
 191 0056 C06A     		ldr	r0, [r0, #44]
 192              	.LVL10:
 193 0058 0621     		movs	r1, #6
 194 005a 2346     		mov	r3, r4
 195 005c FFF7FEFF 		bl	dmaStreamAllocate
 196              	.LVL11:
 197              		.loc 1 262 0
 198 0060 E36A     		ldr	r3, [r4, #44]
 199              		.loc 1 263 0
 200 0062 084A     		ldr	r2, .L15+16
 201              		.loc 1 262 0
 202 0064 1B68     		ldr	r3, [r3]
 203 0066 0949     		ldr	r1, .L15+24
 204 0068 9960     		str	r1, [r3, #8]
 205              		.loc 1 263 0
 206 006a 536C     		ldr	r3, [r2, #68]
 207 006c 43F48063 		orr	r3, r3, #1024
 208 0070 5364     		str	r3, [r2, #68]
 209 0072 D1E7     		b	.L8
 210              	.L16:
 211              		.align	2
 212              	.L15:
 213 0074 00000000 		.word	.LANCHOR0
 214 0078 00000000 		.word	.LANCHOR1
 215 007c 00230140 		.word	1073816320
 216 0080 00000000 		.word	adc_lld_serve_rx_interrupt
 217 0084 00380240 		.word	1073887232
 218 0088 4C210140 		.word	1073815884
 219 008c 4C220140 		.word	1073816140
 220              	.LBE3:
 221              		.cfi_endproc
 222              	.LFE121:
 223              		.size	adc_lld_start, .-adc_lld_start
 224              		.section	.text.adc_lld_stop,"ax",%progbits
 225              		.align	2
 226              		.p2align 4,,15
 227              		.global	adc_lld_stop
 228              		.thumb
ARM GAS  C:\Users\srich\AppData\Local\Temp\ccnI4goY.s 			page 5


 229              		.thumb_func
 230              		.type	adc_lld_stop, %function
 231              	adc_lld_stop:
 232              	.LFB122:
 233              		.loc 1 287 0
 234              		.cfi_startproc
 235              		@ args = 0, pretend = 0, frame = 0
 236              		@ frame_needed = 0, uses_anonymous_args = 0
 237              	.LVL12:
 238              		.loc 1 290 0
 239 0000 0378     		ldrb	r3, [r0]	@ zero_extendqisi2
 240 0002 022B     		cmp	r3, #2
 241 0004 00D0     		beq	.L24
 242 0006 7047     		bx	lr
 243              	.L24:
 244              		.loc 1 287 0
 245 0008 10B5     		push	{r4, lr}
 246              		.cfi_def_cfa_offset 8
 247              		.cfi_offset 4, -8
 248              		.cfi_offset 14, -4
 249 000a 0446     		mov	r4, r0
 250              		.loc 1 291 0
 251 000c C06A     		ldr	r0, [r0, #44]
 252              	.LVL13:
 253 000e FFF7FEFF 		bl	dmaStreamRelease
 254              	.LVL14:
 255              		.loc 1 301 0
 256 0012 0B49     		ldr	r1, .L27
 257              		.loc 1 292 0
 258 0014 A36A     		ldr	r3, [r4, #40]
 259 0016 0022     		movs	r2, #0
 260              		.loc 1 301 0
 261 0018 8C42     		cmp	r4, r1
 262              		.loc 1 292 0
 263 001a 5A60     		str	r2, [r3, #4]
 264              		.loc 1 293 0
 265 001c 9A60     		str	r2, [r3, #8]
 266              		.loc 1 301 0
 267 001e 09D0     		beq	.L25
 268              		.loc 1 306 0
 269 0020 084B     		ldr	r3, .L27+4
 270 0022 9C42     		cmp	r4, r3
 271 0024 00D0     		beq	.L26
 272              	.L17:
 273 0026 10BD     		pop	{r4, pc}
 274              	.LVL15:
 275              	.L26:
 276              		.loc 1 307 0
 277 0028 074A     		ldr	r2, .L27+8
 278 002a 536C     		ldr	r3, [r2, #68]
 279 002c 23F48063 		bic	r3, r3, #1024
 280 0030 5364     		str	r3, [r2, #68]
 281 0032 F8E7     		b	.L17
 282              	.L25:
 283              		.loc 1 302 0
 284 0034 044A     		ldr	r2, .L27+8
 285 0036 536C     		ldr	r3, [r2, #68]
ARM GAS  C:\Users\srich\AppData\Local\Temp\ccnI4goY.s 			page 6


 286 0038 23F40073 		bic	r3, r3, #512
 287 003c 5364     		str	r3, [r2, #68]
 288 003e 10BD     		pop	{r4, pc}
 289              	.LVL16:
 290              	.L28:
 291              		.align	2
 292              	.L27:
 293 0040 00000000 		.word	.LANCHOR0
 294 0044 00000000 		.word	.LANCHOR1
 295 0048 00380240 		.word	1073887232
 296              		.cfi_endproc
 297              	.LFE122:
 298              		.size	adc_lld_stop, .-adc_lld_stop
 299              		.section	.text.adc_lld_start_conversion,"ax",%progbits
 300              		.align	2
 301              		.p2align 4,,15
 302              		.global	adc_lld_start_conversion
 303              		.thumb
 304              		.thumb_func
 305              		.type	adc_lld_start_conversion, %function
 306              	adc_lld_start_conversion:
 307              	.LFB123:
 308              		.loc 1 319 0
 309              		.cfi_startproc
 310              		@ args = 0, pretend = 0, frame = 0
 311              		@ frame_needed = 0, uses_anonymous_args = 0
 312              	.LVL17:
 313              		.loc 1 322 0
 314 0000 0369     		ldr	r3, [r0, #16]
 315              	.LVL18:
 316              		.loc 1 325 0
 317 0002 016B     		ldr	r1, [r0, #48]
 318              	.LVL19:
 319              		.loc 1 326 0
 320 0004 1A78     		ldrb	r2, [r3]	@ zero_extendqisi2
 321              		.loc 1 319 0
 322 0006 2DE9F043 		push	{r4, r5, r6, r7, r8, r9, lr}
 323              		.cfi_def_cfa_offset 28
 324              		.cfi_offset 4, -28
 325              		.cfi_offset 5, -24
 326              		.cfi_offset 6, -20
 327              		.cfi_offset 7, -16
 328              		.cfi_offset 8, -12
 329              		.cfi_offset 9, -8
 330              		.cfi_offset 14, -4
 331              		.loc 1 328 0
 332 000a C468     		ldr	r4, [r0, #12]
 333              		.loc 1 326 0
 334 000c 2AB1     		cbz	r2, .L31
 335              	.LVL20:
 336              		.loc 1 328 0
 337 000e 012C     		cmp	r4, #1
 338              		.loc 1 327 0
 339 0010 94BF     		ite	ls
 340 0012 41F48071 		orrls	r1, r1, #256
 341              	.LVL21:
 342              		.loc 1 331 0
ARM GAS  C:\Users\srich\AppData\Local\Temp\ccnI4goY.s 			page 7


 343 0016 41F48471 		orrhi	r1, r1, #264
 344              	.LVL22:
 345              	.L31:
 346              		.loc 1 334 0
 347 001a C56A     		ldr	r5, [r0, #44]
 348              		.loc 1 335 0
 349 001c 5A88     		ldrh	r2, [r3, #2]
 350              		.loc 1 334 0
 351 001e 2D68     		ldr	r5, [r5]
 352 0020 8668     		ldr	r6, [r0, #8]
 353 0022 EE60     		str	r6, [r5, #12]
 354              		.loc 1 335 0
 355 0024 02FB04F2 		mul	r2, r2, r4
 356              		.loc 1 345 0
 357 0028 03F11808 		add	r8, r3, #24
 358              		.loc 1 335 0
 359 002c 6A60     		str	r2, [r5, #4]
 360              		.loc 1 349 0
 361 002e DC68     		ldr	r4, [r3, #12]
 362              		.loc 1 337 0
 363 0030 2960     		str	r1, [r5]
 364              		.loc 1 345 0
 365 0032 98E80051 		ldmia	r8, {r8, ip, lr}
 366              		.loc 1 338 0
 367 0036 2E68     		ldr	r6, [r5]
 368              		.loc 1 352 0
 369 0038 1969     		ldr	r1, [r3, #16]
 370              	.LVL23:
 371              		.loc 1 341 0
 372 003a 826A     		ldr	r2, [r0, #40]
 373              		.loc 1 342 0
 374 003c D3F81490 		ldr	r9, [r3, #20]
 375              		.loc 1 346 0
 376 0040 5F6A     		ldr	r7, [r3, #36]
 377              		.loc 1 349 0
 378 0042 44F08063 		orr	r3, r4, #67108864
 379              	.LVL24:
 380 0046 43F48073 		orr	r3, r3, #256
 381              		.loc 1 338 0
 382 004a 46F00100 		orr	r0, r6, #1
 383              	.LVL25:
 384              		.loc 1 341 0
 385 004e 0024     		movs	r4, #0
 386              		.loc 1 338 0
 387 0050 2860     		str	r0, [r5]
 388              	.LVL26:
 389              		.loc 1 341 0
 390 0052 1460     		str	r4, [r2]
 391              		.loc 1 342 0
 392 0054 C2F80C90 		str	r9, [r2, #12]
 393              		.loc 1 343 0
 394 0058 C2F81080 		str	r8, [r2, #16]
 395              		.loc 1 344 0
 396 005c C2F82CC0 		str	ip, [r2, #44]
 397              		.loc 1 345 0
 398 0060 C2F830E0 		str	lr, [r2, #48]
 399              		.loc 1 346 0
ARM GAS  C:\Users\srich\AppData\Local\Temp\ccnI4goY.s 			page 8


 400 0064 5763     		str	r7, [r2, #52]
 401              		.loc 1 349 0
 402 0066 5360     		str	r3, [r2, #4]
 403              		.loc 1 356 0
 404 0068 4B00     		lsls	r3, r1, #1
 405 006a 06D4     		bmi	.L36
 406              		.loc 1 352 0
 407 006c 41F44071 		orr	r1, r1, #768
 408              	.LVL27:
 409 0070 41F00101 		orr	r1, r1, #1
 410              		.loc 1 364 0
 411 0074 9160     		str	r1, [r2, #8]
 412              	.LVL28:
 413 0076 BDE8F083 		pop	{r4, r5, r6, r7, r8, r9, pc}
 414              	.LVL29:
 415              	.L36:
 416              		.loc 1 358 0
 417 007a 21F08043 		bic	r3, r1, #1073741824
 418 007e 23F00203 		bic	r3, r3, #2
 419 0082 43F44073 		orr	r3, r3, #768
 420              		.loc 1 361 0
 421 0086 41F44071 		orr	r1, r1, #768
 422              	.LVL30:
 423              		.loc 1 358 0
 424 008a 43F00303 		orr	r3, r3, #3
 425              		.loc 1 361 0
 426 008e 41F00301 		orr	r1, r1, #3
 427              		.loc 1 358 0
 428 0092 9360     		str	r3, [r2, #8]
 429              		.loc 1 361 0
 430 0094 9160     		str	r1, [r2, #8]
 431              	.LVL31:
 432 0096 BDE8F083 		pop	{r4, r5, r6, r7, r8, r9, pc}
 433              		.cfi_endproc
 434              	.LFE123:
 435              		.size	adc_lld_start_conversion, .-adc_lld_start_conversion
 436 009a 00BF     		.section	.text.adc_lld_stop_conversion,"ax",%progbits
 437              		.align	2
 438              		.p2align 4,,15
 439              		.global	adc_lld_stop_conversion
 440              		.thumb
 441              		.thumb_func
 442              		.type	adc_lld_stop_conversion, %function
 443              	adc_lld_stop_conversion:
 444              	.LFB124:
 445              		.loc 1 374 0
 446              		.cfi_startproc
 447              		@ args = 0, pretend = 0, frame = 0
 448              		@ frame_needed = 0, uses_anonymous_args = 0
 449              		@ link register save eliminated.
 450              	.LVL32:
 451              		.loc 1 376 0
 452 0000 C16A     		ldr	r1, [r0, #44]
 453 0002 0A68     		ldr	r2, [r1]
 454 0004 1368     		ldr	r3, [r2]
 455 0006 23F01F03 		bic	r3, r3, #31
 456 000a 1360     		str	r3, [r2]
ARM GAS  C:\Users\srich\AppData\Local\Temp\ccnI4goY.s 			page 9


 457              	.L38:
 458              		.loc 1 376 0 is_stmt 0 discriminator 2
 459 000c 1368     		ldr	r3, [r2]
 460 000e 13F00103 		ands	r3, r3, #1
 461 0012 FBD1     		bne	.L38
 462              		.loc 1 374 0 is_stmt 1 discriminator 3
 463 0014 30B4     		push	{r4, r5}
 464              		.cfi_def_cfa_offset 8
 465              		.cfi_offset 4, -8
 466              		.cfi_offset 5, -4
 467              		.loc 1 376 0 discriminator 3
 468 0016 0D7A     		ldrb	r5, [r1, #8]	@ zero_extendqisi2
 469 0018 4C68     		ldr	r4, [r1, #4]
 470              		.loc 1 377 0 discriminator 3
 471 001a 826A     		ldr	r2, [r0, #40]
 472              		.loc 1 376 0 discriminator 3
 473 001c 3D21     		movs	r1, #61
 474 001e A940     		lsls	r1, r1, r5
 475              		.loc 1 379 0 discriminator 3
 476 0020 0120     		movs	r0, #1
 477              	.LVL33:
 478              		.loc 1 376 0 discriminator 3
 479 0022 2160     		str	r1, [r4]
 480              		.loc 1 377 0 discriminator 3
 481 0024 5360     		str	r3, [r2, #4]
 482              		.loc 1 380 0 discriminator 3
 483 0026 30BC     		pop	{r4, r5}
 484              		.cfi_restore 5
 485              		.cfi_restore 4
 486              		.cfi_def_cfa_offset 0
 487              		.loc 1 378 0 discriminator 3
 488 0028 9360     		str	r3, [r2, #8]
 489              		.loc 1 379 0 discriminator 3
 490 002a 9060     		str	r0, [r2, #8]
 491              		.loc 1 380 0 discriminator 3
 492 002c 7047     		bx	lr
 493              		.cfi_endproc
 494              	.LFE124:
 495              		.size	adc_lld_stop_conversion, .-adc_lld_stop_conversion
 496 002e 00BF     		.section	.text.Vector88,"ax",%progbits
 497              		.align	2
 498              		.p2align 4,,15
 499              		.global	Vector88
 500              		.thumb
 501              		.thumb_func
 502              		.type	Vector88, %function
 503              	Vector88:
 504              	.LFB119:
 505              		.loc 1 111 0
 506              		.cfi_startproc
 507              		@ args = 0, pretend = 0, frame = 0
 508              		@ frame_needed = 0, uses_anonymous_args = 0
 509              		.loc 1 131 0
 510 0000 314B     		ldr	r3, .L78
 511 0002 1A68     		ldr	r2, [r3]
 512              	.LVL34:
 513              		.loc 1 132 0
ARM GAS  C:\Users\srich\AppData\Local\Temp\ccnI4goY.s 			page 10


 514 0004 0021     		movs	r1, #0
 515              		.loc 1 135 0
 516 0006 9206     		lsls	r2, r2, #26
 517              	.LVL35:
 518              		.loc 1 111 0
 519 0008 10B5     		push	{r4, lr}
 520              		.cfi_def_cfa_offset 8
 521              		.cfi_offset 4, -8
 522              		.cfi_offset 14, -4
 523              		.loc 1 132 0
 524 000a 1960     		str	r1, [r3]
 525              		.loc 1 135 0
 526 000c 05D5     		bpl	.L42
 527              		.loc 1 135 0 is_stmt 0 discriminator 1
 528 000e 2F4C     		ldr	r4, .L78+4
 529 0010 E36A     		ldr	r3, [r4, #44]
 530 0012 1B68     		ldr	r3, [r3]
 531 0014 5B68     		ldr	r3, [r3, #4]
 532 0016 002B     		cmp	r3, #0
 533 0018 31D1     		bne	.L77
 534              	.L42:
 535              		.loc 1 145 0 is_stmt 1
 536 001a 2D4B     		ldr	r3, .L78+8
 537 001c 1A68     		ldr	r2, [r3]
 538              	.LVL36:
 539              		.loc 1 146 0
 540 001e 0021     		movs	r1, #0
 541 0020 1960     		str	r1, [r3]
 542              		.loc 1 149 0
 543 0022 9306     		lsls	r3, r2, #26
 544 0024 27D5     		bpl	.L47
 545              		.loc 1 149 0 is_stmt 0 discriminator 1
 546 0026 2B4C     		ldr	r4, .L78+12
 547 0028 E36A     		ldr	r3, [r4, #44]
 548 002a 1B68     		ldr	r3, [r3]
 549 002c 5B68     		ldr	r3, [r3, #4]
 550 002e 13B3     		cbz	r3, .L47
 551              		.loc 1 152 0 is_stmt 1
 552 0030 2369     		ldr	r3, [r4, #16]
 553 0032 03B3     		cbz	r3, .L47
 554              		.loc 1 153 0
 555 0034 2046     		mov	r0, r4
 556 0036 FFF7FEFF 		bl	adc_lld_stop_conversion
 557              	.LVL37:
 558 003a 2369     		ldr	r3, [r4, #16]
 559 003c 9B68     		ldr	r3, [r3, #8]
 560 003e 4BB1     		cbz	r3, .L49
 561              		.loc 1 153 0 is_stmt 0 discriminator 1
 562 0040 0522     		movs	r2, #5
 563 0042 2270     		strb	r2, [r4]
 564 0044 2046     		mov	r0, r4
 565 0046 0121     		movs	r1, #1
 566 0048 9847     		blx	r3
 567              	.LVL38:
 568 004a 2378     		ldrb	r3, [r4]	@ zero_extendqisi2
 569 004c 052B     		cmp	r3, #5
 570 004e 04BF     		itt	eq
ARM GAS  C:\Users\srich\AppData\Local\Temp\ccnI4goY.s 			page 11


 571 0050 0223     		moveq	r3, #2
 572 0052 2370     		strbeq	r3, [r4]
 573              	.L49:
 574              		.loc 1 153 0 discriminator 5
 575 0054 0022     		movs	r2, #0
 576 0056 2261     		str	r2, [r4, #16]
 577 0058 1E49     		ldr	r1, .L78+12
 578              	.LBB4:
 579 005a 2023     		movs	r3, #32
 580              	@ 153 "../../../ChibiOS/os/hal/platforms/STM32F4xx/adc_lld.c" 1
 581 005c 83F31188 		msr     BASEPRI, r3
 582              	@ 0 "" 2
 583              		.thumb
 584              	.LBE4:
 585 0060 6069     		ldr	r0, [r4, #20]
 586 0062 28B1     		cbz	r0, .L51
 587              	.LVL39:
 588              	.LBB5:
 589              		.loc 1 153 0 discriminator 6
 590 0064 4FF0FF33 		mov	r3, #-1
 591 0068 4362     		str	r3, [r0, #36]
 592 006a 4A61     		str	r2, [r1, #20]
 593 006c FFF7FEFF 		bl	chSchReadyI
 594              	.LVL40:
 595              	.L51:
 596              	.LBE5:
 597              	.LBB6:
 598              		.loc 1 153 0 discriminator 8
 599 0070 0023     		movs	r3, #0
 600              	@ 153 "../../../ChibiOS/os/hal/platforms/STM32F4xx/adc_lld.c" 1
 601 0072 83F31188 		msr     BASEPRI, r3
 602              	@ 0 "" 2
 603              		.thumb
 604              	.L47:
 605              	.LBE6:
 606              		.loc 1 159 0 is_stmt 1
 607 0076 BDE81040 		pop	{r4, lr}
 608              		.cfi_remember_state
 609              		.cfi_restore 14
 610              		.cfi_restore 4
 611              		.cfi_def_cfa_offset 0
 612              		.loc 1 158 0
 613 007a FFF7FEBF 		b	_port_irq_epilogue
 614              	.LVL41:
 615              	.L77:
 616              		.cfi_restore_state
 617              		.loc 1 138 0
 618 007e 2369     		ldr	r3, [r4, #16]
 619 0080 002B     		cmp	r3, #0
 620 0082 CAD0     		beq	.L42
 621              		.loc 1 139 0
 622 0084 2046     		mov	r0, r4
 623 0086 FFF7FEFF 		bl	adc_lld_stop_conversion
 624              	.LVL42:
 625 008a 2369     		ldr	r3, [r4, #16]
 626 008c 9B68     		ldr	r3, [r3, #8]
 627 008e 4BB1     		cbz	r3, .L44
ARM GAS  C:\Users\srich\AppData\Local\Temp\ccnI4goY.s 			page 12


 628              		.loc 1 139 0 is_stmt 0 discriminator 1
 629 0090 0522     		movs	r2, #5
 630 0092 2270     		strb	r2, [r4]
 631 0094 2046     		mov	r0, r4
 632 0096 0121     		movs	r1, #1
 633 0098 9847     		blx	r3
 634              	.LVL43:
 635 009a 2378     		ldrb	r3, [r4]	@ zero_extendqisi2
 636 009c 052B     		cmp	r3, #5
 637 009e 04BF     		itt	eq
 638 00a0 0223     		moveq	r3, #2
 639 00a2 2370     		strbeq	r3, [r4]
 640              	.L44:
 641              		.loc 1 139 0 discriminator 5
 642 00a4 0022     		movs	r2, #0
 643 00a6 2261     		str	r2, [r4, #16]
 644 00a8 0849     		ldr	r1, .L78+4
 645              	.LBB7:
 646 00aa 2023     		movs	r3, #32
 647              	@ 139 "../../../ChibiOS/os/hal/platforms/STM32F4xx/adc_lld.c" 1
 648 00ac 83F31188 		msr     BASEPRI, r3
 649              	@ 0 "" 2
 650              		.thumb
 651              	.LBE7:
 652 00b0 6069     		ldr	r0, [r4, #20]
 653 00b2 28B1     		cbz	r0, .L46
 654              	.LVL44:
 655              	.LBB8:
 656              		.loc 1 139 0 discriminator 6
 657 00b4 4FF0FF33 		mov	r3, #-1
 658 00b8 4362     		str	r3, [r0, #36]
 659 00ba 4A61     		str	r2, [r1, #20]
 660 00bc FFF7FEFF 		bl	chSchReadyI
 661              	.LVL45:
 662              	.L46:
 663              	.LBE8:
 664              	.LBB9:
 665              		.loc 1 139 0 discriminator 8
 666 00c0 0023     		movs	r3, #0
 667              	@ 139 "../../../ChibiOS/os/hal/platforms/STM32F4xx/adc_lld.c" 1
 668 00c2 83F31188 		msr     BASEPRI, r3
 669              	@ 0 "" 2
 670              		.thumb
 671 00c6 A8E7     		b	.L42
 672              	.L79:
 673              		.align	2
 674              	.L78:
 675 00c8 00210140 		.word	1073815808
 676 00cc 00000000 		.word	.LANCHOR0
 677 00d0 00220140 		.word	1073816064
 678 00d4 00000000 		.word	.LANCHOR1
 679              	.LBE9:
 680              		.cfi_endproc
 681              	.LFE119:
 682              		.size	Vector88, .-Vector88
 683              		.section	.text.adc_lld_serve_rx_interrupt,"ax",%progbits
 684              		.align	2
ARM GAS  C:\Users\srich\AppData\Local\Temp\ccnI4goY.s 			page 13


 685              		.p2align 4,,15
 686              		.thumb
 687              		.thumb_func
 688              		.type	adc_lld_serve_rx_interrupt, %function
 689              	adc_lld_serve_rx_interrupt:
 690              	.LFB118:
 691              		.loc 1 76 0 is_stmt 1
 692              		.cfi_startproc
 693              		@ args = 0, pretend = 0, frame = 0
 694              		@ frame_needed = 0, uses_anonymous_args = 0
 695              	.LVL46:
 696              		.loc 1 79 0
 697 0000 11F00C0F 		tst	r1, #12
 698              		.loc 1 76 0
 699 0004 70B5     		push	{r4, r5, r6, lr}
 700              		.cfi_def_cfa_offset 16
 701              		.cfi_offset 4, -16
 702              		.cfi_offset 5, -12
 703              		.cfi_offset 6, -8
 704              		.cfi_offset 14, -4
 705              		.loc 1 76 0
 706 0006 0446     		mov	r4, r0
 707              		.loc 1 79 0
 708 0008 19D1     		bne	.L115
 709              		.loc 1 87 0
 710 000a 0369     		ldr	r3, [r0, #16]
 711 000c B3B1     		cbz	r3, .L80
 712              		.loc 1 88 0
 713 000e 8D06     		lsls	r5, r1, #26
 714 0010 12D5     		bpl	.L87
 715              		.loc 1 90 0
 716 0012 1A78     		ldrb	r2, [r3]	@ zero_extendqisi2
 717 0014 002A     		cmp	r2, #0
 718 0016 41D0     		beq	.L88
 719              		.loc 1 90 0 is_stmt 0 discriminator 1
 720 0018 5D68     		ldr	r5, [r3, #4]
 721 001a 7DB1     		cbz	r5, .L80
 722              		.loc 1 90 0 discriminator 3
 723 001c C268     		ldr	r2, [r0, #12]
 724 001e 012A     		cmp	r2, #1
 725 0020 37D9     		bls	.L89
 726              	.LBB10:
 727              		.loc 1 90 0 discriminator 4
 728 0022 5B88     		ldrh	r3, [r3, #2]
 729 0024 8168     		ldr	r1, [r0, #8]
 730              	.LVL47:
 731 0026 5208     		lsrs	r2, r2, #1
 732              	.LVL48:
 733 0028 03FB02F3 		mul	r3, r3, r2
 734 002c 01EB4301 		add	r1, r1, r3, lsl #1
 735 0030 2B46     		mov	r3, r5
 736              	.LBE10:
 737              		.loc 1 98 0 is_stmt 1 discriminator 4
 738 0032 BDE87040 		pop	{r4, r5, r6, lr}
 739              		.cfi_remember_state
 740              		.cfi_restore 14
 741              		.cfi_restore 6
ARM GAS  C:\Users\srich\AppData\Local\Temp\ccnI4goY.s 			page 14


 742              		.cfi_restore 5
 743              		.cfi_restore 4
 744              		.cfi_def_cfa_offset 0
 745              	.LBB11:
 746              		.loc 1 90 0 discriminator 4
 747 0036 1847     		bx	r3	@ indirect register sibling call
 748              	.LVL49:
 749              	.L87:
 750              		.cfi_restore_state
 751              	.LBE11:
 752              		.loc 1 92 0
 753 0038 CA06     		lsls	r2, r1, #27
 754 003a 21D4     		bmi	.L116
 755              	.L80:
 756 003c 70BD     		pop	{r4, r5, r6, pc}
 757              	.L115:
 758              		.loc 1 82 0
 759 003e FFF7FEFF 		bl	adc_lld_stop_conversion
 760              	.LVL50:
 761 0042 2369     		ldr	r3, [r4, #16]
 762 0044 9B68     		ldr	r3, [r3, #8]
 763 0046 4BB1     		cbz	r3, .L83
 764              		.loc 1 82 0 is_stmt 0 discriminator 1
 765 0048 0522     		movs	r2, #5
 766 004a 2270     		strb	r2, [r4]
 767 004c 2046     		mov	r0, r4
 768 004e 0021     		movs	r1, #0
 769 0050 9847     		blx	r3
 770              	.LVL51:
 771 0052 2378     		ldrb	r3, [r4]	@ zero_extendqisi2
 772 0054 052B     		cmp	r3, #5
 773 0056 04BF     		itt	eq
 774 0058 0223     		moveq	r3, #2
 775 005a 2370     		strbeq	r3, [r4]
 776              	.L83:
 777              		.loc 1 82 0 discriminator 5
 778 005c 0022     		movs	r2, #0
 779 005e 2261     		str	r2, [r4, #16]
 780              	.LBB12:
 781 0060 2023     		movs	r3, #32
 782              	@ 82 "../../../ChibiOS/os/hal/platforms/STM32F4xx/adc_lld.c" 1
 783 0062 83F31188 		msr     BASEPRI, r3
 784              	@ 0 "" 2
 785              		.thumb
 786              	.LBE12:
 787 0066 6369     		ldr	r3, [r4, #20]
 788 0068 33B1     		cbz	r3, .L92
 789              	.LVL52:
 790              	.LBB13:
 791              		.loc 1 82 0 discriminator 6
 792 006a 4FF0FF31 		mov	r1, #-1
 793 006e 6261     		str	r2, [r4, #20]
 794 0070 1846     		mov	r0, r3
 795 0072 5962     		str	r1, [r3, #36]
 796 0074 FFF7FEFF 		bl	chSchReadyI
 797              	.LVL53:
 798              	.L92:
ARM GAS  C:\Users\srich\AppData\Local\Temp\ccnI4goY.s 			page 15


 799              	.LBE13:
 800              	.LBB14:
 801              		.loc 1 90 0 is_stmt 1 discriminator 12
 802 0078 0023     		movs	r3, #0
 803              	@ 90 "../../../ChibiOS/os/hal/platforms/STM32F4xx/adc_lld.c" 1
 804 007a 83F31188 		msr     BASEPRI, r3
 805              	@ 0 "" 2
 806              		.thumb
 807 007e 70BD     		pop	{r4, r5, r6, pc}
 808              	.LVL54:
 809              	.L116:
 810              	.LBE14:
 811              		.loc 1 94 0
 812 0080 5B68     		ldr	r3, [r3, #4]
 813 0082 002B     		cmp	r3, #0
 814 0084 DAD0     		beq	.L80
 815              		.loc 1 94 0 is_stmt 0 discriminator 1
 816 0086 C268     		ldr	r2, [r0, #12]
 817 0088 8168     		ldr	r1, [r0, #8]
 818              	.LVL55:
 819 008a 5208     		lsrs	r2, r2, #1
 820              		.loc 1 98 0 is_stmt 1 discriminator 1
 821 008c BDE87040 		pop	{r4, r5, r6, lr}
 822              		.cfi_remember_state
 823              		.cfi_restore 14
 824              		.cfi_restore 6
 825              		.cfi_restore 5
 826              		.cfi_restore 4
 827              		.cfi_def_cfa_offset 0
 828              		.loc 1 94 0 discriminator 1
 829 0090 1847     		bx	r3	@ indirect register sibling call
 830              	.LVL56:
 831              	.L89:
 832              		.cfi_restore_state
 833              		.loc 1 90 0 discriminator 5
 834 0092 2B46     		mov	r3, r5
 835 0094 8168     		ldr	r1, [r0, #8]
 836              	.LVL57:
 837              		.loc 1 98 0 discriminator 5
 838 0096 BDE87040 		pop	{r4, r5, r6, lr}
 839              		.cfi_remember_state
 840              		.cfi_restore 14
 841              		.cfi_restore 6
 842              		.cfi_restore 5
 843              		.cfi_restore 4
 844              		.cfi_def_cfa_offset 0
 845              		.loc 1 90 0 discriminator 5
 846 009a 1847     		bx	r3	@ indirect register sibling call
 847              	.LVL58:
 848              	.L88:
 849              		.cfi_restore_state
 850              		.loc 1 90 0 is_stmt 0 discriminator 2
 851 009c FFF7FEFF 		bl	adc_lld_stop_conversion
 852              	.LVL59:
 853 00a0 2369     		ldr	r3, [r4, #16]
 854 00a2 5B68     		ldr	r3, [r3, #4]
 855 00a4 ABB1     		cbz	r3, .L90
ARM GAS  C:\Users\srich\AppData\Local\Temp\ccnI4goY.s 			page 16


 856              		.loc 1 90 0 discriminator 6
 857 00a6 0422     		movs	r2, #4
 858 00a8 2270     		strb	r2, [r4]
 859 00aa 2046     		mov	r0, r4
 860 00ac A168     		ldr	r1, [r4, #8]
 861 00ae E268     		ldr	r2, [r4, #12]
 862 00b0 9847     		blx	r3
 863              	.LVL60:
 864 00b2 2378     		ldrb	r3, [r4]	@ zero_extendqisi2
 865 00b4 042B     		cmp	r3, #4
 866 00b6 0CD0     		beq	.L90
 867              	.L91:
 868              	.LBB15:
 869              		.loc 1 90 0 discriminator 9
 870 00b8 2023     		movs	r3, #32
 871              	@ 90 "../../../ChibiOS/os/hal/platforms/STM32F4xx/adc_lld.c" 1
 872 00ba 83F31188 		msr     BASEPRI, r3
 873              	@ 0 "" 2
 874              		.thumb
 875              	.LBE15:
 876 00be 6369     		ldr	r3, [r4, #20]
 877 00c0 002B     		cmp	r3, #0
 878 00c2 D9D0     		beq	.L92
 879              	.LVL61:
 880              	.LBB16:
 881              		.loc 1 90 0 discriminator 10
 882 00c4 0022     		movs	r2, #0
 883 00c6 6261     		str	r2, [r4, #20]
 884 00c8 1846     		mov	r0, r3
 885 00ca 5A62     		str	r2, [r3, #36]
 886 00cc FFF7FEFF 		bl	chSchReadyI
 887              	.LVL62:
 888 00d0 D2E7     		b	.L92
 889              	.L90:
 890              	.LBE16:
 891              		.loc 1 90 0 discriminator 8
 892 00d2 0222     		movs	r2, #2
 893 00d4 0023     		movs	r3, #0
 894 00d6 2270     		strb	r2, [r4]
 895 00d8 2361     		str	r3, [r4, #16]
 896 00da EDE7     		b	.L91
 897              		.cfi_endproc
 898              	.LFE118:
 899              		.size	adc_lld_serve_rx_interrupt, .-adc_lld_serve_rx_interrupt
 900              		.section	.text.adcSTM32EnableTSVREFE,"ax",%progbits
 901              		.align	2
 902              		.p2align 4,,15
 903              		.global	adcSTM32EnableTSVREFE
 904              		.thumb
 905              		.thumb_func
 906              		.type	adcSTM32EnableTSVREFE, %function
 907              	adcSTM32EnableTSVREFE:
 908              	.LFB125:
 909              		.loc 1 388 0 is_stmt 1
 910              		.cfi_startproc
 911              		@ args = 0, pretend = 0, frame = 0
 912              		@ frame_needed = 0, uses_anonymous_args = 0
ARM GAS  C:\Users\srich\AppData\Local\Temp\ccnI4goY.s 			page 17


 913              		@ link register save eliminated.
 914              		.loc 1 390 0
 915 0000 024A     		ldr	r2, .L118
 916 0002 5368     		ldr	r3, [r2, #4]
 917 0004 43F40003 		orr	r3, r3, #8388608
 918 0008 5360     		str	r3, [r2, #4]
 919 000a 7047     		bx	lr
 920              	.L119:
 921              		.align	2
 922              	.L118:
 923 000c 00230140 		.word	1073816320
 924              		.cfi_endproc
 925              	.LFE125:
 926              		.size	adcSTM32EnableTSVREFE, .-adcSTM32EnableTSVREFE
 927              		.section	.text.adcSTM32DisableTSVREFE,"ax",%progbits
 928              		.align	2
 929              		.p2align 4,,15
 930              		.global	adcSTM32DisableTSVREFE
 931              		.thumb
 932              		.thumb_func
 933              		.type	adcSTM32DisableTSVREFE, %function
 934              	adcSTM32DisableTSVREFE:
 935              	.LFB126:
 936              		.loc 1 399 0
 937              		.cfi_startproc
 938              		@ args = 0, pretend = 0, frame = 0
 939              		@ frame_needed = 0, uses_anonymous_args = 0
 940              		@ link register save eliminated.
 941              		.loc 1 401 0
 942 0000 024A     		ldr	r2, .L121
 943 0002 5368     		ldr	r3, [r2, #4]
 944 0004 23F40003 		bic	r3, r3, #8388608
 945 0008 5360     		str	r3, [r2, #4]
 946 000a 7047     		bx	lr
 947              	.L122:
 948              		.align	2
 949              	.L121:
 950 000c 00230140 		.word	1073816320
 951              		.cfi_endproc
 952              	.LFE126:
 953              		.size	adcSTM32DisableTSVREFE, .-adcSTM32DisableTSVREFE
 954              		.section	.text.adcSTM32EnableVBATE,"ax",%progbits
 955              		.align	2
 956              		.p2align 4,,15
 957              		.global	adcSTM32EnableVBATE
 958              		.thumb
 959              		.thumb_func
 960              		.type	adcSTM32EnableVBATE, %function
 961              	adcSTM32EnableVBATE:
 962              	.LFB127:
 963              		.loc 1 410 0
 964              		.cfi_startproc
 965              		@ args = 0, pretend = 0, frame = 0
 966              		@ frame_needed = 0, uses_anonymous_args = 0
 967              		@ link register save eliminated.
 968              		.loc 1 412 0
 969 0000 024A     		ldr	r2, .L124
ARM GAS  C:\Users\srich\AppData\Local\Temp\ccnI4goY.s 			page 18


 970 0002 5368     		ldr	r3, [r2, #4]
 971 0004 43F48003 		orr	r3, r3, #4194304
 972 0008 5360     		str	r3, [r2, #4]
 973 000a 7047     		bx	lr
 974              	.L125:
 975              		.align	2
 976              	.L124:
 977 000c 00230140 		.word	1073816320
 978              		.cfi_endproc
 979              	.LFE127:
 980              		.size	adcSTM32EnableVBATE, .-adcSTM32EnableVBATE
 981              		.section	.text.adcSTM32DisableVBATE,"ax",%progbits
 982              		.align	2
 983              		.p2align 4,,15
 984              		.global	adcSTM32DisableVBATE
 985              		.thumb
 986              		.thumb_func
 987              		.type	adcSTM32DisableVBATE, %function
 988              	adcSTM32DisableVBATE:
 989              	.LFB128:
 990              		.loc 1 421 0
 991              		.cfi_startproc
 992              		@ args = 0, pretend = 0, frame = 0
 993              		@ frame_needed = 0, uses_anonymous_args = 0
 994              		@ link register save eliminated.
 995              		.loc 1 423 0
 996 0000 024A     		ldr	r2, .L127
 997 0002 5368     		ldr	r3, [r2, #4]
 998 0004 23F48003 		bic	r3, r3, #4194304
 999 0008 5360     		str	r3, [r2, #4]
 1000 000a 7047     		bx	lr
 1001              	.L128:
 1002              		.align	2
 1003              	.L127:
 1004 000c 00230140 		.word	1073816320
 1005              		.cfi_endproc
 1006              	.LFE128:
 1007              		.size	adcSTM32DisableVBATE, .-adcSTM32DisableVBATE
 1008              		.global	ADCD3
 1009              		.global	ADCD2
 1010              		.section	.bss.ADCD2,"aw",%nobits
 1011              		.align	2
 1012              		.set	.LANCHOR0,. + 0
 1013              		.type	ADCD2, %object
 1014              		.size	ADCD2, 52
 1015              	ADCD2:
 1016 0000 00000000 		.space	52
 1016      00000000 
 1016      00000000 
 1016      00000000 
 1016      00000000 
 1017              		.section	.bss.ADCD3,"aw",%nobits
 1018              		.align	2
 1019              		.set	.LANCHOR1,. + 0
 1020              		.type	ADCD3, %object
 1021              		.size	ADCD3, 52
 1022              	ADCD3:
ARM GAS  C:\Users\srich\AppData\Local\Temp\ccnI4goY.s 			page 19


 1023 0000 00000000 		.space	52
 1023      00000000 
 1023      00000000 
 1023      00000000 
 1023      00000000 
 1024              		.text
 1025              	.Letext0:
 1026              		.file 2 "c:\\chibistudio\\tools\\gnu tools arm embedded\\4.9 2015q3\\lib\\gcc\\arm-none-eabi\\4.9.
 1027              		.file 3 "c:\\chibistudio\\tools\\gnu tools arm embedded\\4.9 2015q3\\arm-none-eabi\\include\\machi
 1028              		.file 4 "c:\\chibistudio\\tools\\gnu tools arm embedded\\4.9 2015q3\\arm-none-eabi\\include\\sys\\
 1029              		.file 5 "../../../ChibiOS/os/ports/GCC/ARMCMx/chtypes.h"
 1030              		.file 6 "../../../ChibiOS/os/kernel/include/chlists.h"
 1031              		.file 7 "../../../ChibiOS/os/kernel/include/chthreads.h"
 1032              		.file 8 "../../../ChibiOS/os/ports/GCC/ARMCMx/chcore_v7m.h"
 1033              		.file 9 "../../../ChibiOS/os/kernel/include/chmtx.h"
 1034              		.file 10 "../../../ChibiOS/os/hal/platforms/STM32F4xx/stm32f4xx.h"
 1035              		.file 11 "../../../ChibiOS/os/hal/platforms/STM32F4xx/stm32_dma.h"
 1036              		.file 12 "../../../ChibiOS/os/hal/include/adc.h"
 1037              		.file 13 "../../../ChibiOS/os/hal/platforms/STM32F4xx/adc_lld.h"
 1038              		.file 14 "../../../ChibiOS/os/ports/common/ARMCMx/CMSIS/include/core_cm4.h"
 1039              		.file 15 "../../../ChibiOS/os/ports/common/ARMCMx/nvic.h"
 1040              		.file 16 "../../../ChibiOS/os/kernel/include/chschd.h"