ARM GAS  C:\Users\DNIEL~1\AppData\Local\Temp\ccH33Zvb.s 			page 1


   1              		.syntax unified
   2              		.cpu cortex-m4
   3              		.fpu softvfp
   4              		.eabi_attribute 20, 1
   5              		.eabi_attribute 21, 1
   6              		.eabi_attribute 23, 3
   7              		.eabi_attribute 24, 1
   8              		.eabi_attribute 25, 1
   9              		.eabi_attribute 26, 1
  10              		.eabi_attribute 30, 2
  11              		.eabi_attribute 18, 4
  12              		.thumb
  13              		.file	"adc_lld.c"
  14              		.section	.debug_abbrev,"",%progbits
  15              	.Ldebug_abbrev0:
  16              		.section	.debug_info,"",%progbits
  17              	.Ldebug_info0:
  18              		.section	.debug_line,"",%progbits
  19              	.Ldebug_line0:
  20 0000 C1040000 		.text
  20      02006402 
  20      00000201 
  20      FB0E0D00 
  20      01010101 
  21              	.Ltext0:
  22              		.cfi_sections	.debug_frame
  23              		.section	.text.adc_lld_init,"ax",%progbits
  24              		.align	2
  25              		.p2align 4,,15
  26              		.global	adc_lld_init
  27              		.thumb
  28              		.thumb_func
  29              		.type	adc_lld_init, %function
  30              	adc_lld_init:
  31              	.LFB120:
  32              		.file 1 "../../../ChibiOS/os/hal/platforms/STM32F4xx/adc_lld.c"
  33              		.loc 1 171 0
  34              		.cfi_startproc
  35              		@ args = 0, pretend = 0, frame = 0
  36              		@ frame_needed = 0, uses_anonymous_args = 0
  37 0000 70B5     		push	{r4, r5, r6, lr}
  38              	.LCFI0:
  39              		.cfi_def_cfa_offset 16
  40              		.loc 1 188 0
  41 0002 0D4D     		ldr	r5, .L2
  42              		.cfi_offset 14, -4
  43              		.cfi_offset 6, -8
  44              		.cfi_offset 5, -12
  45              		.cfi_offset 4, -16
  46              		.loc 1 201 0
  47 0004 0D4C     		ldr	r4, .L2+4
  48              		.loc 1 190 0
  49 0006 0E4E     		ldr	r6, .L2+8
  50              		.loc 1 188 0
  51 0008 2846     		mov	r0, r5
  52 000a FFF7FEFF 		bl	adcObjectInit
  53              		.loc 1 189 0
ARM GAS  C:\Users\DNIEL~1\AppData\Local\Temp\ccH33Zvb.s 			page 2


  54 000e 0D4B     		ldr	r3, .L2+12
  55              		.loc 1 191 0
  56 0010 0D49     		ldr	r1, .L2+16
  57              		.loc 1 189 0
  58 0012 AB62     		str	r3, [r5, #40]
  59              		.loc 1 201 0
  60 0014 2046     		mov	r0, r4
  61              		.loc 1 191 0
  62 0016 2963     		str	r1, [r5, #48]
  63              		.loc 1 190 0
  64 0018 EE62     		str	r6, [r5, #44]
  65              		.loc 1 201 0
  66 001a FFF7FEFF 		bl	adcObjectInit
  67              		.loc 1 202 0
  68 001e 0B48     		ldr	r0, .L2+20
  69              		.loc 1 204 0
  70 0020 0B4B     		ldr	r3, .L2+24
  71              		.loc 1 202 0
  72 0022 A062     		str	r0, [r4, #40]
  73              		.loc 1 203 0
  74 0024 A6F10C02 		sub	r2, r6, #12
  75              		.loc 1 214 0
  76 0028 1220     		movs	r0, #18
  77 002a 6021     		movs	r1, #96
  78              		.loc 1 203 0
  79 002c E262     		str	r2, [r4, #44]
  80              		.loc 1 204 0
  81 002e 2363     		str	r3, [r4, #48]
  82              		.loc 1 215 0
  83 0030 BDE87040 		pop	{r4, r5, r6, lr}
  84              		.loc 1 214 0
  85 0034 FFF7FEBF 		b	nvicEnableVector
  86              	.L3:
  87              		.align	2
  88              	.L2:
  89 0038 00000000 		.word	.LANCHOR0
  90 003c 00000000 		.word	.LANCHOR1
  91 0040 78000000 		.word	_stm32_dma_streams+120
  92 0044 00210140 		.word	1073815808
  93 0048 162C0202 		.word	33696790
  94 004c 00220140 		.word	1073816064
  95 0050 162C0204 		.word	67251222
  96              		.cfi_endproc
  97              	.LFE120:
  98              		.size	adc_lld_init, .-adc_lld_init
  99 0054 AFF30080 		.section	.text.adc_lld_start,"ax",%progbits
  99      AFF30080 
  99      AFF30080 
 100              		.align	2
 101              		.p2align 4,,15
 102              		.global	adc_lld_start
 103              		.thumb
 104              		.thumb_func
 105              		.type	adc_lld_start, %function
 106              	adc_lld_start:
 107              	.LFB121:
 108              		.loc 1 224 0
ARM GAS  C:\Users\DNIEL~1\AppData\Local\Temp\ccH33Zvb.s 			page 3


 109              		.cfi_startproc
 110              		@ args = 0, pretend = 0, frame = 0
 111              		@ frame_needed = 0, uses_anonymous_args = 0
 112              	.LVL0:
 113              		.loc 1 227 0
 114 0000 0378     		ldrb	r3, [r0, #0]	@ zero_extendqisi2
 115 0002 012B     		cmp	r3, #1
 116              		.loc 1 224 0
 117 0004 10B5     		push	{r4, lr}
 118              	.LCFI1:
 119              		.cfi_def_cfa_offset 8
 120              		.loc 1 224 0
 121 0006 0446     		mov	r4, r0
 122              		.cfi_offset 14, -4
 123              		.cfi_offset 4, -8
 124              		.loc 1 227 0
 125 0008 00D0     		beq	.L9
 126 000a 10BD     		pop	{r4, pc}
 127              	.L9:
 128              		.loc 1 242 0
 129 000c 1949     		ldr	r1, .L12
 130 000e 8842     		cmp	r0, r1
 131 0010 10D0     		beq	.L10
 132              		.loc 1 255 0
 133 0012 194B     		ldr	r3, .L12+4
 134 0014 9842     		cmp	r0, r3
 135 0016 1DD0     		beq	.L11
 136              	.LVL1:
 137              	.L7:
 138              		.loc 1 269 0
 139 0018 1849     		ldr	r1, .L12+8
 140              		.loc 1 274 0
 141 001a A36A     		ldr	r3, [r4, #40]
 142              		.loc 1 269 0
 143 001c 4A68     		ldr	r2, [r1, #4]
 144 001e 02F4400C 		and	ip, r2, #12582912
 145 0022 4CF48030 		orr	r0, ip, #65536
 146              		.loc 1 274 0
 147 0026 0022     		movs	r2, #0
 148              		.loc 1 269 0
 149 0028 4860     		str	r0, [r1, #4]
 150              		.loc 1 274 0
 151 002a 5A60     		str	r2, [r3, #4]
 152              		.loc 1 275 0
 153 002c 9A60     		str	r2, [r3, #8]
 154              		.loc 1 276 0
 155 002e 0122     		movs	r2, #1
 156 0030 9A60     		str	r2, [r3, #8]
 157 0032 10BD     		pop	{r4, pc}
 158              	.L10:
 159              	.LBB2:
 160              		.loc 1 244 0
 161 0034 124A     		ldr	r2, .L12+12
 162 0036 C06A     		ldr	r0, [r0, #44]
 163 0038 0621     		movs	r1, #6
 164 003a 2346     		mov	r3, r4
 165 003c FFF7FEFF 		bl	dmaStreamAllocate
ARM GAS  C:\Users\DNIEL~1\AppData\Local\Temp\ccH33Zvb.s 			page 4


 166              		.loc 1 249 0
 167 0040 E06A     		ldr	r0, [r4, #44]
 168 0042 1049     		ldr	r1, .L12+16
 169 0044 0268     		ldr	r2, [r0, #0]
 170              		.loc 1 250 0
 171 0046 1048     		ldr	r0, .L12+20
 172              		.loc 1 249 0
 173 0048 9160     		str	r1, [r2, #8]
 174              		.loc 1 250 0
 175 004a 436C     		ldr	r3, [r0, #68]
 176 004c 43F40072 		orr	r2, r3, #512
 177 0050 4264     		str	r2, [r0, #68]
 178 0052 E1E7     		b	.L7
 179              	.L11:
 180              	.LBE2:
 181              	.LBB3:
 182              		.loc 1 257 0
 183 0054 0A4A     		ldr	r2, .L12+12
 184 0056 C06A     		ldr	r0, [r0, #44]
 185 0058 0621     		movs	r1, #6
 186 005a 2346     		mov	r3, r4
 187 005c FFF7FEFF 		bl	dmaStreamAllocate
 188              		.loc 1 262 0
 189 0060 E06A     		ldr	r0, [r4, #44]
 190 0062 0A4B     		ldr	r3, .L12+24
 191 0064 0168     		ldr	r1, [r0, #0]
 192              		.loc 1 263 0
 193 0066 0848     		ldr	r0, .L12+20
 194              		.loc 1 262 0
 195 0068 8B60     		str	r3, [r1, #8]
 196              		.loc 1 263 0
 197 006a 426C     		ldr	r2, [r0, #68]
 198 006c 42F48061 		orr	r1, r2, #1024
 199 0070 4164     		str	r1, [r0, #68]
 200 0072 D1E7     		b	.L7
 201              	.L13:
 202              		.align	2
 203              	.L12:
 204 0074 00000000 		.word	.LANCHOR0
 205 0078 00000000 		.word	.LANCHOR1
 206 007c 00230140 		.word	1073816320
 207 0080 00000000 		.word	adc_lld_serve_rx_interrupt
 208 0084 4C210140 		.word	1073815884
 209 0088 00380240 		.word	1073887232
 210 008c 4C220140 		.word	1073816140
 211              	.LBE3:
 212              		.cfi_endproc
 213              	.LFE121:
 214              		.size	adc_lld_start, .-adc_lld_start
 215              		.section	.text.adc_lld_stop,"ax",%progbits
 216              		.align	2
 217              		.p2align 4,,15
 218              		.global	adc_lld_stop
 219              		.thumb
 220              		.thumb_func
 221              		.type	adc_lld_stop, %function
 222              	adc_lld_stop:
ARM GAS  C:\Users\DNIEL~1\AppData\Local\Temp\ccH33Zvb.s 			page 5


 223              	.LFB122:
 224              		.loc 1 287 0
 225              		.cfi_startproc
 226              		@ args = 0, pretend = 0, frame = 0
 227              		@ frame_needed = 0, uses_anonymous_args = 0
 228              	.LVL2:
 229              		.loc 1 290 0
 230 0000 0378     		ldrb	r3, [r0, #0]	@ zero_extendqisi2
 231 0002 022B     		cmp	r3, #2
 232              		.loc 1 287 0
 233 0004 10B5     		push	{r4, lr}
 234              	.LCFI2:
 235              		.cfi_def_cfa_offset 8
 236              		.loc 1 287 0
 237 0006 0446     		mov	r4, r0
 238              		.cfi_offset 14, -4
 239              		.cfi_offset 4, -8
 240              		.loc 1 290 0
 241 0008 00D0     		beq	.L17
 242              	.LVL3:
 243              	.L14:
 244 000a 10BD     		pop	{r4, pc}
 245              	.L17:
 246              		.loc 1 291 0
 247 000c C06A     		ldr	r0, [r0, #44]
 248 000e FFF7FEFF 		bl	dmaStreamRelease
 249              		.loc 1 301 0
 250 0012 0B48     		ldr	r0, .L19
 251              		.loc 1 292 0
 252 0014 A16A     		ldr	r1, [r4, #40]
 253 0016 0022     		movs	r2, #0
 254              		.loc 1 301 0
 255 0018 8442     		cmp	r4, r0
 256              		.loc 1 292 0
 257 001a 4A60     		str	r2, [r1, #4]
 258              		.loc 1 293 0
 259 001c 8A60     		str	r2, [r1, #8]
 260              		.loc 1 301 0
 261 001e 08D0     		beq	.L18
 262              		.loc 1 306 0
 263 0020 0849     		ldr	r1, .L19+4
 264 0022 8C42     		cmp	r4, r1
 265 0024 F1D1     		bne	.L14
 266              		.loc 1 307 0
 267 0026 084B     		ldr	r3, .L19+8
 268 0028 5A6C     		ldr	r2, [r3, #68]
 269 002a 22F48060 		bic	r0, r2, #1024
 270 002e 5864     		str	r0, [r3, #68]
 271 0030 EBE7     		b	.L14
 272              	.L18:
 273              		.loc 1 302 0
 274 0032 054B     		ldr	r3, .L19+8
 275 0034 5A6C     		ldr	r2, [r3, #68]
 276 0036 22F40070 		bic	r0, r2, #512
 277 003a 5864     		str	r0, [r3, #68]
 278 003c 10BD     		pop	{r4, pc}
 279              	.L20:
ARM GAS  C:\Users\DNIEL~1\AppData\Local\Temp\ccH33Zvb.s 			page 6


 280 003e 00BF     		.align	2
 281              	.L19:
 282 0040 00000000 		.word	.LANCHOR0
 283 0044 00000000 		.word	.LANCHOR1
 284 0048 00380240 		.word	1073887232
 285              		.cfi_endproc
 286              	.LFE122:
 287              		.size	adc_lld_stop, .-adc_lld_stop
 288 004c AFF30080 		.section	.text.adc_lld_start_conversion,"ax",%progbits
 289              		.align	2
 290              		.p2align 4,,15
 291              		.global	adc_lld_start_conversion
 292              		.thumb
 293              		.thumb_func
 294              		.type	adc_lld_start_conversion, %function
 295              	adc_lld_start_conversion:
 296              	.LFB123:
 297              		.loc 1 319 0
 298              		.cfi_startproc
 299              		@ args = 0, pretend = 0, frame = 0
 300              		@ frame_needed = 0, uses_anonymous_args = 0
 301              		@ link register save eliminated.
 302              	.LVL4:
 303              		.loc 1 322 0
 304 0000 0369     		ldr	r3, [r0, #16]
 305              	.LVL5:
 306              		.loc 1 325 0
 307 0002 026B     		ldr	r2, [r0, #48]
 308              	.LVL6:
 309              		.loc 1 326 0
 310 0004 1978     		ldrb	r1, [r3, #0]	@ zero_extendqisi2
 311              		.loc 1 319 0
 312 0006 2DE9F007 		push	{r4, r5, r6, r7, r8, r9, sl}
 313              	.LCFI3:
 314              		.cfi_def_cfa_offset 28
 315              		.loc 1 326 0
 316 000a 0029     		cmp	r1, #0
 317 000c 33D1     		bne	.L22
 318              		.cfi_offset 10, -4
 319              		.cfi_offset 9, -8
 320              		.cfi_offset 8, -12
 321              		.cfi_offset 7, -16
 322              		.cfi_offset 6, -20
 323              		.cfi_offset 5, -24
 324              		.cfi_offset 4, -28
 325 000e C468     		ldr	r4, [r0, #12]
 326              	.LVL7:
 327              	.L23:
 328              		.loc 1 334 0
 329 0010 C76A     		ldr	r7, [r0, #44]
 330              		.loc 1 335 0
 331 0012 5D88     		ldrh	r5, [r3, #2]
 332              		.loc 1 334 0
 333 0014 3968     		ldr	r1, [r7, #0]
 334 0016 8668     		ldr	r6, [r0, #8]
 335              		.loc 1 349 0
 336 0018 D3F80C80 		ldr	r8, [r3, #12]
ARM GAS  C:\Users\DNIEL~1\AppData\Local\Temp\ccH33Zvb.s 			page 7


 337              		.loc 1 352 0
 338 001c D3F81090 		ldr	r9, [r3, #16]
 339              		.loc 1 334 0
 340 0020 CE60     		str	r6, [r1, #12]
 341              		.loc 1 335 0
 342 0022 05FB04F4 		mul	r4, r5, r4
 343 0026 4C60     		str	r4, [r1, #4]
 344              		.loc 1 337 0
 345 0028 0A60     		str	r2, [r1, #0]
 346              		.loc 1 338 0
 347 002a D1F800C0 		ldr	ip, [r1, #0]
 348              		.loc 1 341 0
 349 002e 826A     		ldr	r2, [r0, #40]
 350              	.LVL8:
 351              		.loc 1 342 0
 352 0030 5F69     		ldr	r7, [r3, #20]
 353              		.loc 1 343 0
 354 0032 9E69     		ldr	r6, [r3, #24]
 355              		.loc 1 344 0
 356 0034 DD69     		ldr	r5, [r3, #28]
 357              		.loc 1 345 0
 358 0036 1C6A     		ldr	r4, [r3, #32]
 359              		.loc 1 346 0
 360 0038 D3F824A0 		ldr	sl, [r3, #36]
 361              		.loc 1 352 0
 362 003c 49F44070 		orr	r0, r9, #768
 363              	.LVL9:
 364              		.loc 1 349 0
 365 0040 48F08068 		orr	r8, r8, #67108864
 366              		.loc 1 338 0
 367 0044 4CF0010C 		orr	ip, ip, #1
 368              		.loc 1 352 0
 369 0048 40F00103 		orr	r3, r0, #1
 370              	.LVL10:
 371              		.loc 1 338 0
 372 004c C1F800C0 		str	ip, [r1, #0]
 373              		.loc 1 349 0
 374 0050 48F48078 		orr	r8, r8, #256
 375              		.loc 1 341 0
 376 0054 0021     		movs	r1, #0
 377              	.LVL11:
 378              		.loc 1 356 0
 379 0056 13F0804F 		tst	r3, #1073741824
 380              		.loc 1 341 0
 381 005a 1160     		str	r1, [r2, #0]
 382              		.loc 1 342 0
 383 005c D760     		str	r7, [r2, #12]
 384              		.loc 1 343 0
 385 005e 1661     		str	r6, [r2, #16]
 386              		.loc 1 344 0
 387 0060 D562     		str	r5, [r2, #44]
 388              		.loc 1 345 0
 389 0062 1463     		str	r4, [r2, #48]
 390              		.loc 1 346 0
 391 0064 C2F834A0 		str	sl, [r2, #52]
 392              		.loc 1 349 0
 393 0068 C2F80480 		str	r8, [r2, #4]
ARM GAS  C:\Users\DNIEL~1\AppData\Local\Temp\ccH33Zvb.s 			page 8


 394              		.loc 1 356 0
 395 006c 0BD1     		bne	.L26
 396              		.loc 1 364 0
 397 006e 9360     		str	r3, [r2, #8]
 398              	.LVL12:
 399              	.L21:
 400              		.loc 1 365 0
 401 0070 BDE8F007 		pop	{r4, r5, r6, r7, r8, r9, sl}
 402 0074 7047     		bx	lr
 403              	.LVL13:
 404              	.L22:
 405              		.loc 1 328 0
 406 0076 C468     		ldr	r4, [r0, #12]
 407              		.loc 1 327 0
 408 0078 42F48072 		orr	r2, r2, #256
 409              	.LVL14:
 410              		.loc 1 328 0
 411 007c 012C     		cmp	r4, #1
 412              		.loc 1 331 0
 413 007e 88BF     		it	hi
 414 0080 42F00802 		orrhi	r2, r2, #8
 415              	.LVL15:
 416 0084 C4E7     		b	.L23
 417              	.LVL16:
 418              	.L26:
 419              		.loc 1 358 0
 420 0086 23F0804C 		bic	ip, r3, #1073741824
 421 008a 2CF00201 		bic	r1, ip, #2
 422 008e 41F00203 		orr	r3, r1, #2
 423              	.LVL17:
 424              		.loc 1 361 0
 425 0092 40F00300 		orr	r0, r0, #3
 426              		.loc 1 358 0
 427 0096 9360     		str	r3, [r2, #8]
 428              		.loc 1 361 0
 429 0098 9060     		str	r0, [r2, #8]
 430 009a E9E7     		b	.L21
 431              		.cfi_endproc
 432              	.LFE123:
 433              		.size	adc_lld_start_conversion, .-adc_lld_start_conversion
 434 009c AFF30080 		.section	.text.adc_lld_stop_conversion,"ax",%progbits
 435              		.align	2
 436              		.p2align 4,,15
 437              		.global	adc_lld_stop_conversion
 438              		.thumb
 439              		.thumb_func
 440              		.type	adc_lld_stop_conversion, %function
 441              	adc_lld_stop_conversion:
 442              	.LFB124:
 443              		.loc 1 374 0
 444              		.cfi_startproc
 445              		@ args = 0, pretend = 0, frame = 0
 446              		@ frame_needed = 0, uses_anonymous_args = 0
 447              		@ link register save eliminated.
 448              	.LVL18:
 449              		.loc 1 376 0
 450 0000 C16A     		ldr	r1, [r0, #44]
ARM GAS  C:\Users\DNIEL~1\AppData\Local\Temp\ccH33Zvb.s 			page 9


 451 0002 0A68     		ldr	r2, [r1, #0]
 452              		.loc 1 374 0
 453 0004 10B4     		push	{r4}
 454              	.LCFI4:
 455              		.cfi_def_cfa_offset 4
 456              		.loc 1 376 0
 457 0006 1468     		ldr	r4, [r2, #0]
 458              		.cfi_offset 4, -4
 459 0008 24F01F03 		bic	r3, r4, #31
 460 000c 1360     		str	r3, [r2, #0]
 461              	.L28:
 462              		.loc 1 376 0 is_stmt 0 discriminator 1
 463 000e 1368     		ldr	r3, [r2, #0]
 464 0010 13F00103 		ands	r3, r3, #1
 465 0014 FBD1     		bne	.L28
 466              		.loc 1 376 0 discriminator 2
 467 0016 0C7A     		ldrb	r4, [r1, #8]	@ zero_extendqisi2
 468              		.loc 1 377 0 is_stmt 1 discriminator 2
 469 0018 826A     		ldr	r2, [r0, #40]
 470              		.loc 1 376 0 discriminator 2
 471 001a 4968     		ldr	r1, [r1, #4]
 472 001c 3D20     		movs	r0, #61
 473              	.LVL19:
 474 001e A040     		lsls	r0, r0, r4
 475 0020 0860     		str	r0, [r1, #0]
 476              		.loc 1 379 0 discriminator 2
 477 0022 0120     		movs	r0, #1
 478              		.loc 1 377 0 discriminator 2
 479 0024 5360     		str	r3, [r2, #4]
 480              		.loc 1 378 0 discriminator 2
 481 0026 9360     		str	r3, [r2, #8]
 482              		.loc 1 379 0 discriminator 2
 483 0028 9060     		str	r0, [r2, #8]
 484              		.loc 1 380 0 discriminator 2
 485 002a 10BC     		pop	{r4}
 486 002c 7047     		bx	lr
 487              		.cfi_endproc
 488              	.LFE124:
 489              		.size	adc_lld_stop_conversion, .-adc_lld_stop_conversion
 490 002e 00BF     		.section	.text.adc_lld_serve_rx_interrupt,"ax",%progbits
 491              		.align	2
 492              		.p2align 4,,15
 493              		.thumb
 494              		.thumb_func
 495              		.type	adc_lld_serve_rx_interrupt, %function
 496              	adc_lld_serve_rx_interrupt:
 497              	.LFB118:
 498              		.loc 1 76 0
 499              		.cfi_startproc
 500              		@ args = 0, pretend = 0, frame = 0
 501              		@ frame_needed = 0, uses_anonymous_args = 0
 502              	.LVL20:
 503              		.loc 1 79 0
 504 0000 11F00C0F 		tst	r1, #12
 505              		.loc 1 76 0
 506 0004 70B5     		push	{r4, r5, r6, lr}
 507              	.LCFI5:
ARM GAS  C:\Users\DNIEL~1\AppData\Local\Temp\ccH33Zvb.s 			page 10


 508              		.cfi_def_cfa_offset 16
 509              		.loc 1 76 0
 510 0006 0446     		mov	r4, r0
 511              		.cfi_offset 14, -4
 512              		.cfi_offset 6, -8
 513              		.cfi_offset 5, -12
 514              		.cfi_offset 4, -16
 515              		.loc 1 79 0
 516 0008 1FD1     		bne	.L41
 517              		.loc 1 87 0
 518 000a 0669     		ldr	r6, [r0, #16]
 519 000c E6B1     		cbz	r6, .L30
 520              		.loc 1 88 0
 521 000e 11F0200F 		tst	r1, #32
 522 0012 10D0     		beq	.L35
 523              		.loc 1 90 0
 524 0014 3578     		ldrb	r5, [r6, #0]	@ zero_extendqisi2
 525 0016 002D     		cmp	r5, #0
 526 0018 3CD0     		beq	.L36
 527              		.loc 1 90 0 is_stmt 0 discriminator 1
 528 001a 7368     		ldr	r3, [r6, #4]
 529 001c A3B1     		cbz	r3, .L30
 530              		.loc 1 90 0 discriminator 3
 531 001e C268     		ldr	r2, [r0, #12]
 532 0020 012A     		cmp	r2, #1
 533 0022 34D9     		bls	.L37
 534              	.LBB4:
 535              		.loc 1 90 0 discriminator 4
 536 0024 7588     		ldrh	r5, [r6, #2]
 537 0026 8168     		ldr	r1, [r0, #8]
 538              	.LVL21:
 539 0028 5208     		lsrs	r2, r2, #1
 540              	.LVL22:
 541 002a 05FB02F4 		mul	r4, r5, r2
 542 002e 01EB4401 		add	r1, r1, r4, lsl #1
 543 0032 9847     		blx	r3
 544              	.LVL23:
 545 0034 70BD     		pop	{r4, r5, r6, pc}
 546              	.LVL24:
 547              	.L35:
 548              	.LBE4:
 549              		.loc 1 92 0 is_stmt 1
 550 0036 11F0100F 		tst	r1, #16
 551 003a 05D0     		beq	.L30
 552              		.loc 1 94 0
 553 003c 7368     		ldr	r3, [r6, #4]
 554 003e 1BB1     		cbz	r3, .L30
 555              		.loc 1 94 0 is_stmt 0 discriminator 1
 556 0040 C268     		ldr	r2, [r0, #12]
 557 0042 8168     		ldr	r1, [r0, #8]
 558              	.LVL25:
 559 0044 5208     		lsrs	r2, r2, #1
 560 0046 9847     		blx	r3
 561              	.LVL26:
 562              	.L30:
 563 0048 70BD     		pop	{r4, r5, r6, pc}
 564              	.LVL27:
ARM GAS  C:\Users\DNIEL~1\AppData\Local\Temp\ccH33Zvb.s 			page 11


 565              	.L41:
 566              		.loc 1 82 0 is_stmt 1
 567 004a FFF7FEFF 		bl	adc_lld_stop_conversion
 568              	.LVL28:
 569 004e 2369     		ldr	r3, [r4, #16]
 570 0050 9B68     		ldr	r3, [r3, #8]
 571 0052 3BB1     		cbz	r3, .L32
 572              		.loc 1 82 0 is_stmt 0 discriminator 1
 573 0054 0522     		movs	r2, #5
 574 0056 2046     		mov	r0, r4
 575 0058 0021     		movs	r1, #0
 576 005a 2270     		strb	r2, [r4, #0]
 577 005c 9847     		blx	r3
 578 005e 2078     		ldrb	r0, [r4, #0]	@ zero_extendqisi2
 579 0060 0528     		cmp	r0, #5
 580 0062 11D0     		beq	.L42
 581              	.L32:
 582              		.loc 1 82 0 discriminator 2
 583 0064 0022     		movs	r2, #0
 584 0066 2261     		str	r2, [r4, #16]
 585              	.LBB5:
 586 0068 2023     		movs	r3, #32
 587              	.LVL29:
 588              	@ 82 "../../../ChibiOS/os/hal/platforms/STM32F4xx/adc_lld.c" 1
 589 006a 83F31188 		msr     BASEPRI, r3
 590              	@ 0 "" 2
 591              	.LVL30:
 592              		.thumb
 593              	.LBE5:
 594 006e 6369     		ldr	r3, [r4, #20]
 595              	.LVL31:
 596 0070 33B1     		cbz	r3, .L33
 597              	.LVL32:
 598              	.LBB6:
 599              		.loc 1 82 0 discriminator 4
 600 0072 6261     		str	r2, [r4, #20]
 601 0074 4FF0FF32 		mov	r2, #-1
 602 0078 1846     		mov	r0, r3
 603 007a 5A62     		str	r2, [r3, #36]
 604 007c FFF7FEFF 		bl	chSchReadyI
 605              	.LVL33:
 606              	.L33:
 607              	.LBE6:
 608              	.LBB7:
 609              		.loc 1 82 0 discriminator 5
 610 0080 0023     		movs	r3, #0
 611              	.LVL34:
 612              	@ 82 "../../../ChibiOS/os/hal/platforms/STM32F4xx/adc_lld.c" 1
 613 0082 83F31188 		msr     BASEPRI, r3
 614              	@ 0 "" 2
 615              	.LVL35:
 616              		.thumb
 617 0086 70BD     		pop	{r4, r5, r6, pc}
 618              	.LVL36:
 619              	.L42:
 620              	.LBE7:
 621              		.loc 1 82 0 discriminator 3
ARM GAS  C:\Users\DNIEL~1\AppData\Local\Temp\ccH33Zvb.s 			page 12


 622 0088 0221     		movs	r1, #2
 623 008a 2170     		strb	r1, [r4, #0]
 624 008c EAE7     		b	.L32
 625              	.LVL37:
 626              	.L37:
 627              		.loc 1 90 0 is_stmt 1 discriminator 5
 628 008e 8168     		ldr	r1, [r0, #8]
 629              	.LVL38:
 630 0090 9847     		blx	r3
 631 0092 70BD     		pop	{r4, r5, r6, pc}
 632              	.LVL39:
 633              	.L36:
 634              		.loc 1 90 0 is_stmt 0 discriminator 2
 635 0094 FFF7FEFF 		bl	adc_lld_stop_conversion
 636              	.LVL40:
 637 0098 2369     		ldr	r3, [r4, #16]
 638 009a 5B68     		ldr	r3, [r3, #4]
 639 009c EBB1     		cbz	r3, .L38
 640              		.loc 1 90 0 discriminator 6
 641 009e 0420     		movs	r0, #4
 642 00a0 2070     		strb	r0, [r4, #0]
 643 00a2 A168     		ldr	r1, [r4, #8]
 644 00a4 E268     		ldr	r2, [r4, #12]
 645 00a6 2046     		mov	r0, r4
 646 00a8 9847     		blx	r3
 647 00aa 94F800C0 		ldrb	ip, [r4, #0]	@ zero_extendqisi2
 648 00ae BCF1040F 		cmp	ip, #4
 649 00b2 0ED0     		beq	.L43
 650              	.L39:
 651              	.LBB8:
 652              		.loc 1 90 0 discriminator 9
 653 00b4 2023     		movs	r3, #32
 654              	.LVL41:
 655              	@ 90 "../../../ChibiOS/os/hal/platforms/STM32F4xx/adc_lld.c" 1
 656 00b6 83F31188 		msr     BASEPRI, r3
 657              	@ 0 "" 2
 658              	.LVL42:
 659              		.thumb
 660              	.LBE8:
 661 00ba 6369     		ldr	r3, [r4, #20]
 662              	.LVL43:
 663 00bc 2BB1     		cbz	r3, .L40
 664              	.LVL44:
 665              	.LBB9:
 666              		.loc 1 90 0 discriminator 10
 667 00be 0022     		movs	r2, #0
 668 00c0 6261     		str	r2, [r4, #20]
 669 00c2 1846     		mov	r0, r3
 670 00c4 5A62     		str	r2, [r3, #36]
 671 00c6 FFF7FEFF 		bl	chSchReadyI
 672              	.LVL45:
 673              	.L40:
 674              	.LBE9:
 675              	.LBB10:
 676              		.loc 1 90 0 discriminator 11
 677 00ca 0023     		movs	r3, #0
 678              	.LVL46:
ARM GAS  C:\Users\DNIEL~1\AppData\Local\Temp\ccH33Zvb.s 			page 13


 679              	@ 90 "../../../ChibiOS/os/hal/platforms/STM32F4xx/adc_lld.c" 1
 680 00cc 83F31188 		msr     BASEPRI, r3
 681              	@ 0 "" 2
 682              	.LVL47:
 683              		.thumb
 684 00d0 70BD     		pop	{r4, r5, r6, pc}
 685              	.LVL48:
 686              	.L43:
 687              	.LBE10:
 688              		.loc 1 90 0 discriminator 8
 689 00d2 0222     		movs	r2, #2
 690 00d4 2270     		strb	r2, [r4, #0]
 691 00d6 2561     		str	r5, [r4, #16]
 692 00d8 ECE7     		b	.L39
 693              	.L38:
 694              		.loc 1 90 0 discriminator 7
 695 00da 0221     		movs	r1, #2
 696 00dc 2170     		strb	r1, [r4, #0]
 697 00de 2361     		str	r3, [r4, #16]
 698 00e0 E8E7     		b	.L39
 699              		.cfi_endproc
 700              	.LFE118:
 701              		.size	adc_lld_serve_rx_interrupt, .-adc_lld_serve_rx_interrupt
 702 00e2 00BFAFF3 		.section	.text.Vector88,"ax",%progbits
 702      0080AFF3 
 702      0080AFF3 
 702      0080
 703              		.align	2
 704              		.p2align 4,,15
 705              		.global	Vector88
 706              		.thumb
 707              		.thumb_func
 708              		.type	Vector88, %function
 709              	Vector88:
 710              	.LFB119:
 711              		.loc 1 111 0 is_stmt 1
 712              		.cfi_startproc
 713              		@ args = 0, pretend = 0, frame = 0
 714              		@ frame_needed = 0, uses_anonymous_args = 0
 715              		.loc 1 131 0
 716 0000 354B     		ldr	r3, .L54
 717 0002 1A68     		ldr	r2, [r3, #0]
 718              	.LVL49:
 719              		.loc 1 132 0
 720 0004 0021     		movs	r1, #0
 721              		.loc 1 135 0
 722 0006 12F0200F 		tst	r2, #32
 723              		.loc 1 111 0
 724 000a 10B5     		push	{r4, lr}
 725              	.LCFI6:
 726              		.cfi_def_cfa_offset 8
 727              		.loc 1 132 0
 728 000c 1960     		str	r1, [r3, #0]
 729              		.loc 1 135 0
 730 000e 05D0     		beq	.L45
 731              		.cfi_offset 14, -4
 732              		.cfi_offset 4, -8
ARM GAS  C:\Users\DNIEL~1\AppData\Local\Temp\ccH33Zvb.s 			page 14


 733              		.loc 1 135 0 is_stmt 0 discriminator 1
 734 0010 324C     		ldr	r4, .L54+4
 735 0012 E16A     		ldr	r1, [r4, #44]
 736 0014 0A68     		ldr	r2, [r1, #0]
 737              	.LVL50:
 738 0016 5068     		ldr	r0, [r2, #4]
 739 0018 0028     		cmp	r0, #0
 740 001a 32D1     		bne	.L51
 741              	.LVL51:
 742              	.L45:
 743              		.loc 1 145 0 is_stmt 1
 744 001c 304B     		ldr	r3, .L54+8
 745              	.LVL52:
 746 001e 1868     		ldr	r0, [r3, #0]
 747              	.LVL53:
 748              		.loc 1 146 0
 749 0020 0022     		movs	r2, #0
 750              		.loc 1 149 0
 751 0022 10F0200F 		tst	r0, #32
 752              		.loc 1 146 0
 753 0026 1A60     		str	r2, [r3, #0]
 754              		.loc 1 149 0
 755 0028 27D0     		beq	.L48
 756              		.loc 1 149 0 is_stmt 0 discriminator 1
 757 002a 2E4C     		ldr	r4, .L54+12
 758 002c E26A     		ldr	r2, [r4, #44]
 759 002e 1068     		ldr	r0, [r2, #0]
 760              	.LVL54:
 761 0030 4168     		ldr	r1, [r0, #4]
 762 0032 11B3     		cbz	r1, .L48
 763              		.loc 1 152 0 is_stmt 1
 764 0034 2369     		ldr	r3, [r4, #16]
 765 0036 03B3     		cbz	r3, .L48
 766              		.loc 1 153 0
 767 0038 2046     		mov	r0, r4
 768 003a FFF7FEFF 		bl	adc_lld_stop_conversion
 769 003e 2169     		ldr	r1, [r4, #16]
 770 0040 8B68     		ldr	r3, [r1, #8]
 771 0042 4BB1     		cbz	r3, .L49
 772              		.loc 1 153 0 is_stmt 0 discriminator 1
 773 0044 0520     		movs	r0, #5
 774 0046 2070     		strb	r0, [r4, #0]
 775 0048 0121     		movs	r1, #1
 776 004a 2046     		mov	r0, r4
 777 004c 9847     		blx	r3
 778 004e 94F800C0 		ldrb	ip, [r4, #0]	@ zero_extendqisi2
 779 0052 BCF1050F 		cmp	ip, #5
 780 0056 39D0     		beq	.L52
 781              	.L49:
 782              		.loc 1 153 0 discriminator 2
 783 0058 0022     		movs	r2, #0
 784 005a 2261     		str	r2, [r4, #16]
 785              	.LBB11:
 786 005c 2023     		movs	r3, #32
 787              	.LVL55:
 788              	@ 153 "../../../ChibiOS/os/hal/platforms/STM32F4xx/adc_lld.c" 1
 789 005e 83F31188 		msr     BASEPRI, r3
ARM GAS  C:\Users\DNIEL~1\AppData\Local\Temp\ccH33Zvb.s 			page 15


 790              	@ 0 "" 2
 791              	.LVL56:
 792              		.thumb
 793              	.LBE11:
 794 0062 6069     		ldr	r0, [r4, #20]
 795 0064 30B1     		cbz	r0, .L50
 796              	.LVL57:
 797              	.LBB12:
 798              		.loc 1 153 0 discriminator 4
 799 0066 1F4B     		ldr	r3, .L54+12
 800              	.LVL58:
 801 0068 4FF0FF31 		mov	r1, #-1
 802 006c 4162     		str	r1, [r0, #36]
 803 006e 5A61     		str	r2, [r3, #20]
 804 0070 FFF7FEFF 		bl	chSchReadyI
 805              	.LVL59:
 806              	.L50:
 807              	.LBE12:
 808              	.LBB13:
 809              		.loc 1 153 0 discriminator 5
 810 0074 0023     		movs	r3, #0
 811              	.LVL60:
 812              	@ 153 "../../../ChibiOS/os/hal/platforms/STM32F4xx/adc_lld.c" 1
 813 0076 83F31188 		msr     BASEPRI, r3
 814              	@ 0 "" 2
 815              	.LVL61:
 816              		.thumb
 817              	.L48:
 818              	.LBE13:
 819              		.loc 1 159 0 is_stmt 1
 820 007a BDE81040 		pop	{r4, lr}
 821              		.loc 1 158 0
 822 007e FFF7FEBF 		b	_port_irq_epilogue
 823              	.LVL62:
 824              	.L51:
 825              		.loc 1 138 0
 826 0082 2369     		ldr	r3, [r4, #16]
 827 0084 002B     		cmp	r3, #0
 828 0086 C9D0     		beq	.L45
 829              		.loc 1 139 0
 830 0088 2046     		mov	r0, r4
 831 008a FFF7FEFF 		bl	adc_lld_stop_conversion
 832 008e 2069     		ldr	r0, [r4, #16]
 833 0090 8368     		ldr	r3, [r0, #8]
 834 0092 4BB1     		cbz	r3, .L46
 835              		.loc 1 139 0 is_stmt 0 discriminator 1
 836 0094 0522     		movs	r2, #5
 837 0096 0121     		movs	r1, #1
 838 0098 2270     		strb	r2, [r4, #0]
 839 009a 2046     		mov	r0, r4
 840 009c 9847     		blx	r3
 841 009e 94F800C0 		ldrb	ip, [r4, #0]	@ zero_extendqisi2
 842 00a2 BCF1050F 		cmp	ip, #5
 843 00a6 14D0     		beq	.L53
 844              	.L46:
 845              		.loc 1 139 0 discriminator 2
 846 00a8 0022     		movs	r2, #0
ARM GAS  C:\Users\DNIEL~1\AppData\Local\Temp\ccH33Zvb.s 			page 16


 847 00aa 2261     		str	r2, [r4, #16]
 848              	.LBB14:
 849 00ac 2023     		movs	r3, #32
 850              	.LVL63:
 851              	@ 139 "../../../ChibiOS/os/hal/platforms/STM32F4xx/adc_lld.c" 1
 852 00ae 83F31188 		msr     BASEPRI, r3
 853              	@ 0 "" 2
 854              	.LVL64:
 855              		.thumb
 856              	.LBE14:
 857 00b2 6069     		ldr	r0, [r4, #20]
 858 00b4 30B1     		cbz	r0, .L47
 859              	.LVL65:
 860              	.LBB15:
 861              		.loc 1 139 0 discriminator 4
 862 00b6 094B     		ldr	r3, .L54+4
 863              	.LVL66:
 864 00b8 4FF0FF31 		mov	r1, #-1
 865 00bc 4162     		str	r1, [r0, #36]
 866 00be 5A61     		str	r2, [r3, #20]
 867 00c0 FFF7FEFF 		bl	chSchReadyI
 868              	.LVL67:
 869              	.L47:
 870              	.LBE15:
 871              	.LBB16:
 872              		.loc 1 139 0 discriminator 5
 873 00c4 0023     		movs	r3, #0
 874              	.LVL68:
 875              	@ 139 "../../../ChibiOS/os/hal/platforms/STM32F4xx/adc_lld.c" 1
 876 00c6 83F31188 		msr     BASEPRI, r3
 877              	@ 0 "" 2
 878              	.LVL69:
 879              		.thumb
 880 00ca A7E7     		b	.L45
 881              	.LVL70:
 882              	.L52:
 883              	.LBE16:
 884              		.loc 1 153 0 is_stmt 1 discriminator 3
 885 00cc 0222     		movs	r2, #2
 886 00ce 2270     		strb	r2, [r4, #0]
 887 00d0 C2E7     		b	.L49
 888              	.L53:
 889              		.loc 1 139 0 discriminator 3
 890 00d2 0221     		movs	r1, #2
 891 00d4 2170     		strb	r1, [r4, #0]
 892 00d6 E7E7     		b	.L46
 893              	.L55:
 894              		.align	2
 895              	.L54:
 896 00d8 00210140 		.word	1073815808
 897 00dc 00000000 		.word	.LANCHOR0
 898 00e0 00220140 		.word	1073816064
 899 00e4 00000000 		.word	.LANCHOR1
 900              		.cfi_endproc
 901              	.LFE119:
 902              		.size	Vector88, .-Vector88
 903              		.section	.text.adcSTM32EnableTSVREFE,"ax",%progbits
ARM GAS  C:\Users\DNIEL~1\AppData\Local\Temp\ccH33Zvb.s 			page 17


 904              		.align	2
 905              		.p2align 4,,15
 906              		.global	adcSTM32EnableTSVREFE
 907              		.thumb
 908              		.thumb_func
 909              		.type	adcSTM32EnableTSVREFE, %function
 910              	adcSTM32EnableTSVREFE:
 911              	.LFB125:
 912              		.loc 1 388 0
 913              		.cfi_startproc
 914              		@ args = 0, pretend = 0, frame = 0
 915              		@ frame_needed = 0, uses_anonymous_args = 0
 916              		@ link register save eliminated.
 917              		.loc 1 390 0
 918 0000 024B     		ldr	r3, .L57
 919 0002 5868     		ldr	r0, [r3, #4]
 920 0004 40F40002 		orr	r2, r0, #8388608
 921 0008 5A60     		str	r2, [r3, #4]
 922              		.loc 1 391 0
 923 000a 7047     		bx	lr
 924              	.L58:
 925              		.align	2
 926              	.L57:
 927 000c 00230140 		.word	1073816320
 928              		.cfi_endproc
 929              	.LFE125:
 930              		.size	adcSTM32EnableTSVREFE, .-adcSTM32EnableTSVREFE
 931              		.section	.text.adcSTM32DisableTSVREFE,"ax",%progbits
 932              		.align	2
 933              		.p2align 4,,15
 934              		.global	adcSTM32DisableTSVREFE
 935              		.thumb
 936              		.thumb_func
 937              		.type	adcSTM32DisableTSVREFE, %function
 938              	adcSTM32DisableTSVREFE:
 939              	.LFB126:
 940              		.loc 1 399 0
 941              		.cfi_startproc
 942              		@ args = 0, pretend = 0, frame = 0
 943              		@ frame_needed = 0, uses_anonymous_args = 0
 944              		@ link register save eliminated.
 945              		.loc 1 401 0
 946 0000 024B     		ldr	r3, .L60
 947 0002 5868     		ldr	r0, [r3, #4]
 948 0004 20F40002 		bic	r2, r0, #8388608
 949 0008 5A60     		str	r2, [r3, #4]
 950              		.loc 1 402 0
 951 000a 7047     		bx	lr
 952              	.L61:
 953              		.align	2
 954              	.L60:
 955 000c 00230140 		.word	1073816320
 956              		.cfi_endproc
 957              	.LFE126:
 958              		.size	adcSTM32DisableTSVREFE, .-adcSTM32DisableTSVREFE
 959              		.section	.text.adcSTM32EnableVBATE,"ax",%progbits
 960              		.align	2
ARM GAS  C:\Users\DNIEL~1\AppData\Local\Temp\ccH33Zvb.s 			page 18


 961              		.p2align 4,,15
 962              		.global	adcSTM32EnableVBATE
 963              		.thumb
 964              		.thumb_func
 965              		.type	adcSTM32EnableVBATE, %function
 966              	adcSTM32EnableVBATE:
 967              	.LFB127:
 968              		.loc 1 410 0
 969              		.cfi_startproc
 970              		@ args = 0, pretend = 0, frame = 0
 971              		@ frame_needed = 0, uses_anonymous_args = 0
 972              		@ link register save eliminated.
 973              		.loc 1 412 0
 974 0000 024B     		ldr	r3, .L63
 975 0002 5868     		ldr	r0, [r3, #4]
 976 0004 40F48002 		orr	r2, r0, #4194304
 977 0008 5A60     		str	r2, [r3, #4]
 978              		.loc 1 413 0
 979 000a 7047     		bx	lr
 980              	.L64:
 981              		.align	2
 982              	.L63:
 983 000c 00230140 		.word	1073816320
 984              		.cfi_endproc
 985              	.LFE127:
 986              		.size	adcSTM32EnableVBATE, .-adcSTM32EnableVBATE
 987              		.section	.text.adcSTM32DisableVBATE,"ax",%progbits
 988              		.align	2
 989              		.p2align 4,,15
 990              		.global	adcSTM32DisableVBATE
 991              		.thumb
 992              		.thumb_func
 993              		.type	adcSTM32DisableVBATE, %function
 994              	adcSTM32DisableVBATE:
 995              	.LFB128:
 996              		.loc 1 421 0
 997              		.cfi_startproc
 998              		@ args = 0, pretend = 0, frame = 0
 999              		@ frame_needed = 0, uses_anonymous_args = 0
 1000              		@ link register save eliminated.
 1001              		.loc 1 423 0
 1002 0000 024B     		ldr	r3, .L66
 1003 0002 5868     		ldr	r0, [r3, #4]
 1004 0004 20F48002 		bic	r2, r0, #4194304
 1005 0008 5A60     		str	r2, [r3, #4]
 1006              		.loc 1 424 0
 1007 000a 7047     		bx	lr
 1008              	.L67:
 1009              		.align	2
 1010              	.L66:
 1011 000c 00230140 		.word	1073816320
 1012              		.cfi_endproc
 1013              	.LFE128:
 1014              		.size	adcSTM32DisableVBATE, .-adcSTM32DisableVBATE
 1015              		.global	ADCD2
 1016              		.global	ADCD3
 1017              		.section	.bss.ADCD2,"aw",%nobits
ARM GAS  C:\Users\DNIEL~1\AppData\Local\Temp\ccH33Zvb.s 			page 19


 1018              		.align	2
 1019              		.set	.LANCHOR0,. + 0
 1020              		.type	ADCD2, %object
 1021              		.size	ADCD2, 52
 1022              	ADCD2:
 1023 0000 00000000 		.space	52
 1023      00000000 
 1023      00000000 
 1023      00000000 
 1023      00000000 
 1024              		.section	.bss.ADCD3,"aw",%nobits
 1025              		.align	2
 1026              		.set	.LANCHOR1,. + 0
 1027              		.type	ADCD3, %object
 1028              		.size	ADCD3, 52
 1029              	ADCD3:
 1030 0000 00000000 		.space	52
 1030      00000000 
 1030      00000000 
 1030      00000000 
 1030      00000000 
 1031              		.text
 1032              	.Letext0:
 1033              		.section	.debug_loc,"",%progbits
 1034              	.Ldebug_loc0:
 1035              	.LLST0:
 1036 0000 00000000 		.4byte	.LFB120
 1037 0004 02000000 		.4byte	.LCFI0
 1038 0008 0200     		.2byte	0x2
 1039 000a 7D       		.byte	0x7d
 1040 000b 00       		.sleb128 0
 1041 000c 02000000 		.4byte	.LCFI0
 1042 0010 54000000 		.4byte	.LFE120
 1043 0014 0200     		.2byte	0x2
 1044 0016 7D       		.byte	0x7d
 1045 0017 10       		.sleb128 16
 1046 0018 00000000 		.4byte	0x0
 1047 001c 00000000 		.4byte	0x0
 1048              	.LLST1:
 1049 0020 00000000 		.4byte	.LFB121
 1050 0024 06000000 		.4byte	.LCFI1
 1051 0028 0200     		.2byte	0x2
 1052 002a 7D       		.byte	0x7d
 1053 002b 00       		.sleb128 0
 1054 002c 06000000 		.4byte	.LCFI1
 1055 0030 90000000 		.4byte	.LFE121
 1056 0034 0200     		.2byte	0x2
 1057 0036 7D       		.byte	0x7d
 1058 0037 08       		.sleb128 8
 1059 0038 00000000 		.4byte	0x0
 1060 003c 00000000 		.4byte	0x0
 1061              	.LLST2:
 1062 0040 00000000 		.4byte	.LVL0
 1063 0044 18000000 		.4byte	.LVL1
 1064 0048 0100     		.2byte	0x1
 1065 004a 50       		.byte	0x50
 1066 004b 18000000 		.4byte	.LVL1
ARM GAS  C:\Users\DNIEL~1\AppData\Local\Temp\ccH33Zvb.s 			page 20


 1067 004f 90000000 		.4byte	.LFE121
 1068 0053 0100     		.2byte	0x1
 1069 0055 54       		.byte	0x54
 1070 0056 00000000 		.4byte	0x0
 1071 005a 00000000 		.4byte	0x0
 1072              	.LLST3:
 1073 005e 00000000 		.4byte	.LFB122
 1074 0062 06000000 		.4byte	.LCFI2
 1075 0066 0200     		.2byte	0x2
 1076 0068 7D       		.byte	0x7d
 1077 0069 00       		.sleb128 0
 1078 006a 06000000 		.4byte	.LCFI2
 1079 006e 4C000000 		.4byte	.LFE122
 1080 0072 0200     		.2byte	0x2
 1081 0074 7D       		.byte	0x7d
 1082 0075 08       		.sleb128 8
 1083 0076 00000000 		.4byte	0x0
 1084 007a 00000000 		.4byte	0x0
 1085              	.LLST4:
 1086 007e 00000000 		.4byte	.LVL2
 1087 0082 0A000000 		.4byte	.LVL3
 1088 0086 0100     		.2byte	0x1
 1089 0088 50       		.byte	0x50
 1090 0089 0A000000 		.4byte	.LVL3
 1091 008d 4C000000 		.4byte	.LFE122
 1092 0091 0100     		.2byte	0x1
 1093 0093 54       		.byte	0x54
 1094 0094 00000000 		.4byte	0x0
 1095 0098 00000000 		.4byte	0x0
 1096              	.LLST5:
 1097 009c 00000000 		.4byte	.LFB123
 1098 00a0 0A000000 		.4byte	.LCFI3
 1099 00a4 0200     		.2byte	0x2
 1100 00a6 7D       		.byte	0x7d
 1101 00a7 00       		.sleb128 0
 1102 00a8 0A000000 		.4byte	.LCFI3
 1103 00ac 9C000000 		.4byte	.LFE123
 1104 00b0 0200     		.2byte	0x2
 1105 00b2 7D       		.byte	0x7d
 1106 00b3 1C       		.sleb128 28
 1107 00b4 00000000 		.4byte	0x0
 1108 00b8 00000000 		.4byte	0x0
 1109              	.LLST6:
 1110 00bc 00000000 		.4byte	.LVL4
 1111 00c0 40000000 		.4byte	.LVL9
 1112 00c4 0100     		.2byte	0x1
 1113 00c6 50       		.byte	0x50
 1114 00c7 76000000 		.4byte	.LVL13
 1115 00cb 86000000 		.4byte	.LVL16
 1116 00cf 0100     		.2byte	0x1
 1117 00d1 50       		.byte	0x50
 1118 00d2 00000000 		.4byte	0x0
 1119 00d6 00000000 		.4byte	0x0
 1120              	.LLST7:
 1121 00da 04000000 		.4byte	.LVL6
 1122 00de 10000000 		.4byte	.LVL7
 1123 00e2 0200     		.2byte	0x2
ARM GAS  C:\Users\DNIEL~1\AppData\Local\Temp\ccH33Zvb.s 			page 21


 1124 00e4 70       		.byte	0x70
 1125 00e5 30       		.sleb128 48
 1126 00e6 10000000 		.4byte	.LVL7
 1127 00ea 30000000 		.4byte	.LVL8
 1128 00ee 0100     		.2byte	0x1
 1129 00f0 52       		.byte	0x52
 1130 00f1 30000000 		.4byte	.LVL8
 1131 00f5 40000000 		.4byte	.LVL9
 1132 00f9 0400     		.2byte	0x4
 1133 00fb 70       		.byte	0x70
 1134 00fc 2C       		.sleb128 44
 1135 00fd 06       		.byte	0x6
 1136 00fe 06       		.byte	0x6
 1137 00ff 40000000 		.4byte	.LVL9
 1138 0103 56000000 		.4byte	.LVL11
 1139 0107 0200     		.2byte	0x2
 1140 0109 71       		.byte	0x71
 1141 010a 00       		.sleb128 0
 1142 010b 76000000 		.4byte	.LVL13
 1143 010f 7C000000 		.4byte	.LVL14
 1144 0113 0100     		.2byte	0x1
 1145 0115 52       		.byte	0x52
 1146 0116 7C000000 		.4byte	.LVL14
 1147 011a 84000000 		.4byte	.LVL15
 1148 011e 0100     		.2byte	0x1
 1149 0120 52       		.byte	0x52
 1150 0121 84000000 		.4byte	.LVL15
 1151 0125 86000000 		.4byte	.LVL16
 1152 0129 0100     		.2byte	0x1
 1153 012b 52       		.byte	0x52
 1154 012c 00000000 		.4byte	0x0
 1155 0130 00000000 		.4byte	0x0
 1156              	.LLST8:
 1157 0134 4C000000 		.4byte	.LVL10
 1158 0138 70000000 		.4byte	.LVL12
 1159 013c 0100     		.2byte	0x1
 1160 013e 53       		.byte	0x53
 1161 013f 86000000 		.4byte	.LVL16
 1162 0143 92000000 		.4byte	.LVL17
 1163 0147 0100     		.2byte	0x1
 1164 0149 53       		.byte	0x53
 1165 014a 00000000 		.4byte	0x0
 1166 014e 00000000 		.4byte	0x0
 1167              	.LLST9:
 1168 0152 02000000 		.4byte	.LVL5
 1169 0156 40000000 		.4byte	.LVL9
 1170 015a 0200     		.2byte	0x2
 1171 015c 70       		.byte	0x70
 1172 015d 10       		.sleb128 16
 1173 015e 40000000 		.4byte	.LVL9
 1174 0162 4C000000 		.4byte	.LVL10
 1175 0166 0100     		.2byte	0x1
 1176 0168 53       		.byte	0x53
 1177 0169 76000000 		.4byte	.LVL13
 1178 016d 86000000 		.4byte	.LVL16
 1179 0171 0100     		.2byte	0x1
 1180 0173 53       		.byte	0x53
ARM GAS  C:\Users\DNIEL~1\AppData\Local\Temp\ccH33Zvb.s 			page 22


 1181 0174 00000000 		.4byte	0x0
 1182 0178 00000000 		.4byte	0x0
 1183              	.LLST10:
 1184 017c 00000000 		.4byte	.LFB124
 1185 0180 06000000 		.4byte	.LCFI4
 1186 0184 0200     		.2byte	0x2
 1187 0186 7D       		.byte	0x7d
 1188 0187 00       		.sleb128 0
 1189 0188 06000000 		.4byte	.LCFI4
 1190 018c 2E000000 		.4byte	.LFE124
 1191 0190 0200     		.2byte	0x2
 1192 0192 7D       		.byte	0x7d
 1193 0193 04       		.sleb128 4
 1194 0194 00000000 		.4byte	0x0
 1195 0198 00000000 		.4byte	0x0
 1196              	.LLST11:
 1197 019c 00000000 		.4byte	.LVL18
 1198 01a0 1E000000 		.4byte	.LVL19
 1199 01a4 0100     		.2byte	0x1
 1200 01a6 50       		.byte	0x50
 1201 01a7 00000000 		.4byte	0x0
 1202 01ab 00000000 		.4byte	0x0
 1203              	.LLST12:
 1204 01af 00000000 		.4byte	.LFB118
 1205 01b3 06000000 		.4byte	.LCFI5
 1206 01b7 0200     		.2byte	0x2
 1207 01b9 7D       		.byte	0x7d
 1208 01ba 00       		.sleb128 0
 1209 01bb 06000000 		.4byte	.LCFI5
 1210 01bf E2000000 		.4byte	.LFE118
 1211 01c3 0200     		.2byte	0x2
 1212 01c5 7D       		.byte	0x7d
 1213 01c6 10       		.sleb128 16
 1214 01c7 00000000 		.4byte	0x0
 1215 01cb 00000000 		.4byte	0x0
 1216              	.LLST13:
 1217 01cf 00000000 		.4byte	.LVL20
 1218 01d3 33000000 		.4byte	.LVL23-1
 1219 01d7 0100     		.2byte	0x1
 1220 01d9 50       		.byte	0x50
 1221 01da 36000000 		.4byte	.LVL24
 1222 01de 47000000 		.4byte	.LVL26-1
 1223 01e2 0100     		.2byte	0x1
 1224 01e4 50       		.byte	0x50
 1225 01e5 47000000 		.4byte	.LVL26-1
 1226 01e9 E2000000 		.4byte	.LFE118
 1227 01ed 0100     		.2byte	0x1
 1228 01ef 54       		.byte	0x54
 1229 01f0 00000000 		.4byte	0x0
 1230 01f4 00000000 		.4byte	0x0
 1231              	.LLST14:
 1232 01f8 00000000 		.4byte	.LVL20
 1233 01fc 28000000 		.4byte	.LVL21
 1234 0200 0100     		.2byte	0x1
 1235 0202 51       		.byte	0x51
 1236 0203 36000000 		.4byte	.LVL24
 1237 0207 44000000 		.4byte	.LVL25
ARM GAS  C:\Users\DNIEL~1\AppData\Local\Temp\ccH33Zvb.s 			page 23


 1238 020b 0100     		.2byte	0x1
 1239 020d 51       		.byte	0x51
 1240 020e 4A000000 		.4byte	.LVL27
 1241 0212 4D000000 		.4byte	.LVL28-1
 1242 0216 0100     		.2byte	0x1
 1243 0218 51       		.byte	0x51
 1244 0219 8E000000 		.4byte	.LVL37
 1245 021d 90000000 		.4byte	.LVL38
 1246 0221 0100     		.2byte	0x1
 1247 0223 51       		.byte	0x51
 1248 0224 94000000 		.4byte	.LVL39
 1249 0228 97000000 		.4byte	.LVL40-1
 1250 022c 0100     		.2byte	0x1
 1251 022e 51       		.byte	0x51
 1252 022f 00000000 		.4byte	0x0
 1253 0233 00000000 		.4byte	0x0
 1254              	.LLST15:
 1255 0237 2A000000 		.4byte	.LVL22
 1256 023b 33000000 		.4byte	.LVL23-1
 1257 023f 0100     		.2byte	0x1
 1258 0241 52       		.byte	0x52
 1259 0242 00000000 		.4byte	0x0
 1260 0246 00000000 		.4byte	0x0
 1261              	.LLST16:
 1262 024a 6E000000 		.4byte	.LVL30
 1263 024e 70000000 		.4byte	.LVL31
 1264 0252 0100     		.2byte	0x1
 1265 0254 53       		.byte	0x53
 1266 0255 00000000 		.4byte	0x0
 1267 0259 00000000 		.4byte	0x0
 1268              	.LLST17:
 1269 025d 72000000 		.4byte	.LVL32
 1270 0261 7F000000 		.4byte	.LVL33-1
 1271 0265 0200     		.2byte	0x2
 1272 0267 74       		.byte	0x74
 1273 0268 14       		.sleb128 20
 1274 0269 00000000 		.4byte	0x0
 1275 026d 00000000 		.4byte	0x0
 1276              	.LLST18:
 1277 0271 86000000 		.4byte	.LVL35
 1278 0275 88000000 		.4byte	.LVL36
 1279 0279 0100     		.2byte	0x1
 1280 027b 53       		.byte	0x53
 1281 027c 00000000 		.4byte	0x0
 1282 0280 00000000 		.4byte	0x0
 1283              	.LLST19:
 1284 0284 BA000000 		.4byte	.LVL42
 1285 0288 BC000000 		.4byte	.LVL43
 1286 028c 0100     		.2byte	0x1
 1287 028e 53       		.byte	0x53
 1288 028f 00000000 		.4byte	0x0
 1289 0293 00000000 		.4byte	0x0
 1290              	.LLST20:
 1291 0297 BE000000 		.4byte	.LVL44
 1292 029b C9000000 		.4byte	.LVL45-1
 1293 029f 0200     		.2byte	0x2
 1294 02a1 74       		.byte	0x74
ARM GAS  C:\Users\DNIEL~1\AppData\Local\Temp\ccH33Zvb.s 			page 24


 1295 02a2 14       		.sleb128 20
 1296 02a3 00000000 		.4byte	0x0
 1297 02a7 00000000 		.4byte	0x0
 1298              	.LLST21:
 1299 02ab D0000000 		.4byte	.LVL47
 1300 02af D2000000 		.4byte	.LVL48
 1301 02b3 0100     		.2byte	0x1
 1302 02b5 53       		.byte	0x53
 1303 02b6 00000000 		.4byte	0x0
 1304 02ba 00000000 		.4byte	0x0
 1305              	.LLST22:
 1306 02be 00000000 		.4byte	.LFB119
 1307 02c2 0C000000 		.4byte	.LCFI6
 1308 02c6 0200     		.2byte	0x2
 1309 02c8 7D       		.byte	0x7d
 1310 02c9 00       		.sleb128 0
 1311 02ca 0C000000 		.4byte	.LCFI6
 1312 02ce E8000000 		.4byte	.LFE119
 1313 02d2 0200     		.2byte	0x2
 1314 02d4 7D       		.byte	0x7d
 1315 02d5 08       		.sleb128 8
 1316 02d6 00000000 		.4byte	0x0
 1317 02da 00000000 		.4byte	0x0
 1318              	.LLST23:
 1319 02de 04000000 		.4byte	.LVL49
 1320 02e2 16000000 		.4byte	.LVL50
 1321 02e6 0100     		.2byte	0x1
 1322 02e8 52       		.byte	0x52
 1323 02e9 20000000 		.4byte	.LVL53
 1324 02ed 30000000 		.4byte	.LVL54
 1325 02f1 0100     		.2byte	0x1
 1326 02f3 50       		.byte	0x50
 1327 02f4 00000000 		.4byte	0x0
 1328 02f8 00000000 		.4byte	0x0
 1329              	.LLST24:
 1330 02fc 62000000 		.4byte	.LVL56
 1331 0300 68000000 		.4byte	.LVL58
 1332 0304 0100     		.2byte	0x1
 1333 0306 53       		.byte	0x53
 1334 0307 74000000 		.4byte	.LVL59
 1335 030b 76000000 		.4byte	.LVL60
 1336 030f 0100     		.2byte	0x1
 1337 0311 53       		.byte	0x53
 1338 0312 00000000 		.4byte	0x0
 1339 0316 00000000 		.4byte	0x0
 1340              	.LLST25:
 1341 031a 66000000 		.4byte	.LVL57
 1342 031e 73000000 		.4byte	.LVL59-1
 1343 0322 0500     		.2byte	0x5
 1344 0324 03       		.byte	0x3
 1345 0325 14000000 		.4byte	ADCD3+20
 1346 0329 00000000 		.4byte	0x0
 1347 032d 00000000 		.4byte	0x0
 1348              	.LLST26:
 1349 0331 7A000000 		.4byte	.LVL61
 1350 0335 81000000 		.4byte	.LVL62-1
 1351 0339 0100     		.2byte	0x1
ARM GAS  C:\Users\DNIEL~1\AppData\Local\Temp\ccH33Zvb.s 			page 25


 1352 033b 53       		.byte	0x53
 1353 033c 00000000 		.4byte	0x0
 1354 0340 00000000 		.4byte	0x0
 1355              	.LLST27:
 1356 0344 B2000000 		.4byte	.LVL64
 1357 0348 B8000000 		.4byte	.LVL66
 1358 034c 0100     		.2byte	0x1
 1359 034e 53       		.byte	0x53
 1360 034f C4000000 		.4byte	.LVL67
 1361 0353 C6000000 		.4byte	.LVL68
 1362 0357 0100     		.2byte	0x1
 1363 0359 53       		.byte	0x53
 1364 035a 00000000 		.4byte	0x0
 1365 035e 00000000 		.4byte	0x0
 1366              	.LLST28:
 1367 0362 B6000000 		.4byte	.LVL65
 1368 0366 C3000000 		.4byte	.LVL67-1
 1369 036a 0500     		.2byte	0x5
 1370 036c 03       		.byte	0x3
 1371 036d 14000000 		.4byte	ADCD2+20
 1372 0371 00000000 		.4byte	0x0
 1373 0375 00000000 		.4byte	0x0
 1374              	.LLST29:
 1375 0379 1C000000 		.4byte	.LVL51
 1376 037d 1E000000 		.4byte	.LVL52
 1377 0381 0100     		.2byte	0x1
 1378 0383 53       		.byte	0x53
 1379 0384 CA000000 		.4byte	.LVL69
 1380 0388 CC000000 		.4byte	.LVL70
 1381 038c 0100     		.2byte	0x1
 1382 038e 53       		.byte	0x53
 1383 038f 00000000 		.4byte	0x0
 1384 0393 00000000 		.4byte	0x0
 1385              		.file 2 "c:\\program files (x86)\\codesourcery\\sourcery g++ lite\\bin\\../lib/gcc/arm-none-eabi/4
 1386              		.file 3 "c:\\program files (x86)\\codesourcery\\sourcery g++ lite\\bin\\../lib/gcc/arm-none-eabi/4
 1387              		.file 4 "../../../ChibiOS/os/ports/GCC/ARMCMx/chtypes.h"
 1388              		.file 5 "../../../ChibiOS/os/kernel/include/chlists.h"
 1389              		.file 6 "../../../ChibiOS/os/kernel/include/chthreads.h"
 1390              		.file 7 "../../../ChibiOS/os/ports/GCC/ARMCMx/chcore_v7m.h"
 1391              		.file 8 "../../../ChibiOS/os/kernel/include/chmtx.h"
 1392              		.file 9 "../../../ChibiOS/os/hal/platforms/STM32F4xx/stm32f4xx.h"
 1393              		.file 10 "../../../ChibiOS/os/hal/platforms/STM32F4xx/stm32_dma.h"
 1394              		.file 11 "../../../ChibiOS/os/hal/include/adc.h"
 1395              		.file 12 "../../../ChibiOS/os/hal/platforms/STM32F4xx/adc_lld.h"
 1396              		.file 13 "../../../ChibiOS/os/ports/common/ARMCMx/CMSIS/include/core_cm4.h"
 1397              		.section	.debug_info
 1398 0000 0C110000 		.4byte	0x110c
 1399 0004 0200     		.2byte	0x2
 1400 0006 00000000 		.4byte	.Ldebug_abbrev0
 1401 000a 04       		.byte	0x4
 1402 000b 01       		.uleb128 0x1
 1403 000c 2E080000 		.4byte	.LASF260
 1404 0010 01       		.byte	0x1
 1405 0011 D0030000 		.4byte	.LASF261
 1406 0015 9C0A0000 		.4byte	.LASF262
 1407 0019 00000000 		.4byte	0x0
 1408 001d 00000000 		.4byte	0x0
ARM GAS  C:\Users\DNIEL~1\AppData\Local\Temp\ccH33Zvb.s 			page 26


 1409 0021 00000000 		.4byte	.Ldebug_ranges0+0x0
 1410 0025 00000000 		.4byte	.Ldebug_line0
 1411 0029 02       		.uleb128 0x2
 1412 002a 04       		.byte	0x4
 1413 002b 05       		.byte	0x5
 1414 002c 696E7400 		.ascii	"int\000"
 1415 0030 03       		.uleb128 0x3
 1416 0031 05000000 		.4byte	.LASF2
 1417 0035 02       		.byte	0x2
 1418 0036 D3       		.byte	0xd3
 1419 0037 3B000000 		.4byte	0x3b
 1420 003b 04       		.uleb128 0x4
 1421 003c 04       		.byte	0x4
 1422 003d 07       		.byte	0x7
 1423 003e CC060000 		.4byte	.LASF0
 1424 0042 04       		.uleb128 0x4
 1425 0043 01       		.byte	0x1
 1426 0044 06       		.byte	0x6
 1427 0045 4C020000 		.4byte	.LASF1
 1428 0049 03       		.uleb128 0x3
 1429 004a 62020000 		.4byte	.LASF3
 1430 004e 03       		.byte	0x3
 1431 004f 2A       		.byte	0x2a
 1432 0050 54000000 		.4byte	0x54
 1433 0054 04       		.uleb128 0x4
 1434 0055 01       		.byte	0x1
 1435 0056 08       		.byte	0x8
 1436 0057 A4020000 		.4byte	.LASF4
 1437 005b 04       		.uleb128 0x4
 1438 005c 02       		.byte	0x2
 1439 005d 05       		.byte	0x5
 1440 005e C5090000 		.4byte	.LASF5
 1441 0062 03       		.uleb128 0x3
 1442 0063 59080000 		.4byte	.LASF6
 1443 0067 03       		.byte	0x3
 1444 0068 36       		.byte	0x36
 1445 0069 6D000000 		.4byte	0x6d
 1446 006d 04       		.uleb128 0x4
 1447 006e 02       		.byte	0x2
 1448 006f 07       		.byte	0x7
 1449 0070 140B0000 		.4byte	.LASF7
 1450 0074 03       		.uleb128 0x3
 1451 0075 87000000 		.4byte	.LASF8
 1452 0079 03       		.byte	0x3
 1453 007a 4F       		.byte	0x4f
 1454 007b 7F000000 		.4byte	0x7f
 1455 007f 04       		.uleb128 0x4
 1456 0080 04       		.byte	0x4
 1457 0081 05       		.byte	0x5
 1458 0082 88010000 		.4byte	.LASF9
 1459 0086 03       		.uleb128 0x3
 1460 0087 780A0000 		.4byte	.LASF10
 1461 008b 03       		.byte	0x3
 1462 008c 50       		.byte	0x50
 1463 008d 91000000 		.4byte	0x91
 1464 0091 04       		.uleb128 0x4
 1465 0092 04       		.byte	0x4
ARM GAS  C:\Users\DNIEL~1\AppData\Local\Temp\ccH33Zvb.s 			page 27


 1466 0093 07       		.byte	0x7
 1467 0094 CF040000 		.4byte	.LASF11
 1468 0098 04       		.uleb128 0x4
 1469 0099 08       		.byte	0x8
 1470 009a 05       		.byte	0x5
 1471 009b FE050000 		.4byte	.LASF12
 1472 009f 04       		.uleb128 0x4
 1473 00a0 08       		.byte	0x8
 1474 00a1 07       		.byte	0x7
 1475 00a2 3A080000 		.4byte	.LASF13
 1476 00a6 03       		.uleb128 0x3
 1477 00a7 070A0000 		.4byte	.LASF14
 1478 00ab 04       		.byte	0x4
 1479 00ac 2B       		.byte	0x2b
 1480 00ad B1000000 		.4byte	0xb1
 1481 00b1 04       		.uleb128 0x4
 1482 00b2 01       		.byte	0x1
 1483 00b3 02       		.byte	0x2
 1484 00b4 1D030000 		.4byte	.LASF15
 1485 00b8 03       		.uleb128 0x3
 1486 00b9 34090000 		.4byte	.LASF16
 1487 00bd 04       		.byte	0x4
 1488 00be 2C       		.byte	0x2c
 1489 00bf 49000000 		.4byte	0x49
 1490 00c3 03       		.uleb128 0x3
 1491 00c4 B9010000 		.4byte	.LASF17
 1492 00c8 04       		.byte	0x4
 1493 00c9 2D       		.byte	0x2d
 1494 00ca 49000000 		.4byte	0x49
 1495 00ce 03       		.uleb128 0x3
 1496 00cf 490A0000 		.4byte	.LASF18
 1497 00d3 04       		.byte	0x4
 1498 00d4 2E       		.byte	0x2e
 1499 00d5 49000000 		.4byte	0x49
 1500 00d9 03       		.uleb128 0x3
 1501 00da 8D080000 		.4byte	.LASF19
 1502 00de 04       		.byte	0x4
 1503 00df 2F       		.byte	0x2f
 1504 00e0 49000000 		.4byte	0x49
 1505 00e4 03       		.uleb128 0x3
 1506 00e5 57000000 		.4byte	.LASF20
 1507 00e9 04       		.byte	0x4
 1508 00ea 30       		.byte	0x30
 1509 00eb 86000000 		.4byte	0x86
 1510 00ef 03       		.uleb128 0x3
 1511 00f0 62080000 		.4byte	.LASF21
 1512 00f4 04       		.byte	0x4
 1513 00f5 31       		.byte	0x31
 1514 00f6 74000000 		.4byte	0x74
 1515 00fa 03       		.uleb128 0x3
 1516 00fb 6A020000 		.4byte	.LASF22
 1517 00ff 04       		.byte	0x4
 1518 0100 33       		.byte	0x33
 1519 0101 86000000 		.4byte	0x86
 1520 0105 03       		.uleb128 0x3
 1521 0106 3C000000 		.4byte	.LASF23
 1522 010a 04       		.byte	0x4
ARM GAS  C:\Users\DNIEL~1\AppData\Local\Temp\ccH33Zvb.s 			page 28


 1523 010b 35       		.byte	0x35
 1524 010c 86000000 		.4byte	0x86
 1525 0110 03       		.uleb128 0x3
 1526 0111 1D0A0000 		.4byte	.LASF24
 1527 0115 05       		.byte	0x5
 1528 0116 2A       		.byte	0x2a
 1529 0117 1B010000 		.4byte	0x11b
 1530 011b 05       		.uleb128 0x5
 1531 011c 1D0A0000 		.4byte	.LASF24
 1532 0120 48       		.byte	0x48
 1533 0121 06       		.byte	0x6
 1534 0122 5E       		.byte	0x5e
 1535 0123 40020000 		.4byte	0x240
 1536 0127 06       		.uleb128 0x6
 1537 0128 91010000 		.4byte	.LASF25
 1538 012c 06       		.byte	0x6
 1539 012d 5F       		.byte	0x5f
 1540 012e 65020000 		.4byte	0x265
 1541 0132 02       		.byte	0x2
 1542 0133 23       		.byte	0x23
 1543 0134 00       		.uleb128 0x0
 1544 0135 06       		.uleb128 0x6
 1545 0136 98010000 		.4byte	.LASF26
 1546 013a 06       		.byte	0x6
 1547 013b 61       		.byte	0x61
 1548 013c 65020000 		.4byte	0x265
 1549 0140 02       		.byte	0x2
 1550 0141 23       		.byte	0x23
 1551 0142 04       		.uleb128 0x4
 1552 0143 06       		.uleb128 0x6
 1553 0144 69030000 		.4byte	.LASF27
 1554 0148 06       		.byte	0x6
 1555 0149 63       		.byte	0x63
 1556 014a E4000000 		.4byte	0xe4
 1557 014e 02       		.byte	0x2
 1558 014f 23       		.byte	0x23
 1559 0150 08       		.uleb128 0x8
 1560 0151 06       		.uleb128 0x6
 1561 0152 51000000 		.4byte	.LASF28
 1562 0156 06       		.byte	0x6
 1563 0157 64       		.byte	0x64
 1564 0158 33030000 		.4byte	0x333
 1565 015c 02       		.byte	0x2
 1566 015d 23       		.byte	0x23
 1567 015e 0C       		.uleb128 0xc
 1568 015f 06       		.uleb128 0x6
 1569 0160 80010000 		.4byte	.LASF29
 1570 0164 06       		.byte	0x6
 1571 0165 66       		.byte	0x66
 1572 0166 65020000 		.4byte	0x265
 1573 016a 02       		.byte	0x2
 1574 016b 23       		.byte	0x23
 1575 016c 10       		.uleb128 0x10
 1576 016d 06       		.uleb128 0x6
 1577 016e 51080000 		.4byte	.LASF30
 1578 0172 06       		.byte	0x6
 1579 0173 67       		.byte	0x67
ARM GAS  C:\Users\DNIEL~1\AppData\Local\Temp\ccH33Zvb.s 			page 29


 1580 0174 65020000 		.4byte	0x265
 1581 0178 02       		.byte	0x2
 1582 0179 23       		.byte	0x23
 1583 017a 14       		.uleb128 0x14
 1584 017b 06       		.uleb128 0x6
 1585 017c 9B0B0000 		.4byte	.LASF31
 1586 0180 06       		.byte	0x6
 1587 0181 6E       		.byte	0x6e
 1588 0182 DD030000 		.4byte	0x3dd
 1589 0186 02       		.byte	0x2
 1590 0187 23       		.byte	0x23
 1591 0188 18       		.uleb128 0x18
 1592 0189 06       		.uleb128 0x6
 1593 018a EA0B0000 		.4byte	.LASF32
 1594 018e 06       		.byte	0x6
 1595 018f 79       		.byte	0x79
 1596 0190 C3000000 		.4byte	0xc3
 1597 0194 02       		.byte	0x2
 1598 0195 23       		.byte	0x23
 1599 0196 1C       		.uleb128 0x1c
 1600 0197 06       		.uleb128 0x6
 1601 0198 BA060000 		.4byte	.LASF33
 1602 019c 06       		.byte	0x6
 1603 019d 7D       		.byte	0x7d
 1604 019e B8000000 		.4byte	0xb8
 1605 01a2 02       		.byte	0x2
 1606 01a3 23       		.byte	0x23
 1607 01a4 1D       		.uleb128 0x1d
 1608 01a5 06       		.uleb128 0x6
 1609 01a6 0F070000 		.4byte	.LASF34
 1610 01aa 06       		.byte	0x6
 1611 01ab 82       		.byte	0x82
 1612 01ac CE000000 		.4byte	0xce
 1613 01b0 02       		.byte	0x2
 1614 01b1 23       		.byte	0x23
 1615 01b2 1E       		.uleb128 0x1e
 1616 01b3 06       		.uleb128 0x6
 1617 01b4 58020000 		.4byte	.LASF35
 1618 01b8 06       		.byte	0x6
 1619 01b9 88       		.byte	0x88
 1620 01ba D9000000 		.4byte	0xd9
 1621 01be 02       		.byte	0x2
 1622 01bf 23       		.byte	0x23
 1623 01c0 1F       		.uleb128 0x1f
 1624 01c1 06       		.uleb128 0x6
 1625 01c2 A1070000 		.4byte	.LASF36
 1626 01c6 06       		.byte	0x6
 1627 01c7 8F       		.byte	0x8f
 1628 01c8 5B030000 		.4byte	0x35b
 1629 01cc 02       		.byte	0x2
 1630 01cd 23       		.byte	0x23
 1631 01ce 20       		.uleb128 0x20
 1632 01cf 07       		.uleb128 0x7
 1633 01d0 705F7500 		.ascii	"p_u\000"
 1634 01d4 06       		.byte	0x6
 1635 01d5 B4       		.byte	0xb4
 1636 01d6 A8030000 		.4byte	0x3a8
ARM GAS  C:\Users\DNIEL~1\AppData\Local\Temp\ccH33Zvb.s 			page 30


 1637 01da 02       		.byte	0x2
 1638 01db 23       		.byte	0x23
 1639 01dc 24       		.uleb128 0x24
 1640 01dd 06       		.uleb128 0x6
 1641 01de 9F060000 		.4byte	.LASF37
 1642 01e2 06       		.byte	0x6
 1643 01e3 B9       		.byte	0xb9
 1644 01e4 8D020000 		.4byte	0x28d
 1645 01e8 02       		.byte	0x2
 1646 01e9 23       		.byte	0x23
 1647 01ea 28       		.uleb128 0x28
 1648 01eb 06       		.uleb128 0x6
 1649 01ec 7C000000 		.4byte	.LASF38
 1650 01f0 06       		.byte	0x6
 1651 01f1 BF       		.byte	0xbf
 1652 01f2 6B020000 		.4byte	0x26b
 1653 01f6 02       		.byte	0x2
 1654 01f7 23       		.byte	0x23
 1655 01f8 2C       		.uleb128 0x2c
 1656 01f9 06       		.uleb128 0x6
 1657 01fa DA0B0000 		.4byte	.LASF39
 1658 01fe 06       		.byte	0x6
 1659 01ff C3       		.byte	0xc3
 1660 0200 EF000000 		.4byte	0xef
 1661 0204 02       		.byte	0x2
 1662 0205 23       		.byte	0x23
 1663 0206 34       		.uleb128 0x34
 1664 0207 06       		.uleb128 0x6
 1665 0208 26040000 		.4byte	.LASF40
 1666 020c 06       		.byte	0x6
 1667 020d C9       		.byte	0xc9
 1668 020e FA000000 		.4byte	0xfa
 1669 0212 02       		.byte	0x2
 1670 0213 23       		.byte	0x23
 1671 0214 38       		.uleb128 0x38
 1672 0215 06       		.uleb128 0x6
 1673 0216 CB010000 		.4byte	.LASF41
 1674 021a 06       		.byte	0x6
 1675 021b D0       		.byte	0xd0
 1676 021c EF030000 		.4byte	0x3ef
 1677 0220 02       		.byte	0x2
 1678 0221 23       		.byte	0x23
 1679 0222 3C       		.uleb128 0x3c
 1680 0223 06       		.uleb128 0x6
 1681 0224 C8070000 		.4byte	.LASF42
 1682 0228 06       		.byte	0x6
 1683 0229 D4       		.byte	0xd4
 1684 022a E4000000 		.4byte	0xe4
 1685 022e 02       		.byte	0x2
 1686 022f 23       		.byte	0x23
 1687 0230 40       		.uleb128 0x40
 1688 0231 06       		.uleb128 0x6
 1689 0232 FA060000 		.4byte	.LASF43
 1690 0236 06       		.byte	0x6
 1691 0237 DA       		.byte	0xda
 1692 0238 A3020000 		.4byte	0x2a3
 1693 023c 02       		.byte	0x2
ARM GAS  C:\Users\DNIEL~1\AppData\Local\Temp\ccH33Zvb.s 			page 31


 1694 023d 23       		.byte	0x23
 1695 023e 44       		.uleb128 0x44
 1696 023f 00       		.byte	0x0
 1697 0240 08       		.uleb128 0x8
 1698 0241 08       		.byte	0x8
 1699 0242 05       		.byte	0x5
 1700 0243 61       		.byte	0x61
 1701 0244 65020000 		.4byte	0x265
 1702 0248 06       		.uleb128 0x6
 1703 0249 91010000 		.4byte	.LASF25
 1704 024d 05       		.byte	0x5
 1705 024e 62       		.byte	0x62
 1706 024f 65020000 		.4byte	0x265
 1707 0253 02       		.byte	0x2
 1708 0254 23       		.byte	0x23
 1709 0255 00       		.uleb128 0x0
 1710 0256 06       		.uleb128 0x6
 1711 0257 98010000 		.4byte	.LASF26
 1712 025b 05       		.byte	0x5
 1713 025c 64       		.byte	0x64
 1714 025d 65020000 		.4byte	0x265
 1715 0261 02       		.byte	0x2
 1716 0262 23       		.byte	0x23
 1717 0263 04       		.uleb128 0x4
 1718 0264 00       		.byte	0x0
 1719 0265 09       		.uleb128 0x9
 1720 0266 04       		.byte	0x4
 1721 0267 10010000 		.4byte	0x110
 1722 026b 03       		.uleb128 0x3
 1723 026c 8F0A0000 		.4byte	.LASF44
 1724 0270 05       		.byte	0x5
 1725 0271 66       		.byte	0x66
 1726 0272 40020000 		.4byte	0x240
 1727 0276 08       		.uleb128 0x8
 1728 0277 04       		.byte	0x4
 1729 0278 05       		.byte	0x5
 1730 0279 6B       		.byte	0x6b
 1731 027a 8D020000 		.4byte	0x28d
 1732 027e 06       		.uleb128 0x6
 1733 027f 91010000 		.4byte	.LASF25
 1734 0283 05       		.byte	0x5
 1735 0284 6D       		.byte	0x6d
 1736 0285 65020000 		.4byte	0x265
 1737 0289 02       		.byte	0x2
 1738 028a 23       		.byte	0x23
 1739 028b 00       		.uleb128 0x0
 1740 028c 00       		.byte	0x0
 1741 028d 03       		.uleb128 0x3
 1742 028e 23070000 		.4byte	.LASF45
 1743 0292 05       		.byte	0x5
 1744 0293 70       		.byte	0x70
 1745 0294 76020000 		.4byte	0x276
 1746 0298 03       		.uleb128 0x3
 1747 0299 ED010000 		.4byte	.LASF46
 1748 029d 07       		.byte	0x7
 1749 029e E5       		.byte	0xe5
 1750 029f A3020000 		.4byte	0x2a3
ARM GAS  C:\Users\DNIEL~1\AppData\Local\Temp\ccH33Zvb.s 			page 32


 1751 02a3 0A       		.uleb128 0xa
 1752 02a4 04       		.byte	0x4
 1753 02a5 0B       		.uleb128 0xb
 1754 02a6 1F040000 		.4byte	.LASF47
 1755 02aa 24       		.byte	0x24
 1756 02ab 07       		.byte	0x7
 1757 02ac 0C01     		.2byte	0x10c
 1758 02ae 33030000 		.4byte	0x333
 1759 02b2 0C       		.uleb128 0xc
 1760 02b3 723400   		.ascii	"r4\000"
 1761 02b6 07       		.byte	0x7
 1762 02b7 1F01     		.2byte	0x11f
 1763 02b9 98020000 		.4byte	0x298
 1764 02bd 02       		.byte	0x2
 1765 02be 23       		.byte	0x23
 1766 02bf 00       		.uleb128 0x0
 1767 02c0 0C       		.uleb128 0xc
 1768 02c1 723500   		.ascii	"r5\000"
 1769 02c4 07       		.byte	0x7
 1770 02c5 2001     		.2byte	0x120
 1771 02c7 98020000 		.4byte	0x298
 1772 02cb 02       		.byte	0x2
 1773 02cc 23       		.byte	0x23
 1774 02cd 04       		.uleb128 0x4
 1775 02ce 0C       		.uleb128 0xc
 1776 02cf 723600   		.ascii	"r6\000"
 1777 02d2 07       		.byte	0x7
 1778 02d3 2101     		.2byte	0x121
 1779 02d5 98020000 		.4byte	0x298
 1780 02d9 02       		.byte	0x2
 1781 02da 23       		.byte	0x23
 1782 02db 08       		.uleb128 0x8
 1783 02dc 0C       		.uleb128 0xc
 1784 02dd 723700   		.ascii	"r7\000"
 1785 02e0 07       		.byte	0x7
 1786 02e1 2201     		.2byte	0x122
 1787 02e3 98020000 		.4byte	0x298
 1788 02e7 02       		.byte	0x2
 1789 02e8 23       		.byte	0x23
 1790 02e9 0C       		.uleb128 0xc
 1791 02ea 0C       		.uleb128 0xc
 1792 02eb 723800   		.ascii	"r8\000"
 1793 02ee 07       		.byte	0x7
 1794 02ef 2301     		.2byte	0x123
 1795 02f1 98020000 		.4byte	0x298
 1796 02f5 02       		.byte	0x2
 1797 02f6 23       		.byte	0x23
 1798 02f7 10       		.uleb128 0x10
 1799 02f8 0C       		.uleb128 0xc
 1800 02f9 723900   		.ascii	"r9\000"
 1801 02fc 07       		.byte	0x7
 1802 02fd 2401     		.2byte	0x124
 1803 02ff 98020000 		.4byte	0x298
 1804 0303 02       		.byte	0x2
 1805 0304 23       		.byte	0x23
 1806 0305 14       		.uleb128 0x14
 1807 0306 0C       		.uleb128 0xc
ARM GAS  C:\Users\DNIEL~1\AppData\Local\Temp\ccH33Zvb.s 			page 33


 1808 0307 72313000 		.ascii	"r10\000"
 1809 030b 07       		.byte	0x7
 1810 030c 2501     		.2byte	0x125
 1811 030e 98020000 		.4byte	0x298
 1812 0312 02       		.byte	0x2
 1813 0313 23       		.byte	0x23
 1814 0314 18       		.uleb128 0x18
 1815 0315 0C       		.uleb128 0xc
 1816 0316 72313100 		.ascii	"r11\000"
 1817 031a 07       		.byte	0x7
 1818 031b 2601     		.2byte	0x126
 1819 031d 98020000 		.4byte	0x298
 1820 0321 02       		.byte	0x2
 1821 0322 23       		.byte	0x23
 1822 0323 1C       		.uleb128 0x1c
 1823 0324 0C       		.uleb128 0xc
 1824 0325 6C7200   		.ascii	"lr\000"
 1825 0328 07       		.byte	0x7
 1826 0329 2701     		.2byte	0x127
 1827 032b 98020000 		.4byte	0x298
 1828 032f 02       		.byte	0x2
 1829 0330 23       		.byte	0x23
 1830 0331 20       		.uleb128 0x20
 1831 0332 00       		.byte	0x0
 1832 0333 0B       		.uleb128 0xb
 1833 0334 76020000 		.4byte	.LASF48
 1834 0338 04       		.byte	0x4
 1835 0339 07       		.byte	0x7
 1836 033a 3101     		.2byte	0x131
 1837 033c 50030000 		.4byte	0x350
 1838 0340 0C       		.uleb128 0xc
 1839 0341 72313300 		.ascii	"r13\000"
 1840 0345 07       		.byte	0x7
 1841 0346 3201     		.2byte	0x132
 1842 0348 50030000 		.4byte	0x350
 1843 034c 02       		.byte	0x2
 1844 034d 23       		.byte	0x23
 1845 034e 00       		.uleb128 0x0
 1846 034f 00       		.byte	0x0
 1847 0350 09       		.uleb128 0x9
 1848 0351 04       		.byte	0x4
 1849 0352 A5020000 		.4byte	0x2a5
 1850 0356 0D       		.uleb128 0xd
 1851 0357 86000000 		.4byte	0x86
 1852 035b 0D       		.uleb128 0xd
 1853 035c 05010000 		.4byte	0x105
 1854 0360 05       		.uleb128 0x5
 1855 0361 EE050000 		.4byte	.LASF49
 1856 0365 10       		.byte	0x10
 1857 0366 08       		.byte	0x8
 1858 0367 2C       		.byte	0x2c
 1859 0368 97030000 		.4byte	0x397
 1860 036c 06       		.uleb128 0x6
 1861 036d 30060000 		.4byte	.LASF50
 1862 0371 08       		.byte	0x8
 1863 0372 2D       		.byte	0x2d
 1864 0373 6B020000 		.4byte	0x26b
ARM GAS  C:\Users\DNIEL~1\AppData\Local\Temp\ccH33Zvb.s 			page 34


 1865 0377 02       		.byte	0x2
 1866 0378 23       		.byte	0x23
 1867 0379 00       		.uleb128 0x0
 1868 037a 06       		.uleb128 0x6
 1869 037b 2D010000 		.4byte	.LASF51
 1870 037f 08       		.byte	0x8
 1871 0380 2F       		.byte	0x2f
 1872 0381 65020000 		.4byte	0x265
 1873 0385 02       		.byte	0x2
 1874 0386 23       		.byte	0x23
 1875 0387 08       		.uleb128 0x8
 1876 0388 06       		.uleb128 0x6
 1877 0389 A20B0000 		.4byte	.LASF52
 1878 038d 08       		.byte	0x8
 1879 038e 31       		.byte	0x31
 1880 038f 97030000 		.4byte	0x397
 1881 0393 02       		.byte	0x2
 1882 0394 23       		.byte	0x23
 1883 0395 0C       		.uleb128 0xc
 1884 0396 00       		.byte	0x0
 1885 0397 09       		.uleb128 0x9
 1886 0398 04       		.byte	0x4
 1887 0399 60030000 		.4byte	0x360
 1888 039d 03       		.uleb128 0x3
 1889 039e EE050000 		.4byte	.LASF49
 1890 03a2 08       		.byte	0x8
 1891 03a3 33       		.byte	0x33
 1892 03a4 60030000 		.4byte	0x360
 1893 03a8 0E       		.uleb128 0xe
 1894 03a9 04       		.byte	0x4
 1895 03aa 06       		.byte	0x6
 1896 03ab 96       		.byte	0x96
 1897 03ac DD030000 		.4byte	0x3dd
 1898 03b0 0F       		.uleb128 0xf
 1899 03b1 020B0000 		.4byte	.LASF53
 1900 03b5 06       		.byte	0x6
 1901 03b6 9D       		.byte	0x9d
 1902 03b7 EF000000 		.4byte	0xef
 1903 03bb 0F       		.uleb128 0xf
 1904 03bc 41010000 		.4byte	.LASF54
 1905 03c0 06       		.byte	0x6
 1906 03c1 A4       		.byte	0xa4
 1907 03c2 EF000000 		.4byte	0xef
 1908 03c6 0F       		.uleb128 0xf
 1909 03c7 78030000 		.4byte	.LASF55
 1910 03cb 06       		.byte	0x6
 1911 03cc AB       		.byte	0xab
 1912 03cd A3020000 		.4byte	0x2a3
 1913 03d1 0F       		.uleb128 0xf
 1914 03d2 5B010000 		.4byte	.LASF56
 1915 03d6 06       		.byte	0x6
 1916 03d7 B2       		.byte	0xb2
 1917 03d8 FA000000 		.4byte	0xfa
 1918 03dc 00       		.byte	0x0
 1919 03dd 09       		.uleb128 0x9
 1920 03de 04       		.byte	0x4
 1921 03df E3030000 		.4byte	0x3e3
ARM GAS  C:\Users\DNIEL~1\AppData\Local\Temp\ccH33Zvb.s 			page 35


 1922 03e3 10       		.uleb128 0x10
 1923 03e4 E8030000 		.4byte	0x3e8
 1924 03e8 04       		.uleb128 0x4
 1925 03e9 01       		.byte	0x1
 1926 03ea 08       		.byte	0x8
 1927 03eb 5D030000 		.4byte	.LASF57
 1928 03ef 09       		.uleb128 0x9
 1929 03f0 04       		.byte	0x4
 1930 03f1 9D030000 		.4byte	0x39d
 1931 03f5 11       		.uleb128 0x11
 1932 03f6 A8070000 		.4byte	.LASF263
 1933 03fa 01       		.byte	0x1
 1934 03fb 09       		.byte	0x9
 1935 03fc AA       		.byte	0xaa
 1936 03fd 30060000 		.4byte	0x630
 1937 0401 12       		.uleb128 0x12
 1938 0402 B1040000 		.4byte	.LASF58
 1939 0406 72       		.sleb128 -14
 1940 0407 12       		.uleb128 0x12
 1941 0408 F0040000 		.4byte	.LASF59
 1942 040c 74       		.sleb128 -12
 1943 040d 12       		.uleb128 0x12
 1944 040e BA050000 		.4byte	.LASF60
 1945 0412 75       		.sleb128 -11
 1946 0413 12       		.uleb128 0x12
 1947 0414 4D030000 		.4byte	.LASF61
 1948 0418 76       		.sleb128 -10
 1949 0419 12       		.uleb128 0x12
 1950 041a 60060000 		.4byte	.LASF62
 1951 041e 7B       		.sleb128 -5
 1952 041f 12       		.uleb128 0x12
 1953 0420 77090000 		.4byte	.LASF63
 1954 0424 7C       		.sleb128 -4
 1955 0425 12       		.uleb128 0x12
 1956 0426 490B0000 		.4byte	.LASF64
 1957 042a 7E       		.sleb128 -2
 1958 042b 12       		.uleb128 0x12
 1959 042c 15020000 		.4byte	.LASF65
 1960 0430 7F       		.sleb128 -1
 1961 0431 12       		.uleb128 0x12
 1962 0432 C5040000 		.4byte	.LASF66
 1963 0436 00       		.sleb128 0
 1964 0437 12       		.uleb128 0x12
 1965 0438 16090000 		.4byte	.LASF67
 1966 043c 01       		.sleb128 1
 1967 043d 12       		.uleb128 0x12
 1968 043e 06050000 		.4byte	.LASF68
 1969 0442 02       		.sleb128 2
 1970 0443 12       		.uleb128 0x12
 1971 0444 650A0000 		.4byte	.LASF69
 1972 0448 03       		.sleb128 3
 1973 0449 12       		.uleb128 0x12
 1974 044a C9000000 		.4byte	.LASF70
 1975 044e 04       		.sleb128 4
 1976 044f 12       		.uleb128 0x12
 1977 0450 CF090000 		.4byte	.LASF71
 1978 0454 05       		.sleb128 5
ARM GAS  C:\Users\DNIEL~1\AppData\Local\Temp\ccH33Zvb.s 			page 36


 1979 0455 12       		.uleb128 0x12
 1980 0456 29090000 		.4byte	.LASF72
 1981 045a 06       		.sleb128 6
 1982 045b 12       		.uleb128 0x12
 1983 045c 51040000 		.4byte	.LASF73
 1984 0460 07       		.sleb128 7
 1985 0461 12       		.uleb128 0x12
 1986 0462 A2080000 		.4byte	.LASF74
 1987 0466 08       		.sleb128 8
 1988 0467 12       		.uleb128 0x12
 1989 0468 3E0B0000 		.4byte	.LASF75
 1990 046c 09       		.sleb128 9
 1991 046d 12       		.uleb128 0x12
 1992 046e 090B0000 		.4byte	.LASF76
 1993 0472 0A       		.sleb128 10
 1994 0473 12       		.uleb128 0x12
 1995 0474 DE070000 		.4byte	.LASF77
 1996 0478 0B       		.sleb128 11
 1997 0479 12       		.uleb128 0x12
 1998 047a 45070000 		.4byte	.LASF78
 1999 047e 0C       		.sleb128 12
 2000 047f 12       		.uleb128 0x12
 2001 0480 7E020000 		.4byte	.LASF79
 2002 0484 0D       		.sleb128 13
 2003 0485 12       		.uleb128 0x12
 2004 0486 F5090000 		.4byte	.LASF80
 2005 048a 0E       		.sleb128 14
 2006 048b 12       		.uleb128 0x12
 2007 048c 3C090000 		.4byte	.LASF81
 2008 0490 0F       		.sleb128 15
 2009 0491 12       		.uleb128 0x12
 2010 0492 69040000 		.4byte	.LASF82
 2011 0496 10       		.sleb128 16
 2012 0497 12       		.uleb128 0x12
 2013 0498 AD070000 		.4byte	.LASF83
 2014 049c 11       		.sleb128 17
 2015 049d 12       		.uleb128 0x12
 2016 049e D9080000 		.4byte	.LASF84
 2017 04a2 12       		.sleb128 18
 2018 04a3 12       		.uleb128 0x12
 2019 04a4 5C040000 		.4byte	.LASF85
 2020 04a8 13       		.sleb128 19
 2021 04a9 12       		.uleb128 0x12
 2022 04aa 7F030000 		.4byte	.LASF86
 2023 04ae 14       		.sleb128 20
 2024 04af 12       		.uleb128 0x12
 2025 04b0 810A0000 		.4byte	.LASF87
 2026 04b4 15       		.sleb128 21
 2027 04b5 12       		.uleb128 0x12
 2028 04b6 16050000 		.4byte	.LASF88
 2029 04ba 16       		.sleb128 22
 2030 04bb 12       		.uleb128 0x12
 2031 04bc CF0A0000 		.4byte	.LASF89
 2032 04c0 17       		.sleb128 23
 2033 04c1 12       		.uleb128 0x12
 2034 04c2 DB050000 		.4byte	.LASF90
 2035 04c6 18       		.sleb128 24
ARM GAS  C:\Users\DNIEL~1\AppData\Local\Temp\ccH33Zvb.s 			page 37


 2036 04c7 12       		.uleb128 0x12
 2037 04c8 290A0000 		.4byte	.LASF91
 2038 04cc 19       		.sleb128 25
 2039 04cd 12       		.uleb128 0x12
 2040 04ce D5010000 		.4byte	.LASF92
 2041 04d2 1A       		.sleb128 26
 2042 04d3 12       		.uleb128 0x12
 2043 04d4 36040000 		.4byte	.LASF93
 2044 04d8 1B       		.sleb128 27
 2045 04d9 12       		.uleb128 0x12
 2046 04da EB000000 		.4byte	.LASF94
 2047 04de 1C       		.sleb128 28
 2048 04df 12       		.uleb128 0x12
 2049 04e0 77080000 		.4byte	.LASF95
 2050 04e4 1D       		.sleb128 29
 2051 04e5 12       		.uleb128 0x12
 2052 04e6 A6030000 		.4byte	.LASF96
 2053 04ea 1E       		.sleb128 30
 2054 04eb 12       		.uleb128 0x12
 2055 04ec 06040000 		.4byte	.LASF97
 2056 04f0 1F       		.sleb128 31
 2057 04f1 12       		.uleb128 0x12
 2058 04f2 ED020000 		.4byte	.LASF98
 2059 04f6 20       		.sleb128 32
 2060 04f7 12       		.uleb128 0x12
 2061 04f8 02070000 		.4byte	.LASF99
 2062 04fc 21       		.sleb128 33
 2063 04fd 12       		.uleb128 0x12
 2064 04fe 68050000 		.4byte	.LASF100
 2065 0502 22       		.sleb128 34
 2066 0503 12       		.uleb128 0x12
 2067 0504 3E060000 		.4byte	.LASF101
 2068 0508 23       		.sleb128 35
 2069 0509 12       		.uleb128 0x12
 2070 050a 1A060000 		.4byte	.LASF102
 2071 050e 24       		.sleb128 36
 2072 050f 12       		.uleb128 0x12
 2073 0510 81080000 		.4byte	.LASF103
 2074 0514 25       		.sleb128 37
 2075 0515 12       		.uleb128 0x12
 2076 0516 B0030000 		.4byte	.LASF104
 2077 051a 26       		.sleb128 38
 2078 051b 12       		.uleb128 0x12
 2079 051c 22020000 		.4byte	.LASF105
 2080 0520 27       		.sleb128 39
 2081 0521 12       		.uleb128 0x12
 2082 0522 68080000 		.4byte	.LASF106
 2083 0526 28       		.sleb128 40
 2084 0527 12       		.uleb128 0x12
 2085 0528 08080000 		.4byte	.LASF107
 2086 052c 29       		.sleb128 41
 2087 052d 12       		.uleb128 0x12
 2088 052e A9060000 		.4byte	.LASF108
 2089 0532 2A       		.sleb128 42
 2090 0533 12       		.uleb128 0x12
 2091 0534 62010000 		.4byte	.LASF109
 2092 0538 2B       		.sleb128 43
ARM GAS  C:\Users\DNIEL~1\AppData\Local\Temp\ccH33Zvb.s 			page 38


 2093 0539 12       		.uleb128 0x12
 2094 053a 0C000000 		.4byte	.LASF110
 2095 053e 2C       		.sleb128 44
 2096 053f 12       		.uleb128 0x12
 2097 0540 7B040000 		.4byte	.LASF111
 2098 0544 2D       		.sleb128 45
 2099 0545 12       		.uleb128 0x12
 2100 0546 270B0000 		.4byte	.LASF112
 2101 054a 2E       		.sleb128 46
 2102 054b 12       		.uleb128 0x12
 2103 054c 680B0000 		.4byte	.LASF113
 2104 0550 2F       		.sleb128 47
 2105 0551 12       		.uleb128 0x12
 2106 0552 1F090000 		.4byte	.LASF114
 2107 0556 30       		.sleb128 48
 2108 0557 12       		.uleb128 0x12
 2109 0558 340B0000 		.4byte	.LASF115
 2110 055c 31       		.sleb128 49
 2111 055d 12       		.uleb128 0x12
 2112 055e 37030000 		.4byte	.LASF116
 2113 0562 32       		.sleb128 50
 2114 0563 12       		.uleb128 0x12
 2115 0564 BF000000 		.4byte	.LASF117
 2116 0568 33       		.sleb128 51
 2117 0569 12       		.uleb128 0x12
 2118 056a 8A060000 		.4byte	.LASF118
 2119 056e 34       		.sleb128 52
 2120 056f 12       		.uleb128 0x12
 2121 0570 D0050000 		.4byte	.LASF119
 2122 0574 35       		.sleb128 53
 2123 0575 12       		.uleb128 0x12
 2124 0576 D9060000 		.4byte	.LASF120
 2125 057a 36       		.sleb128 54
 2126 057b 12       		.uleb128 0x12
 2127 057c F4050000 		.4byte	.LASF121
 2128 0580 37       		.sleb128 55
 2129 0581 12       		.uleb128 0x12
 2130 0582 37050000 		.4byte	.LASF122
 2131 0586 38       		.sleb128 56
 2132 0587 12       		.uleb128 0x12
 2133 0588 AD000000 		.4byte	.LASF123
 2134 058c 39       		.sleb128 57
 2135 058d 12       		.uleb128 0x12
 2136 058e C80B0000 		.4byte	.LASF124
 2137 0592 3A       		.sleb128 58
 2138 0593 12       		.uleb128 0x12
 2139 0594 57070000 		.4byte	.LASF125
 2140 0598 3B       		.sleb128 59
 2141 0599 12       		.uleb128 0x12
 2142 059a B2020000 		.4byte	.LASF126
 2143 059e 3C       		.sleb128 60
 2144 059f 12       		.uleb128 0x12
 2145 05a0 B0090000 		.4byte	.LASF127
 2146 05a4 3D       		.sleb128 61
 2147 05a5 12       		.uleb128 0x12
 2148 05a6 0C060000 		.4byte	.LASF128
 2149 05aa 3E       		.sleb128 62
ARM GAS  C:\Users\DNIEL~1\AppData\Local\Temp\ccH33Zvb.s 			page 39


 2150 05ab 12       		.uleb128 0x12
 2151 05ac 69070000 		.4byte	.LASF129
 2152 05b0 3F       		.sleb128 63
 2153 05b1 12       		.uleb128 0x12
 2154 05b2 13010000 		.4byte	.LASF130
 2155 05b6 C000     		.sleb128 64
 2156 05b8 12       		.uleb128 0x12
 2157 05b9 C4080000 		.4byte	.LASF131
 2158 05bd C100     		.sleb128 65
 2159 05bf 12       		.uleb128 0x12
 2160 05c0 05030000 		.4byte	.LASF132
 2161 05c4 C200     		.sleb128 66
 2162 05c6 12       		.uleb128 0x12
 2163 05c7 A5040000 		.4byte	.LASF133
 2164 05cb C300     		.sleb128 67
 2165 05cd 12       		.uleb128 0x12
 2166 05ce A7010000 		.4byte	.LASF134
 2167 05d2 C400     		.sleb128 68
 2168 05d4 12       		.uleb128 0x12
 2169 05d5 5D090000 		.4byte	.LASF135
 2170 05d9 C500     		.sleb128 69
 2171 05db 12       		.uleb128 0x12
 2172 05dc 93040000 		.4byte	.LASF136
 2173 05e0 C600     		.sleb128 70
 2174 05e2 12       		.uleb128 0x12
 2175 05e3 21010000 		.4byte	.LASF137
 2176 05e7 C700     		.sleb128 71
 2177 05e9 12       		.uleb128 0x12
 2178 05ea 89090000 		.4byte	.LASF138
 2179 05ee C800     		.sleb128 72
 2180 05f0 12       		.uleb128 0x12
 2181 05f1 17080000 		.4byte	.LASF139
 2182 05f5 C900     		.sleb128 73
 2183 05f7 12       		.uleb128 0x12
 2184 05f8 510A0000 		.4byte	.LASF140
 2185 05fc CA00     		.sleb128 74
 2186 05fe 12       		.uleb128 0x12
 2187 05ff 550B0000 		.4byte	.LASF141
 2188 0603 CB00     		.sleb128 75
 2189 0605 12       		.uleb128 0x12
 2190 0606 4A010000 		.4byte	.LASF142
 2191 060a CC00     		.sleb128 76
 2192 060c 12       		.uleb128 0x12
 2193 060d 24060000 		.4byte	.LASF143
 2194 0611 CD00     		.sleb128 77
 2195 0613 12       		.uleb128 0x12
 2196 0614 D4000000 		.4byte	.LASF144
 2197 0618 CE00     		.sleb128 78
 2198 061a 12       		.uleb128 0x12
 2199 061b 24080000 		.4byte	.LASF145
 2200 061f CF00     		.sleb128 79
 2201 0621 12       		.uleb128 0x12
 2202 0622 43040000 		.4byte	.LASF146
 2203 0626 D000     		.sleb128 80
 2204 0628 12       		.uleb128 0x12
 2205 0629 81060000 		.4byte	.LASF147
 2206 062d D100     		.sleb128 81
ARM GAS  C:\Users\DNIEL~1\AppData\Local\Temp\ccH33Zvb.s 			page 40


 2207 062f 00       		.byte	0x0
 2208 0630 13       		.uleb128 0x13
 2209 0631 86000000 		.4byte	0x86
 2210 0635 40060000 		.4byte	0x640
 2211 0639 14       		.uleb128 0x14
 2212 063a 3B000000 		.4byte	0x3b
 2213 063e 01       		.byte	0x1
 2214 063f 00       		.byte	0x0
 2215 0640 0D       		.uleb128 0xd
 2216 0641 74000000 		.4byte	0x74
 2217 0645 15       		.uleb128 0x15
 2218 0646 50       		.byte	0x50
 2219 0647 09       		.byte	0x9
 2220 0648 0A02     		.2byte	0x20a
 2221 064a 79070000 		.4byte	0x779
 2222 064e 0C       		.uleb128 0xc
 2223 064f 535200   		.ascii	"SR\000"
 2224 0652 09       		.byte	0x9
 2225 0653 0C02     		.2byte	0x20c
 2226 0655 56030000 		.4byte	0x356
 2227 0659 02       		.byte	0x2
 2228 065a 23       		.byte	0x23
 2229 065b 00       		.uleb128 0x0
 2230 065c 0C       		.uleb128 0xc
 2231 065d 43523100 		.ascii	"CR1\000"
 2232 0661 09       		.byte	0x9
 2233 0662 0D02     		.2byte	0x20d
 2234 0664 56030000 		.4byte	0x356
 2235 0668 02       		.byte	0x2
 2236 0669 23       		.byte	0x23
 2237 066a 04       		.uleb128 0x4
 2238 066b 0C       		.uleb128 0xc
 2239 066c 43523200 		.ascii	"CR2\000"
 2240 0670 09       		.byte	0x9
 2241 0671 0E02     		.2byte	0x20e
 2242 0673 56030000 		.4byte	0x356
 2243 0677 02       		.byte	0x2
 2244 0678 23       		.byte	0x23
 2245 0679 08       		.uleb128 0x8
 2246 067a 16       		.uleb128 0x16
 2247 067b 49050000 		.4byte	.LASF148
 2248 067f 09       		.byte	0x9
 2249 0680 0F02     		.2byte	0x20f
 2250 0682 56030000 		.4byte	0x356
 2251 0686 02       		.byte	0x2
 2252 0687 23       		.byte	0x23
 2253 0688 0C       		.uleb128 0xc
 2254 0689 16       		.uleb128 0x16
 2255 068a 4F050000 		.4byte	.LASF149
 2256 068e 09       		.byte	0x9
 2257 068f 1002     		.2byte	0x210
 2258 0691 56030000 		.4byte	0x356
 2259 0695 02       		.byte	0x2
 2260 0696 23       		.byte	0x23
 2261 0697 10       		.uleb128 0x10
 2262 0698 16       		.uleb128 0x16
 2263 0699 DD090000 		.4byte	.LASF150
ARM GAS  C:\Users\DNIEL~1\AppData\Local\Temp\ccH33Zvb.s 			page 41


 2264 069d 09       		.byte	0x9
 2265 069e 1102     		.2byte	0x211
 2266 06a0 56030000 		.4byte	0x356
 2267 06a4 02       		.byte	0x2
 2268 06a5 23       		.byte	0x23
 2269 06a6 14       		.uleb128 0x14
 2270 06a7 16       		.uleb128 0x16
 2271 06a8 E3090000 		.4byte	.LASF151
 2272 06ac 09       		.byte	0x9
 2273 06ad 1202     		.2byte	0x212
 2274 06af 56030000 		.4byte	0x356
 2275 06b3 02       		.byte	0x2
 2276 06b4 23       		.byte	0x23
 2277 06b5 18       		.uleb128 0x18
 2278 06b6 16       		.uleb128 0x16
 2279 06b7 E9090000 		.4byte	.LASF152
 2280 06bb 09       		.byte	0x9
 2281 06bc 1302     		.2byte	0x213
 2282 06be 56030000 		.4byte	0x356
 2283 06c2 02       		.byte	0x2
 2284 06c3 23       		.byte	0x23
 2285 06c4 1C       		.uleb128 0x1c
 2286 06c5 16       		.uleb128 0x16
 2287 06c6 EF090000 		.4byte	.LASF153
 2288 06ca 09       		.byte	0x9
 2289 06cb 1402     		.2byte	0x214
 2290 06cd 56030000 		.4byte	0x356
 2291 06d1 02       		.byte	0x2
 2292 06d2 23       		.byte	0x23
 2293 06d3 20       		.uleb128 0x20
 2294 06d4 0C       		.uleb128 0xc
 2295 06d5 48545200 		.ascii	"HTR\000"
 2296 06d9 09       		.byte	0x9
 2297 06da 1502     		.2byte	0x215
 2298 06dc 56030000 		.4byte	0x356
 2299 06e0 02       		.byte	0x2
 2300 06e1 23       		.byte	0x23
 2301 06e2 24       		.uleb128 0x24
 2302 06e3 0C       		.uleb128 0xc
 2303 06e4 4C545200 		.ascii	"LTR\000"
 2304 06e8 09       		.byte	0x9
 2305 06e9 1602     		.2byte	0x216
 2306 06eb 56030000 		.4byte	0x356
 2307 06ef 02       		.byte	0x2
 2308 06f0 23       		.byte	0x23
 2309 06f1 28       		.uleb128 0x28
 2310 06f2 16       		.uleb128 0x16
 2311 06f3 6D000000 		.4byte	.LASF154
 2312 06f7 09       		.byte	0x9
 2313 06f8 1702     		.2byte	0x217
 2314 06fa 56030000 		.4byte	0x356
 2315 06fe 02       		.byte	0x2
 2316 06ff 23       		.byte	0x23
 2317 0700 2C       		.uleb128 0x2c
 2318 0701 16       		.uleb128 0x16
 2319 0702 72000000 		.4byte	.LASF155
 2320 0706 09       		.byte	0x9
ARM GAS  C:\Users\DNIEL~1\AppData\Local\Temp\ccH33Zvb.s 			page 42


 2321 0707 1802     		.2byte	0x218
 2322 0709 56030000 		.4byte	0x356
 2323 070d 02       		.byte	0x2
 2324 070e 23       		.byte	0x23
 2325 070f 30       		.uleb128 0x30
 2326 0710 16       		.uleb128 0x16
 2327 0711 77000000 		.4byte	.LASF156
 2328 0715 09       		.byte	0x9
 2329 0716 1902     		.2byte	0x219
 2330 0718 56030000 		.4byte	0x356
 2331 071c 02       		.byte	0x2
 2332 071d 23       		.byte	0x23
 2333 071e 34       		.uleb128 0x34
 2334 071f 16       		.uleb128 0x16
 2335 0720 240A0000 		.4byte	.LASF157
 2336 0724 09       		.byte	0x9
 2337 0725 1A02     		.2byte	0x21a
 2338 0727 56030000 		.4byte	0x356
 2339 072b 02       		.byte	0x2
 2340 072c 23       		.byte	0x23
 2341 072d 38       		.uleb128 0x38
 2342 072e 16       		.uleb128 0x16
 2343 072f 0E0A0000 		.4byte	.LASF158
 2344 0733 09       		.byte	0x9
 2345 0734 1B02     		.2byte	0x21b
 2346 0736 56030000 		.4byte	0x356
 2347 073a 02       		.byte	0x2
 2348 073b 23       		.byte	0x23
 2349 073c 3C       		.uleb128 0x3c
 2350 073d 16       		.uleb128 0x16
 2351 073e 130A0000 		.4byte	.LASF159
 2352 0742 09       		.byte	0x9
 2353 0743 1C02     		.2byte	0x21c
 2354 0745 56030000 		.4byte	0x356
 2355 0749 02       		.byte	0x2
 2356 074a 23       		.byte	0x23
 2357 074b 40       		.uleb128 0x40
 2358 074c 16       		.uleb128 0x16
 2359 074d 180A0000 		.4byte	.LASF160
 2360 0751 09       		.byte	0x9
 2361 0752 1D02     		.2byte	0x21d
 2362 0754 56030000 		.4byte	0x356
 2363 0758 02       		.byte	0x2
 2364 0759 23       		.byte	0x23
 2365 075a 44       		.uleb128 0x44
 2366 075b 16       		.uleb128 0x16
 2367 075c 35010000 		.4byte	.LASF161
 2368 0760 09       		.byte	0x9
 2369 0761 1E02     		.2byte	0x21e
 2370 0763 56030000 		.4byte	0x356
 2371 0767 02       		.byte	0x2
 2372 0768 23       		.byte	0x23
 2373 0769 48       		.uleb128 0x48
 2374 076a 0C       		.uleb128 0xc
 2375 076b 445200   		.ascii	"DR\000"
 2376 076e 09       		.byte	0x9
 2377 076f 1F02     		.2byte	0x21f
ARM GAS  C:\Users\DNIEL~1\AppData\Local\Temp\ccH33Zvb.s 			page 43


 2378 0771 56030000 		.4byte	0x356
 2379 0775 02       		.byte	0x2
 2380 0776 23       		.byte	0x23
 2381 0777 4C       		.uleb128 0x4c
 2382 0778 00       		.byte	0x0
 2383 0779 17       		.uleb128 0x17
 2384 077a 13040000 		.4byte	.LASF162
 2385 077e 09       		.byte	0x9
 2386 077f 2002     		.2byte	0x220
 2387 0781 45060000 		.4byte	0x645
 2388 0785 15       		.uleb128 0x15
 2389 0786 0C       		.byte	0xc
 2390 0787 09       		.byte	0x9
 2391 0788 2202     		.2byte	0x222
 2392 078a BC070000 		.4byte	0x7bc
 2393 078e 0C       		.uleb128 0xc
 2394 078f 43535200 		.ascii	"CSR\000"
 2395 0793 09       		.byte	0x9
 2396 0794 2402     		.2byte	0x224
 2397 0796 56030000 		.4byte	0x356
 2398 079a 02       		.byte	0x2
 2399 079b 23       		.byte	0x23
 2400 079c 00       		.uleb128 0x0
 2401 079d 0C       		.uleb128 0xc
 2402 079e 43435200 		.ascii	"CCR\000"
 2403 07a2 09       		.byte	0x9
 2404 07a3 2502     		.2byte	0x225
 2405 07a5 56030000 		.4byte	0x356
 2406 07a9 02       		.byte	0x2
 2407 07aa 23       		.byte	0x23
 2408 07ab 04       		.uleb128 0x4
 2409 07ac 0C       		.uleb128 0xc
 2410 07ad 43445200 		.ascii	"CDR\000"
 2411 07b1 09       		.byte	0x9
 2412 07b2 2602     		.2byte	0x226
 2413 07b4 56030000 		.4byte	0x356
 2414 07b8 02       		.byte	0x2
 2415 07b9 23       		.byte	0x23
 2416 07ba 08       		.uleb128 0x8
 2417 07bb 00       		.byte	0x0
 2418 07bc 17       		.uleb128 0x17
 2419 07bd 830B0000 		.4byte	.LASF163
 2420 07c1 09       		.byte	0x9
 2421 07c2 2802     		.2byte	0x228
 2422 07c4 85070000 		.4byte	0x785
 2423 07c8 15       		.uleb128 0x15
 2424 07c9 18       		.byte	0x18
 2425 07ca 09       		.byte	0x9
 2426 07cb B102     		.2byte	0x2b1
 2427 07cd 2B080000 		.4byte	0x82b
 2428 07d1 0C       		.uleb128 0xc
 2429 07d2 435200   		.ascii	"CR\000"
 2430 07d5 09       		.byte	0x9
 2431 07d6 B302     		.2byte	0x2b3
 2432 07d8 56030000 		.4byte	0x356
 2433 07dc 02       		.byte	0x2
 2434 07dd 23       		.byte	0x23
ARM GAS  C:\Users\DNIEL~1\AppData\Local\Temp\ccH33Zvb.s 			page 44


 2435 07de 00       		.uleb128 0x0
 2436 07df 16       		.uleb128 0x16
 2437 07e0 730A0000 		.4byte	.LASF164
 2438 07e4 09       		.byte	0x9
 2439 07e5 B402     		.2byte	0x2b4
 2440 07e7 56030000 		.4byte	0x356
 2441 07eb 02       		.byte	0x2
 2442 07ec 23       		.byte	0x23
 2443 07ed 04       		.uleb128 0x4
 2444 07ee 0C       		.uleb128 0xc
 2445 07ef 50415200 		.ascii	"PAR\000"
 2446 07f3 09       		.byte	0x9
 2447 07f4 B502     		.2byte	0x2b5
 2448 07f6 56030000 		.4byte	0x356
 2449 07fa 02       		.byte	0x2
 2450 07fb 23       		.byte	0x23
 2451 07fc 08       		.uleb128 0x8
 2452 07fd 16       		.uleb128 0x16
 2453 07fe AB090000 		.4byte	.LASF165
 2454 0802 09       		.byte	0x9
 2455 0803 B602     		.2byte	0x2b6
 2456 0805 56030000 		.4byte	0x356
 2457 0809 02       		.byte	0x2
 2458 080a 23       		.byte	0x23
 2459 080b 0C       		.uleb128 0xc
 2460 080c 16       		.uleb128 0x16
 2461 080d 00000000 		.4byte	.LASF166
 2462 0811 09       		.byte	0x9
 2463 0812 B702     		.2byte	0x2b7
 2464 0814 56030000 		.4byte	0x356
 2465 0818 02       		.byte	0x2
 2466 0819 23       		.byte	0x23
 2467 081a 10       		.uleb128 0x10
 2468 081b 0C       		.uleb128 0xc
 2469 081c 46435200 		.ascii	"FCR\000"
 2470 0820 09       		.byte	0x9
 2471 0821 B802     		.2byte	0x2b8
 2472 0823 56030000 		.4byte	0x356
 2473 0827 02       		.byte	0x2
 2474 0828 23       		.byte	0x23
 2475 0829 14       		.uleb128 0x14
 2476 082a 00       		.byte	0x0
 2477 082b 17       		.uleb128 0x17
 2478 082c 8E070000 		.4byte	.LASF167
 2479 0830 09       		.byte	0x9
 2480 0831 B902     		.2byte	0x2b9
 2481 0833 C8070000 		.4byte	0x7c8
 2482 0837 15       		.uleb128 0x15
 2483 0838 90       		.byte	0x90
 2484 0839 09       		.byte	0x9
 2485 083a 5804     		.2byte	0x458
 2486 083c 240A0000 		.4byte	0xa24
 2487 0840 0C       		.uleb128 0xc
 2488 0841 435200   		.ascii	"CR\000"
 2489 0844 09       		.byte	0x9
 2490 0845 5A04     		.2byte	0x45a
 2491 0847 56030000 		.4byte	0x356
ARM GAS  C:\Users\DNIEL~1\AppData\Local\Temp\ccH33Zvb.s 			page 45


 2492 084b 02       		.byte	0x2
 2493 084c 23       		.byte	0x23
 2494 084d 00       		.uleb128 0x0
 2495 084e 16       		.uleb128 0x16
 2496 084f C8050000 		.4byte	.LASF168
 2497 0853 09       		.byte	0x9
 2498 0854 5B04     		.2byte	0x45b
 2499 0856 56030000 		.4byte	0x356
 2500 085a 02       		.byte	0x2
 2501 085b 23       		.byte	0x23
 2502 085c 04       		.uleb128 0x4
 2503 085d 16       		.uleb128 0x16
 2504 085e 31040000 		.4byte	.LASF169
 2505 0862 09       		.byte	0x9
 2506 0863 5C04     		.2byte	0x45c
 2507 0865 56030000 		.4byte	0x356
 2508 0869 02       		.byte	0x2
 2509 086a 23       		.byte	0x23
 2510 086b 08       		.uleb128 0x8
 2511 086c 0C       		.uleb128 0xc
 2512 086d 43495200 		.ascii	"CIR\000"
 2513 0871 09       		.byte	0x9
 2514 0872 5D04     		.2byte	0x45d
 2515 0874 56030000 		.4byte	0x356
 2516 0878 02       		.byte	0x2
 2517 0879 23       		.byte	0x23
 2518 087a 0C       		.uleb128 0xc
 2519 087b 16       		.uleb128 0x16
 2520 087c 7A0B0000 		.4byte	.LASF170
 2521 0880 09       		.byte	0x9
 2522 0881 5E04     		.2byte	0x45e
 2523 0883 56030000 		.4byte	0x356
 2524 0887 02       		.byte	0x2
 2525 0888 23       		.byte	0x23
 2526 0889 10       		.uleb128 0x10
 2527 088a 16       		.uleb128 0x16
 2528 088b 9B090000 		.4byte	.LASF171
 2529 088f 09       		.byte	0x9
 2530 0890 5F04     		.2byte	0x45f
 2531 0892 56030000 		.4byte	0x356
 2532 0896 02       		.byte	0x2
 2533 0897 23       		.byte	0x23
 2534 0898 14       		.uleb128 0x14
 2535 0899 16       		.uleb128 0x16
 2536 089a BF070000 		.4byte	.LASF172
 2537 089e 09       		.byte	0x9
 2538 089f 6004     		.2byte	0x460
 2539 08a1 56030000 		.4byte	0x356
 2540 08a5 02       		.byte	0x2
 2541 08a6 23       		.byte	0x23
 2542 08a7 18       		.uleb128 0x18
 2543 08a8 16       		.uleb128 0x16
 2544 08a9 90020000 		.4byte	.LASF173
 2545 08ad 09       		.byte	0x9
 2546 08ae 6104     		.2byte	0x461
 2547 08b0 86000000 		.4byte	0x86
 2548 08b4 02       		.byte	0x2
ARM GAS  C:\Users\DNIEL~1\AppData\Local\Temp\ccH33Zvb.s 			page 46


 2549 08b5 23       		.byte	0x23
 2550 08b6 1C       		.uleb128 0x1c
 2551 08b7 16       		.uleb128 0x16
 2552 08b8 F0070000 		.4byte	.LASF174
 2553 08bc 09       		.byte	0x9
 2554 08bd 6204     		.2byte	0x462
 2555 08bf 56030000 		.4byte	0x356
 2556 08c3 02       		.byte	0x2
 2557 08c4 23       		.byte	0x23
 2558 08c5 20       		.uleb128 0x20
 2559 08c6 16       		.uleb128 0x16
 2560 08c7 6C060000 		.4byte	.LASF175
 2561 08cb 09       		.byte	0x9
 2562 08cc 6304     		.2byte	0x463
 2563 08ce 56030000 		.4byte	0x356
 2564 08d2 02       		.byte	0x2
 2565 08d3 23       		.byte	0x23
 2566 08d4 24       		.uleb128 0x24
 2567 08d5 16       		.uleb128 0x16
 2568 08d6 9A020000 		.4byte	.LASF176
 2569 08da 09       		.byte	0x9
 2570 08db 6404     		.2byte	0x464
 2571 08dd 30060000 		.4byte	0x630
 2572 08e1 02       		.byte	0x2
 2573 08e2 23       		.byte	0x23
 2574 08e3 28       		.uleb128 0x28
 2575 08e4 16       		.uleb128 0x16
 2576 08e5 6F090000 		.4byte	.LASF177
 2577 08e9 09       		.byte	0x9
 2578 08ea 6504     		.2byte	0x465
 2579 08ec 56030000 		.4byte	0x356
 2580 08f0 02       		.byte	0x2
 2581 08f1 23       		.byte	0x23
 2582 08f2 30       		.uleb128 0x30
 2583 08f3 16       		.uleb128 0x16
 2584 08f4 70030000 		.4byte	.LASF178
 2585 08f8 09       		.byte	0x9
 2586 08f9 6604     		.2byte	0x466
 2587 08fb 56030000 		.4byte	0x356
 2588 08ff 02       		.byte	0x2
 2589 0900 23       		.byte	0x23
 2590 0901 34       		.uleb128 0x34
 2591 0902 16       		.uleb128 0x16
 2592 0903 C00B0000 		.4byte	.LASF179
 2593 0907 09       		.byte	0x9
 2594 0908 6704     		.2byte	0x467
 2595 090a 56030000 		.4byte	0x356
 2596 090e 02       		.byte	0x2
 2597 090f 23       		.byte	0x23
 2598 0910 38       		.uleb128 0x38
 2599 0911 16       		.uleb128 0x16
 2600 0912 23030000 		.4byte	.LASF180
 2601 0916 09       		.byte	0x9
 2602 0917 6804     		.2byte	0x468
 2603 0919 86000000 		.4byte	0x86
 2604 091d 02       		.byte	0x2
 2605 091e 23       		.byte	0x23
ARM GAS  C:\Users\DNIEL~1\AppData\Local\Temp\ccH33Zvb.s 			page 47


 2606 091f 3C       		.uleb128 0x3c
 2607 0920 16       		.uleb128 0x16
 2608 0921 E1040000 		.4byte	.LASF181
 2609 0925 09       		.byte	0x9
 2610 0926 6904     		.2byte	0x469
 2611 0928 56030000 		.4byte	0x356
 2612 092c 02       		.byte	0x2
 2613 092d 23       		.byte	0x23
 2614 092e 40       		.uleb128 0x40
 2615 092f 16       		.uleb128 0x16
 2616 0930 03020000 		.4byte	.LASF182
 2617 0934 09       		.byte	0x9
 2618 0935 6A04     		.2byte	0x46a
 2619 0937 56030000 		.4byte	0x356
 2620 093b 02       		.byte	0x2
 2621 093c 23       		.byte	0x23
 2622 093d 44       		.uleb128 0x44
 2623 093e 16       		.uleb128 0x16
 2624 093f 2D030000 		.4byte	.LASF183
 2625 0943 09       		.byte	0x9
 2626 0944 6B04     		.2byte	0x46b
 2627 0946 30060000 		.4byte	0x630
 2628 094a 02       		.byte	0x2
 2629 094b 23       		.byte	0x23
 2630 094c 48       		.uleb128 0x48
 2631 094d 16       		.uleb128 0x16
 2632 094e 0B020000 		.4byte	.LASF184
 2633 0952 09       		.byte	0x9
 2634 0953 6C04     		.2byte	0x46c
 2635 0955 56030000 		.4byte	0x356
 2636 0959 02       		.byte	0x2
 2637 095a 23       		.byte	0x23
 2638 095b 50       		.uleb128 0x50
 2639 095c 16       		.uleb128 0x16
 2640 095d 76010000 		.4byte	.LASF185
 2641 0961 09       		.byte	0x9
 2642 0962 6D04     		.2byte	0x46d
 2643 0964 56030000 		.4byte	0x356
 2644 0968 02       		.byte	0x2
 2645 0969 23       		.byte	0x23
 2646 096a 54       		.uleb128 0x54
 2647 096b 16       		.uleb128 0x16
 2648 096c F8080000 		.4byte	.LASF186
 2649 0970 09       		.byte	0x9
 2650 0971 6E04     		.2byte	0x46e
 2651 0973 56030000 		.4byte	0x356
 2652 0977 02       		.byte	0x2
 2653 0978 23       		.byte	0x23
 2654 0979 58       		.uleb128 0x58
 2655 097a 16       		.uleb128 0x16
 2656 097b C4020000 		.4byte	.LASF187
 2657 097f 09       		.byte	0x9
 2658 0980 6F04     		.2byte	0x46f
 2659 0982 86000000 		.4byte	0x86
 2660 0986 02       		.byte	0x2
 2661 0987 23       		.byte	0x23
 2662 0988 5C       		.uleb128 0x5c
ARM GAS  C:\Users\DNIEL~1\AppData\Local\Temp\ccH33Zvb.s 			page 48


 2663 0989 16       		.uleb128 0x16
 2664 098a 3B070000 		.4byte	.LASF188
 2665 098e 09       		.byte	0x9
 2666 098f 7004     		.2byte	0x470
 2667 0991 56030000 		.4byte	0x356
 2668 0995 02       		.byte	0x2
 2669 0996 23       		.byte	0x23
 2670 0997 60       		.uleb128 0x60
 2671 0998 16       		.uleb128 0x16
 2672 0999 95060000 		.4byte	.LASF189
 2673 099d 09       		.byte	0x9
 2674 099e 7104     		.2byte	0x471
 2675 09a0 56030000 		.4byte	0x356
 2676 09a4 02       		.byte	0x2
 2677 09a5 23       		.byte	0x23
 2678 09a6 64       		.uleb128 0x64
 2679 09a7 16       		.uleb128 0x16
 2680 09a8 CE020000 		.4byte	.LASF190
 2681 09ac 09       		.byte	0x9
 2682 09ad 7204     		.2byte	0x472
 2683 09af 30060000 		.4byte	0x630
 2684 09b3 02       		.byte	0x2
 2685 09b4 23       		.byte	0x23
 2686 09b5 68       		.uleb128 0x68
 2687 09b6 16       		.uleb128 0x16
 2688 09b7 C3030000 		.4byte	.LASF191
 2689 09bb 09       		.byte	0x9
 2690 09bc 7304     		.2byte	0x473
 2691 09be 56030000 		.4byte	0x356
 2692 09c2 02       		.byte	0x2
 2693 09c3 23       		.byte	0x23
 2694 09c4 70       		.uleb128 0x70
 2695 09c5 0C       		.uleb128 0xc
 2696 09c6 43535200 		.ascii	"CSR\000"
 2697 09ca 09       		.byte	0x9
 2698 09cb 7404     		.2byte	0x474
 2699 09cd 56030000 		.4byte	0x356
 2700 09d1 02       		.byte	0x2
 2701 09d2 23       		.byte	0x23
 2702 09d3 74       		.uleb128 0x74
 2703 09d4 16       		.uleb128 0x16
 2704 09d5 D8020000 		.4byte	.LASF192
 2705 09d9 09       		.byte	0x9
 2706 09da 7504     		.2byte	0x475
 2707 09dc 30060000 		.4byte	0x630
 2708 09e0 02       		.byte	0x2
 2709 09e1 23       		.byte	0x23
 2710 09e2 78       		.uleb128 0x78
 2711 09e3 16       		.uleb128 0x16
 2712 09e4 38060000 		.4byte	.LASF193
 2713 09e8 09       		.byte	0x9
 2714 09e9 7604     		.2byte	0x476
 2715 09eb 56030000 		.4byte	0x356
 2716 09ef 03       		.byte	0x3
 2717 09f0 23       		.byte	0x23
 2718 09f1 8001     		.uleb128 0x80
 2719 09f3 16       		.uleb128 0x16
ARM GAS  C:\Users\DNIEL~1\AppData\Local\Temp\ccH33Zvb.s 			page 49


 2720 09f4 46000000 		.4byte	.LASF194
 2721 09f8 09       		.byte	0x9
 2722 09f9 7704     		.2byte	0x477
 2723 09fb 56030000 		.4byte	0x356
 2724 09ff 03       		.byte	0x3
 2725 0a00 23       		.byte	0x23
 2726 0a01 8401     		.uleb128 0x84
 2727 0a03 16       		.uleb128 0x16
 2728 0a04 DC0A0000 		.4byte	.LASF195
 2729 0a08 09       		.byte	0x9
 2730 0a09 7804     		.2byte	0x478
 2731 0a0b 56030000 		.4byte	0x356
 2732 0a0f 03       		.byte	0x3
 2733 0a10 23       		.byte	0x23
 2734 0a11 8801     		.uleb128 0x88
 2735 0a13 16       		.uleb128 0x16
 2736 0a14 2E020000 		.4byte	.LASF196
 2737 0a18 09       		.byte	0x9
 2738 0a19 7904     		.2byte	0x479
 2739 0a1b 56030000 		.4byte	0x356
 2740 0a1f 03       		.byte	0x3
 2741 0a20 23       		.byte	0x23
 2742 0a21 8C01     		.uleb128 0x8c
 2743 0a23 00       		.byte	0x0
 2744 0a24 17       		.uleb128 0x17
 2745 0a25 B9090000 		.4byte	.LASF197
 2746 0a29 09       		.byte	0x9
 2747 0a2a 7B04     		.2byte	0x47b
 2748 0a2c 37080000 		.4byte	0x837
 2749 0a30 08       		.uleb128 0x8
 2750 0a31 0C       		.byte	0xc
 2751 0a32 0A       		.byte	0xa
 2752 0a33 DA       		.byte	0xda
 2753 0a34 7F0A0000 		.4byte	0xa7f
 2754 0a38 06       		.uleb128 0x6
 2755 0a39 BC030000 		.4byte	.LASF198
 2756 0a3d 0A       		.byte	0xa
 2757 0a3e DB       		.byte	0xdb
 2758 0a3f 7F0A0000 		.4byte	0xa7f
 2759 0a43 02       		.byte	0x2
 2760 0a44 23       		.byte	0x23
 2761 0a45 00       		.uleb128 0x0
 2762 0a46 06       		.uleb128 0x6
 2763 0a47 960B0000 		.4byte	.LASF199
 2764 0a4b 0A       		.byte	0xa
 2765 0a4c DC       		.byte	0xdc
 2766 0a4d 850A0000 		.4byte	0xa85
 2767 0a51 02       		.byte	0x2
 2768 0a52 23       		.byte	0x23
 2769 0a53 04       		.uleb128 0x4
 2770 0a54 06       		.uleb128 0x6
 2771 0a55 62030000 		.4byte	.LASF200
 2772 0a59 0A       		.byte	0xa
 2773 0a5a DD       		.byte	0xdd
 2774 0a5b 49000000 		.4byte	0x49
 2775 0a5f 02       		.byte	0x2
 2776 0a60 23       		.byte	0x23
ARM GAS  C:\Users\DNIEL~1\AppData\Local\Temp\ccH33Zvb.s 			page 50


 2777 0a61 08       		.uleb128 0x8
 2778 0a62 06       		.uleb128 0x6
 2779 0a63 C2060000 		.4byte	.LASF201
 2780 0a67 0A       		.byte	0xa
 2781 0a68 DF       		.byte	0xdf
 2782 0a69 49000000 		.4byte	0x49
 2783 0a6d 02       		.byte	0x2
 2784 0a6e 23       		.byte	0x23
 2785 0a6f 09       		.uleb128 0x9
 2786 0a70 06       		.uleb128 0x6
 2787 0a71 D2080000 		.4byte	.LASF202
 2788 0a75 0A       		.byte	0xa
 2789 0a76 E0       		.byte	0xe0
 2790 0a77 49000000 		.4byte	0x49
 2791 0a7b 02       		.byte	0x2
 2792 0a7c 23       		.byte	0x23
 2793 0a7d 0A       		.uleb128 0xa
 2794 0a7e 00       		.byte	0x0
 2795 0a7f 09       		.uleb128 0x9
 2796 0a80 04       		.byte	0x4
 2797 0a81 2B080000 		.4byte	0x82b
 2798 0a85 09       		.uleb128 0x9
 2799 0a86 04       		.byte	0x4
 2800 0a87 56030000 		.4byte	0x356
 2801 0a8b 03       		.uleb128 0x3
 2802 0a8c 55050000 		.4byte	.LASF203
 2803 0a90 0A       		.byte	0xa
 2804 0a91 E1       		.byte	0xe1
 2805 0a92 300A0000 		.4byte	0xa30
 2806 0a96 03       		.uleb128 0x3
 2807 0a97 F9070000 		.4byte	.LASF204
 2808 0a9b 0A       		.byte	0xa
 2809 0a9c EA       		.byte	0xea
 2810 0a9d A10A0000 		.4byte	0xaa1
 2811 0aa1 09       		.uleb128 0x9
 2812 0aa2 04       		.byte	0x4
 2813 0aa3 A70A0000 		.4byte	0xaa7
 2814 0aa7 18       		.uleb128 0x18
 2815 0aa8 01       		.byte	0x1
 2816 0aa9 B80A0000 		.4byte	0xab8
 2817 0aad 19       		.uleb128 0x19
 2818 0aae A3020000 		.4byte	0x2a3
 2819 0ab2 19       		.uleb128 0x19
 2820 0ab3 86000000 		.4byte	0x86
 2821 0ab7 00       		.byte	0x0
 2822 0ab8 1A       		.uleb128 0x1a
 2823 0ab9 01       		.byte	0x1
 2824 0aba 0B       		.byte	0xb
 2825 0abb 55       		.byte	0x55
 2826 0abc E50A0000 		.4byte	0xae5
 2827 0ac0 12       		.uleb128 0x12
 2828 0ac1 FA020000 		.4byte	.LASF205
 2829 0ac5 00       		.sleb128 0
 2830 0ac6 12       		.uleb128 0x12
 2831 0ac7 54090000 		.4byte	.LASF206
 2832 0acb 01       		.sleb128 1
 2833 0acc 12       		.uleb128 0x12
ARM GAS  C:\Users\DNIEL~1\AppData\Local\Temp\ccH33Zvb.s 			page 51


 2834 0acd 13030000 		.4byte	.LASF207
 2835 0ad1 02       		.sleb128 2
 2836 0ad2 12       		.uleb128 0x12
 2837 0ad3 D3070000 		.4byte	.LASF208
 2838 0ad7 03       		.sleb128 3
 2839 0ad8 12       		.uleb128 0x12
 2840 0ad9 88050000 		.4byte	.LASF209
 2841 0add 04       		.sleb128 4
 2842 0ade 12       		.uleb128 0x12
 2843 0adf 8D030000 		.4byte	.LASF210
 2844 0ae3 05       		.sleb128 5
 2845 0ae4 00       		.byte	0x0
 2846 0ae5 03       		.uleb128 0x3
 2847 0ae6 8F000000 		.4byte	.LASF211
 2848 0aea 0B       		.byte	0xb
 2849 0aeb 5C       		.byte	0x5c
 2850 0aec B80A0000 		.4byte	0xab8
 2851 0af0 17       		.uleb128 0x17
 2852 0af1 41030000 		.4byte	.LASF212
 2853 0af5 0C       		.byte	0xc
 2854 0af6 2701     		.2byte	0x127
 2855 0af8 62000000 		.4byte	0x62
 2856 0afc 17       		.uleb128 0x17
 2857 0afd E7060000 		.4byte	.LASF213
 2858 0b01 0C       		.byte	0xc
 2859 0b02 2C01     		.2byte	0x12c
 2860 0b04 62000000 		.4byte	0x62
 2861 0b08 1B       		.uleb128 0x1b
 2862 0b09 01       		.byte	0x1
 2863 0b0a 0C       		.byte	0xc
 2864 0b0b 3301     		.2byte	0x133
 2865 0b0d 1E0B0000 		.4byte	0xb1e
 2866 0b11 12       		.uleb128 0x12
 2867 0b12 9A000000 		.4byte	.LASF214
 2868 0b16 00       		.sleb128 0
 2869 0b17 12       		.uleb128 0x12
 2870 0b18 E2080000 		.4byte	.LASF215
 2871 0b1c 01       		.sleb128 1
 2872 0b1d 00       		.byte	0x0
 2873 0b1e 17       		.uleb128 0x17
 2874 0b1f E2020000 		.4byte	.LASF216
 2875 0b23 0C       		.byte	0xc
 2876 0b24 3601     		.2byte	0x136
 2877 0b26 080B0000 		.4byte	0xb08
 2878 0b2a 17       		.uleb128 0x17
 2879 0b2b AD080000 		.4byte	.LASF217
 2880 0b2f 0C       		.byte	0xc
 2881 0b30 3B01     		.2byte	0x13b
 2882 0b32 360B0000 		.4byte	0xb36
 2883 0b36 0B       		.uleb128 0xb
 2884 0b37 AD080000 		.4byte	.LASF217
 2885 0b3b 34       		.byte	0x34
 2886 0b3c 0C       		.byte	0xc
 2887 0b3d 9F01     		.2byte	0x19f
 2888 0b3f DA0B0000 		.4byte	0xbda
 2889 0b43 16       		.uleb128 0x16
 2890 0b44 E5000000 		.4byte	.LASF218
ARM GAS  C:\Users\DNIEL~1\AppData\Local\Temp\ccH33Zvb.s 			page 52


 2891 0b48 0C       		.byte	0xc
 2892 0b49 A301     		.2byte	0x1a3
 2893 0b4b E50A0000 		.4byte	0xae5
 2894 0b4f 02       		.byte	0x2
 2895 0b50 23       		.byte	0x23
 2896 0b51 00       		.uleb128 0x0
 2897 0b52 16       		.uleb128 0x16
 2898 0b53 DE000000 		.4byte	.LASF219
 2899 0b57 0C       		.byte	0xc
 2900 0b58 A701     		.2byte	0x1a7
 2901 0b5a 110D0000 		.4byte	0xd11
 2902 0b5e 02       		.byte	0x2
 2903 0b5f 23       		.byte	0x23
 2904 0b60 04       		.uleb128 0x4
 2905 0b61 16       		.uleb128 0x16
 2906 0b62 C8030000 		.4byte	.LASF220
 2907 0b66 0C       		.byte	0xc
 2908 0b67 AB01     		.2byte	0x1ab
 2909 0b69 080C0000 		.4byte	0xc08
 2910 0b6d 02       		.byte	0x2
 2911 0b6e 23       		.byte	0x23
 2912 0b6f 08       		.uleb128 0x8
 2913 0b70 16       		.uleb128 0x16
 2914 0b71 75060000 		.4byte	.LASF221
 2915 0b75 0C       		.byte	0xc
 2916 0b76 AF01     		.2byte	0x1af
 2917 0b78 30000000 		.4byte	0x30
 2918 0b7c 02       		.byte	0x2
 2919 0b7d 23       		.byte	0x23
 2920 0b7e 0C       		.uleb128 0xc
 2921 0b7f 16       		.uleb128 0x16
 2922 0b80 96090000 		.4byte	.LASF222
 2923 0b84 0C       		.byte	0xc
 2924 0b85 B301     		.2byte	0x1b3
 2925 0b87 1C0D0000 		.4byte	0xd1c
 2926 0b8b 02       		.byte	0x2
 2927 0b8c 23       		.byte	0x23
 2928 0b8d 10       		.uleb128 0x10
 2929 0b8e 16       		.uleb128 0x16
 2930 0b8f A4090000 		.4byte	.LASF223
 2931 0b93 0C       		.byte	0xc
 2932 0b94 B801     		.2byte	0x1b8
 2933 0b96 65020000 		.4byte	0x265
 2934 0b9a 02       		.byte	0x2
 2935 0b9b 23       		.byte	0x23
 2936 0b9c 14       		.uleb128 0x14
 2937 0b9d 16       		.uleb128 0x16
 2938 0b9e 7B060000 		.4byte	.LASF224
 2939 0ba2 0C       		.byte	0xc
 2940 0ba3 BF01     		.2byte	0x1bf
 2941 0ba5 9D030000 		.4byte	0x39d
 2942 0ba9 02       		.byte	0x2
 2943 0baa 23       		.byte	0x23
 2944 0bab 18       		.uleb128 0x18
 2945 0bac 0C       		.uleb128 0xc
 2946 0bad 61646300 		.ascii	"adc\000"
 2947 0bb1 0C       		.byte	0xc
ARM GAS  C:\Users\DNIEL~1\AppData\Local\Temp\ccH33Zvb.s 			page 53


 2948 0bb2 CB01     		.2byte	0x1cb
 2949 0bb4 270D0000 		.4byte	0xd27
 2950 0bb8 02       		.byte	0x2
 2951 0bb9 23       		.byte	0x23
 2952 0bba 28       		.uleb128 0x28
 2953 0bbb 16       		.uleb128 0x16
 2954 0bbc E9040000 		.4byte	.LASF225
 2955 0bc0 0C       		.byte	0xc
 2956 0bc1 CF01     		.2byte	0x1cf
 2957 0bc3 2D0D0000 		.4byte	0xd2d
 2958 0bc7 02       		.byte	0x2
 2959 0bc8 23       		.byte	0x23
 2960 0bc9 2C       		.uleb128 0x2c
 2961 0bca 16       		.uleb128 0x16
 2962 0bcb 9F010000 		.4byte	.LASF226
 2963 0bcf 0C       		.byte	0xc
 2964 0bd0 D301     		.2byte	0x1d3
 2965 0bd2 86000000 		.4byte	0x86
 2966 0bd6 02       		.byte	0x2
 2967 0bd7 23       		.byte	0x23
 2968 0bd8 30       		.uleb128 0x30
 2969 0bd9 00       		.byte	0x0
 2970 0bda 17       		.uleb128 0x17
 2971 0bdb 5F000000 		.4byte	.LASF227
 2972 0bdf 0C       		.byte	0xc
 2973 0be0 4501     		.2byte	0x145
 2974 0be2 E60B0000 		.4byte	0xbe6
 2975 0be6 09       		.uleb128 0x9
 2976 0be7 04       		.byte	0x4
 2977 0be8 EC0B0000 		.4byte	0xbec
 2978 0bec 18       		.uleb128 0x18
 2979 0bed 01       		.byte	0x1
 2980 0bee 020C0000 		.4byte	0xc02
 2981 0bf2 19       		.uleb128 0x19
 2982 0bf3 020C0000 		.4byte	0xc02
 2983 0bf7 19       		.uleb128 0x19
 2984 0bf8 080C0000 		.4byte	0xc08
 2985 0bfc 19       		.uleb128 0x19
 2986 0bfd 30000000 		.4byte	0x30
 2987 0c01 00       		.byte	0x0
 2988 0c02 09       		.uleb128 0x9
 2989 0c03 04       		.byte	0x4
 2990 0c04 2A0B0000 		.4byte	0xb2a
 2991 0c08 09       		.uleb128 0x9
 2992 0c09 04       		.byte	0x4
 2993 0c0a F00A0000 		.4byte	0xaf0
 2994 0c0e 17       		.uleb128 0x17
 2995 0c0f 4D060000 		.4byte	.LASF228
 2996 0c13 0C       		.byte	0xc
 2997 0c14 4E01     		.2byte	0x14e
 2998 0c16 1A0C0000 		.4byte	0xc1a
 2999 0c1a 09       		.uleb128 0x9
 3000 0c1b 04       		.byte	0x4
 3001 0c1c 200C0000 		.4byte	0xc20
 3002 0c20 18       		.uleb128 0x18
 3003 0c21 01       		.byte	0x1
 3004 0c22 310C0000 		.4byte	0xc31
ARM GAS  C:\Users\DNIEL~1\AppData\Local\Temp\ccH33Zvb.s 			page 54


 3005 0c26 19       		.uleb128 0x19
 3006 0c27 020C0000 		.4byte	0xc02
 3007 0c2b 19       		.uleb128 0x19
 3008 0c2c 1E0B0000 		.4byte	0xb1e
 3009 0c30 00       		.byte	0x0
 3010 0c31 15       		.uleb128 0x15
 3011 0c32 28       		.byte	0x28
 3012 0c33 0C       		.byte	0xc
 3013 0c34 5801     		.2byte	0x158
 3014 0c36 E00C0000 		.4byte	0xce0
 3015 0c3a 16       		.uleb128 0x16
 3016 0c3b 9D030000 		.4byte	.LASF229
 3017 0c3f 0C       		.byte	0xc
 3018 0c40 5C01     		.2byte	0x15c
 3019 0c42 A6000000 		.4byte	0xa6
 3020 0c46 02       		.byte	0x2
 3021 0c47 23       		.byte	0x23
 3022 0c48 00       		.uleb128 0x0
 3023 0c49 16       		.uleb128 0x16
 3024 0c4a 16070000 		.4byte	.LASF230
 3025 0c4e 0C       		.byte	0xc
 3026 0c4f 6001     		.2byte	0x160
 3027 0c51 FC0A0000 		.4byte	0xafc
 3028 0c55 02       		.byte	0x2
 3029 0c56 23       		.byte	0x23
 3030 0c57 02       		.uleb128 0x2
 3031 0c58 16       		.uleb128 0x16
 3032 0c59 3A010000 		.4byte	.LASF231
 3033 0c5d 0C       		.byte	0xc
 3034 0c5e 6401     		.2byte	0x164
 3035 0c60 DA0B0000 		.4byte	0xbda
 3036 0c64 02       		.byte	0x2
 3037 0c65 23       		.byte	0x23
 3038 0c66 04       		.uleb128 0x4
 3039 0c67 16       		.uleb128 0x16
 3040 0c68 0A010000 		.4byte	.LASF232
 3041 0c6c 0C       		.byte	0xc
 3042 0c6d 6801     		.2byte	0x168
 3043 0c6f 0E0C0000 		.4byte	0xc0e
 3044 0c73 02       		.byte	0x2
 3045 0c74 23       		.byte	0x23
 3046 0c75 08       		.uleb128 0x8
 3047 0c76 0C       		.uleb128 0xc
 3048 0c77 63723100 		.ascii	"cr1\000"
 3049 0c7b 0C       		.byte	0xc
 3050 0c7c 6F01     		.2byte	0x16f
 3051 0c7e 86000000 		.4byte	0x86
 3052 0c82 02       		.byte	0x2
 3053 0c83 23       		.byte	0x23
 3054 0c84 0C       		.uleb128 0xc
 3055 0c85 0C       		.uleb128 0xc
 3056 0c86 63723200 		.ascii	"cr2\000"
 3057 0c8a 0C       		.byte	0xc
 3058 0c8b 7601     		.2byte	0x176
 3059 0c8d 86000000 		.4byte	0x86
 3060 0c91 02       		.byte	0x2
 3061 0c92 23       		.byte	0x23
ARM GAS  C:\Users\DNIEL~1\AppData\Local\Temp\ccH33Zvb.s 			page 55


 3062 0c93 10       		.uleb128 0x10
 3063 0c94 16       		.uleb128 0x16
 3064 0c95 95050000 		.4byte	.LASF233
 3065 0c99 0C       		.byte	0xc
 3066 0c9a 7C01     		.2byte	0x17c
 3067 0c9c 86000000 		.4byte	0x86
 3068 0ca0 02       		.byte	0x2
 3069 0ca1 23       		.byte	0x23
 3070 0ca2 14       		.uleb128 0x14
 3071 0ca3 16       		.uleb128 0x16
 3072 0ca4 9B050000 		.4byte	.LASF234
 3073 0ca8 0C       		.byte	0xc
 3074 0ca9 8201     		.2byte	0x182
 3075 0cab 86000000 		.4byte	0x86
 3076 0caf 02       		.byte	0x2
 3077 0cb0 23       		.byte	0x23
 3078 0cb1 18       		.uleb128 0x18
 3079 0cb2 16       		.uleb128 0x16
 3080 0cb3 1F000000 		.4byte	.LASF235
 3081 0cb7 0C       		.byte	0xc
 3082 0cb8 8701     		.2byte	0x187
 3083 0cba 86000000 		.4byte	0x86
 3084 0cbe 02       		.byte	0x2
 3085 0cbf 23       		.byte	0x23
 3086 0cc0 1C       		.uleb128 0x1c
 3087 0cc1 16       		.uleb128 0x16
 3088 0cc2 24000000 		.4byte	.LASF236
 3089 0cc6 0C       		.byte	0xc
 3090 0cc7 8C01     		.2byte	0x18c
 3091 0cc9 86000000 		.4byte	0x86
 3092 0ccd 02       		.byte	0x2
 3093 0cce 23       		.byte	0x23
 3094 0ccf 20       		.uleb128 0x20
 3095 0cd0 16       		.uleb128 0x16
 3096 0cd1 29000000 		.4byte	.LASF237
 3097 0cd5 0C       		.byte	0xc
 3098 0cd6 9101     		.2byte	0x191
 3099 0cd8 86000000 		.4byte	0x86
 3100 0cdc 02       		.byte	0x2
 3101 0cdd 23       		.byte	0x23
 3102 0cde 24       		.uleb128 0x24
 3103 0cdf 00       		.byte	0x0
 3104 0ce0 17       		.uleb128 0x17
 3105 0ce1 75050000 		.4byte	.LASF238
 3106 0ce5 0C       		.byte	0xc
 3107 0ce6 9201     		.2byte	0x192
 3108 0ce8 310C0000 		.4byte	0xc31
 3109 0cec 15       		.uleb128 0x15
 3110 0ced 04       		.byte	0x4
 3111 0cee 0C       		.byte	0xc
 3112 0cef 9801     		.2byte	0x198
 3113 0cf1 050D0000 		.4byte	0xd05
 3114 0cf5 16       		.uleb128 0x16
 3115 0cf6 4E090000 		.4byte	.LASF239
 3116 0cfa 0C       		.byte	0xc
 3117 0cfb 9901     		.2byte	0x199
 3118 0cfd 86000000 		.4byte	0x86
ARM GAS  C:\Users\DNIEL~1\AppData\Local\Temp\ccH33Zvb.s 			page 56


 3119 0d01 02       		.byte	0x2
 3120 0d02 23       		.byte	0x23
 3121 0d03 00       		.uleb128 0x0
 3122 0d04 00       		.byte	0x0
 3123 0d05 17       		.uleb128 0x17
 3124 0d06 E00B0000 		.4byte	.LASF240
 3125 0d0a 0C       		.byte	0xc
 3126 0d0b 9A01     		.2byte	0x19a
 3127 0d0d EC0C0000 		.4byte	0xcec
 3128 0d11 09       		.uleb128 0x9
 3129 0d12 04       		.byte	0x4
 3130 0d13 170D0000 		.4byte	0xd17
 3131 0d17 10       		.uleb128 0x10
 3132 0d18 050D0000 		.4byte	0xd05
 3133 0d1c 09       		.uleb128 0x9
 3134 0d1d 04       		.byte	0x4
 3135 0d1e 220D0000 		.4byte	0xd22
 3136 0d22 10       		.uleb128 0x10
 3137 0d23 E00C0000 		.4byte	0xce0
 3138 0d27 09       		.uleb128 0x9
 3139 0d28 04       		.byte	0x4
 3140 0d29 79070000 		.4byte	0x779
 3141 0d2d 09       		.uleb128 0x9
 3142 0d2e 04       		.byte	0x4
 3143 0d2f 330D0000 		.4byte	0xd33
 3144 0d33 10       		.uleb128 0x10
 3145 0d34 8B0A0000 		.4byte	0xa8b
 3146 0d38 1C       		.uleb128 0x1c
 3147 0d39 01       		.byte	0x1
 3148 0d3a B7080000 		.4byte	.LASF251
 3149 0d3e 01       		.byte	0x1
 3150 0d3f AB       		.byte	0xab
 3151 0d40 01       		.byte	0x1
 3152 0d41 00000000 		.4byte	.LFB120
 3153 0d45 54000000 		.4byte	.LFE120
 3154 0d49 00000000 		.4byte	.LLST0
 3155 0d4d 1D       		.uleb128 0x1d
 3156 0d4e 01       		.byte	0x1
 3157 0d4f 2E000000 		.4byte	.LASF241
 3158 0d53 01       		.byte	0x1
 3159 0d54 E0       		.byte	0xe0
 3160 0d55 01       		.byte	0x1
 3161 0d56 00000000 		.4byte	.LFB121
 3162 0d5a 90000000 		.4byte	.LFE121
 3163 0d5e 20000000 		.4byte	.LLST1
 3164 0d62 A10D0000 		.4byte	0xda1
 3165 0d66 1E       		.uleb128 0x1e
 3166 0d67 48060000 		.4byte	.LASF243
 3167 0d6b 01       		.byte	0x1
 3168 0d6c E0       		.byte	0xe0
 3169 0d6d 020C0000 		.4byte	0xc02
 3170 0d71 40000000 		.4byte	.LLST2
 3171 0d75 1F       		.uleb128 0x1f
 3172 0d76 34000000 		.4byte	.LBB2
 3173 0d7a 54000000 		.4byte	.LBE2
 3174 0d7e 8C0D0000 		.4byte	0xd8c
 3175 0d82 20       		.uleb128 0x20
ARM GAS  C:\Users\DNIEL~1\AppData\Local\Temp\ccH33Zvb.s 			page 57


 3176 0d83 6200     		.ascii	"b\000"
 3177 0d85 01       		.byte	0x1
 3178 0d86 F3       		.byte	0xf3
 3179 0d87 A6000000 		.4byte	0xa6
 3180 0d8b 00       		.byte	0x0
 3181 0d8c 21       		.uleb128 0x21
 3182 0d8d 54000000 		.4byte	.LBB3
 3183 0d91 90000000 		.4byte	.LBE3
 3184 0d95 22       		.uleb128 0x22
 3185 0d96 6200     		.ascii	"b\000"
 3186 0d98 01       		.byte	0x1
 3187 0d99 0001     		.2byte	0x100
 3188 0d9b A6000000 		.4byte	0xa6
 3189 0d9f 00       		.byte	0x0
 3190 0da0 00       		.byte	0x0
 3191 0da1 23       		.uleb128 0x23
 3192 0da2 01       		.byte	0x1
 3193 0da3 F6010000 		.4byte	.LASF242
 3194 0da7 01       		.byte	0x1
 3195 0da8 1F01     		.2byte	0x11f
 3196 0daa 01       		.byte	0x1
 3197 0dab 00000000 		.4byte	.LFB122
 3198 0daf 4C000000 		.4byte	.LFE122
 3199 0db3 5E000000 		.4byte	.LLST3
 3200 0db7 CC0D0000 		.4byte	0xdcc
 3201 0dbb 24       		.uleb128 0x24
 3202 0dbc 48060000 		.4byte	.LASF243
 3203 0dc0 01       		.byte	0x1
 3204 0dc1 1F01     		.2byte	0x11f
 3205 0dc3 020C0000 		.4byte	0xc02
 3206 0dc7 7E000000 		.4byte	.LLST4
 3207 0dcb 00       		.byte	0x0
 3208 0dcc 23       		.uleb128 0x23
 3209 0dcd 01       		.byte	0x1
 3210 0dce A1050000 		.4byte	.LASF244
 3211 0dd2 01       		.byte	0x1
 3212 0dd3 3F01     		.2byte	0x13f
 3213 0dd5 01       		.byte	0x1
 3214 0dd6 00000000 		.4byte	.LFB123
 3215 0dda 9C000000 		.4byte	.LFE123
 3216 0dde 9C000000 		.4byte	.LLST5
 3217 0de2 270E0000 		.4byte	0xe27
 3218 0de6 24       		.uleb128 0x24
 3219 0de7 48060000 		.4byte	.LASF243
 3220 0deb 01       		.byte	0x1
 3221 0dec 3F01     		.2byte	0x13f
 3222 0dee 020C0000 		.4byte	0xc02
 3223 0df2 BC000000 		.4byte	.LLST6
 3224 0df6 25       		.uleb128 0x25
 3225 0df7 D8090000 		.4byte	.LASF245
 3226 0dfb 01       		.byte	0x1
 3227 0dfc 4001     		.2byte	0x140
 3228 0dfe 86000000 		.4byte	0x86
 3229 0e02 DA000000 		.4byte	.LLST7
 3230 0e06 26       		.uleb128 0x26
 3231 0e07 63723200 		.ascii	"cr2\000"
 3232 0e0b 01       		.byte	0x1
ARM GAS  C:\Users\DNIEL~1\AppData\Local\Temp\ccH33Zvb.s 			page 58


 3233 0e0c 4101     		.2byte	0x141
 3234 0e0e 86000000 		.4byte	0x86
 3235 0e12 34010000 		.4byte	.LLST8
 3236 0e16 25       		.uleb128 0x25
 3237 0e17 96090000 		.4byte	.LASF222
 3238 0e1b 01       		.byte	0x1
 3239 0e1c 4201     		.2byte	0x142
 3240 0e1e 1C0D0000 		.4byte	0xd1c
 3241 0e22 52010000 		.4byte	.LLST9
 3242 0e26 00       		.byte	0x0
 3243 0e27 23       		.uleb128 0x23
 3244 0e28 01       		.byte	0x1
 3245 0e29 76070000 		.4byte	.LASF246
 3246 0e2d 01       		.byte	0x1
 3247 0e2e 7601     		.2byte	0x176
 3248 0e30 01       		.byte	0x1
 3249 0e31 00000000 		.4byte	.LFB124
 3250 0e35 2E000000 		.4byte	.LFE124
 3251 0e39 7C010000 		.4byte	.LLST10
 3252 0e3d 520E0000 		.4byte	0xe52
 3253 0e41 24       		.uleb128 0x24
 3254 0e42 48060000 		.4byte	.LASF243
 3255 0e46 01       		.byte	0x1
 3256 0e47 7601     		.2byte	0x176
 3257 0e49 020C0000 		.4byte	0xc02
 3258 0e4d 9C010000 		.4byte	.LLST11
 3259 0e51 00       		.byte	0x0
 3260 0e52 27       		.uleb128 0x27
 3261 0e53 E70A0000 		.4byte	.LASF264
 3262 0e57 01       		.byte	0x1
 3263 0e58 4C       		.byte	0x4c
 3264 0e59 01       		.byte	0x1
 3265 0e5a 00000000 		.4byte	.LFB118
 3266 0e5e E2000000 		.4byte	.LFE118
 3267 0e62 AF010000 		.4byte	.LLST12
 3268 0e66 590F0000 		.4byte	0xf59
 3269 0e6a 1E       		.uleb128 0x1e
 3270 0e6b 48060000 		.4byte	.LASF243
 3271 0e6f 01       		.byte	0x1
 3272 0e70 4C       		.byte	0x4c
 3273 0e71 020C0000 		.4byte	0xc02
 3274 0e75 CF010000 		.4byte	.LLST13
 3275 0e79 1E       		.uleb128 0x1e
 3276 0e7a 97030000 		.4byte	.LASF247
 3277 0e7e 01       		.byte	0x1
 3278 0e7f 4C       		.byte	0x4c
 3279 0e80 86000000 		.4byte	0x86
 3280 0e84 F8010000 		.4byte	.LLST14
 3281 0e88 1F       		.uleb128 0x1f
 3282 0e89 24000000 		.4byte	.LBB4
 3283 0e8d 36000000 		.4byte	.LBE4
 3284 0e91 B00E0000 		.4byte	0xeb0
 3285 0e95 28       		.uleb128 0x28
 3286 0e96 F3080000 		.4byte	.LASF248
 3287 0e9a 01       		.byte	0x1
 3288 0e9b 5A       		.byte	0x5a
 3289 0e9c 30000000 		.4byte	0x30
ARM GAS  C:\Users\DNIEL~1\AppData\Local\Temp\ccH33Zvb.s 			page 59


 3290 0ea0 37020000 		.4byte	.LLST15
 3291 0ea4 29       		.uleb128 0x29
 3292 0ea5 97080000 		.4byte	.LASF249
 3293 0ea9 01       		.byte	0x1
 3294 0eaa 5A       		.byte	0x5a
 3295 0eab 30000000 		.4byte	0x30
 3296 0eaf 00       		.byte	0x0
 3297 0eb0 1F       		.uleb128 0x1f
 3298 0eb1 68000000 		.4byte	.LBB5
 3299 0eb5 6E000000 		.4byte	.LBE5
 3300 0eb9 CD0E0000 		.4byte	0xecd
 3301 0ebd 2A       		.uleb128 0x2a
 3302 0ebe 746D7000 		.ascii	"tmp\000"
 3303 0ec2 01       		.byte	0x1
 3304 0ec3 52       		.byte	0x52
 3305 0ec4 86000000 		.4byte	0x86
 3306 0ec8 4A020000 		.4byte	.LLST16
 3307 0ecc 00       		.byte	0x0
 3308 0ecd 1F       		.uleb128 0x1f
 3309 0ece 72000000 		.4byte	.LBB6
 3310 0ed2 80000000 		.4byte	.LBE6
 3311 0ed6 E90E0000 		.4byte	0xee9
 3312 0eda 2A       		.uleb128 0x2a
 3313 0edb 747000   		.ascii	"tp\000"
 3314 0ede 01       		.byte	0x1
 3315 0edf 52       		.byte	0x52
 3316 0ee0 65020000 		.4byte	0x265
 3317 0ee4 5D020000 		.4byte	.LLST17
 3318 0ee8 00       		.byte	0x0
 3319 0ee9 1F       		.uleb128 0x1f
 3320 0eea 80000000 		.4byte	.LBB7
 3321 0eee 88000000 		.4byte	.LBE7
 3322 0ef2 060F0000 		.4byte	0xf06
 3323 0ef6 2A       		.uleb128 0x2a
 3324 0ef7 746D7000 		.ascii	"tmp\000"
 3325 0efb 01       		.byte	0x1
 3326 0efc 52       		.byte	0x52
 3327 0efd 86000000 		.4byte	0x86
 3328 0f01 71020000 		.4byte	.LLST18
 3329 0f05 00       		.byte	0x0
 3330 0f06 1F       		.uleb128 0x1f
 3331 0f07 B4000000 		.4byte	.LBB8
 3332 0f0b BA000000 		.4byte	.LBE8
 3333 0f0f 230F0000 		.4byte	0xf23
 3334 0f13 2A       		.uleb128 0x2a
 3335 0f14 746D7000 		.ascii	"tmp\000"
 3336 0f18 01       		.byte	0x1
 3337 0f19 5A       		.byte	0x5a
 3338 0f1a 86000000 		.4byte	0x86
 3339 0f1e 84020000 		.4byte	.LLST19
 3340 0f22 00       		.byte	0x0
 3341 0f23 1F       		.uleb128 0x1f
 3342 0f24 BE000000 		.4byte	.LBB9
 3343 0f28 CA000000 		.4byte	.LBE9
 3344 0f2c 3F0F0000 		.4byte	0xf3f
 3345 0f30 2A       		.uleb128 0x2a
 3346 0f31 747000   		.ascii	"tp\000"
ARM GAS  C:\Users\DNIEL~1\AppData\Local\Temp\ccH33Zvb.s 			page 60


 3347 0f34 01       		.byte	0x1
 3348 0f35 5A       		.byte	0x5a
 3349 0f36 65020000 		.4byte	0x265
 3350 0f3a 97020000 		.4byte	.LLST20
 3351 0f3e 00       		.byte	0x0
 3352 0f3f 21       		.uleb128 0x21
 3353 0f40 CA000000 		.4byte	.LBB10
 3354 0f44 D2000000 		.4byte	.LBE10
 3355 0f48 2A       		.uleb128 0x2a
 3356 0f49 746D7000 		.ascii	"tmp\000"
 3357 0f4d 01       		.byte	0x1
 3358 0f4e 5A       		.byte	0x5a
 3359 0f4f 86000000 		.4byte	0x86
 3360 0f53 AB020000 		.4byte	.LLST21
 3361 0f57 00       		.byte	0x0
 3362 0f58 00       		.byte	0x0
 3363 0f59 1D       		.uleb128 0x1d
 3364 0f5a 01       		.byte	0x1
 3365 0f5b C2010000 		.4byte	.LASF250
 3366 0f5f 01       		.byte	0x1
 3367 0f60 6F       		.byte	0x6f
 3368 0f61 01       		.byte	0x1
 3369 0f62 00000000 		.4byte	.LFB119
 3370 0f66 E8000000 		.4byte	.LFE119
 3371 0f6a BE020000 		.4byte	.LLST22
 3372 0f6e 29100000 		.4byte	0x1029
 3373 0f72 2A       		.uleb128 0x2a
 3374 0f73 737200   		.ascii	"sr\000"
 3375 0f76 01       		.byte	0x1
 3376 0f77 70       		.byte	0x70
 3377 0f78 86000000 		.4byte	0x86
 3378 0f7c DE020000 		.4byte	.LLST23
 3379 0f80 1F       		.uleb128 0x1f
 3380 0f81 5C000000 		.4byte	.LBB11
 3381 0f85 62000000 		.4byte	.LBE11
 3382 0f89 9D0F0000 		.4byte	0xf9d
 3383 0f8d 2A       		.uleb128 0x2a
 3384 0f8e 746D7000 		.ascii	"tmp\000"
 3385 0f92 01       		.byte	0x1
 3386 0f93 99       		.byte	0x99
 3387 0f94 86000000 		.4byte	0x86
 3388 0f98 FC020000 		.4byte	.LLST24
 3389 0f9c 00       		.byte	0x0
 3390 0f9d 1F       		.uleb128 0x1f
 3391 0f9e 66000000 		.4byte	.LBB12
 3392 0fa2 74000000 		.4byte	.LBE12
 3393 0fa6 B90F0000 		.4byte	0xfb9
 3394 0faa 2A       		.uleb128 0x2a
 3395 0fab 747000   		.ascii	"tp\000"
 3396 0fae 01       		.byte	0x1
 3397 0faf 99       		.byte	0x99
 3398 0fb0 65020000 		.4byte	0x265
 3399 0fb4 1A030000 		.4byte	.LLST25
 3400 0fb8 00       		.byte	0x0
 3401 0fb9 1F       		.uleb128 0x1f
 3402 0fba 74000000 		.4byte	.LBB13
 3403 0fbe 7A000000 		.4byte	.LBE13
ARM GAS  C:\Users\DNIEL~1\AppData\Local\Temp\ccH33Zvb.s 			page 61


 3404 0fc2 D60F0000 		.4byte	0xfd6
 3405 0fc6 2A       		.uleb128 0x2a
 3406 0fc7 746D7000 		.ascii	"tmp\000"
 3407 0fcb 01       		.byte	0x1
 3408 0fcc 99       		.byte	0x99
 3409 0fcd 86000000 		.4byte	0x86
 3410 0fd1 31030000 		.4byte	.LLST26
 3411 0fd5 00       		.byte	0x0
 3412 0fd6 1F       		.uleb128 0x1f
 3413 0fd7 AC000000 		.4byte	.LBB14
 3414 0fdb B2000000 		.4byte	.LBE14
 3415 0fdf F30F0000 		.4byte	0xff3
 3416 0fe3 2A       		.uleb128 0x2a
 3417 0fe4 746D7000 		.ascii	"tmp\000"
 3418 0fe8 01       		.byte	0x1
 3419 0fe9 8B       		.byte	0x8b
 3420 0fea 86000000 		.4byte	0x86
 3421 0fee 44030000 		.4byte	.LLST27
 3422 0ff2 00       		.byte	0x0
 3423 0ff3 1F       		.uleb128 0x1f
 3424 0ff4 B6000000 		.4byte	.LBB15
 3425 0ff8 C4000000 		.4byte	.LBE15
 3426 0ffc 0F100000 		.4byte	0x100f
 3427 1000 2A       		.uleb128 0x2a
 3428 1001 747000   		.ascii	"tp\000"
 3429 1004 01       		.byte	0x1
 3430 1005 8B       		.byte	0x8b
 3431 1006 65020000 		.4byte	0x265
 3432 100a 62030000 		.4byte	.LLST28
 3433 100e 00       		.byte	0x0
 3434 100f 21       		.uleb128 0x21
 3435 1010 C4000000 		.4byte	.LBB16
 3436 1014 CC000000 		.4byte	.LBE16
 3437 1018 2A       		.uleb128 0x2a
 3438 1019 746D7000 		.ascii	"tmp\000"
 3439 101d 01       		.byte	0x1
 3440 101e 8B       		.byte	0x8b
 3441 101f 86000000 		.4byte	0x86
 3442 1023 79030000 		.4byte	.LLST29
 3443 1027 00       		.byte	0x0
 3444 1028 00       		.byte	0x0
 3445 1029 2B       		.uleb128 0x2b
 3446 102a 01       		.byte	0x1
 3447 102b 36020000 		.4byte	.LASF252
 3448 102f 01       		.byte	0x1
 3449 1030 8401     		.2byte	0x184
 3450 1032 01       		.byte	0x1
 3451 1033 00000000 		.4byte	.LFB125
 3452 1037 10000000 		.4byte	.LFE125
 3453 103b 02       		.byte	0x2
 3454 103c 7D       		.byte	0x7d
 3455 103d 00       		.sleb128 0
 3456 103e 2B       		.uleb128 0x2b
 3457 103f 01       		.byte	0x1
 3458 1040 A90B0000 		.4byte	.LASF253
 3459 1044 01       		.byte	0x1
 3460 1045 8F01     		.2byte	0x18f
ARM GAS  C:\Users\DNIEL~1\AppData\Local\Temp\ccH33Zvb.s 			page 62


 3461 1047 01       		.byte	0x1
 3462 1048 00000000 		.4byte	.LFB126
 3463 104c 10000000 		.4byte	.LFE126
 3464 1050 02       		.byte	0x2
 3465 1051 7D       		.byte	0x7d
 3466 1052 00       		.sleb128 0
 3467 1053 2B       		.uleb128 0x2b
 3468 1054 01       		.byte	0x1
 3469 1055 02090000 		.4byte	.LASF254
 3470 1059 01       		.byte	0x1
 3471 105a 9A01     		.2byte	0x19a
 3472 105c 01       		.byte	0x1
 3473 105d 00000000 		.4byte	.LFB127
 3474 1061 10000000 		.4byte	.LFE127
 3475 1065 02       		.byte	0x2
 3476 1066 7D       		.byte	0x7d
 3477 1067 00       		.sleb128 0
 3478 1068 2B       		.uleb128 0x2b
 3479 1069 01       		.byte	0x1
 3480 106a F5000000 		.4byte	.LASF255
 3481 106e 01       		.byte	0x1
 3482 106f A501     		.2byte	0x1a5
 3483 1071 01       		.byte	0x1
 3484 1072 00000000 		.4byte	.LFB128
 3485 1076 10000000 		.4byte	.LFE128
 3486 107a 02       		.byte	0x2
 3487 107b 7D       		.byte	0x7d
 3488 107c 00       		.sleb128 0
 3489 107d 2C       		.uleb128 0x2c
 3490 107e 3C0A0000 		.4byte	.LASF256
 3491 1082 0D       		.byte	0xd
 3492 1083 9806     		.2byte	0x698
 3493 1085 40060000 		.4byte	0x640
 3494 1089 01       		.byte	0x1
 3495 108a 01       		.byte	0x1
 3496 108b 13       		.uleb128 0x13
 3497 108c 8B0A0000 		.4byte	0xa8b
 3498 1090 9B100000 		.4byte	0x109b
 3499 1094 14       		.uleb128 0x14
 3500 1095 3B000000 		.4byte	0x3b
 3501 1099 0F       		.byte	0xf
 3502 109a 00       		.byte	0x0
 3503 109b 2C       		.uleb128 0x2c
 3504 109c 24050000 		.4byte	.LASF257
 3505 10a0 0A       		.byte	0xa
 3506 10a1 BB01     		.2byte	0x1bb
 3507 10a3 A9100000 		.4byte	0x10a9
 3508 10a7 01       		.byte	0x1
 3509 10a8 01       		.byte	0x1
 3510 10a9 10       		.uleb128 0x10
 3511 10aa 8B100000 		.4byte	0x108b
 3512 10ae 2C       		.uleb128 0x2c
 3513 10af 2F070000 		.4byte	.LASF258
 3514 10b3 0C       		.byte	0xc
 3515 10b4 1C02     		.2byte	0x21c
 3516 10b6 2A0B0000 		.4byte	0xb2a
 3517 10ba 01       		.byte	0x1
ARM GAS  C:\Users\DNIEL~1\AppData\Local\Temp\ccH33Zvb.s 			page 63


 3518 10bb 01       		.byte	0x1
 3519 10bc 2C       		.uleb128 0x2c
 3520 10bd 35070000 		.4byte	.LASF259
 3521 10c1 0C       		.byte	0xc
 3522 10c2 2002     		.2byte	0x220
 3523 10c4 2A0B0000 		.4byte	0xb2a
 3524 10c8 01       		.byte	0x1
 3525 10c9 01       		.byte	0x1
 3526 10ca 2C       		.uleb128 0x2c
 3527 10cb 3C0A0000 		.4byte	.LASF256
 3528 10cf 0D       		.byte	0xd
 3529 10d0 9806     		.2byte	0x698
 3530 10d2 40060000 		.4byte	0x640
 3531 10d6 01       		.byte	0x1
 3532 10d7 01       		.byte	0x1
 3533 10d8 2C       		.uleb128 0x2c
 3534 10d9 24050000 		.4byte	.LASF257
 3535 10dd 0A       		.byte	0xa
 3536 10de BB01     		.2byte	0x1bb
 3537 10e0 E6100000 		.4byte	0x10e6
 3538 10e4 01       		.byte	0x1
 3539 10e5 01       		.byte	0x1
 3540 10e6 10       		.uleb128 0x10
 3541 10e7 8B100000 		.4byte	0x108b
 3542 10eb 2D       		.uleb128 0x2d
 3543 10ec 2F070000 		.4byte	.LASF258
 3544 10f0 01       		.byte	0x1
 3545 10f1 36       		.byte	0x36
 3546 10f2 2A0B0000 		.4byte	0xb2a
 3547 10f6 01       		.byte	0x1
 3548 10f7 05       		.byte	0x5
 3549 10f8 03       		.byte	0x3
 3550 10f9 00000000 		.4byte	ADCD2
 3551 10fd 2D       		.uleb128 0x2d
 3552 10fe 35070000 		.4byte	.LASF259
 3553 1102 01       		.byte	0x1
 3554 1103 3B       		.byte	0x3b
 3555 1104 2A0B0000 		.4byte	0xb2a
 3556 1108 01       		.byte	0x1
 3557 1109 05       		.byte	0x5
 3558 110a 03       		.byte	0x3
 3559 110b 00000000 		.4byte	ADCD3
 3560 110f 00       		.byte	0x0
 3561              		.section	.debug_abbrev
 3562 0000 01       		.uleb128 0x1
 3563 0001 11       		.uleb128 0x11
 3564 0002 01       		.byte	0x1
 3565 0003 25       		.uleb128 0x25
 3566 0004 0E       		.uleb128 0xe
 3567 0005 13       		.uleb128 0x13
 3568 0006 0B       		.uleb128 0xb
 3569 0007 03       		.uleb128 0x3
 3570 0008 0E       		.uleb128 0xe
 3571 0009 1B       		.uleb128 0x1b
 3572 000a 0E       		.uleb128 0xe
 3573 000b 11       		.uleb128 0x11
 3574 000c 01       		.uleb128 0x1
ARM GAS  C:\Users\DNIEL~1\AppData\Local\Temp\ccH33Zvb.s 			page 64


 3575 000d 52       		.uleb128 0x52
 3576 000e 01       		.uleb128 0x1
 3577 000f 55       		.uleb128 0x55
 3578 0010 06       		.uleb128 0x6
 3579 0011 10       		.uleb128 0x10
 3580 0012 06       		.uleb128 0x6
 3581 0013 00       		.byte	0x0
 3582 0014 00       		.byte	0x0
 3583 0015 02       		.uleb128 0x2
 3584 0016 24       		.uleb128 0x24
 3585 0017 00       		.byte	0x0
 3586 0018 0B       		.uleb128 0xb
 3587 0019 0B       		.uleb128 0xb
 3588 001a 3E       		.uleb128 0x3e
 3589 001b 0B       		.uleb128 0xb
 3590 001c 03       		.uleb128 0x3
 3591 001d 08       		.uleb128 0x8
 3592 001e 00       		.byte	0x0
 3593 001f 00       		.byte	0x0
 3594 0020 03       		.uleb128 0x3
 3595 0021 16       		.uleb128 0x16
 3596 0022 00       		.byte	0x0
 3597 0023 03       		.uleb128 0x3
 3598 0024 0E       		.uleb128 0xe
 3599 0025 3A       		.uleb128 0x3a
 3600 0026 0B       		.uleb128 0xb
 3601 0027 3B       		.uleb128 0x3b
 3602 0028 0B       		.uleb128 0xb
 3603 0029 49       		.uleb128 0x49
 3604 002a 13       		.uleb128 0x13
 3605 002b 00       		.byte	0x0
 3606 002c 00       		.byte	0x0
 3607 002d 04       		.uleb128 0x4
 3608 002e 24       		.uleb128 0x24
 3609 002f 00       		.byte	0x0
 3610 0030 0B       		.uleb128 0xb
 3611 0031 0B       		.uleb128 0xb
 3612 0032 3E       		.uleb128 0x3e
 3613 0033 0B       		.uleb128 0xb
 3614 0034 03       		.uleb128 0x3
 3615 0035 0E       		.uleb128 0xe
 3616 0036 00       		.byte	0x0
 3617 0037 00       		.byte	0x0
 3618 0038 05       		.uleb128 0x5
 3619 0039 13       		.uleb128 0x13
 3620 003a 01       		.byte	0x1
 3621 003b 03       		.uleb128 0x3
 3622 003c 0E       		.uleb128 0xe
 3623 003d 0B       		.uleb128 0xb
 3624 003e 0B       		.uleb128 0xb
 3625 003f 3A       		.uleb128 0x3a
 3626 0040 0B       		.uleb128 0xb
 3627 0041 3B       		.uleb128 0x3b
 3628 0042 0B       		.uleb128 0xb
 3629 0043 01       		.uleb128 0x1
 3630 0044 13       		.uleb128 0x13
 3631 0045 00       		.byte	0x0
ARM GAS  C:\Users\DNIEL~1\AppData\Local\Temp\ccH33Zvb.s 			page 65


 3632 0046 00       		.byte	0x0
 3633 0047 06       		.uleb128 0x6
 3634 0048 0D       		.uleb128 0xd
 3635 0049 00       		.byte	0x0
 3636 004a 03       		.uleb128 0x3
 3637 004b 0E       		.uleb128 0xe
 3638 004c 3A       		.uleb128 0x3a
 3639 004d 0B       		.uleb128 0xb
 3640 004e 3B       		.uleb128 0x3b
 3641 004f 0B       		.uleb128 0xb
 3642 0050 49       		.uleb128 0x49
 3643 0051 13       		.uleb128 0x13
 3644 0052 38       		.uleb128 0x38
 3645 0053 0A       		.uleb128 0xa
 3646 0054 00       		.byte	0x0
 3647 0055 00       		.byte	0x0
 3648 0056 07       		.uleb128 0x7
 3649 0057 0D       		.uleb128 0xd
 3650 0058 00       		.byte	0x0
 3651 0059 03       		.uleb128 0x3
 3652 005a 08       		.uleb128 0x8
 3653 005b 3A       		.uleb128 0x3a
 3654 005c 0B       		.uleb128 0xb
 3655 005d 3B       		.uleb128 0x3b
 3656 005e 0B       		.uleb128 0xb
 3657 005f 49       		.uleb128 0x49
 3658 0060 13       		.uleb128 0x13
 3659 0061 38       		.uleb128 0x38
 3660 0062 0A       		.uleb128 0xa
 3661 0063 00       		.byte	0x0
 3662 0064 00       		.byte	0x0
 3663 0065 08       		.uleb128 0x8
 3664 0066 13       		.uleb128 0x13
 3665 0067 01       		.byte	0x1
 3666 0068 0B       		.uleb128 0xb
 3667 0069 0B       		.uleb128 0xb
 3668 006a 3A       		.uleb128 0x3a
 3669 006b 0B       		.uleb128 0xb
 3670 006c 3B       		.uleb128 0x3b
 3671 006d 0B       		.uleb128 0xb
 3672 006e 01       		.uleb128 0x1
 3673 006f 13       		.uleb128 0x13
 3674 0070 00       		.byte	0x0
 3675 0071 00       		.byte	0x0
 3676 0072 09       		.uleb128 0x9
 3677 0073 0F       		.uleb128 0xf
 3678 0074 00       		.byte	0x0
 3679 0075 0B       		.uleb128 0xb
 3680 0076 0B       		.uleb128 0xb
 3681 0077 49       		.uleb128 0x49
 3682 0078 13       		.uleb128 0x13
 3683 0079 00       		.byte	0x0
 3684 007a 00       		.byte	0x0
 3685 007b 0A       		.uleb128 0xa
 3686 007c 0F       		.uleb128 0xf
 3687 007d 00       		.byte	0x0
 3688 007e 0B       		.uleb128 0xb
ARM GAS  C:\Users\DNIEL~1\AppData\Local\Temp\ccH33Zvb.s 			page 66


 3689 007f 0B       		.uleb128 0xb
 3690 0080 00       		.byte	0x0
 3691 0081 00       		.byte	0x0
 3692 0082 0B       		.uleb128 0xb
 3693 0083 13       		.uleb128 0x13
 3694 0084 01       		.byte	0x1
 3695 0085 03       		.uleb128 0x3
 3696 0086 0E       		.uleb128 0xe
 3697 0087 0B       		.uleb128 0xb
 3698 0088 0B       		.uleb128 0xb
 3699 0089 3A       		.uleb128 0x3a
 3700 008a 0B       		.uleb128 0xb
 3701 008b 3B       		.uleb128 0x3b
 3702 008c 05       		.uleb128 0x5
 3703 008d 01       		.uleb128 0x1
 3704 008e 13       		.uleb128 0x13
 3705 008f 00       		.byte	0x0
 3706 0090 00       		.byte	0x0
 3707 0091 0C       		.uleb128 0xc
 3708 0092 0D       		.uleb128 0xd
 3709 0093 00       		.byte	0x0
 3710 0094 03       		.uleb128 0x3
 3711 0095 08       		.uleb128 0x8
 3712 0096 3A       		.uleb128 0x3a
 3713 0097 0B       		.uleb128 0xb
 3714 0098 3B       		.uleb128 0x3b
 3715 0099 05       		.uleb128 0x5
 3716 009a 49       		.uleb128 0x49
 3717 009b 13       		.uleb128 0x13
 3718 009c 38       		.uleb128 0x38
 3719 009d 0A       		.uleb128 0xa
 3720 009e 00       		.byte	0x0
 3721 009f 00       		.byte	0x0
 3722 00a0 0D       		.uleb128 0xd
 3723 00a1 35       		.uleb128 0x35
 3724 00a2 00       		.byte	0x0
 3725 00a3 49       		.uleb128 0x49
 3726 00a4 13       		.uleb128 0x13
 3727 00a5 00       		.byte	0x0
 3728 00a6 00       		.byte	0x0
 3729 00a7 0E       		.uleb128 0xe
 3730 00a8 17       		.uleb128 0x17
 3731 00a9 01       		.byte	0x1
 3732 00aa 0B       		.uleb128 0xb
 3733 00ab 0B       		.uleb128 0xb
 3734 00ac 3A       		.uleb128 0x3a
 3735 00ad 0B       		.uleb128 0xb
 3736 00ae 3B       		.uleb128 0x3b
 3737 00af 0B       		.uleb128 0xb
 3738 00b0 01       		.uleb128 0x1
 3739 00b1 13       		.uleb128 0x13
 3740 00b2 00       		.byte	0x0
 3741 00b3 00       		.byte	0x0
 3742 00b4 0F       		.uleb128 0xf
 3743 00b5 0D       		.uleb128 0xd
 3744 00b6 00       		.byte	0x0
 3745 00b7 03       		.uleb128 0x3
ARM GAS  C:\Users\DNIEL~1\AppData\Local\Temp\ccH33Zvb.s 			page 67


 3746 00b8 0E       		.uleb128 0xe
 3747 00b9 3A       		.uleb128 0x3a
 3748 00ba 0B       		.uleb128 0xb
 3749 00bb 3B       		.uleb128 0x3b
 3750 00bc 0B       		.uleb128 0xb
 3751 00bd 49       		.uleb128 0x49
 3752 00be 13       		.uleb128 0x13
 3753 00bf 00       		.byte	0x0
 3754 00c0 00       		.byte	0x0
 3755 00c1 10       		.uleb128 0x10
 3756 00c2 26       		.uleb128 0x26
 3757 00c3 00       		.byte	0x0
 3758 00c4 49       		.uleb128 0x49
 3759 00c5 13       		.uleb128 0x13
 3760 00c6 00       		.byte	0x0
 3761 00c7 00       		.byte	0x0
 3762 00c8 11       		.uleb128 0x11
 3763 00c9 04       		.uleb128 0x4
 3764 00ca 01       		.byte	0x1
 3765 00cb 03       		.uleb128 0x3
 3766 00cc 0E       		.uleb128 0xe
 3767 00cd 0B       		.uleb128 0xb
 3768 00ce 0B       		.uleb128 0xb
 3769 00cf 3A       		.uleb128 0x3a
 3770 00d0 0B       		.uleb128 0xb
 3771 00d1 3B       		.uleb128 0x3b
 3772 00d2 0B       		.uleb128 0xb
 3773 00d3 01       		.uleb128 0x1
 3774 00d4 13       		.uleb128 0x13
 3775 00d5 00       		.byte	0x0
 3776 00d6 00       		.byte	0x0
 3777 00d7 12       		.uleb128 0x12
 3778 00d8 28       		.uleb128 0x28
 3779 00d9 00       		.byte	0x0
 3780 00da 03       		.uleb128 0x3
 3781 00db 0E       		.uleb128 0xe
 3782 00dc 1C       		.uleb128 0x1c
 3783 00dd 0D       		.uleb128 0xd
 3784 00de 00       		.byte	0x0
 3785 00df 00       		.byte	0x0
 3786 00e0 13       		.uleb128 0x13
 3787 00e1 01       		.uleb128 0x1
 3788 00e2 01       		.byte	0x1
 3789 00e3 49       		.uleb128 0x49
 3790 00e4 13       		.uleb128 0x13
 3791 00e5 01       		.uleb128 0x1
 3792 00e6 13       		.uleb128 0x13
 3793 00e7 00       		.byte	0x0
 3794 00e8 00       		.byte	0x0
 3795 00e9 14       		.uleb128 0x14
 3796 00ea 21       		.uleb128 0x21
 3797 00eb 00       		.byte	0x0
 3798 00ec 49       		.uleb128 0x49
 3799 00ed 13       		.uleb128 0x13
 3800 00ee 2F       		.uleb128 0x2f
 3801 00ef 0B       		.uleb128 0xb
 3802 00f0 00       		.byte	0x0
ARM GAS  C:\Users\DNIEL~1\AppData\Local\Temp\ccH33Zvb.s 			page 68


 3803 00f1 00       		.byte	0x0
 3804 00f2 15       		.uleb128 0x15
 3805 00f3 13       		.uleb128 0x13
 3806 00f4 01       		.byte	0x1
 3807 00f5 0B       		.uleb128 0xb
 3808 00f6 0B       		.uleb128 0xb
 3809 00f7 3A       		.uleb128 0x3a
 3810 00f8 0B       		.uleb128 0xb
 3811 00f9 3B       		.uleb128 0x3b
 3812 00fa 05       		.uleb128 0x5
 3813 00fb 01       		.uleb128 0x1
 3814 00fc 13       		.uleb128 0x13
 3815 00fd 00       		.byte	0x0
 3816 00fe 00       		.byte	0x0
 3817 00ff 16       		.uleb128 0x16
 3818 0100 0D       		.uleb128 0xd
 3819 0101 00       		.byte	0x0
 3820 0102 03       		.uleb128 0x3
 3821 0103 0E       		.uleb128 0xe
 3822 0104 3A       		.uleb128 0x3a
 3823 0105 0B       		.uleb128 0xb
 3824 0106 3B       		.uleb128 0x3b
 3825 0107 05       		.uleb128 0x5
 3826 0108 49       		.uleb128 0x49
 3827 0109 13       		.uleb128 0x13
 3828 010a 38       		.uleb128 0x38
 3829 010b 0A       		.uleb128 0xa
 3830 010c 00       		.byte	0x0
 3831 010d 00       		.byte	0x0
 3832 010e 17       		.uleb128 0x17
 3833 010f 16       		.uleb128 0x16
 3834 0110 00       		.byte	0x0
 3835 0111 03       		.uleb128 0x3
 3836 0112 0E       		.uleb128 0xe
 3837 0113 3A       		.uleb128 0x3a
 3838 0114 0B       		.uleb128 0xb
 3839 0115 3B       		.uleb128 0x3b
 3840 0116 05       		.uleb128 0x5
 3841 0117 49       		.uleb128 0x49
 3842 0118 13       		.uleb128 0x13
 3843 0119 00       		.byte	0x0
 3844 011a 00       		.byte	0x0
 3845 011b 18       		.uleb128 0x18
 3846 011c 15       		.uleb128 0x15
 3847 011d 01       		.byte	0x1
 3848 011e 27       		.uleb128 0x27
 3849 011f 0C       		.uleb128 0xc
 3850 0120 01       		.uleb128 0x1
 3851 0121 13       		.uleb128 0x13
 3852 0122 00       		.byte	0x0
 3853 0123 00       		.byte	0x0
 3854 0124 19       		.uleb128 0x19
 3855 0125 05       		.uleb128 0x5
 3856 0126 00       		.byte	0x0
 3857 0127 49       		.uleb128 0x49
 3858 0128 13       		.uleb128 0x13
 3859 0129 00       		.byte	0x0
ARM GAS  C:\Users\DNIEL~1\AppData\Local\Temp\ccH33Zvb.s 			page 69


 3860 012a 00       		.byte	0x0
 3861 012b 1A       		.uleb128 0x1a
 3862 012c 04       		.uleb128 0x4
 3863 012d 01       		.byte	0x1
 3864 012e 0B       		.uleb128 0xb
 3865 012f 0B       		.uleb128 0xb
 3866 0130 3A       		.uleb128 0x3a
 3867 0131 0B       		.uleb128 0xb
 3868 0132 3B       		.uleb128 0x3b
 3869 0133 0B       		.uleb128 0xb
 3870 0134 01       		.uleb128 0x1
 3871 0135 13       		.uleb128 0x13
 3872 0136 00       		.byte	0x0
 3873 0137 00       		.byte	0x0
 3874 0138 1B       		.uleb128 0x1b
 3875 0139 04       		.uleb128 0x4
 3876 013a 01       		.byte	0x1
 3877 013b 0B       		.uleb128 0xb
 3878 013c 0B       		.uleb128 0xb
 3879 013d 3A       		.uleb128 0x3a
 3880 013e 0B       		.uleb128 0xb
 3881 013f 3B       		.uleb128 0x3b
 3882 0140 05       		.uleb128 0x5
 3883 0141 01       		.uleb128 0x1
 3884 0142 13       		.uleb128 0x13
 3885 0143 00       		.byte	0x0
 3886 0144 00       		.byte	0x0
 3887 0145 1C       		.uleb128 0x1c
 3888 0146 2E       		.uleb128 0x2e
 3889 0147 00       		.byte	0x0
 3890 0148 3F       		.uleb128 0x3f
 3891 0149 0C       		.uleb128 0xc
 3892 014a 03       		.uleb128 0x3
 3893 014b 0E       		.uleb128 0xe
 3894 014c 3A       		.uleb128 0x3a
 3895 014d 0B       		.uleb128 0xb
 3896 014e 3B       		.uleb128 0x3b
 3897 014f 0B       		.uleb128 0xb
 3898 0150 27       		.uleb128 0x27
 3899 0151 0C       		.uleb128 0xc
 3900 0152 11       		.uleb128 0x11
 3901 0153 01       		.uleb128 0x1
 3902 0154 12       		.uleb128 0x12
 3903 0155 01       		.uleb128 0x1
 3904 0156 40       		.uleb128 0x40
 3905 0157 06       		.uleb128 0x6
 3906 0158 00       		.byte	0x0
 3907 0159 00       		.byte	0x0
 3908 015a 1D       		.uleb128 0x1d
 3909 015b 2E       		.uleb128 0x2e
 3910 015c 01       		.byte	0x1
 3911 015d 3F       		.uleb128 0x3f
 3912 015e 0C       		.uleb128 0xc
 3913 015f 03       		.uleb128 0x3
 3914 0160 0E       		.uleb128 0xe
 3915 0161 3A       		.uleb128 0x3a
 3916 0162 0B       		.uleb128 0xb
ARM GAS  C:\Users\DNIEL~1\AppData\Local\Temp\ccH33Zvb.s 			page 70


 3917 0163 3B       		.uleb128 0x3b
 3918 0164 0B       		.uleb128 0xb
 3919 0165 27       		.uleb128 0x27
 3920 0166 0C       		.uleb128 0xc
 3921 0167 11       		.uleb128 0x11
 3922 0168 01       		.uleb128 0x1
 3923 0169 12       		.uleb128 0x12
 3924 016a 01       		.uleb128 0x1
 3925 016b 40       		.uleb128 0x40
 3926 016c 06       		.uleb128 0x6
 3927 016d 01       		.uleb128 0x1
 3928 016e 13       		.uleb128 0x13
 3929 016f 00       		.byte	0x0
 3930 0170 00       		.byte	0x0
 3931 0171 1E       		.uleb128 0x1e
 3932 0172 05       		.uleb128 0x5
 3933 0173 00       		.byte	0x0
 3934 0174 03       		.uleb128 0x3
 3935 0175 0E       		.uleb128 0xe
 3936 0176 3A       		.uleb128 0x3a
 3937 0177 0B       		.uleb128 0xb
 3938 0178 3B       		.uleb128 0x3b
 3939 0179 0B       		.uleb128 0xb
 3940 017a 49       		.uleb128 0x49
 3941 017b 13       		.uleb128 0x13
 3942 017c 02       		.uleb128 0x2
 3943 017d 06       		.uleb128 0x6
 3944 017e 00       		.byte	0x0
 3945 017f 00       		.byte	0x0
 3946 0180 1F       		.uleb128 0x1f
 3947 0181 0B       		.uleb128 0xb
 3948 0182 01       		.byte	0x1
 3949 0183 11       		.uleb128 0x11
 3950 0184 01       		.uleb128 0x1
 3951 0185 12       		.uleb128 0x12
 3952 0186 01       		.uleb128 0x1
 3953 0187 01       		.uleb128 0x1
 3954 0188 13       		.uleb128 0x13
 3955 0189 00       		.byte	0x0
 3956 018a 00       		.byte	0x0
 3957 018b 20       		.uleb128 0x20
 3958 018c 34       		.uleb128 0x34
 3959 018d 00       		.byte	0x0
 3960 018e 03       		.uleb128 0x3
 3961 018f 08       		.uleb128 0x8
 3962 0190 3A       		.uleb128 0x3a
 3963 0191 0B       		.uleb128 0xb
 3964 0192 3B       		.uleb128 0x3b
 3965 0193 0B       		.uleb128 0xb
 3966 0194 49       		.uleb128 0x49
 3967 0195 13       		.uleb128 0x13
 3968 0196 00       		.byte	0x0
 3969 0197 00       		.byte	0x0
 3970 0198 21       		.uleb128 0x21
 3971 0199 0B       		.uleb128 0xb
 3972 019a 01       		.byte	0x1
 3973 019b 11       		.uleb128 0x11
ARM GAS  C:\Users\DNIEL~1\AppData\Local\Temp\ccH33Zvb.s 			page 71


 3974 019c 01       		.uleb128 0x1
 3975 019d 12       		.uleb128 0x12
 3976 019e 01       		.uleb128 0x1
 3977 019f 00       		.byte	0x0
 3978 01a0 00       		.byte	0x0
 3979 01a1 22       		.uleb128 0x22
 3980 01a2 34       		.uleb128 0x34
 3981 01a3 00       		.byte	0x0
 3982 01a4 03       		.uleb128 0x3
 3983 01a5 08       		.uleb128 0x8
 3984 01a6 3A       		.uleb128 0x3a
 3985 01a7 0B       		.uleb128 0xb
 3986 01a8 3B       		.uleb128 0x3b
 3987 01a9 05       		.uleb128 0x5
 3988 01aa 49       		.uleb128 0x49
 3989 01ab 13       		.uleb128 0x13
 3990 01ac 00       		.byte	0x0
 3991 01ad 00       		.byte	0x0
 3992 01ae 23       		.uleb128 0x23
 3993 01af 2E       		.uleb128 0x2e
 3994 01b0 01       		.byte	0x1
 3995 01b1 3F       		.uleb128 0x3f
 3996 01b2 0C       		.uleb128 0xc
 3997 01b3 03       		.uleb128 0x3
 3998 01b4 0E       		.uleb128 0xe
 3999 01b5 3A       		.uleb128 0x3a
 4000 01b6 0B       		.uleb128 0xb
 4001 01b7 3B       		.uleb128 0x3b
 4002 01b8 05       		.uleb128 0x5
 4003 01b9 27       		.uleb128 0x27
 4004 01ba 0C       		.uleb128 0xc
 4005 01bb 11       		.uleb128 0x11
 4006 01bc 01       		.uleb128 0x1
 4007 01bd 12       		.uleb128 0x12
 4008 01be 01       		.uleb128 0x1
 4009 01bf 40       		.uleb128 0x40
 4010 01c0 06       		.uleb128 0x6
 4011 01c1 01       		.uleb128 0x1
 4012 01c2 13       		.uleb128 0x13
 4013 01c3 00       		.byte	0x0
 4014 01c4 00       		.byte	0x0
 4015 01c5 24       		.uleb128 0x24
 4016 01c6 05       		.uleb128 0x5
 4017 01c7 00       		.byte	0x0
 4018 01c8 03       		.uleb128 0x3
 4019 01c9 0E       		.uleb128 0xe
 4020 01ca 3A       		.uleb128 0x3a
 4021 01cb 0B       		.uleb128 0xb
 4022 01cc 3B       		.uleb128 0x3b
 4023 01cd 05       		.uleb128 0x5
 4024 01ce 49       		.uleb128 0x49
 4025 01cf 13       		.uleb128 0x13
 4026 01d0 02       		.uleb128 0x2
 4027 01d1 06       		.uleb128 0x6
 4028 01d2 00       		.byte	0x0
 4029 01d3 00       		.byte	0x0
 4030 01d4 25       		.uleb128 0x25
ARM GAS  C:\Users\DNIEL~1\AppData\Local\Temp\ccH33Zvb.s 			page 72


 4031 01d5 34       		.uleb128 0x34
 4032 01d6 00       		.byte	0x0
 4033 01d7 03       		.uleb128 0x3
 4034 01d8 0E       		.uleb128 0xe
 4035 01d9 3A       		.uleb128 0x3a
 4036 01da 0B       		.uleb128 0xb
 4037 01db 3B       		.uleb128 0x3b
 4038 01dc 05       		.uleb128 0x5
 4039 01dd 49       		.uleb128 0x49
 4040 01de 13       		.uleb128 0x13
 4041 01df 02       		.uleb128 0x2
 4042 01e0 06       		.uleb128 0x6
 4043 01e1 00       		.byte	0x0
 4044 01e2 00       		.byte	0x0
 4045 01e3 26       		.uleb128 0x26
 4046 01e4 34       		.uleb128 0x34
 4047 01e5 00       		.byte	0x0
 4048 01e6 03       		.uleb128 0x3
 4049 01e7 08       		.uleb128 0x8
 4050 01e8 3A       		.uleb128 0x3a
 4051 01e9 0B       		.uleb128 0xb
 4052 01ea 3B       		.uleb128 0x3b
 4053 01eb 05       		.uleb128 0x5
 4054 01ec 49       		.uleb128 0x49
 4055 01ed 13       		.uleb128 0x13
 4056 01ee 02       		.uleb128 0x2
 4057 01ef 06       		.uleb128 0x6
 4058 01f0 00       		.byte	0x0
 4059 01f1 00       		.byte	0x0
 4060 01f2 27       		.uleb128 0x27
 4061 01f3 2E       		.uleb128 0x2e
 4062 01f4 01       		.byte	0x1
 4063 01f5 03       		.uleb128 0x3
 4064 01f6 0E       		.uleb128 0xe
 4065 01f7 3A       		.uleb128 0x3a
 4066 01f8 0B       		.uleb128 0xb
 4067 01f9 3B       		.uleb128 0x3b
 4068 01fa 0B       		.uleb128 0xb
 4069 01fb 27       		.uleb128 0x27
 4070 01fc 0C       		.uleb128 0xc
 4071 01fd 11       		.uleb128 0x11
 4072 01fe 01       		.uleb128 0x1
 4073 01ff 12       		.uleb128 0x12
 4074 0200 01       		.uleb128 0x1
 4075 0201 40       		.uleb128 0x40
 4076 0202 06       		.uleb128 0x6
 4077 0203 01       		.uleb128 0x1
 4078 0204 13       		.uleb128 0x13
 4079 0205 00       		.byte	0x0
 4080 0206 00       		.byte	0x0
 4081 0207 28       		.uleb128 0x28
 4082 0208 34       		.uleb128 0x34
 4083 0209 00       		.byte	0x0
 4084 020a 03       		.uleb128 0x3
 4085 020b 0E       		.uleb128 0xe
 4086 020c 3A       		.uleb128 0x3a
 4087 020d 0B       		.uleb128 0xb
ARM GAS  C:\Users\DNIEL~1\AppData\Local\Temp\ccH33Zvb.s 			page 73


 4088 020e 3B       		.uleb128 0x3b
 4089 020f 0B       		.uleb128 0xb
 4090 0210 49       		.uleb128 0x49
 4091 0211 13       		.uleb128 0x13
 4092 0212 02       		.uleb128 0x2
 4093 0213 06       		.uleb128 0x6
 4094 0214 00       		.byte	0x0
 4095 0215 00       		.byte	0x0
 4096 0216 29       		.uleb128 0x29
 4097 0217 34       		.uleb128 0x34
 4098 0218 00       		.byte	0x0
 4099 0219 03       		.uleb128 0x3
 4100 021a 0E       		.uleb128 0xe
 4101 021b 3A       		.uleb128 0x3a
 4102 021c 0B       		.uleb128 0xb
 4103 021d 3B       		.uleb128 0x3b
 4104 021e 0B       		.uleb128 0xb
 4105 021f 49       		.uleb128 0x49
 4106 0220 13       		.uleb128 0x13
 4107 0221 00       		.byte	0x0
 4108 0222 00       		.byte	0x0
 4109 0223 2A       		.uleb128 0x2a
 4110 0224 34       		.uleb128 0x34
 4111 0225 00       		.byte	0x0
 4112 0226 03       		.uleb128 0x3
 4113 0227 08       		.uleb128 0x8
 4114 0228 3A       		.uleb128 0x3a
 4115 0229 0B       		.uleb128 0xb
 4116 022a 3B       		.uleb128 0x3b
 4117 022b 0B       		.uleb128 0xb
 4118 022c 49       		.uleb128 0x49
 4119 022d 13       		.uleb128 0x13
 4120 022e 02       		.uleb128 0x2
 4121 022f 06       		.uleb128 0x6
 4122 0230 00       		.byte	0x0
 4123 0231 00       		.byte	0x0
 4124 0232 2B       		.uleb128 0x2b
 4125 0233 2E       		.uleb128 0x2e
 4126 0234 00       		.byte	0x0
 4127 0235 3F       		.uleb128 0x3f
 4128 0236 0C       		.uleb128 0xc
 4129 0237 03       		.uleb128 0x3
 4130 0238 0E       		.uleb128 0xe
 4131 0239 3A       		.uleb128 0x3a
 4132 023a 0B       		.uleb128 0xb
 4133 023b 3B       		.uleb128 0x3b
 4134 023c 05       		.uleb128 0x5
 4135 023d 27       		.uleb128 0x27
 4136 023e 0C       		.uleb128 0xc
 4137 023f 11       		.uleb128 0x11
 4138 0240 01       		.uleb128 0x1
 4139 0241 12       		.uleb128 0x12
 4140 0242 01       		.uleb128 0x1
 4141 0243 40       		.uleb128 0x40
 4142 0244 0A       		.uleb128 0xa
 4143 0245 00       		.byte	0x0
 4144 0246 00       		.byte	0x0
ARM GAS  C:\Users\DNIEL~1\AppData\Local\Temp\ccH33Zvb.s 			page 74


 4145 0247 2C       		.uleb128 0x2c
 4146 0248 34       		.uleb128 0x34
 4147 0249 00       		.byte	0x0
 4148 024a 03       		.uleb128 0x3
 4149 024b 0E       		.uleb128 0xe
 4150 024c 3A       		.uleb128 0x3a
 4151 024d 0B       		.uleb128 0xb
 4152 024e 3B       		.uleb128 0x3b
 4153 024f 05       		.uleb128 0x5
 4154 0250 49       		.uleb128 0x49
 4155 0251 13       		.uleb128 0x13
 4156 0252 3F       		.uleb128 0x3f
 4157 0253 0C       		.uleb128 0xc
 4158 0254 3C       		.uleb128 0x3c
 4159 0255 0C       		.uleb128 0xc
 4160 0256 00       		.byte	0x0
 4161 0257 00       		.byte	0x0
 4162 0258 2D       		.uleb128 0x2d
 4163 0259 34       		.uleb128 0x34
 4164 025a 00       		.byte	0x0
 4165 025b 03       		.uleb128 0x3
 4166 025c 0E       		.uleb128 0xe
 4167 025d 3A       		.uleb128 0x3a
 4168 025e 0B       		.uleb128 0xb
 4169 025f 3B       		.uleb128 0x3b
 4170 0260 0B       		.uleb128 0xb
 4171 0261 49       		.uleb128 0x49
 4172 0262 13       		.uleb128 0x13
 4173 0263 3F       		.uleb128 0x3f
 4174 0264 0C       		.uleb128 0xc
 4175 0265 02       		.uleb128 0x2
 4176 0266 0A       		.uleb128 0xa
 4177 0267 00       		.byte	0x0
 4178 0268 00       		.byte	0x0
 4179 0269 00       		.byte	0x0
 4180              		.section	.debug_pubnames,"",%progbits
 4181 0000 02010000 		.4byte	0x102
 4182 0004 0200     		.2byte	0x2
 4183 0006 00000000 		.4byte	.Ldebug_info0
 4184 000a 10110000 		.4byte	0x1110
 4185 000e 380D0000 		.4byte	0xd38
 4186 0012 6164635F 		.ascii	"adc_lld_init\000"
 4186      6C6C645F 
 4186      696E6974 
 4186      00
 4187 001f 4D0D0000 		.4byte	0xd4d
 4188 0023 6164635F 		.ascii	"adc_lld_start\000"
 4188      6C6C645F 
 4188      73746172 
 4188      7400
 4189 0031 A10D0000 		.4byte	0xda1
 4190 0035 6164635F 		.ascii	"adc_lld_stop\000"
 4190      6C6C645F 
 4190      73746F70 
 4190      00
 4191 0042 CC0D0000 		.4byte	0xdcc
 4192 0046 6164635F 		.ascii	"adc_lld_start_conversion\000"
ARM GAS  C:\Users\DNIEL~1\AppData\Local\Temp\ccH33Zvb.s 			page 75


 4192      6C6C645F 
 4192      73746172 
 4192      745F636F 
 4192      6E766572 
 4193 005f 270E0000 		.4byte	0xe27
 4194 0063 6164635F 		.ascii	"adc_lld_stop_conversion\000"
 4194      6C6C645F 
 4194      73746F70 
 4194      5F636F6E 
 4194      76657273 
 4195 007b 590F0000 		.4byte	0xf59
 4196 007f 56656374 		.ascii	"Vector88\000"
 4196      6F723838 
 4196      00
 4197 0088 29100000 		.4byte	0x1029
 4198 008c 61646353 		.ascii	"adcSTM32EnableTSVREFE\000"
 4198      544D3332 
 4198      456E6162 
 4198      6C655453 
 4198      56524546 
 4199 00a2 3E100000 		.4byte	0x103e
 4200 00a6 61646353 		.ascii	"adcSTM32DisableTSVREFE\000"
 4200      544D3332 
 4200      44697361 
 4200      626C6554 
 4200      53565245 
 4201 00bd 53100000 		.4byte	0x1053
 4202 00c1 61646353 		.ascii	"adcSTM32EnableVBATE\000"
 4202      544D3332 
 4202      456E6162 
 4202      6C655642 
 4202      41544500 
 4203 00d5 68100000 		.4byte	0x1068
 4204 00d9 61646353 		.ascii	"adcSTM32DisableVBATE\000"
 4204      544D3332 
 4204      44697361 
 4204      626C6556 
 4204      42415445 
 4205 00ee EB100000 		.4byte	0x10eb
 4206 00f2 41444344 		.ascii	"ADCD2\000"
 4206      3200
 4207 00f8 FD100000 		.4byte	0x10fd
 4208 00fc 41444344 		.ascii	"ADCD3\000"
 4208      3300
 4209 0102 00000000 		.4byte	0x0
 4210              		.section	.debug_pubtypes,"",%progbits
 4211 0000 5C020000 		.4byte	0x25c
 4212 0004 0200     		.2byte	0x2
 4213 0006 00000000 		.4byte	.Ldebug_info0
 4214 000a 10110000 		.4byte	0x1110
 4215 000e 30000000 		.4byte	0x30
 4216 0012 73697A65 		.ascii	"size_t\000"
 4216      5F7400
 4217 0019 49000000 		.4byte	0x49
 4218 001d 75696E74 		.ascii	"uint8_t\000"
 4218      385F7400 
 4219 0025 62000000 		.4byte	0x62
ARM GAS  C:\Users\DNIEL~1\AppData\Local\Temp\ccH33Zvb.s 			page 76


 4220 0029 75696E74 		.ascii	"uint16_t\000"
 4220      31365F74 
 4220      00
 4221 0032 74000000 		.4byte	0x74
 4222 0036 696E7433 		.ascii	"int32_t\000"
 4222      325F7400 
 4223 003e 86000000 		.4byte	0x86
 4224 0042 75696E74 		.ascii	"uint32_t\000"
 4224      33325F74 
 4224      00
 4225 004b A6000000 		.4byte	0xa6
 4226 004f 626F6F6C 		.ascii	"bool_t\000"
 4226      5F7400
 4227 0056 B8000000 		.4byte	0xb8
 4228 005a 746D6F64 		.ascii	"tmode_t\000"
 4228      655F7400 
 4229 0062 C3000000 		.4byte	0xc3
 4230 0066 74737461 		.ascii	"tstate_t\000"
 4230      74655F74 
 4230      00
 4231 006f CE000000 		.4byte	0xce
 4232 0073 74726566 		.ascii	"trefs_t\000"
 4232      735F7400 
 4233 007b D9000000 		.4byte	0xd9
 4234 007f 74736C69 		.ascii	"tslices_t\000"
 4234      6365735F 
 4234      7400
 4235 0089 E4000000 		.4byte	0xe4
 4236 008d 74707269 		.ascii	"tprio_t\000"
 4236      6F5F7400 
 4237 0095 EF000000 		.4byte	0xef
 4238 0099 6D73675F 		.ascii	"msg_t\000"
 4238      7400
 4239 009f FA000000 		.4byte	0xfa
 4240 00a3 6576656E 		.ascii	"eventmask_t\000"
 4240      746D6173 
 4240      6B5F7400 
 4241 00af 05010000 		.4byte	0x105
 4242 00b3 73797374 		.ascii	"systime_t\000"
 4242      696D655F 
 4242      7400
 4243 00bd 10010000 		.4byte	0x110
 4244 00c1 54687265 		.ascii	"Thread\000"
 4244      616400
 4245 00c8 6B020000 		.4byte	0x26b
 4246 00cc 54687265 		.ascii	"ThreadsQueue\000"
 4246      61647351 
 4246      75657565 
 4246      00
 4247 00d9 8D020000 		.4byte	0x28d
 4248 00dd 54687265 		.ascii	"ThreadsList\000"
 4248      6164734C 
 4248      69737400 
 4249 00e9 98020000 		.4byte	0x298
 4250 00ed 72656761 		.ascii	"regarm_t\000"
 4250      726D5F74 
 4250      00
ARM GAS  C:\Users\DNIEL~1\AppData\Local\Temp\ccH33Zvb.s 			page 77


 4251 00f6 A5020000 		.4byte	0x2a5
 4252 00fa 696E7463 		.ascii	"intctx\000"
 4252      747800
 4253 0101 33030000 		.4byte	0x333
 4254 0105 636F6E74 		.ascii	"context\000"
 4254      65787400 
 4255 010d 60030000 		.4byte	0x360
 4256 0111 4D757465 		.ascii	"Mutex\000"
 4256      7800
 4257 0117 9D030000 		.4byte	0x39d
 4258 011b 4D757465 		.ascii	"Mutex\000"
 4258      7800
 4259 0121 1B010000 		.4byte	0x11b
 4260 0125 54687265 		.ascii	"Thread\000"
 4260      616400
 4261 012c F5030000 		.4byte	0x3f5
 4262 0130 4952516E 		.ascii	"IRQn\000"
 4262      00
 4263 0135 79070000 		.4byte	0x779
 4264 0139 4144435F 		.ascii	"ADC_TypeDef\000"
 4264      54797065 
 4264      44656600 
 4265 0145 BC070000 		.4byte	0x7bc
 4266 0149 4144435F 		.ascii	"ADC_Common_TypeDef\000"
 4266      436F6D6D 
 4266      6F6E5F54 
 4266      79706544 
 4266      656600
 4267 015c 2B080000 		.4byte	0x82b
 4268 0160 444D415F 		.ascii	"DMA_Stream_TypeDef\000"
 4268      53747265 
 4268      616D5F54 
 4268      79706544 
 4268      656600
 4269 0173 240A0000 		.4byte	0xa24
 4270 0177 5243435F 		.ascii	"RCC_TypeDef\000"
 4270      54797065 
 4270      44656600 
 4271 0183 8B0A0000 		.4byte	0xa8b
 4272 0187 73746D33 		.ascii	"stm32_dma_stream_t\000"
 4272      325F646D 
 4272      615F7374 
 4272      7265616D 
 4272      5F7400
 4273 019a 960A0000 		.4byte	0xa96
 4274 019e 73746D33 		.ascii	"stm32_dmaisr_t\000"
 4274      325F646D 
 4274      61697372 
 4274      5F7400
 4275 01ad E50A0000 		.4byte	0xae5
 4276 01b1 61646373 		.ascii	"adcstate_t\000"
 4276      74617465 
 4276      5F7400
 4277 01bc F00A0000 		.4byte	0xaf0
 4278 01c0 61646373 		.ascii	"adcsample_t\000"
 4278      616D706C 
 4278      655F7400 
ARM GAS  C:\Users\DNIEL~1\AppData\Local\Temp\ccH33Zvb.s 			page 78


 4279 01cc FC0A0000 		.4byte	0xafc
 4280 01d0 6164635F 		.ascii	"adc_channels_num_t\000"
 4280      6368616E 
 4280      6E656C73 
 4280      5F6E756D 
 4280      5F7400
 4281 01e3 1E0B0000 		.4byte	0xb1e
 4282 01e7 61646365 		.ascii	"adcerror_t\000"
 4282      72726F72 
 4282      5F7400
 4283 01f2 2A0B0000 		.4byte	0xb2a
 4284 01f6 41444344 		.ascii	"ADCDriver\000"
 4284      72697665 
 4284      7200
 4285 0200 DA0B0000 		.4byte	0xbda
 4286 0204 61646363 		.ascii	"adccallback_t\000"
 4286      616C6C62 
 4286      61636B5F 
 4286      7400
 4287 0212 0E0C0000 		.4byte	0xc0e
 4288 0216 61646365 		.ascii	"adcerrorcallback_t\000"
 4288      72726F72 
 4288      63616C6C 
 4288      6261636B 
 4288      5F7400
 4289 0229 E00C0000 		.4byte	0xce0
 4290 022d 41444343 		.ascii	"ADCConversionGroup\000"
 4290      6F6E7665 
 4290      7273696F 
 4290      6E47726F 
 4290      757000
 4291 0240 050D0000 		.4byte	0xd05
 4292 0244 41444343 		.ascii	"ADCConfig\000"
 4292      6F6E6669 
 4292      6700
 4293 024e 360B0000 		.4byte	0xb36
 4294 0252 41444344 		.ascii	"ADCDriver\000"
 4294      72697665 
 4294      7200
 4295 025c 00000000 		.4byte	0x0
 4296              		.section	.debug_aranges,"",%progbits
 4297 0000 6C000000 		.4byte	0x6c
 4298 0004 0200     		.2byte	0x2
 4299 0006 00000000 		.4byte	.Ldebug_info0
 4300 000a 04       		.byte	0x4
 4301 000b 00       		.byte	0x0
 4302 000c 0000     		.2byte	0x0
 4303 000e 0000     		.2byte	0x0
 4304 0010 00000000 		.4byte	.LFB120
 4305 0014 54000000 		.4byte	.LFE120-.LFB120
 4306 0018 00000000 		.4byte	.LFB121
 4307 001c 90000000 		.4byte	.LFE121-.LFB121
 4308 0020 00000000 		.4byte	.LFB122
 4309 0024 4C000000 		.4byte	.LFE122-.LFB122
 4310 0028 00000000 		.4byte	.LFB123
 4311 002c 9C000000 		.4byte	.LFE123-.LFB123
 4312 0030 00000000 		.4byte	.LFB124
ARM GAS  C:\Users\DNIEL~1\AppData\Local\Temp\ccH33Zvb.s 			page 79


 4313 0034 2E000000 		.4byte	.LFE124-.LFB124
 4314 0038 00000000 		.4byte	.LFB118
 4315 003c E2000000 		.4byte	.LFE118-.LFB118
 4316 0040 00000000 		.4byte	.LFB119
 4317 0044 E8000000 		.4byte	.LFE119-.LFB119
 4318 0048 00000000 		.4byte	.LFB125
 4319 004c 10000000 		.4byte	.LFE125-.LFB125
 4320 0050 00000000 		.4byte	.LFB126
 4321 0054 10000000 		.4byte	.LFE126-.LFB126
 4322 0058 00000000 		.4byte	.LFB127
 4323 005c 10000000 		.4byte	.LFE127-.LFB127
 4324 0060 00000000 		.4byte	.LFB128
 4325 0064 10000000 		.4byte	.LFE128-.LFB128
 4326 0068 00000000 		.4byte	0x0
 4327 006c 00000000 		.4byte	0x0
 4328              		.section	.debug_ranges,"",%progbits
 4329              	.Ldebug_ranges0:
 4330 0000 00000000 		.4byte	.LFB120
 4331 0004 54000000 		.4byte	.LFE120
 4332 0008 00000000 		.4byte	.LFB121
 4333 000c 90000000 		.4byte	.LFE121
 4334 0010 00000000 		.4byte	.LFB122
 4335 0014 4C000000 		.4byte	.LFE122
 4336 0018 00000000 		.4byte	.LFB123
 4337 001c 9C000000 		.4byte	.LFE123
 4338 0020 00000000 		.4byte	.LFB124
 4339 0024 2E000000 		.4byte	.LFE124
 4340 0028 00000000 		.4byte	.LFB118
 4341 002c E2000000 		.4byte	.LFE118
 4342 0030 00000000 		.4byte	.LFB119
 4343 0034 E8000000 		.4byte	.LFE119
 4344 0038 00000000 		.4byte	.LFB125
 4345 003c 10000000 		.4byte	.LFE125
 4346 0040 00000000 		.4byte	.LFB126
 4347 0044 10000000 		.4byte	.LFE126
 4348 0048 00000000 		.4byte	.LFB127
 4349 004c 10000000 		.4byte	.LFE127
 4350 0050 00000000 		.4byte	.LFB128
 4351 0054 10000000 		.4byte	.LFE128
 4352 0058 00000000 		.4byte	0x0
 4353 005c 00000000 		.4byte	0x0
 4354              		.section	.debug_str,"MS",%progbits,1
 4355              	.LASF166:
 4356 0000 4D314152 		.ascii	"M1AR\000"
 4356      00
 4357              	.LASF2:
 4358 0005 73697A65 		.ascii	"size_t\000"
 4358      5F7400
 4359              	.LASF110:
 4360 000c 54494D38 		.ascii	"TIM8_UP_TIM13_IRQn\000"
 4360      5F55505F 
 4360      54494D31 
 4360      335F4952 
 4360      516E00
 4361              	.LASF235:
 4362 001f 73717231 		.ascii	"sqr1\000"
 4362      00
ARM GAS  C:\Users\DNIEL~1\AppData\Local\Temp\ccH33Zvb.s 			page 80


 4363              	.LASF236:
 4364 0024 73717232 		.ascii	"sqr2\000"
 4364      00
 4365              	.LASF237:
 4366 0029 73717233 		.ascii	"sqr3\000"
 4366      00
 4367              	.LASF241:
 4368 002e 6164635F 		.ascii	"adc_lld_start\000"
 4368      6C6C645F 
 4368      73746172 
 4368      7400
 4369              	.LASF23:
 4370 003c 73797374 		.ascii	"systime_t\000"
 4370      696D655F 
 4370      7400
 4371              	.LASF194:
 4372 0046 504C4C49 		.ascii	"PLLI2SCFGR\000"
 4372      32534346 
 4372      475200
 4373              	.LASF28:
 4374 0051 705F6374 		.ascii	"p_ctx\000"
 4374      7800
 4375              	.LASF20:
 4376 0057 74707269 		.ascii	"tprio_t\000"
 4376      6F5F7400 
 4377              	.LASF227:
 4378 005f 61646363 		.ascii	"adccallback_t\000"
 4378      616C6C62 
 4378      61636B5F 
 4378      7400
 4379              	.LASF154:
 4380 006d 53515231 		.ascii	"SQR1\000"
 4380      00
 4381              	.LASF155:
 4382 0072 53515232 		.ascii	"SQR2\000"
 4382      00
 4383              	.LASF156:
 4384 0077 53515233 		.ascii	"SQR3\000"
 4384      00
 4385              	.LASF38:
 4386 007c 705F6D73 		.ascii	"p_msgqueue\000"
 4386      67717565 
 4386      756500
 4387              	.LASF8:
 4388 0087 696E7433 		.ascii	"int32_t\000"
 4388      325F7400 
 4389              	.LASF211:
 4390 008f 61646373 		.ascii	"adcstate_t\000"
 4390      74617465 
 4390      5F7400
 4391              	.LASF214:
 4392 009a 4144435F 		.ascii	"ADC_ERR_DMAFAILURE\000"
 4392      4552525F 
 4392      444D4146 
 4392      41494C55 
 4392      524500
 4393              	.LASF123:
ARM GAS  C:\Users\DNIEL~1\AppData\Local\Temp\ccH33Zvb.s 			page 81


 4394 00ad 444D4132 		.ascii	"DMA2_Stream1_IRQn\000"
 4394      5F537472 
 4394      65616D31 
 4394      5F495251 
 4394      6E00
 4395              	.LASF117:
 4396 00bf 53504933 		.ascii	"SPI3_IRQn\000"
 4396      5F495251 
 4396      6E00
 4397              	.LASF70:
 4398 00c9 464C4153 		.ascii	"FLASH_IRQn\000"
 4398      485F4952 
 4398      516E00
 4399              	.LASF144:
 4400 00d4 44434D49 		.ascii	"DCMI_IRQn\000"
 4400      5F495251 
 4400      6E00
 4401              	.LASF219:
 4402 00de 636F6E66 		.ascii	"config\000"
 4402      696700
 4403              	.LASF218:
 4404 00e5 73746174 		.ascii	"state\000"
 4404      6500
 4405              	.LASF94:
 4406 00eb 54494D32 		.ascii	"TIM2_IRQn\000"
 4406      5F495251 
 4406      6E00
 4407              	.LASF255:
 4408 00f5 61646353 		.ascii	"adcSTM32DisableVBATE\000"
 4408      544D3332 
 4408      44697361 
 4408      626C6556 
 4408      42415445 
 4409              	.LASF232:
 4410 010a 6572726F 		.ascii	"error_cb\000"
 4410      725F6362 
 4410      00
 4411              	.LASF130:
 4412 0113 43414E32 		.ascii	"CAN2_RX0_IRQn\000"
 4412      5F525830 
 4412      5F495251 
 4412      6E00
 4413              	.LASF137:
 4414 0121 55534152 		.ascii	"USART6_IRQn\000"
 4414      54365F49 
 4414      52516E00 
 4415              	.LASF51:
 4416 012d 6D5F6F77 		.ascii	"m_owner\000"
 4416      6E657200 
 4417              	.LASF161:
 4418 0135 4A445234 		.ascii	"JDR4\000"
 4418      00
 4419              	.LASF231:
 4420 013a 656E645F 		.ascii	"end_cb\000"
 4420      636200
 4421              	.LASF54:
 4422 0141 65786974 		.ascii	"exitcode\000"
ARM GAS  C:\Users\DNIEL~1\AppData\Local\Temp\ccH33Zvb.s 			page 82


 4422      636F6465 
 4422      00
 4423              	.LASF142:
 4424 014a 4F54475F 		.ascii	"OTG_HS_WKUP_IRQn\000"
 4424      48535F57 
 4424      4B55505F 
 4424      4952516E 
 4424      00
 4425              	.LASF56:
 4426 015b 65776D61 		.ascii	"ewmask\000"
 4426      736B00
 4427              	.LASF109:
 4428 0162 54494D38 		.ascii	"TIM8_BRK_TIM12_IRQn\000"
 4428      5F42524B 
 4428      5F54494D 
 4428      31325F49 
 4428      52516E00 
 4429              	.LASF185:
 4430 0176 41484232 		.ascii	"AHB2LPENR\000"
 4430      4C50454E 
 4430      5200
 4431              	.LASF29:
 4432 0180 705F6E65 		.ascii	"p_newer\000"
 4432      77657200 
 4433              	.LASF9:
 4434 0188 6C6F6E67 		.ascii	"long int\000"
 4434      20696E74 
 4434      00
 4435              	.LASF25:
 4436 0191 705F6E65 		.ascii	"p_next\000"
 4436      787400
 4437              	.LASF26:
 4438 0198 705F7072 		.ascii	"p_prev\000"
 4438      657600
 4439              	.LASF226:
 4440 019f 646D616D 		.ascii	"dmamode\000"
 4440      6F646500 
 4441              	.LASF134:
 4442 01a7 444D4132 		.ascii	"DMA2_Stream5_IRQn\000"
 4442      5F537472 
 4442      65616D35 
 4442      5F495251 
 4442      6E00
 4443              	.LASF17:
 4444 01b9 74737461 		.ascii	"tstate_t\000"
 4444      74655F74 
 4444      00
 4445              	.LASF250:
 4446 01c2 56656374 		.ascii	"Vector88\000"
 4446      6F723838 
 4446      00
 4447              	.LASF41:
 4448 01cb 705F6D74 		.ascii	"p_mtxlist\000"
 4448      786C6973 
 4448      7400
 4449              	.LASF92:
 4450 01d5 54494D31 		.ascii	"TIM1_TRG_COM_TIM11_IRQn\000"
ARM GAS  C:\Users\DNIEL~1\AppData\Local\Temp\ccH33Zvb.s 			page 83


 4450      5F545247 
 4450      5F434F4D 
 4450      5F54494D 
 4450      31315F49 
 4451              	.LASF46:
 4452 01ed 72656761 		.ascii	"regarm_t\000"
 4452      726D5F74 
 4452      00
 4453              	.LASF242:
 4454 01f6 6164635F 		.ascii	"adc_lld_stop\000"
 4454      6C6C645F 
 4454      73746F70 
 4454      00
 4455              	.LASF182:
 4456 0203 41504232 		.ascii	"APB2ENR\000"
 4456      454E5200 
 4457              	.LASF184:
 4458 020b 41484231 		.ascii	"AHB1LPENR\000"
 4458      4C50454E 
 4458      5200
 4459              	.LASF65:
 4460 0215 53797354 		.ascii	"SysTick_IRQn\000"
 4460      69636B5F 
 4460      4952516E 
 4460      00
 4461              	.LASF105:
 4462 0222 55534152 		.ascii	"USART3_IRQn\000"
 4462      54335F49 
 4462      52516E00 
 4463              	.LASF196:
 4464 022e 44434B43 		.ascii	"DCKCFGR\000"
 4464      46475200 
 4465              	.LASF252:
 4466 0236 61646353 		.ascii	"adcSTM32EnableTSVREFE\000"
 4466      544D3332 
 4466      456E6162 
 4466      6C655453 
 4466      56524546 
 4467              	.LASF1:
 4468 024c 7369676E 		.ascii	"signed char\000"
 4468      65642063 
 4468      68617200 
 4469              	.LASF35:
 4470 0258 705F7072 		.ascii	"p_preempt\000"
 4470      65656D70 
 4470      7400
 4471              	.LASF3:
 4472 0262 75696E74 		.ascii	"uint8_t\000"
 4472      385F7400 
 4473              	.LASF22:
 4474 026a 6576656E 		.ascii	"eventmask_t\000"
 4474      746D6173 
 4474      6B5F7400 
 4475              	.LASF48:
 4476 0276 636F6E74 		.ascii	"context\000"
 4476      65787400 
 4477              	.LASF79:
ARM GAS  C:\Users\DNIEL~1\AppData\Local\Temp\ccH33Zvb.s 			page 84


 4478 027e 444D4131 		.ascii	"DMA1_Stream2_IRQn\000"
 4478      5F537472 
 4478      65616D32 
 4478      5F495251 
 4478      6E00
 4479              	.LASF173:
 4480 0290 52455345 		.ascii	"RESERVED0\000"
 4480      52564544 
 4480      3000
 4481              	.LASF176:
 4482 029a 52455345 		.ascii	"RESERVED1\000"
 4482      52564544 
 4482      3100
 4483              	.LASF4:
 4484 02a4 756E7369 		.ascii	"unsigned char\000"
 4484      676E6564 
 4484      20636861 
 4484      7200
 4485              	.LASF126:
 4486 02b2 444D4132 		.ascii	"DMA2_Stream4_IRQn\000"
 4486      5F537472 
 4486      65616D34 
 4486      5F495251 
 4486      6E00
 4487              	.LASF187:
 4488 02c4 52455345 		.ascii	"RESERVED4\000"
 4488      52564544 
 4488      3400
 4489              	.LASF190:
 4490 02ce 52455345 		.ascii	"RESERVED5\000"
 4490      52564544 
 4490      3500
 4491              	.LASF192:
 4492 02d8 52455345 		.ascii	"RESERVED6\000"
 4492      52564544 
 4492      3600
 4493              	.LASF216:
 4494 02e2 61646365 		.ascii	"adcerror_t\000"
 4494      72726F72 
 4494      5F7400
 4495              	.LASF98:
 4496 02ed 49324331 		.ascii	"I2C1_ER_IRQn\000"
 4496      5F45525F 
 4496      4952516E 
 4496      00
 4497              	.LASF205:
 4498 02fa 4144435F 		.ascii	"ADC_UNINIT\000"
 4498      554E494E 
 4498      495400
 4499              	.LASF132:
 4500 0305 43414E32 		.ascii	"CAN2_SCE_IRQn\000"
 4500      5F534345 
 4500      5F495251 
 4500      6E00
 4501              	.LASF207:
 4502 0313 4144435F 		.ascii	"ADC_READY\000"
 4502      52454144 
ARM GAS  C:\Users\DNIEL~1\AppData\Local\Temp\ccH33Zvb.s 			page 85


 4502      5900
 4503              	.LASF15:
 4504 031d 5F426F6F 		.ascii	"_Bool\000"
 4504      6C00
 4505              	.LASF180:
 4506 0323 52455345 		.ascii	"RESERVED2\000"
 4506      52564544 
 4506      3200
 4507              	.LASF183:
 4508 032d 52455345 		.ascii	"RESERVED3\000"
 4508      52564544 
 4508      3300
 4509              	.LASF116:
 4510 0337 54494D35 		.ascii	"TIM5_IRQn\000"
 4510      5F495251 
 4510      6E00
 4511              	.LASF212:
 4512 0341 61646373 		.ascii	"adcsample_t\000"
 4512      616D706C 
 4512      655F7400 
 4513              	.LASF61:
 4514 034d 55736167 		.ascii	"UsageFault_IRQn\000"
 4514      65466175 
 4514      6C745F49 
 4514      52516E00 
 4515              	.LASF57:
 4516 035d 63686172 		.ascii	"char\000"
 4516      00
 4517              	.LASF200:
 4518 0362 69736869 		.ascii	"ishift\000"
 4518      667400
 4519              	.LASF27:
 4520 0369 705F7072 		.ascii	"p_prio\000"
 4520      696F00
 4521              	.LASF178:
 4522 0370 41484232 		.ascii	"AHB2ENR\000"
 4522      454E5200 
 4523              	.LASF55:
 4524 0378 77746F62 		.ascii	"wtobjp\000"
 4524      6A7000
 4525              	.LASF86:
 4526 037f 43414E31 		.ascii	"CAN1_RX0_IRQn\000"
 4526      5F525830 
 4526      5F495251 
 4526      6E00
 4527              	.LASF210:
 4528 038d 4144435F 		.ascii	"ADC_ERROR\000"
 4528      4552524F 
 4528      5200
 4529              	.LASF247:
 4530 0397 666C6167 		.ascii	"flags\000"
 4530      7300
 4531              	.LASF229:
 4532 039d 63697263 		.ascii	"circular\000"
 4532      756C6172 
 4532      00
 4533              	.LASF96:
ARM GAS  C:\Users\DNIEL~1\AppData\Local\Temp\ccH33Zvb.s 			page 86


 4534 03a6 54494D34 		.ascii	"TIM4_IRQn\000"
 4534      5F495251 
 4534      6E00
 4535              	.LASF104:
 4536 03b0 55534152 		.ascii	"USART2_IRQn\000"
 4536      54325F49 
 4536      52516E00 
 4537              	.LASF198:
 4538 03bc 73747265 		.ascii	"stream\000"
 4538      616D00
 4539              	.LASF191:
 4540 03c3 42444352 		.ascii	"BDCR\000"
 4540      00
 4541              	.LASF220:
 4542 03c8 73616D70 		.ascii	"samples\000"
 4542      6C657300 
 4543              	.LASF261:
 4544 03d0 2E2E2F2E 		.ascii	"../../../ChibiOS/os/hal/platforms/STM32F4xx/adc_lld"
 4544      2E2F2E2E 
 4544      2F436869 
 4544      62694F53 
 4544      2F6F732F 
 4545 0403 2E6300   		.ascii	".c\000"
 4546              	.LASF97:
 4547 0406 49324331 		.ascii	"I2C1_EV_IRQn\000"
 4547      5F45565F 
 4547      4952516E 
 4547      00
 4548              	.LASF162:
 4549 0413 4144435F 		.ascii	"ADC_TypeDef\000"
 4549      54797065 
 4549      44656600 
 4550              	.LASF47:
 4551 041f 696E7463 		.ascii	"intctx\000"
 4551      747800
 4552              	.LASF40:
 4553 0426 705F6570 		.ascii	"p_epending\000"
 4553      656E6469 
 4553      6E6700
 4554              	.LASF169:
 4555 0431 43464752 		.ascii	"CFGR\000"
 4555      00
 4556              	.LASF93:
 4557 0436 54494D31 		.ascii	"TIM1_CC_IRQn\000"
 4557      5F43435F 
 4557      4952516E 
 4557      00
 4558              	.LASF146:
 4559 0443 48415348 		.ascii	"HASH_RNG_IRQn\000"
 4559      5F524E47 
 4559      5F495251 
 4559      6E00
 4560              	.LASF73:
 4561 0451 45585449 		.ascii	"EXTI1_IRQn\000"
 4561      315F4952 
 4561      516E00
 4562              	.LASF85:
ARM GAS  C:\Users\DNIEL~1\AppData\Local\Temp\ccH33Zvb.s 			page 87


 4563 045c 43414E31 		.ascii	"CAN1_TX_IRQn\000"
 4563      5F54585F 
 4563      4952516E 
 4563      00
 4564              	.LASF82:
 4565 0469 444D4131 		.ascii	"DMA1_Stream5_IRQn\000"
 4565      5F537472 
 4565      65616D35 
 4565      5F495251 
 4565      6E00
 4566              	.LASF111:
 4567 047b 54494D38 		.ascii	"TIM8_TRG_COM_TIM14_IRQn\000"
 4567      5F545247 
 4567      5F434F4D 
 4567      5F54494D 
 4567      31345F49 
 4568              	.LASF136:
 4569 0493 444D4132 		.ascii	"DMA2_Stream7_IRQn\000"
 4569      5F537472 
 4569      65616D37 
 4569      5F495251 
 4569      6E00
 4570              	.LASF133:
 4571 04a5 4F54475F 		.ascii	"OTG_FS_IRQn\000"
 4571      46535F49 
 4571      52516E00 
 4572              	.LASF58:
 4573 04b1 4E6F6E4D 		.ascii	"NonMaskableInt_IRQn\000"
 4573      61736B61 
 4573      626C6549 
 4573      6E745F49 
 4573      52516E00 
 4574              	.LASF66:
 4575 04c5 57574447 		.ascii	"WWDG_IRQn\000"
 4575      5F495251 
 4575      6E00
 4576              	.LASF11:
 4577 04cf 6C6F6E67 		.ascii	"long unsigned int\000"
 4577      20756E73 
 4577      69676E65 
 4577      6420696E 
 4577      7400
 4578              	.LASF181:
 4579 04e1 41504231 		.ascii	"APB1ENR\000"
 4579      454E5200 
 4580              	.LASF225:
 4581 04e9 646D6173 		.ascii	"dmastp\000"
 4581      747000
 4582              	.LASF59:
 4583 04f0 4D656D6F 		.ascii	"MemoryManagement_IRQn\000"
 4583      72794D61 
 4583      6E616765 
 4583      6D656E74 
 4583      5F495251 
 4584              	.LASF68:
 4585 0506 54414D50 		.ascii	"TAMP_STAMP_IRQn\000"
 4585      5F535441 
ARM GAS  C:\Users\DNIEL~1\AppData\Local\Temp\ccH33Zvb.s 			page 88


 4585      4D505F49 
 4585      52516E00 
 4586              	.LASF88:
 4587 0516 43414E31 		.ascii	"CAN1_SCE_IRQn\000"
 4587      5F534345 
 4587      5F495251 
 4587      6E00
 4588              	.LASF257:
 4589 0524 5F73746D 		.ascii	"_stm32_dma_streams\000"
 4589      33325F64 
 4589      6D615F73 
 4589      74726561 
 4589      6D7300
 4590              	.LASF122:
 4591 0537 444D4132 		.ascii	"DMA2_Stream0_IRQn\000"
 4591      5F537472 
 4591      65616D30 
 4591      5F495251 
 4591      6E00
 4592              	.LASF148:
 4593 0549 534D5052 		.ascii	"SMPR1\000"
 4593      3100
 4594              	.LASF149:
 4595 054f 534D5052 		.ascii	"SMPR2\000"
 4595      3200
 4596              	.LASF203:
 4597 0555 73746D33 		.ascii	"stm32_dma_stream_t\000"
 4597      325F646D 
 4597      615F7374 
 4597      7265616D 
 4597      5F7400
 4598              	.LASF100:
 4599 0568 49324332 		.ascii	"I2C2_ER_IRQn\000"
 4599      5F45525F 
 4599      4952516E 
 4599      00
 4600              	.LASF238:
 4601 0575 41444343 		.ascii	"ADCConversionGroup\000"
 4601      6F6E7665 
 4601      7273696F 
 4601      6E47726F 
 4601      757000
 4602              	.LASF209:
 4603 0588 4144435F 		.ascii	"ADC_COMPLETE\000"
 4603      434F4D50 
 4603      4C455445 
 4603      00
 4604              	.LASF233:
 4605 0595 736D7072 		.ascii	"smpr1\000"
 4605      3100
 4606              	.LASF234:
 4607 059b 736D7072 		.ascii	"smpr2\000"
 4607      3200
 4608              	.LASF244:
 4609 05a1 6164635F 		.ascii	"adc_lld_start_conversion\000"
 4609      6C6C645F 
 4609      73746172 
ARM GAS  C:\Users\DNIEL~1\AppData\Local\Temp\ccH33Zvb.s 			page 89


 4609      745F636F 
 4609      6E766572 
 4610              	.LASF60:
 4611 05ba 42757346 		.ascii	"BusFault_IRQn\000"
 4611      61756C74 
 4611      5F495251 
 4611      6E00
 4612              	.LASF168:
 4613 05c8 504C4C43 		.ascii	"PLLCFGR\000"
 4613      46475200 
 4614              	.LASF119:
 4615 05d0 55415254 		.ascii	"UART5_IRQn\000"
 4615      355F4952 
 4615      516E00
 4616              	.LASF90:
 4617 05db 54494D31 		.ascii	"TIM1_BRK_TIM9_IRQn\000"
 4617      5F42524B 
 4617      5F54494D 
 4617      395F4952 
 4617      516E00
 4618              	.LASF49:
 4619 05ee 4D757465 		.ascii	"Mutex\000"
 4619      7800
 4620              	.LASF121:
 4621 05f4 54494D37 		.ascii	"TIM7_IRQn\000"
 4621      5F495251 
 4621      6E00
 4622              	.LASF12:
 4623 05fe 6C6F6E67 		.ascii	"long long int\000"
 4623      206C6F6E 
 4623      6720696E 
 4623      7400
 4624              	.LASF128:
 4625 060c 4554485F 		.ascii	"ETH_WKUP_IRQn\000"
 4625      574B5550 
 4625      5F495251 
 4625      6E00
 4626              	.LASF102:
 4627 061a 53504932 		.ascii	"SPI2_IRQn\000"
 4627      5F495251 
 4627      6E00
 4628              	.LASF143:
 4629 0624 4F54475F 		.ascii	"OTG_HS_IRQn\000"
 4629      48535F49 
 4629      52516E00 
 4630              	.LASF50:
 4631 0630 6D5F7175 		.ascii	"m_queue\000"
 4631      65756500 
 4632              	.LASF193:
 4633 0638 53534347 		.ascii	"SSCGR\000"
 4633      5200
 4634              	.LASF101:
 4635 063e 53504931 		.ascii	"SPI1_IRQn\000"
 4635      5F495251 
 4635      6E00
 4636              	.LASF243:
 4637 0648 61646370 		.ascii	"adcp\000"
ARM GAS  C:\Users\DNIEL~1\AppData\Local\Temp\ccH33Zvb.s 			page 90


 4637      00
 4638              	.LASF228:
 4639 064d 61646365 		.ascii	"adcerrorcallback_t\000"
 4639      72726F72 
 4639      63616C6C 
 4639      6261636B 
 4639      5F7400
 4640              	.LASF62:
 4641 0660 53564361 		.ascii	"SVCall_IRQn\000"
 4641      6C6C5F49 
 4641      52516E00 
 4642              	.LASF175:
 4643 066c 41504232 		.ascii	"APB2RSTR\000"
 4643      52535452 
 4643      00
 4644              	.LASF221:
 4645 0675 64657074 		.ascii	"depth\000"
 4645      6800
 4646              	.LASF224:
 4647 067b 6D757465 		.ascii	"mutex\000"
 4647      7800
 4648              	.LASF147:
 4649 0681 4650555F 		.ascii	"FPU_IRQn\000"
 4649      4952516E 
 4649      00
 4650              	.LASF118:
 4651 068a 55415254 		.ascii	"UART4_IRQn\000"
 4651      345F4952 
 4651      516E00
 4652              	.LASF189:
 4653 0695 41504232 		.ascii	"APB2LPENR\000"
 4653      4C50454E 
 4653      5200
 4654              	.LASF37:
 4655 069f 705F7761 		.ascii	"p_waiting\000"
 4655      6974696E 
 4655      6700
 4656              	.LASF108:
 4657 06a9 4F54475F 		.ascii	"OTG_FS_WKUP_IRQn\000"
 4657      46535F57 
 4657      4B55505F 
 4657      4952516E 
 4657      00
 4658              	.LASF33:
 4659 06ba 705F666C 		.ascii	"p_flags\000"
 4659      61677300 
 4660              	.LASF201:
 4661 06c2 73656C66 		.ascii	"selfindex\000"
 4661      696E6465 
 4661      7800
 4662              	.LASF0:
 4663 06cc 756E7369 		.ascii	"unsigned int\000"
 4663      676E6564 
 4663      20696E74 
 4663      00
 4664              	.LASF120:
 4665 06d9 54494D36 		.ascii	"TIM6_DAC_IRQn\000"
ARM GAS  C:\Users\DNIEL~1\AppData\Local\Temp\ccH33Zvb.s 			page 91


 4665      5F444143 
 4665      5F495251 
 4665      6E00
 4666              	.LASF213:
 4667 06e7 6164635F 		.ascii	"adc_channels_num_t\000"
 4667      6368616E 
 4667      6E656C73 
 4667      5F6E756D 
 4667      5F7400
 4668              	.LASF43:
 4669 06fa 705F6D70 		.ascii	"p_mpool\000"
 4669      6F6F6C00 
 4670              	.LASF99:
 4671 0702 49324332 		.ascii	"I2C2_EV_IRQn\000"
 4671      5F45565F 
 4671      4952516E 
 4671      00
 4672              	.LASF34:
 4673 070f 705F7265 		.ascii	"p_refs\000"
 4673      667300
 4674              	.LASF230:
 4675 0716 6E756D5F 		.ascii	"num_channels\000"
 4675      6368616E 
 4675      6E656C73 
 4675      00
 4676              	.LASF45:
 4677 0723 54687265 		.ascii	"ThreadsList\000"
 4677      6164734C 
 4677      69737400 
 4678              	.LASF258:
 4679 072f 41444344 		.ascii	"ADCD2\000"
 4679      3200
 4680              	.LASF259:
 4681 0735 41444344 		.ascii	"ADCD3\000"
 4681      3300
 4682              	.LASF188:
 4683 073b 41504231 		.ascii	"APB1LPENR\000"
 4683      4C50454E 
 4683      5200
 4684              	.LASF78:
 4685 0745 444D4131 		.ascii	"DMA1_Stream1_IRQn\000"
 4685      5F537472 
 4685      65616D31 
 4685      5F495251 
 4685      6E00
 4686              	.LASF125:
 4687 0757 444D4132 		.ascii	"DMA2_Stream3_IRQn\000"
 4687      5F537472 
 4687      65616D33 
 4687      5F495251 
 4687      6E00
 4688              	.LASF129:
 4689 0769 43414E32 		.ascii	"CAN2_TX_IRQn\000"
 4689      5F54585F 
 4689      4952516E 
 4689      00
 4690              	.LASF246:
ARM GAS  C:\Users\DNIEL~1\AppData\Local\Temp\ccH33Zvb.s 			page 92


 4691 0776 6164635F 		.ascii	"adc_lld_stop_conversion\000"
 4691      6C6C645F 
 4691      73746F70 
 4691      5F636F6E 
 4691      76657273 
 4692              	.LASF167:
 4693 078e 444D415F 		.ascii	"DMA_Stream_TypeDef\000"
 4693      53747265 
 4693      616D5F54 
 4693      79706544 
 4693      656600
 4694              	.LASF36:
 4695 07a1 705F7469 		.ascii	"p_time\000"
 4695      6D6500
 4696              	.LASF263:
 4697 07a8 4952516E 		.ascii	"IRQn\000"
 4697      00
 4698              	.LASF83:
 4699 07ad 444D4131 		.ascii	"DMA1_Stream6_IRQn\000"
 4699      5F537472 
 4699      65616D36 
 4699      5F495251 
 4699      6E00
 4700              	.LASF172:
 4701 07bf 41484233 		.ascii	"AHB3RSTR\000"
 4701      52535452 
 4701      00
 4702              	.LASF42:
 4703 07c8 705F7265 		.ascii	"p_realprio\000"
 4703      616C7072 
 4703      696F00
 4704              	.LASF208:
 4705 07d3 4144435F 		.ascii	"ADC_ACTIVE\000"
 4705      41435449 
 4705      564500
 4706              	.LASF77:
 4707 07de 444D4131 		.ascii	"DMA1_Stream0_IRQn\000"
 4707      5F537472 
 4707      65616D30 
 4707      5F495251 
 4707      6E00
 4708              	.LASF174:
 4709 07f0 41504231 		.ascii	"APB1RSTR\000"
 4709      52535452 
 4709      00
 4710              	.LASF204:
 4711 07f9 73746D33 		.ascii	"stm32_dmaisr_t\000"
 4711      325F646D 
 4711      61697372 
 4711      5F7400
 4712              	.LASF107:
 4713 0808 5254435F 		.ascii	"RTC_Alarm_IRQn\000"
 4713      416C6172 
 4713      6D5F4952 
 4713      516E00
 4714              	.LASF139:
 4715 0817 49324333 		.ascii	"I2C3_ER_IRQn\000"
ARM GAS  C:\Users\DNIEL~1\AppData\Local\Temp\ccH33Zvb.s 			page 93


 4715      5F45525F 
 4715      4952516E 
 4715      00
 4716              	.LASF145:
 4717 0824 43525950 		.ascii	"CRYP_IRQn\000"
 4717      5F495251 
 4717      6E00
 4718              	.LASF260:
 4719 082e 474E5520 		.ascii	"GNU C 4.5.2\000"
 4719      4320342E 
 4719      352E3200 
 4720              	.LASF13:
 4721 083a 6C6F6E67 		.ascii	"long long unsigned int\000"
 4721      206C6F6E 
 4721      6720756E 
 4721      7369676E 
 4721      65642069 
 4722              	.LASF30:
 4723 0851 705F6F6C 		.ascii	"p_older\000"
 4723      64657200 
 4724              	.LASF6:
 4725 0859 75696E74 		.ascii	"uint16_t\000"
 4725      31365F74 
 4725      00
 4726              	.LASF21:
 4727 0862 6D73675F 		.ascii	"msg_t\000"
 4727      7400
 4728              	.LASF106:
 4729 0868 45585449 		.ascii	"EXTI15_10_IRQn\000"
 4729      31355F31 
 4729      305F4952 
 4729      516E00
 4730              	.LASF95:
 4731 0877 54494D33 		.ascii	"TIM3_IRQn\000"
 4731      5F495251 
 4731      6E00
 4732              	.LASF103:
 4733 0881 55534152 		.ascii	"USART1_IRQn\000"
 4733      54315F49 
 4733      52516E00 
 4734              	.LASF19:
 4735 088d 74736C69 		.ascii	"tslices_t\000"
 4735      6365735F 
 4735      7400
 4736              	.LASF249:
 4737 0897 68616C66 		.ascii	"half_index\000"
 4737      5F696E64 
 4737      657800
 4738              	.LASF74:
 4739 08a2 45585449 		.ascii	"EXTI2_IRQn\000"
 4739      325F4952 
 4739      516E00
 4740              	.LASF217:
 4741 08ad 41444344 		.ascii	"ADCDriver\000"
 4741      72697665 
 4741      7200
 4742              	.LASF251:
ARM GAS  C:\Users\DNIEL~1\AppData\Local\Temp\ccH33Zvb.s 			page 94


 4743 08b7 6164635F 		.ascii	"adc_lld_init\000"
 4743      6C6C645F 
 4743      696E6974 
 4743      00
 4744              	.LASF131:
 4745 08c4 43414E32 		.ascii	"CAN2_RX1_IRQn\000"
 4745      5F525831 
 4745      5F495251 
 4745      6E00
 4746              	.LASF202:
 4747 08d2 76656374 		.ascii	"vector\000"
 4747      6F7200
 4748              	.LASF84:
 4749 08d9 4144435F 		.ascii	"ADC_IRQn\000"
 4749      4952516E 
 4749      00
 4750              	.LASF215:
 4751 08e2 4144435F 		.ascii	"ADC_ERR_OVERFLOW\000"
 4751      4552525F 
 4751      4F564552 
 4751      464C4F57 
 4751      00
 4752              	.LASF248:
 4753 08f3 68616C66 		.ascii	"half\000"
 4753      00
 4754              	.LASF186:
 4755 08f8 41484233 		.ascii	"AHB3LPENR\000"
 4755      4C50454E 
 4755      5200
 4756              	.LASF254:
 4757 0902 61646353 		.ascii	"adcSTM32EnableVBATE\000"
 4757      544D3332 
 4757      456E6162 
 4757      6C655642 
 4757      41544500 
 4758              	.LASF67:
 4759 0916 5056445F 		.ascii	"PVD_IRQn\000"
 4759      4952516E 
 4759      00
 4760              	.LASF114:
 4761 091f 46534D43 		.ascii	"FSMC_IRQn\000"
 4761      5F495251 
 4761      6E00
 4762              	.LASF72:
 4763 0929 45585449 		.ascii	"EXTI0_IRQn\000"
 4763      305F4952 
 4763      516E00
 4764              	.LASF16:
 4765 0934 746D6F64 		.ascii	"tmode_t\000"
 4765      655F7400 
 4766              	.LASF81:
 4767 093c 444D4131 		.ascii	"DMA1_Stream4_IRQn\000"
 4767      5F537472 
 4767      65616D34 
 4767      5F495251 
 4767      6E00
 4768              	.LASF239:
ARM GAS  C:\Users\DNIEL~1\AppData\Local\Temp\ccH33Zvb.s 			page 95


 4769 094e 64756D6D 		.ascii	"dummy\000"
 4769      7900
 4770              	.LASF206:
 4771 0954 4144435F 		.ascii	"ADC_STOP\000"
 4771      53544F50 
 4771      00
 4772              	.LASF135:
 4773 095d 444D4132 		.ascii	"DMA2_Stream6_IRQn\000"
 4773      5F537472 
 4773      65616D36 
 4773      5F495251 
 4773      6E00
 4774              	.LASF177:
 4775 096f 41484231 		.ascii	"AHB1ENR\000"
 4775      454E5200 
 4776              	.LASF63:
 4777 0977 44656275 		.ascii	"DebugMonitor_IRQn\000"
 4777      674D6F6E 
 4777      69746F72 
 4777      5F495251 
 4777      6E00
 4778              	.LASF138:
 4779 0989 49324333 		.ascii	"I2C3_EV_IRQn\000"
 4779      5F45565F 
 4779      4952516E 
 4779      00
 4780              	.LASF222:
 4781 0996 67727070 		.ascii	"grpp\000"
 4781      00
 4782              	.LASF171:
 4783 099b 41484232 		.ascii	"AHB2RSTR\000"
 4783      52535452 
 4783      00
 4784              	.LASF223:
 4785 09a4 74687265 		.ascii	"thread\000"
 4785      616400
 4786              	.LASF165:
 4787 09ab 4D304152 		.ascii	"M0AR\000"
 4787      00
 4788              	.LASF127:
 4789 09b0 4554485F 		.ascii	"ETH_IRQn\000"
 4789      4952516E 
 4789      00
 4790              	.LASF197:
 4791 09b9 5243435F 		.ascii	"RCC_TypeDef\000"
 4791      54797065 
 4791      44656600 
 4792              	.LASF5:
 4793 09c5 73686F72 		.ascii	"short int\000"
 4793      7420696E 
 4793      7400
 4794              	.LASF71:
 4795 09cf 5243435F 		.ascii	"RCC_IRQn\000"
 4795      4952516E 
 4795      00
 4796              	.LASF245:
 4797 09d8 6D6F6465 		.ascii	"mode\000"
ARM GAS  C:\Users\DNIEL~1\AppData\Local\Temp\ccH33Zvb.s 			page 96


 4797      00
 4798              	.LASF150:
 4799 09dd 4A4F4652 		.ascii	"JOFR1\000"
 4799      3100
 4800              	.LASF151:
 4801 09e3 4A4F4652 		.ascii	"JOFR2\000"
 4801      3200
 4802              	.LASF152:
 4803 09e9 4A4F4652 		.ascii	"JOFR3\000"
 4803      3300
 4804              	.LASF153:
 4805 09ef 4A4F4652 		.ascii	"JOFR4\000"
 4805      3400
 4806              	.LASF80:
 4807 09f5 444D4131 		.ascii	"DMA1_Stream3_IRQn\000"
 4807      5F537472 
 4807      65616D33 
 4807      5F495251 
 4807      6E00
 4808              	.LASF14:
 4809 0a07 626F6F6C 		.ascii	"bool_t\000"
 4809      5F7400
 4810              	.LASF158:
 4811 0a0e 4A445231 		.ascii	"JDR1\000"
 4811      00
 4812              	.LASF159:
 4813 0a13 4A445232 		.ascii	"JDR2\000"
 4813      00
 4814              	.LASF160:
 4815 0a18 4A445233 		.ascii	"JDR3\000"
 4815      00
 4816              	.LASF24:
 4817 0a1d 54687265 		.ascii	"Thread\000"
 4817      616400
 4818              	.LASF157:
 4819 0a24 4A535152 		.ascii	"JSQR\000"
 4819      00
 4820              	.LASF91:
 4821 0a29 54494D31 		.ascii	"TIM1_UP_TIM10_IRQn\000"
 4821      5F55505F 
 4821      54494D31 
 4821      305F4952 
 4821      516E00
 4822              	.LASF256:
 4823 0a3c 49544D5F 		.ascii	"ITM_RxBuffer\000"
 4823      52784275 
 4823      66666572 
 4823      00
 4824              	.LASF18:
 4825 0a49 74726566 		.ascii	"trefs_t\000"
 4825      735F7400 
 4826              	.LASF140:
 4827 0a51 4F54475F 		.ascii	"OTG_HS_EP1_OUT_IRQn\000"
 4827      48535F45 
 4827      50315F4F 
 4827      55545F49 
 4827      52516E00 
ARM GAS  C:\Users\DNIEL~1\AppData\Local\Temp\ccH33Zvb.s 			page 97


 4828              	.LASF69:
 4829 0a65 5254435F 		.ascii	"RTC_WKUP_IRQn\000"
 4829      574B5550 
 4829      5F495251 
 4829      6E00
 4830              	.LASF164:
 4831 0a73 4E445452 		.ascii	"NDTR\000"
 4831      00
 4832              	.LASF10:
 4833 0a78 75696E74 		.ascii	"uint32_t\000"
 4833      33325F74 
 4833      00
 4834              	.LASF87:
 4835 0a81 43414E31 		.ascii	"CAN1_RX1_IRQn\000"
 4835      5F525831 
 4835      5F495251 
 4835      6E00
 4836              	.LASF44:
 4837 0a8f 54687265 		.ascii	"ThreadsQueue\000"
 4837      61647351 
 4837      75657565 
 4837      00
 4838              	.LASF262:
 4839 0a9c 433A5C44 		.ascii	"C:\\Dani\\MegaLux\\Repo\\Smarty\\Smarty\\smarty\\fi"
 4839      616E695C 
 4839      4D656761 
 4839      4C75785C 
 4839      5265706F 
 4840 0ac8 726D7761 		.ascii	"rmware\000"
 4840      726500
 4841              	.LASF89:
 4842 0acf 45585449 		.ascii	"EXTI9_5_IRQn\000"
 4842      395F355F 
 4842      4952516E 
 4842      00
 4843              	.LASF195:
 4844 0adc 504C4C53 		.ascii	"PLLSAICFGR\000"
 4844      41494346 
 4844      475200
 4845              	.LASF264:
 4846 0ae7 6164635F 		.ascii	"adc_lld_serve_rx_interrupt\000"
 4846      6C6C645F 
 4846      73657276 
 4846      655F7278 
 4846      5F696E74 
 4847              	.LASF53:
 4848 0b02 7264796D 		.ascii	"rdymsg\000"
 4848      736700
 4849              	.LASF76:
 4850 0b09 45585449 		.ascii	"EXTI4_IRQn\000"
 4850      345F4952 
 4850      516E00
 4851              	.LASF7:
 4852 0b14 73686F72 		.ascii	"short unsigned int\000"
 4852      7420756E 
 4852      7369676E 
 4852      65642069 
ARM GAS  C:\Users\DNIEL~1\AppData\Local\Temp\ccH33Zvb.s 			page 98


 4852      6E7400
 4853              	.LASF112:
 4854 0b27 54494D38 		.ascii	"TIM8_CC_IRQn\000"
 4854      5F43435F 
 4854      4952516E 
 4854      00
 4855              	.LASF115:
 4856 0b34 5344494F 		.ascii	"SDIO_IRQn\000"
 4856      5F495251 
 4856      6E00
 4857              	.LASF75:
 4858 0b3e 45585449 		.ascii	"EXTI3_IRQn\000"
 4858      335F4952 
 4858      516E00
 4859              	.LASF64:
 4860 0b49 50656E64 		.ascii	"PendSV_IRQn\000"
 4860      53565F49 
 4860      52516E00 
 4861              	.LASF141:
 4862 0b55 4F54475F 		.ascii	"OTG_HS_EP1_IN_IRQn\000"
 4862      48535F45 
 4862      50315F49 
 4862      4E5F4952 
 4862      516E00
 4863              	.LASF113:
 4864 0b68 444D4131 		.ascii	"DMA1_Stream7_IRQn\000"
 4864      5F537472 
 4864      65616D37 
 4864      5F495251 
 4864      6E00
 4865              	.LASF170:
 4866 0b7a 41484231 		.ascii	"AHB1RSTR\000"
 4866      52535452 
 4866      00
 4867              	.LASF163:
 4868 0b83 4144435F 		.ascii	"ADC_Common_TypeDef\000"
 4868      436F6D6D 
 4868      6F6E5F54 
 4868      79706544 
 4868      656600
 4869              	.LASF199:
 4870 0b96 69666372 		.ascii	"ifcr\000"
 4870      00
 4871              	.LASF31:
 4872 0b9b 705F6E61 		.ascii	"p_name\000"
 4872      6D6500
 4873              	.LASF52:
 4874 0ba2 6D5F6E65 		.ascii	"m_next\000"
 4874      787400
 4875              	.LASF253:
 4876 0ba9 61646353 		.ascii	"adcSTM32DisableTSVREFE\000"
 4876      544D3332 
 4876      44697361 
 4876      626C6554 
 4876      53565245 
 4877              	.LASF179:
 4878 0bc0 41484233 		.ascii	"AHB3ENR\000"
ARM GAS  C:\Users\DNIEL~1\AppData\Local\Temp\ccH33Zvb.s 			page 99


 4878      454E5200 
 4879              	.LASF124:
 4880 0bc8 444D4132 		.ascii	"DMA2_Stream2_IRQn\000"
 4880      5F537472 
 4880      65616D32 
 4880      5F495251 
 4880      6E00
 4881              	.LASF39:
 4882 0bda 705F6D73 		.ascii	"p_msg\000"
 4882      6700
 4883              	.LASF240:
 4884 0be0 41444343 		.ascii	"ADCConfig\000"
 4884      6F6E6669 
 4884      6700
 4885              	.LASF32:
 4886 0bea 705F7374 		.ascii	"p_state\000"
 4886      61746500 
 4887              		.ident	"GCC: (Sourcery G++ Lite 2011.03-42) 4.5.2"
ARM GAS  C:\Users\DNIEL~1\AppData\Local\Temp\ccH33Zvb.s 			page 100


DEFINED SYMBOLS
                            *ABS*:00000000 adc_lld.c
C:\Users\DNIEL~1\AppData\Local\Temp\ccH33Zvb.s:24     .text.adc_lld_init:00000000 $t
C:\Users\DNIEL~1\AppData\Local\Temp\ccH33Zvb.s:30     .text.adc_lld_init:00000000 adc_lld_init
C:\Users\DNIEL~1\AppData\Local\Temp\ccH33Zvb.s:89     .text.adc_lld_init:00000038 $d
C:\Users\DNIEL~1\AppData\Local\Temp\ccH33Zvb.s:100    .text.adc_lld_start:00000000 $t
C:\Users\DNIEL~1\AppData\Local\Temp\ccH33Zvb.s:106    .text.adc_lld_start:00000000 adc_lld_start
C:\Users\DNIEL~1\AppData\Local\Temp\ccH33Zvb.s:204    .text.adc_lld_start:00000074 $d
C:\Users\DNIEL~1\AppData\Local\Temp\ccH33Zvb.s:496    .text.adc_lld_serve_rx_interrupt:00000000 adc_lld_serve_rx_interrupt
C:\Users\DNIEL~1\AppData\Local\Temp\ccH33Zvb.s:216    .text.adc_lld_stop:00000000 $t
C:\Users\DNIEL~1\AppData\Local\Temp\ccH33Zvb.s:222    .text.adc_lld_stop:00000000 adc_lld_stop
C:\Users\DNIEL~1\AppData\Local\Temp\ccH33Zvb.s:282    .text.adc_lld_stop:00000040 $d
C:\Users\DNIEL~1\AppData\Local\Temp\ccH33Zvb.s:289    .text.adc_lld_start_conversion:00000000 $t
C:\Users\DNIEL~1\AppData\Local\Temp\ccH33Zvb.s:295    .text.adc_lld_start_conversion:00000000 adc_lld_start_conversion
C:\Users\DNIEL~1\AppData\Local\Temp\ccH33Zvb.s:435    .text.adc_lld_stop_conversion:00000000 $t
C:\Users\DNIEL~1\AppData\Local\Temp\ccH33Zvb.s:441    .text.adc_lld_stop_conversion:00000000 adc_lld_stop_conversion
C:\Users\DNIEL~1\AppData\Local\Temp\ccH33Zvb.s:491    .text.adc_lld_serve_rx_interrupt:00000000 $t
C:\Users\DNIEL~1\AppData\Local\Temp\ccH33Zvb.s:703    .text.Vector88:00000000 $t
C:\Users\DNIEL~1\AppData\Local\Temp\ccH33Zvb.s:709    .text.Vector88:00000000 Vector88
C:\Users\DNIEL~1\AppData\Local\Temp\ccH33Zvb.s:896    .text.Vector88:000000d8 $d
C:\Users\DNIEL~1\AppData\Local\Temp\ccH33Zvb.s:904    .text.adcSTM32EnableTSVREFE:00000000 $t
C:\Users\DNIEL~1\AppData\Local\Temp\ccH33Zvb.s:910    .text.adcSTM32EnableTSVREFE:00000000 adcSTM32EnableTSVREFE
C:\Users\DNIEL~1\AppData\Local\Temp\ccH33Zvb.s:927    .text.adcSTM32EnableTSVREFE:0000000c $d
C:\Users\DNIEL~1\AppData\Local\Temp\ccH33Zvb.s:932    .text.adcSTM32DisableTSVREFE:00000000 $t
C:\Users\DNIEL~1\AppData\Local\Temp\ccH33Zvb.s:938    .text.adcSTM32DisableTSVREFE:00000000 adcSTM32DisableTSVREFE
C:\Users\DNIEL~1\AppData\Local\Temp\ccH33Zvb.s:955    .text.adcSTM32DisableTSVREFE:0000000c $d
C:\Users\DNIEL~1\AppData\Local\Temp\ccH33Zvb.s:960    .text.adcSTM32EnableVBATE:00000000 $t
C:\Users\DNIEL~1\AppData\Local\Temp\ccH33Zvb.s:966    .text.adcSTM32EnableVBATE:00000000 adcSTM32EnableVBATE
C:\Users\DNIEL~1\AppData\Local\Temp\ccH33Zvb.s:983    .text.adcSTM32EnableVBATE:0000000c $d
C:\Users\DNIEL~1\AppData\Local\Temp\ccH33Zvb.s:988    .text.adcSTM32DisableVBATE:00000000 $t
C:\Users\DNIEL~1\AppData\Local\Temp\ccH33Zvb.s:994    .text.adcSTM32DisableVBATE:00000000 adcSTM32DisableVBATE
C:\Users\DNIEL~1\AppData\Local\Temp\ccH33Zvb.s:1011   .text.adcSTM32DisableVBATE:0000000c $d
C:\Users\DNIEL~1\AppData\Local\Temp\ccH33Zvb.s:1022   .bss.ADCD2:00000000 ADCD2
C:\Users\DNIEL~1\AppData\Local\Temp\ccH33Zvb.s:1029   .bss.ADCD3:00000000 ADCD3
C:\Users\DNIEL~1\AppData\Local\Temp\ccH33Zvb.s:1018   .bss.ADCD2:00000000 $d
C:\Users\DNIEL~1\AppData\Local\Temp\ccH33Zvb.s:1025   .bss.ADCD3:00000000 $d
                     .debug_frame:00000010 $d
C:\Users\DNIEL~1\AppData\Local\Temp\ccH33Zvb.s:99     .text.adc_lld_init:00000054 $t
C:\Users\DNIEL~1\AppData\Local\Temp\ccH33Zvb.s:288    .text.adc_lld_stop:0000004c $t
C:\Users\DNIEL~1\AppData\Local\Temp\ccH33Zvb.s:4887   .text.Vector88:000000e8 $t

UNDEFINED SYMBOLS
adcObjectInit
nvicEnableVector
_stm32_dma_streams
dmaStreamAllocate
dmaStreamRelease
chSchReadyI
_port_irq_epilogue
