ARM GAS  C:\Users\DNIEL~1\AppData\Local\Temp\ccviRFHD.s 			page 1


   1              		.syntax unified
   2              		.cpu cortex-m4
   3              		.fpu softvfp
   4              		.eabi_attribute 20, 1
   5              		.eabi_attribute 21, 1
   6              		.eabi_attribute 23, 3
   7              		.eabi_attribute 24, 1
   8              		.eabi_attribute 25, 1
   9              		.eabi_attribute 26, 1
  10              		.eabi_attribute 30, 2
  11              		.eabi_attribute 18, 4
  12              		.thumb
  13              		.file	"button.c"
  20 0000 80040000 		.text
  20      02009202 
  20      00000201 
  20      FB0E0D00 
  20      01010101 
  21              	.Ltext0:
  22              		.cfi_sections	.debug_frame
  23              		.section	.text.chprintf,"ax",%progbits
  24              		.align	2
  25              		.p2align 4,,15
  26              		.thumb
  27              		.thumb_func
  28              		.type	chprintf, %function
  29              	chprintf:
  30              	.LFB118:
  31              		.file 1 "../../../ChibiOS/os/various/chprintf.h"
  32              		.loc 1 69 0
  33              		.cfi_startproc
  34              		@ args = 4, pretend = 12, frame = 8
  35              		@ frame_needed = 0, uses_anonymous_args = 1
  36              	.LVL0:
  37 0000 0EB4     		push	{r1, r2, r3}
  38              	.LCFI0:
  39              		.cfi_def_cfa_offset 12
  40 0002 00B5     		push	{lr}
  41              	.LCFI1:
  42              		.cfi_def_cfa_offset 16
  43 0004 82B0     		sub	sp, sp, #8
  44              	.LCFI2:
  45              		.cfi_def_cfa_offset 24
  46              		.loc 1 69 0
  47 0006 03AB     		add	r3, sp, #12
  48              		.cfi_offset 14, -16
  49              		.cfi_offset 3, -4
  50              		.cfi_offset 2, -8
  51              		.cfi_offset 1, -12
  52 0008 53F8041B 		ldr	r1, [r3], #4
  53              		.loc 1 73 0
ARM GAS  C:\Users\DNIEL~1\AppData\Local\Temp\ccviRFHD.s 			page 2


  54 000c 1A46     		mov	r2, r3
  55              		.loc 1 72 0
  56 000e 0193     		str	r3, [sp, #4]
  57              		.loc 1 73 0
  58 0010 FFF7FEFF 		bl	chvprintf
  59              	.LVL1:
  60              		.loc 1 75 0
  61 0014 02B0     		add	sp, sp, #8
  62 0016 5DF804EB 		pop	{lr}
  63 001a 03B0     		add	sp, sp, #12
  64 001c 7047     		bx	lr
  65              		.cfi_endproc
  66              	.LFE118:
  67              		.size	chprintf, .-chprintf
  68 001e 00BF     		.section	.text.buttonInit,"ax",%progbits
  69              		.align	2
  70              		.p2align 4,,15
  71              		.global	buttonInit
  72              		.thumb
  73              		.thumb_func
  74              		.type	buttonInit, %function
  75              	buttonInit:
  76              	.LFB119:
  77              		.file 2 "src/button.c"
  78              		.loc 2 42 0
  79              		.cfi_startproc
  80              		@ args = 0, pretend = 0, frame = 0
  81              		@ frame_needed = 0, uses_anonymous_args = 0
  82              		@ link register save eliminated.
  83              		.loc 2 43 0
  84 0000 0848     		ldr	r0, .L3
  85              		.loc 2 44 0
  86 0002 094A     		ldr	r2, .L3+4
  87              		.loc 2 45 0
  88 0004 0949     		ldr	r1, .L3+8
  89              		.loc 2 43 0
  90 0006 0023     		movs	r3, #0
  91 0008 0370     		strb	r3, [r0, #0]
  92              		.loc 2 44 0
  93 000a 1370     		strb	r3, [r2, #0]
  94              		.loc 2 46 0
  95 000c 0848     		ldr	r0, .L3+12
  96              		.loc 2 48 0
  97 000e 094A     		ldr	r2, .L3+16
  98              		.loc 2 45 0
  99 0010 0B80     		strh	r3, [r1, #0]	@ movhi
 100              		.loc 2 46 0
 101 0012 0370     		strb	r3, [r0, #0]
 102              		.loc 2 48 0
 103 0014 1370     		strb	r3, [r2, #0]
 104              		.loc 2 49 0
 105 0016 0849     		ldr	r1, .L3+20
 106              		.loc 2 50 0
 107 0018 0848     		ldr	r0, .L3+24
 108              		.loc 2 52 0
 109 001a 094A     		ldr	r2, .L3+28
 110              		.loc 2 49 0
ARM GAS  C:\Users\DNIEL~1\AppData\Local\Temp\ccviRFHD.s 			page 3


 111 001c 0B70     		strb	r3, [r1, #0]
 112              		.loc 2 50 0
 113 001e 0370     		strb	r3, [r0, #0]
 114              		.loc 2 52 0
 115 0020 1380     		strh	r3, [r2, #0]	@ movhi
 116              		.loc 2 53 0
 117 0022 7047     		bx	lr
 118              	.L4:
 119              		.align	2
 120              	.L3:
 121 0024 00000000 		.word	.LANCHOR0
 122 0028 00000000 		.word	.LANCHOR1
 123 002c 00000000 		.word	.LANCHOR2
 124 0030 00000000 		.word	.LANCHOR3
 125 0034 00000000 		.word	.LANCHOR4
 126 0038 00000000 		.word	.LANCHOR5
 127 003c 00000000 		.word	.LANCHOR6
 128 0040 00000000 		.word	.LANCHOR7
 129              		.cfi_endproc
 130              	.LFE119:
 131              		.size	buttonInit, .-buttonInit
 132              		.global	__aeabi_ui2d
 133 0044 AFF30080 		.section	.text.buttonCalc,"ax",%progbits
 133      AFF30080 
 133      AFF30080 
 134              		.align	2
 135              		.p2align 4,,15
 136              		.global	buttonCalc
 137              		.thumb
 138              		.thumb_func
 139              		.type	buttonCalc, %function
 140              	buttonCalc:
 141              	.LFB120:
 142              		.loc 2 55 0
 143              		.cfi_startproc
 144              		@ args = 0, pretend = 0, frame = 0
 145              		@ frame_needed = 0, uses_anonymous_args = 0
 146 0000 2DE9F047 		push	{r4, r5, r6, r7, r8, r9, sl, lr}
 147              	.LCFI3:
 148              		.cfi_def_cfa_offset 32
 149              		.loc 2 58 0
 150              		.cfi_offset 14, -4
 151              		.cfi_offset 10, -8
 152              		.cfi_offset 9, -12
 153              		.cfi_offset 8, -16
 154              		.cfi_offset 7, -20
 155              		.cfi_offset 6, -24
 156              		.cfi_offset 5, -28
 157              		.cfi_offset 4, -32
 158 0004 FFF7FEFF 		bl	dspGetValue
 159 0008 8F4B     		ldr	r3, .L86
 160              		.loc 2 60 0
 161 000a 0628     		cmp	r0, #6
 162              		.loc 2 58 0
 163 000c 1880     		strh	r0, [r3, #0]	@ movhi
 164              		.loc 2 60 0
 165 000e 5AD9     		bls	.L68
ARM GAS  C:\Users\DNIEL~1\AppData\Local\Temp\ccviRFHD.s 			page 4


 166              		.loc 2 60 0 is_stmt 0 discriminator 1
 167 0010 1F28     		cmp	r0, #31
 168 0012 58D0     		beq	.L68
 169              		.loc 2 64 0 is_stmt 1
 170 0014 10F00101 		ands	r1, r0, #1
 171              		.loc 2 69 0
 172 0018 8C4C     		ldr	r4, .L86+4
 173              		.loc 2 66 0
 174 001a 18BF     		it	ne
 175 001c 0121     		movne	r1, #1
 176              		.loc 2 64 0
 177 001e C0F34003 		ubfx	r3, r0, #1, #1
 178              		.loc 2 66 0
 179 0022 2170     		strb	r1, [r4, #0]
 180              	.LVL2:
 181              		.loc 2 64 0
 182 0024 03B1     		cbz	r3, .L62
 183              		.loc 2 66 0
 184 0026 0123     		movs	r3, #1
 185              	.L62:
 186 0028 6370     		strb	r3, [r4, #1]
 187              	.LVL3:
 188              		.loc 2 64 0
 189 002a C0F38003 		ubfx	r3, r0, #2, #1
 190 002e 03B1     		cbz	r3, .L63
 191              		.loc 2 66 0
 192 0030 0123     		movs	r3, #1
 193              	.L63:
 194 0032 A370     		strb	r3, [r4, #2]
 195              	.LVL4:
 196              		.loc 2 64 0
 197 0034 C0F3C003 		ubfx	r3, r0, #3, #1
 198 0038 03B1     		cbz	r3, .L64
 199              		.loc 2 66 0
 200 003a 0123     		movs	r3, #1
 201              	.L64:
 202 003c E370     		strb	r3, [r4, #3]
 203              	.LVL5:
 204              		.loc 2 64 0
 205 003e C0F30013 		ubfx	r3, r0, #4, #1
 206 0042 03B1     		cbz	r3, .L65
 207              		.loc 2 66 0
 208 0044 0123     		movs	r3, #1
 209              	.L65:
 210 0046 2371     		strb	r3, [r4, #4]
 211              	.LVL6:
 212              		.loc 2 64 0
 213 0048 C0F34013 		ubfx	r3, r0, #5, #1
 214 004c 03B1     		cbz	r3, .L66
 215              		.loc 2 66 0
 216 004e 0123     		movs	r3, #1
 217              	.L66:
 218 0050 6371     		strb	r3, [r4, #5]
 219              	.LVL7:
 220              		.loc 2 64 0
 221 0052 C0F38013 		ubfx	r3, r0, #6, #1
 222 0056 03B1     		cbz	r3, .L67
ARM GAS  C:\Users\DNIEL~1\AppData\Local\Temp\ccviRFHD.s 			page 5


 223              		.loc 2 66 0
 224 0058 0123     		movs	r3, #1
 225              	.L67:
 226              		.loc 2 64 0
 227 005a C0F3C010 		ubfx	r0, r0, #7, #1
 228              		.loc 2 66 0
 229 005e A371     		strb	r3, [r4, #6]
 230              	.LVL8:
 231              		.loc 2 64 0
 232 0060 0028     		cmp	r0, #0
 233 0062 00F0E580 		beq	.L21
 234              		.loc 2 66 0
 235 0066 0120     		movs	r0, #1
 236 0068 E071     		strb	r0, [r4, #7]
 237              		.loc 2 75 0
 238 006a E579     		ldrb	r5, [r4, #7]	@ zero_extendqisi2
 239 006c 002D     		cmp	r5, #0
 240 006e 2ED1     		bne	.L23
 241              	.LVL9:
 242              	.L74:
 243              		.loc 2 75 0 is_stmt 0 discriminator 1
 244 0070 774E     		ldr	r6, .L86+8
 245 0072 3278     		ldrb	r2, [r6, #0]	@ zero_extendqisi2
 246 0074 002A     		cmp	r2, #0
 247 0076 40F0DD80 		bne	.L70
 248              	.L24:
 249              		.loc 2 93 0 is_stmt 1
 250 007a E578     		ldrb	r5, [r4, #3]	@ zero_extendqisi2
 251 007c 002D     		cmp	r5, #0
 252 007e 2CD0     		beq	.L71
 253              	.L26:
 254              		.loc 2 115 0
 255 0080 744B     		ldr	r3, .L86+12
 256 0082 1878     		ldrb	r0, [r3, #0]	@ zero_extendqisi2
 257 0084 0028     		cmp	r0, #0
 258 0086 40F01981 		bne	.L72
 259              	.L29:
 260              		.loc 2 121 0
 261 008a 7349     		ldr	r1, .L86+16
 262              		.loc 2 120 0
 263 008c 734B     		ldr	r3, .L86+20
 264              		.loc 2 121 0
 265 008e 0025     		movs	r5, #0
 266 0090 0D80     		strh	r5, [r1, #0]	@ movhi
 267              		.loc 2 125 0
 268 0092 A578     		ldrb	r5, [r4, #2]	@ zero_extendqisi2
 269              		.loc 2 120 0
 270 0094 0120     		movs	r0, #1
 271 0096 1870     		strb	r0, [r3, #0]
 272              		.loc 2 125 0
 273 0098 002D     		cmp	r5, #0
 274 009a 31D1     		bne	.L30
 275              	.L77:
 276              		.loc 2 125 0 is_stmt 0 discriminator 1
 277 009c 704E     		ldr	r6, .L86+24
 278 009e 3278     		ldrb	r2, [r6, #0]	@ zero_extendqisi2
 279 00a0 002A     		cmp	r2, #0
ARM GAS  C:\Users\DNIEL~1\AppData\Local\Temp\ccviRFHD.s 			page 6


 280 00a2 40F02A81 		bne	.L73
 281              		.loc 2 130 0 is_stmt 1 discriminator 1
 282 00a6 6F49     		ldr	r1, .L86+28
 283 00a8 0B88     		ldrh	r3, [r1, #0]
 284 00aa 581C     		adds	r0, r3, #1
 285 00ac 1FFA80FE 		uxth	lr, r0
 286              		.loc 2 138 0 discriminator 1
 287 00b0 BEF1320F 		cmp	lr, #50
 288              		.loc 2 130 0 discriminator 1
 289 00b4 A1F800E0 		strh	lr, [r1, #0]	@ movhi
 290              		.loc 2 138 0 discriminator 1
 291 00b8 2DD9     		bls	.L32
 292              		.loc 2 140 0
 293 00ba FFF7FEFF 		bl	cruiseDecelerat
 294              		.loc 2 141 0
 295 00be 6A49     		ldr	r1, .L86+32
 296 00c0 0122     		movs	r2, #1
 297 00c2 0A70     		strb	r2, [r1, #0]
 298 00c4 27E0     		b	.L32
 299              	.L68:
 300 00c6 614C     		ldr	r4, .L86+4
 301              	.L6:
 302              		.loc 2 75 0
 303 00c8 E579     		ldrb	r5, [r4, #7]	@ zero_extendqisi2
 304 00ca 002D     		cmp	r5, #0
 305 00cc D0D0     		beq	.L74
 306              	.L23:
 307              		.loc 2 89 0
 308 00ce 604B     		ldr	r3, .L86+8
 309 00d0 0125     		movs	r5, #1
 310 00d2 1D70     		strb	r5, [r3, #0]
 311              		.loc 2 93 0
 312 00d4 E578     		ldrb	r5, [r4, #3]	@ zero_extendqisi2
 313 00d6 002D     		cmp	r5, #0
 314 00d8 D2D1     		bne	.L26
 315              	.L71:
 316              		.loc 2 93 0 is_stmt 0 discriminator 1
 317 00da 604E     		ldr	r6, .L86+20
 318 00dc 3178     		ldrb	r1, [r6, #0]	@ zero_extendqisi2
 319 00de 0029     		cmp	r1, #0
 320 00e0 40F0D680 		bne	.L75
 321              		.loc 2 98 0 is_stmt 1 discriminator 1
 322 00e4 5C48     		ldr	r0, .L86+16
 323 00e6 0588     		ldrh	r5, [r0, #0]
 324 00e8 6A1C     		adds	r2, r5, #1
 325 00ea 1FFA82FC 		uxth	ip, r2
 326              		.loc 2 107 0 discriminator 1
 327 00ee BCF1320F 		cmp	ip, #50
 328              		.loc 2 98 0 discriminator 1
 329 00f2 A0F800C0 		strh	ip, [r0, #0]	@ movhi
 330              		.loc 2 107 0 discriminator 1
 331 00f6 00F23381 		bhi	.L76
 332              	.L28:
 333              		.loc 2 125 0
 334 00fa A578     		ldrb	r5, [r4, #2]	@ zero_extendqisi2
 335 00fc 002D     		cmp	r5, #0
 336 00fe CDD0     		beq	.L77
ARM GAS  C:\Users\DNIEL~1\AppData\Local\Temp\ccviRFHD.s 			page 7


 337              	.L30:
 338              		.loc 2 146 0
 339 0100 594B     		ldr	r3, .L86+32
 340 0102 1878     		ldrb	r0, [r3, #0]	@ zero_extendqisi2
 341 0104 0028     		cmp	r0, #0
 342 0106 40F00281 		bne	.L78
 343              	.L33:
 344              		.loc 2 151 0
 345 010a 554A     		ldr	r2, .L86+24
 346              		.loc 2 152 0
 347 010c 554B     		ldr	r3, .L86+28
 348              		.loc 2 151 0
 349 010e 0120     		movs	r0, #1
 350              		.loc 2 152 0
 351 0110 0021     		movs	r1, #0
 352              		.loc 2 151 0
 353 0112 1070     		strb	r0, [r2, #0]
 354              		.loc 2 152 0
 355 0114 1980     		strh	r1, [r3, #0]	@ movhi
 356              	.L32:
 357              		.loc 2 156 0
 358 0116 554B     		ldr	r3, .L86+36
 359 0118 1969     		ldr	r1, [r3, #16]
 360 011a 11F0040F 		tst	r1, #4
 361 011e 3CD1     		bne	.L34
 362              		.loc 2 156 0 is_stmt 0 discriminator 1
 363 0120 534D     		ldr	r5, .L86+40
 364 0122 2878     		ldrb	r0, [r5, #0]	@ zero_extendqisi2
 365 0124 0028     		cmp	r0, #0
 366 0126 38D0     		beq	.L34
 367              		.loc 2 157 0 is_stmt 1
 368 0128 524E     		ldr	r6, .L86+44
 369 012a 3778     		ldrb	r7, [r6, #0]	@ zero_extendqisi2
 370 012c 002F     		cmp	r7, #0
 371 012e 40F0CE80 		bne	.L79
 372              		.loc 2 157 0 is_stmt 0 discriminator 1
 373 0132 514F     		ldr	r7, .L86+48
 374 0134 3A78     		ldrb	r2, [r7, #0]	@ zero_extendqisi2
 375 0136 002A     		cmp	r2, #0
 376 0138 00F0FE80 		beq	.L59
 377 013c DFF84C81 		ldr	r8, .L86+68
 378              	.L35:
 379              	.LBB2:
 380              		.loc 2 159 0 is_stmt 1
 381 0140 0020     		movs	r0, #0
 382 0142 FFF7FEFF 		bl	lightFlashing
 383              	.LBE2:
 384              		.loc 2 179 0
 385 0146 494A     		ldr	r2, .L86+36
 386 0148 1069     		ldr	r0, [r2, #16]
 387              	.LBB3:
 388              		.loc 2 160 0
 389 014a 0021     		movs	r1, #0
 390              	.LBE3:
 391              		.loc 2 179 0
 392 014c 10F0080F 		tst	r0, #8
 393              	.LBB4:
ARM GAS  C:\Users\DNIEL~1\AppData\Local\Temp\ccviRFHD.s 			page 8


 394              		.loc 2 160 0
 395 0150 2970     		strb	r1, [r5, #0]
 396              		.loc 2 162 0
 397 0152 3170     		strb	r1, [r6, #0]
 398              		.loc 2 163 0
 399 0154 3970     		strb	r1, [r7, #0]
 400              		.loc 2 164 0
 401 0156 88F80010 		strb	r1, [r8, #0]
 402              	.LBE4:
 403              		.loc 2 179 0
 404 015a 2BD0     		beq	.L80
 405              	.L38:
 406              		.loc 2 196 0
 407 015c 434B     		ldr	r3, .L86+36
 408 015e 1969     		ldr	r1, [r3, #16]
 409 0160 11F0080F 		tst	r1, #8
 410 0164 02D0     		beq	.L41
 411              		.loc 2 198 0
 412 0166 454A     		ldr	r2, .L86+52
 413 0168 0120     		movs	r0, #1
 414 016a 1070     		strb	r0, [r2, #0]
 415              	.L41:
 416              		.loc 2 202 0
 417 016c 3F4B     		ldr	r3, .L86+36
 418 016e 1969     		ldr	r1, [r3, #16]
 419 0170 11F0080F 		tst	r1, #8
 420 0174 3CD1     		bne	.L42
 421              	.L84:
 422              		.loc 2 202 0 is_stmt 0 discriminator 1
 423 0176 424D     		ldr	r5, .L86+56
 424 0178 2878     		ldrb	r0, [r5, #0]	@ zero_extendqisi2
 425 017a 0028     		cmp	r0, #0
 426 017c 38D0     		beq	.L42
 427              		.loc 2 203 0 is_stmt 1
 428 017e 1E69     		ldr	r6, [r3, #16]
 429 0180 C6F38006 		ubfx	r6, r6, #2, #1
 430 0184 002E     		cmp	r6, #0
 431 0186 00F08D80 		beq	.L81
 432              	.L43:
 433              		.loc 2 224 0
 434 018a 2279     		ldrb	r2, [r4, #4]	@ zero_extendqisi2
 435 018c 002A     		cmp	r2, #0
 436 018e 3ED0     		beq	.L82
 437              	.L45:
 438              		.loc 2 250 0
 439 0190 3C4B     		ldr	r3, .L86+60
 440 0192 0120     		movs	r0, #1
 441 0194 1870     		strb	r0, [r3, #0]
 442              	.L5:
 443 0196 BDE8F087 		pop	{r4, r5, r6, r7, r8, r9, sl, pc}
 444              	.L34:
 445              		.loc 2 173 0
 446 019a 344A     		ldr	r2, .L86+36
 447 019c 1069     		ldr	r0, [r2, #16]
 448 019e 10F0040F 		tst	r0, #4
 449 01a2 02D0     		beq	.L37
 450              		.loc 2 175 0
ARM GAS  C:\Users\DNIEL~1\AppData\Local\Temp\ccviRFHD.s 			page 9


 451 01a4 324B     		ldr	r3, .L86+40
 452 01a6 0121     		movs	r1, #1
 453 01a8 1970     		strb	r1, [r3, #0]
 454              	.L37:
 455              		.loc 2 179 0
 456 01aa 304A     		ldr	r2, .L86+36
 457 01ac 1069     		ldr	r0, [r2, #16]
 458 01ae 10F0080F 		tst	r0, #8
 459 01b2 D3D1     		bne	.L38
 460              	.L80:
 461              		.loc 2 179 0 is_stmt 0 discriminator 1
 462 01b4 314D     		ldr	r5, .L86+52
 463 01b6 2978     		ldrb	r1, [r5, #0]	@ zero_extendqisi2
 464 01b8 0029     		cmp	r1, #0
 465 01ba CFD0     		beq	.L38
 466              		.loc 2 180 0 is_stmt 1
 467 01bc 2E4E     		ldr	r6, .L86+48
 468 01be 3778     		ldrb	r7, [r6, #0]	@ zero_extendqisi2
 469 01c0 002F     		cmp	r7, #0
 470 01c2 40F08080 		bne	.L83
 471              		.loc 2 180 0 is_stmt 0 discriminator 1
 472 01c6 2B4F     		ldr	r7, .L86+44
 473 01c8 3B78     		ldrb	r3, [r7, #0]	@ zero_extendqisi2
 474 01ca 002B     		cmp	r3, #0
 475 01cc 00F0A480 		beq	.L61
 476 01d0 DFF8B880 		ldr	r8, .L86+68
 477              	.L39:
 478              	.LBB5:
 479              		.loc 2 182 0 is_stmt 1
 480 01d4 0020     		movs	r0, #0
 481 01d6 FFF7FEFF 		bl	lightFlashing
 482              	.LBE5:
 483              		.loc 2 202 0
 484 01da 244B     		ldr	r3, .L86+36
 485 01dc 1969     		ldr	r1, [r3, #16]
 486              	.LBB6:
 487              		.loc 2 183 0
 488 01de 0020     		movs	r0, #0
 489              	.LBE6:
 490              		.loc 2 202 0
 491 01e0 11F0080F 		tst	r1, #8
 492              	.LBB7:
 493              		.loc 2 183 0
 494 01e4 2870     		strb	r0, [r5, #0]
 495              		.loc 2 185 0
 496 01e6 3070     		strb	r0, [r6, #0]
 497              		.loc 2 186 0
 498 01e8 3870     		strb	r0, [r7, #0]
 499              		.loc 2 187 0
 500 01ea 88F80000 		strb	r0, [r8, #0]
 501              	.LBE7:
 502              		.loc 2 202 0
 503 01ee C2D0     		beq	.L84
 504              	.L42:
 505              		.loc 2 218 0
 506 01f0 1E4B     		ldr	r3, .L86+36
 507 01f2 1A69     		ldr	r2, [r3, #16]
ARM GAS  C:\Users\DNIEL~1\AppData\Local\Temp\ccviRFHD.s 			page 10


 508 01f4 12F0080F 		tst	r2, #8
 509 01f8 C7D0     		beq	.L43
 510              		.loc 2 218 0 is_stmt 0 discriminator 1
 511 01fa 1969     		ldr	r1, [r3, #16]
 512 01fc 11F0040F 		tst	r1, #4
 513 0200 C3D0     		beq	.L43
 514              		.loc 2 220 0 is_stmt 1
 515 0202 1F4B     		ldr	r3, .L86+56
 516              		.loc 2 224 0
 517 0204 2279     		ldrb	r2, [r4, #4]	@ zero_extendqisi2
 518              		.loc 2 220 0
 519 0206 0120     		movs	r0, #1
 520 0208 1870     		strb	r0, [r3, #0]
 521              		.loc 2 224 0
 522 020a 002A     		cmp	r2, #0
 523 020c C0D1     		bne	.L45
 524              	.L82:
 525              		.loc 2 226 0
 526 020e 1E4C     		ldr	r4, .L86+64
 527              		.loc 2 227 0
 528 0210 1C4D     		ldr	r5, .L86+60
 529              		.loc 2 226 0
 530 0212 2378     		ldrb	r3, [r4, #0]	@ zero_extendqisi2
 531              		.loc 2 227 0
 532 0214 2978     		ldrb	r1, [r5, #0]	@ zero_extendqisi2
 533              		.loc 2 226 0
 534 0216 581C     		adds	r0, r3, #1
 535 0218 C3B2     		uxtb	r3, r0
 536 021a 2370     		strb	r3, [r4, #0]
 537              		.loc 2 227 0
 538 021c 0029     		cmp	r1, #0
 539 021e 5AD1     		bne	.L85
 540              	.L46:
 541              		.loc 2 241 0
 542 0220 642B     		cmp	r3, #100
 543 0222 B8D9     		bls	.L5
 544              	.LBB8:
 545              		.loc 2 243 0
 546 0224 0021     		movs	r1, #0
 547 0226 2170     		strb	r1, [r4, #0]
 548              	.LBE8:
 549              		.loc 2 252 0
 550 0228 BDE8F047 		pop	{r4, r5, r6, r7, r8, r9, sl, lr}
 551              	.LBB9:
 552              		.loc 2 244 0
 553 022c FFF7FEBF 		b	lightLampDemoOn
 554              	.LVL10:
 555              	.L21:
 556              	.LBE9:
 557              		.loc 2 69 0
 558 0230 E071     		strb	r0, [r4, #7]
 559              	.LVL11:
 560 0232 49E7     		b	.L6
 561              	.LVL12:
 562              	.L70:
 563              		.loc 2 76 0
 564 0234 FFF7FEFF 		bl	cruiseStatus
ARM GAS  C:\Users\DNIEL~1\AppData\Local\Temp\ccviRFHD.s 			page 11


 565 0238 0746     		mov	r7, r0
 566 023a 0028     		cmp	r0, #0
 567 023c 00F08C80 		beq	.L25
 568              		.loc 2 78 0
 569 0240 FFF7FEFF 		bl	cruiseDisable
 570              		.loc 2 79 0
 571 0244 3570     		strb	r5, [r6, #0]
 572 0246 18E7     		b	.L24
 573              	.L87:
 574              		.align	2
 575              	.L86:
 576 0248 00000000 		.word	.LANCHOR7
 577 024c 00000000 		.word	.LANCHOR8
 578 0250 00000000 		.word	.LANCHOR0
 579 0254 00000000 		.word	.LANCHOR6
 580 0258 00000000 		.word	.LANCHOR2
 581 025c 00000000 		.word	.LANCHOR1
 582 0260 00000000 		.word	.LANCHOR3
 583 0264 00000000 		.word	.LANCHOR9
 584 0268 00000000 		.word	.LANCHOR10
 585 026c 00000240 		.word	1073872896
 586 0270 00000000 		.word	.LANCHOR11
 587 0274 00000000 		.word	.LANCHOR12
 588 0278 00000000 		.word	.LANCHOR13
 589 027c 00000000 		.word	.LANCHOR15
 590 0280 00000000 		.word	.LANCHOR16
 591 0284 00000000 		.word	.LANCHOR4
 592 0288 00000000 		.word	.LANCHOR5
 593 028c 00000000 		.word	.LANCHOR14
 594              	.L75:
 595              		.loc 2 94 0
 596 0290 3D49     		ldr	r1, .L88
 597 0292 0020     		movs	r0, #0
 598 0294 FFF7FEFF 		bl	speedKMPH_TO_RPM
 599 0298 FFF7FEFF 		bl	__aeabi_ui2d
 600 029c FFF7FEFF 		bl	cruiseIncrease
 601              		.loc 2 95 0
 602 02a0 3570     		strb	r5, [r6, #0]
 603 02a2 2AE7     		b	.L28
 604              	.L81:
 605              		.loc 2 204 0
 606 02a4 394F     		ldr	r7, .L88+4
 607 02a6 97F80080 		ldrb	r8, [r7, #0]	@ zero_extendqisi2
 608 02aa B8F1000F 		cmp	r8, #0
 609 02ae 5DD0     		beq	.L44
 610              	.LBB10:
 611              		.loc 2 206 0
 612 02b0 3046     		mov	r0, r6
 613 02b2 FFF7FEFF 		bl	lightFlashing
 614              		.loc 2 207 0
 615 02b6 2E70     		strb	r6, [r5, #0]
 616              		.loc 2 208 0
 617 02b8 3E70     		strb	r6, [r7, #0]
 618 02ba 66E7     		b	.L43
 619              	.L72:
 620              	.LBE10:
 621              		.loc 2 117 0
ARM GAS  C:\Users\DNIEL~1\AppData\Local\Temp\ccviRFHD.s 			page 12


 622 02bc 0022     		movs	r2, #0
 623 02be 1A70     		strb	r2, [r3, #0]
 624              		.loc 2 118 0
 625 02c0 FFF7FEFF 		bl	cruiseAccelOk
 626 02c4 E1E6     		b	.L29
 627              	.L83:
 628 02c6 324F     		ldr	r7, .L88+8
 629 02c8 DFF8C080 		ldr	r8, .L88+4
 630 02cc 82E7     		b	.L39
 631              	.L79:
 632 02ce 314F     		ldr	r7, .L88+12
 633 02d0 DFF8B880 		ldr	r8, .L88+4
 634 02d4 34E7     		b	.L35
 635              	.L85:
 636              	.LBB11:
 637              		.loc 2 229 0
 638 02d6 0520     		movs	r0, #5
 639 02d8 FFF7FEFF 		bl	getLightFlashing
 640 02dc 28B9     		cbnz	r0, .L47
 641              		.loc 2 229 0 is_stmt 0 discriminator 1
 642 02de 0720     		movs	r0, #7
 643 02e0 FFF7FEFF 		bl	getLightFlashing
 644 02e4 0646     		mov	r6, r0
 645 02e6 0028     		cmp	r0, #0
 646 02e8 48D0     		beq	.L48
 647              	.L47:
 648              	.LBB12:
 649              		.loc 2 231 0 is_stmt 1
 650 02ea FFF7FEFF 		bl	lightPosLampOff
 651              		.loc 2 232 0
 652 02ee FFF7FEFF 		bl	lightLampDemoOff
 653              		.loc 2 233 0
 654 02f2 0022     		movs	r2, #0
 655 02f4 2A70     		strb	r2, [r5, #0]
 656 02f6 2378     		ldrb	r3, [r4, #0]	@ zero_extendqisi2
 657              	.LBE12:
 658              		.loc 2 230 0
 659 02f8 92E7     		b	.L46
 660              	.L73:
 661              	.LBE11:
 662              		.loc 2 126 0
 663 02fa 2349     		ldr	r1, .L88
 664 02fc 0020     		movs	r0, #0
 665 02fe FFF7FEFF 		bl	speedKMPH_TO_RPM
 666 0302 FFF7FEFF 		bl	__aeabi_ui2d
 667 0306 FFF7FEFF 		bl	cruiseReduction
 668              		.loc 2 127 0
 669 030a 3570     		strb	r5, [r6, #0]
 670 030c 03E7     		b	.L32
 671              	.L78:
 672              		.loc 2 148 0
 673 030e 0022     		movs	r2, #0
 674 0310 1A70     		strb	r2, [r3, #0]
 675              		.loc 2 149 0
 676 0312 FFF7FEFF 		bl	cruiseDeceleratOk
 677 0316 F8E6     		b	.L33
 678              	.L61:
ARM GAS  C:\Users\DNIEL~1\AppData\Local\Temp\ccviRFHD.s 			page 13


 679              		.loc 2 180 0 discriminator 1
 680 0318 DFF87080 		ldr	r8, .L88+4
 681 031c 98F80090 		ldrb	r9, [r8, #0]	@ zero_extendqisi2
 682 0320 B9F1000F 		cmp	r9, #0
 683 0324 7FF456AF 		bne	.L39
 684              	.LBB14:
 685              		.loc 2 191 0
 686 0328 0220     		movs	r0, #2
 687 032a FFF7FEFF 		bl	lightFlashing
 688              		.loc 2 193 0
 689 032e 0122     		movs	r2, #1
 690              		.loc 2 192 0
 691 0330 85F80090 		strb	r9, [r5, #0]
 692              		.loc 2 193 0
 693 0334 3270     		strb	r2, [r6, #0]
 694 0336 19E7     		b	.L41
 695              	.L59:
 696              	.LBE14:
 697              		.loc 2 157 0 discriminator 1
 698 0338 DFF85080 		ldr	r8, .L88+4
 699 033c 98F80090 		ldrb	r9, [r8, #0]	@ zero_extendqisi2
 700 0340 B9F1000F 		cmp	r9, #0
 701 0344 7FF4FCAE 		bne	.L35
 702              	.LBB15:
 703              		.loc 2 168 0
 704 0348 0120     		movs	r0, #1
 705 034a FFF7FEFF 		bl	lightFlashing
 706              		.loc 2 170 0
 707 034e 0123     		movs	r3, #1
 708              		.loc 2 169 0
 709 0350 85F80090 		strb	r9, [r5, #0]
 710              		.loc 2 170 0
 711 0354 3370     		strb	r3, [r6, #0]
 712 0356 28E7     		b	.L37
 713              	.L25:
 714              	.LBE15:
 715              		.loc 2 83 0
 716 0358 FFF7FEFF 		bl	cruiseEnable
 717              		.loc 2 84 0
 718 035c 3770     		strb	r7, [r6, #0]
 719 035e 8CE6     		b	.L24
 720              	.L76:
 721              		.loc 2 109 0
 722 0360 FFF7FEFF 		bl	cruiseAccel
 723              		.loc 2 110 0
 724 0364 0C4B     		ldr	r3, .L88+16
 725 0366 0121     		movs	r1, #1
 726 0368 1970     		strb	r1, [r3, #0]
 727 036a C6E6     		b	.L28
 728              	.L44:
 729              	.LBB16:
 730              		.loc 2 212 0
 731 036c 0320     		movs	r0, #3
 732 036e FFF7FEFF 		bl	lightFlashing
 733              		.loc 2 214 0
 734 0372 0123     		movs	r3, #1
 735              		.loc 2 213 0
ARM GAS  C:\Users\DNIEL~1\AppData\Local\Temp\ccviRFHD.s 			page 14


 736 0374 85F80080 		strb	r8, [r5, #0]
 737              		.loc 2 214 0
 738 0378 3B70     		strb	r3, [r7, #0]
 739 037a 06E7     		b	.L43
 740              	.L48:
 741              	.LBE16:
 742              	.LBB17:
 743              	.LBB13:
 744              		.loc 2 237 0
 745 037c FFF7FEFF 		bl	lightPosLampOn
 746              		.loc 2 238 0
 747 0380 2378     		ldrb	r3, [r4, #0]	@ zero_extendqisi2
 748 0382 2E70     		strb	r6, [r5, #0]
 749 0384 4CE7     		b	.L46
 750              	.L89:
 751 0386 00BF     		.align	2
 752              	.L88:
 753 0388 0000F03F 		.word	1072693248
 754 038c 00000000 		.word	.LANCHOR14
 755 0390 00000000 		.word	.LANCHOR12
 756 0394 00000000 		.word	.LANCHOR13
 757 0398 00000000 		.word	.LANCHOR6
 758              	.LBE13:
 759              	.LBE17:
 760              		.cfi_endproc
 761              	.LFE120:
 762              		.size	buttonCalc, .-buttonCalc
 763              		.section	.text.cmd_buttonvalues,"ax",%progbits
 764              		.align	2
 765              		.p2align 4,,15
 766              		.global	cmd_buttonvalues
 767              		.thumb
 768              		.thumb_func
 769              		.type	cmd_buttonvalues, %function
 770              	cmd_buttonvalues:
 771              	.LFB121:
 772              		.loc 2 254 0
 773              		.cfi_startproc
 774              		@ args = 0, pretend = 0, frame = 0
 775              		@ frame_needed = 0, uses_anonymous_args = 0
 776              	.LVL13:
 777 0000 2DE9F041 		push	{r4, r5, r6, r7, r8, lr}
 778              	.LCFI4:
 779              		.cfi_def_cfa_offset 24
 780              		.loc 2 259 0
 781 0004 4849     		ldr	r1, .L93
 782              	.LVL14:
 783              		.loc 2 263 0
 784 0006 DFF88C81 		ldr	r8, .L93+108
 785              		.cfi_offset 14, -4
 786              		.cfi_offset 8, -8
 787              		.cfi_offset 7, -12
 788              		.cfi_offset 6, -16
 789              		.cfi_offset 5, -20
 790              		.cfi_offset 4, -24
 791              		.loc 2 266 0
 792 000a 484D     		ldr	r5, .L93+4
ARM GAS  C:\Users\DNIEL~1\AppData\Local\Temp\ccviRFHD.s 			page 15


 793              		.loc 2 269 0
 794 000c 484F     		ldr	r7, .L93+8
 795              		.loc 2 254 0
 796 000e 0446     		mov	r4, r0
 797              		.loc 2 259 0
 798 0010 FFF7FEFF 		bl	chprintf
 799              	.LVL15:
 800              		.loc 2 260 0
 801 0014 2046     		mov	r0, r4
 802 0016 4749     		ldr	r1, .L93+12
 803 0018 FFF7FEFF 		bl	chprintf
 804              		.loc 2 261 0
 805 001c 79E0     		b	.L91
 806              	.LVL16:
 807              	.L92:
 808              		.loc 2 262 0
 809 001e 0022     		movs	r2, #0
 810 0020 1346     		mov	r3, r2
 811 0022 4549     		ldr	r1, .L93+16
 812              		.loc 2 269 0
 813 0024 454E     		ldr	r6, .L93+20
 814              		.loc 2 262 0
 815 0026 2046     		mov	r0, r4
 816 0028 FFF7FEFF 		bl	chprintf
 817              		.loc 2 263 0
 818 002c B8F80020 		ldrh	r2, [r8, #0]
 819 0030 4349     		ldr	r1, .L93+24
 820 0032 2046     		mov	r0, r4
 821 0034 FFF7FEFF 		bl	chprintf
 822              		.loc 2 264 0
 823 0038 2046     		mov	r0, r4
 824 003a 4249     		ldr	r1, .L93+28
 825 003c FFF7FEFF 		bl	chprintf
 826              	.LVL17:
 827              		.loc 2 266 0
 828 0040 2046     		mov	r0, r4
 829 0042 4149     		ldr	r1, .L93+32
 830 0044 2A78     		ldrb	r2, [r5, #0]	@ zero_extendqisi2
 831 0046 FFF7FEFF 		bl	chprintf
 832              	.LVL18:
 833 004a 2046     		mov	r0, r4
 834 004c 3E49     		ldr	r1, .L93+32
 835 004e 6A78     		ldrb	r2, [r5, #1]	@ zero_extendqisi2
 836 0050 FFF7FEFF 		bl	chprintf
 837              	.LVL19:
 838 0054 2046     		mov	r0, r4
 839 0056 3C49     		ldr	r1, .L93+32
 840 0058 AA78     		ldrb	r2, [r5, #2]	@ zero_extendqisi2
 841 005a FFF7FEFF 		bl	chprintf
 842              	.LVL20:
 843 005e 2046     		mov	r0, r4
 844 0060 3949     		ldr	r1, .L93+32
 845 0062 EA78     		ldrb	r2, [r5, #3]	@ zero_extendqisi2
 846 0064 FFF7FEFF 		bl	chprintf
 847              	.LVL21:
 848 0068 2046     		mov	r0, r4
 849 006a 3749     		ldr	r1, .L93+32
ARM GAS  C:\Users\DNIEL~1\AppData\Local\Temp\ccviRFHD.s 			page 16


 850 006c 2A79     		ldrb	r2, [r5, #4]	@ zero_extendqisi2
 851 006e FFF7FEFF 		bl	chprintf
 852              	.LVL22:
 853 0072 2046     		mov	r0, r4
 854 0074 3449     		ldr	r1, .L93+32
 855 0076 6A79     		ldrb	r2, [r5, #5]	@ zero_extendqisi2
 856 0078 FFF7FEFF 		bl	chprintf
 857              	.LVL23:
 858 007c 2046     		mov	r0, r4
 859 007e 3249     		ldr	r1, .L93+32
 860 0080 AA79     		ldrb	r2, [r5, #6]	@ zero_extendqisi2
 861 0082 FFF7FEFF 		bl	chprintf
 862              	.LVL24:
 863 0086 EA79     		ldrb	r2, [r5, #7]	@ zero_extendqisi2
 864 0088 2F49     		ldr	r1, .L93+32
 865 008a 2046     		mov	r0, r4
 866 008c FFF7FEFF 		bl	chprintf
 867              	.LVL25:
 868              		.loc 2 268 0
 869 0090 2046     		mov	r0, r4
 870 0092 2E49     		ldr	r1, .L93+36
 871 0094 FFF7FEFF 		bl	chprintf
 872              		.loc 2 269 0
 873 0098 3378     		ldrb	r3, [r6, #0]	@ zero_extendqisi2
 874 009a 2D49     		ldr	r1, .L93+40
 875 009c 3A78     		ldrb	r2, [r7, #0]	@ zero_extendqisi2
 876 009e 2046     		mov	r0, r4
 877 00a0 FFF7FEFF 		bl	chprintf
 878              		.loc 2 270 0
 879 00a4 2B4B     		ldr	r3, .L93+44
 880 00a6 2C49     		ldr	r1, .L93+48
 881 00a8 1A78     		ldrb	r2, [r3, #0]	@ zero_extendqisi2
 882 00aa 2046     		mov	r0, r4
 883 00ac FFF7FEFF 		bl	chprintf
 884              		.loc 2 271 0
 885 00b0 2A4A     		ldr	r2, .L93+52
 886 00b2 2B49     		ldr	r1, .L93+56
 887 00b4 1278     		ldrb	r2, [r2, #0]	@ zero_extendqisi2
 888 00b6 2046     		mov	r0, r4
 889 00b8 FFF7FEFF 		bl	chprintf
 890              		.loc 2 272 0
 891 00bc 2948     		ldr	r0, .L93+60
 892 00be 2A49     		ldr	r1, .L93+64
 893 00c0 0278     		ldrb	r2, [r0, #0]	@ zero_extendqisi2
 894 00c2 2046     		mov	r0, r4
 895 00c4 FFF7FEFF 		bl	chprintf
 896              		.loc 2 273 0
 897 00c8 284B     		ldr	r3, .L93+68
 898 00ca 2949     		ldr	r1, .L93+72
 899 00cc 1A78     		ldrb	r2, [r3, #0]	@ zero_extendqisi2
 900 00ce 2046     		mov	r0, r4
 901 00d0 FFF7FEFF 		bl	chprintf
 902              		.loc 2 274 0
 903 00d4 274A     		ldr	r2, .L93+76
 904 00d6 2849     		ldr	r1, .L93+80
 905 00d8 1278     		ldrb	r2, [r2, #0]	@ zero_extendqisi2
 906 00da 2046     		mov	r0, r4
ARM GAS  C:\Users\DNIEL~1\AppData\Local\Temp\ccviRFHD.s 			page 17


 907 00dc FFF7FEFF 		bl	chprintf
 908              		.loc 2 275 0
 909 00e0 2046     		mov	r0, r4
 910 00e2 2649     		ldr	r1, .L93+84
 911 00e4 3A78     		ldrb	r2, [r7, #0]	@ zero_extendqisi2
 912 00e6 FFF7FEFF 		bl	chprintf
 913              		.loc 2 276 0
 914 00ea 2046     		mov	r0, r4
 915 00ec 2449     		ldr	r1, .L93+88
 916 00ee 3278     		ldrb	r2, [r6, #0]	@ zero_extendqisi2
 917 00f0 FFF7FEFF 		bl	chprintf
 918              		.loc 2 277 0
 919 00f4 2348     		ldr	r0, .L93+92
 920 00f6 2449     		ldr	r1, .L93+96
 921 00f8 0278     		ldrb	r2, [r0, #0]	@ zero_extendqisi2
 922 00fa 2046     		mov	r0, r4
 923 00fc FFF7FEFF 		bl	chprintf
 924              		.loc 2 278 0
 925 0100 224B     		ldr	r3, .L93+100
 926 0102 2349     		ldr	r1, .L93+104
 927 0104 1A78     		ldrb	r2, [r3, #0]	@ zero_extendqisi2
 928 0106 2046     		mov	r0, r4
 929 0108 FFF7FEFF 		bl	chprintf
 930              		.loc 2 279 0
 931 010c 6420     		movs	r0, #100
 932 010e FFF7FEFF 		bl	chThdSleep
 933              	.LVL26:
 934              	.L91:
 935              		.loc 2 261 0 discriminator 1
 936 0112 2168     		ldr	r1, [r4, #0]
 937 0114 2046     		mov	r0, r4
 938 0116 4A69     		ldr	r2, [r1, #20]
 939 0118 0021     		movs	r1, #0
 940 011a 9047     		blx	r2
 941 011c B0F1FF3F 		cmp	r0, #-1
 942 0120 3FF47DAF 		beq	.L92
 943              		.loc 2 281 0
 944 0124 BDE8F081 		pop	{r4, r5, r6, r7, r8, pc}
 945              	.L94:
 946              		.align	2
 947              	.L93:
 948 0128 00000000 		.word	.LC0
 949 012c 00000000 		.word	.LANCHOR8
 950 0130 00000000 		.word	.LANCHOR11
 951 0134 04000000 		.word	.LC1
 952 0138 0C000000 		.word	.LC2
 953 013c 00000000 		.word	.LANCHOR15
 954 0140 18000000 		.word	.LC3
 955 0144 24000000 		.word	.LC4
 956 0148 34000000 		.word	.LC5
 957 014c 38000000 		.word	.LC6
 958 0150 3C000000 		.word	.LC7
 959 0154 00000000 		.word	.LANCHOR0
 960 0158 54000000 		.word	.LC8
 961 015c 00000000 		.word	.LANCHOR1
 962 0160 68000000 		.word	.LC9
 963 0164 00000000 		.word	.LANCHOR3
ARM GAS  C:\Users\DNIEL~1\AppData\Local\Temp\ccviRFHD.s 			page 18


 964 0168 7C000000 		.word	.LC10
 965 016c 00000000 		.word	.LANCHOR6
 966 0170 94000000 		.word	.LC11
 967 0174 00000000 		.word	.LANCHOR10
 968 0178 A8000000 		.word	.LC12
 969 017c C0000000 		.word	.LC13
 970 0180 D4000000 		.word	.LC14
 971 0184 00000000 		.word	.LANCHOR16
 972 0188 E8000000 		.word	.LC15
 973 018c 00000000 		.word	.LANCHOR4
 974 0190 F8000000 		.word	.LC16
 975 0194 00000000 		.word	.LANCHOR7
 976              		.cfi_endproc
 977              	.LFE121:
 978              		.size	cmd_buttonvalues, .-cmd_buttonvalues
 979 0198 AFF30080 		.section	.bss.cruise_long_plusz,"aw",%nobits
 979      AFF30080 
 980              		.align	1
 981              		.set	.LANCHOR2,. + 0
 982              		.type	cruise_long_plusz, %object
 983              		.size	cruise_long_plusz, 2
 984              	cruise_long_plusz:
 985 0000 0000     		.space	2
 986              		.section	.bss.bus_bit,"aw",%nobits
 987              		.align	2
 988              		.set	.LANCHOR8,. + 0
 989              		.type	bus_bit, %object
 990              		.size	bus_bit, 8
 991              	bus_bit:
 992 0000 00000000 		.space	8
 992      00000000 
 993              		.section	.bss.index_left,"aw",%nobits
 994              		.set	.LANCHOR15,. + 0
 995              		.type	index_left, %object
 996              		.size	index_left, 1
 997              	index_left:
 998 0000 00       		.space	1
 999              		.section	.bss.button_decelerat,"aw",%nobits
 1000              		.set	.LANCHOR10,. + 0
 1001              		.type	button_decelerat, %object
 1002              		.size	button_decelerat, 1
 1003              	button_decelerat:
 1004 0000 00       		.space	1
 1005              		.section	.bss.bus,"aw",%nobits
 1006              		.align	1
 1007              		.set	.LANCHOR7,. + 0
 1008              		.type	bus, %object
 1009              		.size	bus, 2
 1010              	bus:
 1011 0000 0000     		.space	2
 1012              		.section	.bss.warning,"aw",%nobits
 1013              		.set	.LANCHOR16,. + 0
 1014              		.type	warning, %object
 1015              		.size	warning, 1
 1016              	warning:
 1017 0000 00       		.space	1
 1018              		.section	.bss.lamp_ok,"aw",%nobits
ARM GAS  C:\Users\DNIEL~1\AppData\Local\Temp\ccviRFHD.s 			page 19


 1019              		.set	.LANCHOR4,. + 0
 1020              		.type	lamp_ok, %object
 1021              		.size	lamp_ok, 1
 1022              	lamp_ok:
 1023 0000 00       		.space	1
 1024              		.section	.bss.button_accel,"aw",%nobits
 1025              		.set	.LANCHOR6,. + 0
 1026              		.type	button_accel, %object
 1027              		.size	button_accel, 1
 1028              	button_accel:
 1029 0000 00       		.space	1
 1030              		.section	.bss.warning_active,"aw",%nobits
 1031              		.set	.LANCHOR14,. + 0
 1032              		.type	warning_active, %object
 1033              		.size	warning_active, 1
 1034              	warning_active:
 1035 0000 00       		.space	1
 1036              		.section	.rodata.str1.4,"aMS",%progbits,1
 1037              		.align	2
 1038              	.LC0:
 1039 0000 1B6300   		.ascii	"\033c\000"
 1040 0003 00       		.space	1
 1041              	.LC1:
 1042 0004 1B5B324A 		.ascii	"\033[2J\000"
 1042      00
 1043 0009 000000   		.space	3
 1044              	.LC2:
 1045 000c 1B5B2564 		.ascii	"\033[%d;%dH\000"
 1045      3B256448 
 1045      00
 1046 0015 000000   		.space	3
 1047              	.LC3:
 1048 0018 6275733A 		.ascii	"bus: %x\015\012\000"
 1048      2025780D 
 1048      0A00
 1049 0022 0000     		.space	2
 1050              	.LC4:
 1051 0024 6275735F 		.ascii	"bus_status: \000"
 1051      73746174 
 1051      75733A20 
 1051      00
 1052 0031 000000   		.space	3
 1053              	.LC5:
 1054 0034 25642000 		.ascii	"%d \000"
 1055              	.LC6:
 1056 0038 0D0A00   		.ascii	"\015\012\000"
 1057 003b 00       		.space	1
 1058              	.LC7:
 1059 003c 72696768 		.ascii	"right: %d left: %d \015\012\000"
 1059      743A2025 
 1059      64206C65 
 1059      66743A20 
 1059      2564200D 
 1060 0052 0000     		.space	2
 1061              	.LC8:
 1062 0054 0D0A6372 		.ascii	"\015\012cruise_ok: %d \015\012\000"
 1062      75697365 
ARM GAS  C:\Users\DNIEL~1\AppData\Local\Temp\ccviRFHD.s 			page 20


 1062      5F6F6B3A 
 1062      20256420 
 1062      0D0A00
 1063 0067 00       		.space	1
 1064              	.LC9:
 1065 0068 63727569 		.ascii	"cruise_plusz: %d \015\012\000"
 1065      73655F70 
 1065      6C75737A 
 1065      3A202564 
 1065      200D0A00 
 1066              	.LC10:
 1067 007c 63727569 		.ascii	"cruise_minusz: %d \015\012\000"
 1067      73655F6D 
 1067      696E7573 
 1067      7A3A2025 
 1067      64200D0A 
 1068 0091 000000   		.space	3
 1069              	.LC11:
 1070 0094 62757474 		.ascii	"button_accel: %d \015\012\000"
 1070      6F6E5F61 
 1070      6363656C 
 1070      3A202564 
 1070      200D0A00 
 1071              	.LC12:
 1072 00a8 62757474 		.ascii	"button_decelerat: %d \015\012\000"
 1072      6F6E5F64 
 1072      6563656C 
 1072      65726174 
 1072      3A202564 
 1073              	.LC13:
 1074 00c0 696E6465 		.ascii	"index_right: %d \015\012\000"
 1074      785F7269 
 1074      6768743A 
 1074      20256420 
 1074      0D0A00
 1075 00d3 00       		.space	1
 1076              	.LC14:
 1077 00d4 696E6465 		.ascii	"index_left: %d \015\012\000"
 1077      785F6C65 
 1077      66743A20 
 1077      2564200D 
 1077      0A00
 1078 00e6 0000     		.space	2
 1079              	.LC15:
 1080 00e8 7761726E 		.ascii	"warning: %d \015\012\000"
 1080      696E673A 
 1080      20256420 
 1080      0D0A00
 1081 00f7 00       		.space	1
 1082              	.LC16:
 1083 00f8 6C616D70 		.ascii	"lamp_ok: %d \015\012\000"
 1083      5F6F6B3A 
 1083      20256420 
 1083      0D0A00
 1084 0107 00       		.section	.bss.cruise_minusz,"aw",%nobits
 1085              		.set	.LANCHOR3,. + 0
 1086              		.type	cruise_minusz, %object
ARM GAS  C:\Users\DNIEL~1\AppData\Local\Temp\ccviRFHD.s 			page 21


 1087              		.size	cruise_minusz, 1
 1088              	cruise_minusz:
 1089 0000 00       		.space	1
 1090              		.section	.bss.cruise_long_minusz,"aw",%nobits
 1091              		.align	1
 1092              		.set	.LANCHOR9,. + 0
 1093              		.type	cruise_long_minusz, %object
 1094              		.size	cruise_long_minusz, 2
 1095              	cruise_long_minusz:
 1096 0000 0000     		.space	2
 1097              		.section	.bss.cruise_ok,"aw",%nobits
 1098              		.set	.LANCHOR0,. + 0
 1099              		.type	cruise_ok, %object
 1100              		.size	cruise_ok, 1
 1101              	cruise_ok:
 1102 0000 00       		.space	1
 1103              		.section	.bss.cruise_plusz,"aw",%nobits
 1104              		.set	.LANCHOR1,. + 0
 1105              		.type	cruise_plusz, %object
 1106              		.size	cruise_plusz, 1
 1107              	cruise_plusz:
 1108 0000 00       		.space	1
 1109              		.section	.bss.index_right,"aw",%nobits
 1110              		.set	.LANCHOR11,. + 0
 1111              		.type	index_right, %object
 1112              		.size	index_right, 1
 1113              	index_right:
 1114 0000 00       		.space	1
 1115              		.section	.bss.index_right_active,"aw",%nobits
 1116              		.set	.LANCHOR12,. + 0
 1117              		.type	index_right_active, %object
 1118              		.size	index_right_active, 1
 1119              	index_right_active:
 1120 0000 00       		.space	1
 1121              		.section	.bss.lamp_long,"aw",%nobits
 1122              		.set	.LANCHOR5,. + 0
 1123              		.type	lamp_long, %object
 1124              		.size	lamp_long, 1
 1125              	lamp_long:
 1126 0000 00       		.space	1
 1127              		.section	.bss.index_left_active,"aw",%nobits
 1128              		.set	.LANCHOR13,. + 0
 1129              		.type	index_left_active, %object
 1130              		.size	index_left_active, 1
 1131              	index_left_active:
 1132 0000 00       		.space	1
 1133              		.text
 1134              	.Letext0: