ARM GAS  C:\Users\DNIEL~1\AppData\Local\Temp\ccGYSxmm.s 			page 1


   1              		.syntax unified
   2              		.cpu cortex-m4
   3              		.fpu softvfp
   4              		.eabi_attribute 20, 1
   5              		.eabi_attribute 21, 1
   6              		.eabi_attribute 23, 3
   7              		.eabi_attribute 24, 1
   8              		.eabi_attribute 25, 1
   9              		.eabi_attribute 26, 1
  10              		.eabi_attribute 30, 2
  11              		.eabi_attribute 18, 4
  12              		.thumb
  13              		.file	"can.c"
  14              		.section	.debug_abbrev,"",%progbits
  15              	.Ldebug_abbrev0:
  16              		.section	.debug_info,"",%progbits
  17              	.Ldebug_info0:
  18              		.section	.debug_line,"",%progbits
  19              	.Ldebug_line0:
  20 0000 3E030000 		.text
  20      02004102 
  20      00000201 
  20      FB0E0D00 
  20      01010101 
  21              	.Ltext0:
  22              		.cfi_sections	.debug_frame
  23              		.section	.text.canInit,"ax",%progbits
  24              		.align	2
  25              		.p2align 4,,15
  26              		.global	canInit
  27              		.thumb
  28              		.thumb_func
  29              		.type	canInit, %function
  30              	canInit:
  31              	.LFB118:
  32              		.file 1 "../../../ChibiOS/os/hal/src/can.c"
  33              		.loc 1 68 0
  34              		.cfi_startproc
  35              		@ args = 0, pretend = 0, frame = 0
  36              		@ frame_needed = 0, uses_anonymous_args = 0
  37              		@ link register save eliminated.
  38              		.loc 1 71 0
  39              		.loc 1 70 0
  40 0000 FFF7FEBF 		b	can_lld_init
  41              		.cfi_endproc
  42              	.LFE118:
  43              		.size	canInit, .-canInit
  44 0004 AFF30080 		.section	.text.canObjectInit,"ax",%progbits
  44      AFF30080 
  44      AFF30080 
  45              		.align	2
  46              		.p2align 4,,15
  47              		.global	canObjectInit
  48              		.thumb
  49              		.thumb_func
  50              		.type	canObjectInit, %function
  51              	canObjectInit:
ARM GAS  C:\Users\DNIEL~1\AppData\Local\Temp\ccGYSxmm.s 			page 2


  52              	.LFB119:
  53              		.loc 1 80 0
  54              		.cfi_startproc
  55              		@ args = 0, pretend = 0, frame = 0
  56              		@ frame_needed = 0, uses_anonymous_args = 0
  57              	.LVL0:
  58 0000 38B5     		push	{r3, r4, r5, lr}
  59              	.LCFI0:
  60              		.cfi_def_cfa_offset 16
  61              		.loc 1 80 0
  62 0002 0446     		mov	r4, r0
  63              		.cfi_offset 14, -4
  64              		.cfi_offset 5, -8
  65              		.cfi_offset 4, -12
  66              		.cfi_offset 3, -16
  67              		.loc 1 83 0
  68 0004 0025     		movs	r5, #0
  69              		.loc 1 82 0
  70 0006 0123     		movs	r3, #1
  71              		.loc 1 84 0
  72 0008 2946     		mov	r1, r5
  73              		.loc 1 82 0
  74 000a 2370     		strb	r3, [r4, #0]
  75              		.loc 1 84 0
  76 000c 0830     		adds	r0, r0, #8
  77              	.LVL1:
  78              		.loc 1 83 0
  79 000e 6560     		str	r5, [r4, #4]
  80              		.loc 1 84 0
  81 0010 FFF7FEFF 		bl	chSemInit
  82              		.loc 1 85 0
  83 0014 2946     		mov	r1, r5
  84 0016 04F11400 		add	r0, r4, #20
  85 001a FFF7FEFF 		bl	chSemInit
  86              		.loc 1 86 0
  87 001e 04F12005 		add	r5, r4, #32
  88              		.loc 1 87 0
  89 0022 04F12400 		add	r0, r4, #36
  90              		.loc 1 88 0
  91 0026 04F12801 		add	r1, r4, #40
  92              		.loc 1 90 0
  93 002a 04F12C02 		add	r2, r4, #44
  94              		.loc 1 91 0
  95 002e 04F13003 		add	r3, r4, #48
  96              		.loc 1 86 0
  97 0032 2562     		str	r5, [r4, #32]
  98              		.loc 1 87 0
  99 0034 6062     		str	r0, [r4, #36]
 100              		.loc 1 88 0
 101 0036 A162     		str	r1, [r4, #40]
 102              		.loc 1 90 0
 103 0038 E262     		str	r2, [r4, #44]
 104              		.loc 1 91 0
 105 003a 2363     		str	r3, [r4, #48]
 106              		.loc 1 93 0
 107 003c 38BD     		pop	{r3, r4, r5, pc}
 108              		.cfi_endproc
ARM GAS  C:\Users\DNIEL~1\AppData\Local\Temp\ccGYSxmm.s 			page 3


 109              	.LFE119:
 110              		.size	canObjectInit, .-canObjectInit
 111 003e 00BF     		.section	.text.canStart,"ax",%progbits
 112              		.align	2
 113              		.p2align 4,,15
 114              		.global	canStart
 115              		.thumb
 116              		.thumb_func
 117              		.type	canStart, %function
 118              	canStart:
 119              	.LFB120:
 120              		.loc 1 107 0
 121              		.cfi_startproc
 122              		@ args = 0, pretend = 0, frame = 0
 123              		@ frame_needed = 0, uses_anonymous_args = 0
 124              	.LVL2:
 125 0000 38B5     		push	{r3, r4, r5, lr}
 126              	.LCFI1:
 127              		.cfi_def_cfa_offset 16
 128              		.loc 1 107 0
 129 0002 0446     		mov	r4, r0
 130              		.cfi_offset 14, -4
 131              		.cfi_offset 5, -8
 132              		.cfi_offset 4, -12
 133              		.cfi_offset 3, -16
 134 0004 0D46     		mov	r5, r1
 135              	.LBB2:
 136              		.loc 1 111 0
 137 0006 2023     		movs	r3, #32
 138              	.LVL3:
 139              	@ 111 "../../../ChibiOS/os/hal/src/can.c" 1
 140 0008 83F31188 		msr     BASEPRI, r3
 141              	@ 0 "" 2
 142              	.LVL4:
 143              		.thumb
 144              	.LBE2:
 145              		.loc 1 116 0
 146 000c 0378     		ldrb	r3, [r0, #0]	@ zero_extendqisi2
 147              	.LVL5:
 148 000e 022B     		cmp	r3, #2
 149 0010 06D1     		bne	.L4
 150              	.LVL6:
 151              	.L7:
 152              		.loc 1 117 0
 153 0012 0620     		movs	r0, #6
 154 0014 0121     		movs	r1, #1
 155 0016 FFF7FEFF 		bl	chSchGoSleepTimeoutS
 156              		.loc 1 116 0
 157 001a 2378     		ldrb	r3, [r4, #0]	@ zero_extendqisi2
 158 001c 022B     		cmp	r3, #2
 159 001e F8D0     		beq	.L7
 160              	.L4:
 161              		.loc 1 118 0
 162 0020 012B     		cmp	r3, #1
 163 0022 03D0     		beq	.L10
 164              	.LBB3:
 165              		.loc 1 123 0
ARM GAS  C:\Users\DNIEL~1\AppData\Local\Temp\ccGYSxmm.s 			page 4


 166 0024 0023     		movs	r3, #0
 167              	.LVL7:
 168              	@ 123 "../../../ChibiOS/os/hal/src/can.c" 1
 169 0026 83F31188 		msr     BASEPRI, r3
 170              	@ 0 "" 2
 171              	.LVL8:
 172              		.thumb
 173              	.LBE3:
 174              		.loc 1 124 0
 175 002a 38BD     		pop	{r3, r4, r5, pc}
 176              	.LVL9:
 177              	.L10:
 178              		.loc 1 119 0
 179 002c 6560     		str	r5, [r4, #4]
 180              		.loc 1 120 0
 181 002e 2046     		mov	r0, r4
 182 0030 FFF7FEFF 		bl	can_lld_start
 183              		.loc 1 121 0
 184 0034 0323     		movs	r3, #3
 185 0036 2370     		strb	r3, [r4, #0]
 186              	.LBB4:
 187              		.loc 1 123 0
 188 0038 0023     		movs	r3, #0
 189              	@ 123 "../../../ChibiOS/os/hal/src/can.c" 1
 190 003a 83F31188 		msr     BASEPRI, r3
 191              	@ 0 "" 2
 192              	.LVL10:
 193              		.thumb
 194              	.LBE4:
 195              		.loc 1 124 0
 196 003e 38BD     		pop	{r3, r4, r5, pc}
 197              		.cfi_endproc
 198              	.LFE120:
 199              		.size	canStart, .-canStart
 200              		.section	.text.canStop,"ax",%progbits
 201              		.align	2
 202              		.p2align 4,,15
 203              		.global	canStop
 204              		.thumb
 205              		.thumb_func
 206              		.type	canStop, %function
 207              	canStop:
 208              	.LFB121:
 209              		.loc 1 133 0
 210              		.cfi_startproc
 211              		@ args = 0, pretend = 0, frame = 0
 212              		@ frame_needed = 0, uses_anonymous_args = 0
 213              	.LVL11:
 214 0000 10B5     		push	{r4, lr}
 215              	.LCFI2:
 216              		.cfi_def_cfa_offset 8
 217              	.LBB5:
 218              		.loc 1 137 0
 219 0002 2023     		movs	r3, #32
 220              	.LVL12:
 221              	.LBE5:
 222              		.loc 1 133 0
ARM GAS  C:\Users\DNIEL~1\AppData\Local\Temp\ccGYSxmm.s 			page 5


 223 0004 0446     		mov	r4, r0
 224              		.cfi_offset 14, -4
 225              		.cfi_offset 4, -8
 226              	.LBB6:
 227              		.loc 1 137 0
 228              	@ 137 "../../../ChibiOS/os/hal/src/can.c" 1
 229 0006 83F31188 		msr     BASEPRI, r3
 230              	@ 0 "" 2
 231              	.LVL13:
 232              		.thumb
 233              	.LBE6:
 234              		.loc 1 140 0
 235 000a FFF7FEFF 		bl	can_lld_stop
 236              	.LVL14:
 237              		.loc 1 141 0
 238 000e 2046     		mov	r0, r4
 239 0010 0123     		movs	r3, #1
 240 0012 00F8143B 		strb	r3, [r0], #20
 241              		.loc 1 142 0
 242 0016 0021     		movs	r1, #0
 243 0018 FFF7FEFF 		bl	chSemResetI
 244              		.loc 1 143 0
 245 001c 04F10800 		add	r0, r4, #8
 246 0020 0021     		movs	r1, #0
 247 0022 FFF7FEFF 		bl	chSemResetI
 248              		.loc 1 144 0
 249 0026 FFF7FEFF 		bl	chSchRescheduleS
 250              	.LBB7:
 251              		.loc 1 145 0
 252 002a 0023     		movs	r3, #0
 253              	.LVL15:
 254              	@ 145 "../../../ChibiOS/os/hal/src/can.c" 1
 255 002c 83F31188 		msr     BASEPRI, r3
 256              	@ 0 "" 2
 257              	.LVL16:
 258              		.thumb
 259              	.LBE7:
 260              		.loc 1 146 0
 261 0030 10BD     		pop	{r4, pc}
 262              		.cfi_endproc
 263              	.LFE121:
 264              		.size	canStop, .-canStop
 265 0032 00BFAFF3 		.section	.text.canTransmit,"ax",%progbits
 265      0080AFF3 
 265      0080AFF3 
 265      0080
 266              		.align	2
 267              		.p2align 4,,15
 268              		.global	canTransmit
 269              		.thumb
 270              		.thumb_func
 271              		.type	canTransmit, %function
 272              	canTransmit:
 273              	.LFB122:
 274              		.loc 1 172 0
 275              		.cfi_startproc
 276              		@ args = 0, pretend = 0, frame = 0
ARM GAS  C:\Users\DNIEL~1\AppData\Local\Temp\ccGYSxmm.s 			page 6


 277              		@ frame_needed = 0, uses_anonymous_args = 0
 278              	.LVL17:
 279 0000 2DE9F041 		push	{r4, r5, r6, r7, r8, lr}
 280              	.LCFI3:
 281              		.cfi_def_cfa_offset 24
 282              		.loc 1 172 0
 283 0004 1D46     		mov	r5, r3
 284              		.cfi_offset 14, -4
 285              		.cfi_offset 8, -8
 286              		.cfi_offset 7, -12
 287              		.cfi_offset 6, -16
 288              		.cfi_offset 5, -20
 289              		.cfi_offset 4, -24
 290 0006 0446     		mov	r4, r0
 291 0008 0E46     		mov	r6, r1
 292 000a 1746     		mov	r7, r2
 293              	.LBB8:
 294              		.loc 1 177 0
 295 000c 2023     		movs	r3, #32
 296              	.LVL18:
 297              	@ 177 "../../../ChibiOS/os/hal/src/can.c" 1
 298 000e 83F31188 		msr     BASEPRI, r3
 299              	@ 0 "" 2
 300              	.LVL19:
 301              		.thumb
 302              	.LBE8:
 303              	.LBB9:
 304              		.loc 1 181 0
 305 0012 00F10808 		add	r8, r0, #8
 306              	.LVL20:
 307              	.L13:
 308              	.LBE9:
 309              		.loc 1 180 0 discriminator 1
 310 0016 2378     		ldrb	r3, [r4, #0]	@ zero_extendqisi2
 311              	.LVL21:
 312 0018 042B     		cmp	r3, #4
 313 001a 04D0     		beq	.L15
 314              		.loc 1 180 0 is_stmt 0 discriminator 2
 315 001c 2046     		mov	r0, r4
 316 001e 3146     		mov	r1, r6
 317 0020 FFF7FEFF 		bl	can_lld_is_tx_empty
 318 0024 50B9     		cbnz	r0, .L17
 319              	.L15:
 320              	.LBB11:
 321              		.loc 1 181 0 is_stmt 1
 322 0026 4046     		mov	r0, r8
 323 0028 2946     		mov	r1, r5
 324 002a FFF7FEFF 		bl	chSemWaitTimeoutS
 325              	.LVL22:
 326              		.loc 1 182 0
 327 002e 0028     		cmp	r0, #0
 328 0030 F1D0     		beq	.L13
 329              	.LBB10:
 330              		.loc 1 183 0
 331 0032 0023     		movs	r3, #0
 332              	.LVL23:
 333              	@ 183 "../../../ChibiOS/os/hal/src/can.c" 1
ARM GAS  C:\Users\DNIEL~1\AppData\Local\Temp\ccGYSxmm.s 			page 7


 334 0034 83F31188 		msr     BASEPRI, r3
 335              	@ 0 "" 2
 336              	.LVL24:
 337              		.thumb
 338              	.LBE10:
 339              		.loc 1 184 0
 340 0038 BDE8F081 		pop	{r4, r5, r6, r7, r8, pc}
 341              	.LVL25:
 342              	.L17:
 343              	.LBE11:
 344              		.loc 1 187 0
 345 003c 2046     		mov	r0, r4
 346 003e 3146     		mov	r1, r6
 347 0040 3A46     		mov	r2, r7
 348 0042 FFF7FEFF 		bl	can_lld_transmit
 349              	.LBB12:
 350              		.loc 1 188 0
 351 0046 0023     		movs	r3, #0
 352              	.LVL26:
 353              	@ 188 "../../../ChibiOS/os/hal/src/can.c" 1
 354 0048 83F31188 		msr     BASEPRI, r3
 355              	@ 0 "" 2
 356              	.LVL27:
 357              		.thumb
 358              	.LBE12:
 359              		.loc 1 189 0
 360 004c 1846     		mov	r0, r3
 361              		.loc 1 190 0
 362 004e BDE8F081 		pop	{r4, r5, r6, r7, r8, pc}
 363              		.cfi_endproc
 364              	.LFE122:
 365              		.size	canTransmit, .-canTransmit
 366 0052 00BFAFF3 		.section	.text.canReceive,"ax",%progbits
 366      0080AFF3 
 366      0080AFF3 
 366      0080
 367              		.align	2
 368              		.p2align 4,,15
 369              		.global	canReceive
 370              		.thumb
 371              		.thumb_func
 372              		.type	canReceive, %function
 373              	canReceive:
 374              	.LFB123:
 375              		.loc 1 217 0
 376              		.cfi_startproc
 377              		@ args = 0, pretend = 0, frame = 0
 378              		@ frame_needed = 0, uses_anonymous_args = 0
 379              	.LVL28:
 380 0000 2DE9F041 		push	{r4, r5, r6, r7, r8, lr}
 381              	.LCFI4:
 382              		.cfi_def_cfa_offset 24
 383              		.loc 1 217 0
 384 0004 1D46     		mov	r5, r3
 385              		.cfi_offset 14, -4
 386              		.cfi_offset 8, -8
 387              		.cfi_offset 7, -12
ARM GAS  C:\Users\DNIEL~1\AppData\Local\Temp\ccGYSxmm.s 			page 8


 388              		.cfi_offset 6, -16
 389              		.cfi_offset 5, -20
 390              		.cfi_offset 4, -24
 391 0006 0446     		mov	r4, r0
 392 0008 0E46     		mov	r6, r1
 393 000a 1746     		mov	r7, r2
 394              	.LBB13:
 395              		.loc 1 222 0
 396 000c 2023     		movs	r3, #32
 397              	.LVL29:
 398              	@ 222 "../../../ChibiOS/os/hal/src/can.c" 1
 399 000e 83F31188 		msr     BASEPRI, r3
 400              	@ 0 "" 2
 401              	.LVL30:
 402              		.thumb
 403              	.LBE13:
 404              	.LBB14:
 405              		.loc 1 226 0
 406 0012 00F11408 		add	r8, r0, #20
 407              	.LVL31:
 408              	.L19:
 409              	.LBE14:
 410              		.loc 1 225 0 discriminator 1
 411 0016 2378     		ldrb	r3, [r4, #0]	@ zero_extendqisi2
 412              	.LVL32:
 413 0018 042B     		cmp	r3, #4
 414 001a 04D0     		beq	.L21
 415              		.loc 1 225 0 is_stmt 0 discriminator 2
 416 001c 2046     		mov	r0, r4
 417 001e 3146     		mov	r1, r6
 418 0020 FFF7FEFF 		bl	can_lld_is_rx_nonempty
 419 0024 50B9     		cbnz	r0, .L23
 420              	.L21:
 421              	.LBB16:
 422              		.loc 1 226 0 is_stmt 1
 423 0026 4046     		mov	r0, r8
 424 0028 2946     		mov	r1, r5
 425 002a FFF7FEFF 		bl	chSemWaitTimeoutS
 426              	.LVL33:
 427              		.loc 1 227 0
 428 002e 0028     		cmp	r0, #0
 429 0030 F1D0     		beq	.L19
 430              	.LBB15:
 431              		.loc 1 228 0
 432 0032 0023     		movs	r3, #0
 433              	.LVL34:
 434              	@ 228 "../../../ChibiOS/os/hal/src/can.c" 1
 435 0034 83F31188 		msr     BASEPRI, r3
 436              	@ 0 "" 2
 437              	.LVL35:
 438              		.thumb
 439              	.LBE15:
 440              		.loc 1 229 0
 441 0038 BDE8F081 		pop	{r4, r5, r6, r7, r8, pc}
 442              	.LVL36:
 443              	.L23:
 444              	.LBE16:
ARM GAS  C:\Users\DNIEL~1\AppData\Local\Temp\ccGYSxmm.s 			page 9


 445              		.loc 1 232 0
 446 003c 2046     		mov	r0, r4
 447 003e 3146     		mov	r1, r6
 448 0040 3A46     		mov	r2, r7
 449 0042 FFF7FEFF 		bl	can_lld_receive
 450              	.LBB17:
 451              		.loc 1 233 0
 452 0046 0023     		movs	r3, #0
 453              	.LVL37:
 454              	@ 233 "../../../ChibiOS/os/hal/src/can.c" 1
 455 0048 83F31188 		msr     BASEPRI, r3
 456              	@ 0 "" 2
 457              	.LVL38:
 458              		.thumb
 459              	.LBE17:
 460              		.loc 1 234 0
 461 004c 1846     		mov	r0, r3
 462              		.loc 1 235 0
 463 004e BDE8F081 		pop	{r4, r5, r6, r7, r8, pc}
 464              		.cfi_endproc
 465              	.LFE123:
 466              		.size	canReceive, .-canReceive
 467 0052 00BFAFF3 		.section	.text.canSleep,"ax",%progbits
 467      0080AFF3 
 467      0080AFF3 
 467      0080
 468              		.align	2
 469              		.p2align 4,,15
 470              		.global	canSleep
 471              		.thumb
 472              		.thumb_func
 473              		.type	canSleep, %function
 474              	canSleep:
 475              	.LFB124:
 476              		.loc 1 250 0
 477              		.cfi_startproc
 478              		@ args = 0, pretend = 0, frame = 0
 479              		@ frame_needed = 0, uses_anonymous_args = 0
 480              	.LVL39:
 481 0000 10B5     		push	{r4, lr}
 482              	.LCFI5:
 483              		.cfi_def_cfa_offset 8
 484              	.LBB18:
 485              		.loc 1 254 0
 486 0002 2023     		movs	r3, #32
 487              	.LVL40:
 488              	.LBE18:
 489              		.loc 1 250 0
 490 0004 0446     		mov	r4, r0
 491              		.cfi_offset 14, -4
 492              		.cfi_offset 4, -8
 493              	.LBB19:
 494              		.loc 1 254 0
 495              	@ 254 "../../../ChibiOS/os/hal/src/can.c" 1
 496 0006 83F31188 		msr     BASEPRI, r3
 497              	@ 0 "" 2
 498              	.LVL41:
ARM GAS  C:\Users\DNIEL~1\AppData\Local\Temp\ccGYSxmm.s 			page 10


 499              		.thumb
 500              	.LBE19:
 501              		.loc 1 257 0
 502 000a 0378     		ldrb	r3, [r0, #0]	@ zero_extendqisi2
 503              	.LVL42:
 504 000c 032B     		cmp	r3, #3
 505 000e 03D0     		beq	.L26
 506              	.LBB20:
 507              		.loc 1 263 0
 508 0010 0023     		movs	r3, #0
 509              	.LVL43:
 510              	@ 263 "../../../ChibiOS/os/hal/src/can.c" 1
 511 0012 83F31188 		msr     BASEPRI, r3
 512              	@ 0 "" 2
 513              	.LVL44:
 514              		.thumb
 515              	.LBE20:
 516              		.loc 1 264 0
 517 0016 10BD     		pop	{r4, pc}
 518              	.LVL45:
 519              	.L26:
 520              		.loc 1 258 0
 521 0018 FFF7FEFF 		bl	can_lld_sleep
 522              	.LVL46:
 523              		.loc 1 259 0
 524 001c 2046     		mov	r0, r4
 525 001e 0421     		movs	r1, #4
 526 0020 00F82C1B 		strb	r1, [r0], #44
 527              		.loc 1 260 0
 528 0024 0021     		movs	r1, #0
 529 0026 FFF7FEFF 		bl	chEvtBroadcastFlagsI
 530              		.loc 1 261 0
 531 002a FFF7FEFF 		bl	chSchRescheduleS
 532              	.LBB21:
 533              		.loc 1 263 0
 534 002e 0023     		movs	r3, #0
 535              	@ 263 "../../../ChibiOS/os/hal/src/can.c" 1
 536 0030 83F31188 		msr     BASEPRI, r3
 537              	@ 0 "" 2
 538              	.LVL47:
 539              		.thumb
 540              	.LBE21:
 541              		.loc 1 264 0
 542 0034 10BD     		pop	{r4, pc}
 543              		.cfi_endproc
 544              	.LFE124:
 545              		.size	canSleep, .-canSleep
 546 0036 00BFAFF3 		.section	.text.canWakeup,"ax",%progbits
 546      0080AFF3 
 546      0080
 547              		.align	2
 548              		.p2align 4,,15
 549              		.global	canWakeup
 550              		.thumb
 551              		.thumb_func
 552              		.type	canWakeup, %function
 553              	canWakeup:
ARM GAS  C:\Users\DNIEL~1\AppData\Local\Temp\ccGYSxmm.s 			page 11


 554              	.LFB125:
 555              		.loc 1 273 0
 556              		.cfi_startproc
 557              		@ args = 0, pretend = 0, frame = 0
 558              		@ frame_needed = 0, uses_anonymous_args = 0
 559              	.LVL48:
 560 0000 10B5     		push	{r4, lr}
 561              	.LCFI6:
 562              		.cfi_def_cfa_offset 8
 563              	.LBB22:
 564              		.loc 1 277 0
 565 0002 2023     		movs	r3, #32
 566              	.LVL49:
 567              	.LBE22:
 568              		.loc 1 273 0
 569 0004 0446     		mov	r4, r0
 570              		.cfi_offset 14, -4
 571              		.cfi_offset 4, -8
 572              	.LBB23:
 573              		.loc 1 277 0
 574              	@ 277 "../../../ChibiOS/os/hal/src/can.c" 1
 575 0006 83F31188 		msr     BASEPRI, r3
 576              	@ 0 "" 2
 577              	.LVL50:
 578              		.thumb
 579              	.LBE23:
 580              		.loc 1 280 0
 581 000a 0378     		ldrb	r3, [r0, #0]	@ zero_extendqisi2
 582              	.LVL51:
 583 000c 042B     		cmp	r3, #4
 584 000e 03D0     		beq	.L29
 585              	.LBB24:
 586              		.loc 1 286 0
 587 0010 0023     		movs	r3, #0
 588              	.LVL52:
 589              	@ 286 "../../../ChibiOS/os/hal/src/can.c" 1
 590 0012 83F31188 		msr     BASEPRI, r3
 591              	@ 0 "" 2
 592              	.LVL53:
 593              		.thumb
 594              	.LBE24:
 595              		.loc 1 287 0
 596 0016 10BD     		pop	{r4, pc}
 597              	.LVL54:
 598              	.L29:
 599              		.loc 1 281 0
 600 0018 FFF7FEFF 		bl	can_lld_wakeup
 601              	.LVL55:
 602              		.loc 1 282 0
 603 001c 2046     		mov	r0, r4
 604 001e 0321     		movs	r1, #3
 605 0020 00F8301B 		strb	r1, [r0], #48
 606              		.loc 1 283 0
 607 0024 0021     		movs	r1, #0
 608 0026 FFF7FEFF 		bl	chEvtBroadcastFlagsI
 609              		.loc 1 284 0
 610 002a FFF7FEFF 		bl	chSchRescheduleS
ARM GAS  C:\Users\DNIEL~1\AppData\Local\Temp\ccGYSxmm.s 			page 12


 611              	.LBB25:
 612              		.loc 1 286 0
 613 002e 0023     		movs	r3, #0
 614              	@ 286 "../../../ChibiOS/os/hal/src/can.c" 1
 615 0030 83F31188 		msr     BASEPRI, r3
 616              	@ 0 "" 2
 617              	.LVL56:
 618              		.thumb
 619              	.LBE25:
 620              		.loc 1 287 0
 621 0034 10BD     		pop	{r4, pc}
 622              		.cfi_endproc
 623              	.LFE125:
 624              		.size	canWakeup, .-canWakeup
 625 0036 00BFAFF3 		.text
 625      0080AFF3 
 625      0080
 626              	.Letext0:
 627              		.section	.debug_loc,"",%progbits
 628              	.Ldebug_loc0:
 629              	.LLST0:
 630 0000 00000000 		.4byte	.LFB119
 631 0004 02000000 		.4byte	.LCFI0
 632 0008 0200     		.2byte	0x2
 633 000a 7D       		.byte	0x7d
 634 000b 00       		.sleb128 0
 635 000c 02000000 		.4byte	.LCFI0
 636 0010 3E000000 		.4byte	.LFE119
 637 0014 0200     		.2byte	0x2
 638 0016 7D       		.byte	0x7d
 639 0017 10       		.sleb128 16
 640 0018 00000000 		.4byte	0x0
 641 001c 00000000 		.4byte	0x0
 642              	.LLST1:
 643 0020 00000000 		.4byte	.LVL0
 644 0024 0E000000 		.4byte	.LVL1
 645 0028 0100     		.2byte	0x1
 646 002a 50       		.byte	0x50
 647 002b 0E000000 		.4byte	.LVL1
 648 002f 3E000000 		.4byte	.LFE119
 649 0033 0100     		.2byte	0x1
 650 0035 54       		.byte	0x54
 651 0036 00000000 		.4byte	0x0
 652 003a 00000000 		.4byte	0x0
 653              	.LLST2:
 654 003e 00000000 		.4byte	.LFB120
 655 0042 02000000 		.4byte	.LCFI1
 656 0046 0200     		.2byte	0x2
 657 0048 7D       		.byte	0x7d
 658 0049 00       		.sleb128 0
 659 004a 02000000 		.4byte	.LCFI1
 660 004e 40000000 		.4byte	.LFE120
 661 0052 0200     		.2byte	0x2
 662 0054 7D       		.byte	0x7d
 663 0055 10       		.sleb128 16
 664 0056 00000000 		.4byte	0x0
 665 005a 00000000 		.4byte	0x0
ARM GAS  C:\Users\DNIEL~1\AppData\Local\Temp\ccGYSxmm.s 			page 13


 666              	.LLST3:
 667 005e 00000000 		.4byte	.LVL2
 668 0062 12000000 		.4byte	.LVL6
 669 0066 0100     		.2byte	0x1
 670 0068 50       		.byte	0x50
 671 0069 12000000 		.4byte	.LVL6
 672 006d 40000000 		.4byte	.LFE120
 673 0071 0100     		.2byte	0x1
 674 0073 54       		.byte	0x54
 675 0074 00000000 		.4byte	0x0
 676 0078 00000000 		.4byte	0x0
 677              	.LLST4:
 678 007c 00000000 		.4byte	.LVL2
 679 0080 12000000 		.4byte	.LVL6
 680 0084 0100     		.2byte	0x1
 681 0086 51       		.byte	0x51
 682 0087 12000000 		.4byte	.LVL6
 683 008b 40000000 		.4byte	.LFE120
 684 008f 0100     		.2byte	0x1
 685 0091 55       		.byte	0x55
 686 0092 00000000 		.4byte	0x0
 687 0096 00000000 		.4byte	0x0
 688              	.LLST5:
 689 009a 0C000000 		.4byte	.LVL4
 690 009e 0E000000 		.4byte	.LVL5
 691 00a2 0100     		.2byte	0x1
 692 00a4 53       		.byte	0x53
 693 00a5 00000000 		.4byte	0x0
 694 00a9 00000000 		.4byte	0x0
 695              	.LLST6:
 696 00ad 2A000000 		.4byte	.LVL8
 697 00b1 2C000000 		.4byte	.LVL9
 698 00b5 0100     		.2byte	0x1
 699 00b7 53       		.byte	0x53
 700 00b8 3E000000 		.4byte	.LVL10
 701 00bc 40000000 		.4byte	.LFE120
 702 00c0 0100     		.2byte	0x1
 703 00c2 53       		.byte	0x53
 704 00c3 00000000 		.4byte	0x0
 705 00c7 00000000 		.4byte	0x0
 706              	.LLST7:
 707 00cb 00000000 		.4byte	.LFB121
 708 00cf 02000000 		.4byte	.LCFI2
 709 00d3 0200     		.2byte	0x2
 710 00d5 7D       		.byte	0x7d
 711 00d6 00       		.sleb128 0
 712 00d7 02000000 		.4byte	.LCFI2
 713 00db 32000000 		.4byte	.LFE121
 714 00df 0200     		.2byte	0x2
 715 00e1 7D       		.byte	0x7d
 716 00e2 08       		.sleb128 8
 717 00e3 00000000 		.4byte	0x0
 718 00e7 00000000 		.4byte	0x0
 719              	.LLST8:
 720 00eb 00000000 		.4byte	.LVL11
 721 00ef 0D000000 		.4byte	.LVL14-1
 722 00f3 0100     		.2byte	0x1
ARM GAS  C:\Users\DNIEL~1\AppData\Local\Temp\ccGYSxmm.s 			page 14


 723 00f5 50       		.byte	0x50
 724 00f6 0D000000 		.4byte	.LVL14-1
 725 00fa 32000000 		.4byte	.LFE121
 726 00fe 0100     		.2byte	0x1
 727 0100 54       		.byte	0x54
 728 0101 00000000 		.4byte	0x0
 729 0105 00000000 		.4byte	0x0
 730              	.LLST9:
 731 0109 0A000000 		.4byte	.LVL13
 732 010d 0D000000 		.4byte	.LVL14-1
 733 0111 0100     		.2byte	0x1
 734 0113 53       		.byte	0x53
 735 0114 00000000 		.4byte	0x0
 736 0118 00000000 		.4byte	0x0
 737              	.LLST10:
 738 011c 30000000 		.4byte	.LVL16
 739 0120 32000000 		.4byte	.LFE121
 740 0124 0100     		.2byte	0x1
 741 0126 53       		.byte	0x53
 742 0127 00000000 		.4byte	0x0
 743 012b 00000000 		.4byte	0x0
 744              	.LLST11:
 745 012f 00000000 		.4byte	.LFB122
 746 0133 04000000 		.4byte	.LCFI3
 747 0137 0200     		.2byte	0x2
 748 0139 7D       		.byte	0x7d
 749 013a 00       		.sleb128 0
 750 013b 04000000 		.4byte	.LCFI3
 751 013f 52000000 		.4byte	.LFE122
 752 0143 0200     		.2byte	0x2
 753 0145 7D       		.byte	0x7d
 754 0146 18       		.sleb128 24
 755 0147 00000000 		.4byte	0x0
 756 014b 00000000 		.4byte	0x0
 757              	.LLST12:
 758 014f 00000000 		.4byte	.LVL17
 759 0153 16000000 		.4byte	.LVL20
 760 0157 0100     		.2byte	0x1
 761 0159 50       		.byte	0x50
 762 015a 16000000 		.4byte	.LVL20
 763 015e 52000000 		.4byte	.LFE122
 764 0162 0100     		.2byte	0x1
 765 0164 54       		.byte	0x54
 766 0165 00000000 		.4byte	0x0
 767 0169 00000000 		.4byte	0x0
 768              	.LLST13:
 769 016d 00000000 		.4byte	.LVL17
 770 0171 16000000 		.4byte	.LVL20
 771 0175 0100     		.2byte	0x1
 772 0177 51       		.byte	0x51
 773 0178 16000000 		.4byte	.LVL20
 774 017c 52000000 		.4byte	.LFE122
 775 0180 0100     		.2byte	0x1
 776 0182 56       		.byte	0x56
 777 0183 00000000 		.4byte	0x0
 778 0187 00000000 		.4byte	0x0
 779              	.LLST14:
ARM GAS  C:\Users\DNIEL~1\AppData\Local\Temp\ccGYSxmm.s 			page 15


 780 018b 00000000 		.4byte	.LVL17
 781 018f 16000000 		.4byte	.LVL20
 782 0193 0100     		.2byte	0x1
 783 0195 52       		.byte	0x52
 784 0196 16000000 		.4byte	.LVL20
 785 019a 52000000 		.4byte	.LFE122
 786 019e 0100     		.2byte	0x1
 787 01a0 57       		.byte	0x57
 788 01a1 00000000 		.4byte	0x0
 789 01a5 00000000 		.4byte	0x0
 790              	.LLST15:
 791 01a9 00000000 		.4byte	.LVL17
 792 01ad 0E000000 		.4byte	.LVL18
 793 01b1 0100     		.2byte	0x1
 794 01b3 53       		.byte	0x53
 795 01b4 0E000000 		.4byte	.LVL18
 796 01b8 52000000 		.4byte	.LFE122
 797 01bc 0100     		.2byte	0x1
 798 01be 55       		.byte	0x55
 799 01bf 00000000 		.4byte	0x0
 800 01c3 00000000 		.4byte	0x0
 801              	.LLST16:
 802 01c7 12000000 		.4byte	.LVL19
 803 01cb 18000000 		.4byte	.LVL21
 804 01cf 0100     		.2byte	0x1
 805 01d1 53       		.byte	0x53
 806 01d2 00000000 		.4byte	0x0
 807 01d6 00000000 		.4byte	0x0
 808              	.LLST17:
 809 01da 2E000000 		.4byte	.LVL22
 810 01de 3C000000 		.4byte	.LVL25
 811 01e2 0100     		.2byte	0x1
 812 01e4 50       		.byte	0x50
 813 01e5 00000000 		.4byte	0x0
 814 01e9 00000000 		.4byte	0x0
 815              	.LLST18:
 816 01ed 38000000 		.4byte	.LVL24
 817 01f1 3C000000 		.4byte	.LVL25
 818 01f5 0100     		.2byte	0x1
 819 01f7 53       		.byte	0x53
 820 01f8 00000000 		.4byte	0x0
 821 01fc 00000000 		.4byte	0x0
 822              	.LLST19:
 823 0200 4C000000 		.4byte	.LVL27
 824 0204 52000000 		.4byte	.LFE122
 825 0208 0100     		.2byte	0x1
 826 020a 53       		.byte	0x53
 827 020b 00000000 		.4byte	0x0
 828 020f 00000000 		.4byte	0x0
 829              	.LLST20:
 830 0213 00000000 		.4byte	.LFB123
 831 0217 04000000 		.4byte	.LCFI4
 832 021b 0200     		.2byte	0x2
 833 021d 7D       		.byte	0x7d
 834 021e 00       		.sleb128 0
 835 021f 04000000 		.4byte	.LCFI4
 836 0223 52000000 		.4byte	.LFE123
ARM GAS  C:\Users\DNIEL~1\AppData\Local\Temp\ccGYSxmm.s 			page 16


 837 0227 0200     		.2byte	0x2
 838 0229 7D       		.byte	0x7d
 839 022a 18       		.sleb128 24
 840 022b 00000000 		.4byte	0x0
 841 022f 00000000 		.4byte	0x0
 842              	.LLST21:
 843 0233 00000000 		.4byte	.LVL28
 844 0237 16000000 		.4byte	.LVL31
 845 023b 0100     		.2byte	0x1
 846 023d 50       		.byte	0x50
 847 023e 16000000 		.4byte	.LVL31
 848 0242 52000000 		.4byte	.LFE123
 849 0246 0100     		.2byte	0x1
 850 0248 54       		.byte	0x54
 851 0249 00000000 		.4byte	0x0
 852 024d 00000000 		.4byte	0x0
 853              	.LLST22:
 854 0251 00000000 		.4byte	.LVL28
 855 0255 16000000 		.4byte	.LVL31
 856 0259 0100     		.2byte	0x1
 857 025b 51       		.byte	0x51
 858 025c 16000000 		.4byte	.LVL31
 859 0260 52000000 		.4byte	.LFE123
 860 0264 0100     		.2byte	0x1
 861 0266 56       		.byte	0x56
 862 0267 00000000 		.4byte	0x0
 863 026b 00000000 		.4byte	0x0
 864              	.LLST23:
 865 026f 00000000 		.4byte	.LVL28
 866 0273 16000000 		.4byte	.LVL31
 867 0277 0100     		.2byte	0x1
 868 0279 52       		.byte	0x52
 869 027a 16000000 		.4byte	.LVL31
 870 027e 52000000 		.4byte	.LFE123
 871 0282 0100     		.2byte	0x1
 872 0284 57       		.byte	0x57
 873 0285 00000000 		.4byte	0x0
 874 0289 00000000 		.4byte	0x0
 875              	.LLST24:
 876 028d 00000000 		.4byte	.LVL28
 877 0291 0E000000 		.4byte	.LVL29
 878 0295 0100     		.2byte	0x1
 879 0297 53       		.byte	0x53
 880 0298 0E000000 		.4byte	.LVL29
 881 029c 52000000 		.4byte	.LFE123
 882 02a0 0100     		.2byte	0x1
 883 02a2 55       		.byte	0x55
 884 02a3 00000000 		.4byte	0x0
 885 02a7 00000000 		.4byte	0x0
 886              	.LLST25:
 887 02ab 12000000 		.4byte	.LVL30
 888 02af 18000000 		.4byte	.LVL32
 889 02b3 0100     		.2byte	0x1
 890 02b5 53       		.byte	0x53
 891 02b6 00000000 		.4byte	0x0
 892 02ba 00000000 		.4byte	0x0
 893              	.LLST26:
ARM GAS  C:\Users\DNIEL~1\AppData\Local\Temp\ccGYSxmm.s 			page 17


 894 02be 2E000000 		.4byte	.LVL33
 895 02c2 3C000000 		.4byte	.LVL36
 896 02c6 0100     		.2byte	0x1
 897 02c8 50       		.byte	0x50
 898 02c9 00000000 		.4byte	0x0
 899 02cd 00000000 		.4byte	0x0
 900              	.LLST27:
 901 02d1 38000000 		.4byte	.LVL35
 902 02d5 3C000000 		.4byte	.LVL36
 903 02d9 0100     		.2byte	0x1
 904 02db 53       		.byte	0x53
 905 02dc 00000000 		.4byte	0x0
 906 02e0 00000000 		.4byte	0x0
 907              	.LLST28:
 908 02e4 4C000000 		.4byte	.LVL38
 909 02e8 52000000 		.4byte	.LFE123
 910 02ec 0100     		.2byte	0x1
 911 02ee 53       		.byte	0x53
 912 02ef 00000000 		.4byte	0x0
 913 02f3 00000000 		.4byte	0x0
 914              	.LLST29:
 915 02f7 00000000 		.4byte	.LFB124
 916 02fb 02000000 		.4byte	.LCFI5
 917 02ff 0200     		.2byte	0x2
 918 0301 7D       		.byte	0x7d
 919 0302 00       		.sleb128 0
 920 0303 02000000 		.4byte	.LCFI5
 921 0307 36000000 		.4byte	.LFE124
 922 030b 0200     		.2byte	0x2
 923 030d 7D       		.byte	0x7d
 924 030e 08       		.sleb128 8
 925 030f 00000000 		.4byte	0x0
 926 0313 00000000 		.4byte	0x0
 927              	.LLST30:
 928 0317 00000000 		.4byte	.LVL39
 929 031b 1B000000 		.4byte	.LVL46-1
 930 031f 0100     		.2byte	0x1
 931 0321 50       		.byte	0x50
 932 0322 1B000000 		.4byte	.LVL46-1
 933 0326 36000000 		.4byte	.LFE124
 934 032a 0100     		.2byte	0x1
 935 032c 54       		.byte	0x54
 936 032d 00000000 		.4byte	0x0
 937 0331 00000000 		.4byte	0x0
 938              	.LLST31:
 939 0335 0A000000 		.4byte	.LVL41
 940 0339 0C000000 		.4byte	.LVL42
 941 033d 0100     		.2byte	0x1
 942 033f 53       		.byte	0x53
 943 0340 00000000 		.4byte	0x0
 944 0344 00000000 		.4byte	0x0
 945              	.LLST32:
 946 0348 16000000 		.4byte	.LVL44
 947 034c 18000000 		.4byte	.LVL45
 948 0350 0100     		.2byte	0x1
 949 0352 53       		.byte	0x53
 950 0353 34000000 		.4byte	.LVL47
ARM GAS  C:\Users\DNIEL~1\AppData\Local\Temp\ccGYSxmm.s 			page 18


 951 0357 36000000 		.4byte	.LFE124
 952 035b 0100     		.2byte	0x1
 953 035d 53       		.byte	0x53
 954 035e 00000000 		.4byte	0x0
 955 0362 00000000 		.4byte	0x0
 956              	.LLST33:
 957 0366 00000000 		.4byte	.LFB125
 958 036a 02000000 		.4byte	.LCFI6
 959 036e 0200     		.2byte	0x2
 960 0370 7D       		.byte	0x7d
 961 0371 00       		.sleb128 0
 962 0372 02000000 		.4byte	.LCFI6
 963 0376 36000000 		.4byte	.LFE125
 964 037a 0200     		.2byte	0x2
 965 037c 7D       		.byte	0x7d
 966 037d 08       		.sleb128 8
 967 037e 00000000 		.4byte	0x0
 968 0382 00000000 		.4byte	0x0
 969              	.LLST34:
 970 0386 00000000 		.4byte	.LVL48
 971 038a 1B000000 		.4byte	.LVL55-1
 972 038e 0100     		.2byte	0x1
 973 0390 50       		.byte	0x50
 974 0391 1B000000 		.4byte	.LVL55-1
 975 0395 36000000 		.4byte	.LFE125
 976 0399 0100     		.2byte	0x1
 977 039b 54       		.byte	0x54
 978 039c 00000000 		.4byte	0x0
 979 03a0 00000000 		.4byte	0x0
 980              	.LLST35:
 981 03a4 0A000000 		.4byte	.LVL50
 982 03a8 0C000000 		.4byte	.LVL51
 983 03ac 0100     		.2byte	0x1
 984 03ae 53       		.byte	0x53
 985 03af 00000000 		.4byte	0x0
 986 03b3 00000000 		.4byte	0x0
 987              	.LLST36:
 988 03b7 16000000 		.4byte	.LVL53
 989 03bb 18000000 		.4byte	.LVL54
 990 03bf 0100     		.2byte	0x1
 991 03c1 53       		.byte	0x53
 992 03c2 34000000 		.4byte	.LVL56
 993 03c6 36000000 		.4byte	.LFE125
 994 03ca 0100     		.2byte	0x1
 995 03cc 53       		.byte	0x53
 996 03cd 00000000 		.4byte	0x0
 997 03d1 00000000 		.4byte	0x0
 998              		.file 2 "c:\\program files (x86)\\codesourcery\\sourcery g++ lite\\bin\\../lib/gcc/arm-none-eabi/4
 999              		.file 3 "../../../ChibiOS/os/ports/GCC/ARMCMx/chtypes.h"
 1000              		.file 4 "../../../ChibiOS/os/kernel/include/chlists.h"
 1001              		.file 5 "../../../ChibiOS/os/kernel/include/chthreads.h"
 1002              		.file 6 "../../../ChibiOS/os/ports/GCC/ARMCMx/chcore_v7m.h"
 1003              		.file 7 "../../../ChibiOS/os/kernel/include/chsem.h"
 1004              		.file 8 "../../../ChibiOS/os/kernel/include/chmtx.h"
 1005              		.file 9 "../../../ChibiOS/os/kernel/include/chevents.h"
 1006              		.file 10 "../../../ChibiOS/os/hal/platforms/STM32F4xx/stm32f4xx.h"
 1007              		.file 11 "../../../ChibiOS/os/hal/include/can.h"
ARM GAS  C:\Users\DNIEL~1\AppData\Local\Temp\ccGYSxmm.s 			page 19


 1008              		.file 12 "../../../ChibiOS/os/hal/platforms/STM32/can_lld.h"
 1009              		.file 13 "../../../ChibiOS/os/ports/common/ARMCMx/CMSIS/include/core_cm4.h"
 1010              		.section	.debug_info
 1011 0000 F40D0000 		.4byte	0xdf4
 1012 0004 0200     		.2byte	0x2
 1013 0006 00000000 		.4byte	.Ldebug_abbrev0
 1014 000a 04       		.byte	0x4
 1015 000b 01       		.uleb128 0x1
 1016 000c CE000000 		.4byte	.LASF130
 1017 0010 01       		.byte	0x1
 1018 0011 A4040000 		.4byte	.LASF131
 1019 0015 34030000 		.4byte	.LASF132
 1020 0019 00000000 		.4byte	0x0
 1021 001d 00000000 		.4byte	0x0
 1022 0021 C0000000 		.4byte	.Ldebug_ranges0+0xc0
 1023 0025 00000000 		.4byte	.Ldebug_line0
 1024 0029 02       		.uleb128 0x2
 1025 002a 04       		.byte	0x4
 1026 002b 05       		.byte	0x5
 1027 002c 696E7400 		.ascii	"int\000"
 1028 0030 03       		.uleb128 0x3
 1029 0031 04       		.byte	0x4
 1030 0032 07       		.byte	0x7
 1031 0033 81010000 		.4byte	.LASF0
 1032 0037 03       		.uleb128 0x3
 1033 0038 01       		.byte	0x1
 1034 0039 06       		.byte	0x6
 1035 003a 89000000 		.4byte	.LASF1
 1036 003e 04       		.uleb128 0x4
 1037 003f DE040000 		.4byte	.LASF4
 1038 0043 02       		.byte	0x2
 1039 0044 2A       		.byte	0x2a
 1040 0045 49000000 		.4byte	0x49
 1041 0049 03       		.uleb128 0x3
 1042 004a 01       		.byte	0x1
 1043 004b 08       		.byte	0x8
 1044 004c 26030000 		.4byte	.LASF2
 1045 0050 03       		.uleb128 0x3
 1046 0051 02       		.byte	0x2
 1047 0052 05       		.byte	0x5
 1048 0053 A0030000 		.4byte	.LASF3
 1049 0057 04       		.uleb128 0x4
 1050 0058 1E010000 		.4byte	.LASF5
 1051 005c 02       		.byte	0x2
 1052 005d 36       		.byte	0x36
 1053 005e 62000000 		.4byte	0x62
 1054 0062 03       		.uleb128 0x3
 1055 0063 02       		.byte	0x2
 1056 0064 07       		.byte	0x7
 1057 0065 C2010000 		.4byte	.LASF6
 1058 0069 04       		.uleb128 0x4
 1059 006a 1E030000 		.4byte	.LASF7
 1060 006e 02       		.byte	0x2
 1061 006f 4F       		.byte	0x4f
 1062 0070 74000000 		.4byte	0x74
 1063 0074 03       		.uleb128 0x3
 1064 0075 04       		.byte	0x4
ARM GAS  C:\Users\DNIEL~1\AppData\Local\Temp\ccGYSxmm.s 			page 20


 1065 0076 05       		.byte	0x5
 1066 0077 EF000000 		.4byte	.LASF8
 1067 007b 04       		.uleb128 0x4
 1068 007c 01040000 		.4byte	.LASF9
 1069 0080 02       		.byte	0x2
 1070 0081 50       		.byte	0x50
 1071 0082 86000000 		.4byte	0x86
 1072 0086 03       		.uleb128 0x3
 1073 0087 04       		.byte	0x4
 1074 0088 07       		.byte	0x7
 1075 0089 18040000 		.4byte	.LASF10
 1076 008d 03       		.uleb128 0x3
 1077 008e 08       		.byte	0x8
 1078 008f 05       		.byte	0x5
 1079 0090 7B000000 		.4byte	.LASF11
 1080 0094 03       		.uleb128 0x3
 1081 0095 08       		.byte	0x8
 1082 0096 07       		.byte	0x7
 1083 0097 49000000 		.4byte	.LASF12
 1084 009b 03       		.uleb128 0x3
 1085 009c 01       		.byte	0x1
 1086 009d 02       		.byte	0x2
 1087 009e 18030000 		.4byte	.LASF13
 1088 00a2 04       		.uleb128 0x4
 1089 00a3 03020000 		.4byte	.LASF14
 1090 00a7 03       		.byte	0x3
 1091 00a8 2C       		.byte	0x2c
 1092 00a9 3E000000 		.4byte	0x3e
 1093 00ad 04       		.uleb128 0x4
 1094 00ae F8000000 		.4byte	.LASF15
 1095 00b2 03       		.byte	0x3
 1096 00b3 2D       		.byte	0x2d
 1097 00b4 3E000000 		.4byte	0x3e
 1098 00b8 04       		.uleb128 0x4
 1099 00b9 0A000000 		.4byte	.LASF16
 1100 00bd 03       		.byte	0x3
 1101 00be 2E       		.byte	0x2e
 1102 00bf 3E000000 		.4byte	0x3e
 1103 00c3 04       		.uleb128 0x4
 1104 00c4 DA000000 		.4byte	.LASF17
 1105 00c8 03       		.byte	0x3
 1106 00c9 2F       		.byte	0x2f
 1107 00ca 3E000000 		.4byte	0x3e
 1108 00ce 04       		.uleb128 0x4
 1109 00cf FD020000 		.4byte	.LASF18
 1110 00d3 03       		.byte	0x3
 1111 00d4 30       		.byte	0x30
 1112 00d5 7B000000 		.4byte	0x7b
 1113 00d9 04       		.uleb128 0x4
 1114 00da F5010000 		.4byte	.LASF19
 1115 00de 03       		.byte	0x3
 1116 00df 31       		.byte	0x31
 1117 00e0 69000000 		.4byte	0x69
 1118 00e4 04       		.uleb128 0x4
 1119 00e5 27020000 		.4byte	.LASF20
 1120 00e9 03       		.byte	0x3
 1121 00ea 33       		.byte	0x33
ARM GAS  C:\Users\DNIEL~1\AppData\Local\Temp\ccGYSxmm.s 			page 21


 1122 00eb 7B000000 		.4byte	0x7b
 1123 00ef 04       		.uleb128 0x4
 1124 00f0 7D040000 		.4byte	.LASF21
 1125 00f4 03       		.byte	0x3
 1126 00f5 34       		.byte	0x34
 1127 00f6 7B000000 		.4byte	0x7b
 1128 00fa 04       		.uleb128 0x4
 1129 00fb 42040000 		.4byte	.LASF22
 1130 00ff 03       		.byte	0x3
 1131 0100 35       		.byte	0x35
 1132 0101 7B000000 		.4byte	0x7b
 1133 0105 04       		.uleb128 0x4
 1134 0106 7B010000 		.4byte	.LASF23
 1135 010a 03       		.byte	0x3
 1136 010b 36       		.byte	0x36
 1137 010c 69000000 		.4byte	0x69
 1138 0110 04       		.uleb128 0x4
 1139 0111 E0030000 		.4byte	.LASF24
 1140 0115 04       		.byte	0x4
 1141 0116 2A       		.byte	0x2a
 1142 0117 1B010000 		.4byte	0x11b
 1143 011b 05       		.uleb128 0x5
 1144 011c E0030000 		.4byte	.LASF24
 1145 0120 48       		.byte	0x48
 1146 0121 05       		.byte	0x5
 1147 0122 5E       		.byte	0x5e
 1148 0123 40020000 		.4byte	0x240
 1149 0127 06       		.uleb128 0x6
 1150 0128 C3030000 		.4byte	.LASF25
 1151 012c 05       		.byte	0x5
 1152 012d 5F       		.byte	0x5f
 1153 012e 65020000 		.4byte	0x265
 1154 0132 02       		.byte	0x2
 1155 0133 23       		.byte	0x23
 1156 0134 00       		.uleb128 0x0
 1157 0135 06       		.uleb128 0x6
 1158 0136 F6020000 		.4byte	.LASF26
 1159 013a 05       		.byte	0x5
 1160 013b 61       		.byte	0x61
 1161 013c 65020000 		.4byte	0x265
 1162 0140 02       		.byte	0x2
 1163 0141 23       		.byte	0x23
 1164 0142 04       		.uleb128 0x4
 1165 0143 06       		.uleb128 0x6
 1166 0144 5A020000 		.4byte	.LASF27
 1167 0148 05       		.byte	0x5
 1168 0149 63       		.byte	0x63
 1169 014a CE000000 		.4byte	0xce
 1170 014e 02       		.byte	0x2
 1171 014f 23       		.byte	0x23
 1172 0150 08       		.uleb128 0x8
 1173 0151 06       		.uleb128 0x6
 1174 0152 22050000 		.4byte	.LASF28
 1175 0156 05       		.byte	0x5
 1176 0157 64       		.byte	0x64
 1177 0158 33030000 		.4byte	0x333
 1178 015c 02       		.byte	0x2
ARM GAS  C:\Users\DNIEL~1\AppData\Local\Temp\ccGYSxmm.s 			page 22


 1179 015d 23       		.byte	0x23
 1180 015e 0C       		.uleb128 0xc
 1181 015f 06       		.uleb128 0x6
 1182 0160 2C010000 		.4byte	.LASF29
 1183 0164 05       		.byte	0x5
 1184 0165 66       		.byte	0x66
 1185 0166 65020000 		.4byte	0x265
 1186 016a 02       		.byte	0x2
 1187 016b 23       		.byte	0x23
 1188 016c 10       		.uleb128 0x10
 1189 016d 06       		.uleb128 0x6
 1190 016e 6B020000 		.4byte	.LASF30
 1191 0172 05       		.byte	0x5
 1192 0173 67       		.byte	0x67
 1193 0174 65020000 		.4byte	0x265
 1194 0178 02       		.byte	0x2
 1195 0179 23       		.byte	0x23
 1196 017a 14       		.uleb128 0x14
 1197 017b 06       		.uleb128 0x6
 1198 017c 95040000 		.4byte	.LASF31
 1199 0180 05       		.byte	0x5
 1200 0181 6E       		.byte	0x6e
 1201 0182 8D040000 		.4byte	0x48d
 1202 0186 02       		.byte	0x2
 1203 0187 23       		.byte	0x23
 1204 0188 18       		.uleb128 0x18
 1205 0189 06       		.uleb128 0x6
 1206 018a AA030000 		.4byte	.LASF32
 1207 018e 05       		.byte	0x5
 1208 018f 79       		.byte	0x79
 1209 0190 AD000000 		.4byte	0xad
 1210 0194 02       		.byte	0x2
 1211 0195 23       		.byte	0x23
 1212 0196 1C       		.uleb128 0x1c
 1213 0197 06       		.uleb128 0x6
 1214 0198 CA030000 		.4byte	.LASF33
 1215 019c 05       		.byte	0x5
 1216 019d 7D       		.byte	0x7d
 1217 019e A2000000 		.4byte	0xa2
 1218 01a2 02       		.byte	0x2
 1219 01a3 23       		.byte	0x23
 1220 01a4 1D       		.uleb128 0x1d
 1221 01a5 06       		.uleb128 0x6
 1222 01a6 17010000 		.4byte	.LASF34
 1223 01aa 05       		.byte	0x5
 1224 01ab 82       		.byte	0x82
 1225 01ac B8000000 		.4byte	0xb8
 1226 01b0 02       		.byte	0x2
 1227 01b1 23       		.byte	0x23
 1228 01b2 1E       		.uleb128 0x1e
 1229 01b3 06       		.uleb128 0x6
 1230 01b4 B2030000 		.4byte	.LASF35
 1231 01b8 05       		.byte	0x5
 1232 01b9 88       		.byte	0x88
 1233 01ba C3000000 		.4byte	0xc3
 1234 01be 02       		.byte	0x2
 1235 01bf 23       		.byte	0x23
ARM GAS  C:\Users\DNIEL~1\AppData\Local\Temp\ccGYSxmm.s 			page 23


 1236 01c0 1F       		.uleb128 0x1f
 1237 01c1 06       		.uleb128 0x6
 1238 01c2 12000000 		.4byte	.LASF36
 1239 01c6 05       		.byte	0x5
 1240 01c7 8F       		.byte	0x8f
 1241 01c8 5B030000 		.4byte	0x35b
 1242 01cc 02       		.byte	0x2
 1243 01cd 23       		.byte	0x23
 1244 01ce 20       		.uleb128 0x20
 1245 01cf 07       		.uleb128 0x7
 1246 01d0 705F7500 		.ascii	"p_u\000"
 1247 01d4 05       		.byte	0x5
 1248 01d5 B4       		.byte	0xb4
 1249 01d6 58040000 		.4byte	0x458
 1250 01da 02       		.byte	0x2
 1251 01db 23       		.byte	0x23
 1252 01dc 24       		.uleb128 0x24
 1253 01dd 06       		.uleb128 0x6
 1254 01de 28050000 		.4byte	.LASF37
 1255 01e2 05       		.byte	0x5
 1256 01e3 B9       		.byte	0xb9
 1257 01e4 8D020000 		.4byte	0x28d
 1258 01e8 02       		.byte	0x2
 1259 01e9 23       		.byte	0x23
 1260 01ea 28       		.uleb128 0x28
 1261 01eb 06       		.uleb128 0x6
 1262 01ec 99010000 		.4byte	.LASF38
 1263 01f0 05       		.byte	0x5
 1264 01f1 BF       		.byte	0xbf
 1265 01f2 6B020000 		.4byte	0x26b
 1266 01f6 02       		.byte	0x2
 1267 01f7 23       		.byte	0x23
 1268 01f8 2C       		.uleb128 0x2c
 1269 01f9 06       		.uleb128 0x6
 1270 01fa 0F050000 		.4byte	.LASF39
 1271 01fe 05       		.byte	0x5
 1272 01ff C3       		.byte	0xc3
 1273 0200 D9000000 		.4byte	0xd9
 1274 0204 02       		.byte	0x2
 1275 0205 23       		.byte	0x23
 1276 0206 34       		.uleb128 0x34
 1277 0207 06       		.uleb128 0x6
 1278 0208 E7030000 		.4byte	.LASF40
 1279 020c 05       		.byte	0x5
 1280 020d C9       		.byte	0xc9
 1281 020e E4000000 		.4byte	0xe4
 1282 0212 02       		.byte	0x2
 1283 0213 23       		.byte	0x23
 1284 0214 38       		.uleb128 0x38
 1285 0215 06       		.uleb128 0x6
 1286 0216 96030000 		.4byte	.LASF41
 1287 021a 05       		.byte	0x5
 1288 021b D0       		.byte	0xd0
 1289 021c 9F040000 		.4byte	0x49f
 1290 0220 02       		.byte	0x2
 1291 0221 23       		.byte	0x23
 1292 0222 3C       		.uleb128 0x3c
ARM GAS  C:\Users\DNIEL~1\AppData\Local\Temp\ccGYSxmm.s 			page 24


 1293 0223 06       		.uleb128 0x6
 1294 0224 4C040000 		.4byte	.LASF42
 1295 0228 05       		.byte	0x5
 1296 0229 D4       		.byte	0xd4
 1297 022a CE000000 		.4byte	0xce
 1298 022e 02       		.byte	0x2
 1299 022f 23       		.byte	0x23
 1300 0230 40       		.uleb128 0x40
 1301 0231 06       		.uleb128 0x6
 1302 0232 AA000000 		.4byte	.LASF43
 1303 0236 05       		.byte	0x5
 1304 0237 DA       		.byte	0xda
 1305 0238 A3020000 		.4byte	0x2a3
 1306 023c 02       		.byte	0x2
 1307 023d 23       		.byte	0x23
 1308 023e 44       		.uleb128 0x44
 1309 023f 00       		.byte	0x0
 1310 0240 08       		.uleb128 0x8
 1311 0241 08       		.byte	0x8
 1312 0242 04       		.byte	0x4
 1313 0243 61       		.byte	0x61
 1314 0244 65020000 		.4byte	0x265
 1315 0248 06       		.uleb128 0x6
 1316 0249 C3030000 		.4byte	.LASF25
 1317 024d 04       		.byte	0x4
 1318 024e 62       		.byte	0x62
 1319 024f 65020000 		.4byte	0x265
 1320 0253 02       		.byte	0x2
 1321 0254 23       		.byte	0x23
 1322 0255 00       		.uleb128 0x0
 1323 0256 06       		.uleb128 0x6
 1324 0257 F6020000 		.4byte	.LASF26
 1325 025b 04       		.byte	0x4
 1326 025c 64       		.byte	0x64
 1327 025d 65020000 		.4byte	0x265
 1328 0261 02       		.byte	0x2
 1329 0262 23       		.byte	0x23
 1330 0263 04       		.uleb128 0x4
 1331 0264 00       		.byte	0x0
 1332 0265 09       		.uleb128 0x9
 1333 0266 04       		.byte	0x4
 1334 0267 10010000 		.4byte	0x110
 1335 026b 04       		.uleb128 0x4
 1336 026c 73020000 		.4byte	.LASF44
 1337 0270 04       		.byte	0x4
 1338 0271 66       		.byte	0x66
 1339 0272 40020000 		.4byte	0x240
 1340 0276 08       		.uleb128 0x8
 1341 0277 04       		.byte	0x4
 1342 0278 04       		.byte	0x4
 1343 0279 6B       		.byte	0x6b
 1344 027a 8D020000 		.4byte	0x28d
 1345 027e 06       		.uleb128 0x6
 1346 027f C3030000 		.4byte	.LASF25
 1347 0283 04       		.byte	0x4
 1348 0284 6D       		.byte	0x6d
 1349 0285 65020000 		.4byte	0x265
ARM GAS  C:\Users\DNIEL~1\AppData\Local\Temp\ccGYSxmm.s 			page 25


 1350 0289 02       		.byte	0x2
 1351 028a 23       		.byte	0x23
 1352 028b 00       		.uleb128 0x0
 1353 028c 00       		.byte	0x0
 1354 028d 04       		.uleb128 0x4
 1355 028e 0B020000 		.4byte	.LASF45
 1356 0292 04       		.byte	0x4
 1357 0293 70       		.byte	0x70
 1358 0294 76020000 		.4byte	0x276
 1359 0298 04       		.uleb128 0x4
 1360 0299 5C010000 		.4byte	.LASF46
 1361 029d 06       		.byte	0x6
 1362 029e E5       		.byte	0xe5
 1363 029f A3020000 		.4byte	0x2a3
 1364 02a3 0A       		.uleb128 0xa
 1365 02a4 04       		.byte	0x4
 1366 02a5 0B       		.uleb128 0xb
 1367 02a6 6C040000 		.4byte	.LASF47
 1368 02aa 24       		.byte	0x24
 1369 02ab 06       		.byte	0x6
 1370 02ac 0C01     		.2byte	0x10c
 1371 02ae 33030000 		.4byte	0x333
 1372 02b2 0C       		.uleb128 0xc
 1373 02b3 723400   		.ascii	"r4\000"
 1374 02b6 06       		.byte	0x6
 1375 02b7 1F01     		.2byte	0x11f
 1376 02b9 98020000 		.4byte	0x298
 1377 02bd 02       		.byte	0x2
 1378 02be 23       		.byte	0x23
 1379 02bf 00       		.uleb128 0x0
 1380 02c0 0C       		.uleb128 0xc
 1381 02c1 723500   		.ascii	"r5\000"
 1382 02c4 06       		.byte	0x6
 1383 02c5 2001     		.2byte	0x120
 1384 02c7 98020000 		.4byte	0x298
 1385 02cb 02       		.byte	0x2
 1386 02cc 23       		.byte	0x23
 1387 02cd 04       		.uleb128 0x4
 1388 02ce 0C       		.uleb128 0xc
 1389 02cf 723600   		.ascii	"r6\000"
 1390 02d2 06       		.byte	0x6
 1391 02d3 2101     		.2byte	0x121
 1392 02d5 98020000 		.4byte	0x298
 1393 02d9 02       		.byte	0x2
 1394 02da 23       		.byte	0x23
 1395 02db 08       		.uleb128 0x8
 1396 02dc 0C       		.uleb128 0xc
 1397 02dd 723700   		.ascii	"r7\000"
 1398 02e0 06       		.byte	0x6
 1399 02e1 2201     		.2byte	0x122
 1400 02e3 98020000 		.4byte	0x298
 1401 02e7 02       		.byte	0x2
 1402 02e8 23       		.byte	0x23
 1403 02e9 0C       		.uleb128 0xc
 1404 02ea 0C       		.uleb128 0xc
 1405 02eb 723800   		.ascii	"r8\000"
 1406 02ee 06       		.byte	0x6
ARM GAS  C:\Users\DNIEL~1\AppData\Local\Temp\ccGYSxmm.s 			page 26


 1407 02ef 2301     		.2byte	0x123
 1408 02f1 98020000 		.4byte	0x298
 1409 02f5 02       		.byte	0x2
 1410 02f6 23       		.byte	0x23
 1411 02f7 10       		.uleb128 0x10
 1412 02f8 0C       		.uleb128 0xc
 1413 02f9 723900   		.ascii	"r9\000"
 1414 02fc 06       		.byte	0x6
 1415 02fd 2401     		.2byte	0x124
 1416 02ff 98020000 		.4byte	0x298
 1417 0303 02       		.byte	0x2
 1418 0304 23       		.byte	0x23
 1419 0305 14       		.uleb128 0x14
 1420 0306 0C       		.uleb128 0xc
 1421 0307 72313000 		.ascii	"r10\000"
 1422 030b 06       		.byte	0x6
 1423 030c 2501     		.2byte	0x125
 1424 030e 98020000 		.4byte	0x298
 1425 0312 02       		.byte	0x2
 1426 0313 23       		.byte	0x23
 1427 0314 18       		.uleb128 0x18
 1428 0315 0C       		.uleb128 0xc
 1429 0316 72313100 		.ascii	"r11\000"
 1430 031a 06       		.byte	0x6
 1431 031b 2601     		.2byte	0x126
 1432 031d 98020000 		.4byte	0x298
 1433 0321 02       		.byte	0x2
 1434 0322 23       		.byte	0x23
 1435 0323 1C       		.uleb128 0x1c
 1436 0324 0C       		.uleb128 0xc
 1437 0325 6C7200   		.ascii	"lr\000"
 1438 0328 06       		.byte	0x6
 1439 0329 2701     		.2byte	0x127
 1440 032b 98020000 		.4byte	0x298
 1441 032f 02       		.byte	0x2
 1442 0330 23       		.byte	0x23
 1443 0331 20       		.uleb128 0x20
 1444 0332 00       		.byte	0x0
 1445 0333 0B       		.uleb128 0xb
 1446 0334 64040000 		.4byte	.LASF48
 1447 0338 04       		.byte	0x4
 1448 0339 06       		.byte	0x6
 1449 033a 3101     		.2byte	0x131
 1450 033c 50030000 		.4byte	0x350
 1451 0340 0C       		.uleb128 0xc
 1452 0341 72313300 		.ascii	"r13\000"
 1453 0345 06       		.byte	0x6
 1454 0346 3201     		.2byte	0x132
 1455 0348 50030000 		.4byte	0x350
 1456 034c 02       		.byte	0x2
 1457 034d 23       		.byte	0x23
 1458 034e 00       		.uleb128 0x0
 1459 034f 00       		.byte	0x0
 1460 0350 09       		.uleb128 0x9
 1461 0351 04       		.byte	0x4
 1462 0352 A5020000 		.4byte	0x2a5
 1463 0356 0D       		.uleb128 0xd
ARM GAS  C:\Users\DNIEL~1\AppData\Local\Temp\ccGYSxmm.s 			page 27


 1464 0357 7B000000 		.4byte	0x7b
 1465 035b 0D       		.uleb128 0xd
 1466 035c FA000000 		.4byte	0xfa
 1467 0360 05       		.uleb128 0x5
 1468 0361 73040000 		.4byte	.LASF49
 1469 0365 0C       		.byte	0xc
 1470 0366 07       		.byte	0x7
 1471 0367 2C       		.byte	0x2c
 1472 0368 89030000 		.4byte	0x389
 1473 036c 06       		.uleb128 0x6
 1474 036d 34010000 		.4byte	.LASF50
 1475 0371 07       		.byte	0x7
 1476 0372 2D       		.byte	0x2d
 1477 0373 6B020000 		.4byte	0x26b
 1478 0377 02       		.byte	0x2
 1479 0378 23       		.byte	0x23
 1480 0379 00       		.uleb128 0x0
 1481 037a 06       		.uleb128 0x6
 1482 037b BC010000 		.4byte	.LASF51
 1483 037f 07       		.byte	0x7
 1484 0380 2F       		.byte	0x2f
 1485 0381 05010000 		.4byte	0x105
 1486 0385 02       		.byte	0x2
 1487 0386 23       		.byte	0x23
 1488 0387 08       		.uleb128 0x8
 1489 0388 00       		.byte	0x0
 1490 0389 04       		.uleb128 0x4
 1491 038a 73040000 		.4byte	.LASF49
 1492 038e 07       		.byte	0x7
 1493 038f 30       		.byte	0x30
 1494 0390 60030000 		.4byte	0x360
 1495 0394 05       		.uleb128 0x5
 1496 0395 33020000 		.4byte	.LASF52
 1497 0399 10       		.byte	0x10
 1498 039a 08       		.byte	0x8
 1499 039b 2C       		.byte	0x2c
 1500 039c CB030000 		.4byte	0x3cb
 1501 03a0 06       		.uleb128 0x6
 1502 03a1 B2000000 		.4byte	.LASF53
 1503 03a5 08       		.byte	0x8
 1504 03a6 2D       		.byte	0x2d
 1505 03a7 6B020000 		.4byte	0x26b
 1506 03ab 02       		.byte	0x2
 1507 03ac 23       		.byte	0x23
 1508 03ad 00       		.uleb128 0x0
 1509 03ae 06       		.uleb128 0x6
 1510 03af 1A050000 		.4byte	.LASF54
 1511 03b3 08       		.byte	0x8
 1512 03b4 2F       		.byte	0x2f
 1513 03b5 65020000 		.4byte	0x265
 1514 03b9 02       		.byte	0x2
 1515 03ba 23       		.byte	0x23
 1516 03bb 08       		.uleb128 0x8
 1517 03bc 06       		.uleb128 0x6
 1518 03bd 3B040000 		.4byte	.LASF55
 1519 03c1 08       		.byte	0x8
 1520 03c2 31       		.byte	0x31
ARM GAS  C:\Users\DNIEL~1\AppData\Local\Temp\ccGYSxmm.s 			page 28


 1521 03c3 CB030000 		.4byte	0x3cb
 1522 03c7 02       		.byte	0x2
 1523 03c8 23       		.byte	0x23
 1524 03c9 0C       		.uleb128 0xc
 1525 03ca 00       		.byte	0x0
 1526 03cb 09       		.uleb128 0x9
 1527 03cc 04       		.byte	0x4
 1528 03cd 94030000 		.4byte	0x394
 1529 03d1 04       		.uleb128 0x4
 1530 03d2 33020000 		.4byte	.LASF52
 1531 03d6 08       		.byte	0x8
 1532 03d7 33       		.byte	0x33
 1533 03d8 94030000 		.4byte	0x394
 1534 03dc 04       		.uleb128 0x4
 1535 03dd EC040000 		.4byte	.LASF56
 1536 03e1 09       		.byte	0x9
 1537 03e2 2C       		.byte	0x2c
 1538 03e3 E7030000 		.4byte	0x3e7
 1539 03e7 05       		.uleb128 0x5
 1540 03e8 EC040000 		.4byte	.LASF56
 1541 03ec 10       		.byte	0x10
 1542 03ed 09       		.byte	0x9
 1543 03ee 31       		.byte	0x31
 1544 03ef 2C040000 		.4byte	0x42c
 1545 03f3 06       		.uleb128 0x6
 1546 03f4 FB010000 		.4byte	.LASF57
 1547 03f8 09       		.byte	0x9
 1548 03f9 32       		.byte	0x32
 1549 03fa 2C040000 		.4byte	0x42c
 1550 03fe 02       		.byte	0x2
 1551 03ff 23       		.byte	0x23
 1552 0400 00       		.uleb128 0x0
 1553 0401 06       		.uleb128 0x6
 1554 0402 74030000 		.4byte	.LASF58
 1555 0406 09       		.byte	0x9
 1556 0407 35       		.byte	0x35
 1557 0408 65020000 		.4byte	0x265
 1558 040c 02       		.byte	0x2
 1559 040d 23       		.byte	0x23
 1560 040e 04       		.uleb128 0x4
 1561 040f 06       		.uleb128 0x6
 1562 0410 85020000 		.4byte	.LASF59
 1563 0414 09       		.byte	0x9
 1564 0415 37       		.byte	0x37
 1565 0416 E4000000 		.4byte	0xe4
 1566 041a 02       		.byte	0x2
 1567 041b 23       		.byte	0x23
 1568 041c 08       		.uleb128 0x8
 1569 041d 06       		.uleb128 0x6
 1570 041e 8D030000 		.4byte	.LASF60
 1571 0422 09       		.byte	0x9
 1572 0423 3A       		.byte	0x3a
 1573 0424 EF000000 		.4byte	0xef
 1574 0428 02       		.byte	0x2
 1575 0429 23       		.byte	0x23
 1576 042a 0C       		.uleb128 0xc
 1577 042b 00       		.byte	0x0
ARM GAS  C:\Users\DNIEL~1\AppData\Local\Temp\ccGYSxmm.s 			page 29


 1578 042c 09       		.uleb128 0x9
 1579 042d 04       		.byte	0x4
 1580 042e DC030000 		.4byte	0x3dc
 1581 0432 05       		.uleb128 0x5
 1582 0433 6F010000 		.4byte	.LASF61
 1583 0437 04       		.byte	0x4
 1584 0438 09       		.byte	0x9
 1585 0439 41       		.byte	0x41
 1586 043a 4D040000 		.4byte	0x44d
 1587 043e 06       		.uleb128 0x6
 1588 043f 9C040000 		.4byte	.LASF62
 1589 0443 09       		.byte	0x9
 1590 0444 42       		.byte	0x42
 1591 0445 2C040000 		.4byte	0x42c
 1592 0449 02       		.byte	0x2
 1593 044a 23       		.byte	0x23
 1594 044b 00       		.uleb128 0x0
 1595 044c 00       		.byte	0x0
 1596 044d 04       		.uleb128 0x4
 1597 044e 6F010000 		.4byte	.LASF61
 1598 0452 09       		.byte	0x9
 1599 0453 45       		.byte	0x45
 1600 0454 32040000 		.4byte	0x432
 1601 0458 0E       		.uleb128 0xe
 1602 0459 04       		.byte	0x4
 1603 045a 05       		.byte	0x5
 1604 045b 96       		.byte	0x96
 1605 045c 8D040000 		.4byte	0x48d
 1606 0460 0F       		.uleb128 0xf
 1607 0461 24000000 		.4byte	.LASF63
 1608 0465 05       		.byte	0x5
 1609 0466 9D       		.byte	0x9d
 1610 0467 D9000000 		.4byte	0xd9
 1611 046b 0F       		.uleb128 0xf
 1612 046c 60000000 		.4byte	.LASF64
 1613 0470 05       		.byte	0x5
 1614 0471 A4       		.byte	0xa4
 1615 0472 D9000000 		.4byte	0xd9
 1616 0476 0F       		.uleb128 0xf
 1617 0477 FA040000 		.4byte	.LASF65
 1618 047b 05       		.byte	0x5
 1619 047c AB       		.byte	0xab
 1620 047d A3020000 		.4byte	0x2a3
 1621 0481 0F       		.uleb128 0xf
 1622 0482 BC030000 		.4byte	.LASF66
 1623 0486 05       		.byte	0x5
 1624 0487 B2       		.byte	0xb2
 1625 0488 E4000000 		.4byte	0xe4
 1626 048c 00       		.byte	0x0
 1627 048d 09       		.uleb128 0x9
 1628 048e 04       		.byte	0x4
 1629 048f 93040000 		.4byte	0x493
 1630 0493 10       		.uleb128 0x10
 1631 0494 98040000 		.4byte	0x498
 1632 0498 03       		.uleb128 0x3
 1633 0499 01       		.byte	0x1
 1634 049a 08       		.byte	0x8
ARM GAS  C:\Users\DNIEL~1\AppData\Local\Temp\ccGYSxmm.s 			page 30


 1635 049b 2A040000 		.4byte	.LASF67
 1636 049f 09       		.uleb128 0x9
 1637 04a0 04       		.byte	0x4
 1638 04a1 D1030000 		.4byte	0x3d1
 1639 04a5 11       		.uleb128 0x11
 1640 04a6 7B000000 		.4byte	0x7b
 1641 04aa B5040000 		.4byte	0x4b5
 1642 04ae 12       		.uleb128 0x12
 1643 04af 30000000 		.4byte	0x30
 1644 04b3 07       		.byte	0x7
 1645 04b4 00       		.byte	0x0
 1646 04b5 11       		.uleb128 0x11
 1647 04b6 7B000000 		.4byte	0x7b
 1648 04ba C5040000 		.4byte	0x4c5
 1649 04be 12       		.uleb128 0x12
 1650 04bf 30000000 		.4byte	0x30
 1651 04c3 01       		.byte	0x1
 1652 04c4 00       		.byte	0x0
 1653 04c5 0D       		.uleb128 0xd
 1654 04c6 69000000 		.4byte	0x69
 1655 04ca 13       		.uleb128 0x13
 1656 04cb 10       		.byte	0x10
 1657 04cc 0A       		.byte	0xa
 1658 04cd 2F02     		.2byte	0x22f
 1659 04cf 10050000 		.4byte	0x510
 1660 04d3 0C       		.uleb128 0xc
 1661 04d4 54495200 		.ascii	"TIR\000"
 1662 04d8 0A       		.byte	0xa
 1663 04d9 3102     		.2byte	0x231
 1664 04db 56030000 		.4byte	0x356
 1665 04df 02       		.byte	0x2
 1666 04e0 23       		.byte	0x23
 1667 04e1 00       		.uleb128 0x0
 1668 04e2 14       		.uleb128 0x14
 1669 04e3 6A010000 		.4byte	.LASF68
 1670 04e7 0A       		.byte	0xa
 1671 04e8 3202     		.2byte	0x232
 1672 04ea 56030000 		.4byte	0x356
 1673 04ee 02       		.byte	0x2
 1674 04ef 23       		.byte	0x23
 1675 04f0 04       		.uleb128 0x4
 1676 04f1 14       		.uleb128 0x14
 1677 04f2 EA000000 		.4byte	.LASF69
 1678 04f6 0A       		.byte	0xa
 1679 04f7 3302     		.2byte	0x233
 1680 04f9 56030000 		.4byte	0x356
 1681 04fd 02       		.byte	0x2
 1682 04fe 23       		.byte	0x23
 1683 04ff 08       		.uleb128 0x8
 1684 0500 14       		.uleb128 0x14
 1685 0501 80020000 		.4byte	.LASF70
 1686 0505 0A       		.byte	0xa
 1687 0506 3402     		.2byte	0x234
 1688 0508 56030000 		.4byte	0x356
 1689 050c 02       		.byte	0x2
 1690 050d 23       		.byte	0x23
 1691 050e 0C       		.uleb128 0xc
ARM GAS  C:\Users\DNIEL~1\AppData\Local\Temp\ccGYSxmm.s 			page 31


 1692 050f 00       		.byte	0x0
 1693 0510 15       		.uleb128 0x15
 1694 0511 01010000 		.4byte	.LASF71
 1695 0515 0A       		.byte	0xa
 1696 0516 3502     		.2byte	0x235
 1697 0518 CA040000 		.4byte	0x4ca
 1698 051c 13       		.uleb128 0x13
 1699 051d 10       		.byte	0x10
 1700 051e 0A       		.byte	0xa
 1701 051f 3B02     		.2byte	0x23b
 1702 0521 62050000 		.4byte	0x562
 1703 0525 0C       		.uleb128 0xc
 1704 0526 52495200 		.ascii	"RIR\000"
 1705 052a 0A       		.byte	0xa
 1706 052b 3D02     		.2byte	0x23d
 1707 052d 56030000 		.4byte	0x356
 1708 0531 02       		.byte	0x2
 1709 0532 23       		.byte	0x23
 1710 0533 00       		.uleb128 0x0
 1711 0534 14       		.uleb128 0x14
 1712 0535 AC010000 		.4byte	.LASF72
 1713 0539 0A       		.byte	0xa
 1714 053a 3E02     		.2byte	0x23e
 1715 053c 56030000 		.4byte	0x356
 1716 0540 02       		.byte	0x2
 1717 0541 23       		.byte	0x23
 1718 0542 04       		.uleb128 0x4
 1719 0543 14       		.uleb128 0x14
 1720 0544 15050000 		.4byte	.LASF73
 1721 0548 0A       		.byte	0xa
 1722 0549 3F02     		.2byte	0x23f
 1723 054b 56030000 		.4byte	0x356
 1724 054f 02       		.byte	0x2
 1725 0550 23       		.byte	0x23
 1726 0551 08       		.uleb128 0x8
 1727 0552 14       		.uleb128 0x14
 1728 0553 36040000 		.4byte	.LASF74
 1729 0557 0A       		.byte	0xa
 1730 0558 4002     		.2byte	0x240
 1731 055a 56030000 		.4byte	0x356
 1732 055e 02       		.byte	0x2
 1733 055f 23       		.byte	0x23
 1734 0560 0C       		.uleb128 0xc
 1735 0561 00       		.byte	0x0
 1736 0562 15       		.uleb128 0x15
 1737 0563 C6040000 		.4byte	.LASF75
 1738 0567 0A       		.byte	0xa
 1739 0568 4102     		.2byte	0x241
 1740 056a 1C050000 		.4byte	0x51c
 1741 056e 13       		.uleb128 0x13
 1742 056f 08       		.byte	0x8
 1743 0570 0A       		.byte	0xa
 1744 0571 4702     		.2byte	0x247
 1745 0573 96050000 		.4byte	0x596
 1746 0577 0C       		.uleb128 0xc
 1747 0578 46523100 		.ascii	"FR1\000"
 1748 057c 0A       		.byte	0xa
ARM GAS  C:\Users\DNIEL~1\AppData\Local\Temp\ccGYSxmm.s 			page 32


 1749 057d 4902     		.2byte	0x249
 1750 057f 56030000 		.4byte	0x356
 1751 0583 02       		.byte	0x2
 1752 0584 23       		.byte	0x23
 1753 0585 00       		.uleb128 0x0
 1754 0586 0C       		.uleb128 0xc
 1755 0587 46523200 		.ascii	"FR2\000"
 1756 058b 0A       		.byte	0xa
 1757 058c 4A02     		.2byte	0x24a
 1758 058e 56030000 		.4byte	0x356
 1759 0592 02       		.byte	0x2
 1760 0593 23       		.byte	0x23
 1761 0594 04       		.uleb128 0x4
 1762 0595 00       		.byte	0x0
 1763 0596 15       		.uleb128 0x15
 1764 0597 DA010000 		.4byte	.LASF76
 1765 059b 0A       		.byte	0xa
 1766 059c 4B02     		.2byte	0x24b
 1767 059e 6E050000 		.4byte	0x56e
 1768 05a2 16       		.uleb128 0x16
 1769 05a3 2003     		.2byte	0x320
 1770 05a5 0A       		.byte	0xa
 1771 05a6 5102     		.2byte	0x251
 1772 05a8 04070000 		.4byte	0x704
 1773 05ac 0C       		.uleb128 0xc
 1774 05ad 4D435200 		.ascii	"MCR\000"
 1775 05b1 0A       		.byte	0xa
 1776 05b2 5302     		.2byte	0x253
 1777 05b4 56030000 		.4byte	0x356
 1778 05b8 02       		.byte	0x2
 1779 05b9 23       		.byte	0x23
 1780 05ba 00       		.uleb128 0x0
 1781 05bb 0C       		.uleb128 0xc
 1782 05bc 4D535200 		.ascii	"MSR\000"
 1783 05c0 0A       		.byte	0xa
 1784 05c1 5402     		.2byte	0x254
 1785 05c3 56030000 		.4byte	0x356
 1786 05c7 02       		.byte	0x2
 1787 05c8 23       		.byte	0x23
 1788 05c9 04       		.uleb128 0x4
 1789 05ca 0C       		.uleb128 0xc
 1790 05cb 54535200 		.ascii	"TSR\000"
 1791 05cf 0A       		.byte	0xa
 1792 05d0 5502     		.2byte	0x255
 1793 05d2 56030000 		.4byte	0x356
 1794 05d6 02       		.byte	0x2
 1795 05d7 23       		.byte	0x23
 1796 05d8 08       		.uleb128 0x8
 1797 05d9 14       		.uleb128 0x14
 1798 05da 01050000 		.4byte	.LASF77
 1799 05de 0A       		.byte	0xa
 1800 05df 5602     		.2byte	0x256
 1801 05e1 56030000 		.4byte	0x356
 1802 05e5 02       		.byte	0x2
 1803 05e6 23       		.byte	0x23
 1804 05e7 0C       		.uleb128 0xc
 1805 05e8 14       		.uleb128 0x14
ARM GAS  C:\Users\DNIEL~1\AppData\Local\Temp\ccGYSxmm.s 			page 33


 1806 05e9 D5010000 		.4byte	.LASF78
 1807 05ed 0A       		.byte	0xa
 1808 05ee 5702     		.2byte	0x257
 1809 05f0 56030000 		.4byte	0x356
 1810 05f4 02       		.byte	0x2
 1811 05f5 23       		.byte	0x23
 1812 05f6 10       		.uleb128 0x10
 1813 05f7 0C       		.uleb128 0xc
 1814 05f8 49455200 		.ascii	"IER\000"
 1815 05fc 0A       		.byte	0xa
 1816 05fd 5802     		.2byte	0x258
 1817 05ff 56030000 		.4byte	0x356
 1818 0603 02       		.byte	0x2
 1819 0604 23       		.byte	0x23
 1820 0605 14       		.uleb128 0x14
 1821 0606 0C       		.uleb128 0xc
 1822 0607 45535200 		.ascii	"ESR\000"
 1823 060b 0A       		.byte	0xa
 1824 060c 5902     		.2byte	0x259
 1825 060e 56030000 		.4byte	0x356
 1826 0612 02       		.byte	0x2
 1827 0613 23       		.byte	0x23
 1828 0614 18       		.uleb128 0x18
 1829 0615 0C       		.uleb128 0xc
 1830 0616 42545200 		.ascii	"BTR\000"
 1831 061a 0A       		.byte	0xa
 1832 061b 5A02     		.2byte	0x25a
 1833 061d 56030000 		.4byte	0x356
 1834 0621 02       		.byte	0x2
 1835 0622 23       		.byte	0x23
 1836 0623 1C       		.uleb128 0x1c
 1837 0624 14       		.uleb128 0x14
 1838 0625 C4020000 		.4byte	.LASF79
 1839 0629 0A       		.byte	0xa
 1840 062a 5B02     		.2byte	0x25b
 1841 062c 04070000 		.4byte	0x704
 1842 0630 02       		.byte	0x2
 1843 0631 23       		.byte	0x23
 1844 0632 20       		.uleb128 0x20
 1845 0633 14       		.uleb128 0x14
 1846 0634 8E010000 		.4byte	.LASF80
 1847 0638 0A       		.byte	0xa
 1848 0639 5C02     		.2byte	0x25c
 1849 063b 14070000 		.4byte	0x714
 1850 063f 03       		.byte	0x3
 1851 0640 23       		.byte	0x23
 1852 0641 8003     		.uleb128 0x180
 1853 0643 14       		.uleb128 0x14
 1854 0644 57040000 		.4byte	.LASF81
 1855 0648 0A       		.byte	0xa
 1856 0649 5D02     		.2byte	0x25d
 1857 064b 24070000 		.4byte	0x724
 1858 064f 03       		.byte	0x3
 1859 0650 23       		.byte	0x23
 1860 0651 B003     		.uleb128 0x1b0
 1861 0653 14       		.uleb128 0x14
 1862 0654 CE020000 		.4byte	.LASF82
ARM GAS  C:\Users\DNIEL~1\AppData\Local\Temp\ccGYSxmm.s 			page 34


 1863 0658 0A       		.byte	0xa
 1864 0659 5E02     		.2byte	0x25e
 1865 065b 34070000 		.4byte	0x734
 1866 065f 03       		.byte	0x3
 1867 0660 23       		.byte	0x23
 1868 0661 D003     		.uleb128 0x1d0
 1869 0663 0C       		.uleb128 0xc
 1870 0664 464D5200 		.ascii	"FMR\000"
 1871 0668 0A       		.byte	0xa
 1872 0669 5F02     		.2byte	0x25f
 1873 066b 56030000 		.4byte	0x356
 1874 066f 03       		.byte	0x3
 1875 0670 23       		.byte	0x23
 1876 0671 8004     		.uleb128 0x200
 1877 0673 14       		.uleb128 0x14
 1878 0674 DB030000 		.4byte	.LASF83
 1879 0678 0A       		.byte	0xa
 1880 0679 6002     		.2byte	0x260
 1881 067b 56030000 		.4byte	0x356
 1882 067f 03       		.byte	0x3
 1883 0680 23       		.byte	0x23
 1884 0681 8404     		.uleb128 0x204
 1885 0683 14       		.uleb128 0x14
 1886 0684 D8020000 		.4byte	.LASF84
 1887 0688 0A       		.byte	0xa
 1888 0689 6102     		.2byte	0x261
 1889 068b 7B000000 		.4byte	0x7b
 1890 068f 03       		.byte	0x3
 1891 0690 23       		.byte	0x23
 1892 0691 8804     		.uleb128 0x208
 1893 0693 14       		.uleb128 0x14
 1894 0694 90040000 		.4byte	.LASF85
 1895 0698 0A       		.byte	0xa
 1896 0699 6202     		.2byte	0x262
 1897 069b 56030000 		.4byte	0x356
 1898 069f 03       		.byte	0x3
 1899 06a0 23       		.byte	0x23
 1900 06a1 8C04     		.uleb128 0x20c
 1901 06a3 14       		.uleb128 0x14
 1902 06a4 E2020000 		.4byte	.LASF86
 1903 06a8 0A       		.byte	0xa
 1904 06a9 6302     		.2byte	0x263
 1905 06ab 7B000000 		.4byte	0x7b
 1906 06af 03       		.byte	0x3
 1907 06b0 23       		.byte	0x23
 1908 06b1 9004     		.uleb128 0x210
 1909 06b3 14       		.uleb128 0x14
 1910 06b4 AD020000 		.4byte	.LASF87
 1911 06b8 0A       		.byte	0xa
 1912 06b9 6402     		.2byte	0x264
 1913 06bb 56030000 		.4byte	0x356
 1914 06bf 03       		.byte	0x3
 1915 06c0 23       		.byte	0x23
 1916 06c1 9404     		.uleb128 0x214
 1917 06c3 14       		.uleb128 0x14
 1918 06c4 EC020000 		.4byte	.LASF88
 1919 06c8 0A       		.byte	0xa
ARM GAS  C:\Users\DNIEL~1\AppData\Local\Temp\ccGYSxmm.s 			page 35


 1920 06c9 6502     		.2byte	0x265
 1921 06cb 7B000000 		.4byte	0x7b
 1922 06cf 03       		.byte	0x3
 1923 06d0 23       		.byte	0x23
 1924 06d1 9804     		.uleb128 0x218
 1925 06d3 14       		.uleb128 0x14
 1926 06d4 39020000 		.4byte	.LASF89
 1927 06d8 0A       		.byte	0xa
 1928 06d9 6602     		.2byte	0x266
 1929 06db 56030000 		.4byte	0x356
 1930 06df 03       		.byte	0x3
 1931 06e0 23       		.byte	0x23
 1932 06e1 9C04     		.uleb128 0x21c
 1933 06e3 14       		.uleb128 0x14
 1934 06e4 F2030000 		.4byte	.LASF90
 1935 06e8 0A       		.byte	0xa
 1936 06e9 6702     		.2byte	0x267
 1937 06eb A5040000 		.4byte	0x4a5
 1938 06ef 03       		.byte	0x3
 1939 06f0 23       		.byte	0x23
 1940 06f1 A004     		.uleb128 0x220
 1941 06f3 14       		.uleb128 0x14
 1942 06f4 17020000 		.4byte	.LASF91
 1943 06f8 0A       		.byte	0xa
 1944 06f9 6802     		.2byte	0x268
 1945 06fb 44070000 		.4byte	0x744
 1946 06ff 03       		.byte	0x3
 1947 0700 23       		.byte	0x23
 1948 0701 C004     		.uleb128 0x240
 1949 0703 00       		.byte	0x0
 1950 0704 11       		.uleb128 0x11
 1951 0705 7B000000 		.4byte	0x7b
 1952 0709 14070000 		.4byte	0x714
 1953 070d 12       		.uleb128 0x12
 1954 070e 30000000 		.4byte	0x30
 1955 0712 57       		.byte	0x57
 1956 0713 00       		.byte	0x0
 1957 0714 11       		.uleb128 0x11
 1958 0715 10050000 		.4byte	0x510
 1959 0719 24070000 		.4byte	0x724
 1960 071d 12       		.uleb128 0x12
 1961 071e 30000000 		.4byte	0x30
 1962 0722 02       		.byte	0x2
 1963 0723 00       		.byte	0x0
 1964 0724 11       		.uleb128 0x11
 1965 0725 62050000 		.4byte	0x562
 1966 0729 34070000 		.4byte	0x734
 1967 072d 12       		.uleb128 0x12
 1968 072e 30000000 		.4byte	0x30
 1969 0732 01       		.byte	0x1
 1970 0733 00       		.byte	0x0
 1971 0734 11       		.uleb128 0x11
 1972 0735 7B000000 		.4byte	0x7b
 1973 0739 44070000 		.4byte	0x744
 1974 073d 12       		.uleb128 0x12
 1975 073e 30000000 		.4byte	0x30
 1976 0742 0B       		.byte	0xb
ARM GAS  C:\Users\DNIEL~1\AppData\Local\Temp\ccGYSxmm.s 			page 36


 1977 0743 00       		.byte	0x0
 1978 0744 11       		.uleb128 0x11
 1979 0745 96050000 		.4byte	0x596
 1980 0749 54070000 		.4byte	0x754
 1981 074d 12       		.uleb128 0x12
 1982 074e 30000000 		.4byte	0x30
 1983 0752 1B       		.byte	0x1b
 1984 0753 00       		.byte	0x0
 1985 0754 15       		.uleb128 0x15
 1986 0755 3D000000 		.4byte	.LASF92
 1987 0759 0A       		.byte	0xa
 1988 075a 6902     		.2byte	0x269
 1989 075c A2050000 		.4byte	0x5a2
 1990 0760 17       		.uleb128 0x17
 1991 0761 01       		.byte	0x1
 1992 0762 0B       		.byte	0xb
 1993 0763 6E       		.byte	0x6e
 1994 0764 87070000 		.4byte	0x787
 1995 0768 18       		.uleb128 0x18
 1996 0769 0D030000 		.4byte	.LASF93
 1997 076d 00       		.sleb128 0
 1998 076e 18       		.uleb128 0x18
 1999 076f A4020000 		.4byte	.LASF94
 2000 0773 01       		.sleb128 1
 2001 0774 18       		.uleb128 0x18
 2002 0775 95000000 		.4byte	.LASF95
 2003 0779 02       		.sleb128 2
 2004 077a 18       		.uleb128 0x18
 2005 077b 3C010000 		.4byte	.LASF96
 2006 077f 03       		.sleb128 3
 2007 0780 18       		.uleb128 0x18
 2008 0781 4A020000 		.4byte	.LASF97
 2009 0785 04       		.sleb128 4
 2010 0786 00       		.byte	0x0
 2011 0787 04       		.uleb128 0x4
 2012 0788 99020000 		.4byte	.LASF98
 2013 078c 0B       		.byte	0xb
 2014 078d 74       		.byte	0x74
 2015 078e 60070000 		.4byte	0x760
 2016 0792 04       		.uleb128 0x4
 2017 0793 06050000 		.4byte	.LASF99
 2018 0797 0C       		.byte	0xc
 2019 0798 92       		.byte	0x92
 2020 0799 7B000000 		.4byte	0x7b
 2021 079d 08       		.uleb128 0x8
 2022 079e 01       		.byte	0x1
 2023 079f 0C       		.byte	0xc
 2024 07a0 9A       		.byte	0x9a
 2025 07a1 D9070000 		.4byte	0x7d9
 2026 07a5 19       		.uleb128 0x19
 2027 07a6 444C4300 		.ascii	"DLC\000"
 2028 07aa 0C       		.byte	0xc
 2029 07ab 9B       		.byte	0x9b
 2030 07ac 3E000000 		.4byte	0x3e
 2031 07b0 01       		.byte	0x1
 2032 07b1 04       		.byte	0x4
 2033 07b2 04       		.byte	0x4
ARM GAS  C:\Users\DNIEL~1\AppData\Local\Temp\ccGYSxmm.s 			page 37


 2034 07b3 02       		.byte	0x2
 2035 07b4 23       		.byte	0x23
 2036 07b5 00       		.uleb128 0x0
 2037 07b6 19       		.uleb128 0x19
 2038 07b7 52545200 		.ascii	"RTR\000"
 2039 07bb 0C       		.byte	0xc
 2040 07bc 9C       		.byte	0x9c
 2041 07bd 3E000000 		.4byte	0x3e
 2042 07c1 01       		.byte	0x1
 2043 07c2 01       		.byte	0x1
 2044 07c3 03       		.byte	0x3
 2045 07c4 02       		.byte	0x2
 2046 07c5 23       		.byte	0x23
 2047 07c6 00       		.uleb128 0x0
 2048 07c7 19       		.uleb128 0x19
 2049 07c8 49444500 		.ascii	"IDE\000"
 2050 07cc 0C       		.byte	0xc
 2051 07cd 9D       		.byte	0x9d
 2052 07ce 3E000000 		.4byte	0x3e
 2053 07d2 01       		.byte	0x1
 2054 07d3 01       		.byte	0x1
 2055 07d4 02       		.byte	0x2
 2056 07d5 02       		.byte	0x2
 2057 07d6 23       		.byte	0x23
 2058 07d7 00       		.uleb128 0x0
 2059 07d8 00       		.byte	0x0
 2060 07d9 08       		.uleb128 0x8
 2061 07da 04       		.byte	0x4
 2062 07db 0C       		.byte	0xc
 2063 07dc A0       		.byte	0xa0
 2064 07dd F3070000 		.4byte	0x7f3
 2065 07e1 19       		.uleb128 0x19
 2066 07e2 53494400 		.ascii	"SID\000"
 2067 07e6 0C       		.byte	0xc
 2068 07e7 A1       		.byte	0xa1
 2069 07e8 7B000000 		.4byte	0x7b
 2070 07ec 04       		.byte	0x4
 2071 07ed 0B       		.byte	0xb
 2072 07ee 15       		.byte	0x15
 2073 07ef 02       		.byte	0x2
 2074 07f0 23       		.byte	0x23
 2075 07f1 00       		.uleb128 0x0
 2076 07f2 00       		.byte	0x0
 2077 07f3 08       		.uleb128 0x8
 2078 07f4 04       		.byte	0x4
 2079 07f5 0C       		.byte	0xc
 2080 07f6 A3       		.byte	0xa3
 2081 07f7 0D080000 		.4byte	0x80d
 2082 07fb 19       		.uleb128 0x19
 2083 07fc 45494400 		.ascii	"EID\000"
 2084 0800 0C       		.byte	0xc
 2085 0801 A4       		.byte	0xa4
 2086 0802 7B000000 		.4byte	0x7b
 2087 0806 04       		.byte	0x4
 2088 0807 1D       		.byte	0x1d
 2089 0808 03       		.byte	0x3
 2090 0809 02       		.byte	0x2
ARM GAS  C:\Users\DNIEL~1\AppData\Local\Temp\ccGYSxmm.s 			page 38


 2091 080a 23       		.byte	0x23
 2092 080b 00       		.uleb128 0x0
 2093 080c 00       		.byte	0x0
 2094 080d 0E       		.uleb128 0xe
 2095 080e 04       		.byte	0x4
 2096 080f 0C       		.byte	0xc
 2097 0810 9F       		.byte	0x9f
 2098 0811 20080000 		.4byte	0x820
 2099 0815 1A       		.uleb128 0x1a
 2100 0816 D9070000 		.4byte	0x7d9
 2101 081a 1A       		.uleb128 0x1a
 2102 081b F3070000 		.4byte	0x7f3
 2103 081f 00       		.byte	0x0
 2104 0820 0E       		.uleb128 0xe
 2105 0821 08       		.byte	0x8
 2106 0822 0C       		.byte	0xc
 2107 0823 A7       		.byte	0xa7
 2108 0824 4A080000 		.4byte	0x84a
 2109 0828 0F       		.uleb128 0xf
 2110 0829 54020000 		.4byte	.LASF100
 2111 082d 0C       		.byte	0xc
 2112 082e A8       		.byte	0xa8
 2113 082f 4A080000 		.4byte	0x84a
 2114 0833 0F       		.uleb128 0xf
 2115 0834 89040000 		.4byte	.LASF101
 2116 0838 0C       		.byte	0xc
 2117 0839 A9       		.byte	0xa9
 2118 083a 5A080000 		.4byte	0x85a
 2119 083e 0F       		.uleb128 0xf
 2120 083f 69000000 		.4byte	.LASF102
 2121 0843 0C       		.byte	0xc
 2122 0844 AA       		.byte	0xaa
 2123 0845 B5040000 		.4byte	0x4b5
 2124 0849 00       		.byte	0x0
 2125 084a 11       		.uleb128 0x11
 2126 084b 3E000000 		.4byte	0x3e
 2127 084f 5A080000 		.4byte	0x85a
 2128 0853 12       		.uleb128 0x12
 2129 0854 30000000 		.4byte	0x30
 2130 0858 07       		.byte	0x7
 2131 0859 00       		.byte	0x0
 2132 085a 11       		.uleb128 0x11
 2133 085b 57000000 		.4byte	0x57
 2134 085f 6A080000 		.4byte	0x86a
 2135 0863 12       		.uleb128 0x12
 2136 0864 30000000 		.4byte	0x30
 2137 0868 03       		.byte	0x3
 2138 0869 00       		.byte	0x0
 2139 086a 08       		.uleb128 0x8
 2140 086b 10       		.byte	0x10
 2141 086c 0C       		.byte	0xc
 2142 086d 99       		.byte	0x99
 2143 086e 8B080000 		.4byte	0x88b
 2144 0872 1B       		.uleb128 0x1b
 2145 0873 9D070000 		.4byte	0x79d
 2146 0877 02       		.byte	0x2
 2147 0878 23       		.byte	0x23
ARM GAS  C:\Users\DNIEL~1\AppData\Local\Temp\ccGYSxmm.s 			page 39


 2148 0879 00       		.uleb128 0x0
 2149 087a 1B       		.uleb128 0x1b
 2150 087b 0D080000 		.4byte	0x80d
 2151 087f 02       		.byte	0x2
 2152 0880 23       		.byte	0x23
 2153 0881 04       		.uleb128 0x4
 2154 0882 1B       		.uleb128 0x1b
 2155 0883 20080000 		.4byte	0x820
 2156 0887 02       		.byte	0x2
 2157 0888 23       		.byte	0x23
 2158 0889 08       		.uleb128 0x8
 2159 088a 00       		.byte	0x0
 2160 088b 04       		.uleb128 0x4
 2161 088c B1010000 		.4byte	.LASF103
 2162 0890 0C       		.byte	0xc
 2163 0891 AC       		.byte	0xac
 2164 0892 6A080000 		.4byte	0x86a
 2165 0896 08       		.uleb128 0x8
 2166 0897 04       		.byte	0x4
 2167 0898 0C       		.byte	0xc
 2168 0899 B4       		.byte	0xb4
 2169 089a BB080000 		.4byte	0x8bb
 2170 089e 07       		.uleb128 0x7
 2171 089f 464D4900 		.ascii	"FMI\000"
 2172 08a3 0C       		.byte	0xc
 2173 08a4 B5       		.byte	0xb5
 2174 08a5 3E000000 		.4byte	0x3e
 2175 08a9 02       		.byte	0x2
 2176 08aa 23       		.byte	0x23
 2177 08ab 00       		.uleb128 0x0
 2178 08ac 06       		.uleb128 0x6
 2179 08ad 65010000 		.4byte	.LASF104
 2180 08b1 0C       		.byte	0xc
 2181 08b2 B6       		.byte	0xb6
 2182 08b3 57000000 		.4byte	0x57
 2183 08b7 02       		.byte	0x2
 2184 08b8 23       		.byte	0x23
 2185 08b9 02       		.uleb128 0x2
 2186 08ba 00       		.byte	0x0
 2187 08bb 08       		.uleb128 0x8
 2188 08bc 01       		.byte	0x1
 2189 08bd 0C       		.byte	0xc
 2190 08be B8       		.byte	0xb8
 2191 08bf F7080000 		.4byte	0x8f7
 2192 08c3 19       		.uleb128 0x19
 2193 08c4 444C4300 		.ascii	"DLC\000"
 2194 08c8 0C       		.byte	0xc
 2195 08c9 B9       		.byte	0xb9
 2196 08ca 3E000000 		.4byte	0x3e
 2197 08ce 01       		.byte	0x1
 2198 08cf 04       		.byte	0x4
 2199 08d0 04       		.byte	0x4
 2200 08d1 02       		.byte	0x2
 2201 08d2 23       		.byte	0x23
 2202 08d3 00       		.uleb128 0x0
 2203 08d4 19       		.uleb128 0x19
 2204 08d5 52545200 		.ascii	"RTR\000"
ARM GAS  C:\Users\DNIEL~1\AppData\Local\Temp\ccGYSxmm.s 			page 40


 2205 08d9 0C       		.byte	0xc
 2206 08da BA       		.byte	0xba
 2207 08db 3E000000 		.4byte	0x3e
 2208 08df 01       		.byte	0x1
 2209 08e0 01       		.byte	0x1
 2210 08e1 03       		.byte	0x3
 2211 08e2 02       		.byte	0x2
 2212 08e3 23       		.byte	0x23
 2213 08e4 00       		.uleb128 0x0
 2214 08e5 19       		.uleb128 0x19
 2215 08e6 49444500 		.ascii	"IDE\000"
 2216 08ea 0C       		.byte	0xc
 2217 08eb BB       		.byte	0xbb
 2218 08ec 3E000000 		.4byte	0x3e
 2219 08f0 01       		.byte	0x1
 2220 08f1 01       		.byte	0x1
 2221 08f2 02       		.byte	0x2
 2222 08f3 02       		.byte	0x2
 2223 08f4 23       		.byte	0x23
 2224 08f5 00       		.uleb128 0x0
 2225 08f6 00       		.byte	0x0
 2226 08f7 08       		.uleb128 0x8
 2227 08f8 04       		.byte	0x4
 2228 08f9 0C       		.byte	0xc
 2229 08fa BE       		.byte	0xbe
 2230 08fb 11090000 		.4byte	0x911
 2231 08ff 19       		.uleb128 0x19
 2232 0900 53494400 		.ascii	"SID\000"
 2233 0904 0C       		.byte	0xc
 2234 0905 BF       		.byte	0xbf
 2235 0906 7B000000 		.4byte	0x7b
 2236 090a 04       		.byte	0x4
 2237 090b 0B       		.byte	0xb
 2238 090c 15       		.byte	0x15
 2239 090d 02       		.byte	0x2
 2240 090e 23       		.byte	0x23
 2241 090f 00       		.uleb128 0x0
 2242 0910 00       		.byte	0x0
 2243 0911 08       		.uleb128 0x8
 2244 0912 04       		.byte	0x4
 2245 0913 0C       		.byte	0xc
 2246 0914 C1       		.byte	0xc1
 2247 0915 2B090000 		.4byte	0x92b
 2248 0919 19       		.uleb128 0x19
 2249 091a 45494400 		.ascii	"EID\000"
 2250 091e 0C       		.byte	0xc
 2251 091f C2       		.byte	0xc2
 2252 0920 7B000000 		.4byte	0x7b
 2253 0924 04       		.byte	0x4
 2254 0925 1D       		.byte	0x1d
 2255 0926 03       		.byte	0x3
 2256 0927 02       		.byte	0x2
 2257 0928 23       		.byte	0x23
 2258 0929 00       		.uleb128 0x0
 2259 092a 00       		.byte	0x0
 2260 092b 0E       		.uleb128 0xe
 2261 092c 04       		.byte	0x4
ARM GAS  C:\Users\DNIEL~1\AppData\Local\Temp\ccGYSxmm.s 			page 41


 2262 092d 0C       		.byte	0xc
 2263 092e BD       		.byte	0xbd
 2264 092f 3E090000 		.4byte	0x93e
 2265 0933 1A       		.uleb128 0x1a
 2266 0934 F7080000 		.4byte	0x8f7
 2267 0938 1A       		.uleb128 0x1a
 2268 0939 11090000 		.4byte	0x911
 2269 093d 00       		.byte	0x0
 2270 093e 0E       		.uleb128 0xe
 2271 093f 08       		.byte	0x8
 2272 0940 0C       		.byte	0xc
 2273 0941 C5       		.byte	0xc5
 2274 0942 68090000 		.4byte	0x968
 2275 0946 0F       		.uleb128 0xf
 2276 0947 54020000 		.4byte	.LASF100
 2277 094b 0C       		.byte	0xc
 2278 094c C6       		.byte	0xc6
 2279 094d 4A080000 		.4byte	0x84a
 2280 0951 0F       		.uleb128 0xf
 2281 0952 89040000 		.4byte	.LASF101
 2282 0956 0C       		.byte	0xc
 2283 0957 C7       		.byte	0xc7
 2284 0958 5A080000 		.4byte	0x85a
 2285 095c 0F       		.uleb128 0xf
 2286 095d 69000000 		.4byte	.LASF102
 2287 0961 0C       		.byte	0xc
 2288 0962 C8       		.byte	0xc8
 2289 0963 B5040000 		.4byte	0x4b5
 2290 0967 00       		.byte	0x0
 2291 0968 08       		.uleb128 0x8
 2292 0969 14       		.byte	0x14
 2293 096a 0C       		.byte	0xc
 2294 096b B3       		.byte	0xb3
 2295 096c 91090000 		.4byte	0x991
 2296 0970 1B       		.uleb128 0x1b
 2297 0971 96080000 		.4byte	0x896
 2298 0975 02       		.byte	0x2
 2299 0976 23       		.byte	0x23
 2300 0977 00       		.uleb128 0x0
 2301 0978 1B       		.uleb128 0x1b
 2302 0979 BB080000 		.4byte	0x8bb
 2303 097d 02       		.byte	0x2
 2304 097e 23       		.byte	0x23
 2305 097f 04       		.uleb128 0x4
 2306 0980 1B       		.uleb128 0x1b
 2307 0981 2B090000 		.4byte	0x92b
 2308 0985 02       		.byte	0x2
 2309 0986 23       		.byte	0x23
 2310 0987 08       		.uleb128 0x8
 2311 0988 1B       		.uleb128 0x1b
 2312 0989 3E090000 		.4byte	0x93e
 2313 098d 02       		.byte	0x2
 2314 098e 23       		.byte	0x23
 2315 098f 0C       		.uleb128 0xc
 2316 0990 00       		.byte	0x0
 2317 0991 04       		.uleb128 0x4
 2318 0992 19000000 		.4byte	.LASF105
ARM GAS  C:\Users\DNIEL~1\AppData\Local\Temp\ccGYSxmm.s 			page 42


 2319 0996 0C       		.byte	0xc
 2320 0997 CA       		.byte	0xca
 2321 0998 68090000 		.4byte	0x968
 2322 099c 08       		.uleb128 0x8
 2323 099d 08       		.byte	0x8
 2324 099e 0C       		.byte	0xc
 2325 099f F4       		.byte	0xf4
 2326 09a0 C2090000 		.4byte	0x9c2
 2327 09a4 07       		.uleb128 0x7
 2328 09a5 6D637200 		.ascii	"mcr\000"
 2329 09a9 0C       		.byte	0xc
 2330 09aa FA       		.byte	0xfa
 2331 09ab 7B000000 		.4byte	0x7b
 2332 09af 02       		.byte	0x2
 2333 09b0 23       		.byte	0x23
 2334 09b1 00       		.uleb128 0x0
 2335 09b2 0C       		.uleb128 0xc
 2336 09b3 62747200 		.ascii	"btr\000"
 2337 09b7 0C       		.byte	0xc
 2338 09b8 0001     		.2byte	0x100
 2339 09ba 7B000000 		.4byte	0x7b
 2340 09be 02       		.byte	0x2
 2341 09bf 23       		.byte	0x23
 2342 09c0 04       		.uleb128 0x4
 2343 09c1 00       		.byte	0x0
 2344 09c2 15       		.uleb128 0x15
 2345 09c3 33000000 		.4byte	.LASF106
 2346 09c7 0C       		.byte	0xc
 2347 09c8 0101     		.2byte	0x101
 2348 09ca 9C090000 		.4byte	0x99c
 2349 09ce 13       		.uleb128 0x13
 2350 09cf 38       		.byte	0x38
 2351 09d0 0C       		.byte	0xc
 2352 09d1 0601     		.2byte	0x106
 2353 09d3 6E0A0000 		.4byte	0xa6e
 2354 09d7 14       		.uleb128 0x14
 2355 09d8 E4000000 		.4byte	.LASF107
 2356 09dc 0C       		.byte	0xc
 2357 09dd 0A01     		.2byte	0x10a
 2358 09df 87070000 		.4byte	0x787
 2359 09e3 02       		.byte	0x2
 2360 09e4 23       		.byte	0x23
 2361 09e5 00       		.uleb128 0x0
 2362 09e6 14       		.uleb128 0x14
 2363 09e7 2F040000 		.4byte	.LASF108
 2364 09eb 0C       		.byte	0xc
 2365 09ec 0E01     		.2byte	0x10e
 2366 09ee 6E0A0000 		.4byte	0xa6e
 2367 09f2 02       		.byte	0x2
 2368 09f3 23       		.byte	0x23
 2369 09f4 04       		.uleb128 0x4
 2370 09f5 14       		.uleb128 0x14
 2371 09f6 BA000000 		.4byte	.LASF109
 2372 09fa 0C       		.byte	0xc
 2373 09fb 1201     		.2byte	0x112
 2374 09fd 89030000 		.4byte	0x389
 2375 0a01 02       		.byte	0x2
ARM GAS  C:\Users\DNIEL~1\AppData\Local\Temp\ccGYSxmm.s 			page 43


 2376 0a02 23       		.byte	0x23
 2377 0a03 08       		.uleb128 0x8
 2378 0a04 14       		.uleb128 0x14
 2379 0a05 E6040000 		.4byte	.LASF110
 2380 0a09 0C       		.byte	0xc
 2381 0a0a 1601     		.2byte	0x116
 2382 0a0c 89030000 		.4byte	0x389
 2383 0a10 02       		.byte	0x2
 2384 0a11 23       		.byte	0x23
 2385 0a12 14       		.uleb128 0x14
 2386 0a13 14       		.uleb128 0x14
 2387 0a14 4F010000 		.4byte	.LASF111
 2388 0a18 0C       		.byte	0xc
 2389 0a19 2301     		.2byte	0x123
 2390 0a1b 4D040000 		.4byte	0x44d
 2391 0a1f 02       		.byte	0x2
 2392 0a20 23       		.byte	0x23
 2393 0a21 20       		.uleb128 0x20
 2394 0a22 14       		.uleb128 0x14
 2395 0a23 0A040000 		.4byte	.LASF112
 2396 0a27 0C       		.byte	0xc
 2397 0a28 2A01     		.2byte	0x12a
 2398 0a2a 4D040000 		.4byte	0x44d
 2399 0a2e 02       		.byte	0x2
 2400 0a2f 23       		.byte	0x23
 2401 0a30 24       		.uleb128 0x24
 2402 0a31 14       		.uleb128 0x14
 2403 0a32 B3020000 		.4byte	.LASF113
 2404 0a36 0C       		.byte	0xc
 2405 0a37 3001     		.2byte	0x130
 2406 0a39 4D040000 		.4byte	0x44d
 2407 0a3d 02       		.byte	0x2
 2408 0a3e 23       		.byte	0x23
 2409 0a3f 28       		.uleb128 0x28
 2410 0a40 14       		.uleb128 0x14
 2411 0a41 8D020000 		.4byte	.LASF114
 2412 0a45 0C       		.byte	0xc
 2413 0a46 3501     		.2byte	0x135
 2414 0a48 4D040000 		.4byte	0x44d
 2415 0a4c 02       		.byte	0x2
 2416 0a4d 23       		.byte	0x23
 2417 0a4e 2C       		.uleb128 0x2c
 2418 0a4f 14       		.uleb128 0x14
 2419 0a50 67030000 		.4byte	.LASF115
 2420 0a54 0C       		.byte	0xc
 2421 0a55 3901     		.2byte	0x139
 2422 0a57 4D040000 		.4byte	0x44d
 2423 0a5b 02       		.byte	0x2
 2424 0a5c 23       		.byte	0x23
 2425 0a5d 30       		.uleb128 0x30
 2426 0a5e 0C       		.uleb128 0xc
 2427 0a5f 63616E00 		.ascii	"can\000"
 2428 0a63 0C       		.byte	0xc
 2429 0a64 3F01     		.2byte	0x13f
 2430 0a66 790A0000 		.4byte	0xa79
 2431 0a6a 02       		.byte	0x2
 2432 0a6b 23       		.byte	0x23
ARM GAS  C:\Users\DNIEL~1\AppData\Local\Temp\ccGYSxmm.s 			page 44


 2433 0a6c 34       		.uleb128 0x34
 2434 0a6d 00       		.byte	0x0
 2435 0a6e 09       		.uleb128 0x9
 2436 0a6f 04       		.byte	0x4
 2437 0a70 740A0000 		.4byte	0xa74
 2438 0a74 10       		.uleb128 0x10
 2439 0a75 C2090000 		.4byte	0x9c2
 2440 0a79 09       		.uleb128 0x9
 2441 0a7a 04       		.byte	0x4
 2442 0a7b 54070000 		.4byte	0x754
 2443 0a7f 15       		.uleb128 0x15
 2444 0a80 61020000 		.4byte	.LASF116
 2445 0a84 0C       		.byte	0xc
 2446 0a85 4001     		.2byte	0x140
 2447 0a87 CE090000 		.4byte	0x9ce
 2448 0a8b 1C       		.uleb128 0x1c
 2449 0a8c 01       		.byte	0x1
 2450 0a8d 2B000000 		.4byte	.LASF133
 2451 0a91 01       		.byte	0x1
 2452 0a92 44       		.byte	0x44
 2453 0a93 01       		.byte	0x1
 2454 0a94 00000000 		.4byte	.LFB118
 2455 0a98 04000000 		.4byte	.LFE118
 2456 0a9c 02       		.byte	0x2
 2457 0a9d 7D       		.byte	0x7d
 2458 0a9e 00       		.sleb128 0
 2459 0a9f 1D       		.uleb128 0x1d
 2460 0aa0 01       		.byte	0x1
 2461 0aa1 C0000000 		.4byte	.LASF117
 2462 0aa5 01       		.byte	0x1
 2463 0aa6 50       		.byte	0x50
 2464 0aa7 01       		.byte	0x1
 2465 0aa8 00000000 		.4byte	.LFB119
 2466 0aac 3E000000 		.4byte	.LFE119
 2467 0ab0 00000000 		.4byte	.LLST0
 2468 0ab4 C80A0000 		.4byte	0xac8
 2469 0ab8 1E       		.uleb128 0x1e
 2470 0ab9 FC030000 		.4byte	.LASF119
 2471 0abd 01       		.byte	0x1
 2472 0abe 50       		.byte	0x50
 2473 0abf C80A0000 		.4byte	0xac8
 2474 0ac3 20000000 		.4byte	.LLST1
 2475 0ac7 00       		.byte	0x0
 2476 0ac8 09       		.uleb128 0x9
 2477 0ac9 04       		.byte	0x4
 2478 0aca 7F0A0000 		.4byte	0xa7f
 2479 0ace 1D       		.uleb128 0x1d
 2480 0acf 01       		.byte	0x1
 2481 0ad0 46010000 		.4byte	.LASF118
 2482 0ad4 01       		.byte	0x1
 2483 0ad5 6B       		.byte	0x6b
 2484 0ad6 01       		.byte	0x1
 2485 0ad7 00000000 		.4byte	.LFB120
 2486 0adb 40000000 		.4byte	.LFE120
 2487 0adf 3E000000 		.4byte	.LLST2
 2488 0ae3 380B0000 		.4byte	0xb38
 2489 0ae7 1E       		.uleb128 0x1e
ARM GAS  C:\Users\DNIEL~1\AppData\Local\Temp\ccGYSxmm.s 			page 45


 2490 0ae8 FC030000 		.4byte	.LASF119
 2491 0aec 01       		.byte	0x1
 2492 0aed 6B       		.byte	0x6b
 2493 0aee C80A0000 		.4byte	0xac8
 2494 0af2 5E000000 		.4byte	.LLST3
 2495 0af6 1E       		.uleb128 0x1e
 2496 0af7 2F040000 		.4byte	.LASF108
 2497 0afb 01       		.byte	0x1
 2498 0afc 6B       		.byte	0x6b
 2499 0afd 6E0A0000 		.4byte	0xa6e
 2500 0b01 7C000000 		.4byte	.LLST4
 2501 0b05 1F       		.uleb128 0x1f
 2502 0b06 06000000 		.4byte	.LBB2
 2503 0b0a 0C000000 		.4byte	.LBE2
 2504 0b0e 220B0000 		.4byte	0xb22
 2505 0b12 20       		.uleb128 0x20
 2506 0b13 746D7000 		.ascii	"tmp\000"
 2507 0b17 01       		.byte	0x1
 2508 0b18 6F       		.byte	0x6f
 2509 0b19 7B000000 		.4byte	0x7b
 2510 0b1d 9A000000 		.4byte	.LLST5
 2511 0b21 00       		.byte	0x0
 2512 0b22 21       		.uleb128 0x21
 2513 0b23 00000000 		.4byte	.Ldebug_ranges0+0x0
 2514 0b27 20       		.uleb128 0x20
 2515 0b28 746D7000 		.ascii	"tmp\000"
 2516 0b2c 01       		.byte	0x1
 2517 0b2d 7B       		.byte	0x7b
 2518 0b2e 7B000000 		.4byte	0x7b
 2519 0b32 AD000000 		.4byte	.LLST6
 2520 0b36 00       		.byte	0x0
 2521 0b37 00       		.byte	0x0
 2522 0b38 1D       		.uleb128 0x1d
 2523 0b39 01       		.byte	0x1
 2524 0b3a 05030000 		.4byte	.LASF120
 2525 0b3e 01       		.byte	0x1
 2526 0b3f 85       		.byte	0x85
 2527 0b40 01       		.byte	0x1
 2528 0b41 00000000 		.4byte	.LFB121
 2529 0b45 32000000 		.4byte	.LFE121
 2530 0b49 CB000000 		.4byte	.LLST7
 2531 0b4d 930B0000 		.4byte	0xb93
 2532 0b51 1E       		.uleb128 0x1e
 2533 0b52 FC030000 		.4byte	.LASF119
 2534 0b56 01       		.byte	0x1
 2535 0b57 85       		.byte	0x85
 2536 0b58 C80A0000 		.4byte	0xac8
 2537 0b5c EB000000 		.4byte	.LLST8
 2538 0b60 22       		.uleb128 0x22
 2539 0b61 18000000 		.4byte	.Ldebug_ranges0+0x18
 2540 0b65 790B0000 		.4byte	0xb79
 2541 0b69 20       		.uleb128 0x20
 2542 0b6a 746D7000 		.ascii	"tmp\000"
 2543 0b6e 01       		.byte	0x1
 2544 0b6f 89       		.byte	0x89
 2545 0b70 7B000000 		.4byte	0x7b
 2546 0b74 09010000 		.4byte	.LLST9
ARM GAS  C:\Users\DNIEL~1\AppData\Local\Temp\ccGYSxmm.s 			page 46


 2547 0b78 00       		.byte	0x0
 2548 0b79 23       		.uleb128 0x23
 2549 0b7a 2A000000 		.4byte	.LBB7
 2550 0b7e 30000000 		.4byte	.LBE7
 2551 0b82 20       		.uleb128 0x20
 2552 0b83 746D7000 		.ascii	"tmp\000"
 2553 0b87 01       		.byte	0x1
 2554 0b88 91       		.byte	0x91
 2555 0b89 7B000000 		.4byte	0x7b
 2556 0b8d 1C010000 		.4byte	.LLST10
 2557 0b91 00       		.byte	0x0
 2558 0b92 00       		.byte	0x0
 2559 0b93 24       		.uleb128 0x24
 2560 0b94 01       		.byte	0x1
 2561 0b95 3E020000 		.4byte	.LASF124
 2562 0b99 01       		.byte	0x1
 2563 0b9a A9       		.byte	0xa9
 2564 0b9b 01       		.byte	0x1
 2565 0b9c D9000000 		.4byte	0xd9
 2566 0ba0 00000000 		.4byte	.LFB122
 2567 0ba4 52000000 		.4byte	.LFE122
 2568 0ba8 2F010000 		.4byte	.LLST11
 2569 0bac 550C0000 		.4byte	0xc55
 2570 0bb0 1E       		.uleb128 0x1e
 2571 0bb1 FC030000 		.4byte	.LASF119
 2572 0bb5 01       		.byte	0x1
 2573 0bb6 A9       		.byte	0xa9
 2574 0bb7 C80A0000 		.4byte	0xac8
 2575 0bbb 4F010000 		.4byte	.LLST12
 2576 0bbf 1E       		.uleb128 0x1e
 2577 0bc0 A2000000 		.4byte	.LASF121
 2578 0bc4 01       		.byte	0x1
 2579 0bc5 AA       		.byte	0xaa
 2580 0bc6 92070000 		.4byte	0x792
 2581 0bca 6D010000 		.4byte	.LLST13
 2582 0bce 1E       		.uleb128 0x1e
 2583 0bcf 27010000 		.4byte	.LASF122
 2584 0bd3 01       		.byte	0x1
 2585 0bd4 AB       		.byte	0xab
 2586 0bd5 550C0000 		.4byte	0xc55
 2587 0bd9 8B010000 		.4byte	.LLST14
 2588 0bdd 1E       		.uleb128 0x1e
 2589 0bde A4010000 		.4byte	.LASF123
 2590 0be2 01       		.byte	0x1
 2591 0be3 AC       		.byte	0xac
 2592 0be4 FA000000 		.4byte	0xfa
 2593 0be8 A9010000 		.4byte	.LLST15
 2594 0bec 1F       		.uleb128 0x1f
 2595 0bed 0C000000 		.4byte	.LBB8
 2596 0bf1 12000000 		.4byte	.LBE8
 2597 0bf5 090C0000 		.4byte	0xc09
 2598 0bf9 20       		.uleb128 0x20
 2599 0bfa 746D7000 		.ascii	"tmp\000"
 2600 0bfe 01       		.byte	0x1
 2601 0bff B1       		.byte	0xb1
 2602 0c00 7B000000 		.4byte	0x7b
 2603 0c04 C7010000 		.4byte	.LLST16
ARM GAS  C:\Users\DNIEL~1\AppData\Local\Temp\ccGYSxmm.s 			page 47


 2604 0c08 00       		.byte	0x0
 2605 0c09 22       		.uleb128 0x22
 2606 0c0a 30000000 		.4byte	.Ldebug_ranges0+0x30
 2607 0c0e 3B0C0000 		.4byte	0xc3b
 2608 0c12 20       		.uleb128 0x20
 2609 0c13 6D736700 		.ascii	"msg\000"
 2610 0c17 01       		.byte	0x1
 2611 0c18 B5       		.byte	0xb5
 2612 0c19 D9000000 		.4byte	0xd9
 2613 0c1d DA010000 		.4byte	.LLST17
 2614 0c21 23       		.uleb128 0x23
 2615 0c22 32000000 		.4byte	.LBB10
 2616 0c26 38000000 		.4byte	.LBE10
 2617 0c2a 20       		.uleb128 0x20
 2618 0c2b 746D7000 		.ascii	"tmp\000"
 2619 0c2f 01       		.byte	0x1
 2620 0c30 B7       		.byte	0xb7
 2621 0c31 7B000000 		.4byte	0x7b
 2622 0c35 ED010000 		.4byte	.LLST18
 2623 0c39 00       		.byte	0x0
 2624 0c3a 00       		.byte	0x0
 2625 0c3b 23       		.uleb128 0x23
 2626 0c3c 46000000 		.4byte	.LBB12
 2627 0c40 4C000000 		.4byte	.LBE12
 2628 0c44 20       		.uleb128 0x20
 2629 0c45 746D7000 		.ascii	"tmp\000"
 2630 0c49 01       		.byte	0x1
 2631 0c4a BC       		.byte	0xbc
 2632 0c4b 7B000000 		.4byte	0x7b
 2633 0c4f 00020000 		.4byte	.LLST19
 2634 0c53 00       		.byte	0x0
 2635 0c54 00       		.byte	0x0
 2636 0c55 09       		.uleb128 0x9
 2637 0c56 04       		.byte	0x4
 2638 0c57 5B0C0000 		.4byte	0xc5b
 2639 0c5b 10       		.uleb128 0x10
 2640 0c5c 8B080000 		.4byte	0x88b
 2641 0c60 24       		.uleb128 0x24
 2642 0c61 01       		.byte	0x1
 2643 0c62 70000000 		.4byte	.LASF125
 2644 0c66 01       		.byte	0x1
 2645 0c67 D6       		.byte	0xd6
 2646 0c68 01       		.byte	0x1
 2647 0c69 D9000000 		.4byte	0xd9
 2648 0c6d 00000000 		.4byte	.LFB123
 2649 0c71 52000000 		.4byte	.LFE123
 2650 0c75 13020000 		.4byte	.LLST20
 2651 0c79 220D0000 		.4byte	0xd22
 2652 0c7d 1E       		.uleb128 0x1e
 2653 0c7e FC030000 		.4byte	.LASF119
 2654 0c82 01       		.byte	0x1
 2655 0c83 D6       		.byte	0xd6
 2656 0c84 C80A0000 		.4byte	0xac8
 2657 0c88 33020000 		.4byte	.LLST21
 2658 0c8c 1E       		.uleb128 0x1e
 2659 0c8d A2000000 		.4byte	.LASF121
 2660 0c91 01       		.byte	0x1
ARM GAS  C:\Users\DNIEL~1\AppData\Local\Temp\ccGYSxmm.s 			page 48


 2661 0c92 D7       		.byte	0xd7
 2662 0c93 92070000 		.4byte	0x792
 2663 0c97 51020000 		.4byte	.LLST22
 2664 0c9b 1E       		.uleb128 0x1e
 2665 0c9c BF020000 		.4byte	.LASF126
 2666 0ca0 01       		.byte	0x1
 2667 0ca1 D8       		.byte	0xd8
 2668 0ca2 220D0000 		.4byte	0xd22
 2669 0ca6 6F020000 		.4byte	.LLST23
 2670 0caa 1E       		.uleb128 0x1e
 2671 0cab A4010000 		.4byte	.LASF123
 2672 0caf 01       		.byte	0x1
 2673 0cb0 D9       		.byte	0xd9
 2674 0cb1 FA000000 		.4byte	0xfa
 2675 0cb5 8D020000 		.4byte	.LLST24
 2676 0cb9 1F       		.uleb128 0x1f
 2677 0cba 0C000000 		.4byte	.LBB13
 2678 0cbe 12000000 		.4byte	.LBE13
 2679 0cc2 D60C0000 		.4byte	0xcd6
 2680 0cc6 20       		.uleb128 0x20
 2681 0cc7 746D7000 		.ascii	"tmp\000"
 2682 0ccb 01       		.byte	0x1
 2683 0ccc DE       		.byte	0xde
 2684 0ccd 7B000000 		.4byte	0x7b
 2685 0cd1 AB020000 		.4byte	.LLST25
 2686 0cd5 00       		.byte	0x0
 2687 0cd6 22       		.uleb128 0x22
 2688 0cd7 48000000 		.4byte	.Ldebug_ranges0+0x48
 2689 0cdb 080D0000 		.4byte	0xd08
 2690 0cdf 20       		.uleb128 0x20
 2691 0ce0 6D736700 		.ascii	"msg\000"
 2692 0ce4 01       		.byte	0x1
 2693 0ce5 E2       		.byte	0xe2
 2694 0ce6 D9000000 		.4byte	0xd9
 2695 0cea BE020000 		.4byte	.LLST26
 2696 0cee 23       		.uleb128 0x23
 2697 0cef 32000000 		.4byte	.LBB15
 2698 0cf3 38000000 		.4byte	.LBE15
 2699 0cf7 20       		.uleb128 0x20
 2700 0cf8 746D7000 		.ascii	"tmp\000"
 2701 0cfc 01       		.byte	0x1
 2702 0cfd E4       		.byte	0xe4
 2703 0cfe 7B000000 		.4byte	0x7b
 2704 0d02 D1020000 		.4byte	.LLST27
 2705 0d06 00       		.byte	0x0
 2706 0d07 00       		.byte	0x0
 2707 0d08 23       		.uleb128 0x23
 2708 0d09 46000000 		.4byte	.LBB17
 2709 0d0d 4C000000 		.4byte	.LBE17
 2710 0d11 20       		.uleb128 0x20
 2711 0d12 746D7000 		.ascii	"tmp\000"
 2712 0d16 01       		.byte	0x1
 2713 0d17 E9       		.byte	0xe9
 2714 0d18 7B000000 		.4byte	0x7b
 2715 0d1c E4020000 		.4byte	.LLST28
 2716 0d20 00       		.byte	0x0
 2717 0d21 00       		.byte	0x0
ARM GAS  C:\Users\DNIEL~1\AppData\Local\Temp\ccGYSxmm.s 			page 49


 2718 0d22 09       		.uleb128 0x9
 2719 0d23 04       		.byte	0x4
 2720 0d24 91090000 		.4byte	0x991
 2721 0d28 1D       		.uleb128 0x1d
 2722 0d29 01       		.byte	0x1
 2723 0d2a D2030000 		.4byte	.LASF127
 2724 0d2e 01       		.byte	0x1
 2725 0d2f FA       		.byte	0xfa
 2726 0d30 01       		.byte	0x1
 2727 0d31 00000000 		.4byte	.LFB124
 2728 0d35 36000000 		.4byte	.LFE124
 2729 0d39 F7020000 		.4byte	.LLST29
 2730 0d3d 800D0000 		.4byte	0xd80
 2731 0d41 1E       		.uleb128 0x1e
 2732 0d42 FC030000 		.4byte	.LASF119
 2733 0d46 01       		.byte	0x1
 2734 0d47 FA       		.byte	0xfa
 2735 0d48 C80A0000 		.4byte	0xac8
 2736 0d4c 17030000 		.4byte	.LLST30
 2737 0d50 22       		.uleb128 0x22
 2738 0d51 60000000 		.4byte	.Ldebug_ranges0+0x60
 2739 0d55 690D0000 		.4byte	0xd69
 2740 0d59 20       		.uleb128 0x20
 2741 0d5a 746D7000 		.ascii	"tmp\000"
 2742 0d5e 01       		.byte	0x1
 2743 0d5f FE       		.byte	0xfe
 2744 0d60 7B000000 		.4byte	0x7b
 2745 0d64 35030000 		.4byte	.LLST31
 2746 0d68 00       		.byte	0x0
 2747 0d69 21       		.uleb128 0x21
 2748 0d6a 78000000 		.4byte	.Ldebug_ranges0+0x78
 2749 0d6e 25       		.uleb128 0x25
 2750 0d6f 746D7000 		.ascii	"tmp\000"
 2751 0d73 01       		.byte	0x1
 2752 0d74 0701     		.2byte	0x107
 2753 0d76 7B000000 		.4byte	0x7b
 2754 0d7a 48030000 		.4byte	.LLST32
 2755 0d7e 00       		.byte	0x0
 2756 0d7f 00       		.byte	0x0
 2757 0d80 26       		.uleb128 0x26
 2758 0d81 01       		.byte	0x1
 2759 0d82 00000000 		.4byte	.LASF128
 2760 0d86 01       		.byte	0x1
 2761 0d87 1101     		.2byte	0x111
 2762 0d89 01       		.byte	0x1
 2763 0d8a 00000000 		.4byte	.LFB125
 2764 0d8e 36000000 		.4byte	.LFE125
 2765 0d92 66030000 		.4byte	.LLST33
 2766 0d96 DB0D0000 		.4byte	0xddb
 2767 0d9a 27       		.uleb128 0x27
 2768 0d9b FC030000 		.4byte	.LASF119
 2769 0d9f 01       		.byte	0x1
 2770 0da0 1101     		.2byte	0x111
 2771 0da2 C80A0000 		.4byte	0xac8
 2772 0da6 86030000 		.4byte	.LLST34
 2773 0daa 22       		.uleb128 0x22
 2774 0dab 90000000 		.4byte	.Ldebug_ranges0+0x90
ARM GAS  C:\Users\DNIEL~1\AppData\Local\Temp\ccGYSxmm.s 			page 50


 2775 0daf C40D0000 		.4byte	0xdc4
 2776 0db3 25       		.uleb128 0x25
 2777 0db4 746D7000 		.ascii	"tmp\000"
 2778 0db8 01       		.byte	0x1
 2779 0db9 1501     		.2byte	0x115
 2780 0dbb 7B000000 		.4byte	0x7b
 2781 0dbf A4030000 		.4byte	.LLST35
 2782 0dc3 00       		.byte	0x0
 2783 0dc4 21       		.uleb128 0x21
 2784 0dc5 A8000000 		.4byte	.Ldebug_ranges0+0xa8
 2785 0dc9 25       		.uleb128 0x25
 2786 0dca 746D7000 		.ascii	"tmp\000"
 2787 0dce 01       		.byte	0x1
 2788 0dcf 1E01     		.2byte	0x11e
 2789 0dd1 7B000000 		.4byte	0x7b
 2790 0dd5 B7030000 		.4byte	.LLST36
 2791 0dd9 00       		.byte	0x0
 2792 0dda 00       		.byte	0x0
 2793 0ddb 28       		.uleb128 0x28
 2794 0ddc 80030000 		.4byte	.LASF129
 2795 0de0 0D       		.byte	0xd
 2796 0de1 9806     		.2byte	0x698
 2797 0de3 C5040000 		.4byte	0x4c5
 2798 0de7 01       		.byte	0x1
 2799 0de8 01       		.byte	0x1
 2800 0de9 28       		.uleb128 0x28
 2801 0dea 80030000 		.4byte	.LASF129
 2802 0dee 0D       		.byte	0xd
 2803 0def 9806     		.2byte	0x698
 2804 0df1 C5040000 		.4byte	0x4c5
 2805 0df5 01       		.byte	0x1
 2806 0df6 01       		.byte	0x1
 2807 0df7 00       		.byte	0x0
 2808              		.section	.debug_abbrev
 2809 0000 01       		.uleb128 0x1
 2810 0001 11       		.uleb128 0x11
 2811 0002 01       		.byte	0x1
 2812 0003 25       		.uleb128 0x25
 2813 0004 0E       		.uleb128 0xe
 2814 0005 13       		.uleb128 0x13
 2815 0006 0B       		.uleb128 0xb
 2816 0007 03       		.uleb128 0x3
 2817 0008 0E       		.uleb128 0xe
 2818 0009 1B       		.uleb128 0x1b
 2819 000a 0E       		.uleb128 0xe
 2820 000b 11       		.uleb128 0x11
 2821 000c 01       		.uleb128 0x1
 2822 000d 52       		.uleb128 0x52
 2823 000e 01       		.uleb128 0x1
 2824 000f 55       		.uleb128 0x55
 2825 0010 06       		.uleb128 0x6
 2826 0011 10       		.uleb128 0x10
 2827 0012 06       		.uleb128 0x6
 2828 0013 00       		.byte	0x0
 2829 0014 00       		.byte	0x0
 2830 0015 02       		.uleb128 0x2
 2831 0016 24       		.uleb128 0x24
ARM GAS  C:\Users\DNIEL~1\AppData\Local\Temp\ccGYSxmm.s 			page 51


 2832 0017 00       		.byte	0x0
 2833 0018 0B       		.uleb128 0xb
 2834 0019 0B       		.uleb128 0xb
 2835 001a 3E       		.uleb128 0x3e
 2836 001b 0B       		.uleb128 0xb
 2837 001c 03       		.uleb128 0x3
 2838 001d 08       		.uleb128 0x8
 2839 001e 00       		.byte	0x0
 2840 001f 00       		.byte	0x0
 2841 0020 03       		.uleb128 0x3
 2842 0021 24       		.uleb128 0x24
 2843 0022 00       		.byte	0x0
 2844 0023 0B       		.uleb128 0xb
 2845 0024 0B       		.uleb128 0xb
 2846 0025 3E       		.uleb128 0x3e
 2847 0026 0B       		.uleb128 0xb
 2848 0027 03       		.uleb128 0x3
 2849 0028 0E       		.uleb128 0xe
 2850 0029 00       		.byte	0x0
 2851 002a 00       		.byte	0x0
 2852 002b 04       		.uleb128 0x4
 2853 002c 16       		.uleb128 0x16
 2854 002d 00       		.byte	0x0
 2855 002e 03       		.uleb128 0x3
 2856 002f 0E       		.uleb128 0xe
 2857 0030 3A       		.uleb128 0x3a
 2858 0031 0B       		.uleb128 0xb
 2859 0032 3B       		.uleb128 0x3b
 2860 0033 0B       		.uleb128 0xb
 2861 0034 49       		.uleb128 0x49
 2862 0035 13       		.uleb128 0x13
 2863 0036 00       		.byte	0x0
 2864 0037 00       		.byte	0x0
 2865 0038 05       		.uleb128 0x5
 2866 0039 13       		.uleb128 0x13
 2867 003a 01       		.byte	0x1
 2868 003b 03       		.uleb128 0x3
 2869 003c 0E       		.uleb128 0xe
 2870 003d 0B       		.uleb128 0xb
 2871 003e 0B       		.uleb128 0xb
 2872 003f 3A       		.uleb128 0x3a
 2873 0040 0B       		.uleb128 0xb
 2874 0041 3B       		.uleb128 0x3b
 2875 0042 0B       		.uleb128 0xb
 2876 0043 01       		.uleb128 0x1
 2877 0044 13       		.uleb128 0x13
 2878 0045 00       		.byte	0x0
 2879 0046 00       		.byte	0x0
 2880 0047 06       		.uleb128 0x6
 2881 0048 0D       		.uleb128 0xd
 2882 0049 00       		.byte	0x0
 2883 004a 03       		.uleb128 0x3
 2884 004b 0E       		.uleb128 0xe
 2885 004c 3A       		.uleb128 0x3a
 2886 004d 0B       		.uleb128 0xb
 2887 004e 3B       		.uleb128 0x3b
 2888 004f 0B       		.uleb128 0xb
ARM GAS  C:\Users\DNIEL~1\AppData\Local\Temp\ccGYSxmm.s 			page 52


 2889 0050 49       		.uleb128 0x49
 2890 0051 13       		.uleb128 0x13
 2891 0052 38       		.uleb128 0x38
 2892 0053 0A       		.uleb128 0xa
 2893 0054 00       		.byte	0x0
 2894 0055 00       		.byte	0x0
 2895 0056 07       		.uleb128 0x7
 2896 0057 0D       		.uleb128 0xd
 2897 0058 00       		.byte	0x0
 2898 0059 03       		.uleb128 0x3
 2899 005a 08       		.uleb128 0x8
 2900 005b 3A       		.uleb128 0x3a
 2901 005c 0B       		.uleb128 0xb
 2902 005d 3B       		.uleb128 0x3b
 2903 005e 0B       		.uleb128 0xb
 2904 005f 49       		.uleb128 0x49
 2905 0060 13       		.uleb128 0x13
 2906 0061 38       		.uleb128 0x38
 2907 0062 0A       		.uleb128 0xa
 2908 0063 00       		.byte	0x0
 2909 0064 00       		.byte	0x0
 2910 0065 08       		.uleb128 0x8
 2911 0066 13       		.uleb128 0x13
 2912 0067 01       		.byte	0x1
 2913 0068 0B       		.uleb128 0xb
 2914 0069 0B       		.uleb128 0xb
 2915 006a 3A       		.uleb128 0x3a
 2916 006b 0B       		.uleb128 0xb
 2917 006c 3B       		.uleb128 0x3b
 2918 006d 0B       		.uleb128 0xb
 2919 006e 01       		.uleb128 0x1
 2920 006f 13       		.uleb128 0x13
 2921 0070 00       		.byte	0x0
 2922 0071 00       		.byte	0x0
 2923 0072 09       		.uleb128 0x9
 2924 0073 0F       		.uleb128 0xf
 2925 0074 00       		.byte	0x0
 2926 0075 0B       		.uleb128 0xb
 2927 0076 0B       		.uleb128 0xb
 2928 0077 49       		.uleb128 0x49
 2929 0078 13       		.uleb128 0x13
 2930 0079 00       		.byte	0x0
 2931 007a 00       		.byte	0x0
 2932 007b 0A       		.uleb128 0xa
 2933 007c 0F       		.uleb128 0xf
 2934 007d 00       		.byte	0x0
 2935 007e 0B       		.uleb128 0xb
 2936 007f 0B       		.uleb128 0xb
 2937 0080 00       		.byte	0x0
 2938 0081 00       		.byte	0x0
 2939 0082 0B       		.uleb128 0xb
 2940 0083 13       		.uleb128 0x13
 2941 0084 01       		.byte	0x1
 2942 0085 03       		.uleb128 0x3
 2943 0086 0E       		.uleb128 0xe
 2944 0087 0B       		.uleb128 0xb
 2945 0088 0B       		.uleb128 0xb
ARM GAS  C:\Users\DNIEL~1\AppData\Local\Temp\ccGYSxmm.s 			page 53


 2946 0089 3A       		.uleb128 0x3a
 2947 008a 0B       		.uleb128 0xb
 2948 008b 3B       		.uleb128 0x3b
 2949 008c 05       		.uleb128 0x5
 2950 008d 01       		.uleb128 0x1
 2951 008e 13       		.uleb128 0x13
 2952 008f 00       		.byte	0x0
 2953 0090 00       		.byte	0x0
 2954 0091 0C       		.uleb128 0xc
 2955 0092 0D       		.uleb128 0xd
 2956 0093 00       		.byte	0x0
 2957 0094 03       		.uleb128 0x3
 2958 0095 08       		.uleb128 0x8
 2959 0096 3A       		.uleb128 0x3a
 2960 0097 0B       		.uleb128 0xb
 2961 0098 3B       		.uleb128 0x3b
 2962 0099 05       		.uleb128 0x5
 2963 009a 49       		.uleb128 0x49
 2964 009b 13       		.uleb128 0x13
 2965 009c 38       		.uleb128 0x38
 2966 009d 0A       		.uleb128 0xa
 2967 009e 00       		.byte	0x0
 2968 009f 00       		.byte	0x0
 2969 00a0 0D       		.uleb128 0xd
 2970 00a1 35       		.uleb128 0x35
 2971 00a2 00       		.byte	0x0
 2972 00a3 49       		.uleb128 0x49
 2973 00a4 13       		.uleb128 0x13
 2974 00a5 00       		.byte	0x0
 2975 00a6 00       		.byte	0x0
 2976 00a7 0E       		.uleb128 0xe
 2977 00a8 17       		.uleb128 0x17
 2978 00a9 01       		.byte	0x1
 2979 00aa 0B       		.uleb128 0xb
 2980 00ab 0B       		.uleb128 0xb
 2981 00ac 3A       		.uleb128 0x3a
 2982 00ad 0B       		.uleb128 0xb
 2983 00ae 3B       		.uleb128 0x3b
 2984 00af 0B       		.uleb128 0xb
 2985 00b0 01       		.uleb128 0x1
 2986 00b1 13       		.uleb128 0x13
 2987 00b2 00       		.byte	0x0
 2988 00b3 00       		.byte	0x0
 2989 00b4 0F       		.uleb128 0xf
 2990 00b5 0D       		.uleb128 0xd
 2991 00b6 00       		.byte	0x0
 2992 00b7 03       		.uleb128 0x3
 2993 00b8 0E       		.uleb128 0xe
 2994 00b9 3A       		.uleb128 0x3a
 2995 00ba 0B       		.uleb128 0xb
 2996 00bb 3B       		.uleb128 0x3b
 2997 00bc 0B       		.uleb128 0xb
 2998 00bd 49       		.uleb128 0x49
 2999 00be 13       		.uleb128 0x13
 3000 00bf 00       		.byte	0x0
 3001 00c0 00       		.byte	0x0
 3002 00c1 10       		.uleb128 0x10
ARM GAS  C:\Users\DNIEL~1\AppData\Local\Temp\ccGYSxmm.s 			page 54


 3003 00c2 26       		.uleb128 0x26
 3004 00c3 00       		.byte	0x0
 3005 00c4 49       		.uleb128 0x49
 3006 00c5 13       		.uleb128 0x13
 3007 00c6 00       		.byte	0x0
 3008 00c7 00       		.byte	0x0
 3009 00c8 11       		.uleb128 0x11
 3010 00c9 01       		.uleb128 0x1
 3011 00ca 01       		.byte	0x1
 3012 00cb 49       		.uleb128 0x49
 3013 00cc 13       		.uleb128 0x13
 3014 00cd 01       		.uleb128 0x1
 3015 00ce 13       		.uleb128 0x13
 3016 00cf 00       		.byte	0x0
 3017 00d0 00       		.byte	0x0
 3018 00d1 12       		.uleb128 0x12
 3019 00d2 21       		.uleb128 0x21
 3020 00d3 00       		.byte	0x0
 3021 00d4 49       		.uleb128 0x49
 3022 00d5 13       		.uleb128 0x13
 3023 00d6 2F       		.uleb128 0x2f
 3024 00d7 0B       		.uleb128 0xb
 3025 00d8 00       		.byte	0x0
 3026 00d9 00       		.byte	0x0
 3027 00da 13       		.uleb128 0x13
 3028 00db 13       		.uleb128 0x13
 3029 00dc 01       		.byte	0x1
 3030 00dd 0B       		.uleb128 0xb
 3031 00de 0B       		.uleb128 0xb
 3032 00df 3A       		.uleb128 0x3a
 3033 00e0 0B       		.uleb128 0xb
 3034 00e1 3B       		.uleb128 0x3b
 3035 00e2 05       		.uleb128 0x5
 3036 00e3 01       		.uleb128 0x1
 3037 00e4 13       		.uleb128 0x13
 3038 00e5 00       		.byte	0x0
 3039 00e6 00       		.byte	0x0
 3040 00e7 14       		.uleb128 0x14
 3041 00e8 0D       		.uleb128 0xd
 3042 00e9 00       		.byte	0x0
 3043 00ea 03       		.uleb128 0x3
 3044 00eb 0E       		.uleb128 0xe
 3045 00ec 3A       		.uleb128 0x3a
 3046 00ed 0B       		.uleb128 0xb
 3047 00ee 3B       		.uleb128 0x3b
 3048 00ef 05       		.uleb128 0x5
 3049 00f0 49       		.uleb128 0x49
 3050 00f1 13       		.uleb128 0x13
 3051 00f2 38       		.uleb128 0x38
 3052 00f3 0A       		.uleb128 0xa
 3053 00f4 00       		.byte	0x0
 3054 00f5 00       		.byte	0x0
 3055 00f6 15       		.uleb128 0x15
 3056 00f7 16       		.uleb128 0x16
 3057 00f8 00       		.byte	0x0
 3058 00f9 03       		.uleb128 0x3
 3059 00fa 0E       		.uleb128 0xe
ARM GAS  C:\Users\DNIEL~1\AppData\Local\Temp\ccGYSxmm.s 			page 55


 3060 00fb 3A       		.uleb128 0x3a
 3061 00fc 0B       		.uleb128 0xb
 3062 00fd 3B       		.uleb128 0x3b
 3063 00fe 05       		.uleb128 0x5
 3064 00ff 49       		.uleb128 0x49
 3065 0100 13       		.uleb128 0x13
 3066 0101 00       		.byte	0x0
 3067 0102 00       		.byte	0x0
 3068 0103 16       		.uleb128 0x16
 3069 0104 13       		.uleb128 0x13
 3070 0105 01       		.byte	0x1
 3071 0106 0B       		.uleb128 0xb
 3072 0107 05       		.uleb128 0x5
 3073 0108 3A       		.uleb128 0x3a
 3074 0109 0B       		.uleb128 0xb
 3075 010a 3B       		.uleb128 0x3b
 3076 010b 05       		.uleb128 0x5
 3077 010c 01       		.uleb128 0x1
 3078 010d 13       		.uleb128 0x13
 3079 010e 00       		.byte	0x0
 3080 010f 00       		.byte	0x0
 3081 0110 17       		.uleb128 0x17
 3082 0111 04       		.uleb128 0x4
 3083 0112 01       		.byte	0x1
 3084 0113 0B       		.uleb128 0xb
 3085 0114 0B       		.uleb128 0xb
 3086 0115 3A       		.uleb128 0x3a
 3087 0116 0B       		.uleb128 0xb
 3088 0117 3B       		.uleb128 0x3b
 3089 0118 0B       		.uleb128 0xb
 3090 0119 01       		.uleb128 0x1
 3091 011a 13       		.uleb128 0x13
 3092 011b 00       		.byte	0x0
 3093 011c 00       		.byte	0x0
 3094 011d 18       		.uleb128 0x18
 3095 011e 28       		.uleb128 0x28
 3096 011f 00       		.byte	0x0
 3097 0120 03       		.uleb128 0x3
 3098 0121 0E       		.uleb128 0xe
 3099 0122 1C       		.uleb128 0x1c
 3100 0123 0D       		.uleb128 0xd
 3101 0124 00       		.byte	0x0
 3102 0125 00       		.byte	0x0
 3103 0126 19       		.uleb128 0x19
 3104 0127 0D       		.uleb128 0xd
 3105 0128 00       		.byte	0x0
 3106 0129 03       		.uleb128 0x3
 3107 012a 08       		.uleb128 0x8
 3108 012b 3A       		.uleb128 0x3a
 3109 012c 0B       		.uleb128 0xb
 3110 012d 3B       		.uleb128 0x3b
 3111 012e 0B       		.uleb128 0xb
 3112 012f 49       		.uleb128 0x49
 3113 0130 13       		.uleb128 0x13
 3114 0131 0B       		.uleb128 0xb
 3115 0132 0B       		.uleb128 0xb
 3116 0133 0D       		.uleb128 0xd
ARM GAS  C:\Users\DNIEL~1\AppData\Local\Temp\ccGYSxmm.s 			page 56


 3117 0134 0B       		.uleb128 0xb
 3118 0135 0C       		.uleb128 0xc
 3119 0136 0B       		.uleb128 0xb
 3120 0137 38       		.uleb128 0x38
 3121 0138 0A       		.uleb128 0xa
 3122 0139 00       		.byte	0x0
 3123 013a 00       		.byte	0x0
 3124 013b 1A       		.uleb128 0x1a
 3125 013c 0D       		.uleb128 0xd
 3126 013d 00       		.byte	0x0
 3127 013e 49       		.uleb128 0x49
 3128 013f 13       		.uleb128 0x13
 3129 0140 00       		.byte	0x0
 3130 0141 00       		.byte	0x0
 3131 0142 1B       		.uleb128 0x1b
 3132 0143 0D       		.uleb128 0xd
 3133 0144 00       		.byte	0x0
 3134 0145 49       		.uleb128 0x49
 3135 0146 13       		.uleb128 0x13
 3136 0147 38       		.uleb128 0x38
 3137 0148 0A       		.uleb128 0xa
 3138 0149 00       		.byte	0x0
 3139 014a 00       		.byte	0x0
 3140 014b 1C       		.uleb128 0x1c
 3141 014c 2E       		.uleb128 0x2e
 3142 014d 00       		.byte	0x0
 3143 014e 3F       		.uleb128 0x3f
 3144 014f 0C       		.uleb128 0xc
 3145 0150 03       		.uleb128 0x3
 3146 0151 0E       		.uleb128 0xe
 3147 0152 3A       		.uleb128 0x3a
 3148 0153 0B       		.uleb128 0xb
 3149 0154 3B       		.uleb128 0x3b
 3150 0155 0B       		.uleb128 0xb
 3151 0156 27       		.uleb128 0x27
 3152 0157 0C       		.uleb128 0xc
 3153 0158 11       		.uleb128 0x11
 3154 0159 01       		.uleb128 0x1
 3155 015a 12       		.uleb128 0x12
 3156 015b 01       		.uleb128 0x1
 3157 015c 40       		.uleb128 0x40
 3158 015d 0A       		.uleb128 0xa
 3159 015e 00       		.byte	0x0
 3160 015f 00       		.byte	0x0
 3161 0160 1D       		.uleb128 0x1d
 3162 0161 2E       		.uleb128 0x2e
 3163 0162 01       		.byte	0x1
 3164 0163 3F       		.uleb128 0x3f
 3165 0164 0C       		.uleb128 0xc
 3166 0165 03       		.uleb128 0x3
 3167 0166 0E       		.uleb128 0xe
 3168 0167 3A       		.uleb128 0x3a
 3169 0168 0B       		.uleb128 0xb
 3170 0169 3B       		.uleb128 0x3b
 3171 016a 0B       		.uleb128 0xb
 3172 016b 27       		.uleb128 0x27
 3173 016c 0C       		.uleb128 0xc
ARM GAS  C:\Users\DNIEL~1\AppData\Local\Temp\ccGYSxmm.s 			page 57


 3174 016d 11       		.uleb128 0x11
 3175 016e 01       		.uleb128 0x1
 3176 016f 12       		.uleb128 0x12
 3177 0170 01       		.uleb128 0x1
 3178 0171 40       		.uleb128 0x40
 3179 0172 06       		.uleb128 0x6
 3180 0173 01       		.uleb128 0x1
 3181 0174 13       		.uleb128 0x13
 3182 0175 00       		.byte	0x0
 3183 0176 00       		.byte	0x0
 3184 0177 1E       		.uleb128 0x1e
 3185 0178 05       		.uleb128 0x5
 3186 0179 00       		.byte	0x0
 3187 017a 03       		.uleb128 0x3
 3188 017b 0E       		.uleb128 0xe
 3189 017c 3A       		.uleb128 0x3a
 3190 017d 0B       		.uleb128 0xb
 3191 017e 3B       		.uleb128 0x3b
 3192 017f 0B       		.uleb128 0xb
 3193 0180 49       		.uleb128 0x49
 3194 0181 13       		.uleb128 0x13
 3195 0182 02       		.uleb128 0x2
 3196 0183 06       		.uleb128 0x6
 3197 0184 00       		.byte	0x0
 3198 0185 00       		.byte	0x0
 3199 0186 1F       		.uleb128 0x1f
 3200 0187 0B       		.uleb128 0xb
 3201 0188 01       		.byte	0x1
 3202 0189 11       		.uleb128 0x11
 3203 018a 01       		.uleb128 0x1
 3204 018b 12       		.uleb128 0x12
 3205 018c 01       		.uleb128 0x1
 3206 018d 01       		.uleb128 0x1
 3207 018e 13       		.uleb128 0x13
 3208 018f 00       		.byte	0x0
 3209 0190 00       		.byte	0x0
 3210 0191 20       		.uleb128 0x20
 3211 0192 34       		.uleb128 0x34
 3212 0193 00       		.byte	0x0
 3213 0194 03       		.uleb128 0x3
 3214 0195 08       		.uleb128 0x8
 3215 0196 3A       		.uleb128 0x3a
 3216 0197 0B       		.uleb128 0xb
 3217 0198 3B       		.uleb128 0x3b
 3218 0199 0B       		.uleb128 0xb
 3219 019a 49       		.uleb128 0x49
 3220 019b 13       		.uleb128 0x13
 3221 019c 02       		.uleb128 0x2
 3222 019d 06       		.uleb128 0x6
 3223 019e 00       		.byte	0x0
 3224 019f 00       		.byte	0x0
 3225 01a0 21       		.uleb128 0x21
 3226 01a1 0B       		.uleb128 0xb
 3227 01a2 01       		.byte	0x1
 3228 01a3 55       		.uleb128 0x55
 3229 01a4 06       		.uleb128 0x6
 3230 01a5 00       		.byte	0x0
ARM GAS  C:\Users\DNIEL~1\AppData\Local\Temp\ccGYSxmm.s 			page 58


 3231 01a6 00       		.byte	0x0
 3232 01a7 22       		.uleb128 0x22
 3233 01a8 0B       		.uleb128 0xb
 3234 01a9 01       		.byte	0x1
 3235 01aa 55       		.uleb128 0x55
 3236 01ab 06       		.uleb128 0x6
 3237 01ac 01       		.uleb128 0x1
 3238 01ad 13       		.uleb128 0x13
 3239 01ae 00       		.byte	0x0
 3240 01af 00       		.byte	0x0
 3241 01b0 23       		.uleb128 0x23
 3242 01b1 0B       		.uleb128 0xb
 3243 01b2 01       		.byte	0x1
 3244 01b3 11       		.uleb128 0x11
 3245 01b4 01       		.uleb128 0x1
 3246 01b5 12       		.uleb128 0x12
 3247 01b6 01       		.uleb128 0x1
 3248 01b7 00       		.byte	0x0
 3249 01b8 00       		.byte	0x0
 3250 01b9 24       		.uleb128 0x24
 3251 01ba 2E       		.uleb128 0x2e
 3252 01bb 01       		.byte	0x1
 3253 01bc 3F       		.uleb128 0x3f
 3254 01bd 0C       		.uleb128 0xc
 3255 01be 03       		.uleb128 0x3
 3256 01bf 0E       		.uleb128 0xe
 3257 01c0 3A       		.uleb128 0x3a
 3258 01c1 0B       		.uleb128 0xb
 3259 01c2 3B       		.uleb128 0x3b
 3260 01c3 0B       		.uleb128 0xb
 3261 01c4 27       		.uleb128 0x27
 3262 01c5 0C       		.uleb128 0xc
 3263 01c6 49       		.uleb128 0x49
 3264 01c7 13       		.uleb128 0x13
 3265 01c8 11       		.uleb128 0x11
 3266 01c9 01       		.uleb128 0x1
 3267 01ca 12       		.uleb128 0x12
 3268 01cb 01       		.uleb128 0x1
 3269 01cc 40       		.uleb128 0x40
 3270 01cd 06       		.uleb128 0x6
 3271 01ce 01       		.uleb128 0x1
 3272 01cf 13       		.uleb128 0x13
 3273 01d0 00       		.byte	0x0
 3274 01d1 00       		.byte	0x0
 3275 01d2 25       		.uleb128 0x25
 3276 01d3 34       		.uleb128 0x34
 3277 01d4 00       		.byte	0x0
 3278 01d5 03       		.uleb128 0x3
 3279 01d6 08       		.uleb128 0x8
 3280 01d7 3A       		.uleb128 0x3a
 3281 01d8 0B       		.uleb128 0xb
 3282 01d9 3B       		.uleb128 0x3b
 3283 01da 05       		.uleb128 0x5
 3284 01db 49       		.uleb128 0x49
 3285 01dc 13       		.uleb128 0x13
 3286 01dd 02       		.uleb128 0x2
 3287 01de 06       		.uleb128 0x6
ARM GAS  C:\Users\DNIEL~1\AppData\Local\Temp\ccGYSxmm.s 			page 59


 3288 01df 00       		.byte	0x0
 3289 01e0 00       		.byte	0x0
 3290 01e1 26       		.uleb128 0x26
 3291 01e2 2E       		.uleb128 0x2e
 3292 01e3 01       		.byte	0x1
 3293 01e4 3F       		.uleb128 0x3f
 3294 01e5 0C       		.uleb128 0xc
 3295 01e6 03       		.uleb128 0x3
 3296 01e7 0E       		.uleb128 0xe
 3297 01e8 3A       		.uleb128 0x3a
 3298 01e9 0B       		.uleb128 0xb
 3299 01ea 3B       		.uleb128 0x3b
 3300 01eb 05       		.uleb128 0x5
 3301 01ec 27       		.uleb128 0x27
 3302 01ed 0C       		.uleb128 0xc
 3303 01ee 11       		.uleb128 0x11
 3304 01ef 01       		.uleb128 0x1
 3305 01f0 12       		.uleb128 0x12
 3306 01f1 01       		.uleb128 0x1
 3307 01f2 40       		.uleb128 0x40
 3308 01f3 06       		.uleb128 0x6
 3309 01f4 01       		.uleb128 0x1
 3310 01f5 13       		.uleb128 0x13
 3311 01f6 00       		.byte	0x0
 3312 01f7 00       		.byte	0x0
 3313 01f8 27       		.uleb128 0x27
 3314 01f9 05       		.uleb128 0x5
 3315 01fa 00       		.byte	0x0
 3316 01fb 03       		.uleb128 0x3
 3317 01fc 0E       		.uleb128 0xe
 3318 01fd 3A       		.uleb128 0x3a
 3319 01fe 0B       		.uleb128 0xb
 3320 01ff 3B       		.uleb128 0x3b
 3321 0200 05       		.uleb128 0x5
 3322 0201 49       		.uleb128 0x49
 3323 0202 13       		.uleb128 0x13
 3324 0203 02       		.uleb128 0x2
 3325 0204 06       		.uleb128 0x6
 3326 0205 00       		.byte	0x0
 3327 0206 00       		.byte	0x0
 3328 0207 28       		.uleb128 0x28
 3329 0208 34       		.uleb128 0x34
 3330 0209 00       		.byte	0x0
 3331 020a 03       		.uleb128 0x3
 3332 020b 0E       		.uleb128 0xe
 3333 020c 3A       		.uleb128 0x3a
 3334 020d 0B       		.uleb128 0xb
 3335 020e 3B       		.uleb128 0x3b
 3336 020f 05       		.uleb128 0x5
 3337 0210 49       		.uleb128 0x49
 3338 0211 13       		.uleb128 0x13
 3339 0212 3F       		.uleb128 0x3f
 3340 0213 0C       		.uleb128 0xc
 3341 0214 3C       		.uleb128 0x3c
 3342 0215 0C       		.uleb128 0xc
 3343 0216 00       		.byte	0x0
 3344 0217 00       		.byte	0x0
ARM GAS  C:\Users\DNIEL~1\AppData\Local\Temp\ccGYSxmm.s 			page 60


 3345 0218 00       		.byte	0x0
 3346              		.section	.debug_pubnames,"",%progbits
 3347 0000 7F000000 		.4byte	0x7f
 3348 0004 0200     		.2byte	0x2
 3349 0006 00000000 		.4byte	.Ldebug_info0
 3350 000a F80D0000 		.4byte	0xdf8
 3351 000e 8B0A0000 		.4byte	0xa8b
 3352 0012 63616E49 		.ascii	"canInit\000"
 3352      6E697400 
 3353 001a 9F0A0000 		.4byte	0xa9f
 3354 001e 63616E4F 		.ascii	"canObjectInit\000"
 3354      626A6563 
 3354      74496E69 
 3354      7400
 3355 002c CE0A0000 		.4byte	0xace
 3356 0030 63616E53 		.ascii	"canStart\000"
 3356      74617274 
 3356      00
 3357 0039 380B0000 		.4byte	0xb38
 3358 003d 63616E53 		.ascii	"canStop\000"
 3358      746F7000 
 3359 0045 930B0000 		.4byte	0xb93
 3360 0049 63616E54 		.ascii	"canTransmit\000"
 3360      72616E73 
 3360      6D697400 
 3361 0055 600C0000 		.4byte	0xc60
 3362 0059 63616E52 		.ascii	"canReceive\000"
 3362      65636569 
 3362      766500
 3363 0064 280D0000 		.4byte	0xd28
 3364 0068 63616E53 		.ascii	"canSleep\000"
 3364      6C656570 
 3364      00
 3365 0071 800D0000 		.4byte	0xd80
 3366 0075 63616E57 		.ascii	"canWakeup\000"
 3366      616B6575 
 3366      7000
 3367 007f 00000000 		.4byte	0x0
 3368              		.section	.debug_pubtypes,"",%progbits
 3369 0000 4B020000 		.4byte	0x24b
 3370 0004 0200     		.2byte	0x2
 3371 0006 00000000 		.4byte	.Ldebug_info0
 3372 000a F80D0000 		.4byte	0xdf8
 3373 000e 3E000000 		.4byte	0x3e
 3374 0012 75696E74 		.ascii	"uint8_t\000"
 3374      385F7400 
 3375 001a 57000000 		.4byte	0x57
 3376 001e 75696E74 		.ascii	"uint16_t\000"
 3376      31365F74 
 3376      00
 3377 0027 69000000 		.4byte	0x69
 3378 002b 696E7433 		.ascii	"int32_t\000"
 3378      325F7400 
 3379 0033 7B000000 		.4byte	0x7b
 3380 0037 75696E74 		.ascii	"uint32_t\000"
 3380      33325F74 
 3380      00
ARM GAS  C:\Users\DNIEL~1\AppData\Local\Temp\ccGYSxmm.s 			page 61


 3381 0040 A2000000 		.4byte	0xa2
 3382 0044 746D6F64 		.ascii	"tmode_t\000"
 3382      655F7400 
 3383 004c AD000000 		.4byte	0xad
 3384 0050 74737461 		.ascii	"tstate_t\000"
 3384      74655F74 
 3384      00
 3385 0059 B8000000 		.4byte	0xb8
 3386 005d 74726566 		.ascii	"trefs_t\000"
 3386      735F7400 
 3387 0065 C3000000 		.4byte	0xc3
 3388 0069 74736C69 		.ascii	"tslices_t\000"
 3388      6365735F 
 3388      7400
 3389 0073 CE000000 		.4byte	0xce
 3390 0077 74707269 		.ascii	"tprio_t\000"
 3390      6F5F7400 
 3391 007f D9000000 		.4byte	0xd9
 3392 0083 6D73675F 		.ascii	"msg_t\000"
 3392      7400
 3393 0089 E4000000 		.4byte	0xe4
 3394 008d 6576656E 		.ascii	"eventmask_t\000"
 3394      746D6173 
 3394      6B5F7400 
 3395 0099 EF000000 		.4byte	0xef
 3396 009d 666C6167 		.ascii	"flagsmask_t\000"
 3396      736D6173 
 3396      6B5F7400 
 3397 00a9 FA000000 		.4byte	0xfa
 3398 00ad 73797374 		.ascii	"systime_t\000"
 3398      696D655F 
 3398      7400
 3399 00b7 05010000 		.4byte	0x105
 3400 00bb 636E745F 		.ascii	"cnt_t\000"
 3400      7400
 3401 00c1 10010000 		.4byte	0x110
 3402 00c5 54687265 		.ascii	"Thread\000"
 3402      616400
 3403 00cc 6B020000 		.4byte	0x26b
 3404 00d0 54687265 		.ascii	"ThreadsQueue\000"
 3404      61647351 
 3404      75657565 
 3404      00
 3405 00dd 8D020000 		.4byte	0x28d
 3406 00e1 54687265 		.ascii	"ThreadsList\000"
 3406      6164734C 
 3406      69737400 
 3407 00ed 98020000 		.4byte	0x298
 3408 00f1 72656761 		.ascii	"regarm_t\000"
 3408      726D5F74 
 3408      00
 3409 00fa A5020000 		.4byte	0x2a5
 3410 00fe 696E7463 		.ascii	"intctx\000"
 3410      747800
 3411 0105 33030000 		.4byte	0x333
 3412 0109 636F6E74 		.ascii	"context\000"
 3412      65787400 
ARM GAS  C:\Users\DNIEL~1\AppData\Local\Temp\ccGYSxmm.s 			page 62


 3413 0111 60030000 		.4byte	0x360
 3414 0115 53656D61 		.ascii	"Semaphore\000"
 3414      70686F72 
 3414      6500
 3415 011f 89030000 		.4byte	0x389
 3416 0123 53656D61 		.ascii	"Semaphore\000"
 3416      70686F72 
 3416      6500
 3417 012d 94030000 		.4byte	0x394
 3418 0131 4D757465 		.ascii	"Mutex\000"
 3418      7800
 3419 0137 D1030000 		.4byte	0x3d1
 3420 013b 4D757465 		.ascii	"Mutex\000"
 3420      7800
 3421 0141 DC030000 		.4byte	0x3dc
 3422 0145 4576656E 		.ascii	"EventListener\000"
 3422      744C6973 
 3422      74656E65 
 3422      7200
 3423 0153 E7030000 		.4byte	0x3e7
 3424 0157 4576656E 		.ascii	"EventListener\000"
 3424      744C6973 
 3424      74656E65 
 3424      7200
 3425 0165 32040000 		.4byte	0x432
 3426 0169 4576656E 		.ascii	"EventSource\000"
 3426      74536F75 
 3426      72636500 
 3427 0175 4D040000 		.4byte	0x44d
 3428 0179 4576656E 		.ascii	"EventSource\000"
 3428      74536F75 
 3428      72636500 
 3429 0185 1B010000 		.4byte	0x11b
 3430 0189 54687265 		.ascii	"Thread\000"
 3430      616400
 3431 0190 10050000 		.4byte	0x510
 3432 0194 43414E5F 		.ascii	"CAN_TxMailBox_TypeDef\000"
 3432      54784D61 
 3432      696C426F 
 3432      785F5479 
 3432      70654465 
 3433 01aa 62050000 		.4byte	0x562
 3434 01ae 43414E5F 		.ascii	"CAN_FIFOMailBox_TypeDef\000"
 3434      4649464F 
 3434      4D61696C 
 3434      426F785F 
 3434      54797065 
 3435 01c6 96050000 		.4byte	0x596
 3436 01ca 43414E5F 		.ascii	"CAN_FilterRegister_TypeDef\000"
 3436      46696C74 
 3436      65725265 
 3436      67697374 
 3436      65725F54 
 3437 01e5 54070000 		.4byte	0x754
 3438 01e9 43414E5F 		.ascii	"CAN_TypeDef\000"
 3438      54797065 
 3438      44656600 
ARM GAS  C:\Users\DNIEL~1\AppData\Local\Temp\ccGYSxmm.s 			page 63


 3439 01f5 87070000 		.4byte	0x787
 3440 01f9 63616E73 		.ascii	"canstate_t\000"
 3440      74617465 
 3440      5F7400
 3441 0204 92070000 		.4byte	0x792
 3442 0208 63616E6D 		.ascii	"canmbx_t\000"
 3442      62785F74 
 3442      00
 3443 0211 8B080000 		.4byte	0x88b
 3444 0215 43414E54 		.ascii	"CANTxFrame\000"
 3444      78467261 
 3444      6D6500
 3445 0220 91090000 		.4byte	0x991
 3446 0224 43414E52 		.ascii	"CANRxFrame\000"
 3446      78467261 
 3446      6D6500
 3447 022f C2090000 		.4byte	0x9c2
 3448 0233 43414E43 		.ascii	"CANConfig\000"
 3448      6F6E6669 
 3448      6700
 3449 023d 7F0A0000 		.4byte	0xa7f
 3450 0241 43414E44 		.ascii	"CANDriver\000"
 3450      72697665 
 3450      7200
 3451 024b 00000000 		.4byte	0x0
 3452              		.section	.debug_aranges,"",%progbits
 3453 0000 54000000 		.4byte	0x54
 3454 0004 0200     		.2byte	0x2
 3455 0006 00000000 		.4byte	.Ldebug_info0
 3456 000a 04       		.byte	0x4
 3457 000b 00       		.byte	0x0
 3458 000c 0000     		.2byte	0x0
 3459 000e 0000     		.2byte	0x0
 3460 0010 00000000 		.4byte	.LFB118
 3461 0014 04000000 		.4byte	.LFE118-.LFB118
 3462 0018 00000000 		.4byte	.LFB119
 3463 001c 3E000000 		.4byte	.LFE119-.LFB119
 3464 0020 00000000 		.4byte	.LFB120
 3465 0024 40000000 		.4byte	.LFE120-.LFB120
 3466 0028 00000000 		.4byte	.LFB121
 3467 002c 32000000 		.4byte	.LFE121-.LFB121
 3468 0030 00000000 		.4byte	.LFB122
 3469 0034 52000000 		.4byte	.LFE122-.LFB122
 3470 0038 00000000 		.4byte	.LFB123
 3471 003c 52000000 		.4byte	.LFE123-.LFB123
 3472 0040 00000000 		.4byte	.LFB124
 3473 0044 36000000 		.4byte	.LFE124-.LFB124
 3474 0048 00000000 		.4byte	.LFB125
 3475 004c 36000000 		.4byte	.LFE125-.LFB125
 3476 0050 00000000 		.4byte	0x0
 3477 0054 00000000 		.4byte	0x0
 3478              		.section	.debug_ranges,"",%progbits
 3479              	.Ldebug_ranges0:
 3480 0000 24000000 		.4byte	.LBB3
 3481 0004 2A000000 		.4byte	.LBE3
 3482 0008 38000000 		.4byte	.LBB4
 3483 000c 3E000000 		.4byte	.LBE4
ARM GAS  C:\Users\DNIEL~1\AppData\Local\Temp\ccGYSxmm.s 			page 64


 3484 0010 00000000 		.4byte	0x0
 3485 0014 00000000 		.4byte	0x0
 3486 0018 02000000 		.4byte	.LBB5
 3487 001c 04000000 		.4byte	.LBE5
 3488 0020 06000000 		.4byte	.LBB6
 3489 0024 0A000000 		.4byte	.LBE6
 3490 0028 00000000 		.4byte	0x0
 3491 002c 00000000 		.4byte	0x0
 3492 0030 12000000 		.4byte	.LBB9
 3493 0034 16000000 		.4byte	.LBE9
 3494 0038 26000000 		.4byte	.LBB11
 3495 003c 3C000000 		.4byte	.LBE11
 3496 0040 00000000 		.4byte	0x0
 3497 0044 00000000 		.4byte	0x0
 3498 0048 12000000 		.4byte	.LBB14
 3499 004c 16000000 		.4byte	.LBE14
 3500 0050 26000000 		.4byte	.LBB16
 3501 0054 3C000000 		.4byte	.LBE16
 3502 0058 00000000 		.4byte	0x0
 3503 005c 00000000 		.4byte	0x0
 3504 0060 02000000 		.4byte	.LBB18
 3505 0064 04000000 		.4byte	.LBE18
 3506 0068 06000000 		.4byte	.LBB19
 3507 006c 0A000000 		.4byte	.LBE19
 3508 0070 00000000 		.4byte	0x0
 3509 0074 00000000 		.4byte	0x0
 3510 0078 10000000 		.4byte	.LBB20
 3511 007c 16000000 		.4byte	.LBE20
 3512 0080 2E000000 		.4byte	.LBB21
 3513 0084 34000000 		.4byte	.LBE21
 3514 0088 00000000 		.4byte	0x0
 3515 008c 00000000 		.4byte	0x0
 3516 0090 02000000 		.4byte	.LBB22
 3517 0094 04000000 		.4byte	.LBE22
 3518 0098 06000000 		.4byte	.LBB23
 3519 009c 0A000000 		.4byte	.LBE23
 3520 00a0 00000000 		.4byte	0x0
 3521 00a4 00000000 		.4byte	0x0
 3522 00a8 10000000 		.4byte	.LBB24
 3523 00ac 16000000 		.4byte	.LBE24
 3524 00b0 2E000000 		.4byte	.LBB25
 3525 00b4 34000000 		.4byte	.LBE25
 3526 00b8 00000000 		.4byte	0x0
 3527 00bc 00000000 		.4byte	0x0
 3528 00c0 00000000 		.4byte	.LFB118
 3529 00c4 04000000 		.4byte	.LFE118
 3530 00c8 00000000 		.4byte	.LFB119
 3531 00cc 3E000000 		.4byte	.LFE119
 3532 00d0 00000000 		.4byte	.LFB120
 3533 00d4 40000000 		.4byte	.LFE120
 3534 00d8 00000000 		.4byte	.LFB121
 3535 00dc 32000000 		.4byte	.LFE121
 3536 00e0 00000000 		.4byte	.LFB122
 3537 00e4 52000000 		.4byte	.LFE122
 3538 00e8 00000000 		.4byte	.LFB123
 3539 00ec 52000000 		.4byte	.LFE123
 3540 00f0 00000000 		.4byte	.LFB124
ARM GAS  C:\Users\DNIEL~1\AppData\Local\Temp\ccGYSxmm.s 			page 65


 3541 00f4 36000000 		.4byte	.LFE124
 3542 00f8 00000000 		.4byte	.LFB125
 3543 00fc 36000000 		.4byte	.LFE125
 3544 0100 00000000 		.4byte	0x0
 3545 0104 00000000 		.4byte	0x0
 3546              		.section	.debug_str,"MS",%progbits,1
 3547              	.LASF128:
 3548 0000 63616E57 		.ascii	"canWakeup\000"
 3548      616B6575 
 3548      7000
 3549              	.LASF16:
 3550 000a 74726566 		.ascii	"trefs_t\000"
 3550      735F7400 
 3551              	.LASF36:
 3552 0012 705F7469 		.ascii	"p_time\000"
 3552      6D6500
 3553              	.LASF105:
 3554 0019 43414E52 		.ascii	"CANRxFrame\000"
 3554      78467261 
 3554      6D6500
 3555              	.LASF63:
 3556 0024 7264796D 		.ascii	"rdymsg\000"
 3556      736700
 3557              	.LASF133:
 3558 002b 63616E49 		.ascii	"canInit\000"
 3558      6E697400 
 3559              	.LASF106:
 3560 0033 43414E43 		.ascii	"CANConfig\000"
 3560      6F6E6669 
 3560      6700
 3561              	.LASF92:
 3562 003d 43414E5F 		.ascii	"CAN_TypeDef\000"
 3562      54797065 
 3562      44656600 
 3563              	.LASF12:
 3564 0049 6C6F6E67 		.ascii	"long long unsigned int\000"
 3564      206C6F6E 
 3564      6720756E 
 3564      7369676E 
 3564      65642069 
 3565              	.LASF64:
 3566 0060 65786974 		.ascii	"exitcode\000"
 3566      636F6465 
 3566      00
 3567              	.LASF102:
 3568 0069 64617461 		.ascii	"data32\000"
 3568      333200
 3569              	.LASF125:
 3570 0070 63616E52 		.ascii	"canReceive\000"
 3570      65636569 
 3570      766500
 3571              	.LASF11:
 3572 007b 6C6F6E67 		.ascii	"long long int\000"
 3572      206C6F6E 
 3572      6720696E 
 3572      7400
 3573              	.LASF1:
ARM GAS  C:\Users\DNIEL~1\AppData\Local\Temp\ccGYSxmm.s 			page 66


 3574 0089 7369676E 		.ascii	"signed char\000"
 3574      65642063 
 3574      68617200 
 3575              	.LASF95:
 3576 0095 43414E5F 		.ascii	"CAN_STARTING\000"
 3576      53544152 
 3576      54494E47 
 3576      00
 3577              	.LASF121:
 3578 00a2 6D61696C 		.ascii	"mailbox\000"
 3578      626F7800 
 3579              	.LASF43:
 3580 00aa 705F6D70 		.ascii	"p_mpool\000"
 3580      6F6F6C00 
 3581              	.LASF53:
 3582 00b2 6D5F7175 		.ascii	"m_queue\000"
 3582      65756500 
 3583              	.LASF109:
 3584 00ba 74787365 		.ascii	"txsem\000"
 3584      6D00
 3585              	.LASF117:
 3586 00c0 63616E4F 		.ascii	"canObjectInit\000"
 3586      626A6563 
 3586      74496E69 
 3586      7400
 3587              	.LASF130:
 3588 00ce 474E5520 		.ascii	"GNU C 4.5.2\000"
 3588      4320342E 
 3588      352E3200 
 3589              	.LASF17:
 3590 00da 74736C69 		.ascii	"tslices_t\000"
 3590      6365735F 
 3590      7400
 3591              	.LASF107:
 3592 00e4 73746174 		.ascii	"state\000"
 3592      6500
 3593              	.LASF69:
 3594 00ea 54444C52 		.ascii	"TDLR\000"
 3594      00
 3595              	.LASF8:
 3596 00ef 6C6F6E67 		.ascii	"long int\000"
 3596      20696E74 
 3596      00
 3597              	.LASF15:
 3598 00f8 74737461 		.ascii	"tstate_t\000"
 3598      74655F74 
 3598      00
 3599              	.LASF71:
 3600 0101 43414E5F 		.ascii	"CAN_TxMailBox_TypeDef\000"
 3600      54784D61 
 3600      696C426F 
 3600      785F5479 
 3600      70654465 
 3601              	.LASF34:
 3602 0117 705F7265 		.ascii	"p_refs\000"
 3602      667300
 3603              	.LASF5:
ARM GAS  C:\Users\DNIEL~1\AppData\Local\Temp\ccGYSxmm.s 			page 67


 3604 011e 75696E74 		.ascii	"uint16_t\000"
 3604      31365F74 
 3604      00
 3605              	.LASF122:
 3606 0127 63746670 		.ascii	"ctfp\000"
 3606      00
 3607              	.LASF29:
 3608 012c 705F6E65 		.ascii	"p_newer\000"
 3608      77657200 
 3609              	.LASF50:
 3610 0134 735F7175 		.ascii	"s_queue\000"
 3610      65756500 
 3611              	.LASF96:
 3612 013c 43414E5F 		.ascii	"CAN_READY\000"
 3612      52454144 
 3612      5900
 3613              	.LASF118:
 3614 0146 63616E53 		.ascii	"canStart\000"
 3614      74617274 
 3614      00
 3615              	.LASF111:
 3616 014f 72786675 		.ascii	"rxfull_event\000"
 3616      6C6C5F65 
 3616      76656E74 
 3616      00
 3617              	.LASF46:
 3618 015c 72656761 		.ascii	"regarm_t\000"
 3618      726D5F74 
 3618      00
 3619              	.LASF104:
 3620 0165 54494D45 		.ascii	"TIME\000"
 3620      00
 3621              	.LASF68:
 3622 016a 54445452 		.ascii	"TDTR\000"
 3622      00
 3623              	.LASF61:
 3624 016f 4576656E 		.ascii	"EventSource\000"
 3624      74536F75 
 3624      72636500 
 3625              	.LASF23:
 3626 017b 636E745F 		.ascii	"cnt_t\000"
 3626      7400
 3627              	.LASF0:
 3628 0181 756E7369 		.ascii	"unsigned int\000"
 3628      676E6564 
 3628      20696E74 
 3628      00
 3629              	.LASF80:
 3630 018e 7354784D 		.ascii	"sTxMailBox\000"
 3630      61696C42 
 3630      6F7800
 3631              	.LASF38:
 3632 0199 705F6D73 		.ascii	"p_msgqueue\000"
 3632      67717565 
 3632      756500
 3633              	.LASF123:
 3634 01a4 74696D65 		.ascii	"timeout\000"
ARM GAS  C:\Users\DNIEL~1\AppData\Local\Temp\ccGYSxmm.s 			page 68


 3634      6F757400 
 3635              	.LASF72:
 3636 01ac 52445452 		.ascii	"RDTR\000"
 3636      00
 3637              	.LASF103:
 3638 01b1 43414E54 		.ascii	"CANTxFrame\000"
 3638      78467261 
 3638      6D6500
 3639              	.LASF51:
 3640 01bc 735F636E 		.ascii	"s_cnt\000"
 3640      7400
 3641              	.LASF6:
 3642 01c2 73686F72 		.ascii	"short unsigned int\000"
 3642      7420756E 
 3642      7369676E 
 3642      65642069 
 3642      6E7400
 3643              	.LASF78:
 3644 01d5 52463152 		.ascii	"RF1R\000"
 3644      00
 3645              	.LASF76:
 3646 01da 43414E5F 		.ascii	"CAN_FilterRegister_TypeDef\000"
 3646      46696C74 
 3646      65725265 
 3646      67697374 
 3646      65725F54 
 3647              	.LASF19:
 3648 01f5 6D73675F 		.ascii	"msg_t\000"
 3648      7400
 3649              	.LASF57:
 3650 01fb 656C5F6E 		.ascii	"el_next\000"
 3650      65787400 
 3651              	.LASF14:
 3652 0203 746D6F64 		.ascii	"tmode_t\000"
 3652      655F7400 
 3653              	.LASF45:
 3654 020b 54687265 		.ascii	"ThreadsList\000"
 3654      6164734C 
 3654      69737400 
 3655              	.LASF91:
 3656 0217 7346696C 		.ascii	"sFilterRegister\000"
 3656      74657252 
 3656      65676973 
 3656      74657200 
 3657              	.LASF20:
 3658 0227 6576656E 		.ascii	"eventmask_t\000"
 3658      746D6173 
 3658      6B5F7400 
 3659              	.LASF52:
 3660 0233 4D757465 		.ascii	"Mutex\000"
 3660      7800
 3661              	.LASF89:
 3662 0239 46413152 		.ascii	"FA1R\000"
 3662      00
 3663              	.LASF124:
 3664 023e 63616E54 		.ascii	"canTransmit\000"
 3664      72616E73 
ARM GAS  C:\Users\DNIEL~1\AppData\Local\Temp\ccGYSxmm.s 			page 69


 3664      6D697400 
 3665              	.LASF97:
 3666 024a 43414E5F 		.ascii	"CAN_SLEEP\000"
 3666      534C4545 
 3666      5000
 3667              	.LASF100:
 3668 0254 64617461 		.ascii	"data8\000"
 3668      3800
 3669              	.LASF27:
 3670 025a 705F7072 		.ascii	"p_prio\000"
 3670      696F00
 3671              	.LASF116:
 3672 0261 43414E44 		.ascii	"CANDriver\000"
 3672      72697665 
 3672      7200
 3673              	.LASF30:
 3674 026b 705F6F6C 		.ascii	"p_older\000"
 3674      64657200 
 3675              	.LASF44:
 3676 0273 54687265 		.ascii	"ThreadsQueue\000"
 3676      61647351 
 3676      75657565 
 3676      00
 3677              	.LASF70:
 3678 0280 54444852 		.ascii	"TDHR\000"
 3678      00
 3679              	.LASF59:
 3680 0285 656C5F6D 		.ascii	"el_mask\000"
 3680      61736B00 
 3681              	.LASF114:
 3682 028d 736C6565 		.ascii	"sleep_event\000"
 3682      705F6576 
 3682      656E7400 
 3683              	.LASF98:
 3684 0299 63616E73 		.ascii	"canstate_t\000"
 3684      74617465 
 3684      5F7400
 3685              	.LASF94:
 3686 02a4 43414E5F 		.ascii	"CAN_STOP\000"
 3686      53544F50 
 3686      00
 3687              	.LASF87:
 3688 02ad 46464131 		.ascii	"FFA1R\000"
 3688      5200
 3689              	.LASF113:
 3690 02b3 6572726F 		.ascii	"error_event\000"
 3690      725F6576 
 3690      656E7400 
 3691              	.LASF126:
 3692 02bf 63726670 		.ascii	"crfp\000"
 3692      00
 3693              	.LASF79:
 3694 02c4 52455345 		.ascii	"RESERVED0\000"
 3694      52564544 
 3694      3000
 3695              	.LASF82:
 3696 02ce 52455345 		.ascii	"RESERVED1\000"
ARM GAS  C:\Users\DNIEL~1\AppData\Local\Temp\ccGYSxmm.s 			page 70


 3696      52564544 
 3696      3100
 3697              	.LASF84:
 3698 02d8 52455345 		.ascii	"RESERVED2\000"
 3698      52564544 
 3698      3200
 3699              	.LASF86:
 3700 02e2 52455345 		.ascii	"RESERVED3\000"
 3700      52564544 
 3700      3300
 3701              	.LASF88:
 3702 02ec 52455345 		.ascii	"RESERVED4\000"
 3702      52564544 
 3702      3400
 3703              	.LASF26:
 3704 02f6 705F7072 		.ascii	"p_prev\000"
 3704      657600
 3705              	.LASF18:
 3706 02fd 74707269 		.ascii	"tprio_t\000"
 3706      6F5F7400 
 3707              	.LASF120:
 3708 0305 63616E53 		.ascii	"canStop\000"
 3708      746F7000 
 3709              	.LASF93:
 3710 030d 43414E5F 		.ascii	"CAN_UNINIT\000"
 3710      554E494E 
 3710      495400
 3711              	.LASF13:
 3712 0318 5F426F6F 		.ascii	"_Bool\000"
 3712      6C00
 3713              	.LASF7:
 3714 031e 696E7433 		.ascii	"int32_t\000"
 3714      325F7400 
 3715              	.LASF2:
 3716 0326 756E7369 		.ascii	"unsigned char\000"
 3716      676E6564 
 3716      20636861 
 3716      7200
 3717              	.LASF132:
 3718 0334 433A5C44 		.ascii	"C:\\Dani\\MegaLux\\Repo\\Smarty\\Smarty\\smarty\\fi"
 3718      616E695C 
 3718      4D656761 
 3718      4C75785C 
 3718      5265706F 
 3719 0360 726D7761 		.ascii	"rmware\000"
 3719      726500
 3720              	.LASF115:
 3721 0367 77616B65 		.ascii	"wakeup_event\000"
 3721      75705F65 
 3721      76656E74 
 3721      00
 3722              	.LASF58:
 3723 0374 656C5F6C 		.ascii	"el_listener\000"
 3723      69737465 
 3723      6E657200 
 3724              	.LASF129:
 3725 0380 49544D5F 		.ascii	"ITM_RxBuffer\000"
ARM GAS  C:\Users\DNIEL~1\AppData\Local\Temp\ccGYSxmm.s 			page 71


 3725      52784275 
 3725      66666572 
 3725      00
 3726              	.LASF60:
 3727 038d 656C5F66 		.ascii	"el_flags\000"
 3727      6C616773 
 3727      00
 3728              	.LASF41:
 3729 0396 705F6D74 		.ascii	"p_mtxlist\000"
 3729      786C6973 
 3729      7400
 3730              	.LASF3:
 3731 03a0 73686F72 		.ascii	"short int\000"
 3731      7420696E 
 3731      7400
 3732              	.LASF32:
 3733 03aa 705F7374 		.ascii	"p_state\000"
 3733      61746500 
 3734              	.LASF35:
 3735 03b2 705F7072 		.ascii	"p_preempt\000"
 3735      65656D70 
 3735      7400
 3736              	.LASF66:
 3737 03bc 65776D61 		.ascii	"ewmask\000"
 3737      736B00
 3738              	.LASF25:
 3739 03c3 705F6E65 		.ascii	"p_next\000"
 3739      787400
 3740              	.LASF33:
 3741 03ca 705F666C 		.ascii	"p_flags\000"
 3741      61677300 
 3742              	.LASF127:
 3743 03d2 63616E53 		.ascii	"canSleep\000"
 3743      6C656570 
 3743      00
 3744              	.LASF83:
 3745 03db 464D3152 		.ascii	"FM1R\000"
 3745      00
 3746              	.LASF24:
 3747 03e0 54687265 		.ascii	"Thread\000"
 3747      616400
 3748              	.LASF40:
 3749 03e7 705F6570 		.ascii	"p_epending\000"
 3749      656E6469 
 3749      6E6700
 3750              	.LASF90:
 3751 03f2 52455345 		.ascii	"RESERVED5\000"
 3751      52564544 
 3751      3500
 3752              	.LASF119:
 3753 03fc 63616E70 		.ascii	"canp\000"
 3753      00
 3754              	.LASF9:
 3755 0401 75696E74 		.ascii	"uint32_t\000"
 3755      33325F74 
 3755      00
 3756              	.LASF112:
ARM GAS  C:\Users\DNIEL~1\AppData\Local\Temp\ccGYSxmm.s 			page 72


 3757 040a 7478656D 		.ascii	"txempty_event\000"
 3757      7074795F 
 3757      6576656E 
 3757      7400
 3758              	.LASF10:
 3759 0418 6C6F6E67 		.ascii	"long unsigned int\000"
 3759      20756E73 
 3759      69676E65 
 3759      6420696E 
 3759      7400
 3760              	.LASF67:
 3761 042a 63686172 		.ascii	"char\000"
 3761      00
 3762              	.LASF108:
 3763 042f 636F6E66 		.ascii	"config\000"
 3763      696700
 3764              	.LASF74:
 3765 0436 52444852 		.ascii	"RDHR\000"
 3765      00
 3766              	.LASF55:
 3767 043b 6D5F6E65 		.ascii	"m_next\000"
 3767      787400
 3768              	.LASF22:
 3769 0442 73797374 		.ascii	"systime_t\000"
 3769      696D655F 
 3769      7400
 3770              	.LASF42:
 3771 044c 705F7265 		.ascii	"p_realprio\000"
 3771      616C7072 
 3771      696F00
 3772              	.LASF81:
 3773 0457 73464946 		.ascii	"sFIFOMailBox\000"
 3773      4F4D6169 
 3773      6C426F78 
 3773      00
 3774              	.LASF48:
 3775 0464 636F6E74 		.ascii	"context\000"
 3775      65787400 
 3776              	.LASF47:
 3777 046c 696E7463 		.ascii	"intctx\000"
 3777      747800
 3778              	.LASF49:
 3779 0473 53656D61 		.ascii	"Semaphore\000"
 3779      70686F72 
 3779      6500
 3780              	.LASF21:
 3781 047d 666C6167 		.ascii	"flagsmask_t\000"
 3781      736D6173 
 3781      6B5F7400 
 3782              	.LASF101:
 3783 0489 64617461 		.ascii	"data16\000"
 3783      313600
 3784              	.LASF85:
 3785 0490 46533152 		.ascii	"FS1R\000"
 3785      00
 3786              	.LASF31:
 3787 0495 705F6E61 		.ascii	"p_name\000"
ARM GAS  C:\Users\DNIEL~1\AppData\Local\Temp\ccGYSxmm.s 			page 73


 3787      6D6500
 3788              	.LASF62:
 3789 049c 65735F6E 		.ascii	"es_next\000"
 3789      65787400 
 3790              	.LASF131:
 3791 04a4 2E2E2F2E 		.ascii	"../../../ChibiOS/os/hal/src/can.c\000"
 3791      2E2F2E2E 
 3791      2F436869 
 3791      62694F53 
 3791      2F6F732F 
 3792              	.LASF75:
 3793 04c6 43414E5F 		.ascii	"CAN_FIFOMailBox_TypeDef\000"
 3793      4649464F 
 3793      4D61696C 
 3793      426F785F 
 3793      54797065 
 3794              	.LASF4:
 3795 04de 75696E74 		.ascii	"uint8_t\000"
 3795      385F7400 
 3796              	.LASF110:
 3797 04e6 72787365 		.ascii	"rxsem\000"
 3797      6D00
 3798              	.LASF56:
 3799 04ec 4576656E 		.ascii	"EventListener\000"
 3799      744C6973 
 3799      74656E65 
 3799      7200
 3800              	.LASF65:
 3801 04fa 77746F62 		.ascii	"wtobjp\000"
 3801      6A7000
 3802              	.LASF77:
 3803 0501 52463052 		.ascii	"RF0R\000"
 3803      00
 3804              	.LASF99:
 3805 0506 63616E6D 		.ascii	"canmbx_t\000"
 3805      62785F74 
 3805      00
 3806              	.LASF39:
 3807 050f 705F6D73 		.ascii	"p_msg\000"
 3807      6700
 3808              	.LASF73:
 3809 0515 52444C52 		.ascii	"RDLR\000"
 3809      00
 3810              	.LASF54:
 3811 051a 6D5F6F77 		.ascii	"m_owner\000"
 3811      6E657200 
 3812              	.LASF28:
 3813 0522 705F6374 		.ascii	"p_ctx\000"
 3813      7800
 3814              	.LASF37:
 3815 0528 705F7761 		.ascii	"p_waiting\000"
 3815      6974696E 
 3815      6700
 3816              		.ident	"GCC: (Sourcery G++ Lite 2011.03-42) 4.5.2"
ARM GAS  C:\Users\DNIEL~1\AppData\Local\Temp\ccGYSxmm.s 			page 74


DEFINED SYMBOLS
                            *ABS*:00000000 can.c
C:\Users\DNIEL~1\AppData\Local\Temp\ccGYSxmm.s:24     .text.canInit:00000000 $t
C:\Users\DNIEL~1\AppData\Local\Temp\ccGYSxmm.s:30     .text.canInit:00000000 canInit
C:\Users\DNIEL~1\AppData\Local\Temp\ccGYSxmm.s:45     .text.canObjectInit:00000000 $t
C:\Users\DNIEL~1\AppData\Local\Temp\ccGYSxmm.s:51     .text.canObjectInit:00000000 canObjectInit
C:\Users\DNIEL~1\AppData\Local\Temp\ccGYSxmm.s:112    .text.canStart:00000000 $t
C:\Users\DNIEL~1\AppData\Local\Temp\ccGYSxmm.s:118    .text.canStart:00000000 canStart
C:\Users\DNIEL~1\AppData\Local\Temp\ccGYSxmm.s:201    .text.canStop:00000000 $t
C:\Users\DNIEL~1\AppData\Local\Temp\ccGYSxmm.s:207    .text.canStop:00000000 canStop
C:\Users\DNIEL~1\AppData\Local\Temp\ccGYSxmm.s:266    .text.canTransmit:00000000 $t
C:\Users\DNIEL~1\AppData\Local\Temp\ccGYSxmm.s:272    .text.canTransmit:00000000 canTransmit
C:\Users\DNIEL~1\AppData\Local\Temp\ccGYSxmm.s:367    .text.canReceive:00000000 $t
C:\Users\DNIEL~1\AppData\Local\Temp\ccGYSxmm.s:373    .text.canReceive:00000000 canReceive
C:\Users\DNIEL~1\AppData\Local\Temp\ccGYSxmm.s:468    .text.canSleep:00000000 $t
C:\Users\DNIEL~1\AppData\Local\Temp\ccGYSxmm.s:474    .text.canSleep:00000000 canSleep
C:\Users\DNIEL~1\AppData\Local\Temp\ccGYSxmm.s:547    .text.canWakeup:00000000 $t
C:\Users\DNIEL~1\AppData\Local\Temp\ccGYSxmm.s:553    .text.canWakeup:00000000 canWakeup
                     .debug_frame:00000010 $d

UNDEFINED SYMBOLS
can_lld_init
chSemInit
chSchGoSleepTimeoutS
can_lld_start
can_lld_stop
chSemResetI
chSchRescheduleS
can_lld_is_tx_empty
chSemWaitTimeoutS
can_lld_transmit
can_lld_is_rx_nonempty
can_lld_receive
can_lld_sleep
chEvtBroadcastFlagsI
can_lld_wakeup
