ARM GAS  C:\Users\DNIEL~1\AppData\Local\Temp\ccGYSxmm.s 			page 1


   1              		.syntax unified
   2              		.cpu cortex-m4
   3              		.fpu softvfp
   4              		.eabi_attribute 20, 1
   5              		.eabi_attribute 21, 1
   6              		.eabi_attribute 23, 3
   7              		.eabi_attribute 24, 1
   8              		.eabi_attribute 25, 1
   9              		.eabi_attribute 26, 1
  10              		.eabi_attribute 30, 2
  11              		.eabi_attribute 18, 4
  12              		.thumb
  13              		.file	"can.c"
  20 0000 3E030000 		.text
  20      02004102 
  20      00000201 
  20      FB0E0D00 
  20      01010101 
  21              	.Ltext0:
  22              		.cfi_sections	.debug_frame
  23              		.section	.text.canInit,"ax",%progbits
  24              		.align	2
  25              		.p2align 4,,15
  26              		.global	canInit
  27              		.thumb
  28              		.thumb_func
  29              		.type	canInit, %function
  30              	canInit:
  31              	.LFB118:
  32              		.file 1 "../../../ChibiOS/os/hal/src/can.c"
  33              		.loc 1 68 0
  34              		.cfi_startproc
  35              		@ args = 0, pretend = 0, frame = 0
  36              		@ frame_needed = 0, uses_anonymous_args = 0
  37              		@ link register save eliminated.
  38              		.loc 1 71 0
  39              		.loc 1 70 0
  40 0000 FFF7FEBF 		b	can_lld_init
  41              		.cfi_endproc
  42              	.LFE118:
  43              		.size	canInit, .-canInit
  44 0004 AFF30080 		.section	.text.canObjectInit,"ax",%progbits
  44      AFF30080 
  44      AFF30080 
  45              		.align	2
  46              		.p2align 4,,15
  47              		.global	canObjectInit
  48              		.thumb
  49              		.thumb_func
  50              		.type	canObjectInit, %function
  51              	canObjectInit:
ARM GAS  C:\Users\DNIEL~1\AppData\Local\Temp\ccGYSxmm.s 			page 2


  52              	.LFB119:
  53              		.loc 1 80 0
  54              		.cfi_startproc
  55              		@ args = 0, pretend = 0, frame = 0
  56              		@ frame_needed = 0, uses_anonymous_args = 0
  57              	.LVL0:
  58 0000 38B5     		push	{r3, r4, r5, lr}
  59              	.LCFI0:
  60              		.cfi_def_cfa_offset 16
  61              		.loc 1 80 0
  62 0002 0446     		mov	r4, r0
  63              		.cfi_offset 14, -4
  64              		.cfi_offset 5, -8
  65              		.cfi_offset 4, -12
  66              		.cfi_offset 3, -16
  67              		.loc 1 83 0
  68 0004 0025     		movs	r5, #0
  69              		.loc 1 82 0
  70 0006 0123     		movs	r3, #1
  71              		.loc 1 84 0
  72 0008 2946     		mov	r1, r5
  73              		.loc 1 82 0
  74 000a 2370     		strb	r3, [r4, #0]
  75              		.loc 1 84 0
  76 000c 0830     		adds	r0, r0, #8
  77              	.LVL1:
  78              		.loc 1 83 0
  79 000e 6560     		str	r5, [r4, #4]
  80              		.loc 1 84 0
  81 0010 FFF7FEFF 		bl	chSemInit
  82              		.loc 1 85 0
  83 0014 2946     		mov	r1, r5
  84 0016 04F11400 		add	r0, r4, #20
  85 001a FFF7FEFF 		bl	chSemInit
  86              		.loc 1 86 0
  87 001e 04F12005 		add	r5, r4, #32
  88              		.loc 1 87 0
  89 0022 04F12400 		add	r0, r4, #36
  90              		.loc 1 88 0
  91 0026 04F12801 		add	r1, r4, #40
  92              		.loc 1 90 0
  93 002a 04F12C02 		add	r2, r4, #44
  94              		.loc 1 91 0
  95 002e 04F13003 		add	r3, r4, #48
  96              		.loc 1 86 0
  97 0032 2562     		str	r5, [r4, #32]
  98              		.loc 1 87 0
  99 0034 6062     		str	r0, [r4, #36]
 100              		.loc 1 88 0
 101 0036 A162     		str	r1, [r4, #40]
 102              		.loc 1 90 0
 103 0038 E262     		str	r2, [r4, #44]
 104              		.loc 1 91 0
 105 003a 2363     		str	r3, [r4, #48]
 106              		.loc 1 93 0
 107 003c 38BD     		pop	{r3, r4, r5, pc}
 108              		.cfi_endproc
ARM GAS  C:\Users\DNIEL~1\AppData\Local\Temp\ccGYSxmm.s 			page 3


 109              	.LFE119:
 110              		.size	canObjectInit, .-canObjectInit
 111 003e 00BF     		.section	.text.canStart,"ax",%progbits
 112              		.align	2
 113              		.p2align 4,,15
 114              		.global	canStart
 115              		.thumb
 116              		.thumb_func
 117              		.type	canStart, %function
 118              	canStart:
 119              	.LFB120:
 120              		.loc 1 107 0
 121              		.cfi_startproc
 122              		@ args = 0, pretend = 0, frame = 0
 123              		@ frame_needed = 0, uses_anonymous_args = 0
 124              	.LVL2:
 125 0000 38B5     		push	{r3, r4, r5, lr}
 126              	.LCFI1:
 127              		.cfi_def_cfa_offset 16
 128              		.loc 1 107 0
 129 0002 0446     		mov	r4, r0
 130              		.cfi_offset 14, -4
 131              		.cfi_offset 5, -8
 132              		.cfi_offset 4, -12
 133              		.cfi_offset 3, -16
 134 0004 0D46     		mov	r5, r1
 135              	.LBB2:
 136              		.loc 1 111 0
 137 0006 2023     		movs	r3, #32
 138              	.LVL3:
 139              	@ 111 "../../../ChibiOS/os/hal/src/can.c" 1
 140 0008 83F31188 		msr     BASEPRI, r3
 141              	@ 0 "" 2
 142              	.LVL4:
 143              		.thumb
 144              	.LBE2:
 145              		.loc 1 116 0
 146 000c 0378     		ldrb	r3, [r0, #0]	@ zero_extendqisi2
 147              	.LVL5:
 148 000e 022B     		cmp	r3, #2
 149 0010 06D1     		bne	.L4
 150              	.LVL6:
 151              	.L7:
 152              		.loc 1 117 0
 153 0012 0620     		movs	r0, #6
 154 0014 0121     		movs	r1, #1
 155 0016 FFF7FEFF 		bl	chSchGoSleepTimeoutS
 156              		.loc 1 116 0
 157 001a 2378     		ldrb	r3, [r4, #0]	@ zero_extendqisi2
 158 001c 022B     		cmp	r3, #2
 159 001e F8D0     		beq	.L7
 160              	.L4:
 161              		.loc 1 118 0
 162 0020 012B     		cmp	r3, #1
 163 0022 03D0     		beq	.L10
 164              	.LBB3:
 165              		.loc 1 123 0
ARM GAS  C:\Users\DNIEL~1\AppData\Local\Temp\ccGYSxmm.s 			page 4


 166 0024 0023     		movs	r3, #0
 167              	.LVL7:
 168              	@ 123 "../../../ChibiOS/os/hal/src/can.c" 1
 169 0026 83F31188 		msr     BASEPRI, r3
 170              	@ 0 "" 2
 171              	.LVL8:
 172              		.thumb
 173              	.LBE3:
 174              		.loc 1 124 0
 175 002a 38BD     		pop	{r3, r4, r5, pc}
 176              	.LVL9:
 177              	.L10:
 178              		.loc 1 119 0
 179 002c 6560     		str	r5, [r4, #4]
 180              		.loc 1 120 0
 181 002e 2046     		mov	r0, r4
 182 0030 FFF7FEFF 		bl	can_lld_start
 183              		.loc 1 121 0
 184 0034 0323     		movs	r3, #3
 185 0036 2370     		strb	r3, [r4, #0]
 186              	.LBB4:
 187              		.loc 1 123 0
 188 0038 0023     		movs	r3, #0
 189              	@ 123 "../../../ChibiOS/os/hal/src/can.c" 1
 190 003a 83F31188 		msr     BASEPRI, r3
 191              	@ 0 "" 2
 192              	.LVL10:
 193              		.thumb
 194              	.LBE4:
 195              		.loc 1 124 0
 196 003e 38BD     		pop	{r3, r4, r5, pc}
 197              		.cfi_endproc
 198              	.LFE120:
 199              		.size	canStart, .-canStart
 200              		.section	.text.canStop,"ax",%progbits
 201              		.align	2
 202              		.p2align 4,,15
 203              		.global	canStop
 204              		.thumb
 205              		.thumb_func
 206              		.type	canStop, %function
 207              	canStop:
 208              	.LFB121:
 209              		.loc 1 133 0
 210              		.cfi_startproc
 211              		@ args = 0, pretend = 0, frame = 0
 212              		@ frame_needed = 0, uses_anonymous_args = 0
 213              	.LVL11:
 214 0000 10B5     		push	{r4, lr}
 215              	.LCFI2:
 216              		.cfi_def_cfa_offset 8
 217              	.LBB5:
 218              		.loc 1 137 0
 219 0002 2023     		movs	r3, #32
 220              	.LVL12:
 221              	.LBE5:
 222              		.loc 1 133 0
ARM GAS  C:\Users\DNIEL~1\AppData\Local\Temp\ccGYSxmm.s 			page 5


 223 0004 0446     		mov	r4, r0
 224              		.cfi_offset 14, -4
 225              		.cfi_offset 4, -8
 226              	.LBB6:
 227              		.loc 1 137 0
 228              	@ 137 "../../../ChibiOS/os/hal/src/can.c" 1
 229 0006 83F31188 		msr     BASEPRI, r3
 230              	@ 0 "" 2
 231              	.LVL13:
 232              		.thumb
 233              	.LBE6:
 234              		.loc 1 140 0
 235 000a FFF7FEFF 		bl	can_lld_stop
 236              	.LVL14:
 237              		.loc 1 141 0
 238 000e 2046     		mov	r0, r4
 239 0010 0123     		movs	r3, #1
 240 0012 00F8143B 		strb	r3, [r0], #20
 241              		.loc 1 142 0
 242 0016 0021     		movs	r1, #0
 243 0018 FFF7FEFF 		bl	chSemResetI
 244              		.loc 1 143 0
 245 001c 04F10800 		add	r0, r4, #8
 246 0020 0021     		movs	r1, #0
 247 0022 FFF7FEFF 		bl	chSemResetI
 248              		.loc 1 144 0
 249 0026 FFF7FEFF 		bl	chSchRescheduleS
 250              	.LBB7:
 251              		.loc 1 145 0
 252 002a 0023     		movs	r3, #0
 253              	.LVL15:
 254              	@ 145 "../../../ChibiOS/os/hal/src/can.c" 1
 255 002c 83F31188 		msr     BASEPRI, r3
 256              	@ 0 "" 2
 257              	.LVL16:
 258              		.thumb
 259              	.LBE7:
 260              		.loc 1 146 0
 261 0030 10BD     		pop	{r4, pc}
 262              		.cfi_endproc
 263              	.LFE121:
 264              		.size	canStop, .-canStop
 265 0032 00BFAFF3 		.section	.text.canTransmit,"ax",%progbits
 265      0080AFF3 
 265      0080AFF3 
 265      0080
 266              		.align	2
 267              		.p2align 4,,15
 268              		.global	canTransmit
 269              		.thumb
 270              		.thumb_func
 271              		.type	canTransmit, %function
 272              	canTransmit:
 273              	.LFB122:
 274              		.loc 1 172 0
 275              		.cfi_startproc
 276              		@ args = 0, pretend = 0, frame = 0
ARM GAS  C:\Users\DNIEL~1\AppData\Local\Temp\ccGYSxmm.s 			page 6


 277              		@ frame_needed = 0, uses_anonymous_args = 0
 278              	.LVL17:
 279 0000 2DE9F041 		push	{r4, r5, r6, r7, r8, lr}
 280              	.LCFI3:
 281              		.cfi_def_cfa_offset 24
 282              		.loc 1 172 0
 283 0004 1D46     		mov	r5, r3
 284              		.cfi_offset 14, -4
 285              		.cfi_offset 8, -8
 286              		.cfi_offset 7, -12
 287              		.cfi_offset 6, -16
 288              		.cfi_offset 5, -20
 289              		.cfi_offset 4, -24
 290 0006 0446     		mov	r4, r0
 291 0008 0E46     		mov	r6, r1
 292 000a 1746     		mov	r7, r2
 293              	.LBB8:
 294              		.loc 1 177 0
 295 000c 2023     		movs	r3, #32
 296              	.LVL18:
 297              	@ 177 "../../../ChibiOS/os/hal/src/can.c" 1
 298 000e 83F31188 		msr     BASEPRI, r3
 299              	@ 0 "" 2
 300              	.LVL19:
 301              		.thumb
 302              	.LBE8:
 303              	.LBB9:
 304              		.loc 1 181 0
 305 0012 00F10808 		add	r8, r0, #8
 306              	.LVL20:
 307              	.L13:
 308              	.LBE9:
 309              		.loc 1 180 0 discriminator 1
 310 0016 2378     		ldrb	r3, [r4, #0]	@ zero_extendqisi2
 311              	.LVL21:
 312 0018 042B     		cmp	r3, #4
 313 001a 04D0     		beq	.L15
 314              		.loc 1 180 0 is_stmt 0 discriminator 2
 315 001c 2046     		mov	r0, r4
 316 001e 3146     		mov	r1, r6
 317 0020 FFF7FEFF 		bl	can_lld_is_tx_empty
 318 0024 50B9     		cbnz	r0, .L17
 319              	.L15:
 320              	.LBB11:
 321              		.loc 1 181 0 is_stmt 1
 322 0026 4046     		mov	r0, r8
 323 0028 2946     		mov	r1, r5
 324 002a FFF7FEFF 		bl	chSemWaitTimeoutS
 325              	.LVL22:
 326              		.loc 1 182 0
 327 002e 0028     		cmp	r0, #0
 328 0030 F1D0     		beq	.L13
 329              	.LBB10:
 330              		.loc 1 183 0
 331 0032 0023     		movs	r3, #0
 332              	.LVL23:
 333              	@ 183 "../../../ChibiOS/os/hal/src/can.c" 1
ARM GAS  C:\Users\DNIEL~1\AppData\Local\Temp\ccGYSxmm.s 			page 7


 334 0034 83F31188 		msr     BASEPRI, r3
 335              	@ 0 "" 2
 336              	.LVL24:
 337              		.thumb
 338              	.LBE10:
 339              		.loc 1 184 0
 340 0038 BDE8F081 		pop	{r4, r5, r6, r7, r8, pc}
 341              	.LVL25:
 342              	.L17:
 343              	.LBE11:
 344              		.loc 1 187 0
 345 003c 2046     		mov	r0, r4
 346 003e 3146     		mov	r1, r6
 347 0040 3A46     		mov	r2, r7
 348 0042 FFF7FEFF 		bl	can_lld_transmit
 349              	.LBB12:
 350              		.loc 1 188 0
 351 0046 0023     		movs	r3, #0
 352              	.LVL26:
 353              	@ 188 "../../../ChibiOS/os/hal/src/can.c" 1
 354 0048 83F31188 		msr     BASEPRI, r3
 355              	@ 0 "" 2
 356              	.LVL27:
 357              		.thumb
 358              	.LBE12:
 359              		.loc 1 189 0
 360 004c 1846     		mov	r0, r3
 361              		.loc 1 190 0
 362 004e BDE8F081 		pop	{r4, r5, r6, r7, r8, pc}
 363              		.cfi_endproc
 364              	.LFE122:
 365              		.size	canTransmit, .-canTransmit
 366 0052 00BFAFF3 		.section	.text.canReceive,"ax",%progbits
 366      0080AFF3 
 366      0080AFF3 
 366      0080
 367              		.align	2
 368              		.p2align 4,,15
 369              		.global	canReceive
 370              		.thumb
 371              		.thumb_func
 372              		.type	canReceive, %function
 373              	canReceive:
 374              	.LFB123:
 375              		.loc 1 217 0
 376              		.cfi_startproc
 377              		@ args = 0, pretend = 0, frame = 0
 378              		@ frame_needed = 0, uses_anonymous_args = 0
 379              	.LVL28:
 380 0000 2DE9F041 		push	{r4, r5, r6, r7, r8, lr}
 381              	.LCFI4:
 382              		.cfi_def_cfa_offset 24
 383              		.loc 1 217 0
 384 0004 1D46     		mov	r5, r3
 385              		.cfi_offset 14, -4
 386              		.cfi_offset 8, -8
 387              		.cfi_offset 7, -12
ARM GAS  C:\Users\DNIEL~1\AppData\Local\Temp\ccGYSxmm.s 			page 8


 388              		.cfi_offset 6, -16
 389              		.cfi_offset 5, -20
 390              		.cfi_offset 4, -24
 391 0006 0446     		mov	r4, r0
 392 0008 0E46     		mov	r6, r1
 393 000a 1746     		mov	r7, r2
 394              	.LBB13:
 395              		.loc 1 222 0
 396 000c 2023     		movs	r3, #32
 397              	.LVL29:
 398              	@ 222 "../../../ChibiOS/os/hal/src/can.c" 1
 399 000e 83F31188 		msr     BASEPRI, r3
 400              	@ 0 "" 2
 401              	.LVL30:
 402              		.thumb
 403              	.LBE13:
 404              	.LBB14:
 405              		.loc 1 226 0
 406 0012 00F11408 		add	r8, r0, #20
 407              	.LVL31:
 408              	.L19:
 409              	.LBE14:
 410              		.loc 1 225 0 discriminator 1
 411 0016 2378     		ldrb	r3, [r4, #0]	@ zero_extendqisi2
 412              	.LVL32:
 413 0018 042B     		cmp	r3, #4
 414 001a 04D0     		beq	.L21
 415              		.loc 1 225 0 is_stmt 0 discriminator 2
 416 001c 2046     		mov	r0, r4
 417 001e 3146     		mov	r1, r6
 418 0020 FFF7FEFF 		bl	can_lld_is_rx_nonempty
 419 0024 50B9     		cbnz	r0, .L23
 420              	.L21:
 421              	.LBB16:
 422              		.loc 1 226 0 is_stmt 1
 423 0026 4046     		mov	r0, r8
 424 0028 2946     		mov	r1, r5
 425 002a FFF7FEFF 		bl	chSemWaitTimeoutS
 426              	.LVL33:
 427              		.loc 1 227 0
 428 002e 0028     		cmp	r0, #0
 429 0030 F1D0     		beq	.L19
 430              	.LBB15:
 431              		.loc 1 228 0
 432 0032 0023     		movs	r3, #0
 433              	.LVL34:
 434              	@ 228 "../../../ChibiOS/os/hal/src/can.c" 1
 435 0034 83F31188 		msr     BASEPRI, r3
 436              	@ 0 "" 2
 437              	.LVL35:
 438              		.thumb
 439              	.LBE15:
 440              		.loc 1 229 0
 441 0038 BDE8F081 		pop	{r4, r5, r6, r7, r8, pc}
 442              	.LVL36:
 443              	.L23:
 444              	.LBE16:
ARM GAS  C:\Users\DNIEL~1\AppData\Local\Temp\ccGYSxmm.s 			page 9


 445              		.loc 1 232 0
 446 003c 2046     		mov	r0, r4
 447 003e 3146     		mov	r1, r6
 448 0040 3A46     		mov	r2, r7
 449 0042 FFF7FEFF 		bl	can_lld_receive
 450              	.LBB17:
 451              		.loc 1 233 0
 452 0046 0023     		movs	r3, #0
 453              	.LVL37:
 454              	@ 233 "../../../ChibiOS/os/hal/src/can.c" 1
 455 0048 83F31188 		msr     BASEPRI, r3
 456              	@ 0 "" 2
 457              	.LVL38:
 458              		.thumb
 459              	.LBE17:
 460              		.loc 1 234 0
 461 004c 1846     		mov	r0, r3
 462              		.loc 1 235 0
 463 004e BDE8F081 		pop	{r4, r5, r6, r7, r8, pc}
 464              		.cfi_endproc
 465              	.LFE123:
 466              		.size	canReceive, .-canReceive
 467 0052 00BFAFF3 		.section	.text.canSleep,"ax",%progbits
 467      0080AFF3 
 467      0080AFF3 
 467      0080
 468              		.align	2
 469              		.p2align 4,,15
 470              		.global	canSleep
 471              		.thumb
 472              		.thumb_func
 473              		.type	canSleep, %function
 474              	canSleep:
 475              	.LFB124:
 476              		.loc 1 250 0
 477              		.cfi_startproc
 478              		@ args = 0, pretend = 0, frame = 0
 479              		@ frame_needed = 0, uses_anonymous_args = 0
 480              	.LVL39:
 481 0000 10B5     		push	{r4, lr}
 482              	.LCFI5:
 483              		.cfi_def_cfa_offset 8
 484              	.LBB18:
 485              		.loc 1 254 0
 486 0002 2023     		movs	r3, #32
 487              	.LVL40:
 488              	.LBE18:
 489              		.loc 1 250 0
 490 0004 0446     		mov	r4, r0
 491              		.cfi_offset 14, -4
 492              		.cfi_offset 4, -8
 493              	.LBB19:
 494              		.loc 1 254 0
 495              	@ 254 "../../../ChibiOS/os/hal/src/can.c" 1
 496 0006 83F31188 		msr     BASEPRI, r3
 497              	@ 0 "" 2
 498              	.LVL41:
ARM GAS  C:\Users\DNIEL~1\AppData\Local\Temp\ccGYSxmm.s 			page 10


 499              		.thumb
 500              	.LBE19:
 501              		.loc 1 257 0
 502 000a 0378     		ldrb	r3, [r0, #0]	@ zero_extendqisi2
 503              	.LVL42:
 504 000c 032B     		cmp	r3, #3
 505 000e 03D0     		beq	.L26
 506              	.LBB20:
 507              		.loc 1 263 0
 508 0010 0023     		movs	r3, #0
 509              	.LVL43:
 510              	@ 263 "../../../ChibiOS/os/hal/src/can.c" 1
 511 0012 83F31188 		msr     BASEPRI, r3
 512              	@ 0 "" 2
 513              	.LVL44:
 514              		.thumb
 515              	.LBE20:
 516              		.loc 1 264 0
 517 0016 10BD     		pop	{r4, pc}
 518              	.LVL45:
 519              	.L26:
 520              		.loc 1 258 0
 521 0018 FFF7FEFF 		bl	can_lld_sleep
 522              	.LVL46:
 523              		.loc 1 259 0
 524 001c 2046     		mov	r0, r4
 525 001e 0421     		movs	r1, #4
 526 0020 00F82C1B 		strb	r1, [r0], #44
 527              		.loc 1 260 0
 528 0024 0021     		movs	r1, #0
 529 0026 FFF7FEFF 		bl	chEvtBroadcastFlagsI
 530              		.loc 1 261 0
 531 002a FFF7FEFF 		bl	chSchRescheduleS
 532              	.LBB21:
 533              		.loc 1 263 0
 534 002e 0023     		movs	r3, #0
 535              	@ 263 "../../../ChibiOS/os/hal/src/can.c" 1
 536 0030 83F31188 		msr     BASEPRI, r3
 537              	@ 0 "" 2
 538              	.LVL47:
 539              		.thumb
 540              	.LBE21:
 541              		.loc 1 264 0
 542 0034 10BD     		pop	{r4, pc}
 543              		.cfi_endproc
 544              	.LFE124:
 545              		.size	canSleep, .-canSleep
 546 0036 00BFAFF3 		.section	.text.canWakeup,"ax",%progbits
 546      0080AFF3 
 546      0080
 547              		.align	2
 548              		.p2align 4,,15
 549              		.global	canWakeup
 550              		.thumb
 551              		.thumb_func
 552              		.type	canWakeup, %function
 553              	canWakeup:
ARM GAS  C:\Users\DNIEL~1\AppData\Local\Temp\ccGYSxmm.s 			page 11


 554              	.LFB125:
 555              		.loc 1 273 0
 556              		.cfi_startproc
 557              		@ args = 0, pretend = 0, frame = 0
 558              		@ frame_needed = 0, uses_anonymous_args = 0
 559              	.LVL48:
 560 0000 10B5     		push	{r4, lr}
 561              	.LCFI6:
 562              		.cfi_def_cfa_offset 8
 563              	.LBB22:
 564              		.loc 1 277 0
 565 0002 2023     		movs	r3, #32
 566              	.LVL49:
 567              	.LBE22:
 568              		.loc 1 273 0
 569 0004 0446     		mov	r4, r0
 570              		.cfi_offset 14, -4
 571              		.cfi_offset 4, -8
 572              	.LBB23:
 573              		.loc 1 277 0
 574              	@ 277 "../../../ChibiOS/os/hal/src/can.c" 1
 575 0006 83F31188 		msr     BASEPRI, r3
 576              	@ 0 "" 2
 577              	.LVL50:
 578              		.thumb
 579              	.LBE23:
 580              		.loc 1 280 0
 581 000a 0378     		ldrb	r3, [r0, #0]	@ zero_extendqisi2
 582              	.LVL51:
 583 000c 042B     		cmp	r3, #4
 584 000e 03D0     		beq	.L29
 585              	.LBB24:
 586              		.loc 1 286 0
 587 0010 0023     		movs	r3, #0
 588              	.LVL52:
 589              	@ 286 "../../../ChibiOS/os/hal/src/can.c" 1
 590 0012 83F31188 		msr     BASEPRI, r3
 591              	@ 0 "" 2
 592              	.LVL53:
 593              		.thumb
 594              	.LBE24:
 595              		.loc 1 287 0
 596 0016 10BD     		pop	{r4, pc}
 597              	.LVL54:
 598              	.L29:
 599              		.loc 1 281 0
 600 0018 FFF7FEFF 		bl	can_lld_wakeup
 601              	.LVL55:
 602              		.loc 1 282 0
 603 001c 2046     		mov	r0, r4
 604 001e 0321     		movs	r1, #3
 605 0020 00F8301B 		strb	r1, [r0], #48
 606              		.loc 1 283 0
 607 0024 0021     		movs	r1, #0
 608 0026 FFF7FEFF 		bl	chEvtBroadcastFlagsI
 609              		.loc 1 284 0
 610 002a FFF7FEFF 		bl	chSchRescheduleS
ARM GAS  C:\Users\DNIEL~1\AppData\Local\Temp\ccGYSxmm.s 			page 12


 611              	.LBB25:
 612              		.loc 1 286 0
 613 002e 0023     		movs	r3, #0
 614              	@ 286 "../../../ChibiOS/os/hal/src/can.c" 1
 615 0030 83F31188 		msr     BASEPRI, r3
 616              	@ 0 "" 2
 617              	.LVL56:
 618              		.thumb
 619              	.LBE25:
 620              		.loc 1 287 0
 621 0034 10BD     		pop	{r4, pc}
 622              		.cfi_endproc
 623              	.LFE125:
 624              		.size	canWakeup, .-canWakeup
 625 0036 00BFAFF3 		.text
 625      0080AFF3 
 625      0080
 626              	.Letext0: