ARM GAS  C:\Users\DNIEL~1\AppData\Local\Temp\ccjIVf4F.s 			page 1


   1              		.syntax unified
   2              		.cpu cortex-m4
   3              		.fpu softvfp
   4              		.eabi_attribute 20, 1
   5              		.eabi_attribute 21, 1
   6              		.eabi_attribute 23, 3
   7              		.eabi_attribute 24, 1
   8              		.eabi_attribute 25, 1
   9              		.eabi_attribute 26, 1
  10              		.eabi_attribute 30, 2
  11              		.eabi_attribute 18, 4
  12              		.thumb
  13              		.file	"can_lld.c"
  20 0000 C4040000 		.text
  20      02002902 
  20      00000201 
  20      FB0E0D00 
  20      01010101 
  21              	.Ltext0:
  22              		.cfi_sections	.debug_frame
  23              		.section	.text.can_lld_set_filters,"ax",%progbits
  24              		.align	2
  25              		.p2align 4,,15
  26              		.thumb
  27              		.thumb_func
  28              		.type	can_lld_set_filters, %function
  29              	can_lld_set_filters:
  30              	.LFB118:
  31              		.file 1 "../../../ChibiOS/os/hal/platforms/STM32/can_lld.c"
  32              		.loc 1 69 0
  33              		.cfi_startproc
  34              		@ args = 0, pretend = 0, frame = 0
  35              		@ frame_needed = 0, uses_anonymous_args = 0
  36              		@ link register save eliminated.
  37              	.LVL0:
  38 0000 F0B4     		push	{r4, r5, r6, r7}
  39              	.LCFI0:
  40              		.cfi_def_cfa_offset 16
  41              		.loc 1 72 0
  42 0002 894C     		ldr	r4, .L25
  43              		.cfi_offset 7, -4
  44              		.cfi_offset 6, -8
  45              		.cfi_offset 5, -12
  46              		.cfi_offset 4, -16
  47              		.loc 1 75 0
  48 0004 894B     		ldr	r3, .L25+4
  49              		.loc 1 72 0
  50 0006 256C     		ldr	r5, [r4, #64]
  51 0008 45F00075 		orr	r5, r5, #33554432
  52 000c 2564     		str	r5, [r4, #64]
  53              		.loc 1 75 0
ARM GAS  C:\Users\DNIEL~1\AppData\Local\Temp\ccjIVf4F.s 			page 2


  54 000e D3F80042 		ldr	r4, [r3, #512]
  55 0012 250C     		lsrs	r5, r4, #16
  56 0014 2C04     		lsls	r4, r5, #16
  57 0016 44F00105 		orr	r5, r4, #1
  58 001a 45EA0024 		orr	r4, r5, r0, lsl #8
  59 001e C3F80042 		str	r4, [r3, #512]
  60              		.loc 1 76 0
  61 0022 0029     		cmp	r1, #0
  62 0024 00F0D880 		beq	.L2
  63              	.LBB25:
  64              		.loc 1 80 0
  65 0028 0026     		movs	r6, #0
  66 002a C3F81C62 		str	r6, [r3, #540]
  67              		.loc 1 84 0
  68 002e 3046     		mov	r0, r6
  69              	.LVL1:
  70              		.loc 1 81 0
  71 0030 C3F80462 		str	r6, [r3, #516]
  72              		.loc 1 85 0
  73 0034 9C46     		mov	ip, r3
  74              		.loc 1 82 0
  75 0036 C3F80C62 		str	r6, [r3, #524]
  76              		.loc 1 85 0
  77 003a 3446     		mov	r4, r6
  78              		.loc 1 83 0
  79 003c C3F81462 		str	r6, [r3, #532]
  80              	.LVL2:
  81              	.L3:
  82              		.loc 1 85 0 discriminator 2
  83 0040 00F14807 		add	r7, r0, #72
  84 0044 00F14906 		add	r6, r0, #73
  85              		.loc 1 86 0 discriminator 2
  86 0048 FD00     		lsls	r5, r7, #3
  87 004a F300     		lsls	r3, r6, #3
  88 004c 05F18045 		add	r5, r5, #1073741824
  89 0050 03F18043 		add	r3, r3, #1073741824
  90 0054 05F5C845 		add	r5, r5, #25600
  91 0058 03F5C843 		add	r3, r3, #25600
  92              		.loc 1 84 0 discriminator 2
  93 005c 0230     		adds	r0, r0, #2
  94              	.LVL3:
  95 005e 1C28     		cmp	r0, #28
  96              		.loc 1 85 0 discriminator 2
  97 0060 4CF83740 		str	r4, [ip, r7, lsl #3]
  98              		.loc 1 86 0 discriminator 2
  99 0064 6C60     		str	r4, [r5, #4]
 100              		.loc 1 85 0 discriminator 2
 101 0066 4CF83640 		str	r4, [ip, r6, lsl #3]
 102              		.loc 1 86 0 discriminator 2
 103 006a 5C60     		str	r4, [r3, #4]
 104              		.loc 1 84 0 discriminator 2
 105 006c E8D1     		bne	.L3
 106              		.loc 1 84 0 is_stmt 0
 107 006e 0027     		movs	r7, #0
 108              		.loc 1 91 0 is_stmt 1
 109 0070 0126     		movs	r6, #1
 110 0072 11F0010F 		tst	r1, #1
ARM GAS  C:\Users\DNIEL~1\AppData\Local\Temp\ccjIVf4F.s 			page 3


 111              		.loc 1 93 0
 112 0076 6D4B     		ldr	r3, .L25+4
 113 0078 72D1     		bne	.L8
 114              		.loc 1 91 0
 115 007a 1568     		ldr	r5, [r2, #0]
 116              		.loc 1 92 0
 117 007c 1079     		ldrb	r0, [r2, #4]	@ zero_extendqisi2
 118              	.LVL4:
 119              		.loc 1 91 0
 120 007e 16FA05F4 		lsls	r4, r6, r5
 121              		.loc 1 92 0
 122 0082 10F0010F 		tst	r0, #1
 123 0086 05D0     		beq	.L11
 124              		.loc 1 93 0
 125 0088 D3F80472 		ldr	r7, [r3, #516]
 126 008c 44EA0707 		orr	r7, r4, r7
 127 0090 C3F80472 		str	r7, [r3, #516]
 128              	.L11:
 129              		.loc 1 94 0
 130 0094 00F0020C 		and	ip, r0, #2
 131 0098 5FFA8CF7 		uxtb	r7, ip
 132 009c 2FB1     		cbz	r7, .L12
 133              		.loc 1 95 0
 134 009e D3F80C72 		ldr	r7, [r3, #524]
 135 00a2 44EA0707 		orr	r7, r4, r7
 136 00a6 C3F80C72 		str	r7, [r3, #524]
 137              	.L12:
 138              		.loc 1 96 0
 139 00aa 00F0040C 		and	ip, r0, #4
 140 00ae 5FFA8CF0 		uxtb	r0, ip
 141 00b2 28B1     		cbz	r0, .L13
 142              		.loc 1 97 0
 143 00b4 D3F81402 		ldr	r0, [r3, #532]
 144 00b8 44EA0007 		orr	r7, r4, r0
 145 00bc C3F81472 		str	r7, [r3, #532]
 146              	.L13:
 147              		.loc 1 98 0
 148 00c0 9768     		ldr	r7, [r2, #8]
 149 00c2 4835     		adds	r5, r5, #72
 150              		.loc 1 99 0
 151 00c4 E800     		lsls	r0, r5, #3
 152              		.loc 1 98 0
 153 00c6 43F83570 		str	r7, [r3, r5, lsl #3]
 154              		.loc 1 99 0
 155 00ca 00F18047 		add	r7, r0, #1073741824
 156 00ce D568     		ldr	r5, [r2, #12]
 157 00d0 07F5C84C 		add	ip, r7, #25600
 158              		.loc 1 101 0
 159 00d4 1032     		adds	r2, r2, #16
 160              	.LVL5:
 161              		.loc 1 99 0
 162 00d6 CCF80450 		str	r5, [ip, #4]
 163              		.loc 1 100 0
 164 00da D3F81C52 		ldr	r5, [r3, #540]
 165 00de 2C43     		orrs	r4, r4, r5
 166              		.loc 1 90 0
 167 00e0 0127     		movs	r7, #1
ARM GAS  C:\Users\DNIEL~1\AppData\Local\Temp\ccjIVf4F.s 			page 4


 168              		.loc 1 100 0
 169 00e2 C3F81C42 		str	r4, [r3, #540]
 170              	.LVL6:
 171 00e6 3BE0     		b	.L8
 172              	.LVL7:
 173              	.L24:
 174              		.loc 1 101 0
 175 00e8 02F11000 		add	r0, r2, #16
 176              		.loc 1 91 0
 177 00ec 1569     		ldr	r5, [r2, #16]
 178              		.loc 1 92 0
 179 00ee 0279     		ldrb	r2, [r0, #4]	@ zero_extendqisi2
 180              	.LVL8:
 181              		.loc 1 91 0
 182 00f0 16FA05F4 		lsls	r4, r6, r5
 183              	.LVL9:
 184              		.loc 1 92 0
 185 00f4 12F0010F 		tst	r2, #1
 186 00f8 05D0     		beq	.L15
 187              		.loc 1 93 0
 188 00fa D3F804C2 		ldr	ip, [r3, #516]
 189 00fe 44EA0C0C 		orr	ip, r4, ip
 190 0102 C3F804C2 		str	ip, [r3, #516]
 191              	.L15:
 192              		.loc 1 94 0
 193 0106 02F0020C 		and	ip, r2, #2
 194 010a 5FFA8CFC 		uxtb	ip, ip
 195 010e BCF1000F 		cmp	ip, #0
 196 0112 05D0     		beq	.L16
 197              		.loc 1 95 0
 198 0114 D3F80CC2 		ldr	ip, [r3, #524]
 199 0118 44EA0C0C 		orr	ip, r4, ip
 200 011c C3F80CC2 		str	ip, [r3, #524]
 201              	.L16:
 202              		.loc 1 96 0
 203 0120 02F0040C 		and	ip, r2, #4
 204 0124 5FFA8CF2 		uxtb	r2, ip
 205 0128 2AB1     		cbz	r2, .L17
 206              		.loc 1 97 0
 207 012a D3F81422 		ldr	r2, [r3, #532]
 208 012e 44EA0202 		orr	r2, r4, r2
 209 0132 C3F81422 		str	r2, [r3, #532]
 210              	.L17:
 211              		.loc 1 98 0
 212 0136 D0F808C0 		ldr	ip, [r0, #8]
 213 013a 4835     		adds	r5, r5, #72
 214              		.loc 1 99 0
 215 013c EA00     		lsls	r2, r5, #3
 216              		.loc 1 98 0
 217 013e 43F835C0 		str	ip, [r3, r5, lsl #3]
 218              		.loc 1 99 0
 219 0142 02F18042 		add	r2, r2, #1073741824
 220 0146 C568     		ldr	r5, [r0, #12]
 221 0148 02F5C84C 		add	ip, r2, #25600
 222              		.loc 1 90 0
 223 014c 0137     		adds	r7, r7, #1
 224              		.loc 1 99 0
ARM GAS  C:\Users\DNIEL~1\AppData\Local\Temp\ccjIVf4F.s 			page 5


 225 014e CCF80450 		str	r5, [ip, #4]
 226              		.loc 1 100 0
 227 0152 D3F81C52 		ldr	r5, [r3, #540]
 228 0156 2C43     		orrs	r4, r4, r5
 229 0158 C3F81C42 		str	r4, [r3, #540]
 230              	.LVL10:
 231              		.loc 1 101 0
 232 015c 00F11002 		add	r2, r0, #16
 233              	.LVL11:
 234              	.L8:
 235              		.loc 1 91 0
 236 0160 1568     		ldr	r5, [r2, #0]
 237              		.loc 1 92 0
 238 0162 1079     		ldrb	r0, [r2, #4]	@ zero_extendqisi2
 239              		.loc 1 91 0
 240 0164 16FA05F4 		lsls	r4, r6, r5
 241              	.LVL12:
 242              		.loc 1 92 0
 243 0168 10F0010F 		tst	r0, #1
 244 016c 05D0     		beq	.L4
 245              		.loc 1 93 0
 246 016e D3F804C2 		ldr	ip, [r3, #516]
 247 0172 44EA0C0C 		orr	ip, r4, ip
 248 0176 C3F804C2 		str	ip, [r3, #516]
 249              	.L4:
 250              		.loc 1 94 0
 251 017a 00F0020C 		and	ip, r0, #2
 252 017e 5FFA8CFC 		uxtb	ip, ip
 253 0182 BCF1000F 		cmp	ip, #0
 254 0186 05D0     		beq	.L5
 255              		.loc 1 95 0
 256 0188 D3F80CC2 		ldr	ip, [r3, #524]
 257 018c 44EA0C0C 		orr	ip, r4, ip
 258 0190 C3F80CC2 		str	ip, [r3, #524]
 259              	.L5:
 260              		.loc 1 96 0
 261 0194 00F0040C 		and	ip, r0, #4
 262 0198 5FFA8CF0 		uxtb	r0, ip
 263 019c 28B1     		cbz	r0, .L6
 264              		.loc 1 97 0
 265 019e D3F81402 		ldr	r0, [r3, #532]
 266 01a2 44EA0000 		orr	r0, r4, r0
 267 01a6 C3F81402 		str	r0, [r3, #532]
 268              	.L6:
 269              		.loc 1 98 0
 270 01aa D2F808C0 		ldr	ip, [r2, #8]
 271 01ae 4835     		adds	r5, r5, #72
 272              		.loc 1 99 0
 273 01b0 E800     		lsls	r0, r5, #3
 274              		.loc 1 98 0
 275 01b2 43F835C0 		str	ip, [r3, r5, lsl #3]
 276              		.loc 1 99 0
 277 01b6 00F18040 		add	r0, r0, #1073741824
 278 01ba D568     		ldr	r5, [r2, #12]
 279 01bc 00F5C84C 		add	ip, r0, #25600
 280              		.loc 1 90 0
 281 01c0 0137     		adds	r7, r7, #1
ARM GAS  C:\Users\DNIEL~1\AppData\Local\Temp\ccjIVf4F.s 			page 6


 282              		.loc 1 99 0
 283 01c2 CCF80450 		str	r5, [ip, #4]
 284              		.loc 1 100 0
 285 01c6 D3F81C02 		ldr	r0, [r3, #540]
 286              		.loc 1 90 0
 287 01ca 8F42     		cmp	r7, r1
 288              		.loc 1 100 0
 289 01cc 44EA0004 		orr	r4, r4, r0
 290              	.LVL13:
 291 01d0 C3F81C42 		str	r4, [r3, #540]
 292              	.LVL14:
 293              		.loc 1 90 0
 294 01d4 88D1     		bne	.L24
 295 01d6 19E0     		b	.L7
 296              	.LVL15:
 297              	.L2:
 298              	.LBE25:
 299              		.loc 1 110 0
 300 01d8 00F14804 		add	r4, r0, #72
 301              		.loc 1 111 0
 302 01dc E200     		lsls	r2, r4, #3
 303              	.LVL16:
 304 01de 02F18045 		add	r5, r2, #1073741824
 305 01e2 05F5C842 		add	r2, r5, #25600
 306              		.loc 1 116 0
 307 01e6 0125     		movs	r5, #1
 308 01e8 15FA00F0 		lsls	r0, r5, r0
 309              	.LVL17:
 310 01ec 2843     		orrs	r0, r0, r5
 311              		.loc 1 107 0
 312 01ee C3F84012 		str	r1, [r3, #576]
 313              		.loc 1 108 0
 314 01f2 C3F84412 		str	r1, [r3, #580]
 315              		.loc 1 110 0
 316 01f6 43F83410 		str	r1, [r3, r4, lsl #3]
 317              		.loc 1 111 0
 318 01fa 5160     		str	r1, [r2, #4]
 319              		.loc 1 113 0
 320 01fc C3F80412 		str	r1, [r3, #516]
 321              		.loc 1 114 0
 322 0200 C3F81412 		str	r1, [r3, #532]
 323              		.loc 1 116 0
 324 0204 C3F80C02 		str	r0, [r3, #524]
 325              		.loc 1 117 0
 326 0208 C3F81C02 		str	r0, [r3, #540]
 327              	.LVL18:
 328              	.L7:
 329              		.loc 1 123 0
 330 020c 074A     		ldr	r2, .L25+4
 331              		.loc 1 126 0
 332 020e 064B     		ldr	r3, .L25
 333              		.loc 1 123 0
 334 0210 D2F80002 		ldr	r0, [r2, #512]
 335 0214 20F00101 		bic	r1, r0, #1
 336              	.LVL19:
 337 0218 C2F80012 		str	r1, [r2, #512]
 338              		.loc 1 126 0
ARM GAS  C:\Users\DNIEL~1\AppData\Local\Temp\ccjIVf4F.s 			page 7


 339 021c 186C     		ldr	r0, [r3, #64]
 340 021e 20F00071 		bic	r1, r0, #33554432
 341 0222 1964     		str	r1, [r3, #64]
 342              		.loc 1 127 0
 343 0224 F0BC     		pop	{r4, r5, r6, r7}
 344 0226 7047     		bx	lr
 345              	.L26:
 346              		.align	2
 347              	.L25:
 348 0228 00380240 		.word	1073887232
 349 022c 00640040 		.word	1073767424
 350              		.cfi_endproc
 351              	.LFE118:
 352              		.size	can_lld_set_filters, .-can_lld_set_filters
 353              		.section	.text.Vector8C,"ax",%progbits
 354              		.align	2
 355              		.p2align 4,,15
 356              		.global	Vector8C
 357              		.thumb
 358              		.thumb_func
 359              		.type	Vector8C, %function
 360              	Vector8C:
 361              	.LFB123:
 362              		.loc 1 255 0
 363              		.cfi_startproc
 364              		@ args = 0, pretend = 0, frame = 0
 365              		@ frame_needed = 0, uses_anonymous_args = 0
 366              	.LVL20:
 367 0000 10B5     		push	{r4, lr}
 368              	.LCFI1:
 369              		.cfi_def_cfa_offset 8
 370              	.LBB26:
 371              	.LBB27:
 372              		.loc 1 139 0
 373 0002 0D4C     		ldr	r4, .L32
 374              		.cfi_offset 14, -4
 375              		.cfi_offset 4, -8
 376 0004 0D49     		ldr	r1, .L32+4
 377 0006 626B     		ldr	r2, [r4, #52]
 378              	.LBB28:
 379              		.loc 1 140 0
 380 0008 2023     		movs	r3, #32
 381              	.LVL21:
 382              	.LBE28:
 383              		.loc 1 139 0
 384 000a 9160     		str	r1, [r2, #8]
 385              	.LBB29:
 386              		.loc 1 140 0
 387              	@ 140 "../../../ChibiOS/os/hal/platforms/STM32/can_lld.c" 1
 388 000c 83F31188 		msr     BASEPRI, r3
 389              	@ 0 "" 2
 390              	.LVL22:
 391              		.thumb
 392              	.LBE29:
 393              		.loc 1 141 0
 394 0010 2369     		ldr	r3, [r4, #16]
 395              	.LVL23:
ARM GAS  C:\Users\DNIEL~1\AppData\Local\Temp\ccjIVf4F.s 			page 8


 396 0012 002B     		cmp	r3, #0
 397 0014 05DA     		bge	.L28
 398              	.L30:
 399              		.loc 1 142 0
 400 0016 0A48     		ldr	r0, .L32+8
 401 0018 FFF7FEFF 		bl	chSemSignalI
 402              		.loc 1 141 0
 403 001c 2069     		ldr	r0, [r4, #16]
 404 001e 0028     		cmp	r0, #0
 405 0020 F9DB     		blt	.L30
 406              	.L28:
 407              		.loc 1 143 0
 408 0022 0848     		ldr	r0, .L32+12
 409 0024 0121     		movs	r1, #1
 410 0026 FFF7FEFF 		bl	chEvtBroadcastFlagsI
 411              	.LBB30:
 412              		.loc 1 144 0
 413 002a 0023     		movs	r3, #0
 414              	.LVL24:
 415              	@ 144 "../../../ChibiOS/os/hal/platforms/STM32/can_lld.c" 1
 416 002c 83F31188 		msr     BASEPRI, r3
 417              	@ 0 "" 2
 418              	.LVL25:
 419              		.thumb
 420              	.LBE30:
 421              	.LBE27:
 422              	.LBE26:
 423              		.loc 1 262 0
 424 0030 BDE81040 		pop	{r4, lr}
 425              		.loc 1 261 0
 426 0034 FFF7FEBF 		b	_port_irq_epilogue
 427              	.LVL26:
 428              	.L33:
 429              		.align	2
 430              	.L32:
 431 0038 00000000 		.word	.LANCHOR0
 432 003c 01010100 		.word	65793
 433 0040 08000000 		.word	.LANCHOR0+8
 434 0044 24000000 		.word	.LANCHOR0+36
 435              		.cfi_endproc
 436              	.LFE123:
 437              		.size	Vector8C, .-Vector8C
 438 0048 AFF30080 		.section	.text.Vector90,"ax",%progbits
 438      AFF30080 
 439              		.align	2
 440              		.p2align 4,,15
 441              		.global	Vector90
 442              		.thumb
 443              		.thumb_func
 444              		.type	Vector90, %function
 445              	Vector90:
 446              	.LFB124:
 447              		.loc 1 269 0
 448              		.cfi_startproc
 449              		@ args = 0, pretend = 0, frame = 0
 450              		@ frame_needed = 0, uses_anonymous_args = 0
 451              	.LVL27:
ARM GAS  C:\Users\DNIEL~1\AppData\Local\Temp\ccjIVf4F.s 			page 9


 452 0000 70B5     		push	{r4, r5, r6, lr}
 453              	.LCFI2:
 454              		.cfi_def_cfa_offset 16
 455              	.LBB31:
 456              	.LBB32:
 457              		.loc 1 157 0
 458 0002 184C     		ldr	r4, .L41
 459              		.cfi_offset 14, -4
 460              		.cfi_offset 6, -8
 461              		.cfi_offset 5, -12
 462              		.cfi_offset 4, -16
 463 0004 636B     		ldr	r3, [r4, #52]
 464 0006 DD68     		ldr	r5, [r3, #12]
 465              	.LVL28:
 466              		.loc 1 158 0
 467 0008 15F0030F 		tst	r5, #3
 468 000c 16D0     		beq	.L35
 469              		.loc 1 160 0
 470 000e 5869     		ldr	r0, [r3, #20]
 471 0010 20F00202 		bic	r2, r0, #2
 472 0014 5A61     		str	r2, [r3, #20]
 473              	.LBB33:
 474              		.loc 1 161 0
 475 0016 2023     		movs	r3, #32
 476              	.LVL29:
 477              	@ 161 "../../../ChibiOS/os/hal/platforms/STM32/can_lld.c" 1
 478 0018 83F31188 		msr     BASEPRI, r3
 479              	@ 0 "" 2
 480              	.LVL30:
 481              		.thumb
 482              	.LBE33:
 483              		.loc 1 162 0
 484 001c E369     		ldr	r3, [r4, #28]
 485              	.LVL31:
 486 001e 002B     		cmp	r3, #0
 487 0020 05DA     		bge	.L36
 488              	.L39:
 489              		.loc 1 163 0
 490 0022 1148     		ldr	r0, .L41+4
 491 0024 FFF7FEFF 		bl	chSemSignalI
 492              		.loc 1 162 0
 493 0028 E169     		ldr	r1, [r4, #28]
 494 002a 0029     		cmp	r1, #0
 495 002c F9DB     		blt	.L39
 496              	.L36:
 497              		.loc 1 164 0
 498 002e 0F48     		ldr	r0, .L41+8
 499 0030 0121     		movs	r1, #1
 500 0032 FFF7FEFF 		bl	chEvtBroadcastFlagsI
 501              	.LBB34:
 502              		.loc 1 165 0
 503 0036 0023     		movs	r3, #0
 504              	.LVL32:
 505              	@ 165 "../../../ChibiOS/os/hal/platforms/STM32/can_lld.c" 1
 506 0038 83F31188 		msr     BASEPRI, r3
 507              	@ 0 "" 2
 508              	.LVL33:
ARM GAS  C:\Users\DNIEL~1\AppData\Local\Temp\ccjIVf4F.s 			page 10


 509              		.thumb
 510              	.L35:
 511              	.LBE34:
 512              		.loc 1 167 0
 513 003c 15F0100F 		tst	r5, #16
 514 0040 0BD0     		beq	.L38
 515              		.loc 1 169 0
 516 0042 636B     		ldr	r3, [r4, #52]
 517              	.LVL34:
 518 0044 1021     		movs	r1, #16
 519 0046 D960     		str	r1, [r3, #12]
 520              	.LBB35:
 521              		.loc 1 170 0
 522 0048 2023     		movs	r3, #32
 523              	.LVL35:
 524              	@ 170 "../../../ChibiOS/os/hal/platforms/STM32/can_lld.c" 1
 525 004a 83F31188 		msr     BASEPRI, r3
 526              	@ 0 "" 2
 527              	.LVL36:
 528              		.thumb
 529              	.LBE35:
 530              		.loc 1 171 0
 531 004e 0848     		ldr	r0, .L41+12
 532 0050 FFF7FEFF 		bl	chEvtBroadcastFlagsI
 533              	.LVL37:
 534              	.LBB36:
 535              		.loc 1 172 0
 536 0054 0023     		movs	r3, #0
 537              	.LVL38:
 538              	@ 172 "../../../ChibiOS/os/hal/platforms/STM32/can_lld.c" 1
 539 0056 83F31188 		msr     BASEPRI, r3
 540              	@ 0 "" 2
 541              	.LVL39:
 542              		.thumb
 543              	.L38:
 544              	.LBE36:
 545              	.LBE32:
 546              	.LBE31:
 547              		.loc 1 276 0
 548 005a BDE87040 		pop	{r4, r5, r6, lr}
 549              		.loc 1 275 0
 550 005e FFF7FEBF 		b	_port_irq_epilogue
 551              	.LVL40:
 552              	.L42:
 553 0062 00BF     		.align	2
 554              	.L41:
 555 0064 00000000 		.word	.LANCHOR0
 556 0068 14000000 		.word	.LANCHOR0+20
 557 006c 20000000 		.word	.LANCHOR0+32
 558 0070 28000000 		.word	.LANCHOR0+40
 559              		.cfi_endproc
 560              	.LFE124:
 561              		.size	Vector90, .-Vector90
 562 0074 AFF30080 		.section	.text.Vector94,"ax",%progbits
 562      AFF30080 
 562      AFF30080 
 563              		.align	2
ARM GAS  C:\Users\DNIEL~1\AppData\Local\Temp\ccjIVf4F.s 			page 11


 564              		.p2align 4,,15
 565              		.global	Vector94
 566              		.thumb
 567              		.thumb_func
 568              		.type	Vector94, %function
 569              	Vector94:
 570              	.LFB125:
 571              		.loc 1 283 0
 572              		.cfi_startproc
 573              		@ args = 0, pretend = 0, frame = 0
 574              		@ frame_needed = 0, uses_anonymous_args = 0
 575              	.LVL41:
 576 0000 70B5     		push	{r4, r5, r6, lr}
 577              	.LCFI3:
 578              		.cfi_def_cfa_offset 16
 579              	.LBB37:
 580              	.LBB38:
 581              		.loc 1 186 0
 582 0002 184C     		ldr	r4, .L50
 583              		.cfi_offset 14, -4
 584              		.cfi_offset 6, -8
 585              		.cfi_offset 5, -12
 586              		.cfi_offset 4, -16
 587 0004 636B     		ldr	r3, [r4, #52]
 588 0006 1D69     		ldr	r5, [r3, #16]
 589              	.LVL42:
 590              		.loc 1 187 0
 591 0008 15F0030F 		tst	r5, #3
 592 000c 16D0     		beq	.L44
 593              		.loc 1 189 0
 594 000e 5869     		ldr	r0, [r3, #20]
 595 0010 20F01002 		bic	r2, r0, #16
 596 0014 5A61     		str	r2, [r3, #20]
 597              	.LBB39:
 598              		.loc 1 190 0
 599 0016 2023     		movs	r3, #32
 600              	.LVL43:
 601              	@ 190 "../../../ChibiOS/os/hal/platforms/STM32/can_lld.c" 1
 602 0018 83F31188 		msr     BASEPRI, r3
 603              	@ 0 "" 2
 604              	.LVL44:
 605              		.thumb
 606              	.LBE39:
 607              		.loc 1 191 0
 608 001c E369     		ldr	r3, [r4, #28]
 609              	.LVL45:
 610 001e 002B     		cmp	r3, #0
 611 0020 05DA     		bge	.L45
 612              	.L48:
 613              		.loc 1 192 0
 614 0022 1148     		ldr	r0, .L50+4
 615 0024 FFF7FEFF 		bl	chSemSignalI
 616              		.loc 1 191 0
 617 0028 E169     		ldr	r1, [r4, #28]
 618 002a 0029     		cmp	r1, #0
 619 002c F9DB     		blt	.L48
 620              	.L45:
ARM GAS  C:\Users\DNIEL~1\AppData\Local\Temp\ccjIVf4F.s 			page 12


 621              		.loc 1 193 0
 622 002e 0F48     		ldr	r0, .L50+8
 623 0030 0221     		movs	r1, #2
 624 0032 FFF7FEFF 		bl	chEvtBroadcastFlagsI
 625              	.LBB40:
 626              		.loc 1 194 0
 627 0036 0023     		movs	r3, #0
 628              	.LVL46:
 629              	@ 194 "../../../ChibiOS/os/hal/platforms/STM32/can_lld.c" 1
 630 0038 83F31188 		msr     BASEPRI, r3
 631              	@ 0 "" 2
 632              	.LVL47:
 633              		.thumb
 634              	.L44:
 635              	.LBE40:
 636              		.loc 1 196 0
 637 003c 15F0100F 		tst	r5, #16
 638 0040 0BD0     		beq	.L47
 639              		.loc 1 198 0
 640 0042 636B     		ldr	r3, [r4, #52]
 641              	.LVL48:
 642 0044 1021     		movs	r1, #16
 643 0046 1961     		str	r1, [r3, #16]
 644              	.LBB41:
 645              		.loc 1 199 0
 646 0048 2023     		movs	r3, #32
 647              	.LVL49:
 648              	@ 199 "../../../ChibiOS/os/hal/platforms/STM32/can_lld.c" 1
 649 004a 83F31188 		msr     BASEPRI, r3
 650              	@ 0 "" 2
 651              	.LVL50:
 652              		.thumb
 653              	.LBE41:
 654              		.loc 1 200 0
 655 004e 0848     		ldr	r0, .L50+12
 656 0050 FFF7FEFF 		bl	chEvtBroadcastFlagsI
 657              	.LVL51:
 658              	.LBB42:
 659              		.loc 1 201 0
 660 0054 0023     		movs	r3, #0
 661              	.LVL52:
 662              	@ 201 "../../../ChibiOS/os/hal/platforms/STM32/can_lld.c" 1
 663 0056 83F31188 		msr     BASEPRI, r3
 664              	@ 0 "" 2
 665              	.LVL53:
 666              		.thumb
 667              	.L47:
 668              	.LBE42:
 669              	.LBE38:
 670              	.LBE37:
 671              		.loc 1 290 0
 672 005a BDE87040 		pop	{r4, r5, r6, lr}
 673              		.loc 1 289 0
 674 005e FFF7FEBF 		b	_port_irq_epilogue
 675              	.LVL54:
 676              	.L51:
 677 0062 00BF     		.align	2
ARM GAS  C:\Users\DNIEL~1\AppData\Local\Temp\ccjIVf4F.s 			page 13


 678              	.L50:
 679 0064 00000000 		.word	.LANCHOR0
 680 0068 14000000 		.word	.LANCHOR0+20
 681 006c 20000000 		.word	.LANCHOR0+32
 682 0070 28000000 		.word	.LANCHOR0+40
 683              		.cfi_endproc
 684              	.LFE125:
 685              		.size	Vector94, .-Vector94
 686 0074 AFF30080 		.section	.text.Vector98,"ax",%progbits
 686      AFF30080 
 686      AFF30080 
 687              		.align	2
 688              		.p2align 4,,15
 689              		.global	Vector98
 690              		.thumb
 691              		.thumb_func
 692              		.type	Vector98, %function
 693              	Vector98:
 694              	.LFB126:
 695              		.loc 1 297 0
 696              		.cfi_startproc
 697              		@ args = 0, pretend = 0, frame = 0
 698              		@ frame_needed = 0, uses_anonymous_args = 0
 699              	.LVL55:
 700 0000 70B5     		push	{r4, r5, r6, lr}
 701              	.LCFI4:
 702              		.cfi_def_cfa_offset 16
 703              	.LBB43:
 704              	.LBB44:
 705              		.loc 1 215 0
 706 0002 1C4D     		ldr	r5, .L57
 707              		.cfi_offset 14, -4
 708              		.cfi_offset 6, -8
 709              		.cfi_offset 5, -12
 710              		.cfi_offset 4, -16
 711 0004 6A6B     		ldr	r2, [r5, #52]
 712 0006 5468     		ldr	r4, [r2, #4]
 713              	.LVL56:
 714              		.loc 1 216 0
 715 0008 1C23     		movs	r3, #28
 716              		.loc 1 219 0
 717 000a 14F0080F 		tst	r4, #8
 718              		.loc 1 216 0
 719 000e 5360     		str	r3, [r2, #4]
 720              		.loc 1 219 0
 721 0010 1ED1     		bne	.L56
 722              	.LVL57:
 723              	.L53:
 724              		.loc 1 228 0
 725 0012 14F0040F 		tst	r4, #4
 726 0016 17D0     		beq	.L54
 727              	.LBB45:
 728              		.loc 1 230 0
 729 0018 6B6B     		ldr	r3, [r5, #52]
 730              	.LVL58:
 731 001a 9A69     		ldr	r2, [r3, #24]
 732              	.LVL59:
ARM GAS  C:\Users\DNIEL~1\AppData\Local\Temp\ccjIVf4F.s 			page 14


 733              		.loc 1 232 0
 734 001c 9969     		ldr	r1, [r3, #24]
 735              		.loc 1 234 0
 736 001e 12F0700F 		tst	r2, #112
 737              		.loc 1 232 0
 738 0022 21F07000 		bic	r0, r1, #112
 739              		.loc 1 233 0
 740 0026 02F0070C 		and	ip, r2, #7
 741              	.LVL60:
 742              		.loc 1 232 0
 743 002a 9861     		str	r0, [r3, #24]
 744              		.loc 1 235 0
 745 002c 18BF     		it	ne
 746 002e 4CF0080C 		orrne	ip, ip, #8
 747              	.LVL61:
 748              	.LBB46:
 749              		.loc 1 237 0
 750 0032 2023     		movs	r3, #32
 751              	.LVL62:
 752              	@ 237 "../../../ChibiOS/os/hal/platforms/STM32/can_lld.c" 1
 753 0034 83F31188 		msr     BASEPRI, r3
 754              	@ 0 "" 2
 755              	.LVL63:
 756              		.thumb
 757              	.LBE46:
 758              		.loc 1 240 0
 759 0038 0F48     		ldr	r0, .L57+4
 760 003a 4CEA0241 		orr	r1, ip, r2, lsl #16
 761 003e FFF7FEFF 		bl	chEvtBroadcastFlagsI
 762              	.LVL64:
 763              	.LBB47:
 764              		.loc 1 241 0
 765 0042 0023     		movs	r3, #0
 766              	.LVL65:
 767              	@ 241 "../../../ChibiOS/os/hal/platforms/STM32/can_lld.c" 1
 768 0044 83F31188 		msr     BASEPRI, r3
 769              	@ 0 "" 2
 770              	.LVL66:
 771              		.thumb
 772              	.L54:
 773              	.LBE47:
 774              	.LBE45:
 775              	.LBE44:
 776              	.LBE43:
 777              		.loc 1 304 0
 778 0048 BDE87040 		pop	{r4, r5, r6, lr}
 779              		.loc 1 303 0
 780 004c FFF7FEBF 		b	_port_irq_epilogue
 781              	.LVL67:
 782              	.L56:
 783              	.LBB51:
 784              	.LBB50:
 785              		.loc 1 221 0
 786 0050 1168     		ldr	r1, [r2, #0]
 787              		.loc 1 220 0
 788 0052 2846     		mov	r0, r5
 789 0054 0323     		movs	r3, #3
ARM GAS  C:\Users\DNIEL~1\AppData\Local\Temp\ccjIVf4F.s 			page 15


 790              		.loc 1 221 0
 791 0056 21F00201 		bic	r1, r1, #2
 792              		.loc 1 220 0
 793 005a 00F8303B 		strb	r3, [r0], #48
 794              		.loc 1 221 0
 795 005e 1160     		str	r1, [r2, #0]
 796              	.LBB48:
 797              		.loc 1 222 0
 798 0060 2023     		movs	r3, #32
 799              	.LVL68:
 800              	@ 222 "../../../ChibiOS/os/hal/platforms/STM32/can_lld.c" 1
 801 0062 83F31188 		msr     BASEPRI, r3
 802              	@ 0 "" 2
 803              	.LVL69:
 804              		.thumb
 805              	.LBE48:
 806              		.loc 1 223 0
 807 0066 0021     		movs	r1, #0
 808 0068 FFF7FEFF 		bl	chEvtBroadcastFlagsI
 809              	.LVL70:
 810              	.LBB49:
 811              		.loc 1 224 0
 812 006c 0023     		movs	r3, #0
 813              	@ 224 "../../../ChibiOS/os/hal/platforms/STM32/can_lld.c" 1
 814 006e 83F31188 		msr     BASEPRI, r3
 815              	@ 0 "" 2
 816              	.LVL71:
 817              		.thumb
 818 0072 CEE7     		b	.L53
 819              	.L58:
 820              		.align	2
 821              	.L57:
 822 0074 00000000 		.word	.LANCHOR0
 823 0078 28000000 		.word	.LANCHOR0+40
 824              	.LBE49:
 825              	.LBE50:
 826              	.LBE51:
 827              		.cfi_endproc
 828              	.LFE126:
 829              		.size	Vector98, .-Vector98
 830 007c AFF30080 		.section	.text.can_lld_init,"ax",%progbits
 831              		.align	2
 832              		.p2align 4,,15
 833              		.global	can_lld_init
 834              		.thumb
 835              		.thumb_func
 836              		.type	can_lld_init, %function
 837              	can_lld_init:
 838              	.LFB127:
 839              		.loc 1 374 0
 840              		.cfi_startproc
 841              		@ args = 0, pretend = 0, frame = 0
 842              		@ frame_needed = 0, uses_anonymous_args = 0
 843 0000 10B5     		push	{r4, lr}
 844              	.LCFI5:
 845              		.cfi_def_cfa_offset 8
 846              		.loc 1 378 0
ARM GAS  C:\Users\DNIEL~1\AppData\Local\Temp\ccjIVf4F.s 			page 16


 847 0002 064C     		ldr	r4, .L60
 848              		.cfi_offset 14, -4
 849              		.cfi_offset 4, -8
 850 0004 2046     		mov	r0, r4
 851 0006 FFF7FEFF 		bl	canObjectInit
 852              		.loc 1 389 0
 853 000a 0021     		movs	r1, #0
 854              		.loc 1 379 0
 855 000c 044B     		ldr	r3, .L60+4
 856              		.loc 1 389 0
 857 000e 0E20     		movs	r0, #14
 858 0010 0A46     		mov	r2, r1
 859              		.loc 1 379 0
 860 0012 6363     		str	r3, [r4, #52]
 861              		.loc 1 393 0
 862 0014 BDE81040 		pop	{r4, lr}
 863              		.loc 1 389 0
 864 0018 FFF7FEBF 		b	can_lld_set_filters
 865              	.L61:
 866              		.align	2
 867              	.L60:
 868 001c 00000000 		.word	.LANCHOR0
 869 0020 00640040 		.word	1073767424
 870              		.cfi_endproc
 871              	.LFE127:
 872              		.size	can_lld_init, .-can_lld_init
 873 0024 AFF30080 		.section	.text.can_lld_start,"ax",%progbits
 873      AFF30080 
 873      AFF30080 
 874              		.align	2
 875              		.p2align 4,,15
 876              		.global	can_lld_start
 877              		.thumb
 878              		.thumb_func
 879              		.type	can_lld_start, %function
 880              	can_lld_start:
 881              	.LFB128:
 882              		.loc 1 402 0
 883              		.cfi_startproc
 884              		@ args = 0, pretend = 0, frame = 0
 885              		@ frame_needed = 0, uses_anonymous_args = 0
 886              	.LVL72:
 887              		.loc 1 406 0
 888 0000 1A4B     		ldr	r3, .L69
 889 0002 9842     		cmp	r0, r3
 890              		.loc 1 402 0
 891 0004 10B5     		push	{r4, lr}
 892              	.LCFI6:
 893              		.cfi_def_cfa_offset 8
 894              		.loc 1 402 0
 895 0006 0446     		mov	r4, r0
 896              		.cfi_offset 14, -4
 897              		.cfi_offset 4, -8
 898              		.loc 1 406 0
 899 0008 19D0     		beq	.L68
 900              	.LVL73:
 901              	.L63:
ARM GAS  C:\Users\DNIEL~1\AppData\Local\Temp\ccjIVf4F.s 			page 17


 902              		.loc 1 438 0
 903 000a 636B     		ldr	r3, [r4, #52]
 904              		.loc 1 437 0
 905 000c 0221     		movs	r1, #2
 906              		.loc 1 438 0
 907 000e 0120     		movs	r0, #1
 908              		.loc 1 437 0
 909 0010 2170     		strb	r1, [r4, #0]
 910              		.loc 1 438 0
 911 0012 1860     		str	r0, [r3, #0]
 912              		.loc 1 439 0
 913 0014 5A68     		ldr	r2, [r3, #4]
 914 0016 12F0010F 		tst	r2, #1
 915 001a 08D1     		bne	.L64
 916              	.L66:
 917              		.loc 1 440 0
 918 001c 0620     		movs	r0, #6
 919 001e 0121     		movs	r1, #1
 920 0020 FFF7FEFF 		bl	chSchGoSleepTimeoutS
 921              		.loc 1 439 0
 922 0024 636B     		ldr	r3, [r4, #52]
 923 0026 5A68     		ldr	r2, [r3, #4]
 924 0028 12F0010F 		tst	r2, #1
 925 002c F6D0     		beq	.L66
 926              	.L64:
 927              		.loc 1 442 0
 928 002e 6068     		ldr	r0, [r4, #4]
 929 0030 4168     		ldr	r1, [r0, #4]
 930              		.loc 1 444 0
 931 0032 0268     		ldr	r2, [r0, #0]
 932              		.loc 1 447 0
 933 0034 0E48     		ldr	r0, .L69+4
 934              		.loc 1 442 0
 935 0036 D961     		str	r1, [r3, #28]
 936              		.loc 1 444 0
 937 0038 1A60     		str	r2, [r3, #0]
 938              		.loc 1 447 0
 939 003a 5861     		str	r0, [r3, #20]
 940              		.loc 1 451 0
 941 003c 10BD     		pop	{r4, pc}
 942              	.L68:
 943              		.loc 1 407 0
 944 003e 1320     		movs	r0, #19
 945 0040 B021     		movs	r1, #176
 946 0042 FFF7FEFF 		bl	nvicEnableVector
 947              		.loc 1 409 0
 948 0046 1420     		movs	r0, #20
 949 0048 B021     		movs	r1, #176
 950 004a FFF7FEFF 		bl	nvicEnableVector
 951              		.loc 1 411 0
 952 004e 1520     		movs	r0, #21
 953 0050 B021     		movs	r1, #176
 954 0052 FFF7FEFF 		bl	nvicEnableVector
 955              		.loc 1 413 0
 956 0056 1620     		movs	r0, #22
 957 0058 B021     		movs	r1, #176
 958 005a FFF7FEFF 		bl	nvicEnableVector
ARM GAS  C:\Users\DNIEL~1\AppData\Local\Temp\ccjIVf4F.s 			page 18


 959              		.loc 1 415 0
 960 005e 0548     		ldr	r0, .L69+8
 961 0060 016C     		ldr	r1, [r0, #64]
 962 0062 41F00072 		orr	r2, r1, #33554432
 963 0066 0264     		str	r2, [r0, #64]
 964 0068 CFE7     		b	.L63
 965              	.L70:
 966 006a 00BF     		.align	2
 967              	.L69:
 968 006c 00000000 		.word	.LANCHOR0
 969 0070 5B8F0100 		.word	102235
 970 0074 00380240 		.word	1073887232
 971              		.cfi_endproc
 972              	.LFE128:
 973              		.size	can_lld_start, .-can_lld_start
 974 0078 AFF30080 		.section	.text.can_lld_stop,"ax",%progbits
 974      AFF30080 
 975              		.align	2
 976              		.p2align 4,,15
 977              		.global	can_lld_stop
 978              		.thumb
 979              		.thumb_func
 980              		.type	can_lld_stop, %function
 981              	can_lld_stop:
 982              	.LFB129:
 983              		.loc 1 460 0
 984              		.cfi_startproc
 985              		@ args = 0, pretend = 0, frame = 0
 986              		@ frame_needed = 0, uses_anonymous_args = 0
 987              	.LVL74:
 988 0000 08B5     		push	{r3, lr}
 989              	.LCFI7:
 990              		.cfi_def_cfa_offset 8
 991              		.loc 1 463 0
 992 0002 0378     		ldrb	r3, [r0, #0]	@ zero_extendqisi2
 993              		.cfi_offset 14, -4
 994              		.cfi_offset 3, -8
 995 0004 032B     		cmp	r3, #3
 996 0006 00D0     		beq	.L73
 997              	.LVL75:
 998              	.L71:
 999 0008 08BD     		pop	{r3, pc}
 1000              	.LVL76:
 1001              	.L73:
 1002              		.loc 1 465 0
 1003 000a 0D49     		ldr	r1, .L74
 1004 000c 8842     		cmp	r0, r1
 1005 000e FBD1     		bne	.L71
 1006              		.loc 1 472 0
 1007 0010 0C4B     		ldr	r3, .L74+4
 1008 0012 0D4A     		ldr	r2, .L74+8
 1009              		.loc 1 473 0
 1010 0014 0021     		movs	r1, #0
 1011              		.loc 1 472 0
 1012 0016 1A60     		str	r2, [r3, #0]
 1013              		.loc 1 474 0
 1014 0018 1320     		movs	r0, #19
ARM GAS  C:\Users\DNIEL~1\AppData\Local\Temp\ccjIVf4F.s 			page 19


 1015              	.LVL77:
 1016              		.loc 1 473 0
 1017 001a 5961     		str	r1, [r3, #20]
 1018              		.loc 1 474 0
 1019 001c FFF7FEFF 		bl	nvicDisableVector
 1020              		.loc 1 475 0
 1021 0020 1420     		movs	r0, #20
 1022 0022 FFF7FEFF 		bl	nvicDisableVector
 1023              		.loc 1 476 0
 1024 0026 1520     		movs	r0, #21
 1025 0028 FFF7FEFF 		bl	nvicDisableVector
 1026              		.loc 1 477 0
 1027 002c 1620     		movs	r0, #22
 1028 002e FFF7FEFF 		bl	nvicDisableVector
 1029              		.loc 1 478 0
 1030 0032 0648     		ldr	r0, .L74+12
 1031 0034 036C     		ldr	r3, [r0, #64]
 1032 0036 23F00072 		bic	r2, r3, #33554432
 1033 003a 0264     		str	r2, [r0, #64]
 1034 003c E4E7     		b	.L71
 1035              	.L75:
 1036 003e 00BF     		.align	2
 1037              	.L74:
 1038 0040 00000000 		.word	.LANCHOR0
 1039 0044 00640040 		.word	1073767424
 1040 0048 02000100 		.word	65538
 1041 004c 00380240 		.word	1073887232
 1042              		.cfi_endproc
 1043              	.LFE129:
 1044              		.size	can_lld_stop, .-can_lld_stop
 1045              		.section	.text.can_lld_is_tx_empty,"ax",%progbits
 1046              		.align	2
 1047              		.p2align 4,,15
 1048              		.global	can_lld_is_tx_empty
 1049              		.thumb
 1050              		.thumb_func
 1051              		.type	can_lld_is_tx_empty, %function
 1052              	can_lld_is_tx_empty:
 1053              	.LFB130:
 1054              		.loc 1 507 0
 1055              		.cfi_startproc
 1056              		@ args = 0, pretend = 0, frame = 0
 1057              		@ frame_needed = 0, uses_anonymous_args = 0
 1058              		@ link register save eliminated.
 1059              	.LVL78:
 1060              		.loc 1 509 0
 1061 0000 0329     		cmp	r1, #3
 1062 0002 1AD8     		bhi	.L83
 1063 0004 DFE801F0 		tbb	[pc, r1]
 1064              	.L82:
 1065 0008 11       		.byte	(.L78-.L82)/2
 1066 0009 0C       		.byte	(.L79-.L82)/2
 1067 000a 07       		.byte	(.L80-.L82)/2
 1068 000b 02       		.byte	(.L81-.L82)/2
 1069              		.align	1
 1070              	.L81:
 1071              		.loc 1 517 0
ARM GAS  C:\Users\DNIEL~1\AppData\Local\Temp\ccjIVf4F.s 			page 20


 1072 000c 426B     		ldr	r2, [r0, #52]
 1073 000e 9168     		ldr	r1, [r2, #8]
 1074              	.LVL79:
 1075 0010 C1F30070 		ubfx	r0, r1, #28, #1
 1076              	.LVL80:
 1077 0014 7047     		bx	lr
 1078              	.LVL81:
 1079              	.L80:
 1080              		.loc 1 515 0
 1081 0016 406B     		ldr	r0, [r0, #52]
 1082              	.LVL82:
 1083 0018 8368     		ldr	r3, [r0, #8]
 1084 001a C3F3C060 		ubfx	r0, r3, #27, #1
 1085 001e 7047     		bx	lr
 1086              	.LVL83:
 1087              	.L79:
 1088              		.loc 1 513 0
 1089 0020 426B     		ldr	r2, [r0, #52]
 1090 0022 9168     		ldr	r1, [r2, #8]
 1091              	.LVL84:
 1092 0024 C1F38060 		ubfx	r0, r1, #26, #1
 1093              	.LVL85:
 1094 0028 7047     		bx	lr
 1095              	.LVL86:
 1096              	.L78:
 1097              		.loc 1 511 0
 1098 002a 406B     		ldr	r0, [r0, #52]
 1099              	.LVL87:
 1100 002c 8368     		ldr	r3, [r0, #8]
 1101 002e 13F0E05F 		tst	r3, #469762048
 1102 0032 0CBF     		ite	eq
 1103 0034 0020     		moveq	r0, #0
 1104 0036 0120     		movne	r0, #1
 1105 0038 7047     		bx	lr
 1106              	.LVL88:
 1107              	.L83:
 1108              		.loc 1 519 0
 1109 003a 0020     		movs	r0, #0
 1110              	.LVL89:
 1111              		.loc 1 521 0
 1112 003c 7047     		bx	lr
 1113              		.cfi_endproc
 1114              	.LFE130:
 1115              		.size	can_lld_is_tx_empty, .-can_lld_is_tx_empty
 1116 003e 00BF     		.section	.text.can_lld_transmit,"ax",%progbits
 1117              		.align	2
 1118              		.p2align 4,,15
 1119              		.global	can_lld_transmit
 1120              		.thumb
 1121              		.thumb_func
 1122              		.type	can_lld_transmit, %function
 1123              	can_lld_transmit:
 1124              	.LFB131:
 1125              		.loc 1 534 0
 1126              		.cfi_startproc
 1127              		@ args = 0, pretend = 0, frame = 0
 1128              		@ frame_needed = 0, uses_anonymous_args = 0
ARM GAS  C:\Users\DNIEL~1\AppData\Local\Temp\ccjIVf4F.s 			page 21


 1129              		@ link register save eliminated.
 1130              	.LVL90:
 1131 0000 10B4     		push	{r4}
 1132              	.LCFI8:
 1133              		.cfi_def_cfa_offset 4
 1134              		.loc 1 539 0
 1135 0002 0329     		cmp	r1, #3
 1136 0004 1ED8     		bhi	.L84
 1137 0006 DFE801F0 		tbb	[pc, r1]
 1138              		.cfi_offset 4, -4
 1139              	.L90:
 1140 000a 34       		.byte	(.L86-.L90)/2
 1141 000b 30       		.byte	(.L87-.L90)/2
 1142 000c 1F       		.byte	(.L88-.L90)/2
 1143 000d 02       		.byte	(.L89-.L90)/2
 1144              		.align	1
 1145              	.L89:
 1146              		.loc 1 550 0
 1147 000e 416B     		ldr	r1, [r0, #52]
 1148              	.LVL91:
 1149 0010 01F5D073 		add	r3, r1, #416
 1150              	.LVL92:
 1151              	.L91:
 1152              		.loc 1 557 0
 1153 0014 1178     		ldrb	r1, [r2, #0]	@ zero_extendqisi2
 1154 0016 01F0200C 		and	ip, r1, #32
 1155 001a 5FFA8CF0 		uxtb	r0, ip
 1156 001e E8B1     		cbz	r0, .L92
 1157              	.L94:
 1158              		.loc 1 558 0
 1159 0020 5468     		ldr	r4, [r2, #4]
 1160 0022 C1F30010 		ubfx	r0, r1, #4, #1
 1161 0026 4000     		lsls	r0, r0, #1
 1162 0028 40EAC400 		orr	r0, r0, r4, lsl #3
 1163 002c 40F00400 		orr	r0, r0, #4
 1164              	.LVL93:
 1165              	.L93:
 1166              		.loc 1 562 0
 1167 0030 01F00F01 		and	r1, r1, #15
 1168 0034 5960     		str	r1, [r3, #4]
 1169              		.loc 1 563 0
 1170 0036 9168     		ldr	r1, [r2, #8]
 1171 0038 9960     		str	r1, [r3, #8]
 1172              		.loc 1 564 0
 1173 003a D168     		ldr	r1, [r2, #12]
 1174              		.loc 1 565 0
 1175 003c 40F00102 		orr	r2, r0, #1
 1176              	.LVL94:
 1177              		.loc 1 564 0
 1178 0040 D960     		str	r1, [r3, #12]
 1179              		.loc 1 565 0
 1180 0042 1A60     		str	r2, [r3, #0]
 1181              	.LVL95:
 1182              	.L84:
 1183              		.loc 1 566 0
 1184 0044 10BC     		pop	{r4}
 1185 0046 7047     		bx	lr
ARM GAS  C:\Users\DNIEL~1\AppData\Local\Temp\ccjIVf4F.s 			page 22


 1186              	.LVL96:
 1187              	.L88:
 1188              		.loc 1 557 0
 1189 0048 1178     		ldrb	r1, [r2, #0]	@ zero_extendqisi2
 1190              	.LVL97:
 1191              		.loc 1 547 0
 1192 004a 436B     		ldr	r3, [r0, #52]
 1193              		.loc 1 557 0
 1194 004c 01F0200C 		and	ip, r1, #32
 1195 0050 5FFA8CF0 		uxtb	r0, ip
 1196              	.LVL98:
 1197              		.loc 1 547 0
 1198 0054 03F5C873 		add	r3, r3, #400
 1199              	.LVL99:
 1200              		.loc 1 557 0
 1201 0058 0028     		cmp	r0, #0
 1202 005a E1D1     		bne	.L94
 1203              	.L92:
 1204              		.loc 1 561 0
 1205 005c 9088     		ldrh	r0, [r2, #4]
 1206 005e C1F30014 		ubfx	r4, r1, #4, #1
 1207 0062 4005     		lsls	r0, r0, #21
 1208 0064 40EA4400 		orr	r0, r0, r4, lsl #1
 1209              	.LVL100:
 1210 0068 E2E7     		b	.L93
 1211              	.LVL101:
 1212              	.L87:
 1213              		.loc 1 544 0
 1214 006a 446B     		ldr	r4, [r0, #52]
 1215 006c 04F5C073 		add	r3, r4, #384
 1216              	.LVL102:
 1217              		.loc 1 545 0
 1218 0070 D0E7     		b	.L91
 1219              	.LVL103:
 1220              	.L86:
 1221              		.loc 1 541 0
 1222 0072 416B     		ldr	r1, [r0, #52]
 1223              	.LVL104:
 1224 0074 8868     		ldr	r0, [r1, #8]
 1225              	.LVL105:
 1226 0076 C0F30163 		ubfx	r3, r0, #24, #2
 1227 007a 1833     		adds	r3, r3, #24
 1228 007c 01EB0313 		add	r3, r1, r3, lsl #4
 1229              	.LVL106:
 1230              		.loc 1 542 0
 1231 0080 C8E7     		b	.L91
 1232              		.cfi_endproc
 1233              	.LFE131:
 1234              		.size	can_lld_transmit, .-can_lld_transmit
 1235 0082 00BFAFF3 		.section	.text.can_lld_is_rx_nonempty,"ax",%progbits
 1235      0080AFF3 
 1235      0080AFF3 
 1235      0080
 1236              		.align	2
 1237              		.p2align 4,,15
 1238              		.global	can_lld_is_rx_nonempty
 1239              		.thumb
ARM GAS  C:\Users\DNIEL~1\AppData\Local\Temp\ccjIVf4F.s 			page 23


 1240              		.thumb_func
 1241              		.type	can_lld_is_rx_nonempty, %function
 1242              	can_lld_is_rx_nonempty:
 1243              	.LFB132:
 1244              		.loc 1 580 0
 1245              		.cfi_startproc
 1246              		@ args = 0, pretend = 0, frame = 0
 1247              		@ frame_needed = 0, uses_anonymous_args = 0
 1248              		@ link register save eliminated.
 1249              	.LVL107:
 1250              		.loc 1 582 0
 1251 0000 0129     		cmp	r1, #1
 1252 0002 0FD0     		beq	.L98
 1253 0004 03D3     		bcc	.L97
 1254 0006 0229     		cmp	r1, #2
 1255 0008 13D0     		beq	.L105
 1256              		.loc 1 591 0
 1257 000a 0020     		movs	r0, #0
 1258              	.LVL108:
 1259              		.loc 1 593 0
 1260 000c 7047     		bx	lr
 1261              	.LVL109:
 1262              	.L97:
 1263              		.loc 1 584 0
 1264 000e 436B     		ldr	r3, [r0, #52]
 1265 0010 DA68     		ldr	r2, [r3, #12]
 1266 0012 12F0030F 		tst	r2, #3
 1267 0016 13D1     		bne	.L102
 1268              		.loc 1 589 0
 1269 0018 1969     		ldr	r1, [r3, #16]
 1270              	.LVL110:
 1271 001a 11F00300 		ands	r0, r1, #3
 1272              	.LVL111:
 1273 001e 18BF     		it	ne
 1274 0020 0120     		movne	r0, #1
 1275 0022 7047     		bx	lr
 1276              	.LVL112:
 1277              	.L98:
 1278              		.loc 1 587 0
 1279 0024 436B     		ldr	r3, [r0, #52]
 1280 0026 D868     		ldr	r0, [r3, #12]
 1281              	.LVL113:
 1282 0028 10F00300 		ands	r0, r0, #3
 1283 002c 18BF     		it	ne
 1284 002e 0120     		movne	r0, #1
 1285 0030 7047     		bx	lr
 1286              	.LVL114:
 1287              	.L105:
 1288              		.loc 1 589 0
 1289 0032 436B     		ldr	r3, [r0, #52]
 1290 0034 1969     		ldr	r1, [r3, #16]
 1291              	.LVL115:
 1292 0036 11F00300 		ands	r0, r1, #3
 1293              	.LVL116:
 1294 003a 18BF     		it	ne
 1295 003c 0120     		movne	r0, #1
 1296 003e 7047     		bx	lr
ARM GAS  C:\Users\DNIEL~1\AppData\Local\Temp\ccjIVf4F.s 			page 24


 1297              	.LVL117:
 1298              	.L102:
 1299              		.loc 1 584 0
 1300 0040 0120     		movs	r0, #1
 1301              	.LVL118:
 1302 0042 7047     		bx	lr
 1303              		.cfi_endproc
 1304              	.LFE132:
 1305              		.size	can_lld_is_rx_nonempty, .-can_lld_is_rx_nonempty
 1306 0044 AFF30080 		.section	.text.can_lld_receive,"ax",%progbits
 1306      AFF30080 
 1306      AFF30080 
 1307              		.align	2
 1308              		.p2align 4,,15
 1309              		.global	can_lld_receive
 1310              		.thumb
 1311              		.thumb_func
 1312              		.type	can_lld_receive, %function
 1313              	can_lld_receive:
 1314              	.LFB133:
 1315              		.loc 1 606 0
 1316              		.cfi_startproc
 1317              		@ args = 0, pretend = 0, frame = 0
 1318              		@ frame_needed = 0, uses_anonymous_args = 0
 1319              		@ link register save eliminated.
 1320              	.LVL119:
 1321 0000 30B4     		push	{r4, r5}
 1322              	.LCFI9:
 1323              		.cfi_def_cfa_offset 8
 1324              		.loc 1 609 0
 1325 0002 0029     		cmp	r1, #0
 1326 0004 36D1     		bne	.L107
 1327              		.cfi_offset 5, -4
 1328              		.cfi_offset 4, -8
 1329              		.loc 1 610 0
 1330 0006 436B     		ldr	r3, [r0, #52]
 1331 0008 D968     		ldr	r1, [r3, #12]
 1332              	.LVL120:
 1333 000a 11F0030F 		tst	r1, #3
 1334 000e 37D0     		beq	.L116
 1335              	.L108:
 1336              		.loc 1 622 0
 1337 0010 D3F8B041 		ldr	r4, [r3, #432]
 1338              	.LVL121:
 1339              		.loc 1 623 0
 1340 0014 D3F8B411 		ldr	r1, [r3, #436]
 1341              	.LVL122:
 1342              		.loc 1 624 0
 1343 0018 D3F8B831 		ldr	r3, [r3, #440]
 1344 001c D360     		str	r3, [r2, #12]
 1345              		.loc 1 625 0
 1346 001e 456B     		ldr	r5, [r0, #52]
 1347 0020 D5F8BC31 		ldr	r3, [r5, #444]
 1348 0024 1361     		str	r3, [r2, #16]
 1349              		.loc 1 628 0
 1350 0026 436B     		ldr	r3, [r0, #52]
 1351 0028 2025     		movs	r5, #32
ARM GAS  C:\Users\DNIEL~1\AppData\Local\Temp\ccjIVf4F.s 			page 25


 1352 002a DD60     		str	r5, [r3, #12]
 1353              		.loc 1 632 0
 1354 002c D868     		ldr	r0, [r3, #12]
 1355              	.LVL123:
 1356 002e 10F0030F 		tst	r0, #3
 1357 0032 48D0     		beq	.L117
 1358              	.L113:
 1359              		.loc 1 656 0
 1360 0034 92F804C0 		ldrb	ip, [r2, #4]	@ zero_extendqisi2
 1361 0038 C4F34005 		ubfx	r5, r4, #1, #1
 1362 003c 65F3041C 		bfi	ip, r5, #4, #1
 1363              		.loc 1 657 0
 1364 0040 C4F38000 		ubfx	r0, r4, #2, #1
 1365 0044 60F3451C 		bfi	ip, r0, #5, #1
 1366              		.loc 1 658 0
 1367 0048 6046     		mov	r0, ip
 1368 004a 00F02003 		and	r3, r0, #32
 1369 004e DDB2     		uxtb	r5, r3
 1370              		.loc 1 657 0
 1371 0050 82F804C0 		strb	ip, [r2, #4]
 1372              		.loc 1 658 0
 1373 0054 002D     		cmp	r5, #0
 1374 0056 2ED0     		beq	.L114
 1375              		.loc 1 659 0
 1376 0058 9368     		ldr	r3, [r2, #8]
 1377 005a E408     		lsrs	r4, r4, #3
 1378              	.LVL124:
 1379 005c 64F31C03 		bfi	r3, r4, #0, #29
 1380 0060 9360     		str	r3, [r2, #8]
 1381              	.L115:
 1382              		.loc 1 662 0
 1383 0062 0346     		mov	r3, r0
 1384 0064 61F30303 		bfi	r3, r1, #0, #4
 1385              		.loc 1 663 0
 1386 0068 080A     		lsrs	r0, r1, #8
 1387              		.loc 1 664 0
 1388 006a 090C     		lsrs	r1, r1, #16
 1389              	.LVL125:
 1390              		.loc 1 662 0
 1391 006c 1371     		strb	r3, [r2, #4]
 1392              		.loc 1 663 0
 1393 006e 1070     		strb	r0, [r2, #0]
 1394              		.loc 1 664 0
 1395 0070 5180     		strh	r1, [r2, #2]	@ movhi
 1396 0072 03E0     		b	.L106
 1397              	.LVL126:
 1398              	.L107:
 1399              		.loc 1 619 0
 1400 0074 0129     		cmp	r1, #1
 1401 0076 2BD0     		beq	.L111
 1402 0078 0229     		cmp	r1, #2
 1403 007a 2BD0     		beq	.L118
 1404              	.LVL127:
 1405              	.L106:
 1406              		.loc 1 665 0
 1407 007c 30BC     		pop	{r4, r5}
 1408 007e 7047     		bx	lr
ARM GAS  C:\Users\DNIEL~1\AppData\Local\Temp\ccjIVf4F.s 			page 26


 1409              	.LVL128:
 1410              	.L116:
 1411              		.loc 1 612 0
 1412 0080 1969     		ldr	r1, [r3, #16]
 1413 0082 11F0030F 		tst	r1, #3
 1414 0086 F9D0     		beq	.L106
 1415              	.L109:
 1416              		.loc 1 637 0
 1417 0088 D3F8C041 		ldr	r4, [r3, #448]
 1418              	.LVL129:
 1419              		.loc 1 638 0
 1420 008c D3F8C411 		ldr	r1, [r3, #452]
 1421              	.LVL130:
 1422              		.loc 1 639 0
 1423 0090 D3F8C831 		ldr	r3, [r3, #456]
 1424 0094 D360     		str	r3, [r2, #12]
 1425              		.loc 1 640 0
 1426 0096 456B     		ldr	r5, [r0, #52]
 1427 0098 D5F8CC31 		ldr	r3, [r5, #460]
 1428 009c 1361     		str	r3, [r2, #16]
 1429              		.loc 1 643 0
 1430 009e 436B     		ldr	r3, [r0, #52]
 1431 00a0 2025     		movs	r5, #32
 1432 00a2 1D61     		str	r5, [r3, #16]
 1433              		.loc 1 647 0
 1434 00a4 1869     		ldr	r0, [r3, #16]
 1435              	.LVL131:
 1436 00a6 10F0030F 		tst	r0, #3
 1437 00aa C3D1     		bne	.L113
 1438              		.loc 1 648 0
 1439 00ac 5D69     		ldr	r5, [r3, #20]
 1440 00ae 45F01000 		orr	r0, r5, #16
 1441 00b2 5861     		str	r0, [r3, #20]
 1442 00b4 BEE7     		b	.L113
 1443              	.L114:
 1444              		.loc 1 661 0
 1445 00b6 B2F808C0 		ldrh	ip, [r2, #8]
 1446 00ba 640D     		lsrs	r4, r4, #21
 1447              	.LVL132:
 1448 00bc 64F30A0C 		bfi	ip, r4, #0, #11
 1449 00c0 A2F808C0 		strh	ip, [r2, #8]	@ movhi
 1450 00c4 CDE7     		b	.L115
 1451              	.LVL133:
 1452              	.L117:
 1453              		.loc 1 633 0
 1454 00c6 5D69     		ldr	r5, [r3, #20]
 1455 00c8 45F00200 		orr	r0, r5, #2
 1456 00cc 5861     		str	r0, [r3, #20]
 1457 00ce B1E7     		b	.L113
 1458              	.LVL134:
 1459              	.L111:
 1460              		.loc 1 619 0
 1461 00d0 436B     		ldr	r3, [r0, #52]
 1462 00d2 9DE7     		b	.L108
 1463              	.L118:
 1464 00d4 436B     		ldr	r3, [r0, #52]
 1465 00d6 D7E7     		b	.L109
ARM GAS  C:\Users\DNIEL~1\AppData\Local\Temp\ccjIVf4F.s 			page 27


 1466              		.cfi_endproc
 1467              	.LFE133:
 1468              		.size	can_lld_receive, .-can_lld_receive
 1469 00d8 AFF30080 		.section	.text.can_lld_sleep,"ax",%progbits
 1469      AFF30080 
 1470              		.align	2
 1471              		.p2align 4,,15
 1472              		.global	can_lld_sleep
 1473              		.thumb
 1474              		.thumb_func
 1475              		.type	can_lld_sleep, %function
 1476              	can_lld_sleep:
 1477              	.LFB134:
 1478              		.loc 1 675 0
 1479              		.cfi_startproc
 1480              		@ args = 0, pretend = 0, frame = 0
 1481              		@ frame_needed = 0, uses_anonymous_args = 0
 1482              		@ link register save eliminated.
 1483              	.LVL135:
 1484              		.loc 1 677 0
 1485 0000 436B     		ldr	r3, [r0, #52]
 1486 0002 1868     		ldr	r0, [r3, #0]
 1487              	.LVL136:
 1488 0004 40F00202 		orr	r2, r0, #2
 1489 0008 1A60     		str	r2, [r3, #0]
 1490              		.loc 1 678 0
 1491 000a 7047     		bx	lr
 1492              		.cfi_endproc
 1493              	.LFE134:
 1494              		.size	can_lld_sleep, .-can_lld_sleep
 1495 000c AFF30080 		.section	.text.can_lld_wakeup,"ax",%progbits
 1496              		.align	2
 1497              		.p2align 4,,15
 1498              		.global	can_lld_wakeup
 1499              		.thumb
 1500              		.thumb_func
 1501              		.type	can_lld_wakeup, %function
 1502              	can_lld_wakeup:
 1503              	.LFB135:
 1504              		.loc 1 687 0
 1505              		.cfi_startproc
 1506              		@ args = 0, pretend = 0, frame = 0
 1507              		@ frame_needed = 0, uses_anonymous_args = 0
 1508              		@ link register save eliminated.
 1509              	.LVL137:
 1510              		.loc 1 689 0
 1511 0000 436B     		ldr	r3, [r0, #52]
 1512 0002 1868     		ldr	r0, [r3, #0]
 1513              	.LVL138:
 1514 0004 20F00202 		bic	r2, r0, #2
 1515 0008 1A60     		str	r2, [r3, #0]
 1516              		.loc 1 690 0
 1517 000a 7047     		bx	lr
 1518              		.cfi_endproc
 1519              	.LFE135:
 1520              		.size	can_lld_wakeup, .-can_lld_wakeup
 1521 000c AFF30080 		.section	.text.canSTM32SetFilters,"ax",%progbits
ARM GAS  C:\Users\DNIEL~1\AppData\Local\Temp\ccjIVf4F.s 			page 28


 1522              		.align	2
 1523              		.p2align 4,,15
 1524              		.global	canSTM32SetFilters
 1525              		.thumb
 1526              		.thumb_func
 1527              		.type	canSTM32SetFilters, %function
 1528              	canSTM32SetFilters:
 1529              	.LFB136:
 1530              		.loc 1 705 0
 1531              		.cfi_startproc
 1532              		@ args = 0, pretend = 0, frame = 0
 1533              		@ frame_needed = 0, uses_anonymous_args = 0
 1534              		@ link register save eliminated.
 1535              	.LVL139:
 1536              		.loc 1 721 0
 1537              		.loc 1 720 0
 1538 0000 FFF7FEBF 		b	can_lld_set_filters
 1539              		.cfi_endproc
 1540              	.LFE136:
 1541              		.size	canSTM32SetFilters, .-canSTM32SetFilters
 1542              		.global	CAND1
 1543 0004 AFF30080 		.section	.bss.CAND1,"aw",%nobits
 1543      AFF30080 
 1543      AFF30080 
 1544              		.align	2
 1545              		.set	.LANCHOR0,. + 0
 1546              		.type	CAND1, %object
 1547              		.size	CAND1, 56
 1548              	CAND1:
 1549 0000 00000000 		.space	56
 1549      00000000 
 1549      00000000 
 1549      00000000 
 1549      00000000 
 1550              		.text
 1551              	.Letext0: